
output.riscv:     file format elf64-littleriscv


Disassembly of section .text:

0000000080000000 <main>:
    80000000:	40000137          	lui	sp,0x40000
    80000004:	00111113          	slli	sp,sp,0x1
    80000008:	000101b7          	lui	gp,0x10
    8000000c:	00310133          	add	sp,sp,gp
    80000010:	000032b7          	lui	t0,0x3
    80000014:	3002a073          	csrs	mstatus,t0
    80000018:	09f00293          	li	t0,159
    8000001c:	0032a073          	csrs	fcsr,t0
    80000020:	00813083          	ld	ra,8(sp) # 40000008 <main-0x3ffffff8>
    80000024:	01813183          	ld	gp,24(sp)
    80000028:	02013203          	ld	tp,32(sp)
    8000002c:	02813283          	ld	t0,40(sp)
    80000030:	03013303          	ld	t1,48(sp)
    80000034:	03813383          	ld	t2,56(sp)
    80000038:	04013403          	ld	s0,64(sp)
    8000003c:	04813483          	ld	s1,72(sp)
    80000040:	05013503          	ld	a0,80(sp)
    80000044:	05813583          	ld	a1,88(sp)
    80000048:	06013603          	ld	a2,96(sp)
    8000004c:	06813683          	ld	a3,104(sp)
    80000050:	07013703          	ld	a4,112(sp)
    80000054:	07813783          	ld	a5,120(sp)
    80000058:	08013803          	ld	a6,128(sp)
    8000005c:	08813883          	ld	a7,136(sp)
    80000060:	09013903          	ld	s2,144(sp)
    80000064:	09813983          	ld	s3,152(sp)
    80000068:	0a013a03          	ld	s4,160(sp)
    8000006c:	0a813a83          	ld	s5,168(sp)
    80000070:	0b013b03          	ld	s6,176(sp)
    80000074:	0b813b83          	ld	s7,184(sp)
    80000078:	0c013c03          	ld	s8,192(sp)
    8000007c:	0c813c83          	ld	s9,200(sp)
    80000080:	0d013d03          	ld	s10,208(sp)
    80000084:	0d813d83          	ld	s11,216(sp)
    80000088:	0e013e03          	ld	t3,224(sp)
    8000008c:	0e813e83          	ld	t4,232(sp)
    80000090:	0f013f03          	ld	t5,240(sp)
    80000094:	0f813f83          	ld	t6,248(sp)

0000000080000098 <i_0>:
    80000098:	cf108593          	addi	a1,ra,-783

000000008000009c <i_1>:
    8000009c:	0210e0bb          	remw	ra,ra,ra

00000000800000a0 <i_2>:
    800000a0:	f0c16683          	lwu	a3,-244(sp)

00000000800000a4 <i_3>:
    800000a4:	fed12e23          	sw	a3,-4(sp)

00000000800000a8 <i_4>:
    800000a8:	13f10683          	lb	a3,319(sp)

00000000800000ac <i_5>:
    800000ac:	fad11823          	sh	a3,-80(sp)

00000000800000b0 <i_6>:
    800000b0:	e8215083          	lhu	ra,-382(sp)

00000000800000b4 <i_7>:
    800000b4:	3395ac93          	slti	s9,a1,825

00000000800000b8 <i_8>:
    800000b8:	03eccbb3          	div	s7,s9,t5

00000000800000bc <i_9>:
    800000bc:	0f911f23          	sh	s9,254(sp)

00000000800000c0 <i_10>:
    800000c0:	139100a3          	sb	s9,289(sp)

00000000800000c4 <i_11>:
    800000c4:	eb910f23          	sb	s9,-322(sp)

00000000800000c8 <i_12>:
    800000c8:	002ede9b          	srliw	t4,t4,0x2

00000000800000cc <i_13>:
    800000cc:	01799263          	bne	s3,s7,800000d0 <i_14>

00000000800000d0 <i_14>:
    800000d0:	eb912023          	sw	s9,-352(sp)

00000000800000d4 <i_15>:
    800000d4:	16314183          	lbu	gp,355(sp)

00000000800000d8 <i_16>:
    800000d8:	1e010403          	lb	s0,480(sp)

00000000800000dc <i_17>:
    800000dc:	eeb106a3          	sb	a1,-275(sp)

00000000800000e0 <i_18>:
    800000e0:	417c8c33          	sub	s8,s9,s7

00000000800000e4 <i_19>:
    800000e4:	0ad10723          	sb	a3,174(sp)

00000000800000e8 <i_20>:
    800000e8:	e8811b23          	sh	s0,-362(sp)

00000000800000ec <i_21>:
    800000ec:	0025d59b          	srliw	a1,a1,0x2

00000000800000f0 <i_22>:
    800000f0:	e4c16b83          	lwu	s7,-436(sp)

00000000800000f4 <i_23>:
    800000f4:	07811f23          	sh	s8,126(sp)

00000000800000f8 <i_24>:
    800000f8:	01744db3          	xor	s11,s0,s7

00000000800000fc <i_25>:
    800000fc:	008c5263          	ble	s0,s8,80000100 <i_26>

0000000080000100 <i_26>:
    80000100:	027235b3          	mulhu	a1,tp,t2

0000000080000104 <i_27>:
    80000104:	0085cc63          	blt	a1,s0,8000011c <i_33>

0000000080000108 <i_28>:
    80000108:	15c16583          	lwu	a1,348(sp)

000000008000010c <i_29>:
    8000010c:	f9810fa3          	sb	s8,-97(sp)

0000000080000110 <i_30>:
    80000110:	00b59463          	bne	a1,a1,80000118 <i_32>

0000000080000114 <i_31>:
    80000114:	58edeb13          	ori	s6,s11,1422

0000000080000118 <i_32>:
    80000118:	ee514c03          	lbu	s8,-283(sp)

000000008000011c <i_33>:
    8000011c:	021daa33          	mulhsu	s4,s11,ra

0000000080000120 <i_34>:
    80000120:	02b443bb          	divw	t2,s0,a1

0000000080000124 <i_35>:
    80000124:	13615a83          	lhu	s5,310(sp)

0000000080000128 <i_36>:
    80000128:	00b43f33          	sltu	t5,s0,a1

000000008000012c <i_37>:
    8000012c:	0345cc3b          	divw	s8,a1,s4

0000000080000130 <i_38>:
    80000130:	016c6a63          	bltu	s8,s6,80000144 <i_43>

0000000080000134 <i_39>:
    80000134:	00300613          	li	a2,3

0000000080000138 <i_40>:
    80000138:	00cc153b          	sllw	a0,s8,a2

000000008000013c <i_41>:
    8000013c:	11f10503          	lb	a0,287(sp)

0000000080000140 <i_42>:
    80000140:	0ea13023          	sd	a0,224(sp)

0000000080000144 <i_43>:
    80000144:	0045921b          	slliw	tp,a1,0x4

0000000080000148 <i_44>:
    80000148:	02810e83          	lb	t4,40(sp)

000000008000014c <i_45>:
    8000014c:	84300593          	li	a1,-1981

0000000080000150 <i_46>:
    80000150:	85300513          	li	a0,-1965

0000000080000154 <i_47>:
    80000154:	e5d10723          	sb	t4,-434(sp)

0000000080000158 <i_48>:
    80000158:	fc9f4eb7          	lui	t4,0xfc9f4

000000008000015c <i_49>:
    8000015c:	05710f23          	sb	s7,94(sp)

0000000080000160 <i_50>:
    80000160:	003f5d93          	srli	s11,t5,0x3

0000000080000164 <i_51>:
    80000164:	02813b83          	ld	s7,40(sp)

0000000080000168 <i_52>:
    80000168:	16810f23          	sb	s0,382(sp)

000000008000016c <i_53>:
    8000016c:	01bbc433          	xor	s0,s7,s11

0000000080000170 <i_54>:
    80000170:	00158593          	addi	a1,a1,1
    80000174:	fea5c0e3          	blt	a1,a0,80000154 <i_47>

0000000080000178 <i_55>:
    80000178:	eda11223          	sh	s10,-316(sp)

000000008000017c <i_56>:
    8000017c:	f9f11c23          	sh	t6,-104(sp)

0000000080000180 <i_57>:
    80000180:	05d14d03          	lbu	s10,93(sp)

0000000080000184 <i_58>:
    80000184:	41a404b3          	sub	s1,s0,s10

0000000080000188 <i_59>:
    80000188:	ef611783          	lh	a5,-266(sp)

000000008000018c <i_60>:
    8000018c:	03ad0d3b          	mulw	s10,s10,s10

0000000080000190 <i_61>:
    80000190:	f7312e23          	sw	s3,-132(sp)

0000000080000194 <i_62>:
    80000194:	0347df3b          	divuw	t5,a5,s4

0000000080000198 <i_63>:
    80000198:	ffb12a23          	sw	s11,-12(sp)

000000008000019c <i_64>:
    8000019c:	e5e13423          	sd	t5,-440(sp)

00000000800001a0 <i_65>:
    800001a0:	ea510323          	sb	t0,-346(sp)

00000000800001a4 <i_66>:
    800001a4:	e8411923          	sh	tp,-366(sp)

00000000800001a8 <i_67>:
    800001a8:	01300793          	li	a5,19

00000000800001ac <i_68>:
    800001ac:	00fd1f3b          	sllw	t5,s10,a5

00000000800001b0 <i_69>:
    800001b0:	19013c83          	ld	s9,400(sp)

00000000800001b4 <i_70>:
    800001b4:	00fd4663          	blt	s10,a5,800001c0 <i_73>

00000000800001b8 <i_71>:
    800001b8:	1af10ca3          	sb	a5,441(sp)

00000000800001bc <i_72>:
    800001bc:	19211323          	sh	s2,390(sp)

00000000800001c0 <i_73>:
    800001c0:	10110b23          	sb	ra,278(sp)

00000000800001c4 <i_74>:
    800001c4:	029f7463          	bleu	s1,t5,800001ec <i_84>

00000000800001c8 <i_75>:
    800001c8:	fda11523          	sh	s10,-54(sp)

00000000800001cc <i_76>:
    800001cc:	05010f03          	lb	t5,80(sp)

00000000800001d0 <i_77>:
    800001d0:	0bc11503          	lh	a0,188(sp)

00000000800001d4 <i_78>:
    800001d4:	08412b03          	lw	s6,132(sp)

00000000800001d8 <i_79>:
    800001d8:	bedb6793          	ori	a5,s6,-1043

00000000800001dc <i_80>:
    800001dc:	01200993          	li	s3,18

00000000800001e0 <i_81>:
    800001e0:	013b1cbb          	sllw	s9,s6,s3

00000000800001e4 <i_82>:
    800001e4:	00f15863          	ble	a5,sp,800001f4 <i_86>

00000000800001e8 <i_83>:
    800001e8:	f0f11823          	sh	a5,-240(sp)

00000000800001ec <i_84>:
    800001ec:	19013b03          	ld	s6,400(sp)

00000000800001f0 <i_85>:
    800001f0:	f96107a3          	sb	s6,-113(sp)

00000000800001f4 <i_86>:
    800001f4:	039cc333          	div	t1,s9,s9

00000000800001f8 <i_87>:
    800001f8:	01379863          	bne	a5,s3,80000208 <i_91>

00000000800001fc <i_88>:
    800001fc:	0247f063          	bleu	tp,a5,8000021c <i_96>

0000000080000200 <i_89>:
    80000200:	01100a93          	li	s5,17

0000000080000204 <i_90>:
    80000204:	415a5cbb          	sraw	s9,s4,s5

0000000080000208 <i_91>:
    80000208:	f0f10da3          	sb	a5,-229(sp)

000000008000020c <i_92>:
    8000020c:	00f9f663          	bleu	a5,s3,80000218 <i_95>

0000000080000210 <i_93>:
    80000210:	035cdf33          	divu	t5,s9,s5

0000000080000214 <i_94>:
    80000214:	fe41eb17          	auipc	s6,0xfe41e

0000000080000218 <i_95>:
    80000218:	ea415d03          	lhu	s10,-348(sp)

000000008000021c <i_96>:
    8000021c:	036cd063          	ble	s6,s9,8000023c <i_104>

0000000080000220 <i_97>:
    80000220:	f0f13023          	sd	a5,-256(sp)

0000000080000224 <i_98>:
    80000224:	eba13c23          	sd	s10,-328(sp)

0000000080000228 <i_99>:
    80000228:	01e585b3          	add	a1,a1,t5

000000008000022c <i_100>:
    8000022c:	02bf05bb          	mulw	a1,t5,a1

0000000080000230 <i_101>:
    80000230:	19411b03          	lh	s6,404(sp)

0000000080000234 <i_102>:
    80000234:	01ef1263          	bne	t5,t5,80000238 <i_103>

0000000080000238 <i_103>:
    80000238:	03998cb3          	mul	s9,s3,s9

000000008000023c <i_104>:
    8000023c:	019b7463          	bleu	s9,s6,80000244 <i_106>

0000000080000240 <i_105>:
    80000240:	00528263          	beq	t0,t0,80000244 <i_106>

0000000080000244 <i_106>:
    80000244:	0d013d83          	ld	s11,208(sp)

0000000080000248 <i_107>:
    80000248:	033b6063          	bltu	s6,s3,80000268 <i_115>

000000008000024c <i_108>:
    8000024c:	fe013c83          	ld	s9,-32(sp)

0000000080000250 <i_109>:
    80000250:	0ef12223          	sw	a5,228(sp)

0000000080000254 <i_110>:
    80000254:	0369c463          	blt	s3,s6,8000027c <i_120>

0000000080000258 <i_111>:
    80000258:	08612a23          	sw	t1,148(sp)

000000008000025c <i_112>:
    8000025c:	036a8463          	beq	s5,s6,80000284 <i_122>

0000000080000260 <i_113>:
    80000260:	e1811d03          	lh	s10,-488(sp)

0000000080000264 <i_114>:
    80000264:	401d5a93          	srai	s5,s10,0x1

0000000080000268 <i_115>:
    80000268:	e1914583          	lbu	a1,-487(sp)

000000008000026c <i_116>:
    8000026c:	03ad50b3          	divu	ra,s10,s10

0000000080000270 <i_117>:
    80000270:	01a085b3          	add	a1,ra,s10

0000000080000274 <i_118>:
    80000274:	04a10c83          	lb	s9,74(sp)

0000000080000278 <i_119>:
    80000278:	822abd93          	sltiu	s11,s5,-2014

000000008000027c <i_120>:
    8000027c:	01ba8863          	beq	s5,s11,8000028c <i_124>

0000000080000280 <i_121>:
    80000280:	403add93          	srai	s11,s5,0x3

0000000080000284 <i_122>:
    80000284:	01e00513          	li	a0,30

0000000080000288 <i_123>:
    80000288:	00a59db3          	sll	s11,a1,a0

000000008000028c <i_124>:
    8000028c:	20e56d93          	ori	s11,a0,526

0000000080000290 <i_125>:
    80000290:	01b54863          	blt	a0,s11,800002a0 <i_129>

0000000080000294 <i_126>:
    80000294:	40980d3b          	subw	s10,a6,s1

0000000080000298 <i_127>:
    80000298:	00a19863          	bne	gp,a0,800002a8 <i_131>

000000008000029c <i_128>:
    8000029c:	01b54c63          	blt	a0,s11,800002b4 <i_134>

00000000800002a0 <i_129>:
    800002a0:	01ad6c63          	bltu	s10,s10,800002b8 <i_135>

00000000800002a4 <i_130>:
    800002a4:	fa113023          	sd	ra,-96(sp)

00000000800002a8 <i_131>:
    800002a8:	1ba12023          	sw	s10,416(sp)

00000000800002ac <i_132>:
    800002ac:	01bd8463          	beq	s11,s11,800002b4 <i_134>

00000000800002b0 <i_133>:
    800002b0:	f9c11d03          	lh	s10,-100(sp)

00000000800002b4 <i_134>:
    800002b4:	038c6d3b          	remw	s10,s8,s8

00000000800002b8 <i_135>:
    800002b8:	fea15d03          	lhu	s10,-22(sp)

00000000800002bc <i_136>:
    800002bc:	00000013          	nop

00000000800002c0 <i_137>:
    800002c0:	82e00c13          	li	s8,-2002

00000000800002c4 <i_138>:
    800002c4:	83f00993          	li	s3,-1985

00000000800002c8 <i_139>:
    800002c8:	001c0c13          	addi	s8,s8,1
    800002cc:	ff3c4ee3          	blt	s8,s3,800002c8 <i_139>

00000000800002d0 <i_140>:
    800002d0:	00259d13          	slli	s10,a1,0x2

00000000800002d4 <i_141>:
    800002d4:	e6c12983          	lw	s3,-404(sp)

00000000800002d8 <i_142>:
    800002d8:	08013283          	ld	t0,128(sp)

00000000800002dc <i_143>:
    800002dc:	0132c9b3          	xor	s3,t0,s3

00000000800002e0 <i_144>:
    800002e0:	03d082b3          	mul	t0,ra,t4

00000000800002e4 <i_145>:
    800002e4:	f1e10923          	sb	t5,-238(sp)

00000000800002e8 <i_146>:
    800002e8:	8bd00e93          	li	t4,-1859

00000000800002ec <i_147>:
    800002ec:	8c600313          	li	t1,-1850

00000000800002f0 <i_148>:
    800002f0:	e7416483          	lwu	s1,-396(sp)

00000000800002f4 <i_149>:
    800002f4:	0266ea33          	rem	s4,a3,t1

00000000800002f8 <i_150>:
    800002f8:	0d813383          	ld	t2,216(sp)

00000000800002fc <i_151>:
    800002fc:	0299b4b3          	mulhu	s1,s3,s1

0000000080000300 <i_152>:
    80000300:	0021d19b          	srliw	gp,gp,0x2

0000000080000304 <i_153>:
    80000304:	001e8e93          	addi	t4,t4,1 # fffffffffc9f4001 <_end+0xffffffff7c9e3bed>
    80000308:	fe6ee4e3          	bltu	t4,t1,800002f0 <i_148>

000000008000030c <i_154>:
    8000030c:	03db43bb          	divw	t2,s6,t4

0000000080000310 <i_155>:
    80000310:	006eee63          	bltu	t4,t1,8000032c <i_162>

0000000080000314 <i_156>:
    80000314:	f4e11e83          	lh	t4,-178(sp)

0000000080000318 <i_157>:
    80000318:	0073f3b3          	and	t2,t2,t2

000000008000031c <i_158>:
    8000031c:	047100a3          	sb	t2,65(sp)

0000000080000320 <i_159>:
    80000320:	08a10ca3          	sb	a0,153(sp)

0000000080000324 <i_160>:
    80000324:	18712223          	sw	t2,388(sp)

0000000080000328 <i_161>:
    80000328:	00416383          	lwu	t2,4(sp)

000000008000032c <i_162>:
    8000032c:	f2016383          	lwu	t2,-224(sp)

0000000080000330 <i_163>:
    80000330:	9013ee93          	ori	t4,t2,-1791

0000000080000334 <i_164>:
    80000334:	87000b13          	li	s6,-1936

0000000080000338 <i_165>:
    80000338:	87200193          	li	gp,-1934

000000008000033c <i_166>:
    8000033c:	59786397          	auipc	t2,0x59786

0000000080000340 <i_167>:
    80000340:	0273d3bb          	divuw	t2,t2,t2

0000000080000344 <i_168>:
    80000344:	001b0b13          	addi	s6,s6,1 # 7e41e215 <main-0x1be1deb>
    80000348:	ff619ae3          	bne	gp,s6,8000033c <i_166>

000000008000034c <i_169>:
    8000034c:	19016483          	lwu	s1,400(sp)

0000000080000350 <i_170>:
    80000350:	0d714203          	lbu	tp,215(sp)

0000000080000354 <i_171>:
    80000354:	004e941b          	slliw	s0,t4,0x4

0000000080000358 <i_172>:
    80000358:	09c16383          	lwu	t2,156(sp)

000000008000035c <i_173>:
    8000035c:	00812023          	sw	s0,0(sp)

0000000080000360 <i_174>:
    80000360:	00747663          	bleu	t2,s0,8000036c <i_177>

0000000080000364 <i_175>:
    80000364:	02847063          	bleu	s0,s0,80000384 <i_183>

0000000080000368 <i_176>:
    80000368:	11d11a23          	sh	t4,276(sp)

000000008000036c <i_177>:
    8000036c:	14b11223          	sh	a1,324(sp)

0000000080000370 <i_178>:
    80000370:	18a11403          	lh	s0,394(sp)

0000000080000374 <i_179>:
    80000374:	0083f233          	and	tp,t2,s0

0000000080000378 <i_180>:
    80000378:	ef313823          	sd	s3,-272(sp)

000000008000037c <i_181>:
    8000037c:	0ef11323          	sh	a5,230(sp)

0000000080000380 <i_182>:
    80000380:	00200393          	li	t2,2

0000000080000384 <i_183>:
    80000384:	0073debb          	srlw	t4,t2,t2

0000000080000388 <i_184>:
    80000388:	00738863          	beq	t2,t2,80000398 <i_188>

000000008000038c <i_185>:
    8000038c:	408203b3          	sub	t2,tp,s0

0000000080000390 <i_186>:
    80000390:	f8713823          	sd	t2,-112(sp)

0000000080000394 <i_187>:
    80000394:	01066c63          	bltu	a2,a6,800003ac <i_193>

0000000080000398 <i_188>:
    80000398:	02c12f03          	lw	t5,44(sp)

000000008000039c <i_189>:
    8000039c:	777cac93          	slti	s9,s9,1911

00000000800003a0 <i_190>:
    800003a0:	00821263          	bne	tp,s0,800003a4 <i_191>

00000000800003a4 <i_191>:
    800003a4:	02223433          	mulhu	s0,tp,sp

00000000800003a8 <i_192>:
    800003a8:	03e24cb3          	div	s9,tp,t5

00000000800003ac <i_193>:
    800003ac:	008cf663          	bleu	s0,s9,800003b8 <i_196>

00000000800003b0 <i_194>:
    800003b0:	0021d193          	srli	gp,gp,0x2

00000000800003b4 <i_195>:
    800003b4:	03ef6463          	bltu	t5,t5,800003dc <i_205>

00000000800003b8 <i_196>:
    800003b8:	023f1263          	bne	t5,gp,800003dc <i_205>

00000000800003bc <i_197>:
    800003bc:	09910423          	sb	s9,136(sp)

00000000800003c0 <i_198>:
    800003c0:	8c9ccc93          	xori	s9,s9,-1847

00000000800003c4 <i_199>:
    800003c4:	40398d33          	sub	s10,s3,gp

00000000800003c8 <i_200>:
    800003c8:	028d1063          	bne	s10,s0,800003e8 <i_208>

00000000800003cc <i_201>:
    800003cc:	fe813c23          	sd	s0,-8(sp)

00000000800003d0 <i_202>:
    800003d0:	0e7f0293          	addi	t0,t5,231

00000000800003d4 <i_203>:
    800003d4:	30e6cf17          	auipc	t5,0x30e6c

00000000800003d8 <i_204>:
    800003d8:	01940a63          	beq	s0,s9,800003ec <i_209>

00000000800003dc <i_205>:
    800003dc:	03e12423          	sw	t5,40(sp)

00000000800003e0 <i_206>:
    800003e0:	07913023          	sd	s9,96(sp)

00000000800003e4 <i_207>:
    800003e4:	11016283          	lwu	t0,272(sp)

00000000800003e8 <i_208>:
    800003e8:	f7510283          	lb	t0,-139(sp)

00000000800003ec <i_209>:
    800003ec:	01ede263          	bltu	s11,t5,800003f0 <i_210>

00000000800003f0 <i_210>:
    800003f0:	028e4063          	blt	t3,s0,80000410 <i_218>

00000000800003f4 <i_211>:
    800003f4:	0f811b23          	sh	s8,246(sp)

00000000800003f8 <i_212>:
    800003f8:	e4812623          	sw	s0,-436(sp)

00000000800003fc <i_213>:
    800003fc:	00000013          	nop

0000000080000400 <i_214>:
    80000400:	00000013          	nop

0000000080000404 <i_215>:
    80000404:	01000313          	li	t1,16

0000000080000408 <i_216>:
    80000408:	006e55bb          	srlw	a1,t3,t1

000000008000040c <i_217>:
    8000040c:	01a5bcb3          	sltu	s9,a1,s10

0000000080000410 <i_218>:
    80000410:	1cb10523          	sb	a1,458(sp)

0000000080000414 <i_219>:
    80000414:	00000013          	nop

0000000080000418 <i_220>:
    80000418:	74400293          	li	t0,1860

000000008000041c <i_221>:
    8000041c:	75600413          	li	s0,1878

0000000080000420 <i_222>:
    80000420:	40335593          	srai	a1,t1,0x3

0000000080000424 <i_223>:
    80000424:	02630263          	beq	t1,t1,80000448 <i_231>

0000000080000428 <i_224>:
    80000428:	03b5fd33          	remu	s10,a1,s11

000000008000042c <i_225>:
    8000042c:	e6610c83          	lb	s9,-410(sp)

0000000080000430 <i_226>:
    80000430:	fc611e03          	lh	t3,-58(sp)

0000000080000434 <i_227>:
    80000434:	01f00593          	li	a1,31

0000000080000438 <i_228>:
    80000438:	00b35c3b          	srlw	s8,t1,a1

000000008000043c <i_229>:
    8000043c:	00128293          	addi	t0,t0,1 # 3001 <main-0x7fffcfff>
    80000440:	fe5470e3          	bleu	t0,s0,80000420 <i_222>

0000000080000444 <i_230>:
    80000444:	7f2c0593          	addi	a1,s8,2034

0000000080000448 <i_231>:
    80000448:	f6a10d83          	lb	s11,-150(sp)

000000008000044c <i_232>:
    8000044c:	13812023          	sw	s8,288(sp)

0000000080000450 <i_233>:
    80000450:	e3615c03          	lhu	s8,-458(sp)

0000000080000454 <i_234>:
    80000454:	a2cdea93          	ori	s5,s11,-1492

0000000080000458 <i_235>:
    80000458:	0e814803          	lbu	a6,232(sp)

000000008000045c <i_236>:
    8000045c:	40385613          	srai	a2,a6,0x3

0000000080000460 <i_237>:
    80000460:	06816c03          	lwu	s8,104(sp)

0000000080000464 <i_238>:
    80000464:	f8d10d03          	lb	s10,-115(sp)

0000000080000468 <i_239>:
    80000468:	03085063          	ble	a6,a6,80000488 <i_247>

000000008000046c <i_240>:
    8000046c:	e2814683          	lbu	a3,-472(sp)

0000000080000470 <i_241>:
    80000470:	01f00993          	li	s3,31

0000000080000474 <i_242>:
    80000474:	013d9dbb          	sllw	s11,s11,s3

0000000080000478 <i_243>:
    80000478:	01812203          	lw	tp,24(sp)

000000008000047c <i_244>:
    8000047c:	07d11023          	sh	t4,96(sp)

0000000080000480 <i_245>:
    80000480:	03ec6263          	bltu	s8,t5,800004a4 <i_254>

0000000080000484 <i_246>:
    80000484:	033e5463          	ble	s3,t3,800004ac <i_256>

0000000080000488 <i_247>:
    80000488:	ff012a03          	lw	s4,-16(sp)

000000008000048c <i_248>:
    8000048c:	001c00b3          	add	ra,s8,ra

0000000080000490 <i_249>:
    80000490:	07310d03          	lb	s10,115(sp)

0000000080000494 <i_250>:
    80000494:	014c6e63          	bltu	s8,s4,800004b0 <i_257>

0000000080000498 <i_251>:
    80000498:	17411423          	sh	s4,360(sp)

000000008000049c <i_252>:
    8000049c:	0300e2bb          	remw	t0,ra,a6

00000000800004a0 <i_253>:
    800004a0:	e7510d83          	lb	s11,-395(sp)

00000000800004a4 <i_254>:
    800004a4:	01500593          	li	a1,21

00000000800004a8 <i_255>:
    800004a8:	00b290b3          	sll	ra,t0,a1

00000000800004ac <i_256>:
    800004ac:	9702cb13          	xori	s6,t0,-1680

00000000800004b0 <i_257>:
    800004b0:	001d9613          	slli	a2,s11,0x1

00000000800004b4 <i_258>:
    800004b4:	f0710283          	lb	t0,-249(sp)

00000000800004b8 <i_259>:
    800004b8:	03300a93          	li	s5,51

00000000800004bc <i_260>:
    800004bc:	4152d2b3          	sra	t0,t0,s5

00000000800004c0 <i_261>:
    800004c0:	0352e463          	bltu	t0,s5,800004e8 <i_271>

00000000800004c4 <i_262>:
    800004c4:	f3512a23          	sw	s5,-204(sp)

00000000800004c8 <i_263>:
    800004c8:	01aac233          	xor	tp,s5,s10

00000000800004cc <i_264>:
    800004cc:	17d11b23          	sh	t4,374(sp)

00000000800004d0 <i_265>:
    800004d0:	06c13c23          	sd	a2,120(sp)

00000000800004d4 <i_266>:
    800004d4:	e7514b03          	lbu	s6,-395(sp)

00000000800004d8 <i_267>:
    800004d8:	00565c63          	ble	t0,a2,800004f0 <i_273>

00000000800004dc <i_268>:
    800004dc:	e6714303          	lbu	t1,-409(sp)

00000000800004e0 <i_269>:
    800004e0:	0b013c83          	ld	s9,176(sp)

00000000800004e4 <i_270>:
    800004e4:	1de11f03          	lh	t5,478(sp)

00000000800004e8 <i_271>:
    800004e8:	f0e11183          	lh	gp,-242(sp)

00000000800004ec <i_272>:
    800004ec:	03e4df33          	divu	t5,s1,t5

00000000800004f0 <i_273>:
    800004f0:	ed813d03          	ld	s10,-296(sp)

00000000800004f4 <i_274>:
    800004f4:	f8c16203          	lwu	tp,-116(sp)

00000000800004f8 <i_275>:
    800004f8:	06c10c23          	sb	a2,120(sp)

00000000800004fc <i_276>:
    800004fc:	036cf063          	bleu	s6,s9,8000051c <i_284>

0000000080000500 <i_277>:
    80000500:	fb513423          	sd	s5,-88(sp)

0000000080000504 <i_278>:
    80000504:	02651063          	bne	a0,t1,80000524 <i_286>

0000000080000508 <i_279>:
    80000508:	09816b83          	lwu	s7,152(sp)

000000008000050c <i_280>:
    8000050c:	e2211803          	lh	a6,-478(sp)

0000000080000510 <i_281>:
    80000510:	028f6063          	bltu	t5,s0,80000530 <i_289>

0000000080000514 <i_282>:
    80000514:	e7813503          	ld	a0,-392(sp)

0000000080000518 <i_283>:
    80000518:	0e810c03          	lb	s8,232(sp)

000000008000051c <i_284>:
    8000051c:	0012919b          	slliw	gp,t0,0x1

0000000080000520 <i_285>:
    80000520:	03e5433b          	divw	t1,a0,t5

0000000080000524 <i_286>:
    80000524:	fea10d23          	sb	a0,-6(sp)

0000000080000528 <i_287>:
    80000528:	003ce263          	bltu	s9,gp,8000052c <i_288>

000000008000052c <i_288>:
    8000052c:	038f27b3          	mulhsu	a5,t5,s8

0000000080000530 <i_289>:
    80000530:	0f012283          	lw	t0,240(sp)

0000000080000534 <i_290>:
    80000534:	0052f263          	bleu	t0,t0,80000538 <i_291>

0000000080000538 <i_291>:
    80000538:	e4e15683          	lhu	a3,-434(sp)

000000008000053c <i_292>:
    8000053c:	01e26c63          	bltu	tp,t5,80000554 <i_298>

0000000080000540 <i_293>:
    80000540:	12d14483          	lbu	s1,301(sp)

0000000080000544 <i_294>:
    80000544:	03e57263          	bleu	t5,a0,80000568 <i_303>

0000000080000548 <i_295>:
    80000548:	ed410f03          	lb	t5,-300(sp)

000000008000054c <i_296>:
    8000054c:	01e6da63          	ble	t5,a3,80000560 <i_301>

0000000080000550 <i_297>:
    80000550:	17e12a23          	sw	t5,372(sp)

0000000080000554 <i_298>:
    80000554:	0d813283          	ld	t0,216(sp)

0000000080000558 <i_299>:
    80000558:	01e00f13          	li	t5,30

000000008000055c <i_300>:
    8000055c:	01ef15bb          	sllw	a1,t5,t5

0000000080000560 <i_301>:
    80000560:	0145ff33          	and	t5,a1,s4

0000000080000564 <i_302>:
    80000564:	00000013          	nop

0000000080000568 <i_303>:
    80000568:	00000013          	nop

000000008000056c <i_304>:
    8000056c:	00800b93          	li	s7,8

0000000080000570 <i_305>:
    80000570:	017f13bb          	sllw	t2,t5,s7

0000000080000574 <i_306>:
    80000574:	79100993          	li	s3,1937

0000000080000578 <i_307>:
    80000578:	7a400693          	li	a3,1956

000000008000057c <i_308>:
    8000057c:	00198993          	addi	s3,s3,1
    80000580:	fed9cce3          	blt	s3,a3,80000578 <i_307>

0000000080000584 <i_309>:
    80000584:	e7e12823          	sw	t5,-400(sp)

0000000080000588 <i_310>:
    80000588:	e1c12383          	lw	t2,-484(sp)

000000008000058c <i_311>:
    8000058c:	407b05b3          	sub	a1,s6,t2

0000000080000590 <i_312>:
    80000590:	ee811203          	lh	tp,-280(sp)

0000000080000594 <i_313>:
    80000594:	ea011483          	lh	s1,-352(sp)

0000000080000598 <i_314>:
    80000598:	ea413823          	sd	tp,-336(sp)

000000008000059c <i_315>:
    8000059c:	02444bb3          	div	s7,s0,tp

00000000800005a0 <i_316>:
    800005a0:	00000013          	nop

00000000800005a4 <i_317>:
    800005a4:	0e714403          	lbu	s0,231(sp)

00000000800005a8 <i_318>:
    800005a8:	83f00b93          	li	s7,-1985

00000000800005ac <i_319>:
    800005ac:	84f00993          	li	s3,-1969

00000000800005b0 <i_320>:
    800005b0:	00845a63          	ble	s0,s0,800005c4 <i_325>

00000000800005b4 <i_321>:
    800005b4:	02843433          	mulhu	s0,s0,s0

00000000800005b8 <i_322>:
    800005b8:	1b810803          	lb	a6,440(sp)

00000000800005bc <i_323>:
    800005bc:	01086263          	bltu	a6,a6,800005c0 <i_324>

00000000800005c0 <i_324>:
    800005c0:	f8811c23          	sh	s0,-104(sp)

00000000800005c4 <i_325>:
    800005c4:	f6011683          	lh	a3,-160(sp)

00000000800005c8 <i_326>:
    800005c8:	15c16183          	lwu	gp,348(sp)

00000000800005cc <i_327>:
    800005cc:	00d44663          	blt	s0,a3,800005d8 <i_330>

00000000800005d0 <i_328>:
    800005d0:	02847cbb          	remuw	s9,s0,s0

00000000800005d4 <i_329>:
    800005d4:	02c10ca3          	sb	a2,57(sp)

00000000800005d8 <i_330>:
    800005d8:	10012183          	lw	gp,256(sp)

00000000800005dc <i_331>:
    800005dc:	00d9ce63          	blt	s3,a3,800005f8 <i_337>

00000000800005e0 <i_332>:
    800005e0:	001b8b93          	addi	s7,s7,1
    800005e4:	fd79d6e3          	ble	s7,s3,800005b0 <i_320>

00000000800005e8 <i_333>:
    800005e8:	01e00f13          	li	t5,30

00000000800005ec <i_334>:
    800005ec:	01e15f33          	srl	t5,sp,t5

00000000800005f0 <i_335>:
    800005f0:	02a13823          	sd	a0,48(sp)

00000000800005f4 <i_336>:
    800005f4:	41e4083b          	subw	a6,s0,t5

00000000800005f8 <i_337>:
    800005f8:	51784613          	xori	a2,a6,1303

00000000800005fc <i_338>:
    800005fc:	033f5463          	ble	s3,t5,80000624 <i_348>

0000000080000600 <i_339>:
    80000600:	647f3393          	sltiu	t2,t5,1607

0000000080000604 <i_340>:
    80000604:	0e611983          	lh	s3,230(sp)

0000000080000608 <i_341>:
    80000608:	14013d03          	ld	s10,320(sp)

000000008000060c <i_342>:
    8000060c:	00b9f263          	bleu	a1,s3,80000610 <i_343>

0000000080000610 <i_343>:
    80000610:	f6c11d03          	lh	s10,-148(sp)

0000000080000614 <i_344>:
    80000614:	00ba5e63          	ble	a1,s4,80000630 <i_351>

0000000080000618 <i_345>:
    80000618:	5829ca93          	xori	s5,s3,1410

000000008000061c <i_346>:
    8000061c:	03500a93          	li	s5,53

0000000080000620 <i_347>:
    80000620:	015d5b33          	srl	s6,s10,s5

0000000080000624 <i_348>:
    80000624:	c4dd0a93          	addi	s5,s10,-947

0000000080000628 <i_349>:
    80000628:	001e979b          	slliw	a5,t4,0x1

000000008000062c <i_350>:
    8000062c:	03a7f263          	bleu	s10,a5,80000650 <i_359>

0000000080000630 <i_351>:
    80000630:	fd416d03          	lwu	s10,-44(sp)

0000000080000634 <i_352>:
    80000634:	f0813683          	ld	a3,-248(sp)

0000000080000638 <i_353>:
    80000638:	00000013          	nop

000000008000063c <i_354>:
    8000063c:	dba1b293          	sltiu	t0,gp,-582

0000000080000640 <i_355>:
    80000640:	0018df1b          	srliw	t5,a7,0x1

0000000080000644 <i_356>:
    80000644:	00000013          	nop

0000000080000648 <i_357>:
    80000648:	f4a11683          	lh	a3,-182(sp)

000000008000064c <i_358>:
    8000064c:	1a512223          	sw	t0,420(sp)

0000000080000650 <i_359>:
    80000650:	f1011283          	lh	t0,-240(sp)

0000000080000654 <i_360>:
    80000654:	19c10603          	lb	a2,412(sp)

0000000080000658 <i_361>:
    80000658:	73e00793          	li	a5,1854

000000008000065c <i_362>:
    8000065c:	74e00d13          	li	s10,1870

0000000080000660 <i_363>:
    80000660:	01500293          	li	t0,21

0000000080000664 <i_364>:
    80000664:	00569f33          	sll	t5,a3,t0

0000000080000668 <i_365>:
    80000668:	0252dc33          	divu	s8,t0,t0

000000008000066c <i_366>:
    8000066c:	0352cab3          	div	s5,t0,s5

0000000080000670 <i_367>:
    80000670:	00178793          	addi	a5,a5,1
    80000674:	ffa7e6e3          	bltu	a5,s10,80000660 <i_363>

0000000080000678 <i_368>:
    80000678:	01929a63          	bne	t0,s9,8000068c <i_373>

000000008000067c <i_369>:
    8000067c:	f7614183          	lbu	gp,-138(sp)

0000000080000680 <i_370>:
    80000680:	0162d863          	ble	s6,t0,80000690 <i_374>

0000000080000684 <i_371>:
    80000684:	a3a28213          	addi	tp,t0,-1478

0000000080000688 <i_372>:
    80000688:	fec12423          	sw	a2,-24(sp)

000000008000068c <i_373>:
    8000068c:	015cca63          	blt	s9,s5,800006a0 <i_378>

0000000080000690 <i_374>:
    80000690:	003b4c63          	blt	s6,gp,800006a8 <i_380>

0000000080000694 <i_375>:
    80000694:	10c12e23          	sw	a2,284(sp)

0000000080000698 <i_376>:
    80000698:	fbd10603          	lb	a2,-67(sp)

000000008000069c <i_377>:
    8000069c:	00c24633          	xor	a2,tp,a2

00000000800006a0 <i_378>:
    800006a0:	40460233          	sub	tp,a2,tp

00000000800006a4 <i_379>:
    800006a4:	03c264bb          	remw	s1,tp,t3

00000000800006a8 <i_380>:
    800006a8:	02814d83          	lbu	s11,40(sp)

00000000800006ac <i_381>:
    800006ac:	fbc10303          	lb	t1,-68(sp)

00000000800006b0 <i_382>:
    800006b0:	74900293          	li	t0,1865

00000000800006b4 <i_383>:
    800006b4:	74f00813          	li	a6,1871

00000000800006b8 <i_384>:
    800006b8:	00681c63          	bne	a6,t1,800006d0 <i_390>

00000000800006bc <i_385>:
    800006bc:	00c25a63          	ble	a2,tp,800006d0 <i_390>

00000000800006c0 <i_386>:
    800006c0:	f2c107a3          	sb	a2,-209(sp)

00000000800006c4 <i_387>:
    800006c4:	5340809b          	addiw	ra,ra,1332

00000000800006c8 <i_388>:
    800006c8:	02c09463          	bne	ra,a2,800006f0 <i_397>

00000000800006cc <i_389>:
    800006cc:	03661663          	bne	a2,s6,800006f8 <i_399>

00000000800006d0 <i_390>:
    800006d0:	00000013          	nop

00000000800006d4 <i_391>:
    800006d4:	0a411a23          	sh	tp,180(sp)

00000000800006d8 <i_392>:
    800006d8:	f1813603          	ld	a2,-232(sp)

00000000800006dc <i_393>:
    800006dc:	09016083          	lwu	ra,144(sp)

00000000800006e0 <i_394>:
    800006e0:	00128293          	addi	t0,t0,1
    800006e4:	fd029ae3          	bne	t0,a6,800006b8 <i_384>

00000000800006e8 <i_395>:
    800006e8:	02cf9833          	mulh	a6,t6,a2

00000000800006ec <i_396>:
    800006ec:	014c5863          	ble	s4,s8,800006fc <i_400>

00000000800006f0 <i_397>:
    800006f0:	ea5109a3          	sb	t0,-333(sp)

00000000800006f4 <i_398>:
    800006f4:	00466833          	or	a6,a2,tp

00000000800006f8 <i_399>:
    800006f8:	e6110ba3          	sb	ra,-393(sp)

00000000800006fc <i_400>:
    800006fc:	024657bb          	divuw	a5,a2,tp

0000000080000700 <i_401>:
    80000700:	ee4e4813          	xori	a6,t3,-284

0000000080000704 <i_402>:
    80000704:	00678233          	add	tp,a5,t1

0000000080000708 <i_403>:
    80000708:	181101a3          	sb	ra,387(sp)

000000008000070c <i_404>:
    8000070c:	00c85463          	ble	a2,a6,80000714 <i_406>

0000000080000710 <i_405>:
    80000710:	00c0c463          	blt	ra,a2,80000718 <i_407>

0000000080000714 <i_406>:
    80000714:	02c65463          	ble	a2,a2,8000073c <i_416>

0000000080000718 <i_407>:
    80000718:	00431193          	slli	gp,t1,0x4

000000008000071c <i_408>:
    8000071c:	f7b10823          	sb	s11,-144(sp)

0000000080000720 <i_409>:
    80000720:	026fd2bb          	divuw	t0,t6,t1

0000000080000724 <i_410>:
    80000724:	09611783          	lh	a5,150(sp)

0000000080000728 <i_411>:
    80000728:	ed013a83          	ld	s5,-304(sp)

000000008000072c <i_412>:
    8000072c:	f7512823          	sw	s5,-144(sp)

0000000080000730 <i_413>:
    80000730:	19b12223          	sw	s11,388(sp)

0000000080000734 <i_414>:
    80000734:	01e67633          	and	a2,a2,t5

0000000080000738 <i_415>:
    80000738:	ef410603          	lb	a2,-268(sp)

000000008000073c <i_416>:
    8000073c:	00000013          	nop

0000000080000740 <i_417>:
    80000740:	e4412483          	lw	s1,-444(sp)

0000000080000744 <i_418>:
    80000744:	78f00313          	li	t1,1935

0000000080000748 <i_419>:
    80000748:	79100d93          	li	s11,1937

000000008000074c <i_420>:
    8000074c:	41b487bb          	subw	a5,s1,s11

0000000080000750 <i_421>:
    80000750:	f8a11283          	lh	t0,-118(sp)

0000000080000754 <i_422>:
    80000754:	00130313          	addi	t1,t1,1
    80000758:	ffb36ae3          	bltu	t1,s11,8000074c <i_420>

000000008000075c <i_423>:
    8000075c:	0027d493          	srli	s1,a5,0x2

0000000080000760 <i_424>:
    80000760:	0c4f7a37          	lui	s4,0xc4f7

0000000080000764 <i_425>:
    80000764:	0342d063          	ble	s4,t0,80000784 <i_433>

0000000080000768 <i_426>:
    80000768:	fc512e23          	sw	t0,-36(sp)

000000008000076c <i_427>:
    8000076c:	00949463          	bne	s1,s1,80000774 <i_429>

0000000080000770 <i_428>:
    80000770:	02f10323          	sb	a5,38(sp)

0000000080000774 <i_429>:
    80000774:	93540413          	addi	s0,s0,-1739

0000000080000778 <i_430>:
    80000778:	0017dd9b          	srliw	s11,a5,0x1

000000008000077c <i_431>:
    8000077c:	00000013          	nop

0000000080000780 <i_432>:
    80000780:	f4d12823          	sw	a3,-176(sp)

0000000080000784 <i_433>:
    80000784:	00000013          	nop

0000000080000788 <i_434>:
    80000788:	00000013          	nop

000000008000078c <i_435>:
    8000078c:	7a000693          	li	a3,1952

0000000080000790 <i_436>:
    80000790:	7ad00493          	li	s1,1965

0000000080000794 <i_437>:
    80000794:	02d43db3          	mulhu	s11,s0,a3

0000000080000798 <i_438>:
    80000798:	03168663          	beq	a3,a7,800007c4 <i_448>

000000008000079c <i_439>:
    8000079c:	00000013          	nop

00000000800007a0 <i_440>:
    800007a0:	00168693          	addi	a3,a3,1
    800007a4:	fed4f8e3          	bleu	a3,s1,80000794 <i_437>

00000000800007a8 <i_441>:
    800007a8:	0094ce63          	blt	s1,s1,800007c4 <i_448>

00000000800007ac <i_442>:
    800007ac:	08d11a23          	sh	a3,148(sp)

00000000800007b0 <i_443>:
    800007b0:	00000013          	nop

00000000800007b4 <i_444>:
    800007b4:	f2313023          	sd	gp,-224(sp)

00000000800007b8 <i_445>:
    800007b8:	00000013          	nop

00000000800007bc <i_446>:
    800007bc:	00000013          	nop

00000000800007c0 <i_447>:
    800007c0:	18d11923          	sh	a3,402(sp)

00000000800007c4 <i_448>:
    800007c4:	e8113c23          	sd	ra,-360(sp)

00000000800007c8 <i_449>:
    800007c8:	00000013          	nop

00000000800007cc <i_450>:
    800007cc:	80600d93          	li	s11,-2042

00000000800007d0 <i_451>:
    800007d0:	81500193          	li	gp,-2027

00000000800007d4 <i_452>:
    800007d4:	404d823b          	subw	tp,s11,tp

00000000800007d8 <i_453>:
    800007d8:	001d8d93          	addi	s11,s11,1
    800007dc:	ffb1fce3          	bleu	s11,gp,800007d4 <i_452>

00000000800007e0 <i_454>:
    800007e0:	e7f12223          	sw	t6,-412(sp)

00000000800007e4 <i_455>:
    800007e4:	00d4ee63          	bltu	s1,a3,80000800 <i_462>

00000000800007e8 <i_456>:
    800007e8:	0293523b          	divuw	tp,t1,s1

00000000800007ec <i_457>:
    800007ec:	f1b11123          	sh	s11,-254(sp)

00000000800007f0 <i_458>:
    800007f0:	ef910483          	lb	s1,-263(sp)

00000000800007f4 <i_459>:
    800007f4:	02918063          	beq	gp,s1,80000814 <i_467>

00000000800007f8 <i_460>:
    800007f8:	f3513c23          	sd	s5,-200(sp)

00000000800007fc <i_461>:
    800007fc:	16412a83          	lw	s5,356(sp)

0000000080000800 <i_462>:
    80000800:	0a511323          	sh	t0,166(sp)

0000000080000804 <i_463>:
    80000804:	f9a15283          	lhu	t0,-102(sp)

0000000080000808 <i_464>:
    80000808:	0036b6b3          	sltu	a3,a3,gp

000000008000080c <i_465>:
    8000080c:	02dfc1b3          	div	gp,t6,a3

0000000080000810 <i_466>:
    80000810:	f5610d03          	lb	s10,-170(sp)

0000000080000814 <i_467>:
    80000814:	ef412503          	lw	a0,-268(sp)

0000000080000818 <i_468>:
    80000818:	00a51463          	bne	a0,a0,80000820 <i_470>

000000008000081c <i_469>:
    8000081c:	03a51063          	bne	a0,s10,8000083c <i_477>

0000000080000820 <i_470>:
    80000820:	f2311d23          	sh	gp,-198(sp)

0000000080000824 <i_471>:
    80000824:	02e6a6b3          	mulhsu	a3,a3,a4

0000000080000828 <i_472>:
    80000828:	08615683          	lhu	a3,134(sp)

000000008000082c <i_473>:
    8000082c:	02dce0b3          	rem	ra,s9,a3

0000000080000830 <i_474>:
    80000830:	00d6acb3          	slt	s9,a3,a3

0000000080000834 <i_475>:
    80000834:	021dc463          	blt	s11,ra,8000085c <i_485>

0000000080000838 <i_476>:
    80000838:	01968e63          	beq	a3,s9,80000854 <i_483>

000000008000083c <i_477>:
    8000083c:	01909663          	bne	ra,s9,80000848 <i_480>

0000000080000840 <i_478>:
    80000840:	f6914583          	lbu	a1,-151(sp)

0000000080000844 <i_479>:
    80000844:	e3a12023          	sw	s10,-480(sp)

0000000080000848 <i_480>:
    80000848:	b751b093          	sltiu	ra,gp,-1163

000000008000084c <i_481>:
    8000084c:	004ada93          	srli	s5,s5,0x4

0000000080000850 <i_482>:
    80000850:	035b13b3          	mulh	t2,s6,s5

0000000080000854 <i_483>:
    80000854:	014e8a33          	add	s4,t4,s4

0000000080000858 <i_484>:
    80000858:	0145ec63          	bltu	a1,s4,80000870 <i_490>

000000008000085c <i_485>:
    8000085c:	02758cbb          	mulw	s9,a1,t2

0000000080000860 <i_486>:
    80000860:	e4111f23          	sh	ra,-418(sp)

0000000080000864 <i_487>:
    80000864:	ed016a83          	lwu	s5,-304(sp)

0000000080000868 <i_488>:
    80000868:	0bc10583          	lb	a1,188(sp)

000000008000086c <i_489>:
    8000086c:	ed1102a3          	sb	a7,-315(sp)

0000000080000870 <i_490>:
    80000870:	0345f263          	bleu	s4,a1,80000894 <i_499>

0000000080000874 <i_491>:
    80000874:	014a6663          	bltu	s4,s4,80000880 <i_494>

0000000080000878 <i_492>:
    80000878:	e7511d23          	sh	s5,-390(sp)

000000008000087c <i_493>:
    8000087c:	00000013          	nop

0000000080000880 <i_494>:
    80000880:	00000013          	nop

0000000080000884 <i_495>:
    80000884:	0041d593          	srli	a1,gp,0x4

0000000080000888 <i_496>:
    80000888:	01000793          	li	a5,16

000000008000088c <i_497>:
    8000088c:	40f7d7b3          	sra	a5,a5,a5

0000000080000890 <i_498>:
    80000890:	0230febb          	remuw	t4,ra,gp

0000000080000894 <i_499>:
    80000894:	0081ac33          	slt	s8,gp,s0

0000000080000898 <i_500>:
    80000898:	19f10603          	lb	a2,415(sp)

000000008000089c <i_501>:
    8000089c:	8ac00a13          	li	s4,-1876

00000000800008a0 <i_502>:
    800008a0:	8b300193          	li	gp,-1869

00000000800008a4 <i_503>:
    800008a4:	11d10a23          	sb	t4,276(sp)

00000000800008a8 <i_504>:
    800008a8:	002c5413          	srli	s0,s8,0x2

00000000800008ac <i_505>:
    800008ac:	001a0a13          	addi	s4,s4,1 # c4f7001 <main-0x73b08fff>
    800008b0:	ff41dae3          	ble	s4,gp,800008a4 <i_503>

00000000800008b4 <i_506>:
    800008b4:	e7016a03          	lwu	s4,-400(sp)

00000000800008b8 <i_507>:
    800008b8:	07410fa3          	sb	s4,127(sp)

00000000800008bc <i_508>:
    800008bc:	1dc16603          	lwu	a2,476(sp)

00000000800008c0 <i_509>:
    800008c0:	495b8b93          	addi	s7,s7,1173

00000000800008c4 <i_510>:
    800008c4:	02c12623          	sw	a2,44(sp)

00000000800008c8 <i_511>:
    800008c8:	f1811283          	lh	t0,-232(sp)

00000000800008cc <i_512>:
    800008cc:	00c64533          	xor	a0,a2,a2

00000000800008d0 <i_513>:
    800008d0:	fe012b83          	lw	s7,-32(sp)

00000000800008d4 <i_514>:
    800008d4:	0335053b          	mulw	a0,a0,s3

00000000800008d8 <i_515>:
    800008d8:	fbe596b7          	lui	a3,0xfbe59

00000000800008dc <i_516>:
    800008dc:	02c57263          	bleu	a2,a0,80000900 <i_525>

00000000800008e0 <i_517>:
    800008e0:	077101a3          	sb	s7,99(sp)

00000000800008e4 <i_518>:
    800008e4:	f0312023          	sw	gp,-256(sp)

00000000800008e8 <i_519>:
    800008e8:	01a54b33          	xor	s6,a0,s10

00000000800008ec <i_520>:
    800008ec:	02d64b3b          	divw	s6,a2,a3

00000000800008f0 <i_521>:
    800008f0:	f9014d83          	lbu	s11,-112(sp)

00000000800008f4 <i_522>:
    800008f4:	02ab1533          	mulh	a0,s6,a0

00000000800008f8 <i_523>:
    800008f8:	017b4b33          	xor	s6,s6,s7

00000000800008fc <i_524>:
    800008fc:	0ca13423          	sd	a0,200(sp)

0000000080000900 <i_525>:
    80000900:	00a54e63          	blt	a0,a0,8000091c <i_532>

0000000080000904 <i_526>:
    80000904:	01b00813          	li	a6,27

0000000080000908 <i_527>:
    80000908:	0106d6b3          	srl	a3,a3,a6

000000008000090c <i_528>:
    8000090c:	17813b03          	ld	s6,376(sp)

0000000080000910 <i_529>:
    80000910:	00d54533          	xor	a0,a0,a3

0000000080000914 <i_530>:
    80000914:	00587663          	bleu	t0,a6,80000920 <i_533>

0000000080000918 <i_531>:
    80000918:	eea15803          	lhu	a6,-278(sp)

000000008000091c <i_532>:
    8000091c:	5fd6c093          	xori	ra,a3,1533

0000000080000920 <i_533>:
    80000920:	02d54b3b          	divw	s6,a0,a3

0000000080000924 <i_534>:
    80000924:	09e13c23          	sd	t5,152(sp)

0000000080000928 <i_535>:
    80000928:	01013b03          	ld	s6,16(sp)

000000008000092c <i_536>:
    8000092c:	07813083          	ld	ra,120(sp)

0000000080000930 <i_537>:
    80000930:	01709263          	bne	ra,s7,80000934 <i_538>

0000000080000934 <i_538>:
    80000934:	f9c11683          	lh	a3,-100(sp)

0000000080000938 <i_539>:
    80000938:	0370ebb3          	rem	s7,ra,s7

000000008000093c <i_540>:
    8000093c:	e5013203          	ld	tp,-432(sp)

0000000080000940 <i_541>:
    80000940:	00dbc663          	blt	s7,a3,8000094c <i_544>

0000000080000944 <i_542>:
    80000944:	021240b3          	div	ra,tp,ra

0000000080000948 <i_543>:
    80000948:	00ac6c63          	bltu	s8,a0,80000960 <i_549>

000000008000094c <i_544>:
    8000094c:	0218c23b          	divw	tp,a7,ra

0000000080000950 <i_545>:
    80000950:	15011403          	lh	s0,336(sp)

0000000080000954 <i_546>:
    80000954:	01f00313          	li	t1,31

0000000080000958 <i_547>:
    80000958:	006e9ebb          	sllw	t4,t4,t1

000000008000095c <i_548>:
    8000095c:	00700e93          	li	t4,7

0000000080000960 <i_549>:
    80000960:	01d35cbb          	srlw	s9,t1,t4

0000000080000964 <i_550>:
    80000964:	01935863          	ble	s9,t1,80000974 <i_554>

0000000080000968 <i_551>:
    80000968:	e3d11023          	sh	t4,-480(sp)

000000008000096c <i_552>:
    8000096c:	03d37463          	bleu	t4,t1,80000994 <i_562>

0000000080000970 <i_553>:
    80000970:	006c8bb3          	add	s7,s9,t1

0000000080000974 <i_554>:
    80000974:	0e012e83          	lw	t4,224(sp)

0000000080000978 <i_555>:
    80000978:	015ede63          	ble	s5,t4,80000994 <i_562>

000000008000097c <i_556>:
    8000097c:	00613823          	sd	t1,16(sp)

0000000080000980 <i_557>:
    80000980:	034be063          	bltu	s7,s4,800009a0 <i_565>

0000000080000984 <i_558>:
    80000984:	03dd1263          	bne	s10,t4,800009a8 <i_567>

0000000080000988 <i_559>:
    80000988:	401bdf13          	srai	t5,s7,0x1

000000008000098c <i_560>:
    8000098c:	01eb9e63          	bne	s7,t5,800009a8 <i_567>

0000000080000990 <i_561>:
    80000990:	04c16e83          	lwu	t4,76(sp)

0000000080000994 <i_562>:
    80000994:	15013483          	ld	s1,336(sp)

0000000080000998 <i_563>:
    80000998:	ffa15c83          	lhu	s9,-6(sp)

000000008000099c <i_564>:
    8000099c:	f0013783          	ld	a5,-256(sp)

00000000800009a0 <i_565>:
    800009a0:	eac16e83          	lwu	t4,-340(sp)

00000000800009a4 <i_566>:
    800009a4:	03300e93          	li	t4,51

00000000800009a8 <i_567>:
    800009a8:	01dcdeb3          	srl	t4,s9,t4

00000000800009ac <i_568>:
    800009ac:	eef11f23          	sh	a5,-258(sp)

00000000800009b0 <i_569>:
    800009b0:	0fc16303          	lwu	t1,252(sp)

00000000800009b4 <i_570>:
    800009b4:	0277dcb3          	divu	s9,a5,t2

00000000800009b8 <i_571>:
    800009b8:	00f00793          	li	a5,15

00000000800009bc <i_572>:
    800009bc:	40f7dcbb          	sraw	s9,a5,a5

00000000800009c0 <i_573>:
    800009c0:	0197e0b3          	or	ra,a5,s9

00000000800009c4 <i_574>:
    800009c4:	00fcd863          	ble	a5,s9,800009d4 <i_578>

00000000800009c8 <i_575>:
    800009c8:	1d910da3          	sb	s9,475(sp)

00000000800009cc <i_576>:
    800009cc:	01812783          	lw	a5,24(sp)

00000000800009d0 <i_577>:
    800009d0:	0070c863          	blt	ra,t2,800009e0 <i_581>

00000000800009d4 <i_578>:
    800009d4:	0077f263          	bleu	t2,a5,800009d8 <i_579>

00000000800009d8 <i_579>:
    800009d8:	13013783          	ld	a5,304(sp)

00000000800009dc <i_580>:
    800009dc:	18f12823          	sw	a5,400(sp)

00000000800009e0 <i_581>:
    800009e0:	00e7c833          	xor	a6,a5,a4

00000000800009e4 <i_582>:
    800009e4:	00000013          	nop

00000000800009e8 <i_583>:
    800009e8:	7d100393          	li	t2,2001

00000000800009ec <i_584>:
    800009ec:	7d900593          	li	a1,2009

00000000800009f0 <i_585>:
    800009f0:	00900b93          	li	s7,9

00000000800009f4 <i_586>:
    800009f4:	0173133b          	sllw	t1,t1,s7

00000000800009f8 <i_587>:
    800009f8:	02637463          	bleu	t1,t1,80000a20 <i_596>

00000000800009fc <i_588>:
    800009fc:	f2614603          	lbu	a2,-218(sp)

0000000080000a00 <i_589>:
    80000a00:	17914303          	lbu	t1,377(sp)

0000000080000a04 <i_590>:
    80000a04:	00138393          	addi	t2,t2,1 # d978633d <_end+0x59775f29>
    80000a08:	fe75d4e3          	ble	t2,a1,800009f0 <i_585>

0000000080000a0c <i_591>:
    80000a0c:	01736a63          	bltu	t1,s7,80000a20 <i_596>

0000000080000a10 <i_592>:
    80000a10:	0f813d83          	ld	s11,248(sp)

0000000080000a14 <i_593>:
    80000a14:	004dd21b          	srliw	tp,s11,0x4

0000000080000a18 <i_594>:
    80000a18:	02633ab3          	mulhu	s5,t1,t1

0000000080000a1c <i_595>:
    80000a1c:	17c12b83          	lw	s7,380(sp)

0000000080000a20 <i_596>:
    80000a20:	024a4263          	blt	s4,tp,80000a44 <i_605>

0000000080000a24 <i_597>:
    80000a24:	13b10203          	lb	tp,315(sp)

0000000080000a28 <i_598>:
    80000a28:	1a812203          	lw	tp,424(sp)

0000000080000a2c <i_599>:
    80000a2c:	1e110203          	lb	tp,481(sp)

0000000080000a30 <i_600>:
    80000a30:	00000013          	nop

0000000080000a34 <i_601>:
    80000a34:	e4013e03          	ld	t3,-448(sp)

0000000080000a38 <i_602>:
    80000a38:	ef210203          	lb	tp,-270(sp)

0000000080000a3c <i_603>:
    80000a3c:	00000013          	nop

0000000080000a40 <i_604>:
    80000a40:	ef016b03          	lwu	s6,-272(sp)

0000000080000a44 <i_605>:
    80000a44:	416b8bbb          	subw	s7,s7,s6

0000000080000a48 <i_606>:
    80000a48:	15c11623          	sh	t3,332(sp)

0000000080000a4c <i_607>:
    80000a4c:	7e800c93          	li	s9,2024

0000000080000a50 <i_608>:
    80000a50:	7f300993          	li	s3,2035

0000000080000a54 <i_609>:
    80000a54:	1b412b83          	lw	s7,436(sp)

0000000080000a58 <i_610>:
    80000a58:	00200213          	li	tp,2

0000000080000a5c <i_611>:
    80000a5c:	004b5bbb          	srlw	s7,s6,tp

0000000080000a60 <i_612>:
    80000a60:	41740433          	sub	s0,s0,s7

0000000080000a64 <i_613>:
    80000a64:	00000013          	nop

0000000080000a68 <i_614>:
    80000a68:	00000013          	nop

0000000080000a6c <i_615>:
    80000a6c:	017b82b3          	add	t0,s7,s7

0000000080000a70 <i_616>:
    80000a70:	13411e83          	lh	t4,308(sp)

0000000080000a74 <i_617>:
    80000a74:	001c8c93          	addi	s9,s9,1
    80000a78:	fd3ceee3          	bltu	s9,s3,80000a54 <i_609>

0000000080000a7c <i_618>:
    80000a7c:	0f210d83          	lb	s11,242(sp)

0000000080000a80 <i_619>:
    80000a80:	02898063          	beq	s3,s0,80000aa0 <i_627>

0000000080000a84 <i_620>:
    80000a84:	f9b13023          	sd	s11,-128(sp)

0000000080000a88 <i_621>:
    80000a88:	01bdca63          	blt	s11,s11,80000a9c <i_626>

0000000080000a8c <i_622>:
    80000a8c:	e4412e03          	lw	t3,-444(sp)

0000000080000a90 <i_623>:
    80000a90:	12416e83          	lwu	t4,292(sp)

0000000080000a94 <i_624>:
    80000a94:	004e9d9b          	slliw	s11,t4,0x4

0000000080000a98 <i_625>:
    80000a98:	17c11023          	sh	t3,352(sp)

0000000080000a9c <i_626>:
    80000a9c:	003e8e63          	beq	t4,gp,80000ab8 <i_633>

0000000080000aa0 <i_627>:
    80000aa0:	01ce6863          	bltu	t3,t3,80000ab0 <i_631>

0000000080000aa4 <i_628>:
    80000aa4:	e4312023          	sw	gp,-448(sp)

0000000080000aa8 <i_629>:
    80000aa8:	032e3eb3          	mulhu	t4,t3,s2

0000000080000aac <i_630>:
    80000aac:	19c11b23          	sh	t3,406(sp)

0000000080000ab0 <i_631>:
    80000ab0:	0b012d83          	lw	s11,176(sp)

0000000080000ab4 <i_632>:
    80000ab4:	03bd9263          	bne	s11,s11,80000ad8 <i_641>

0000000080000ab8 <i_633>:
    80000ab8:	01ddce63          	blt	s11,t4,80000ad4 <i_640>

0000000080000abc <i_634>:
    80000abc:	03cbfebb          	remuw	t4,s7,t3

0000000080000ac0 <i_635>:
    80000ac0:	03cd9463          	bne	s11,t3,80000ae8 <i_645>

0000000080000ac4 <i_636>:
    80000ac4:	63d4041b          	addiw	s0,s0,1597

0000000080000ac8 <i_637>:
    80000ac8:	03bc0c33          	mul	s8,s8,s11

0000000080000acc <i_638>:
    80000acc:	01b40663          	beq	s0,s11,80000ad8 <i_641>

0000000080000ad0 <i_639>:
    80000ad0:	06414d83          	lbu	s11,100(sp)

0000000080000ad4 <i_640>:
    80000ad4:	c3c6d6b7          	lui	a3,0xc3c6d

0000000080000ad8 <i_641>:
    80000ad8:	14013c83          	ld	s9,320(sp)

0000000080000adc <i_642>:
    80000adc:	9394041b          	addiw	s0,s0,-1735

0000000080000ae0 <i_643>:
    80000ae0:	fa813d83          	ld	s11,-88(sp)

0000000080000ae4 <i_644>:
    80000ae4:	025e72bb          	remuw	t0,t3,t0

0000000080000ae8 <i_645>:
    80000ae8:	eba15c03          	lhu	s8,-326(sp)

0000000080000aec <i_646>:
    80000aec:	05b11e23          	sh	s11,92(sp)

0000000080000af0 <i_647>:
    80000af0:	eb114403          	lbu	s0,-335(sp)

0000000080000af4 <i_648>:
    80000af4:	eaa10d03          	lb	s10,-342(sp)

0000000080000af8 <i_649>:
    80000af8:	fe013303          	ld	t1,-32(sp)

0000000080000afc <i_650>:
    80000afc:	ed013403          	ld	s0,-304(sp)

0000000080000b00 <i_651>:
    80000b00:	3e7c8e93          	addi	t4,s9,999

0000000080000b04 <i_652>:
    80000b04:	0012d29b          	srliw	t0,t0,0x1

0000000080000b08 <i_653>:
    80000b08:	f6816303          	lwu	t1,-152(sp)

0000000080000b0c <i_654>:
    80000b0c:	f8015083          	lhu	ra,-128(sp)

0000000080000b10 <i_655>:
    80000b10:	40b28533          	sub	a0,t0,a1

0000000080000b14 <i_656>:
    80000b14:	0b012c83          	lw	s9,176(sp)

0000000080000b18 <i_657>:
    80000b18:	e6411423          	sh	tp,-408(sp)

0000000080000b1c <i_658>:
    80000b1c:	1d813083          	ld	ra,472(sp)

0000000080000b20 <i_659>:
    80000b20:	18513c23          	sd	t0,408(sp)

0000000080000b24 <i_660>:
    80000b24:	e2812a83          	lw	s5,-472(sp)

0000000080000b28 <i_661>:
    80000b28:	008ad863          	ble	s0,s5,80000b38 <i_665>

0000000080000b2c <i_662>:
    80000b2c:	403ad41b          	sraiw	s0,s5,0x3

0000000080000b30 <i_663>:
    80000b30:	894a6517          	auipc	a0,0x894a6

0000000080000b34 <i_664>:
    80000b34:	14812a23          	sw	s0,340(sp)

0000000080000b38 <i_665>:
    80000b38:	16a13023          	sd	a0,352(sp)

0000000080000b3c <i_666>:
    80000b3c:	02150ab3          	mul	s5,a0,ra

0000000080000b40 <i_667>:
    80000b40:	e4813403          	ld	s0,-440(sp)

0000000080000b44 <i_668>:
    80000b44:	17511f23          	sh	s5,382(sp)

0000000080000b48 <i_669>:
    80000b48:	00855e63          	ble	s0,a0,80000b64 <i_676>

0000000080000b4c <i_670>:
    80000b4c:	b0240813          	addi	a6,s0,-1278

0000000080000b50 <i_671>:
    80000b50:	f4b14503          	lbu	a0,-181(sp)

0000000080000b54 <i_672>:
    80000b54:	03bb8bbb          	mulw	s7,s7,s11

0000000080000b58 <i_673>:
    80000b58:	edb11e23          	sh	s11,-292(sp)

0000000080000b5c <i_674>:
    80000b5c:	f90103a3          	sb	a6,-121(sp)

0000000080000b60 <i_675>:
    80000b60:	f2812023          	sw	s0,-224(sp)

0000000080000b64 <i_676>:
    80000b64:	004b981b          	slliw	a6,s7,0x4

0000000080000b68 <i_677>:
    80000b68:	00000013          	nop

0000000080000b6c <i_678>:
    80000b6c:	81800413          	li	s0,-2024

0000000080000b70 <i_679>:
    80000b70:	82700d93          	li	s11,-2009

0000000080000b74 <i_680>:
    80000b74:	eeb14b83          	lbu	s7,-277(sp)

0000000080000b78 <i_681>:
    80000b78:	00000013          	nop

0000000080000b7c <i_682>:
    80000b7c:	e5014b83          	lbu	s7,-432(sp)

0000000080000b80 <i_683>:
    80000b80:	02b59063          	bne	a1,a1,80000ba0 <i_690>

0000000080000b84 <i_684>:
    80000b84:	00195b93          	srli	s7,s2,0x1

0000000080000b88 <i_685>:
    80000b88:	00140413          	addi	s0,s0,1
    80000b8c:	fe8df4e3          	bleu	s0,s11,80000b74 <i_680>

0000000080000b90 <i_686>:
    80000b90:	037e9063          	bne	t4,s7,80000bb0 <i_694>

0000000080000b94 <i_687>:
    80000b94:	17816683          	lwu	a3,376(sp)

0000000080000b98 <i_688>:
    80000b98:	17d12623          	sw	t4,364(sp)

0000000080000b9c <i_689>:
    80000b9c:	01600793          	li	a5,22

0000000080000ba0 <i_690>:
    80000ba0:	40fbd43b          	sraw	s0,s7,a5

0000000080000ba4 <i_691>:
    80000ba4:	01777263          	bleu	s7,a4,80000ba8 <i_692>

0000000080000ba8 <i_692>:
    80000ba8:	0377d463          	ble	s7,a5,80000bd0 <i_702>

0000000080000bac <i_693>:
    80000bac:	01200593          	li	a1,18

0000000080000bb0 <i_694>:
    80000bb0:	00bb96bb          	sllw	a3,s7,a1

0000000080000bb4 <i_695>:
    80000bb4:	e3611323          	sh	s6,-474(sp)

0000000080000bb8 <i_696>:
    80000bb8:	ecb11423          	sh	a1,-312(sp)

0000000080000bbc <i_697>:
    80000bbc:	e5011783          	lh	a5,-432(sp)

0000000080000bc0 <i_698>:
    80000bc0:	ec614683          	lbu	a3,-314(sp)

0000000080000bc4 <i_699>:
    80000bc4:	0034569b          	srliw	a3,s0,0x3

0000000080000bc8 <i_700>:
    80000bc8:	00d6f3b3          	and	t2,a3,a3

0000000080000bcc <i_701>:
    80000bcc:	17512423          	sw	s5,360(sp)

0000000080000bd0 <i_702>:
    80000bd0:	02db24b3          	mulhsu	s1,s6,a3

0000000080000bd4 <i_703>:
    80000bd4:	fe016583          	lwu	a1,-32(sp)

0000000080000bd8 <i_704>:
    80000bd8:	0376e6b3          	rem	a3,a3,s7

0000000080000bdc <i_705>:
    80000bdc:	02712223          	sw	t2,36(sp)

0000000080000be0 <i_706>:
    80000be0:	02400393          	li	t2,36

0000000080000be4 <i_707>:
    80000be4:	4076d4b3          	sra	s1,a3,t2

0000000080000be8 <i_708>:
    80000be8:	0293c4b3          	div	s1,t2,s1

0000000080000bec <i_709>:
    80000bec:	01bbfa63          	bleu	s11,s7,80000c00 <i_714>

0000000080000bf0 <i_710>:
    80000bf0:	40948db3          	sub	s11,s1,s1

0000000080000bf4 <i_711>:
    80000bf4:	029dc063          	blt	s11,s1,80000c14 <i_719>

0000000080000bf8 <i_712>:
    80000bf8:	19010d23          	sb	a6,410(sp)

0000000080000bfc <i_713>:
    80000bfc:	fe712423          	sw	t2,-24(sp)

0000000080000c00 <i_714>:
    80000c00:	e9b13423          	sd	s11,-376(sp)

0000000080000c04 <i_715>:
    80000c04:	0074ce33          	xor	t3,s1,t2

0000000080000c08 <i_716>:
    80000c08:	039d9db3          	mulh	s11,s11,s9

0000000080000c0c <i_717>:
    80000c0c:	fd514383          	lbu	t2,-43(sp)

0000000080000c10 <i_718>:
    80000c10:	00000013          	nop

0000000080000c14 <i_719>:
    80000c14:	00000013          	nop

0000000080000c18 <i_720>:
    80000c18:	85dc0d9b          	addiw	s11,s8,-1955

0000000080000c1c <i_721>:
    80000c1c:	86900b93          	li	s7,-1943

0000000080000c20 <i_722>:
    80000c20:	87c00c93          	li	s9,-1924

0000000080000c24 <i_723>:
    80000c24:	e9c12823          	sw	t3,-368(sp)

0000000080000c28 <i_724>:
    80000c28:	00000013          	nop

0000000080000c2c <i_725>:
    80000c2c:	73500c13          	li	s8,1845

0000000080000c30 <i_726>:
    80000c30:	74900693          	li	a3,1865

0000000080000c34 <i_727>:
    80000c34:	e7013d83          	ld	s11,-400(sp)

0000000080000c38 <i_728>:
    80000c38:	001c0c13          	addi	s8,s8,1
    80000c3c:	ff86dce3          	ble	s8,a3,80000c34 <i_727>

0000000080000c40 <i_729>:
    80000c40:	10310603          	lb	a2,259(sp)

0000000080000c44 <i_730>:
    80000c44:	001b8b93          	addi	s7,s7,1
    80000c48:	fd7cfee3          	bleu	s7,s9,80000c24 <i_723>

0000000080000c4c <i_731>:
    80000c4c:	01be5a63          	ble	s11,t3,80000c60 <i_736>

0000000080000c50 <i_732>:
    80000c50:	01c68a63          	beq	a3,t3,80000c64 <i_737>

0000000080000c54 <i_733>:
    80000c54:	ffb13023          	sd	s11,-32(sp)

0000000080000c58 <i_734>:
    80000c58:	02c386bb          	mulw	a3,t2,a2

0000000080000c5c <i_735>:
    80000c5c:	e5812f03          	lw	t5,-424(sp)

0000000080000c60 <i_736>:
    80000c60:	ea813403          	ld	s0,-344(sp)

0000000080000c64 <i_737>:
    80000c64:	ed310383          	lb	t2,-301(sp)

0000000080000c68 <i_738>:
    80000c68:	01700413          	li	s0,23

0000000080000c6c <i_739>:
    80000c6c:	408459bb          	sraw	s3,s0,s0

0000000080000c70 <i_740>:
    80000c70:	f2015603          	lhu	a2,-224(sp)

0000000080000c74 <i_741>:
    80000c74:	033af063          	bleu	s3,s5,80000c94 <i_749>

0000000080000c78 <i_742>:
    80000c78:	06e11403          	lh	s0,110(sp)

0000000080000c7c <i_743>:
    80000c7c:	18811f23          	sh	s0,414(sp)

0000000080000c80 <i_744>:
    80000c80:	00000013          	nop

0000000080000c84 <i_745>:
    80000c84:	00000013          	nop

0000000080000c88 <i_746>:
    80000c88:	00000013          	nop

0000000080000c8c <i_747>:
    80000c8c:	15c12983          	lw	s3,348(sp)

0000000080000c90 <i_748>:
    80000c90:	02b14383          	lbu	t2,43(sp)

0000000080000c94 <i_749>:
    80000c94:	0339fd3b          	remuw	s10,s3,s3

0000000080000c98 <i_750>:
    80000c98:	05a15083          	lhu	ra,90(sp)

0000000080000c9c <i_751>:
    80000c9c:	83200b13          	li	s6,-1998

0000000080000ca0 <i_752>:
    80000ca0:	83f00413          	li	s0,-1985

0000000080000ca4 <i_753>:
    80000ca4:	41ad03bb          	subw	t2,s10,s10

0000000080000ca8 <i_754>:
    80000ca8:	02146e3b          	remw	t3,s0,ra

0000000080000cac <i_755>:
    80000cac:	00000013          	nop

0000000080000cb0 <i_756>:
    80000cb0:	00800993          	li	s3,8

0000000080000cb4 <i_757>:
    80000cb4:	013b1d3b          	sllw	s10,s6,s3

0000000080000cb8 <i_758>:
    80000cb8:	f8a11e03          	lh	t3,-118(sp)

0000000080000cbc <i_759>:
    80000cbc:	02141263          	bne	s0,ra,80000ce0 <i_767>

0000000080000cc0 <i_760>:
    80000cc0:	00399d13          	slli	s10,s3,0x3

0000000080000cc4 <i_761>:
    80000cc4:	02139063          	bne	t2,ra,80000ce4 <i_768>

0000000080000cc8 <i_762>:
    80000cc8:	df78e093          	ori	ra,a7,-521

0000000080000ccc <i_763>:
    80000ccc:	001b0b13          	addi	s6,s6,1
    80000cd0:	fc8b6ae3          	bltu	s6,s0,80000ca4 <i_753>

0000000080000cd4 <i_764>:
    80000cd4:	e4816d03          	lwu	s10,-440(sp)

0000000080000cd8 <i_765>:
    80000cd8:	01317463          	bleu	s3,sp,80000ce0 <i_767>

0000000080000cdc <i_766>:
    80000cdc:	01ecbcb3          	sltu	s9,s9,t5

0000000080000ce0 <i_767>:
    80000ce0:	ea011403          	lh	s0,-352(sp)

0000000080000ce4 <i_768>:
    80000ce4:	00000013          	nop

0000000080000ce8 <i_769>:
    80000ce8:	01400193          	li	gp,20

0000000080000cec <i_770>:
    80000cec:	4032543b          	sraw	s0,tp,gp

0000000080000cf0 <i_771>:
    80000cf0:	84b00213          	li	tp,-1973

0000000080000cf4 <i_772>:
    80000cf4:	85f00813          	li	a6,-1953

0000000080000cf8 <i_773>:
    80000cf8:	01320863          	beq	tp,s3,80000d08 <i_777>

0000000080000cfc <i_774>:
    80000cfc:	02600393          	li	t2,38

0000000080000d00 <i_775>:
    80000d00:	007812b3          	sll	t0,a6,t2

0000000080000d04 <i_776>:
    80000d04:	f6016483          	lwu	s1,-160(sp)

0000000080000d08 <i_777>:
    80000d08:	00000013          	nop

0000000080000d0c <i_778>:
    80000d0c:	f4813383          	ld	t2,-184(sp)

0000000080000d10 <i_779>:
    80000d10:	00120213          	addi	tp,tp,1 # 1 <main-0x7fffffff>
    80000d14:	fe4870e3          	bleu	tp,a6,80000cf4 <i_772>

0000000080000d18 <i_780>:
    80000d18:	027af3bb          	remuw	t2,s5,t2

0000000080000d1c <i_781>:
    80000d1c:	e5808293          	addi	t0,ra,-424

0000000080000d20 <i_782>:
    80000d20:	00611283          	lh	t0,6(sp)

0000000080000d24 <i_783>:
    80000d24:	e8711223          	sh	t2,-380(sp)

0000000080000d28 <i_784>:
    80000d28:	00728c63          	beq	t0,t2,80000d40 <i_790>

0000000080000d2c <i_785>:
    80000d2c:	77ee0397          	auipc	t2,0x77ee0

0000000080000d30 <i_786>:
    80000d30:	f2512423          	sw	t0,-216(sp)

0000000080000d34 <i_787>:
    80000d34:	f8814183          	lbu	gp,-120(sp)

0000000080000d38 <i_788>:
    80000d38:	007cb3b3          	sltu	t2,s9,t2

0000000080000d3c <i_789>:
    80000d3c:	03a14b03          	lbu	s6,58(sp)

0000000080000d40 <i_790>:
    80000d40:	e2a11383          	lh	t2,-470(sp)

0000000080000d44 <i_791>:
    80000d44:	02c3eb33          	rem	s6,t2,a2

0000000080000d48 <i_792>:
    80000d48:	00c1af33          	slt	t5,gp,a2

0000000080000d4c <i_793>:
    80000d4c:	02c1ebbb          	remw	s7,gp,a2

0000000080000d50 <i_794>:
    80000d50:	f3813583          	ld	a1,-200(sp)

0000000080000d54 <i_795>:
    80000d54:	03c00313          	li	t1,60

0000000080000d58 <i_796>:
    80000d58:	4065d1b3          	sra	gp,a1,t1

0000000080000d5c <i_797>:
    80000d5c:	06313c23          	sd	gp,120(sp)

0000000080000d60 <i_798>:
    80000d60:	f9713823          	sd	s7,-112(sp)

0000000080000d64 <i_799>:
    80000d64:	03712023          	sw	s7,32(sp)

0000000080000d68 <i_800>:
    80000d68:	0025919b          	slliw	gp,a1,0x2

0000000080000d6c <i_801>:
    80000d6c:	011c1263          	bne	s8,a7,80000d70 <i_802>

0000000080000d70 <i_802>:
    80000d70:	f3711923          	sh	s7,-206(sp)

0000000080000d74 <i_803>:
    80000d74:	eee15783          	lhu	a5,-274(sp)

0000000080000d78 <i_804>:
    80000d78:	026bf063          	bleu	t1,s7,80000d98 <i_812>

0000000080000d7c <i_805>:
    80000d7c:	01718463          	beq	gp,s7,80000d84 <i_807>

0000000080000d80 <i_806>:
    80000d80:	00f79a63          	bne	a5,a5,80000d94 <i_811>

0000000080000d84 <i_807>:
    80000d84:	0035feb3          	and	t4,a1,gp

0000000080000d88 <i_808>:
    80000d88:	06d14c03          	lbu	s8,109(sp)

0000000080000d8c <i_809>:
    80000d8c:	026b8db3          	mul	s11,s7,t1

0000000080000d90 <i_810>:
    80000d90:	037209bb          	mulw	s3,tp,s7

0000000080000d94 <i_811>:
    80000d94:	ff714683          	lbu	a3,-9(sp)

0000000080000d98 <i_812>:
    80000d98:	00000013          	nop

0000000080000d9c <i_813>:
    80000d9c:	00000013          	nop

0000000080000da0 <i_814>:
    80000da0:	88a00093          	li	ra,-1910

0000000080000da4 <i_815>:
    80000da4:	89400593          	li	a1,-1900

0000000080000da8 <i_816>:
    80000da8:	00108093          	addi	ra,ra,1
    80000dac:	feb0cee3          	blt	ra,a1,80000da8 <i_816>

0000000080000db0 <i_817>:
    80000db0:	02f21063          	bne	tp,a5,80000dd0 <i_825>

0000000080000db4 <i_818>:
    80000db4:	02c10183          	lb	gp,44(sp)

0000000080000db8 <i_819>:
    80000db8:	fcf13423          	sd	a5,-56(sp)

0000000080000dbc <i_820>:
    80000dbc:	10411783          	lh	a5,260(sp)

0000000080000dc0 <i_821>:
    80000dc0:	02d7c263          	blt	a5,a3,80000de4 <i_830>

0000000080000dc4 <i_822>:
    80000dc4:	003c9c9b          	slliw	s9,s9,0x3

0000000080000dc8 <i_823>:
    80000dc8:	023c8b33          	mul	s6,s9,gp

0000000080000dcc <i_824>:
    80000dcc:	00341e63          	bne	s0,gp,80000de8 <i_831>

0000000080000dd0 <i_825>:
    80000dd0:	00db1663          	bne	s6,a3,80000ddc <i_828>

0000000080000dd4 <i_826>:
    80000dd4:	f8d13823          	sd	a3,-112(sp)

0000000080000dd8 <i_827>:
    80000dd8:	039b06b3          	mul	a3,s6,s9

0000000080000ddc <i_828>:
    80000ddc:	09816683          	lwu	a3,152(sp)

0000000080000de0 <i_829>:
    80000de0:	03836263          	bltu	t1,s8,80000e04 <i_838>

0000000080000de4 <i_830>:
    80000de4:	00600f13          	li	t5,6

0000000080000de8 <i_831>:
    80000de8:	41e6d33b          	sraw	t1,a3,t5

0000000080000dec <i_832>:
    80000dec:	006c4e63          	blt	s8,t1,80000e08 <i_839>

0000000080000df0 <i_833>:
    80000df0:	eec12d03          	lw	s10,-276(sp)

0000000080000df4 <i_834>:
    80000df4:	eb410d03          	lb	s10,-332(sp)

0000000080000df8 <i_835>:
    80000df8:	fb012e83          	lw	t4,-80(sp)

0000000080000dfc <i_836>:
    80000dfc:	0be10a23          	sb	t5,180(sp)

0000000080000e00 <i_837>:
    80000e00:	fad13423          	sd	a3,-88(sp)

0000000080000e04 <i_838>:
    80000e04:	9a76e313          	ori	t1,a3,-1625

0000000080000e08 <i_839>:
    80000e08:	03e6e063          	bltu	a3,t5,80000e28 <i_847>

0000000080000e0c <i_840>:
    80000e0c:	f6813283          	ld	t0,-152(sp)

0000000080000e10 <i_841>:
    80000e10:	0016df1b          	srliw	t5,a3,0x1

0000000080000e14 <i_842>:
    80000e14:	2b6e821b          	addiw	tp,t4,694

0000000080000e18 <i_843>:
    80000e18:	004d6833          	or	a6,s10,tp

0000000080000e1c <i_844>:
    80000e1c:	03e21463          	bne	tp,t5,80000e44 <i_854>

0000000080000e20 <i_845>:
    80000e20:	18d12823          	sw	a3,400(sp)

0000000080000e24 <i_846>:
    80000e24:	01c00513          	li	a0,28

0000000080000e28 <i_847>:
    80000e28:	00ad16bb          	sllw	a3,s10,a0

0000000080000e2c <i_848>:
    80000e2c:	03a54063          	blt	a0,s10,80000e4c <i_856>

0000000080000e30 <i_849>:
    80000e30:	01054c63          	blt	a0,a6,80000e48 <i_855>

0000000080000e34 <i_850>:
    80000e34:	03a85333          	divu	t1,a6,s10

0000000080000e38 <i_851>:
    80000e38:	13816503          	lwu	a0,312(sp)

0000000080000e3c <i_852>:
    80000e3c:	e4710a83          	lb	s5,-441(sp)

0000000080000e40 <i_853>:
    80000e40:	015a9a63          	bne	s5,s5,80000e54 <i_858>

0000000080000e44 <i_854>:
    80000e44:	03090db3          	mul	s11,s2,a6

0000000080000e48 <i_855>:
    80000e48:	e6a13423          	sd	a0,-408(sp)

0000000080000e4c <i_856>:
    80000e4c:	01cefe33          	and	t3,t4,t3

0000000080000e50 <i_857>:
    80000e50:	010d4a63          	blt	s10,a6,80000e64 <i_862>

0000000080000e54 <i_858>:
    80000e54:	f6415383          	lhu	t2,-156(sp)

0000000080000e58 <i_859>:
    80000e58:	e7014803          	lbu	a6,-400(sp)

0000000080000e5c <i_860>:
    80000e5c:	c96e3e13          	sltiu	t3,t3,-874

0000000080000e60 <i_861>:
    80000e60:	00000013          	nop

0000000080000e64 <i_862>:
    80000e64:	e8816383          	lwu	t2,-376(sp)

0000000080000e68 <i_863>:
    80000e68:	f4712623          	sw	t2,-180(sp)

0000000080000e6c <i_864>:
    80000e6c:	7b600d13          	li	s10,1974

0000000080000e70 <i_865>:
    80000e70:	7c900d93          	li	s11,1993

0000000080000e74 <i_866>:
    80000e74:	f2514803          	lbu	a6,-219(sp)

0000000080000e78 <i_867>:
    80000e78:	0103fc63          	bleu	a6,t2,80000e90 <i_872>

0000000080000e7c <i_868>:
    80000e7c:	001d0d13          	addi	s10,s10,1
    80000e80:	ffaddae3          	ble	s10,s11,80000e74 <i_866>

0000000080000e84 <i_869>:
    80000e84:	01100393          	li	t2,17

0000000080000e88 <i_870>:
    80000e88:	0078583b          	srlw	a6,a6,t2

0000000080000e8c <i_871>:
    80000e8c:	f0c10803          	lb	a6,-244(sp)

0000000080000e90 <i_872>:
    80000e90:	03b00813          	li	a6,59

0000000080000e94 <i_873>:
    80000e94:	01085f33          	srl	t5,a6,a6

0000000080000e98 <i_874>:
    80000e98:	010101a3          	sb	a6,3(sp)

0000000080000e9c <i_875>:
    80000e9c:	0019d99b          	srliw	s3,s3,0x1

0000000080000ea0 <i_876>:
    80000ea0:	033849b3          	div	s3,a6,s3

0000000080000ea4 <i_877>:
    80000ea4:	f2011803          	lh	a6,-224(sp)

0000000080000ea8 <i_878>:
    80000ea8:	ff412283          	lw	t0,-12(sp)

0000000080000eac <i_879>:
    80000eac:	01328863          	beq	t0,s3,80000ebc <i_883>

0000000080000eb0 <i_880>:
    80000eb0:	03c12983          	lw	s3,60(sp)

0000000080000eb4 <i_881>:
    80000eb4:	0052f263          	bleu	t0,t0,80000eb8 <i_882>

0000000080000eb8 <i_882>:
    80000eb8:	f3a15d83          	lhu	s11,-198(sp)

0000000080000ebc <i_883>:
    80000ebc:	039d99b3          	mulh	s3,s11,s9

0000000080000ec0 <i_884>:
    80000ec0:	00000013          	nop

0000000080000ec4 <i_885>:
    80000ec4:	7ea00293          	li	t0,2026

0000000080000ec8 <i_886>:
    80000ec8:	7f600b13          	li	s6,2038

0000000080000ecc <i_887>:
    80000ecc:	f0914d03          	lbu	s10,-247(sp)

0000000080000ed0 <i_888>:
    80000ed0:	03ad1463          	bne	s10,s10,80000ef8 <i_897>

0000000080000ed4 <i_889>:
    80000ed4:	004c5d1b          	srliw	s10,s8,0x4

0000000080000ed8 <i_890>:
    80000ed8:	04816803          	lwu	a6,72(sp)

0000000080000edc <i_891>:
    80000edc:	00000013          	nop

0000000080000ee0 <i_892>:
    80000ee0:	00128293          	addi	t0,t0,1
    80000ee4:	fe5b54e3          	ble	t0,s6,80000ecc <i_887>

0000000080000ee8 <i_893>:
    80000ee8:	02812c03          	lw	s8,40(sp)

0000000080000eec <i_894>:
    80000eec:	6ecd7d13          	andi	s10,s10,1772

0000000080000ef0 <i_895>:
    80000ef0:	07c15383          	lhu	t2,124(sp)

0000000080000ef4 <i_896>:
    80000ef4:	ec412d03          	lw	s10,-316(sp)

0000000080000ef8 <i_897>:
    80000ef8:	fa016a03          	lwu	s4,-96(sp)

0000000080000efc <i_898>:
    80000efc:	037d03b3          	mul	t2,s10,s7

0000000080000f00 <i_899>:
    80000f00:	00cd6633          	or	a2,s10,a2

0000000080000f04 <i_900>:
    80000f04:	02738d3b          	mulw	s10,t2,t2

0000000080000f08 <i_901>:
    80000f08:	f4712223          	sw	t2,-188(sp)

0000000080000f0c <i_902>:
    80000f0c:	02711523          	sh	t2,42(sp)

0000000080000f10 <i_903>:
    80000f10:	fe211d03          	lh	s10,-30(sp)

0000000080000f14 <i_904>:
    80000f14:	07811383          	lh	t2,120(sp)

0000000080000f18 <i_905>:
    80000f18:	03a11923          	sh	s10,50(sp)

0000000080000f1c <i_906>:
    80000f1c:	dc9d0413          	addi	s0,s10,-567

0000000080000f20 <i_907>:
    80000f20:	21643f13          	sltiu	t5,s0,534

0000000080000f24 <i_908>:
    80000f24:	03f10d03          	lb	s10,63(sp)

0000000080000f28 <i_909>:
    80000f28:	11a10223          	sb	s10,260(sp)

0000000080000f2c <i_910>:
    80000f2c:	f6113823          	sd	ra,-144(sp)

0000000080000f30 <i_911>:
    80000f30:	e7e12223          	sw	t5,-412(sp)

0000000080000f34 <i_912>:
    80000f34:	03ef6d3b          	remw	s10,t5,t5

0000000080000f38 <i_913>:
    80000f38:	f5e11423          	sh	t5,-184(sp)

0000000080000f3c <i_914>:
    80000f3c:	03ad0063          	beq	s10,s10,80000f5c <i_922>

0000000080000f40 <i_915>:
    80000f40:	1b411f03          	lh	t5,436(sp)

0000000080000f44 <i_916>:
    80000f44:	49544413          	xori	s0,s0,1173

0000000080000f48 <i_917>:
    80000f48:	0e812223          	sw	s0,228(sp)

0000000080000f4c <i_918>:
    80000f4c:	020d0f13          	addi	t5,s10,32

0000000080000f50 <i_919>:
    80000f50:	008f4a33          	xor	s4,t5,s0

0000000080000f54 <i_920>:
    80000f54:	13c11723          	sh	t3,302(sp)

0000000080000f58 <i_921>:
    80000f58:	019f60b3          	or	ra,t5,s9

0000000080000f5c <i_922>:
    80000f5c:	01ea2f33          	slt	t5,s4,t5

0000000080000f60 <i_923>:
    80000f60:	00a52533          	slt	a0,a0,a0

0000000080000f64 <i_924>:
    80000f64:	17e15d03          	lhu	s10,382(sp)

0000000080000f68 <i_925>:
    80000f68:	00215f03          	lhu	t5,2(sp)

0000000080000f6c <i_926>:
    80000f6c:	15410723          	sb	s4,334(sp)

0000000080000f70 <i_927>:
    80000f70:	03ea4463          	blt	s4,t5,80000f98 <i_937>

0000000080000f74 <i_928>:
    80000f74:	f6615e03          	lhu	t3,-154(sp)

0000000080000f78 <i_929>:
    80000f78:	f9412a23          	sw	s4,-108(sp)

0000000080000f7c <i_930>:
    80000f7c:	00ab6f33          	or	t5,s6,a0

0000000080000f80 <i_931>:
    80000f80:	e7210783          	lb	a5,-398(sp)

0000000080000f84 <i_932>:
    80000f84:	00000013          	nop

0000000080000f88 <i_933>:
    80000f88:	ffc16503          	lwu	a0,-4(sp)

0000000080000f8c <i_934>:
    80000f8c:	00000013          	nop

0000000080000f90 <i_935>:
    80000f90:	ba47e313          	ori	t1,a5,-1116

0000000080000f94 <i_936>:
    80000f94:	01e9b9b3          	sltu	s3,s3,t5

0000000080000f98 <i_937>:
    80000f98:	00700d93          	li	s11,7

0000000080000f9c <i_938>:
    80000f9c:	01b7dc33          	srl	s8,a5,s11

0000000080000fa0 <i_939>:
    80000fa0:	74200293          	li	t0,1858

0000000080000fa4 <i_940>:
    80000fa4:	75400393          	li	t2,1876

0000000080000fa8 <i_941>:
    80000fa8:	01bc3f33          	sltu	t5,s8,s11

0000000080000fac <i_942>:
    80000fac:	00000013          	nop

0000000080000fb0 <i_943>:
    80000fb0:	00128293          	addi	t0,t0,1
    80000fb4:	fe72cae3          	blt	t0,t2,80000fa8 <i_941>

0000000080000fb8 <i_944>:
    80000fb8:	e5815e03          	lhu	t3,-424(sp)

0000000080000fbc <i_945>:
    80000fbc:	01600293          	li	t0,22

0000000080000fc0 <i_946>:
    80000fc0:	405e5d3b          	sraw	s10,t3,t0

0000000080000fc4 <i_947>:
    80000fc4:	004dde93          	srli	t4,s11,0x4

0000000080000fc8 <i_948>:
    80000fc8:	ff4d7a93          	andi	s5,s10,-12

0000000080000fcc <i_949>:
    80000fcc:	14016f03          	lwu	t5,320(sp)

0000000080000fd0 <i_950>:
    80000fd0:	04813a83          	ld	s5,72(sp)

0000000080000fd4 <i_951>:
    80000fd4:	03b00f13          	li	t5,59

0000000080000fd8 <i_952>:
    80000fd8:	01e855b3          	srl	a1,a6,t5

0000000080000fdc <i_953>:
    80000fdc:	02bd05b3          	mul	a1,s10,a1

0000000080000fe0 <i_954>:
    80000fe0:	0cb11d23          	sh	a1,218(sp)

0000000080000fe4 <i_955>:
    80000fe4:	f4b11a23          	sh	a1,-172(sp)

0000000080000fe8 <i_956>:
    80000fe8:	00225213          	srli	tp,tp,0x2

0000000080000fec <i_957>:
    80000fec:	02b5f263          	bleu	a1,a1,80001010 <i_966>

0000000080000ff0 <i_958>:
    80000ff0:	04b11123          	sh	a1,66(sp)

0000000080000ff4 <i_959>:
    80000ff4:	01e5e863          	bltu	a1,t5,80001004 <i_963>

0000000080000ff8 <i_960>:
    80000ff8:	e9415e83          	lhu	t4,-364(sp)

0000000080000ffc <i_961>:
    80000ffc:	fe013083          	ld	ra,-32(sp)

0000000080001000 <i_962>:
    80001000:	01ee4463          	blt	t3,t5,80001008 <i_964>

0000000080001004 <i_963>:
    80001004:	00b5ca63          	blt	a1,a1,80001018 <i_968>

0000000080001008 <i_964>:
    80001008:	00bc0a33          	add	s4,s8,a1

000000008000100c <i_965>:
    8000100c:	4aa5bc93          	sltiu	s9,a1,1194

0000000080001010 <i_966>:
    80001010:	f3e11123          	sh	t5,-222(sp)

0000000080001014 <i_967>:
    80001014:	0010fc63          	bleu	ra,ra,8000102c <i_973>

0000000080001018 <i_968>:
    80001018:	02bf6ebb          	remw	t4,t5,a1

000000008000101c <i_969>:
    8000101c:	eaa11603          	lh	a2,-342(sp)

0000000080001020 <i_970>:
    80001020:	00ca0a33          	add	s4,s4,a2

0000000080001024 <i_971>:
    80001024:	00000013          	nop

0000000080001028 <i_972>:
    80001028:	ea816303          	lwu	t1,-344(sp)

000000008000102c <i_973>:
    8000102c:	1b812f03          	lw	t5,440(sp)

0000000080001030 <i_974>:
    80001030:	00e00b13          	li	s6,14

0000000080001034 <i_975>:
    80001034:	416353b3          	sra	t2,t1,s6

0000000080001038 <i_976>:
    80001038:	86e00493          	li	s1,-1938

000000008000103c <i_977>:
    8000103c:	88000813          	li	a6,-1920

0000000080001040 <i_978>:
    80001040:	00000013          	nop

0000000080001044 <i_979>:
    80001044:	86700593          	li	a1,-1945

0000000080001048 <i_980>:
    80001048:	87500213          	li	tp,-1931

000000008000104c <i_981>:
    8000104c:	00158593          	addi	a1,a1,1
    80001050:	fe459ee3          	bne	a1,tp,8000104c <i_981>

0000000080001054 <i_982>:
    80001054:	e1a10383          	lb	t2,-486(sp)

0000000080001058 <i_983>:
    80001058:	fa713423          	sd	t2,-88(sp)

000000008000105c <i_984>:
    8000105c:	03ecccbb          	divw	s9,s9,t5

0000000080001060 <i_985>:
    80001060:	f6b12e23          	sw	a1,-132(sp)

0000000080001064 <i_986>:
    80001064:	003f5393          	srli	t2,t5,0x3

0000000080001068 <i_987>:
    80001068:	025c52bb          	divuw	t0,s8,t0

000000008000106c <i_988>:
    8000106c:	03400313          	li	t1,52

0000000080001070 <i_989>:
    80001070:	40625433          	sra	s0,tp,t1

0000000080001074 <i_990>:
    80001074:	00000013          	nop

0000000080001078 <i_991>:
    80001078:	00148493          	addi	s1,s1,1
    8000107c:	fc9870e3          	bleu	s1,a6,8000103c <i_977>

0000000080001080 <i_992>:
    80001080:	ce551297          	auipc	t0,0xce551

0000000080001084 <i_993>:
    80001084:	005343b3          	xor	t2,t1,t0

0000000080001088 <i_994>:
    80001088:	0e811283          	lh	t0,232(sp)

000000008000108c <i_995>:
    8000108c:	14214603          	lbu	a2,322(sp)

0000000080001090 <i_996>:
    80001090:	00c28463          	beq	t0,a2,80001098 <i_998>

0000000080001094 <i_997>:
    80001094:	01400313          	li	t1,20

0000000080001098 <i_998>:
    80001098:	0062933b          	sllw	t1,t0,t1

000000008000109c <i_999>:
    8000109c:	30667393          	andi	t2,a2,774

00000000800010a0 <i_1000>:
    800010a0:	0052c433          	xor	s0,t0,t0

00000000800010a4 <i_1001>:
    800010a4:	00547463          	bleu	t0,s0,800010ac <i_1003>

00000000800010a8 <i_1002>:
    800010a8:	ff816a83          	lwu	s5,-8(sp)

00000000800010ac <i_1003>:
    800010ac:	035aedbb          	remw	s11,s5,s5

00000000800010b0 <i_1004>:
    800010b0:	0272e33b          	remw	t1,t0,t2

00000000800010b4 <i_1005>:
    800010b4:	fae14983          	lbu	s3,-82(sp)

00000000800010b8 <i_1006>:
    800010b8:	001dd693          	srli	a3,s11,0x1

00000000800010bc <i_1007>:
    800010bc:	02d2e463          	bltu	t0,a3,800010e4 <i_1017>

00000000800010c0 <i_1008>:
    800010c0:	e9013683          	ld	a3,-368(sp)

00000000800010c4 <i_1009>:
    800010c4:	1bb14283          	lbu	t0,443(sp)

00000000800010c8 <i_1010>:
    800010c8:	ebc16b03          	lwu	s6,-324(sp)

00000000800010cc <i_1011>:
    800010cc:	02600b13          	li	s6,38

00000000800010d0 <i_1012>:
    800010d0:	416b5c33          	sra	s8,s6,s6

00000000800010d4 <i_1013>:
    800010d4:	00512c23          	sw	t0,24(sp)

00000000800010d8 <i_1014>:
    800010d8:	0162dc63          	ble	s6,t0,800010f0 <i_1020>

00000000800010dc <i_1015>:
    800010dc:	016b7b33          	and	s6,s6,s6

00000000800010e0 <i_1016>:
    800010e0:	18c14b03          	lbu	s6,396(sp)

00000000800010e4 <i_1017>:
    800010e4:	fec15283          	lhu	t0,-20(sp)

00000000800010e8 <i_1018>:
    800010e8:	fb914e83          	lbu	t4,-71(sp)

00000000800010ec <i_1019>:
    800010ec:	05416203          	lwu	tp,84(sp)

00000000800010f0 <i_1020>:
    800010f0:	005e8eb3          	add	t4,t4,t0

00000000800010f4 <i_1021>:
    800010f4:	e7e11c03          	lh	s8,-386(sp)

00000000800010f8 <i_1022>:
    800010f8:	11211e83          	lh	t4,274(sp)

00000000800010fc <i_1023>:
    800010fc:	59e0809b          	addiw	ra,ra,1438

0000000080001100 <i_1024>:
    80001100:	f0e11283          	lh	t0,-242(sp)

0000000080001104 <i_1025>:
    80001104:	005080b3          	add	ra,ra,t0

0000000080001108 <i_1026>:
    80001108:	001081b3          	add	gp,ra,ra

000000008000110c <i_1027>:
    8000110c:	fc312423          	sw	gp,-56(sp)

0000000080001110 <i_1028>:
    80001110:	f59c1097          	auipc	ra,0xf59c1

0000000080001114 <i_1029>:
    80001114:	fe02a293          	slti	t0,t0,-32

0000000080001118 <i_1030>:
    80001118:	00335663          	ble	gp,t1,80001124 <i_1033>

000000008000111c <i_1031>:
    8000111c:	02a2d463          	ble	a0,t0,80001144 <i_1041>

0000000080001120 <i_1032>:
    80001120:	0250e063          	bltu	ra,t0,80001140 <i_1040>

0000000080001124 <i_1033>:
    80001124:	12513423          	sd	t0,296(sp)

0000000080001128 <i_1034>:
    80001128:	00e00813          	li	a6,14

000000008000112c <i_1035>:
    8000112c:	01029b3b          	sllw	s6,t0,a6

0000000080001130 <i_1036>:
    80001130:	0131fa63          	bleu	s3,gp,80001144 <i_1041>

0000000080001134 <i_1037>:
    80001134:	01334c33          	xor	s8,t1,s3

0000000080001138 <i_1038>:
    80001138:	e3a11d03          	lh	s10,-454(sp)

000000008000113c <i_1039>:
    8000113c:	1ba13c23          	sd	s10,440(sp)

0000000080001140 <i_1040>:
    80001140:	13416203          	lwu	tp,308(sp)

0000000080001144 <i_1041>:
    80001144:	ffa13423          	sd	s10,-24(sp)

0000000080001148 <i_1042>:
    80001148:	09813d83          	ld	s11,152(sp)

000000008000114c <i_1043>:
    8000114c:	86b00793          	li	a5,-1941

0000000080001150 <i_1044>:
    80001150:	87200b13          	li	s6,-1934

0000000080001154 <i_1045>:
    80001154:	f1a13423          	sd	s10,-248(sp)

0000000080001158 <i_1046>:
    80001158:	17412583          	lw	a1,372(sp)

000000008000115c <i_1047>:
    8000115c:	8a800993          	li	s3,-1880

0000000080001160 <i_1048>:
    80001160:	8b200313          	li	t1,-1870

0000000080001164 <i_1049>:
    80001164:	00198993          	addi	s3,s3,1
    80001168:	fe69cee3          	blt	s3,t1,80001164 <i_1049>

000000008000116c <i_1050>:
    8000116c:	00830d33          	add	s10,t1,s0

0000000080001170 <i_1051>:
    80001170:	0ab10403          	lb	s0,171(sp)

0000000080001174 <i_1052>:
    80001174:	40bd09bb          	subw	s3,s10,a1

0000000080001178 <i_1053>:
    80001178:	00178793          	addi	a5,a5,1
    8000117c:	fcfb5ce3          	ble	a5,s6,80001154 <i_1045>

0000000080001180 <i_1054>:
    80001180:	f5112423          	sw	a7,-184(sp)

0000000080001184 <i_1055>:
    80001184:	408409bb          	subw	s3,s0,s0

0000000080001188 <i_1056>:
    80001188:	c8c40d13          	addi	s10,s0,-884

000000008000118c <i_1057>:
    8000118c:	03a9c063          	blt	s3,s10,800011ac <i_1065>

0000000080001190 <i_1058>:
    80001190:	f5012583          	lw	a1,-176(sp)

0000000080001194 <i_1059>:
    80001194:	f5313c23          	sd	s3,-168(sp)

0000000080001198 <i_1060>:
    80001198:	1d013d03          	ld	s10,464(sp)

000000008000119c <i_1061>:
    8000119c:	01aa0263          	beq	s4,s10,800011a0 <i_1062>

00000000800011a0 <i_1062>:
    800011a0:	ef313c23          	sd	s3,-264(sp)

00000000800011a4 <i_1063>:
    800011a4:	07815a03          	lhu	s4,120(sp)

00000000800011a8 <i_1064>:
    800011a8:	034a7d33          	remu	s10,s4,s4

00000000800011ac <i_1065>:
    800011ac:	efa10ea3          	sb	s10,-259(sp)

00000000800011b0 <i_1066>:
    800011b0:	01ad6863          	bltu	s10,s10,800011c0 <i_1070>

00000000800011b4 <i_1067>:
    800011b4:	17a106a3          	sb	s10,365(sp)

00000000800011b8 <i_1068>:
    800011b8:	f8c16183          	lwu	gp,-116(sp)

00000000800011bc <i_1069>:
    800011bc:	03a1dd3b          	divuw	s10,gp,s10

00000000800011c0 <i_1070>:
    800011c0:	f3511e23          	sh	s5,-196(sp)

00000000800011c4 <i_1071>:
    800011c4:	05a13423          	sd	s10,72(sp)

00000000800011c8 <i_1072>:
    800011c8:	01a74a63          	blt	a4,s10,800011dc <i_1077>

00000000800011cc <i_1073>:
    800011cc:	01a1f263          	bleu	s10,gp,800011d0 <i_1074>

00000000800011d0 <i_1074>:
    800011d0:	d6640b93          	addi	s7,s0,-666

00000000800011d4 <i_1075>:
    800011d4:	f5812d03          	lw	s10,-168(sp)

00000000800011d8 <i_1076>:
    800011d8:	04611603          	lh	a2,70(sp)

00000000800011dc <i_1077>:
    800011dc:	fc013c83          	ld	s9,-64(sp)

00000000800011e0 <i_1078>:
    800011e0:	fec16803          	lwu	a6,-20(sp)

00000000800011e4 <i_1079>:
    800011e4:	eb012e23          	sw	a6,-324(sp)

00000000800011e8 <i_1080>:
    800011e8:	1d0106a3          	sb	a6,461(sp)

00000000800011ec <i_1081>:
    800011ec:	08313423          	sd	gp,136(sp)

00000000800011f0 <i_1082>:
    800011f0:	03ad6463          	bltu	s10,s10,80001218 <i_1092>

00000000800011f4 <i_1083>:
    800011f4:	01800c13          	li	s8,24

00000000800011f8 <i_1084>:
    800011f8:	018d5bb3          	srl	s7,s10,s8

00000000800011fc <i_1085>:
    800011fc:	0188d663          	ble	s8,a7,80001208 <i_1088>

0000000080001200 <i_1086>:
    80001200:	ffe11383          	lh	t2,-2(sp)

0000000080001204 <i_1087>:
    80001204:	00000013          	nop

0000000080001208 <i_1088>:
    80001208:	00000013          	nop

000000008000120c <i_1089>:
    8000120c:	00000013          	nop

0000000080001210 <i_1090>:
    80001210:	03613823          	sd	s6,48(sp)

0000000080001214 <i_1091>:
    80001214:	0018531b          	srliw	t1,a6,0x1

0000000080001218 <i_1092>:
    80001218:	ec813583          	ld	a1,-312(sp)

000000008000121c <i_1093>:
    8000121c:	02b1e5b3          	rem	a1,gp,a1

0000000080001220 <i_1094>:
    80001220:	86900413          	li	s0,-1943

0000000080001224 <i_1095>:
    80001224:	87500b13          	li	s6,-1931

0000000080001228 <i_1096>:
    80001228:	00000013          	nop

000000008000122c <i_1097>:
    8000122c:	40b585bb          	subw	a1,a1,a1

0000000080001230 <i_1098>:
    80001230:	8a800f13          	li	t5,-1880

0000000080001234 <i_1099>:
    80001234:	8aa00813          	li	a6,-1878

0000000080001238 <i_1100>:
    80001238:	ecb13823          	sd	a1,-304(sp)

000000008000123c <i_1101>:
    8000123c:	001f0f13          	addi	t5,t5,1 # b0e6c3d5 <_end+0x30e5bfc1>
    80001240:	ff0f6ce3          	bltu	t5,a6,80001238 <i_1100>

0000000080001244 <i_1102>:
    80001244:	4035dd1b          	sraiw	s10,a1,0x3

0000000080001248 <i_1103>:
    80001248:	08b10ea3          	sb	a1,157(sp)

000000008000124c <i_1104>:
    8000124c:	00000013          	nop

0000000080001250 <i_1105>:
    80001250:	00140413          	addi	s0,s0,1
    80001254:	fc8b7ae3          	bleu	s0,s6,80001228 <i_1096>

0000000080001258 <i_1106>:
    80001258:	01ce7463          	bleu	t3,t3,80001260 <i_1108>

000000008000125c <i_1107>:
    8000125c:	02610d03          	lb	s10,38(sp)

0000000080001260 <i_1108>:
    80001260:	02b395b3          	mulh	a1,t2,a1

0000000080001264 <i_1109>:
    80001264:	f9013583          	ld	a1,-112(sp)

0000000080001268 <i_1110>:
    80001268:	4033d393          	srai	t2,t2,0x3

000000008000126c <i_1111>:
    8000126c:	0a713023          	sd	t2,160(sp)

0000000080001270 <i_1112>:
    80001270:	e9a12623          	sw	s10,-372(sp)

0000000080001274 <i_1113>:
    80001274:	f0713c23          	sd	t2,-232(sp)

0000000080001278 <i_1114>:
    80001278:	00139b1b          	slliw	s6,t2,0x1

000000008000127c <i_1115>:
    8000127c:	1e016483          	lwu	s1,480(sp)

0000000080001280 <i_1116>:
    80001280:	03215783          	lhu	a5,50(sp)

0000000080001284 <i_1117>:
    80001284:	a7a88813          	addi	a6,a7,-1414

0000000080001288 <i_1118>:
    80001288:	00880e63          	beq	a6,s0,800012a4 <i_1125>

000000008000128c <i_1119>:
    8000128c:	1cb109a3          	sb	a1,467(sp)

0000000080001290 <i_1120>:
    80001290:	00000013          	nop

0000000080001294 <i_1121>:
    80001294:	ea811683          	lh	a3,-344(sp)

0000000080001298 <i_1122>:
    80001298:	00000013          	nop

000000008000129c <i_1123>:
    8000129c:	00000013          	nop

00000000800012a0 <i_1124>:
    800012a0:	19e10503          	lb	a0,414(sp)

00000000800012a4 <i_1125>:
    800012a4:	00000013          	nop

00000000800012a8 <i_1126>:
    800012a8:	02a6cd33          	div	s10,a3,a0

00000000800012ac <i_1127>:
    800012ac:	85200c93          	li	s9,-1966

00000000800012b0 <i_1128>:
    800012b0:	86200413          	li	s0,-1950

00000000800012b4 <i_1129>:
    800012b4:	f7d10683          	lb	a3,-131(sp)

00000000800012b8 <i_1130>:
    800012b8:	029484bb          	mulw	s1,s1,s1

00000000800012bc <i_1131>:
    800012bc:	01a68d33          	add	s10,a3,s10

00000000800012c0 <i_1132>:
    800012c0:	04c15503          	lhu	a0,76(sp)

00000000800012c4 <i_1133>:
    800012c4:	001c8c93          	addi	s9,s9,1
    800012c8:	ff9476e3          	bleu	s9,s0,800012b4 <i_1129>

00000000800012cc <i_1134>:
    800012cc:	00d48ab3          	add	s5,s1,a3

00000000800012d0 <i_1135>:
    800012d0:	02700413          	li	s0,39

00000000800012d4 <i_1136>:
    800012d4:	0082d6b3          	srl	a3,t0,s0

00000000800012d8 <i_1137>:
    800012d8:	8b200d93          	li	s11,-1870

00000000800012dc <i_1138>:
    800012dc:	8bf00a93          	li	s5,-1857

00000000800012e0 <i_1139>:
    800012e0:	e5c15b03          	lhu	s6,-420(sp)

00000000800012e4 <i_1140>:
    800012e4:	001b129b          	slliw	t0,s6,0x1

00000000800012e8 <i_1141>:
    800012e8:	41d70eb3          	sub	t4,a4,t4

00000000800012ec <i_1142>:
    800012ec:	0e813e83          	ld	t4,232(sp)

00000000800012f0 <i_1143>:
    800012f0:	0f813e83          	ld	t4,248(sp)

00000000800012f4 <i_1144>:
    800012f4:	00000013          	nop

00000000800012f8 <i_1145>:
    800012f8:	025b6263          	bltu	s6,t0,8000131c <i_1153>

00000000800012fc <i_1146>:
    800012fc:	00000013          	nop

0000000080001300 <i_1147>:
    80001300:	0052e2b3          	or	t0,t0,t0

0000000080001304 <i_1148>:
    80001304:	001d8d93          	addi	s11,s11,1
    80001308:	fd5dece3          	bltu	s11,s5,800012e0 <i_1139>

000000008000130c <i_1149>:
    8000130c:	08511e23          	sh	t0,156(sp)

0000000080001310 <i_1150>:
    80001310:	f2f11123          	sh	a5,-222(sp)

0000000080001314 <i_1151>:
    80001314:	03629263          	bne	t0,s6,80001338 <i_1160>

0000000080001318 <i_1152>:
    80001318:	02400c13          	li	s8,36

000000008000131c <i_1153>:
    8000131c:	01829db3          	sll	s11,t0,s8

0000000080001320 <i_1154>:
    80001320:	05d10783          	lb	a5,93(sp)

0000000080001324 <i_1155>:
    80001324:	f5a10c03          	lb	s8,-166(sp)

0000000080001328 <i_1156>:
    80001328:	02f7f463          	bleu	a5,a5,80001350 <i_1166>

000000008000132c <i_1157>:
    8000132c:	13b12623          	sw	s11,300(sp)

0000000080001330 <i_1158>:
    80001330:	ec816d83          	lwu	s11,-312(sp)

0000000080001334 <i_1159>:
    80001334:	418789bb          	subw	s3,a5,s8

0000000080001338 <i_1160>:
    80001338:	e78100a3          	sb	s8,-415(sp)

000000008000133c <i_1161>:
    8000133c:	18810383          	lb	t2,392(sp)

0000000080001340 <i_1162>:
    80001340:	06812383          	lw	t2,104(sp)

0000000080001344 <i_1163>:
    80001344:	e8010d03          	lb	s10,-384(sp)

0000000080001348 <i_1164>:
    80001348:	e2f13023          	sd	a5,-480(sp)

000000008000134c <i_1165>:
    8000134c:	00000013          	nop

0000000080001350 <i_1166>:
    80001350:	02a00c93          	li	s9,42

0000000080001354 <i_1167>:
    80001354:	019b5db3          	srl	s11,s6,s9

0000000080001358 <i_1168>:
    80001358:	8cf00993          	li	s3,-1841

000000008000135c <i_1169>:
    8000135c:	8df00b13          	li	s6,-1825

0000000080001360 <i_1170>:
    80001360:	018c0c33          	add	s8,s8,s8

0000000080001364 <i_1171>:
    80001364:	1a615d83          	lhu	s11,422(sp)

0000000080001368 <i_1172>:
    80001368:	fd615e03          	lhu	t3,-42(sp)

000000008000136c <i_1173>:
    8000136c:	015a8ab3          	add	s5,s5,s5

0000000080001370 <i_1174>:
    80001370:	05812a83          	lw	s5,88(sp)

0000000080001374 <i_1175>:
    80001374:	03d00a93          	li	s5,61

0000000080001378 <i_1176>:
    80001378:	015a9cb3          	sll	s9,s5,s5

000000008000137c <i_1177>:
    8000137c:	1c859ab7          	lui	s5,0x1c859

0000000080001380 <i_1178>:
    80001380:	03410a83          	lb	s5,52(sp)

0000000080001384 <i_1179>:
    80001384:	035adabb          	divuw	s5,s5,s5

0000000080001388 <i_1180>:
    80001388:	09512823          	sw	s5,144(sp)

000000008000138c <i_1181>:
    8000138c:	0d8aea93          	ori	s5,s5,216

0000000080001390 <i_1182>:
    80001390:	18016a83          	lwu	s5,384(sp)

0000000080001394 <i_1183>:
    80001394:	00198993          	addi	s3,s3,1
    80001398:	fd69c4e3          	blt	s3,s6,80001360 <i_1170>

000000008000139c <i_1184>:
    8000139c:	ee215403          	lhu	s0,-286(sp)

00000000800013a0 <i_1185>:
    800013a0:	01741a63          	bne	s0,s7,800013b4 <i_1190>

00000000800013a4 <i_1186>:
    800013a4:	b53af193          	andi	gp,s5,-1197

00000000800013a8 <i_1187>:
    800013a8:	0354543b          	divuw	s0,s0,s5

00000000800013ac <i_1188>:
    800013ac:	0f013a83          	ld	s5,240(sp)

00000000800013b0 <i_1189>:
    800013b0:	ee813403          	ld	s0,-280(sp)

00000000800013b4 <i_1190>:
    800013b4:	40245e9b          	sraiw	t4,s0,0x2

00000000800013b8 <i_1191>:
    800013b8:	003a9b13          	slli	s6,s5,0x3

00000000800013bc <i_1192>:
    800013bc:	02842eb3          	mulhsu	t4,s0,s0

00000000800013c0 <i_1193>:
    800013c0:	e9510c83          	lb	s9,-363(sp)

00000000800013c4 <i_1194>:
    800013c4:	13411383          	lh	t2,308(sp)

00000000800013c8 <i_1195>:
    800013c8:	04813403          	ld	s0,72(sp)

00000000800013cc <i_1196>:
    800013cc:	01e45e63          	ble	t5,s0,800013e8 <i_1203>

00000000800013d0 <i_1197>:
    800013d0:	03dcfd3b          	remuw	s10,s9,t4

00000000800013d4 <i_1198>:
    800013d4:	f34d6513          	ori	a0,s10,-204

00000000800013d8 <i_1199>:
    800013d8:	039b7063          	bleu	s9,s6,800013f8 <i_1207>

00000000800013dc <i_1200>:
    800013dc:	14c11083          	lh	ra,332(sp)

00000000800013e0 <i_1201>:
    800013e0:	f4313423          	sd	gp,-184(sp)

00000000800013e4 <i_1202>:
    800013e4:	02745e3b          	divuw	t3,s0,t2

00000000800013e8 <i_1203>:
    800013e8:	00381663          	bne	a6,gp,800013f4 <i_1206>

00000000800013ec <i_1204>:
    800013ec:	e5813b03          	ld	s6,-424(sp)

00000000800013f0 <i_1205>:
    800013f0:	17812803          	lw	a6,376(sp)

00000000800013f4 <i_1206>:
    800013f4:	0d612023          	sw	s6,192(sp)

00000000800013f8 <i_1207>:
    800013f8:	e8810e23          	sb	s0,-356(sp)

00000000800013fc <i_1208>:
    800013fc:	036b5b33          	divu	s6,s6,s6

0000000080001400 <i_1209>:
    80001400:	00cd6d33          	or	s10,s10,a2

0000000080001404 <i_1210>:
    80001404:	06812c03          	lw	s8,104(sp)

0000000080001408 <i_1211>:
    80001408:	7d800b13          	li	s6,2008

000000008000140c <i_1212>:
    8000140c:	7da00413          	li	s0,2010

0000000080001410 <i_1213>:
    80001410:	4014579b          	sraiw	a5,s0,0x1

0000000080001414 <i_1214>:
    80001414:	030a9263          	bne	s5,a6,80001438 <i_1222>

0000000080001418 <i_1215>:
    80001418:	00000013          	nop

000000008000141c <i_1216>:
    8000141c:	00000013          	nop

0000000080001420 <i_1217>:
    80001420:	00700d13          	li	s10,7

0000000080001424 <i_1218>:
    80001424:	01ab1633          	sll	a2,s6,s10

0000000080001428 <i_1219>:
    80001428:	001b0b13          	addi	s6,s6,1
    8000142c:	ff6452e3          	ble	s6,s0,80001410 <i_1213>

0000000080001430 <i_1220>:
    80001430:	f2913823          	sd	s1,-208(sp)

0000000080001434 <i_1221>:
    80001434:	0fa13c23          	sd	s10,248(sp)

0000000080001438 <i_1222>:
    80001438:	e3810ba3          	sb	s8,-457(sp)

000000008000143c <i_1223>:
    8000143c:	e9c15b03          	lhu	s6,-356(sp)

0000000080001440 <i_1224>:
    80001440:	016d4463          	blt	s10,s6,80001448 <i_1226>

0000000080001444 <i_1225>:
    80001444:	018b0263          	beq	s6,s8,80001448 <i_1226>

0000000080001448 <i_1226>:
    80001448:	a1abeb17          	auipc	s6,0xa1abe

000000008000144c <i_1227>:
    8000144c:	003b7d33          	and	s10,s6,gp

0000000080001450 <i_1228>:
    80001450:	71db6493          	ori	s1,s6,1821

0000000080001454 <i_1229>:
    80001454:	01ad5e63          	ble	s10,s10,80001470 <i_1236>

0000000080001458 <i_1230>:
    80001458:	019b3cb3          	sltu	s9,s6,s9

000000008000145c <i_1231>:
    8000145c:	15613823          	sd	s6,336(sp)

0000000080001460 <i_1232>:
    80001460:	0d6102a3          	sb	s6,197(sp)

0000000080001464 <i_1233>:
    80001464:	ffd10b03          	lb	s6,-3(sp)

0000000080001468 <i_1234>:
    80001468:	036cacb3          	mulhsu	s9,s9,s6

000000008000146c <i_1235>:
    8000146c:	f2b10783          	lb	a5,-213(sp)

0000000080001470 <i_1236>:
    80001470:	00d687b3          	add	a5,a3,a3

0000000080001474 <i_1237>:
    80001474:	edc16783          	lwu	a5,-292(sp)

0000000080001478 <i_1238>:
    80001478:	7d200b13          	li	s6,2002

000000008000147c <i_1239>:
    8000147c:	7d500693          	li	a3,2005

0000000080001480 <i_1240>:
    80001480:	00f6e863          	bltu	a3,a5,80001490 <i_1244>

0000000080001484 <i_1241>:
    80001484:	00f6d463          	ble	a5,a3,8000148c <i_1243>

0000000080001488 <i_1242>:
    80001488:	0a013783          	ld	a5,160(sp)

000000008000148c <i_1243>:
    8000148c:	f8411c83          	lh	s9,-124(sp)

0000000080001490 <i_1244>:
    80001490:	036b5663          	ble	s6,s6,800014bc <i_1254>

0000000080001494 <i_1245>:
    80001494:	fed13023          	sd	a3,-32(sp)

0000000080001498 <i_1246>:
    80001498:	001b0b13          	addi	s6,s6,1 # 21abf449 <main-0x5e540bb7>
    8000149c:	fedb42e3          	blt	s6,a3,80001480 <i_1240>

00000000800014a0 <i_1247>:
    800014a0:	0197d863          	ble	s9,a5,800014b0 <i_1251>

00000000800014a4 <i_1248>:
    800014a4:	17416683          	lwu	a3,372(sp)

00000000800014a8 <i_1249>:
    800014a8:	00400a13          	li	s4,4

00000000800014ac <i_1250>:
    800014ac:	4146d7bb          	sraw	a5,a3,s4

00000000800014b0 <i_1251>:
    800014b0:	01aa3d33          	sltu	s10,s4,s10

00000000800014b4 <i_1252>:
    800014b4:	00000013          	nop

00000000800014b8 <i_1253>:
    800014b8:	40f60a3b          	subw	s4,a2,a5

00000000800014bc <i_1254>:
    800014bc:	01ad7533          	and	a0,s10,s10

00000000800014c0 <i_1255>:
    800014c0:	02c65633          	divu	a2,a2,a2

00000000800014c4 <i_1256>:
    800014c4:	7e400693          	li	a3,2020

00000000800014c8 <i_1257>:
    800014c8:	7ef00c93          	li	s9,2031

00000000800014cc <i_1258>:
    800014cc:	e5810d03          	lb	s10,-424(sp)

00000000800014d0 <i_1259>:
    800014d0:	00cb0663          	beq	s6,a2,800014dc <i_1262>

00000000800014d4 <i_1260>:
    800014d4:	e8c10ea3          	sb	a2,-355(sp)

00000000800014d8 <i_1261>:
    800014d8:	fac10123          	sb	a2,-94(sp)

00000000800014dc <i_1262>:
    800014dc:	e4813603          	ld	a2,-440(sp)

00000000800014e0 <i_1263>:
    800014e0:	fac12823          	sw	a2,-80(sp)

00000000800014e4 <i_1264>:
    800014e4:	02cd4263          	blt	s10,a2,80001508 <i_1272>

00000000800014e8 <i_1265>:
    800014e8:	02c58263          	beq	a1,a2,8000150c <i_1273>

00000000800014ec <i_1266>:
    800014ec:	00000013          	nop

00000000800014f0 <i_1267>:
    800014f0:	01200613          	li	a2,18

00000000800014f4 <i_1268>:
    800014f4:	00c61ab3          	sll	s5,a2,a2

00000000800014f8 <i_1269>:
    800014f8:	00168693          	addi	a3,a3,1 # ffffffffc3c6d001 <_end+0xffffffff43c5cbed>
    800014fc:	fcdcf8e3          	bleu	a3,s9,800014cc <i_1258>

0000000080001500 <i_1270>:
    80001500:	e5a10a23          	sb	s10,-428(sp)

0000000080001504 <i_1271>:
    80001504:	ff513823          	sd	s5,-16(sp)

0000000080001508 <i_1272>:
    80001508:	f0013d03          	ld	s10,-256(sp)

000000008000150c <i_1273>:
    8000150c:	035a863b          	mulw	a2,s5,s5

0000000080001510 <i_1274>:
    80001510:	fbc10983          	lb	s3,-68(sp)

0000000080001514 <i_1275>:
    80001514:	0139e863          	bltu	s3,s3,80001524 <i_1279>

0000000080001518 <i_1276>:
    80001518:	03311b23          	sh	s3,54(sp)

000000008000151c <i_1277>:
    8000151c:	f2c14a83          	lbu	s5,-212(sp)

0000000080001520 <i_1278>:
    80001520:	00000013          	nop

0000000080001524 <i_1279>:
    80001524:	00000013          	nop

0000000080001528 <i_1280>:
    80001528:	03263b33          	mulhu	s6,a2,s2

000000008000152c <i_1281>:
    8000152c:	77c00613          	li	a2,1916

0000000080001530 <i_1282>:
    80001530:	79000193          	li	gp,1936

0000000080001534 <i_1283>:
    80001534:	01200d13          	li	s10,18

0000000080001538 <i_1284>:
    80001538:	01a71c33          	sll	s8,a4,s10

000000008000153c <i_1285>:
    8000153c:	41ac0cb3          	sub	s9,s8,s10

0000000080001540 <i_1286>:
    80001540:	88ab2b13          	slti	s6,s6,-1910

0000000080001544 <i_1287>:
    80001544:	cdcc8c1b          	addiw	s8,s9,-804

0000000080001548 <i_1288>:
    80001548:	018b1263          	bne	s6,s8,8000154c <i_1289>

000000008000154c <i_1289>:
    8000154c:	038cbc33          	mulhu	s8,s9,s8

0000000080001550 <i_1290>:
    80001550:	039dcdbb          	divw	s11,s11,s9

0000000080001554 <i_1291>:
    80001554:	00160613          	addi	a2,a2,1
    80001558:	fcc1dee3          	ble	a2,gp,80001534 <i_1283>

000000008000155c <i_1292>:
    8000155c:	038c0eb3          	mul	t4,s8,s8

0000000080001560 <i_1293>:
    80001560:	f9510203          	lb	tp,-107(sp)

0000000080001564 <i_1294>:
    80001564:	74400d93          	li	s11,1860

0000000080001568 <i_1295>:
    80001568:	74f00c13          	li	s8,1871

000000008000156c <i_1296>:
    8000156c:	01ddc463          	blt	s11,t4,80001574 <i_1298>

0000000080001570 <i_1297>:
    80001570:	0a410f23          	sb	tp,190(sp)

0000000080001574 <i_1298>:
    80001574:	fdc14483          	lbu	s1,-36(sp)

0000000080001578 <i_1299>:
    80001578:	0b013203          	ld	tp,176(sp)

000000008000157c <i_1300>:
    8000157c:	0044d293          	srli	t0,s1,0x4

0000000080001580 <i_1301>:
    80001580:	e5712e23          	sw	s7,-420(sp)

0000000080001584 <i_1302>:
    80001584:	01500493          	li	s1,21

0000000080001588 <i_1303>:
    80001588:	009295b3          	sll	a1,t0,s1

000000008000158c <i_1304>:
    8000158c:	4015d693          	srai	a3,a1,0x1

0000000080001590 <i_1305>:
    80001590:	11c12583          	lw	a1,284(sp)

0000000080001594 <i_1306>:
    80001594:	0393b3b3          	mulhu	t2,t2,s9

0000000080001598 <i_1307>:
    80001598:	13811c83          	lh	s9,312(sp)

000000008000159c <i_1308>:
    8000159c:	0270f263          	bleu	t2,ra,800015c0 <i_1316>

00000000800015a0 <i_1309>:
    800015a0:	01c00e93          	li	t4,28

00000000800015a4 <i_1310>:
    800015a4:	01dc93bb          	sllw	t2,s9,t4

00000000800015a8 <i_1311>:
    800015a8:	06b107a3          	sb	a1,111(sp)

00000000800015ac <i_1312>:
    800015ac:	001d8d93          	addi	s11,s11,1
    800015b0:	fb8dcee3          	blt	s11,s8,8000156c <i_1296>

00000000800015b4 <i_1313>:
    800015b4:	007ee863          	bltu	t4,t2,800015c4 <i_1317>

00000000800015b8 <i_1314>:
    800015b8:	1cb14d03          	lbu	s10,459(sp)

00000000800015bc <i_1315>:
    800015bc:	03dd5eb3          	divu	t4,s10,t4

00000000800015c0 <i_1316>:
    800015c0:	e6910503          	lb	a0,-407(sp)

00000000800015c4 <i_1317>:
    800015c4:	03c560b3          	rem	ra,a0,t3

00000000800015c8 <i_1318>:
    800015c8:	00abe533          	or	a0,s7,a0

00000000800015cc <i_1319>:
    800015cc:	06f10183          	lb	gp,111(sp)

00000000800015d0 <i_1320>:
    800015d0:	f1c16e83          	lwu	t4,-228(sp)

00000000800015d4 <i_1321>:
    800015d4:	c0650313          	addi	t1,a0,-1018 # 94a6736 <main-0x76b598ca>

00000000800015d8 <i_1322>:
    800015d8:	02800193          	li	gp,40

00000000800015dc <i_1323>:
    800015dc:	4031d333          	sra	t1,gp,gp

00000000800015e0 <i_1324>:
    800015e0:	40690533          	sub	a0,s2,t1

00000000800015e4 <i_1325>:
    800015e4:	00a57863          	bleu	a0,a0,800015f4 <i_1329>

00000000800015e8 <i_1326>:
    800015e8:	0263553b          	divuw	a0,t1,t1

00000000800015ec <i_1327>:
    800015ec:	f5013303          	ld	t1,-176(sp)

00000000800015f0 <i_1328>:
    800015f0:	0be11303          	lh	t1,190(sp)

00000000800015f4 <i_1329>:
    800015f4:	406305bb          	subw	a1,t1,t1

00000000800015f8 <i_1330>:
    800015f8:	ff412e83          	lw	t4,-12(sp)

00000000800015fc <i_1331>:
    800015fc:	00637a63          	bleu	t1,t1,80001610 <i_1336>

0000000080001600 <i_1332>:
    80001600:	03d54463          	blt	a0,t4,80001628 <i_1342>

0000000080001604 <i_1333>:
    80001604:	00e00b13          	li	s6,14

0000000080001608 <i_1334>:
    80001608:	416e533b          	sraw	t1,t3,s6

000000008000160c <i_1335>:
    8000160c:	00900d13          	li	s10,9

0000000080001610 <i_1336>:
    80001610:	41a6d6b3          	sra	a3,a3,s10

0000000080001614 <i_1337>:
    80001614:	01a6bb33          	sltu	s6,a3,s10

0000000080001618 <i_1338>:
    80001618:	0c015683          	lhu	a3,192(sp)

000000008000161c <i_1339>:
    8000161c:	fa815683          	lhu	a3,-88(sp)

0000000080001620 <i_1340>:
    80001620:	e3012a03          	lw	s4,-464(sp)

0000000080001624 <i_1341>:
    80001624:	02300f13          	li	t5,35

0000000080001628 <i_1342>:
    80001628:	01ed56b3          	srl	a3,s10,t5

000000008000162c <i_1343>:
    8000162c:	e2012683          	lw	a3,-480(sp)

0000000080001630 <i_1344>:
    80001630:	15010183          	lb	gp,336(sp)

0000000080001634 <i_1345>:
    80001634:	4036d193          	srai	gp,a3,0x3

0000000080001638 <i_1346>:
    80001638:	0d812b83          	lw	s7,216(sp)

000000008000163c <i_1347>:
    8000163c:	003a0463          	beq	s4,gp,80001644 <i_1349>

0000000080001640 <i_1348>:
    80001640:	1ad10ba3          	sb	a3,439(sp)

0000000080001644 <i_1349>:
    80001644:	017bfab3          	and	s5,s7,s7

0000000080001648 <i_1350>:
    80001648:	015bf1b3          	and	gp,s7,s5

000000008000164c <i_1351>:
    8000164c:	00319263          	bne	gp,gp,80001650 <i_1352>

0000000080001650 <i_1352>:
    80001650:	017b8bb3          	add	s7,s7,s7

0000000080001654 <i_1353>:
    80001654:	01c00d13          	li	s10,28

0000000080001658 <i_1354>:
    80001658:	41aad1b3          	sra	gp,s5,s10

000000008000165c <i_1355>:
    8000165c:	0027941b          	slliw	s0,a5,0x2

0000000080001660 <i_1356>:
    80001660:	401d5a9b          	sraiw	s5,s10,0x1

0000000080001664 <i_1357>:
    80001664:	01314783          	lbu	a5,19(sp)

0000000080001668 <i_1358>:
    80001668:	008af463          	bleu	s0,s5,80001670 <i_1360>

000000008000166c <i_1359>:
    8000166c:	eb012a83          	lw	s5,-336(sp)

0000000080001670 <i_1360>:
    80001670:	035afe33          	remu	t3,s5,s5

0000000080001674 <i_1361>:
    80001674:	028707b3          	mul	a5,a4,s0

0000000080001678 <i_1362>:
    80001678:	05514403          	lbu	s0,85(sp)

000000008000167c <i_1363>:
    8000167c:	0287c43b          	divw	s0,a5,s0

0000000080001680 <i_1364>:
    80001680:	01ce8233          	add	tp,t4,t3

0000000080001684 <i_1365>:
    80001684:	eb012203          	lw	tp,-336(sp)

0000000080001688 <i_1366>:
    80001688:	02810f23          	sb	s0,62(sp)

000000008000168c <i_1367>:
    8000168c:	028e6063          	bltu	t3,s0,800016ac <i_1375>

0000000080001690 <i_1368>:
    80001690:	02440233          	mul	tp,s0,tp

0000000080001694 <i_1369>:
    80001694:	e8713c23          	sd	t2,-360(sp)

0000000080001698 <i_1370>:
    80001698:	16615e03          	lhu	t3,358(sp)

000000008000169c <i_1371>:
    8000169c:	0bc13423          	sd	t3,168(sp)

00000000800016a0 <i_1372>:
    800016a0:	1bc11423          	sh	t3,424(sp)

00000000800016a4 <i_1373>:
    800016a4:	31ce4b93          	xori	s7,t3,796

00000000800016a8 <i_1374>:
    800016a8:	e3416783          	lwu	a5,-460(sp)

00000000800016ac <i_1375>:
    800016ac:	01c0ca63          	blt	ra,t3,800016c0 <i_1380>

00000000800016b0 <i_1376>:
    800016b0:	5aa1fc37          	lui	s8,0x5aa1f

00000000800016b4 <i_1377>:
    800016b4:	0f712a23          	sw	s7,244(sp)

00000000800016b8 <i_1378>:
    800016b8:	5b124c93          	xori	s9,tp,1457

00000000800016bc <i_1379>:
    800016bc:	004e5263          	ble	tp,t3,800016c0 <i_1380>

00000000800016c0 <i_1380>:
    800016c0:	e9c10623          	sb	t3,-372(sp)

00000000800016c4 <i_1381>:
    800016c4:	02811e83          	lh	t4,40(sp)

00000000800016c8 <i_1382>:
    800016c8:	02357263          	bleu	gp,a0,800016ec <i_1391>

00000000800016cc <i_1383>:
    800016cc:	0b611403          	lh	s0,182(sp)

00000000800016d0 <i_1384>:
    800016d0:	08f13c23          	sd	a5,152(sp)

00000000800016d4 <i_1385>:
    800016d4:	039e4d3b          	divw	s10,t3,s9

00000000800016d8 <i_1386>:
    800016d8:	f2f100a3          	sb	a5,-223(sp)

00000000800016dc <i_1387>:
    800016dc:	06f11723          	sh	a5,110(sp)

00000000800016e0 <i_1388>:
    800016e0:	01d38d33          	add	s10,t2,t4

00000000800016e4 <i_1389>:
    800016e4:	ff714d83          	lbu	s11,-9(sp)

00000000800016e8 <i_1390>:
    800016e8:	00000013          	nop

00000000800016ec <i_1391>:
    800016ec:	01bd4633          	xor	a2,s10,s11

00000000800016f0 <i_1392>:
    800016f0:	1d812d83          	lw	s11,472(sp)

00000000800016f4 <i_1393>:
    800016f4:	8bd00393          	li	t2,-1859

00000000800016f8 <i_1394>:
    800016f8:	8d100d13          	li	s10,-1839

00000000800016fc <i_1395>:
    800016fc:	03b5e63b          	remw	a2,a1,s11

0000000080001700 <i_1396>:
    80001700:	01900493          	li	s1,25

0000000080001704 <i_1397>:
    80001704:	009cdb3b          	srlw	s6,s9,s1

0000000080001708 <i_1398>:
    80001708:	02cb6063          	bltu	s6,a2,80001728 <i_1405>

000000008000170c <i_1399>:
    8000170c:	00000013          	nop

0000000080001710 <i_1400>:
    80001710:	f8813783          	ld	a5,-120(sp)

0000000080001714 <i_1401>:
    80001714:	02fa5263          	ble	a5,s4,80001738 <i_1409>

0000000080001718 <i_1402>:
    80001718:	00138393          	addi	t2,t2,1 # f7ee0d2d <_end+0x77ed0919>
    8000171c:	fe7d70e3          	bleu	t2,s10,800016fc <i_1395>

0000000080001720 <i_1403>:
    80001720:	01b90463          	beq	s2,s11,80001728 <i_1405>

0000000080001724 <i_1404>:
    80001724:	01bdda63          	ble	s11,s11,80001738 <i_1409>

0000000080001728 <i_1405>:
    80001728:	41bb043b          	subw	s0,s6,s11

000000008000172c <i_1406>:
    8000172c:	e2812283          	lw	t0,-472(sp)

0000000080001730 <i_1407>:
    80001730:	10913023          	sd	s1,256(sp)

0000000080001734 <i_1408>:
    80001734:	16013e03          	ld	t3,352(sp)

0000000080001738 <i_1409>:
    80001738:	00f7c863          	blt	a5,a5,80001748 <i_1413>

000000008000173c <i_1410>:
    8000173c:	410782bb          	subw	t0,a5,a6

0000000080001740 <i_1411>:
    80001740:	009e5e63          	ble	s1,t3,8000175c <i_1418>

0000000080001744 <i_1412>:
    80001744:	f0411083          	lh	ra,-252(sp)

0000000080001748 <i_1413>:
    80001748:	9c3dfe93          	andi	t4,s11,-1597

000000008000174c <i_1414>:
    8000174c:	01600293          	li	t0,22

0000000080001750 <i_1415>:
    80001750:	4050d7b3          	sra	a5,ra,t0

0000000080001754 <i_1416>:
    80001754:	0290c463          	blt	ra,s1,8000177c <i_1426>

0000000080001758 <i_1417>:
    80001758:	16016483          	lwu	s1,352(sp)

000000008000175c <i_1418>:
    8000175c:	fbc13c23          	sd	t3,-72(sp)

0000000080001760 <i_1419>:
    80001760:	0047d41b          	srliw	s0,a5,0x4

0000000080001764 <i_1420>:
    80001764:	0290f0bb          	remuw	ra,ra,s1

0000000080001768 <i_1421>:
    80001768:	0080d263          	ble	s0,ra,8000176c <i_1422>

000000008000176c <i_1422>:
    8000176c:	1a813e83          	ld	t4,424(sp)

0000000080001770 <i_1423>:
    80001770:	1a511b23          	sh	t0,438(sp)

0000000080001774 <i_1424>:
    80001774:	ffa12623          	sw	s10,-20(sp)

0000000080001778 <i_1425>:
    80001778:	19c11e23          	sh	t3,412(sp)

000000008000177c <i_1426>:
    8000177c:	01b7fa63          	bleu	s11,a5,80001790 <i_1431>

0000000080001780 <i_1427>:
    80001780:	ff113823          	sd	a7,-16(sp)

0000000080001784 <i_1428>:
    80001784:	10f42f13          	slti	t5,s0,271

0000000080001788 <i_1429>:
    80001788:	014dfa63          	bleu	s4,s11,8000179c <i_1434>

000000008000178c <i_1430>:
    8000178c:	0b714083          	lbu	ra,183(sp)

0000000080001790 <i_1431>:
    80001790:	04c12a03          	lw	s4,76(sp)

0000000080001794 <i_1432>:
    80001794:	1a114b03          	lbu	s6,417(sp)

0000000080001798 <i_1433>:
    80001798:	003a5a13          	srli	s4,s4,0x3

000000008000179c <i_1434>:
    8000179c:	01ef1863          	bne	t5,t5,800017ac <i_1438>

00000000800017a0 <i_1435>:
    800017a0:	03b14303          	lbu	t1,59(sp)

00000000800017a4 <i_1436>:
    800017a4:	03637263          	bleu	s6,t1,800017c8 <i_1445>

00000000800017a8 <i_1437>:
    800017a8:	026b5463          	ble	t1,s6,800017d0 <i_1447>

00000000800017ac <i_1438>:
    800017ac:	026b1333          	mulh	t1,s6,t1

00000000800017b0 <i_1439>:
    800017b0:	f6611723          	sh	t1,-146(sp)

00000000800017b4 <i_1440>:
    800017b4:	ee610ca3          	sb	t1,-263(sp)

00000000800017b8 <i_1441>:
    800017b8:	f8710a83          	lb	s5,-121(sp)

00000000800017bc <i_1442>:
    800017bc:	419b023b          	subw	tp,s6,s9

00000000800017c0 <i_1443>:
    800017c0:	05e11c03          	lh	s8,94(sp)

00000000800017c4 <i_1444>:
    800017c4:	009fca63          	blt	t6,s1,800017d8 <i_1449>

00000000800017c8 <i_1445>:
    800017c8:	7ee834b7          	lui	s1,0x7ee83

00000000800017cc <i_1446>:
    800017cc:	0184d463          	ble	s8,s1,800017d4 <i_1448>

00000000800017d0 <i_1447>:
    800017d0:	f0911023          	sh	s1,-256(sp)

00000000800017d4 <i_1448>:
    800017d4:	0034dc13          	srli	s8,s1,0x3

00000000800017d8 <i_1449>:
    800017d8:	029c44bb          	divw	s1,s8,s1

00000000800017dc <i_1450>:
    800017dc:	0094ec63          	bltu	s1,s1,800017f4 <i_1456>

00000000800017e0 <i_1451>:
    800017e0:	fdc16203          	lwu	tp,-36(sp)

00000000800017e4 <i_1452>:
    800017e4:	01900093          	li	ra,25

00000000800017e8 <i_1453>:
    800017e8:	001214bb          	sllw	s1,tp,ra

00000000800017ec <i_1454>:
    800017ec:	40255513          	srai	a0,a0,0x2

00000000800017f0 <i_1455>:
    800017f0:	023241b3          	div	gp,tp,gp

00000000800017f4 <i_1456>:
    800017f4:	16911e23          	sh	s1,380(sp)

00000000800017f8 <i_1457>:
    800017f8:	1c912023          	sw	s1,448(sp)

00000000800017fc <i_1458>:
    800017fc:	06012483          	lw	s1,96(sp)

0000000080001800 <i_1459>:
    80001800:	02814f03          	lbu	t5,40(sp)

0000000080001804 <i_1460>:
    80001804:	16411323          	sh	tp,358(sp)

0000000080001808 <i_1461>:
    80001808:	2370ef13          	ori	t5,ra,567

000000008000180c <i_1462>:
    8000180c:	e7e11a23          	sh	t5,-396(sp)

0000000080001810 <i_1463>:
    80001810:	0290c0bb          	divw	ra,ra,s1

0000000080001814 <i_1464>:
    80001814:	02af0263          	beq	t5,a0,80001838 <i_1473>

0000000080001818 <i_1465>:
    80001818:	00127a63          	bleu	ra,tp,8000182c <i_1470>

000000008000181c <i_1466>:
    8000181c:	003d981b          	slliw	a6,s11,0x3

0000000080001820 <i_1467>:
    80001820:	fe411a23          	sh	tp,-12(sp)

0000000080001824 <i_1468>:
    80001824:	0298c463          	blt	a7,s1,8000184c <i_1478>

0000000080001828 <i_1469>:
    80001828:	00f14f03          	lbu	t5,15(sp)

000000008000182c <i_1470>:
    8000182c:	0a123413          	sltiu	s0,tp,161

0000000080001830 <i_1471>:
    80001830:	16912e23          	sw	s1,380(sp)

0000000080001834 <i_1472>:
    80001834:	00af0433          	add	s0,t5,a0

0000000080001838 <i_1473>:
    80001838:	03984f33          	div	t5,a6,s9

000000008000183c <i_1474>:
    8000183c:	030a3433          	mulhu	s0,s4,a6

0000000080001840 <i_1475>:
    80001840:	07012803          	lw	a6,112(sp)

0000000080001844 <i_1476>:
    80001844:	030d8abb          	mulw	s5,s11,a6

0000000080001848 <i_1477>:
    80001848:	0de10223          	sb	t5,196(sp)

000000008000184c <i_1478>:
    8000184c:	02b405bb          	mulw	a1,s0,a1

0000000080001850 <i_1479>:
    80001850:	1e415a83          	lhu	s5,484(sp)

0000000080001854 <i_1480>:
    80001854:	00159a93          	slli	s5,a1,0x1

0000000080001858 <i_1481>:
    80001858:	17011183          	lh	gp,368(sp)

000000008000185c <i_1482>:
    8000185c:	403a8ab3          	sub	s5,s5,gp

0000000080001860 <i_1483>:
    80001860:	01700d13          	li	s10,23

0000000080001864 <i_1484>:
    80001864:	01aa9233          	sll	tp,s5,s10

0000000080001868 <i_1485>:
    80001868:	0b412203          	lw	tp,180(sp)

000000008000186c <i_1486>:
    8000186c:	03cafe33          	remu	t3,s5,t3

0000000080001870 <i_1487>:
    80001870:	0151fdb3          	and	s11,gp,s5

0000000080001874 <i_1488>:
    80001874:	f4910a23          	sb	s1,-172(sp)

0000000080001878 <i_1489>:
    80001878:	09812a83          	lw	s5,152(sp)

000000008000187c <i_1490>:
    8000187c:	06813583          	ld	a1,104(sp)

0000000080001880 <i_1491>:
    80001880:	12b10323          	sb	a1,294(sp)

0000000080001884 <i_1492>:
    80001884:	00000013          	nop

0000000080001888 <i_1493>:
    80001888:	fdc12223          	sw	t3,-60(sp)

000000008000188c <i_1494>:
    8000188c:	7de00b13          	li	s6,2014

0000000080001890 <i_1495>:
    80001890:	7e400813          	li	a6,2020

0000000080001894 <i_1496>:
    80001894:	ee215e03          	lhu	t3,-286(sp)

0000000080001898 <i_1497>:
    80001898:	15011423          	sh	a6,328(sp)

000000008000189c <i_1498>:
    8000189c:	0ac11483          	lh	s1,172(sp)

00000000800018a0 <i_1499>:
    800018a0:	024e0e3b          	mulw	t3,t3,tp

00000000800018a4 <i_1500>:
    800018a4:	06416e03          	lwu	t3,100(sp)

00000000800018a8 <i_1501>:
    800018a8:	1de11e03          	lh	t3,478(sp)

00000000800018ac <i_1502>:
    800018ac:	eb013e03          	ld	t3,-336(sp)

00000000800018b0 <i_1503>:
    800018b0:	fca10583          	lb	a1,-54(sp)

00000000800018b4 <i_1504>:
    800018b4:	f0012203          	lw	tp,-256(sp)

00000000800018b8 <i_1505>:
    800018b8:	0d414d83          	lbu	s11,212(sp)

00000000800018bc <i_1506>:
    800018bc:	00000013          	nop

00000000800018c0 <i_1507>:
    800018c0:	19712023          	sw	s7,384(sp)

00000000800018c4 <i_1508>:
    800018c4:	f7310383          	lb	t2,-141(sp)

00000000800018c8 <i_1509>:
    800018c8:	f8813e03          	ld	t3,-120(sp)

00000000800018cc <i_1510>:
    800018cc:	01b4b3b3          	sltu	t2,s1,s11

00000000800018d0 <i_1511>:
    800018d0:	0013de9b          	srliw	t4,t2,0x1

00000000800018d4 <i_1512>:
    800018d4:	001b0b13          	addi	s6,s6,1
    800018d8:	fb0b4ee3          	blt	s6,a6,80001894 <i_1496>

00000000800018dc <i_1513>:
    800018dc:	03812823          	sw	s8,48(sp)

00000000800018e0 <i_1514>:
    800018e0:	ea011d03          	lh	s10,-352(sp)

00000000800018e4 <i_1515>:
    800018e4:	00000013          	nop

00000000800018e8 <i_1516>:
    800018e8:	00000013          	nop

00000000800018ec <i_1517>:
    800018ec:	7ce00793          	li	a5,1998

00000000800018f0 <i_1518>:
    800018f0:	7d800d93          	li	s11,2008

00000000800018f4 <i_1519>:
    800018f4:	00000013          	nop

00000000800018f8 <i_1520>:
    800018f8:	14416803          	lwu	a6,324(sp)

00000000800018fc <i_1521>:
    800018fc:	00760633          	add	a2,a2,t2

0000000080001900 <i_1522>:
    80001900:	f4712a23          	sw	t2,-172(sp)

0000000080001904 <i_1523>:
    80001904:	02c633b3          	mulhu	t2,a2,a2

0000000080001908 <i_1524>:
    80001908:	01410083          	lb	ra,20(sp)

000000008000190c <i_1525>:
    8000190c:	0303e663          	bltu	t2,a6,80001938 <i_1535>

0000000080001910 <i_1526>:
    80001910:	03600493          	li	s1,54

0000000080001914 <i_1527>:
    80001914:	00909bb3          	sll	s7,ra,s1

0000000080001918 <i_1528>:
    80001918:	00178793          	addi	a5,a5,1
    8000191c:	fcfdfce3          	bleu	a5,s11,800018f4 <i_1519>

0000000080001920 <i_1529>:
    80001920:	468d009b          	addiw	ra,s10,1128

0000000080001924 <i_1530>:
    80001924:	02983833          	mulhu	a6,a6,s1

0000000080001928 <i_1531>:
    80001928:	0048169b          	slliw	a3,a6,0x4

000000008000192c <i_1532>:
    8000192c:	e71b2393          	slti	t2,s6,-399

0000000080001930 <i_1533>:
    80001930:	00249493          	slli	s1,s1,0x2

0000000080001934 <i_1534>:
    80001934:	021b2b33          	mulhsu	s6,s6,ra

0000000080001938 <i_1535>:
    80001938:	f8113423          	sd	ra,-120(sp)

000000008000193c <i_1536>:
    8000193c:	00000013          	nop

0000000080001940 <i_1537>:
    80001940:	81a00493          	li	s1,-2022

0000000080001944 <i_1538>:
    80001944:	82700093          	li	ra,-2009

0000000080001948 <i_1539>:
    80001948:	f2c11683          	lh	a3,-212(sp)

000000008000194c <i_1540>:
    8000194c:	0014f6b3          	and	a3,s1,ra

0000000080001950 <i_1541>:
    80001950:	f1e15c03          	lhu	s8,-226(sp)

0000000080001954 <i_1542>:
    80001954:	01c00b13          	li	s6,28

0000000080001958 <i_1543>:
    80001958:	016c1a3b          	sllw	s4,s8,s6

000000008000195c <i_1544>:
    8000195c:	00c11683          	lh	a3,12(sp)

0000000080001960 <i_1545>:
    80001960:	00000013          	nop

0000000080001964 <i_1546>:
    80001964:	f3013d03          	ld	s10,-208(sp)

0000000080001968 <i_1547>:
    80001968:	00000013          	nop

000000008000196c <i_1548>:
    8000196c:	e9a12a23          	sw	s10,-364(sp)

0000000080001970 <i_1549>:
    80001970:	e4c16a03          	lwu	s4,-436(sp)

0000000080001974 <i_1550>:
    80001974:	01000c13          	li	s8,16

0000000080001978 <i_1551>:
    80001978:	018c5c33          	srl	s8,s8,s8

000000008000197c <i_1552>:
    8000197c:	00148493          	addi	s1,s1,1 # 7ee83001 <main-0x117cfff>
    80001980:	fc90f4e3          	bleu	s1,ra,80001948 <i_1539>

0000000080001984 <i_1553>:
    80001984:	13811623          	sh	s8,300(sp)

0000000080001988 <i_1554>:
    80001988:	e9210b03          	lb	s6,-366(sp)

000000008000198c <i_1555>:
    8000198c:	744d4e17          	auipc	t3,0x744d4

0000000080001990 <i_1556>:
    80001990:	f7812823          	sw	s8,-144(sp)

0000000080001994 <i_1557>:
    80001994:	7eb00c13          	li	s8,2027

0000000080001998 <i_1558>:
    80001998:	7f900593          	li	a1,2041

000000008000199c <i_1559>:
    8000199c:	e3710d03          	lb	s10,-457(sp)

00000000800019a0 <i_1560>:
    800019a0:	001c0c13          	addi	s8,s8,1 # 5aa1f001 <main-0x255e0fff>
    800019a4:	ff85dce3          	ble	s8,a1,8000199c <i_1559>

00000000800019a8 <i_1561>:
    800019a8:	f1015583          	lhu	a1,-240(sp)

00000000800019ac <i_1562>:
    800019ac:	00513c23          	sd	t0,24(sp)

00000000800019b0 <i_1563>:
    800019b0:	97ad0593          	addi	a1,s10,-1670

00000000800019b4 <i_1564>:
    800019b4:	7d300d13          	li	s10,2003

00000000800019b8 <i_1565>:
    800019b8:	7e200293          	li	t0,2018

00000000800019bc <i_1566>:
    800019bc:	11a12023          	sw	s10,256(sp)

00000000800019c0 <i_1567>:
    800019c0:	00bd6663          	bltu	s10,a1,800019cc <i_1570>

00000000800019c4 <i_1568>:
    800019c4:	01ad25b3          	slt	a1,s10,s10

00000000800019c8 <i_1569>:
    800019c8:	e6314e03          	lbu	t3,-413(sp)

00000000800019cc <i_1570>:
    800019cc:	06812b03          	lw	s6,104(sp)

00000000800019d0 <i_1571>:
    800019d0:	03ceff33          	remu	t5,t4,t3

00000000800019d4 <i_1572>:
    800019d4:	024d9233          	mulh	tp,s11,tp

00000000800019d8 <i_1573>:
    800019d8:	41de8eb3          	sub	t4,t4,t4

00000000800019dc <i_1574>:
    800019dc:	feb10a23          	sb	a1,-12(sp)

00000000800019e0 <i_1575>:
    800019e0:	033d7263          	bleu	s3,s10,80001a04 <i_1583>

00000000800019e4 <i_1576>:
    800019e4:	03aad263          	ble	s10,s5,80001a08 <i_1584>

00000000800019e8 <i_1577>:
    800019e8:	ee010383          	lb	t2,-288(sp)

00000000800019ec <i_1578>:
    800019ec:	0273f5bb          	remuw	a1,t2,t2

00000000800019f0 <i_1579>:
    800019f0:	01500a93          	li	s5,21

00000000800019f4 <i_1580>:
    800019f4:	4153df3b          	sraw	t5,t2,s5

00000000800019f8 <i_1581>:
    800019f8:	001d0d13          	addi	s10,s10,1
    800019fc:	fc5d10e3          	bne	s10,t0,800019bc <i_1566>

0000000080001a00 <i_1582>:
    80001a00:	18412823          	sw	tp,400(sp)

0000000080001a04 <i_1583>:
    80001a04:	01200a93          	li	s5,18

0000000080001a08 <i_1584>:
    80001a08:	015a923b          	sllw	tp,s5,s5

0000000080001a0c <i_1585>:
    80001a0c:	f2c14303          	lbu	t1,-212(sp)

0000000080001a10 <i_1586>:
    80001a10:	cd936a13          	ori	s4,t1,-807

0000000080001a14 <i_1587>:
    80001a14:	7e500213          	li	tp,2021

0000000080001a18 <i_1588>:
    80001a18:	7e900293          	li	t0,2025

0000000080001a1c <i_1589>:
    80001a1c:	0030d09b          	srliw	ra,ra,0x3

0000000080001a20 <i_1590>:
    80001a20:	001fe463          	bltu	t6,ra,80001a28 <i_1592>

0000000080001a24 <i_1591>:
    80001a24:	037ad6bb          	divuw	a3,s5,s7

0000000080001a28 <i_1592>:
    80001a28:	05412c23          	sw	s4,88(sp)

0000000080001a2c <i_1593>:
    80001a2c:	e4412823          	sw	tp,-432(sp)

0000000080001a30 <i_1594>:
    80001a30:	0216c6bb          	divw	a3,a3,ra

0000000080001a34 <i_1595>:
    80001a34:	1c110923          	sb	ra,466(sp)

0000000080001a38 <i_1596>:
    80001a38:	1c410223          	sb	tp,452(sp)

0000000080001a3c <i_1597>:
    80001a3c:	fe910b83          	lb	s7,-23(sp)

0000000080001a40 <i_1598>:
    80001a40:	43a2e693          	ori	a3,t0,1082

0000000080001a44 <i_1599>:
    80001a44:	02d27e33          	remu	t3,tp,a3

0000000080001a48 <i_1600>:
    80001a48:	f5611923          	sh	s6,-174(sp)

0000000080001a4c <i_1601>:
    80001a4c:	00120213          	addi	tp,tp,1 # 1 <main-0x7fffffff>
    80001a50:	fc5246e3          	blt	tp,t0,80001a1c <i_1589>

0000000080001a54 <i_1602>:
    80001a54:	00db9e63          	bne	s7,a3,80001a70 <i_1609>

0000000080001a58 <i_1603>:
    80001a58:	01b35c63          	ble	s11,t1,80001a70 <i_1609>

0000000080001a5c <i_1604>:
    80001a5c:	00524a33          	xor	s4,tp,t0

0000000080001a60 <i_1605>:
    80001a60:	e41109a3          	sb	ra,-429(sp)

0000000080001a64 <i_1606>:
    80001a64:	fda11683          	lh	a3,-38(sp)

0000000080001a68 <i_1607>:
    80001a68:	e4d10ea3          	sb	a3,-419(sp)

0000000080001a6c <i_1608>:
    80001a6c:	00500093          	li	ra,5

0000000080001a70 <i_1609>:
    80001a70:	001256b3          	srl	a3,tp,ra

0000000080001a74 <i_1610>:
    80001a74:	40168bb3          	sub	s7,a3,ra

0000000080001a78 <i_1611>:
    80001a78:	69e02a17          	auipc	s4,0x69e02

0000000080001a7c <i_1612>:
    80001a7c:	03900c93          	li	s9,57

0000000080001a80 <i_1613>:
    80001a80:	4190d6b3          	sra	a3,ra,s9

0000000080001a84 <i_1614>:
    80001a84:	e7110e03          	lb	t3,-399(sp)

0000000080001a88 <i_1615>:
    80001a88:	e8c16603          	lwu	a2,-372(sp)

0000000080001a8c <i_1616>:
    80001a8c:	01f00093          	li	ra,31

0000000080001a90 <i_1617>:
    80001a90:	001e1e3b          	sllw	t3,t3,ra

0000000080001a94 <i_1618>:
    80001a94:	1a112a23          	sw	ra,436(sp)

0000000080001a98 <i_1619>:
    80001a98:	eff10303          	lb	t1,-257(sp)

0000000080001a9c <i_1620>:
    80001a9c:	00409613          	slli	a2,ra,0x4

0000000080001aa0 <i_1621>:
    80001aa0:	0d012603          	lw	a2,208(sp)

0000000080001aa4 <i_1622>:
    80001aa4:	002a9a9b          	slliw	s5,s5,0x2

0000000080001aa8 <i_1623>:
    80001aa8:	f3811803          	lh	a6,-200(sp)

0000000080001aac <i_1624>:
    80001aac:	efb104a3          	sb	s11,-279(sp)

0000000080001ab0 <i_1625>:
    80001ab0:	02c10223          	sb	a2,36(sp)

0000000080001ab4 <i_1626>:
    80001ab4:	03060263          	beq	a2,a6,80001ad8 <i_1635>

0000000080001ab8 <i_1627>:
    80001ab8:	12212823          	sw	sp,304(sp)

0000000080001abc <i_1628>:
    80001abc:	01b00b13          	li	s6,27

0000000080001ac0 <i_1629>:
    80001ac0:	016095bb          	sllw	a1,ra,s6

0000000080001ac4 <i_1630>:
    80001ac4:	e6813083          	ld	ra,-408(sp)

0000000080001ac8 <i_1631>:
    80001ac8:	30f5c593          	xori	a1,a1,783

0000000080001acc <i_1632>:
    80001acc:	f4111023          	sh	ra,-192(sp)

0000000080001ad0 <i_1633>:
    80001ad0:	021aeabb          	remw	s5,s5,ra

0000000080001ad4 <i_1634>:
    80001ad4:	0f611623          	sh	s6,236(sp)

0000000080001ad8 <i_1635>:
    80001ad8:	fde15303          	lhu	t1,-34(sp)

0000000080001adc <i_1636>:
    80001adc:	ed014283          	lbu	t0,-304(sp)

0000000080001ae0 <i_1637>:
    80001ae0:	02113023          	sd	ra,32(sp)

0000000080001ae4 <i_1638>:
    80001ae4:	1b612223          	sw	s6,420(sp)

0000000080001ae8 <i_1639>:
    80001ae8:	b72cabb7          	lui	s7,0xb72ca

0000000080001aec <i_1640>:
    80001aec:	09e10083          	lb	ra,158(sp)

0000000080001af0 <i_1641>:
    80001af0:	07813583          	ld	a1,120(sp)

0000000080001af4 <i_1642>:
    80001af4:	02b5fb33          	remu	s6,a1,a1

0000000080001af8 <i_1643>:
    80001af8:	eb714583          	lbu	a1,-329(sp)

0000000080001afc <i_1644>:
    80001afc:	00159593          	slli	a1,a1,0x1

0000000080001b00 <i_1645>:
    80001b00:	021d653b          	remw	a0,s10,ra

0000000080001b04 <i_1646>:
    80001b04:	002b9b93          	slli	s7,s7,0x2

0000000080001b08 <i_1647>:
    80001b08:	e6416a83          	lwu	s5,-412(sp)

0000000080001b0c <i_1648>:
    80001b0c:	13b10b83          	lb	s7,315(sp)

0000000080001b10 <i_1649>:
    80001b10:	06a11123          	sh	a0,98(sp)

0000000080001b14 <i_1650>:
    80001b14:	ec312023          	sw	gp,-320(sp)

0000000080001b18 <i_1651>:
    80001b18:	01c16683          	lwu	a3,28(sp)

0000000080001b1c <i_1652>:
    80001b1c:	00700193          	li	gp,7

0000000080001b20 <i_1653>:
    80001b20:	403bdabb          	sraw	s5,s7,gp

0000000080001b24 <i_1654>:
    80001b24:	e4a11183          	lh	gp,-438(sp)

0000000080001b28 <i_1655>:
    80001b28:	f4d11a23          	sh	a3,-172(sp)

0000000080001b2c <i_1656>:
    80001b2c:	e2813a03          	ld	s4,-472(sp)

0000000080001b30 <i_1657>:
    80001b30:	fb813483          	ld	s1,-72(sp)

0000000080001b34 <i_1658>:
    80001b34:	00daf463          	bleu	a3,s5,80001b3c <i_1660>

0000000080001b38 <i_1659>:
    80001b38:	004a5663          	ble	tp,s4,80001b44 <i_1662>

0000000080001b3c <i_1660>:
    80001b3c:	07413823          	sd	s4,112(sp)

0000000080001b40 <i_1661>:
    80001b40:	06c10c23          	sb	a2,120(sp)

0000000080001b44 <i_1662>:
    80001b44:	01816683          	lwu	a3,24(sp)

0000000080001b48 <i_1663>:
    80001b48:	12611283          	lh	t0,294(sp)

0000000080001b4c <i_1664>:
    80001b4c:	89300813          	li	a6,-1901

0000000080001b50 <i_1665>:
    80001b50:	89600c93          	li	s9,-1898

0000000080001b54 <i_1666>:
    80001b54:	02e392b3          	mulh	t0,t2,a4

0000000080001b58 <i_1667>:
    80001b58:	0a013d03          	ld	s10,160(sp)

0000000080001b5c <i_1668>:
    80001b5c:	03a2d1bb          	divuw	gp,t0,s10

0000000080001b60 <i_1669>:
    80001b60:	f2310023          	sb	gp,-224(sp)

0000000080001b64 <i_1670>:
    80001b64:	02ad1533          	mulh	a0,s10,a0

0000000080001b68 <i_1671>:
    80001b68:	ffa109a3          	sb	s10,-13(sp)

0000000080001b6c <i_1672>:
    80001b6c:	eca13023          	sd	a0,-320(sp)

0000000080001b70 <i_1673>:
    80001b70:	03000a13          	li	s4,48

0000000080001b74 <i_1674>:
    80001b74:	414d5e33          	sra	t3,s10,s4

0000000080001b78 <i_1675>:
    80001b78:	7c703617          	auipc	a2,0x7c703

0000000080001b7c <i_1676>:
    80001b7c:	00180813          	addi	a6,a6,1
    80001b80:	fd984ae3          	blt	a6,s9,80001b54 <i_1666>

0000000080001b84 <i_1677>:
    80001b84:	fe310e03          	lb	t3,-29(sp)

0000000080001b88 <i_1678>:
    80001b88:	03c230b3          	mulhu	ra,tp,t3

0000000080001b8c <i_1679>:
    80001b8c:	efc100a3          	sb	t3,-287(sp)

0000000080001b90 <i_1680>:
    80001b90:	b5f0ce13          	xori	t3,ra,-1185

0000000080001b94 <i_1681>:
    80001b94:	0043531b          	srliw	t1,t1,0x4

0000000080001b98 <i_1682>:
    80001b98:	021e0633          	mul	a2,t3,ra

0000000080001b9c <i_1683>:
    80001b9c:	e8013083          	ld	ra,-384(sp)

0000000080001ba0 <i_1684>:
    80001ba0:	001086b3          	add	a3,ra,ra

0000000080001ba4 <i_1685>:
    80001ba4:	f4112e23          	sw	ra,-164(sp)

0000000080001ba8 <i_1686>:
    80001ba8:	86400813          	li	a6,-1948

0000000080001bac <i_1687>:
    80001bac:	86700093          	li	ra,-1945

0000000080001bb0 <i_1688>:
    80001bb0:	0ad12e23          	sw	a3,188(sp)

0000000080001bb4 <i_1689>:
    80001bb4:	f0016683          	lwu	a3,-256(sp)

0000000080001bb8 <i_1690>:
    80001bb8:	14e11c03          	lh	s8,334(sp)

0000000080001bbc <i_1691>:
    80001bbc:	00180813          	addi	a6,a6,1
    80001bc0:	ff00f8e3          	bleu	a6,ra,80001bb0 <i_1688>

0000000080001bc4 <i_1692>:
    80001bc4:	00190e33          	add	t3,s2,ra

0000000080001bc8 <i_1693>:
    80001bc8:	0386b433          	mulhu	s0,a3,s8

0000000080001bcc <i_1694>:
    80001bcc:	0016beb3          	sltu	t4,a3,ra

0000000080001bd0 <i_1695>:
    80001bd0:	03514803          	lbu	a6,53(sp)

0000000080001bd4 <i_1696>:
    80001bd4:	0286ee33          	rem	t3,a3,s0

0000000080001bd8 <i_1697>:
    80001bd8:	03c850bb          	divuw	ra,a6,t3

0000000080001bdc <i_1698>:
    80001bdc:	03081263          	bne	a6,a6,80001c00 <i_1707>

0000000080001be0 <i_1699>:
    80001be0:	001e6463          	bltu	t3,ra,80001be8 <i_1701>

0000000080001be4 <i_1700>:
    80001be4:	0df10083          	lb	ra,223(sp)

0000000080001be8 <i_1701>:
    80001be8:	021e1463          	bne	t3,ra,80001c10 <i_1711>

0000000080001bec <i_1702>:
    80001bec:	0c112c23          	sw	ra,216(sp)

0000000080001bf0 <i_1703>:
    80001bf0:	01ce7e63          	bleu	t3,t3,80001c0c <i_1710>

0000000080001bf4 <i_1704>:
    80001bf4:	17816e03          	lwu	t3,376(sp)

0000000080001bf8 <i_1705>:
    80001bf8:	021e1b33          	mulh	s6,t3,ra

0000000080001bfc <i_1706>:
    80001bfc:	b89e7e13          	andi	t3,t3,-1143

0000000080001c00 <i_1707>:
    80001c00:	41c60bb3          	sub	s7,a2,t3

0000000080001c04 <i_1708>:
    80001c04:	f2112823          	sw	ra,-208(sp)

0000000080001c08 <i_1709>:
    80001c08:	1ac10083          	lb	ra,428(sp)

0000000080001c0c <i_1710>:
    80001c0c:	15112023          	sw	a7,320(sp)

0000000080001c10 <i_1711>:
    80001c10:	12111323          	sh	ra,294(sp)

0000000080001c14 <i_1712>:
    80001c14:	01079863          	bne	a5,a6,80001c24 <i_1716>

0000000080001c18 <i_1713>:
    80001c18:	039a05bb          	mulw	a1,s4,s9

0000000080001c1c <i_1714>:
    80001c1c:	f8a11983          	lh	s3,-118(sp)

0000000080001c20 <i_1715>:
    80001c20:	02a43433          	mulhu	s0,s0,a0

0000000080001c24 <i_1716>:
    80001c24:	02812f03          	lw	t5,40(sp)

0000000080001c28 <i_1717>:
    80001c28:	01700393          	li	t2,23

0000000080001c2c <i_1718>:
    80001c2c:	407bd33b          	sraw	t1,s7,t2

0000000080001c30 <i_1719>:
    80001c30:	01e09e63          	bne	ra,t5,80001c4c <i_1726>

0000000080001c34 <i_1720>:
    80001c34:	17016b03          	lwu	s6,368(sp)

0000000080001c38 <i_1721>:
    80001c38:	00731c63          	bne	t1,t2,80001c50 <i_1727>

0000000080001c3c <i_1722>:
    80001c3c:	07d88cb7          	lui	s9,0x7d88

0000000080001c40 <i_1723>:
    80001c40:	0d714f03          	lbu	t5,215(sp)

0000000080001c44 <i_1724>:
    80001c44:	0f416803          	lwu	a6,244(sp)

0000000080001c48 <i_1725>:
    80001c48:	01043a33          	sltu	s4,s0,a6

0000000080001c4c <i_1726>:
    80001c4c:	0b012583          	lw	a1,176(sp)

0000000080001c50 <i_1727>:
    80001c50:	02bb7063          	bleu	a1,s6,80001c70 <i_1735>

0000000080001c54 <i_1728>:
    80001c54:	f6e10083          	lb	ra,-146(sp)

0000000080001c58 <i_1729>:
    80001c58:	00000013          	nop

0000000080001c5c <i_1730>:
    80001c5c:	e3813603          	ld	a2,-456(sp)

0000000080001c60 <i_1731>:
    80001c60:	1f612423          	sw	s6,488(sp)

0000000080001c64 <i_1732>:
    80001c64:	e4b10523          	sb	a1,-438(sp)

0000000080001c68 <i_1733>:
    80001c68:	034a7a33          	remu	s4,s4,s4

0000000080001c6c <i_1734>:
    80001c6c:	00000013          	nop

0000000080001c70 <i_1735>:
    80001c70:	02c60f3b          	mulw	t5,a2,a2

0000000080001c74 <i_1736>:
    80001c74:	00000013          	nop

0000000080001c78 <i_1737>:
    80001c78:	84200093          	li	ra,-1982

0000000080001c7c <i_1738>:
    80001c7c:	84d00a93          	li	s5,-1971

0000000080001c80 <i_1739>:
    80001c80:	e2815403          	lhu	s0,-472(sp)

0000000080001c84 <i_1740>:
    80001c84:	1e813023          	sd	s0,480(sp)

0000000080001c88 <i_1741>:
    80001c88:	42ba5eb7          	lui	t4,0x42ba5

0000000080001c8c <i_1742>:
    80001c8c:	00c679b3          	and	s3,a2,a2

0000000080001c90 <i_1743>:
    80001c90:	0e014603          	lbu	a2,224(sp)

0000000080001c94 <i_1744>:
    80001c94:	f7d11f23          	sh	t4,-130(sp)

0000000080001c98 <i_1745>:
    80001c98:	fbd11d23          	sh	t4,-70(sp)

0000000080001c9c <i_1746>:
    80001c9c:	def9be93          	sltiu	t4,s3,-529

0000000080001ca0 <i_1747>:
    80001ca0:	02ca9063          	bne	s5,a2,80001cc0 <i_1754>

0000000080001ca4 <i_1748>:
    80001ca4:	00108093          	addi	ra,ra,1 # 759c2111 <main-0xa63deef>
    80001ca8:	fc1afce3          	bleu	ra,s5,80001c80 <i_1739>

0000000080001cac <i_1749>:
    80001cac:	03d98263          	beq	s3,t4,80001cd0 <i_1758>

0000000080001cb0 <i_1750>:
    80001cb0:	ede11c83          	lh	s9,-290(sp)

0000000080001cb4 <i_1751>:
    80001cb4:	03366633          	rem	a2,a2,s3

0000000080001cb8 <i_1752>:
    80001cb8:	f8c16783          	lwu	a5,-116(sp)

0000000080001cbc <i_1753>:
    80001cbc:	0399ce33          	div	t3,s3,s9

0000000080001cc0 <i_1754>:
    80001cc0:	40ce853b          	subw	a0,t4,a2

0000000080001cc4 <i_1755>:
    80001cc4:	01856a63          	bltu	a0,s8,80001cd8 <i_1760>

0000000080001cc8 <i_1756>:
    80001cc8:	ee615583          	lhu	a1,-282(sp)

0000000080001ccc <i_1757>:
    80001ccc:	ec416b03          	lwu	s6,-316(sp)

0000000080001cd0 <i_1758>:
    80001cd0:	00000013          	nop

0000000080001cd4 <i_1759>:
    80001cd4:	04513023          	sd	t0,64(sp)

0000000080001cd8 <i_1760>:
    80001cd8:	4e1cb193          	sltiu	gp,s9,1249

0000000080001cdc <i_1761>:
    80001cdc:	0391cdbb          	divw	s11,gp,s9

0000000080001ce0 <i_1762>:
    80001ce0:	81100293          	li	t0,-2031

0000000080001ce4 <i_1763>:
    80001ce4:	81f00793          	li	a5,-2017

0000000080001ce8 <i_1764>:
    80001ce8:	0e412203          	lw	tp,228(sp)

0000000080001cec <i_1765>:
    80001cec:	0031edb3          	or	s11,gp,gp

0000000080001cf0 <i_1766>:
    80001cf0:	8c900b13          	li	s6,-1847

0000000080001cf4 <i_1767>:
    80001cf4:	8d900c93          	li	s9,-1831

0000000080001cf8 <i_1768>:
    80001cf8:	001b0b13          	addi	s6,s6,1
    80001cfc:	ff9b4ee3          	blt	s6,s9,80001cf8 <i_1768>

0000000080001d00 <i_1769>:
    80001d00:	14411c03          	lh	s8,324(sp)

0000000080001d04 <i_1770>:
    80001d04:	023dd663          	ble	gp,s11,80001d30 <i_1780>

0000000080001d08 <i_1771>:
    80001d08:	00128293          	addi	t0,t0,1 # 4e552081 <main-0x31aadf7f>
    80001d0c:	fcf2eee3          	bltu	t0,a5,80001ce8 <i_1764>

0000000080001d10 <i_1772>:
    80001d10:	025dd463          	ble	t0,s11,80001d38 <i_1782>

0000000080001d14 <i_1773>:
    80001d14:	18d10283          	lb	t0,397(sp)

0000000080001d18 <i_1774>:
    80001d18:	0042dc63          	ble	tp,t0,80001d30 <i_1780>

0000000080001d1c <i_1775>:
    80001d1c:	004c7463          	bleu	tp,s8,80001d24 <i_1777>

0000000080001d20 <i_1776>:
    80001d20:	01f28263          	beq	t0,t6,80001d24 <i_1777>

0000000080001d24 <i_1777>:
    80001d24:	00466c63          	bltu	a2,tp,80001d3c <i_1783>

0000000080001d28 <i_1778>:
    80001d28:	018d62b3          	or	t0,s10,s8

0000000080001d2c <i_1779>:
    80001d2c:	e4813503          	ld	a0,-440(sp)

0000000080001d30 <i_1780>:
    80001d30:	0242d063          	ble	tp,t0,80001d50 <i_1788>

0000000080001d34 <i_1781>:
    80001d34:	ee114283          	lbu	t0,-287(sp)

0000000080001d38 <i_1782>:
    80001d38:	6c2ef297          	auipc	t0,0x6c2ef

0000000080001d3c <i_1783>:
    80001d3c:	ce70e293          	ori	t0,ra,-793

0000000080001d40 <i_1784>:
    80001d40:	f4a14283          	lbu	t0,-182(sp)

0000000080001d44 <i_1785>:
    80001d44:	e6512023          	sw	t0,-416(sp)

0000000080001d48 <i_1786>:
    80001d48:	03614503          	lbu	a0,54(sp)

0000000080001d4c <i_1787>:
    80001d4c:	02a2f463          	bleu	a0,t0,80001d74 <i_1797>

0000000080001d50 <i_1788>:
    80001d50:	02a2edb3          	rem	s11,t0,a0

0000000080001d54 <i_1789>:
    80001d54:	e7b13023          	sd	s11,-416(sp)

0000000080001d58 <i_1790>:
    80001d58:	00535a63          	ble	t0,t1,80001d6c <i_1795>

0000000080001d5c <i_1791>:
    80001d5c:	0d511523          	sh	s5,202(sp)

0000000080001d60 <i_1792>:
    80001d60:	03129eb3          	mulh	t4,t0,a7

0000000080001d64 <i_1793>:
    80001d64:	ec012503          	lw	a0,-320(sp)

0000000080001d68 <i_1794>:
    80001d68:	f8a11283          	lh	t0,-118(sp)

0000000080001d6c <i_1795>:
    80001d6c:	13d12c23          	sw	t4,312(sp)

0000000080001d70 <i_1796>:
    80001d70:	f4510323          	sb	t0,-186(sp)

0000000080001d74 <i_1797>:
    80001d74:	005d9c63          	bne	s11,t0,80001d8c <i_1803>

0000000080001d78 <i_1798>:
    80001d78:	00481513          	slli	a0,a6,0x4

0000000080001d7c <i_1799>:
    80001d7c:	feb11023          	sh	a1,-32(sp)

0000000080001d80 <i_1800>:
    80001d80:	01c00413          	li	s0,28

0000000080001d84 <i_1801>:
    80001d84:	008e92bb          	sllw	t0,t4,s0

0000000080001d88 <i_1802>:
    80001d88:	01858863          	beq	a1,s8,80001d98 <i_1806>

0000000080001d8c <i_1803>:
    80001d8c:	e7813783          	ld	a5,-392(sp)

0000000080001d90 <i_1804>:
    80001d90:	eca103a3          	sb	a0,-313(sp)

0000000080001d94 <i_1805>:
    80001d94:	00550533          	add	a0,a0,t0

0000000080001d98 <i_1806>:
    80001d98:	03a51263          	bne	a0,s10,80001dbc <i_1815>

0000000080001d9c <i_1807>:
    80001d9c:	01300413          	li	s0,19

0000000080001da0 <i_1808>:
    80001da0:	008ed533          	srl	a0,t4,s0

0000000080001da4 <i_1809>:
    80001da4:	13813c83          	ld	s9,312(sp)

0000000080001da8 <i_1810>:
    80001da8:	00fc8533          	add	a0,s9,a5

0000000080001dac <i_1811>:
    80001dac:	ee214283          	lbu	t0,-286(sp)

0000000080001db0 <i_1812>:
    80001db0:	0302c833          	div	a6,t0,a6

0000000080001db4 <i_1813>:
    80001db4:	f9911b23          	sh	s9,-106(sp)

0000000080001db8 <i_1814>:
    80001db8:	18a13023          	sd	a0,384(sp)

0000000080001dbc <i_1815>:
    80001dbc:	01200c93          	li	s9,18

0000000080001dc0 <i_1816>:
    80001dc0:	01979833          	sll	a6,a5,s9

0000000080001dc4 <i_1817>:
    80001dc4:	7a300793          	li	a5,1955

0000000080001dc8 <i_1818>:
    80001dc8:	7b000513          	li	a0,1968

0000000080001dcc <i_1819>:
    80001dcc:	01051e63          	bne	a0,a6,80001de8 <i_1826>

0000000080001dd0 <i_1820>:
    80001dd0:	f4214803          	lbu	a6,-190(sp)

0000000080001dd4 <i_1821>:
    80001dd4:	02a00b13          	li	s6,42

0000000080001dd8 <i_1822>:
    80001dd8:	016d92b3          	sll	t0,s11,s6

0000000080001ddc <i_1823>:
    80001ddc:	e65101a3          	sb	t0,-413(sp)

0000000080001de0 <i_1824>:
    80001de0:	fc910d83          	lb	s11,-55(sp)

0000000080001de4 <i_1825>:
    80001de4:	00000013          	nop

0000000080001de8 <i_1826>:
    80001de8:	036de263          	bltu	s11,s6,80001e0c <i_1834>

0000000080001dec <i_1827>:
    80001dec:	1b411283          	lh	t0,436(sp)

0000000080001df0 <i_1828>:
    80001df0:	ee513023          	sd	t0,-288(sp)

0000000080001df4 <i_1829>:
    80001df4:	ea415d83          	lhu	s11,-348(sp)

0000000080001df8 <i_1830>:
    80001df8:	02a00413          	li	s0,42

0000000080001dfc <i_1831>:
    80001dfc:	008b5f33          	srl	t5,s6,s0

0000000080001e00 <i_1832>:
    80001e00:	00178793          	addi	a5,a5,1
    80001e04:	fcf554e3          	ble	a5,a0,80001dcc <i_1819>

0000000080001e08 <i_1833>:
    80001e08:	00587e63          	bleu	t0,a6,80001e24 <i_1840>

0000000080001e0c <i_1834>:
    80001e0c:	f5416d83          	lwu	s11,-172(sp)

0000000080001e10 <i_1835>:
    80001e10:	081fd437          	lui	s0,0x81fd

0000000080001e14 <i_1836>:
    80001e14:	17e12a23          	sw	t5,372(sp)

0000000080001e18 <i_1837>:
    80001e18:	01647263          	bleu	s6,s0,80001e1c <i_1838>

0000000080001e1c <i_1838>:
    80001e1c:	10012603          	lw	a2,256(sp)

0000000080001e20 <i_1839>:
    80001e20:	ed610da3          	sb	s6,-293(sp)

0000000080001e24 <i_1840>:
    80001e24:	4c543417          	auipc	s0,0x4c543

0000000080001e28 <i_1841>:
    80001e28:	02c12f03          	lw	t5,44(sp)

0000000080001e2c <i_1842>:
    80001e2c:	00d00193          	li	gp,13

0000000080001e30 <i_1843>:
    80001e30:	00361633          	sll	a2,a2,gp

0000000080001e34 <i_1844>:
    80001e34:	00339263          	bne	t2,gp,80001e38 <i_1845>

0000000080001e38 <i_1845>:
    80001e38:	01326e63          	bltu	tp,s3,80001e54 <i_1852>

0000000080001e3c <i_1846>:
    80001e3c:	1cc11a23          	sh	a2,468(sp)

0000000080001e40 <i_1847>:
    80001e40:	00000013          	nop

0000000080001e44 <i_1848>:
    80001e44:	1d813083          	ld	ra,472(sp)

0000000080001e48 <i_1849>:
    80001e48:	00000013          	nop

0000000080001e4c <i_1850>:
    80001e4c:	016181b3          	add	gp,gp,s6

0000000080001e50 <i_1851>:
    80001e50:	003b4833          	xor	a6,s6,gp

0000000080001e54 <i_1852>:
    80001e54:	02f14803          	lbu	a6,47(sp)

0000000080001e58 <i_1853>:
    80001e58:	0218c633          	div	a2,a7,ra

0000000080001e5c <i_1854>:
    80001e5c:	7e300d93          	li	s11,2019

0000000080001e60 <i_1855>:
    80001e60:	7f200b13          	li	s6,2034

0000000080001e64 <i_1856>:
    80001e64:	00309093          	slli	ra,ra,0x3

0000000080001e68 <i_1857>:
    80001e68:	036b0463          	beq	s6,s6,80001e90 <i_1866>

0000000080001e6c <i_1858>:
    80001e6c:	001d8d93          	addi	s11,s11,1
    80001e70:	ffbb5ae3          	ble	s11,s6,80001e64 <i_1856>

0000000080001e74 <i_1859>:
    80001e74:	17c16583          	lwu	a1,380(sp)

0000000080001e78 <i_1860>:
    80001e78:	02c1f0b3          	remu	ra,gp,a2

0000000080001e7c <i_1861>:
    80001e7c:	0a3109a3          	sb	gp,179(sp)

0000000080001e80 <i_1862>:
    80001e80:	00983633          	sltu	a2,a6,s1

0000000080001e84 <i_1863>:
    80001e84:	00608e63          	beq	ra,t1,80001ea0 <i_1870>

0000000080001e88 <i_1864>:
    80001e88:	18211803          	lh	a6,386(sp)

0000000080001e8c <i_1865>:
    80001e8c:	02100493          	li	s1,33

0000000080001e90 <i_1866>:
    80001e90:	4095d333          	sra	t1,a1,s1

0000000080001e94 <i_1867>:
    80001e94:	12813803          	ld	a6,296(sp)

0000000080001e98 <i_1868>:
    80001e98:	ffb14583          	lbu	a1,-5(sp)

0000000080001e9c <i_1869>:
    80001e9c:	00b5f463          	bleu	a1,a1,80001ea4 <i_1871>

0000000080001ea0 <i_1870>:
    80001ea0:	02b4f463          	bleu	a1,s1,80001ec8 <i_1880>

0000000080001ea4 <i_1871>:
    80001ea4:	1e610403          	lb	s0,486(sp)

0000000080001ea8 <i_1872>:
    80001ea8:	0f910c03          	lb	s8,249(sp)

0000000080001eac <i_1873>:
    80001eac:	feb10c03          	lb	s8,-21(sp)

0000000080001eb0 <i_1874>:
    80001eb0:	fdf14483          	lbu	s1,-33(sp)

0000000080001eb4 <i_1875>:
    80001eb4:	009b1263          	bne	s6,s1,80001eb8 <i_1876>

0000000080001eb8 <i_1876>:
    80001eb8:	01b00b13          	li	s6,27

0000000080001ebc <i_1877>:
    80001ebc:	01649b3b          	sllw	s6,s1,s6

0000000080001ec0 <i_1878>:
    80001ec0:	e1914b03          	lbu	s6,-487(sp)

0000000080001ec4 <i_1879>:
    80001ec4:	00f00e13          	li	t3,15

0000000080001ec8 <i_1880>:
    80001ec8:	41c8ddbb          	sraw	s11,a7,t3

0000000080001ecc <i_1881>:
    80001ecc:	00b3ec63          	bltu	t2,a1,80001ee4 <i_1887>

0000000080001ed0 <i_1882>:
    80001ed0:	05e11b03          	lh	s6,94(sp)

0000000080001ed4 <i_1883>:
    80001ed4:	1d610723          	sb	s6,462(sp)

0000000080001ed8 <i_1884>:
    80001ed8:	f1b3ae13          	slti	t3,t2,-229

0000000080001edc <i_1885>:
    80001edc:	14e15603          	lhu	a2,334(sp)

0000000080001ee0 <i_1886>:
    80001ee0:	036dd463          	ble	s6,s11,80001f08 <i_1896>

0000000080001ee4 <i_1887>:
    80001ee4:	025e7b3b          	remuw	s6,t3,t0

0000000080001ee8 <i_1888>:
    80001ee8:	03cb1063          	bne	s6,t3,80001f08 <i_1896>

0000000080001eec <i_1889>:
    80001eec:	19612e23          	sw	s6,412(sp)

0000000080001ef0 <i_1890>:
    80001ef0:	03bb79bb          	remuw	s3,s6,s11

0000000080001ef4 <i_1891>:
    80001ef4:	e7215303          	lhu	t1,-398(sp)

0000000080001ef8 <i_1892>:
    80001ef8:	1bc16683          	lwu	a3,444(sp)

0000000080001efc <i_1893>:
    80001efc:	fd011e83          	lh	t4,-48(sp)

0000000080001f00 <i_1894>:
    80001f00:	02836063          	bltu	t1,s0,80001f20 <i_1902>

0000000080001f04 <i_1895>:
    80001f04:	00c11623          	sh	a2,12(sp)

0000000080001f08 <i_1896>:
    80001f08:	02a00e93          	li	t4,42

0000000080001f0c <i_1897>:
    80001f0c:	01ded433          	srl	s0,t4,t4

0000000080001f10 <i_1898>:
    80001f10:	03f5fe3b          	remuw	t3,a1,t6

0000000080001f14 <i_1899>:
    80001f14:	1e1ee993          	ori	s3,t4,481

0000000080001f18 <i_1900>:
    80001f18:	41398eb3          	sub	t4,s3,s3

0000000080001f1c <i_1901>:
    80001f1c:	408e80bb          	subw	ra,t4,s0

0000000080001f20 <i_1902>:
    80001f20:	e3b14e83          	lbu	t4,-453(sp)

0000000080001f24 <i_1903>:
    80001f24:	df09f413          	andi	s0,s3,-528

0000000080001f28 <i_1904>:
    80001f28:	e9414183          	lbu	gp,-364(sp)

0000000080001f2c <i_1905>:
    80001f2c:	0219c463          	blt	s3,ra,80001f54 <i_1915>

0000000080001f30 <i_1906>:
    80001f30:	f2311223          	sh	gp,-220(sp)

0000000080001f34 <i_1907>:
    80001f34:	02812c03          	lw	s8,40(sp)

0000000080001f38 <i_1908>:
    80001f38:	0030da63          	ble	gp,ra,80001f4c <i_1913>

0000000080001f3c <i_1909>:
    80001f3c:	f2c13023          	sd	a2,-224(sp)

0000000080001f40 <i_1910>:
    80001f40:	fd811c23          	sh	s8,-40(sp)

0000000080001f44 <i_1911>:
    80001f44:	16a11183          	lh	gp,362(sp)

0000000080001f48 <i_1912>:
    80001f48:	01600813          	li	a6,22

0000000080001f4c <i_1913>:
    80001f4c:	410f563b          	sraw	a2,t5,a6

0000000080001f50 <i_1914>:
    80001f50:	17016783          	lwu	a5,368(sp)

0000000080001f54 <i_1915>:
    80001f54:	f4310d23          	sb	gp,-166(sp)

0000000080001f58 <i_1916>:
    80001f58:	00000013          	nop

0000000080001f5c <i_1917>:
    80001f5c:	00000013          	nop

0000000080001f60 <i_1918>:
    80001f60:	8d400193          	li	gp,-1836

0000000080001f64 <i_1919>:
    80001f64:	8d700613          	li	a2,-1833

0000000080001f68 <i_1920>:
    80001f68:	0e013803          	ld	a6,224(sp)

0000000080001f6c <i_1921>:
    80001f6c:	fef12223          	sw	a5,-28(sp)

0000000080001f70 <i_1922>:
    80001f70:	003c1c1b          	slliw	s8,s8,0x3

0000000080001f74 <i_1923>:
    80001f74:	00465293          	srli	t0,a2,0x4

0000000080001f78 <i_1924>:
    80001f78:	00165d13          	srli	s10,a2,0x1

0000000080001f7c <i_1925>:
    80001f7c:	4b366293          	ori	t0,a2,1203

0000000080001f80 <i_1926>:
    80001f80:	ea016403          	lwu	s0,-352(sp)

0000000080001f84 <i_1927>:
    80001f84:	f2210983          	lb	s3,-222(sp)

0000000080001f88 <i_1928>:
    80001f88:	00129e13          	slli	t3,t0,0x1

0000000080001f8c <i_1929>:
    80001f8c:	e5c16283          	lwu	t0,-420(sp)

0000000080001f90 <i_1930>:
    80001f90:	02f2e063          	bltu	t0,a5,80001fb0 <i_1937>

0000000080001f94 <i_1931>:
    80001f94:	efa11283          	lh	t0,-262(sp)

0000000080001f98 <i_1932>:
    80001f98:	15010e03          	lb	t3,336(sp)

0000000080001f9c <i_1933>:
    80001f9c:	f1816503          	lwu	a0,-232(sp)

0000000080001fa0 <i_1934>:
    80001fa0:	00118193          	addi	gp,gp,1 # 10001 <main-0x7ffeffff>
    80001fa4:	fc3672e3          	bleu	gp,a2,80001f68 <i_1920>

0000000080001fa8 <i_1935>:
    80001fa8:	03a00293          	li	t0,58

0000000080001fac <i_1936>:
    80001fac:	005295b3          	sll	a1,t0,t0

0000000080001fb0 <i_1937>:
    80001fb0:	0ad13023          	sd	a3,160(sp)

0000000080001fb4 <i_1938>:
    80001fb4:	045107a3          	sb	t0,79(sp)

0000000080001fb8 <i_1939>:
    80001fb8:	77200693          	li	a3,1906

0000000080001fbc <i_1940>:
    80001fbc:	77e00313          	li	t1,1918

0000000080001fc0 <i_1941>:
    80001fc0:	0d6100a3          	sb	s6,193(sp)

0000000080001fc4 <i_1942>:
    80001fc4:	00000013          	nop

0000000080001fc8 <i_1943>:
    80001fc8:	01812c23          	sw	s8,24(sp)

0000000080001fcc <i_1944>:
    80001fcc:	fa812a23          	sw	s0,-76(sp)

0000000080001fd0 <i_1945>:
    80001fd0:	0382d1bb          	divuw	gp,t0,s8

0000000080001fd4 <i_1946>:
    80001fd4:	0037e5b3          	or	a1,a5,gp

0000000080001fd8 <i_1947>:
    80001fd8:	01e00593          	li	a1,30

0000000080001fdc <i_1948>:
    80001fdc:	00b597b3          	sll	a5,a1,a1

0000000080001fe0 <i_1949>:
    80001fe0:	00168693          	addi	a3,a3,1
    80001fe4:	fcd37ee3          	bleu	a3,t1,80001fc0 <i_1941>

0000000080001fe8 <i_1950>:
    80001fe8:	e1a10083          	lb	ra,-486(sp)

0000000080001fec <i_1951>:
    80001fec:	1a110583          	lb	a1,417(sp)

0000000080001ff0 <i_1952>:
    80001ff0:	f1c16b83          	lwu	s7,-228(sp)

0000000080001ff4 <i_1953>:
    80001ff4:	fab11d23          	sh	a1,-70(sp)

0000000080001ff8 <i_1954>:
    80001ff8:	017e7c63          	bleu	s7,t3,80002010 <i_1960>

0000000080001ffc <i_1955>:
    80001ffc:	0c710983          	lb	s3,199(sp)

0000000080002000 <i_1956>:
    80002000:	00b5c2b3          	xor	t0,a1,a1

0000000080002004 <i_1957>:
    80002004:	fe013283          	ld	t0,-32(sp)

0000000080002008 <i_1958>:
    80002008:	02c2c63b          	divw	a2,t0,a2

000000008000200c <i_1959>:
    8000200c:	00000013          	nop

0000000080002010 <i_1960>:
    80002010:	e9016183          	lwu	gp,-368(sp)

0000000080002014 <i_1961>:
    80002014:	02567433          	remu	s0,a2,t0

0000000080002018 <i_1962>:
    80002018:	8c900593          	li	a1,-1847

000000008000201c <i_1963>:
    8000201c:	8d200b93          	li	s7,-1838

0000000080002020 <i_1964>:
    80002020:	0ae67293          	andi	t0,a2,174

0000000080002024 <i_1965>:
    80002024:	f4d12e23          	sw	a3,-164(sp)

0000000080002028 <i_1966>:
    80002028:	fb010083          	lb	ra,-80(sp)

000000008000202c <i_1967>:
    8000202c:	00345463          	ble	gp,s0,80002034 <i_1969>

0000000080002030 <i_1968>:
    80002030:	f6c10ba3          	sb	a2,-137(sp)

0000000080002034 <i_1969>:
    80002034:	0251f663          	bleu	t0,gp,80002060 <i_1979>

0000000080002038 <i_1970>:
    80002038:	0219bdb3          	mulhu	s11,s3,ra

000000008000203c <i_1971>:
    8000203c:	e6310283          	lb	t0,-413(sp)

0000000080002040 <i_1972>:
    80002040:	00000013          	nop

0000000080002044 <i_1973>:
    80002044:	00158593          	addi	a1,a1,1
    80002048:	fd759ce3          	bne	a1,s7,80002020 <i_1964>

000000008000204c <i_1974>:
    8000204c:	021981b3          	mul	gp,s3,ra

0000000080002050 <i_1975>:
    80002050:	1c012683          	lw	a3,448(sp)

0000000080002054 <i_1976>:
    80002054:	eb013183          	ld	gp,-336(sp)

0000000080002058 <i_1977>:
    80002058:	00000013          	nop

000000008000205c <i_1978>:
    8000205c:	e2510c23          	sb	t0,-456(sp)

0000000080002060 <i_1979>:
    80002060:	00431d13          	slli	s10,t1,0x4

0000000080002064 <i_1980>:
    80002064:	00000013          	nop

0000000080002068 <i_1981>:
    80002068:	7b600193          	li	gp,1974

000000008000206c <i_1982>:
    8000206c:	7c800d93          	li	s11,1992

0000000080002070 <i_1983>:
    80002070:	40c082bb          	subw	t0,ra,a2

0000000080002074 <i_1984>:
    80002074:	00118193          	addi	gp,gp,1
    80002078:	ffb1cce3          	blt	gp,s11,80002070 <i_1983>

000000008000207c <i_1985>:
    8000207c:	fe310123          	sb	gp,-30(sp)

0000000080002080 <i_1986>:
    80002080:	1b414283          	lbu	t0,436(sp)

0000000080002084 <i_1987>:
    80002084:	403d09b3          	sub	s3,s10,gp

0000000080002088 <i_1988>:
    80002088:	03d9eebb          	remw	t4,s3,t4

000000008000208c <i_1989>:
    8000208c:	76918d1b          	addiw	s10,gp,1897

0000000080002090 <i_1990>:
    80002090:	f0413423          	sd	tp,-248(sp)

0000000080002094 <i_1991>:
    80002094:	18012d03          	lw	s10,384(sp)

0000000080002098 <i_1992>:
    80002098:	0239feb3          	remu	t4,s3,gp

000000008000209c <i_1993>:
    8000209c:	14416683          	lwu	a3,324(sp)

00000000800020a0 <i_1994>:
    800020a0:	0d813403          	ld	s0,216(sp)

00000000800020a4 <i_1995>:
    800020a4:	82000d13          	li	s10,-2016

00000000800020a8 <i_1996>:
    800020a8:	82e00293          	li	t0,-2002

00000000800020ac <i_1997>:
    800020ac:	ec215803          	lhu	a6,-318(sp)

00000000800020b0 <i_1998>:
    800020b0:	0047d793          	srli	a5,a5,0x4

00000000800020b4 <i_1999>:
    800020b4:	01212023          	sw	s2,0(sp)

00000000800020b8 <i_2000>:
    800020b8:	16012c03          	lw	s8,352(sp)

00000000800020bc <i_2001>:
    800020bc:	fad57513          	andi	a0,a0,-83

00000000800020c0 <i_2002>:
    800020c0:	001d0d13          	addi	s10,s10,1
    800020c4:	ffa2f4e3          	bleu	s10,t0,800020ac <i_1997>

00000000800020c8 <i_2003>:
    800020c8:	02ac653b          	remw	a0,s8,a0

00000000800020cc <i_2004>:
    800020cc:	00181813          	slli	a6,a6,0x1

00000000800020d0 <i_2005>:
    800020d0:	41080833          	sub	a6,a6,a6

00000000800020d4 <i_2006>:
    800020d4:	00381e9b          	slliw	t4,a6,0x3

00000000800020d8 <i_2007>:
    800020d8:	01087eb3          	and	t4,a6,a6

00000000800020dc <i_2008>:
    800020dc:	02ce84b3          	mul	s1,t4,a2

00000000800020e0 <i_2009>:
    800020e0:	b4585c17          	auipc	s8,0xb4585

00000000800020e4 <i_2010>:
    800020e4:	0fa11503          	lh	a0,250(sp)

00000000800020e8 <i_2011>:
    800020e8:	eac16c83          	lwu	s9,-340(sp)

00000000800020ec <i_2012>:
    800020ec:	01e00c13          	li	s8,30

00000000800020f0 <i_2013>:
    800020f0:	01885d3b          	srlw	s10,a6,s8

00000000800020f4 <i_2014>:
    800020f4:	03aa4833          	div	a6,s4,s10

00000000800020f8 <i_2015>:
    800020f8:	03a13423          	sd	s10,40(sp)

00000000800020fc <i_2016>:
    800020fc:	030cd063          	ble	a6,s9,8000211c <i_2024>

0000000080002100 <i_2017>:
    80002100:	01ad7263          	bleu	s10,s10,80002104 <i_2018>

0000000080002104 <i_2018>:
    80002104:	01016b03          	lwu	s6,16(sp)

0000000080002108 <i_2019>:
    80002108:	f0212023          	sw	sp,-256(sp)

000000008000210c <i_2020>:
    8000210c:	030821b3          	mulhsu	gp,a6,a6

0000000080002110 <i_2021>:
    80002110:	4041dd13          	srai	s10,gp,0x4

0000000080002114 <i_2022>:
    80002114:	ed610c83          	lb	s9,-298(sp)

0000000080002118 <i_2023>:
    80002118:	e5011e23          	sh	a6,-420(sp)

000000008000211c <i_2024>:
    8000211c:	004cda13          	srli	s4,s9,0x4

0000000080002120 <i_2025>:
    80002120:	e2310523          	sb	gp,-470(sp)

0000000080002124 <i_2026>:
    80002124:	010b4663          	blt	s6,a6,80002130 <i_2029>

0000000080002128 <i_2027>:
    80002128:	090107a3          	sb	a6,143(sp)

000000008000212c <i_2028>:
    8000212c:	03a79463          	bne	a5,s10,80002154 <i_2038>

0000000080002130 <i_2029>:
    80002130:	1ba12623          	sw	s10,428(sp)

0000000080002134 <i_2030>:
    80002134:	036a6d33          	rem	s10,s4,s6

0000000080002138 <i_2031>:
    80002138:	a28c8a13          	addi	s4,s9,-1496 # 7d87a28 <main-0x782785d8>

000000008000213c <i_2032>:
    8000213c:	0c814783          	lbu	a5,200(sp)

0000000080002140 <i_2033>:
    80002140:	fb411123          	sh	s4,-94(sp)

0000000080002144 <i_2034>:
    80002144:	00a00d13          	li	s10,10

0000000080002148 <i_2035>:
    80002148:	41aa57bb          	sraw	a5,s4,s10

000000008000214c <i_2036>:
    8000214c:	0a610803          	lb	a6,166(sp)

0000000080002150 <i_2037>:
    80002150:	1cff71b7          	lui	gp,0x1cff7

0000000080002154 <i_2038>:
    80002154:	039a7063          	bleu	s9,s4,80002174 <i_2046>

0000000080002158 <i_2039>:
    80002158:	0f013023          	sd	a6,224(sp)

000000008000215c <i_2040>:
    8000215c:	fd410c83          	lb	s9,-44(sp)

0000000080002160 <i_2041>:
    80002160:	00311123          	sh	gp,2(sp)

0000000080002164 <i_2042>:
    80002164:	01013183          	ld	gp,16(sp)

0000000080002168 <i_2043>:
    80002168:	003ce833          	or	a6,s9,gp

000000008000216c <i_2044>:
    8000216c:	039ecebb          	divw	t4,t4,s9

0000000080002170 <i_2045>:
    80002170:	14813c23          	sd	s0,344(sp)

0000000080002174 <i_2046>:
    80002174:	19c12e03          	lw	t3,412(sp)

0000000080002178 <i_2047>:
    80002178:	06010a83          	lb	s5,96(sp)

000000008000217c <i_2048>:
    8000217c:	00012183          	lw	gp,0(sp)

0000000080002180 <i_2049>:
    80002180:	f5c12623          	sw	t3,-180(sp)

0000000080002184 <i_2050>:
    80002184:	09913823          	sd	s9,144(sp)

0000000080002188 <i_2051>:
    80002188:	eec15a83          	lhu	s5,-276(sp)

000000008000218c <i_2052>:
    8000218c:	01dad863          	ble	t4,s5,8000219c <i_2056>

0000000080002190 <i_2053>:
    80002190:	0241cbbb          	divw	s7,gp,tp

0000000080002194 <i_2054>:
    80002194:	fbe11383          	lh	t2,-66(sp)

0000000080002198 <i_2055>:
    80002198:	01dcb5b3          	sltu	a1,s9,t4

000000008000219c <i_2056>:
    8000219c:	14013b83          	ld	s7,320(sp)

00000000800021a0 <i_2057>:
    800021a0:	00b3abb3          	slt	s7,t2,a1

00000000800021a4 <i_2058>:
    800021a4:	019e8a63          	beq	t4,s9,800021b8 <i_2063>

00000000800021a8 <i_2059>:
    800021a8:	015bf263          	bleu	s5,s7,800021ac <i_2060>

00000000800021ac <i_2060>:
    800021ac:	00b85463          	ble	a1,a6,800021b4 <i_2062>

00000000800021b0 <i_2061>:
    800021b0:	017c8e63          	beq	s9,s7,800021cc <i_2068>

00000000800021b4 <i_2062>:
    800021b4:	ee313423          	sd	gp,-280(sp)

00000000800021b8 <i_2063>:
    800021b8:	017bde63          	ble	s7,s7,800021d4 <i_2070>

00000000800021bc <i_2064>:
    800021bc:	402b8bbb          	subw	s7,s7,sp

00000000800021c0 <i_2065>:
    800021c0:	0c816b83          	lwu	s7,200(sp)

00000000800021c4 <i_2066>:
    800021c4:	c5cbaa13          	slti	s4,s7,-932

00000000800021c8 <i_2067>:
    800021c8:	41eb8bbb          	subw	s7,s7,t5

00000000800021cc <i_2068>:
    800021cc:	01800a13          	li	s4,24

00000000800021d0 <i_2069>:
    800021d0:	414bdb33          	sra	s6,s7,s4

00000000800021d4 <i_2070>:
    800021d4:	037b8463          	beq	s7,s7,800021fc <i_2080>

00000000800021d8 <i_2071>:
    800021d8:	1d314b83          	lbu	s7,467(sp)

00000000800021dc <i_2072>:
    800021dc:	017ce263          	bltu	s9,s7,800021e0 <i_2073>

00000000800021e0 <i_2073>:
    800021e0:	00000013          	nop

00000000800021e4 <i_2074>:
    800021e4:	00000013          	nop

00000000800021e8 <i_2075>:
    800021e8:	034a5ab3          	divu	s5,s4,s4

00000000800021ec <i_2076>:
    800021ec:	04510a83          	lb	s5,69(sp)

00000000800021f0 <i_2077>:
    800021f0:	eaa10b03          	lb	s6,-342(sp)

00000000800021f4 <i_2078>:
    800021f4:	760a821b          	addiw	tp,s5,1888

00000000800021f8 <i_2079>:
    800021f8:	1a710d03          	lb	s10,423(sp)

00000000800021fc <i_2080>:
    800021fc:	0f510e23          	sb	s5,252(sp)

0000000080002200 <i_2081>:
    80002200:	00000013          	nop

0000000080002204 <i_2082>:
    80002204:	8ca00a13          	li	s4,-1846

0000000080002208 <i_2083>:
    80002208:	8d500313          	li	t1,-1835

000000008000220c <i_2084>:
    8000220c:	0ba11023          	sh	s10,160(sp)

0000000080002210 <i_2085>:
    80002210:	ed114983          	lbu	s3,-303(sp)

0000000080002214 <i_2086>:
    80002214:	001a0a13          	addi	s4,s4,1 # e9e03a79 <_end+0x69df3665>
    80002218:	fe6a6ae3          	bltu	s4,t1,8000220c <i_2084>

000000008000221c <i_2087>:
    8000221c:	f9016c03          	lwu	s8,-112(sp)

0000000080002220 <i_2088>:
    80002220:	01000213          	li	tp,16

0000000080002224 <i_2089>:
    80002224:	4049d9bb          	sraw	s3,s3,tp

0000000080002228 <i_2090>:
    80002228:	06612423          	sw	t1,104(sp)

000000008000222c <i_2091>:
    8000222c:	fd710983          	lb	s3,-41(sp)

0000000080002230 <i_2092>:
    80002230:	0049da63          	ble	tp,s3,80002244 <i_2097>

0000000080002234 <i_2093>:
    80002234:	013e6663          	bltu	t3,s3,80002240 <i_2096>

0000000080002238 <i_2094>:
    80002238:	0337c063          	blt	a5,s3,80002258 <i_2102>

000000008000223c <i_2095>:
    8000223c:	00125993          	srli	s3,tp,0x1

0000000080002240 <i_2096>:
    80002240:	e9611d83          	lh	s11,-362(sp)

0000000080002244 <i_2097>:
    80002244:	03b11333          	mulh	t1,sp,s11

0000000080002248 <i_2098>:
    80002248:	3b0dfd93          	andi	s11,s11,944

000000008000224c <i_2099>:
    8000224c:	ec811583          	lh	a1,-312(sp)

0000000080002250 <i_2100>:
    80002250:	01bdde63          	ble	s11,s11,8000226c <i_2107>

0000000080002254 <i_2101>:
    80002254:	012dee63          	bltu	s11,s2,80002270 <i_2108>

0000000080002258 <i_2102>:
    80002258:	4029d993          	srai	s3,s3,0x2

000000008000225c <i_2103>:
    8000225c:	0d816b03          	lwu	s6,216(sp)

0000000080002260 <i_2104>:
    80002260:	fe6104a3          	sb	t1,-23(sp)

0000000080002264 <i_2105>:
    80002264:	03be5263          	ble	s11,t3,80002288 <i_2114>

0000000080002268 <i_2106>:
    80002268:	13012b83          	lw	s7,304(sp)

000000008000226c <i_2107>:
    8000226c:	038e29b3          	mulhsu	s3,t3,s8

0000000080002270 <i_2108>:
    80002270:	01c12023          	sw	t3,0(sp)

0000000080002274 <i_2109>:
    80002274:	0bc16d83          	lwu	s11,188(sp)

0000000080002278 <i_2110>:
    80002278:	eb6103a3          	sb	s6,-345(sp)

000000008000227c <i_2111>:
    8000227c:	0bc11d23          	sh	t3,186(sp)

0000000080002280 <i_2112>:
    80002280:	00000013          	nop

0000000080002284 <i_2113>:
    80002284:	03800993          	li	s3,56

0000000080002288 <i_2114>:
    80002288:	413fdbb3          	sra	s7,t6,s3

000000008000228c <i_2115>:
    8000228c:	01000b93          	li	s7,16

0000000080002290 <i_2116>:
    80002290:	017b9a3b          	sllw	s4,s7,s7

0000000080002294 <i_2117>:
    80002294:	87d00e13          	li	t3,-1923

0000000080002298 <i_2118>:
    80002298:	88100293          	li	t0,-1919

000000008000229c <i_2119>:
    8000229c:	15416a03          	lwu	s4,340(sp)

00000000800022a0 <i_2120>:
    800022a0:	034cf663          	bleu	s4,s9,800022cc <i_2130>

00000000800022a4 <i_2121>:
    800022a4:	fe813983          	ld	s3,-24(sp)

00000000800022a8 <i_2122>:
    800022a8:	001e0e13          	addi	t3,t3,1 # f44d598d <_end+0x744c5579>
    800022ac:	fe5e16e3          	bne	t3,t0,80002298 <i_2118>

00000000800022b0 <i_2123>:
    800022b0:	e6f10683          	lb	a3,-401(sp)

00000000800022b4 <i_2124>:
    800022b4:	02db9063          	bne	s7,a3,800022d4 <i_2132>

00000000800022b8 <i_2125>:
    800022b8:	1b312c23          	sw	s3,440(sp)

00000000800022bc <i_2126>:
    800022bc:	017a7c63          	bleu	s7,s4,800022d4 <i_2132>

00000000800022c0 <i_2127>:
    800022c0:	037b8063          	beq	s7,s7,800022e0 <i_2135>

00000000800022c4 <i_2128>:
    800022c4:	e866831b          	addiw	t1,a3,-378

00000000800022c8 <i_2129>:
    800022c8:	ff215d03          	lhu	s10,-14(sp)

00000000800022cc <i_2130>:
    800022cc:	00013a03          	ld	s4,0(sp)

00000000800022d0 <i_2131>:
    800022d0:	0a812303          	lw	t1,168(sp)

00000000800022d4 <i_2132>:
    800022d4:	f3615a03          	lhu	s4,-202(sp)

00000000800022d8 <i_2133>:
    800022d8:	03431333          	mulh	t1,t1,s4

00000000800022dc <i_2134>:
    800022dc:	01468463          	beq	a3,s4,800022e4 <i_2136>

00000000800022e0 <i_2135>:
    800022e0:	13d3029b          	addiw	t0,t1,317

00000000800022e4 <i_2136>:
    800022e4:	02b485b3          	mul	a1,s1,a1

00000000800022e8 <i_2137>:
    800022e8:	004a5a13          	srli	s4,s4,0x4

00000000800022ec <i_2138>:
    800022ec:	87000493          	li	s1,-1936

00000000800022f0 <i_2139>:
    800022f0:	88000293          	li	t0,-1920

00000000800022f4 <i_2140>:
    800022f4:	037aeabb          	remw	s5,s5,s7

00000000800022f8 <i_2141>:
    800022f8:	e3412c23          	sw	s4,-456(sp)

00000000800022fc <i_2142>:
    800022fc:	e7c16403          	lwu	s0,-388(sp)

0000000080002300 <i_2143>:
    80002300:	4035d593          	srai	a1,a1,0x3

0000000080002304 <i_2144>:
    80002304:	001ad193          	srli	gp,s5,0x1

0000000080002308 <i_2145>:
    80002308:	408185b3          	sub	a1,gp,s0

000000008000230c <i_2146>:
    8000230c:	4085843b          	subw	s0,a1,s0

0000000080002310 <i_2147>:
    80002310:	0035d59b          	srliw	a1,a1,0x3

0000000080002314 <i_2148>:
    80002314:	05510b83          	lb	s7,85(sp)

0000000080002318 <i_2149>:
    80002318:	2bb1e613          	ori	a2,gp,699

000000008000231c <i_2150>:
    8000231c:	03959063          	bne	a1,s9,8000233c <i_2157>

0000000080002320 <i_2151>:
    80002320:	02c59bb3          	mulh	s7,a1,a2

0000000080002324 <i_2152>:
    80002324:	00148493          	addi	s1,s1,1
    80002328:	fc54c6e3          	blt	s1,t0,800022f4 <i_2140>

000000008000232c <i_2153>:
    8000232c:	fa816083          	lwu	ra,-88(sp)

0000000080002330 <i_2154>:
    80002330:	00000013          	nop

0000000080002334 <i_2155>:
    80002334:	00000013          	nop

0000000080002338 <i_2156>:
    80002338:	1ec13023          	sd	a2,480(sp)

000000008000233c <i_2157>:
    8000233c:	40365513          	srai	a0,a2,0x3

0000000080002340 <i_2158>:
    80002340:	d6158513          	addi	a0,a1,-671

0000000080002344 <i_2159>:
    80002344:	87800593          	li	a1,-1928

0000000080002348 <i_2160>:
    80002348:	88000e13          	li	t3,-1920

000000008000234c <i_2161>:
    8000234c:	0e812c83          	lw	s9,232(sp)

0000000080002350 <i_2162>:
    80002350:	00158593          	addi	a1,a1,1
    80002354:	febe7ce3          	bleu	a1,t3,8000234c <i_2161>

0000000080002358 <i_2163>:
    80002358:	00b00693          	li	a3,11

000000008000235c <i_2164>:
    8000235c:	00dc963b          	sllw	a2,s9,a3

0000000080002360 <i_2165>:
    80002360:	02ace263          	bltu	s9,a0,80002384 <i_2174>

0000000080002364 <i_2166>:
    80002364:	01e10623          	sb	t5,12(sp)

0000000080002368 <i_2167>:
    80002368:	04013303          	ld	t1,64(sp)

000000008000236c <i_2168>:
    8000236c:	e8c11323          	sh	a2,-378(sp)

0000000080002370 <i_2169>:
    80002370:	01e00213          	li	tp,30

0000000080002374 <i_2170>:
    80002374:	404f5f33          	sra	t5,t5,tp

0000000080002378 <i_2171>:
    80002378:	00c24093          	xori	ra,tp,12

000000008000237c <i_2172>:
    8000237c:	008340b3          	xor	ra,t1,s0

0000000080002380 <i_2173>:
    80002380:	e9a10a03          	lb	s4,-358(sp)

0000000080002384 <i_2174>:
    80002384:	03611483          	lh	s1,54(sp)

0000000080002388 <i_2175>:
    80002388:	f6813503          	ld	a0,-152(sp)

000000008000238c <i_2176>:
    8000238c:	02608233          	mul	tp,ra,t1

0000000080002390 <i_2177>:
    80002390:	18013f03          	ld	t5,384(sp)

0000000080002394 <i_2178>:
    80002394:	14c11c03          	lh	s8,332(sp)

0000000080002398 <i_2179>:
    80002398:	03ea6263          	bltu	s4,t5,800023bc <i_2188>

000000008000239c <i_2180>:
    8000239c:	ec612a23          	sw	t1,-300(sp)

00000000800023a0 <i_2181>:
    800023a0:	0e816a83          	lwu	s5,232(sp)

00000000800023a4 <i_2182>:
    800023a4:	12813683          	ld	a3,296(sp)

00000000800023a8 <i_2183>:
    800023a8:	e3610c83          	lb	s9,-458(sp)

00000000800023ac <i_2184>:
    800023ac:	19412023          	sw	s4,384(sp)

00000000800023b0 <i_2185>:
    800023b0:	eae15c03          	lhu	s8,-338(sp)

00000000800023b4 <i_2186>:
    800023b4:	01885e63          	ble	s8,a6,800023d0 <i_2193>

00000000800023b8 <i_2187>:
    800023b8:	1c013c03          	ld	s8,448(sp)

00000000800023bc <i_2188>:
    800023bc:	0ce15b03          	lhu	s6,206(sp)

00000000800023c0 <i_2189>:
    800023c0:	00000013          	nop

00000000800023c4 <i_2190>:
    800023c4:	0f815283          	lhu	t0,248(sp)

00000000800023c8 <i_2191>:
    800023c8:	17c14b83          	lbu	s7,380(sp)

00000000800023cc <i_2192>:
    800023cc:	f8215c03          	lhu	s8,-126(sp)

00000000800023d0 <i_2193>:
    800023d0:	005b8c33          	add	s8,s7,t0

00000000800023d4 <i_2194>:
    800023d4:	f2013d03          	ld	s10,-224(sp)

00000000800023d8 <i_2195>:
    800023d8:	73a00e93          	li	t4,1850

00000000800023dc <i_2196>:
    800023dc:	74d00f13          	li	t5,1869

00000000800023e0 <i_2197>:
    800023e0:	07416203          	lwu	tp,116(sp)

00000000800023e4 <i_2198>:
    800023e4:	f3710123          	sb	s7,-222(sp)

00000000800023e8 <i_2199>:
    800023e8:	038d523b          	divuw	tp,s10,s8

00000000800023ec <i_2200>:
    800023ec:	00000013          	nop

00000000800023f0 <i_2201>:
    800023f0:	001e8e93          	addi	t4,t4,1 # 42ba5001 <main-0x3d45afff>
    800023f4:	ffee96e3          	bne	t4,t5,800023e0 <i_2197>

00000000800023f8 <i_2202>:
    800023f8:	06714c03          	lbu	s8,103(sp)

00000000800023fc <i_2203>:
    800023fc:	00520863          	beq	tp,t0,8000240c <i_2207>

0000000080002400 <i_2204>:
    80002400:	f8512e23          	sw	t0,-100(sp)

0000000080002404 <i_2205>:
    80002404:	02422bb3          	mulhsu	s7,tp,tp

0000000080002408 <i_2206>:
    80002408:	417b82bb          	subw	t0,s7,s7

000000008000240c <i_2207>:
    8000240c:	01600593          	li	a1,22

0000000080002410 <i_2208>:
    80002410:	40b25333          	sra	t1,tp,a1

0000000080002414 <i_2209>:
    80002414:	038f29b3          	mulhsu	s3,t5,s8

0000000080002418 <i_2210>:
    80002418:	07714b83          	lbu	s7,119(sp)

000000008000241c <i_2211>:
    8000241c:	e8813203          	ld	tp,-376(sp)

0000000080002420 <i_2212>:
    80002420:	e9813203          	ld	tp,-360(sp)

0000000080002424 <i_2213>:
    80002424:	01720233          	add	tp,tp,s7

0000000080002428 <i_2214>:
    80002428:	037a99b3          	mulh	s3,s5,s7

000000008000242c <i_2215>:
    8000242c:	01798263          	beq	s3,s7,80002430 <i_2216>

0000000080002430 <i_2216>:
    80002430:	017bd263          	ble	s7,s7,80002434 <i_2217>

0000000080002434 <i_2217>:
    80002434:	017b9463          	bne	s7,s7,8000243c <i_2219>

0000000080002438 <i_2218>:
    80002438:	017babb3          	slt	s7,s7,s7

000000008000243c <i_2219>:
    8000243c:	401205b3          	sub	a1,tp,ra

0000000080002440 <i_2220>:
    80002440:	02016e03          	lwu	t3,32(sp)

0000000080002444 <i_2221>:
    80002444:	01cbe263          	bltu	s7,t3,80002448 <i_2222>

0000000080002448 <i_2222>:
    80002448:	e8c12d83          	lw	s11,-372(sp)

000000008000244c <i_2223>:
    8000244c:	07711d23          	sh	s7,122(sp)

0000000080002450 <i_2224>:
    80002450:	f7e11403          	lh	s0,-130(sp)

0000000080002454 <i_2225>:
    80002454:	16416a03          	lwu	s4,356(sp)

0000000080002458 <i_2226>:
    80002458:	e4a12c23          	sw	a0,-424(sp)

000000008000245c <i_2227>:
    8000245c:	77800793          	li	a5,1912

0000000080002460 <i_2228>:
    80002460:	78500413          	li	s0,1925

0000000080002464 <i_2229>:
    80002464:	f2613023          	sd	t1,-224(sp)

0000000080002468 <i_2230>:
    80002468:	e2411203          	lh	tp,-476(sp)

000000008000246c <i_2231>:
    8000246c:	00000013          	nop

0000000080002470 <i_2232>:
    80002470:	017bf863          	bleu	s7,s7,80002480 <i_2236>

0000000080002474 <i_2233>:
    80002474:	01a00b93          	li	s7,26

0000000080002478 <i_2234>:
    80002478:	017a5bbb          	srlw	s7,s4,s7

000000008000247c <i_2235>:
    8000247c:	01414b83          	lbu	s7,20(sp)

0000000080002480 <i_2236>:
    80002480:	11416d83          	lwu	s11,276(sp)

0000000080002484 <i_2237>:
    80002484:	fce11483          	lh	s1,-50(sp)

0000000080002488 <i_2238>:
    80002488:	fe813283          	ld	t0,-24(sp)

000000008000248c <i_2239>:
    8000248c:	0172ec63          	bltu	t0,s7,800024a4 <i_2244>

0000000080002490 <i_2240>:
    80002490:	01900213          	li	tp,25

0000000080002494 <i_2241>:
    80002494:	00429bb3          	sll	s7,t0,tp

0000000080002498 <i_2242>:
    80002498:	00178793          	addi	a5,a5,1
    8000249c:	fcf454e3          	ble	a5,s0,80002464 <i_2229>

00000000800024a0 <i_2243>:
    800024a0:	07415c83          	lhu	s9,116(sp)

00000000800024a4 <i_2244>:
    800024a4:	002ee263          	bltu	t4,sp,800024a8 <i_2245>

00000000800024a8 <i_2245>:
    800024a8:	00600793          	li	a5,6

00000000800024ac <i_2246>:
    800024ac:	40fedeb3          	sra	t4,t4,a5

00000000800024b0 <i_2247>:
    800024b0:	f8215c83          	lhu	s9,-126(sp)

00000000800024b4 <i_2248>:
    800024b4:	e5910ca3          	sb	s9,-423(sp)

00000000800024b8 <i_2249>:
    800024b8:	01defeb3          	and	t4,t4,t4

00000000800024bc <i_2250>:
    800024bc:	00fce263          	bltu	s9,a5,800024c0 <i_2251>

00000000800024c0 <i_2251>:
    800024c0:	00fec863          	blt	t4,a5,800024d0 <i_2255>

00000000800024c4 <i_2252>:
    800024c4:	402edc9b          	sraiw	s9,t4,0x2

00000000800024c8 <i_2253>:
    800024c8:	f5214d83          	lbu	s11,-174(sp)

00000000800024cc <i_2254>:
    800024cc:	01dc9463          	bne	s9,t4,800024d4 <i_2256>

00000000800024d0 <i_2255>:
    800024d0:	ef913823          	sd	s9,-272(sp)

00000000800024d4 <i_2256>:
    800024d4:	f3416e83          	lwu	t4,-204(sp)

00000000800024d8 <i_2257>:
    800024d8:	0d911f23          	sh	s9,222(sp)

00000000800024dc <i_2258>:
    800024dc:	18411283          	lh	t0,388(sp)

00000000800024e0 <i_2259>:
    800024e0:	03b8583b          	divuw	a6,a6,s11

00000000800024e4 <i_2260>:
    800024e4:	03bda2b3          	mulhsu	t0,s11,s11

00000000800024e8 <i_2261>:
    800024e8:	03d7d7b3          	divu	a5,a5,t4

00000000800024ec <i_2262>:
    800024ec:	e1c16b83          	lwu	s7,-484(sp)

00000000800024f0 <i_2263>:
    800024f0:	11913823          	sd	s9,272(sp)

00000000800024f4 <i_2264>:
    800024f4:	f5d13823          	sd	t4,-176(sp)

00000000800024f8 <i_2265>:
    800024f8:	01b27663          	bleu	s11,tp,80002504 <i_2268>

00000000800024fc <i_2266>:
    800024fc:	33ec8c9b          	addiw	s9,s9,830

0000000080002500 <i_2267>:
    80002500:	40385093          	srai	ra,a6,0x3

0000000080002504 <i_2268>:
    80002504:	00000013          	nop

0000000080002508 <i_2269>:
    80002508:	f2816d03          	lwu	s10,-216(sp)

000000008000250c <i_2270>:
    8000250c:	7c300d93          	li	s11,1987

0000000080002510 <i_2271>:
    80002510:	7ce00813          	li	a6,1998

0000000080002514 <i_2272>:
    80002514:	00900093          	li	ra,9

0000000080002518 <i_2273>:
    80002518:	00109d33          	sll	s10,ra,ra

000000008000251c <i_2274>:
    8000251c:	00000013          	nop

0000000080002520 <i_2275>:
    80002520:	e2016e83          	lwu	t4,-480(sp)

0000000080002524 <i_2276>:
    80002524:	ef215e83          	lhu	t4,-270(sp)

0000000080002528 <i_2277>:
    80002528:	ea013d03          	ld	s10,-352(sp)

000000008000252c <i_2278>:
    8000252c:	01500e93          	li	t4,21

0000000080002530 <i_2279>:
    80002530:	41d0d43b          	sraw	s0,ra,t4

0000000080002534 <i_2280>:
    80002534:	03aec063          	blt	t4,s10,80002554 <i_2287>

0000000080002538 <i_2281>:
    80002538:	f1a11083          	lh	ra,-230(sp)

000000008000253c <i_2282>:
    8000253c:	0ba11123          	sh	s10,162(sp)

0000000080002540 <i_2283>:
    80002540:	01a12423          	sw	s10,8(sp)

0000000080002544 <i_2284>:
    80002544:	001d8d93          	addi	s11,s11,1
    80002548:	fd0de6e3          	bltu	s11,a6,80002514 <i_2272>

000000008000254c <i_2285>:
    8000254c:	408d0d33          	sub	s10,s10,s0

0000000080002550 <i_2286>:
    80002550:	0a210583          	lb	a1,162(sp)

0000000080002554 <i_2287>:
    80002554:	016e8c63          	beq	t4,s6,8000256c <i_2293>

0000000080002558 <i_2288>:
    80002558:	1e813023          	sd	s0,480(sp)

000000008000255c <i_2289>:
    8000255c:	e3c16403          	lwu	s0,-452(sp)

0000000080002560 <i_2290>:
    80002560:	0e014e83          	lbu	t4,224(sp)

0000000080002564 <i_2291>:
    80002564:	01d586b3          	add	a3,a1,t4

0000000080002568 <i_2292>:
    80002568:	03d4d5b3          	divu	a1,s1,t4

000000008000256c <i_2293>:
    8000256c:	f8013483          	ld	s1,-128(sp)

0000000080002570 <i_2294>:
    80002570:	e5512e23          	sw	s5,-420(sp)

0000000080002574 <i_2295>:
    80002574:	16b12023          	sw	a1,352(sp)

0000000080002578 <i_2296>:
    80002578:	82d00a93          	li	s5,-2003

000000008000257c <i_2297>:
    8000257c:	82f00b13          	li	s6,-2001

0000000080002580 <i_2298>:
    80002580:	1b013583          	ld	a1,432(sp)

0000000080002584 <i_2299>:
    80002584:	00914303          	lbu	t1,9(sp)

0000000080002588 <i_2300>:
    80002588:	00000013          	nop

000000008000258c <i_2301>:
    8000258c:	0355c43b          	divw	s0,a1,s5

0000000080002590 <i_2302>:
    80002590:	fab13423          	sd	a1,-88(sp)

0000000080002594 <i_2303>:
    80002594:	0b012683          	lw	a3,176(sp)

0000000080002598 <i_2304>:
    80002598:	06011683          	lh	a3,96(sp)

000000008000259c <i_2305>:
    8000259c:	00000013          	nop

00000000800025a0 <i_2306>:
    800025a0:	f6813e83          	ld	t4,-152(sp)

00000000800025a4 <i_2307>:
    800025a4:	001a8a93          	addi	s5,s5,1 # 1c859001 <main-0x637a6fff>
    800025a8:	fd5b7ce3          	bleu	s5,s6,80002580 <i_2298>

00000000800025ac <i_2308>:
    800025ac:	03a9bd33          	mulhu	s10,s3,s10

00000000800025b0 <i_2309>:
    800025b0:	00000013          	nop

00000000800025b4 <i_2310>:
    800025b4:	82700993          	li	s3,-2009

00000000800025b8 <i_2311>:
    800025b8:	82b00693          	li	a3,-2005

00000000800025bc <i_2312>:
    800025bc:	41de4e13          	xori	t3,t3,1053

00000000800025c0 <i_2313>:
    800025c0:	10840413          	addi	s0,s0,264 # cc544f2c <_end+0x4c534b18>

00000000800025c4 <i_2314>:
    800025c4:	8c700d13          	li	s10,-1849

00000000800025c8 <i_2315>:
    800025c8:	8ca00e93          	li	t4,-1846

00000000800025cc <i_2316>:
    800025cc:	00000013          	nop

00000000800025d0 <i_2317>:
    800025d0:	404fd79b          	sraiw	a5,t6,0x4

00000000800025d4 <i_2318>:
    800025d4:	034f6333          	rem	t1,t5,s4

00000000800025d8 <i_2319>:
    800025d8:	001d0d13          	addi	s10,s10,1
    800025dc:	ffaef8e3          	bleu	s10,t4,800025cc <i_2316>

00000000800025e0 <i_2320>:
    800025e0:	efe15083          	lhu	ra,-258(sp)

00000000800025e4 <i_2321>:
    800025e4:	00000013          	nop

00000000800025e8 <i_2322>:
    800025e8:	00000013          	nop

00000000800025ec <i_2323>:
    800025ec:	00198993          	addi	s3,s3,1
    800025f0:	fd36d6e3          	ble	s3,a3,800025bc <i_2312>

00000000800025f4 <i_2324>:
    800025f4:	ec016383          	lwu	t2,-320(sp)

00000000800025f8 <i_2325>:
    800025f8:	f9c12083          	lw	ra,-100(sp)

00000000800025fc <i_2326>:
    800025fc:	401d8333          	sub	t1,s11,ra

0000000080002600 <i_2327>:
    80002600:	0bc12c83          	lw	s9,188(sp)

0000000080002604 <i_2328>:
    80002604:	0b013503          	ld	a0,176(sp)

0000000080002608 <i_2329>:
    80002608:	02ecd463          	ble	a4,s9,80002630 <i_2339>

000000008000260c <i_2330>:
    8000260c:	e7413823          	sd	s4,-400(sp)

0000000080002610 <i_2331>:
    80002610:	00ace663          	bltu	s9,a0,8000261c <i_2334>

0000000080002614 <i_2332>:
    80002614:	00000013          	nop

0000000080002618 <i_2333>:
    80002618:	00000013          	nop

000000008000261c <i_2334>:
    8000261c:	e8a10423          	sb	a0,-376(sp)

0000000080002620 <i_2335>:
    80002620:	6d192537          	lui	a0,0x6d192

0000000080002624 <i_2336>:
    80002624:	fc6108a3          	sb	t1,-47(sp)

0000000080002628 <i_2337>:
    80002628:	04013683          	ld	a3,64(sp)

000000008000262c <i_2338>:
    8000262c:	ef411083          	lh	ra,-268(sp)

0000000080002630 <i_2339>:
    80002630:	1aa10f23          	sb	a0,446(sp)

0000000080002634 <i_2340>:
    80002634:	78054e13          	xori	t3,a0,1920

0000000080002638 <i_2341>:
    80002638:	7d000393          	li	t2,2000

000000008000263c <i_2342>:
    8000263c:	7e100313          	li	t1,2017

0000000080002640 <i_2343>:
    80002640:	f772e593          	ori	a1,t0,-137

0000000080002644 <i_2344>:
    80002644:	f9816483          	lwu	s1,-104(sp)

0000000080002648 <i_2345>:
    80002648:	f8d10b03          	lb	s6,-115(sp)

000000008000264c <i_2346>:
    8000264c:	edf10203          	lb	tp,-289(sp)

0000000080002650 <i_2347>:
    80002650:	0c910ea3          	sb	s1,221(sp)

0000000080002654 <i_2348>:
    80002654:	0361dcbb          	divuw	s9,gp,s6

0000000080002658 <i_2349>:
    80002658:	eb612c23          	sw	s6,-328(sp)

000000008000265c <i_2350>:
    8000265c:	00138393          	addi	t2,t2,1
    80002660:	fe7350e3          	ble	t2,t1,80002640 <i_2343>

0000000080002664 <i_2351>:
    80002664:	409c8c33          	sub	s8,s9,s1

0000000080002668 <i_2352>:
    80002668:	01874e63          	blt	a4,s8,80002684 <i_2359>

000000008000266c <i_2353>:
    8000266c:	01696c63          	bltu	s2,s6,80002684 <i_2359>

0000000080002670 <i_2354>:
    80002670:	039cc463          	blt	s9,s9,80002698 <i_2364>

0000000080002674 <i_2355>:
    80002674:	f6510203          	lb	tp,-155(sp)

0000000080002678 <i_2356>:
    80002678:	036b6cb3          	rem	s9,s6,s6

000000008000267c <i_2357>:
    8000267c:	003c9c9b          	slliw	s9,s9,0x3

0000000080002680 <i_2358>:
    80002680:	0a813d83          	ld	s11,168(sp)

0000000080002684 <i_2359>:
    80002684:	02ad93b3          	mulh	t2,s11,a0

0000000080002688 <i_2360>:
    80002688:	004cfb33          	and	s6,s9,tp

000000008000268c <i_2361>:
    8000268c:	0393a5b3          	mulhsu	a1,t2,s9

0000000080002690 <i_2362>:
    80002690:	00000013          	nop

0000000080002694 <i_2363>:
    80002694:	00000013          	nop

0000000080002698 <i_2364>:
    80002698:	18a14e83          	lbu	t4,394(sp)

000000008000269c <i_2365>:
    8000269c:	00000013          	nop

00000000800026a0 <i_2366>:
    800026a0:	82600a13          	li	s4,-2010

00000000800026a4 <i_2367>:
    800026a4:	82900513          	li	a0,-2007

00000000800026a8 <i_2368>:
    800026a8:	ee713423          	sd	t2,-280(sp)

00000000800026ac <i_2369>:
    800026ac:	030e9463          	bne	t4,a6,800026d4 <i_2378>

00000000800026b0 <i_2370>:
    800026b0:	00710d23          	sb	t2,26(sp)

00000000800026b4 <i_2371>:
    800026b4:	00000013          	nop

00000000800026b8 <i_2372>:
    800026b8:	01300993          	li	s3,19

00000000800026bc <i_2373>:
    800026bc:	0135d83b          	srlw	a6,a1,s3

00000000800026c0 <i_2374>:
    800026c0:	001a0a13          	addi	s4,s4,1
    800026c4:	ff4572e3          	bleu	s4,a0,800026a8 <i_2368>

00000000800026c8 <i_2375>:
    800026c8:	e5812403          	lw	s0,-424(sp)

00000000800026cc <i_2376>:
    800026cc:	09611583          	lh	a1,150(sp)

00000000800026d0 <i_2377>:
    800026d0:	17812083          	lw	ra,376(sp)

00000000800026d4 <i_2378>:
    800026d4:	00a00693          	li	a3,10

00000000800026d8 <i_2379>:
    800026d8:	40d5d5b3          	sra	a1,a1,a3

00000000800026dc <i_2380>:
    800026dc:	ead11623          	sh	a3,-340(sp)

00000000800026e0 <i_2381>:
    800026e0:	e2d11c23          	sh	a3,-456(sp)

00000000800026e4 <i_2382>:
    800026e4:	0130fa63          	bleu	s3,ra,800026f8 <i_2387>

00000000800026e8 <i_2383>:
    800026e8:	15013683          	ld	a3,336(sp)

00000000800026ec <i_2384>:
    800026ec:	f6a10523          	sb	a0,-150(sp)

00000000800026f0 <i_2385>:
    800026f0:	00000013          	nop

00000000800026f4 <i_2386>:
    800026f4:	ed713023          	sd	s7,-320(sp)

00000000800026f8 <i_2387>:
    800026f8:	40255393          	srai	t2,a0,0x2

00000000800026fc <i_2388>:
    800026fc:	fa314e03          	lbu	t3,-93(sp)

0000000080002700 <i_2389>:
    80002700:	8d500513          	li	a0,-1835

0000000080002704 <i_2390>:
    80002704:	8dd00693          	li	a3,-1827

0000000080002708 <i_2391>:
    80002708:	f3e11303          	lh	t1,-194(sp)

000000008000270c <i_2392>:
    8000270c:	00000013          	nop

0000000080002710 <i_2393>:
    80002710:	85100a93          	li	s5,-1967

0000000080002714 <i_2394>:
    80002714:	85c00f13          	li	t5,-1956

0000000080002718 <i_2395>:
    80002718:	16813303          	ld	t1,360(sp)

000000008000271c <i_2396>:
    8000271c:	001a8a93          	addi	s5,s5,1
    80002720:	ffea9ce3          	bne	s5,t5,80002718 <i_2395>

0000000080002724 <i_2397>:
    80002724:	06b68393          	addi	t2,a3,107

0000000080002728 <i_2398>:
    80002728:	f9d10583          	lb	a1,-99(sp)

000000008000272c <i_2399>:
    8000272c:	ec410a03          	lb	s4,-316(sp)

0000000080002730 <i_2400>:
    80002730:	f2016603          	lwu	a2,-224(sp)

0000000080002734 <i_2401>:
    80002734:	02d55333          	divu	t1,a0,a3

0000000080002738 <i_2402>:
    80002738:	00150513          	addi	a0,a0,1 # 6d192001 <main-0x12e6dfff>
    8000273c:	fca6d6e3          	ble	a0,a3,80002708 <i_2391>

0000000080002740 <i_2403>:
    80002740:	feca0e97          	auipc	t4,0xfeca0

0000000080002744 <i_2404>:
    80002744:	10e14483          	lbu	s1,270(sp)

0000000080002748 <i_2405>:
    80002748:	00c6ec63          	bltu	a3,a2,80002760 <i_2411>

000000008000274c <i_2406>:
    8000274c:	00d30e33          	add	t3,t1,a3

0000000080002750 <i_2407>:
    80002750:	02b606bb          	mulw	a3,a2,a1

0000000080002754 <i_2408>:
    80002754:	00c35263          	ble	a2,t1,80002758 <i_2409>

0000000080002758 <i_2409>:
    80002758:	07013683          	ld	a3,112(sp)

000000008000275c <i_2410>:
    8000275c:	e8a15503          	lhu	a0,-374(sp)

0000000080002760 <i_2411>:
    80002760:	208ae513          	ori	a0,s5,520

0000000080002764 <i_2412>:
    80002764:	00435c93          	srli	s9,t1,0x4

0000000080002768 <i_2413>:
    80002768:	00633633          	sltu	a2,t1,t1

000000008000276c <i_2414>:
    8000276c:	16016303          	lwu	t1,352(sp)

0000000080002770 <i_2415>:
    80002770:	01f37663          	bleu	t6,t1,8000277c <i_2418>

0000000080002774 <i_2416>:
    80002774:	f3816303          	lwu	t1,-200(sp)

0000000080002778 <i_2417>:
    80002778:	10213423          	sd	sp,264(sp)

000000008000277c <i_2418>:
    8000277c:	07e14303          	lbu	t1,126(sp)

0000000080002780 <i_2419>:
    80002780:	0a411d23          	sh	tp,186(sp)

0000000080002784 <i_2420>:
    80002784:	f1c11b03          	lh	s6,-228(sp)

0000000080002788 <i_2421>:
    80002788:	02a36e3b          	remw	t3,t1,a0

000000008000278c <i_2422>:
    8000278c:	ff812183          	lw	gp,-8(sp)

0000000080002790 <i_2423>:
    80002790:	0391f463          	bleu	s9,gp,800027b8 <i_2433>

0000000080002794 <i_2424>:
    80002794:	06416e83          	lwu	t4,100(sp)

0000000080002798 <i_2425>:
    80002798:	f4611523          	sh	t1,-182(sp)

000000008000279c <i_2426>:
    8000279c:	019ce333          	or	t1,s9,s9

00000000800027a0 <i_2427>:
    800027a0:	ef611b83          	lh	s7,-266(sp)

00000000800027a4 <i_2428>:
    800027a4:	637e851b          	addiw	a0,t4,1591

00000000800027a8 <i_2429>:
    800027a8:	5d81a4b7          	lui	s1,0x5d81a

00000000800027ac <i_2430>:
    800027ac:	15816583          	lwu	a1,344(sp)

00000000800027b0 <i_2431>:
    800027b0:	f5912623          	sw	s9,-180(sp)

00000000800027b4 <i_2432>:
    800027b4:	786c8593          	addi	a1,s9,1926

00000000800027b8 <i_2433>:
    800027b8:	f1e15583          	lhu	a1,-226(sp)

00000000800027bc <i_2434>:
    800027bc:	03912423          	sw	s9,40(sp)

00000000800027c0 <i_2435>:
    800027c0:	7b200c93          	li	s9,1970

00000000800027c4 <i_2436>:
    800027c4:	7c000b13          	li	s6,1984

00000000800027c8 <i_2437>:
    800027c8:	03654533          	div	a0,a0,s6

00000000800027cc <i_2438>:
    800027cc:	00b545b3          	xor	a1,a0,a1

00000000800027d0 <i_2439>:
    800027d0:	21fc8d17          	auipc	s10,0x21fc8

00000000800027d4 <i_2440>:
    800027d4:	02a5e663          	bltu	a1,a0,80002800 <i_2450>

00000000800027d8 <i_2441>:
    800027d8:	001c8c93          	addi	s9,s9,1
    800027dc:	ff6ce6e3          	bltu	s9,s6,800027c8 <i_2437>

00000000800027e0 <i_2442>:
    800027e0:	f4c12623          	sw	a2,-180(sp)

00000000800027e4 <i_2443>:
    800027e4:	1c415603          	lhu	a2,452(sp)

00000000800027e8 <i_2444>:
    800027e8:	5b0bc637          	lui	a2,0x5b0bc

00000000800027ec <i_2445>:
    800027ec:	efc15283          	lhu	t0,-260(sp)

00000000800027f0 <i_2446>:
    800027f0:	00c5e663          	bltu	a1,a2,800027fc <i_2449>

00000000800027f4 <i_2447>:
    800027f4:	01a10923          	sb	s10,18(sp)

00000000800027f8 <i_2448>:
    800027f8:	eea13023          	sd	a0,-288(sp)

00000000800027fc <i_2449>:
    800027fc:	e8614503          	lbu	a0,-378(sp)

0000000080002800 <i_2450>:
    80002800:	02a66bbb          	remw	s7,a2,a0

0000000080002804 <i_2451>:
    80002804:	ee111123          	sh	ra,-286(sp)

0000000080002808 <i_2452>:
    80002808:	88200593          	li	a1,-1918

000000008000280c <i_2453>:
    8000280c:	88f00393          	li	t2,-1905

0000000080002810 <i_2454>:
    80002810:	bad2ed13          	ori	s10,t0,-1107

0000000080002814 <i_2455>:
    80002814:	e6c11c23          	sh	a2,-392(sp)

0000000080002818 <i_2456>:
    80002818:	f0510603          	lb	a2,-251(sp)

000000008000281c <i_2457>:
    8000281c:	01f14a03          	lbu	s4,31(sp)

0000000080002820 <i_2458>:
    80002820:	005682b3          	add	t0,a3,t0

0000000080002824 <i_2459>:
    80002824:	18013283          	ld	t0,384(sp)

0000000080002828 <i_2460>:
    80002828:	fa114c83          	lbu	s9,-95(sp)

000000008000282c <i_2461>:
    8000282c:	00158593          	addi	a1,a1,1
    80002830:	fe7590e3          	bne	a1,t2,80002810 <i_2454>

0000000080002834 <i_2462>:
    80002834:	eec16a03          	lwu	s4,-276(sp)

0000000080002838 <i_2463>:
    80002838:	982357b7          	lui	a5,0x98235

000000008000283c <i_2464>:
    8000283c:	0252d463          	ble	t0,t0,80002864 <i_2474>

0000000080002840 <i_2465>:
    80002840:	01462cb3          	slt	s9,a2,s4

0000000080002844 <i_2466>:
    80002844:	034a0e33          	mul	t3,s4,s4

0000000080002848 <i_2467>:
    80002848:	402e5e13          	srai	t3,t3,0x2

000000008000284c <i_2468>:
    8000284c:	01ccf263          	bleu	t3,s9,80002850 <i_2469>

0000000080002850 <i_2469>:
    80002850:	03ce5e33          	divu	t3,t3,t3

0000000080002854 <i_2470>:
    80002854:	00013d03          	ld	s10,0(sp)

0000000080002858 <i_2471>:
    80002858:	5eae3093          	sltiu	ra,t3,1514

000000008000285c <i_2472>:
    8000285c:	01ce0663          	beq	t3,t3,80002868 <i_2475>

0000000080002860 <i_2473>:
    80002860:	02f7e063          	bltu	a5,a5,80002880 <i_2481>

0000000080002864 <i_2474>:
    80002864:	021996b3          	mulh	a3,s3,ra

0000000080002868 <i_2475>:
    80002868:	19710183          	lb	gp,407(sp)

000000008000286c <i_2476>:
    8000286c:	03cd7463          	bleu	t3,s10,80002894 <i_2486>

0000000080002870 <i_2477>:
    80002870:	0047dc9b          	srliw	s9,a5,0x4

0000000080002874 <i_2478>:
    80002874:	f8910f03          	lb	t5,-119(sp)

0000000080002878 <i_2479>:
    80002878:	19314403          	lbu	s0,403(sp)

000000008000287c <i_2480>:
    8000287c:	06511423          	sh	t0,104(sp)

0000000080002880 <i_2481>:
    80002880:	f0813a03          	ld	s4,-248(sp)

0000000080002884 <i_2482>:
    80002884:	40848eb3          	sub	t4,s1,s0

0000000080002888 <i_2483>:
    80002888:	1bb13023          	sd	s11,416(sp)

000000008000288c <i_2484>:
    8000288c:	f2513423          	sd	t0,-216(sp)

0000000080002890 <i_2485>:
    80002890:	02fee463          	bltu	t4,a5,800028b8 <i_2495>

0000000080002894 <i_2486>:
    80002894:	ffb10c23          	sb	s11,-8(sp)

0000000080002898 <i_2487>:
    80002898:	00000013          	nop

000000008000289c <i_2488>:
    8000289c:	f3214683          	lbu	a3,-206(sp)

00000000800028a0 <i_2489>:
    800028a0:	11e13c23          	sd	t5,280(sp)

00000000800028a4 <i_2490>:
    800028a4:	03ef4ebb          	divw	t4,t5,t5

00000000800028a8 <i_2491>:
    800028a8:	f6013d03          	ld	s10,-160(sp)

00000000800028ac <i_2492>:
    800028ac:	01e6e833          	or	a6,a3,t5

00000000800028b0 <i_2493>:
    800028b0:	01d5bc33          	sltu	s8,a1,t4

00000000800028b4 <i_2494>:
    800028b4:	e72ee793          	ori	a5,t4,-398

00000000800028b8 <i_2495>:
    800028b8:	418c0cb3          	sub	s9,s8,s8

00000000800028bc <i_2496>:
    800028bc:	12f12823          	sw	a5,304(sp)

00000000800028c0 <i_2497>:
    800028c0:	7d000f13          	li	t5,2000

00000000800028c4 <i_2498>:
    800028c4:	7e000d93          	li	s11,2016

00000000800028c8 <i_2499>:
    800028c8:	efe12223          	sw	t5,-284(sp)

00000000800028cc <i_2500>:
    800028cc:	11812e23          	sw	s8,284(sp)

00000000800028d0 <i_2501>:
    800028d0:	001f0f13          	addi	t5,t5,1
    800028d4:	ffbf6ae3          	bltu	t5,s11,800028c8 <i_2499>

00000000800028d8 <i_2502>:
    800028d8:	00000013          	nop

00000000800028dc <i_2503>:
    800028dc:	01a2e633          	or	a2,t0,s10

00000000800028e0 <i_2504>:
    800028e0:	41dd033b          	subw	t1,s10,t4

00000000800028e4 <i_2505>:
    800028e4:	fc416d03          	lwu	s10,-60(sp)

00000000800028e8 <i_2506>:
    800028e8:	e9415c83          	lhu	s9,-364(sp)

00000000800028ec <i_2507>:
    800028ec:	00ec8eb3          	add	t4,s9,a4

00000000800028f0 <i_2508>:
    800028f0:	02a14403          	lbu	s0,42(sp)

00000000800028f4 <i_2509>:
    800028f4:	03a46063          	bltu	s0,s10,80002914 <i_2517>

00000000800028f8 <i_2510>:
    800028f8:	f3815b83          	lhu	s7,-200(sp)

00000000800028fc <i_2511>:
    800028fc:	01746863          	bltu	s0,s7,8000290c <i_2515>

0000000080002900 <i_2512>:
    80002900:	0b214983          	lbu	s3,178(sp)

0000000080002904 <i_2513>:
    80002904:	15c12b83          	lw	s7,348(sp)

0000000080002908 <i_2514>:
    80002908:	0029d993          	srli	s3,s3,0x2

000000008000290c <i_2515>:
    8000290c:	004bd993          	srli	s3,s7,0x4

0000000080002910 <i_2516>:
    80002910:	0139de63          	ble	s3,s3,8000292c <i_2523>

0000000080002914 <i_2517>:
    80002914:	fea15383          	lhu	t2,-22(sp)

0000000080002918 <i_2518>:
    80002918:	017be9b3          	or	s3,s7,s7

000000008000291c <i_2519>:
    8000291c:	0369d463          	ble	s6,s3,80002944 <i_2529>

0000000080002920 <i_2520>:
    80002920:	0139fc63          	bleu	s3,s3,80002938 <i_2526>

0000000080002924 <i_2521>:
    80002924:	05f10b03          	lb	s6,95(sp)

0000000080002928 <i_2522>:
    80002928:	e6313c23          	sd	gp,-392(sp)

000000008000292c <i_2523>:
    8000292c:	0035dc13          	srli	s8,a1,0x3

0000000080002930 <i_2524>:
    80002930:	ee211023          	sh	sp,-288(sp)

0000000080002934 <i_2525>:
    80002934:	e993cc37          	lui	s8,0xe993c

0000000080002938 <i_2526>:
    80002938:	f9814603          	lbu	a2,-104(sp)

000000008000293c <i_2527>:
    8000293c:	62038393          	addi	t2,t2,1568

0000000080002940 <i_2528>:
    80002940:	01f00393          	li	t2,31

0000000080002944 <i_2529>:
    80002944:	4073d3bb          	sraw	t2,t2,t2

0000000080002948 <i_2530>:
    80002948:	eec12423          	sw	a2,-280(sp)

000000008000294c <i_2531>:
    8000294c:	81f00593          	li	a1,-2017

0000000080002950 <i_2532>:
    80002950:	82c00993          	li	s3,-2004

0000000080002954 <i_2533>:
    80002954:	fe813483          	ld	s1,-24(sp)

0000000080002958 <i_2534>:
    80002958:	00000013          	nop

000000008000295c <i_2535>:
    8000295c:	02700393          	li	t2,39

0000000080002960 <i_2536>:
    80002960:	4073d0b3          	sra	ra,t2,t2

0000000080002964 <i_2537>:
    80002964:	00158593          	addi	a1,a1,1
    80002968:	feb9d6e3          	ble	a1,s3,80002954 <i_2533>

000000008000296c <i_2538>:
    8000296c:	0290f0b3          	remu	ra,ra,s1

0000000080002970 <i_2539>:
    80002970:	1b20b793          	sltiu	a5,ra,434

0000000080002974 <i_2540>:
    80002974:	0340fd3b          	remuw	s10,ra,s4

0000000080002978 <i_2541>:
    80002978:	03100093          	li	ra,49

000000008000297c <i_2542>:
    8000297c:	001e90b3          	sll	ra,t4,ra

0000000080002980 <i_2543>:
    80002980:	ec013783          	ld	a5,-320(sp)

0000000080002984 <i_2544>:
    80002984:	ef97c513          	xori	a0,a5,-263

0000000080002988 <i_2545>:
    80002988:	0015179b          	slliw	a5,a0,0x1

000000008000298c <i_2546>:
    8000298c:	06f13023          	sd	a5,96(sp)

0000000080002990 <i_2547>:
    80002990:	00410583          	lb	a1,4(sp)

0000000080002994 <i_2548>:
    80002994:	ffe11503          	lh	a0,-2(sp)

0000000080002998 <i_2549>:
    80002998:	0046949b          	slliw	s1,a3,0x4

000000008000299c <i_2550>:
    8000299c:	0ad11423          	sh	a3,168(sp)

00000000800029a0 <i_2551>:
    800029a0:	82b00693          	li	a3,-2005

00000000800029a4 <i_2552>:
    800029a4:	83a00593          	li	a1,-1990

00000000800029a8 <i_2553>:
    800029a8:	02d5f43b          	remuw	s0,a1,a3

00000000800029ac <i_2554>:
    800029ac:	01800c93          	li	s9,24

00000000800029b0 <i_2555>:
    800029b0:	4196dd3b          	sraw	s10,a3,s9

00000000800029b4 <i_2556>:
    800029b4:	13411303          	lh	t1,308(sp)

00000000800029b8 <i_2557>:
    800029b8:	039354bb          	divuw	s1,t1,s9

00000000800029bc <i_2558>:
    800029bc:	0ab10a03          	lb	s4,171(sp)

00000000800029c0 <i_2559>:
    800029c0:	009cf433          	and	s0,s9,s1

00000000800029c4 <i_2560>:
    800029c4:	030c883b          	mulw	a6,s9,a6

00000000800029c8 <i_2561>:
    800029c8:	0285ecb3          	rem	s9,a1,s0

00000000800029cc <i_2562>:
    800029cc:	00000013          	nop

00000000800029d0 <i_2563>:
    800029d0:	19e15803          	lhu	a6,414(sp)

00000000800029d4 <i_2564>:
    800029d4:	0d414d83          	lbu	s11,212(sp)

00000000800029d8 <i_2565>:
    800029d8:	ea811923          	sh	s0,-334(sp)

00000000800029dc <i_2566>:
    800029dc:	03b13c23          	sd	s11,56(sp)

00000000800029e0 <i_2567>:
    800029e0:	00168693          	addi	a3,a3,1
    800029e4:	fcd5f2e3          	bleu	a3,a1,800029a8 <i_2553>

00000000800029e8 <i_2568>:
    800029e8:	f2611603          	lh	a2,-218(sp)

00000000800029ec <i_2569>:
    800029ec:	99a42593          	slti	a1,s0,-1638

00000000800029f0 <i_2570>:
    800029f0:	01b61c63          	bne	a2,s11,80002a08 <i_2576>

00000000800029f4 <i_2571>:
    800029f4:	00cdb6b3          	sltu	a3,s11,a2

00000000800029f8 <i_2572>:
    800029f8:	ea815a83          	lhu	s5,-344(sp)

00000000800029fc <i_2573>:
    800029fc:	02865233          	divu	tp,a2,s0

0000000080002a00 <i_2574>:
    80002a00:	015a8c33          	add	s8,s5,s5

0000000080002a04 <i_2575>:
    80002a04:	18812683          	lw	a3,392(sp)

0000000080002a08 <i_2576>:
    80002a08:	030de833          	rem	a6,s11,a6

0000000080002a0c <i_2577>:
    80002a0c:	ec710b03          	lb	s6,-313(sp)

0000000080002a10 <i_2578>:
    80002a10:	016c3db3          	sltu	s11,s8,s6

0000000080002a14 <i_2579>:
    80002a14:	f5811b23          	sh	s8,-170(sp)

0000000080002a18 <i_2580>:
    80002a18:	13810723          	sb	s8,302(sp)

0000000080002a1c <i_2581>:
    80002a1c:	016f8463          	beq	t6,s6,80002a24 <i_2583>

0000000080002a20 <i_2582>:
    80002a20:	01bb6263          	bltu	s6,s11,80002a24 <i_2583>

0000000080002a24 <i_2583>:
    80002a24:	f7d14d83          	lbu	s11,-131(sp)

0000000080002a28 <i_2584>:
    80002a28:	cffda993          	slti	s3,s11,-769

0000000080002a2c <i_2585>:
    80002a2c:	0181e463          	bltu	gp,s8,80002a34 <i_2587>

0000000080002a30 <i_2586>:
    80002a30:	025d8463          	beq	s11,t0,80002a58 <i_2596>

0000000080002a34 <i_2587>:
    80002a34:	01b98663          	beq	s3,s11,80002a40 <i_2590>

0000000080002a38 <i_2588>:
    80002a38:	15b13823          	sd	s11,336(sp)

0000000080002a3c <i_2589>:
    80002a3c:	013c1a63          	bne	s8,s3,80002a50 <i_2594>

0000000080002a40 <i_2590>:
    80002a40:	0c611d83          	lh	s11,198(sp)

0000000080002a44 <i_2591>:
    80002a44:	01bddc63          	ble	s11,s11,80002a5c <i_2597>

0000000080002a48 <i_2592>:
    80002a48:	f3311023          	sh	s3,-224(sp)

0000000080002a4c <i_2593>:
    80002a4c:	ec815e03          	lhu	t3,-312(sp)

0000000080002a50 <i_2594>:
    80002a50:	f5013d83          	ld	s11,-176(sp)

0000000080002a54 <i_2595>:
    80002a54:	ea012383          	lw	t2,-352(sp)

0000000080002a58 <i_2596>:
    80002a58:	01c989b3          	add	s3,s3,t3

0000000080002a5c <i_2597>:
    80002a5c:	09a11f03          	lh	t5,154(sp)

0000000080002a60 <i_2598>:
    80002a60:	41b382b3          	sub	t0,t2,s11

0000000080002a64 <i_2599>:
    80002a64:	03600293          	li	t0,54

0000000080002a68 <i_2600>:
    80002a68:	00521233          	sll	tp,tp,t0

0000000080002a6c <i_2601>:
    80002a6c:	f1410603          	lb	a2,-236(sp)

0000000080002a70 <i_2602>:
    80002a70:	ed114f03          	lbu	t5,-303(sp)

0000000080002a74 <i_2603>:
    80002a74:	00000013          	nop

0000000080002a78 <i_2604>:
    80002a78:	11310603          	lb	a2,275(sp)

0000000080002a7c <i_2605>:
    80002a7c:	86e00f13          	li	t5,-1938

0000000080002a80 <i_2606>:
    80002a80:	88100d93          	li	s11,-1919

0000000080002a84 <i_2607>:
    80002a84:	001f0f13          	addi	t5,t5,1
    80002a88:	ffedfee3          	bleu	t5,s11,80002a84 <i_2607>

0000000080002a8c <i_2608>:
    80002a8c:	01815683          	lhu	a3,24(sp)

0000000080002a90 <i_2609>:
    80002a90:	06014603          	lbu	a2,96(sp)

0000000080002a94 <i_2610>:
    80002a94:	0c811783          	lh	a5,200(sp)

0000000080002a98 <i_2611>:
    80002a98:	00361513          	slli	a0,a2,0x3

0000000080002a9c <i_2612>:
    80002a9c:	12a11223          	sh	a0,292(sp)

0000000080002aa0 <i_2613>:
    80002aa0:	00b57533          	and	a0,a0,a1

0000000080002aa4 <i_2614>:
    80002aa4:	00a54333          	xor	t1,a0,a0

0000000080002aa8 <i_2615>:
    80002aa8:	e2c12d83          	lw	s11,-468(sp)

0000000080002aac <i_2616>:
    80002aac:	9add8c9b          	addiw	s9,s11,-1619

0000000080002ab0 <i_2617>:
    80002ab0:	0062b333          	sltu	t1,t0,t1

0000000080002ab4 <i_2618>:
    80002ab4:	15a11723          	sh	s10,334(sp)

0000000080002ab8 <i_2619>:
    80002ab8:	11d14c03          	lbu	s8,285(sp)

0000000080002abc <i_2620>:
    80002abc:	026c4263          	blt	s8,t1,80002ae0 <i_2629>

0000000080002ac0 <i_2621>:
    80002ac0:	03ad1d33          	mulh	s10,s10,s10

0000000080002ac4 <i_2622>:
    80002ac4:	ea414303          	lbu	t1,-348(sp)

0000000080002ac8 <i_2623>:
    80002ac8:	6ced3d13          	sltiu	s10,s10,1742

0000000080002acc <i_2624>:
    80002acc:	19111c23          	sh	a7,408(sp)

0000000080002ad0 <i_2625>:
    80002ad0:	e7011683          	lh	a3,-400(sp)

0000000080002ad4 <i_2626>:
    80002ad4:	406300bb          	subw	ra,t1,t1

0000000080002ad8 <i_2627>:
    80002ad8:	e7412303          	lw	t1,-396(sp)

0000000080002adc <i_2628>:
    80002adc:	00000013          	nop

0000000080002ae0 <i_2629>:
    80002ae0:	16e15083          	lhu	ra,366(sp)

0000000080002ae4 <i_2630>:
    80002ae4:	ea610c23          	sb	t1,-328(sp)

0000000080002ae8 <i_2631>:
    80002ae8:	84c00993          	li	s3,-1972

0000000080002aec <i_2632>:
    80002aec:	85b00d13          	li	s10,-1957

0000000080002af0 <i_2633>:
    80002af0:	00000013          	nop

0000000080002af4 <i_2634>:
    80002af4:	00100a13          	li	s4,1

0000000080002af8 <i_2635>:
    80002af8:	414d5cbb          	sraw	s9,s10,s4

0000000080002afc <i_2636>:
    80002afc:	0140c433          	xor	s0,ra,s4

0000000080002b00 <i_2637>:
    80002b00:	00000013          	nop

0000000080002b04 <i_2638>:
    80002b04:	0136ce63          	blt	a3,s3,80002b20 <i_2644>

0000000080002b08 <i_2639>:
    80002b08:	00198993          	addi	s3,s3,1
    80002b0c:	ffa9c2e3          	blt	s3,s10,80002af0 <i_2633>

0000000080002b10 <i_2640>:
    80002b10:	0069f463          	bleu	t1,s3,80002b18 <i_2642>

0000000080002b14 <i_2641>:
    80002b14:	1b211203          	lh	tp,434(sp)

0000000080002b18 <i_2642>:
    80002b18:	e6012303          	lw	t1,-416(sp)

0000000080002b1c <i_2643>:
    80002b1c:	02e00f13          	li	t5,46

0000000080002b20 <i_2644>:
    80002b20:	01ec9d33          	sll	s10,s9,t5

0000000080002b24 <i_2645>:
    80002b24:	0263643b          	remw	s0,t1,t1

0000000080002b28 <i_2646>:
    80002b28:	03644433          	div	s0,s0,s6

0000000080002b2c <i_2647>:
    80002b2c:	1a813023          	sd	s0,416(sp)

0000000080002b30 <i_2648>:
    80002b30:	ee010303          	lb	t1,-288(sp)

0000000080002b34 <i_2649>:
    80002b34:	008361b3          	or	gp,t1,s0

0000000080002b38 <i_2650>:
    80002b38:	03a35d33          	divu	s10,t1,s10

0000000080002b3c <i_2651>:
    80002b3c:	0c810923          	sb	s0,210(sp)

0000000080002b40 <i_2652>:
    80002b40:	0061e863          	bltu	gp,t1,80002b50 <i_2656>

0000000080002b44 <i_2653>:
    80002b44:	03de8d3b          	mulw	s10,t4,t4

0000000080002b48 <i_2654>:
    80002b48:	e5813c23          	sd	s8,-424(sp)

0000000080002b4c <i_2655>:
    80002b4c:	1c110203          	lb	tp,449(sp)

0000000080002b50 <i_2656>:
    80002b50:	00000013          	nop

0000000080002b54 <i_2657>:
    80002b54:	e4816503          	lwu	a0,-440(sp)

0000000080002b58 <i_2658>:
    80002b58:	82c00d93          	li	s11,-2004

0000000080002b5c <i_2659>:
    80002b5c:	83c00e93          	li	t4,-1988

0000000080002b60 <i_2660>:
    80002b60:	06013203          	ld	tp,96(sp)

0000000080002b64 <i_2661>:
    80002b64:	f1f10723          	sb	t6,-242(sp)

0000000080002b68 <i_2662>:
    80002b68:	87f00d13          	li	s10,-1921

0000000080002b6c <i_2663>:
    80002b6c:	89100c13          	li	s8,-1903

0000000080002b70 <i_2664>:
    80002b70:	038c35b3          	mulhu	a1,s8,s8

0000000080002b74 <i_2665>:
    80002b74:	001d0d13          	addi	s10,s10,1 # a1fca7d1 <_end+0x21fba3bd>
    80002b78:	ffac5ce3          	ble	s10,s8,80002b70 <i_2664>

0000000080002b7c <i_2666>:
    80002b7c:	03ac1063          	bne	s8,s10,80002b9c <i_2673>

0000000080002b80 <i_2667>:
    80002b80:	001d8d93          	addi	s11,s11,1
    80002b84:	fdbedee3          	ble	s11,t4,80002b60 <i_2660>

0000000080002b88 <i_2668>:
    80002b88:	01d27e63          	bleu	t4,tp,80002ba4 <i_2675>

0000000080002b8c <i_2669>:
    80002b8c:	e3013603          	ld	a2,-464(sp)

0000000080002b90 <i_2670>:
    80002b90:	e8556213          	ori	tp,a0,-379

0000000080002b94 <i_2671>:
    80002b94:	03aa07b3          	mul	a5,s4,s10

0000000080002b98 <i_2672>:
    80002b98:	01a13823          	sd	s10,16(sp)

0000000080002b9c <i_2673>:
    80002b9c:	1cc15583          	lhu	a1,460(sp)

0000000080002ba0 <i_2674>:
    80002ba0:	f6812d03          	lw	s10,-152(sp)

0000000080002ba4 <i_2675>:
    80002ba4:	0317fe3b          	remuw	t3,a5,a7

0000000080002ba8 <i_2676>:
    80002ba8:	00013783          	ld	a5,0(sp)

0000000080002bac <i_2677>:
    80002bac:	02c7ce33          	div	t3,a5,a2

0000000080002bb0 <i_2678>:
    80002bb0:	16e15403          	lhu	s0,366(sp)

0000000080002bb4 <i_2679>:
    80002bb4:	12c10523          	sb	a2,298(sp)

0000000080002bb8 <i_2680>:
    80002bb8:	10415603          	lhu	a2,260(sp)

0000000080002bbc <i_2681>:
    80002bbc:	7c100193          	li	gp,1985

0000000080002bc0 <i_2682>:
    80002bc0:	7d500c13          	li	s8,2005

0000000080002bc4 <i_2683>:
    80002bc4:	fe013783          	ld	a5,-32(sp)

0000000080002bc8 <i_2684>:
    80002bc8:	00118193          	addi	gp,gp,1 # 1cff7001 <main-0x63008fff>
    80002bcc:	ff81cce3          	blt	gp,s8,80002bc4 <i_2683>

0000000080002bd0 <i_2685>:
    80002bd0:	13e10983          	lb	s3,318(sp)

0000000080002bd4 <i_2686>:
    80002bd4:	0029119b          	slliw	gp,s2,0x2

0000000080002bd8 <i_2687>:
    80002bd8:	05813983          	ld	s3,88(sp)

0000000080002bdc <i_2688>:
    80002bdc:	12013c03          	ld	s8,288(sp)

0000000080002be0 <i_2689>:
    80002be0:	00cc2eb3          	slt	t4,s8,a2

0000000080002be4 <i_2690>:
    80002be4:	1a513423          	sd	t0,424(sp)

0000000080002be8 <i_2691>:
    80002be8:	05615783          	lhu	a5,86(sp)

0000000080002bec <i_2692>:
    80002bec:	00f28c33          	add	s8,t0,a5

0000000080002bf0 <i_2693>:
    80002bf0:	06810ca3          	sb	s0,121(sp)

0000000080002bf4 <i_2694>:
    80002bf4:	ef011783          	lh	a5,-272(sp)

0000000080002bf8 <i_2695>:
    80002bf8:	02b00c93          	li	s9,43

0000000080002bfc <i_2696>:
    80002bfc:	019e97b3          	sll	a5,t4,s9

0000000080002c00 <i_2697>:
    80002c00:	e4416183          	lwu	gp,-444(sp)

0000000080002c04 <i_2698>:
    80002c04:	fa312e23          	sw	gp,-68(sp)

0000000080002c08 <i_2699>:
    80002c08:	028e6463          	bltu	t3,s0,80002c30 <i_2709>

0000000080002c0c <i_2700>:
    80002c0c:	17813783          	ld	a5,376(sp)

0000000080002c10 <i_2701>:
    80002c10:	f6f13823          	sd	a5,-144(sp)

0000000080002c14 <i_2702>:
    80002c14:	e2913823          	sd	s1,-464(sp)

0000000080002c18 <i_2703>:
    80002c18:	004cb5b3          	sltu	a1,s9,tp

0000000080002c1c <i_2704>:
    80002c1c:	01958263          	beq	a1,s9,80002c20 <i_2705>

0000000080002c20 <i_2705>:
    80002c20:	50def413          	andi	s0,t4,1293

0000000080002c24 <i_2706>:
    80002c24:	00e00993          	li	s3,14

0000000080002c28 <i_2707>:
    80002c28:	01339cbb          	sllw	s9,t2,s3

0000000080002c2c <i_2708>:
    80002c2c:	08d14183          	lbu	gp,141(sp)

0000000080002c30 <i_2709>:
    80002c30:	0f3101a3          	sb	s3,227(sp)

0000000080002c34 <i_2710>:
    80002c34:	08611303          	lh	t1,134(sp)

0000000080002c38 <i_2711>:
    80002c38:	0b314683          	lbu	a3,179(sp)

0000000080002c3c <i_2712>:
    80002c3c:	03a11483          	lh	s1,58(sp)

0000000080002c40 <i_2713>:
    80002c40:	e8810923          	sb	s0,-366(sp)

0000000080002c44 <i_2714>:
    80002c44:	1a112223          	sw	ra,420(sp)

0000000080002c48 <i_2715>:
    80002c48:	02300993          	li	s3,35

0000000080002c4c <i_2716>:
    80002c4c:	4137d3b3          	sra	t2,a5,s3

0000000080002c50 <i_2717>:
    80002c50:	eac12823          	sw	a2,-336(sp)

0000000080002c54 <i_2718>:
    80002c54:	0e9108a3          	sb	s1,241(sp)

0000000080002c58 <i_2719>:
    80002c58:	03838463          	beq	t2,s8,80002c80 <i_2729>

0000000080002c5c <i_2720>:
    80002c5c:	77567593          	andi	a1,a2,1909

0000000080002c60 <i_2721>:
    80002c60:	f0a11383          	lh	t2,-246(sp)

0000000080002c64 <i_2722>:
    80002c64:	0f813783          	ld	a5,248(sp)

0000000080002c68 <i_2723>:
    80002c68:	02412c83          	lw	s9,36(sp)

0000000080002c6c <i_2724>:
    80002c6c:	f9314083          	lbu	ra,-109(sp)

0000000080002c70 <i_2725>:
    80002c70:	ef813383          	ld	t2,-264(sp)

0000000080002c74 <i_2726>:
    80002c74:	1bc15e83          	lhu	t4,444(sp)

0000000080002c78 <i_2727>:
    80002c78:	00000013          	nop

0000000080002c7c <i_2728>:
    80002c7c:	02b2f5b3          	remu	a1,t0,a1

0000000080002c80 <i_2729>:
    80002c80:	ec813083          	ld	ra,-312(sp)

0000000080002c84 <i_2730>:
    80002c84:	00000013          	nop

0000000080002c88 <i_2731>:
    80002c88:	7d300293          	li	t0,2003

0000000080002c8c <i_2732>:
    80002c8c:	7d700193          	li	gp,2007

0000000080002c90 <i_2733>:
    80002c90:	013eb3b3          	sltu	t2,t4,s3

0000000080002c94 <i_2734>:
    80002c94:	f2013403          	ld	s0,-224(sp)

0000000080002c98 <i_2735>:
    80002c98:	00128293          	addi	t0,t0,1 # ec2f0d39 <_end+0x6c2e0925>
    80002c9c:	fe32cae3          	blt	t0,gp,80002c90 <i_2733>

0000000080002ca0 <i_2736>:
    80002ca0:	f55109a3          	sb	s5,-173(sp)

0000000080002ca4 <i_2737>:
    80002ca4:	01041e63          	bne	s0,a6,80002cc0 <i_2744>

0000000080002ca8 <i_2738>:
    80002ca8:	021e543b          	divuw	s0,t3,ra

0000000080002cac <i_2739>:
    80002cac:	041eb093          	sltiu	ra,t4,65

0000000080002cb0 <i_2740>:
    80002cb0:	028292b3          	mulh	t0,t0,s0

0000000080002cb4 <i_2741>:
    80002cb4:	efd103a3          	sb	t4,-281(sp)

0000000080002cb8 <i_2742>:
    80002cb8:	025ec2bb          	divw	t0,t4,t0

0000000080002cbc <i_2743>:
    80002cbc:	0dd12623          	sw	t4,204(sp)

0000000080002cc0 <i_2744>:
    80002cc0:	efd10503          	lb	a0,-259(sp)

0000000080002cc4 <i_2745>:
    80002cc4:	16412f03          	lw	t5,356(sp)

0000000080002cc8 <i_2746>:
    80002cc8:	eb813303          	ld	t1,-328(sp)

0000000080002ccc <i_2747>:
    80002ccc:	0f012303          	lw	t1,240(sp)

0000000080002cd0 <i_2748>:
    80002cd0:	011bbbb3          	sltu	s7,s7,a7

0000000080002cd4 <i_2749>:
    80002cd4:	80000293          	li	t0,-2048

0000000080002cd8 <i_2750>:
    80002cd8:	81000993          	li	s3,-2032

0000000080002cdc <i_2751>:
    80002cdc:	065104a3          	sb	t0,105(sp)

0000000080002ce0 <i_2752>:
    80002ce0:	f46108a3          	sb	t1,-175(sp)

0000000080002ce4 <i_2753>:
    80002ce4:	001f1693          	slli	a3,t5,0x1

0000000080002ce8 <i_2754>:
    80002ce8:	006f6263          	bltu	t5,t1,80002cec <i_2755>

0000000080002cec <i_2755>:
    80002cec:	01200d13          	li	s10,18

0000000080002cf0 <i_2756>:
    80002cf0:	01abd4bb          	srlw	s1,s7,s10

0000000080002cf4 <i_2757>:
    80002cf4:	0369e663          	bltu	s3,s6,80002d20 <i_2767>

0000000080002cf8 <i_2758>:
    80002cf8:	03310aa3          	sb	s3,53(sp)

0000000080002cfc <i_2759>:
    80002cfc:	03b324b3          	mulhsu	s1,t1,s11

0000000080002d00 <i_2760>:
    80002d00:	00128293          	addi	t0,t0,1
    80002d04:	fd32cce3          	blt	t0,s3,80002cdc <i_2751>

0000000080002d08 <i_2761>:
    80002d08:	009b1863          	bne	s6,s1,80002d18 <i_2765>

0000000080002d0c <i_2762>:
    80002d0c:	00d9ee63          	bltu	s3,a3,80002d28 <i_2769>

0000000080002d10 <i_2763>:
    80002d10:	4045551b          	sraiw	a0,a0,0x4

0000000080002d14 <i_2764>:
    80002d14:	1c912223          	sw	s1,452(sp)

0000000080002d18 <i_2765>:
    80002d18:	03a357b3          	divu	a5,t1,s10

0000000080002d1c <i_2766>:
    80002d1c:	00000013          	nop

0000000080002d20 <i_2767>:
    80002d20:	00d13823          	sd	a3,16(sp)

0000000080002d24 <i_2768>:
    80002d24:	ff016783          	lwu	a5,-16(sp)

0000000080002d28 <i_2769>:
    80002d28:	fa511323          	sh	t0,-90(sp)

0000000080002d2c <i_2770>:
    80002d2c:	14913423          	sd	s1,328(sp)

0000000080002d30 <i_2771>:
    80002d30:	79e00f13          	li	t5,1950

0000000080002d34 <i_2772>:
    80002d34:	7b100c93          	li	s9,1969

0000000080002d38 <i_2773>:
    80002d38:	001f0f13          	addi	t5,t5,1
    80002d3c:	ff9f6ee3          	bltu	t5,s9,80002d38 <i_2773>

0000000080002d40 <i_2774>:
    80002d40:	03316063          	bltu	sp,s3,80002d60 <i_2782>

0000000080002d44 <i_2775>:
    80002d44:	e4615503          	lhu	a0,-442(sp)

0000000080002d48 <i_2776>:
    80002d48:	04011983          	lh	s3,64(sp)

0000000080002d4c <i_2777>:
    80002d4c:	11f10d83          	lb	s11,287(sp)

0000000080002d50 <i_2778>:
    80002d50:	01c00d93          	li	s11,28

0000000080002d54 <i_2779>:
    80002d54:	41b7d3bb          	sraw	t2,a5,s11

0000000080002d58 <i_2780>:
    80002d58:	02f3d463          	ble	a5,t2,80002d80 <i_2790>

0000000080002d5c <i_2781>:
    80002d5c:	1b313023          	sd	s3,416(sp)

0000000080002d60 <i_2782>:
    80002d60:	401dd393          	srai	t2,s11,0x1

0000000080002d64 <i_2783>:
    80002d64:	f5811a23          	sh	s8,-172(sp)

0000000080002d68 <i_2784>:
    80002d68:	431c2c13          	slti	s8,s8,1073

0000000080002d6c <i_2785>:
    80002d6c:	02742433          	mulhsu	s0,s0,t2

0000000080002d70 <i_2786>:
    80002d70:	0073da63          	ble	t2,t2,80002d84 <i_2791>

0000000080002d74 <i_2787>:
    80002d74:	0075b5b3          	sltu	a1,a1,t2

0000000080002d78 <i_2788>:
    80002d78:	01813403          	ld	s0,24(sp)

0000000080002d7c <i_2789>:
    80002d7c:	e4813b03          	ld	s6,-440(sp)

0000000080002d80 <i_2790>:
    80002d80:	005c0a63          	beq	s8,t0,80002d94 <i_2795>

0000000080002d84 <i_2791>:
    80002d84:	10816383          	lwu	t2,264(sp)

0000000080002d88 <i_2792>:
    80002d88:	036c4db3          	div	s11,s8,s6

0000000080002d8c <i_2793>:
    80002d8c:	00000013          	nop

0000000080002d90 <i_2794>:
    80002d90:	003a0233          	add	tp,s4,gp

0000000080002d94 <i_2795>:
    80002d94:	00000013          	nop

0000000080002d98 <i_2796>:
    80002d98:	12110203          	lb	tp,289(sp)

0000000080002d9c <i_2797>:
    80002d9c:	88300a13          	li	s4,-1917

0000000080002da0 <i_2798>:
    80002da0:	89200c13          	li	s8,-1902

0000000080002da4 <i_2799>:
    80002da4:	012263b3          	or	t2,tp,s2

0000000080002da8 <i_2800>:
    80002da8:	db5df693          	andi	a3,s11,-587

0000000080002dac <i_2801>:
    80002dac:	001a0a13          	addi	s4,s4,1
    80002db0:	ff8a6ae3          	bltu	s4,s8,80002da4 <i_2799>

0000000080002db4 <i_2802>:
    80002db4:	00700393          	li	t2,7

0000000080002db8 <i_2803>:
    80002db8:	0076dabb          	srlw	s5,a3,t2

0000000080002dbc <i_2804>:
    80002dbc:	007a8463          	beq	s5,t2,80002dc4 <i_2806>

0000000080002dc0 <i_2805>:
    80002dc0:	13b13423          	sd	s11,296(sp)

0000000080002dc4 <i_2806>:
    80002dc4:	13b11923          	sh	s11,306(sp)

0000000080002dc8 <i_2807>:
    80002dc8:	02b54533          	div	a0,a0,a1

0000000080002dcc <i_2808>:
    80002dcc:	00445413          	srli	s0,s0,0x4

0000000080002dd0 <i_2809>:
    80002dd0:	01000313          	li	t1,16

0000000080002dd4 <i_2810>:
    80002dd4:	4063d7b3          	sra	a5,t2,t1

0000000080002dd8 <i_2811>:
    80002dd8:	01524663          	blt	tp,s5,80002de4 <i_2814>

0000000080002ddc <i_2812>:
    80002ddc:	fb013e03          	ld	t3,-80(sp)

0000000080002de0 <i_2813>:
    80002de0:	00a00d93          	li	s11,10

0000000080002de4 <i_2814>:
    80002de4:	41bad3bb          	sraw	t2,s5,s11

0000000080002de8 <i_2815>:
    80002de8:	03baf53b          	remuw	a0,s5,s11

0000000080002dec <i_2816>:
    80002dec:	00000013          	nop

0000000080002df0 <i_2817>:
    80002df0:	e9611403          	lh	s0,-362(sp)

0000000080002df4 <i_2818>:
    80002df4:	84600e93          	li	t4,-1978

0000000080002df8 <i_2819>:
    80002df8:	84e00093          	li	ra,-1970

0000000080002dfc <i_2820>:
    80002dfc:	12812e23          	sw	s0,316(sp)

0000000080002e00 <i_2821>:
    80002e00:	09c12583          	lw	a1,156(sp)

0000000080002e04 <i_2822>:
    80002e04:	4152023b          	subw	tp,tp,s5

0000000080002e08 <i_2823>:
    80002e08:	f5610983          	lb	s3,-170(sp)

0000000080002e0c <i_2824>:
    80002e0c:	1ae11723          	sh	a4,430(sp)

0000000080002e10 <i_2825>:
    80002e10:	007e06b3          	add	a3,t3,t2

0000000080002e14 <i_2826>:
    80002e14:	01c00193          	li	gp,28

0000000080002e18 <i_2827>:
    80002e18:	003dddbb          	srlw	s11,s11,gp

0000000080002e1c <i_2828>:
    80002e1c:	001e8e93          	addi	t4,t4,1 # 7eca2741 <main-0x135d8bf>
    80002e20:	fc1eeee3          	bltu	t4,ra,80002dfc <i_2820>

0000000080002e24 <i_2829>:
    80002e24:	fd310c23          	sb	s3,-40(sp)

0000000080002e28 <i_2830>:
    80002e28:	001ee663          	bltu	t4,ra,80002e34 <i_2833>

0000000080002e2c <i_2831>:
    80002e2c:	01aa8b93          	addi	s7,s5,26

0000000080002e30 <i_2832>:
    80002e30:	0d412d83          	lw	s11,212(sp)

0000000080002e34 <i_2833>:
    80002e34:	1aa15203          	lhu	tp,426(sp)

0000000080002e38 <i_2834>:
    80002e38:	02dde263          	bltu	s11,a3,80002e5c <i_2843>

0000000080002e3c <i_2835>:
    80002e3c:	00d98e63          	beq	s3,a3,80002e58 <i_2842>

0000000080002e40 <i_2836>:
    80002e40:	fa711623          	sh	t2,-84(sp)

0000000080002e44 <i_2837>:
    80002e44:	02ebf233          	remu	tp,s7,a4

0000000080002e48 <i_2838>:
    80002e48:	02e24bbb          	divw	s7,tp,a4

0000000080002e4c <i_2839>:
    80002e4c:	02421063          	bne	tp,tp,80002e6c <i_2847>

0000000080002e50 <i_2840>:
    80002e50:	417a0233          	sub	tp,s4,s7

0000000080002e54 <i_2841>:
    80002e54:	00b30e63          	beq	t1,a1,80002e70 <i_2848>

0000000080002e58 <i_2842>:
    80002e58:	0c412823          	sw	tp,208(sp)

0000000080002e5c <i_2843>:
    80002e5c:	07811803          	lh	a6,120(sp)

0000000080002e60 <i_2844>:
    80002e60:	ee013183          	ld	gp,-288(sp)

0000000080002e64 <i_2845>:
    80002e64:	1e4101a3          	sb	tp,483(sp)

0000000080002e68 <i_2846>:
    80002e68:	17f14203          	lbu	tp,383(sp)

0000000080002e6c <i_2847>:
    80002e6c:	1bc12b83          	lw	s7,444(sp)

0000000080002e70 <i_2848>:
    80002e70:	02611523          	sh	t1,42(sp)

0000000080002e74 <i_2849>:
    80002e74:	11014683          	lbu	a3,272(sp)

0000000080002e78 <i_2850>:
    80002e78:	7c200813          	li	a6,1986

0000000080002e7c <i_2851>:
    80002e7c:	7cc00213          	li	tp,1996

0000000080002e80 <i_2852>:
    80002e80:	ee014603          	lbu	a2,-288(sp)

0000000080002e84 <i_2853>:
    80002e84:	02c6cd3b          	divw	s10,a3,a2

0000000080002e88 <i_2854>:
    80002e88:	e4413823          	sd	tp,-432(sp)

0000000080002e8c <i_2855>:
    80002e8c:	0126f463          	bleu	s2,a3,80002e94 <i_2857>

0000000080002e90 <i_2856>:
    80002e90:	010d4263          	blt	s10,a6,80002e94 <i_2857>

0000000080002e94 <i_2857>:
    80002e94:	f6412b83          	lw	s7,-156(sp)

0000000080002e98 <i_2858>:
    80002e98:	e6015b83          	lhu	s7,-416(sp)

0000000080002e9c <i_2859>:
    80002e9c:	19615e83          	lhu	t4,406(sp)

0000000080002ea0 <i_2860>:
    80002ea0:	01384463          	blt	a6,s3,80002ea8 <i_2862>

0000000080002ea4 <i_2861>:
    80002ea4:	04310083          	lb	ra,67(sp)

0000000080002ea8 <i_2862>:
    80002ea8:	fe910983          	lb	s3,-23(sp)

0000000080002eac <i_2863>:
    80002eac:	e8013983          	ld	s3,-384(sp)

0000000080002eb0 <i_2864>:
    80002eb0:	f7610783          	lb	a5,-138(sp)

0000000080002eb4 <i_2865>:
    80002eb4:	e8f10c83          	lb	s9,-369(sp)

0000000080002eb8 <i_2866>:
    80002eb8:	013cc4b3          	xor	s1,s9,s3

0000000080002ebc <i_2867>:
    80002ebc:	00180813          	addi	a6,a6,1
    80002ec0:	fc4810e3          	bne	a6,tp,80002e80 <i_2852>

0000000080002ec4 <i_2868>:
    80002ec4:	02998463          	beq	s3,s1,80002eec <i_2878>

0000000080002ec8 <i_2869>:
    80002ec8:	78c1c193          	xori	gp,gp,1932

0000000080002ecc <i_2870>:
    80002ecc:	e4910523          	sb	s1,-438(sp)

0000000080002ed0 <i_2871>:
    80002ed0:	04e11c83          	lh	s9,78(sp)

0000000080002ed4 <i_2872>:
    80002ed4:	019cfc63          	bleu	s9,s9,80002eec <i_2878>

0000000080002ed8 <i_2873>:
    80002ed8:	00500813          	li	a6,5

0000000080002edc <i_2874>:
    80002edc:	010cd633          	srl	a2,s9,a6

0000000080002ee0 <i_2875>:
    80002ee0:	023849bb          	divw	s3,a6,gp

0000000080002ee4 <i_2876>:
    80002ee4:	023ce4bb          	remw	s1,s9,gp

0000000080002ee8 <i_2877>:
    80002ee8:	1c910e23          	sb	s1,476(sp)

0000000080002eec <i_2878>:
    80002eec:	a954cb97          	auipc	s7,0xa954c

0000000080002ef0 <i_2879>:
    80002ef0:	033cd1bb          	divuw	gp,s9,s3

0000000080002ef4 <i_2880>:
    80002ef4:	003cfa63          	bleu	gp,s9,80002f08 <i_2885>

0000000080002ef8 <i_2881>:
    80002ef8:	023b7bbb          	remuw	s7,s6,gp

0000000080002efc <i_2882>:
    80002efc:	017cea63          	bltu	s9,s7,80002f10 <i_2887>

0000000080002f00 <i_2883>:
    80002f00:	34d83a93          	sltiu	s5,a6,845

0000000080002f04 <i_2884>:
    80002f04:	17713823          	sd	s7,368(sp)

0000000080002f08 <i_2885>:
    80002f08:	403d5093          	srai	ra,s10,0x3

0000000080002f0c <i_2886>:
    80002f0c:	ee411483          	lh	s1,-284(sp)

0000000080002f10 <i_2887>:
    80002f10:	06110e23          	sb	ra,124(sp)

0000000080002f14 <i_2888>:
    80002f14:	00000013          	nop

0000000080002f18 <i_2889>:
    80002f18:	78b00d13          	li	s10,1931

0000000080002f1c <i_2890>:
    80002f1c:	79c00393          	li	t2,1948

0000000080002f20 <i_2891>:
    80002f20:	0210f0bb          	remuw	ra,ra,ra

0000000080002f24 <i_2892>:
    80002f24:	0217e063          	bltu	a5,ra,80002f44 <i_2899>

0000000080002f28 <i_2893>:
    80002f28:	09c14803          	lbu	a6,156(sp)

0000000080002f2c <i_2894>:
    80002f2c:	001d0d13          	addi	s10,s10,1
    80002f30:	fe7d18e3          	bne	s10,t2,80002f20 <i_2891>

0000000080002f34 <i_2895>:
    80002f34:	4010dd1b          	sraiw	s10,ra,0x1

0000000080002f38 <i_2896>:
    80002f38:	021a833b          	mulw	t1,s5,ra

0000000080002f3c <i_2897>:
    80002f3c:	0102f633          	and	a2,t0,a6

0000000080002f40 <i_2898>:
    80002f40:	40c600b3          	sub	ra,a2,a2

0000000080002f44 <i_2899>:
    80002f44:	f4111223          	sh	ra,-188(sp)

0000000080002f48 <i_2900>:
    80002f48:	10815803          	lhu	a6,264(sp)

0000000080002f4c <i_2901>:
    80002f4c:	87600b13          	li	s6,-1930

0000000080002f50 <i_2902>:
    80002f50:	88400293          	li	t0,-1916

0000000080002f54 <i_2903>:
    80002f54:	4042d093          	srai	ra,t0,0x4

0000000080002f58 <i_2904>:
    80002f58:	f8e12c23          	sw	a4,-104(sp)

0000000080002f5c <i_2905>:
    80002f5c:	7e600a13          	li	s4,2022

0000000080002f60 <i_2906>:
    80002f60:	7e800613          	li	a2,2024

0000000080002f64 <i_2907>:
    80002f64:	41c800b3          	sub	ra,a6,t3

0000000080002f68 <i_2908>:
    80002f68:	001a0a13          	addi	s4,s4,1
    80002f6c:	feca6ce3          	bltu	s4,a2,80002f64 <i_2907>

0000000080002f70 <i_2909>:
    80002f70:	02ba6263          	bltu	s4,a1,80002f94 <i_2917>

0000000080002f74 <i_2910>:
    80002f74:	001b0b13          	addi	s6,s6,1
    80002f78:	fc5b4ee3          	blt	s6,t0,80002f54 <i_2903>

0000000080002f7c <i_2911>:
    80002f7c:	15d105a3          	sb	t4,331(sp)

0000000080002f80 <i_2912>:
    80002f80:	f3b10603          	lb	a2,-197(sp)

0000000080002f84 <i_2913>:
    80002f84:	00108263          	beq	ra,ra,80002f88 <i_2914>

0000000080002f88 <i_2914>:
    80002f88:	0284543b          	divuw	s0,s0,s0

0000000080002f8c <i_2915>:
    80002f8c:	02211203          	lh	tp,34(sp)

0000000080002f90 <i_2916>:
    80002f90:	18710083          	lb	ra,391(sp)

0000000080002f94 <i_2917>:
    80002f94:	f4112623          	sw	ra,-180(sp)

0000000080002f98 <i_2918>:
    80002f98:	0b811603          	lh	a2,184(sp)

0000000080002f9c <i_2919>:
    80002f9c:	161108a3          	sb	ra,369(sp)

0000000080002fa0 <i_2920>:
    80002fa0:	a9720093          	addi	ra,tp,-1385 # fffffffffffffa97 <_end+0xffffffff7ffef683>

0000000080002fa4 <i_2921>:
    80002fa4:	0010ca63          	blt	ra,ra,80002fb8 <i_2926>

0000000080002fa8 <i_2922>:
    80002fa8:	f2811083          	lh	ra,-216(sp)

0000000080002fac <i_2923>:
    80002fac:	1c113c23          	sd	ra,472(sp)

0000000080002fb0 <i_2924>:
    80002fb0:	02120233          	mul	tp,tp,ra

0000000080002fb4 <i_2925>:
    80002fb4:	fd610983          	lb	s3,-42(sp)

0000000080002fb8 <i_2926>:
    80002fb8:	0032599b          	srliw	s3,tp,0x3

0000000080002fbc <i_2927>:
    80002fbc:	021edeb3          	divu	t4,t4,ra

0000000080002fc0 <i_2928>:
    80002fc0:	3e88bdb7          	lui	s11,0x3e88b

0000000080002fc4 <i_2929>:
    80002fc4:	021d8263          	beq	s11,ra,80002fe8 <i_2938>

0000000080002fc8 <i_2930>:
    80002fc8:	10a15303          	lhu	t1,266(sp)

0000000080002fcc <i_2931>:
    80002fcc:	e1c12303          	lw	t1,-484(sp)

0000000080002fd0 <i_2932>:
    80002fd0:	01d5e5b3          	or	a1,a1,t4

0000000080002fd4 <i_2933>:
    80002fd4:	fc816b83          	lwu	s7,-56(sp)

0000000080002fd8 <i_2934>:
    80002fd8:	00b585b3          	add	a1,a1,a1

0000000080002fdc <i_2935>:
    80002fdc:	06b11f23          	sh	a1,126(sp)

0000000080002fe0 <i_2936>:
    80002fe0:	03000813          	li	a6,48

0000000080002fe4 <i_2937>:
    80002fe4:	4105d5b3          	sra	a1,a1,a6

0000000080002fe8 <i_2938>:
    80002fe8:	f2412c23          	sw	tp,-200(sp)

0000000080002fec <i_2939>:
    80002fec:	e3e15483          	lhu	s1,-450(sp)

0000000080002ff0 <i_2940>:
    80002ff0:	030bda3b          	divuw	s4,s7,a6

0000000080002ff4 <i_2941>:
    80002ff4:	80d00793          	li	a5,-2035

0000000080002ff8 <i_2942>:
    80002ff8:	82100593          	li	a1,-2015

0000000080002ffc <i_2943>:
    80002ffc:	11015f03          	lhu	t5,272(sp)

0000000080003000 <i_2944>:
    80003000:	03e9d263          	ble	t5,s3,80003024 <i_2952>

0000000080003004 <i_2945>:
    80003004:	298f6693          	ori	a3,t5,664

0000000080003008 <i_2946>:
    80003008:	02df4f3b          	divw	t5,t5,a3

000000008000300c <i_2947>:
    8000300c:	02da6f3b          	remw	t5,s4,a3

0000000080003010 <i_2948>:
    80003010:	00178793          	addi	a5,a5,1 # ffffffff98235001 <_end+0xffffffff18224bed>
    80003014:	feb794e3          	bne	a5,a1,80002ffc <i_2943>

0000000080003018 <i_2949>:
    80003018:	01ed61b3          	or	gp,s10,t5

000000008000301c <i_2950>:
    8000301c:	02815183          	lhu	gp,40(sp)

0000000080003020 <i_2951>:
    80003020:	0cc12a03          	lw	s4,204(sp)

0000000080003024 <i_2952>:
    80003024:	02df0f3b          	mulw	t5,t5,a3

0000000080003028 <i_2953>:
    80003028:	02328463          	beq	t0,gp,80003050 <i_2963>

000000008000302c <i_2954>:
    8000302c:	40d186bb          	subw	a3,gp,a3

0000000080003030 <i_2955>:
    80003030:	01e6e863          	bltu	a3,t5,80003040 <i_2959>

0000000080003034 <i_2956>:
    80003034:	00700513          	li	a0,7

0000000080003038 <i_2957>:
    80003038:	40a8d83b          	sraw	a6,a7,a0

000000008000303c <i_2958>:
    8000303c:	ee312a23          	sw	gp,-268(sp)

0000000080003040 <i_2959>:
    80003040:	02013803          	ld	a6,32(sp)

0000000080003044 <i_2960>:
    80003044:	19e13823          	sd	t5,400(sp)

0000000080003048 <i_2961>:
    80003048:	f8512c23          	sw	t0,-104(sp)

000000008000304c <i_2962>:
    8000304c:	50c6bf13          	sltiu	t5,a3,1292

0000000080003050 <i_2963>:
    80003050:	f1012303          	lw	t1,-240(sp)

0000000080003054 <i_2964>:
    80003054:	03e680b3          	mul	ra,a3,t5

0000000080003058 <i_2965>:
    80003058:	0011969b          	slliw	a3,gp,0x1

000000008000305c <i_2966>:
    8000305c:	00000013          	nop

0000000080003060 <i_2967>:
    80003060:	7bd00093          	li	ra,1981

0000000080003064 <i_2968>:
    80003064:	7cf00293          	li	t0,1999

0000000080003068 <i_2969>:
    80003068:	1423f197          	auipc	gp,0x1423f

000000008000306c <i_2970>:
    8000306c:	e6511423          	sh	t0,-408(sp)

0000000080003070 <i_2971>:
    80003070:	02e776bb          	remuw	a3,a4,a4

0000000080003074 <i_2972>:
    80003074:	02a5653b          	remw	a0,a0,a0

0000000080003078 <i_2973>:
    80003078:	11012483          	lw	s1,272(sp)

000000008000307c <i_2974>:
    8000307c:	ed610183          	lb	gp,-298(sp)

0000000080003080 <i_2975>:
    80003080:	0014d693          	srli	a3,s1,0x1

0000000080003084 <i_2976>:
    80003084:	00108093          	addi	ra,ra,1
    80003088:	fe5090e3          	bne	ra,t0,80003068 <i_2969>

000000008000308c <i_2977>:
    8000308c:	10110503          	lb	a0,257(sp)

0000000080003090 <i_2978>:
    80003090:	08311723          	sh	gp,142(sp)

0000000080003094 <i_2979>:
    80003094:	02349263          	bne	s1,gp,800030b8 <i_2988>

0000000080003098 <i_2980>:
    80003098:	003109a3          	sb	gp,19(sp)

000000008000309c <i_2981>:
    8000309c:	04954797          	auipc	a5,0x4954

00000000800030a0 <i_2982>:
    800030a0:	0044dc13          	srli	s8,s1,0x4

00000000800030a4 <i_2983>:
    800030a4:	00912c23          	sw	s1,24(sp)

00000000800030a8 <i_2984>:
    800030a8:	08411503          	lh	a0,132(sp)

00000000800030ac <i_2985>:
    800030ac:	40455513          	srai	a0,a0,0x4

00000000800030b0 <i_2986>:
    800030b0:	0307e1bb          	remw	gp,a5,a6

00000000800030b4 <i_2987>:
    800030b4:	fb110783          	lb	a5,-79(sp)

00000000800030b8 <i_2988>:
    800030b8:	00000013          	nop

00000000800030bc <i_2989>:
    800030bc:	f7211783          	lh	a5,-142(sp)

00000000800030c0 <i_2990>:
    800030c0:	7f000e93          	li	t4,2032

00000000800030c4 <i_2991>:
    800030c4:	7f400813          	li	a6,2036

00000000800030c8 <i_2992>:
    800030c8:	8a686793          	ori	a5,a6,-1882

00000000800030cc <i_2993>:
    800030cc:	0107f7b3          	and	a5,a5,a6

00000000800030d0 <i_2994>:
    800030d0:	1dc15603          	lhu	a2,476(sp)

00000000800030d4 <i_2995>:
    800030d4:	e2810783          	lb	a5,-472(sp)

00000000800030d8 <i_2996>:
    800030d8:	00a00313          	li	t1,10

00000000800030dc <i_2997>:
    800030dc:	0060d7bb          	srlw	a5,ra,t1

00000000800030e0 <i_2998>:
    800030e0:	1a016083          	lwu	ra,416(sp)

00000000800030e4 <i_2999>:
    800030e4:	026d9263          	bne	s11,t1,80003108 <i_3007>

00000000800030e8 <i_3000>:
    800030e8:	001e8e93          	addi	t4,t4,1
    800030ec:	fd0e9ee3          	bne	t4,a6,800030c8 <i_2992>

00000000800030f0 <i_3001>:
    800030f0:	00c00513          	li	a0,12

00000000800030f4 <i_3002>:
    800030f4:	00a31dbb          	sllw	s11,t1,a0

00000000800030f8 <i_3003>:
    800030f8:	f4710403          	lb	s0,-185(sp)

00000000800030fc <i_3004>:
    800030fc:	0c112623          	sw	ra,204(sp)

0000000080003100 <i_3005>:
    80003100:	19812083          	lw	ra,408(sp)

0000000080003104 <i_3006>:
    80003104:	e4510503          	lb	a0,-443(sp)

0000000080003108 <i_3007>:
    80003108:	fe910423          	sb	s1,-24(sp)

000000008000310c <i_3008>:
    8000310c:	011603b3          	add	t2,a2,a7

0000000080003110 <i_3009>:
    80003110:	8b100f13          	li	t5,-1871

0000000080003114 <i_3010>:
    80003114:	8bc00813          	li	a6,-1860

0000000080003118 <i_3011>:
    80003118:	003fda93          	srli	s5,t6,0x3

000000008000311c <i_3012>:
    8000311c:	030f0463          	beq	t5,a6,80003144 <i_3021>

0000000080003120 <i_3013>:
    80003120:	07710d83          	lb	s11,119(sp)

0000000080003124 <i_3014>:
    80003124:	e6a11383          	lh	t2,-406(sp)

0000000080003128 <i_3015>:
    80003128:	60b3bc93          	sltiu	s9,t2,1547

000000008000312c <i_3016>:
    8000312c:	13311323          	sh	s3,294(sp)

0000000080003130 <i_3017>:
    80003130:	001f0f13          	addi	t5,t5,1
    80003134:	ffe852e3          	ble	t5,a6,80003118 <i_3011>

0000000080003138 <i_3018>:
    80003138:	0193dc63          	ble	s9,t2,80003150 <i_3024>

000000008000313c <i_3019>:
    8000313c:	03700293          	li	t0,55

0000000080003140 <i_3020>:
    80003140:	0053dcb3          	srl	s9,t2,t0

0000000080003144 <i_3021>:
    80003144:	015cfa63          	bleu	s5,s9,80003158 <i_3026>

0000000080003148 <i_3022>:
    80003148:	1dc14403          	lbu	s0,476(sp)

000000008000314c <i_3023>:
    8000314c:	005cd263          	ble	t0,s9,80003150 <i_3024>

0000000080003150 <i_3024>:
    80003150:	e6813023          	sd	s0,-416(sp)

0000000080003154 <i_3025>:
    80003154:	3b147f13          	andi	t5,s0,945

0000000080003158 <i_3026>:
    80003158:	025f6cbb          	remw	s9,t5,t0

000000008000315c <i_3027>:
    8000315c:	028f6f3b          	remw	t5,t5,s0

0000000080003160 <i_3028>:
    80003160:	008f0663          	beq	t5,s0,8000316c <i_3031>

0000000080003164 <i_3029>:
    80003164:	fb812e03          	lw	t3,-72(sp)

0000000080003168 <i_3030>:
    80003168:	01c46863          	bltu	s0,t3,80003178 <i_3034>

000000008000316c <i_3031>:
    8000316c:	03c47463          	bleu	t3,s0,80003194 <i_3041>

0000000080003170 <i_3032>:
    80003170:	03600213          	li	tp,54

0000000080003174 <i_3033>:
    80003174:	004f5e33          	srl	t3,t5,tp

0000000080003178 <i_3034>:
    80003178:	028f6263          	bltu	t5,s0,8000319c <i_3043>

000000008000317c <i_3035>:
    8000317c:	01500c93          	li	s9,21

0000000080003180 <i_3036>:
    80003180:	4192523b          	sraw	tp,tp,s9

0000000080003184 <i_3037>:
    80003184:	1b415e03          	lhu	t3,436(sp)

0000000080003188 <i_3038>:
    80003188:	402ddd9b          	sraiw	s11,s11,0x2

000000008000318c <i_3039>:
    8000318c:	19013683          	ld	a3,400(sp)

0000000080003190 <i_3040>:
    80003190:	e5014d83          	lbu	s11,-432(sp)

0000000080003194 <i_3041>:
    80003194:	03cc6dbb          	remw	s11,s8,t3

0000000080003198 <i_3042>:
    80003198:	f0e10203          	lb	tp,-242(sp)

000000008000319c <i_3043>:
    8000319c:	e5e10b23          	sb	t5,-426(sp)

00000000800031a0 <i_3044>:
    800031a0:	00000013          	nop

00000000800031a4 <i_3045>:
    800031a4:	80300f13          	li	t5,-2045

00000000800031a8 <i_3046>:
    800031a8:	80c00413          	li	s0,-2036

00000000800031ac <i_3047>:
    800031ac:	d5be6693          	ori	a3,t3,-677

00000000800031b0 <i_3048>:
    800031b0:	001f0f13          	addi	t5,t5,1
    800031b4:	ffe45ce3          	ble	t5,s0,800031ac <i_3047>

00000000800031b8 <i_3049>:
    800031b8:	1d615c83          	lhu	s9,470(sp)

00000000800031bc <i_3050>:
    800031bc:	5f3e7613          	andi	a2,t3,1523

00000000800031c0 <i_3051>:
    800031c0:	1ac14e03          	lbu	t3,428(sp)

00000000800031c4 <i_3052>:
    800031c4:	0bb11223          	sh	s11,164(sp)

00000000800031c8 <i_3053>:
    800031c8:	f7416403          	lwu	s0,-140(sp)

00000000800031cc <i_3054>:
    800031cc:	1c813c23          	sd	s0,472(sp)

00000000800031d0 <i_3055>:
    800031d0:	e9e11923          	sh	t5,-366(sp)

00000000800031d4 <i_3056>:
    800031d4:	f4811a23          	sh	s0,-172(sp)

00000000800031d8 <i_3057>:
    800031d8:	03cde063          	bltu	s11,t3,800031f8 <i_3065>

00000000800031dc <i_3058>:
    800031dc:	f3b12223          	sw	s11,-220(sp)

00000000800031e0 <i_3059>:
    800031e0:	03e456b3          	divu	a3,s0,t5

00000000800031e4 <i_3060>:
    800031e4:	11a109a3          	sb	s10,275(sp)

00000000800031e8 <i_3061>:
    800031e8:	004d9613          	slli	a2,s11,0x4

00000000800031ec <i_3062>:
    800031ec:	fcc6041b          	addiw	s0,a2,-52

00000000800031f0 <i_3063>:
    800031f0:	f2813423          	sd	s0,-216(sp)

00000000800031f4 <i_3064>:
    800031f4:	eb312a23          	sw	s3,-332(sp)

00000000800031f8 <i_3065>:
    800031f8:	f8615603          	lhu	a2,-122(sp)

00000000800031fc <i_3066>:
    800031fc:	e7310f23          	sb	s3,-386(sp)

0000000080003200 <i_3067>:
    80003200:	003cdc13          	srli	s8,s9,0x3

0000000080003204 <i_3068>:
    80003204:	fe813423          	sd	s0,-24(sp)

0000000080003208 <i_3069>:
    80003208:	018c5663          	ble	s8,s8,80003214 <i_3072>

000000008000320c <i_3070>:
    8000320c:	f5310ca3          	sb	s3,-167(sp)

0000000080003210 <i_3071>:
    80003210:	f6314c03          	lbu	s8,-157(sp)

0000000080003214 <i_3072>:
    80003214:	018c37b3          	sltu	a5,s8,s8

0000000080003218 <i_3073>:
    80003218:	00411f03          	lh	t5,4(sp)

000000008000321c <i_3074>:
    8000321c:	ea013d03          	ld	s10,-352(sp)

0000000080003220 <i_3075>:
    80003220:	02630063          	beq	t1,t1,80003240 <i_3083>

0000000080003224 <i_3076>:
    80003224:	01100193          	li	gp,17

0000000080003228 <i_3077>:
    80003228:	003696bb          	sllw	a3,a3,gp

000000008000322c <i_3078>:
    8000322c:	efc11023          	sh	t3,-288(sp)

0000000080003230 <i_3079>:
    80003230:	02ef11b3          	mulh	gp,t5,a4

0000000080003234 <i_3080>:
    80003234:	f5814c03          	lbu	s8,-168(sp)

0000000080003238 <i_3081>:
    80003238:	f7110e03          	lb	t3,-143(sp)

000000008000323c <i_3082>:
    8000323c:	01ccef33          	or	t5,s9,t3

0000000080003240 <i_3083>:
    80003240:	02fa5263          	ble	a5,s4,80003264 <i_3092>

0000000080003244 <i_3084>:
    80003244:	0d215c83          	lhu	s9,210(sp)

0000000080003248 <i_3085>:
    80003248:	b5ee3813          	sltiu	a6,t3,-1186

000000008000324c <i_3086>:
    8000324c:	022a1063          	bne	s4,sp,8000326c <i_3094>

0000000080003250 <i_3087>:
    80003250:	f5012e23          	sw	a6,-164(sp)

0000000080003254 <i_3088>:
    80003254:	fc51c193          	xori	gp,gp,-59

0000000080003258 <i_3089>:
    80003258:	004c5c1b          	srliw	s8,s8,0x4

000000008000325c <i_3090>:
    8000325c:	018107a3          	sb	s8,15(sp)

0000000080003260 <i_3091>:
    80003260:	0ec11b83          	lh	s7,236(sp)

0000000080003264 <i_3092>:
    80003264:	023c70bb          	remuw	ra,s8,gp

0000000080003268 <i_3093>:
    80003268:	e3a10183          	lb	gp,-454(sp)

000000008000326c <i_3094>:
    8000326c:	003cde9b          	srliw	t4,s9,0x3

0000000080003270 <i_3095>:
    80003270:	1d012c03          	lw	s8,464(sp)

0000000080003274 <i_3096>:
    80003274:	1b012e03          	lw	t3,432(sp)

0000000080003278 <i_3097>:
    80003278:	17d13023          	sd	t4,352(sp)

000000008000327c <i_3098>:
    8000327c:	1c312a23          	sw	gp,468(sp)

0000000080003280 <i_3099>:
    80003280:	82900f13          	li	t5,-2007

0000000080003284 <i_3100>:
    80003284:	83700a13          	li	s4,-1993

0000000080003288 <i_3101>:
    80003288:	001f0f13          	addi	t5,t5,1
    8000328c:	ff4f4ee3          	blt	t5,s4,80003288 <i_3101>

0000000080003290 <i_3102>:
    80003290:	f1013e03          	ld	t3,-240(sp)

0000000080003294 <i_3103>:
    80003294:	16511c23          	sh	t0,376(sp)

0000000080003298 <i_3104>:
    80003298:	f7c12223          	sw	t3,-156(sp)

000000008000329c <i_3105>:
    8000329c:	f7813b03          	ld	s6,-136(sp)

00000000800032a0 <i_3106>:
    800032a0:	87500093          	li	ra,-1931

00000000800032a4 <i_3107>:
    800032a4:	87a00a13          	li	s4,-1926

00000000800032a8 <i_3108>:
    800032a8:	0fc13823          	sd	t3,240(sp)

00000000800032ac <i_3109>:
    800032ac:	00900393          	li	t2,9

00000000800032b0 <i_3110>:
    800032b0:	00709b33          	sll	s6,ra,t2

00000000800032b4 <i_3111>:
    800032b4:	03ea6463          	bltu	s4,t5,800032dc <i_3120>

00000000800032b8 <i_3112>:
    800032b8:	e6013b03          	ld	s6,-416(sp)

00000000800032bc <i_3113>:
    800032bc:	00000013          	nop

00000000800032c0 <i_3114>:
    800032c0:	03c58b33          	mul	s6,a1,t3

00000000800032c4 <i_3115>:
    800032c4:	00108093          	addi	ra,ra,1
    800032c8:	fe1a50e3          	ble	ra,s4,800032a8 <i_3108>

00000000800032cc <i_3116>:
    800032cc:	401f5e1b          	sraiw	t3,t5,0x1

00000000800032d0 <i_3117>:
    800032d0:	001b5e93          	srli	t4,s6,0x1

00000000800032d4 <i_3118>:
    800032d4:	0193ccb3          	xor	s9,t2,s9

00000000800032d8 <i_3119>:
    800032d8:	ef211023          	sh	s2,-288(sp)

00000000800032dc <i_3120>:
    800032dc:	f6a11d03          	lh	s10,-150(sp)

00000000800032e0 <i_3121>:
    800032e0:	03ecc463          	blt	s9,t5,80003308 <i_3131>

00000000800032e4 <i_3122>:
    800032e4:	f0312a23          	sw	gp,-236(sp)

00000000800032e8 <i_3123>:
    800032e8:	fb015183          	lhu	gp,-80(sp)

00000000800032ec <i_3124>:
    800032ec:	8eb17f13          	andi	t5,sp,-1813

00000000800032f0 <i_3125>:
    800032f0:	e3613c23          	sd	s6,-456(sp)

00000000800032f4 <i_3126>:
    800032f4:	e9413823          	sd	s4,-368(sp)

00000000800032f8 <i_3127>:
    800032f8:	ec012b03          	lw	s6,-320(sp)

00000000800032fc <i_3128>:
    800032fc:	094101a3          	sb	s4,131(sp)

0000000080003300 <i_3129>:
    80003300:	0d411183          	lh	gp,212(sp)

0000000080003304 <i_3130>:
    80003304:	03cf4263          	blt	t5,t3,80003328 <i_3139>

0000000080003308 <i_3131>:
    80003308:	016e6e63          	bltu	t3,s6,80003324 <i_3138>

000000008000330c <i_3132>:
    8000330c:	1ba15b03          	lhu	s6,442(sp)

0000000080003310 <i_3133>:
    80003310:	03aa6d33          	rem	s10,s4,s10

0000000080003314 <i_3134>:
    80003314:	01aa0b33          	add	s6,s4,s10

0000000080003318 <i_3135>:
    80003318:	eb813c83          	ld	s9,-328(sp)

000000008000331c <i_3136>:
    8000331c:	1a414383          	lbu	t2,420(sp)

0000000080003320 <i_3137>:
    80003320:	339a3793          	sltiu	a5,s4,825

0000000080003324 <i_3138>:
    80003324:	0b411a23          	sh	s4,180(sp)

0000000080003328 <i_3139>:
    80003328:	019b2b33          	slt	s6,s6,s9

000000008000332c <i_3140>:
    8000332c:	0d612223          	sw	s6,196(sp)

0000000080003330 <i_3141>:
    80003330:	4033dc93          	srai	s9,t2,0x3

0000000080003334 <i_3142>:
    80003334:	413287bb          	subw	a5,t0,s3

0000000080003338 <i_3143>:
    80003338:	eed10783          	lb	a5,-275(sp)

000000008000333c <i_3144>:
    8000333c:	86c00993          	li	s3,-1940

0000000080003340 <i_3145>:
    80003340:	87400293          	li	t0,-1932

0000000080003344 <i_3146>:
    80003344:	06416383          	lwu	t2,100(sp)

0000000080003348 <i_3147>:
    80003348:	13416383          	lwu	t2,308(sp)

000000008000334c <i_3148>:
    8000334c:	e8c14a83          	lbu	s5,-372(sp)

0000000080003350 <i_3149>:
    80003350:	021900b3          	mul	ra,s2,ra

0000000080003354 <i_3150>:
    80003354:	00198993          	addi	s3,s3,1
    80003358:	fe5996e3          	bne	s3,t0,80003344 <i_3146>

000000008000335c <i_3151>:
    8000335c:	eda15783          	lhu	a5,-294(sp)

0000000080003360 <i_3152>:
    80003360:	00000013          	nop

0000000080003364 <i_3153>:
    80003364:	01100993          	li	s3,17

0000000080003368 <i_3154>:
    80003368:	4139d9bb          	sraw	s3,s3,s3

000000008000336c <i_3155>:
    8000336c:	7fc00393          	li	t2,2044

0000000080003370 <i_3156>:
    80003370:	7fe00a93          	li	s5,2046

0000000080003374 <i_3157>:
    80003374:	0113dc63          	ble	a7,t2,8000338c <i_3163>

0000000080003378 <i_3158>:
    80003378:	f5511523          	sh	s5,-182(sp)

000000008000337c <i_3159>:
    8000337c:	f8615403          	lhu	s0,-122(sp)

0000000080003380 <i_3160>:
    80003380:	02000993          	li	s3,32

0000000080003384 <i_3161>:
    80003384:	013a99b3          	sll	s3,s5,s3

0000000080003388 <i_3162>:
    80003388:	e4e10403          	lb	s0,-434(sp)

000000008000338c <i_3163>:
    8000338c:	00b9b5b3          	sltu	a1,s3,a1

0000000080003390 <i_3164>:
    80003390:	02b40433          	mul	s0,s0,a1

0000000080003394 <i_3165>:
    80003394:	01300193          	li	gp,19

0000000080003398 <i_3166>:
    80003398:	003a943b          	sllw	s0,s5,gp

000000008000339c <i_3167>:
    8000339c:	2d29ab93          	slti	s7,s3,722

00000000800033a0 <i_3168>:
    800033a0:	1e311323          	sh	gp,486(sp)

00000000800033a4 <i_3169>:
    800033a4:	00138393          	addi	t2,t2,1
    800033a8:	fd53e4e3          	bltu	t2,s5,80003370 <i_3156>

00000000800033ac <i_3170>:
    800033ac:	0281e5b3          	rem	a1,gp,s0

00000000800033b0 <i_3171>:
    800033b0:	0379d43b          	divuw	s0,s3,s7

00000000800033b4 <i_3172>:
    800033b4:	0231d2b3          	divu	t0,gp,gp

00000000800033b8 <i_3173>:
    800033b8:	03813183          	ld	gp,56(sp)

00000000800033bc <i_3174>:
    800033bc:	03713823          	sd	s7,48(sp)

00000000800033c0 <i_3175>:
    800033c0:	07712023          	sw	s7,96(sp)

00000000800033c4 <i_3176>:
    800033c4:	03600313          	li	t1,54

00000000800033c8 <i_3177>:
    800033c8:	006b9bb3          	sll	s7,s7,t1

00000000800033cc <i_3178>:
    800033cc:	40425e1b          	sraiw	t3,tp,0x4

00000000800033d0 <i_3179>:
    800033d0:	003e01b3          	add	gp,t3,gp

00000000800033d4 <i_3180>:
    800033d4:	81e00213          	li	tp,-2018

00000000800033d8 <i_3181>:
    800033d8:	82f00c93          	li	s9,-2001

00000000800033dc <i_3182>:
    800033dc:	00000013          	nop

00000000800033e0 <i_3183>:
    800033e0:	12815803          	lhu	a6,296(sp)

00000000800033e4 <i_3184>:
    800033e4:	76700b93          	li	s7,1895

00000000800033e8 <i_3185>:
    800033e8:	77100313          	li	t1,1905

00000000800033ec <i_3186>:
    800033ec:	00000013          	nop

00000000800033f0 <i_3187>:
    800033f0:	03cbc1bb          	divw	gp,s7,t3

00000000800033f4 <i_3188>:
    800033f4:	00000013          	nop

00000000800033f8 <i_3189>:
    800033f8:	00000013          	nop

00000000800033fc <i_3190>:
    800033fc:	002b9813          	slli	a6,s7,0x2

0000000080003400 <i_3191>:
    80003400:	15c13823          	sd	t3,336(sp)

0000000080003404 <i_3192>:
    80003404:	001b8b93          	addi	s7,s7,1 # 2954eeed <main-0x56ab1113>
    80003408:	fe6b92e3          	bne	s7,t1,800033ec <i_3186>

000000008000340c <i_3193>:
    8000340c:	0175c7b3          	xor	a5,a1,s7

0000000080003410 <i_3194>:
    80003410:	ee811803          	lh	a6,-280(sp)

0000000080003414 <i_3195>:
    80003414:	026bc333          	div	t1,s7,t1

0000000080003418 <i_3196>:
    80003418:	00120213          	addi	tp,tp,1 # 1 <main-0x7fffffff>
    8000341c:	fd9260e3          	bltu	tp,s9,800033dc <i_3182>

0000000080003420 <i_3197>:
    80003420:	00f67a63          	bleu	a5,a2,80003434 <i_3202>

0000000080003424 <i_3198>:
    80003424:	09016803          	lwu	a6,144(sp)

0000000080003428 <i_3199>:
    80003428:	02f5553b          	divuw	a0,a0,a5

000000008000342c <i_3200>:
    8000342c:	e4610803          	lb	a6,-442(sp)

0000000080003430 <i_3201>:
    80003430:	001f5f13          	srli	t5,t5,0x1

0000000080003434 <i_3202>:
    80003434:	00289d93          	slli	s11,a7,0x2

0000000080003438 <i_3203>:
    80003438:	f5e10e23          	sb	t5,-164(sp)

000000008000343c <i_3204>:
    8000343c:	8ae00313          	li	t1,-1874

0000000080003440 <i_3205>:
    80003440:	8b200793          	li	a5,-1870

0000000080003444 <i_3206>:
    80003444:	f8c16e83          	lwu	t4,-116(sp)

0000000080003448 <i_3207>:
    80003448:	2acf0b9b          	addiw	s7,t5,684

000000008000344c <i_3208>:
    8000344c:	7ec00f13          	li	t5,2028

0000000080003450 <i_3209>:
    80003450:	7f700493          	li	s1,2039

0000000080003454 <i_3210>:
    80003454:	f0012203          	lw	tp,-256(sp)

0000000080003458 <i_3211>:
    80003458:	e33d52b7          	lui	t0,0xe33d5

000000008000345c <i_3212>:
    8000345c:	13015d03          	lhu	s10,304(sp)

0000000080003460 <i_3213>:
    80003460:	dac2fb93          	andi	s7,t0,-596

0000000080003464 <i_3214>:
    80003464:	001f0f13          	addi	t5,t5,1
    80003468:	ffe4f6e3          	bleu	t5,s1,80003454 <i_3210>

000000008000346c <i_3215>:
    8000346c:	02424633          	div	a2,tp,tp

0000000080003470 <i_3216>:
    80003470:	00130313          	addi	t1,t1,1
    80003474:	fcf368e3          	bltu	t1,a5,80003444 <i_3206>

0000000080003478 <i_3217>:
    80003478:	02c22233          	mulhsu	tp,tp,a2

000000008000347c <i_3218>:
    8000347c:	01726463          	bltu	tp,s7,80003484 <i_3220>

0000000080003480 <i_3219>:
    80003480:	40265213          	srai	tp,a2,0x2

0000000080003484 <i_3220>:
    80003484:	00423b33          	sltu	s6,tp,tp

0000000080003488 <i_3221>:
    80003488:	70db7793          	andi	a5,s6,1805

000000008000348c <i_3222>:
    8000348c:	00420263          	beq	tp,tp,80003490 <i_3223>

0000000080003490 <i_3223>:
    80003490:	3c320213          	addi	tp,tp,963 # 3c3 <main-0x7ffffc3d>

0000000080003494 <i_3224>:
    80003494:	00426863          	bltu	tp,tp,800034a4 <i_3228>

0000000080003498 <i_3225>:
    80003498:	01db0663          	beq	s6,t4,800034a4 <i_3228>

000000008000349c <i_3226>:
    8000349c:	02f22233          	mulhsu	tp,tp,a5

00000000800034a0 <i_3227>:
    800034a0:	00f7fa63          	bleu	a5,a5,800034b4 <i_3232>

00000000800034a4 <i_3228>:
    800034a4:	1e614d03          	lbu	s10,486(sp)

00000000800034a8 <i_3229>:
    800034a8:	ead10203          	lb	tp,-339(sp)

00000000800034ac <i_3230>:
    800034ac:	024d6463          	bltu	s10,tp,800034d4 <i_3240>

00000000800034b0 <i_3231>:
    800034b0:	037d4233          	div	tp,s10,s7

00000000800034b4 <i_3232>:
    800034b4:	f64104a3          	sb	tp,-151(sp)

00000000800034b8 <i_3233>:
    800034b8:	1b813203          	ld	tp,440(sp)

00000000800034bc <i_3234>:
    800034bc:	02426263          	bltu	tp,tp,800034e0 <i_3243>

00000000800034c0 <i_3235>:
    800034c0:	e2010803          	lb	a6,-480(sp)

00000000800034c4 <i_3236>:
    800034c4:	402f5213          	srai	tp,t5,0x2

00000000800034c8 <i_3237>:
    800034c8:	ea412f03          	lw	t5,-348(sp)

00000000800034cc <i_3238>:
    800034cc:	0d0100a3          	sb	a6,193(sp)

00000000800034d0 <i_3239>:
    800034d0:	fe411b23          	sh	tp,-10(sp)

00000000800034d4 <i_3240>:
    800034d4:	02812803          	lw	a6,40(sp)

00000000800034d8 <i_3241>:
    800034d8:	e7c16d83          	lwu	s11,-388(sp)

00000000800034dc <i_3242>:
    800034dc:	02b6423b          	divw	tp,a2,a1

00000000800034e0 <i_3243>:
    800034e0:	01300213          	li	tp,19

00000000800034e4 <i_3244>:
    800034e4:	00481db3          	sll	s11,a6,tp

00000000800034e8 <i_3245>:
    800034e8:	8c000293          	li	t0,-1856

00000000800034ec <i_3246>:
    800034ec:	8c700813          	li	a6,-1849

00000000800034f0 <i_3247>:
    800034f0:	13813a83          	ld	s5,312(sp)

00000000800034f4 <i_3248>:
    800034f4:	024d8263          	beq	s11,tp,80003518 <i_3256>

00000000800034f8 <i_3249>:
    800034f8:	00128293          	addi	t0,t0,1 # ffffffffe33d5001 <_end+0xffffffff633c4bed>
    800034fc:	ff02eae3          	bltu	t0,a6,800034f0 <i_3247>

0000000080003500 <i_3250>:
    80003500:	01d00693          	li	a3,29

0000000080003504 <i_3251>:
    80003504:	40ddd7b3          	sra	a5,s11,a3

0000000080003508 <i_3252>:
    80003508:	035d6d3b          	remw	s10,s10,s5

000000008000350c <i_3253>:
    8000350c:	00224533          	xor	a0,tp,sp

0000000080003510 <i_3254>:
    80003510:	01b87e63          	bleu	s11,a6,8000352c <i_3261>

0000000080003514 <i_3255>:
    80003514:	01ba8db3          	add	s11,s5,s11

0000000080003518 <i_3256>:
    80003518:	03b95463          	ble	s11,s2,80003540 <i_3266>

000000008000351c <i_3257>:
    8000351c:	03bd9db3          	mulh	s11,s11,s11

0000000080003520 <i_3258>:
    80003520:	01bdcdb3          	xor	s11,s11,s11

0000000080003524 <i_3259>:
    80003524:	f2814f03          	lbu	t5,-216(sp)

0000000080003528 <i_3260>:
    80003528:	0a013d83          	ld	s11,160(sp)

000000008000352c <i_3261>:
    8000352c:	03bd4dbb          	divw	s11,s10,s11

0000000080003530 <i_3262>:
    80003530:	007f0a63          	beq	t5,t2,80003544 <i_3267>

0000000080003534 <i_3263>:
    80003534:	004f5213          	srli	tp,t5,0x4

0000000080003538 <i_3264>:
    80003538:	f9812983          	lw	s3,-104(sp)

000000008000353c <i_3265>:
    8000353c:	e3713c23          	sd	s7,-456(sp)

0000000080003540 <i_3266>:
    80003540:	01e274b3          	and	s1,tp,t5

0000000080003544 <i_3267>:
    80003544:	02ec99b3          	mulh	s3,s9,a4

0000000080003548 <i_3268>:
    80003548:	03215983          	lhu	s3,50(sp)

000000008000354c <i_3269>:
    8000354c:	e2710c83          	lb	s9,-473(sp)

0000000080003550 <i_3270>:
    80003550:	1a910f03          	lb	t5,425(sp)

0000000080003554 <i_3271>:
    80003554:	0398f063          	bleu	s9,a7,80003574 <i_3279>

0000000080003558 <i_3272>:
    80003558:	01ace663          	bltu	s9,s10,80003564 <i_3275>

000000008000355c <i_3273>:
    8000355c:	01ecee63          	bltu	s9,t5,80003578 <i_3280>

0000000080003560 <i_3274>:
    80003560:	f4710983          	lb	s3,-185(sp)

0000000080003564 <i_3275>:
    80003564:	0383ecbb          	remw	s9,t2,s8

0000000080003568 <i_3276>:
    80003568:	937c049b          	addiw	s1,s8,-1737

000000008000356c <i_3277>:
    8000356c:	ec812083          	lw	ra,-312(sp)

0000000080003570 <i_3278>:
    80003570:	0210a833          	mulhsu	a6,ra,ra

0000000080003574 <i_3279>:
    80003574:	e9313023          	sd	s3,-384(sp)

0000000080003578 <i_3280>:
    80003578:	0e016983          	lwu	s3,224(sp)

000000008000357c <i_3281>:
    8000357c:	0010b0b3          	sltu	ra,ra,ra

0000000080003580 <i_3282>:
    80003580:	82200393          	li	t2,-2014

0000000080003584 <i_3283>:
    80003584:	82700c13          	li	s8,-2009

0000000080003588 <i_3284>:
    80003588:	00000013          	nop

000000008000358c <i_3285>:
    8000358c:	f4110283          	lb	t0,-191(sp)

0000000080003590 <i_3286>:
    80003590:	021c5463          	ble	ra,s8,800035b8 <i_3295>

0000000080003594 <i_3287>:
    80003594:	06112223          	sw	ra,100(sp)

0000000080003598 <i_3288>:
    80003598:	00150533          	add	a0,a0,ra

000000008000359c <i_3289>:
    8000359c:	00138393          	addi	t2,t2,1
    800035a0:	ff83c4e3          	blt	t2,s8,80003588 <i_3284>

00000000800035a4 <i_3290>:
    800035a4:	00181463          	bne	a6,ra,800035ac <i_3292>

00000000800035a8 <i_3291>:
    800035a8:	f8d0a793          	slti	a5,ra,-115

00000000800035ac <i_3292>:
    800035ac:	02184dbb          	divw	s11,a6,ra

00000000800035b0 <i_3293>:
    800035b0:	1bd14503          	lbu	a0,445(sp)

00000000800035b4 <i_3294>:
    800035b4:	025566bb          	remw	a3,a0,t0

00000000800035b8 <i_3295>:
    800035b8:	03016483          	lwu	s1,48(sp)

00000000800035bc <i_3296>:
    800035bc:	00a54863          	blt	a0,a0,800035cc <i_3300>

00000000800035c0 <i_3297>:
    800035c0:	0354e6b3          	rem	a3,s1,s5

00000000800035c4 <i_3298>:
    800035c4:	01700493          	li	s1,23

00000000800035c8 <i_3299>:
    800035c8:	0097d7bb          	srlw	a5,a5,s1

00000000800035cc <i_3300>:
    800035cc:	01969a63          	bne	a3,s9,800035e0 <i_3305>

00000000800035d0 <i_3301>:
    800035d0:	17d12a23          	sw	t4,372(sp)

00000000800035d4 <i_3302>:
    800035d4:	01412b03          	lw	s6,20(sp)

00000000800035d8 <i_3303>:
    800035d8:	01a00d93          	li	s11,26

00000000800035dc <i_3304>:
    800035dc:	01b3d4bb          	srlw	s1,t2,s11

00000000800035e0 <i_3305>:
    800035e0:	fd310383          	lb	t2,-45(sp)

00000000800035e4 <i_3306>:
    800035e4:	00200b93          	li	s7,2

00000000800035e8 <i_3307>:
    800035e8:	4173d3b3          	sra	t2,t2,s7

00000000800035ec <i_3308>:
    800035ec:	14812b83          	lw	s7,328(sp)

00000000800035f0 <i_3309>:
    800035f0:	01754a63          	blt	a0,s7,80003604 <i_3314>

00000000800035f4 <i_3310>:
    800035f4:	177101a3          	sb	s7,355(sp)

00000000800035f8 <i_3311>:
    800035f8:	f5416b83          	lwu	s7,-172(sp)

00000000800035fc <i_3312>:
    800035fc:	00e00b93          	li	s7,14

0000000080003600 <i_3313>:
    80003600:	417bd533          	sra	a0,s7,s7

0000000080003604 <i_3314>:
    80003604:	f7712423          	sw	s7,-152(sp)

0000000080003608 <i_3315>:
    80003608:	0f412b83          	lw	s7,244(sp)

000000008000360c <i_3316>:
    8000360c:	10914983          	lbu	s3,265(sp)

0000000080003610 <i_3317>:
    80003610:	e3711423          	sh	s7,-472(sp)

0000000080003614 <i_3318>:
    80003614:	0ea108a3          	sb	a0,241(sp)

0000000080003618 <i_3319>:
    80003618:	02bbf5b3          	remu	a1,s7,a1

000000008000361c <i_3320>:
    8000361c:	480e099b          	addiw	s3,t3,1152

0000000080003620 <i_3321>:
    80003620:	06e22413          	slti	s0,tp,110

0000000080003624 <i_3322>:
    80003624:	03798bb3          	mul	s7,s3,s7

0000000080003628 <i_3323>:
    80003628:	017535b3          	sltu	a1,a0,s7

000000008000362c <i_3324>:
    8000362c:	028bc063          	blt	s7,s0,8000364c <i_3332>

0000000080003630 <i_3325>:
    80003630:	00445b93          	srli	s7,s0,0x4

0000000080003634 <i_3326>:
    80003634:	00a5eab3          	or	s5,a1,a0

0000000080003638 <i_3327>:
    80003638:	028b8263          	beq	s7,s0,8000365c <i_3336>

000000008000363c <i_3328>:
    8000363c:	01900c93          	li	s9,25

0000000080003640 <i_3329>:
    80003640:	019a9533          	sll	a0,s5,s9

0000000080003644 <i_3330>:
    80003644:	e1a11583          	lh	a1,-486(sp)

0000000080003648 <i_3331>:
    80003648:	008ac433          	xor	s0,s5,s0

000000008000364c <i_3332>:
    8000364c:	15013a83          	ld	s5,336(sp)

0000000080003650 <i_3333>:
    80003650:	40840233          	sub	tp,s0,s0

0000000080003654 <i_3334>:
    80003654:	08413423          	sd	tp,136(sp)

0000000080003658 <i_3335>:
    80003658:	1c514403          	lbu	s0,453(sp)

000000008000365c <i_3336>:
    8000365c:	002e9e9b          	slliw	t4,t4,0x2

0000000080003660 <i_3337>:
    80003660:	028441b3          	div	gp,s0,s0

0000000080003664 <i_3338>:
    80003664:	82a00c13          	li	s8,-2006

0000000080003668 <i_3339>:
    80003668:	82e00213          	li	tp,-2002

000000008000366c <i_3340>:
    8000366c:	00000013          	nop

0000000080003670 <i_3341>:
    80003670:	07c16403          	lwu	s0,124(sp)

0000000080003674 <i_3342>:
    80003674:	00000013          	nop

0000000080003678 <i_3343>:
    80003678:	00000013          	nop

000000008000367c <i_3344>:
    8000367c:	001c0c13          	addi	s8,s8,1 # ffffffffe993c001 <_end+0xffffffff6992bbed>
    80003680:	ff8256e3          	ble	s8,tp,8000366c <i_3340>

0000000080003684 <i_3345>:
    80003684:	03d2cebb          	divw	t4,t0,t4

0000000080003688 <i_3346>:
    80003688:	023ecebb          	divw	t4,t4,gp

000000008000368c <i_3347>:
    8000368c:	01d1feb3          	and	t4,gp,t4

0000000080003690 <i_3348>:
    80003690:	0151f263          	bleu	s5,gp,80003694 <i_3349>

0000000080003694 <i_3349>:
    80003694:	01ddcab3          	xor	s5,s11,t4

0000000080003698 <i_3350>:
    80003698:	e5813383          	ld	t2,-424(sp)

000000008000369c <i_3351>:
    8000369c:	12411a83          	lh	s5,292(sp)

00000000800036a0 <i_3352>:
    800036a0:	026aeabb          	remw	s5,s5,t1

00000000800036a4 <i_3353>:
    800036a4:	bb9aeb93          	ori	s7,s5,-1095

00000000800036a8 <i_3354>:
    800036a8:	f1e10803          	lb	a6,-226(sp)

00000000800036ac <i_3355>:
    800036ac:	1fa12223          	sw	s10,484(sp)

00000000800036b0 <i_3356>:
    800036b0:	eb310e23          	sb	s3,-324(sp)

00000000800036b4 <i_3357>:
    800036b4:	f9610e83          	lb	t4,-106(sp)

00000000800036b8 <i_3358>:
    800036b8:	eb510b23          	sb	s5,-330(sp)

00000000800036bc <i_3359>:
    800036bc:	0153e263          	bltu	t2,s5,800036c0 <i_3360>

00000000800036c0 <i_3360>:
    800036c0:	015be863          	bltu	s7,s5,800036d0 <i_3364>

00000000800036c4 <i_3361>:
    800036c4:	00700993          	li	s3,7

00000000800036c8 <i_3362>:
    800036c8:	013a96bb          	sllw	a3,s5,s3

00000000800036cc <i_3363>:
    800036cc:	e8614a03          	lbu	s4,-378(sp)

00000000800036d0 <i_3364>:
    800036d0:	16d13423          	sd	a3,360(sp)

00000000800036d4 <i_3365>:
    800036d4:	033efdb3          	remu	s11,t4,s3

00000000800036d8 <i_3366>:
    800036d8:	00499493          	slli	s1,s3,0x4

00000000800036dc <i_3367>:
    800036dc:	ef611623          	sh	s6,-276(sp)

00000000800036e0 <i_3368>:
    800036e0:	00980833          	add	a6,a6,s1

00000000800036e4 <i_3369>:
    800036e4:	01816d03          	lwu	s10,24(sp)

00000000800036e8 <i_3370>:
    800036e8:	10910823          	sb	s1,272(sp)

00000000800036ec <i_3371>:
    800036ec:	00000013          	nop

00000000800036f0 <i_3372>:
    800036f0:	87100393          	li	t2,-1935

00000000800036f4 <i_3373>:
    800036f4:	88500213          	li	tp,-1915

00000000800036f8 <i_3374>:
    800036f8:	00138393          	addi	t2,t2,1
    800036fc:	fe439ee3          	bne	t2,tp,800036f8 <i_3374>

0000000080003700 <i_3375>:
    80003700:	e5a11e03          	lh	t3,-422(sp)

0000000080003704 <i_3376>:
    80003704:	07c15d03          	lhu	s10,124(sp)

0000000080003708 <i_3377>:
    80003708:	75b00793          	li	a5,1883

000000008000370c <i_3378>:
    8000370c:	75d00c93          	li	s9,1885

0000000080003710 <i_3379>:
    80003710:	03cd2f33          	mulhsu	t5,s10,t3

0000000080003714 <i_3380>:
    80003714:	018e29b3          	slt	s3,t3,s8

0000000080003718 <i_3381>:
    80003718:	75200393          	li	t2,1874

000000008000371c <i_3382>:
    8000371c:	75f00e13          	li	t3,1887

0000000080003720 <i_3383>:
    80003720:	017cfbb3          	and	s7,s9,s7

0000000080003724 <i_3384>:
    80003724:	0d812a83          	lw	s5,216(sp)

0000000080003728 <i_3385>:
    80003728:	13d14403          	lbu	s0,317(sp)

000000008000372c <i_3386>:
    8000372c:	2b478b9b          	addiw	s7,a5,692

0000000080003730 <i_3387>:
    80003730:	00138393          	addi	t2,t2,1
    80003734:	ffc396e3          	bne	t2,t3,80003720 <i_3383>

0000000080003738 <i_3388>:
    80003738:	03700393          	li	t2,55

000000008000373c <i_3389>:
    8000373c:	00739333          	sll	t1,t2,t2

0000000080003740 <i_3390>:
    80003740:	00178793          	addi	a5,a5,1 # 8495709d <_end+0x4946c89>
    80003744:	fcfc96e3          	bne	s9,a5,80003710 <i_3379>

0000000080003748 <i_3391>:
    80003748:	f3713c23          	sd	s7,-200(sp)

000000008000374c <i_3392>:
    8000374c:	ff910aa3          	sb	s9,-11(sp)

0000000080003750 <i_3393>:
    80003750:	ebc16283          	lwu	t0,-324(sp)

0000000080003754 <i_3394>:
    80003754:	01346a63          	bltu	s0,s3,80003768 <i_3399>

0000000080003758 <i_3395>:
    80003758:	ef016e03          	lwu	t3,-272(sp)

000000008000375c <i_3396>:
    8000375c:	e4514b83          	lbu	s7,-443(sp)

0000000080003760 <i_3397>:
    80003760:	ffa15c03          	lhu	s8,-6(sp)

0000000080003764 <i_3398>:
    80003764:	f1712623          	sw	s7,-244(sp)

0000000080003768 <i_3399>:
    80003768:	01087bb3          	and	s7,a6,a6

000000008000376c <i_3400>:
    8000376c:	e8816a03          	lwu	s4,-376(sp)

0000000080003770 <i_3401>:
    80003770:	4014d49b          	sraiw	s1,s1,0x1

0000000080003774 <i_3402>:
    80003774:	00281a9b          	slliw	s5,a6,0x2

0000000080003778 <i_3403>:
    80003778:	02949463          	bne	s1,s1,800037a0 <i_3413>

000000008000377c <i_3404>:
    8000377c:	19810803          	lb	a6,408(sp)

0000000080003780 <i_3405>:
    80003780:	0304b433          	mulhu	s0,s1,a6

0000000080003784 <i_3406>:
    80003784:	4045d593          	srai	a1,a1,0x4

0000000080003788 <i_3407>:
    80003788:	03085a3b          	divuw	s4,a6,a6

000000008000378c <i_3408>:
    8000378c:	02ba3833          	mulhu	a6,s4,a1

0000000080003790 <i_3409>:
    80003790:	ec013583          	ld	a1,-320(sp)

0000000080003794 <i_3410>:
    80003794:	00000013          	nop

0000000080003798 <i_3411>:
    80003798:	001ad39b          	srliw	t2,s5,0x1

000000008000379c <i_3412>:
    8000379c:	00b5c833          	xor	a6,a1,a1

00000000800037a0 <i_3413>:
    800037a0:	00800593          	li	a1,8

00000000800037a4 <i_3414>:
    800037a4:	00b655bb          	srlw	a1,a2,a1

00000000800037a8 <i_3415>:
    800037a8:	80d00a93          	li	s5,-2035

00000000800037ac <i_3416>:
    800037ac:	81700613          	li	a2,-2025

00000000800037b0 <i_3417>:
    800037b0:	1cc12a23          	sw	a2,468(sp)

00000000800037b4 <i_3418>:
    800037b4:	01400293          	li	t0,20

00000000800037b8 <i_3419>:
    800037b8:	00559a3b          	sllw	s4,a1,t0

00000000800037bc <i_3420>:
    800037bc:	02013383          	ld	t2,32(sp)

00000000800037c0 <i_3421>:
    800037c0:	ebca6793          	ori	a5,s4,-324

00000000800037c4 <i_3422>:
    800037c4:	01900f13          	li	t5,25

00000000800037c8 <i_3423>:
    800037c8:	01ec5a3b          	srlw	s4,s8,t5

00000000800037cc <i_3424>:
    800037cc:	001a8a93          	addi	s5,s5,1
    800037d0:	feca90e3          	bne	s5,a2,800037b0 <i_3417>

00000000800037d4 <i_3425>:
    800037d4:	02ff1063          	bne	t5,a5,800037f4 <i_3433>

00000000800037d8 <i_3426>:
    800037d8:	fb613023          	sd	s6,-96(sp)

00000000800037dc <i_3427>:
    800037dc:	40fb0b3b          	subw	s6,s6,a5

00000000800037e0 <i_3428>:
    800037e0:	002a1b1b          	slliw	s6,s4,0x2

00000000800037e4 <i_3429>:
    800037e4:	01fa0a63          	beq	s4,t6,800037f8 <i_3434>

00000000800037e8 <i_3430>:
    800037e8:	0347c263          	blt	a5,s4,8000380c <i_3439>

00000000800037ec <i_3431>:
    800037ec:	e5814e83          	lbu	t4,-424(sp)

00000000800037f0 <i_3432>:
    800037f0:	0d314783          	lbu	a5,211(sp)

00000000800037f4 <i_3433>:
    800037f4:	02a55bb3          	divu	s7,a0,a0

00000000800037f8 <i_3434>:
    800037f8:	00000013          	nop

00000000800037fc <i_3435>:
    800037fc:	03754bbb          	divw	s7,a0,s7

0000000080003800 <i_3436>:
    80003800:	00000013          	nop

0000000080003804 <i_3437>:
    80003804:	1ca13423          	sd	a0,456(sp)

0000000080003808 <i_3438>:
    80003808:	402bdb1b          	sraiw	s6,s7,0x2

000000008000380c <i_3439>:
    8000380c:	fac12023          	sw	a2,-96(sp)

0000000080003810 <i_3440>:
    80003810:	00712e23          	sw	t2,28(sp)

0000000080003814 <i_3441>:
    80003814:	89500a13          	li	s4,-1899

0000000080003818 <i_3442>:
    80003818:	89a00513          	li	a0,-1894

000000008000381c <i_3443>:
    8000381c:	00400413          	li	s0,4

0000000080003820 <i_3444>:
    80003820:	008b13bb          	sllw	t2,s6,s0

0000000080003824 <i_3445>:
    80003824:	78800993          	li	s3,1928

0000000080003828 <i_3446>:
    80003828:	78f00613          	li	a2,1935

000000008000382c <i_3447>:
    8000382c:	fce11803          	lh	a6,-50(sp)

0000000080003830 <i_3448>:
    80003830:	00198993          	addi	s3,s3,1
    80003834:	fec9cce3          	blt	s3,a2,8000382c <i_3447>

0000000080003838 <i_3449>:
    80003838:	024404b3          	mul	s1,s0,tp

000000008000383c <i_3450>:
    8000383c:	001a0a13          	addi	s4,s4,1
    80003840:	fd455ee3          	ble	s4,a0,8000381c <i_3443>

0000000080003844 <i_3451>:
    80003844:	f4c11223          	sh	a2,-188(sp)

0000000080003848 <i_3452>:
    80003848:	00145b13          	srli	s6,s0,0x1

000000008000384c <i_3453>:
    8000384c:	40948c33          	sub	s8,s1,s1

0000000080003850 <i_3454>:
    80003850:	09011c23          	sh	a6,152(sp)

0000000080003854 <i_3455>:
    80003854:	e5610023          	sb	s6,-448(sp)

0000000080003858 <i_3456>:
    80003858:	06912023          	sw	s1,96(sp)

000000008000385c <i_3457>:
    8000385c:	08e15803          	lhu	a6,142(sp)

0000000080003860 <i_3458>:
    80003860:	0384c53b          	divw	a0,s1,s8

0000000080003864 <i_3459>:
    80003864:	f1012e23          	sw	a6,-228(sp)

0000000080003868 <i_3460>:
    80003868:	e2a13423          	sd	a0,-472(sp)

000000008000386c <i_3461>:
    8000386c:	031c7d3b          	remuw	s10,s8,a7

0000000080003870 <i_3462>:
    80003870:	1b416e03          	lwu	t3,436(sp)

0000000080003874 <i_3463>:
    80003874:	01c20233          	add	tp,tp,t3

0000000080003878 <i_3464>:
    80003878:	04411523          	sh	tp,74(sp)

000000008000387c <i_3465>:
    8000387c:	03c21d33          	mulh	s10,tp,t3

0000000080003880 <i_3466>:
    80003880:	00a51e63          	bne	a0,a0,8000389c <i_3473>

0000000080003884 <i_3467>:
    80003884:	02bc6063          	bltu	s8,a1,800038a4 <i_3475>

0000000080003888 <i_3468>:
    80003888:	16e11803          	lh	a6,366(sp)

000000008000388c <i_3469>:
    8000388c:	0ca10da3          	sb	a0,219(sp)

0000000080003890 <i_3470>:
    80003890:	fd210d03          	lb	s10,-46(sp)

0000000080003894 <i_3471>:
    80003894:	17410603          	lb	a2,372(sp)

0000000080003898 <i_3472>:
    80003898:	0b416283          	lwu	t0,180(sp)

000000008000389c <i_3473>:
    8000389c:	ecc16183          	lwu	gp,-308(sp)

00000000800038a0 <i_3474>:
    800038a0:	03b100a3          	sb	s11,33(sp)

00000000800038a4 <i_3475>:
    800038a4:	00000013          	nop

00000000800038a8 <i_3476>:
    800038a8:	00000013          	nop

00000000800038ac <i_3477>:
    800038ac:	82800d93          	li	s11,-2008

00000000800038b0 <i_3478>:
    800038b0:	82a00293          	li	t0,-2006

00000000800038b4 <i_3479>:
    800038b4:	fe416c03          	lwu	s8,-28(sp)

00000000800038b8 <i_3480>:
    800038b8:	ff813423          	sd	s8,-24(sp)

00000000800038bc <i_3481>:
    800038bc:	418d853b          	subw	a0,s11,s8

00000000800038c0 <i_3482>:
    800038c0:	03857663          	bleu	s8,a0,800038ec <i_3492>

00000000800038c4 <i_3483>:
    800038c4:	001d8d93          	addi	s11,s11,1 # 3e88b001 <main-0x41774fff>
    800038c8:	ffb2f6e3          	bleu	s11,t0,800038b4 <i_3479>

00000000800038cc <i_3484>:
    800038cc:	03300c13          	li	s8,51

00000000800038d0 <i_3485>:
    800038d0:	018c1c33          	sll	s8,s8,s8

00000000800038d4 <i_3486>:
    800038d4:	01a15183          	lhu	gp,26(sp)

00000000800038d8 <i_3487>:
    800038d8:	05813423          	sd	s8,72(sp)

00000000800038dc <i_3488>:
    800038dc:	e3a11c83          	lh	s9,-454(sp)

00000000800038e0 <i_3489>:
    800038e0:	bd3e3413          	sltiu	s0,t3,-1069

00000000800038e4 <i_3490>:
    800038e4:	e8313c23          	sd	gp,-360(sp)

00000000800038e8 <i_3491>:
    800038e8:	0381e23b          	remw	tp,gp,s8

00000000800038ec <i_3492>:
    800038ec:	fea13823          	sd	a0,-16(sp)

00000000800038f0 <i_3493>:
    800038f0:	e6c15b83          	lhu	s7,-404(sp)

00000000800038f4 <i_3494>:
    800038f4:	02427e3b          	remuw	t3,tp,tp

00000000800038f8 <i_3495>:
    800038f8:	023223b3          	mulhsu	t2,tp,gp

00000000800038fc <i_3496>:
    800038fc:	fb811823          	sh	s8,-80(sp)

0000000080003900 <i_3497>:
    80003900:	afb26b13          	ori	s6,tp,-1285

0000000080003904 <i_3498>:
    80003904:	00600c93          	li	s9,6

0000000080003908 <i_3499>:
    80003908:	0194d83b          	srlw	a6,s1,s9

000000008000390c <i_3500>:
    8000390c:	0036d693          	srli	a3,a3,0x3

0000000080003910 <i_3501>:
    80003910:	004bb2b3          	sltu	t0,s7,tp

0000000080003914 <i_3502>:
    80003914:	f9412403          	lw	s0,-108(sp)

0000000080003918 <i_3503>:
    80003918:	0ad10423          	sb	a3,168(sp)

000000008000391c <i_3504>:
    8000391c:	3bb20813          	addi	a6,tp,955 # 3bb <main-0x7ffffc45>

0000000080003920 <i_3505>:
    80003920:	0182e863          	bltu	t0,s8,80003930 <i_3509>

0000000080003924 <i_3506>:
    80003924:	03d4c23b          	divw	tp,s1,t4

0000000080003928 <i_3507>:
    80003928:	0252af33          	mulhsu	t5,t0,t0

000000008000392c <i_3508>:
    8000392c:	09813383          	ld	t2,152(sp)

0000000080003930 <i_3509>:
    80003930:	0a711723          	sh	t2,174(sp)

0000000080003934 <i_3510>:
    80003934:	00000013          	nop

0000000080003938 <i_3511>:
    80003938:	80a00213          	li	tp,-2038

000000008000393c <i_3512>:
    8000393c:	81b00813          	li	a6,-2021

0000000080003940 <i_3513>:
    80003940:	e5013023          	sd	a6,-448(sp)

0000000080003944 <i_3514>:
    80003944:	0122f663          	bleu	s2,t0,80003950 <i_3517>

0000000080003948 <i_3515>:
    80003948:	00281d1b          	slliw	s10,a6,0x2

000000008000394c <i_3516>:
    8000394c:	ef416603          	lwu	a2,-268(sp)

0000000080003950 <i_3517>:
    80003950:	0032559b          	srliw	a1,tp,0x3

0000000080003954 <i_3518>:
    80003954:	11814b03          	lbu	s6,280(sp)

0000000080003958 <i_3519>:
    80003958:	f7812583          	lw	a1,-136(sp)

000000008000395c <i_3520>:
    8000395c:	003b599b          	srliw	s3,s6,0x3

0000000080003960 <i_3521>:
    80003960:	02bb0263          	beq	s6,a1,80003984 <i_3529>

0000000080003964 <i_3522>:
    80003964:	00120213          	addi	tp,tp,1 # 1 <main-0x7fffffff>
    80003968:	fc485ce3          	ble	tp,a6,80003940 <i_3513>

000000008000396c <i_3523>:
    8000396c:	01a87863          	bleu	s10,a6,8000397c <i_3527>

0000000080003970 <i_3524>:
    80003970:	fec10b03          	lb	s6,-20(sp)

0000000080003974 <i_3525>:
    80003974:	002b9f13          	slli	t5,s7,0x2

0000000080003978 <i_3526>:
    80003978:	03fcc1b3          	div	gp,s9,t6

000000008000397c <i_3527>:
    8000397c:	07711e23          	sh	s7,124(sp)

0000000080003980 <i_3528>:
    80003980:	81cc0c13          	addi	s8,s8,-2020

0000000080003984 <i_3529>:
    80003984:	0d013c03          	ld	s8,208(sp)

0000000080003988 <i_3530>:
    80003988:	11012c03          	lw	s8,272(sp)

000000008000398c <i_3531>:
    8000398c:	77b00b93          	li	s7,1915

0000000080003990 <i_3532>:
    80003990:	78100a93          	li	s5,1921

0000000080003994 <i_3533>:
    80003994:	eae10e03          	lb	t3,-338(sp)

0000000080003998 <i_3534>:
    80003998:	e9215203          	lhu	tp,-366(sp)

000000008000399c <i_3535>:
    8000399c:	6e2c0c13          	addi	s8,s8,1762

00000000800039a0 <i_3536>:
    800039a0:	e9314203          	lbu	tp,-365(sp)

00000000800039a4 <i_3537>:
    800039a4:	02445663          	ble	tp,s0,800039d0 <i_3547>

00000000800039a8 <i_3538>:
    800039a8:	001b8b93          	addi	s7,s7,1
    800039ac:	ff7a94e3          	bne	s5,s7,80003994 <i_3533>

00000000800039b0 <i_3539>:
    800039b0:	01e00313          	li	t1,30

00000000800039b4 <i_3540>:
    800039b4:	006797b3          	sll	a5,a5,t1

00000000800039b8 <i_3541>:
    800039b8:	67146413          	ori	s0,s0,1649

00000000800039bc <i_3542>:
    800039bc:	02841463          	bne	s0,s0,800039e4 <i_3552>

00000000800039c0 <i_3543>:
    800039c0:	00864633          	xor	a2,a2,s0

00000000800039c4 <i_3544>:
    800039c4:	02835263          	ble	s0,t1,800039e8 <i_3553>

00000000800039c8 <i_3545>:
    800039c8:	02811b23          	sh	s0,54(sp)

00000000800039cc <i_3546>:
    800039cc:	0bd11023          	sh	t4,160(sp)

00000000800039d0 <i_3547>:
    800039d0:	10415e83          	lhu	t4,260(sp)

00000000800039d4 <i_3548>:
    800039d4:	0287c5b3          	div	a1,a5,s0

00000000800039d8 <i_3549>:
    800039d8:	03db5eb3          	divu	t4,s6,t4

00000000800039dc <i_3550>:
    800039dc:	0045d993          	srli	s3,a1,0x4

00000000800039e0 <i_3551>:
    800039e0:	02b599b3          	mulh	s3,a1,a1

00000000800039e4 <i_3552>:
    800039e4:	0de15603          	lhu	a2,222(sp)

00000000800039e8 <i_3553>:
    800039e8:	00a5b9b3          	sltu	s3,a1,a0

00000000800039ec <i_3554>:
    800039ec:	02c5fcb3          	remu	s9,a1,a2

00000000800039f0 <i_3555>:
    800039f0:	85600413          	li	s0,-1962

00000000800039f4 <i_3556>:
    800039f4:	86a00b13          	li	s6,-1942

00000000800039f8 <i_3557>:
    800039f8:	01700193          	li	gp,23

00000000800039fc <i_3558>:
    800039fc:	0036523b          	srlw	tp,a2,gp

0000000080003a00 <i_3559>:
    80003a00:	85100a93          	li	s5,-1967

0000000080003a04 <i_3560>:
    80003a04:	86300613          	li	a2,-1949

0000000080003a08 <i_3561>:
    80003a08:	001a8a93          	addi	s5,s5,1
    80003a0c:	feca9ee3          	bne	s5,a2,80003a08 <i_3561>

0000000080003a10 <i_3562>:
    80003a10:	e5110f03          	lb	t5,-431(sp)

0000000080003a14 <i_3563>:
    80003a14:	f4816a83          	lwu	s5,-184(sp)

0000000080003a18 <i_3564>:
    80003a18:	00e00d13          	li	s10,14

0000000080003a1c <i_3565>:
    80003a1c:	41a6dd3b          	sraw	s10,a3,s10

0000000080003a20 <i_3566>:
    80003a20:	00140413          	addi	s0,s0,1
    80003a24:	fc8b7ae3          	bleu	s0,s6,800039f8 <i_3557>

0000000080003a28 <i_3567>:
    80003a28:	41ac0c3b          	subw	s8,s8,s10

0000000080003a2c <i_3568>:
    80003a2c:	f8415203          	lhu	tp,-124(sp)

0000000080003a30 <i_3569>:
    80003a30:	038aa1b3          	mulhsu	gp,s5,s8

0000000080003a34 <i_3570>:
    80003a34:	ed815a83          	lhu	s5,-296(sp)

0000000080003a38 <i_3571>:
    80003a38:	13511f23          	sh	s5,318(sp)

0000000080003a3c <i_3572>:
    80003a3c:	00000013          	nop

0000000080003a40 <i_3573>:
    80003a40:	00000013          	nop

0000000080003a44 <i_3574>:
    80003a44:	79100213          	li	tp,1937

0000000080003a48 <i_3575>:
    80003a48:	7a500313          	li	t1,1957

0000000080003a4c <i_3576>:
    80003a4c:	0cb10183          	lb	gp,203(sp)

0000000080003a50 <i_3577>:
    80003a50:	e6311023          	sh	gp,-416(sp)

0000000080003a54 <i_3578>:
    80003a54:	00000013          	nop

0000000080003a58 <i_3579>:
    80003a58:	7c8e4a93          	xori	s5,t3,1992

0000000080003a5c <i_3580>:
    80003a5c:	015adc63          	ble	s5,s5,80003a74 <i_3586>

0000000080003a60 <i_3581>:
    80003a60:	1c4afd93          	andi	s11,s5,452

0000000080003a64 <i_3582>:
    80003a64:	00000013          	nop

0000000080003a68 <i_3583>:
    80003a68:	035d9533          	mulh	a0,s11,s5

0000000080003a6c <i_3584>:
    80003a6c:	40fa0433          	sub	s0,s4,a5

0000000080003a70 <i_3585>:
    80003a70:	ef813603          	ld	a2,-264(sp)

0000000080003a74 <i_3586>:
    80003a74:	ee4a8b1b          	addiw	s6,s5,-284

0000000080003a78 <i_3587>:
    80003a78:	eb411c03          	lh	s8,-332(sp)

0000000080003a7c <i_3588>:
    80003a7c:	00120213          	addi	tp,tp,1 # 1 <main-0x7fffffff>
    80003a80:	fc6246e3          	blt	tp,t1,80003a4c <i_3576>

0000000080003a84 <i_3589>:
    80003a84:	03a453b3          	divu	t2,s0,s10

0000000080003a88 <i_3590>:
    80003a88:	d9ec2f13          	slti	t5,s8,-610

0000000080003a8c <i_3591>:
    80003a8c:	f9015a03          	lhu	s4,-112(sp)

0000000080003a90 <i_3592>:
    80003a90:	4a307e97          	auipc	t4,0x4a307

0000000080003a94 <i_3593>:
    80003a94:	03ae8d33          	mul	s10,t4,s10

0000000080003a98 <i_3594>:
    80003a98:	014686b3          	add	a3,a3,s4

0000000080003a9c <i_3595>:
    80003a9c:	f5013503          	ld	a0,-176(sp)

0000000080003aa0 <i_3596>:
    80003aa0:	02df1a33          	mulh	s4,t5,a3

0000000080003aa4 <i_3597>:
    80003aa4:	8b900693          	li	a3,-1863

0000000080003aa8 <i_3598>:
    80003aa8:	8bd00e93          	li	t4,-1859

0000000080003aac <i_3599>:
    80003aac:	03e6f063          	bleu	t5,a3,80003acc <i_3607>

0000000080003ab0 <i_3600>:
    80003ab0:	02d0ca3b          	divw	s4,ra,a3

0000000080003ab4 <i_3601>:
    80003ab4:	e6a10a23          	sb	a0,-396(sp)

0000000080003ab8 <i_3602>:
    80003ab8:	032e3e33          	mulhu	t3,t3,s2

0000000080003abc <i_3603>:
    80003abc:	00d11523          	sh	a3,10(sp)

0000000080003ac0 <i_3604>:
    80003ac0:	18a106a3          	sb	a0,397(sp)

0000000080003ac4 <i_3605>:
    80003ac4:	404e5513          	srai	a0,t3,0x4

0000000080003ac8 <i_3606>:
    80003ac8:	17813383          	ld	t2,376(sp)

0000000080003acc <i_3607>:
    80003acc:	0fb13c23          	sd	s11,248(sp)

0000000080003ad0 <i_3608>:
    80003ad0:	14812183          	lw	gp,328(sp)

0000000080003ad4 <i_3609>:
    80003ad4:	00900d13          	li	s10,9

0000000080003ad8 <i_3610>:
    80003ad8:	41a1de3b          	sraw	t3,gp,s10

0000000080003adc <i_3611>:
    80003adc:	00168693          	addi	a3,a3,1
    80003ae0:	fdd696e3          	bne	a3,t4,80003aac <i_3599>

0000000080003ae4 <i_3612>:
    80003ae4:	01ce2e33          	slt	t3,t3,t3

0000000080003ae8 <i_3613>:
    80003ae8:	03ce6063          	bltu	t3,t3,80003b08 <i_3621>

0000000080003aec <i_3614>:
    80003aec:	033e13b3          	mulh	t2,t3,s3

0000000080003af0 <i_3615>:
    80003af0:	03ce1463          	bne	t3,t3,80003b18 <i_3625>

0000000080003af4 <i_3616>:
    80003af4:	03538463          	beq	t2,s5,80003b1c <i_3626>

0000000080003af8 <i_3617>:
    80003af8:	00000013          	nop

0000000080003afc <i_3618>:
    80003afc:	6d91b093          	sltiu	ra,gp,1753

0000000080003b00 <i_3619>:
    80003b00:	00000013          	nop

0000000080003b04 <i_3620>:
    80003b04:	0010d093          	srli	ra,ra,0x1

0000000080003b08 <i_3621>:
    80003b08:	02ab51b3          	divu	gp,s6,a0

0000000080003b0c <i_3622>:
    80003b0c:	13c12a23          	sw	t3,308(sp)

0000000080003b10 <i_3623>:
    80003b10:	00000013          	nop

0000000080003b14 <i_3624>:
    80003b14:	39b0c193          	xori	gp,ra,923

0000000080003b18 <i_3625>:
    80003b18:	00000013          	nop

0000000080003b1c <i_3626>:
    80003b1c:	e4812083          	lw	ra,-440(sp)

0000000080003b20 <i_3627>:
    80003b20:	f7412503          	lw	a0,-140(sp)

0000000080003b24 <i_3628>:
    80003b24:	75a00e13          	li	t3,1882

0000000080003b28 <i_3629>:
    80003b28:	75d00393          	li	t2,1885

0000000080003b2c <i_3630>:
    80003b2c:	0020981b          	slliw	a6,ra,0x2

0000000080003b30 <i_3631>:
    80003b30:	1cc11a03          	lh	s4,460(sp)

0000000080003b34 <i_3632>:
    80003b34:	00000013          	nop

0000000080003b38 <i_3633>:
    80003b38:	12011683          	lh	a3,288(sp)

0000000080003b3c <i_3634>:
    80003b3c:	ec610d83          	lb	s11,-314(sp)

0000000080003b40 <i_3635>:
    80003b40:	13210d83          	lb	s11,306(sp)

0000000080003b44 <i_3636>:
    80003b44:	001e0e13          	addi	t3,t3,1
    80003b48:	fe7e62e3          	bltu	t3,t2,80003b2c <i_3630>

0000000080003b4c <i_3637>:
    80003b4c:	03a00c13          	li	s8,58

0000000080003b50 <i_3638>:
    80003b50:	01881833          	sll	a6,a6,s8

0000000080003b54 <i_3639>:
    80003b54:	01036863          	bltu	t1,a6,80003b64 <i_3643>

0000000080003b58 <i_3640>:
    80003b58:	f1387813          	andi	a6,a6,-237

0000000080003b5c <i_3641>:
    80003b5c:	fb813823          	sd	s8,-80(sp)

0000000080003b60 <i_3642>:
    80003b60:	01980263          	beq	a6,s9,80003b64 <i_3643>

0000000080003b64 <i_3643>:
    80003b64:	03a26b33          	rem	s6,tp,s10

0000000080003b68 <i_3644>:
    80003b68:	00000013          	nop

0000000080003b6c <i_3645>:
    80003b6c:	7d300813          	li	a6,2003

0000000080003b70 <i_3646>:
    80003b70:	7e400d13          	li	s10,2020

0000000080003b74 <i_3647>:
    80003b74:	1d610423          	sb	s6,456(sp)

0000000080003b78 <i_3648>:
    80003b78:	4a819c37          	lui	s8,0x4a819

0000000080003b7c <i_3649>:
    80003b7c:	ff013383          	ld	t2,-16(sp)

0000000080003b80 <i_3650>:
    80003b80:	f2c11b03          	lh	s6,-212(sp)

0000000080003b84 <i_3651>:
    80003b84:	0168cc63          	blt	a7,s6,80003b9c <i_3657>

0000000080003b88 <i_3652>:
    80003b88:	1cc10383          	lb	t2,460(sp)

0000000080003b8c <i_3653>:
    80003b8c:	ee713023          	sd	t2,-288(sp)

0000000080003b90 <i_3654>:
    80003b90:	e2012283          	lw	t0,-480(sp)

0000000080003b94 <i_3655>:
    80003b94:	06711423          	sh	t2,104(sp)

0000000080003b98 <i_3656>:
    80003b98:	e5612623          	sw	s6,-436(sp)

0000000080003b9c <i_3657>:
    80003b9c:	658b039b          	addiw	t2,s6,1624

0000000080003ba0 <i_3658>:
    80003ba0:	7013e313          	ori	t1,t2,1793

0000000080003ba4 <i_3659>:
    80003ba4:	ff2107a3          	sb	s2,-17(sp)

0000000080003ba8 <i_3660>:
    80003ba8:	00180813          	addi	a6,a6,1
    80003bac:	fd0d14e3          	bne	s10,a6,80003b74 <i_3647>

0000000080003bb0 <i_3661>:
    80003bb0:	18012383          	lw	t2,384(sp)

0000000080003bb4 <i_3662>:
    80003bb4:	0343d3bb          	divuw	t2,t2,s4

0000000080003bb8 <i_3663>:
    80003bb8:	0a815283          	lhu	t0,168(sp)

0000000080003bbc <i_3664>:
    80003bbc:	0053dc63          	ble	t0,t2,80003bd4 <i_3670>

0000000080003bc0 <i_3665>:
    80003bc0:	0273fdbb          	remuw	s11,t2,t2

0000000080003bc4 <i_3666>:
    80003bc4:	0073a433          	slt	s0,t2,t2

0000000080003bc8 <i_3667>:
    80003bc8:	73d85397          	auipc	t2,0x73d85

0000000080003bcc <i_3668>:
    80003bcc:	007d9663          	bne	s11,t2,80003bd8 <i_3671>

0000000080003bd0 <i_3669>:
    80003bd0:	0c410183          	lb	gp,196(sp)

0000000080003bd4 <i_3670>:
    80003bd4:	0035d59b          	srliw	a1,a1,0x3

0000000080003bd8 <i_3671>:
    80003bd8:	48f1b393          	sltiu	t2,gp,1167

0000000080003bdc <i_3672>:
    80003bdc:	07214383          	lbu	t2,114(sp)

0000000080003be0 <i_3673>:
    80003be0:	01e00493          	li	s1,30

0000000080003be4 <i_3674>:
    80003be4:	4093d53b          	sraw	a0,t2,s1

0000000080003be8 <i_3675>:
    80003be8:	f7013983          	ld	s3,-144(sp)

0000000080003bec <i_3676>:
    80003bec:	f5414683          	lbu	a3,-172(sp)

0000000080003bf0 <i_3677>:
    80003bf0:	f0b10aa3          	sb	a1,-235(sp)

0000000080003bf4 <i_3678>:
    80003bf4:	108101a3          	sb	s0,259(sp)

0000000080003bf8 <i_3679>:
    80003bf8:	fe514b83          	lbu	s7,-27(sp)

0000000080003bfc <i_3680>:
    80003bfc:	0075ec63          	bltu	a1,t2,80003c14 <i_3686>

0000000080003c00 <i_3681>:
    80003c00:	023b8533          	mul	a0,s7,gp

0000000080003c04 <i_3682>:
    80003c04:	2dfaeb97          	auipc	s7,0x2dfae

0000000080003c08 <i_3683>:
    80003c08:	1e813503          	ld	a0,488(sp)

0000000080003c0c <i_3684>:
    80003c0c:	01754533          	xor	a0,a0,s7

0000000080003c10 <i_3685>:
    80003c10:	004b8bb3          	add	s7,s7,tp

0000000080003c14 <i_3686>:
    80003c14:	02a10623          	sb	a0,44(sp)

0000000080003c18 <i_3687>:
    80003c18:	e5e11283          	lh	t0,-418(sp)

0000000080003c1c <i_3688>:
    80003c1c:	005bce63          	blt	s7,t0,80003c38 <i_3695>

0000000080003c20 <i_3689>:
    80003c20:	18e11b03          	lh	s6,398(sp)

0000000080003c24 <i_3690>:
    80003c24:	0228483b          	divw	a6,a6,sp

0000000080003c28 <i_3691>:
    80003c28:	00151263          	bne	a0,ra,80003c2c <i_3692>

0000000080003c2c <i_3692>:
    80003c2c:	037bae33          	mulhsu	t3,s7,s7

0000000080003c30 <i_3693>:
    80003c30:	b6fe7513          	andi	a0,t3,-1169

0000000080003c34 <i_3694>:
    80003c34:	010e61b3          	or	gp,t3,a6

0000000080003c38 <i_3695>:
    80003c38:	02a56833          	rem	a6,a0,a0

0000000080003c3c <i_3696>:
    80003c3c:	01816183          	lwu	gp,24(sp)

0000000080003c40 <i_3697>:
    80003c40:	f6a10e23          	sb	a0,-132(sp)

0000000080003c44 <i_3698>:
    80003c44:	75c00513          	li	a0,1884

0000000080003c48 <i_3699>:
    80003c48:	76c00d93          	li	s11,1900

0000000080003c4c <i_3700>:
    80003c4c:	1b013403          	ld	s0,432(sp)

0000000080003c50 <i_3701>:
    80003c50:	8c874e37          	lui	t3,0x8c874

0000000080003c54 <i_3702>:
    80003c54:	02a12623          	sw	a0,44(sp)

0000000080003c58 <i_3703>:
    80003c58:	00a407b3          	add	a5,s0,a0

0000000080003c5c <i_3704>:
    80003c5c:	04211a03          	lh	s4,66(sp)

0000000080003c60 <i_3705>:
    80003c60:	0d310e23          	sb	s3,220(sp)

0000000080003c64 <i_3706>:
    80003c64:	00000013          	nop

0000000080003c68 <i_3707>:
    80003c68:	f1813583          	ld	a1,-232(sp)

0000000080003c6c <i_3708>:
    80003c6c:	0025d99b          	srliw	s3,a1,0x2

0000000080003c70 <i_3709>:
    80003c70:	00150513          	addi	a0,a0,1
    80003c74:	fcaddce3          	ble	a0,s11,80003c4c <i_3700>

0000000080003c78 <i_3710>:
    80003c78:	fea15e83          	lhu	t4,-22(sp)

0000000080003c7c <i_3711>:
    80003c7c:	456d0537          	lui	a0,0x456d0

0000000080003c80 <i_3712>:
    80003c80:	03a15283          	lhu	t0,58(sp)

0000000080003c84 <i_3713>:
    80003c84:	f2012e83          	lw	t4,-224(sp)

0000000080003c88 <i_3714>:
    80003c88:	58b18c13          	addi	s8,gp,1419 # 942425f3 <_end+0x142321df>

0000000080003c8c <i_3715>:
    80003c8c:	001e9a13          	slli	s4,t4,0x1

0000000080003c90 <i_3716>:
    80003c90:	0ec16c03          	lwu	s8,236(sp)

0000000080003c94 <i_3717>:
    80003c94:	e8812083          	lw	ra,-376(sp)

0000000080003c98 <i_3718>:
    80003c98:	e8e15d03          	lhu	s10,-370(sp)

0000000080003c9c <i_3719>:
    80003c9c:	e7410c83          	lb	s9,-396(sp)

0000000080003ca0 <i_3720>:
    80003ca0:	15910a03          	lb	s4,345(sp)

0000000080003ca4 <i_3721>:
    80003ca4:	f4e15f03          	lhu	t5,-178(sp)

0000000080003ca8 <i_3722>:
    80003ca8:	01700b93          	li	s7,23

0000000080003cac <i_3723>:
    80003cac:	01765c3b          	srlw	s8,a2,s7

0000000080003cb0 <i_3724>:
    80003cb0:	f7713023          	sd	s7,-160(sp)

0000000080003cb4 <i_3725>:
    80003cb4:	06314f03          	lbu	t5,99(sp)

0000000080003cb8 <i_3726>:
    80003cb8:	edc12283          	lw	t0,-292(sp)

0000000080003cbc <i_3727>:
    80003cbc:	03012f03          	lw	t5,48(sp)

0000000080003cc0 <i_3728>:
    80003cc0:	0c015583          	lhu	a1,192(sp)

0000000080003cc4 <i_3729>:
    80003cc4:	0cb12623          	sw	a1,204(sp)

0000000080003cc8 <i_3730>:
    80003cc8:	f3713c23          	sd	s7,-200(sp)

0000000080003ccc <i_3731>:
    80003ccc:	038dd4b3          	divu	s1,s11,s8

0000000080003cd0 <i_3732>:
    80003cd0:	03700293          	li	t0,55

0000000080003cd4 <i_3733>:
    80003cd4:	405f5db3          	sra	s11,t5,t0

0000000080003cd8 <i_3734>:
    80003cd8:	0292c263          	blt	t0,s1,80003cfc <i_3743>

0000000080003cdc <i_3735>:
    80003cdc:	029df463          	bleu	s1,s11,80003d04 <i_3745>

0000000080003ce0 <i_3736>:
    80003ce0:	10013783          	ld	a5,256(sp)

0000000080003ce4 <i_3737>:
    80003ce4:	00cde663          	bltu	s11,a2,80003cf0 <i_3740>

0000000080003ce8 <i_3738>:
    80003ce8:	01bd8c63          	beq	s11,s11,80003d00 <i_3744>

0000000080003cec <i_3739>:
    80003cec:	03bd8063          	beq	s11,s11,80003d0c <i_3747>

0000000080003cf0 <i_3740>:
    80003cf0:	fb611303          	lh	t1,-74(sp)

0000000080003cf4 <i_3741>:
    80003cf4:	00611d83          	lh	s11,6(sp)

0000000080003cf8 <i_3742>:
    80003cf8:	01700093          	li	ra,23

0000000080003cfc <i_3743>:
    80003cfc:	001d9e33          	sll	t3,s11,ra

0000000080003d00 <i_3744>:
    80003d00:	01ce1c63          	bne	t3,t3,80003d18 <i_3750>

0000000080003d04 <i_3745>:
    80003d04:	76a7f093          	andi	ra,a5,1898

0000000080003d08 <i_3746>:
    80003d08:	01830c33          	add	s8,t1,s8

0000000080003d0c <i_3747>:
    80003d0c:	003c5d9b          	srliw	s11,s8,0x3

0000000080003d10 <i_3748>:
    80003d10:	018dc663          	blt	s11,s8,80003d1c <i_3751>

0000000080003d14 <i_3749>:
    80003d14:	04416603          	lwu	a2,68(sp)

0000000080003d18 <i_3750>:
    80003d18:	0217ed33          	rem	s10,a5,ra

0000000080003d1c <i_3751>:
    80003d1c:	00cd9463          	bne	s11,a2,80003d24 <i_3753>

0000000080003d20 <i_3752>:
    80003d20:	41d18ebb          	subw	t4,gp,t4

0000000080003d24 <i_3753>:
    80003d24:	e96d8e9b          	addiw	t4,s11,-362

0000000080003d28 <i_3754>:
    80003d28:	00000013          	nop

0000000080003d2c <i_3755>:
    80003d2c:	88600d93          	li	s11,-1914

0000000080003d30 <i_3756>:
    80003d30:	89000193          	li	gp,-1904

0000000080003d34 <i_3757>:
    80003d34:	01a79c63          	bne	a5,s10,80003d4c <i_3763>

0000000080003d38 <i_3758>:
    80003d38:	f6813d03          	ld	s10,-152(sp)

0000000080003d3c <i_3759>:
    80003d3c:	64864497          	auipc	s1,0x64864

0000000080003d40 <i_3760>:
    80003d40:	e9a10e83          	lb	t4,-358(sp)

0000000080003d44 <i_3761>:
    80003d44:	0f610603          	lb	a2,246(sp)

0000000080003d48 <i_3762>:
    80003d48:	008d1463          	bne	s10,s0,80003d50 <i_3764>

0000000080003d4c <i_3763>:
    80003d4c:	ec912823          	sw	s1,-304(sp)

0000000080003d50 <i_3764>:
    80003d50:	e9012d03          	lw	s10,-368(sp)

0000000080003d54 <i_3765>:
    80003d54:	01f64633          	xor	a2,a2,t6

0000000080003d58 <i_3766>:
    80003d58:	00000013          	nop

0000000080003d5c <i_3767>:
    80003d5c:	00000013          	nop

0000000080003d60 <i_3768>:
    80003d60:	03d65e3b          	divuw	t3,a2,t4

0000000080003d64 <i_3769>:
    80003d64:	001d8d93          	addi	s11,s11,1
    80003d68:	fc3de6e3          	bltu	s11,gp,80003d34 <i_3757>

0000000080003d6c <i_3770>:
    80003d6c:	03ae6263          	bltu	t3,s10,80003d90 <i_3779>

0000000080003d70 <i_3771>:
    80003d70:	01800e13          	li	t3,24

0000000080003d74 <i_3772>:
    80003d74:	01c654b3          	srl	s1,a2,t3

0000000080003d78 <i_3773>:
    80003d78:	03cff63b          	remuw	a2,t6,t3

0000000080003d7c <i_3774>:
    80003d7c:	e4813603          	ld	a2,-440(sp)

0000000080003d80 <i_3775>:
    80003d80:	40cf03b3          	sub	t2,t5,a2

0000000080003d84 <i_3776>:
    80003d84:	01c65a63          	ble	t3,a2,80003d98 <i_3781>

0000000080003d88 <i_3777>:
    80003d88:	1c611603          	lh	a2,454(sp)

0000000080003d8c <i_3778>:
    80003d8c:	02770f33          	mul	t5,a4,t2

0000000080003d90 <i_3779>:
    80003d90:	00cf4a63          	blt	t5,a2,80003da4 <i_3784>

0000000080003d94 <i_3780>:
    80003d94:	00600393          	li	t2,6

0000000080003d98 <i_3781>:
    80003d98:	007613bb          	sllw	t2,a2,t2

0000000080003d9c <i_3782>:
    80003d9c:	12c12823          	sw	a2,304(sp)

0000000080003da0 <i_3783>:
    80003da0:	00cf0663          	beq	t5,a2,80003dac <i_3786>

0000000080003da4 <i_3784>:
    80003da4:	cb7b6b13          	ori	s6,s6,-841

0000000080003da8 <i_3785>:
    80003da8:	03061633          	mulh	a2,a2,a6

0000000080003dac <i_3786>:
    80003dac:	02c623b3          	mulhsu	t2,a2,a2

0000000080003db0 <i_3787>:
    80003db0:	01660633          	add	a2,a2,s6

0000000080003db4 <i_3788>:
    80003db4:	f6c13423          	sd	a2,-152(sp)

0000000080003db8 <i_3789>:
    80003db8:	018b1e63          	bne	s6,s8,80003dd4 <i_3796>

0000000080003dbc <i_3790>:
    80003dbc:	fb612623          	sw	s6,-84(sp)

0000000080003dc0 <i_3791>:
    80003dc0:	efa15203          	lhu	tp,-262(sp)

0000000080003dc4 <i_3792>:
    80003dc4:	1c212223          	sw	sp,452(sp)

0000000080003dc8 <i_3793>:
    80003dc8:	f9013c03          	ld	s8,-112(sp)

0000000080003dcc <i_3794>:
    80003dcc:	07811a23          	sh	s8,116(sp)

0000000080003dd0 <i_3795>:
    80003dd0:	02c26c3b          	remw	s8,tp,a2

0000000080003dd4 <i_3796>:
    80003dd4:	02421063          	bne	tp,tp,80003df4 <i_3804>

0000000080003dd8 <i_3797>:
    80003dd8:	02c64463          	blt	a2,a2,80003e00 <i_3807>

0000000080003ddc <i_3798>:
    80003ddc:	4043dc1b          	sraiw	s8,t2,0x4

0000000080003de0 <i_3799>:
    80003de0:	ee413423          	sd	tp,-280(sp)

0000000080003de4 <i_3800>:
    80003de4:	0382023b          	mulw	tp,tp,s8

0000000080003de8 <i_3801>:
    80003de8:	ea910203          	lb	tp,-343(sp)

0000000080003dec <i_3802>:
    80003dec:	013cfa63          	bleu	s3,s9,80003e00 <i_3807>

0000000080003df0 <i_3803>:
    80003df0:	ee012083          	lw	ra,-288(sp)

0000000080003df4 <i_3804>:
    80003df4:	03912c23          	sw	s9,56(sp)

0000000080003df8 <i_3805>:
    80003df8:	01181263          	bne	a6,a7,80003dfc <i_3806>

0000000080003dfc <i_3806>:
    80003dfc:	03a0fcb3          	remu	s9,ra,s10

0000000080003e00 <i_3807>:
    80003e00:	01200c93          	li	s9,18

0000000080003e04 <i_3808>:
    80003e04:	419adbbb          	sraw	s7,s5,s9

0000000080003e08 <i_3809>:
    80003e08:	021aa5b3          	mulhsu	a1,s5,ra

0000000080003e0c <i_3810>:
    80003e0c:	07510023          	sb	s5,96(sp)

0000000080003e10 <i_3811>:
    80003e10:	010aee63          	bltu	s5,a6,80003e2c <i_3818>

0000000080003e14 <i_3812>:
    80003e14:	00158e63          	beq	a1,ra,80003e30 <i_3819>

0000000080003e18 <i_3813>:
    80003e18:	02b11e23          	sh	a1,60(sp)

0000000080003e1c <i_3814>:
    80003e1c:	03758063          	beq	a1,s7,80003e3c <i_3822>

0000000080003e20 <i_3815>:
    80003e20:	037bd063          	ble	s7,s7,80003e40 <i_3823>

0000000080003e24 <i_3816>:
    80003e24:	01f00b93          	li	s7,31

0000000080003e28 <i_3817>:
    80003e28:	017b90bb          	sllw	ra,s7,s7

0000000080003e2c <i_3818>:
    80003e2c:	ed714483          	lbu	s1,-297(sp)

0000000080003e30 <i_3819>:
    80003e30:	00000013          	nop

0000000080003e34 <i_3820>:
    80003e34:	05910403          	lb	s0,89(sp)

0000000080003e38 <i_3821>:
    80003e38:	00a00b93          	li	s7,10

0000000080003e3c <i_3822>:
    80003e3c:	01719bbb          	sllw	s7,gp,s7

0000000080003e40 <i_3823>:
    80003e40:	00000013          	nop

0000000080003e44 <i_3824>:
    80003e44:	eb412403          	lw	s0,-332(sp)

0000000080003e48 <i_3825>:
    80003e48:	7bd00293          	li	t0,1981

0000000080003e4c <i_3826>:
    80003e4c:	7ca00193          	li	gp,1994

0000000080003e50 <i_3827>:
    80003e50:	01746463          	bltu	s0,s7,80003e58 <i_3829>

0000000080003e54 <i_3828>:
    80003e54:	00000013          	nop

0000000080003e58 <i_3829>:
    80003e58:	01740433          	add	s0,s0,s7

0000000080003e5c <i_3830>:
    80003e5c:	17411923          	sh	s4,370(sp)

0000000080003e60 <i_3831>:
    80003e60:	12016483          	lwu	s1,288(sp)

0000000080003e64 <i_3832>:
    80003e64:	00128293          	addi	t0,t0,1
    80003e68:	fe32e4e3          	bltu	t0,gp,80003e50 <i_3827>

0000000080003e6c <i_3833>:
    80003e6c:	00844463          	blt	s0,s0,80003e74 <i_3835>

0000000080003e70 <i_3834>:
    80003e70:	19d12823          	sw	t4,400(sp)

0000000080003e74 <i_3835>:
    80003e74:	12b14503          	lbu	a0,299(sp)

0000000080003e78 <i_3836>:
    80003e78:	00000013          	nop

0000000080003e7c <i_3837>:
    80003e7c:	7d500493          	li	s1,2005

0000000080003e80 <i_3838>:
    80003e80:	7df00313          	li	t1,2015

0000000080003e84 <i_3839>:
    80003e84:	00b30663          	beq	t1,a1,80003e90 <i_3842>

0000000080003e88 <i_3840>:
    80003e88:	00000013          	nop

0000000080003e8c <i_3841>:
    80003e8c:	026403b3          	mul	t2,s0,t1

0000000080003e90 <i_3842>:
    80003e90:	14910aa3          	sb	s1,341(sp)

0000000080003e94 <i_3843>:
    80003e94:	01741663          	bne	s0,s7,80003ea0 <i_3846>

0000000080003e98 <i_3844>:
    80003e98:	00000013          	nop

0000000080003e9c <i_3845>:
    80003e9c:	06a13c23          	sd	a0,120(sp)

0000000080003ea0 <i_3846>:
    80003ea0:	417480b3          	sub	ra,s1,s7

0000000080003ea4 <i_3847>:
    80003ea4:	006bb533          	sltu	a0,s7,t1

0000000080003ea8 <i_3848>:
    80003ea8:	e2112423          	sw	ra,-472(sp)

0000000080003eac <i_3849>:
    80003eac:	1bd14983          	lbu	s3,445(sp)

0000000080003eb0 <i_3850>:
    80003eb0:	00148493          	addi	s1,s1,1 # e4867d3d <_end+0x64857929>
    80003eb4:	fc9378e3          	bleu	s1,t1,80003e84 <i_3839>

0000000080003eb8 <i_3851>:
    80003eb8:	0114b333          	sltu	t1,s1,a7

0000000080003ebc <i_3852>:
    80003ebc:	00813403          	ld	s0,8(sp)

0000000080003ec0 <i_3853>:
    80003ec0:	e37106a3          	sb	s7,-467(sp)

0000000080003ec4 <i_3854>:
    80003ec4:	0084d263          	ble	s0,s1,80003ec8 <i_3855>

0000000080003ec8 <i_3855>:
    80003ec8:	02a443bb          	divw	t2,s0,a0

0000000080003ecc <i_3856>:
    80003ecc:	04710da3          	sb	t2,91(sp)

0000000080003ed0 <i_3857>:
    80003ed0:	11e13c23          	sd	t5,280(sp)

0000000080003ed4 <i_3858>:
    80003ed4:	037f7063          	bleu	s7,t5,80003ef4 <i_3866>

0000000080003ed8 <i_3859>:
    80003ed8:	0013c463          	blt	t2,ra,80003ee0 <i_3861>

0000000080003edc <i_3860>:
    80003edc:	01356a63          	bltu	a0,s3,80003ef0 <i_3865>

0000000080003ee0 <i_3861>:
    80003ee0:	00645e63          	ble	t1,s0,80003efc <i_3868>

0000000080003ee4 <i_3862>:
    80003ee4:	eb713423          	sd	s7,-344(sp)

0000000080003ee8 <i_3863>:
    80003ee8:	00f00413          	li	s0,15

0000000080003eec <i_3864>:
    80003eec:	008419bb          	sllw	s3,s0,s0

0000000080003ef0 <i_3865>:
    80003ef0:	00847c63          	bleu	s0,s0,80003f08 <i_3871>

0000000080003ef4 <i_3866>:
    80003ef4:	93a44e93          	xori	t4,s0,-1734

0000000080003ef8 <i_3867>:
    80003ef8:	fec12c23          	sw	a2,-8(sp)

0000000080003efc <i_3868>:
    80003efc:	e8b11123          	sh	a1,-382(sp)

0000000080003f00 <i_3869>:
    80003f00:	2b0d1c17          	auipc	s8,0x2b0d1

0000000080003f04 <i_3870>:
    80003f04:	00746863          	bltu	s0,t2,80003f14 <i_3874>

0000000080003f08 <i_3871>:
    80003f08:	14815e83          	lhu	t4,328(sp)

0000000080003f0c <i_3872>:
    80003f0c:	ffa15a03          	lhu	s4,-6(sp)

0000000080003f10 <i_3873>:
    80003f10:	06611683          	lh	a3,102(sp)

0000000080003f14 <i_3874>:
    80003f14:	01d68863          	beq	a3,t4,80003f24 <i_3878>

0000000080003f18 <i_3875>:
    80003f18:	f2412403          	lw	s0,-220(sp)

0000000080003f1c <i_3876>:
    80003f1c:	038e8ebb          	mulw	t4,t4,s8

0000000080003f20 <i_3877>:
    80003f20:	15d14283          	lbu	t0,349(sp)

0000000080003f24 <i_3878>:
    80003f24:	00d2e463          	bltu	t0,a3,80003f2c <i_3880>

0000000080003f28 <i_3879>:
    80003f28:	4036dc13          	srai	s8,a3,0x3

0000000080003f2c <i_3880>:
    80003f2c:	20ec0413          	addi	s0,s8,526 # ab0d510e <_end+0x2b0c4cfa>

0000000080003f30 <i_3881>:
    80003f30:	02547263          	bleu	t0,s0,80003f54 <i_3890>

0000000080003f34 <i_3882>:
    80003f34:	01013683          	ld	a3,16(sp)

0000000080003f38 <i_3883>:
    80003f38:	028ed063          	ble	s0,t4,80003f58 <i_3891>

0000000080003f3c <i_3884>:
    80003f3c:	1e016403          	lwu	s0,480(sp)

0000000080003f40 <i_3885>:
    80003f40:	00d0e433          	or	s0,ra,a3

0000000080003f44 <i_3886>:
    80003f44:	01ded863          	ble	t4,t4,80003f54 <i_3890>

0000000080003f48 <i_3887>:
    80003f48:	c5e40593          	addi	a1,s0,-930

0000000080003f4c <i_3888>:
    80003f4c:	f2d12223          	sw	a3,-220(sp)

0000000080003f50 <i_3889>:
    80003f50:	037bfbbb          	remuw	s7,s7,s7

0000000080003f54 <i_3890>:
    80003f54:	354b7293          	andi	t0,s6,852

0000000080003f58 <i_3891>:
    80003f58:	e3415f03          	lhu	t5,-460(sp)

0000000080003f5c <i_3892>:
    80003f5c:	01215a03          	lhu	s4,18(sp)

0000000080003f60 <i_3893>:
    80003f60:	79c00e93          	li	t4,1948

0000000080003f64 <i_3894>:
    80003f64:	7ae00313          	li	t1,1966

0000000080003f68 <i_3895>:
    80003f68:	03ea2b33          	mulhsu	s6,s4,t5

0000000080003f6c <i_3896>:
    80003f6c:	0c013f03          	ld	t5,192(sp)

0000000080003f70 <i_3897>:
    80003f70:	036d863b          	mulw	a2,s11,s6

0000000080003f74 <i_3898>:
    80003f74:	00200093          	li	ra,2

0000000080003f78 <i_3899>:
    80003f78:	001bd0bb          	srlw	ra,s7,ra

0000000080003f7c <i_3900>:
    80003f7c:	38fa3e37          	lui	t3,0x38fa3

0000000080003f80 <i_3901>:
    80003f80:	01600b93          	li	s7,22

0000000080003f84 <i_3902>:
    80003f84:	4170d0bb          	sraw	ra,ra,s7

0000000080003f88 <i_3903>:
    80003f88:	001e8e93          	addi	t4,t4,1 # ca30aa91 <_end+0x4a2fa67d>
    80003f8c:	fdd37ee3          	bleu	t4,t1,80003f68 <i_3895>

0000000080003f90 <i_3904>:
    80003f90:	0b816c03          	lwu	s8,184(sp)

0000000080003f94 <i_3905>:
    80003f94:	0360de3b          	divuw	t3,ra,s6

0000000080003f98 <i_3906>:
    80003f98:	08215b83          	lhu	s7,130(sp)

0000000080003f9c <i_3907>:
    80003f9c:	1c013b03          	ld	s6,448(sp)

0000000080003fa0 <i_3908>:
    80003fa0:	19c10e03          	lb	t3,412(sp)

0000000080003fa4 <i_3909>:
    80003fa4:	01c60833          	add	a6,a2,t3

0000000080003fa8 <i_3910>:
    80003fa8:	12614c83          	lbu	s9,294(sp)

0000000080003fac <i_3911>:
    80003fac:	e6012e03          	lw	t3,-416(sp)

0000000080003fb0 <i_3912>:
    80003fb0:	01ce6a63          	bltu	t3,t3,80003fc4 <i_3917>

0000000080003fb4 <i_3913>:
    80003fb4:	ce582413          	slti	s0,a6,-795

0000000080003fb8 <i_3914>:
    80003fb8:	1b010ea3          	sb	a6,445(sp)

0000000080003fbc <i_3915>:
    80003fbc:	f6413023          	sd	tp,-160(sp)

0000000080003fc0 <i_3916>:
    80003fc0:	09012783          	lw	a5,144(sp)

0000000080003fc4 <i_3917>:
    80003fc4:	41f80a33          	sub	s4,a6,t6

0000000080003fc8 <i_3918>:
    80003fc8:	0c012a03          	lw	s4,192(sp)

0000000080003fcc <i_3919>:
    80003fcc:	12011783          	lh	a5,288(sp)

0000000080003fd0 <i_3920>:
    80003fd0:	e7a11403          	lh	s0,-390(sp)

0000000080003fd4 <i_3921>:
    80003fd4:	001a549b          	srliw	s1,s4,0x1

0000000080003fd8 <i_3922>:
    80003fd8:	15c16c83          	lwu	s9,348(sp)

0000000080003fdc <i_3923>:
    80003fdc:	1af11d23          	sh	a5,442(sp)

0000000080003fe0 <i_3924>:
    80003fe0:	08f10083          	lb	ra,143(sp)

0000000080003fe4 <i_3925>:
    80003fe4:	004c9e13          	slli	t3,s9,0x4

0000000080003fe8 <i_3926>:
    80003fe8:	fb012423          	sw	a6,-88(sp)

0000000080003fec <i_3927>:
    80003fec:	0f816c03          	lwu	s8,248(sp)

0000000080003ff0 <i_3928>:
    80003ff0:	1c710b83          	lb	s7,455(sp)

0000000080003ff4 <i_3929>:
    80003ff4:	ec813c83          	ld	s9,-312(sp)

0000000080003ff8 <i_3930>:
    80003ff8:	01c80833          	add	a6,a6,t3

0000000080003ffc <i_3931>:
    80003ffc:	037be83b          	remw	a6,s7,s7

0000000080004000 <i_3932>:
    80004000:	0f711923          	sh	s7,242(sp)

0000000080004004 <i_3933>:
    80004004:	01300693          	li	a3,19

0000000080004008 <i_3934>:
    80004008:	40d8583b          	sraw	a6,a6,a3

000000008000400c <i_3935>:
    8000400c:	06813a83          	ld	s5,104(sp)

0000000080004010 <i_3936>:
    80004010:	19713823          	sd	s7,400(sp)

0000000080004014 <i_3937>:
    80004014:	1bc16a83          	lwu	s5,444(sp)

0000000080004018 <i_3938>:
    80004018:	027a64bb          	remw	s1,s4,t2

000000008000401c <i_3939>:
    8000401c:	1a416a03          	lwu	s4,420(sp)

0000000080004020 <i_3940>:
    80004020:	028ebeb3          	mulhu	t4,t4,s0

0000000080004024 <i_3941>:
    80004024:	0198b7b3          	sltu	a5,a7,s9

0000000080004028 <i_3942>:
    80004028:	0026d693          	srli	a3,a3,0x2

000000008000402c <i_3943>:
    8000402c:	00dedc63          	ble	a3,t4,80004044 <i_3949>

0000000080004030 <i_3944>:
    80004030:	14f12223          	sw	a5,324(sp)

0000000080004034 <i_3945>:
    80004034:	f0210c83          	lb	s9,-254(sp)

0000000080004038 <i_3946>:
    80004038:	039971bb          	remuw	gp,s2,s9

000000008000403c <i_3947>:
    8000403c:	0191ca63          	blt	gp,s9,80004050 <i_3952>

0000000080004040 <i_3948>:
    80004040:	009a5c63          	ble	s1,s4,80004058 <i_3954>

0000000080004044 <i_3949>:
    80004044:	4041d49b          	sraiw	s1,gp,0x4

0000000080004048 <i_3950>:
    80004048:	039c9833          	mulh	a6,s9,s9

000000008000404c <i_3951>:
    8000404c:	b4d4819b          	addiw	gp,s1,-1203

0000000080004050 <i_3952>:
    80004050:	03ce4e3b          	divw	t3,t3,t3

0000000080004054 <i_3953>:
    80004054:	03c81263          	bne	a6,t3,80004078 <i_3962>

0000000080004058 <i_3954>:
    80004058:	e7a15383          	lhu	t2,-390(sp)

000000008000405c <i_3955>:
    8000405c:	03088e3b          	mulw	t3,a7,a6

0000000080004060 <i_3956>:
    80004060:	1b114e03          	lbu	t3,433(sp)

0000000080004064 <i_3957>:
    80004064:	03c87e33          	remu	t3,a6,t3

0000000080004068 <i_3958>:
    80004068:	003b5b1b          	srliw	s6,s6,0x3

000000008000406c <i_3959>:
    8000406c:	01011123          	sh	a6,2(sp)

0000000080004070 <i_3960>:
    80004070:	4c5cae37          	lui	t3,0x4c5ca

0000000080004074 <i_3961>:
    80004074:	00000013          	nop

0000000080004078 <i_3962>:
    80004078:	18a11e83          	lh	t4,394(sp)

000000008000407c <i_3963>:
    8000407c:	f5314e03          	lbu	t3,-173(sp)

0000000080004080 <i_3964>:
    80004080:	87500493          	li	s1,-1931

0000000080004084 <i_3965>:
    80004084:	87d00813          	li	a6,-1923

0000000080004088 <i_3966>:
    80004088:	036e0063          	beq	t3,s6,800040a8 <i_3973>

000000008000408c <i_3967>:
    8000408c:	00148493          	addi	s1,s1,1
    80004090:	ff04cce3          	blt	s1,a6,80004088 <i_3966>

0000000080004094 <i_3968>:
    80004094:	00000013          	nop

0000000080004098 <i_3969>:
    80004098:	037b5bb3          	divu	s7,s6,s7

000000008000409c <i_3970>:
    8000409c:	03de5b33          	divu	s6,t3,t4

00000000800040a0 <i_3971>:
    800040a0:	01500a93          	li	s5,21

00000000800040a4 <i_3972>:
    800040a4:	0159de33          	srl	t3,s3,s5

00000000800040a8 <i_3973>:
    800040a8:	002e9e93          	slli	t4,t4,0x2

00000000800040ac <i_3974>:
    800040ac:	fb810e83          	lb	t4,-72(sp)

00000000800040b0 <i_3975>:
    800040b0:	79300993          	li	s3,1939

00000000800040b4 <i_3976>:
    800040b4:	79900193          	li	gp,1945

00000000800040b8 <i_3977>:
    800040b8:	fb512823          	sw	s5,-80(sp)

00000000800040bc <i_3978>:
    800040bc:	ea416e83          	lwu	t4,-348(sp)

00000000800040c0 <i_3979>:
    800040c0:	00198993          	addi	s3,s3,1
    800040c4:	fe399ae3          	bne	s3,gp,800040b8 <i_3977>

00000000800040c8 <i_3980>:
    800040c8:	5cfe8a93          	addi	s5,t4,1487

00000000800040cc <i_3981>:
    800040cc:	15114e83          	lbu	t4,337(sp)

00000000800040d0 <i_3982>:
    800040d0:	1e016e83          	lwu	t4,480(sp)

00000000800040d4 <i_3983>:
    800040d4:	00000013          	nop

00000000800040d8 <i_3984>:
    800040d8:	45615ab7          	lui	s5,0x45615

00000000800040dc <i_3985>:
    800040dc:	74d00b93          	li	s7,1869

00000000800040e0 <i_3986>:
    800040e0:	74f00e93          	li	t4,1871

00000000800040e4 <i_3987>:
    800040e4:	01dee833          	or	a6,t4,t4

00000000800040e8 <i_3988>:
    800040e8:	037bf463          	bleu	s7,s7,80004110 <i_3997>

00000000800040ec <i_3989>:
    800040ec:	03da1463          	bne	s4,t4,80004114 <i_3998>

00000000800040f0 <i_3990>:
    800040f0:	384e7613          	andi	a2,t3,900

00000000800040f4 <i_3991>:
    800040f4:	fdd11d23          	sh	t4,-38(sp)

00000000800040f8 <i_3992>:
    800040f8:	fbc16a03          	lwu	s4,-68(sp)

00000000800040fc <i_3993>:
    800040fc:	001b8b93          	addi	s7,s7,1 # adfb1c05 <_end+0x2dfa17f1>
    80004100:	ffdbe2e3          	bltu	s7,t4,800040e4 <i_3987>

0000000080004104 <i_3994>:
    80004104:	00ca5663          	ble	a2,s4,80004110 <i_3997>

0000000080004108 <i_3995>:
    80004108:	032a4db3          	div	s11,s4,s2

000000008000410c <i_3996>:
    8000410c:	e5a102a3          	sb	s10,-443(sp)

0000000080004110 <i_3997>:
    80004110:	ff812383          	lw	t2,-8(sp)

0000000080004114 <i_3998>:
    80004114:	f7411e83          	lh	t4,-140(sp)

0000000080004118 <i_3999>:
    80004118:	1c3100a3          	sb	gp,449(sp)

000000008000411c <i_4000>:
    8000411c:	eac12823          	sw	a2,-336(sp)

0000000080004120 <i_4001>:
    80004120:	ecc11183          	lh	gp,-308(sp)

0000000080004124 <i_4002>:
    80004124:	01de8c63          	beq	t4,t4,8000413c <i_4008>

0000000080004128 <i_4003>:
    80004128:	01d3d463          	ble	t4,t2,80004130 <i_4005>

000000008000412c <i_4004>:
    8000412c:	03def263          	bleu	t4,t4,80004150 <i_4013>

0000000080004130 <i_4005>:
    80004130:	1b016403          	lwu	s0,432(sp)

0000000080004134 <i_4006>:
    80004134:	003e9e9b          	slliw	t4,t4,0x3

0000000080004138 <i_4007>:
    80004138:	c99fc413          	xori	s0,t6,-871

000000008000413c <i_4008>:
    8000413c:	15416603          	lwu	a2,340(sp)

0000000080004140 <i_4009>:
    80004140:	13f14483          	lbu	s1,319(sp)

0000000080004144 <i_4010>:
    80004144:	02b5f063          	bleu	a1,a1,80004164 <i_4018>

0000000080004148 <i_4011>:
    80004148:	02847463          	bleu	s0,s0,80004170 <i_4021>

000000008000414c <i_4012>:
    8000414c:	1ae11603          	lh	a2,430(sp)

0000000080004150 <i_4013>:
    80004150:	02e65cb3          	divu	s9,a2,a4

0000000080004154 <i_4014>:
    80004154:	009e8263          	beq	t4,s1,80004158 <i_4015>

0000000080004158 <i_4015>:
    80004158:	03967463          	bleu	s9,a2,80004180 <i_4025>

000000008000415c <i_4016>:
    8000415c:	01b00c93          	li	s9,27

0000000080004160 <i_4017>:
    80004160:	0191d4bb          	srlw	s1,gp,s9

0000000080004164 <i_4018>:
    80004164:	00310483          	lb	s1,3(sp)

0000000080004168 <i_4019>:
    80004168:	00cc9663          	bne	s9,a2,80004174 <i_4022>

000000008000416c <i_4020>:
    8000416c:	00381493          	slli	s1,a6,0x3

0000000080004170 <i_4021>:
    80004170:	00000013          	nop

0000000080004174 <i_4022>:
    80004174:	00000013          	nop

0000000080004178 <i_4023>:
    80004178:	00000013          	nop

000000008000417c <i_4024>:
    8000417c:	00000013          	nop

0000000080004180 <i_4025>:
    80004180:	00000013          	nop

0000000080004184 <i_4026>:
    80004184:	e1f10983          	lb	s3,-481(sp)

0000000080004188 <i_4027>:
    80004188:	86500f13          	li	t5,-1947

000000008000418c <i_4028>:
    8000418c:	86f00613          	li	a2,-1937

0000000080004190 <i_4029>:
    80004190:	01900e13          	li	t3,25

0000000080004194 <i_4030>:
    80004194:	41cd5b33          	sra	s6,s10,t3

0000000080004198 <i_4031>:
    80004198:	14414783          	lbu	a5,324(sp)

000000008000419c <i_4032>:
    8000419c:	00379d13          	slli	s10,a5,0x3

00000000800041a0 <i_4033>:
    800041a0:	03f00393          	li	t2,63

00000000800041a4 <i_4034>:
    800041a4:	4073d3b3          	sra	t2,t2,t2

00000000800041a8 <i_4035>:
    800041a8:	0813b393          	sltiu	t2,t2,129

00000000800041ac <i_4036>:
    800041ac:	8753e693          	ori	a3,t2,-1931

00000000800041b0 <i_4037>:
    800041b0:	001f0f13          	addi	t5,t5,1
    800041b4:	fccf6ee3          	bltu	t5,a2,80004190 <i_4029>

00000000800041b8 <i_4038>:
    800041b8:	0a013383          	ld	t2,160(sp)

00000000800041bc <i_4039>:
    800041bc:	401b5393          	srai	t2,s6,0x1

00000000800041c0 <i_4040>:
    800041c0:	14713823          	sd	t2,336(sp)

00000000800041c4 <i_4041>:
    800041c4:	01039a63          	bne	t2,a6,800041d8 <i_4046>

00000000800041c8 <i_4042>:
    800041c8:	0336e463          	bltu	a3,s3,800041f0 <i_4052>

00000000800041cc <i_4043>:
    800041cc:	0303c833          	div	a6,t2,a6

00000000800041d0 <i_4044>:
    800041d0:	f8813803          	ld	a6,-120(sp)

00000000800041d4 <i_4045>:
    800041d4:	18611803          	lh	a6,390(sp)

00000000800041d8 <i_4046>:
    800041d8:	010a5263          	ble	a6,s4,800041dc <i_4047>

00000000800041dc <i_4047>:
    800041dc:	0f010823          	sb	a6,240(sp)

00000000800041e0 <i_4048>:
    800041e0:	02787c33          	remu	s8,a6,t2

00000000800041e4 <i_4049>:
    800041e4:	03074263          	blt	a4,a6,80004208 <i_4058>

00000000800041e8 <i_4050>:
    800041e8:	0183e263          	bltu	t2,s8,800041ec <i_4051>

00000000800041ec <i_4051>:
    800041ec:	e2812303          	lw	t1,-472(sp)

00000000800041f0 <i_4052>:
    800041f0:	007c0c63          	beq	s8,t2,80004208 <i_4058>

00000000800041f4 <i_4053>:
    800041f4:	17815683          	lhu	a3,376(sp)

00000000800041f8 <i_4054>:
    800041f8:	16711823          	sh	t2,368(sp)

00000000800041fc <i_4055>:
    800041fc:	fad12823          	sw	a3,-80(sp)

0000000080004200 <i_4056>:
    80004200:	0383c83b          	divw	a6,t2,s8

0000000080004204 <i_4057>:
    80004204:	f3016c03          	lwu	s8,-208(sp)

0000000080004208 <i_4058>:
    80004208:	0e811b03          	lh	s6,232(sp)

000000008000420c <i_4059>:
    8000420c:	8c27e517          	auipc	a0,0x8c27e

0000000080004210 <i_4060>:
    80004210:	e6416c03          	lwu	s8,-412(sp)

0000000080004214 <i_4061>:
    80004214:	fd110b03          	lb	s6,-47(sp)

0000000080004218 <i_4062>:
    80004218:	e3b12023          	sw	s11,-480(sp)

000000008000421c <i_4063>:
    8000421c:	0e2d8d9b          	addiw	s11,s11,226

0000000080004220 <i_4064>:
    80004220:	bbab0d93          	addi	s11,s6,-1094

0000000080004224 <i_4065>:
    80004224:	77300b13          	li	s6,1907

0000000080004228 <i_4066>:
    80004228:	77500813          	li	a6,1909

000000008000422c <i_4067>:
    8000422c:	10e15d83          	lhu	s11,270(sp)

0000000080004230 <i_4068>:
    80004230:	010b4c63          	blt	s6,a6,80004248 <i_4074>

0000000080004234 <i_4069>:
    80004234:	01b9b9b3          	sltu	s3,s3,s11

0000000080004238 <i_4070>:
    80004238:	e7310283          	lb	t0,-397(sp)

000000008000423c <i_4071>:
    8000423c:	11b12623          	sw	s11,268(sp)

0000000080004240 <i_4072>:
    80004240:	38b4f293          	andi	t0,s1,907

0000000080004244 <i_4073>:
    80004244:	013de4b3          	or	s1,s11,s3

0000000080004248 <i_4074>:
    80004248:	013b6263          	bltu	s6,s3,8000424c <i_4075>

000000008000424c <i_4075>:
    8000424c:	033cd063          	ble	s3,s9,8000426c <i_4082>

0000000080004250 <i_4076>:
    80004250:	00000013          	nop

0000000080004254 <i_4077>:
    80004254:	02598263          	beq	s3,t0,80004278 <i_4085>

0000000080004258 <i_4078>:
    80004258:	01800513          	li	a0,24

000000008000425c <i_4079>:
    8000425c:	40ae5dbb          	sraw	s11,t3,a0

0000000080004260 <i_4080>:
    80004260:	001b0b13          	addi	s6,s6,1
    80004264:	fd6874e3          	bleu	s6,a6,8000422c <i_4067>

0000000080004268 <i_4081>:
    80004268:	79362613          	slti	a2,a2,1939

000000008000426c <i_4082>:
    8000426c:	00ab6463          	bltu	s6,a0,80004274 <i_4084>

0000000080004270 <i_4083>:
    80004270:	4e6b3b13          	sltiu	s6,s6,1254

0000000080004274 <i_4084>:
    80004274:	03b4743b          	remuw	s0,s0,s11

0000000080004278 <i_4085>:
    80004278:	03615283          	lhu	t0,54(sp)

000000008000427c <i_4086>:
    8000427c:	e4510da3          	sb	t0,-421(sp)

0000000080004280 <i_4087>:
    80004280:	03e11c03          	lh	s8,62(sp)

0000000080004284 <i_4088>:
    80004284:	01bb0a63          	beq	s6,s11,80004298 <i_4093>

0000000080004288 <i_4089>:
    80004288:	02c00f13          	li	t5,44

000000008000428c <i_4090>:
    8000428c:	01e2d9b3          	srl	s3,t0,t5

0000000080004290 <i_4091>:
    80004290:	f1510403          	lb	s0,-235(sp)

0000000080004294 <i_4092>:
    80004294:	1b011c03          	lh	s8,432(sp)

0000000080004298 <i_4093>:
    80004298:	03e9e43b          	remw	s0,s3,t5

000000008000429c <i_4094>:
    8000429c:	0e011403          	lh	s0,224(sp)

00000000800042a0 <i_4095>:
    800042a0:	8aa00c13          	li	s8,-1878

00000000800042a4 <i_4096>:
    800042a4:	8b600493          	li	s1,-1866

00000000800042a8 <i_4097>:
    800042a8:	e8511623          	sh	t0,-372(sp)

00000000800042ac <i_4098>:
    800042ac:	03829063          	bne	t0,s8,800042cc <i_4106>

00000000800042b0 <i_4099>:
    800042b0:	efe13023          	sd	t5,-288(sp)

00000000800042b4 <i_4100>:
    800042b4:	e3c11603          	lh	a2,-452(sp)

00000000800042b8 <i_4101>:
    800042b8:	09c16e03          	lwu	t3,156(sp)

00000000800042bc <i_4102>:
    800042bc:	01e4d863          	ble	t5,s1,800042cc <i_4106>

00000000800042c0 <i_4103>:
    800042c0:	0a513c23          	sd	t0,184(sp)

00000000800042c4 <i_4104>:
    800042c4:	00f00b93          	li	s7,15

00000000800042c8 <i_4105>:
    800042c8:	4174d43b          	sraw	s0,s1,s7

00000000800042cc <i_4106>:
    800042cc:	f1614a83          	lbu	s5,-234(sp)

00000000800042d0 <i_4107>:
    800042d0:	1b415683          	lhu	a3,436(sp)

00000000800042d4 <i_4108>:
    800042d4:	0b215583          	lhu	a1,178(sp)

00000000800042d8 <i_4109>:
    800042d8:	02c16283          	lwu	t0,44(sp)

00000000800042dc <i_4110>:
    800042dc:	ee015283          	lhu	t0,-288(sp)

00000000800042e0 <i_4111>:
    800042e0:	02d2b6b3          	mulhu	a3,t0,a3

00000000800042e4 <i_4112>:
    800042e4:	001c0c13          	addi	s8,s8,1
    800042e8:	fc9c60e3          	bltu	s8,s1,800042a8 <i_4097>

00000000800042ec <i_4113>:
    800042ec:	f6d11f23          	sh	a3,-130(sp)

00000000800042f0 <i_4114>:
    800042f0:	0325d6bb          	divuw	a3,a1,s2

00000000800042f4 <i_4115>:
    800042f4:	00d69463          	bne	a3,a3,800042fc <i_4117>

00000000800042f8 <i_4116>:
    800042f8:	00568a63          	beq	a3,t0,8000430c <i_4121>

00000000800042fc <i_4117>:
    800042fc:	5d9d0d1b          	addiw	s10,s10,1497

0000000080004300 <i_4118>:
    80004300:	00d28a33          	add	s4,t0,a3

0000000080004304 <i_4119>:
    80004304:	00da7663          	bleu	a3,s4,80004310 <i_4122>

0000000080004308 <i_4120>:
    80004308:	01a6c463          	blt	a3,s10,80004310 <i_4122>

000000008000430c <i_4121>:
    8000430c:	03cd55bb          	divuw	a1,s10,t3

0000000080004310 <i_4122>:
    80004310:	03b38db3          	mul	s11,t2,s11

0000000080004314 <i_4123>:
    80004314:	f5013a03          	ld	s4,-176(sp)

0000000080004318 <i_4124>:
    80004318:	003ed69b          	srliw	a3,t4,0x3

000000008000431c <i_4125>:
    8000431c:	0ec14283          	lbu	t0,236(sp)

0000000080004320 <i_4126>:
    80004320:	006d6c63          	bltu	s10,t1,80004338 <i_4132>

0000000080004324 <i_4127>:
    80004324:	03468063          	beq	a3,s4,80004344 <i_4135>

0000000080004328 <i_4128>:
    80004328:	f9710c03          	lb	s8,-105(sp)

000000008000432c <i_4129>:
    8000432c:	00b86c63          	bltu	a6,a1,80004344 <i_4135>

0000000080004330 <i_4130>:
    80004330:	10211683          	lh	a3,258(sp)

0000000080004334 <i_4131>:
    80004334:	02c292b3          	mulh	t0,t0,a2

0000000080004338 <i_4132>:
    80004338:	404ada93          	srai	s5,s5,0x4

000000008000433c <i_4133>:
    8000433c:	08013a83          	ld	s5,128(sp)

0000000080004340 <i_4134>:
    80004340:	e7c12c03          	lw	s8,-388(sp)

0000000080004344 <i_4135>:
    80004344:	026d1833          	mulh	a6,s10,t1

0000000080004348 <i_4136>:
    80004348:	0102eab3          	or	s5,t0,a6

000000008000434c <i_4137>:
    8000434c:	07213423          	sd	s2,104(sp)

0000000080004350 <i_4138>:
    80004350:	0a712223          	sw	t2,164(sp)

0000000080004354 <i_4139>:
    80004354:	12813303          	ld	t1,296(sp)

0000000080004358 <i_4140>:
    80004358:	0e210803          	lb	a6,226(sp)

000000008000435c <i_4141>:
    8000435c:	0263c3bb          	divw	t2,t2,t1

0000000080004360 <i_4142>:
    80004360:	0de11383          	lh	t2,222(sp)

0000000080004364 <i_4143>:
    80004364:	e5e14d83          	lbu	s11,-418(sp)

0000000080004368 <i_4144>:
    80004368:	41014313          	xori	t1,sp,1040

000000008000436c <i_4145>:
    8000436c:	03b31333          	mulh	t1,t1,s11

0000000080004370 <i_4146>:
    80004370:	0a612c23          	sw	t1,184(sp)

0000000080004374 <i_4147>:
    80004374:	03be1cb3          	mulh	s9,t3,s11

0000000080004378 <i_4148>:
    80004378:	fc613c23          	sd	t1,-40(sp)

000000008000437c <i_4149>:
    8000437c:	01b34663          	blt	t1,s11,80004388 <i_4152>

0000000080004380 <i_4150>:
    80004380:	fea15303          	lhu	t1,-22(sp)

0000000080004384 <i_4151>:
    80004384:	14c16c83          	lwu	s9,332(sp)

0000000080004388 <i_4152>:
    80004388:	17b14c83          	lbu	s9,379(sp)

000000008000438c <i_4153>:
    8000438c:	019cdc63          	ble	s9,s9,800043a4 <i_4159>

0000000080004390 <i_4154>:
    80004390:	039c9cb3          	mulh	s9,s9,s9

0000000080004394 <i_4155>:
    80004394:	13813803          	ld	a6,312(sp)

0000000080004398 <i_4156>:
    80004398:	15e15783          	lhu	a5,350(sp)

000000008000439c <i_4157>:
    8000439c:	f3011803          	lh	a6,-208(sp)

00000000800043a0 <i_4158>:
    800043a0:	00d00b93          	li	s7,13

00000000800043a4 <i_4159>:
    800043a4:	017f183b          	sllw	a6,t5,s7

00000000800043a8 <i_4160>:
    800043a8:	17c13023          	sd	t3,352(sp)

00000000800043ac <i_4161>:
    800043ac:	0308083b          	mulw	a6,a6,a6

00000000800043b0 <i_4162>:
    800043b0:	15611423          	sh	s6,328(sp)

00000000800043b4 <i_4163>:
    800043b4:	030bf83b          	remuw	a6,s7,a6

00000000800043b8 <i_4164>:
    800043b8:	09011323          	sh	a6,134(sp)

00000000800043bc <i_4165>:
    800043bc:	01900a13          	li	s4,25

00000000800043c0 <i_4166>:
    800043c0:	0144d83b          	srlw	a6,s1,s4

00000000800043c4 <i_4167>:
    800043c4:	e4514803          	lbu	a6,-443(sp)

00000000800043c8 <i_4168>:
    800043c8:	01480833          	add	a6,a6,s4

00000000800043cc <i_4169>:
    800043cc:	002a1a1b          	slliw	s4,s4,0x2

00000000800043d0 <i_4170>:
    800043d0:	e4c15803          	lhu	a6,-436(sp)

00000000800043d4 <i_4171>:
    800043d4:	fb010403          	lb	s0,-80(sp)

00000000800043d8 <i_4172>:
    800043d8:	fa811123          	sh	s0,-94(sp)

00000000800043dc <i_4173>:
    800043dc:	01a80463          	beq	a6,s10,800043e4 <i_4175>

00000000800043e0 <i_4174>:
    800043e0:	03086263          	bltu	a6,a6,80004404 <i_4183>

00000000800043e4 <i_4175>:
    800043e4:	ff416683          	lwu	a3,-12(sp)

00000000800043e8 <i_4176>:
    800043e8:	03947cb3          	remu	s9,s0,s9

00000000800043ec <i_4177>:
    800043ec:	01a00e13          	li	t3,26

00000000800043f0 <i_4178>:
    800043f0:	01cd1a3b          	sllw	s4,s10,t3

00000000800043f4 <i_4179>:
    800043f4:	02da1263          	bne	s4,a3,80004418 <i_4188>

00000000800043f8 <i_4180>:
    800043f8:	414c89bb          	subw	s3,s9,s4

00000000800043fc <i_4181>:
    800043fc:	10910a03          	lb	s4,265(sp)

0000000080004400 <i_4182>:
    80004400:	15615503          	lhu	a0,342(sp)

0000000080004404 <i_4183>:
    80004404:	034ac463          	blt	s5,s4,8000442c <i_4193>

0000000080004408 <i_4184>:
    80004408:	01e11183          	lh	gp,30(sp)

000000008000440c <i_4185>:
    8000440c:	00000013          	nop

0000000080004410 <i_4186>:
    80004410:	00000013          	nop

0000000080004414 <i_4187>:
    80004414:	04c10b03          	lb	s6,76(sp)

0000000080004418 <i_4188>:
    80004418:	0b312e23          	sw	s3,188(sp)

000000008000441c <i_4189>:
    8000441c:	f8314983          	lbu	s3,-125(sp)

0000000080004420 <i_4190>:
    80004420:	e2c16683          	lwu	a3,-468(sp)

0000000080004424 <i_4191>:
    80004424:	0036d19b          	srliw	gp,a3,0x3

0000000080004428 <i_4192>:
    80004428:	00300193          	li	gp,3

000000008000442c <i_4193>:
    8000442c:	0031d1bb          	srlw	gp,gp,gp

0000000080004430 <i_4194>:
    80004430:	00000013          	nop

0000000080004434 <i_4195>:
    80004434:	82000593          	li	a1,-2016

0000000080004438 <i_4196>:
    80004438:	82800f13          	li	t5,-2008

000000008000443c <i_4197>:
    8000443c:	15e11683          	lh	a3,350(sp)

0000000080004440 <i_4198>:
    80004440:	0231d23b          	divuw	tp,gp,gp

0000000080004444 <i_4199>:
    80004444:	75500e13          	li	t3,1877

0000000080004448 <i_4200>:
    80004448:	75900813          	li	a6,1881

000000008000444c <i_4201>:
    8000444c:	42bcc297          	auipc	t0,0x42bcc

0000000080004450 <i_4202>:
    80004450:	001e0e13          	addi	t3,t3,1 # 4c5ca001 <main-0x33a35fff>
    80004454:	ff0e1ce3          	bne	t3,a6,8000444c <i_4201>

0000000080004458 <i_4203>:
    80004458:	025682b3          	mul	t0,a3,t0

000000008000445c <i_4204>:
    8000445c:	00158593          	addi	a1,a1,1
    80004460:	fde5cee3          	blt	a1,t5,8000443c <i_4197>

0000000080004464 <i_4205>:
    80004464:	0252d2bb          	divuw	t0,t0,t0

0000000080004468 <i_4206>:
    80004468:	07c11783          	lh	a5,124(sp)

000000008000446c <i_4207>:
    8000446c:	02ffe2bb          	remw	t0,t6,a5

0000000080004470 <i_4208>:
    80004470:	0342c463          	blt	t0,s4,80004498 <i_4218>

0000000080004474 <i_4209>:
    80004474:	10511a23          	sh	t0,276(sp)

0000000080004478 <i_4210>:
    80004478:	0057d663          	ble	t0,a5,80004484 <i_4213>

000000008000447c <i_4211>:
    8000447c:	00f2c663          	blt	t0,a5,80004488 <i_4214>

0000000080004480 <i_4212>:
    80004480:	00529c63          	bne	t0,t0,80004498 <i_4218>

0000000080004484 <i_4213>:
    80004484:	02529e33          	mulh	t3,t0,t0

0000000080004488 <i_4214>:
    80004488:	f7816683          	lwu	a3,-136(sp)

000000008000448c <i_4215>:
    8000448c:	025e77bb          	remuw	a5,t3,t0

0000000080004490 <i_4216>:
    80004490:	12f12223          	sw	a5,292(sp)

0000000080004494 <i_4217>:
    80004494:	25640513          	addi	a0,s0,598

0000000080004498 <i_4218>:
    80004498:	0092c263          	blt	t0,s1,8000449c <i_4219>

000000008000449c <i_4219>:
    8000449c:	e0fe2313          	slti	t1,t3,-497

00000000800044a0 <i_4220>:
    800044a0:	0146e863          	bltu	a3,s4,800044b0 <i_4224>

00000000800044a4 <i_4221>:
    800044a4:	04d13423          	sd	a3,72(sp)

00000000800044a8 <i_4222>:
    800044a8:	1d012e03          	lw	t3,464(sp)

00000000800044ac <i_4223>:
    800044ac:	05810283          	lb	t0,88(sp)

00000000800044b0 <i_4224>:
    800044b0:	00d542b3          	xor	t0,a0,a3

00000000800044b4 <i_4225>:
    800044b4:	00a56e63          	bltu	a0,a0,800044d0 <i_4232>

00000000800044b8 <i_4226>:
    800044b8:	11210683          	lb	a3,274(sp)

00000000800044bc <i_4227>:
    800044bc:	10512e23          	sw	t0,284(sp)

00000000800044c0 <i_4228>:
    800044c0:	03816783          	lwu	a5,56(sp)

00000000800044c4 <i_4229>:
    800044c4:	f7714803          	lbu	a6,-137(sp)

00000000800044c8 <i_4230>:
    800044c8:	10a11723          	sh	a0,270(sp)

00000000800044cc <i_4231>:
    800044cc:	0c813303          	ld	t1,200(sp)

00000000800044d0 <i_4232>:
    800044d0:	00d80863          	beq	a6,a3,800044e0 <i_4236>

00000000800044d4 <i_4233>:
    800044d4:	198db817          	auipc	a6,0x198db

00000000800044d8 <i_4234>:
    800044d8:	00013e03          	ld	t3,0(sp)

00000000800044dc <i_4235>:
    800044dc:	1b011923          	sh	a6,434(sp)

00000000800044e0 <i_4236>:
    800044e0:	18212823          	sw	sp,400(sp)

00000000800044e4 <i_4237>:
    800044e4:	01a10683          	lb	a3,26(sp)

00000000800044e8 <i_4238>:
    800044e8:	ea412083          	lw	ra,-348(sp)

00000000800044ec <i_4239>:
    800044ec:	e1914303          	lbu	t1,-487(sp)

00000000800044f0 <i_4240>:
    800044f0:	e2613c23          	sd	t1,-456(sp)

00000000800044f4 <i_4241>:
    800044f4:	00ae5663          	ble	a0,t3,80004500 <i_4244>

00000000800044f8 <i_4242>:
    800044f8:	01836e33          	or	t3,t1,s8

00000000800044fc <i_4243>:
    800044fc:	038e6333          	rem	t1,t3,s8

0000000080004500 <i_4244>:
    80004500:	ec613023          	sd	t1,-320(sp)

0000000080004504 <i_4245>:
    80004504:	61775db7          	lui	s11,0x61775

0000000080004508 <i_4246>:
    80004508:	78f00093          	li	ra,1935

000000008000450c <i_4247>:
    8000450c:	79100c13          	li	s8,1937

0000000080004510 <i_4248>:
    80004510:	00000013          	nop

0000000080004514 <i_4249>:
    80004514:	00a00313          	li	t1,10

0000000080004518 <i_4250>:
    80004518:	4061d33b          	sraw	t1,gp,t1

000000008000451c <i_4251>:
    8000451c:	f5b10523          	sb	s11,-182(sp)

0000000080004520 <i_4252>:
    80004520:	18c11283          	lh	t0,396(sp)

0000000080004524 <i_4253>:
    80004524:	00108093          	addi	ra,ra,1
    80004528:	ff8094e3          	bne	ra,s8,80004510 <i_4248>

000000008000452c <i_4254>:
    8000452c:	12416683          	lwu	a3,292(sp)

0000000080004530 <i_4255>:
    80004530:	15153c37          	lui	s8,0x15153

0000000080004534 <i_4256>:
    80004534:	0bd12c23          	sw	t4,184(sp)

0000000080004538 <i_4257>:
    80004538:	03deeebb          	remw	t4,t4,t4

000000008000453c <i_4258>:
    8000453c:	03dedeb3          	divu	t4,t4,t4

0000000080004540 <i_4259>:
    80004540:	001ed41b          	srliw	s0,t4,0x1

0000000080004544 <i_4260>:
    80004544:	fdd13423          	sd	t4,-56(sp)

0000000080004548 <i_4261>:
    80004548:	07c11b83          	lh	s7,124(sp)

000000008000454c <i_4262>:
    8000454c:	d06f2eb7          	lui	t4,0xd06f2

0000000080004550 <i_4263>:
    80004550:	018e9863          	bne	t4,s8,80004560 <i_4267>

0000000080004554 <i_4264>:
    80004554:	03750ebb          	mulw	t4,a0,s7

0000000080004558 <i_4265>:
    80004558:	11d11f23          	sh	t4,286(sp)

000000008000455c <i_4266>:
    8000455c:	19611803          	lh	a6,406(sp)

0000000080004560 <i_4267>:
    80004560:	00844663          	blt	s0,s0,8000456c <i_4270>

0000000080004564 <i_4268>:
    80004564:	02887433          	remu	s0,a6,s0

0000000080004568 <i_4269>:
    80004568:	662e8217          	auipc	tp,0x662e8

000000008000456c <i_4270>:
    8000456c:	001ed313          	srli	t1,t4,0x1

0000000080004570 <i_4271>:
    80004570:	0282e263          	bltu	t0,s0,80004594 <i_4280>

0000000080004574 <i_4272>:
    80004574:	00241c13          	slli	s8,s0,0x2

0000000080004578 <i_4273>:
    80004578:	0284643b          	remw	s0,s0,s0

000000008000457c <i_4274>:
    8000457c:	6f3c2813          	slti	a6,s8,1779

0000000080004580 <i_4275>:
    80004580:	11b14383          	lbu	t2,283(sp)

0000000080004584 <i_4276>:
    80004584:	00000013          	nop

0000000080004588 <i_4277>:
    80004588:	14813423          	sd	s0,328(sp)

000000008000458c <i_4278>:
    8000458c:	00a00393          	li	t2,10

0000000080004590 <i_4279>:
    80004590:	007f53bb          	srlw	t2,t5,t2

0000000080004594 <i_4280>:
    80004594:	00000013          	nop

0000000080004598 <i_4281>:
    80004598:	00000013          	nop

000000008000459c <i_4282>:
    8000459c:	79d00413          	li	s0,1949

00000000800045a0 <i_4283>:
    800045a0:	7a000f13          	li	t5,1952

00000000800045a4 <i_4284>:
    800045a4:	04a10b83          	lb	s7,74(sp)

00000000800045a8 <i_4285>:
    800045a8:	fe415383          	lhu	t2,-28(sp)

00000000800045ac <i_4286>:
    800045ac:	24bd5b97          	auipc	s7,0x24bd5

00000000800045b0 <i_4287>:
    800045b0:	14512c23          	sw	t0,344(sp)

00000000800045b4 <i_4288>:
    800045b4:	e7712223          	sw	s7,-412(sp)

00000000800045b8 <i_4289>:
    800045b8:	e5013a03          	ld	s4,-432(sp)

00000000800045bc <i_4290>:
    800045bc:	00140413          	addi	s0,s0,1
    800045c0:	ffe462e3          	bltu	s0,t5,800045a4 <i_4284>

00000000800045c4 <i_4291>:
    800045c4:	fd713c23          	sd	s7,-40(sp)

00000000800045c8 <i_4292>:
    800045c8:	f7712023          	sw	s7,-160(sp)

00000000800045cc <i_4293>:
    800045cc:	06015c83          	lhu	s9,96(sp)

00000000800045d0 <i_4294>:
    800045d0:	402a5b93          	srai	s7,s4,0x2

00000000800045d4 <i_4295>:
    800045d4:	037bf063          	bleu	s7,s7,800045f4 <i_4303>

00000000800045d8 <i_4296>:
    800045d8:	f5412623          	sw	s4,-180(sp)

00000000800045dc <i_4297>:
    800045dc:	fac14803          	lbu	a6,-84(sp)

00000000800045e0 <i_4298>:
    800045e0:	014a1a63          	bne	s4,s4,800045f4 <i_4303>

00000000800045e4 <i_4299>:
    800045e4:	ecc12403          	lw	s0,-308(sp)

00000000800045e8 <i_4300>:
    800045e8:	f1712423          	sw	s7,-248(sp)

00000000800045ec <i_4301>:
    800045ec:	03dee463          	bltu	t4,t4,80004614 <i_4311>

00000000800045f0 <i_4302>:
    800045f0:	f9813b83          	ld	s7,-104(sp)

00000000800045f4 <i_4303>:
    800045f4:	e5013c23          	sd	a6,-424(sp)

00000000800045f8 <i_4304>:
    800045f8:	d626ee93          	ori	t4,a3,-670

00000000800045fc <i_4305>:
    800045fc:	03d4743b          	remuw	s0,s0,t4

0000000080004600 <i_4306>:
    80004600:	1c815d03          	lhu	s10,456(sp)

0000000080004604 <i_4307>:
    80004604:	e4a14c03          	lbu	s8,-438(sp)

0000000080004608 <i_4308>:
    80004608:	03d46263          	bltu	s0,t4,8000462c <i_4317>

000000008000460c <i_4309>:
    8000460c:	08811e23          	sh	s0,156(sp)

0000000080004610 <i_4310>:
    80004610:	0c3c3993          	sltiu	s3,s8,195

0000000080004614 <i_4311>:
    80004614:	08813823          	sd	s0,144(sp)

0000000080004618 <i_4312>:
    80004618:	0f811823          	sh	s8,240(sp)

000000008000461c <i_4313>:
    8000461c:	41898433          	sub	s0,s3,s8

0000000080004620 <i_4314>:
    80004620:	f1811a23          	sh	s8,-236(sp)

0000000080004624 <i_4315>:
    80004624:	033c7463          	bleu	s3,s8,8000464c <i_4325>

0000000080004628 <i_4316>:
    80004628:	00aa8e63          	beq	s5,a0,80004644 <i_4323>

000000008000462c <i_4317>:
    8000462c:	0b811023          	sh	s8,160(sp)

0000000080004630 <i_4318>:
    80004630:	02000d93          	li	s11,32

0000000080004634 <i_4319>:
    80004634:	41b1deb3          	sra	t4,gp,s11

0000000080004638 <i_4320>:
    80004638:	01d44cb3          	xor	s9,s0,t4

000000008000463c <i_4321>:
    8000463c:	07813503          	ld	a0,120(sp)

0000000080004640 <i_4322>:
    80004640:	02dcd263          	ble	a3,s9,80004664 <i_4331>

0000000080004644 <i_4323>:
    80004644:	fd416203          	lwu	tp,-44(sp)

0000000080004648 <i_4324>:
    80004648:	11712223          	sw	s7,260(sp)

000000008000464c <i_4325>:
    8000464c:	f7011b83          	lh	s7,-144(sp)

0000000080004650 <i_4326>:
    80004650:	13813c23          	sd	s8,312(sp)

0000000080004654 <i_4327>:
    80004654:	06812623          	sw	s0,108(sp)

0000000080004658 <i_4328>:
    80004658:	03355ab3          	divu	s5,a0,s3

000000008000465c <i_4329>:
    8000465c:	403ed993          	srai	s3,t4,0x3

0000000080004660 <i_4330>:
    80004660:	f1813c03          	ld	s8,-232(sp)

0000000080004664 <i_4331>:
    80004664:	eeb10503          	lb	a0,-277(sp)

0000000080004668 <i_4332>:
    80004668:	035ae063          	bltu	s5,s5,80004688 <i_4340>

000000008000466c <i_4333>:
    8000466c:	02abd263          	ble	a0,s7,80004690 <i_4342>

0000000080004670 <i_4334>:
    80004670:	00b00d93          	li	s11,11

0000000080004674 <i_4335>:
    80004674:	41bf57bb          	sraw	a5,t5,s11

0000000080004678 <i_4336>:
    80004678:	01ad2d33          	slt	s10,s10,s10

000000008000467c <i_4337>:
    8000467c:	f7812a23          	sw	s8,-140(sp)

0000000080004680 <i_4338>:
    80004680:	007c4263          	blt	s8,t2,80004684 <i_4339>

0000000080004684 <i_4339>:
    80004684:	15e10c03          	lb	s8,350(sp)

0000000080004688 <i_4340>:
    80004688:	03ad7c3b          	remuw	s8,s10,s10

000000008000468c <i_4341>:
    8000468c:	03714d03          	lbu	s10,55(sp)

0000000080004690 <i_4342>:
    80004690:	01a14863          	blt	sp,s10,800046a0 <i_4346>

0000000080004694 <i_4343>:
    80004694:	02c00d13          	li	s10,44

0000000080004698 <i_4344>:
    80004698:	41ad5d33          	sra	s10,s10,s10

000000008000469c <i_4345>:
    8000469c:	00100c13          	li	s8,1

00000000800046a0 <i_4346>:
    800046a0:	4189ddbb          	sraw	s11,s3,s8

00000000800046a4 <i_4347>:
    800046a4:	0f711823          	sh	s7,240(sp)

00000000800046a8 <i_4348>:
    800046a8:	11812283          	lw	t0,280(sp)

00000000800046ac <i_4349>:
    800046ac:	40175c1b          	sraiw	s8,a4,0x1

00000000800046b0 <i_4350>:
    800046b0:	11416283          	lwu	t0,276(sp)

00000000800046b4 <i_4351>:
    800046b4:	402d5513          	srai	a0,s10,0x2

00000000800046b8 <i_4352>:
    800046b8:	0b813383          	ld	t2,184(sp)

00000000800046bc <i_4353>:
    800046bc:	115a8a37          	lui	s4,0x115a8

00000000800046c0 <i_4354>:
    800046c0:	7ad00d13          	li	s10,1965

00000000800046c4 <i_4355>:
    800046c4:	7b000513          	li	a0,1968

00000000800046c8 <i_4356>:
    800046c8:	fb412283          	lw	t0,-76(sp)

00000000800046cc <i_4357>:
    800046cc:	03adfcb3          	remu	s9,s11,s10

00000000800046d0 <i_4358>:
    800046d0:	fa412d83          	lw	s11,-92(sp)

00000000800046d4 <i_4359>:
    800046d4:	019dc663          	blt	s11,s9,800046e0 <i_4362>

00000000800046d8 <i_4360>:
    800046d8:	e4013283          	ld	t0,-448(sp)

00000000800046dc <i_4361>:
    800046dc:	039dcbb3          	div	s7,s11,s9

00000000800046e0 <i_4362>:
    800046e0:	005aa833          	slt	a6,s5,t0

00000000800046e4 <i_4363>:
    800046e4:	03d86263          	bltu	a6,t4,80004708 <i_4371>

00000000800046e8 <i_4364>:
    800046e8:	f37ba297          	auipc	t0,0xf37ba

00000000800046ec <i_4365>:
    800046ec:	001d0d13          	addi	s10,s10,1
    800046f0:	fcad4ce3          	blt	s10,a0,800046c8 <i_4356>

00000000800046f4 <i_4366>:
    800046f4:	0172ee33          	or	t3,t0,s7

00000000800046f8 <i_4367>:
    800046f8:	18410803          	lb	a6,388(sp)

00000000800046fc <i_4368>:
    800046fc:	017e1863          	bne	t3,s7,8000470c <i_4372>

0000000080004700 <i_4369>:
    80004700:	cac2fb13          	andi	s6,t0,-852

0000000080004704 <i_4370>:
    80004704:	49812293          	slti	t0,sp,1176

0000000080004708 <i_4371>:
    80004708:	40d28bb3          	sub	s7,t0,a3

000000008000470c <i_4372>:
    8000470c:	c2484693          	xori	a3,a6,-988

0000000080004710 <i_4373>:
    80004710:	036866b3          	rem	a3,a6,s6

0000000080004714 <i_4374>:
    80004714:	09011123          	sh	a6,130(sp)

0000000080004718 <i_4375>:
    80004718:	023b0263          	beq	s6,gp,8000473c <i_4384>

000000008000471c <i_4376>:
    8000471c:	003b1d1b          	slliw	s10,s6,0x3

0000000080004720 <i_4377>:
    80004720:	e2710203          	lb	tp,-473(sp)

0000000080004724 <i_4378>:
    80004724:	00000013          	nop

0000000080004728 <i_4379>:
    80004728:	08710203          	lb	tp,135(sp)

000000008000472c <i_4380>:
    8000472c:	00000013          	nop

0000000080004730 <i_4381>:
    80004730:	ec713023          	sd	t2,-320(sp)

0000000080004734 <i_4382>:
    80004734:	be06b813          	sltiu	a6,a3,-1056

0000000080004738 <i_4383>:
    80004738:	0c615283          	lhu	t0,198(sp)

000000008000473c <i_4384>:
    8000473c:	00000013          	nop

0000000080004740 <i_4385>:
    80004740:	027afebb          	remuw	t4,s5,t2

0000000080004744 <i_4386>:
    80004744:	89900393          	li	t2,-1895

0000000080004748 <i_4387>:
    80004748:	8a600a93          	li	s5,-1882

000000008000474c <i_4388>:
    8000474c:	00000013          	nop

0000000080004750 <i_4389>:
    80004750:	19a10683          	lb	a3,410(sp)

0000000080004754 <i_4390>:
    80004754:	fa016283          	lwu	t0,-96(sp)

0000000080004758 <i_4391>:
    80004758:	0246fc33          	remu	s8,a3,tp

000000008000475c <i_4392>:
    8000475c:	03a2ab33          	mulhsu	s6,t0,s10

0000000080004760 <i_4393>:
    80004760:	1c215303          	lhu	t1,450(sp)

0000000080004764 <i_4394>:
    80004764:	fad13823          	sd	a3,-80(sp)

0000000080004768 <i_4395>:
    80004768:	12711223          	sh	t2,292(sp)

000000008000476c <i_4396>:
    8000476c:	00138393          	addi	t2,t2,1 # f3d88bc9 <_end+0x73d787b5>
    80004770:	fd53cee3          	blt	t2,s5,8000474c <i_4388>

0000000080004774 <i_4397>:
    80004774:	0056fc63          	bleu	t0,a3,8000478c <i_4403>

0000000080004778 <i_4398>:
    80004778:	4026d79b          	sraiw	a5,a3,0x2

000000008000477c <i_4399>:
    8000477c:	07e14303          	lbu	t1,126(sp)

0000000080004780 <i_4400>:
    80004780:	03622833          	mulhsu	a6,tp,s6

0000000080004784 <i_4401>:
    80004784:	0246c263          	blt	a3,tp,800047a8 <i_4410>

0000000080004788 <i_4402>:
    80004788:	01200a13          	li	s4,18

000000008000478c <i_4403>:
    8000478c:	4148d2b3          	sra	t0,a7,s4

0000000080004790 <i_4404>:
    80004790:	e5612623          	sw	s6,-436(sp)

0000000080004794 <i_4405>:
    80004794:	f9813c83          	ld	s9,-104(sp)

0000000080004798 <i_4406>:
    80004798:	401c539b          	sraiw	t2,s8,0x1

000000008000479c <i_4407>:
    8000479c:	01acea63          	bltu	s9,s10,800047b0 <i_4412>

00000000800047a0 <i_4408>:
    800047a0:	01e31863          	bne	t1,t5,800047b0 <i_4412>

00000000800047a4 <i_4409>:
    800047a4:	03d25463          	ble	t4,tp,800047cc <i_4419>

00000000800047a8 <i_4410>:
    800047a8:	0d812483          	lw	s1,216(sp)

00000000800047ac <i_4411>:
    800047ac:	01a00093          	li	ra,26

00000000800047b0 <i_4412>:
    800047b0:	401d5bbb          	sraw	s7,s10,ra

00000000800047b4 <i_4413>:
    800047b4:	e4010783          	lb	a5,-448(sp)

00000000800047b8 <i_4414>:
    800047b8:	01e686b3          	add	a3,a3,t5

00000000800047bc <i_4415>:
    800047bc:	ff96f993          	andi	s3,a3,-7

00000000800047c0 <i_4416>:
    800047c0:	ef411b03          	lh	s6,-268(sp)

00000000800047c4 <i_4417>:
    800047c4:	f0f10fa3          	sb	a5,-225(sp)

00000000800047c8 <i_4418>:
    800047c8:	05311b23          	sh	s3,86(sp)

00000000800047cc <i_4419>:
    800047cc:	0e012b03          	lw	s6,224(sp)

00000000800047d0 <i_4420>:
    800047d0:	04d10aa3          	sb	a3,85(sp)

00000000800047d4 <i_4421>:
    800047d4:	09610d83          	lb	s11,150(sp)

00000000800047d8 <i_4422>:
    800047d8:	0217b0b3          	mulhu	ra,a5,ra

00000000800047dc <i_4423>:
    800047dc:	014086b3          	add	a3,ra,s4

00000000800047e0 <i_4424>:
    800047e0:	016d8663          	beq	s11,s6,800047ec <i_4427>

00000000800047e4 <i_4425>:
    800047e4:	14611223          	sh	t1,324(sp)

00000000800047e8 <i_4426>:
    800047e8:	0166d863          	ble	s6,a3,800047f8 <i_4430>

00000000800047ec <i_4427>:
    800047ec:	00111723          	sh	ra,14(sp)

00000000800047f0 <i_4428>:
    800047f0:	fa312c23          	sw	gp,-72(sp)

00000000800047f4 <i_4429>:
    800047f4:	036eaeb3          	mulhsu	t4,t4,s6

00000000800047f8 <i_4430>:
    800047f8:	01500a93          	li	s5,21

00000000800047fc <i_4431>:
    800047fc:	01569abb          	sllw	s5,a3,s5

0000000080004800 <i_4432>:
    80004800:	f16103a3          	sb	s6,-249(sp)

0000000080004804 <i_4433>:
    80004804:	15e11083          	lh	ra,350(sp)

0000000080004808 <i_4434>:
    80004808:	001d8463          	beq	s11,ra,80004810 <i_4436>

000000008000480c <i_4435>:
    8000480c:	0150c0b3          	xor	ra,ra,s5

0000000080004810 <i_4436>:
    80004810:	00f00f13          	li	t5,15

0000000080004814 <i_4437>:
    80004814:	41e0d0bb          	sraw	ra,ra,t5

0000000080004818 <i_4438>:
    80004818:	11815083          	lhu	ra,280(sp)

000000008000481c <i_4439>:
    8000481c:	01400d93          	li	s11,20

0000000080004820 <i_4440>:
    80004820:	41b0d433          	sra	s0,ra,s11

0000000080004824 <i_4441>:
    80004824:	0f816683          	lwu	a3,248(sp)

0000000080004828 <i_4442>:
    80004828:	fed6b093          	sltiu	ra,a3,-19

000000008000482c <i_4443>:
    8000482c:	03bd9263          	bne	s11,s11,80004850 <i_4452>

0000000080004830 <i_4444>:
    80004830:	05813683          	ld	a3,88(sp)

0000000080004834 <i_4445>:
    80004834:	01a00b13          	li	s6,26

0000000080004838 <i_4446>:
    80004838:	0160ddbb          	srlw	s11,ra,s6

000000008000483c <i_4447>:
    8000483c:	007b0463          	beq	s6,t2,80004844 <i_4449>

0000000080004840 <i_4448>:
    80004840:	0b78031b          	addiw	t1,a6,183

0000000080004844 <i_4449>:
    80004844:	0216d063          	ble	ra,a3,80004864 <i_4457>

0000000080004848 <i_4450>:
    80004848:	14013b03          	ld	s6,320(sp)

000000008000484c <i_4451>:
    8000484c:	0040fc63          	bleu	tp,ra,80004864 <i_4457>

0000000080004850 <i_4452>:
    80004850:	02610ba3          	sb	t1,55(sp)

0000000080004854 <i_4453>:
    80004854:	00386663          	bltu	a6,gp,80004860 <i_4456>

0000000080004858 <i_4454>:
    80004858:	54736d93          	ori	s11,t1,1351

000000008000485c <i_4455>:
    8000485c:	13c12503          	lw	a0,316(sp)

0000000080004860 <i_4456>:
    80004860:	f0215383          	lhu	t2,-254(sp)

0000000080004864 <i_4457>:
    80004864:	07c11183          	lh	gp,124(sp)

0000000080004868 <i_4458>:
    80004868:	46fdc397          	auipc	t2,0x46fdc

000000008000486c <i_4459>:
    8000486c:	8a500c93          	li	s9,-1883

0000000080004870 <i_4460>:
    80004870:	8aa00493          	li	s1,-1878

0000000080004874 <i_4461>:
    80004874:	02812d03          	lw	s10,40(sp)

0000000080004878 <i_4462>:
    80004878:	f3010d03          	lb	s10,-208(sp)

000000008000487c <i_4463>:
    8000487c:	01ad4263          	blt	s10,s10,80004880 <i_4464>

0000000080004880 <i_4464>:
    80004880:	f3a12823          	sw	s10,-208(sp)

0000000080004884 <i_4465>:
    80004884:	04812803          	lw	a6,72(sp)

0000000080004888 <i_4466>:
    80004888:	07a10323          	sb	s10,102(sp)

000000008000488c <i_4467>:
    8000488c:	00000013          	nop

0000000080004890 <i_4468>:
    80004890:	7d486793          	ori	a5,a6,2004

0000000080004894 <i_4469>:
    80004894:	17b10083          	lb	ra,379(sp)

0000000080004898 <i_4470>:
    80004898:	1cf12423          	sw	a5,456(sp)

000000008000489c <i_4471>:
    8000489c:	f8610803          	lb	a6,-122(sp)

00000000800048a0 <i_4472>:
    800048a0:	e4f11223          	sh	a5,-444(sp)

00000000800048a4 <i_4473>:
    800048a4:	d2c0a413          	slti	s0,ra,-724

00000000800048a8 <i_4474>:
    800048a8:	00000013          	nop

00000000800048ac <i_4475>:
    800048ac:	01044a63          	blt	s0,a6,800048c0 <i_4479>

00000000800048b0 <i_4476>:
    800048b0:	001c8c93          	addi	s9,s9,1
    800048b4:	fd94f0e3          	bleu	s9,s1,80004874 <i_4461>

00000000800048b8 <i_4477>:
    800048b8:	17013823          	sd	a6,368(sp)

00000000800048bc <i_4478>:
    800048bc:	17813e03          	ld	t3,376(sp)

00000000800048c0 <i_4479>:
    800048c0:	f7c10323          	sb	t3,-154(sp)

00000000800048c4 <i_4480>:
    800048c4:	401e0833          	sub	a6,t3,ra

00000000800048c8 <i_4481>:
    800048c8:	001e5e13          	srli	t3,t3,0x1

00000000800048cc <i_4482>:
    800048cc:	01c86e33          	or	t3,a6,t3

00000000800048d0 <i_4483>:
    800048d0:	005e1c63          	bne	t3,t0,800048e8 <i_4489>

00000000800048d4 <i_4484>:
    800048d4:	01ce0463          	beq	t3,t3,800048dc <i_4486>

00000000800048d8 <i_4485>:
    800048d8:	019e7c63          	bleu	s9,t3,800048f0 <i_4491>

00000000800048dc <i_4486>:
    800048dc:	eae11803          	lh	a6,-338(sp)

00000000800048e0 <i_4487>:
    800048e0:	030e1063          	bne	t3,a6,80004900 <i_4495>

00000000800048e4 <i_4488>:
    800048e4:	f0d13823          	sd	a3,-240(sp)

00000000800048e8 <i_4489>:
    800048e8:	00300c13          	li	s8,3

00000000800048ec <i_4490>:
    800048ec:	0183d6bb          	srlw	a3,t2,s8

00000000800048f0 <i_4491>:
    800048f0:	05d10a03          	lb	s4,93(sp)

00000000800048f4 <i_4492>:
    800048f4:	10215f03          	lhu	t5,258(sp)

00000000800048f8 <i_4493>:
    800048f8:	fbc16e03          	lwu	t3,-68(sp)

00000000800048fc <i_4494>:
    800048fc:	fdc10723          	sb	t3,-50(sp)

0000000080004900 <i_4495>:
    80004900:	13c13423          	sd	t3,296(sp)

0000000080004904 <i_4496>:
    80004904:	f2813a03          	ld	s4,-216(sp)

0000000080004908 <i_4497>:
    80004908:	a2fffe37          	lui	t3,0xa2fff

000000008000490c <i_4498>:
    8000490c:	03ce5f3b          	divuw	t5,t3,t3

0000000080004910 <i_4499>:
    80004910:	01ee6e33          	or	t3,t3,t5

0000000080004914 <i_4500>:
    80004914:	0dc10e03          	lb	t3,220(sp)

0000000080004918 <i_4501>:
    80004918:	03c20063          	beq	tp,t3,80004938 <i_4509>

000000008000491c <i_4502>:
    8000491c:	1a416f03          	lwu	t5,420(sp)

0000000080004920 <i_4503>:
    80004920:	e9813603          	ld	a2,-360(sp)

0000000080004924 <i_4504>:
    80004924:	01ce7463          	bleu	t3,t3,8000492c <i_4506>

0000000080004928 <i_4505>:
    80004928:	01ce5263          	ble	t3,t3,8000492c <i_4506>

000000008000492c <i_4506>:
    8000492c:	fa415a03          	lhu	s4,-92(sp)

0000000080004930 <i_4507>:
    80004930:	014e0f33          	add	t5,t3,s4

0000000080004934 <i_4508>:
    80004934:	f5411723          	sh	s4,-178(sp)

0000000080004938 <i_4509>:
    80004938:	fb812d03          	lw	s10,-72(sp)

000000008000493c <i_4510>:
    8000493c:	1bc12423          	sw	t3,424(sp)

0000000080004940 <i_4511>:
    80004940:	03af4263          	blt	t5,s10,80004964 <i_4520>

0000000080004944 <i_4512>:
    80004944:	fdc12e23          	sw	t3,-36(sp)

0000000080004948 <i_4513>:
    80004948:	001a5613          	srli	a2,s4,0x1

000000008000494c <i_4514>:
    8000494c:	0f9105a3          	sb	s9,235(sp)

0000000080004950 <i_4515>:
    80004950:	fb016603          	lwu	a2,-80(sp)

0000000080004954 <i_4516>:
    80004954:	fe013603          	ld	a2,-32(sp)

0000000080004958 <i_4517>:
    80004958:	00000013          	nop

000000008000495c <i_4518>:
    8000495c:	b9ae3a93          	sltiu	s5,t3,-1126

0000000080004960 <i_4519>:
    80004960:	4036599b          	sraiw	s3,a2,0x3

0000000080004964 <i_4520>:
    80004964:	00000013          	nop

0000000080004968 <i_4521>:
    80004968:	13a15683          	lhu	a3,314(sp)

000000008000496c <i_4522>:
    8000496c:	84500393          	li	t2,-1979

0000000080004970 <i_4523>:
    80004970:	84f00c93          	li	s9,-1969

0000000080004974 <i_4524>:
    80004974:	edb14603          	lbu	a2,-293(sp)

0000000080004978 <i_4525>:
    80004978:	00000013          	nop

000000008000497c <i_4526>:
    8000497c:	f6910283          	lb	t0,-151(sp)

0000000080004980 <i_4527>:
    80004980:	0253f463          	bleu	t0,t2,800049a8 <i_4536>

0000000080004984 <i_4528>:
    80004984:	00d6f2b3          	and	t0,a3,a3

0000000080004988 <i_4529>:
    80004988:	00000013          	nop

000000008000498c <i_4530>:
    8000498c:	00138393          	addi	t2,t2,1 # c6fe0869 <_end+0x46fd0455>
    80004990:	ff93c2e3          	blt	t2,s9,80004974 <i_4524>

0000000080004994 <i_4531>:
    80004994:	0132ee63          	bltu	t0,s3,800049b0 <i_4538>

0000000080004998 <i_4532>:
    80004998:	02564633          	div	a2,a2,t0

000000008000499c <i_4533>:
    8000499c:	0132c463          	blt	t0,s3,800049a4 <i_4535>

00000000800049a0 <i_4534>:
    800049a0:	405600b3          	sub	ra,a2,t0

00000000800049a4 <i_4535>:
    800049a4:	00c9f263          	bleu	a2,s3,800049a8 <i_4536>

00000000800049a8 <i_4536>:
    800049a8:	40c08633          	sub	a2,ra,a2

00000000800049ac <i_4537>:
    800049ac:	07016e03          	lwu	t3,112(sp)

00000000800049b0 <i_4538>:
    800049b0:	1b816603          	lwu	a2,440(sp)

00000000800049b4 <i_4539>:
    800049b4:	02ce2633          	mulhsu	a2,t3,a2

00000000800049b8 <i_4540>:
    800049b8:	e2c11923          	sh	a2,-462(sp)

00000000800049bc <i_4541>:
    800049bc:	00c67633          	and	a2,a2,a2

00000000800049c0 <i_4542>:
    800049c0:	12812603          	lw	a2,296(sp)

00000000800049c4 <i_4543>:
    800049c4:	00ca0a33          	add	s4,s4,a2

00000000800049c8 <i_4544>:
    800049c8:	14c16603          	lwu	a2,332(sp)

00000000800049cc <i_4545>:
    800049cc:	0f413423          	sd	s4,232(sp)

00000000800049d0 <i_4546>:
    800049d0:	69c32313          	slti	t1,t1,1692

00000000800049d4 <i_4547>:
    800049d4:	f9511223          	sh	s5,-124(sp)

00000000800049d8 <i_4548>:
    800049d8:	4020d09b          	sraiw	ra,ra,0x2

00000000800049dc <i_4549>:
    800049dc:	02c30263          	beq	t1,a2,80004a00 <i_4558>

00000000800049e0 <i_4550>:
    800049e0:	05c16a03          	lwu	s4,92(sp)

00000000800049e4 <i_4551>:
    800049e4:	00c0d263          	ble	a2,ra,800049e8 <i_4552>

00000000800049e8 <i_4552>:
    800049e8:	11415603          	lhu	a2,276(sp)

00000000800049ec <i_4553>:
    800049ec:	3cf08613          	addi	a2,ra,975

00000000800049f0 <i_4554>:
    800049f0:	70e6061b          	addiw	a2,a2,1806

00000000800049f4 <i_4555>:
    800049f4:	18e11183          	lh	gp,398(sp)

00000000800049f8 <i_4556>:
    800049f8:	01200413          	li	s0,18

00000000800049fc <i_4557>:
    800049fc:	4081dcbb          	sraw	s9,gp,s0

0000000080004a00 <i_4558>:
    80004a00:	e9d14603          	lbu	a2,-355(sp)

0000000080004a04 <i_4559>:
    80004a04:	02c44463          	blt	s0,a2,80004a2c <i_4569>

0000000080004a08 <i_4560>:
    80004a08:	f3811403          	lh	s0,-200(sp)

0000000080004a0c <i_4561>:
    80004a0c:	001dd663          	ble	ra,s11,80004a18 <i_4564>

0000000080004a10 <i_4562>:
    80004a10:	19012203          	lw	tp,400(sp)

0000000080004a14 <i_4563>:
    80004a14:	e8211c23          	sh	sp,-360(sp)

0000000080004a18 <i_4564>:
    80004a18:	00138863          	beq	t2,ra,80004a28 <i_4568>

0000000080004a1c <i_4565>:
    80004a1c:	00c00d93          	li	s11,12

0000000080004a20 <i_4566>:
    80004a20:	01b0d0bb          	srlw	ra,ra,s11

0000000080004a24 <i_4567>:
    80004a24:	04010403          	lb	s0,64(sp)

0000000080004a28 <i_4568>:
    80004a28:	0ac16403          	lwu	s0,172(sp)

0000000080004a2c <i_4569>:
    80004a2c:	04813423          	sd	s0,72(sp)

0000000080004a30 <i_4570>:
    80004a30:	ffb10923          	sb	s11,-14(sp)

0000000080004a34 <i_4571>:
    80004a34:	14013203          	ld	tp,320(sp)

0000000080004a38 <i_4572>:
    80004a38:	1c812d83          	lw	s11,456(sp)

0000000080004a3c <i_4573>:
    80004a3c:	35440413          	addi	s0,s0,852

0000000080004a40 <i_4574>:
    80004a40:	008d9463          	bne	s11,s0,80004a48 <i_4576>

0000000080004a44 <i_4575>:
    80004a44:	023d91b3          	mulh	gp,s11,gp

0000000080004a48 <i_4576>:
    80004a48:	09015d83          	lhu	s11,144(sp)

0000000080004a4c <i_4577>:
    80004a4c:	03bdb2b3          	mulhu	t0,s11,s11

0000000080004a50 <i_4578>:
    80004a50:	8c700d13          	li	s10,-1849

0000000080004a54 <i_4579>:
    80004a54:	8d100b13          	li	s6,-1839

0000000080004a58 <i_4580>:
    80004a58:	f0c16d83          	lwu	s11,-244(sp)

0000000080004a5c <i_4581>:
    80004a5c:	01416d83          	lwu	s11,20(sp)

0000000080004a60 <i_4582>:
    80004a60:	f0c12203          	lw	tp,-244(sp)

0000000080004a64 <i_4583>:
    80004a64:	41bd8db3          	sub	s11,s11,s11

0000000080004a68 <i_4584>:
    80004a68:	b8731a97          	auipc	s5,0xb8731

0000000080004a6c <i_4585>:
    80004a6c:	15013a83          	ld	s5,336(sp)

0000000080004a70 <i_4586>:
    80004a70:	f6f10583          	lb	a1,-145(sp)

0000000080004a74 <i_4587>:
    80004a74:	05812d83          	lw	s11,88(sp)

0000000080004a78 <i_4588>:
    80004a78:	00bafc63          	bleu	a1,s5,80004a90 <i_4593>

0000000080004a7c <i_4589>:
    80004a7c:	001d0d13          	addi	s10,s10,1
    80004a80:	fdab5ce3          	ble	s10,s6,80004a58 <i_4580>

0000000080004a84 <i_4590>:
    80004a84:	0157b7b3          	sltu	a5,a5,s5

0000000080004a88 <i_4591>:
    80004a88:	e4416b03          	lwu	s6,-444(sp)

0000000080004a8c <i_4592>:
    80004a8c:	034b7a3b          	remuw	s4,s6,s4

0000000080004a90 <i_4593>:
    80004a90:	1ca10303          	lb	t1,458(sp)

0000000080004a94 <i_4594>:
    80004a94:	17c16a83          	lwu	s5,380(sp)

0000000080004a98 <i_4595>:
    80004a98:	4cf5a593          	slti	a1,a1,1231

0000000080004a9c <i_4596>:
    80004a9c:	1b215503          	lhu	a0,434(sp)

0000000080004aa0 <i_4597>:
    80004aa0:	e7412583          	lw	a1,-396(sp)

0000000080004aa4 <i_4598>:
    80004aa4:	00ba8863          	beq	s5,a1,80004ab4 <i_4602>

0000000080004aa8 <i_4599>:
    80004aa8:	10a11e23          	sh	a0,284(sp)

0000000080004aac <i_4600>:
    80004aac:	02ae6e3b          	remw	t3,t3,a0

0000000080004ab0 <i_4601>:
    80004ab0:	af95aa93          	slti	s5,a1,-1287

0000000080004ab4 <i_4602>:
    80004ab4:	00800293          	li	t0,8

0000000080004ab8 <i_4603>:
    80004ab8:	005717bb          	sllw	a5,a4,t0

0000000080004abc <i_4604>:
    80004abc:	f8215403          	lhu	s0,-126(sp)

0000000080004ac0 <i_4605>:
    80004ac0:	00fe7ab3          	and	s5,t3,a5

0000000080004ac4 <i_4606>:
    80004ac4:	7c45f813          	andi	a6,a1,1988

0000000080004ac8 <i_4607>:
    80004ac8:	0e615783          	lhu	a5,230(sp)

0000000080004acc <i_4608>:
    80004acc:	8cb00c93          	li	s9,-1845

0000000080004ad0 <i_4609>:
    80004ad0:	8d900e93          	li	t4,-1831

0000000080004ad4 <i_4610>:
    80004ad4:	01000d93          	li	s11,16

0000000080004ad8 <i_4611>:
    80004ad8:	01b71433          	sll	s0,a4,s11

0000000080004adc <i_4612>:
    80004adc:	001c8c93          	addi	s9,s9,1
    80004ae0:	ffdccae3          	blt	s9,t4,80004ad4 <i_4610>

0000000080004ae4 <i_4613>:
    80004ae4:	6dadb393          	sltiu	t2,s11,1754

0000000080004ae8 <i_4614>:
    80004ae8:	02841263          	bne	s0,s0,80004b0c <i_4623>

0000000080004aec <i_4615>:
    80004aec:	02747263          	bleu	t2,s0,80004b10 <i_4624>

0000000080004af0 <i_4616>:
    80004af0:	eb313823          	sd	s3,-336(sp)

0000000080004af4 <i_4617>:
    80004af4:	c34d5db7          	lui	s11,0xc34d5

0000000080004af8 <i_4618>:
    80004af8:	e7416383          	lwu	t2,-396(sp)

0000000080004afc <i_4619>:
    80004afc:	18711523          	sh	t2,394(sp)

0000000080004b00 <i_4620>:
    80004b00:	ec214483          	lbu	s1,-318(sp)

0000000080004b04 <i_4621>:
    80004b04:	0e910aa3          	sb	s1,245(sp)

0000000080004b08 <i_4622>:
    80004b08:	01bda3b3          	slt	t2,s11,s11

0000000080004b0c <i_4623>:
    80004b0c:	eb414483          	lbu	s1,-332(sp)

0000000080004b10 <i_4624>:
    80004b10:	ff813a83          	ld	s5,-8(sp)

0000000080004b14 <i_4625>:
    80004b14:	0f812e83          	lw	t4,248(sp)

0000000080004b18 <i_4626>:
    80004b18:	0294f063          	bleu	s1,s1,80004b38 <i_4634>

0000000080004b1c <i_4627>:
    80004b1c:	00748e63          	beq	s1,t2,80004b38 <i_4634>

0000000080004b20 <i_4628>:
    80004b20:	035dca33          	div	s4,s11,s5

0000000080004b24 <i_4629>:
    80004b24:	0b510b03          	lb	s6,181(sp)

0000000080004b28 <i_4630>:
    80004b28:	00013e03          	ld	t3,0(sp)

0000000080004b2c <i_4631>:
    80004b2c:	015b0263          	beq	s6,s5,80004b30 <i_4632>

0000000080004b30 <i_4632>:
    80004b30:	03cb0063          	beq	s6,t3,80004b50 <i_4640>

0000000080004b34 <i_4633>:
    80004b34:	18412a03          	lw	s4,388(sp)

0000000080004b38 <i_4634>:
    80004b38:	00000013          	nop

0000000080004b3c <i_4635>:
    80004b3c:	f2615a03          	lhu	s4,-218(sp)

0000000080004b40 <i_4636>:
    80004b40:	002e9f13          	slli	t5,t4,0x2

0000000080004b44 <i_4637>:
    80004b44:	e4615803          	lhu	a6,-442(sp)

0000000080004b48 <i_4638>:
    80004b48:	00000013          	nop

0000000080004b4c <i_4639>:
    80004b4c:	0e2385b7          	lui	a1,0xe238

0000000080004b50 <i_4640>:
    80004b50:	00000013          	nop

0000000080004b54 <i_4641>:
    80004b54:	5313c093          	xori	ra,t2,1329

0000000080004b58 <i_4642>:
    80004b58:	89300e93          	li	t4,-1901

0000000080004b5c <i_4643>:
    80004b5c:	89d00c13          	li	s8,-1891

0000000080004b60 <i_4644>:
    80004b60:	001e8e93          	addi	t4,t4,1 # ffffffffd06f2001 <_end+0xffffffff506e1bed>
    80004b64:	ff8ecee3          	blt	t4,s8,80004b60 <i_4644>

0000000080004b68 <i_4645>:
    80004b68:	e9110383          	lb	t2,-367(sp)

0000000080004b6c <i_4646>:
    80004b6c:	00000013          	nop

0000000080004b70 <i_4647>:
    80004b70:	80f00a13          	li	s4,-2033

0000000080004b74 <i_4648>:
    80004b74:	82200d93          	li	s11,-2014

0000000080004b78 <i_4649>:
    80004b78:	00300b93          	li	s7,3

0000000080004b7c <i_4650>:
    80004b7c:	0174dd3b          	srlw	s10,s1,s7

0000000080004b80 <i_4651>:
    80004b80:	f1615583          	lhu	a1,-234(sp)

0000000080004b84 <i_4652>:
    80004b84:	18b13823          	sd	a1,400(sp)

0000000080004b88 <i_4653>:
    80004b88:	01acee63          	bltu	s9,s10,80004ba4 <i_4659>

0000000080004b8c <i_4654>:
    80004b8c:	00000013          	nop

0000000080004b90 <i_4655>:
    80004b90:	00000013          	nop

0000000080004b94 <i_4656>:
    80004b94:	001a0a13          	addi	s4,s4,1 # 115a8001 <main-0x6ea57fff>
    80004b98:	ffba60e3          	bltu	s4,s11,80004b78 <i_4649>

0000000080004b9c <i_4657>:
    80004b9c:	001b5a63          	ble	ra,s6,80004bb0 <i_4662>

0000000080004ba0 <i_4658>:
    80004ba0:	15410723          	sb	s4,334(sp)

0000000080004ba4 <i_4659>:
    80004ba4:	14812a03          	lw	s4,328(sp)

0000000080004ba8 <i_4660>:
    80004ba8:	ff815303          	lhu	t1,-8(sp)

0000000080004bac <i_4661>:
    80004bac:	e7816283          	lwu	t0,-392(sp)

0000000080004bb0 <i_4662>:
    80004bb0:	01410663          	beq	sp,s4,80004bbc <i_4665>

0000000080004bb4 <i_4663>:
    80004bb4:	03a0c063          	blt	ra,s10,80004bd4 <i_4671>

0000000080004bb8 <i_4664>:
    80004bb8:	f8512823          	sw	t0,-112(sp)

0000000080004bbc <i_4665>:
    80004bbc:	00910d83          	lb	s11,9(sp)

0000000080004bc0 <i_4666>:
    80004bc0:	034379bb          	remuw	s3,t1,s4

0000000080004bc4 <i_4667>:
    80004bc4:	21ed2a13          	slti	s4,s10,542

0000000080004bc8 <i_4668>:
    80004bc8:	00abf863          	bleu	a0,s7,80004bd8 <i_4672>

0000000080004bcc <i_4669>:
    80004bcc:	11310aa3          	sb	s3,277(sp)

0000000080004bd0 <i_4670>:
    80004bd0:	fac14d03          	lbu	s10,-84(sp)

0000000080004bd4 <i_4671>:
    80004bd4:	0b514a83          	lbu	s5,181(sp)

0000000080004bd8 <i_4672>:
    80004bd8:	01e00a93          	li	s5,30

0000000080004bdc <i_4673>:
    80004bdc:	015ad533          	srl	a0,s5,s5

0000000080004be0 <i_4674>:
    80004be0:	7d800313          	li	t1,2008

0000000080004be4 <i_4675>:
    80004be4:	7e100293          	li	t0,2017

0000000080004be8 <i_4676>:
    80004be8:	eca10c03          	lb	s8,-310(sp)

0000000080004bec <i_4677>:
    80004bec:	00130313          	addi	t1,t1,1
    80004bf0:	fe62fce3          	bleu	t1,t0,80004be8 <i_4676>

0000000080004bf4 <i_4678>:
    80004bf4:	031ae263          	bltu	s5,a7,80004c18 <i_4687>

0000000080004bf8 <i_4679>:
    80004bf8:	00499593          	slli	a1,s3,0x4

0000000080004bfc <i_4680>:
    80004bfc:	eb512823          	sw	s5,-336(sp)

0000000080004c00 <i_4681>:
    80004c00:	007389b3          	add	s3,t2,t2

0000000080004c04 <i_4682>:
    80004c04:	027993b3          	mulh	t2,s3,t2

0000000080004c08 <i_4683>:
    80004c08:	fe713c23          	sd	t2,-8(sp)

0000000080004c0c <i_4684>:
    80004c0c:	18012383          	lw	t2,384(sp)

0000000080004c10 <i_4685>:
    80004c10:	00c38c63          	beq	t2,a2,80004c28 <i_4691>

0000000080004c14 <i_4686>:
    80004c14:	e2c16483          	lwu	s1,-468(sp)

0000000080004c18 <i_4687>:
    80004c18:	46c9899b          	addiw	s3,s3,1132

0000000080004c1c <i_4688>:
    80004c1c:	e5816783          	lwu	a5,-424(sp)

0000000080004c20 <i_4689>:
    80004c20:	0097c463          	blt	a5,s1,80004c28 <i_4691>

0000000080004c24 <i_4690>:
    80004c24:	0fc12a83          	lw	s5,252(sp)

0000000080004c28 <i_4691>:
    80004c28:	44f3a993          	slti	s3,t2,1103

0000000080004c2c <i_4692>:
    80004c2c:	0027d793          	srli	a5,a5,0x2

0000000080004c30 <i_4693>:
    80004c30:	e4c11583          	lh	a1,-436(sp)

0000000080004c34 <i_4694>:
    80004c34:	0247a6b3          	mulhsu	a3,a5,tp

0000000080004c38 <i_4695>:
    80004c38:	76f00213          	li	tp,1903

0000000080004c3c <i_4696>:
    80004c3c:	77500a93          	li	s5,1909

0000000080004c40 <i_4697>:
    80004c40:	08215d83          	lhu	s11,130(sp)

0000000080004c44 <i_4698>:
    80004c44:	00000013          	nop

0000000080004c48 <i_4699>:
    80004c48:	79300793          	li	a5,1939

0000000080004c4c <i_4700>:
    80004c4c:	79e00093          	li	ra,1950

0000000080004c50 <i_4701>:
    80004c50:	00000013          	nop

0000000080004c54 <i_4702>:
    80004c54:	00178793          	addi	a5,a5,1
    80004c58:	fe17cce3          	blt	a5,ra,80004c50 <i_4701>

0000000080004c5c <i_4703>:
    80004c5c:	ea412083          	lw	ra,-348(sp)

0000000080004c60 <i_4704>:
    80004c60:	00000013          	nop

0000000080004c64 <i_4705>:
    80004c64:	00120213          	addi	tp,tp,1 # e62ec569 <_end+0x662dc155>
    80004c68:	fc4afce3          	bleu	tp,s5,80004c40 <i_4697>

0000000080004c6c <i_4706>:
    80004c6c:	021dcdbb          	divw	s11,s11,ra

0000000080004c70 <i_4707>:
    80004c70:	1b814083          	lbu	ra,440(sp)

0000000080004c74 <i_4708>:
    80004c74:	03b08263          	beq	ra,s11,80004c98 <i_4717>

0000000080004c78 <i_4709>:
    80004c78:	03bd92b3          	mulh	t0,s11,s11

0000000080004c7c <i_4710>:
    80004c7c:	01e00e13          	li	t3,30

0000000080004c80 <i_4711>:
    80004c80:	01ce1bbb          	sllw	s7,t3,t3

0000000080004c84 <i_4712>:
    80004c84:	03ce06bb          	mulw	a3,t3,t3

0000000080004c88 <i_4713>:
    80004c88:	1e513023          	sd	t0,480(sp)

0000000080004c8c <i_4714>:
    80004c8c:	07514483          	lbu	s1,117(sp)

0000000080004c90 <i_4715>:
    80004c90:	0294b233          	mulhu	tp,s1,s1

0000000080004c94 <i_4716>:
    80004c94:	eb813803          	ld	a6,-328(sp)

0000000080004c98 <i_4717>:
    80004c98:	004e2233          	slt	tp,t3,tp

0000000080004c9c <i_4718>:
    80004c9c:	0174f663          	bleu	s7,s1,80004ca8 <i_4721>

0000000080004ca0 <i_4719>:
    80004ca0:	ea5101a3          	sb	t0,-349(sp)

0000000080004ca4 <i_4720>:
    80004ca4:	4038569b          	sraiw	a3,a6,0x3

0000000080004ca8 <i_4721>:
    80004ca8:	58c4f293          	andi	t0,s1,1420

0000000080004cac <i_4722>:
    80004cac:	08310e03          	lb	t3,131(sp)

0000000080004cb0 <i_4723>:
    80004cb0:	11c13023          	sd	t3,256(sp)

0000000080004cb4 <i_4724>:
    80004cb4:	9482e293          	ori	t0,t0,-1720

0000000080004cb8 <i_4725>:
    80004cb8:	f7c12a23          	sw	t3,-140(sp)

0000000080004cbc <i_4726>:
    80004cbc:	025d2d33          	mulhsu	s10,s10,t0

0000000080004cc0 <i_4727>:
    80004cc0:	002d5e13          	srli	t3,s10,0x2

0000000080004cc4 <i_4728>:
    80004cc4:	83100293          	li	t0,-1999

0000000080004cc8 <i_4729>:
    80004cc8:	83a00813          	li	a6,-1990

0000000080004ccc <i_4730>:
    80004ccc:	0c014e83          	lbu	t4,192(sp)

0000000080004cd0 <i_4731>:
    80004cd0:	f1010aa3          	sb	a6,-235(sp)

0000000080004cd4 <i_4732>:
    80004cd4:	f7012223          	sw	a6,-156(sp)

0000000080004cd8 <i_4733>:
    80004cd8:	e3c14603          	lbu	a2,-452(sp)

0000000080004cdc <i_4734>:
    80004cdc:	07c107a3          	sb	t3,111(sp)

0000000080004ce0 <i_4735>:
    80004ce0:	0a211e03          	lh	t3,162(sp)

0000000080004ce4 <i_4736>:
    80004ce4:	02ce7463          	bleu	a2,t3,80004d0c <i_4745>

0000000080004ce8 <i_4737>:
    80004ce8:	1d812c83          	lw	s9,472(sp)

0000000080004cec <i_4738>:
    80004cec:	00128293          	addi	t0,t0,1 # 737be6e9 <main-0xc841917>
    80004cf0:	fc587ee3          	bleu	t0,a6,80004ccc <i_4730>

0000000080004cf4 <i_4739>:
    80004cf4:	039cc9bb          	divw	s3,s9,s9

0000000080004cf8 <i_4740>:
    80004cf8:	0399c063          	blt	s3,s9,80004d18 <i_4748>

0000000080004cfc <i_4741>:
    80004cfc:	02b00a13          	li	s4,43

0000000080004d00 <i_4742>:
    80004d00:	014d5d33          	srl	s10,s10,s4

0000000080004d04 <i_4743>:
    80004d04:	03ce8063          	beq	t4,t3,80004d24 <i_4751>

0000000080004d08 <i_4744>:
    80004d08:	1a013d03          	ld	s10,416(sp)

0000000080004d0c <i_4745>:
    80004d0c:	05610d03          	lb	s10,86(sp)

0000000080004d10 <i_4746>:
    80004d10:	01a4aa33          	slt	s4,s1,s10

0000000080004d14 <i_4747>:
    80004d14:	0aa15d03          	lhu	s10,170(sp)

0000000080004d18 <i_4748>:
    80004d18:	eec12e03          	lw	t3,-276(sp)

0000000080004d1c <i_4749>:
    80004d1c:	03ad5333          	divu	t1,s10,s10

0000000080004d20 <i_4750>:
    80004d20:	07a11d03          	lh	s10,122(sp)

0000000080004d24 <i_4751>:
    80004d24:	e5812503          	lw	a0,-424(sp)

0000000080004d28 <i_4752>:
    80004d28:	fb610383          	lb	t2,-74(sp)

0000000080004d2c <i_4753>:
    80004d2c:	03800f13          	li	t5,56

0000000080004d30 <i_4754>:
    80004d30:	01ed1cb3          	sll	s9,s10,t5

0000000080004d34 <i_4755>:
    80004d34:	03c55263          	ble	t3,a0,80004d58 <i_4764>

0000000080004d38 <i_4756>:
    80004d38:	fb011603          	lh	a2,-80(sp)

0000000080004d3c <i_4757>:
    80004d3c:	cb41f193          	andi	gp,gp,-844

0000000080004d40 <i_4758>:
    80004d40:	01ad5a63          	ble	s10,s10,80004d54 <i_4763>

0000000080004d44 <i_4759>:
    80004d44:	029651bb          	divuw	gp,a2,s1

0000000080004d48 <i_4760>:
    80004d48:	ebd14183          	lbu	gp,-323(sp)

0000000080004d4c <i_4761>:
    80004d4c:	12313423          	sd	gp,296(sp)

0000000080004d50 <i_4762>:
    80004d50:	ff813c83          	ld	s9,-8(sp)

0000000080004d54 <i_4763>:
    80004d54:	0291d4bb          	divuw	s1,gp,s1

0000000080004d58 <i_4764>:
    80004d58:	01626863          	bltu	tp,s6,80004d68 <i_4768>

0000000080004d5c <i_4765>:
    80004d5c:	0011ec63          	bltu	gp,ra,80004d74 <i_4771>

0000000080004d60 <i_4766>:
    80004d60:	f6310fa3          	sb	gp,-129(sp)

0000000080004d64 <i_4767>:
    80004d64:	f1416783          	lwu	a5,-236(sp)

0000000080004d68 <i_4768>:
    80004d68:	e8013683          	ld	a3,-384(sp)

0000000080004d6c <i_4769>:
    80004d6c:	02c45463          	ble	a2,s0,80004d94 <i_4779>

0000000080004d70 <i_4770>:
    80004d70:	0034e863          	bltu	s1,gp,80004d80 <i_4774>

0000000080004d74 <i_4771>:
    80004d74:	40348433          	sub	s0,s1,gp

0000000080004d78 <i_4772>:
    80004d78:	01800193          	li	gp,24

0000000080004d7c <i_4773>:
    80004d7c:	0031dd3b          	srlw	s10,gp,gp

0000000080004d80 <i_4774>:
    80004d80:	f2011e83          	lh	t4,-224(sp)

0000000080004d84 <i_4775>:
    80004d84:	ff7da517          	auipc	a0,0xff7da

0000000080004d88 <i_4776>:
    80004d88:	00012183          	lw	gp,0(sp)

0000000080004d8c <i_4777>:
    80004d8c:	01d13c23          	sd	t4,24(sp)

0000000080004d90 <i_4778>:
    80004d90:	00c6ccb3          	xor	s9,a3,a2

0000000080004d94 <i_4779>:
    80004d94:	039b5463          	ble	s9,s6,80004dbc <i_4789>

0000000080004d98 <i_4780>:
    80004d98:	0046d593          	srli	a1,a3,0x4

0000000080004d9c <i_4781>:
    80004d9c:	f3611c03          	lh	s8,-202(sp)

0000000080004da0 <i_4782>:
    80004da0:	0031b1b3          	sltu	gp,gp,gp

0000000080004da4 <i_4783>:
    80004da4:	0fa13823          	sd	s10,240(sp)

0000000080004da8 <i_4784>:
    80004da8:	ed5af193          	andi	gp,s5,-299

0000000080004dac <i_4785>:
    80004dac:	0287c7b3          	div	a5,a5,s0

0000000080004db0 <i_4786>:
    80004db0:	00000013          	nop

0000000080004db4 <i_4787>:
    80004db4:	00000013          	nop

0000000080004db8 <i_4788>:
    80004db8:	00f58333          	add	t1,a1,a5

0000000080004dbc <i_4789>:
    80004dbc:	fe813c23          	sd	s0,-8(sp)

0000000080004dc0 <i_4790>:
    80004dc0:	2e8d4293          	xori	t0,s10,744

0000000080004dc4 <i_4791>:
    80004dc4:	8c600493          	li	s1,-1850

0000000080004dc8 <i_4792>:
    80004dc8:	8cb00513          	li	a0,-1845

0000000080004dcc <i_4793>:
    80004dcc:	01ad2a33          	slt	s4,s10,s10

0000000080004dd0 <i_4794>:
    80004dd0:	19e10183          	lb	gp,414(sp)

0000000080004dd4 <i_4795>:
    80004dd4:	84b00413          	li	s0,-1973

0000000080004dd8 <i_4796>:
    80004dd8:	85b00d13          	li	s10,-1957

0000000080004ddc <i_4797>:
    80004ddc:	fa013783          	ld	a5,-96(sp)

0000000080004de0 <i_4798>:
    80004de0:	034a6f33          	rem	t5,s4,s4

0000000080004de4 <i_4799>:
    80004de4:	01310a03          	lb	s4,19(sp)

0000000080004de8 <i_4800>:
    80004de8:	07a11f23          	sh	s10,126(sp)

0000000080004dec <i_4801>:
    80004dec:	00140413          	addi	s0,s0,1
    80004df0:	ffa446e3          	blt	s0,s10,80004ddc <i_4797>

0000000080004df4 <i_4802>:
    80004df4:	023272b3          	remu	t0,tp,gp

0000000080004df8 <i_4803>:
    80004df8:	00148493          	addi	s1,s1,1
    80004dfc:	fc9558e3          	ble	s1,a0,80004dcc <i_4793>

0000000080004e00 <i_4804>:
    80004e00:	e9411d23          	sh	s4,-358(sp)

0000000080004e04 <i_4805>:
    80004e04:	004a1b9b          	slliw	s7,s4,0x4

0000000080004e08 <i_4806>:
    80004e08:	f5ba3293          	sltiu	t0,s4,-165

0000000080004e0c <i_4807>:
    80004e0c:	0b813a03          	ld	s4,184(sp)

0000000080004e10 <i_4808>:
    80004e10:	0ac11783          	lh	a5,172(sp)

0000000080004e14 <i_4809>:
    80004e14:	14f10c23          	sb	a5,344(sp)

0000000080004e18 <i_4810>:
    80004e18:	e9713823          	sd	s7,-368(sp)

0000000080004e1c <i_4811>:
    80004e1c:	00700e13          	li	t3,7

0000000080004e20 <i_4812>:
    80004e20:	01ca183b          	sllw	a6,s4,t3

0000000080004e24 <i_4813>:
    80004e24:	79b00d93          	li	s11,1947

0000000080004e28 <i_4814>:
    80004e28:	7a600793          	li	a5,1958

0000000080004e2c <i_4815>:
    80004e2c:	ed813283          	ld	t0,-296(sp)

0000000080004e30 <i_4816>:
    80004e30:	16415a03          	lhu	s4,356(sp)

0000000080004e34 <i_4817>:
    80004e34:	15a13023          	sd	s10,320(sp)

0000000080004e38 <i_4818>:
    80004e38:	0b514503          	lbu	a0,181(sp)

0000000080004e3c <i_4819>:
    80004e3c:	00000013          	nop

0000000080004e40 <i_4820>:
    80004e40:	fca11023          	sh	a0,-64(sp)

0000000080004e44 <i_4821>:
    80004e44:	6ad0c697          	auipc	a3,0x6ad0c

0000000080004e48 <i_4822>:
    80004e48:	ec411083          	lh	ra,-316(sp)

0000000080004e4c <i_4823>:
    80004e4c:	e6812c03          	lw	s8,-408(sp)

0000000080004e50 <i_4824>:
    80004e50:	249e7213          	andi	tp,t3,585

0000000080004e54 <i_4825>:
    80004e54:	0043b533          	sltu	a0,t2,tp

0000000080004e58 <i_4826>:
    80004e58:	0033f337          	lui	t1,0x33f

0000000080004e5c <i_4827>:
    80004e5c:	00000013          	nop

0000000080004e60 <i_4828>:
    80004e60:	1be13023          	sd	t5,416(sp)

0000000080004e64 <i_4829>:
    80004e64:	001d8d93          	addi	s11,s11,1 # ffffffffc34d5001 <_end+0xffffffff434c4bed>
    80004e68:	fdb7f2e3          	bleu	s11,a5,80004e2c <i_4815>

0000000080004e6c <i_4830>:
    80004e6c:	f4413823          	sd	tp,-176(sp)

0000000080004e70 <i_4831>:
    80004e70:	00657c63          	bleu	t1,a0,80004e88 <i_4837>

0000000080004e74 <i_4832>:
    80004e74:	fb811123          	sh	s8,-94(sp)

0000000080004e78 <i_4833>:
    80004e78:	00636533          	or	a0,t1,t1

0000000080004e7c <i_4834>:
    80004e7c:	f1011203          	lh	tp,-240(sp)

0000000080004e80 <i_4835>:
    80004e80:	00936263          	bltu	t1,s1,80004e84 <i_4836>

0000000080004e84 <i_4836>:
    80004e84:	02c9063b          	mulw	a2,s2,a2

0000000080004e88 <i_4837>:
    80004e88:	f9013e03          	ld	t3,-112(sp)

0000000080004e8c <i_4838>:
    80004e8c:	e3c12a23          	sw	t3,-460(sp)

0000000080004e90 <i_4839>:
    80004e90:	3f922493          	slti	s1,tp,1017

0000000080004e94 <i_4840>:
    80004e94:	01ae4263          	blt	t3,s10,80004e98 <i_4841>

0000000080004e98 <i_4841>:
    80004e98:	fc411b23          	sh	tp,-42(sp)

0000000080004e9c <i_4842>:
    80004e9c:	0e911123          	sh	s1,226(sp)

0000000080004ea0 <i_4843>:
    80004ea0:	01b00d13          	li	s10,27

0000000080004ea4 <i_4844>:
    80004ea4:	41ae5d3b          	sraw	s10,t3,s10

0000000080004ea8 <i_4845>:
    80004ea8:	e5016783          	lwu	a5,-432(sp)

0000000080004eac <i_4846>:
    80004eac:	0a810f23          	sb	s0,190(sp)

0000000080004eb0 <i_4847>:
    80004eb0:	03a10ba3          	sb	s10,55(sp)

0000000080004eb4 <i_4848>:
    80004eb4:	03af0f33          	mul	t5,t5,s10

0000000080004eb8 <i_4849>:
    80004eb8:	0212f433          	remu	s0,t0,ra

0000000080004ebc <i_4850>:
    80004ebc:	028d2e33          	mulhsu	t3,s10,s0

0000000080004ec0 <i_4851>:
    80004ec0:	f7a15d03          	lhu	s10,-134(sp)

0000000080004ec4 <i_4852>:
    80004ec4:	02100413          	li	s0,33

0000000080004ec8 <i_4853>:
    80004ec8:	408f50b3          	sra	ra,t5,s0

0000000080004ecc <i_4854>:
    80004ecc:	028752bb          	divuw	t0,a4,s0

0000000080004ed0 <i_4855>:
    80004ed0:	41a080b3          	sub	ra,ra,s10

0000000080004ed4 <i_4856>:
    80004ed4:	e4013683          	ld	a3,-448(sp)

0000000080004ed8 <i_4857>:
    80004ed8:	0b110e83          	lb	t4,177(sp)

0000000080004edc <i_4858>:
    80004edc:	4024569b          	sraiw	a3,s0,0x2

0000000080004ee0 <i_4859>:
    80004ee0:	01a40863          	beq	s0,s10,80004ef0 <i_4863>

0000000080004ee4 <i_4860>:
    80004ee4:	3c143d13          	sltiu	s10,s0,961

0000000080004ee8 <i_4861>:
    80004ee8:	f2310783          	lb	a5,-221(sp)

0000000080004eec <i_4862>:
    80004eec:	0331e7bb          	remw	a5,gp,s3

0000000080004ef0 <i_4863>:
    80004ef0:	00000013          	nop

0000000080004ef4 <i_4864>:
    80004ef4:	00000013          	nop

0000000080004ef8 <i_4865>:
    80004ef8:	82f00413          	li	s0,-2001

0000000080004efc <i_4866>:
    80004efc:	83700993          	li	s3,-1993

0000000080004f00 <i_4867>:
    80004f00:	03084833          	div	a6,a6,a6

0000000080004f04 <i_4868>:
    80004f04:	00140413          	addi	s0,s0,1
    80004f08:	fe89dce3          	ble	s0,s3,80004f00 <i_4867>

0000000080004f0c <i_4869>:
    80004f0c:	04f13023          	sd	a5,64(sp)

0000000080004f10 <i_4870>:
    80004f10:	0ef13423          	sd	a5,232(sp)

0000000080004f14 <i_4871>:
    80004f14:	02f7e463          	bltu	a5,a5,80004f3c <i_4881>

0000000080004f18 <i_4872>:
    80004f18:	ef0109a3          	sb	a6,-269(sp)

0000000080004f1c <i_4873>:
    80004f1c:	03379063          	bne	a5,s3,80004f3c <i_4881>

0000000080004f20 <i_4874>:
    80004f20:	10e15783          	lhu	a5,270(sp)

0000000080004f24 <i_4875>:
    80004f24:	02f84263          	blt	a6,a5,80004f48 <i_4884>

0000000080004f28 <i_4876>:
    80004f28:	10811b23          	sh	s0,278(sp)

0000000080004f2c <i_4877>:
    80004f2c:	0319ee3b          	remw	t3,s3,a7

0000000080004f30 <i_4878>:
    80004f30:	0e412b03          	lw	s6,228(sp)

0000000080004f34 <i_4879>:
    80004f34:	01416c83          	lwu	s9,20(sp)

0000000080004f38 <i_4880>:
    80004f38:	0ab10403          	lb	s0,171(sp)

0000000080004f3c <i_4881>:
    80004f3c:	0147de63          	ble	s4,a5,80004f58 <i_4888>

0000000080004f40 <i_4882>:
    80004f40:	00843cb3          	sltu	s9,s0,s0

0000000080004f44 <i_4883>:
    80004f44:	ab2c8e13          	addi	t3,s9,-1358

0000000080004f48 <i_4884>:
    80004f48:	12e11783          	lh	a5,302(sp)

0000000080004f4c <i_4885>:
    80004f4c:	08813823          	sd	s0,144(sp)

0000000080004f50 <i_4886>:
    80004f50:	1cf11f23          	sh	a5,478(sp)

0000000080004f54 <i_4887>:
    80004f54:	e5813e03          	ld	t3,-424(sp)

0000000080004f58 <i_4888>:
    80004f58:	e7b12023          	sw	s11,-416(sp)

0000000080004f5c <i_4889>:
    80004f5c:	01c70db3          	add	s11,a4,t3

0000000080004f60 <i_4890>:
    80004f60:	7cd00493          	li	s1,1997

0000000080004f64 <i_4891>:
    80004f64:	7db00593          	li	a1,2011

0000000080004f68 <i_4892>:
    80004f68:	18411c03          	lh	s8,388(sp)

0000000080004f6c <i_4893>:
    80004f6c:	03ce0463          	beq	t3,t3,80004f94 <i_4902>

0000000080004f70 <i_4894>:
    80004f70:	004c5693          	srli	a3,s8,0x4

0000000080004f74 <i_4895>:
    80004f74:	ead12a23          	sw	a3,-332(sp)

0000000080004f78 <i_4896>:
    80004f78:	0e215a03          	lhu	s4,226(sp)

0000000080004f7c <i_4897>:
    80004f7c:	01ce3e33          	sltu	t3,t3,t3

0000000080004f80 <i_4898>:
    80004f80:	00148493          	addi	s1,s1,1
    80004f84:	feb4c2e3          	blt	s1,a1,80004f68 <i_4892>

0000000080004f88 <i_4899>:
    80004f88:	0026db13          	srli	s6,a3,0x2

0000000080004f8c <i_4900>:
    80004f8c:	b53b3d13          	sltiu	s10,s6,-1197

0000000080004f90 <i_4901>:
    80004f90:	e3412223          	sw	s4,-476(sp)

0000000080004f94 <i_4902>:
    80004f94:	1b412683          	lw	a3,436(sp)

0000000080004f98 <i_4903>:
    80004f98:	01800d13          	li	s10,24

0000000080004f9c <i_4904>:
    80004f9c:	01a613bb          	sllw	t2,a2,s10

0000000080004fa0 <i_4905>:
    80004fa0:	8cd00613          	li	a2,-1843

0000000080004fa4 <i_4906>:
    80004fa4:	8d500a93          	li	s5,-1835

0000000080004fa8 <i_4907>:
    80004fa8:	03ce4f3b          	divw	t5,t3,t3

0000000080004fac <i_4908>:
    80004fac:	02a00e13          	li	t3,42

0000000080004fb0 <i_4909>:
    80004fb0:	01ca9d33          	sll	s10,s5,t3

0000000080004fb4 <i_4910>:
    80004fb4:	0c3107a3          	sb	gp,207(sp)

0000000080004fb8 <i_4911>:
    80004fb8:	020e7393          	andi	t2,t3,32

0000000080004fbc <i_4912>:
    80004fbc:	c14e7593          	andi	a1,t3,-1004

0000000080004fc0 <i_4913>:
    80004fc0:	023e73b3          	remu	t2,t3,gp

0000000080004fc4 <i_4914>:
    80004fc4:	e9e15b03          	lhu	s6,-354(sp)

0000000080004fc8 <i_4915>:
    80004fc8:	41b50c3b          	subw	s8,a0,s11

0000000080004fcc <i_4916>:
    80004fcc:	00160613          	addi	a2,a2,1 # 5b0bc001 <main-0x24f43fff>
    80004fd0:	fd561ce3          	bne	a2,s5,80004fa8 <i_4907>

0000000080004fd4 <i_4917>:
    80004fd4:	02a12bb3          	mulhsu	s7,sp,a0

0000000080004fd8 <i_4918>:
    80004fd8:	00bb4c63          	blt	s6,a1,80004ff0 <i_4924>

0000000080004fdc <i_4919>:
    80004fdc:	e9813b03          	ld	s6,-360(sp)

0000000080004fe0 <i_4920>:
    80004fe0:	e7612e23          	sw	s6,-388(sp)

0000000080004fe4 <i_4921>:
    80004fe4:	e2214583          	lbu	a1,-478(sp)

0000000080004fe8 <i_4922>:
    80004fe8:	e3e11b03          	lh	s6,-450(sp)

0000000080004fec <i_4923>:
    80004fec:	0365d633          	divu	a2,a1,s6

0000000080004ff0 <i_4924>:
    80004ff0:	00219193          	slli	gp,gp,0x2

0000000080004ff4 <i_4925>:
    80004ff4:	00000013          	nop

0000000080004ff8 <i_4926>:
    80004ff8:	88400b93          	li	s7,-1916

0000000080004ffc <i_4927>:
    80004ffc:	89700393          	li	t2,-1897

0000000080005000 <i_4928>:
    80005000:	e4b12e23          	sw	a1,-420(sp)

0000000080005004 <i_4929>:
    80005004:	02b655b3          	divu	a1,a2,a1

0000000080005008 <i_4930>:
    80005008:	0285e063          	bltu	a1,s0,80005028 <i_4937>

000000008000500c <i_4931>:
    8000500c:	001b8b93          	addi	s7,s7,1 # a4bd95ad <_end+0x24bc9199>
    80005010:	fe7b98e3          	bne	s7,t2,80005000 <i_4928>

0000000080005014 <i_4932>:
    80005014:	4045d61b          	sraiw	a2,a1,0x4

0000000080005018 <i_4933>:
    80005018:	01760a63          	beq	a2,s7,8000502c <i_4938>

000000008000501c <i_4934>:
    8000501c:	02c1f463          	bleu	a2,gp,80005044 <i_4944>

0000000080005020 <i_4935>:
    80005020:	01a15803          	lhu	a6,26(sp)

0000000080005024 <i_4936>:
    80005024:	fa013a03          	ld	s4,-96(sp)

0000000080005028 <i_4937>:
    80005028:	1a012183          	lw	gp,416(sp)

000000008000502c <i_4938>:
    8000502c:	4011d093          	srai	ra,gp,0x1

0000000080005030 <i_4939>:
    80005030:	04b106a3          	sb	a1,77(sp)

0000000080005034 <i_4940>:
    80005034:	03481063          	bne	a6,s4,80005054 <i_4948>

0000000080005038 <i_4941>:
    80005038:	03719263          	bne	gp,s7,8000505c <i_4950>

000000008000503c <i_4942>:
    8000503c:	03082833          	mulhsu	a6,a6,a6

0000000080005040 <i_4943>:
    80005040:	f4113c23          	sd	ra,-168(sp)

0000000080005044 <i_4944>:
    80005044:	00200a13          	li	s4,2

0000000080005048 <i_4945>:
    80005048:	414850bb          	sraw	ra,a6,s4

000000008000504c <i_4946>:
    8000504c:	0e813b83          	ld	s7,232(sp)

0000000080005050 <i_4947>:
    80005050:	a860f093          	andi	ra,ra,-1402

0000000080005054 <i_4948>:
    80005054:	00154463          	blt	a0,ra,8000505c <i_4950>

0000000080005058 <i_4949>:
    80005058:	02e21a33          	mulh	s4,tp,a4

000000008000505c <i_4950>:
    8000505c:	02d08463          	beq	ra,a3,80005084 <i_4960>

0000000080005060 <i_4951>:
    80005060:	034844b3          	div	s1,a6,s4

0000000080005064 <i_4952>:
    80005064:	07416b83          	lwu	s7,116(sp)

0000000080005068 <i_4953>:
    80005068:	f5712223          	sw	s7,-188(sp)

000000008000506c <i_4954>:
    8000506c:	7b51f193          	andi	gp,gp,1973

0000000080005070 <i_4955>:
    80005070:	ea311f23          	sh	gp,-322(sp)

0000000080005074 <i_4956>:
    80005074:	e4813583          	ld	a1,-440(sp)

0000000080005078 <i_4957>:
    80005078:	08312a23          	sw	gp,148(sp)

000000008000507c <i_4958>:
    8000507c:	00000013          	nop

0000000080005080 <i_4959>:
    80005080:	ee312823          	sw	gp,-272(sp)

0000000080005084 <i_4960>:
    80005084:	0e411f03          	lh	t5,228(sp)

0000000080005088 <i_4961>:
    80005088:	00000013          	nop

000000008000508c <i_4962>:
    8000508c:	87400493          	li	s1,-1932

0000000080005090 <i_4963>:
    80005090:	88100693          	li	a3,-1919

0000000080005094 <i_4964>:
    80005094:	00000013          	nop

0000000080005098 <i_4965>:
    80005098:	01a00f13          	li	t5,26

000000008000509c <i_4966>:
    8000509c:	01ef1dbb          	sllw	s11,t5,t5

00000000800050a0 <i_4967>:
    800050a0:	00148493          	addi	s1,s1,1
    800050a4:	fe96d8e3          	ble	s1,a3,80005094 <i_4964>

00000000800050a8 <i_4968>:
    800050a8:	4021de13          	srai	t3,gp,0x2

00000000800050ac <i_4969>:
    800050ac:	4026dd9b          	sraiw	s11,a3,0x2

00000000800050b0 <i_4970>:
    800050b0:	03b47f33          	remu	t5,s0,s11

00000000800050b4 <i_4971>:
    800050b4:	ef813d03          	ld	s10,-264(sp)

00000000800050b8 <i_4972>:
    800050b8:	03900d13          	li	s10,57

00000000800050bc <i_4973>:
    800050bc:	41ad56b3          	sra	a3,s10,s10

00000000800050c0 <i_4974>:
    800050c0:	002d549b          	srliw	s1,s10,0x2

00000000800050c4 <i_4975>:
    800050c4:	00d68c63          	beq	a3,a3,800050dc <i_4981>

00000000800050c8 <i_4976>:
    800050c8:	ff812683          	lw	a3,-8(sp)

00000000800050cc <i_4977>:
    800050cc:	41ad0d3b          	subw	s10,s10,s10

00000000800050d0 <i_4978>:
    800050d0:	15415d03          	lhu	s10,340(sp)

00000000800050d4 <i_4979>:
    800050d4:	ef215c83          	lhu	s9,-270(sp)

00000000800050d8 <i_4980>:
    800050d8:	0c415483          	lhu	s1,196(sp)

00000000800050dc <i_4981>:
    800050dc:	002c9d13          	slli	s10,s9,0x2

00000000800050e0 <i_4982>:
    800050e0:	029a1433          	mulh	s0,s4,s1

00000000800050e4 <i_4983>:
    800050e4:	f0911923          	sh	s1,-238(sp)

00000000800050e8 <i_4984>:
    800050e8:	01ad1a63          	bne	s10,s10,800050fc <i_4989>

00000000800050ec <i_4985>:
    800050ec:	e6d40d13          	addi	s10,s0,-403

00000000800050f0 <i_4986>:
    800050f0:	03ad4d3b          	divw	s10,s10,s10

00000000800050f4 <i_4987>:
    800050f4:	003d149b          	slliw	s1,s10,0x3

00000000800050f8 <i_4988>:
    800050f8:	40cd7e93          	andi	t4,s10,1036

00000000800050fc <i_4989>:
    800050fc:	00000013          	nop

0000000080005100 <i_4990>:
    80005100:	68534497          	auipc	s1,0x68534

0000000080005104 <i_4991>:
    80005104:	81600613          	li	a2,-2026

0000000080005108 <i_4992>:
    80005108:	81e00413          	li	s0,-2018

000000008000510c <i_4993>:
    8000510c:	06412483          	lw	s1,100(sp)

0000000080005110 <i_4994>:
    80005110:	ea313423          	sd	gp,-344(sp)

0000000080005114 <i_4995>:
    80005114:	fec11e23          	sh	a2,-4(sp)

0000000080005118 <i_4996>:
    80005118:	00160613          	addi	a2,a2,1
    8000511c:	fec458e3          	ble	a2,s0,8000510c <i_4993>

0000000080005120 <i_4997>:
    80005120:	ecc15603          	lhu	a2,-308(sp)

0000000080005124 <i_4998>:
    80005124:	09a13c23          	sd	s10,152(sp)

0000000080005128 <i_4999>:
    80005128:	02400b93          	li	s7,36

000000008000512c <i_5000>:
    8000512c:	0173d1b3          	srl	gp,t2,s7

0000000080005130 <i_5001>:
    80005130:	03be8463          	beq	t4,s11,80005158 <i_5011>

0000000080005134 <i_5002>:
    80005134:	009df863          	bleu	s1,s11,80005144 <i_5006>

0000000080005138 <i_5003>:
    80005138:	1a312c23          	sw	gp,440(sp)

000000008000513c <i_5004>:
    8000513c:	01dbea63          	bltu	s7,t4,80005150 <i_5009>

0000000080005140 <i_5005>:
    80005140:	0f712223          	sw	s7,228(sp)

0000000080005144 <i_5006>:
    80005144:	1a312c23          	sw	gp,440(sp)

0000000080005148 <i_5007>:
    80005148:	00d00e93          	li	t4,13

000000008000514c <i_5008>:
    8000514c:	01d49d33          	sll	s10,s1,t4

0000000080005150 <i_5009>:
    80005150:	00e4e863          	bltu	s1,a4,80005160 <i_5013>

0000000080005154 <i_5010>:
    80005154:	e3314b83          	lbu	s7,-461(sp)

0000000080005158 <i_5011>:
    80005158:	017e9263          	bne	t4,s7,8000515c <i_5012>

000000008000515c <i_5012>:
    8000515c:	02be7e33          	remu	t3,t3,a1

0000000080005160 <i_5013>:
    80005160:	d07b8b9b          	addiw	s7,s7,-761

0000000080005164 <i_5014>:
    80005164:	017e3bb3          	sltu	s7,t3,s7

0000000080005168 <i_5015>:
    80005168:	0ec16583          	lwu	a1,236(sp)

000000008000516c <i_5016>:
    8000516c:	fe412e03          	lw	t3,-28(sp)

0000000080005170 <i_5017>:
    80005170:	01cbfa63          	bleu	t3,s7,80005184 <i_5022>

0000000080005174 <i_5018>:
    80005174:	00412e03          	lw	t3,4(sp)

0000000080005178 <i_5019>:
    80005178:	0285e43b          	remw	s0,a1,s0

000000008000517c <i_5020>:
    8000517c:	006baf33          	slt	t5,s7,t1

0000000080005180 <i_5021>:
    80005180:	0b113423          	sd	a7,168(sp)

0000000080005184 <i_5022>:
    80005184:	01813303          	ld	t1,24(sp)

0000000080005188 <i_5023>:
    80005188:	03200193          	li	gp,50

000000008000518c <i_5024>:
    8000518c:	003fdab3          	srl	s5,t6,gp

0000000080005190 <i_5025>:
    80005190:	017e3d33          	sltu	s10,t3,s7

0000000080005194 <i_5026>:
    80005194:	00000013          	nop

0000000080005198 <i_5027>:
    80005198:	02800513          	li	a0,40

000000008000519c <i_5028>:
    8000519c:	00a51233          	sll	tp,a0,a0

00000000800051a0 <i_5029>:
    800051a0:	78100f13          	li	t5,1921

00000000800051a4 <i_5030>:
    800051a4:	78900613          	li	a2,1929

00000000800051a8 <i_5031>:
    800051a8:	0231d1b3          	divu	gp,gp,gp

00000000800051ac <i_5032>:
    800051ac:	1c812503          	lw	a0,456(sp)

00000000800051b0 <i_5033>:
    800051b0:	07013983          	ld	s3,112(sp)

00000000800051b4 <i_5034>:
    800051b4:	12610f23          	sb	t1,318(sp)

00000000800051b8 <i_5035>:
    800051b8:	40355993          	srai	s3,a0,0x3

00000000800051bc <i_5036>:
    800051bc:	02d00c93          	li	s9,45

00000000800051c0 <i_5037>:
    800051c0:	01955533          	srl	a0,a0,s9

00000000800051c4 <i_5038>:
    800051c4:	01599a63          	bne	s3,s5,800051d8 <i_5043>

00000000800051c8 <i_5039>:
    800051c8:	00a9da63          	ble	a0,s3,800051dc <i_5044>

00000000800051cc <i_5040>:
    800051cc:	fa013183          	ld	gp,-96(sp)

00000000800051d0 <i_5041>:
    800051d0:	e5c12283          	lw	t0,-420(sp)

00000000800051d4 <i_5042>:
    800051d4:	1d311f23          	sh	s3,478(sp)

00000000800051d8 <i_5043>:
    800051d8:	02b295b3          	mulh	a1,t0,a1

00000000800051dc <i_5044>:
    800051dc:	e62cbd13          	sltiu	s10,s9,-414

00000000800051e0 <i_5045>:
    800051e0:	00800413          	li	s0,8

00000000800051e4 <i_5046>:
    800051e4:	008999b3          	sll	s3,s3,s0

00000000800051e8 <i_5047>:
    800051e8:	001f0f13          	addi	t5,t5,1
    800051ec:	fbe67ce3          	bleu	t5,a2,800051a4 <i_5030>

00000000800051f0 <i_5048>:
    800051f0:	413c8abb          	subw	s5,s9,s3

00000000800051f4 <i_5049>:
    800051f4:	e2714c83          	lbu	s9,-473(sp)

00000000800051f8 <i_5050>:
    800051f8:	fd510a23          	sb	s5,-44(sp)

00000000800051fc <i_5051>:
    800051fc:	e4813483          	ld	s1,-440(sp)

0000000080005200 <i_5052>:
    80005200:	4474ea93          	ori	s5,s1,1095

0000000080005204 <i_5053>:
    80005204:	f6910a03          	lb	s4,-151(sp)

0000000080005208 <i_5054>:
    80005208:	f9911123          	sh	s9,-126(sp)

000000008000520c <i_5055>:
    8000520c:	1b512423          	sw	s5,424(sp)

0000000080005210 <i_5056>:
    80005210:	19913423          	sd	s9,392(sp)

0000000080005214 <i_5057>:
    80005214:	0c812483          	lw	s1,200(sp)

0000000080005218 <i_5058>:
    80005218:	029094b3          	mulh	s1,ra,s1

000000008000521c <i_5059>:
    8000521c:	021a0b3b          	mulw	s6,s4,ra

0000000080005220 <i_5060>:
    80005220:	014a8263          	beq	s5,s4,80005224 <i_5061>

0000000080005224 <i_5061>:
    80005224:	0c812183          	lw	gp,200(sp)

0000000080005228 <i_5062>:
    80005228:	10816b03          	lwu	s6,264(sp)

000000008000522c <i_5063>:
    8000522c:	1af14483          	lbu	s1,431(sp)

0000000080005230 <i_5064>:
    80005230:	73f00a93          	li	s5,1855

0000000080005234 <i_5065>:
    80005234:	74c00513          	li	a0,1868

0000000080005238 <i_5066>:
    80005238:	ea910f23          	sb	s1,-322(sp)

000000008000523c <i_5067>:
    8000523c:	2481be13          	sltiu	t3,gp,584

0000000080005240 <i_5068>:
    80005240:	14e10483          	lb	s1,334(sp)

0000000080005244 <i_5069>:
    80005244:	f1c12023          	sw	t3,-256(sp)

0000000080005248 <i_5070>:
    80005248:	00d00593          	li	a1,13

000000008000524c <i_5071>:
    8000524c:	40b4df3b          	sraw	t5,s1,a1

0000000080005250 <i_5072>:
    80005250:	f9e12623          	sw	t5,-116(sp)

0000000080005254 <i_5073>:
    80005254:	d294e613          	ori	a2,s1,-727

0000000080005258 <i_5074>:
    80005258:	401e5c1b          	sraiw	s8,t3,0x1

000000008000525c <i_5075>:
    8000525c:	001a8a93          	addi	s5,s5,1 # 38735a69 <main-0x478ca597>
    80005260:	fcaacce3          	blt	s5,a0,80005238 <i_5066>

0000000080005264 <i_5076>:
    80005264:	09510a83          	lb	s5,149(sp)

0000000080005268 <i_5077>:
    80005268:	01013d03          	ld	s10,16(sp)

000000008000526c <i_5078>:
    8000526c:	f7813583          	ld	a1,-136(sp)

0000000080005270 <i_5079>:
    80005270:	e2b12e23          	sw	a1,-452(sp)

0000000080005274 <i_5080>:
    80005274:	01512823          	sw	s5,16(sp)

0000000080005278 <i_5081>:
    80005278:	1bb14b03          	lbu	s6,443(sp)

000000008000527c <i_5082>:
    8000527c:	404ada9b          	sraiw	s5,s5,0x4

0000000080005280 <i_5083>:
    80005280:	01c10a83          	lb	s5,28(sp)

0000000080005284 <i_5084>:
    80005284:	016abab3          	sltu	s5,s5,s6

0000000080005288 <i_5085>:
    80005288:	17411a03          	lh	s4,372(sp)

000000008000528c <i_5086>:
    8000528c:	00000013          	nop

0000000080005290 <i_5087>:
    80005290:	00000013          	nop

0000000080005294 <i_5088>:
    80005294:	7a000813          	li	a6,1952

0000000080005298 <i_5089>:
    80005298:	7ae00b13          	li	s6,1966

000000008000529c <i_5090>:
    8000529c:	ff412623          	sw	s4,-20(sp)

00000000800052a0 <i_5091>:
    800052a0:	034a1a33          	mulh	s4,s4,s4

00000000800052a4 <i_5092>:
    800052a4:	00180813          	addi	a6,a6,1 # 998df4d5 <_end+0x198cf0c1>
    800052a8:	ff0b7ae3          	bleu	a6,s6,8000529c <i_5090>

00000000800052ac <i_5093>:
    800052ac:	c29a4a13          	xori	s4,s4,-983

00000000800052b0 <i_5094>:
    800052b0:	19c16803          	lwu	a6,412(sp)

00000000800052b4 <i_5095>:
    800052b4:	008a46b3          	xor	a3,s4,s0

00000000800052b8 <i_5096>:
    800052b8:	8730849b          	addiw	s1,ra,-1933

00000000800052bc <i_5097>:
    800052bc:	01468a63          	beq	a3,s4,800052d0 <i_5102>

00000000800052c0 <i_5098>:
    800052c0:	03339263          	bne	t2,s3,800052e4 <i_5107>

00000000800052c4 <i_5099>:
    800052c4:	016a7263          	bleu	s6,s4,800052c8 <i_5100>

00000000800052c8 <i_5100>:
    800052c8:	036d6263          	bltu	s10,s6,800052ec <i_5109>

00000000800052cc <i_5101>:
    800052cc:	00000013          	nop

00000000800052d0 <i_5102>:
    800052d0:	e8d12e23          	sw	a3,-356(sp)

00000000800052d4 <i_5103>:
    800052d4:	8bc4c693          	xori	a3,s1,-1860

00000000800052d8 <i_5104>:
    800052d8:	00000013          	nop

00000000800052dc <i_5105>:
    800052dc:	00000013          	nop

00000000800052e0 <i_5106>:
    800052e0:	b2fee693          	ori	a3,t4,-1233

00000000800052e4 <i_5107>:
    800052e4:	17611a83          	lh	s5,374(sp)

00000000800052e8 <i_5108>:
    800052e8:	00000013          	nop

00000000800052ec <i_5109>:
    800052ec:	e5b101a3          	sb	s11,-445(sp)

00000000800052f0 <i_5110>:
    800052f0:	10913023          	sd	s1,256(sp)

00000000800052f4 <i_5111>:
    800052f4:	8ca00493          	li	s1,-1846

00000000800052f8 <i_5112>:
    800052f8:	8d600b13          	li	s6,-1834

00000000800052fc <i_5113>:
    800052fc:	f2d11323          	sh	a3,-218(sp)

0000000080005300 <i_5114>:
    80005300:	0b813d03          	ld	s10,184(sp)

0000000080005304 <i_5115>:
    80005304:	f8d11c23          	sh	a3,-104(sp)

0000000080005308 <i_5116>:
    80005308:	11411783          	lh	a5,276(sp)

000000008000530c <i_5117>:
    8000530c:	24d33437          	lui	s0,0x24d33

0000000080005310 <i_5118>:
    80005310:	00f00193          	li	gp,15

0000000080005314 <i_5119>:
    80005314:	003b1ab3          	sll	s5,s6,gp

0000000080005318 <i_5120>:
    80005318:	00148493          	addi	s1,s1,1 # e8539101 <_end+0x68528ced>
    8000531c:	fe9b70e3          	bleu	s1,s6,800052fc <i_5113>

0000000080005320 <i_5121>:
    80005320:	0251c063          	blt	gp,t0,80005340 <i_5129>

0000000080005324 <i_5122>:
    80005324:	e5e15783          	lhu	a5,-418(sp)

0000000080005328 <i_5123>:
    80005328:	035b6263          	bltu	s6,s5,8000534c <i_5132>

000000008000532c <i_5124>:
    8000532c:	f56107a3          	sb	s6,-177(sp)

0000000080005330 <i_5125>:
    80005330:	09613c23          	sd	s6,152(sp)

0000000080005334 <i_5126>:
    80005334:	6a6d3d13          	sltiu	s10,s10,1702

0000000080005338 <i_5127>:
    80005338:	ede10603          	lb	a2,-290(sp)

000000008000533c <i_5128>:
    8000533c:	06411f23          	sh	tp,126(sp)

0000000080005340 <i_5129>:
    80005340:	02c614b3          	mulh	s1,a2,a2

0000000080005344 <i_5130>:
    80005344:	02cd0063          	beq	s10,a2,80005364 <i_5138>

0000000080005348 <i_5131>:
    80005348:	e2c13823          	sd	a2,-464(sp)

000000008000534c <i_5132>:
    8000534c:	8554c413          	xori	s0,s1,-1963

0000000080005350 <i_5133>:
    80005350:	009d0663          	beq	s10,s1,8000535c <i_5136>

0000000080005354 <i_5134>:
    80005354:	f7a12e23          	sw	s10,-132(sp)

0000000080005358 <i_5135>:
    80005358:	323a4393          	xori	t2,s4,803

000000008000535c <i_5136>:
    8000535c:	fda13823          	sd	s10,-48(sp)

0000000080005360 <i_5137>:
    80005360:	15c12d03          	lw	s10,348(sp)

0000000080005364 <i_5138>:
    80005364:	0073e433          	or	s0,t2,t2

0000000080005368 <i_5139>:
    80005368:	41a583b3          	sub	t2,a1,s10

000000008000536c <i_5140>:
    8000536c:	02100c13          	li	s8,33

0000000080005370 <i_5141>:
    80005370:	018a1a33          	sll	s4,s4,s8

0000000080005374 <i_5142>:
    80005374:	0142d863          	ble	s4,t0,80005384 <i_5146>

0000000080005378 <i_5143>:
    80005378:	00840c63          	beq	s0,s0,80005390 <i_5149>

000000008000537c <i_5144>:
    8000537c:	ff013483          	ld	s1,-16(sp)

0000000080005380 <i_5145>:
    80005380:	00849e63          	bne	s1,s0,8000539c <i_5152>

0000000080005384 <i_5146>:
    80005384:	ea410383          	lb	t2,-348(sp)

0000000080005388 <i_5147>:
    80005388:	00400a13          	li	s4,4

000000008000538c <i_5148>:
    8000538c:	01449a33          	sll	s4,s1,s4

0000000080005390 <i_5149>:
    80005390:	0f112023          	sw	a7,224(sp)

0000000080005394 <i_5150>:
    80005394:	02741063          	bne	s0,t2,800053b4 <i_5158>

0000000080005398 <i_5151>:
    80005398:	00000013          	nop

000000008000539c <i_5152>:
    8000539c:	027a4a33          	div	s4,s4,t2

00000000800053a0 <i_5153>:
    800053a0:	03900493          	li	s1,57

00000000800053a4 <i_5154>:
    800053a4:	009bdbb3          	srl	s7,s7,s1

00000000800053a8 <i_5155>:
    800053a8:	0044d813          	srli	a6,s1,0x4

00000000800053ac <i_5156>:
    800053ac:	eaa10503          	lb	a0,-342(sp)

00000000800053b0 <i_5157>:
    800053b0:	03754bb3          	div	s7,a0,s7

00000000800053b4 <i_5158>:
    800053b4:	02a8083b          	mulw	a6,a6,a0

00000000800053b8 <i_5159>:
    800053b8:	0aa10923          	sb	a0,178(sp)

00000000800053bc <i_5160>:
    800053bc:	8a000c13          	li	s8,-1888

00000000800053c0 <i_5161>:
    800053c0:	8a600393          	li	t2,-1882

00000000800053c4 <i_5162>:
    800053c4:	00000013          	nop

00000000800053c8 <i_5163>:
    800053c8:	02c85a3b          	divuw	s4,a6,a2

00000000800053cc <i_5164>:
    800053cc:	02d00093          	li	ra,45

00000000800053d0 <i_5165>:
    800053d0:	001556b3          	srl	a3,a0,ra

00000000800053d4 <i_5166>:
    800053d4:	02f51533          	mulh	a0,a0,a5

00000000800053d8 <i_5167>:
    800053d8:	001c0c13          	addi	s8,s8,1 # 15153001 <main-0x6aeacfff>
    800053dc:	fe7c14e3          	bne	s8,t2,800053c4 <i_5162>

00000000800053e0 <i_5168>:
    800053e0:	ee412a03          	lw	s4,-284(sp)

00000000800053e4 <i_5169>:
    800053e4:	03157a3b          	remuw	s4,a0,a7

00000000800053e8 <i_5170>:
    800053e8:	01452633          	slt	a2,a0,s4

00000000800053ec <i_5171>:
    800053ec:	03465463          	ble	s4,a2,80005414 <i_5181>

00000000800053f0 <i_5172>:
    800053f0:	11015683          	lhu	a3,272(sp)

00000000800053f4 <i_5173>:
    800053f4:	00800d13          	li	s10,8

00000000800053f8 <i_5174>:
    800053f8:	41a0d0b3          	sra	ra,ra,s10

00000000800053fc <i_5175>:
    800053fc:	f6814e03          	lbu	t3,-152(sp)

0000000080005400 <i_5176>:
    80005400:	06a15083          	lhu	ra,106(sp)

0000000080005404 <i_5177>:
    80005404:	01ad7d33          	and	s10,s10,s10

0000000080005408 <i_5178>:
    80005408:	02f00c13          	li	s8,47

000000008000540c <i_5179>:
    8000540c:	018e1eb3          	sll	t4,t3,s8

0000000080005410 <i_5180>:
    80005410:	03cbdeb3          	divu	t4,s7,t3

0000000080005414 <i_5181>:
    80005414:	00000013          	nop

0000000080005418 <i_5182>:
    80005418:	02b14583          	lbu	a1,43(sp)

000000008000541c <i_5183>:
    8000541c:	82800e13          	li	t3,-2008

0000000080005420 <i_5184>:
    80005420:	83700d13          	li	s10,-1993

0000000080005424 <i_5185>:
    80005424:	0fd13c23          	sd	t4,248(sp)

0000000080005428 <i_5186>:
    80005428:	403fde93          	srai	t4,t6,0x3

000000008000542c <i_5187>:
    8000542c:	8af00c13          	li	s8,-1873

0000000080005430 <i_5188>:
    80005430:	8ba00413          	li	s0,-1862

0000000080005434 <i_5189>:
    80005434:	001c0c13          	addi	s8,s8,1
    80005438:	ff845ee3          	ble	s8,s0,80005434 <i_5189>

000000008000543c <i_5190>:
    8000543c:	00000013          	nop

0000000080005440 <i_5191>:
    80005440:	08215483          	lhu	s1,130(sp)

0000000080005444 <i_5192>:
    80005444:	0bb14203          	lbu	tp,187(sp)

0000000080005448 <i_5193>:
    80005448:	001e0e13          	addi	t3,t3,1 # ffffffffa2fff001 <_end+0xffffffff22feebed>
    8000544c:	fdcd5ce3          	ble	t3,s10,80005424 <i_5185>

0000000080005450 <i_5194>:
    80005450:	00445b9b          	srliw	s7,s0,0x4

0000000080005454 <i_5195>:
    80005454:	037ee463          	bltu	t4,s7,8000547c <i_5205>

0000000080005458 <i_5196>:
    80005458:	0d813803          	ld	a6,216(sp)

000000008000545c <i_5197>:
    8000545c:	18510e03          	lb	t3,389(sp)

0000000080005460 <i_5198>:
    80005460:	01044e63          	blt	s0,a6,8000547c <i_5205>

0000000080005464 <i_5199>:
    80005464:	ec911c23          	sh	s1,-296(sp)

0000000080005468 <i_5200>:
    80005468:	ffb10483          	lb	s1,-5(sp)

000000008000546c <i_5201>:
    8000546c:	00fea833          	slt	a6,t4,a5

0000000080005470 <i_5202>:
    80005470:	012dcdb3          	xor	s11,s11,s2

0000000080005474 <i_5203>:
    80005474:	edc12803          	lw	a6,-292(sp)

0000000080005478 <i_5204>:
    80005478:	e3011123          	sh	a6,-478(sp)

000000008000547c <i_5205>:
    8000547c:	ed110083          	lb	ra,-303(sp)

0000000080005480 <i_5206>:
    80005480:	fdb10623          	sb	s11,-52(sp)

0000000080005484 <i_5207>:
    80005484:	10b10423          	sb	a1,264(sp)

0000000080005488 <i_5208>:
    80005488:	0014f263          	bleu	ra,s1,8000548c <i_5209>

000000008000548c <i_5209>:
    8000548c:	f4810e23          	sb	s0,-164(sp)

0000000080005490 <i_5210>:
    80005490:	024ec633          	div	a2,t4,tp

0000000080005494 <i_5211>:
    80005494:	0174c263          	blt	s1,s7,80005498 <i_5212>

0000000080005498 <i_5212>:
    80005498:	01760bb3          	add	s7,a2,s7

000000008000549c <i_5213>:
    8000549c:	fdd10e03          	lb	t3,-35(sp)

00000000800054a0 <i_5214>:
    800054a0:	f6815483          	lhu	s1,-152(sp)

00000000800054a4 <i_5215>:
    800054a4:	00100813          	li	a6,1

00000000800054a8 <i_5216>:
    800054a8:	01049d3b          	sllw	s10,s1,a6

00000000800054ac <i_5217>:
    800054ac:	10010483          	lb	s1,256(sp)

00000000800054b0 <i_5218>:
    800054b0:	853d8c1b          	addiw	s8,s11,-1965

00000000800054b4 <i_5219>:
    800054b4:	01000d93          	li	s11,16

00000000800054b8 <i_5220>:
    800054b8:	41bc56bb          	sraw	a3,s8,s11

00000000800054bc <i_5221>:
    800054bc:	87a00c13          	li	s8,-1926

00000000800054c0 <i_5222>:
    800054c0:	88c00313          	li	t1,-1908

00000000800054c4 <i_5223>:
    800054c4:	09b12023          	sw	s11,128(sp)

00000000800054c8 <i_5224>:
    800054c8:	00000013          	nop

00000000800054cc <i_5225>:
    800054cc:	00630e63          	beq	t1,t1,800054e8 <i_5232>

00000000800054d0 <i_5226>:
    800054d0:	fd013b83          	ld	s7,-48(sp)

00000000800054d4 <i_5227>:
    800054d4:	ec610623          	sb	t1,-308(sp)

00000000800054d8 <i_5228>:
    800054d8:	00000013          	nop

00000000800054dc <i_5229>:
    800054dc:	0f710423          	sb	s7,232(sp)

00000000800054e0 <i_5230>:
    800054e0:	00300493          	li	s1,3

00000000800054e4 <i_5231>:
    800054e4:	009b90b3          	sll	ra,s7,s1

00000000800054e8 <i_5232>:
    800054e8:	d560e693          	ori	a3,ra,-682

00000000800054ec <i_5233>:
    800054ec:	02912c23          	sw	s1,56(sp)

00000000800054f0 <i_5234>:
    800054f0:	e2112223          	sw	ra,-476(sp)

00000000800054f4 <i_5235>:
    800054f4:	001c0c13          	addi	s8,s8,1
    800054f8:	fd8356e3          	ble	s8,t1,800054c4 <i_5223>

00000000800054fc <i_5236>:
    800054fc:	03bbd263          	ble	s11,s7,80005520 <i_5245>

0000000080005500 <i_5237>:
    80005500:	00d6d263          	ble	a3,a3,80005504 <i_5238>

0000000080005504 <i_5238>:
    80005504:	ce7626b7          	lui	a3,0xce762

0000000080005508 <i_5239>:
    80005508:	186102a3          	sb	t1,389(sp)

000000008000550c <i_5240>:
    8000550c:	ee211603          	lh	a2,-286(sp)

0000000080005510 <i_5241>:
    80005510:	02b00e93          	li	t4,43

0000000080005514 <i_5242>:
    80005514:	01d314b3          	sll	s1,t1,t4

0000000080005518 <i_5243>:
    80005518:	e9813803          	ld	a6,-360(sp)

000000008000551c <i_5244>:
    8000551c:	0e414283          	lbu	t0,228(sp)

0000000080005520 <i_5245>:
    80005520:	002e9c93          	slli	s9,t4,0x2

0000000080005524 <i_5246>:
    80005524:	00cdd663          	ble	a2,s11,80005530 <i_5249>

0000000080005528 <i_5247>:
    80005528:	ee912c23          	sw	s1,-264(sp)

000000008000552c <i_5248>:
    8000552c:	0d713c23          	sd	s7,216(sp)

0000000080005530 <i_5249>:
    80005530:	001ef463          	bleu	ra,t4,80005538 <i_5251>

0000000080005534 <i_5250>:
    80005534:	037376b3          	remu	a3,t1,s7

0000000080005538 <i_5251>:
    80005538:	15c11b83          	lh	s7,348(sp)

000000008000553c <i_5252>:
    8000553c:	ef211b03          	lh	s6,-270(sp)

0000000080005540 <i_5253>:
    80005540:	e4012303          	lw	t1,-448(sp)

0000000080005544 <i_5254>:
    80005544:	17816d03          	lwu	s10,376(sp)

0000000080005548 <i_5255>:
    80005548:	01d00293          	li	t0,29

000000008000554c <i_5256>:
    8000554c:	005350bb          	srlw	ra,t1,t0

0000000080005550 <i_5257>:
    80005550:	ee910723          	sb	s1,-274(sp)

0000000080005554 <i_5258>:
    80005554:	00963cb3          	sltu	s9,a2,s1

0000000080005558 <i_5259>:
    80005558:	037e8263          	beq	t4,s7,8000557c <i_5268>

000000008000555c <i_5260>:
    8000555c:	1e013a03          	ld	s4,480(sp)

0000000080005560 <i_5261>:
    80005560:	02200793          	li	a5,34

0000000080005564 <i_5262>:
    80005564:	00f6da33          	srl	s4,a3,a5

0000000080005568 <i_5263>:
    80005568:	15110283          	lb	t0,337(sp)

000000008000556c <i_5264>:
    8000556c:	0322f463          	bleu	s2,t0,80005594 <i_5274>

0000000080005570 <i_5265>:
    80005570:	03d2ef33          	rem	t5,t0,t4

0000000080005574 <i_5266>:
    80005574:	03eb6263          	bltu	s6,t5,80005598 <i_5275>

0000000080005578 <i_5267>:
    80005578:	0418fe13          	andi	t3,a7,65

000000008000557c <i_5268>:
    8000557c:	f6c12503          	lw	a0,-148(sp)

0000000080005580 <i_5269>:
    80005580:	01f00213          	li	tp,31

0000000080005584 <i_5270>:
    80005584:	00435f3b          	srlw	t5,t1,tp

0000000080005588 <i_5271>:
    80005588:	0245533b          	divuw	t1,a0,tp

000000008000558c <i_5272>:
    8000558c:	12d10f03          	lb	t5,301(sp)

0000000080005590 <i_5273>:
    80005590:	03e25463          	ble	t5,tp,800055b8 <i_5283>

0000000080005594 <i_5274>:
    80005594:	04611203          	lh	tp,70(sp)

0000000080005598 <i_5275>:
    80005598:	0be12623          	sw	t5,172(sp)

000000008000559c <i_5276>:
    8000559c:	01e20533          	add	a0,tp,t5

00000000800055a0 <i_5277>:
    800055a0:	0017121b          	slliw	tp,a4,0x1

00000000800055a4 <i_5278>:
    800055a4:	0047ba33          	sltu	s4,a5,tp

00000000800055a8 <i_5279>:
    800055a8:	f4211423          	sh	sp,-184(sp)

00000000800055ac <i_5280>:
    800055ac:	03e500bb          	mulw	ra,a0,t5

00000000800055b0 <i_5281>:
    800055b0:	06411083          	lh	ra,100(sp)

00000000800055b4 <i_5282>:
    800055b4:	e7412223          	sw	s4,-412(sp)

00000000800055b8 <i_5283>:
    800055b8:	00341a13          	slli	s4,s0,0x3

00000000800055bc <i_5284>:
    800055bc:	02a539b3          	mulhu	s3,a0,a0

00000000800055c0 <i_5285>:
    800055c0:	03309063          	bne	ra,s3,800055e0 <i_5293>

00000000800055c4 <i_5286>:
    800055c4:	e2c12503          	lw	a0,-468(sp)

00000000800055c8 <i_5287>:
    800055c8:	828f4213          	xori	tp,t5,-2008

00000000800055cc <i_5288>:
    800055cc:	0ae10c03          	lb	s8,174(sp)

00000000800055d0 <i_5289>:
    800055d0:	fa016503          	lwu	a0,-96(sp)

00000000800055d4 <i_5290>:
    800055d4:	01400213          	li	tp,20

00000000800055d8 <i_5291>:
    800055d8:	004c5bbb          	srlw	s7,s8,tp

00000000800055dc <i_5292>:
    800055dc:	90d57393          	andi	t2,a0,-1779

00000000800055e0 <i_5293>:
    800055e0:	00600c13          	li	s8,6

00000000800055e4 <i_5294>:
    800055e4:	018f153b          	sllw	a0,t5,s8

00000000800055e8 <i_5295>:
    800055e8:	ed012403          	lw	s0,-304(sp)

00000000800055ec <i_5296>:
    800055ec:	e5e14f03          	lbu	t5,-418(sp)

00000000800055f0 <i_5297>:
    800055f0:	e2012583          	lw	a1,-480(sp)

00000000800055f4 <i_5298>:
    800055f4:	8b100213          	li	tp,-1871

00000000800055f8 <i_5299>:
    800055f8:	8bb00813          	li	a6,-1861

00000000800055fc <i_5300>:
    800055fc:	eba15403          	lhu	s0,-326(sp)

0000000080005600 <i_5301>:
    80005600:	16d10583          	lb	a1,365(sp)

0000000080005604 <i_5302>:
    80005604:	00b59a63          	bne	a1,a1,80005618 <i_5307>

0000000080005608 <i_5303>:
    80005608:	00000013          	nop

000000008000560c <i_5304>:
    8000560c:	f8013403          	ld	s0,-128(sp)

0000000080005610 <i_5305>:
    80005610:	fa512623          	sw	t0,-84(sp)

0000000080005614 <i_5306>:
    80005614:	02b00f13          	li	t5,43

0000000080005618 <i_5307>:
    80005618:	41e5d5b3          	sra	a1,a1,t5

000000008000561c <i_5308>:
    8000561c:	fd910583          	lb	a1,-39(sp)

0000000080005620 <i_5309>:
    80005620:	00120213          	addi	tp,tp,1 # 1 <main-0x7fffffff>
    80005624:	fd026ce3          	bltu	tp,a6,800055fc <i_5300>

0000000080005628 <i_5310>:
    80005628:	8905e793          	ori	a5,a1,-1904

000000008000562c <i_5311>:
    8000562c:	14b10083          	lb	ra,331(sp)

0000000080005630 <i_5312>:
    80005630:	09815b03          	lhu	s6,152(sp)

0000000080005634 <i_5313>:
    80005634:	f5812183          	lw	gp,-168(sp)

0000000080005638 <i_5314>:
    80005638:	0165fe63          	bleu	s6,a1,80005654 <i_5321>

000000008000563c <i_5315>:
    8000563c:	00f7ce63          	blt	a5,a5,80005658 <i_5322>

0000000080005640 <i_5316>:
    80005640:	00c00593          	li	a1,12

0000000080005644 <i_5317>:
    80005644:	00bb1c3b          	sllw	s8,s6,a1

0000000080005648 <i_5318>:
    80005648:	0385db3b          	divuw	s6,a1,s8

000000008000564c <i_5319>:
    8000564c:	02f5d063          	ble	a5,a1,8000566c <i_5327>

0000000080005650 <i_5320>:
    80005650:	03f18233          	mul	tp,gp,t6

0000000080005654 <i_5321>:
    80005654:	ede15583          	lhu	a1,-290(sp)

0000000080005658 <i_5322>:
    80005658:	036b3b33          	mulhu	s6,s6,s6

000000008000565c <i_5323>:
    8000565c:	01c00b13          	li	s6,28

0000000080005660 <i_5324>:
    80005660:	01625233          	srl	tp,tp,s6

0000000080005664 <i_5325>:
    80005664:	07815583          	lhu	a1,120(sp)

0000000080005668 <i_5326>:
    80005668:	032ea833          	mulhsu	a6,t4,s2

000000008000566c <i_5327>:
    8000566c:	06914083          	lbu	ra,105(sp)

0000000080005670 <i_5328>:
    80005670:	01800b93          	li	s7,24

0000000080005674 <i_5329>:
    80005674:	017b51bb          	srlw	gp,s6,s7

0000000080005678 <i_5330>:
    80005678:	75400b13          	li	s6,1876

000000008000567c <i_5331>:
    8000567c:	75a00e93          	li	t4,1882

0000000080005680 <i_5332>:
    80005680:	00baf463          	bleu	a1,s5,80005688 <i_5334>

0000000080005684 <i_5333>:
    80005684:	010e8db3          	add	s11,t4,a6

0000000080005688 <i_5334>:
    80005688:	1c512823          	sw	t0,464(sp)

000000008000568c <i_5335>:
    8000568c:	00000013          	nop

0000000080005690 <i_5336>:
    80005690:	ee54cb93          	xori	s7,s1,-283

0000000080005694 <i_5337>:
    80005694:	0e214c83          	lbu	s9,226(sp)

0000000080005698 <i_5338>:
    80005698:	08012483          	lw	s1,128(sp)

000000008000569c <i_5339>:
    8000569c:	02813333          	mulhu	t1,sp,s0

00000000800056a0 <i_5340>:
    800056a0:	030336b3          	mulhu	a3,t1,a6

00000000800056a4 <i_5341>:
    800056a4:	1bb12823          	sw	s11,432(sp)

00000000800056a8 <i_5342>:
    800056a8:	00b68533          	add	a0,a3,a1

00000000800056ac <i_5343>:
    800056ac:	00000013          	nop

00000000800056b0 <i_5344>:
    800056b0:	001b0b13          	addi	s6,s6,1
    800056b4:	fd6ef4e3          	bleu	s6,t4,8000567c <i_5331>

00000000800056b8 <i_5345>:
    800056b8:	f1914683          	lbu	a3,-231(sp)

00000000800056bc <i_5346>:
    800056bc:	02d57e33          	remu	t3,a0,a3

00000000800056c0 <i_5347>:
    800056c0:	0da11083          	lh	ra,218(sp)

00000000800056c4 <i_5348>:
    800056c4:	ee416303          	lwu	t1,-284(sp)

00000000800056c8 <i_5349>:
    800056c8:	e2611123          	sh	t1,-478(sp)

00000000800056cc <i_5350>:
    800056cc:	03c6e063          	bltu	a3,t3,800056ec <i_5358>

00000000800056d0 <i_5351>:
    800056d0:	10613023          	sd	t1,256(sp)

00000000800056d4 <i_5352>:
    800056d4:	eaf10a03          	lb	s4,-337(sp)

00000000800056d8 <i_5353>:
    800056d8:	006e1a63          	bne	t3,t1,800056ec <i_5358>

00000000800056dc <i_5354>:
    800056dc:	ea412303          	lw	t1,-348(sp)

00000000800056e0 <i_5355>:
    800056e0:	025a3333          	mulhu	t1,s4,t0

00000000800056e4 <i_5356>:
    800056e4:	034a0263          	beq	s4,s4,80005708 <i_5365>

00000000800056e8 <i_5357>:
    800056e8:	1c613823          	sd	t1,464(sp)

00000000800056ec <i_5358>:
    800056ec:	eb615303          	lhu	t1,-330(sp)

00000000800056f0 <i_5359>:
    800056f0:	00631463          	bne	t1,t1,800056f8 <i_5361>

00000000800056f4 <i_5360>:
    800056f4:	f1510f03          	lb	t5,-235(sp)

00000000800056f8 <i_5361>:
    800056f8:	00231313          	slli	t1,t1,0x2

00000000800056fc <i_5362>:
    800056fc:	05215383          	lhu	t2,82(sp)

0000000080005700 <i_5363>:
    80005700:	f4816303          	lwu	t1,-184(sp)

0000000080005704 <i_5364>:
    80005704:	0033dd93          	srli	s11,t2,0x3

0000000080005708 <i_5365>:
    80005708:	17b12223          	sw	s11,356(sp)

000000008000570c <i_5366>:
    8000570c:	02812d83          	lw	s11,40(sp)

0000000080005710 <i_5367>:
    80005710:	f2712223          	sw	t2,-220(sp)

0000000080005714 <i_5368>:
    80005714:	1660b997          	auipc	s3,0x1660b

0000000080005718 <i_5369>:
    80005718:	0fe15403          	lhu	s0,254(sp)

000000008000571c <i_5370>:
    8000571c:	01b3de63          	ble	s11,t2,80005738 <i_5377>

0000000080005720 <i_5371>:
    80005720:	e9b11223          	sh	s11,-380(sp)

0000000080005724 <i_5372>:
    80005724:	eaa15f03          	lhu	t5,-342(sp)

0000000080005728 <i_5373>:
    80005728:	04214783          	lbu	a5,66(sp)

000000008000572c <i_5374>:
    8000572c:	03e383b3          	mul	t2,t2,t5

0000000080005730 <i_5375>:
    80005730:	ee412283          	lw	t0,-284(sp)

0000000080005734 <i_5376>:
    80005734:	e4e15203          	lhu	tp,-434(sp)

0000000080005738 <i_5377>:
    80005738:	09c16383          	lwu	t2,156(sp)

000000008000573c <i_5378>:
    8000573c:	18816a83          	lwu	s5,392(sp)

0000000080005740 <i_5379>:
    80005740:	02424463          	blt	tp,tp,80005768 <i_5389>

0000000080005744 <i_5380>:
    80005744:	e1a10203          	lb	tp,-486(sp)

0000000080005748 <i_5381>:
    80005748:	16410023          	sb	tp,352(sp)

000000008000574c <i_5382>:
    8000574c:	e2416203          	lwu	tp,-476(sp)

0000000080005750 <i_5383>:
    80005750:	49b2e213          	ori	tp,t0,1179

0000000080005754 <i_5384>:
    80005754:	1cc11183          	lh	gp,460(sp)

0000000080005758 <i_5385>:
    80005758:	69e1f493          	andi	s1,gp,1694

000000008000575c <i_5386>:
    8000575c:	fc813203          	ld	tp,-56(sp)

0000000080005760 <i_5387>:
    80005760:	00416e03          	lwu	t3,4(sp)

0000000080005764 <i_5388>:
    80005764:	01c00b93          	li	s7,28

0000000080005768 <i_5389>:
    80005768:	01721d3b          	sllw	s10,tp,s7

000000008000576c <i_5390>:
    8000576c:	00000013          	nop

0000000080005770 <i_5391>:
    80005770:	73100413          	li	s0,1841

0000000080005774 <i_5392>:
    80005774:	73c00293          	li	t0,1852

0000000080005778 <i_5393>:
    80005778:	0041db93          	srli	s7,gp,0x4

000000008000577c <i_5394>:
    8000577c:	00000013          	nop

0000000080005780 <i_5395>:
    80005780:	03700793          	li	a5,55

0000000080005784 <i_5396>:
    80005784:	00f79d33          	sll	s10,a5,a5

0000000080005788 <i_5397>:
    80005788:	fd813183          	ld	gp,-40(sp)

000000008000578c <i_5398>:
    8000578c:	0f814183          	lbu	gp,248(sp)

0000000080005790 <i_5399>:
    80005790:	0376c4bb          	divw	s1,a3,s7

0000000080005794 <i_5400>:
    80005794:	00140413          	addi	s0,s0,1 # 24d33001 <main-0x5b2ccfff>
    80005798:	fe82f0e3          	bleu	s0,t0,80005778 <i_5393>

000000008000579c <i_5401>:
    8000579c:	c0ddc693          	xori	a3,s11,-1011

00000000800057a0 <i_5402>:
    800057a0:	1b211683          	lh	a3,434(sp)

00000000800057a4 <i_5403>:
    800057a4:	03264263          	blt	a2,s2,800057c8 <i_5412>

00000000800057a8 <i_5404>:
    800057a8:	f4d12023          	sw	a3,-192(sp)

00000000800057ac <i_5405>:
    800057ac:	00d48cb3          	add	s9,s1,a3

00000000800057b0 <i_5406>:
    800057b0:	0036d51b          	srliw	a0,a3,0x3

00000000800057b4 <i_5407>:
    800057b4:	1a812d83          	lw	s11,424(sp)

00000000800057b8 <i_5408>:
    800057b8:	0a110e83          	lb	t4,161(sp)

00000000800057bc <i_5409>:
    800057bc:	04911023          	sh	s1,64(sp)

00000000800057c0 <i_5410>:
    800057c0:	00a00193          	li	gp,10

00000000800057c4 <i_5411>:
    800057c4:	403dd0bb          	sraw	ra,s11,gp

00000000800057c8 <i_5412>:
    800057c8:	01e4e3b3          	or	t2,s1,t5

00000000800057cc <i_5413>:
    800057cc:	e3016f03          	lwu	t5,-464(sp)

00000000800057d0 <i_5414>:
    800057d0:	1ac11303          	lh	t1,428(sp)

00000000800057d4 <i_5415>:
    800057d4:	f7812383          	lw	t2,-136(sp)

00000000800057d8 <i_5416>:
    800057d8:	0a013a83          	ld	s5,160(sp)

00000000800057dc <i_5417>:
    800057dc:	0301883b          	mulw	a6,gp,a6

00000000800057e0 <i_5418>:
    800057e0:	02eaedbb          	remw	s11,s5,a4

00000000800057e4 <i_5419>:
    800057e4:	01dafeb3          	and	t4,s5,t4

00000000800057e8 <i_5420>:
    800057e8:	00b30e63          	beq	t1,a1,80005804 <i_5427>

00000000800057ec <i_5421>:
    800057ec:	010f6263          	bltu	t5,a6,800057f0 <i_5422>

00000000800057f0 <i_5422>:
    800057f0:	11813f03          	ld	t5,280(sp)

00000000800057f4 <i_5423>:
    800057f4:	e8015583          	lhu	a1,-384(sp)

00000000800057f8 <i_5424>:
    800057f8:	81050413          	addi	s0,a0,-2032 # 7f7de594 <main-0x821a6c>

00000000800057fc <i_5425>:
    800057fc:	b9e62d93          	slti	s11,a2,-1122

0000000080005800 <i_5426>:
    80005800:	00000013          	nop

0000000080005804 <i_5427>:
    80005804:	f0813b03          	ld	s6,-248(sp)

0000000080005808 <i_5428>:
    80005808:	01bd0d33          	add	s10,s10,s11

000000008000580c <i_5429>:
    8000580c:	80200993          	li	s3,-2046

0000000080005810 <i_5430>:
    80005810:	80c00513          	li	a0,-2036

0000000080005814 <i_5431>:
    80005814:	02ad1663          	bne	s10,a0,80005840 <i_5441>

0000000080005818 <i_5432>:
    80005818:	03bd6463          	bltu	s10,s11,80005840 <i_5441>

000000008000581c <i_5433>:
    8000581c:	03d560b3          	rem	ra,a0,t4

0000000080005820 <i_5434>:
    80005820:	03a0ee3b          	remw	t3,ra,s10

0000000080005824 <i_5435>:
    80005824:	00198993          	addi	s3,s3,1 # 96610715 <_end+0x16600301>
    80005828:	fea996e3          	bne	s3,a0,80005814 <i_5431>

000000008000582c <i_5436>:
    8000582c:	f6113823          	sd	ra,-144(sp)

0000000080005830 <i_5437>:
    80005830:	02718b33          	mul	s6,gp,t2

0000000080005834 <i_5438>:
    80005834:	01cb7263          	bleu	t3,s6,80005838 <i_5439>

0000000080005838 <i_5439>:
    80005838:	0ea11d83          	lh	s11,234(sp)

000000008000583c <i_5440>:
    8000583c:	fbf10983          	lb	s3,-65(sp)

0000000080005840 <i_5441>:
    80005840:	001e0e63          	beq	t3,ra,8000585c <i_5448>

0000000080005844 <i_5442>:
    80005844:	eec15983          	lhu	s3,-276(sp)

0000000080005848 <i_5443>:
    80005848:	0169e863          	bltu	s3,s6,80005858 <i_5447>

000000008000584c <i_5444>:
    8000584c:	ee012983          	lw	s3,-288(sp)

0000000080005850 <i_5445>:
    80005850:	023b01bb          	mulw	gp,s6,gp

0000000080005854 <i_5446>:
    80005854:	1de11483          	lh	s1,478(sp)

0000000080005858 <i_5447>:
    80005858:	02fb0063          	beq	s6,a5,80005878 <i_5455>

000000008000585c <i_5448>:
    8000585c:	00d9e463          	bltu	s3,a3,80005864 <i_5450>

0000000080005860 <i_5449>:
    80005860:	e4c15e03          	lhu	t3,-436(sp)

0000000080005864 <i_5450>:
    80005864:	07013b03          	ld	s6,112(sp)

0000000080005868 <i_5451>:
    80005868:	0041d21b          	srliw	tp,gp,0x4

000000008000586c <i_5452>:
    8000586c:	13512a23          	sw	s5,308(sp)

0000000080005870 <i_5453>:
    80005870:	016b8a33          	add	s4,s7,s6

0000000080005874 <i_5454>:
    80005874:	0d114a83          	lbu	s5,209(sp)

0000000080005878 <i_5455>:
    80005878:	00225213          	srli	tp,tp,0x2

000000008000587c <i_5456>:
    8000587c:	14412623          	sw	tp,332(sp)

0000000080005880 <i_5457>:
    80005880:	e3c11623          	sh	t3,-468(sp)

0000000080005884 <i_5458>:
    80005884:	015e6e33          	or	t3,t3,s5

0000000080005888 <i_5459>:
    80005888:	01c25c63          	ble	t3,tp,800058a0 <i_5465>

000000008000588c <i_5460>:
    8000588c:	05012b83          	lw	s7,80(sp)

0000000080005890 <i_5461>:
    80005890:	17713023          	sd	s7,352(sp)

0000000080005894 <i_5462>:
    80005894:	fb910b83          	lb	s7,-71(sp)

0000000080005898 <i_5463>:
    80005898:	17c11023          	sh	t3,352(sp)

000000008000589c <i_5464>:
    8000589c:	01cbd463          	ble	t3,s7,800058a4 <i_5466>

00000000800058a0 <i_5465>:
    800058a0:	01521a63          	bne	tp,s5,800058b4 <i_5470>

00000000800058a4 <i_5466>:
    800058a4:	00100a93          	li	s5,1

00000000800058a8 <i_5467>:
    800058a8:	01525abb          	srlw	s5,tp,s5

00000000800058ac <i_5468>:
    800058ac:	11e11283          	lh	t0,286(sp)

00000000800058b0 <i_5469>:
    800058b0:	035acab3          	div	s5,s5,s5

00000000800058b4 <i_5470>:
    800058b4:	a24a8a93          	addi	s5,s5,-1500

00000000800058b8 <i_5471>:
    800058b8:	70aa8a9b          	addiw	s5,s5,1802

00000000800058bc <i_5472>:
    800058bc:	77d00493          	li	s1,1917

00000000800058c0 <i_5473>:
    800058c0:	78200593          	li	a1,1922

00000000800058c4 <i_5474>:
    800058c4:	f6513023          	sd	t0,-160(sp)

00000000800058c8 <i_5475>:
    800058c8:	f0412403          	lw	s0,-252(sp)

00000000800058cc <i_5476>:
    800058cc:	f2810a83          	lb	s5,-216(sp)

00000000800058d0 <i_5477>:
    800058d0:	0356a9b3          	mulhsu	s3,a3,s5

00000000800058d4 <i_5478>:
    800058d4:	03700b13          	li	s6,55

00000000800058d8 <i_5479>:
    800058d8:	016f5433          	srl	s0,t5,s6

00000000800058dc <i_5480>:
    800058dc:	048109a3          	sb	s0,83(sp)

00000000800058e0 <i_5481>:
    800058e0:	00148493          	addi	s1,s1,1
    800058e4:	feb4c0e3          	blt	s1,a1,800058c4 <i_5474>

00000000800058e8 <i_5482>:
    800058e8:	f8411283          	lh	t0,-124(sp)

00000000800058ec <i_5483>:
    800058ec:	025446bb          	divw	a3,s0,t0

00000000800058f0 <i_5484>:
    800058f0:	0026941b          	slliw	s0,a3,0x2

00000000800058f4 <i_5485>:
    800058f4:	00828463          	beq	t0,s0,800058fc <i_5487>

00000000800058f8 <i_5486>:
    800058f8:	f1615683          	lhu	a3,-234(sp)

00000000800058fc <i_5487>:
    800058fc:	0e513c23          	sd	t0,248(sp)

0000000080005900 <i_5488>:
    80005900:	f5813b03          	ld	s6,-168(sp)

0000000080005904 <i_5489>:
    80005904:	ff412b03          	lw	s6,-12(sp)

0000000080005908 <i_5490>:
    80005908:	88500693          	li	a3,-1915

000000008000590c <i_5491>:
    8000590c:	89100413          	li	s0,-1903

0000000080005910 <i_5492>:
    80005910:	1d6108a3          	sb	s6,465(sp)

0000000080005914 <i_5493>:
    80005914:	40840b33          	sub	s6,s0,s0

0000000080005918 <i_5494>:
    80005918:	e8813d03          	ld	s10,-376(sp)

000000008000591c <i_5495>:
    8000591c:	19813b03          	ld	s6,408(sp)

0000000080005920 <i_5496>:
    80005920:	f1013b03          	ld	s6,-240(sp)

0000000080005924 <i_5497>:
    80005924:	00fb0e63          	beq	s6,a5,80005940 <i_5503>

0000000080005928 <i_5498>:
    80005928:	00168693          	addi	a3,a3,1 # ffffffffce762001 <_end+0xffffffff4e751bed>
    8000592c:	fe86c2e3          	blt	a3,s0,80005910 <i_5492>

0000000080005930 <i_5499>:
    80005930:	562b3213          	sltiu	tp,s6,1378

0000000080005934 <i_5500>:
    80005934:	ec611483          	lh	s1,-314(sp)

0000000080005938 <i_5501>:
    80005938:	1bc12a23          	sw	t3,436(sp)

000000008000593c <i_5502>:
    8000593c:	02911323          	sh	s1,38(sp)

0000000080005940 <i_5503>:
    80005940:	09811483          	lh	s1,152(sp)

0000000080005944 <i_5504>:
    80005944:	0244823b          	mulw	tp,s1,tp

0000000080005948 <i_5505>:
    80005948:	8c000313          	li	t1,-1856

000000008000594c <i_5506>:
    8000594c:	8c800793          	li	a5,-1848

0000000080005950 <i_5507>:
    80005950:	029499b3          	mulh	s3,s1,s1

0000000080005954 <i_5508>:
    80005954:	00000013          	nop

0000000080005958 <i_5509>:
    80005958:	7d300513          	li	a0,2003

000000008000595c <i_5510>:
    8000595c:	7d700b13          	li	s6,2007

0000000080005960 <i_5511>:
    80005960:	00150513          	addi	a0,a0,1
    80005964:	feab5ee3          	ble	a0,s6,80005960 <i_5511>

0000000080005968 <i_5512>:
    80005968:	e2015b83          	lhu	s7,-480(sp)

000000008000596c <i_5513>:
    8000596c:	0294d663          	ble	s1,s1,80005998 <i_5523>

0000000080005970 <i_5514>:
    80005970:	0339e663          	bltu	s3,s3,8000599c <i_5524>

0000000080005974 <i_5515>:
    80005974:	02927cb3          	remu	s9,tp,s1

0000000080005978 <i_5516>:
    80005978:	02400c93          	li	s9,36

000000008000597c <i_5517>:
    8000597c:	4199d233          	sra	tp,s3,s9

0000000080005980 <i_5518>:
    80005980:	00130313          	addi	t1,t1,1 # 33f001 <main-0x7fcc0fff>
    80005984:	fc67d6e3          	ble	t1,a5,80005950 <i_5507>

0000000080005988 <i_5519>:
    80005988:	019bc863          	blt	s7,s9,80005998 <i_5523>

000000008000598c <i_5520>:
    8000598c:	017b89b3          	add	s3,s7,s7

0000000080005990 <i_5521>:
    80005990:	eb415583          	lhu	a1,-332(sp)

0000000080005994 <i_5522>:
    80005994:	1a412b83          	lw	s7,420(sp)

0000000080005998 <i_5523>:
    80005998:	ffe14203          	lbu	tp,-2(sp)

000000008000599c <i_5524>:
    8000599c:	03373f33          	mulhu	t5,a4,s3

00000000800059a0 <i_5525>:
    800059a0:	013b8663          	beq	s7,s3,800059ac <i_5528>

00000000800059a4 <i_5526>:
    800059a4:	23d4d217          	auipc	tp,0x23d4d

00000000800059a8 <i_5527>:
    800059a8:	01e5d663          	ble	t5,a1,800059b4 <i_5530>

00000000800059ac <i_5528>:
    800059ac:	004b8a63          	beq	s7,tp,800059c0 <i_5533>

00000000800059b0 <i_5529>:
    800059b0:	05126d13          	ori	s10,tp,81

00000000800059b4 <i_5530>:
    800059b4:	02813c03          	ld	s8,40(sp)

00000000800059b8 <i_5531>:
    800059b8:	01abf863          	bleu	s10,s7,800059c8 <i_5535>

00000000800059bc <i_5532>:
    800059bc:	00a00e93          	li	t4,10

00000000800059c0 <i_5533>:
    800059c0:	41dbdbb3          	sra	s7,s7,t4

00000000800059c4 <i_5534>:
    800059c4:	41ae8ebb          	subw	t4,t4,s10

00000000800059c8 <i_5535>:
    800059c8:	01ad5e63          	ble	s10,s10,800059e4 <i_5542>

00000000800059cc <i_5536>:
    800059cc:	f1510c03          	lb	s8,-235(sp)

00000000800059d0 <i_5537>:
    800059d0:	f3813c23          	sd	s8,-200(sp)

00000000800059d4 <i_5538>:
    800059d4:	07813423          	sd	s8,104(sp)

00000000800059d8 <i_5539>:
    800059d8:	417b8e3b          	subw	t3,s7,s7

00000000800059dc <i_5540>:
    800059dc:	f8615c03          	lhu	s8,-122(sp)

00000000800059e0 <i_5541>:
    800059e0:	ebd13023          	sd	t4,-352(sp)

00000000800059e4 <i_5542>:
    800059e4:	018d0a63          	beq	s10,s8,800059f8 <i_5547>

00000000800059e8 <i_5543>:
    800059e8:	004e5e9b          	srliw	t4,t3,0x4

00000000800059ec <i_5544>:
    800059ec:	41d48e33          	sub	t3,s1,t4

00000000800059f0 <i_5545>:
    800059f0:	872c3193          	sltiu	gp,s8,-1934

00000000800059f4 <i_5546>:
    800059f4:	01de9863          	bne	t4,t4,80005a04 <i_5550>

00000000800059f8 <i_5547>:
    800059f8:	02c1feb3          	remu	t4,gp,a2

00000000800059fc <i_5548>:
    800059fc:	f9d13823          	sd	t4,-112(sp)

0000000080005a00 <i_5549>:
    80005a00:	00c66633          	or	a2,a2,a2

0000000080005a04 <i_5550>:
    80005a04:	f1d13023          	sd	t4,-256(sp)

0000000080005a08 <i_5551>:
    80005a08:	023ee463          	bltu	t4,gp,80005a30 <i_5561>

0000000080005a0c <i_5552>:
    80005a0c:	e2c12e23          	sw	a2,-452(sp)

0000000080005a10 <i_5553>:
    80005a10:	1ac11b83          	lh	s7,428(sp)

0000000080005a14 <i_5554>:
    80005a14:	ee510e83          	lb	t4,-283(sp)

0000000080005a18 <i_5555>:
    80005a18:	04416403          	lwu	s0,68(sp)

0000000080005a1c <i_5556>:
    80005a1c:	ef712423          	sw	s7,-280(sp)

0000000080005a20 <i_5557>:
    80005a20:	00c47263          	bleu	a2,s0,80005a24 <i_5558>

0000000080005a24 <i_5558>:
    80005a24:	0c310a03          	lb	s4,195(sp)

0000000080005a28 <i_5559>:
    80005a28:	e6f10203          	lb	tp,-401(sp)

0000000080005a2c <i_5560>:
    80005a2c:	f5413823          	sd	s4,-176(sp)

0000000080005a30 <i_5561>:
    80005a30:	04015803          	lhu	a6,64(sp)

0000000080005a34 <i_5562>:
    80005a34:	e2813a03          	ld	s4,-472(sp)

0000000080005a38 <i_5563>:
    80005a38:	03022833          	mulhsu	a6,tp,a6

0000000080005a3c <i_5564>:
    80005a3c:	e3013d03          	ld	s10,-464(sp)

0000000080005a40 <i_5565>:
    80005a40:	f7012423          	sw	a6,-152(sp)

0000000080005a44 <i_5566>:
    80005a44:	fc016783          	lwu	a5,-64(sp)

0000000080005a48 <i_5567>:
    80005a48:	f7c12d03          	lw	s10,-132(sp)

0000000080005a4c <i_5568>:
    80005a4c:	ff013023          	sd	a6,-32(sp)

0000000080005a50 <i_5569>:
    80005a50:	f6013a03          	ld	s4,-160(sp)

0000000080005a54 <i_5570>:
    80005a54:	014d4663          	blt	s10,s4,80005a60 <i_5573>

0000000080005a58 <i_5571>:
    80005a58:	090105a3          	sb	a6,139(sp)

0000000080005a5c <i_5572>:
    80005a5c:	fbb10983          	lb	s3,-69(sp)

0000000080005a60 <i_5573>:
    80005a60:	01481e63          	bne	a6,s4,80005a7c <i_5580>

0000000080005a64 <i_5574>:
    80005a64:	eba12623          	sw	s10,-340(sp)

0000000080005a68 <i_5575>:
    80005a68:	e50100a3          	sb	a6,-447(sp)

0000000080005a6c <i_5576>:
    80005a6c:	15310423          	sb	s3,328(sp)

0000000080005a70 <i_5577>:
    80005a70:	05416603          	lwu	a2,84(sp)

0000000080005a74 <i_5578>:
    80005a74:	00000013          	nop

0000000080005a78 <i_5579>:
    80005a78:	f14108a3          	sb	s4,-239(sp)

0000000080005a7c <i_5580>:
    80005a7c:	00000013          	nop

0000000080005a80 <i_5581>:
    80005a80:	07213423          	sd	s2,104(sp)

0000000080005a84 <i_5582>:
    80005a84:	76c00813          	li	a6,1900

0000000080005a88 <i_5583>:
    80005a88:	78000d93          	li	s11,1920

0000000080005a8c <i_5584>:
    80005a8c:	e6c12783          	lw	a5,-404(sp)

0000000080005a90 <i_5585>:
    80005a90:	033a24b3          	mulhsu	s1,s4,s3

0000000080005a94 <i_5586>:
    80005a94:	0299f4bb          	remuw	s1,s3,s1

0000000080005a98 <i_5587>:
    80005a98:	00880bb3          	add	s7,a6,s0

0000000080005a9c <i_5588>:
    80005a9c:	037181b3          	mul	gp,gp,s7

0000000080005aa0 <i_5589>:
    80005aa0:	ec313423          	sd	gp,-312(sp)

0000000080005aa4 <i_5590>:
    80005aa4:	404dd413          	srai	s0,s11,0x4

0000000080005aa8 <i_5591>:
    80005aa8:	00000013          	nop

0000000080005aac <i_5592>:
    80005aac:	00180813          	addi	a6,a6,1
    80005ab0:	fdb86ee3          	bltu	a6,s11,80005a8c <i_5584>

0000000080005ab4 <i_5593>:
    80005ab4:	c8ba0a13          	addi	s4,s4,-885

0000000080005ab8 <i_5594>:
    80005ab8:	02813c23          	sd	s0,56(sp)

0000000080005abc <i_5595>:
    80005abc:	0171d863          	ble	s7,gp,80005acc <i_5599>

0000000080005ac0 <i_5596>:
    80005ac0:	11610a03          	lb	s4,278(sp)

0000000080005ac4 <i_5597>:
    80005ac4:	ed710c23          	sb	s7,-296(sp)

0000000080005ac8 <i_5598>:
    80005ac8:	0341ae33          	mulhsu	t3,gp,s4

0000000080005acc <i_5599>:
    80005acc:	003f5393          	srli	t2,t5,0x3

0000000080005ad0 <i_5600>:
    80005ad0:	18815d83          	lhu	s11,392(sp)

0000000080005ad4 <i_5601>:
    80005ad4:	045a0a13          	addi	s4,s4,69

0000000080005ad8 <i_5602>:
    80005ad8:	1e211383          	lh	t2,482(sp)

0000000080005adc <i_5603>:
    80005adc:	00000013          	nop

0000000080005ae0 <i_5604>:
    80005ae0:	00000013          	nop

0000000080005ae4 <i_5605>:
    80005ae4:	8a400e13          	li	t3,-1884

0000000080005ae8 <i_5606>:
    80005ae8:	8aa00d93          	li	s11,-1878

0000000080005aec <i_5607>:
    80005aec:	13b10da3          	sb	s11,315(sp)

0000000080005af0 <i_5608>:
    80005af0:	09c12e23          	sw	t3,156(sp)

0000000080005af4 <i_5609>:
    80005af4:	f0a11383          	lh	t2,-246(sp)

0000000080005af8 <i_5610>:
    80005af8:	6c12b3b7          	lui	t2,0x6c12b

0000000080005afc <i_5611>:
    80005afc:	18812603          	lw	a2,392(sp)

0000000080005b00 <i_5612>:
    80005b00:	001e0e13          	addi	t3,t3,1
    80005b04:	ffbe14e3          	bne	t3,s11,80005aec <i_5607>

0000000080005b08 <i_5613>:
    80005b08:	fbe14383          	lbu	t2,-66(sp)

0000000080005b0c <i_5614>:
    80005b0c:	fa712823          	sw	t2,-80(sp)

0000000080005b10 <i_5615>:
    80005b10:	f0215c83          	lhu	s9,-254(sp)

0000000080005b14 <i_5616>:
    80005b14:	03c3d633          	divu	a2,t2,t3

0000000080005b18 <i_5617>:
    80005b18:	0273f063          	bleu	t2,t2,80005b38 <i_5625>

0000000080005b1c <i_5618>:
    80005b1c:	06013383          	ld	t2,96(sp)

0000000080005b20 <i_5619>:
    80005b20:	019cec63          	bltu	s9,s9,80005b38 <i_5625>

0000000080005b24 <i_5620>:
    80005b24:	00710c23          	sb	t2,24(sp)

0000000080005b28 <i_5621>:
    80005b28:	16a15383          	lhu	t2,362(sp)

0000000080005b2c <i_5622>:
    80005b2c:	019cecb3          	or	s9,s9,s9

0000000080005b30 <i_5623>:
    80005b30:	010c9e63          	bne	s9,a6,80005b4c <i_5630>

0000000080005b34 <i_5624>:
    80005b34:	ff813a03          	ld	s4,-8(sp)

0000000080005b38 <i_5625>:
    80005b38:	01016583          	lwu	a1,16(sp)

0000000080005b3c <i_5626>:
    80005b3c:	017a0a33          	add	s4,s4,s7

0000000080005b40 <i_5627>:
    80005b40:	08b11b23          	sh	a1,150(sp)

0000000080005b44 <i_5628>:
    80005b44:	00b5d863          	ble	a1,a1,80005b54 <i_5632>

0000000080005b48 <i_5629>:
    80005b48:	02d3d233          	divu	tp,t2,a3

0000000080005b4c <i_5630>:
    80005b4c:	00ba1463          	bne	s4,a1,80005b54 <i_5632>

0000000080005b50 <i_5631>:
    80005b50:	00a23533          	sltu	a0,tp,a0

0000000080005b54 <i_5632>:
    80005b54:	01450233          	add	tp,a0,s4

0000000080005b58 <i_5633>:
    80005b58:	004a0c63          	beq	s4,tp,80005b70 <i_5639>

0000000080005b5c <i_5634>:
    80005b5c:	f0010a03          	lb	s4,-256(sp)

0000000080005b60 <i_5635>:
    80005b60:	0bc15203          	lhu	tp,188(sp)

0000000080005b64 <i_5636>:
    80005b64:	00da5463          	ble	a3,s4,80005b6c <i_5638>

0000000080005b68 <i_5637>:
    80005b68:	05012a83          	lw	s5,80(sp)

0000000080005b6c <i_5638>:
    80005b6c:	01527c63          	bleu	s5,tp,80005b84 <i_5644>

0000000080005b70 <i_5639>:
    80005b70:	edf10d23          	sb	t6,-294(sp)

0000000080005b74 <i_5640>:
    80005b74:	01700c93          	li	s9,23

0000000080005b78 <i_5641>:
    80005b78:	0192123b          	sllw	tp,tp,s9

0000000080005b7c <i_5642>:
    80005b7c:	fa215483          	lhu	s1,-94(sp)

0000000080005b80 <i_5643>:
    80005b80:	95c2021b          	addiw	tp,tp,-1700

0000000080005b84 <i_5644>:
    80005b84:	e8215183          	lhu	gp,-382(sp)

0000000080005b88 <i_5645>:
    80005b88:	0384f3bb          	remuw	t2,s1,s8

0000000080005b8c <i_5646>:
    80005b8c:	40f787b3          	sub	a5,a5,a5

0000000080005b90 <i_5647>:
    80005b90:	7e400213          	li	tp,2020

0000000080005b94 <i_5648>:
    80005b94:	7e900493          	li	s1,2025

0000000080005b98 <i_5649>:
    80005b98:	e4c14503          	lbu	a0,-436(sp)

0000000080005b9c <i_5650>:
    80005b9c:	00120213          	addi	tp,tp,1 # a3d529a5 <_end+0x23d42591>
    80005ba0:	fe44dce3          	ble	tp,s1,80005b98 <i_5649>

0000000080005ba4 <i_5651>:
    80005ba4:	e2416383          	lwu	t2,-476(sp)

0000000080005ba8 <i_5652>:
    80005ba8:	0e012383          	lw	t2,224(sp)

0000000080005bac <i_5653>:
    80005bac:	00926263          	bltu	tp,s1,80005bb0 <i_5654>

0000000080005bb0 <i_5654>:
    80005bb0:	e2910723          	sb	s1,-466(sp)

0000000080005bb4 <i_5655>:
    80005bb4:	004e6c63          	bltu	t3,tp,80005bcc <i_5661>

0000000080005bb8 <i_5656>:
    80005bb8:	f0714383          	lbu	t2,-249(sp)

0000000080005bbc <i_5657>:
    80005bbc:	1c913823          	sd	s1,464(sp)

0000000080005bc0 <i_5658>:
    80005bc0:	00711323          	sh	t2,6(sp)

0000000080005bc4 <i_5659>:
    80005bc4:	14c12383          	lw	t2,332(sp)

0000000080005bc8 <i_5660>:
    80005bc8:	0274f6b3          	remu	a3,s1,t2

0000000080005bcc <i_5661>:
    80005bcc:	f2710b23          	sb	t2,-202(sp)

0000000080005bd0 <i_5662>:
    80005bd0:	00000013          	nop

0000000080005bd4 <i_5663>:
    80005bd4:	fc815a03          	lhu	s4,-56(sp)

0000000080005bd8 <i_5664>:
    80005bd8:	77100513          	li	a0,1905

0000000080005bdc <i_5665>:
    80005bdc:	77e00193          	li	gp,1918

0000000080005be0 <i_5666>:
    80005be0:	bf753f13          	sltiu	t5,a0,-1033

0000000080005be4 <i_5667>:
    80005be4:	ed012283          	lw	t0,-304(sp)

0000000080005be8 <i_5668>:
    80005be8:	00150513          	addi	a0,a0,1
    80005bec:	fe354ae3          	blt	a0,gp,80005be0 <i_5666>

0000000080005bf0 <i_5669>:
    80005bf0:	41928cbb          	subw	s9,t0,s9

0000000080005bf4 <i_5670>:
    80005bf4:	0ad5a593          	slti	a1,a1,173

0000000080005bf8 <i_5671>:
    80005bf8:	80800793          	li	a5,-2040

0000000080005bfc <i_5672>:
    80005bfc:	81a00293          	li	t0,-2022

0000000080005c00 <i_5673>:
    80005c00:	00000013          	nop

0000000080005c04 <i_5674>:
    80005c04:	e5813c83          	ld	s9,-424(sp)

0000000080005c08 <i_5675>:
    80005c08:	03959263          	bne	a1,s9,80005c2c <i_5683>

0000000080005c0c <i_5676>:
    80005c0c:	0c211a03          	lh	s4,194(sp)

0000000080005c10 <i_5677>:
    80005c10:	014cab33          	slt	s6,s9,s4

0000000080005c14 <i_5678>:
    80005c14:	06013683          	ld	a3,96(sp)

0000000080005c18 <i_5679>:
    80005c18:	00178793          	addi	a5,a5,1
    80005c1c:	fef2d2e3          	ble	a5,t0,80005c00 <i_5673>

0000000080005c20 <i_5680>:
    80005c20:	0393c3b3          	div	t2,t2,s9

0000000080005c24 <i_5681>:
    80005c24:	1ab13423          	sd	a1,424(sp)

0000000080005c28 <i_5682>:
    80005c28:	ed6102a3          	sb	s6,-315(sp)

0000000080005c2c <i_5683>:
    80005c2c:	02bcbcb3          	mulhu	s9,s9,a1

0000000080005c30 <i_5684>:
    80005c30:	03600f13          	li	t5,54

0000000080005c34 <i_5685>:
    80005c34:	41e55cb3          	sra	s9,a0,t5

0000000080005c38 <i_5686>:
    80005c38:	89d00313          	li	t1,-1891

0000000080005c3c <i_5687>:
    80005c3c:	89f00513          	li	a0,-1889

0000000080005c40 <i_5688>:
    80005c40:	0b912423          	sw	s9,168(sp)

0000000080005c44 <i_5689>:
    80005c44:	17f48397          	auipc	t2,0x17f48

0000000080005c48 <i_5690>:
    80005c48:	02cef063          	bleu	a2,t4,80005c68 <i_5697>

0000000080005c4c <i_5691>:
    80005c4c:	f6f13823          	sd	a5,-144(sp)

0000000080005c50 <i_5692>:
    80005c50:	413586bb          	subw	a3,a1,s3

0000000080005c54 <i_5693>:
    80005c54:	f7e14e83          	lbu	t4,-130(sp)

0000000080005c58 <i_5694>:
    80005c58:	00130313          	addi	t1,t1,1
    80005c5c:	fea310e3          	bne	t1,a0,80005c3c <i_5687>

0000000080005c60 <i_5695>:
    80005c60:	0f113c23          	sd	a7,248(sp)

0000000080005c64 <i_5696>:
    80005c64:	11411e83          	lh	t4,276(sp)

0000000080005c68 <i_5697>:
    80005c68:	00d37a63          	bleu	a3,t1,80005c7c <i_5702>

0000000080005c6c <i_5698>:
    80005c6c:	02d3eb3b          	remw	s6,t2,a3

0000000080005c70 <i_5699>:
    80005c70:	00210d03          	lb	s10,2(sp)

0000000080005c74 <i_5700>:
    80005c74:	0ae11303          	lh	t1,174(sp)

0000000080005c78 <i_5701>:
    80005c78:	e8612c23          	sw	t1,-360(sp)

0000000080005c7c <i_5702>:
    80005c7c:	0aa14483          	lbu	s1,170(sp)

0000000080005c80 <i_5703>:
    80005c80:	ed013303          	ld	t1,-304(sp)

0000000080005c84 <i_5704>:
    80005c84:	40648bb3          	sub	s7,s1,t1

0000000080005c88 <i_5705>:
    80005c88:	07713423          	sd	s7,104(sp)

0000000080005c8c <i_5706>:
    80005c8c:	02637063          	bleu	t1,t1,80005cac <i_5714>

0000000080005c90 <i_5707>:
    80005c90:	00800793          	li	a5,8

0000000080005c94 <i_5708>:
    80005c94:	00f31ab3          	sll	s5,t1,a5

0000000080005c98 <i_5709>:
    80005c98:	13c15303          	lhu	t1,316(sp)

0000000080005c9c <i_5710>:
    80005c9c:	00100793          	li	a5,1

0000000080005ca0 <i_5711>:
    80005ca0:	00f7923b          	sllw	tp,a5,a5

0000000080005ca4 <i_5712>:
    80005ca4:	00f7c663          	blt	a5,a5,80005cb0 <i_5715>

0000000080005ca8 <i_5713>:
    80005ca8:	14f11e23          	sh	a5,348(sp)

0000000080005cac <i_5714>:
    80005cac:	fcf13023          	sd	a5,-64(sp)

0000000080005cb0 <i_5715>:
    80005cb0:	9cb947b7          	lui	a5,0x9cb94

0000000080005cb4 <i_5716>:
    80005cb4:	0247cdb3          	div	s11,a5,tp

0000000080005cb8 <i_5717>:
    80005cb8:	41b20233          	sub	tp,tp,s11

0000000080005cbc <i_5718>:
    80005cbc:	00478463          	beq	a5,tp,80005cc4 <i_5720>

0000000080005cc0 <i_5719>:
    80005cc0:	0f311523          	sh	s3,234(sp)

0000000080005cc4 <i_5720>:
    80005cc4:	eb813c83          	ld	s9,-328(sp)

0000000080005cc8 <i_5721>:
    80005cc8:	e5c14c83          	lbu	s9,-420(sp)

0000000080005ccc <i_5722>:
    80005ccc:	eb215803          	lhu	a6,-334(sp)

0000000080005cd0 <i_5723>:
    80005cd0:	0d710983          	lb	s3,215(sp)

0000000080005cd4 <i_5724>:
    80005cd4:	07012403          	lw	s0,112(sp)

0000000080005cd8 <i_5725>:
    80005cd8:	ff011a23          	sh	a6,-12(sp)

0000000080005cdc <i_5726>:
    80005cdc:	00b845b3          	xor	a1,a6,a1

0000000080005ce0 <i_5727>:
    80005ce0:	e6813803          	ld	a6,-408(sp)

0000000080005ce4 <i_5728>:
    80005ce4:	00c9f863          	bleu	a2,s3,80005cf4 <i_5732>

0000000080005ce8 <i_5729>:
    80005ce8:	15412c83          	lw	s9,340(sp)

0000000080005cec <i_5730>:
    80005cec:	e9812e03          	lw	t3,-360(sp)

0000000080005cf0 <i_5731>:
    80005cf0:	1c416403          	lwu	s0,452(sp)

0000000080005cf4 <i_5732>:
    80005cf4:	eeb12023          	sw	a1,-288(sp)

0000000080005cf8 <i_5733>:
    80005cf8:	07011203          	lh	tp,112(sp)

0000000080005cfc <i_5734>:
    80005cfc:	f2714d03          	lbu	s10,-217(sp)

0000000080005d00 <i_5735>:
    80005d00:	00859663          	bne	a1,s0,80005d0c <i_5738>

0000000080005d04 <i_5736>:
    80005d04:	001cd293          	srli	t0,s9,0x1

0000000080005d08 <i_5737>:
    80005d08:	f9114403          	lbu	s0,-111(sp)

0000000080005d0c <i_5738>:
    80005d0c:	ff812e03          	lw	t3,-8(sp)

0000000080005d10 <i_5739>:
    80005d10:	0a212623          	sw	sp,172(sp)

0000000080005d14 <i_5740>:
    80005d14:	81a00b93          	li	s7,-2022

0000000080005d18 <i_5741>:
    80005d18:	82900693          	li	a3,-2007

0000000080005d1c <i_5742>:
    80005d1c:	f8413023          	sd	tp,-128(sp)

0000000080005d20 <i_5743>:
    80005d20:	f7415e03          	lhu	t3,-140(sp)

0000000080005d24 <i_5744>:
    80005d24:	ef416d83          	lwu	s11,-268(sp)

0000000080005d28 <i_5745>:
    80005d28:	001b8b93          	addi	s7,s7,1
    80005d2c:	fedbc8e3          	blt	s7,a3,80005d1c <i_5742>

0000000080005d30 <i_5746>:
    80005d30:	01828e63          	beq	t0,s8,80005d4c <i_5753>

0000000080005d34 <i_5747>:
    80005d34:	12d10aa3          	sb	a3,309(sp)

0000000080005d38 <i_5748>:
    80005d38:	01b2da63          	ble	s11,t0,80005d4c <i_5753>

0000000080005d3c <i_5749>:
    80005d3c:	2c36819b          	addiw	gp,a3,707

0000000080005d40 <i_5750>:
    80005d40:	02544463          	blt	s0,t0,80005d68 <i_5760>

0000000080005d44 <i_5751>:
    80005d44:	faf14203          	lbu	tp,-81(sp)

0000000080005d48 <i_5752>:
    80005d48:	1c012d83          	lw	s11,448(sp)

0000000080005d4c <i_5753>:
    80005d4c:	002ddd9b          	srliw	s11,s11,0x2

0000000080005d50 <i_5754>:
    80005d50:	00000013          	nop

0000000080005d54 <i_5755>:
    80005d54:	00000013          	nop

0000000080005d58 <i_5756>:
    80005d58:	f0c10b03          	lb	s6,-244(sp)

0000000080005d5c <i_5757>:
    80005d5c:	00000013          	nop

0000000080005d60 <i_5758>:
    80005d60:	af83b193          	sltiu	gp,t2,-1288

0000000080005d64 <i_5759>:
    80005d64:	ec910a03          	lb	s4,-311(sp)

0000000080005d68 <i_5760>:
    80005d68:	0f413c23          	sd	s4,248(sp)

0000000080005d6c <i_5761>:
    80005d6c:	7aaa7a13          	andi	s4,s4,1962

0000000080005d70 <i_5762>:
    80005d70:	7b900b93          	li	s7,1977

0000000080005d74 <i_5763>:
    80005d74:	7c500e13          	li	t3,1989

0000000080005d78 <i_5764>:
    80005d78:	eb410223          	sb	s4,-348(sp)

0000000080005d7c <i_5765>:
    80005d7c:	e7215183          	lhu	gp,-398(sp)

0000000080005d80 <i_5766>:
    80005d80:	ec611c03          	lh	s8,-314(sp)

0000000080005d84 <i_5767>:
    80005d84:	02429cb3          	mulh	s9,t0,tp

0000000080005d88 <i_5768>:
    80005d88:	023191b3          	mulh	gp,gp,gp

0000000080005d8c <i_5769>:
    80005d8c:	08811183          	lh	gp,136(sp)

0000000080005d90 <i_5770>:
    80005d90:	a6a47b13          	andi	s6,s0,-1430

0000000080005d94 <i_5771>:
    80005d94:	001b8b93          	addi	s7,s7,1
    80005d98:	ff7e70e3          	bleu	s7,t3,80005d78 <i_5764>

0000000080005d9c <i_5772>:
    80005d9c:	07910723          	sb	s9,110(sp)

0000000080005da0 <i_5773>:
    80005da0:	fc816b03          	lwu	s6,-56(sp)

0000000080005da4 <i_5774>:
    80005da4:	016cc663          	blt	s9,s6,80005db0 <i_5777>

0000000080005da8 <i_5775>:
    80005da8:	00325b1b          	srliw	s6,tp,0x3

0000000080005dac <i_5776>:
    80005dac:	e6811c83          	lh	s9,-408(sp)

0000000080005db0 <i_5777>:
    80005db0:	04813803          	ld	a6,72(sp)

0000000080005db4 <i_5778>:
    80005db4:	ec816203          	lwu	tp,-312(sp)

0000000080005db8 <i_5779>:
    80005db8:	0243d3bb          	divuw	t2,t2,tp

0000000080005dbc <i_5780>:
    80005dbc:	fd813203          	ld	tp,-40(sp)

0000000080005dc0 <i_5781>:
    80005dc0:	e5f14983          	lbu	s3,-417(sp)

0000000080005dc4 <i_5782>:
    80005dc4:	03326463          	bltu	tp,s3,80005dec <i_5792>

0000000080005dc8 <i_5783>:
    80005dc8:	f3911223          	sh	s9,-220(sp)

0000000080005dcc <i_5784>:
    80005dcc:	e9412c23          	sw	s4,-360(sp)

0000000080005dd0 <i_5785>:
    80005dd0:	0353a9b3          	mulhsu	s3,t2,s5

0000000080005dd4 <i_5786>:
    80005dd4:	0139fb33          	and	s6,s3,s3

0000000080005dd8 <i_5787>:
    80005dd8:	e7810383          	lb	t2,-392(sp)

0000000080005ddc <i_5788>:
    80005ddc:	14b13823          	sd	a1,336(sp)

0000000080005de0 <i_5789>:
    80005de0:	00000013          	nop

0000000080005de4 <i_5790>:
    80005de4:	013442b3          	xor	t0,s0,s3

0000000080005de8 <i_5791>:
    80005de8:	02300e93          	li	t4,35

0000000080005dec <i_5792>:
    80005dec:	41d9d633          	sra	a2,s3,t4

0000000080005df0 <i_5793>:
    80005df0:	6743851b          	addiw	a0,t2,1652

0000000080005df4 <i_5794>:
    80005df4:	7d400b13          	li	s6,2004

0000000080005df8 <i_5795>:
    80005df8:	7d600413          	li	s0,2006

0000000080005dfc <i_5796>:
    80005dfc:	001b0b13          	addi	s6,s6,1
    80005e00:	fe8b6ee3          	bltu	s6,s0,80005dfc <i_5796>

0000000080005e04 <i_5797>:
    80005e04:	17211623          	sh	s2,364(sp)

0000000080005e08 <i_5798>:
    80005e08:	01a539b3          	sltu	s3,a0,s10

0000000080005e0c <i_5799>:
    80005e0c:	00000013          	nop

0000000080005e10 <i_5800>:
    80005e10:	e7d12a23          	sw	t4,-396(sp)

0000000080005e14 <i_5801>:
    80005e14:	83000313          	li	t1,-2000

0000000080005e18 <i_5802>:
    80005e18:	84000d13          	li	s10,-1984

0000000080005e1c <i_5803>:
    80005e1c:	e9816403          	lwu	s0,-360(sp)

0000000080005e20 <i_5804>:
    80005e20:	01a9da63          	ble	s10,s3,80005e34 <i_5809>

0000000080005e24 <i_5805>:
    80005e24:	ec811e23          	sh	s0,-292(sp)

0000000080005e28 <i_5806>:
    80005e28:	14013503          	ld	a0,320(sp)

0000000080005e2c <i_5807>:
    80005e2c:	01c00f13          	li	t5,28

0000000080005e30 <i_5808>:
    80005e30:	01e9d5b3          	srl	a1,s3,t5

0000000080005e34 <i_5809>:
    80005e34:	1c911123          	sh	s1,450(sp)

0000000080005e38 <i_5810>:
    80005e38:	09510c23          	sb	s5,152(sp)

0000000080005e3c <i_5811>:
    80005e3c:	14010503          	lb	a0,320(sp)

0000000080005e40 <i_5812>:
    80005e40:	01d00f13          	li	t5,29

0000000080005e44 <i_5813>:
    80005e44:	01ef57bb          	srlw	a5,t5,t5

0000000080005e48 <i_5814>:
    80005e48:	03a9f463          	bleu	s10,s3,80005e70 <i_5823>

0000000080005e4c <i_5815>:
    80005e4c:	46c70a1b          	addiw	s4,a4,1132

0000000080005e50 <i_5816>:
    80005e50:	a66f5997          	auipc	s3,0xa66f5

0000000080005e54 <i_5817>:
    80005e54:	02858063          	beq	a1,s0,80005e74 <i_5824>

0000000080005e58 <i_5818>:
    80005e58:	00130313          	addi	t1,t1,1
    80005e5c:	fda310e3          	bne	t1,s10,80005e1c <i_5803>

0000000080005e60 <i_5819>:
    80005e60:	07314583          	lbu	a1,115(sp)

0000000080005e64 <i_5820>:
    80005e64:	03e9aab3          	mulhsu	s5,s3,t5

0000000080005e68 <i_5821>:
    80005e68:	d33c6593          	ori	a1,s8,-717

0000000080005e6c <i_5822>:
    80005e6c:	07412a03          	lw	s4,116(sp)

0000000080005e70 <i_5823>:
    80005e70:	14816c83          	lwu	s9,328(sp)

0000000080005e74 <i_5824>:
    80005e74:	f9a15a03          	lhu	s4,-102(sp)

0000000080005e78 <i_5825>:
    80005e78:	402ad51b          	sraiw	a0,s5,0x2

0000000080005e7c <i_5826>:
    80005e7c:	3c1caa13          	slti	s4,s9,961

0000000080005e80 <i_5827>:
    80005e80:	419a8cb3          	sub	s9,s5,s9

0000000080005e84 <i_5828>:
    80005e84:	e7910923          	sb	s9,-398(sp)

0000000080005e88 <i_5829>:
    80005e88:	022aeab3          	rem	s5,s5,sp

0000000080005e8c <i_5830>:
    80005e8c:	015ce663          	bltu	s9,s5,80005e98 <i_5833>

0000000080005e90 <i_5831>:
    80005e90:	01398463          	beq	s3,s3,80005e98 <i_5833>

0000000080005e94 <i_5832>:
    80005e94:	f6015a03          	lhu	s4,-160(sp)

0000000080005e98 <i_5833>:
    80005e98:	01358ab3          	add	s5,a1,s3

0000000080005e9c <i_5834>:
    80005e9c:	00a6e463          	bltu	a3,a0,80005ea4 <i_5836>

0000000080005ea0 <i_5835>:
    80005ea0:	9909ea13          	ori	s4,s3,-1648

0000000080005ea4 <i_5836>:
    80005ea4:	01500f13          	li	t5,21

0000000080005ea8 <i_5837>:
    80005ea8:	01ea1bbb          	sllw	s7,s4,t5

0000000080005eac <i_5838>:
    80005eac:	ec411a03          	lh	s4,-316(sp)

0000000080005eb0 <i_5839>:
    80005eb0:	01ebfe63          	bleu	t5,s7,80005ecc <i_5846>

0000000080005eb4 <i_5840>:
    80005eb4:	03b10f03          	lb	t5,59(sp)

0000000080005eb8 <i_5841>:
    80005eb8:	01ef1863          	bne	t5,t5,80005ec8 <i_5845>

0000000080005ebc <i_5842>:
    80005ebc:	f1711123          	sh	s7,-254(sp)

0000000080005ec0 <i_5843>:
    80005ec0:	03465633          	divu	a2,a2,s4

0000000080005ec4 <i_5844>:
    80005ec4:	ef813483          	ld	s1,-264(sp)

0000000080005ec8 <i_5845>:
    80005ec8:	035f3ab3          	mulhu	s5,t5,s5

0000000080005ecc <i_5846>:
    80005ecc:	19813f03          	ld	t5,408(sp)

0000000080005ed0 <i_5847>:
    80005ed0:	035f1b33          	mulh	s6,t5,s5

0000000080005ed4 <i_5848>:
    80005ed4:	03eb54b3          	divu	s1,s6,t5

0000000080005ed8 <i_5849>:
    80005ed8:	1e411f03          	lh	t5,484(sp)

0000000080005edc <i_5850>:
    80005edc:	016b4c63          	blt	s6,s6,80005ef4 <i_5856>

0000000080005ee0 <i_5851>:
    80005ee0:	16911723          	sh	s1,366(sp)

0000000080005ee4 <i_5852>:
    80005ee4:	01cb5463          	ble	t3,s6,80005eec <i_5854>

0000000080005ee8 <i_5853>:
    80005ee8:	03b4cb3b          	divw	s6,s1,s11

0000000080005eec <i_5854>:
    80005eec:	01eb1663          	bne	s6,t5,80005ef8 <i_5857>

0000000080005ef0 <i_5855>:
    80005ef0:	0364e263          	bltu	s1,s6,80005f14 <i_5864>

0000000080005ef4 <i_5856>:
    80005ef4:	01eb5463          	ble	t5,s6,80005efc <i_5858>

0000000080005ef8 <i_5857>:
    80005ef8:	029f6063          	bltu	t5,s1,80005f18 <i_5865>

0000000080005efc <i_5858>:
    80005efc:	f1615e03          	lhu	t3,-234(sp)

0000000080005f00 <i_5859>:
    80005f00:	00651e63          	bne	a0,t1,80005f1c <i_5866>

0000000080005f04 <i_5860>:
    80005f04:	0e011b03          	lh	s6,224(sp)

0000000080005f08 <i_5861>:
    80005f08:	0cc16583          	lwu	a1,204(sp)

0000000080005f0c <i_5862>:
    80005f0c:	7b212c93          	slti	s9,sp,1970

0000000080005f10 <i_5863>:
    80005f10:	0d210e03          	lb	t3,210(sp)

0000000080005f14 <i_5864>:
    80005f14:	01cc8e63          	beq	s9,t3,80005f30 <i_5871>

0000000080005f18 <i_5865>:
    80005f18:	11910aa3          	sb	s9,277(sp)

0000000080005f1c <i_5866>:
    80005f1c:	039e5063          	ble	s9,t3,80005f3c <i_5874>

0000000080005f20 <i_5867>:
    80005f20:	02f7bcb3          	mulhu	s9,a5,a5

0000000080005f24 <i_5868>:
    80005f24:	01c7ca63          	blt	a5,t3,80005f38 <i_5873>

0000000080005f28 <i_5869>:
    80005f28:	07c13023          	sd	t3,96(sp)

0000000080005f2c <i_5870>:
    80005f2c:	08f11923          	sh	a5,146(sp)

0000000080005f30 <i_5871>:
    80005f30:	02d11823          	sh	a3,48(sp)

0000000080005f34 <i_5872>:
    80005f34:	11e15c83          	lhu	s9,286(sp)

0000000080005f38 <i_5873>:
    80005f38:	00f7ff33          	and	t5,a5,a5

0000000080005f3c <i_5874>:
    80005f3c:	1eb3cb93          	xori	s7,t2,491

0000000080005f40 <i_5875>:
    80005f40:	00000013          	nop

0000000080005f44 <i_5876>:
    80005f44:	88900793          	li	a5,-1911

0000000080005f48 <i_5877>:
    80005f48:	89a00393          	li	t2,-1894

0000000080005f4c <i_5878>:
    80005f4c:	00178793          	addi	a5,a5,1 # ffffffff9cb94001 <_end+0xffffffff1cb83bed>
    80005f50:	fe77cee3          	blt	a5,t2,80005f4c <i_5878>

0000000080005f54 <i_5879>:
    80005f54:	01ebee63          	bltu	s7,t5,80005f70 <i_5886>

0000000080005f58 <i_5880>:
    80005f58:	01e39463          	bne	t2,t5,80005f60 <i_5882>

0000000080005f5c <i_5881>:
    80005f5c:	14e11783          	lh	a5,334(sp)

0000000080005f60 <i_5882>:
    80005f60:	ea615c03          	lhu	s8,-346(sp)

0000000080005f64 <i_5883>:
    80005f64:	e9a10383          	lb	t2,-358(sp)

0000000080005f68 <i_5884>:
    80005f68:	e9010783          	lb	a5,-368(sp)

0000000080005f6c <i_5885>:
    80005f6c:	0277bcb3          	mulhu	s9,a5,t2

0000000080005f70 <i_5886>:
    80005f70:	f8e15303          	lhu	t1,-114(sp)

0000000080005f74 <i_5887>:
    80005f74:	e4914383          	lbu	t2,-439(sp)

0000000080005f78 <i_5888>:
    80005f78:	e3811e23          	sh	s8,-452(sp)

0000000080005f7c <i_5889>:
    80005f7c:	4a93ac93          	slti	s9,t2,1193

0000000080005f80 <i_5890>:
    80005f80:	06611523          	sh	t1,106(sp)

0000000080005f84 <i_5891>:
    80005f84:	fd014b03          	lbu	s6,-48(sp)

0000000080005f88 <i_5892>:
    80005f88:	1e016183          	lwu	gp,480(sp)

0000000080005f8c <i_5893>:
    80005f8c:	e3013203          	ld	tp,-464(sp)

0000000080005f90 <i_5894>:
    80005f90:	02626063          	bltu	tp,t1,80005fb0 <i_5902>

0000000080005f94 <i_5895>:
    80005f94:	00000013          	nop

0000000080005f98 <i_5896>:
    80005f98:	f7613823          	sd	s6,-144(sp)

0000000080005f9c <i_5897>:
    80005f9c:	00000013          	nop

0000000080005fa0 <i_5898>:
    80005fa0:	00000013          	nop

0000000080005fa4 <i_5899>:
    80005fa4:	00000013          	nop

0000000080005fa8 <i_5900>:
    80005fa8:	e4c16783          	lwu	a5,-436(sp)

0000000080005fac <i_5901>:
    80005fac:	06c16c83          	lwu	s9,108(sp)

0000000080005fb0 <i_5902>:
    80005fb0:	f1815a83          	lhu	s5,-232(sp)

0000000080005fb4 <i_5903>:
    80005fb4:	f3013e83          	ld	t4,-208(sp)

0000000080005fb8 <i_5904>:
    80005fb8:	73200493          	li	s1,1842

0000000080005fbc <i_5905>:
    80005fbc:	73900593          	li	a1,1849

0000000080005fc0 <i_5906>:
    80005fc0:	029a9f33          	mulh	t5,s5,s1

0000000080005fc4 <i_5907>:
    80005fc4:	ece15a83          	lhu	s5,-306(sp)

0000000080005fc8 <i_5908>:
    80005fc8:	00148493          	addi	s1,s1,1
    80005fcc:	fe95fae3          	bleu	s1,a1,80005fc0 <i_5906>

0000000080005fd0 <i_5909>:
    80005fd0:	01d4e463          	bltu	s1,t4,80005fd8 <i_5911>

0000000080005fd4 <i_5910>:
    80005fd4:	f6013083          	ld	ra,-160(sp)

0000000080005fd8 <i_5911>:
    80005fd8:	14a11583          	lh	a1,330(sp)

0000000080005fdc <i_5912>:
    80005fdc:	e8913823          	sd	s1,-368(sp)

0000000080005fe0 <i_5913>:
    80005fe0:	07816083          	lwu	ra,120(sp)

0000000080005fe4 <i_5914>:
    80005fe4:	ee414083          	lbu	ra,-284(sp)

0000000080005fe8 <i_5915>:
    80005fe8:	0217f4bb          	remuw	s1,a5,ra

0000000080005fec <i_5916>:
    80005fec:	001cbd33          	sltu	s10,s9,ra

0000000080005ff0 <i_5917>:
    80005ff0:	13811ab7          	lui	s5,0x13811

0000000080005ff4 <i_5918>:
    80005ff4:	7d000493          	li	s1,2000

0000000080005ff8 <i_5919>:
    80005ff8:	7d900093          	li	ra,2009

0000000080005ffc <i_5920>:
    80005ffc:	0150cc33          	xor	s8,ra,s5

0000000080006000 <i_5921>:
    80006000:	00dcacb3          	slt	s9,s9,a3

0000000080006004 <i_5922>:
    80006004:	03935e3b          	divuw	t3,t1,s9

0000000080006008 <i_5923>:
    80006008:	85600313          	li	t1,-1962

000000008000600c <i_5924>:
    8000600c:	85b00693          	li	a3,-1957

0000000080006010 <i_5925>:
    80006010:	f9b14e03          	lbu	t3,-101(sp)

0000000080006014 <i_5926>:
    80006014:	00000013          	nop

0000000080006018 <i_5927>:
    80006018:	02d54cb3          	div	s9,a0,a3

000000008000601c <i_5928>:
    8000601c:	00130313          	addi	t1,t1,1
    80006020:	fed368e3          	bltu	t1,a3,80006010 <i_5925>

0000000080006024 <i_5929>:
    80006024:	039683bb          	mulw	t2,a3,s9

0000000080006028 <i_5930>:
    80006028:	00000013          	nop

000000008000602c <i_5931>:
    8000602c:	00c00813          	li	a6,12

0000000080006030 <i_5932>:
    80006030:	0108583b          	srlw	a6,a6,a6

0000000080006034 <i_5933>:
    80006034:	00148493          	addi	s1,s1,1
    80006038:	fc14e2e3          	bltu	s1,ra,80005ffc <i_5920>

000000008000603c <i_5934>:
    8000603c:	10813383          	ld	t2,264(sp)

0000000080006040 <i_5935>:
    80006040:	05215803          	lhu	a6,82(sp)

0000000080006044 <i_5936>:
    80006044:	1d016e03          	lwu	t3,464(sp)

0000000080006048 <i_5937>:
    80006048:	f1416c03          	lwu	s8,-236(sp)

000000008000604c <i_5938>:
    8000604c:	f3a14303          	lbu	t1,-198(sp)

0000000080006050 <i_5939>:
    80006050:	f7813823          	sd	s8,-144(sp)

0000000080006054 <i_5940>:
    80006054:	01812a03          	lw	s4,24(sp)

0000000080006058 <i_5941>:
    80006058:	40436513          	ori	a0,t1,1028

000000008000605c <i_5942>:
    8000605c:	01214b83          	lbu	s7,18(sp)

0000000080006060 <i_5943>:
    80006060:	1c611f23          	sh	t1,478(sp)

0000000080006064 <i_5944>:
    80006064:	10610483          	lb	s1,262(sp)

0000000080006068 <i_5945>:
    80006068:	8e966197          	auipc	gp,0x8e966

000000008000606c <i_5946>:
    8000606c:	01a00993          	li	s3,26

0000000080006070 <i_5947>:
    80006070:	01319bb3          	sll	s7,gp,s3

0000000080006074 <i_5948>:
    80006074:	8c600c13          	li	s8,-1850

0000000080006078 <i_5949>:
    80006078:	8cc00213          	li	tp,-1844

000000008000607c <i_5950>:
    8000607c:	00131a1b          	slliw	s4,t1,0x1

0000000080006080 <i_5951>:
    80006080:	00000013          	nop

0000000080006084 <i_5952>:
    80006084:	ff816303          	lwu	t1,-8(sp)

0000000080006088 <i_5953>:
    80006088:	f7c15e83          	lhu	t4,-132(sp)

000000008000608c <i_5954>:
    8000608c:	02637263          	bleu	t1,t1,800060b0 <i_5962>

0000000080006090 <i_5955>:
    80006090:	093e831b          	addiw	t1,t4,147

0000000080006094 <i_5956>:
    80006094:	00331d13          	slli	s10,t1,0x3

0000000080006098 <i_5957>:
    80006098:	001c0c13          	addi	s8,s8,1
    8000609c:	fe4c60e3          	bltu	s8,tp,8000607c <i_5950>

00000000800060a0 <i_5958>:
    800060a0:	10c15303          	lhu	t1,268(sp)

00000000800060a4 <i_5959>:
    800060a4:	09016e83          	lwu	t4,144(sp)

00000000800060a8 <i_5960>:
    800060a8:	026ef1b3          	remu	gp,t4,t1

00000000800060ac <i_5961>:
    800060ac:	17d10c23          	sb	t4,376(sp)

00000000800060b0 <i_5962>:
    800060b0:	00ceec63          	bltu	t4,a2,800060c8 <i_5968>

00000000800060b4 <i_5963>:
    800060b4:	10612423          	sw	t1,264(sp)

00000000800060b8 <i_5964>:
    800060b8:	16610603          	lb	a2,358(sp)

00000000800060bc <i_5965>:
    800060bc:	9b096e97          	auipc	t4,0x9b096

00000000800060c0 <i_5966>:
    800060c0:	01000493          	li	s1,16

00000000800060c4 <i_5967>:
    800060c4:	00965a3b          	srlw	s4,a2,s1

00000000800060c8 <i_5968>:
    800060c8:	13412023          	sw	s4,288(sp)

00000000800060cc <i_5969>:
    800060cc:	0144c4b3          	xor	s1,s1,s4

00000000800060d0 <i_5970>:
    800060d0:	01d95a63          	ble	t4,s2,800060e4 <i_5975>

00000000800060d4 <i_5971>:
    800060d4:	0c813a03          	ld	s4,200(sp)

00000000800060d8 <i_5972>:
    800060d8:	02994263          	blt	s2,s1,800060fc <i_5981>

00000000800060dc <i_5973>:
    800060dc:	0144b9b3          	sltu	s3,s1,s4

00000000800060e0 <i_5974>:
    800060e0:	0334c063          	blt	s1,s3,80006100 <i_5982>

00000000800060e4 <i_5975>:
    800060e4:	009a4463          	blt	s4,s1,800060ec <i_5977>

00000000800060e8 <i_5976>:
    800060e8:	f4e14583          	lbu	a1,-178(sp)

00000000800060ec <i_5977>:
    800060ec:	41398d3b          	subw	s10,s3,s3

00000000800060f0 <i_5978>:
    800060f0:	16c10983          	lb	s3,364(sp)

00000000800060f4 <i_5979>:
    800060f4:	e7910a03          	lb	s4,-391(sp)

00000000800060f8 <i_5980>:
    800060f8:	d16a3e93          	sltiu	t4,s4,-746

00000000800060fc <i_5981>:
    800060fc:	002c1c93          	slli	s9,s8,0x2

0000000080006100 <i_5982>:
    80006100:	19310183          	lb	gp,403(sp)

0000000080006104 <i_5983>:
    80006104:	01300a13          	li	s4,19

0000000080006108 <i_5984>:
    80006108:	014a1a3b          	sllw	s4,s4,s4

000000008000610c <i_5985>:
    8000610c:	84900d13          	li	s10,-1975

0000000080006110 <i_5986>:
    80006110:	85b00c93          	li	s9,-1957

0000000080006114 <i_5987>:
    80006114:	054109a3          	sb	s4,83(sp)

0000000080006118 <i_5988>:
    80006118:	0141da63          	ble	s4,gp,8000612c <i_5993>

000000008000611c <i_5989>:
    8000611c:	08312c23          	sw	gp,152(sp)

0000000080006120 <i_5990>:
    80006120:	00e00793          	li	a5,14

0000000080006124 <i_5991>:
    80006124:	00fa12bb          	sllw	t0,s4,a5

0000000080006128 <i_5992>:
    80006128:	00000013          	nop

000000008000612c <i_5993>:
    8000612c:	15413423          	sd	s4,328(sp)

0000000080006130 <i_5994>:
    80006130:	d23e57b7          	lui	a5,0xd23e5

0000000080006134 <i_5995>:
    80006134:	1c816603          	lwu	a2,456(sp)

0000000080006138 <i_5996>:
    80006138:	00300293          	li	t0,3

000000008000613c <i_5997>:
    8000613c:	0057deb3          	srl	t4,a5,t0

0000000080006140 <i_5998>:
    80006140:	fb012403          	lw	s0,-80(sp)

0000000080006144 <i_5999>:
    80006144:	e3514e83          	lbu	t4,-459(sp)

0000000080006148 <i_6000>:
    80006148:	001d0d13          	addi	s10,s10,1
    8000614c:	fd9d42e3          	blt	s10,s9,80006110 <i_5986>

0000000080006150 <i_6001>:
    80006150:	00e00a93          	li	s5,14

0000000080006154 <i_6002>:
    80006154:	415ed23b          	sraw	tp,t4,s5

0000000080006158 <i_6003>:
    80006158:	eaf13823          	sd	a5,-336(sp)

000000008000615c <i_6004>:
    8000615c:	ef011283          	lh	t0,-272(sp)

0000000080006160 <i_6005>:
    80006160:	74b00613          	li	a2,1867

0000000080006164 <i_6006>:
    80006164:	75800e13          	li	t3,1880

0000000080006168 <i_6007>:
    80006168:	00160613          	addi	a2,a2,1
    8000616c:	ffc64ee3          	blt	a2,t3,80006168 <i_6007>

0000000080006170 <i_6008>:
    80006170:	f6812403          	lw	s0,-152(sp)

0000000080006174 <i_6009>:
    80006174:	06d10583          	lb	a1,109(sp)

0000000080006178 <i_6010>:
    80006178:	e2013203          	ld	tp,-480(sp)

000000008000617c <i_6011>:
    8000617c:	eb416583          	lwu	a1,-332(sp)

0000000080006180 <i_6012>:
    80006180:	f04100a3          	sb	tp,-255(sp)

0000000080006184 <i_6013>:
    80006184:	87d00e13          	li	t3,-1923

0000000080006188 <i_6014>:
    80006188:	88d00293          	li	t0,-1907

000000008000618c <i_6015>:
    8000618c:	02bbf1b3          	remu	gp,s7,a1

0000000080006190 <i_6016>:
    80006190:	00500593          	li	a1,5

0000000080006194 <i_6017>:
    80006194:	00b2923b          	sllw	tp,t0,a1

0000000080006198 <i_6018>:
    80006198:	fda15303          	lhu	t1,-38(sp)

000000008000619c <i_6019>:
    8000619c:	01c12023          	sw	t3,0(sp)

00000000800061a0 <i_6020>:
    800061a0:	35b6e813          	ori	a6,a3,859

00000000800061a4 <i_6021>:
    800061a4:	03637463          	bleu	s6,t1,800061cc <i_6030>

00000000800061a8 <i_6022>:
    800061a8:	12b10b03          	lb	s6,299(sp)

00000000800061ac <i_6023>:
    800061ac:	01bb7e63          	bleu	s11,s6,800061c8 <i_6029>

00000000800061b0 <i_6024>:
    800061b0:	03100c93          	li	s9,49

00000000800061b4 <i_6025>:
    800061b4:	419a5833          	sra	a6,s4,s9

00000000800061b8 <i_6026>:
    800061b8:	001e0e13          	addi	t3,t3,1
    800061bc:	fc5e18e3          	bne	t3,t0,8000618c <i_6015>

00000000800061c0 <i_6027>:
    800061c0:	1d811b83          	lh	s7,472(sp)

00000000800061c4 <i_6028>:
    800061c4:	026719b3          	mulh	s3,a4,t1

00000000800061c8 <i_6029>:
    800061c8:	0399d83b          	divuw	a6,s3,s9

00000000800061cc <i_6030>:
    800061cc:	02fc90b3          	mulh	ra,s9,a5

00000000800061d0 <i_6031>:
    800061d0:	03684bb3          	div	s7,a6,s6

00000000800061d4 <i_6032>:
    800061d4:	02fb87b3          	mul	a5,s7,a5

00000000800061d8 <i_6033>:
    800061d8:	09013f03          	ld	t5,144(sp)

00000000800061dc <i_6034>:
    800061dc:	01ebde63          	ble	t5,s7,800061f8 <i_6041>

00000000800061e0 <i_6035>:
    800061e0:	1ac15d03          	lhu	s10,428(sp)

00000000800061e4 <i_6036>:
    800061e4:	fce12023          	sw	a4,-64(sp)

00000000800061e8 <i_6037>:
    800061e8:	e1e15503          	lhu	a0,-482(sp)

00000000800061ec <i_6038>:
    800061ec:	00500d93          	li	s11,5

00000000800061f0 <i_6039>:
    800061f0:	41bf5e3b          	sraw	t3,t5,s11

00000000800061f4 <i_6040>:
    800061f4:	01ad4d33          	xor	s10,s10,s10

00000000800061f8 <i_6041>:
    800061f8:	0da11b23          	sh	s10,214(sp)

00000000800061fc <i_6042>:
    800061fc:	03bd4063          	blt	s10,s11,8000621c <i_6050>

0000000080006200 <i_6043>:
    80006200:	0ad14d83          	lbu	s11,173(sp)

0000000080006204 <i_6044>:
    80006204:	402a5a1b          	sraiw	s4,s4,0x2

0000000080006208 <i_6045>:
    80006208:	18012e83          	lw	t4,384(sp)

000000008000620c <i_6046>:
    8000620c:	01967db3          	and	s11,a2,s9

0000000080006210 <i_6047>:
    80006210:	01beca63          	blt	t4,s11,80006224 <i_6052>

0000000080006214 <i_6048>:
    80006214:	fba14a83          	lbu	s5,-70(sp)

0000000080006218 <i_6049>:
    80006218:	034e8c3b          	mulw	s8,t4,s4

000000008000621c <i_6050>:
    8000621c:	00000013          	nop

0000000080006220 <i_6051>:
    80006220:	1f513023          	sd	s5,480(sp)

0000000080006224 <i_6052>:
    80006224:	20ac4193          	xori	gp,s8,522

0000000080006228 <i_6053>:
    80006228:	e5510a83          	lb	s5,-427(sp)

000000008000622c <i_6054>:
    8000622c:	85b00993          	li	s3,-1957

0000000080006230 <i_6055>:
    80006230:	86d00d13          	li	s10,-1939

0000000080006234 <i_6056>:
    80006234:	1ca12423          	sw	a0,456(sp)

0000000080006238 <i_6057>:
    80006238:	f9d12023          	sw	t4,-128(sp)

000000008000623c <i_6058>:
    8000623c:	3b19aa13          	slti	s4,s3,945

0000000080006240 <i_6059>:
    80006240:	0031df13          	srli	t5,gp,0x3

0000000080006244 <i_6060>:
    80006244:	0d013e83          	ld	t4,208(sp)

0000000080006248 <i_6061>:
    80006248:	03410f23          	sb	s4,62(sp)

000000008000624c <i_6062>:
    8000624c:	00198993          	addi	s3,s3,1 # 266fae51 <main-0x599051af>
    80006250:	ffa9e2e3          	bltu	s3,s10,80006234 <i_6056>

0000000080006254 <i_6063>:
    80006254:	03811323          	sh	s8,38(sp)

0000000080006258 <i_6064>:
    80006258:	e7413423          	sd	s4,-408(sp)

000000008000625c <i_6065>:
    8000625c:	01aa3db3          	sltu	s11,s4,s10

0000000080006260 <i_6066>:
    80006260:	e7710803          	lb	a6,-393(sp)

0000000080006264 <i_6067>:
    80006264:	0351f263          	bleu	s5,gp,80006288 <i_6076>

0000000080006268 <i_6068>:
    80006268:	1b011923          	sh	a6,434(sp)

000000008000626c <i_6069>:
    8000626c:	fc764193          	xori	gp,a2,-57

0000000080006270 <i_6070>:
    80006270:	00b00493          	li	s1,11

0000000080006274 <i_6071>:
    80006274:	009adab3          	srl	s5,s5,s1

0000000080006278 <i_6072>:
    80006278:	fc313823          	sd	gp,-48(sp)

000000008000627c <i_6073>:
    8000627c:	03900c13          	li	s8,57

0000000080006280 <i_6074>:
    80006280:	018f9cb3          	sll	s9,t6,s8

0000000080006284 <i_6075>:
    80006284:	5dbc8193          	addi	gp,s9,1499

0000000080006288 <i_6076>:
    80006288:	0188d663          	ble	s8,a7,80006294 <i_6079>

000000008000628c <i_6077>:
    8000628c:	01000093          	li	ra,16

0000000080006290 <i_6078>:
    80006290:	001c5cbb          	srlw	s9,s8,ra

0000000080006294 <i_6079>:
    80006294:	f3016c03          	lwu	s8,-208(sp)

0000000080006298 <i_6080>:
    80006298:	1762b213          	sltiu	tp,t0,374

000000008000629c <i_6081>:
    8000629c:	038c7c3b          	remuw	s8,s8,s8

00000000800062a0 <i_6082>:
    800062a0:	004c7463          	bleu	tp,s8,800062a8 <i_6084>

00000000800062a4 <i_6083>:
    800062a4:	fbc12e03          	lw	t3,-68(sp)

00000000800062a8 <i_6084>:
    800062a8:	1d812a23          	sw	s8,468(sp)

00000000800062ac <i_6085>:
    800062ac:	f1211603          	lh	a2,-238(sp)

00000000800062b0 <i_6086>:
    800062b0:	e2211603          	lh	a2,-478(sp)

00000000800062b4 <i_6087>:
    800062b4:	00420c63          	beq	tp,tp,800062cc <i_6093>

00000000800062b8 <i_6088>:
    800062b8:	fc014503          	lbu	a0,-64(sp)

00000000800062bc <i_6089>:
    800062bc:	00500293          	li	t0,5

00000000800062c0 <i_6090>:
    800062c0:	405253bb          	sraw	t2,tp,t0

00000000800062c4 <i_6091>:
    800062c4:	1a016283          	lwu	t0,416(sp)

00000000800062c8 <i_6092>:
    800062c8:	03864e3b          	divw	t3,a2,s8

00000000800062cc <i_6093>:
    800062cc:	00ceeb33          	or	s6,t4,a2

00000000800062d0 <i_6094>:
    800062d0:	01900193          	li	gp,25

00000000800062d4 <i_6095>:
    800062d4:	403b5c3b          	sraw	s8,s6,gp

00000000800062d8 <i_6096>:
    800062d8:	876abe37          	lui	t3,0x876ab

00000000800062dc <i_6097>:
    800062dc:	0bc10e03          	lb	t3,188(sp)

00000000800062e0 <i_6098>:
    800062e0:	015b0263          	beq	s6,s5,800062e4 <i_6099>

00000000800062e4 <i_6099>:
    800062e4:	00ae6c63          	bltu	t3,a0,800062fc <i_6105>

00000000800062e8 <i_6100>:
    800062e8:	c89f4f13          	xori	t5,t5,-887

00000000800062ec <i_6101>:
    800062ec:	cd7e8a1b          	addiw	s4,t4,-809

00000000800062f0 <i_6102>:
    800062f0:	08710e03          	lb	t3,135(sp)

00000000800062f4 <i_6103>:
    800062f4:	01460c63          	beq	a2,s4,8000630c <i_6109>

00000000800062f8 <i_6104>:
    800062f8:	0fb14c03          	lbu	s8,251(sp)

00000000800062fc <i_6105>:
    800062fc:	eb812423          	sw	s8,-344(sp)

0000000080006300 <i_6106>:
    80006300:	03ce1cb3          	mulh	s9,t3,t3

0000000080006304 <i_6107>:
    80006304:	e4f10283          	lb	t0,-433(sp)

0000000080006308 <i_6108>:
    80006308:	1dc11223          	sh	t3,452(sp)

000000008000630c <i_6109>:
    8000630c:	fc013483          	ld	s1,-64(sp)

0000000080006310 <i_6110>:
    80006310:	03ac8263          	beq	s9,s10,80006334 <i_6119>

0000000080006314 <i_6111>:
    80006314:	01ef0c63          	beq	t5,t5,8000632c <i_6117>

0000000080006318 <i_6112>:
    80006318:	039105a3          	sb	s9,43(sp)

000000008000631c <i_6113>:
    8000631c:	01ce6663          	bltu	t3,t3,80006328 <i_6116>

0000000080006320 <i_6114>:
    80006320:	49c13b93          	sltiu	s7,sp,1180

0000000080006324 <i_6115>:
    80006324:	fe913423          	sd	s1,-24(sp)

0000000080006328 <i_6116>:
    80006328:	09813c23          	sd	s8,152(sp)

000000008000632c <i_6117>:
    8000632c:	0ab10203          	lb	tp,171(sp)

0000000080006330 <i_6118>:
    80006330:	1b9109a3          	sb	s9,435(sp)

0000000080006334 <i_6119>:
    80006334:	0020d093          	srli	ra,ra,0x2

0000000080006338 <i_6120>:
    80006338:	1a412203          	lw	tp,420(sp)

000000008000633c <i_6121>:
    8000633c:	83500813          	li	a6,-1995

0000000080006340 <i_6122>:
    80006340:	83f00c93          	li	s9,-1985

0000000080006344 <i_6123>:
    80006344:	00000013          	nop

0000000080006348 <i_6124>:
    80006348:	e5815e03          	lhu	t3,-424(sp)

000000008000634c <i_6125>:
    8000634c:	78c00d93          	li	s11,1932

0000000080006350 <i_6126>:
    80006350:	79500c13          	li	s8,1941

0000000080006354 <i_6127>:
    80006354:	f3013d03          	ld	s10,-208(sp)

0000000080006358 <i_6128>:
    80006358:	004dfa63          	bleu	tp,s11,8000636c <i_6132>

000000008000635c <i_6129>:
    8000635c:	001d8d93          	addi	s11,s11,1
    80006360:	ffbc5ae3          	ble	s11,s8,80006354 <i_6127>

0000000080006364 <i_6130>:
    80006364:	41a60233          	sub	tp,a2,s10

0000000080006368 <i_6131>:
    80006368:	00000013          	nop

000000008000636c <i_6132>:
    8000636c:	f2411623          	sh	tp,-212(sp)

0000000080006370 <i_6133>:
    80006370:	f7510e83          	lb	t4,-139(sp)

0000000080006374 <i_6134>:
    80006374:	08412423          	sw	tp,136(sp)

0000000080006378 <i_6135>:
    80006378:	0240c663          	blt	ra,tp,800063a4 <i_6145>

000000008000637c <i_6136>:
    8000637c:	00180813          	addi	a6,a6,1
    80006380:	fd0cd2e3          	ble	a6,s9,80006344 <i_6123>

0000000080006384 <i_6137>:
    80006384:	f1c12203          	lw	tp,-228(sp)

0000000080006388 <i_6138>:
    80006388:	1d812403          	lw	s0,472(sp)

000000008000638c <i_6139>:
    8000638c:	f4016203          	lwu	tp,-192(sp)

0000000080006390 <i_6140>:
    80006390:	01d25663          	ble	t4,tp,8000639c <i_6143>

0000000080006394 <i_6141>:
    80006394:	f1812983          	lw	s3,-232(sp)

0000000080006398 <i_6142>:
    80006398:	18813423          	sd	s0,392(sp)

000000008000639c <i_6143>:
    8000639c:	0e015483          	lhu	s1,224(sp)

00000000800063a0 <i_6144>:
    800063a0:	ee812403          	lw	s0,-280(sp)

00000000800063a4 <i_6145>:
    800063a4:	0c011403          	lh	s0,192(sp)

00000000800063a8 <i_6146>:
    800063a8:	03900d93          	li	s11,57

00000000800063ac <i_6147>:
    800063ac:	01b45e33          	srl	t3,s0,s11

00000000800063b0 <i_6148>:
    800063b0:	89400993          	li	s3,-1900

00000000800063b4 <i_6149>:
    800063b4:	89600213          	li	tp,-1898

00000000800063b8 <i_6150>:
    800063b8:	14811123          	sh	s0,322(sp)

00000000800063bc <i_6151>:
    800063bc:	b026c413          	xori	s0,a3,-1278

00000000800063c0 <i_6152>:
    800063c0:	f9611123          	sh	s6,-126(sp)

00000000800063c4 <i_6153>:
    800063c4:	81c00d93          	li	s11,-2020

00000000800063c8 <i_6154>:
    800063c8:	82700b13          	li	s6,-2009

00000000800063cc <i_6155>:
    800063cc:	001d8d93          	addi	s11,s11,1
    800063d0:	ffbb7ee3          	bleu	s11,s6,800063cc <i_6155>

00000000800063d4 <i_6156>:
    800063d4:	edb13c23          	sd	s11,-296(sp)

00000000800063d8 <i_6157>:
    800063d8:	39a04b37          	lui	s6,0x39a04

00000000800063dc <i_6158>:
    800063dc:	01e15403          	lhu	s0,30(sp)

00000000800063e0 <i_6159>:
    800063e0:	016e3e33          	sltu	t3,t3,s6

00000000800063e4 <i_6160>:
    800063e4:	004b5b13          	srli	s6,s6,0x4

00000000800063e8 <i_6161>:
    800063e8:	f2a14f03          	lbu	t5,-214(sp)

00000000800063ec <i_6162>:
    800063ec:	03cf0e3b          	mulw	t3,t5,t3

00000000800063f0 <i_6163>:
    800063f0:	00198993          	addi	s3,s3,1
    800063f4:	fc49e0e3          	bltu	s3,tp,800063b4 <i_6149>

00000000800063f8 <i_6164>:
    800063f8:	03bd9db3          	mulh	s11,s11,s11

00000000800063fc <i_6165>:
    800063fc:	07b11c23          	sh	s11,120(sp)

0000000080006400 <i_6166>:
    80006400:	e2c12d83          	lw	s11,-468(sp)

0000000080006404 <i_6167>:
    80006404:	01be6263          	bltu	t3,s11,80006408 <i_6168>

0000000080006408 <i_6168>:
    80006408:	401d5d13          	srai	s10,s10,0x1

000000008000640c <i_6169>:
    8000640c:	0e013a83          	ld	s5,224(sp)

0000000080006410 <i_6170>:
    80006410:	09512423          	sw	s5,136(sp)

0000000080006414 <i_6171>:
    80006414:	6e8db293          	sltiu	t0,s11,1768

0000000080006418 <i_6172>:
    80006418:	1d013d03          	ld	s10,464(sp)

000000008000641c <i_6173>:
    8000641c:	01adc263          	blt	s11,s10,80006420 <i_6174>

0000000080006420 <i_6174>:
    80006420:	8f51f193          	andi	gp,gp,-1803

0000000080006424 <i_6175>:
    80006424:	01c40c63          	beq	s0,t3,8000643c <i_6181>

0000000080006428 <i_6176>:
    80006428:	02b945bb          	divw	a1,s2,a1

000000008000642c <i_6177>:
    8000642c:	0236f463          	bleu	gp,a3,80006454 <i_6187>

0000000080006430 <i_6178>:
    80006430:	eeb13023          	sd	a1,-288(sp)

0000000080006434 <i_6179>:
    80006434:	e7813683          	ld	a3,-392(sp)

0000000080006438 <i_6180>:
    80006438:	02e6f063          	bleu	a4,a3,80006458 <i_6188>

000000008000643c <i_6181>:
    8000643c:	e6311523          	sh	gp,-406(sp)

0000000080006440 <i_6182>:
    80006440:	03be4463          	blt	t3,s11,80006468 <i_6192>

0000000080006444 <i_6183>:
    80006444:	0366db3b          	divuw	s6,a3,s6

0000000080006448 <i_6184>:
    80006448:	01e00293          	li	t0,30

000000008000644c <i_6185>:
    8000644c:	005dd53b          	srlw	a0,s11,t0

0000000080006450 <i_6186>:
    80006450:	0162e463          	bltu	t0,s6,80006458 <i_6188>

0000000080006454 <i_6187>:
    80006454:	f3c13c23          	sd	t3,-200(sp)

0000000080006458 <i_6188>:
    80006458:	f9b12c23          	sw	s11,-104(sp)

000000008000645c <i_6189>:
    8000645c:	f8b11023          	sh	a1,-128(sp)

0000000080006460 <i_6190>:
    80006460:	0252c5b3          	div	a1,t0,t0

0000000080006464 <i_6191>:
    80006464:	eca11283          	lh	t0,-310(sp)

0000000080006468 <i_6192>:
    80006468:	ffb13023          	sd	s11,-32(sp)

000000008000646c <i_6193>:
    8000646c:	12510b23          	sb	t0,310(sp)

0000000080006470 <i_6194>:
    80006470:	13215283          	lhu	t0,306(sp)

0000000080006474 <i_6195>:
    80006474:	e2528d93          	addi	s11,t0,-475

0000000080006478 <i_6196>:
    80006478:	01b2c263          	blt	t0,s11,8000647c <i_6197>

000000008000647c <i_6197>:
    8000647c:	0255c463          	blt	a1,t0,800064a4 <i_6207>

0000000080006480 <i_6198>:
    80006480:	00000013          	nop

0000000080006484 <i_6199>:
    80006484:	00000013          	nop

0000000080006488 <i_6200>:
    80006488:	6672fd93          	andi	s11,t0,1639

000000008000648c <i_6201>:
    8000648c:	f2c12a23          	sw	a2,-204(sp)

0000000080006490 <i_6202>:
    80006490:	08410d23          	sb	tp,154(sp)

0000000080006494 <i_6203>:
    80006494:	0a510483          	lb	s1,165(sp)

0000000080006498 <i_6204>:
    80006498:	00420233          	add	tp,tp,tp

000000008000649c <i_6205>:
    8000649c:	02623233          	mulhu	tp,tp,t1

00000000800064a0 <i_6206>:
    800064a0:	01d00493          	li	s1,29

00000000800064a4 <i_6207>:
    800064a4:	0095923b          	sllw	tp,a1,s1

00000000800064a8 <i_6208>:
    800064a8:	00000013          	nop

00000000800064ac <i_6209>:
    800064ac:	7f200293          	li	t0,2034

00000000800064b0 <i_6210>:
    800064b0:	7f900313          	li	t1,2041

00000000800064b4 <i_6211>:
    800064b4:	02425663          	ble	tp,tp,800064e0 <i_6221>

00000000800064b8 <i_6212>:
    800064b8:	0d110ca3          	sb	a7,217(sp)

00000000800064bc <i_6213>:
    800064bc:	18013583          	ld	a1,384(sp)

00000000800064c0 <i_6214>:
    800064c0:	00000013          	nop

00000000800064c4 <i_6215>:
    800064c4:	1485c613          	xori	a2,a1,328

00000000800064c8 <i_6216>:
    800064c8:	00467e63          	bleu	tp,a2,800064e4 <i_6222>

00000000800064cc <i_6217>:
    800064cc:	00128293          	addi	t0,t0,1
    800064d0:	fe62e2e3          	bltu	t0,t1,800064b4 <i_6211>

00000000800064d4 <i_6218>:
    800064d4:	00c669b3          	or	s3,a2,a2

00000000800064d8 <i_6219>:
    800064d8:	01a64463          	blt	a2,s10,800064e0 <i_6221>

00000000800064dc <i_6220>:
    800064dc:	02c5f463          	bleu	a2,a1,80006504 <i_6230>

00000000800064e0 <i_6221>:
    800064e0:	024d8063          	beq	s11,tp,80006500 <i_6229>

00000000800064e4 <i_6222>:
    800064e4:	e6a11603          	lh	a2,-406(sp)

00000000800064e8 <i_6223>:
    800064e8:	0099d263          	ble	s1,s3,800064ec <i_6224>

00000000800064ec <i_6224>:
    800064ec:	f1c11c83          	lh	s9,-228(sp)

00000000800064f0 <i_6225>:
    800064f0:	ff413c23          	sd	s4,-8(sp)

00000000800064f4 <i_6226>:
    800064f4:	e8813203          	ld	tp,-376(sp)

00000000800064f8 <i_6227>:
    800064f8:	75124213          	xori	tp,tp,1873

00000000800064fc <i_6228>:
    800064fc:	024235b3          	mulhu	a1,tp,tp

0000000080006500 <i_6229>:
    80006500:	0fe11c23          	sh	t5,248(sp)

0000000080006504 <i_6230>:
    80006504:	fb374293          	xori	t0,a4,-77

0000000080006508 <i_6231>:
    80006508:	01475863          	ble	s4,a4,80006518 <i_6235>

000000008000650c <i_6232>:
    8000650c:	f2412e23          	sw	tp,-196(sp)

0000000080006510 <i_6233>:
    80006510:	e5314083          	lbu	ra,-429(sp)

0000000080006514 <i_6234>:
    80006514:	40fa0d33          	sub	s10,s4,a5

0000000080006518 <i_6235>:
    80006518:	fba11783          	lh	a5,-70(sp)

000000008000651c <i_6236>:
    8000651c:	e6611603          	lh	a2,-410(sp)

0000000080006520 <i_6237>:
    80006520:	1da10323          	sb	s10,454(sp)

0000000080006524 <i_6238>:
    80006524:	e7412b83          	lw	s7,-396(sp)

0000000080006528 <i_6239>:
    80006528:	4047d61b          	sraiw	a2,a5,0x4

000000008000652c <i_6240>:
    8000652c:	02181263          	bne	a6,ra,80006550 <i_6249>

0000000080006530 <i_6241>:
    80006530:	0157f863          	bleu	s5,a5,80006540 <i_6245>

0000000080006534 <i_6242>:
    80006534:	14c14c03          	lbu	s8,332(sp)

0000000080006538 <i_6243>:
    80006538:	f3c10a03          	lb	s4,-196(sp)

000000008000653c <i_6244>:
    8000653c:	08413c23          	sd	tp,152(sp)

0000000080006540 <i_6245>:
    80006540:	00fa4263          	blt	s4,a5,80006544 <i_6246>

0000000080006544 <i_6246>:
    80006544:	01a64463          	blt	a2,s10,8000654c <i_6248>

0000000080006548 <i_6247>:
    80006548:	4012509b          	sraiw	ra,tp,0x1

000000008000654c <i_6248>:
    8000654c:	e7016483          	lwu	s1,-400(sp)

0000000080006550 <i_6249>:
    80006550:	0010c863          	blt	ra,ra,80006560 <i_6253>

0000000080006554 <i_6250>:
    80006554:	05813503          	ld	a0,88(sp)

0000000080006558 <i_6251>:
    80006558:	029083bb          	mulw	t2,ra,s1

000000008000655c <i_6252>:
    8000655c:	e7e11483          	lh	s1,-386(sp)

0000000080006560 <i_6253>:
    80006560:	02300313          	li	t1,35

0000000080006564 <i_6254>:
    80006564:	006490b3          	sll	ra,s1,t1

0000000080006568 <i_6255>:
    80006568:	00000013          	nop

000000008000656c <i_6256>:
    8000656c:	b57fc4b7          	lui	s1,0xb57fc

0000000080006570 <i_6257>:
    80006570:	74600a93          	li	s5,1862

0000000080006574 <i_6258>:
    80006574:	75100393          	li	t2,1873

0000000080006578 <i_6259>:
    80006578:	001a8a93          	addi	s5,s5,1 # 13811001 <main-0x6c7eefff>
    8000657c:	fe7a9ee3          	bne	s5,t2,80006578 <i_6259>

0000000080006580 <i_6260>:
    80006580:	e7512023          	sw	s5,-416(sp)

0000000080006584 <i_6261>:
    80006584:	fd014383          	lbu	t2,-48(sp)

0000000080006588 <i_6262>:
    80006588:	18913823          	sd	s1,400(sp)

000000008000658c <i_6263>:
    8000658c:	015aadb3          	slt	s11,s5,s5

0000000080006590 <i_6264>:
    80006590:	01b786b3          	add	a3,a5,s11

0000000080006594 <i_6265>:
    80006594:	e9813983          	ld	s3,-360(sp)

0000000080006598 <i_6266>:
    80006598:	0384ac33          	mulhsu	s8,s1,s8

000000008000659c <i_6267>:
    8000659c:	009dce63          	blt	s11,s1,800065b8 <i_6274>

00000000800065a0 <i_6268>:
    800065a0:	08711823          	sh	t2,144(sp)

00000000800065a4 <i_6269>:
    800065a4:	0b313823          	sd	s3,176(sp)

00000000800065a8 <i_6270>:
    800065a8:	f0412603          	lw	a2,-252(sp)

00000000800065ac <i_6271>:
    800065ac:	eb012503          	lw	a0,-336(sp)

00000000800065b0 <i_6272>:
    800065b0:	1c016d03          	lwu	s10,448(sp)

00000000800065b4 <i_6273>:
    800065b4:	02a5763b          	remuw	a2,a0,a0

00000000800065b8 <i_6274>:
    800065b8:	e6c13423          	sd	a2,-408(sp)

00000000800065bc <i_6275>:
    800065bc:	14d10503          	lb	a0,333(sp)

00000000800065c0 <i_6276>:
    800065c0:	84300393          	li	t2,-1981

00000000800065c4 <i_6277>:
    800065c4:	85200213          	li	tp,-1966

00000000800065c8 <i_6278>:
    800065c8:	13416a83          	lwu	s5,308(sp)

00000000800065cc <i_6279>:
    800065cc:	08c11603          	lh	a2,140(sp)

00000000800065d0 <i_6280>:
    800065d0:	00138393          	addi	t2,t2,1 # 97f4dc45 <_end+0x17f3d831>
    800065d4:	fe725ae3          	ble	t2,tp,800065c8 <i_6278>

00000000800065d8 <i_6281>:
    800065d8:	00000013          	nop

00000000800065dc <i_6282>:
    800065dc:	e2c10723          	sb	a2,-466(sp)

00000000800065e0 <i_6283>:
    800065e0:	7f300293          	li	t0,2035

00000000800065e4 <i_6284>:
    800065e4:	7fe00513          	li	a0,2046

00000000800065e8 <i_6285>:
    800065e8:	e8612423          	sw	t1,-376(sp)

00000000800065ec <i_6286>:
    800065ec:	039b4cb3          	div	s9,s6,s9

00000000800065f0 <i_6287>:
    800065f0:	036ce3b3          	rem	t2,s9,s6

00000000800065f4 <i_6288>:
    800065f4:	03b96063          	bltu	s2,s11,80006614 <i_6296>

00000000800065f8 <i_6289>:
    800065f8:	006b7863          	bleu	t1,s6,80006608 <i_6293>

00000000800065fc <i_6290>:
    800065fc:	019283b3          	add	t2,t0,s9

0000000080006600 <i_6291>:
    80006600:	0091ea63          	bltu	gp,s1,80006614 <i_6296>

0000000080006604 <i_6292>:
    80006604:	fb7c8593          	addi	a1,s9,-73

0000000080006608 <i_6293>:
    80006608:	027b7b3b          	remuw	s6,s6,t2

000000008000660c <i_6294>:
    8000660c:	00b13823          	sd	a1,16(sp)

0000000080006610 <i_6295>:
    80006610:	ed812403          	lw	s0,-296(sp)

0000000080006614 <i_6296>:
    80006614:	00000013          	nop

0000000080006618 <i_6297>:
    80006618:	00658b33          	add	s6,a1,t1

000000008000661c <i_6298>:
    8000661c:	00000013          	nop

0000000080006620 <i_6299>:
    80006620:	00128293          	addi	t0,t0,1
    80006624:	fc5572e3          	bleu	t0,a0,800065e8 <i_6285>

0000000080006628 <i_6300>:
    80006628:	17011583          	lh	a1,368(sp)

000000008000662c <i_6301>:
    8000662c:	19011083          	lh	ra,400(sp)

0000000080006630 <i_6302>:
    80006630:	12816383          	lwu	t2,296(sp)

0000000080006634 <i_6303>:
    80006634:	b423c413          	xori	s0,t2,-1214

0000000080006638 <i_6304>:
    80006638:	06310403          	lb	s0,99(sp)

000000008000663c <i_6305>:
    8000663c:	fcd106a3          	sb	a3,-51(sp)

0000000080006640 <i_6306>:
    80006640:	00000013          	nop

0000000080006644 <i_6307>:
    80006644:	78f00413          	li	s0,1935

0000000080006648 <i_6308>:
    80006648:	7a000a13          	li	s4,1952

000000008000664c <i_6309>:
    8000664c:	04111523          	sh	ra,74(sp)

0000000080006650 <i_6310>:
    80006650:	02641463          	bne	s0,t1,80006678 <i_6320>

0000000080006654 <i_6311>:
    80006654:	fac10383          	lb	t2,-84(sp)

0000000080006658 <i_6312>:
    80006658:	001a5c63          	ble	ra,s4,80006670 <i_6318>

000000008000665c <i_6313>:
    8000665c:	e1411f23          	sh	s4,-482(sp)

0000000080006660 <i_6314>:
    80006660:	eb211083          	lh	ra,-334(sp)

0000000080006664 <i_6315>:
    80006664:	02812d03          	lw	s10,40(sp)

0000000080006668 <i_6316>:
    80006668:	001e9a63          	bne	t4,ra,8000667c <i_6321>

000000008000666c <i_6317>:
    8000666c:	03a14c03          	lbu	s8,58(sp)

0000000080006670 <i_6318>:
    80006670:	ff812083          	lw	ra,-8(sp)

0000000080006674 <i_6319>:
    80006674:	021a5063          	ble	ra,s4,80006694 <i_6326>

0000000080006678 <i_6320>:
    80006678:	03409063          	bne	ra,s4,80006698 <i_6327>

000000008000667c <i_6321>:
    8000667c:	41408ab3          	sub	s5,ra,s4

0000000080006680 <i_6322>:
    80006680:	00b00e13          	li	t3,11

0000000080006684 <i_6323>:
    80006684:	41ca54b3          	sra	s1,s4,t3

0000000080006688 <i_6324>:
    80006688:	00140413          	addi	s0,s0,1
    8000668c:	fd4440e3          	blt	s0,s4,8000664c <i_6309>

0000000080006690 <i_6325>:
    80006690:	ff314a83          	lbu	s5,-13(sp)

0000000080006694 <i_6326>:
    80006694:	0d015583          	lhu	a1,208(sp)

0000000080006698 <i_6327>:
    80006698:	029dc833          	div	a6,s11,s1

000000008000669c <i_6328>:
    8000669c:	18614583          	lbu	a1,390(sp)

00000000800066a0 <i_6329>:
    800066a0:	72a00b13          	li	s6,1834

00000000800066a4 <i_6330>:
    800066a4:	73e00e13          	li	t3,1854

00000000800066a8 <i_6331>:
    800066a8:	16013483          	ld	s1,352(sp)

00000000800066ac <i_6332>:
    800066ac:	16913423          	sd	s1,360(sp)

00000000800066b0 <i_6333>:
    800066b0:	fb011a03          	lh	s4,-80(sp)

00000000800066b4 <i_6334>:
    800066b4:	001b0b13          	addi	s6,s6,1 # 39a04001 <main-0x465fbfff>
    800066b8:	ffcb48e3          	blt	s6,t3,800066a8 <i_6331>

00000000800066bc <i_6335>:
    800066bc:	02148063          	beq	s1,ra,800066dc <i_6343>

00000000800066c0 <i_6336>:
    800066c0:	00b4da63          	ble	a1,s1,800066d4 <i_6341>

00000000800066c4 <i_6337>:
    800066c4:	1cc11083          	lh	ra,460(sp)

00000000800066c8 <i_6338>:
    800066c8:	0140da63          	ble	s4,ra,800066dc <i_6343>

00000000800066cc <i_6339>:
    800066cc:	41408d33          	sub	s10,ra,s4

00000000800066d0 <i_6340>:
    800066d0:	005e5863          	ble	t0,t3,800066e0 <i_6344>

00000000800066d4 <i_6341>:
    800066d4:	08816603          	lwu	a2,136(sp)

00000000800066d8 <i_6342>:
    800066d8:	ee913023          	sd	s1,-288(sp)

00000000800066dc <i_6343>:
    800066dc:	f5a12423          	sw	s10,-184(sp)

00000000800066e0 <i_6344>:
    800066e0:	00000013          	nop

00000000800066e4 <i_6345>:
    800066e4:	45dd0613          	addi	a2,s10,1117

00000000800066e8 <i_6346>:
    800066e8:	83d00d13          	li	s10,-1987

00000000800066ec <i_6347>:
    800066ec:	84700213          	li	tp,-1977

00000000800066f0 <i_6348>:
    800066f0:	e294aa13          	slti	s4,s1,-471

00000000800066f4 <i_6349>:
    800066f4:	014a1263          	bne	s4,s4,800066f8 <i_6350>

00000000800066f8 <i_6350>:
    800066f8:	10813e03          	ld	t3,264(sp)

00000000800066fc <i_6351>:
    800066fc:	014e22b3          	slt	t0,t3,s4

0000000080006700 <i_6352>:
    80006700:	0a513c23          	sd	t0,184(sp)

0000000080006704 <i_6353>:
    80006704:	001d0d13          	addi	s10,s10,1
    80006708:	ffa274e3          	bleu	s10,tp,800066f0 <i_6348>

000000008000670c <i_6354>:
    8000670c:	41e5053b          	subw	a0,a0,t5

0000000080006710 <i_6355>:
    80006710:	0a013483          	ld	s1,160(sp)

0000000080006714 <i_6356>:
    80006714:	0375453b          	divw	a0,a0,s7

0000000080006718 <i_6357>:
    80006718:	4035551b          	sraiw	a0,a0,0x3

000000008000671c <i_6358>:
    8000671c:	1cd13423          	sd	a3,456(sp)

0000000080006720 <i_6359>:
    80006720:	0a016503          	lwu	a0,160(sp)

0000000080006724 <i_6360>:
    80006724:	e6a12a23          	sw	a0,-396(sp)

0000000080006728 <i_6361>:
    80006728:	0de14203          	lbu	tp,222(sp)

000000008000672c <i_6362>:
    8000672c:	e8813683          	ld	a3,-376(sp)

0000000080006730 <i_6363>:
    80006730:	004225b3          	slt	a1,tp,tp

0000000080006734 <i_6364>:
    80006734:	02f00b13          	li	s6,47

0000000080006738 <i_6365>:
    80006738:	0161d433          	srl	s0,gp,s6

000000008000673c <i_6366>:
    8000673c:	88900a13          	li	s4,-1911

0000000080006740 <i_6367>:
    80006740:	88d00e93          	li	t4,-1907

0000000080006744 <i_6368>:
    80006744:	f2914c03          	lbu	s8,-215(sp)

0000000080006748 <i_6369>:
    80006748:	07811503          	lh	a0,120(sp)

000000008000674c <i_6370>:
    8000674c:	fcb11f23          	sh	a1,-34(sp)

0000000080006750 <i_6371>:
    80006750:	001a0a13          	addi	s4,s4,1
    80006754:	ff4ef6e3          	bleu	s4,t4,80006740 <i_6367>

0000000080006758 <i_6372>:
    80006758:	eea13423          	sd	a0,-280(sp)

000000008000675c <i_6373>:
    8000675c:	f9c16a83          	lwu	s5,-100(sp)

0000000080006760 <i_6374>:
    80006760:	008ee263          	bltu	t4,s0,80006764 <i_6375>

0000000080006764 <i_6375>:
    80006764:	036a6063          	bltu	s4,s6,80006784 <i_6383>

0000000080006768 <i_6376>:
    80006768:	11613023          	sd	s6,256(sp)

000000008000676c <i_6377>:
    8000676c:	00000013          	nop

0000000080006770 <i_6378>:
    80006770:	00000013          	nop

0000000080006774 <i_6379>:
    80006774:	02400313          	li	t1,36

0000000080006778 <i_6380>:
    80006778:	006a5533          	srl	a0,s4,t1

000000008000677c <i_6381>:
    8000677c:	f2b13023          	sd	a1,-224(sp)

0000000080006780 <i_6382>:
    80006780:	fec16f03          	lwu	t5,-20(sp)

0000000080006784 <i_6383>:
    80006784:	f2011783          	lh	a5,-224(sp)

0000000080006788 <i_6384>:
    80006788:	f2a11983          	lh	s3,-214(sp)

000000008000678c <i_6385>:
    8000678c:	81c00213          	li	tp,-2020

0000000080006790 <i_6386>:
    80006790:	82300b13          	li	s6,-2013

0000000080006794 <i_6387>:
    80006794:	00120213          	addi	tp,tp,1 # 1 <main-0x7fffffff>
    80006798:	fe4b5ee3          	ble	tp,s6,80006794 <i_6387>

000000008000679c <i_6388>:
    8000679c:	1b510983          	lb	s3,437(sp)

00000000800067a0 <i_6389>:
    800067a0:	04810983          	lb	s3,72(sp)

00000000800067a4 <i_6390>:
    800067a4:	0199f863          	bleu	s9,s3,800067b4 <i_6394>

00000000800067a8 <i_6391>:
    800067a8:	4fc98193          	addi	gp,s3,1276

00000000800067ac <i_6392>:
    800067ac:	01e00993          	li	s3,30

00000000800067b0 <i_6393>:
    800067b0:	01321233          	sll	tp,tp,s3

00000000800067b4 <i_6394>:
    800067b4:	00499663          	bne	s3,tp,800067c0 <i_6397>

00000000800067b8 <i_6395>:
    800067b8:	fe3108a3          	sb	gp,-15(sp)

00000000800067bc <i_6396>:
    800067bc:	0139ec63          	bltu	s3,s3,800067d4 <i_6402>

00000000800067c0 <i_6397>:
    800067c0:	16410e23          	sb	tp,380(sp)

00000000800067c4 <i_6398>:
    800067c4:	fa318a93          	addi	s5,gp,-93 # e96c00b <main-0x71693ff5>

00000000800067c8 <i_6399>:
    800067c8:	0159c9b3          	xor	s3,s3,s5

00000000800067cc <i_6400>:
    800067cc:	1c412b03          	lw	s6,452(sp)

00000000800067d0 <i_6401>:
    800067d0:	15011283          	lh	t0,336(sp)

00000000800067d4 <i_6402>:
    800067d4:	00600c13          	li	s8,6

00000000800067d8 <i_6403>:
    800067d8:	01825ebb          	srlw	t4,tp,s8

00000000800067dc <i_6404>:
    800067dc:	0d013a03          	ld	s4,208(sp)

00000000800067e0 <i_6405>:
    800067e0:	e6013083          	ld	ra,-416(sp)

00000000800067e4 <i_6406>:
    800067e4:	018eedb3          	or	s11,t4,s8

00000000800067e8 <i_6407>:
    800067e8:	fc112a23          	sw	ra,-44(sp)

00000000800067ec <i_6408>:
    800067ec:	17714a03          	lbu	s4,375(sp)

00000000800067f0 <i_6409>:
    800067f0:	03dde463          	bltu	s11,t4,80006818 <i_6419>

00000000800067f4 <i_6410>:
    800067f4:	018aca63          	blt	s5,s8,80006808 <i_6415>

00000000800067f8 <i_6411>:
    800067f8:	edb11123          	sh	s11,-318(sp)

00000000800067fc <i_6412>:
    800067fc:	0d011b03          	lh	s6,208(sp)

0000000080006800 <i_6413>:
    80006800:	0f816403          	lwu	s0,248(sp)

0000000080006804 <i_6414>:
    80006804:	41de8b33          	sub	s6,t4,t4

0000000080006808 <i_6415>:
    80006808:	05311e23          	sh	s3,92(sp)

000000008000680c <i_6416>:
    8000680c:	0b813d03          	ld	s10,184(sp)

0000000080006810 <i_6417>:
    80006810:	008b2e33          	slt	t3,s6,s0

0000000080006814 <i_6418>:
    80006814:	cb5e2a13          	slti	s4,t3,-843

0000000080006818 <i_6419>:
    80006818:	016a5e63          	ble	s6,s4,80006834 <i_6426>

000000008000681c <i_6420>:
    8000681c:	f98100a3          	sb	s8,-127(sp)

0000000080006820 <i_6421>:
    80006820:	0ff14c03          	lbu	s8,255(sp)

0000000080006824 <i_6422>:
    80006824:	028b0463          	beq	s6,s0,8000684c <i_6432>

0000000080006828 <i_6423>:
    80006828:	09816c83          	lwu	s9,152(sp)

000000008000682c <i_6424>:
    8000682c:	036cdb3b          	divuw	s6,s9,s6

0000000080006830 <i_6425>:
    80006830:	402b5b93          	srai	s7,s6,0x2

0000000080006834 <i_6426>:
    80006834:	073b3b93          	sltiu	s7,s6,115

0000000080006838 <i_6427>:
    80006838:	02eb93b3          	mulh	t2,s7,a4

000000008000683c <i_6428>:
    8000683c:	017bd463          	ble	s7,s7,80006844 <i_6430>

0000000080006840 <i_6429>:
    80006840:	ec014b03          	lbu	s6,-320(sp)

0000000080006844 <i_6430>:
    80006844:	027cf263          	bleu	t2,s9,80006868 <i_6439>

0000000080006848 <i_6431>:
    80006848:	0184fb33          	and	s6,s1,s8

000000008000684c <i_6432>:
    8000684c:	07412c03          	lw	s8,116(sp)

0000000080006850 <i_6433>:
    80006850:	2eaf0f13          	addi	t5,t5,746

0000000080006854 <i_6434>:
    80006854:	00746263          	bltu	s0,t2,80006858 <i_6435>

0000000080006858 <i_6435>:
    80006858:	e7e11123          	sh	t5,-414(sp)

000000008000685c <i_6436>:
    8000685c:	f7e14f03          	lbu	t5,-130(sp)

0000000080006860 <i_6437>:
    80006860:	f9013e83          	ld	t4,-112(sp)

0000000080006864 <i_6438>:
    80006864:	04010c03          	lb	s8,64(sp)

0000000080006868 <i_6439>:
    80006868:	f9415f03          	lhu	t5,-108(sp)

000000008000686c <i_6440>:
    8000686c:	01ef3f33          	sltu	t5,t5,t5

0000000080006870 <i_6441>:
    80006870:	03ed4b3b          	divw	s6,s10,t5

0000000080006874 <i_6442>:
    80006874:	07e11e23          	sh	t5,124(sp)

0000000080006878 <i_6443>:
    80006878:	03ef5b33          	divu	s6,t5,t5

000000008000687c <i_6444>:
    8000687c:	02814403          	lbu	s0,40(sp)

0000000080006880 <i_6445>:
    80006880:	17d11123          	sh	t4,354(sp)

0000000080006884 <i_6446>:
    80006884:	07a11983          	lh	s3,122(sp)

0000000080006888 <i_6447>:
    80006888:	12d14303          	lbu	t1,301(sp)

000000008000688c <i_6448>:
    8000688c:	03db6b33          	rem	s6,s6,t4

0000000080006890 <i_6449>:
    80006890:	004f1a1b          	slliw	s4,t5,0x4

0000000080006894 <i_6450>:
    80006894:	ee813e83          	ld	t4,-280(sp)

0000000080006898 <i_6451>:
    80006898:	18011283          	lh	t0,384(sp)

000000008000689c <i_6452>:
    8000689c:	02ab0463          	beq	s6,a0,800068c4 <i_6462>

00000000800068a0 <i_6453>:
    800068a0:	00100e93          	li	t4,1

00000000800068a4 <i_6454>:
    800068a4:	41da553b          	sraw	a0,s4,t4

00000000800068a8 <i_6455>:
    800068a8:	f4814a03          	lbu	s4,-184(sp)

00000000800068ac <i_6456>:
    800068ac:	fca10423          	sb	a0,-56(sp)

00000000800068b0 <i_6457>:
    800068b0:	00aa6663          	bltu	s4,a0,800068bc <i_6460>

00000000800068b4 <i_6458>:
    800068b4:	40a2853b          	subw	a0,t0,a0

00000000800068b8 <i_6459>:
    800068b8:	01655663          	ble	s6,a0,800068c4 <i_6462>

00000000800068bc <i_6460>:
    800068bc:	004eda13          	srli	s4,t4,0x4

00000000800068c0 <i_6461>:
    800068c0:	f1d11a23          	sh	t4,-236(sp)

00000000800068c4 <i_6462>:
    800068c4:	f2813a03          	ld	s4,-216(sp)

00000000800068c8 <i_6463>:
    800068c8:	034a0063          	beq	s4,s4,800068e8 <i_6471>

00000000800068cc <i_6464>:
    800068cc:	011a4c63          	blt	s4,a7,800068e4 <i_6470>

00000000800068d0 <i_6465>:
    800068d0:	005a1c63          	bne	s4,t0,800068e8 <i_6471>

00000000800068d4 <i_6466>:
    800068d4:	0344643b          	remw	s0,s0,s4

00000000800068d8 <i_6467>:
    800068d8:	0024529b          	srliw	t0,s0,0x2

00000000800068dc <i_6468>:
    800068dc:	09411623          	sh	s4,140(sp)

00000000800068e0 <i_6469>:
    800068e0:	098109a3          	sb	s8,147(sp)

00000000800068e4 <i_6470>:
    800068e4:	04812a03          	lw	s4,72(sp)

00000000800068e8 <i_6471>:
    800068e8:	04c15e83          	lhu	t4,76(sp)

00000000800068ec <i_6472>:
    800068ec:	e7d13423          	sd	t4,-408(sp)

00000000800068f0 <i_6473>:
    800068f0:	ea015e83          	lhu	t4,-352(sp)

00000000800068f4 <i_6474>:
    800068f4:	edd10523          	sb	t4,-310(sp)

00000000800068f8 <i_6475>:
    800068f8:	ffd13023          	sd	t4,-32(sp)

00000000800068fc <i_6476>:
    800068fc:	03deaeb3          	mulhsu	t4,t4,t4

0000000080006900 <i_6477>:
    80006900:	00ee8233          	add	tp,t4,a4

0000000080006904 <i_6478>:
    80006904:	bcfeae93          	slti	t4,t4,-1073

0000000080006908 <i_6479>:
    80006908:	03dec9b3          	div	s3,t4,t4

000000008000690c <i_6480>:
    8000690c:	4049df1b          	sraiw	t5,s3,0x4

0000000080006910 <i_6481>:
    80006910:	01ee8c63          	beq	t4,t5,80006928 <i_6487>

0000000080006914 <i_6482>:
    80006914:	f9e12e23          	sw	t5,-100(sp)

0000000080006918 <i_6483>:
    80006918:	03d13023          	sd	t4,32(sp)

000000008000691c <i_6484>:
    8000691c:	17d104a3          	sb	t4,361(sp)

0000000080006920 <i_6485>:
    80006920:	00e6beb3          	sltu	t4,a3,a4

0000000080006924 <i_6486>:
    80006924:	e3909f17          	auipc	t5,0xe3909

0000000080006928 <i_6487>:
    80006928:	f3313423          	sd	s3,-216(sp)

000000008000692c <i_6488>:
    8000692c:	004ef863          	bleu	tp,t4,8000693c <i_6492>

0000000080006930 <i_6489>:
    80006930:	01eec263          	blt	t4,t5,80006934 <i_6490>

0000000080006934 <i_6490>:
    80006934:	0dd13423          	sd	t4,200(sp)

0000000080006938 <i_6491>:
    80006938:	f0816e83          	lwu	t4,-248(sp)

000000008000693c <i_6492>:
    8000693c:	07c14083          	lbu	ra,124(sp)

0000000080006940 <i_6493>:
    80006940:	01d00e93          	li	t4,29

0000000080006944 <i_6494>:
    80006944:	01dedebb          	srlw	t4,t4,t4

0000000080006948 <i_6495>:
    80006948:	03dc7f33          	remu	t5,s8,t4

000000008000694c <i_6496>:
    8000694c:	013e9e63          	bne	t4,s3,80006968 <i_6503>

0000000080006950 <i_6497>:
    80006950:	004f0a63          	beq	t5,tp,80006964 <i_6502>

0000000080006954 <i_6498>:
    80006954:	dba9e993          	ori	s3,s3,-582

0000000080006958 <i_6499>:
    80006958:	09e15f03          	lhu	t5,158(sp)

000000008000695c <i_6500>:
    8000695c:	fb3109a3          	sb	s3,-77(sp)

0000000080006960 <i_6501>:
    80006960:	0fe12e23          	sw	t5,252(sp)

0000000080006964 <i_6502>:
    80006964:	41eb0b33          	sub	s6,s6,t5

0000000080006968 <i_6503>:
    80006968:	016f0263          	beq	t5,s6,8000696c <i_6504>

000000008000696c <i_6504>:
    8000696c:	033c7263          	bleu	s3,s8,80006990 <i_6513>

0000000080006970 <i_6505>:
    80006970:	13e13023          	sd	t5,288(sp)

0000000080006974 <i_6506>:
    80006974:	00000013          	nop

0000000080006978 <i_6507>:
    80006978:	40bc05bb          	subw	a1,s8,a1

000000008000697c <i_6508>:
    8000697c:	ec611c03          	lh	s8,-314(sp)

0000000080006980 <i_6509>:
    80006980:	19e10283          	lb	t0,414(sp)

0000000080006984 <i_6510>:
    80006984:	00000013          	nop

0000000080006988 <i_6511>:
    80006988:	405c0ebb          	subw	t4,s8,t0

000000008000698c <i_6512>:
    8000698c:	00000013          	nop

0000000080006990 <i_6513>:
    80006990:	00000013          	nop

0000000080006994 <i_6514>:
    80006994:	f1c13823          	sd	t3,-240(sp)

0000000080006998 <i_6515>:
    80006998:	8bd00e13          	li	t3,-1859

000000008000699c <i_6516>:
    8000699c:	8c300213          	li	tp,-1853

00000000800069a0 <i_6517>:
    800069a0:	00be6263          	bltu	t3,a1,800069a4 <i_6518>

00000000800069a4 <i_6518>:
    800069a4:	0dc16c83          	lwu	s9,220(sp)

00000000800069a8 <i_6519>:
    800069a8:	001ecc33          	xor	s8,t4,ra

00000000800069ac <i_6520>:
    800069ac:	08813c03          	ld	s8,136(sp)

00000000800069b0 <i_6521>:
    800069b0:	03de16b3          	mulh	a3,t3,t4

00000000800069b4 <i_6522>:
    800069b4:	038c033b          	mulw	t1,s8,s8

00000000800069b8 <i_6523>:
    800069b8:	768eee93          	ori	t4,t4,1896

00000000800069bc <i_6524>:
    800069bc:	04613823          	sd	t1,80(sp)

00000000800069c0 <i_6525>:
    800069c0:	f7011803          	lh	a6,-144(sp)

00000000800069c4 <i_6526>:
    800069c4:	001e0e13          	addi	t3,t3,1 # ffffffff876ab001 <_end+0xffffffff0769abed>
    800069c8:	fc4e1ce3          	bne	t3,tp,800069a0 <i_6517>

00000000800069cc <i_6527>:
    800069cc:	00680e63          	beq	a6,t1,800069e8 <i_6534>

00000000800069d0 <i_6528>:
    800069d0:	0302cebb          	divw	t4,t0,a6

00000000800069d4 <i_6529>:
    800069d4:	03300793          	li	a5,51

00000000800069d8 <i_6530>:
    800069d8:	00f857b3          	srl	a5,a6,a5

00000000800069dc <i_6531>:
    800069dc:	f3d12c23          	sw	t4,-200(sp)

00000000800069e0 <i_6532>:
    800069e0:	03a86813          	ori	a6,a6,58

00000000800069e4 <i_6533>:
    800069e4:	b592d9b7          	lui	s3,0xb592d

00000000800069e8 <i_6534>:
    800069e8:	1ad80793          	addi	a5,a6,429

00000000800069ec <i_6535>:
    800069ec:	17813783          	ld	a5,376(sp)

00000000800069f0 <i_6536>:
    800069f0:	eb415503          	lhu	a0,-332(sp)

00000000800069f4 <i_6537>:
    800069f4:	00a79663          	bne	a5,a0,80006a00 <i_6540>

00000000800069f8 <i_6538>:
    800069f8:	1b615d03          	lhu	s10,438(sp)

00000000800069fc <i_6539>:
    800069fc:	00199a1b          	slliw	s4,s3,0x1

0000000080006a00 <i_6540>:
    80006a00:	f3a12423          	sw	s10,-216(sp)

0000000080006a04 <i_6541>:
    80006a04:	00fd47b3          	xor	a5,s10,a5

0000000080006a08 <i_6542>:
    80006a08:	70726213          	ori	tp,tp,1799

0000000080006a0c <i_6543>:
    80006a0c:	00000013          	nop

0000000080006a10 <i_6544>:
    80006a10:	1e310783          	lb	a5,483(sp)

0000000080006a14 <i_6545>:
    80006a14:	81f00813          	li	a6,-2017

0000000080006a18 <i_6546>:
    80006a18:	82400093          	li	ra,-2012

0000000080006a1c <i_6547>:
    80006a1c:	02481cb3          	mulh	s9,a6,tp

0000000080006a20 <i_6548>:
    80006a20:	00000013          	nop

0000000080006a24 <i_6549>:
    80006a24:	030d7d3b          	remuw	s10,s10,a6

0000000080006a28 <i_6550>:
    80006a28:	039bbbb3          	mulhu	s7,s7,s9

0000000080006a2c <i_6551>:
    80006a2c:	b5dca593          	slti	a1,s9,-1187

0000000080006a30 <i_6552>:
    80006a30:	0c416c83          	lwu	s9,196(sp)

0000000080006a34 <i_6553>:
    80006a34:	02b58663          	beq	a1,a1,80006a60 <i_6563>

0000000080006a38 <i_6554>:
    80006a38:	0030de9b          	srliw	t4,ra,0x3

0000000080006a3c <i_6555>:
    80006a3c:	11211383          	lh	t2,274(sp)

0000000080006a40 <i_6556>:
    80006a40:	03813683          	ld	a3,56(sp)

0000000080006a44 <i_6557>:
    80006a44:	00180813          	addi	a6,a6,1
    80006a48:	fd00dae3          	ble	a6,ra,80006a1c <i_6547>

0000000080006a4c <i_6558>:
    80006a4c:	e4812583          	lw	a1,-440(sp)

0000000080006a50 <i_6559>:
    80006a50:	021580bb          	mulw	ra,a1,ra

0000000080006a54 <i_6560>:
    80006a54:	1a513823          	sd	t0,432(sp)

0000000080006a58 <i_6561>:
    80006a58:	00b6c663          	blt	a3,a1,80006a64 <i_6564>

0000000080006a5c <i_6562>:
    80006a5c:	0015ec63          	bltu	a1,ra,80006a74 <i_6568>

0000000080006a60 <i_6563>:
    80006a60:	e4016083          	lwu	ra,-448(sp)

0000000080006a64 <i_6564>:
    80006a64:	06080813          	addi	a6,a6,96

0000000080006a68 <i_6565>:
    80006a68:	00000013          	nop

0000000080006a6c <i_6566>:
    80006a6c:	00000013          	nop

0000000080006a70 <i_6567>:
    80006a70:	f3f14803          	lbu	a6,-193(sp)

0000000080006a74 <i_6568>:
    80006a74:	00000013          	nop

0000000080006a78 <i_6569>:
    80006a78:	1d411d23          	sh	s4,474(sp)

0000000080006a7c <i_6570>:
    80006a7c:	8be00093          	li	ra,-1858

0000000080006a80 <i_6571>:
    80006a80:	8d200a13          	li	s4,-1838

0000000080006a84 <i_6572>:
    80006a84:	f3013803          	ld	a6,-208(sp)

0000000080006a88 <i_6573>:
    80006a88:	01a10803          	lb	a6,26(sp)

0000000080006a8c <i_6574>:
    80006a8c:	01286663          	bltu	a6,s2,80006a98 <i_6577>

0000000080006a90 <i_6575>:
    80006a90:	f6816803          	lwu	a6,-152(sp)

0000000080006a94 <i_6576>:
    80006a94:	03082533          	mulhsu	a0,a6,a6

0000000080006a98 <i_6577>:
    80006a98:	b5083b93          	sltiu	s7,a6,-1200

0000000080006a9c <i_6578>:
    80006a9c:	00000013          	nop

0000000080006aa0 <i_6579>:
    80006aa0:	01081e63          	bne	a6,a6,80006abc <i_6585>

0000000080006aa4 <i_6580>:
    80006aa4:	00000013          	nop

0000000080006aa8 <i_6581>:
    80006aa8:	00108093          	addi	ra,ra,1
    80006aac:	fd40ece3          	bltu	ra,s4,80006a84 <i_6572>

0000000080006ab0 <i_6582>:
    80006ab0:	14c82813          	slti	a6,a6,332

0000000080006ab4 <i_6583>:
    80006ab4:	01087a63          	bleu	a6,a6,80006ac8 <i_6588>

0000000080006ab8 <i_6584>:
    80006ab8:	009bdc63          	ble	s1,s7,80006ad0 <i_6590>

0000000080006abc <i_6585>:
    80006abc:	01046c63          	bltu	s0,a6,80006ad4 <i_6591>

0000000080006ac0 <i_6586>:
    80006ac0:	07013c23          	sd	a6,120(sp)

0000000080006ac4 <i_6587>:
    80006ac4:	12614083          	lbu	ra,294(sp)

0000000080006ac8 <i_6588>:
    80006ac8:	f7612223          	sw	s6,-156(sp)

0000000080006acc <i_6589>:
    80006acc:	02100493          	li	s1,33

0000000080006ad0 <i_6590>:
    80006ad0:	0094d2b3          	srl	t0,s1,s1

0000000080006ad4 <i_6591>:
    80006ad4:	05a11a03          	lh	s4,90(sp)

0000000080006ad8 <i_6592>:
    80006ad8:	00a00b93          	li	s7,10

0000000080006adc <i_6593>:
    80006adc:	0176df33          	srl	t5,a3,s7

0000000080006ae0 <i_6594>:
    80006ae0:	7a700313          	li	t1,1959

0000000080006ae4 <i_6595>:
    80006ae4:	7a900213          	li	tp,1961

0000000080006ae8 <i_6596>:
    80006ae8:	1d012c03          	lw	s8,464(sp)

0000000080006aec <i_6597>:
    80006aec:	0388ea33          	rem	s4,a7,s8

0000000080006af0 <i_6598>:
    80006af0:	018a4a33          	xor	s4,s4,s8

0000000080006af4 <i_6599>:
    80006af4:	0e411c23          	sh	tp,248(sp)

0000000080006af8 <i_6600>:
    80006af8:	017bc263          	blt	s7,s7,80006afc <i_6601>

0000000080006afc <i_6601>:
    80006afc:	1d416c03          	lwu	s8,468(sp)

0000000080006b00 <i_6602>:
    80006b00:	014c7863          	bleu	s4,s8,80006b10 <i_6606>

0000000080006b04 <i_6603>:
    80006b04:	038c5663          	ble	s8,s8,80006b30 <i_6613>

0000000080006b08 <i_6604>:
    80006b08:	fd615183          	lhu	gp,-42(sp)

0000000080006b0c <i_6605>:
    80006b0c:	023c5a3b          	divuw	s4,s8,gp

0000000080006b10 <i_6606>:
    80006b10:	03827c33          	remu	s8,tp,s8

0000000080006b14 <i_6607>:
    80006b14:	04a15c03          	lhu	s8,74(sp)

0000000080006b18 <i_6608>:
    80006b18:	00130313          	addi	t1,t1,1
    80006b1c:	fc6254e3          	ble	t1,tp,80006ae4 <i_6595>

0000000080006b20 <i_6609>:
    80006b20:	010aeab3          	or	s5,s5,a6

0000000080006b24 <i_6610>:
    80006b24:	0e811e83          	lh	t4,232(sp)

0000000080006b28 <i_6611>:
    80006b28:	00d00e93          	li	t4,13

0000000080006b2c <i_6612>:
    80006b2c:	01dd5c33          	srl	s8,s10,t4

0000000080006b30 <i_6613>:
    80006b30:	03858c3b          	mulw	s8,a1,s8

0000000080006b34 <i_6614>:
    80006b34:	03546263          	bltu	s0,s5,80006b58 <i_6623>

0000000080006b38 <i_6615>:
    80006b38:	038ef063          	bleu	s8,t4,80006b58 <i_6623>

0000000080006b3c <i_6616>:
    80006b3c:	03400c93          	li	s9,52

0000000080006b40 <i_6617>:
    80006b40:	019cd2b3          	srl	t0,s9,s9

0000000080006b44 <i_6618>:
    80006b44:	4032d813          	srai	a6,t0,0x3

0000000080006b48 <i_6619>:
    80006b48:	10c14c83          	lbu	s9,268(sp)

0000000080006b4c <i_6620>:
    80006b4c:	130101a3          	sb	a6,291(sp)

0000000080006b50 <i_6621>:
    80006b50:	01480cb3          	add	s9,a6,s4

0000000080006b54 <i_6622>:
    80006b54:	039c86b3          	mul	a3,s9,s9

0000000080006b58 <i_6623>:
    80006b58:	10214c83          	lbu	s9,258(sp)

0000000080006b5c <i_6624>:
    80006b5c:	1cc12a03          	lw	s4,460(sp)

0000000080006b60 <i_6625>:
    80006b60:	73200e93          	li	t4,1842

0000000080006b64 <i_6626>:
    80006b64:	74600b93          	li	s7,1862

0000000080006b68 <i_6627>:
    80006b68:	2e5d8d93          	addi	s11,s11,741

0000000080006b6c <i_6628>:
    80006b6c:	039de463          	bltu	s11,s9,80006b94 <i_6637>

0000000080006b70 <i_6629>:
    80006b70:	0016d69b          	srliw	a3,a3,0x1

0000000080006b74 <i_6630>:
    80006b74:	eb812a03          	lw	s4,-328(sp)

0000000080006b78 <i_6631>:
    80006b78:	00369b13          	slli	s6,a3,0x3

0000000080006b7c <i_6632>:
    80006b7c:	01ccc6b3          	xor	a3,s9,t3

0000000080006b80 <i_6633>:
    80006b80:	001e8e93          	addi	t4,t4,1 # 1b09c0bd <main-0x64f63f43>
    80006b84:	ff7ee2e3          	bltu	t4,s7,80006b68 <i_6627>

0000000080006b88 <i_6634>:
    80006b88:	039b42b3          	div	t0,s6,s9

0000000080006b8c <i_6635>:
    80006b8c:	f9415803          	lhu	a6,-108(sp)

0000000080006b90 <i_6636>:
    80006b90:	025b2b33          	mulhsu	s6,s6,t0

0000000080006b94 <i_6637>:
    80006b94:	0302c463          	blt	t0,a6,80006bbc <i_6647>

0000000080006b98 <i_6638>:
    80006b98:	01684263          	blt	a6,s6,80006b9c <i_6639>

0000000080006b9c <i_6639>:
    80006b9c:	00000013          	nop

0000000080006ba0 <i_6640>:
    80006ba0:	11114b03          	lbu	s6,273(sp)

0000000080006ba4 <i_6641>:
    80006ba4:	03b00213          	li	tp,59

0000000080006ba8 <i_6642>:
    80006ba8:	004b1b33          	sll	s6,s6,tp

0000000080006bac <i_6643>:
    80006bac:	03f3a3b3          	mulhsu	t2,t2,t6

0000000080006bb0 <i_6644>:
    80006bb0:	00000013          	nop

0000000080006bb4 <i_6645>:
    80006bb4:	ff910e03          	lb	t3,-7(sp)

0000000080006bb8 <i_6646>:
    80006bb8:	c473cb13          	xori	s6,t2,-953

0000000080006bbc <i_6647>:
    80006bbc:	fb813a83          	ld	s5,-72(sp)

0000000080006bc0 <i_6648>:
    80006bc0:	e82d5197          	auipc	gp,0xe82d5

0000000080006bc4 <i_6649>:
    80006bc4:	79f00313          	li	t1,1951

0000000080006bc8 <i_6650>:
    80006bc8:	7b200293          	li	t0,1970

0000000080006bcc <i_6651>:
    80006bcc:	f5814b03          	lbu	s6,-168(sp)

0000000080006bd0 <i_6652>:
    80006bd0:	08412183          	lw	gp,132(sp)

0000000080006bd4 <i_6653>:
    80006bd4:	a169a993          	slti	s3,s3,-1514

0000000080006bd8 <i_6654>:
    80006bd8:	013f4263          	blt	t5,s3,80006bdc <i_6655>

0000000080006bdc <i_6655>:
    80006bdc:	01399263          	bne	s3,s3,80006be0 <i_6656>

0000000080006be0 <i_6656>:
    80006be0:	604a81b7          	lui	gp,0x604a8

0000000080006be4 <i_6657>:
    80006be4:	03519263          	bne	gp,s5,80006c08 <i_6665>

0000000080006be8 <i_6658>:
    80006be8:	00130313          	addi	t1,t1,1
    80006bec:	fe62f0e3          	bleu	t1,t0,80006bcc <i_6651>

0000000080006bf0 <i_6659>:
    80006bf0:	02f997b3          	mulh	a5,s3,a5

0000000080006bf4 <i_6660>:
    80006bf4:	00f7e263          	bltu	a5,a5,80006bf8 <i_6661>

0000000080006bf8 <i_6661>:
    80006bf8:	8e87b793          	sltiu	a5,a5,-1816

0000000080006bfc <i_6662>:
    80006bfc:	0307d833          	divu	a6,a5,a6

0000000080006c00 <i_6663>:
    80006c00:	0337e063          	bltu	a5,s3,80006c20 <i_6671>

0000000080006c04 <i_6664>:
    80006c04:	0bb10ea3          	sb	s11,189(sp)

0000000080006c08 <i_6665>:
    80006c08:	fe013783          	ld	a5,-32(sp)

0000000080006c0c <i_6666>:
    80006c0c:	f7b11023          	sh	s11,-160(sp)

0000000080006c10 <i_6667>:
    80006c10:	1f013023          	sd	a6,480(sp)

0000000080006c14 <i_6668>:
    80006c14:	00000013          	nop

0000000080006c18 <i_6669>:
    80006c18:	1b011123          	sh	a6,418(sp)

0000000080006c1c <i_6670>:
    80006c1c:	002c5c1b          	srliw	s8,s8,0x2

0000000080006c20 <i_6671>:
    80006c20:	13010ba3          	sb	a6,311(sp)

0000000080006c24 <i_6672>:
    80006c24:	030c74b3          	remu	s1,s8,a6

0000000080006c28 <i_6673>:
    80006c28:	76400813          	li	a6,1892

0000000080006c2c <i_6674>:
    80006c2c:	77300d93          	li	s11,1907

0000000080006c30 <i_6675>:
    80006c30:	ea912223          	sw	s1,-348(sp)

0000000080006c34 <i_6676>:
    80006c34:	05812223          	sw	s8,68(sp)

0000000080006c38 <i_6677>:
    80006c38:	010dee63          	bltu	s11,a6,80006c54 <i_6683>

0000000080006c3c <i_6678>:
    80006c3c:	fca10123          	sb	a0,-62(sp)

0000000080006c40 <i_6679>:
    80006c40:	00180813          	addi	a6,a6,1
    80006c44:	ffb846e3          	blt	a6,s11,80006c30 <i_6675>

0000000080006c48 <i_6680>:
    80006c48:	e7811223          	sh	s8,-412(sp)

0000000080006c4c <i_6681>:
    80006c4c:	00149c1b          	slliw	s8,s1,0x1

0000000080006c50 <i_6682>:
    80006c50:	00957863          	bleu	s1,a0,80006c60 <i_6686>

0000000080006c54 <i_6683>:
    80006c54:	01cd8c33          	add	s8,s11,t3

0000000080006c58 <i_6684>:
    80006c58:	f8611483          	lh	s1,-122(sp)

0000000080006c5c <i_6685>:
    80006c5c:	75d15c17          	auipc	s8,0x75d15

0000000080006c60 <i_6686>:
    80006c60:	00dc7c63          	bleu	a3,s8,80006c78 <i_6692>

0000000080006c64 <i_6687>:
    80006c64:	01ec0c63          	beq	s8,t5,80006c7c <i_6693>

0000000080006c68 <i_6688>:
    80006c68:	41ac0c33          	sub	s8,s8,s10

0000000080006c6c <i_6689>:
    80006c6c:	12013283          	ld	t0,288(sp)

0000000080006c70 <i_6690>:
    80006c70:	f8410403          	lb	s0,-124(sp)

0000000080006c74 <i_6691>:
    80006c74:	03840833          	mul	a6,s0,s8

0000000080006c78 <i_6692>:
    80006c78:	4089883b          	subw	a6,s3,s0

0000000080006c7c <i_6693>:
    80006c7c:	f0a15b03          	lhu	s6,-246(sp)

0000000080006c80 <i_6694>:
    80006c80:	00000013          	nop

0000000080006c84 <i_6695>:
    80006c84:	83000d13          	li	s10,-2000

0000000080006c88 <i_6696>:
    80006c88:	83500c13          	li	s8,-1995

0000000080006c8c <i_6697>:
    80006c8c:	00429263          	bne	t0,tp,80006c90 <i_6698>

0000000080006c90 <i_6698>:
    80006c90:	07811f23          	sh	s8,126(sp)

0000000080006c94 <i_6699>:
    80006c94:	ea811803          	lh	a6,-344(sp)

0000000080006c98 <i_6700>:
    80006c98:	0028129b          	slliw	t0,a6,0x2

0000000080006c9c <i_6701>:
    80006c9c:	001d0d13          	addi	s10,s10,1
    80006ca0:	ff8d16e3          	bne	s10,s8,80006c8c <i_6697>

0000000080006ca4 <i_6702>:
    80006ca4:	00a00813          	li	a6,10

0000000080006ca8 <i_6703>:
    80006ca8:	4102db33          	sra	s6,t0,a6

0000000080006cac <i_6704>:
    80006cac:	18c14b03          	lbu	s6,396(sp)

0000000080006cb0 <i_6705>:
    80006cb0:	06f14483          	lbu	s1,111(sp)

0000000080006cb4 <i_6706>:
    80006cb4:	ff411803          	lh	a6,-12(sp)

0000000080006cb8 <i_6707>:
    80006cb8:	e6912823          	sw	s1,-400(sp)

0000000080006cbc <i_6708>:
    80006cbc:	fd813083          	ld	ra,-40(sp)

0000000080006cc0 <i_6709>:
    80006cc0:	03a2c263          	blt	t0,s10,80006ce4 <i_6718>

0000000080006cc4 <i_6710>:
    80006cc4:	ee112e23          	sw	ra,-260(sp)

0000000080006cc8 <i_6711>:
    80006cc8:	00813803          	ld	a6,8(sp)

0000000080006ccc <i_6712>:
    80006ccc:	01714803          	lbu	a6,23(sp)

0000000080006cd0 <i_6713>:
    80006cd0:	0089b9b3          	sltu	s3,s3,s0

0000000080006cd4 <i_6714>:
    80006cd4:	e1d10e83          	lb	t4,-483(sp)

0000000080006cd8 <i_6715>:
    80006cd8:	10a10a03          	lb	s4,266(sp)

0000000080006cdc <i_6716>:
    80006cdc:	01d13423          	sd	t4,8(sp)

0000000080006ce0 <i_6717>:
    80006ce0:	13c10203          	lb	tp,316(sp)

0000000080006ce4 <i_6718>:
    80006ce4:	17d13c23          	sd	t4,376(sp)

0000000080006ce8 <i_6719>:
    80006ce8:	00000013          	nop

0000000080006cec <i_6720>:
    80006cec:	82400413          	li	s0,-2012

0000000080006cf0 <i_6721>:
    80006cf0:	83600293          	li	t0,-1994

0000000080006cf4 <i_6722>:
    80006cf4:	e7813b83          	ld	s7,-392(sp)

0000000080006cf8 <i_6723>:
    80006cf8:	f4a15b03          	lhu	s6,-182(sp)

0000000080006cfc <i_6724>:
    80006cfc:	19815303          	lhu	t1,408(sp)

0000000080006d00 <i_6725>:
    80006d00:	02121663          	bne	tp,ra,80006d2c <i_6735>

0000000080006d04 <i_6726>:
    80006d04:	1b710523          	sb	s7,426(sp)

0000000080006d08 <i_6727>:
    80006d08:	00140413          	addi	s0,s0,1
    80006d0c:	fe5444e3          	blt	s0,t0,80006cf4 <i_6722>

0000000080006d10 <i_6728>:
    80006d10:	00130c63          	beq	t1,ra,80006d28 <i_6734>

0000000080006d14 <i_6729>:
    80006d14:	00530eb3          	add	t4,t1,t0

0000000080006d18 <i_6730>:
    80006d18:	014a4c63          	blt	s4,s4,80006d30 <i_6736>

0000000080006d1c <i_6731>:
    80006d1c:	0369fa33          	remu	s4,s3,s6

0000000080006d20 <i_6732>:
    80006d20:	00499393          	slli	t2,s3,0x4

0000000080006d24 <i_6733>:
    80006d24:	00424c63          	blt	tp,tp,80006d3c <i_6739>

0000000080006d28 <i_6734>:
    80006d28:	013989b3          	add	s3,s3,s3

0000000080006d2c <i_6735>:
    80006d2c:	0243f23b          	remuw	tp,t2,tp

0000000080006d30 <i_6736>:
    80006d30:	02720063          	beq	tp,t2,80006d50 <i_6744>

0000000080006d34 <i_6737>:
    80006d34:	67b28297          	auipc	t0,0x67b28

0000000080006d38 <i_6738>:
    80006d38:	13416503          	lwu	a0,308(sp)

0000000080006d3c <i_6739>:
    80006d3c:	ea412a23          	sw	tp,-332(sp)

0000000080006d40 <i_6740>:
    80006d40:	0049fa63          	bleu	tp,s3,80006d54 <i_6745>

0000000080006d44 <i_6741>:
    80006d44:	01c00c13          	li	s8,28

0000000080006d48 <i_6742>:
    80006d48:	41845bbb          	sraw	s7,s0,s8

0000000080006d4c <i_6743>:
    80006d4c:	41cdb437          	lui	s0,0x41cdb

0000000080006d50 <i_6744>:
    80006d50:	00000013          	nop

0000000080006d54 <i_6745>:
    80006d54:	00812c23          	sw	s0,24(sp)

0000000080006d58 <i_6746>:
    80006d58:	5120f7b7          	lui	a5,0x5120f

0000000080006d5c <i_6747>:
    80006d5c:	7d500b13          	li	s6,2005

0000000080006d60 <i_6748>:
    80006d60:	7e800293          	li	t0,2024

0000000080006d64 <i_6749>:
    80006d64:	01200993          	li	s3,18

0000000080006d68 <i_6750>:
    80006d68:	41345d3b          	sraw	s10,s0,s3

0000000080006d6c <i_6751>:
    80006d6c:	404d5b93          	srai	s7,s10,0x4

0000000080006d70 <i_6752>:
    80006d70:	00f9f263          	bleu	a5,s3,80006d74 <i_6753>

0000000080006d74 <i_6753>:
    80006d74:	f6d10983          	lb	s3,-147(sp)

0000000080006d78 <i_6754>:
    80006d78:	015b1263          	bne	s6,s5,80006d7c <i_6755>

0000000080006d7c <i_6755>:
    80006d7c:	01a39263          	bne	t2,s10,80006d80 <i_6756>

0000000080006d80 <i_6756>:
    80006d80:	4037d213          	srai	tp,a5,0x3

0000000080006d84 <i_6757>:
    80006d84:	036161bb          	remw	gp,sp,s6

0000000080006d88 <i_6758>:
    80006d88:	001b0b13          	addi	s6,s6,1
    80006d8c:	fd62dce3          	ble	s6,t0,80006d64 <i_6749>

0000000080006d90 <i_6759>:
    80006d90:	0169e9b3          	or	s3,s3,s6

0000000080006d94 <i_6760>:
    80006d94:	0e513423          	sd	t0,232(sp)

0000000080006d98 <i_6761>:
    80006d98:	0a813083          	ld	ra,168(sp)

0000000080006d9c <i_6762>:
    80006d9c:	8bf00993          	li	s3,-1857

0000000080006da0 <i_6763>:
    80006da0:	8c900313          	li	t1,-1847

0000000080006da4 <i_6764>:
    80006da4:	f5211283          	lh	t0,-174(sp)

0000000080006da8 <i_6765>:
    80006da8:	02529663          	bne	t0,t0,80006dd4 <i_6775>

0000000080006dac <i_6766>:
    80006dac:	ec110623          	sb	ra,-308(sp)

0000000080006db0 <i_6767>:
    80006db0:	00000013          	nop

0000000080006db4 <i_6768>:
    80006db4:	22680f1b          	addiw	t5,a6,550

0000000080006db8 <i_6769>:
    80006db8:	005f5c63          	ble	t0,t5,80006dd0 <i_6774>

0000000080006dbc <i_6770>:
    80006dbc:	00000013          	nop

0000000080006dc0 <i_6771>:
    80006dc0:	00198993          	addi	s3,s3,1 # ffffffffb592d001 <_end+0xffffffff3591cbed>
    80006dc4:	ff3350e3          	ble	s3,t1,80006da4 <i_6764>

0000000080006dc8 <i_6772>:
    80006dc8:	1c112623          	sw	ra,460(sp)

0000000080006dcc <i_6773>:
    80006dcc:	01f00293          	li	t0,31

0000000080006dd0 <i_6774>:
    80006dd0:	405f533b          	sraw	t1,t5,t0

0000000080006dd4 <i_6775>:
    80006dd4:	15010283          	lb	t0,336(sp)

0000000080006dd8 <i_6776>:
    80006dd8:	18812303          	lw	t1,392(sp)

0000000080006ddc <i_6777>:
    80006ddc:	00636333          	or	t1,t1,t1

0000000080006de0 <i_6778>:
    80006de0:	1e615303          	lhu	t1,486(sp)

0000000080006de4 <i_6779>:
    80006de4:	f0812483          	lw	s1,-248(sp)

0000000080006de8 <i_6780>:
    80006de8:	08311a23          	sh	gp,148(sp)

0000000080006dec <i_6781>:
    80006dec:	02934463          	blt	t1,s1,80006e14 <i_6791>

0000000080006df0 <i_6782>:
    80006df0:	11c14303          	lbu	t1,284(sp)

0000000080006df4 <i_6783>:
    80006df4:	fa911623          	sh	s1,-84(sp)

0000000080006df8 <i_6784>:
    80006df8:	02235eb3          	divu	t4,t1,sp

0000000080006dfc <i_6785>:
    80006dfc:	03b35263          	ble	s11,t1,80006e20 <i_6794>

0000000080006e00 <i_6786>:
    80006e00:	ec613423          	sd	t1,-312(sp)

0000000080006e04 <i_6787>:
    80006e04:	0c016303          	lwu	t1,192(sp)

0000000080006e08 <i_6788>:
    80006e08:	403ddc13          	srai	s8,s11,0x3

0000000080006e0c <i_6789>:
    80006e0c:	11210303          	lb	t1,274(sp)

0000000080006e10 <i_6790>:
    80006e10:	fa8c0313          	addi	t1,s8,-88 # f5d1bc04 <_end+0x75d0b7f0>

0000000080006e14 <i_6791>:
    80006e14:	00000013          	nop

0000000080006e18 <i_6792>:
    80006e18:	00000013          	nop

0000000080006e1c <i_6793>:
    80006e1c:	00ac4cb3          	xor	s9,s8,a0

0000000080006e20 <i_6794>:
    80006e20:	e9910623          	sb	s9,-372(sp)

0000000080006e24 <i_6795>:
    80006e24:	f6610aa3          	sb	t1,-139(sp)

0000000080006e28 <i_6796>:
    80006e28:	75300d13          	li	s10,1875

0000000080006e2c <i_6797>:
    80006e2c:	76700513          	li	a0,1895

0000000080006e30 <i_6798>:
    80006e30:	13c10c03          	lb	s8,316(sp)

0000000080006e34 <i_6799>:
    80006e34:	731cc313          	xori	t1,s9,1841

0000000080006e38 <i_6800>:
    80006e38:	001d0d13          	addi	s10,s10,1
    80006e3c:	fead6ae3          	bltu	s10,a0,80006e30 <i_6798>

0000000080006e40 <i_6801>:
    80006e40:	01911523          	sh	s9,10(sp)

0000000080006e44 <i_6802>:
    80006e44:	038c6cb3          	rem	s9,s8,s8

0000000080006e48 <i_6803>:
    80006e48:	19412c83          	lw	s9,404(sp)

0000000080006e4c <i_6804>:
    80006e4c:	02681833          	mulh	a6,a6,t1

0000000080006e50 <i_6805>:
    80006e50:	75500e93          	li	t4,1877

0000000080006e54 <i_6806>:
    80006e54:	75a00b93          	li	s7,1882

0000000080006e58 <i_6807>:
    80006e58:	0f813603          	ld	a2,248(sp)

0000000080006e5c <i_6808>:
    80006e5c:	14c11803          	lh	a6,332(sp)

0000000080006e60 <i_6809>:
    80006e60:	0ac11423          	sh	a2,168(sp)

0000000080006e64 <i_6810>:
    80006e64:	fce11603          	lh	a2,-50(sp)

0000000080006e68 <i_6811>:
    80006e68:	76400813          	li	a6,1892

0000000080006e6c <i_6812>:
    80006e6c:	77800313          	li	t1,1912

0000000080006e70 <i_6813>:
    80006e70:	00180813          	addi	a6,a6,1
    80006e74:	fe684ee3          	blt	a6,t1,80006e70 <i_6813>

0000000080006e78 <i_6814>:
    80006e78:	10c11b23          	sh	a2,278(sp)

0000000080006e7c <i_6815>:
    80006e7c:	fd412203          	lw	tp,-44(sp)

0000000080006e80 <i_6816>:
    80006e80:	00225c93          	srli	s9,tp,0x2

0000000080006e84 <i_6817>:
    80006e84:	001e8e93          	addi	t4,t4,1
    80006e88:	fddbf8e3          	bleu	t4,s7,80006e58 <i_6807>

0000000080006e8c <i_6818>:
    80006e8c:	00a00593          	li	a1,10

0000000080006e90 <i_6819>:
    80006e90:	00b6563b          	srlw	a2,a2,a1

0000000080006e94 <i_6820>:
    80006e94:	00c62633          	slt	a2,a2,a2

0000000080006e98 <i_6821>:
    80006e98:	04416603          	lwu	a2,68(sp)

0000000080006e9c <i_6822>:
    80006e9c:	f4c11023          	sh	a2,-192(sp)

0000000080006ea0 <i_6823>:
    80006ea0:	4015d193          	srai	gp,a1,0x1

0000000080006ea4 <i_6824>:
    80006ea4:	00bae2b3          	or	t0,s5,a1

0000000080006ea8 <i_6825>:
    80006ea8:	00b2c263          	blt	t0,a1,80006eac <i_6826>

0000000080006eac <i_6826>:
    80006eac:	001b1b13          	slli	s6,s6,0x1

0000000080006eb0 <i_6827>:
    80006eb0:	00000013          	nop

0000000080006eb4 <i_6828>:
    80006eb4:	8cf00993          	li	s3,-1841

0000000080006eb8 <i_6829>:
    80006eb8:	8df00293          	li	t0,-1825

0000000080006ebc <i_6830>:
    80006ebc:	f6013a03          	ld	s4,-160(sp)

0000000080006ec0 <i_6831>:
    80006ec0:	0259feb3          	remu	t4,s3,t0

0000000080006ec4 <i_6832>:
    80006ec4:	fe310e03          	lb	t3,-29(sp)

0000000080006ec8 <i_6833>:
    80006ec8:	003484b3          	add	s1,s1,gp

0000000080006ecc <i_6834>:
    80006ecc:	15613c23          	sd	s6,344(sp)

0000000080006ed0 <i_6835>:
    80006ed0:	05e11783          	lh	a5,94(sp)

0000000080006ed4 <i_6836>:
    80006ed4:	e5812483          	lw	s1,-424(sp)

0000000080006ed8 <i_6837>:
    80006ed8:	f8910ca3          	sb	s1,-103(sp)

0000000080006edc <i_6838>:
    80006edc:	09813483          	ld	s1,152(sp)

0000000080006ee0 <i_6839>:
    80006ee0:	00198993          	addi	s3,s3,1
    80006ee4:	fc59ece3          	bltu	s3,t0,80006ebc <i_6830>

0000000080006ee8 <i_6840>:
    80006ee8:	11310783          	lb	a5,275(sp)

0000000080006eec <i_6841>:
    80006eec:	f8911523          	sh	s1,-118(sp)

0000000080006ef0 <i_6842>:
    80006ef0:	00349493          	slli	s1,s1,0x3

0000000080006ef4 <i_6843>:
    80006ef4:	e5412183          	lw	gp,-428(sp)

0000000080006ef8 <i_6844>:
    80006ef8:	01200493          	li	s1,18

0000000080006efc <i_6845>:
    80006efc:	4094dab3          	sra	s5,s1,s1

0000000080006f00 <i_6846>:
    80006f00:	015ad863          	ble	s5,s5,80006f10 <i_6850>

0000000080006f04 <i_6847>:
    80006f04:	e6b10a83          	lb	s5,-405(sp)

0000000080006f08 <i_6848>:
    80006f08:	0d415a83          	lhu	s5,212(sp)

0000000080006f0c <i_6849>:
    80006f0c:	011afa63          	bleu	a7,s5,80006f20 <i_6854>

0000000080006f10 <i_6850>:
    80006f10:	13011283          	lh	t0,304(sp)

0000000080006f14 <i_6851>:
    80006f14:	18911923          	sh	s1,402(sp)

0000000080006f18 <i_6852>:
    80006f18:	0299f463          	bleu	s1,s3,80006f40 <i_6862>

0000000080006f1c <i_6853>:
    80006f1c:	00a00093          	li	ra,10

0000000080006f20 <i_6854>:
    80006f20:	001a92bb          	sllw	t0,s5,ra

0000000080006f24 <i_6855>:
    80006f24:	00010203          	lb	tp,0(sp)

0000000080006f28 <i_6856>:
    80006f28:	12913823          	sd	s1,304(sp)

0000000080006f2c <i_6857>:
    80006f2c:	0f215d03          	lhu	s10,242(sp)

0000000080006f30 <i_6858>:
    80006f30:	08013083          	ld	ra,128(sp)

0000000080006f34 <i_6859>:
    80006f34:	ea411423          	sh	tp,-344(sp)

0000000080006f38 <i_6860>:
    80006f38:	01f0d263          	ble	t6,ra,80006f3c <i_6861>

0000000080006f3c <i_6861>:
    80006f3c:	f7a13423          	sd	s10,-152(sp)

0000000080006f40 <i_6862>:
    80006f40:	03a7c7bb          	divw	a5,a5,s10

0000000080006f44 <i_6863>:
    80006f44:	02f3f3b3          	remu	t2,t2,a5

0000000080006f48 <i_6864>:
    80006f48:	0ac16383          	lwu	t2,172(sp)

0000000080006f4c <i_6865>:
    80006f4c:	02fde43b          	remw	s0,s11,a5

0000000080006f50 <i_6866>:
    80006f50:	0146f6b3          	and	a3,a3,s4

0000000080006f54 <i_6867>:
    80006f54:	e3412a23          	sw	s4,-460(sp)

0000000080006f58 <i_6868>:
    80006f58:	15416a03          	lwu	s4,340(sp)

0000000080006f5c <i_6869>:
    80006f5c:	13b13c23          	sd	s11,312(sp)

0000000080006f60 <i_6870>:
    80006f60:	00944463          	blt	s0,s1,80006f68 <i_6872>

0000000080006f64 <i_6871>:
    80006f64:	1d412483          	lw	s1,468(sp)

0000000080006f68 <i_6872>:
    80006f68:	7e26ad13          	slti	s10,a3,2018

0000000080006f6c <i_6873>:
    80006f6c:	01a68463          	beq	a3,s10,80006f74 <i_6875>

0000000080006f70 <i_6874>:
    80006f70:	009082b3          	add	t0,ra,s1

0000000080006f74 <i_6875>:
    80006f74:	02d11423          	sh	a3,40(sp)

0000000080006f78 <i_6876>:
    80006f78:	11610983          	lb	s3,278(sp)

0000000080006f7c <i_6877>:
    80006f7c:	4014d413          	srai	s0,s1,0x1

0000000080006f80 <i_6878>:
    80006f80:	005400b3          	add	ra,s0,t0

0000000080006f84 <i_6879>:
    80006f84:	41342293          	slti	t0,s0,1043

0000000080006f88 <i_6880>:
    80006f88:	fa113023          	sd	ra,-96(sp)

0000000080006f8c <i_6881>:
    80006f8c:	00000013          	nop

0000000080006f90 <i_6882>:
    80006f90:	8b600b93          	li	s7,-1866

0000000080006f94 <i_6883>:
    80006f94:	8bd00e93          	li	t4,-1859

0000000080006f98 <i_6884>:
    80006f98:	001b8b93          	addi	s7,s7,1
    80006f9c:	ff7edee3          	ble	s7,t4,80006f98 <i_6884>

0000000080006fa0 <i_6885>:
    80006fa0:	fe511d23          	sh	t0,-6(sp)

0000000080006fa4 <i_6886>:
    80006fa4:	fd711223          	sh	s7,-60(sp)

0000000080006fa8 <i_6887>:
    80006fa8:	18016b83          	lwu	s7,384(sp)

0000000080006fac <i_6888>:
    80006fac:	18815983          	lhu	s3,392(sp)

0000000080006fb0 <i_6889>:
    80006fb0:	78b00e93          	li	t4,1931

0000000080006fb4 <i_6890>:
    80006fb4:	79f00293          	li	t0,1951

0000000080006fb8 <i_6891>:
    80006fb8:	001ed81b          	srliw	a6,t4,0x1

0000000080006fbc <i_6892>:
    80006fbc:	09a11303          	lh	t1,154(sp)

0000000080006fc0 <i_6893>:
    80006fc0:	ef812b83          	lw	s7,-264(sp)

0000000080006fc4 <i_6894>:
    80006fc4:	07d12023          	sw	t4,96(sp)

0000000080006fc8 <i_6895>:
    80006fc8:	00680263          	beq	a6,t1,80006fcc <i_6896>

0000000080006fcc <i_6896>:
    80006fcc:	017bf263          	bleu	s7,s7,80006fd0 <i_6897>

0000000080006fd0 <i_6897>:
    80006fd0:	e47b8c13          	addi	s8,s7,-441

0000000080006fd4 <i_6898>:
    80006fd4:	410e04b3          	sub	s1,t3,a6

0000000080006fd8 <i_6899>:
    80006fd8:	e6010d03          	lb	s10,-416(sp)

0000000080006fdc <i_6900>:
    80006fdc:	011be4b3          	or	s1,s7,a7

0000000080006fe0 <i_6901>:
    80006fe0:	001e8e93          	addi	t4,t4,1
    80006fe4:	fc5eeae3          	bltu	t4,t0,80006fb8 <i_6891>

0000000080006fe8 <i_6902>:
    80006fe8:	01500a13          	li	s4,21

0000000080006fec <i_6903>:
    80006fec:	414c533b          	sraw	t1,s8,s4

0000000080006ff0 <i_6904>:
    80006ff0:	009dd263          	ble	s1,s11,80006ff4 <i_6905>

0000000080006ff4 <i_6905>:
    80006ff4:	e7a107a3          	sb	s10,-401(sp)

0000000080006ff8 <i_6906>:
    80006ff8:	ea813b83          	ld	s7,-344(sp)

0000000080006ffc <i_6907>:
    80006ffc:	1c913423          	sd	s1,456(sp)

0000000080007000 <i_6908>:
    80007000:	0a610a23          	sb	t1,180(sp)

0000000080007004 <i_6909>:
    80007004:	18710923          	sb	t2,402(sp)

0000000080007008 <i_6910>:
    80007008:	038359bb          	divuw	s3,t1,s8

000000008000700c <i_6911>:
    8000700c:	02edd9b3          	divu	s3,s11,a4

0000000080007010 <i_6912>:
    80007010:	00bbe5b3          	or	a1,s7,a1

0000000080007014 <i_6913>:
    80007014:	0344ea33          	rem	s4,s1,s4

0000000080007018 <i_6914>:
    80007018:	026bf333          	remu	t1,s7,t1

000000008000701c <i_6915>:
    8000701c:	339d2e13          	slti	t3,s10,825

0000000080007020 <i_6916>:
    80007020:	f6813303          	ld	t1,-152(sp)

0000000080007024 <i_6917>:
    80007024:	006e1863          	bne	t3,t1,80007034 <i_6921>

0000000080007028 <i_6918>:
    80007028:	e7c12a23          	sw	t3,-396(sp)

000000008000702c <i_6919>:
    8000702c:	f5e10e03          	lb	t3,-162(sp)

0000000080007030 <i_6920>:
    80007030:	01ce4e33          	xor	t3,t3,t3

0000000080007034 <i_6921>:
    80007034:	004e1a13          	slli	s4,t3,0x4

0000000080007038 <i_6922>:
    80007038:	00000013          	nop

000000008000703c <i_6923>:
    8000703c:	81b00313          	li	t1,-2021

0000000080007040 <i_6924>:
    80007040:	82100413          	li	s0,-2015

0000000080007044 <i_6925>:
    80007044:	00161e13          	slli	t3,a2,0x1

0000000080007048 <i_6926>:
    80007048:	03de4463          	blt	t3,t4,80007070 <i_6936>

000000008000704c <i_6927>:
    8000704c:	f8a10183          	lb	gp,-118(sp)

0000000080007050 <i_6928>:
    80007050:	0bc11723          	sh	t3,174(sp)

0000000080007054 <i_6929>:
    80007054:	401cd213          	srai	tp,s9,0x1

0000000080007058 <i_6930>:
    80007058:	fe210383          	lb	t2,-30(sp)

000000008000705c <i_6931>:
    8000705c:	fa410da3          	sb	tp,-69(sp)

0000000080007060 <i_6932>:
    80007060:	f9016583          	lwu	a1,-112(sp)

0000000080007064 <i_6933>:
    80007064:	19c12e03          	lw	t3,412(sp)

0000000080007068 <i_6934>:
    80007068:	09911523          	sh	s9,138(sp)

000000008000706c <i_6935>:
    8000706c:	18c16583          	lwu	a1,396(sp)

0000000080007070 <i_6936>:
    80007070:	e4813583          	ld	a1,-440(sp)

0000000080007074 <i_6937>:
    80007074:	00000013          	nop

0000000080007078 <i_6938>:
    80007078:	00130313          	addi	t1,t1,1
    8000707c:	fc6474e3          	bleu	t1,s0,80007044 <i_6925>

0000000080007080 <i_6939>:
    80007080:	1cb13823          	sd	a1,464(sp)

0000000080007084 <i_6940>:
    80007084:	f3812583          	lw	a1,-200(sp)

0000000080007088 <i_6941>:
    80007088:	02b5c5bb          	divw	a1,a1,a1

000000008000708c <i_6942>:
    8000708c:	00b11f23          	sh	a1,30(sp)

0000000080007090 <i_6943>:
    80007090:	12d14483          	lbu	s1,301(sp)

0000000080007094 <i_6944>:
    80007094:	e1c16c83          	lwu	s9,-484(sp)

0000000080007098 <i_6945>:
    80007098:	0e911823          	sh	s1,240(sp)

000000008000709c <i_6946>:
    8000709c:	00b58ab3          	add	s5,a1,a1

00000000800070a0 <i_6947>:
    800070a0:	eec11023          	sh	a2,-288(sp)

00000000800070a4 <i_6948>:
    800070a4:	00e00313          	li	t1,14

00000000800070a8 <i_6949>:
    800070a8:	006a95bb          	sllw	a1,s5,t1

00000000800070ac <i_6950>:
    800070ac:	0415a593          	slti	a1,a1,65

00000000800070b0 <i_6951>:
    800070b0:	00b11a23          	sh	a1,20(sp)

00000000800070b4 <i_6952>:
    800070b4:	01f35863          	ble	t6,t1,800070c4 <i_6956>

00000000800070b8 <i_6953>:
    800070b8:	40f307b3          	sub	a5,t1,a5

00000000800070bc <i_6954>:
    800070bc:	0265f5bb          	remuw	a1,a1,t1

00000000800070c0 <i_6955>:
    800070c0:	f6412583          	lw	a1,-156(sp)

00000000800070c4 <i_6956>:
    800070c4:	0027da13          	srli	s4,a5,0x2

00000000800070c8 <i_6957>:
    800070c8:	2715f493          	andi	s1,a1,625

00000000800070cc <i_6958>:
    800070cc:	85300593          	li	a1,-1965

00000000800070d0 <i_6959>:
    800070d0:	85e00693          	li	a3,-1954

00000000800070d4 <i_6960>:
    800070d4:	16d11123          	sh	a3,354(sp)

00000000800070d8 <i_6961>:
    800070d8:	0377d7bb          	divuw	a5,a5,s7

00000000800070dc <i_6962>:
    800070dc:	00fdc633          	xor	a2,s11,a5

00000000800070e0 <i_6963>:
    800070e0:	02f61463          	bne	a2,a5,80007108 <i_6972>

00000000800070e4 <i_6964>:
    800070e4:	00813783          	ld	a5,8(sp)

00000000800070e8 <i_6965>:
    800070e8:	00f64263          	blt	a2,a5,800070ec <i_6966>

00000000800070ec <i_6966>:
    800070ec:	07512023          	sw	s5,96(sp)

00000000800070f0 <i_6967>:
    800070f0:	01b64c63          	blt	a2,s11,80007108 <i_6972>

00000000800070f4 <i_6968>:
    800070f4:	02f79463          	bne	a5,a5,8000711c <i_6977>

00000000800070f8 <i_6969>:
    800070f8:	00158593          	addi	a1,a1,1 # e238001 <main-0x71dc7fff>
    800070fc:	fcb6fce3          	bleu	a1,a3,800070d4 <i_6960>

0000000080007100 <i_6970>:
    80007100:	f4016603          	lwu	a2,-192(sp)

0000000080007104 <i_6971>:
    80007104:	00f7d663          	ble	a5,a5,80007110 <i_6974>

0000000080007108 <i_6972>:
    80007108:	f9c12483          	lw	s1,-100(sp)

000000008000710c <i_6973>:
    8000710c:	02c657b3          	divu	a5,a2,a2

0000000080007110 <i_6974>:
    80007110:	efe10603          	lb	a2,-258(sp)

0000000080007114 <i_6975>:
    80007114:	0299e263          	bltu	s3,s1,80007138 <i_6984>

0000000080007118 <i_6976>:
    80007118:	0227c463          	blt	a5,sp,80007140 <i_6986>

000000008000711c <i_6977>:
    8000711c:	18013503          	ld	a0,384(sp)

0000000080007120 <i_6978>:
    80007120:	f0413823          	sd	tp,-240(sp)

0000000080007124 <i_6979>:
    80007124:	01300993          	li	s3,19

0000000080007128 <i_6980>:
    80007128:	013ddabb          	srlw	s5,s11,s3

000000008000712c <i_6981>:
    8000712c:	f1815a83          	lhu	s5,-232(sp)

0000000080007130 <i_6982>:
    80007130:	e4f11a23          	sh	a5,-428(sp)

0000000080007134 <i_6983>:
    80007134:	01100193          	li	gp,17

0000000080007138 <i_6984>:
    80007138:	403ad43b          	sraw	s0,s5,gp

000000008000713c <i_6985>:
    8000713c:	15811683          	lh	a3,344(sp)

0000000080007140 <i_6986>:
    80007140:	fb312c23          	sw	s3,-72(sp)

0000000080007144 <i_6987>:
    80007144:	03c12503          	lw	a0,60(sp)

0000000080007148 <i_6988>:
    80007148:	02a6d6bb          	divuw	a3,a3,a0

000000008000714c <i_6989>:
    8000714c:	02b08463          	beq	ra,a1,80007174 <i_6999>

0000000080007150 <i_6990>:
    80007150:	18610583          	lb	a1,390(sp)

0000000080007154 <i_6991>:
    80007154:	02b5c5bb          	divw	a1,a1,a1

0000000080007158 <i_6992>:
    80007158:	01412983          	lw	s3,20(sp)

000000008000715c <i_6993>:
    8000715c:	07811c83          	lh	s9,120(sp)

0000000080007160 <i_6994>:
    80007160:	0029e863          	bltu	s3,sp,80007170 <i_6998>

0000000080007164 <i_6995>:
    80007164:	08412b83          	lw	s7,132(sp)

0000000080007168 <i_6996>:
    80007168:	01300a93          	li	s5,19

000000008000716c <i_6997>:
    8000716c:	0155d1bb          	srlw	gp,a1,s5

0000000080007170 <i_6998>:
    80007170:	e2513823          	sd	t0,-464(sp)

0000000080007174 <i_6999>:
    80007174:	0059c663          	blt	s3,t0,80007180 <i_7002>

0000000080007178 <i_7000>:
    80007178:	15013983          	ld	s3,336(sp)

000000008000717c <i_7001>:
    8000717c:	03012783          	lw	a5,48(sp)

0000000080007180 <i_7002>:
    80007180:	00fcfe63          	bleu	a5,s9,8000719c <i_7009>

0000000080007184 <i_7003>:
    80007184:	19913423          	sd	s9,392(sp)

0000000080007188 <i_7004>:
    80007188:	01399c63          	bne	s3,s3,800071a0 <i_7010>

000000008000718c <i_7005>:
    8000718c:	12012683          	lw	a3,288(sp)

0000000080007190 <i_7006>:
    80007190:	033cc63b          	divw	a2,s9,s3

0000000080007194 <i_7007>:
    80007194:	15015483          	lhu	s1,336(sp)

0000000080007198 <i_7008>:
    80007198:	15c12483          	lw	s1,348(sp)

000000008000719c <i_7009>:
    8000719c:	00000013          	nop

00000000800071a0 <i_7010>:
    800071a0:	06910303          	lb	t1,105(sp)

00000000800071a4 <i_7011>:
    800071a4:	004d549b          	srliw	s1,s10,0x4

00000000800071a8 <i_7012>:
    800071a8:	7a700e13          	li	t3,1959

00000000800071ac <i_7013>:
    800071ac:	7b900b13          	li	s6,1977

00000000800071b0 <i_7014>:
    800071b0:	1c912623          	sw	s1,460(sp)

00000000800071b4 <i_7015>:
    800071b4:	11015a83          	lhu	s5,272(sp)

00000000800071b8 <i_7016>:
    800071b8:	ef214b83          	lbu	s7,-270(sp)

00000000800071bc <i_7017>:
    800071bc:	03d10683          	lb	a3,61(sp)

00000000800071c0 <i_7018>:
    800071c0:	0030d59b          	srliw	a1,ra,0x3

00000000800071c4 <i_7019>:
    800071c4:	01514b83          	lbu	s7,21(sp)

00000000800071c8 <i_7020>:
    800071c8:	0d415083          	lhu	ra,212(sp)

00000000800071cc <i_7021>:
    800071cc:	017700b3          	add	ra,a4,s7

00000000800071d0 <i_7022>:
    800071d0:	037bc1bb          	divw	gp,s7,s7

00000000800071d4 <i_7023>:
    800071d4:	f3412b83          	lw	s7,-204(sp)

00000000800071d8 <i_7024>:
    800071d8:	001e0e13          	addi	t3,t3,1
    800071dc:	fdcb1ae3          	bne	s6,t3,800071b0 <i_7014>

00000000800071e0 <i_7025>:
    800071e0:	0231e1bb          	remw	gp,gp,gp

00000000800071e4 <i_7026>:
    800071e4:	01200b93          	li	s7,18

00000000800071e8 <i_7027>:
    800071e8:	0171d1b3          	srl	gp,gp,s7

00000000800071ec <i_7028>:
    800071ec:	01fba1b3          	slt	gp,s7,t6

00000000800071f0 <i_7029>:
    800071f0:	f3514b83          	lbu	s7,-203(sp)

00000000800071f4 <i_7030>:
    800071f4:	03c00393          	li	t2,60

00000000800071f8 <i_7031>:
    800071f8:	40735333          	sra	t1,t1,t2

00000000800071fc <i_7032>:
    800071fc:	e3f14e83          	lbu	t4,-449(sp)

0000000080007200 <i_7033>:
    80007200:	8cc38c93          	addi	s9,t2,-1844

0000000080007204 <i_7034>:
    80007204:	efc15b83          	lhu	s7,-260(sp)

0000000080007208 <i_7035>:
    80007208:	16c12b83          	lw	s7,364(sp)

000000008000720c <i_7036>:
    8000720c:	fce15b83          	lhu	s7,-50(sp)

0000000080007210 <i_7037>:
    80007210:	02fbcbbb          	divw	s7,s7,a5

0000000080007214 <i_7038>:
    80007214:	19c12b83          	lw	s7,412(sp)

0000000080007218 <i_7039>:
    80007218:	87800213          	li	tp,-1928

000000008000721c <i_7040>:
    8000721c:	88900193          	li	gp,-1911

0000000080007220 <i_7041>:
    80007220:	e4311723          	sh	gp,-434(sp)

0000000080007224 <i_7042>:
    80007224:	003beb33          	or	s6,s7,gp

0000000080007228 <i_7043>:
    80007228:	00700b93          	li	s7,7

000000008000722c <i_7044>:
    8000722c:	01789bb3          	sll	s7,a7,s7

0000000080007230 <i_7045>:
    80007230:	fb714b03          	lbu	s6,-73(sp)

0000000080007234 <i_7046>:
    80007234:	44548b17          	auipc	s6,0x44548

0000000080007238 <i_7047>:
    80007238:	036d0d33          	mul	s10,s10,s6

000000008000723c <i_7048>:
    8000723c:	00120213          	addi	tp,tp,1 # 1 <main-0x7fffffff>
    80007240:	fe3240e3          	blt	tp,gp,80007220 <i_7041>

0000000080007244 <i_7049>:
    80007244:	037bebbb          	remw	s7,s7,s7

0000000080007248 <i_7050>:
    80007248:	03ab1ab3          	mulh	s5,s6,s10

000000008000724c <i_7051>:
    8000724c:	00f00b13          	li	s6,15

0000000080007250 <i_7052>:
    80007250:	4162db33          	sra	s6,t0,s6

0000000080007254 <i_7053>:
    80007254:	03ad6263          	bltu	s10,s10,80007278 <i_7062>

0000000080007258 <i_7054>:
    80007258:	03ab1063          	bne	s6,s10,80007278 <i_7062>

000000008000725c <i_7055>:
    8000725c:	016d6263          	bltu	s10,s6,80007260 <i_7056>

0000000080007260 <i_7056>:
    80007260:	f5513c23          	sd	s5,-168(sp)

0000000080007264 <i_7057>:
    80007264:	015d5463          	ble	s5,s10,8000726c <i_7059>

0000000080007268 <i_7058>:
    80007268:	0bf50b93          	addi	s7,a0,191

000000008000726c <i_7059>:
    8000726c:	015bbe33          	sltu	t3,s7,s5

0000000080007270 <i_7060>:
    80007270:	fa411b03          	lh	s6,-92(sp)

0000000080007274 <i_7061>:
    80007274:	03ce0abb          	mulw	s5,t3,t3

0000000080007278 <i_7062>:
    80007278:	09a11723          	sh	s10,142(sp)

000000008000727c <i_7063>:
    8000727c:	fb013303          	ld	t1,-80(sp)

0000000080007280 <i_7064>:
    80007280:	006b4c63          	blt	s6,t1,80007298 <i_7070>

0000000080007284 <i_7065>:
    80007284:	fb215b03          	lhu	s6,-78(sp)

0000000080007288 <i_7066>:
    80007288:	fe012a03          	lw	s4,-32(sp)

000000008000728c <i_7067>:
    8000728c:	11012e03          	lw	t3,272(sp)

0000000080007290 <i_7068>:
    80007290:	f3811b03          	lh	s6,-200(sp)

0000000080007294 <i_7069>:
    80007294:	0b613823          	sd	s6,176(sp)

0000000080007298 <i_7070>:
    80007298:	f3713023          	sd	s7,-224(sp)

000000008000729c <i_7071>:
    8000729c:	0f4b2b13          	slti	s6,s6,244

00000000800072a0 <i_7072>:
    800072a0:	efa13823          	sd	s10,-272(sp)

00000000800072a4 <i_7073>:
    800072a4:	1d110a03          	lb	s4,465(sp)

00000000800072a8 <i_7074>:
    800072a8:	17812023          	sw	s8,352(sp)

00000000800072ac <i_7075>:
    800072ac:	02500513          	li	a0,37

00000000800072b0 <i_7076>:
    800072b0:	40a65f33          	sra	t5,a2,a0

00000000800072b4 <i_7077>:
    800072b4:	1fa101a3          	sb	s10,483(sp)

00000000800072b8 <i_7078>:
    800072b8:	036a453b          	divw	a0,s4,s6

00000000800072bc <i_7079>:
    800072bc:	008a6db3          	or	s11,s4,s0

00000000800072c0 <i_7080>:
    800072c0:	2dc54a13          	xori	s4,a0,732

00000000800072c4 <i_7081>:
    800072c4:	00adf463          	bleu	a0,s11,800072cc <i_7083>

00000000800072c8 <i_7082>:
    800072c8:	014d0a63          	beq	s10,s4,800072dc <i_7087>

00000000800072cc <i_7083>:
    800072cc:	1f610223          	sb	s6,484(sp)

00000000800072d0 <i_7084>:
    800072d0:	db3a3413          	sltiu	s0,s4,-589

00000000800072d4 <i_7085>:
    800072d4:	f2415503          	lhu	a0,-220(sp)

00000000800072d8 <i_7086>:
    800072d8:	e4a13023          	sd	a0,-448(sp)

00000000800072dc <i_7087>:
    800072dc:	01800a13          	li	s4,24

00000000800072e0 <i_7088>:
    800072e0:	41445533          	sra	a0,s0,s4

00000000800072e4 <i_7089>:
    800072e4:	41410533          	sub	a0,sp,s4

00000000800072e8 <i_7090>:
    800072e8:	02f57a3b          	remuw	s4,a0,a5

00000000800072ec <i_7091>:
    800072ec:	02844263          	blt	s0,s0,80007310 <i_7100>

00000000800072f0 <i_7092>:
    800072f0:	00c00513          	li	a0,12

00000000800072f4 <i_7093>:
    800072f4:	40a65633          	sra	a2,a2,a0

00000000800072f8 <i_7094>:
    800072f8:	00d443b3          	xor	t2,s0,a3

00000000800072fc <i_7095>:
    800072fc:	00c40e63          	beq	s0,a2,80007318 <i_7102>

0000000080007300 <i_7096>:
    80007300:	00c08233          	add	tp,ra,a2

0000000080007304 <i_7097>:
    80007304:	02da4e33          	div	t3,s4,a3

0000000080007308 <i_7098>:
    80007308:	54ee2993          	slti	s3,t3,1358

000000008000730c <i_7099>:
    8000730c:	16615e03          	lhu	t3,358(sp)

0000000080007310 <i_7100>:
    80007310:	401e5313          	srai	t1,t3,0x1

0000000080007314 <i_7101>:
    80007314:	0bc10b23          	sb	t3,182(sp)

0000000080007318 <i_7102>:
    80007318:	1c416a03          	lwu	s4,452(sp)

000000008000731c <i_7103>:
    8000731c:	0de14603          	lbu	a2,222(sp)

0000000080007320 <i_7104>:
    80007320:	fac12a23          	sw	a2,-76(sp)

0000000080007324 <i_7105>:
    80007324:	17013c23          	sd	a6,376(sp)

0000000080007328 <i_7106>:
    80007328:	0f412e03          	lw	t3,244(sp)

000000008000732c <i_7107>:
    8000732c:	02c12423          	sw	a2,40(sp)

0000000080007330 <i_7108>:
    80007330:	88a00393          	li	t2,-1910

0000000080007334 <i_7109>:
    80007334:	89c00613          	li	a2,-1892

0000000080007338 <i_7110>:
    80007338:	01a63833          	sltu	a6,a2,s10

000000008000733c <i_7111>:
    8000733c:	03adad33          	mulhsu	s10,s11,s10

0000000080007340 <i_7112>:
    80007340:	01086c63          	bltu	a6,a6,80007358 <i_7118>

0000000080007344 <i_7113>:
    80007344:	1d015b83          	lhu	s7,464(sp)

0000000080007348 <i_7114>:
    80007348:	01a12423          	sw	s10,8(sp)

000000008000734c <i_7115>:
    8000734c:	12d14c03          	lbu	s8,301(sp)

0000000080007350 <i_7116>:
    80007350:	16013c83          	ld	s9,352(sp)

0000000080007354 <i_7117>:
    80007354:	017d9c63          	bne	s11,s7,8000736c <i_7123>

0000000080007358 <i_7118>:
    80007358:	09215d83          	lhu	s11,146(sp)

000000008000735c <i_7119>:
    8000735c:	0fb11623          	sh	s11,236(sp)

0000000080007360 <i_7120>:
    80007360:	04812803          	lw	a6,72(sp)

0000000080007364 <i_7121>:
    80007364:	024dddb3          	divu	s11,s11,tp

0000000080007368 <i_7122>:
    80007368:	00a00993          	li	s3,10

000000008000736c <i_7123>:
    8000736c:	413bdeb3          	sra	t4,s7,s3

0000000080007370 <i_7124>:
    80007370:	1d911223          	sh	s9,452(sp)

0000000080007374 <i_7125>:
    80007374:	07415d83          	lhu	s11,116(sp)

0000000080007378 <i_7126>:
    80007378:	00138393          	addi	t2,t2,1
    8000737c:	fa767ee3          	bleu	t2,a2,80007338 <i_7110>

0000000080007380 <i_7127>:
    80007380:	00138463          	beq	t2,ra,80007388 <i_7129>

0000000080007384 <i_7128>:
    80007384:	1ac12d83          	lw	s11,428(sp)

0000000080007388 <i_7129>:
    80007388:	1d011403          	lh	s0,464(sp)

000000008000738c <i_7130>:
    8000738c:	03544433          	div	s0,s0,s5

0000000080007390 <i_7131>:
    80007390:	0f215403          	lhu	s0,242(sp)

0000000080007394 <i_7132>:
    80007394:	40840ab3          	sub	s5,s0,s0

0000000080007398 <i_7133>:
    80007398:	6b34031b          	addiw	t1,s0,1715

000000008000739c <i_7134>:
    8000739c:	00856e63          	bltu	a0,s0,800073b8 <i_7141>

00000000800073a0 <i_7135>:
    800073a0:	f1514303          	lbu	t1,-235(sp)

00000000800073a4 <i_7136>:
    800073a4:	13012403          	lw	s0,304(sp)

00000000800073a8 <i_7137>:
    800073a8:	14a12423          	sw	a0,328(sp)

00000000800073ac <i_7138>:
    800073ac:	00631a63          	bne	t1,t1,800073c0 <i_7143>

00000000800073b0 <i_7139>:
    800073b0:	0263833b          	mulw	t1,t2,t1

00000000800073b4 <i_7140>:
    800073b4:	0e010583          	lb	a1,224(sp)

00000000800073b8 <i_7141>:
    800073b8:	0d311a23          	sh	s3,212(sp)

00000000800073bc <i_7142>:
    800073bc:	00000013          	nop

00000000800073c0 <i_7143>:
    800073c0:	09412403          	lw	s0,148(sp)

00000000800073c4 <i_7144>:
    800073c4:	01c00613          	li	a2,28

00000000800073c8 <i_7145>:
    800073c8:	40c555b3          	sra	a1,a0,a2

00000000800073cc <i_7146>:
    800073cc:	8ca00313          	li	t1,-1846

00000000800073d0 <i_7147>:
    800073d0:	8d000993          	li	s3,-1840

00000000800073d4 <i_7148>:
    800073d4:	00600393          	li	t2,6

00000000800073d8 <i_7149>:
    800073d8:	407cd3bb          	sraw	t2,s9,t2

00000000800073dc <i_7150>:
    800073dc:	00130313          	addi	t1,t1,1
    800073e0:	ff3318e3          	bne	t1,s3,800073d0 <i_7147>

00000000800073e4 <i_7151>:
    800073e4:	40ca0a33          	sub	s4,s4,a2

00000000800073e8 <i_7152>:
    800073e8:	11413c23          	sd	s4,280(sp)

00000000800073ec <i_7153>:
    800073ec:	c9ea3a13          	sltiu	s4,s4,-866

00000000800073f0 <i_7154>:
    800073f0:	4033da1b          	sraiw	s4,t2,0x3

00000000800073f4 <i_7155>:
    800073f4:	4f225eb7          	lui	t4,0x4f225

00000000800073f8 <i_7156>:
    800073f8:	001a1a13          	slli	s4,s4,0x1

00000000800073fc <i_7157>:
    800073fc:	014a6263          	bltu	s4,s4,80007400 <i_7158>

0000000080007400 <i_7158>:
    80007400:	014a6663          	bltu	s4,s4,8000740c <i_7161>

0000000080007404 <i_7159>:
    80007404:	03da62b3          	rem	t0,s4,t4

0000000080007408 <i_7160>:
    80007408:	034aaeb3          	mulhsu	t4,s5,s4

000000008000740c <i_7161>:
    8000740c:	00429293          	slli	t0,t0,0x4

0000000080007410 <i_7162>:
    80007410:	00000013          	nop

0000000080007414 <i_7163>:
    80007414:	8cb00a13          	li	s4,-1845

0000000080007418 <i_7164>:
    80007418:	8df00a93          	li	s5,-1825

000000008000741c <i_7165>:
    8000741c:	414a8bb3          	sub	s7,s5,s4

0000000080007420 <i_7166>:
    80007420:	015b9463          	bne	s7,s5,80007428 <i_7168>

0000000080007424 <i_7167>:
    80007424:	00000013          	nop

0000000080007428 <i_7168>:
    80007428:	e9812b83          	lw	s7,-360(sp)

000000008000742c <i_7169>:
    8000742c:	0e614b83          	lbu	s7,230(sp)

0000000080007430 <i_7170>:
    80007430:	0252b2b3          	mulhu	t0,t0,t0

0000000080007434 <i_7171>:
    80007434:	005bf2b3          	and	t0,s7,t0

0000000080007438 <i_7172>:
    80007438:	00000013          	nop

000000008000743c <i_7173>:
    8000743c:	00000013          	nop

0000000080007440 <i_7174>:
    80007440:	f2c15b83          	lhu	s7,-212(sp)

0000000080007444 <i_7175>:
    80007444:	f9012603          	lw	a2,-112(sp)

0000000080007448 <i_7176>:
    80007448:	00000013          	nop

000000008000744c <i_7177>:
    8000744c:	001a0a13          	addi	s4,s4,1
    80007450:	fd4af6e3          	bleu	s4,s5,8000741c <i_7165>

0000000080007454 <i_7178>:
    80007454:	e7012b83          	lw	s7,-400(sp)

0000000080007458 <i_7179>:
    80007458:	1d812603          	lw	a2,472(sp)

000000008000745c <i_7180>:
    8000745c:	00dbe6b3          	or	a3,s7,a3

0000000080007460 <i_7181>:
    80007460:	0e010583          	lb	a1,224(sp)

0000000080007464 <i_7182>:
    80007464:	03768463          	beq	a3,s7,8000748c <i_7192>

0000000080007468 <i_7183>:
    80007468:	e4b13c23          	sd	a1,-424(sp)

000000008000746c <i_7184>:
    8000746c:	f4c15503          	lhu	a0,-180(sp)

0000000080007470 <i_7185>:
    80007470:	95660b9b          	addiw	s7,a2,-1706

0000000080007474 <i_7186>:
    80007474:	00300d93          	li	s11,3

0000000080007478 <i_7187>:
    80007478:	01bbd4b3          	srl	s1,s7,s11

000000008000747c <i_7188>:
    8000747c:	15c16983          	lwu	s3,348(sp)

0000000080007480 <i_7189>:
    80007480:	02d99063          	bne	s3,a3,800074a0 <i_7197>

0000000080007484 <i_7190>:
    80007484:	0024941b          	slliw	s0,s1,0x2

0000000080007488 <i_7191>:
    80007488:	0cf14d83          	lbu	s11,207(sp)

000000008000748c <i_7192>:
    8000748c:	fa015803          	lhu	a6,-96(sp)

0000000080007490 <i_7193>:
    80007490:	03bd2f33          	mulhsu	t5,s10,s11

0000000080007494 <i_7194>:
    80007494:	01a00d13          	li	s10,26

0000000080007498 <i_7195>:
    80007498:	01a3933b          	sllw	t1,t2,s10

000000008000749c <i_7196>:
    8000749c:	004d1b93          	slli	s7,s10,0x4

00000000800074a0 <i_7197>:
    800074a0:	13013d03          	ld	s10,304(sp)

00000000800074a4 <i_7198>:
    800074a4:	01300393          	li	t2,19

00000000800074a8 <i_7199>:
    800074a8:	007b13bb          	sllw	t2,s6,t2

00000000800074ac <i_7200>:
    800074ac:	16011b03          	lh	s6,352(sp)

00000000800074b0 <i_7201>:
    800074b0:	11c08c17          	auipc	s8,0x11c08

00000000800074b4 <i_7202>:
    800074b4:	f1a13823          	sd	s10,-240(sp)

00000000800074b8 <i_7203>:
    800074b8:	018b4863          	blt	s6,s8,800074c8 <i_7207>

00000000800074bc <i_7204>:
    800074bc:	15a11f23          	sh	s10,350(sp)

00000000800074c0 <i_7205>:
    800074c0:	e4844c13          	xori	s8,s0,-440

00000000800074c4 <i_7206>:
    800074c4:	038c5463          	ble	s8,s8,800074ec <i_7216>

00000000800074c8 <i_7207>:
    800074c8:	40bc05b3          	sub	a1,s8,a1

00000000800074cc <i_7208>:
    800074cc:	016b37b3          	sltu	a5,s6,s6

00000000800074d0 <i_7209>:
    800074d0:	018c5a63          	ble	s8,s8,800074e4 <i_7214>

00000000800074d4 <i_7210>:
    800074d4:	0cc11603          	lh	a2,204(sp)

00000000800074d8 <i_7211>:
    800074d8:	0cf11523          	sh	a5,202(sp)

00000000800074dc <i_7212>:
    800074dc:	00f787b3          	add	a5,a5,a5

00000000800074e0 <i_7213>:
    800074e0:	f4011603          	lh	a2,-192(sp)

00000000800074e4 <i_7214>:
    800074e4:	ebe10603          	lb	a2,-322(sp)

00000000800074e8 <i_7215>:
    800074e8:	02900e93          	li	t4,41

00000000800074ec <i_7216>:
    800074ec:	01d797b3          	sll	a5,a5,t4

00000000800074f0 <i_7217>:
    800074f0:	f5c16783          	lwu	a5,-164(sp)

00000000800074f4 <i_7218>:
    800074f4:	0025d79b          	srliw	a5,a1,0x2

00000000800074f8 <i_7219>:
    800074f8:	00f79263          	bne	a5,a5,800074fc <i_7220>

00000000800074fc <i_7220>:
    800074fc:	5de7e393          	ori	t2,a5,1502

0000000080007500 <i_7221>:
    80007500:	01e7de63          	ble	t5,a5,8000751c <i_7228>

0000000080007504 <i_7222>:
    80007504:	08416783          	lwu	a5,132(sp)

0000000080007508 <i_7223>:
    80007508:	e9013e03          	ld	t3,-368(sp)

000000008000750c <i_7224>:
    8000750c:	00fe8463          	beq	t4,a5,80007514 <i_7226>

0000000080007510 <i_7225>:
    80007510:	e4f13423          	sd	a5,-440(sp)

0000000080007514 <i_7226>:
    80007514:	00f10323          	sb	a5,6(sp)

0000000080007518 <i_7227>:
    80007518:	019e4e63          	blt	t3,s9,80007534 <i_7234>

000000008000751c <i_7228>:
    8000751c:	0338d463          	ble	s3,a7,80007544 <i_7238>

0000000080007520 <i_7229>:
    80007520:	01a10403          	lb	s0,26(sp)

0000000080007524 <i_7230>:
    80007524:	13910023          	sb	s9,288(sp)

0000000080007528 <i_7231>:
    80007528:	02f7f063          	bleu	a5,a5,80007548 <i_7239>

000000008000752c <i_7232>:
    8000752c:	3983fb93          	andi	s7,t2,920

0000000080007530 <i_7233>:
    80007530:	eb611783          	lh	a5,-330(sp)

0000000080007534 <i_7234>:
    80007534:	0284e4bb          	remw	s1,s1,s0

0000000080007538 <i_7235>:
    80007538:	0234643b          	remw	s0,s0,gp

000000008000753c <i_7236>:
    8000753c:	f6913823          	sd	s1,-144(sp)

0000000080007540 <i_7237>:
    80007540:	02341eb3          	mulh	t4,s0,gp

0000000080007544 <i_7238>:
    80007544:	00295413          	srli	s0,s2,0x2

0000000080007548 <i_7239>:
    80007548:	8dd0e093          	ori	ra,ra,-1827

000000008000754c <i_7240>:
    8000754c:	00000013          	nop

0000000080007550 <i_7241>:
    80007550:	84400493          	li	s1,-1980

0000000080007554 <i_7242>:
    80007554:	84900193          	li	gp,-1975

0000000080007558 <i_7243>:
    80007558:	0281e0bb          	remw	ra,gp,s0

000000008000755c <i_7244>:
    8000755c:	0210e0bb          	remw	ra,ra,ra

0000000080007560 <i_7245>:
    80007560:	001a8ab3          	add	s5,s5,ra

0000000080007564 <i_7246>:
    80007564:	00148493          	addi	s1,s1,1 # ffffffffb57fc001 <_end+0xffffffff357ebbed>
    80007568:	fe91f8e3          	bleu	s1,gp,80007558 <i_7243>

000000008000756c <i_7247>:
    8000756c:	ea416a83          	lwu	s5,-348(sp)

0000000080007570 <i_7248>:
    80007570:	e3511023          	sh	s5,-480(sp)

0000000080007574 <i_7249>:
    80007574:	0210f263          	bleu	ra,ra,80007598 <i_7258>

0000000080007578 <i_7250>:
    80007578:	0010dc63          	ble	ra,ra,80007590 <i_7256>

000000008000757c <i_7251>:
    8000757c:	03fa6a33          	rem	s4,s4,t6

0000000080007580 <i_7252>:
    80007580:	20bac593          	xori	a1,s5,523

0000000080007584 <i_7253>:
    80007584:	e4b10623          	sb	a1,-436(sp)

0000000080007588 <i_7254>:
    80007588:	e8c12223          	sw	a2,-380(sp)

000000008000758c <i_7255>:
    8000758c:	0b011303          	lh	t1,176(sp)

0000000080007590 <i_7256>:
    80007590:	03000593          	li	a1,48

0000000080007594 <i_7257>:
    80007594:	00bad7b3          	srl	a5,s5,a1

0000000080007598 <i_7258>:
    80007598:	ebf14203          	lbu	tp,-321(sp)

000000008000759c <i_7259>:
    8000759c:	00000013          	nop

00000000800075a0 <i_7260>:
    800075a0:	84800a13          	li	s4,-1976

00000000800075a4 <i_7261>:
    800075a4:	85200093          	li	ra,-1966

00000000800075a8 <i_7262>:
    800075a8:	195106a3          	sb	s5,397(sp)

00000000800075ac <i_7263>:
    800075ac:	001a0a13          	addi	s4,s4,1
    800075b0:	ff409ce3          	bne	ra,s4,800075a8 <i_7262>

00000000800075b4 <i_7264>:
    800075b4:	f6615383          	lhu	t2,-154(sp)

00000000800075b8 <i_7265>:
    800075b8:	e7412a83          	lw	s5,-396(sp)

00000000800075bc <i_7266>:
    800075bc:	035aff3b          	remuw	t5,s5,s5

00000000800075c0 <i_7267>:
    800075c0:	f4410fa3          	sb	tp,-161(sp)

00000000800075c4 <i_7268>:
    800075c4:	f7412a23          	sw	s4,-140(sp)

00000000800075c8 <i_7269>:
    800075c8:	4025d393          	srai	t2,a1,0x2

00000000800075cc <i_7270>:
    800075cc:	00735863          	ble	t2,t1,800075dc <i_7274>

00000000800075d0 <i_7271>:
    800075d0:	f6d10583          	lb	a1,-147(sp)

00000000800075d4 <i_7272>:
    800075d4:	e4f14583          	lbu	a1,-433(sp)

00000000800075d8 <i_7273>:
    800075d8:	00239493          	slli	s1,t2,0x2

00000000800075dc <i_7274>:
    800075dc:	f3411383          	lh	t2,-204(sp)

00000000800075e0 <i_7275>:
    800075e0:	1a415d03          	lhu	s10,420(sp)

00000000800075e4 <i_7276>:
    800075e4:	009d05b3          	add	a1,s10,s1

00000000800075e8 <i_7277>:
    800075e8:	0035ec63          	bltu	a1,gp,80007600 <i_7283>

00000000800075ec <i_7278>:
    800075ec:	071105a3          	sb	a7,107(sp)

00000000800075f0 <i_7279>:
    800075f0:	00900e93          	li	t4,9

00000000800075f4 <i_7280>:
    800075f4:	41da5a3b          	sraw	s4,s4,t4

00000000800075f8 <i_7281>:
    800075f8:	13816303          	lwu	t1,312(sp)

00000000800075fc <i_7282>:
    800075fc:	03a5e2bb          	remw	t0,a1,s10

0000000080007600 <i_7283>:
    80007600:	0e012283          	lw	t0,224(sp)

0000000080007604 <i_7284>:
    80007604:	03a11983          	lh	s3,58(sp)

0000000080007608 <i_7285>:
    80007608:	025d4d33          	div	s10,s10,t0

000000008000760c <i_7286>:
    8000760c:	0f013283          	ld	t0,240(sp)

0000000080007610 <i_7287>:
    80007610:	fc012d03          	lw	s10,-64(sp)

0000000080007614 <i_7288>:
    80007614:	0052e263          	bltu	t0,t0,80007618 <i_7289>

0000000080007618 <i_7289>:
    80007618:	01a2d863          	ble	s10,t0,80007628 <i_7293>

000000008000761c <i_7290>:
    8000761c:	05a12c23          	sw	s10,88(sp)

0000000080007620 <i_7291>:
    80007620:	3eed4093          	xori	ra,s10,1006

0000000080007624 <i_7292>:
    80007624:	02569463          	bne	a3,t0,8000764c <i_7302>

0000000080007628 <i_7293>:
    80007628:	03a09063          	bne	ra,s10,80007648 <i_7301>

000000008000762c <i_7294>:
    8000762c:	14013983          	ld	s3,320(sp)

0000000080007630 <i_7295>:
    80007630:	fb016e03          	lwu	t3,-80(sp)

0000000080007634 <i_7296>:
    80007634:	d229f793          	andi	a5,s3,-734

0000000080007638 <i_7297>:
    80007638:	00fd0863          	beq	s10,a5,80007648 <i_7301>

000000008000763c <i_7298>:
    8000763c:	ee512023          	sw	t0,-288(sp)

0000000080007640 <i_7299>:
    80007640:	ea110223          	sb	ra,-348(sp)

0000000080007644 <i_7300>:
    80007644:	001200b3          	add	ra,tp,ra

0000000080007648 <i_7301>:
    80007648:	ea411a23          	sh	tp,-332(sp)

000000008000764c <i_7302>:
    8000764c:	f8411083          	lh	ra,-124(sp)

0000000080007650 <i_7303>:
    80007650:	004d129b          	slliw	t0,s10,0x4

0000000080007654 <i_7304>:
    80007654:	87200d13          	li	s10,-1934

0000000080007658 <i_7305>:
    80007658:	87600213          	li	tp,-1930

000000008000765c <i_7306>:
    8000765c:	0e211983          	lh	s3,226(sp)

0000000080007660 <i_7307>:
    80007660:	0051e2b3          	or	t0,gp,t0

0000000080007664 <i_7308>:
    80007664:	03813b03          	ld	s6,56(sp)

0000000080007668 <i_7309>:
    80007668:	ecb10e03          	lb	t3,-309(sp)

000000008000766c <i_7310>:
    8000766c:	6c3e029b          	addiw	t0,t3,1731

0000000080007670 <i_7311>:
    80007670:	0293c3b3          	div	t2,t2,s1

0000000080007674 <i_7312>:
    80007674:	18e14b03          	lbu	s6,398(sp)

0000000080007678 <i_7313>:
    80007678:	fa813383          	ld	t2,-88(sp)

000000008000767c <i_7314>:
    8000767c:	00000013          	nop

0000000080007680 <i_7315>:
    80007680:	14416c83          	lwu	s9,324(sp)

0000000080007684 <i_7316>:
    80007684:	ed813b83          	ld	s7,-296(sp)

0000000080007688 <i_7317>:
    80007688:	027443bb          	divw	t2,s0,t2

000000008000768c <i_7318>:
    8000768c:	f1610483          	lb	s1,-234(sp)

0000000080007690 <i_7319>:
    80007690:	001d0d13          	addi	s10,s10,1
    80007694:	fda274e3          	bleu	s10,tp,8000765c <i_7306>

0000000080007698 <i_7320>:
    80007698:	0297d7bb          	divuw	a5,a5,s1

000000008000769c <i_7321>:
    8000769c:	08b10783          	lb	a5,139(sp)

00000000800076a0 <i_7322>:
    800076a0:	3f94e493          	ori	s1,s1,1017

00000000800076a4 <i_7323>:
    800076a4:	31c4b493          	sltiu	s1,s1,796

00000000800076a8 <i_7324>:
    800076a8:	00900493          	li	s1,9

00000000800076ac <i_7325>:
    800076ac:	009754bb          	srlw	s1,a4,s1

00000000800076b0 <i_7326>:
    800076b0:	0291d4b3          	divu	s1,gp,s1

00000000800076b4 <i_7327>:
    800076b4:	402f549b          	sraiw	s1,t5,0x2

00000000800076b8 <i_7328>:
    800076b8:	0094d663          	ble	s1,s1,800076c4 <i_7331>

00000000800076bc <i_7329>:
    800076bc:	ea414803          	lbu	a6,-348(sp)

00000000800076c0 <i_7330>:
    800076c0:	11f10183          	lb	gp,287(sp)

00000000800076c4 <i_7331>:
    800076c4:	eb815483          	lhu	s1,-328(sp)

00000000800076c8 <i_7332>:
    800076c8:	f0816f03          	lwu	t5,-248(sp)

00000000800076cc <i_7333>:
    800076cc:	d8cc1c37          	lui	s8,0xd8cc1

00000000800076d0 <i_7334>:
    800076d0:	003f5e63          	ble	gp,t5,800076ec <i_7341>

00000000800076d4 <i_7335>:
    800076d4:	023c4233          	div	tp,s8,gp

00000000800076d8 <i_7336>:
    800076d8:	f7e10323          	sb	t5,-154(sp)

00000000800076dc <i_7337>:
    800076dc:	f6013803          	ld	a6,-160(sp)

00000000800076e0 <i_7338>:
    800076e0:	00121193          	slli	gp,tp,0x1

00000000800076e4 <i_7339>:
    800076e4:	e5812423          	sw	s8,-440(sp)

00000000800076e8 <i_7340>:
    800076e8:	ff720d9b          	addiw	s11,tp,-9

00000000800076ec <i_7341>:
    800076ec:	00000013          	nop

00000000800076f0 <i_7342>:
    800076f0:	19816b03          	lwu	s6,408(sp)

00000000800076f4 <i_7343>:
    800076f4:	80100513          	li	a0,-2047

00000000800076f8 <i_7344>:
    800076f8:	81000193          	li	gp,-2032

00000000800076fc <i_7345>:
    800076fc:	03bdddb3          	divu	s11,s11,s11

0000000080007700 <i_7346>:
    80007700:	fec16b83          	lwu	s7,-20(sp)

0000000080007704 <i_7347>:
    80007704:	017d9a63          	bne	s11,s7,80007718 <i_7352>

0000000080007708 <i_7348>:
    80007708:	037deb3b          	remw	s6,s11,s7

000000008000770c <i_7349>:
    8000770c:	00fb8263          	beq	s7,a5,80007710 <i_7350>

0000000080007710 <i_7350>:
    80007710:	03bb6db3          	rem	s11,s6,s11

0000000080007714 <i_7351>:
    80007714:	e5b13823          	sd	s11,-432(sp)

0000000080007718 <i_7352>:
    80007718:	016b72b3          	and	t0,s6,s6

000000008000771c <i_7353>:
    8000771c:	00000013          	nop

0000000080007720 <i_7354>:
    80007720:	033dc9b3          	div	s3,s11,s3

0000000080007724 <i_7355>:
    80007724:	eb713c23          	sd	s7,-328(sp)

0000000080007728 <i_7356>:
    80007728:	00150513          	addi	a0,a0,1
    8000772c:	fc3518e3          	bne	a0,gp,800076fc <i_7345>

0000000080007730 <i_7357>:
    80007730:	ea815b03          	lhu	s6,-344(sp)

0000000080007734 <i_7358>:
    80007734:	ed910a83          	lb	s5,-295(sp)

0000000080007738 <i_7359>:
    80007738:	00bb4463          	blt	s6,a1,80007740 <i_7361>

000000008000773c <i_7360>:
    8000773c:	ff013b83          	ld	s7,-16(sp)

0000000080007740 <i_7361>:
    80007740:	0152a833          	slt	a6,t0,s5

0000000080007744 <i_7362>:
    80007744:	33928813          	addi	a6,t0,825 # e7b2f06d <_end+0x67b1ec59>

0000000080007748 <i_7363>:
    80007748:	6b6f0f13          	addi	t5,t5,1718 # 6390ffda <main-0x1c6f0026>

000000008000774c <i_7364>:
    8000774c:	401280b3          	sub	ra,t0,ra

0000000080007750 <i_7365>:
    80007750:	00111863          	bne	sp,ra,80007760 <i_7369>

0000000080007754 <i_7366>:
    80007754:	09f14a03          	lbu	s4,159(sp)

0000000080007758 <i_7367>:
    80007758:	00be6ab3          	or	s5,t3,a1

000000008000775c <i_7368>:
    8000775c:	f8811583          	lh	a1,-120(sp)

0000000080007760 <i_7369>:
    80007760:	03ce5c33          	divu	s8,t3,t3

0000000080007764 <i_7370>:
    80007764:	19c16e03          	lwu	t3,412(sp)

0000000080007768 <i_7371>:
    80007768:	07c10ca3          	sb	t3,121(sp)

000000008000776c <i_7372>:
    8000776c:	04813a03          	ld	s4,72(sp)

0000000080007770 <i_7373>:
    80007770:	72f00e13          	li	t3,1839

0000000080007774 <i_7374>:
    80007774:	73700c13          	li	s8,1847

0000000080007778 <i_7375>:
    80007778:	41468ab3          	sub	s5,a3,s4

000000008000777c <i_7376>:
    8000777c:	0b815683          	lhu	a3,184(sp)

0000000080007780 <i_7377>:
    80007780:	003a1693          	slli	a3,s4,0x3

0000000080007784 <i_7378>:
    80007784:	1d016f03          	lwu	t5,464(sp)

0000000080007788 <i_7379>:
    80007788:	0156f263          	bleu	s5,a3,8000778c <i_7380>

000000008000778c <i_7380>:
    8000778c:	9fbaca93          	xori	s5,s5,-1541

0000000080007790 <i_7381>:
    80007790:	18d11d23          	sh	a3,410(sp)

0000000080007794 <i_7382>:
    80007794:	e8811a03          	lh	s4,-376(sp)

0000000080007798 <i_7383>:
    80007798:	4016d69b          	sraiw	a3,a3,0x1

000000008000779c <i_7384>:
    8000779c:	0ab10d83          	lb	s11,171(sp)

00000000800077a0 <i_7385>:
    800077a0:	1ad13423          	sd	a3,424(sp)

00000000800077a4 <i_7386>:
    800077a4:	03ef16b3          	mulh	a3,t5,t5

00000000800077a8 <i_7387>:
    800077a8:	03f6f263          	bleu	t6,a3,800077cc <i_7395>

00000000800077ac <i_7388>:
    800077ac:	00000013          	nop

00000000800077b0 <i_7389>:
    800077b0:	00000013          	nop

00000000800077b4 <i_7390>:
    800077b4:	00ddf333          	and	t1,s11,a3

00000000800077b8 <i_7391>:
    800077b8:	001e0e13          	addi	t3,t3,1
    800077bc:	fb8e6ee3          	bltu	t3,s8,80007778 <i_7375>

00000000800077c0 <i_7392>:
    800077c0:	e6012d83          	lw	s11,-416(sp)

00000000800077c4 <i_7393>:
    800077c4:	09b13823          	sd	s11,144(sp)

00000000800077c8 <i_7394>:
    800077c8:	41bd8333          	sub	t1,s11,s11

00000000800077cc <i_7395>:
    800077cc:	12d13c23          	sd	a3,312(sp)

00000000800077d0 <i_7396>:
    800077d0:	0096ec63          	bltu	a3,s1,800077e8 <i_7402>

00000000800077d4 <i_7397>:
    800077d4:	ec816683          	lwu	a3,-312(sp)

00000000800077d8 <i_7398>:
    800077d8:	01536a63          	bltu	t1,s5,800077ec <i_7403>

00000000800077dc <i_7399>:
    800077dc:	e4011c83          	lh	s9,-448(sp)

00000000800077e0 <i_7400>:
    800077e0:	f6311423          	sh	gp,-152(sp)

00000000800077e4 <i_7401>:
    800077e4:	ff110183          	lb	gp,-15(sp)

00000000800077e8 <i_7402>:
    800077e8:	03b9d063          	ble	s11,s3,80007808 <i_7410>

00000000800077ec <i_7403>:
    800077ec:	09013203          	ld	tp,144(sp)

00000000800077f0 <i_7404>:
    800077f0:	fd3acc17          	auipc	s8,0xfd3ac

00000000800077f4 <i_7405>:
    800077f4:	0f911523          	sh	s9,234(sp)

00000000800077f8 <i_7406>:
    800077f8:	e7c11b03          	lh	s6,-388(sp)

00000000800077fc <i_7407>:
    800077fc:	16c11b83          	lh	s7,364(sp)

0000000080007800 <i_7408>:
    80007800:	2c04a637          	lui	a2,0x2c04a

0000000080007804 <i_7409>:
    80007804:	1d912c23          	sw	s9,472(sp)

0000000080007808 <i_7410>:
    80007808:	40165b93          	srai	s7,a2,0x1

000000008000780c <i_7411>:
    8000780c:	14210203          	lb	tp,322(sp)

0000000080007810 <i_7412>:
    80007810:	0e416283          	lwu	t0,228(sp)

0000000080007814 <i_7413>:
    80007814:	03813283          	ld	t0,56(sp)

0000000080007818 <i_7414>:
    80007818:	fdc16b03          	lwu	s6,-36(sp)

000000008000781c <i_7415>:
    8000781c:	03827263          	bleu	s8,tp,80007840 <i_7424>

0000000080007820 <i_7416>:
    80007820:	018c6b33          	or	s6,s8,s8

0000000080007824 <i_7417>:
    80007824:	0169e463          	bltu	s3,s6,8000782c <i_7419>

0000000080007828 <i_7418>:
    80007828:	036c0b3b          	mulw	s6,s8,s6

000000008000782c <i_7419>:
    8000782c:	038b7263          	bleu	s8,s6,80007850 <i_7428>

0000000080007830 <i_7420>:
    80007830:	36ac7c13          	andi	s8,s8,874

0000000080007834 <i_7421>:
    80007834:	13013c03          	ld	s8,304(sp)

0000000080007838 <i_7422>:
    80007838:	02015c03          	lhu	s8,32(sp)

000000008000783c <i_7423>:
    8000783c:	ed215c03          	lhu	s8,-302(sp)

0000000080007840 <i_7424>:
    80007840:	a0582813          	slti	a6,a6,-1531

0000000080007844 <i_7425>:
    80007844:	17811a23          	sh	s8,372(sp)

0000000080007848 <i_7426>:
    80007848:	01083833          	sltu	a6,a6,a6

000000008000784c <i_7427>:
    8000784c:	00d00193          	li	gp,13

0000000080007850 <i_7428>:
    80007850:	403857b3          	sra	a5,a6,gp

0000000080007854 <i_7429>:
    80007854:	edf82993          	slti	s3,a6,-289

0000000080007858 <i_7430>:
    80007858:	76e00b93          	li	s7,1902

000000008000785c <i_7431>:
    8000785c:	77e00c13          	li	s8,1918

0000000080007860 <i_7432>:
    80007860:	fc914d83          	lbu	s11,-55(sp)

0000000080007864 <i_7433>:
    80007864:	ef711d23          	sh	s7,-262(sp)

0000000080007868 <i_7434>:
    80007868:	001b8b93          	addi	s7,s7,1
    8000786c:	ff8beae3          	bltu	s7,s8,80007860 <i_7432>

0000000080007870 <i_7435>:
    80007870:	08e15803          	lhu	a6,142(sp)

0000000080007874 <i_7436>:
    80007874:	03500d93          	li	s11,53

0000000080007878 <i_7437>:
    80007878:	01b99db3          	sll	s11,s3,s11

000000008000787c <i_7438>:
    8000787c:	01385863          	ble	s3,a6,8000788c <i_7442>

0000000080007880 <i_7439>:
    80007880:	0337d7b3          	divu	a5,a5,s3

0000000080007884 <i_7440>:
    80007884:	01074663          	blt	a4,a6,80007890 <i_7443>

0000000080007888 <i_7441>:
    80007888:	40f809b3          	sub	s3,a6,a5

000000008000788c <i_7442>:
    8000788c:	12615983          	lhu	s3,294(sp)

0000000080007890 <i_7443>:
    80007890:	ecf12823          	sw	a5,-304(sp)

0000000080007894 <i_7444>:
    80007894:	00000013          	nop

0000000080007898 <i_7445>:
    80007898:	88600d93          	li	s11,-1914

000000008000789c <i_7446>:
    8000789c:	89400e13          	li	t3,-1900

00000000800078a0 <i_7447>:
    800078a0:	f1011223          	sh	a6,-252(sp)

00000000800078a4 <i_7448>:
    800078a4:	09010f23          	sb	a6,158(sp)

00000000800078a8 <i_7449>:
    800078a8:	034985bb          	mulw	a1,s3,s4

00000000800078ac <i_7450>:
    800078ac:	ed813203          	ld	tp,-296(sp)

00000000800078b0 <i_7451>:
    800078b0:	01384a63          	blt	a6,s3,800078c4 <i_7456>

00000000800078b4 <i_7452>:
    800078b4:	e5013f03          	ld	t5,-432(sp)

00000000800078b8 <i_7453>:
    800078b8:	f0013383          	ld	t2,-256(sp)

00000000800078bc <i_7454>:
    800078bc:	16611403          	lh	s0,358(sp)

00000000800078c0 <i_7455>:
    800078c0:	1c813e83          	ld	t4,456(sp)

00000000800078c4 <i_7456>:
    800078c4:	fe614603          	lbu	a2,-26(sp)

00000000800078c8 <i_7457>:
    800078c8:	ea210283          	lb	t0,-350(sp)

00000000800078cc <i_7458>:
    800078cc:	001d8d93          	addi	s11,s11,1
    800078d0:	fdbe58e3          	ble	s11,t3,800078a0 <i_7447>

00000000800078d4 <i_7459>:
    800078d4:	41760dbb          	subw	s11,a2,s7

00000000800078d8 <i_7460>:
    800078d8:	0041181b          	slliw	a6,sp,0x4

00000000800078dc <i_7461>:
    800078dc:	01000b13          	li	s6,16

00000000800078e0 <i_7462>:
    800078e0:	01685abb          	srlw	s5,a6,s6

00000000800078e4 <i_7463>:
    800078e4:	01316863          	bltu	sp,s3,800078f4 <i_7467>

00000000800078e8 <i_7464>:
    800078e8:	af466d13          	ori	s10,a2,-1292

00000000800078ec <i_7465>:
    800078ec:	1de10b03          	lb	s6,478(sp)

00000000800078f0 <i_7466>:
    800078f0:	ff416383          	lwu	t2,-12(sp)

00000000800078f4 <i_7467>:
    800078f4:	01012a23          	sw	a6,20(sp)

00000000800078f8 <i_7468>:
    800078f8:	fae15b83          	lhu	s7,-82(sp)

00000000800078fc <i_7469>:
    800078fc:	310d7d13          	andi	s10,s10,784

0000000080007900 <i_7470>:
    80007900:	1bc10c83          	lb	s9,444(sp)

0000000080007904 <i_7471>:
    80007904:	019cfd33          	and	s10,s9,s9

0000000080007908 <i_7472>:
    80007908:	01ab0b33          	add	s6,s6,s10

000000008000790c <i_7473>:
    8000790c:	048ccb93          	xori	s7,s9,72

0000000080007910 <i_7474>:
    80007910:	016d7a63          	bleu	s6,s10,80007924 <i_7479>

0000000080007914 <i_7475>:
    80007914:	01ad0263          	beq	s10,s10,80007918 <i_7476>

0000000080007918 <i_7476>:
    80007918:	037b8263          	beq	s7,s7,8000793c <i_7485>

000000008000791c <i_7477>:
    8000791c:	016d1c63          	bne	s10,s6,80007934 <i_7483>

0000000080007920 <i_7478>:
    80007920:	039b0bbb          	mulw	s7,s6,s9

0000000080007924 <i_7479>:
    80007924:	016ba833          	slt	a6,s7,s6

0000000080007928 <i_7480>:
    80007928:	039cc463          	blt	s9,s9,80007950 <i_7490>

000000008000792c <i_7481>:
    8000792c:	417b8cbb          	subw	s9,s7,s7

0000000080007930 <i_7482>:
    80007930:	e3a13423          	sd	s10,-472(sp)

0000000080007934 <i_7483>:
    80007934:	11913c23          	sd	s9,280(sp)

0000000080007938 <i_7484>:
    80007938:	030bebbb          	remw	s7,s7,a6

000000008000793c <i_7485>:
    8000793c:	eb110b03          	lb	s6,-335(sp)

0000000080007940 <i_7486>:
    80007940:	01787e63          	bleu	s7,a6,8000795c <i_7493>

0000000080007944 <i_7487>:
    80007944:	be8bcb13          	xori	s6,s7,-1048

0000000080007948 <i_7488>:
    80007948:	017be263          	bltu	s7,s7,8000794c <i_7489>

000000008000794c <i_7489>:
    8000794c:	01713c23          	sd	s7,24(sp)

0000000080007950 <i_7490>:
    80007950:	01880c33          	add	s8,a6,s8

0000000080007954 <i_7491>:
    80007954:	e6812c03          	lw	s8,-408(sp)

0000000080007958 <i_7492>:
    80007958:	01400c13          	li	s8,20

000000008000795c <i_7493>:
    8000795c:	41815bbb          	sraw	s7,sp,s8

0000000080007960 <i_7494>:
    80007960:	11813823          	sd	s8,272(sp)

0000000080007964 <i_7495>:
    80007964:	f2012783          	lw	a5,-224(sp)

0000000080007968 <i_7496>:
    80007968:	fa813b83          	ld	s7,-88(sp)

000000008000796c <i_7497>:
    8000796c:	0376d6bb          	divuw	a3,a3,s7

0000000080007970 <i_7498>:
    80007970:	00016683          	lwu	a3,0(sp)

0000000080007974 <i_7499>:
    80007974:	01768e63          	beq	a3,s7,80007990 <i_7506>

0000000080007978 <i_7500>:
    80007978:	ed713823          	sd	s7,-304(sp)

000000008000797c <i_7501>:
    8000797c:	ecd11e23          	sh	a3,-292(sp)

0000000080007980 <i_7502>:
    80007980:	02d69063          	bne	a3,a3,800079a0 <i_7510>

0000000080007984 <i_7503>:
    80007984:	10c12603          	lw	a2,268(sp)

0000000080007988 <i_7504>:
    80007988:	b22e0493          	addi	s1,t3,-1246

000000008000798c <i_7505>:
    8000798c:	fa013683          	ld	a3,-96(sp)

0000000080007990 <i_7506>:
    80007990:	78dbac13          	slti	s8,s7,1933

0000000080007994 <i_7507>:
    80007994:	b68dac37          	lui	s8,0xb68da

0000000080007998 <i_7508>:
    80007998:	038604bb          	mulw	s1,a2,s8

000000008000799c <i_7509>:
    8000799c:	03869063          	bne	a3,s8,800079bc <i_7517>

00000000800079a0 <i_7510>:
    800079a0:	ebc14683          	lbu	a3,-324(sp)

00000000800079a4 <i_7511>:
    800079a4:	02d68263          	beq	a3,a3,800079c8 <i_7520>

00000000800079a8 <i_7512>:
    800079a8:	e416e313          	ori	t1,a3,-447

00000000800079ac <i_7513>:
    800079ac:	1dc16383          	lwu	t2,476(sp)

00000000800079b0 <i_7514>:
    800079b0:	40d68c33          	sub	s8,a3,a3

00000000800079b4 <i_7515>:
    800079b4:	00d86c63          	bltu	a6,a3,800079cc <i_7521>

00000000800079b8 <i_7516>:
    800079b8:	00000013          	nop

00000000800079bc <i_7517>:
    800079bc:	010842b3          	xor	t0,a6,a6

00000000800079c0 <i_7518>:
    800079c0:	00000013          	nop

00000000800079c4 <i_7519>:
    800079c4:	e3b6af13          	slti	t5,a3,-453

00000000800079c8 <i_7520>:
    800079c8:	02c12683          	lw	a3,44(sp)

00000000800079cc <i_7521>:
    800079cc:	1d014583          	lbu	a1,464(sp)

00000000800079d0 <i_7522>:
    800079d0:	00000013          	nop

00000000800079d4 <i_7523>:
    800079d4:	74300413          	li	s0,1859

00000000800079d8 <i_7524>:
    800079d8:	75500813          	li	a6,1877

00000000800079dc <i_7525>:
    800079dc:	00140413          	addi	s0,s0,1 # 41cdb001 <main-0x3e324fff>
    800079e0:	ff044ee3          	blt	s0,a6,800079dc <i_7525>

00000000800079e4 <i_7526>:
    800079e4:	12b13423          	sd	a1,296(sp)

00000000800079e8 <i_7527>:
    800079e8:	cc8a3193          	sltiu	gp,s4,-824

00000000800079ec <i_7528>:
    800079ec:	eba14403          	lbu	s0,-326(sp)

00000000800079f0 <i_7529>:
    800079f0:	00b2c863          	blt	t0,a1,80007a00 <i_7533>

00000000800079f4 <i_7530>:
    800079f4:	e6510583          	lb	a1,-411(sp)

00000000800079f8 <i_7531>:
    800079f8:	02a1d063          	ble	a0,gp,80007a18 <i_7539>

00000000800079fc <i_7532>:
    800079fc:	fa610783          	lb	a5,-90(sp)

0000000080007a00 <i_7533>:
    80007a00:	00341613          	slli	a2,s0,0x3

0000000080007a04 <i_7534>:
    80007a04:	03c16303          	lwu	t1,60(sp)

0000000080007a08 <i_7535>:
    80007a08:	00779863          	bne	a5,t2,80007a18 <i_7539>

0000000080007a0c <i_7536>:
    80007a0c:	00c78263          	beq	a5,a2,80007a10 <i_7537>

0000000080007a10 <i_7537>:
    80007a10:	006637b3          	sltu	a5,a2,t1

0000000080007a14 <i_7538>:
    80007a14:	03d64093          	xori	ra,a2,61

0000000080007a18 <i_7539>:
    80007a18:	97308c1b          	addiw	s8,ra,-1677

0000000080007a1c <i_7540>:
    80007a1c:	01c00b13          	li	s6,28

0000000080007a20 <i_7541>:
    80007a20:	016090bb          	sllw	ra,ra,s6

0000000080007a24 <i_7542>:
    80007a24:	010b0633          	add	a2,s6,a6

0000000080007a28 <i_7543>:
    80007a28:	016c7663          	bleu	s6,s8,80007a34 <i_7546>

0000000080007a2c <i_7544>:
    80007a2c:	038b733b          	remuw	t1,s6,s8

0000000080007a30 <i_7545>:
    80007a30:	0b812e23          	sw	s8,188(sp)

0000000080007a34 <i_7546>:
    80007a34:	40235c13          	srai	s8,t1,0x2

0000000080007a38 <i_7547>:
    80007a38:	00c78b33          	add	s6,a5,a2

0000000080007a3c <i_7548>:
    80007a3c:	03830063          	beq	t1,s8,80007a5c <i_7556>

0000000080007a40 <i_7549>:
    80007a40:	e5a10223          	sb	s10,-444(sp)

0000000080007a44 <i_7550>:
    80007a44:	e6612223          	sw	t1,-412(sp)

0000000080007a48 <i_7551>:
    80007a48:	fdc16203          	lwu	tp,-36(sp)

0000000080007a4c <i_7552>:
    80007a4c:	7b534693          	xori	a3,t1,1973

0000000080007a50 <i_7553>:
    80007a50:	00000013          	nop

0000000080007a54 <i_7554>:
    80007a54:	6f3b2b13          	slti	s6,s6,1779

0000000080007a58 <i_7555>:
    80007a58:	018b39b3          	sltu	s3,s6,s8

0000000080007a5c <i_7556>:
    80007a5c:	017c7c33          	and	s8,s8,s7

0000000080007a60 <i_7557>:
    80007a60:	00000013          	nop

0000000080007a64 <i_7558>:
    80007a64:	76a00d13          	li	s10,1898

0000000080007a68 <i_7559>:
    80007a68:	77000f13          	li	t5,1904

0000000080007a6c <i_7560>:
    80007a6c:	418c0c3b          	subw	s8,s8,s8

0000000080007a70 <i_7561>:
    80007a70:	001d0d13          	addi	s10,s10,1
    80007a74:	ffed1ce3          	bne	s10,t5,80007a6c <i_7560>

0000000080007a78 <i_7562>:
    80007a78:	018b6663          	bltu	s6,s8,80007a84 <i_7565>

0000000080007a7c <i_7563>:
    80007a7c:	01811463          	bne	sp,s8,80007a84 <i_7565>

0000000080007a80 <i_7564>:
    80007a80:	038b4abb          	divw	s5,s6,s8

0000000080007a84 <i_7565>:
    80007a84:	036c5063          	ble	s6,s8,80007aa4 <i_7573>

0000000080007a88 <i_7566>:
    80007a88:	00c16b03          	lwu	s6,12(sp)

0000000080007a8c <i_7567>:
    80007a8c:	f8e15203          	lhu	tp,-114(sp)

0000000080007a90 <i_7568>:
    80007a90:	b6b31697          	auipc	a3,0xb6b31

0000000080007a94 <i_7569>:
    80007a94:	02dc5c3b          	divuw	s8,s8,a3

0000000080007a98 <i_7570>:
    80007a98:	0b813d83          	ld	s11,184(sp)

0000000080007a9c <i_7571>:
    80007a9c:	ff412a23          	sw	s4,-12(sp)

0000000080007aa0 <i_7572>:
    80007aa0:	f1c10c03          	lb	s8,-228(sp)

0000000080007aa4 <i_7573>:
    80007aa4:	018d9263          	bne	s11,s8,80007aa8 <i_7574>

0000000080007aa8 <i_7574>:
    80007aa8:	01724a63          	blt	tp,s7,80007abc <i_7579>

0000000080007aac <i_7575>:
    80007aac:	15016203          	lwu	tp,336(sp)

0000000080007ab0 <i_7576>:
    80007ab0:	004c7c63          	bleu	tp,s8,80007ac8 <i_7582>

0000000080007ab4 <i_7577>:
    80007ab4:	02424e3b          	divw	t3,tp,tp

0000000080007ab8 <i_7578>:
    80007ab8:	1d012083          	lw	ra,464(sp)

0000000080007abc <i_7579>:
    80007abc:	00000013          	nop

0000000080007ac0 <i_7580>:
    80007ac0:	01820c33          	add	s8,tp,s8

0000000080007ac4 <i_7581>:
    80007ac4:	e4214503          	lbu	a0,-446(sp)

0000000080007ac8 <i_7582>:
    80007ac8:	ff013303          	ld	t1,-16(sp)

0000000080007acc <i_7583>:
    80007acc:	038daab3          	mulhsu	s5,s11,s8

0000000080007ad0 <i_7584>:
    80007ad0:	7e300e13          	li	t3,2019

0000000080007ad4 <i_7585>:
    80007ad4:	7ea00393          	li	t2,2026

0000000080007ad8 <i_7586>:
    80007ad8:	15813d83          	ld	s11,344(sp)

0000000080007adc <i_7587>:
    80007adc:	00000013          	nop

0000000080007ae0 <i_7588>:
    80007ae0:	03bad463          	ble	s11,s5,80007b08 <i_7597>

0000000080007ae4 <i_7589>:
    80007ae4:	1d26c337          	lui	t1,0x1d26c

0000000080007ae8 <i_7590>:
    80007ae8:	03bd8463          	beq	s11,s11,80007b10 <i_7599>

0000000080007aec <i_7591>:
    80007aec:	03ba9063          	bne	s5,s11,80007b0c <i_7598>

0000000080007af0 <i_7592>:
    80007af0:	001e0e13          	addi	t3,t3,1
    80007af4:	ffc3d2e3          	ble	t3,t2,80007ad8 <i_7586>

0000000080007af8 <i_7593>:
    80007af8:	ff512223          	sw	s5,-28(sp)

0000000080007afc <i_7594>:
    80007afc:	e8b10a83          	lb	s5,-373(sp)

0000000080007b00 <i_7595>:
    80007b00:	29adfa93          	andi	s5,s11,666

0000000080007b04 <i_7596>:
    80007b04:	03a0ed33          	rem	s10,ra,s10

0000000080007b08 <i_7597>:
    80007b08:	01aa82b3          	add	t0,s5,s10

0000000080007b0c <i_7598>:
    80007b0c:	15a10123          	sb	s10,322(sp)

0000000080007b10 <i_7599>:
    80007b10:	0f215b83          	lhu	s7,242(sp)

0000000080007b14 <i_7600>:
    80007b14:	015abab3          	sltu	s5,s5,s5

0000000080007b18 <i_7601>:
    80007b18:	01bafab3          	and	s5,s5,s11

0000000080007b1c <i_7602>:
    80007b1c:	f29e7617          	auipc	a2,0xf29e7

0000000080007b20 <i_7603>:
    80007b20:	00200d93          	li	s11,2

0000000080007b24 <i_7604>:
    80007b24:	01ba93bb          	sllw	t2,s5,s11

0000000080007b28 <i_7605>:
    80007b28:	0a013b03          	ld	s6,160(sp)

0000000080007b2c <i_7606>:
    80007b2c:	00600d13          	li	s10,6

0000000080007b30 <i_7607>:
    80007b30:	01a25233          	srl	tp,tp,s10

0000000080007b34 <i_7608>:
    80007b34:	002d521b          	srliw	tp,s10,0x2

0000000080007b38 <i_7609>:
    80007b38:	01a241b3          	xor	gp,tp,s10

0000000080007b3c <i_7610>:
    80007b3c:	00320463          	beq	tp,gp,80007b44 <i_7612>

0000000080007b40 <i_7611>:
    80007b40:	015abab3          	sltu	s5,s5,s5

0000000080007b44 <i_7612>:
    80007b44:	1f512023          	sw	s5,480(sp)

0000000080007b48 <i_7613>:
    80007b48:	74d76a93          	ori	s5,a4,1869

0000000080007b4c <i_7614>:
    80007b4c:	0151e463          	bltu	gp,s5,80007b54 <i_7616>

0000000080007b50 <i_7615>:
    80007b50:	e2311223          	sh	gp,-476(sp)

0000000080007b54 <i_7616>:
    80007b54:	15513023          	sd	s5,320(sp)

0000000080007b58 <i_7617>:
    80007b58:	015bcc63          	blt	s7,s5,80007b70 <i_7623>

0000000080007b5c <i_7618>:
    80007b5c:	0351e063          	bltu	gp,s5,80007b7c <i_7626>

0000000080007b60 <i_7619>:
    80007b60:	12016d83          	lwu	s11,288(sp)

0000000080007b64 <i_7620>:
    80007b64:	e8412e23          	sw	tp,-356(sp)

0000000080007b68 <i_7621>:
    80007b68:	00714b83          	lbu	s7,7(sp)

0000000080007b6c <i_7622>:
    80007b6c:	ffb11323          	sh	s11,-26(sp)

0000000080007b70 <i_7623>:
    80007b70:	14c12203          	lw	tp,332(sp)

0000000080007b74 <i_7624>:
    80007b74:	1d611603          	lh	a2,470(sp)

0000000080007b78 <i_7625>:
    80007b78:	00c66a63          	bltu	a2,a2,80007b8c <i_7630>

0000000080007b7c <i_7626>:
    80007b7c:	36e0ce13          	xori	t3,ra,878

0000000080007b80 <i_7627>:
    80007b80:	401bdd9b          	sraiw	s11,s7,0x1

0000000080007b84 <i_7628>:
    80007b84:	ea113023          	sd	ra,-352(sp)

0000000080007b88 <i_7629>:
    80007b88:	19b13c23          	sd	s11,408(sp)

0000000080007b8c <i_7630>:
    80007b8c:	03bd9233          	mulh	tp,s11,s11

0000000080007b90 <i_7631>:
    80007b90:	00000013          	nop

0000000080007b94 <i_7632>:
    80007b94:	78200093          	li	ra,1922

0000000080007b98 <i_7633>:
    80007b98:	78700293          	li	t0,1927

0000000080007b9c <i_7634>:
    80007b9c:	0045ca63          	blt	a1,tp,80007bb0 <i_7639>

0000000080007ba0 <i_7635>:
    80007ba0:	02c66463          	bltu	a2,a2,80007bc8 <i_7644>

0000000080007ba4 <i_7636>:
    80007ba4:	02526263          	bltu	tp,t0,80007bc8 <i_7644>

0000000080007ba8 <i_7637>:
    80007ba8:	f9c14203          	lbu	tp,-100(sp)

0000000080007bac <i_7638>:
    80007bac:	004d8263          	beq	s11,tp,80007bb0 <i_7639>

0000000080007bb0 <i_7639>:
    80007bb0:	228dd197          	auipc	gp,0x228dd

0000000080007bb4 <i_7640>:
    80007bb4:	00000013          	nop

0000000080007bb8 <i_7641>:
    80007bb8:	00108093          	addi	ra,ra,1
    80007bbc:	fe12d0e3          	ble	ra,t0,80007b9c <i_7634>

0000000080007bc0 <i_7642>:
    80007bc0:	01b87a63          	bleu	s11,a6,80007bd4 <i_7647>

0000000080007bc4 <i_7643>:
    80007bc4:	78f3ea97          	auipc	s5,0x78f3e

0000000080007bc8 <i_7644>:
    80007bc8:	c19e7813          	andi	a6,t3,-999

0000000080007bcc <i_7645>:
    80007bcc:	00000013          	nop

0000000080007bd0 <i_7646>:
    80007bd0:	00000013          	nop

0000000080007bd4 <i_7647>:
    80007bd4:	0a011803          	lh	a6,160(sp)

0000000080007bd8 <i_7648>:
    80007bd8:	18815083          	lhu	ra,392(sp)

0000000080007bdc <i_7649>:
    80007bdc:	7ed00193          	li	gp,2029

0000000080007be0 <i_7650>:
    80007be0:	7f500e13          	li	t3,2037

0000000080007be4 <i_7651>:
    80007be4:	04313c23          	sd	gp,88(sp)

0000000080007be8 <i_7652>:
    80007be8:	403802bb          	subw	t0,a6,gp

0000000080007bec <i_7653>:
    80007bec:	01d00813          	li	a6,29

0000000080007bf0 <i_7654>:
    80007bf0:	010e583b          	srlw	a6,t3,a6

0000000080007bf4 <i_7655>:
    80007bf4:	010b5663          	ble	a6,s6,80007c00 <i_7658>

0000000080007bf8 <i_7656>:
    80007bf8:	09816b03          	lwu	s6,152(sp)

0000000080007bfc <i_7657>:
    80007bfc:	12a11503          	lh	a0,298(sp)

0000000080007c00 <i_7658>:
    80007c00:	e8512423          	sw	t0,-376(sp)

0000000080007c04 <i_7659>:
    80007c04:	fa813503          	ld	a0,-88(sp)

0000000080007c08 <i_7660>:
    80007c08:	01027233          	and	tp,tp,a6

0000000080007c0c <i_7661>:
    80007c0c:	00118193          	addi	gp,gp,1 # a28e4bb1 <_end+0x228d479d>
    80007c10:	fc3e5ae3          	ble	gp,t3,80007be4 <i_7651>

0000000080007c14 <i_7662>:
    80007c14:	02a56e3b          	remw	t3,a0,a0

0000000080007c18 <i_7663>:
    80007c18:	0363e463          	bltu	t2,s6,80007c40 <i_7673>

0000000080007c1c <i_7664>:
    80007c1c:	f2a13423          	sd	a0,-216(sp)

0000000080007c20 <i_7665>:
    80007c20:	010ae533          	or	a0,s5,a6

0000000080007c24 <i_7666>:
    80007c24:	01c13823          	sd	t3,16(sp)

0000000080007c28 <i_7667>:
    80007c28:	19014483          	lbu	s1,400(sp)

0000000080007c2c <i_7668>:
    80007c2c:	016a6a33          	or	s4,s4,s6

0000000080007c30 <i_7669>:
    80007c30:	014a0a33          	add	s4,s4,s4

0000000080007c34 <i_7670>:
    80007c34:	1b413823          	sd	s4,432(sp)

0000000080007c38 <i_7671>:
    80007c38:	72ea0b13          	addi	s6,s4,1838

0000000080007c3c <i_7672>:
    80007c3c:	01448863          	beq	s1,s4,80007c4c <i_7676>

0000000080007c40 <i_7673>:
    80007c40:	014a1c63          	bne	s4,s4,80007c58 <i_7679>

0000000080007c44 <i_7674>:
    80007c44:	09412a23          	sw	s4,148(sp)

0000000080007c48 <i_7675>:
    80007c48:	0ecb0a1b          	addiw	s4,s6,236

0000000080007c4c <i_7676>:
    80007c4c:	fb728a13          	addi	s4,t0,-73

0000000080007c50 <i_7677>:
    80007c50:	03448b33          	mul	s6,s1,s4

0000000080007c54 <i_7678>:
    80007c54:	0c816503          	lwu	a0,200(sp)

0000000080007c58 <i_7679>:
    80007c58:	0ac10083          	lb	ra,172(sp)

0000000080007c5c <i_7680>:
    80007c5c:	15cce537          	lui	a0,0x15cce

0000000080007c60 <i_7681>:
    80007c60:	eaa13823          	sd	a0,-336(sp)

0000000080007c64 <i_7682>:
    80007c64:	0210e463          	bltu	ra,ra,80007c8c <i_7692>

0000000080007c68 <i_7683>:
    80007c68:	0d611123          	sh	s6,194(sp)

0000000080007c6c <i_7684>:
    80007c6c:	fa813503          	ld	a0,-88(sp)

0000000080007c70 <i_7685>:
    80007c70:	bc7f40b7          	lui	ra,0xbc7f4

0000000080007c74 <i_7686>:
    80007c74:	e5811b83          	lh	s7,-424(sp)

0000000080007c78 <i_7687>:
    80007c78:	e8313823          	sd	gp,-368(sp)

0000000080007c7c <i_7688>:
    80007c7c:	fd814183          	lbu	gp,-40(sp)

0000000080007c80 <i_7689>:
    80007c80:	0121d663          	ble	s2,gp,80007c8c <i_7692>

0000000080007c84 <i_7690>:
    80007c84:	f3f13c23          	sd	t6,-200(sp)

0000000080007c88 <i_7691>:
    80007c88:	ee113423          	sd	ra,-280(sp)

0000000080007c8c <i_7692>:
    80007c8c:	00309263          	bne	ra,gp,80007c90 <i_7693>

0000000080007c90 <i_7693>:
    80007c90:	0211b7b3          	mulhu	a5,gp,ra

0000000080007c94 <i_7694>:
    80007c94:	4036569b          	sraiw	a3,a2,0x3

0000000080007c98 <i_7695>:
    80007c98:	10d12a23          	sw	a3,276(sp)

0000000080007c9c <i_7696>:
    80007c9c:	00fef0b3          	and	ra,t4,a5

0000000080007ca0 <i_7697>:
    80007ca0:	e8a08093          	addi	ra,ra,-374 # ffffffffbc7f3e8a <_end+0xffffffff3c7e3a76>

0000000080007ca4 <i_7698>:
    80007ca4:	03d6eebb          	remw	t4,a3,t4

0000000080007ca8 <i_7699>:
    80007ca8:	12710683          	lb	a3,295(sp)

0000000080007cac <i_7700>:
    80007cac:	00d6e0b3          	or	ra,a3,a3

0000000080007cb0 <i_7701>:
    80007cb0:	f8412b83          	lw	s7,-124(sp)

0000000080007cb4 <i_7702>:
    80007cb4:	001bd49b          	srliw	s1,s7,0x1

0000000080007cb8 <i_7703>:
    80007cb8:	402bd09b          	sraiw	ra,s7,0x2

0000000080007cbc <i_7704>:
    80007cbc:	0176ebb3          	or	s7,a3,s7

0000000080007cc0 <i_7705>:
    80007cc0:	0010e863          	bltu	ra,ra,80007cd0 <i_7709>

0000000080007cc4 <i_7706>:
    80007cc4:	01023333          	sltu	t1,tp,a6

0000000080007cc8 <i_7707>:
    80007cc8:	17b3d0b7          	lui	ra,0x17b3d

0000000080007ccc <i_7708>:
    80007ccc:	e6016a83          	lwu	s5,-416(sp)

0000000080007cd0 <i_7709>:
    80007cd0:	00690a63          	beq	s2,t1,80007ce4 <i_7714>

0000000080007cd4 <i_7710>:
    80007cd4:	00d00093          	li	ra,13

0000000080007cd8 <i_7711>:
    80007cd8:	00109cb3          	sll	s9,ra,ra

0000000080007cdc <i_7712>:
    80007cdc:	0340d6bb          	divuw	a3,ra,s4

0000000080007ce0 <i_7713>:
    80007ce0:	0190fc63          	bleu	s9,ra,80007cf8 <i_7719>

0000000080007ce4 <i_7714>:
    80007ce4:	e1c10683          	lb	a3,-484(sp)

0000000080007ce8 <i_7715>:
    80007ce8:	0046969b          	slliw	a3,a3,0x4

0000000080007cec <i_7716>:
    80007cec:	05b3a317          	auipc	t1,0x5b3a

0000000080007cf0 <i_7717>:
    80007cf0:	01600693          	li	a3,22

0000000080007cf4 <i_7718>:
    80007cf4:	00d6d33b          	srlw	t1,a3,a3

0000000080007cf8 <i_7719>:
    80007cf8:	b2c6a693          	slti	a3,a3,-1236

0000000080007cfc <i_7720>:
    80007cfc:	02d6e333          	rem	t1,a3,a3

0000000080007d00 <i_7721>:
    80007d00:	f6c12d83          	lw	s11,-148(sp)

0000000080007d04 <i_7722>:
    80007d04:	e5013e03          	ld	t3,-432(sp)

0000000080007d08 <i_7723>:
    80007d08:	00379b9b          	slliw	s7,a5,0x3

0000000080007d0c <i_7724>:
    80007d0c:	01c30e63          	beq	t1,t3,80007d28 <i_7731>

0000000080007d10 <i_7725>:
    80007d10:	e8a12a23          	sw	a0,-364(sp)

0000000080007d14 <i_7726>:
    80007d14:	00000013          	nop

0000000080007d18 <i_7727>:
    80007d18:	02af0f33          	mul	t5,t5,a0

0000000080007d1c <i_7728>:
    80007d1c:	f4611e03          	lh	t3,-186(sp)

0000000080007d20 <i_7729>:
    80007d20:	00ce6e33          	or	t3,t3,a2

0000000080007d24 <i_7730>:
    80007d24:	00000013          	nop

0000000080007d28 <i_7731>:
    80007d28:	028f33b3          	mulhu	t2,t5,s0

0000000080007d2c <i_7732>:
    80007d2c:	00b00f13          	li	t5,11

0000000080007d30 <i_7733>:
    80007d30:	01e3943b          	sllw	s0,t2,t5

0000000080007d34 <i_7734>:
    80007d34:	76200513          	li	a0,1890

0000000080007d38 <i_7735>:
    80007d38:	77300613          	li	a2,1907

0000000080007d3c <i_7736>:
    80007d3c:	00000013          	nop

0000000080007d40 <i_7737>:
    80007d40:	fb012f03          	lw	t5,-80(sp)

0000000080007d44 <i_7738>:
    80007d44:	02746663          	bltu	s0,t2,80007d70 <i_7748>

0000000080007d48 <i_7739>:
    80007d48:	00150513          	addi	a0,a0,1 # 15cce001 <main-0x6a331fff>
    80007d4c:	fec546e3          	blt	a0,a2,80007d38 <i_7735>

0000000080007d50 <i_7740>:
    80007d50:	08c12e03          	lw	t3,140(sp)

0000000080007d54 <i_7741>:
    80007d54:	03c84063          	blt	a6,t3,80007d74 <i_7749>

0000000080007d58 <i_7742>:
    80007d58:	13012e03          	lw	t3,304(sp)

0000000080007d5c <i_7743>:
    80007d5c:	e3013823          	sd	a6,-464(sp)

0000000080007d60 <i_7744>:
    80007d60:	00000013          	nop

0000000080007d64 <i_7745>:
    80007d64:	10614283          	lbu	t0,262(sp)

0000000080007d68 <i_7746>:
    80007d68:	03ce62b3          	rem	t0,t3,t3

0000000080007d6c <i_7747>:
    80007d6c:	01f00293          	li	t0,31

0000000080007d70 <i_7748>:
    80007d70:	005296bb          	sllw	a3,t0,t0

0000000080007d74 <i_7749>:
    80007d74:	16914083          	lbu	ra,361(sp)

0000000080007d78 <i_7750>:
    80007d78:	ed012483          	lw	s1,-304(sp)

0000000080007d7c <i_7751>:
    80007d7c:	78800813          	li	a6,1928

0000000080007d80 <i_7752>:
    80007d80:	79400613          	li	a2,1940

0000000080007d84 <i_7753>:
    80007d84:	d1914a93          	xori	s5,sp,-743

0000000080007d88 <i_7754>:
    80007d88:	13416183          	lwu	gp,308(sp)

0000000080007d8c <i_7755>:
    80007d8c:	0152b2b3          	sltu	t0,t0,s5

0000000080007d90 <i_7756>:
    80007d90:	00180813          	addi	a6,a6,1
    80007d94:	fec848e3          	blt	a6,a2,80007d84 <i_7753>

0000000080007d98 <i_7757>:
    80007d98:	a812021b          	addiw	tp,tp,-1407

0000000080007d9c <i_7758>:
    80007d9c:	0b510923          	sb	s5,178(sp)

0000000080007da0 <i_7759>:
    80007da0:	415a81bb          	subw	gp,s5,s5

0000000080007da4 <i_7760>:
    80007da4:	00329c63          	bne	t0,gp,80007dbc <i_7766>

0000000080007da8 <i_7761>:
    80007da8:	17412283          	lw	t0,372(sp)

0000000080007dac <i_7762>:
    80007dac:	ea412d03          	lw	s10,-348(sp)

0000000080007db0 <i_7763>:
    80007db0:	00000013          	nop

0000000080007db4 <i_7764>:
    80007db4:	fb811d03          	lh	s10,-72(sp)

0000000080007db8 <i_7765>:
    80007db8:	eda10b23          	sb	s10,-298(sp)

0000000080007dbc <i_7766>:
    80007dbc:	16e14d03          	lbu	s10,366(sp)

0000000080007dc0 <i_7767>:
    80007dc0:	14813d03          	ld	s10,328(sp)

0000000080007dc4 <i_7768>:
    80007dc4:	7b200b93          	li	s7,1970

0000000080007dc8 <i_7769>:
    80007dc8:	7ba00c93          	li	s9,1978

0000000080007dcc <i_7770>:
    80007dcc:	1d412083          	lw	ra,468(sp)

0000000080007dd0 <i_7771>:
    80007dd0:	01a60863          	beq	a2,s10,80007de0 <i_7775>

0000000080007dd4 <i_7772>:
    80007dd4:	e7812083          	lw	ra,-392(sp)

0000000080007dd8 <i_7773>:
    80007dd8:	03ad7a3b          	remuw	s4,s10,s10

0000000080007ddc <i_7774>:
    80007ddc:	14c10423          	sb	a2,328(sp)

0000000080007de0 <i_7775>:
    80007de0:	01ea4663          	blt	s4,t5,80007dec <i_7778>

0000000080007de4 <i_7776>:
    80007de4:	e5413023          	sd	s4,-448(sp)

0000000080007de8 <i_7777>:
    80007de8:	00b60633          	add	a2,a2,a1

0000000080007dec <i_7778>:
    80007dec:	0fcee413          	ori	s0,t4,252

0000000080007df0 <i_7779>:
    80007df0:	00000013          	nop

0000000080007df4 <i_7780>:
    80007df4:	001b8b93          	addi	s7,s7,1
    80007df8:	fd9b9ae3          	bne	s7,s9,80007dcc <i_7770>

0000000080007dfc <i_7781>:
    80007dfc:	0300fab3          	remu	s5,ra,a6

0000000080007e00 <i_7782>:
    80007e00:	0a011183          	lh	gp,160(sp)

0000000080007e04 <i_7783>:
    80007e04:	18112623          	sw	ra,396(sp)

0000000080007e08 <i_7784>:
    80007e08:	00000013          	nop

0000000080007e0c <i_7785>:
    80007e0c:	73900d13          	li	s10,1849

0000000080007e10 <i_7786>:
    80007e10:	74700793          	li	a5,1863

0000000080007e14 <i_7787>:
    80007e14:	021df0b3          	remu	ra,s11,ra

0000000080007e18 <i_7788>:
    80007e18:	01b1cdb3          	xor	s11,gp,s11

0000000080007e1c <i_7789>:
    80007e1c:	ec013f03          	ld	t5,-320(sp)

0000000080007e20 <i_7790>:
    80007e20:	001d0d13          	addi	s10,s10,1
    80007e24:	ffa7f8e3          	bleu	s10,a5,80007e14 <i_7787>

0000000080007e28 <i_7791>:
    80007e28:	31a7ff13          	andi	t5,a5,794

0000000080007e2c <i_7792>:
    80007e2c:	ee813083          	ld	ra,-280(sp)

0000000080007e30 <i_7793>:
    80007e30:	001d9263          	bne	s11,ra,80007e34 <i_7794>

0000000080007e34 <i_7794>:
    80007e34:	00f1ca63          	blt	gp,a5,80007e48 <i_7799>

0000000080007e38 <i_7795>:
    80007e38:	f3b14b03          	lbu	s6,-197(sp)

0000000080007e3c <i_7796>:
    80007e3c:	13812b03          	lw	s6,312(sp)

0000000080007e40 <i_7797>:
    80007e40:	03eb31b3          	mulhu	gp,s6,t5

0000000080007e44 <i_7798>:
    80007e44:	03b1e063          	bltu	gp,s11,80007e64 <i_7806>

0000000080007e48 <i_7799>:
    80007e48:	02812c03          	lw	s8,40(sp)

0000000080007e4c <i_7800>:
    80007e4c:	01810fa3          	sb	s8,31(sp)

0000000080007e50 <i_7801>:
    80007e50:	f3412403          	lw	s0,-204(sp)

0000000080007e54 <i_7802>:
    80007e54:	00265613          	srli	a2,a2,0x2

0000000080007e58 <i_7803>:
    80007e58:	15810123          	sb	s8,322(sp)

0000000080007e5c <i_7804>:
    80007e5c:	00400a13          	li	s4,4

0000000080007e60 <i_7805>:
    80007e60:	014b1b3b          	sllw	s6,s6,s4

0000000080007e64 <i_7806>:
    80007e64:	0ac13423          	sd	a2,168(sp)

0000000080007e68 <i_7807>:
    80007e68:	1d05e437          	lui	s0,0x1d05e

0000000080007e6c <i_7808>:
    80007e6c:	03900513          	li	a0,57

0000000080007e70 <i_7809>:
    80007e70:	00a65b33          	srl	s6,a2,a0

0000000080007e74 <i_7810>:
    80007e74:	00100a13          	li	s4,1

0000000080007e78 <i_7811>:
    80007e78:	014a1a3b          	sllw	s4,s4,s4

0000000080007e7c <i_7812>:
    80007e7c:	016a5263          	ble	s6,s4,80007e80 <i_7813>

0000000080007e80 <i_7813>:
    80007e80:	40ca0ebb          	subw	t4,s4,a2

0000000080007e84 <i_7814>:
    80007e84:	1b410ba3          	sb	s4,439(sp)

0000000080007e88 <i_7815>:
    80007e88:	016e6e63          	bltu	t3,s6,80007ea4 <i_7822>

0000000080007e8c <i_7816>:
    80007e8c:	f5114b03          	lbu	s6,-175(sp)

0000000080007e90 <i_7817>:
    80007e90:	f5813983          	ld	s3,-168(sp)

0000000080007e94 <i_7818>:
    80007e94:	fa013c03          	ld	s8,-96(sp)

0000000080007e98 <i_7819>:
    80007e98:	fa813503          	ld	a0,-88(sp)

0000000080007e9c <i_7820>:
    80007e9c:	711d17b7          	lui	a5,0x711d1

0000000080007ea0 <i_7821>:
    80007ea0:	0049dc1b          	srliw	s8,s3,0x4

0000000080007ea4 <i_7822>:
    80007ea4:	03899c33          	mulh	s8,s3,s8

0000000080007ea8 <i_7823>:
    80007ea8:	0137d463          	ble	s3,a5,80007eb0 <i_7825>

0000000080007eac <i_7824>:
    80007eac:	14c12603          	lw	a2,332(sp)

0000000080007eb0 <i_7825>:
    80007eb0:	009c0c33          	add	s8,s8,s1

0000000080007eb4 <i_7826>:
    80007eb4:	00fc0663          	beq	s8,a5,80007ec0 <i_7829>

0000000080007eb8 <i_7827>:
    80007eb8:	a8864313          	xori	t1,a2,-1400

0000000080007ebc <i_7828>:
    80007ebc:	1a013783          	ld	a5,416(sp)

0000000080007ec0 <i_7829>:
    80007ec0:	a58c0c1b          	addiw	s8,s8,-1448

0000000080007ec4 <i_7830>:
    80007ec4:	00f78263          	beq	a5,a5,80007ec8 <i_7831>

0000000080007ec8 <i_7831>:
    80007ec8:	f9811523          	sh	s8,-118(sp)

0000000080007ecc <i_7832>:
    80007ecc:	40ff063b          	subw	a2,t5,a5

0000000080007ed0 <i_7833>:
    80007ed0:	0d416c03          	lwu	s8,212(sp)

0000000080007ed4 <i_7834>:
    80007ed4:	fc010c03          	lb	s8,-64(sp)

0000000080007ed8 <i_7835>:
    80007ed8:	06010383          	lb	t2,96(sp)

0000000080007edc <i_7836>:
    80007edc:	02c38263          	beq	t2,a2,80007f00 <i_7845>

0000000080007ee0 <i_7837>:
    80007ee0:	e7312a23          	sw	s3,-396(sp)

0000000080007ee4 <i_7838>:
    80007ee4:	038c5463          	ble	s8,s8,80007f0c <i_7848>

0000000080007ee8 <i_7839>:
    80007ee8:	00c60633          	add	a2,a2,a2

0000000080007eec <i_7840>:
    80007eec:	00000013          	nop

0000000080007ef0 <i_7841>:
    80007ef0:	71f7c793          	xori	a5,a5,1823

0000000080007ef4 <i_7842>:
    80007ef4:	08c12023          	sw	a2,128(sp)

0000000080007ef8 <i_7843>:
    80007ef8:	1b813803          	ld	a6,440(sp)

0000000080007efc <i_7844>:
    80007efc:	00000013          	nop

0000000080007f00 <i_7845>:
    80007f00:	ff17c593          	xori	a1,a5,-15

0000000080007f04 <i_7846>:
    80007f04:	e5f10a83          	lb	s5,-417(sp)

0000000080007f08 <i_7847>:
    80007f08:	00000013          	nop

0000000080007f0c <i_7848>:
    80007f0c:	00000013          	nop

0000000080007f10 <i_7849>:
    80007f10:	0ac12983          	lw	s3,172(sp)

0000000080007f14 <i_7850>:
    80007f14:	73600c13          	li	s8,1846

0000000080007f18 <i_7851>:
    80007f18:	73e00093          	li	ra,1854

0000000080007f1c <i_7852>:
    80007f1c:	0157ce63          	blt	a5,s5,80007f38 <i_7858>

0000000080007f20 <i_7853>:
    80007f20:	001c0c13          	addi	s8,s8,1 # ffffffffb68da001 <_end+0xffffffff368c9bed>
    80007f24:	ff80fce3          	bleu	s8,ra,80007f1c <i_7852>

0000000080007f28 <i_7854>:
    80007f28:	410a883b          	subw	a6,s5,a6

0000000080007f2c <i_7855>:
    80007f2c:	010a8463          	beq	s5,a6,80007f34 <i_7857>

0000000080007f30 <i_7856>:
    80007f30:	0309d063          	ble	a6,s3,80007f50 <i_7864>

0000000080007f34 <i_7857>:
    80007f34:	e7f9ba93          	sltiu	s5,s3,-385

0000000080007f38 <i_7858>:
    80007f38:	035ae33b          	remw	t1,s5,s5

0000000080007f3c <i_7859>:
    80007f3c:	f5010aa3          	sb	a6,-171(sp)

0000000080007f40 <i_7860>:
    80007f40:	02100a93          	li	s5,33

0000000080007f44 <i_7861>:
    80007f44:	415ad233          	sra	tp,s5,s5

0000000080007f48 <i_7862>:
    80007f48:	00000013          	nop

0000000080007f4c <i_7863>:
    80007f4c:	03b00213          	li	tp,59

0000000080007f50 <i_7864>:
    80007f50:	404ad9b3          	sra	s3,s5,tp

0000000080007f54 <i_7865>:
    80007f54:	18812203          	lw	tp,392(sp)

0000000080007f58 <i_7866>:
    80007f58:	8b700813          	li	a6,-1865

0000000080007f5c <i_7867>:
    80007f5c:	8c700d93          	li	s11,-1849

0000000080007f60 <i_7868>:
    80007f60:	013267b3          	or	a5,tp,s3

0000000080007f64 <i_7869>:
    80007f64:	09313c23          	sd	s3,152(sp)

0000000080007f68 <i_7870>:
    80007f68:	1d416203          	lwu	tp,468(sp)

0000000080007f6c <i_7871>:
    80007f6c:	0339f463          	bleu	s3,s3,80007f94 <i_7880>

0000000080007f70 <i_7872>:
    80007f70:	004989b3          	add	s3,s3,tp

0000000080007f74 <i_7873>:
    80007f74:	00f22233          	slt	tp,tp,a5

0000000080007f78 <i_7874>:
    80007f78:	02d00a13          	li	s4,45

0000000080007f7c <i_7875>:
    80007f7c:	41425233          	sra	tp,tp,s4

0000000080007f80 <i_7876>:
    80007f80:	00180813          	addi	a6,a6,1
    80007f84:	fd0dfee3          	bleu	a6,s11,80007f60 <i_7868>

0000000080007f88 <i_7877>:
    80007f88:	18814783          	lbu	a5,392(sp)

0000000080007f8c <i_7878>:
    80007f8c:	985c0793          	addi	a5,s8,-1659

0000000080007f90 <i_7879>:
    80007f90:	03400093          	li	ra,52

0000000080007f94 <i_7880>:
    80007f94:	00149b33          	sll	s6,s1,ra

0000000080007f98 <i_7881>:
    80007f98:	d7db0c37          	lui	s8,0xd7db0

0000000080007f9c <i_7882>:
    80007f9c:	7d000f13          	li	t5,2000

0000000080007fa0 <i_7883>:
    80007fa0:	7d900493          	li	s1,2009

0000000080007fa4 <i_7884>:
    80007fa4:	1df14403          	lbu	s0,479(sp)

0000000080007fa8 <i_7885>:
    80007fa8:	401c0c3b          	subw	s8,s8,ra

0000000080007fac <i_7886>:
    80007fac:	19414c03          	lbu	s8,404(sp)

0000000080007fb0 <i_7887>:
    80007fb0:	038f3533          	mulhu	a0,t5,s8

0000000080007fb4 <i_7888>:
    80007fb4:	00a0a0b3          	slt	ra,ra,a0

0000000080007fb8 <i_7889>:
    80007fb8:	005c7263          	bleu	t0,s8,80007fbc <i_7890>

0000000080007fbc <i_7890>:
    80007fbc:	001c60b3          	or	ra,s8,ra

0000000080007fc0 <i_7891>:
    80007fc0:	02ac7063          	bleu	a0,s8,80007fe0 <i_7898>

0000000080007fc4 <i_7892>:
    80007fc4:	001f0f13          	addi	t5,t5,1
    80007fc8:	fc9f4ee3          	blt	t5,s1,80007fa4 <i_7884>

0000000080007fcc <i_7893>:
    80007fcc:	e8370513          	addi	a0,a4,-381

0000000080007fd0 <i_7894>:
    80007fd0:	b5dc0d13          	addi	s10,s8,-1187 # ffffffffd7dafb5d <_end+0xffffffff57d9f749>

0000000080007fd4 <i_7895>:
    80007fd4:	01800c13          	li	s8,24

0000000080007fd8 <i_7896>:
    80007fd8:	018c17bb          	sllw	a5,s8,s8

0000000080007fdc <i_7897>:
    80007fdc:	0352c063          	blt	t0,s5,80007ffc <i_7905>

0000000080007fe0 <i_7898>:
    80007fe0:	14410603          	lb	a2,324(sp)

0000000080007fe4 <i_7899>:
    80007fe4:	03ad1063          	bne	s10,s10,80008004 <i_7907>

0000000080007fe8 <i_7900>:
    80007fe8:	00c7da63          	ble	a2,a5,80007ffc <i_7905>

0000000080007fec <i_7901>:
    80007fec:	f2a15c03          	lhu	s8,-214(sp)

0000000080007ff0 <i_7902>:
    80007ff0:	f8211183          	lh	gp,-126(sp)

0000000080007ff4 <i_7903>:
    80007ff4:	00000013          	nop

0000000080007ff8 <i_7904>:
    80007ff8:	0ac10483          	lb	s1,172(sp)

0000000080007ffc <i_7905>:
    80007ffc:	f03104a3          	sb	gp,-247(sp)

0000000080008000 <i_7906>:
    80008000:	15813183          	ld	gp,344(sp)

0000000080008004 <i_7907>:
    80008004:	fbc15483          	lhu	s1,-68(sp)

0000000080008008 <i_7908>:
    80008008:	00000013          	nop

000000008000800c <i_7909>:
    8000800c:	83900613          	li	a2,-1991

0000000080008010 <i_7910>:
    80008010:	84900c13          	li	s8,-1975

0000000080008014 <i_7911>:
    80008014:	f6913823          	sd	s1,-144(sp)

0000000080008018 <i_7912>:
    80008018:	02948463          	beq	s1,s1,80008040 <i_7921>

000000008000801c <i_7913>:
    8000801c:	06313823          	sd	gp,112(sp)

0000000080008020 <i_7914>:
    80008020:	00965c63          	ble	s1,a2,80008038 <i_7919>

0000000080008024 <i_7915>:
    80008024:	ea912a23          	sw	s1,-332(sp)

0000000080008028 <i_7916>:
    80008028:	00160613          	addi	a2,a2,1 # 729eeb1d <main-0xd6114e3>
    8000802c:	fecc14e3          	bne	s8,a2,80008014 <i_7911>

0000000080008030 <i_7917>:
    80008030:	3d672a97          	auipc	s5,0x3d672

0000000080008034 <i_7918>:
    80008034:	10016c03          	lwu	s8,256(sp)

0000000080008038 <i_7919>:
    80008038:	01e98863          	beq	s3,t5,80008048 <i_7923>

000000008000803c <i_7920>:
    8000803c:	951aa493          	slti	s1,s5,-1711

0000000080008040 <i_7921>:
    80008040:	0031199b          	slliw	s3,sp,0x3

0000000080008044 <i_7922>:
    80008044:	010afa63          	bleu	a6,s5,80008058 <i_7927>

0000000080008048 <i_7923>:
    80008048:	02899463          	bne	s3,s0,80008070 <i_7933>

000000008000804c <i_7924>:
    8000804c:	64c47413          	andi	s0,s0,1612

0000000080008050 <i_7925>:
    80008050:	0d311e23          	sh	s3,220(sp)

0000000080008054 <i_7926>:
    80008054:	00399a13          	slli	s4,s3,0x3

0000000080008058 <i_7927>:
    80008058:	f0813983          	ld	s3,-248(sp)

000000008000805c <i_7928>:
    8000805c:	ebe10303          	lb	t1,-322(sp)

0000000080008060 <i_7929>:
    80008060:	0066a6b3          	slt	a3,a3,t1

0000000080008064 <i_7930>:
    80008064:	80fa0c93          	addi	s9,s4,-2033

0000000080008068 <i_7931>:
    80008068:	016a1663          	bne	s4,s6,80008074 <i_7934>

000000008000806c <i_7932>:
    8000806c:	0339f7bb          	remuw	a5,s3,s3

0000000080008070 <i_7933>:
    80008070:	03937263          	bleu	s9,t1,80008094 <i_7942>

0000000080008074 <i_7934>:
    80008074:	01476c63          	bltu	a4,s4,8000808c <i_7940>

0000000080008078 <i_7935>:
    80008078:	f8615a03          	lhu	s4,-122(sp)

000000008000807c <i_7936>:
    8000807c:	00000013          	nop

0000000080008080 <i_7937>:
    80008080:	e2416503          	lwu	a0,-476(sp)

0000000080008084 <i_7938>:
    80008084:	e5c14683          	lbu	a3,-420(sp)

0000000080008088 <i_7939>:
    80008088:	00000013          	nop

000000008000808c <i_7940>:
    8000808c:	02466613          	ori	a2,a2,36

0000000080008090 <i_7941>:
    80008090:	40ac8a33          	sub	s4,s9,a0

0000000080008094 <i_7942>:
    80008094:	f5413023          	sd	s4,-192(sp)

0000000080008098 <i_7943>:
    80008098:	e5e10b83          	lb	s7,-418(sp)

000000008000809c <i_7944>:
    8000809c:	7ab00c93          	li	s9,1963

00000000800080a0 <i_7945>:
    800080a0:	7b300d13          	li	s10,1971

00000000800080a4 <i_7946>:
    800080a4:	1e215a03          	lhu	s4,482(sp)

00000000800080a8 <i_7947>:
    800080a8:	8077f693          	andi	a3,a5,-2041

00000000800080ac <i_7948>:
    800080ac:	0a816503          	lwu	a0,168(sp)

00000000800080b0 <i_7949>:
    800080b0:	00ed1663          	bne	s10,a4,800080bc <i_7952>

00000000800080b4 <i_7950>:
    800080b4:	f1012a83          	lw	s5,-240(sp)

00000000800080b8 <i_7951>:
    800080b8:	1c2a3393          	sltiu	t2,s4,450

00000000800080bc <i_7952>:
    800080bc:	02ab8eb3          	mul	t4,s7,a0

00000000800080c0 <i_7953>:
    800080c0:	06416203          	lwu	tp,100(sp)

00000000800080c4 <i_7954>:
    800080c4:	1a016b83          	lwu	s7,416(sp)

00000000800080c8 <i_7955>:
    800080c8:	001c8c93          	addi	s9,s9,1
    800080cc:	fd9d7ce3          	bleu	s9,s10,800080a4 <i_7946>

00000000800080d0 <i_7956>:
    800080d0:	0b816c03          	lwu	s8,184(sp)

00000000800080d4 <i_7957>:
    800080d4:	01dbd463          	ble	t4,s7,800080dc <i_7959>

00000000800080d8 <i_7958>:
    800080d8:	e7810e83          	lb	t4,-392(sp)

00000000800080dc <i_7959>:
    800080dc:	019be863          	bltu	s7,s9,800080ec <i_7963>

00000000800080e0 <i_7960>:
    800080e0:	0048de63          	ble	tp,a7,800080fc <i_7967>

00000000800080e4 <i_7961>:
    800080e4:	001cdc93          	srli	s9,s9,0x1

00000000800080e8 <i_7962>:
    800080e8:	14816303          	lwu	t1,328(sp)

00000000800080ec <i_7963>:
    800080ec:	02500393          	li	t2,37

00000000800080f0 <i_7964>:
    800080f0:	407cdbb3          	sra	s7,s9,t2

00000000800080f4 <i_7965>:
    800080f4:	894ee2b7          	lui	t0,0x894ee

00000000800080f8 <i_7966>:
    800080f8:	004bd993          	srli	s3,s7,0x4

00000000800080fc <i_7967>:
    800080fc:	1b816a83          	lwu	s5,440(sp)

0000000080008100 <i_7968>:
    80008100:	b8898c1b          	addiw	s8,s3,-1144

0000000080008104 <i_7969>:
    80008104:	018c0863          	beq	s8,s8,80008114 <i_7973>

0000000080008108 <i_7970>:
    80008108:	01b2c263          	blt	t0,s11,8000810c <i_7971>

000000008000810c <i_7971>:
    8000810c:	13016083          	lwu	ra,304(sp)

0000000080008110 <i_7972>:
    80008110:	00000013          	nop

0000000080008114 <i_7973>:
    80008114:	405d89b3          	sub	s3,s11,t0

0000000080008118 <i_7974>:
    80008118:	ebc15083          	lhu	ra,-324(sp)

000000008000811c <i_7975>:
    8000811c:	76700293          	li	t0,1895

0000000080008120 <i_7976>:
    80008120:	76d00d93          	li	s11,1901

0000000080008124 <i_7977>:
    80008124:	0130ca63          	blt	ra,s3,80008138 <i_7982>

0000000080008128 <i_7978>:
    80008128:	ebc12583          	lw	a1,-324(sp)

000000008000812c <i_7979>:
    8000812c:	01359263          	bne	a1,s3,80008130 <i_7980>

0000000080008130 <i_7980>:
    80008130:	fe514503          	lbu	a0,-27(sp)

0000000080008134 <i_7981>:
    80008134:	02a09063          	bne	ra,a0,80008154 <i_7988>

0000000080008138 <i_7982>:
    80008138:	14914e03          	lbu	t3,329(sp)

000000008000813c <i_7983>:
    8000813c:	fb3101a3          	sb	s3,-93(sp)

0000000080008140 <i_7984>:
    80008140:	01657533          	and	a0,a0,s6

0000000080008144 <i_7985>:
    80008144:	00128293          	addi	t0,t0,1 # ffffffff894ee001 <_end+0xffffffff094ddbed>
    80008148:	fc5dfee3          	bleu	t0,s11,80008124 <i_7977>

000000008000814c <i_7986>:
    8000814c:	00100e13          	li	t3,1

0000000080008150 <i_7987>:
    80008150:	01ce553b          	srlw	a0,t3,t3

0000000080008154 <i_7988>:
    80008154:	00a57663          	bleu	a0,a0,80008160 <i_7991>

0000000080008158 <i_7989>:
    80008158:	03c0f063          	bleu	t3,ra,80008178 <i_7997>

000000008000815c <i_7990>:
    8000815c:	ed816503          	lwu	a0,-296(sp)

0000000080008160 <i_7991>:
    80008160:	00314503          	lbu	a0,3(sp)

0000000080008164 <i_7992>:
    80008164:	01c966b3          	or	a3,s2,t3

0000000080008168 <i_7993>:
    80008168:	01a15583          	lhu	a1,26(sp)

000000008000816c <i_7994>:
    8000816c:	00d58a33          	add	s4,a1,a3

0000000080008170 <i_7995>:
    80008170:	00ba7e33          	and	t3,s4,a1

0000000080008174 <i_7996>:
    80008174:	01200d93          	li	s11,18

0000000080008178 <i_7997>:
    80008178:	01bcdcbb          	srlw	s9,s9,s11

000000008000817c <i_7998>:
    8000817c:	01bcfcb3          	and	s9,s9,s11

0000000080008180 <i_7999>:
    80008180:	039df463          	bleu	s9,s11,800081a8 <i_8009>

0000000080008184 <i_8000>:
    80008184:	19b12623          	sw	s11,396(sp)

0000000080008188 <i_8001>:
    80008188:	ef813c83          	ld	s9,-264(sp)

000000008000818c <i_8002>:
    8000818c:	024c8233          	mul	tp,s9,tp

0000000080008190 <i_8003>:
    80008190:	01957533          	and	a0,a0,s9

0000000080008194 <i_8004>:
    80008194:	05913c23          	sd	s9,88(sp)

0000000080008198 <i_8005>:
    80008198:	1b910183          	lb	gp,441(sp)

000000008000819c <i_8006>:
    8000819c:	004cdd9b          	srliw	s11,s9,0x4

00000000800081a0 <i_8007>:
    800081a0:	00784cb3          	xor	s9,a6,t2

00000000800081a4 <i_8008>:
    800081a4:	31e18513          	addi	a0,gp,798

00000000800081a8 <i_8009>:
    800081a8:	01a15183          	lhu	gp,26(sp)

00000000800081ac <i_8010>:
    800081ac:	00000013          	nop

00000000800081b0 <i_8011>:
    800081b0:	80e00c93          	li	s9,-2034

00000000800081b4 <i_8012>:
    800081b4:	81e00813          	li	a6,-2018

00000000800081b8 <i_8013>:
    800081b8:	fb913423          	sd	s9,-88(sp)

00000000800081bc <i_8014>:
    800081bc:	1a416f03          	lwu	t5,420(sp)

00000000800081c0 <i_8015>:
    800081c0:	001c8c93          	addi	s9,s9,1
    800081c4:	ff0ceae3          	bltu	s9,a6,800081b8 <i_8013>

00000000800081c8 <i_8016>:
    800081c8:	016cea63          	bltu	s9,s6,800081dc <i_8021>

00000000800081cc <i_8017>:
    800081cc:	001fd29b          	srliw	t0,t6,0x1

00000000800081d0 <i_8018>:
    800081d0:	01b00d93          	li	s11,27

00000000800081d4 <i_8019>:
    800081d4:	41b2d4bb          	sraw	s1,t0,s11

00000000800081d8 <i_8020>:
    800081d8:	2aa7e1b7          	lui	gp,0x2aa7e

00000000800081dc <i_8021>:
    800081dc:	f0b12c23          	sw	a1,-232(sp)

00000000800081e0 <i_8022>:
    800081e0:	14213c23          	sd	sp,344(sp)

00000000800081e4 <i_8023>:
    800081e4:	01929e63          	bne	t0,s9,80008200 <i_8030>

00000000800081e8 <i_8024>:
    800081e8:	00918e63          	beq	gp,s1,80008204 <i_8031>

00000000800081ec <i_8025>:
    800081ec:	409c8a3b          	subw	s4,s9,s1

00000000800081f0 <i_8026>:
    800081f0:	00e11d83          	lh	s11,14(sp)

00000000800081f4 <i_8027>:
    800081f4:	e4013c83          	ld	s9,-448(sp)

00000000800081f8 <i_8028>:
    800081f8:	14514c83          	lbu	s9,325(sp)

00000000800081fc <i_8029>:
    800081fc:	0f012a03          	lw	s4,240(sp)

0000000080008200 <i_8030>:
    80008200:	fb413823          	sd	s4,-80(sp)

0000000080008204 <i_8031>:
    80008204:	019cfcb3          	and	s9,s9,s9

0000000080008208 <i_8032>:
    80008208:	021cbab3          	mulhu	s5,s9,ra

000000008000820c <i_8033>:
    8000820c:	11813c83          	ld	s9,280(sp)

0000000080008210 <i_8034>:
    80008210:	1ac14083          	lbu	ra,428(sp)

0000000080008214 <i_8035>:
    80008214:	14813c83          	ld	s9,328(sp)

0000000080008218 <i_8036>:
    80008218:	e9911923          	sh	s9,-366(sp)

000000008000821c <i_8037>:
    8000821c:	f8d14a83          	lbu	s5,-115(sp)

0000000080008220 <i_8038>:
    80008220:	15511e23          	sh	s5,348(sp)

0000000080008224 <i_8039>:
    80008224:	015c8463          	beq	s9,s5,8000822c <i_8041>

0000000080008228 <i_8040>:
    80008228:	039af263          	bleu	s9,s5,8000824c <i_8049>

000000008000822c <i_8041>:
    8000822c:	12810603          	lb	a2,296(sp)

0000000080008230 <i_8042>:
    80008230:	039a99b3          	mulh	s3,s5,s9

0000000080008234 <i_8043>:
    80008234:	019cfa63          	bleu	s9,s9,80008248 <i_8048>

0000000080008238 <i_8044>:
    80008238:	03fcbc33          	mulhu	s8,s9,t6

000000008000823c <i_8045>:
    8000823c:	3b3c0c93          	addi	s9,s8,947

0000000080008240 <i_8046>:
    80008240:	04a10c83          	lb	s9,74(sp)

0000000080008244 <i_8047>:
    80008244:	e6615d83          	lhu	s11,-410(sp)

0000000080008248 <i_8048>:
    80008248:	419d8c3b          	subw	s8,s11,s9

000000008000824c <i_8049>:
    8000824c:	002dd41b          	srliw	s0,s11,0x2

0000000080008250 <i_8050>:
    80008250:	001d9d93          	slli	s11,s11,0x1

0000000080008254 <i_8051>:
    80008254:	0397e7bb          	remw	a5,a5,s9

0000000080008258 <i_8052>:
    80008258:	01b44e63          	blt	s0,s11,80008274 <i_8059>

000000008000825c <i_8053>:
    8000825c:	00500e13          	li	t3,5

0000000080008260 <i_8054>:
    80008260:	41c45433          	sra	s0,s0,t3

0000000080008264 <i_8055>:
    80008264:	c64e0e13          	addi	t3,t3,-924

0000000080008268 <i_8056>:
    80008268:	01ce7e63          	bleu	t3,t3,80008284 <i_8063>

000000008000826c <i_8057>:
    8000826c:	02843f33          	mulhu	t5,s0,s0

0000000080008270 <i_8058>:
    80008270:	13412e03          	lw	t3,308(sp)

0000000080008274 <i_8059>:
    80008274:	01c40663          	beq	s0,t3,80008280 <i_8062>

0000000080008278 <i_8060>:
    80008278:	ea810d23          	sb	s0,-326(sp)

000000008000827c <i_8061>:
    8000827c:	11c11223          	sh	t3,260(sp)

0000000080008280 <i_8062>:
    80008280:	0d211423          	sh	s2,200(sp)

0000000080008284 <i_8063>:
    80008284:	f7415e03          	lhu	t3,-140(sp)

0000000080008288 <i_8064>:
    80008288:	e3f10383          	lb	t2,-449(sp)

000000008000828c <i_8065>:
    8000828c:	fbc11523          	sh	t3,-86(sp)

0000000080008290 <i_8066>:
    80008290:	17c13823          	sd	t3,368(sp)

0000000080008294 <i_8067>:
    80008294:	02600293          	li	t0,38

0000000080008298 <i_8068>:
    80008298:	005e9d33          	sll	s10,t4,t0

000000008000829c <i_8069>:
    8000829c:	0d913c23          	sd	s9,216(sp)

00000000800082a0 <i_8070>:
    800082a0:	002f1863          	bne	t5,sp,800082b0 <i_8074>

00000000800082a4 <i_8071>:
    800082a4:	fa012503          	lw	a0,-96(sp)

00000000800082a8 <i_8072>:
    800082a8:	eaa11983          	lh	s3,-342(sp)

00000000800082ac <i_8073>:
    800082ac:	ed413023          	sd	s4,-320(sp)

00000000800082b0 <i_8074>:
    800082b0:	0119f263          	bleu	a7,s3,800082b4 <i_8075>

00000000800082b4 <i_8075>:
    800082b4:	fe711423          	sh	t2,-24(sp)

00000000800082b8 <i_8076>:
    800082b8:	04012a03          	lw	s4,64(sp)

00000000800082bc <i_8077>:
    800082bc:	00000013          	nop

00000000800082c0 <i_8078>:
    800082c0:	8c500f13          	li	t5,-1851

00000000800082c4 <i_8079>:
    800082c4:	8d700a93          	li	s5,-1833

00000000800082c8 <i_8080>:
    800082c8:	f9811383          	lh	t2,-104(sp)

00000000800082cc <i_8081>:
    800082cc:	403a539b          	sraiw	t2,s4,0x3

00000000800082d0 <i_8082>:
    800082d0:	06416583          	lwu	a1,100(sp)

00000000800082d4 <i_8083>:
    800082d4:	f6513023          	sd	t0,-160(sp)

00000000800082d8 <i_8084>:
    800082d8:	f9816383          	lwu	t2,-104(sp)

00000000800082dc <i_8085>:
    800082dc:	001f0f13          	addi	t5,t5,1
    800082e0:	ff5f64e3          	bltu	t5,s5,800082c8 <i_8080>

00000000800082e4 <i_8086>:
    800082e4:	efc13823          	sd	t3,-272(sp)

00000000800082e8 <i_8087>:
    800082e8:	f3c16c83          	lwu	s9,-196(sp)

00000000800082ec <i_8088>:
    800082ec:	04711723          	sh	t2,78(sp)

00000000800082f0 <i_8089>:
    800082f0:	e2a10f23          	sb	a0,-450(sp)

00000000800082f4 <i_8090>:
    800082f4:	ef412c83          	lw	s9,-268(sp)

00000000800082f8 <i_8091>:
    800082f8:	fc111123          	sh	ra,-62(sp)

00000000800082fc <i_8092>:
    800082fc:	89000413          	li	s0,-1904

0000000080008300 <i_8093>:
    80008300:	89b00093          	li	ra,-1893

0000000080008304 <i_8094>:
    80008304:	fbf10583          	lb	a1,-65(sp)

0000000080008308 <i_8095>:
    80008308:	00359b9b          	slliw	s7,a1,0x3

000000008000830c <i_8096>:
    8000830c:	03a59d33          	mulh	s10,a1,s10

0000000080008310 <i_8097>:
    80008310:	ea211a03          	lh	s4,-350(sp)

0000000080008314 <i_8098>:
    80008314:	e3e15a03          	lhu	s4,-450(sp)

0000000080008318 <i_8099>:
    80008318:	ef410223          	sb	s4,-284(sp)

000000008000831c <i_8100>:
    8000831c:	402a5193          	srai	gp,s4,0x2

0000000080008320 <i_8101>:
    80008320:	00634a33          	xor	s4,t1,t1

0000000080008324 <i_8102>:
    80008324:	40335213          	srai	tp,t1,0x3

0000000080008328 <i_8103>:
    80008328:	87c00d93          	li	s11,-1924

000000008000832c <i_8104>:
    8000832c:	88500313          	li	t1,-1915

0000000080008330 <i_8105>:
    80008330:	00000013          	nop

0000000080008334 <i_8106>:
    80008334:	001d8d93          	addi	s11,s11,1
    80008338:	ffb37ce3          	bleu	s11,t1,80008330 <i_8105>

000000008000833c <i_8107>:
    8000833c:	40235493          	srai	s1,t1,0x2

0000000080008340 <i_8108>:
    80008340:	ef012a03          	lw	s4,-272(sp)

0000000080008344 <i_8109>:
    80008344:	00140413          	addi	s0,s0,1 # 1d05e001 <main-0x62fa1fff>
    80008348:	fa80dee3          	ble	s0,ra,80008304 <i_8094>

000000008000834c <i_8110>:
    8000834c:	f0510683          	lb	a3,-251(sp)

0000000080008350 <i_8111>:
    80008350:	40f68a33          	sub	s4,a3,a5

0000000080008354 <i_8112>:
    80008354:	f2811783          	lh	a5,-216(sp)

0000000080008358 <i_8113>:
    80008358:	009a4663          	blt	s4,s1,80008364 <i_8116>

000000008000835c <i_8114>:
    8000835c:	006dc463          	blt	s11,t1,80008364 <i_8116>

0000000080008360 <i_8115>:
    80008360:	fa912423          	sw	s1,-88(sp)

0000000080008364 <i_8116>:
    80008364:	f6816a83          	lwu	s5,-152(sp)

0000000080008368 <i_8117>:
    80008368:	13016303          	lwu	t1,304(sp)

000000008000836c <i_8118>:
    8000836c:	40235793          	srai	a5,t1,0x2

0000000080008370 <i_8119>:
    80008370:	03fae463          	bltu	s5,t6,80008398 <i_8129>

0000000080008374 <i_8120>:
    80008374:	05813983          	ld	s3,88(sp)

0000000080008378 <i_8121>:
    80008378:	00fafe63          	bleu	a5,s5,80008394 <i_8128>

000000008000837c <i_8122>:
    8000837c:	0139c833          	xor	a6,s3,s3

0000000080008380 <i_8123>:
    80008380:	ef510123          	sb	s5,-286(sp)

0000000080008384 <i_8124>:
    80008384:	03e9cc3b          	divw	s8,s3,t5

0000000080008388 <i_8125>:
    80008388:	04912023          	sw	s1,64(sp)

000000008000838c <i_8126>:
    8000838c:	61c1b413          	sltiu	s0,gp,1564

0000000080008390 <i_8127>:
    80008390:	f3610c03          	lb	s8,-202(sp)

0000000080008394 <i_8128>:
    80008394:	1d514183          	lbu	gp,469(sp)

0000000080008398 <i_8129>:
    80008398:	0385c5b3          	div	a1,a1,s8

000000008000839c <i_8130>:
    8000839c:	ec015583          	lhu	a1,-320(sp)

00000000800083a0 <i_8131>:
    800083a0:	79b00a93          	li	s5,1947

00000000800083a4 <i_8132>:
    800083a4:	7a400793          	li	a5,1956

00000000800083a8 <i_8133>:
    800083a8:	00000013          	nop

00000000800083ac <i_8134>:
    800083ac:	e6416f03          	lwu	t5,-412(sp)

00000000800083b0 <i_8135>:
    800083b0:	00bfe463          	bltu	t6,a1,800083b8 <i_8137>

00000000800083b4 <i_8136>:
    800083b4:	03d19063          	bne	gp,t4,800083d4 <i_8143>

00000000800083b8 <i_8137>:
    800083b8:	01400593          	li	a1,20

00000000800083bc <i_8138>:
    800083bc:	00b5d1bb          	srlw	gp,a1,a1

00000000800083c0 <i_8139>:
    800083c0:	001a8a93          	addi	s5,s5,1 # bd67a031 <_end+0x3d669c1d>
    800083c4:	ff57f2e3          	bleu	s5,a5,800083a8 <i_8133>

00000000800083c8 <i_8140>:
    800083c8:	f4c12183          	lw	gp,-180(sp)

00000000800083cc <i_8141>:
    800083cc:	03e58463          	beq	a1,t5,800083f4 <i_8151>

00000000800083d0 <i_8142>:
    800083d0:	003f1c63          	bne	t5,gp,800083e8 <i_8148>

00000000800083d4 <i_8143>:
    800083d4:	d02f6f13          	ori	t5,t5,-766

00000000800083d8 <i_8144>:
    800083d8:	f4851f17          	auipc	t5,0xf4851

00000000800083dc <i_8145>:
    800083dc:	17e12c23          	sw	t5,376(sp)

00000000800083e0 <i_8146>:
    800083e0:	00000013          	nop

00000000800083e4 <i_8147>:
    800083e4:	401ed31b          	sraiw	t1,t4,0x1

00000000800083e8 <i_8148>:
    800083e8:	01ef09b3          	add	s3,t5,t5

00000000800083ec <i_8149>:
    800083ec:	0139b5b3          	sltu	a1,s3,s3

00000000800083f0 <i_8150>:
    800083f0:	00000013          	nop

00000000800083f4 <i_8151>:
    800083f4:	12b11023          	sh	a1,288(sp)

00000000800083f8 <i_8152>:
    800083f8:	00000013          	nop

00000000800083fc <i_8153>:
    800083fc:	7ae00e93          	li	t4,1966

0000000080008400 <i_8154>:
    80008400:	7b200f13          	li	t5,1970

0000000080008404 <i_8155>:
    80008404:	001e8e93          	addi	t4,t4,1 # 4f225001 <main-0x30ddafff>
    80008408:	ffeecee3          	blt	t4,t5,80008404 <i_8155>

000000008000840c <i_8156>:
    8000840c:	13412503          	lw	a0,308(sp)

0000000080008410 <i_8157>:
    80008410:	4015d51b          	sraiw	a0,a1,0x1

0000000080008414 <i_8158>:
    80008414:	001c1c13          	slli	s8,s8,0x1

0000000080008418 <i_8159>:
    80008418:	e4a12e23          	sw	a0,-420(sp)

000000008000841c <i_8160>:
    8000841c:	0385c463          	blt	a1,s8,80008444 <i_8170>

0000000080008420 <i_8161>:
    80008420:	40a505b3          	sub	a1,a0,a0

0000000080008424 <i_8162>:
    80008424:	f0b10923          	sb	a1,-238(sp)

0000000080008428 <i_8163>:
    80008428:	0eb101a3          	sb	a1,227(sp)

000000008000842c <i_8164>:
    8000842c:	033c29b3          	mulhsu	s3,s8,s3

0000000080008430 <i_8165>:
    80008430:	0e416983          	lwu	s3,228(sp)

0000000080008434 <i_8166>:
    80008434:	0139e263          	bltu	s3,s3,80008438 <i_8167>

0000000080008438 <i_8167>:
    80008438:	0229c9b3          	div	s3,s3,sp

000000008000843c <i_8168>:
    8000843c:	0139dc63          	ble	s3,s3,80008454 <i_8174>

0000000080008440 <i_8169>:
    80008440:	1c013183          	ld	gp,448(sp)

0000000080008444 <i_8170>:
    80008444:	0131ce63          	blt	gp,s3,80008460 <i_8177>

0000000080008448 <i_8171>:
    80008448:	0da11e83          	lh	t4,218(sp)

000000008000844c <i_8172>:
    8000844c:	013eee63          	bltu	t4,s3,80008468 <i_8179>

0000000080008450 <i_8173>:
    80008450:	07211783          	lh	a5,114(sp)

0000000080008454 <i_8174>:
    80008454:	01327663          	bleu	s3,tp,80008460 <i_8177>

0000000080008458 <i_8175>:
    80008458:	01900e93          	li	t4,25

000000008000845c <i_8176>:
    8000845c:	01d1d9b3          	srl	s3,gp,t4

0000000080008460 <i_8177>:
    80008460:	0a313023          	sd	gp,160(sp)

0000000080008464 <i_8178>:
    80008464:	0039d513          	srli	a0,s3,0x3

0000000080008468 <i_8179>:
    80008468:	4027d793          	srai	a5,a5,0x2

000000008000846c <i_8180>:
    8000846c:	73654813          	xori	a6,a0,1846

0000000080008470 <i_8181>:
    80008470:	8211f193          	andi	gp,gp,-2015

0000000080008474 <i_8182>:
    80008474:	0335c9b3          	div	s3,a1,s3

0000000080008478 <i_8183>:
    80008478:	dcc1e513          	ori	a0,gp,-564

000000008000847c <i_8184>:
    8000847c:	00a48a63          	beq	s1,a0,80008490 <i_8189>

0000000080008480 <i_8185>:
    80008480:	0231f9bb          	remuw	s3,gp,gp

0000000080008484 <i_8186>:
    80008484:	fca12423          	sw	a0,-56(sp)

0000000080008488 <i_8187>:
    80008488:	17016803          	lwu	a6,368(sp)

000000008000848c <i_8188>:
    8000848c:	013579b3          	and	s3,a0,s3

0000000080008490 <i_8189>:
    80008490:	11914803          	lbu	a6,281(sp)

0000000080008494 <i_8190>:
    80008494:	00000013          	nop

0000000080008498 <i_8191>:
    80008498:	7ed00513          	li	a0,2029

000000008000849c <i_8192>:
    8000849c:	7fd00193          	li	gp,2045

00000000800084a0 <i_8193>:
    800084a0:	05d12e23          	sw	t4,92(sp)

00000000800084a4 <i_8194>:
    800084a4:	00000013          	nop

00000000800084a8 <i_8195>:
    800084a8:	02a9e463          	bltu	s3,a0,800084d0 <i_8204>

00000000800084ac <i_8196>:
    800084ac:	00150513          	addi	a0,a0,1
    800084b0:	fe3548e3          	blt	a0,gp,800084a0 <i_8193>

00000000800084b4 <i_8197>:
    800084b4:	07312e23          	sw	s3,124(sp)

00000000800084b8 <i_8198>:
    800084b8:	f7314983          	lbu	s3,-141(sp)

00000000800084bc <i_8199>:
    800084bc:	404ad513          	srai	a0,s5,0x4

00000000800084c0 <i_8200>:
    800084c0:	00000013          	nop

00000000800084c4 <i_8201>:
    800084c4:	02a57533          	remu	a0,a0,a0

00000000800084c8 <i_8202>:
    800084c8:	17613823          	sd	s6,368(sp)

00000000800084cc <i_8203>:
    800084cc:	f5414503          	lbu	a0,-172(sp)

00000000800084d0 <i_8204>:
    800084d0:	10a13023          	sd	a0,256(sp)

00000000800084d4 <i_8205>:
    800084d4:	02551533          	mulh	a0,a0,t0

00000000800084d8 <i_8206>:
    800084d8:	76a00293          	li	t0,1898

00000000800084dc <i_8207>:
    800084dc:	77c00b13          	li	s6,1916

00000000800084e0 <i_8208>:
    800084e0:	00128293          	addi	t0,t0,1
    800084e4:	fe5b7ee3          	bleu	t0,s6,800084e0 <i_8208>

00000000800084e8 <i_8209>:
    800084e8:	fe414383          	lbu	t2,-28(sp)

00000000800084ec <i_8210>:
    800084ec:	4082853b          	subw	a0,t0,s0

00000000800084f0 <i_8211>:
    800084f0:	010b0bb3          	add	s7,s6,a6

00000000800084f4 <i_8212>:
    800084f4:	032b4293          	xori	t0,s6,50

00000000800084f8 <i_8213>:
    800084f8:	9822a093          	slti	ra,t0,-1662

00000000800084fc <i_8214>:
    800084fc:	01c11023          	sh	t3,0(sp)

0000000080008500 <i_8215>:
    80008500:	1a611423          	sh	t1,424(sp)

0000000080008504 <i_8216>:
    80008504:	18511923          	sh	t0,402(sp)

0000000080008508 <i_8217>:
    80008508:	e5c12503          	lw	a0,-420(sp)

000000008000850c <i_8218>:
    8000850c:	1cc16283          	lwu	t0,460(sp)

0000000080008510 <i_8219>:
    80008510:	1cc14f03          	lbu	t5,460(sp)

0000000080008514 <i_8220>:
    80008514:	04611083          	lh	ra,70(sp)

0000000080008518 <i_8221>:
    80008518:	0092eab3          	or	s5,t0,s1

000000008000851c <i_8222>:
    8000851c:	03e0eebb          	remw	t4,ra,t5

0000000080008520 <i_8223>:
    80008520:	f04108a3          	sb	tp,-239(sp)

0000000080008524 <i_8224>:
    80008524:	01e13023          	sd	t5,0(sp)

0000000080008528 <i_8225>:
    80008528:	00800e93          	li	t4,8

000000008000852c <i_8226>:
    8000852c:	01de9b3b          	sllw	s6,t4,t4

0000000080008530 <i_8227>:
    80008530:	74b00493          	li	s1,1867

0000000080008534 <i_8228>:
    80008534:	75c00193          	li	gp,1884

0000000080008538 <i_8229>:
    80008538:	00148493          	addi	s1,s1,1
    8000853c:	fe91fce3          	bleu	s1,gp,80008534 <i_8228>

0000000080008540 <i_8230>:
    80008540:	01658233          	add	tp,a1,s6

0000000080008544 <i_8231>:
    80008544:	f7813183          	ld	gp,-136(sp)

0000000080008548 <i_8232>:
    80008548:	08416603          	lwu	a2,132(sp)

000000008000854c <i_8233>:
    8000854c:	e7d10da3          	sb	t4,-389(sp)

0000000080008550 <i_8234>:
    80008550:	eb013e83          	ld	t4,-336(sp)

0000000080008554 <i_8235>:
    80008554:	17813c83          	ld	s9,376(sp)

0000000080008558 <i_8236>:
    80008558:	e7d11023          	sh	t4,-416(sp)

000000008000855c <i_8237>:
    8000855c:	01919463          	bne	gp,s9,80008564 <i_8239>

0000000080008560 <i_8238>:
    80008560:	11d10d23          	sb	t4,282(sp)

0000000080008564 <i_8239>:
    80008564:	023ef263          	bleu	gp,t4,80008588 <i_8248>

0000000080008568 <i_8240>:
    80008568:	00313823          	sd	gp,16(sp)

000000008000856c <i_8241>:
    8000856c:	f5016a83          	lwu	s5,-176(sp)

0000000080008570 <i_8242>:
    80008570:	01300f13          	li	t5,19

0000000080008574 <i_8243>:
    80008574:	01ee9cbb          	sllw	s9,t4,t5

0000000080008578 <i_8244>:
    80008578:	f7013e83          	ld	t4,-144(sp)

000000008000857c <i_8245>:
    8000857c:	0294a6b3          	mulhsu	a3,s1,s1

0000000080008580 <i_8246>:
    80008580:	00000013          	nop

0000000080008584 <i_8247>:
    80008584:	0e810e83          	lb	t4,232(sp)

0000000080008588 <i_8248>:
    80008588:	40d686bb          	subw	a3,a3,a3

000000008000858c <i_8249>:
    8000858c:	10e10683          	lb	a3,270(sp)

0000000080008590 <i_8250>:
    80008590:	7d500493          	li	s1,2005

0000000080008594 <i_8251>:
    80008594:	7dc00f13          	li	t5,2012

0000000080008598 <i_8252>:
    80008598:	03b6f5b3          	remu	a1,a3,s11

000000008000859c <i_8253>:
    8000859c:	02d6c6b3          	div	a3,a3,a3

00000000800085a0 <i_8254>:
    800085a0:	f5714d03          	lbu	s10,-169(sp)

00000000800085a4 <i_8255>:
    800085a4:	037bcbbb          	divw	s7,s7,s7

00000000800085a8 <i_8256>:
    800085a8:	05813b83          	ld	s7,88(sp)

00000000800085ac <i_8257>:
    800085ac:	03a9e9bb          	remw	s3,s3,s10

00000000800085b0 <i_8258>:
    800085b0:	037d4eb3          	div	t4,s10,s7

00000000800085b4 <i_8259>:
    800085b4:	017e8463          	beq	t4,s7,800085bc <i_8261>

00000000800085b8 <i_8260>:
    800085b8:	033999b3          	mulh	s3,s3,s3

00000000800085bc <i_8261>:
    800085bc:	00900a93          	li	s5,9

00000000800085c0 <i_8262>:
    800085c0:	015e9ebb          	sllw	t4,t4,s5

00000000800085c4 <i_8263>:
    800085c4:	00148493          	addi	s1,s1,1
    800085c8:	fde4c8e3          	blt	s1,t5,80008598 <i_8252>

00000000800085cc <i_8264>:
    800085cc:	00341413          	slli	s0,s0,0x3

00000000800085d0 <i_8265>:
    800085d0:	008e8463          	beq	t4,s0,800085d8 <i_8267>

00000000800085d4 <i_8266>:
    800085d4:	01510223          	sb	s5,4(sp)

00000000800085d8 <i_8267>:
    800085d8:	03daf263          	bleu	t4,s5,800085fc <i_8276>

00000000800085dc <i_8268>:
    800085dc:	1c214a83          	lbu	s5,450(sp)

00000000800085e0 <i_8269>:
    800085e0:	01000613          	li	a2,16

00000000800085e4 <i_8270>:
    800085e4:	00cedebb          	srlw	t4,t4,a2

00000000800085e8 <i_8271>:
    800085e8:	eba15683          	lhu	a3,-326(sp)

00000000800085ec <i_8272>:
    800085ec:	03d45ebb          	divuw	t4,s0,t4

00000000800085f0 <i_8273>:
    800085f0:	ed513423          	sd	s5,-312(sp)

00000000800085f4 <i_8274>:
    800085f4:	ea815083          	lhu	ra,-344(sp)

00000000800085f8 <i_8275>:
    800085f8:	00ca8263          	beq	s5,a2,800085fc <i_8276>

00000000800085fc <i_8276>:
    800085fc:	08c16403          	lwu	s0,140(sp)

0000000080008600 <i_8277>:
    80008600:	f8012303          	lw	t1,-128(sp)

0000000080008604 <i_8278>:
    80008604:	f7813a03          	ld	s4,-136(sp)

0000000080008608 <i_8279>:
    80008608:	b5e0cd93          	xori	s11,ra,-1186

000000008000860c <i_8280>:
    8000860c:	030dc33b          	divw	t1,s11,a6

0000000080008610 <i_8281>:
    80008610:	e5012583          	lw	a1,-432(sp)

0000000080008614 <i_8282>:
    80008614:	01412423          	sw	s4,8(sp)

0000000080008618 <i_8283>:
    80008618:	eca11203          	lh	tp,-310(sp)

000000008000861c <i_8284>:
    8000861c:	7d800a93          	li	s5,2008

0000000080008620 <i_8285>:
    80008620:	7db00a13          	li	s4,2011

0000000080008624 <i_8286>:
    80008624:	1a812383          	lw	t2,424(sp)

0000000080008628 <i_8287>:
    80008628:	03b5ceb3          	div	t4,a1,s11

000000008000862c <i_8288>:
    8000862c:	1c416d03          	lwu	s10,452(sp)

0000000080008630 <i_8289>:
    80008630:	fb610aa3          	sb	s6,-75(sp)

0000000080008634 <i_8290>:
    80008634:	01a3bbb3          	sltu	s7,t2,s10

0000000080008638 <i_8291>:
    80008638:	001a8a93          	addi	s5,s5,1
    8000863c:	ff5a74e3          	bleu	s5,s4,80008624 <i_8286>

0000000080008640 <i_8292>:
    80008640:	7a938393          	addi	t2,t2,1961

0000000080008644 <i_8293>:
    80008644:	01ab9e63          	bne	s7,s10,80008660 <i_8300>

0000000080008648 <i_8294>:
    80008648:	821d4d13          	xori	s10,s10,-2015

000000008000864c <i_8295>:
    8000864c:	05014383          	lbu	t2,80(sp)

0000000080008650 <i_8296>:
    80008650:	10713c23          	sd	t2,280(sp)

0000000080008654 <i_8297>:
    80008654:	0273c9bb          	divw	s3,t2,t2

0000000080008658 <i_8298>:
    80008658:	e5f10b83          	lb	s7,-417(sp)

000000008000865c <i_8299>:
    8000865c:	0b012803          	lw	a6,176(sp)

0000000080008660 <i_8300>:
    80008660:	007b8bb3          	add	s7,s7,t2

0000000080008664 <i_8301>:
    80008664:	0ba11383          	lh	t2,186(sp)

0000000080008668 <i_8302>:
    80008668:	e673881b          	addiw	a6,t2,-409

000000008000866c <i_8303>:
    8000866c:	e9011c23          	sh	a6,-360(sp)

0000000080008670 <i_8304>:
    80008670:	00787d33          	and	s10,a6,t2

0000000080008674 <i_8305>:
    80008674:	15711423          	sh	s7,328(sp)

0000000080008678 <i_8306>:
    80008678:	02b5e5b3          	rem	a1,a1,a1

000000008000867c <i_8307>:
    8000867c:	fc816583          	lwu	a1,-56(sp)

0000000080008680 <i_8308>:
    80008680:	12b12023          	sw	a1,288(sp)

0000000080008684 <i_8309>:
    80008684:	e5a11f23          	sh	s10,-418(sp)

0000000080008688 <i_8310>:
    80008688:	f3811983          	lh	s3,-200(sp)

000000008000868c <i_8311>:
    8000868c:	02b5d463          	ble	a1,a1,800086b4 <i_8321>

0000000080008690 <i_8312>:
    80008690:	0f810e03          	lb	t3,248(sp)

0000000080008694 <i_8313>:
    80008694:	02a11803          	lh	a6,42(sp)

0000000080008698 <i_8314>:
    80008698:	13311523          	sh	s3,298(sp)

000000008000869c <i_8315>:
    8000869c:	00412483          	lw	s1,4(sp)

00000000800086a0 <i_8316>:
    800086a0:	00b80663          	beq	a6,a1,800086ac <i_8319>

00000000800086a4 <i_8317>:
    800086a4:	00359813          	slli	a6,a1,0x3

00000000800086a8 <i_8318>:
    800086a8:	010b5e63          	ble	a6,s6,800086c4 <i_8325>

00000000800086ac <i_8319>:
    800086ac:	03a59063          	bne	a1,s10,800086cc <i_8327>

00000000800086b0 <i_8320>:
    800086b0:	033e6263          	bltu	t3,s3,800086d4 <i_8329>

00000000800086b4 <i_8321>:
    800086b4:	1a414b03          	lbu	s6,420(sp)

00000000800086b8 <i_8322>:
    800086b8:	41a605bb          	subw	a1,a2,s10

00000000800086bc <i_8323>:
    800086bc:	02e15d03          	lhu	s10,46(sp)

00000000800086c0 <i_8324>:
    800086c0:	f4913423          	sd	s1,-184(sp)

00000000800086c4 <i_8325>:
    800086c4:	10910323          	sb	s1,262(sp)

00000000800086c8 <i_8326>:
    800086c8:	93566793          	ori	a5,a2,-1739

00000000800086cc <i_8327>:
    800086cc:	002b4c63          	blt	s6,sp,800086e4 <i_8333>

00000000800086d0 <i_8328>:
    800086d0:	00000013          	nop

00000000800086d4 <i_8329>:
    800086d4:	f8c11d83          	lh	s11,-116(sp)

00000000800086d8 <i_8330>:
    800086d8:	401f549b          	sraiw	s1,t5,0x1

00000000800086dc <i_8331>:
    800086dc:	41ad8d3b          	subw	s10,s11,s10

00000000800086e0 <i_8332>:
    800086e0:	e3c12d03          	lw	s10,-452(sp)

00000000800086e4 <i_8333>:
    800086e4:	01c00d93          	li	s11,28

00000000800086e8 <i_8334>:
    800086e8:	01bdd233          	srl	tp,s11,s11

00000000800086ec <i_8335>:
    800086ec:	80100b13          	li	s6,-2047

00000000800086f0 <i_8336>:
    800086f0:	80e00813          	li	a6,-2034

00000000800086f4 <i_8337>:
    800086f4:	01b24d33          	xor	s10,tp,s11

00000000800086f8 <i_8338>:
    800086f8:	eb414c03          	lbu	s8,-332(sp)

00000000800086fc <i_8339>:
    800086fc:	86600993          	li	s3,-1946

0000000080008700 <i_8340>:
    80008700:	87500f13          	li	t5,-1931

0000000080008704 <i_8341>:
    80008704:	00198993          	addi	s3,s3,1
    80008708:	ffe9eee3          	bltu	s3,t5,80008704 <i_8341>

000000008000870c <i_8342>:
    8000870c:	05a12223          	sw	s10,68(sp)

0000000080008710 <i_8343>:
    80008710:	032df433          	remu	s0,s11,s2

0000000080008714 <i_8344>:
    80008714:	028c6c3b          	remw	s8,s8,s0

0000000080008718 <i_8345>:
    80008718:	001b0b13          	addi	s6,s6,1 # c454f235 <_end+0x4453ee21>
    8000871c:	fd685ce3          	ble	s6,a6,800086f4 <i_8337>

0000000080008720 <i_8346>:
    80008720:	038c6433          	rem	s0,s8,s8

0000000080008724 <i_8347>:
    80008724:	018f9263          	bne	t6,s8,80008728 <i_8348>

0000000080008728 <i_8348>:
    80008728:	008c1463          	bne	s8,s0,80008730 <i_8350>

000000008000872c <i_8349>:
    8000872c:	00300c13          	li	s8,3

0000000080008730 <i_8350>:
    80008730:	418c533b          	sraw	t1,s8,s8

0000000080008734 <i_8351>:
    80008734:	004c5313          	srli	t1,s8,0x4

0000000080008738 <i_8352>:
    80008738:	bcf45c37          	lui	s8,0xbcf45

000000008000873c <i_8353>:
    8000873c:	00000013          	nop

0000000080008740 <i_8354>:
    80008740:	00000013          	nop

0000000080008744 <i_8355>:
    80008744:	76900193          	li	gp,1897

0000000080008748 <i_8356>:
    80008748:	76d00d13          	li	s10,1901

000000008000874c <i_8357>:
    8000874c:	ca03081b          	addiw	a6,t1,-864

0000000080008750 <i_8358>:
    80008750:	03cb2e33          	mulhsu	t3,s6,t3

0000000080008754 <i_8359>:
    80008754:	bdac6813          	ori	a6,s8,-1062

0000000080008758 <i_8360>:
    80008758:	8b000c13          	li	s8,-1872

000000008000875c <i_8361>:
    8000875c:	8c300593          	li	a1,-1853

0000000080008760 <i_8362>:
    80008760:	00000013          	nop

0000000080008764 <i_8363>:
    80008764:	00000013          	nop

0000000080008768 <i_8364>:
    80008768:	17a13c23          	sd	s10,376(sp)

000000008000876c <i_8365>:
    8000876c:	01cd0663          	beq	s10,t3,80008778 <i_8368>

0000000080008770 <i_8366>:
    80008770:	f7012e03          	lw	t3,-144(sp)

0000000080008774 <i_8367>:
    80008774:	71358613          	addi	a2,a1,1811

0000000080008778 <i_8368>:
    80008778:	fe010e03          	lb	t3,-32(sp)

000000008000877c <i_8369>:
    8000877c:	00000013          	nop

0000000080008780 <i_8370>:
    80008780:	001c0c13          	addi	s8,s8,1 # ffffffffbcf45001 <_end+0xffffffff3cf34bed>
    80008784:	fd85dee3          	ble	s8,a1,80008760 <i_8362>

0000000080008788 <i_8371>:
    80008788:	0ac16383          	lwu	t2,172(sp)

000000008000878c <i_8372>:
    8000878c:	00118193          	addi	gp,gp,1 # 2aa7e001 <main-0x55581fff>
    80008790:	fba1cee3          	blt	gp,s10,8000874c <i_8357>

0000000080008794 <i_8373>:
    80008794:	01c38633          	add	a2,t2,t3

0000000080008798 <i_8374>:
    80008798:	0b412583          	lw	a1,180(sp)

000000008000879c <i_8375>:
    8000879c:	0b610ca3          	sb	s6,185(sp)

00000000800087a0 <i_8376>:
    800087a0:	07812803          	lw	a6,120(sp)

00000000800087a4 <i_8377>:
    800087a4:	8c500b13          	li	s6,-1851

00000000800087a8 <i_8378>:
    800087a8:	8cf00493          	li	s1,-1841

00000000800087ac <i_8379>:
    800087ac:	e8a11e03          	lh	t3,-374(sp)

00000000800087b0 <i_8380>:
    800087b0:	e5414603          	lbu	a2,-428(sp)

00000000800087b4 <i_8381>:
    800087b4:	01cbdc63          	ble	t3,s7,800087cc <i_8387>

00000000800087b8 <i_8382>:
    800087b8:	0ac10d23          	sb	a2,186(sp)

00000000800087bc <i_8383>:
    800087bc:	030e6663          	bltu	t3,a6,800087e8 <i_8393>

00000000800087c0 <i_8384>:
    800087c0:	05c11983          	lh	s3,92(sp)

00000000800087c4 <i_8385>:
    800087c4:	09b109a3          	sb	s11,147(sp)

00000000800087c8 <i_8386>:
    800087c8:	00000013          	nop

00000000800087cc <i_8387>:
    800087cc:	00500c93          	li	s9,5

00000000800087d0 <i_8388>:
    800087d0:	4199d9bb          	sraw	s3,s3,s9

00000000800087d4 <i_8389>:
    800087d4:	001b0b13          	addi	s6,s6,1
    800087d8:	fd64fae3          	bleu	s6,s1,800087ac <i_8379>

00000000800087dc <i_8390>:
    800087dc:	00dc9663          	bne	s9,a3,800087e8 <i_8393>

00000000800087e0 <i_8391>:
    800087e0:	013989b3          	add	s3,s3,s3

00000000800087e4 <i_8392>:
    800087e4:	40165993          	srai	s3,a2,0x1

00000000800087e8 <i_8393>:
    800087e8:	14412783          	lw	a5,324(sp)

00000000800087ec <i_8394>:
    800087ec:	030cd23b          	divuw	tp,s9,a6

00000000800087f0 <i_8395>:
    800087f0:	02f67cbb          	remuw	s9,a2,a5

00000000800087f4 <i_8396>:
    800087f4:	00000013          	nop

00000000800087f8 <i_8397>:
    800087f8:	0f413823          	sd	s4,240(sp)

00000000800087fc <i_8398>:
    800087fc:	8a800a13          	li	s4,-1880

0000000080008800 <i_8399>:
    80008800:	8bc00813          	li	a6,-1860

0000000080008804 <i_8400>:
    80008804:	410787bb          	subw	a5,a5,a6

0000000080008808 <i_8401>:
    80008808:	001a0a13          	addi	s4,s4,1
    8000880c:	ff0a6ce3          	bltu	s4,a6,80008804 <i_8400>

0000000080008810 <i_8402>:
    80008810:	01086c63          	bltu	a6,a6,80008828 <i_8408>

0000000080008814 <i_8403>:
    80008814:	0147ee63          	bltu	a5,s4,80008830 <i_8410>

0000000080008818 <i_8404>:
    80008818:	030851bb          	divuw	gp,a6,a6

000000008000881c <i_8405>:
    8000881c:	00378a63          	beq	a5,gp,80008830 <i_8410>

0000000080008820 <i_8406>:
    80008820:	163104a3          	sb	gp,361(sp)

0000000080008824 <i_8407>:
    80008824:	e2312223          	sw	gp,-476(sp)

0000000080008828 <i_8408>:
    80008828:	003a0663          	beq	s4,gp,80008834 <i_8411>

000000008000882c <i_8409>:
    8000882c:	16214603          	lbu	a2,354(sp)

0000000080008830 <i_8410>:
    80008830:	f2415d03          	lhu	s10,-220(sp)

0000000080008834 <i_8411>:
    80008834:	15012303          	lw	t1,336(sp)

0000000080008838 <i_8412>:
    80008838:	40135393          	srai	t2,t1,0x1

000000008000883c <i_8413>:
    8000883c:	0e013a03          	ld	s4,224(sp)

0000000080008840 <i_8414>:
    80008840:	02ff0abb          	mulw	s5,t5,a5

0000000080008844 <i_8415>:
    80008844:	ecc11383          	lh	t2,-308(sp)

0000000080008848 <i_8416>:
    80008848:	ffc15403          	lhu	s0,-4(sp)

000000008000884c <i_8417>:
    8000884c:	12416383          	lwu	t2,292(sp)

0000000080008850 <i_8418>:
    80008850:	17f10783          	lb	a5,383(sp)

0000000080008854 <i_8419>:
    80008854:	150108a3          	sb	a6,337(sp)

0000000080008858 <i_8420>:
    80008858:	88700413          	li	s0,-1913

000000008000885c <i_8421>:
    8000885c:	89200313          	li	t1,-1902

0000000080008860 <i_8422>:
    80008860:	fc612e23          	sw	t1,-36(sp)

0000000080008864 <i_8423>:
    80008864:	0ec16803          	lwu	a6,236(sp)

0000000080008868 <i_8424>:
    80008868:	eaa11c03          	lh	s8,-342(sp)

000000008000886c <i_8425>:
    8000886c:	018307b3          	add	a5,t1,s8

0000000080008870 <i_8426>:
    80008870:	1b813023          	sd	s8,416(sp)

0000000080008874 <i_8427>:
    80008874:	00140413          	addi	s0,s0,1
    80008878:	fe6464e3          	bltu	s0,t1,80008860 <i_8422>

000000008000887c <i_8428>:
    8000887c:	cef26c13          	ori	s8,tp,-785

0000000080008880 <i_8429>:
    80008880:	17c16203          	lwu	tp,380(sp)

0000000080008884 <i_8430>:
    80008884:	fea11483          	lh	s1,-22(sp)

0000000080008888 <i_8431>:
    80008888:	00b243b3          	xor	t2,tp,a1

000000008000888c <i_8432>:
    8000888c:	029c0c3b          	mulw	s8,s8,s1

0000000080008890 <i_8433>:
    80008890:	ecc12483          	lw	s1,-308(sp)

0000000080008894 <i_8434>:
    80008894:	fc310c83          	lb	s9,-61(sp)

0000000080008898 <i_8435>:
    80008898:	038a4c3b          	divw	s8,s4,s8

000000008000889c <i_8436>:
    8000889c:	027c65bb          	remw	a1,s8,t2

00000000800088a0 <i_8437>:
    800088a0:	029c6063          	bltu	s8,s1,800088c0 <i_8445>

00000000800088a4 <i_8438>:
    800088a4:	f5c11c83          	lh	s9,-164(sp)

00000000800088a8 <i_8439>:
    800088a8:	018c8c63          	beq	s9,s8,800088c0 <i_8445>

00000000800088ac <i_8440>:
    800088ac:	f7c14503          	lbu	a0,-132(sp)

00000000800088b0 <i_8441>:
    800088b0:	0184ec63          	bltu	s1,s8,800088c8 <i_8447>

00000000800088b4 <i_8442>:
    800088b4:	12c11503          	lh	a0,300(sp)

00000000800088b8 <i_8443>:
    800088b8:	ee912623          	sw	s1,-276(sp)

00000000800088bc <i_8444>:
    800088bc:	f6a106a3          	sb	a0,-147(sp)

00000000800088c0 <i_8445>:
    800088c0:	f0411203          	lh	tp,-252(sp)

00000000800088c4 <i_8446>:
    800088c4:	06a12823          	sw	a0,112(sp)

00000000800088c8 <i_8447>:
    800088c8:	039e753b          	remuw	a0,t3,s9

00000000800088cc <i_8448>:
    800088cc:	e2015c03          	lhu	s8,-480(sp)

00000000800088d0 <i_8449>:
    800088d0:	89a00813          	li	a6,-1894

00000000800088d4 <i_8450>:
    800088d4:	8a600e13          	li	t3,-1882

00000000800088d8 <i_8451>:
    800088d8:	1b016c83          	lwu	s9,432(sp)

00000000800088dc <i_8452>:
    800088dc:	00000013          	nop

00000000800088e0 <i_8453>:
    800088e0:	07913023          	sd	s9,96(sp)

00000000800088e4 <i_8454>:
    800088e4:	02a84cbb          	divw	s9,a6,a0

00000000800088e8 <i_8455>:
    800088e8:	fc412183          	lw	gp,-60(sp)

00000000800088ec <i_8456>:
    800088ec:	01200c13          	li	s8,18

00000000800088f0 <i_8457>:
    800088f0:	018cd53b          	srlw	a0,s9,s8

00000000800088f4 <i_8458>:
    800088f4:	0bc12d83          	lw	s11,188(sp)

00000000800088f8 <i_8459>:
    800088f8:	038dc663          	blt	s11,s8,80008924 <i_8469>

00000000800088fc <i_8460>:
    800088fc:	00180813          	addi	a6,a6,1
    80008900:	fd0e5ce3          	ble	a6,t3,800088d8 <i_8451>

0000000080008904 <i_8461>:
    80008904:	1db11d23          	sh	s11,474(sp)

0000000080008908 <i_8462>:
    80008908:	03bdec33          	rem	s8,s11,s11

000000008000890c <i_8463>:
    8000890c:	03bc5db3          	divu	s11,s8,s11

0000000080008910 <i_8464>:
    80008910:	17013583          	ld	a1,368(sp)

0000000080008914 <i_8465>:
    80008914:	eef11323          	sh	a5,-282(sp)

0000000080008918 <i_8466>:
    80008918:	e5415203          	lhu	tp,-428(sp)

000000008000891c <i_8467>:
    8000891c:	19b11723          	sh	s11,398(sp)

0000000080008920 <i_8468>:
    80008920:	ff812a23          	sw	s8,-12(sp)

0000000080008924 <i_8469>:
    80008924:	e7313823          	sd	s3,-400(sp)

0000000080008928 <i_8470>:
    80008928:	004ddb13          	srli	s6,s11,0x4

000000008000892c <i_8471>:
    8000892c:	7f300d93          	li	s11,2035

0000000080008930 <i_8472>:
    80008930:	7ff00993          	li	s3,2047

0000000080008934 <i_8473>:
    80008934:	ef011b03          	lh	s6,-272(sp)

0000000080008938 <i_8474>:
    80008938:	f9811303          	lh	t1,-104(sp)

000000008000893c <i_8475>:
    8000893c:	03627263          	bleu	s6,tp,80008960 <i_8483>

0000000080008940 <i_8476>:
    80008940:	001d8d93          	addi	s11,s11,1
    80008944:	ffb9d8e3          	ble	s11,s3,80008934 <i_8473>

0000000080008948 <i_8477>:
    80008948:	03b37db3          	remu	s11,t1,s11

000000008000894c <i_8478>:
    8000894c:	01300d93          	li	s11,19

0000000080008950 <i_8479>:
    80008950:	01b3533b          	srlw	t1,t1,s11

0000000080008954 <i_8480>:
    80008954:	01b22a33          	slt	s4,tp,s11

0000000080008958 <i_8481>:
    80008958:	ffa14283          	lbu	t0,-6(sp)

000000008000895c <i_8482>:
    8000895c:	0e013303          	ld	t1,224(sp)

0000000080008960 <i_8483>:
    80008960:	00815d03          	lhu	s10,8(sp)

0000000080008964 <i_8484>:
    80008964:	2542ed13          	ori	s10,t0,596

0000000080008968 <i_8485>:
    80008968:	82300a13          	li	s4,-2013

000000008000896c <i_8486>:
    8000896c:	82800513          	li	a0,-2008

0000000080008970 <i_8487>:
    80008970:	02ec7db3          	remu	s11,s8,a4

0000000080008974 <i_8488>:
    80008974:	01b5f263          	bleu	s11,a1,80008978 <i_8489>

0000000080008978 <i_8489>:
    80008978:	02633333          	mulhu	t1,t1,t1

000000008000897c <i_8490>:
    8000897c:	6ea355b7          	lui	a1,0x6ea35

0000000080008980 <i_8491>:
    80008980:	eb416303          	lwu	t1,-332(sp)

0000000080008984 <i_8492>:
    80008984:	0a611d03          	lh	s10,166(sp)

0000000080008988 <i_8493>:
    80008988:	00430e33          	add	t3,t1,tp

000000008000898c <i_8494>:
    8000898c:	00000013          	nop

0000000080008990 <i_8495>:
    80008990:	01bd6663          	bltu	s10,s11,8000899c <i_8498>

0000000080008994 <i_8496>:
    80008994:	01a31663          	bne	t1,s10,800089a0 <i_8499>

0000000080008998 <i_8497>:
    80008998:	07016d83          	lwu	s11,112(sp)

000000008000899c <i_8498>:
    8000899c:	1bc12303          	lw	t1,444(sp)

00000000800089a0 <i_8499>:
    800089a0:	a62b5d17          	auipc	s10,0xa62b5

00000000800089a4 <i_8500>:
    800089a4:	dffd1d17          	auipc	s10,0xdffd1

00000000800089a8 <i_8501>:
    800089a8:	e2e15d03          	lhu	s10,-466(sp)

00000000800089ac <i_8502>:
    800089ac:	001a0a13          	addi	s4,s4,1
    800089b0:	fd4550e3          	ble	s4,a0,80008970 <i_8487>

00000000800089b4 <i_8503>:
    800089b4:	07016203          	lwu	tp,112(sp)

00000000800089b8 <i_8504>:
    800089b8:	f4714d03          	lbu	s10,-185(sp)

00000000800089bc <i_8505>:
    800089bc:	02300e13          	li	t3,35

00000000800089c0 <i_8506>:
    800089c0:	01ce1e33          	sll	t3,t3,t3

00000000800089c4 <i_8507>:
    800089c4:	037e73b3          	remu	t2,t3,s7

00000000800089c8 <i_8508>:
    800089c8:	08d10e03          	lb	t3,141(sp)

00000000800089cc <i_8509>:
    800089cc:	033e09b3          	mul	s3,t3,s3

00000000800089d0 <i_8510>:
    800089d0:	033e1063          	bne	t3,s3,800089f0 <i_8518>

00000000800089d4 <i_8511>:
    800089d4:	03ce0063          	beq	t3,t3,800089f4 <i_8519>

00000000800089d8 <i_8512>:
    800089d8:	00299e1b          	slliw	t3,s3,0x2

00000000800089dc <i_8513>:
    800089dc:	01c45463          	ble	t3,s0,800089e4 <i_8515>

00000000800089e0 <i_8514>:
    800089e0:	071e2993          	slti	s3,t3,113

00000000800089e4 <i_8515>:
    800089e4:	0f012f03          	lw	t5,240(sp)

00000000800089e8 <i_8516>:
    800089e8:	f1e15c03          	lhu	s8,-226(sp)

00000000800089ec <i_8517>:
    800089ec:	031f4463          	blt	t5,a7,80008a14 <i_8527>

00000000800089f0 <i_8518>:
    800089f0:	001e129b          	slliw	t0,t3,0x1

00000000800089f4 <i_8519>:
    800089f4:	e6614f03          	lbu	t5,-410(sp)

00000000800089f8 <i_8520>:
    800089f8:	018c2ab3          	slt	s5,s8,s8

00000000800089fc <i_8521>:
    800089fc:	4076e993          	ori	s3,a3,1031

0000000080008a00 <i_8522>:
    80008a00:	fbf14683          	lbu	a3,-65(sp)

0000000080008a04 <i_8523>:
    80008a04:	15510ca3          	sb	s5,345(sp)

0000000080008a08 <i_8524>:
    80008a08:	f7015283          	lhu	t0,-144(sp)

0000000080008a0c <i_8525>:
    80008a0c:	006ad863          	ble	t1,s5,80008a1c <i_8529>

0000000080008a10 <i_8526>:
    80008a10:	18d11c23          	sh	a3,408(sp)

0000000080008a14 <i_8527>:
    80008a14:	14815483          	lhu	s1,328(sp)

0000000080008a18 <i_8528>:
    80008a18:	f1c11683          	lh	a3,-228(sp)

0000000080008a1c <i_8529>:
    80008a1c:	4022d293          	srai	t0,t0,0x2

0000000080008a20 <i_8530>:
    80008a20:	08513823          	sd	t0,144(sp)

0000000080008a24 <i_8531>:
    80008a24:	04c13023          	sd	a2,64(sp)

0000000080008a28 <i_8532>:
    80008a28:	d682c293          	xori	t0,t0,-664

0000000080008a2c <i_8533>:
    80008a2c:	eec11603          	lh	a2,-276(sp)

0000000080008a30 <i_8534>:
    80008a30:	00c61e63          	bne	a2,a2,80008a4c <i_8541>

0000000080008a34 <i_8535>:
    80008a34:	0ac11503          	lh	a0,172(sp)

0000000080008a38 <i_8536>:
    80008a38:	0252cb33          	div	s6,t0,t0

0000000080008a3c <i_8537>:
    80008a3c:	ea513c23          	sd	t0,-328(sp)

0000000080008a40 <i_8538>:
    80008a40:	00555c63          	ble	t0,a0,80008a58 <i_8544>

0000000080008a44 <i_8539>:
    80008a44:	025b7263          	bleu	t0,s6,80008a68 <i_8548>

0000000080008a48 <i_8540>:
    80008a48:	f1b10483          	lb	s1,-229(sp)

0000000080008a4c <i_8541>:
    80008a4c:	0052ee63          	bltu	t0,t0,80008a68 <i_8548>

0000000080008a50 <i_8542>:
    80008a50:	00550b33          	add	s6,a0,t0

0000000080008a54 <i_8543>:
    80008a54:	41628533          	sub	a0,t0,s6

0000000080008a58 <i_8544>:
    80008a58:	16513823          	sd	t0,368(sp)

0000000080008a5c <i_8545>:
    80008a5c:	00516e63          	bltu	sp,t0,80008a78 <i_8552>

0000000080008a60 <i_8546>:
    80008a60:	f7215f03          	lhu	t5,-142(sp)

0000000080008a64 <i_8547>:
    80008a64:	025562b3          	rem	t0,a0,t0

0000000080008a68 <i_8548>:
    80008a68:	0382b2b3          	mulhu	t0,t0,s8

0000000080008a6c <i_8549>:
    80008a6c:	02611623          	sh	t1,44(sp)

0000000080008a70 <i_8550>:
    80008a70:	026c01bb          	mulw	gp,s8,t1

0000000080008a74 <i_8551>:
    80008a74:	02312e23          	sw	gp,60(sp)

0000000080008a78 <i_8552>:
    80008a78:	00000013          	nop

0000000080008a7c <i_8553>:
    80008a7c:	00000013          	nop

0000000080008a80 <i_8554>:
    80008a80:	86300313          	li	t1,-1949

0000000080008a84 <i_8555>:
    80008a84:	86900513          	li	a0,-1943

0000000080008a88 <i_8556>:
    80008a88:	01ec6663          	bltu	s8,t5,80008a94 <i_8559>

0000000080008a8c <i_8557>:
    80008a8c:	01ef5263          	ble	t5,t5,80008a90 <i_8558>

0000000080008a90 <i_8558>:
    80008a90:	13813023          	sd	s8,288(sp)

0000000080008a94 <i_8559>:
    80008a94:	16612c23          	sw	t1,376(sp)

0000000080008a98 <i_8560>:
    80008a98:	418f00bb          	subw	ra,t5,s8

0000000080008a9c <i_8561>:
    80008a9c:	09111223          	sh	a7,132(sp)

0000000080008aa0 <i_8562>:
    80008aa0:	021081b3          	mul	gp,ra,ra

0000000080008aa4 <i_8563>:
    80008aa4:	0300a0b3          	mulhsu	ra,ra,a6

0000000080008aa8 <i_8564>:
    80008aa8:	08c11423          	sh	a2,136(sp)

0000000080008aac <i_8565>:
    80008aac:	fc811223          	sh	s0,-60(sp)

0000000080008ab0 <i_8566>:
    80008ab0:	1b814603          	lbu	a2,440(sp)

0000000080008ab4 <i_8567>:
    80008ab4:	07014483          	lbu	s1,112(sp)

0000000080008ab8 <i_8568>:
    80008ab8:	f0913823          	sd	s1,-240(sp)

0000000080008abc <i_8569>:
    80008abc:	00130313          	addi	t1,t1,1 # 85b41ced <_end+0x5b318d9>
    80008ac0:	fc6574e3          	bleu	t1,a0,80008a88 <i_8556>

0000000080008ac4 <i_8570>:
    80008ac4:	06c12483          	lw	s1,108(sp)

0000000080008ac8 <i_8571>:
    80008ac8:	0011b1b3          	sltu	gp,gp,ra

0000000080008acc <i_8572>:
    80008acc:	02d0f6b3          	remu	a3,ra,a3

0000000080008ad0 <i_8573>:
    80008ad0:	00d0b5b3          	sltu	a1,ra,a3

0000000080008ad4 <i_8574>:
    80008ad4:	00d49e63          	bne	s1,a3,80008af0 <i_8581>

0000000080008ad8 <i_8575>:
    80008ad8:	e7c12483          	lw	s1,-388(sp)

0000000080008adc <i_8576>:
    80008adc:	fc310ba3          	sb	gp,-41(sp)

0000000080008ae0 <i_8577>:
    80008ae0:	4012d69b          	sraiw	a3,t0,0x1

0000000080008ae4 <i_8578>:
    80008ae4:	fad13c23          	sd	a3,-72(sp)

0000000080008ae8 <i_8579>:
    80008ae8:	41168ab3          	sub	s5,a3,a7

0000000080008aec <i_8580>:
    80008aec:	14912023          	sw	s1,320(sp)

0000000080008af0 <i_8581>:
    80008af0:	fa211a83          	lh	s5,-94(sp)

0000000080008af4 <i_8582>:
    80008af4:	1d31869b          	addiw	a3,gp,467

0000000080008af8 <i_8583>:
    80008af8:	0070ce63          	blt	ra,t2,80008b14 <i_8590>

0000000080008afc <i_8584>:
    80008afc:	02c4f1bb          	remuw	gp,s1,a2

0000000080008b00 <i_8585>:
    80008b00:	f0311123          	sh	gp,-254(sp)

0000000080008b04 <i_8586>:
    80008b04:	0236e4bb          	remw	s1,a3,gp

0000000080008b08 <i_8587>:
    80008b08:	24059617          	auipc	a2,0x24059

0000000080008b0c <i_8588>:
    80008b0c:	eb712c23          	sw	s7,-328(sp)

0000000080008b10 <i_8589>:
    80008b10:	00000013          	nop

0000000080008b14 <i_8590>:
    80008b14:	02448a3b          	mulw	s4,s1,tp

0000000080008b18 <i_8591>:
    80008b18:	1e816983          	lwu	s3,488(sp)

0000000080008b1c <i_8592>:
    80008b1c:	8a200413          	li	s0,-1886

0000000080008b20 <i_8593>:
    80008b20:	8b000213          	li	tp,-1872

0000000080008b24 <i_8594>:
    80008b24:	01427533          	and	a0,tp,s4

0000000080008b28 <i_8595>:
    80008b28:	1d013d03          	ld	s10,464(sp)

0000000080008b2c <i_8596>:
    80008b2c:	03364463          	blt	a2,s3,80008b54 <i_8605>

0000000080008b30 <i_8597>:
    80008b30:	02a9b9b3          	mulhu	s3,s3,a0

0000000080008b34 <i_8598>:
    80008b34:	03a8783b          	remuw	a6,a6,s10

0000000080008b38 <i_8599>:
    80008b38:	02a13c23          	sd	a0,56(sp)

0000000080008b3c <i_8600>:
    80008b3c:	ea013183          	ld	gp,-352(sp)

0000000080008b40 <i_8601>:
    80008b40:	03089663          	bne	a7,a6,80008b6c <i_8611>

0000000080008b44 <i_8602>:
    80008b44:	00140413          	addi	s0,s0,1
    80008b48:	fc446ee3          	bltu	s0,tp,80008b24 <i_8594>

0000000080008b4c <i_8603>:
    80008b4c:	02815803          	lhu	a6,40(sp)

0000000080008b50 <i_8604>:
    80008b50:	22286b93          	ori	s7,a6,546

0000000080008b54 <i_8605>:
    80008b54:	17e10803          	lb	a6,382(sp)

0000000080008b58 <i_8606>:
    80008b58:	03783bb3          	mulhu	s7,a6,s7

0000000080008b5c <i_8607>:
    80008b5c:	003b981b          	slliw	a6,s7,0x3

0000000080008b60 <i_8608>:
    80008b60:	03011723          	sh	a6,46(sp)

0000000080008b64 <i_8609>:
    80008b64:	09013803          	ld	a6,144(sp)

0000000080008b68 <i_8610>:
    80008b68:	03e80f33          	mul	t5,a6,t5

0000000080008b6c <i_8611>:
    80008b6c:	0b014203          	lbu	tp,176(sp)

0000000080008b70 <i_8612>:
    80008b70:	00425a63          	ble	tp,tp,80008b84 <i_8617>

0000000080008b74 <i_8613>:
    80008b74:	eb710d23          	sb	s7,-326(sp)

0000000080008b78 <i_8614>:
    80008b78:	07412b83          	lw	s7,116(sp)

0000000080008b7c <i_8615>:
    80008b7c:	14610203          	lb	tp,326(sp)

0000000080008b80 <i_8616>:
    80008b80:	00000013          	nop

0000000080008b84 <i_8617>:
    80008b84:	8022a817          	auipc	a6,0x8022a

0000000080008b88 <i_8618>:
    80008b88:	04a14183          	lbu	gp,74(sp)

0000000080008b8c <i_8619>:
    80008b8c:	74300213          	li	tp,1859

0000000080008b90 <i_8620>:
    80008b90:	74e00b93          	li	s7,1870

0000000080008b94 <i_8621>:
    80008b94:	003bfa63          	bleu	gp,s7,80008ba8 <i_8626>

0000000080008b98 <i_8622>:
    80008b98:	12c12803          	lw	a6,300(sp)

0000000080008b9c <i_8623>:
    80008b9c:	1ae11603          	lh	a2,430(sp)

0000000080008ba0 <i_8624>:
    80008ba0:	024b4463          	blt	s6,tp,80008bc8 <i_8634>

0000000080008ba4 <i_8625>:
    80008ba4:	06411923          	sh	tp,114(sp)

0000000080008ba8 <i_8626>:
    80008ba8:	03ccdb3b          	divuw	s6,s9,t3

0000000080008bac <i_8627>:
    80008bac:	024b2b33          	mulhsu	s6,s6,tp

0000000080008bb0 <i_8628>:
    80008bb0:	00000013          	nop

0000000080008bb4 <i_8629>:
    80008bb4:	f6e15a03          	lhu	s4,-146(sp)

0000000080008bb8 <i_8630>:
    80008bb8:	02c4ea33          	rem	s4,s1,a2

0000000080008bbc <i_8631>:
    80008bbc:	039d59bb          	divuw	s3,s10,s9

0000000080008bc0 <i_8632>:
    80008bc0:	014b4333          	xor	t1,s6,s4

0000000080008bc4 <i_8633>:
    80008bc4:	02664463          	blt	a2,t1,80008bec <i_8642>

0000000080008bc8 <i_8634>:
    80008bc8:	5b7c8c9b          	addiw	s9,s9,1463

0000000080008bcc <i_8635>:
    80008bcc:	01665e63          	ble	s6,a2,80008be8 <i_8641>

0000000080008bd0 <i_8636>:
    80008bd0:	00120213          	addi	tp,tp,1 # 1 <main-0x7fffffff>
    80008bd4:	fd7240e3          	blt	tp,s7,80008b94 <i_8621>

0000000080008bd8 <i_8637>:
    80008bd8:	e9912e23          	sw	s9,-356(sp)

0000000080008bdc <i_8638>:
    80008bdc:	00a00b13          	li	s6,10

0000000080008be0 <i_8639>:
    80008be0:	01629b33          	sll	s6,t0,s6

0000000080008be4 <i_8640>:
    80008be4:	1e013c83          	ld	s9,480(sp)

0000000080008be8 <i_8641>:
    80008be8:	03eb7f33          	remu	t5,s6,t5

0000000080008bec <i_8642>:
    80008bec:	f7611723          	sh	s6,-146(sp)

0000000080008bf0 <i_8643>:
    80008bf0:	01e21463          	bne	tp,t5,80008bf8 <i_8645>

0000000080008bf4 <i_8644>:
    80008bf4:	02d14b03          	lbu	s6,45(sp)

0000000080008bf8 <i_8645>:
    80008bf8:	fc013d03          	ld	s10,-64(sp)

0000000080008bfc <i_8646>:
    80008bfc:	1b813603          	ld	a2,440(sp)

0000000080008c00 <i_8647>:
    80008c00:	7d500213          	li	tp,2005

0000000080008c04 <i_8648>:
    80008c04:	7e900e13          	li	t3,2025

0000000080008c08 <i_8649>:
    80008c08:	00120213          	addi	tp,tp,1 # 1 <main-0x7fffffff>
    80008c0c:	ffc26ee3          	bltu	tp,t3,80008c08 <i_8649>

0000000080008c10 <i_8650>:
    80008c10:	f3914203          	lbu	tp,-199(sp)

0000000080008c14 <i_8651>:
    80008c14:	00466cb3          	or	s9,a2,tp

0000000080008c18 <i_8652>:
    80008c18:	03965263          	ble	s9,a2,80008c3c <i_8661>

0000000080008c1c <i_8653>:
    80008c1c:	02c15b83          	lhu	s7,44(sp)

0000000080008c20 <i_8654>:
    80008c20:	e6f14d03          	lbu	s10,-401(sp)

0000000080008c24 <i_8655>:
    80008c24:	eee15803          	lhu	a6,-274(sp)

0000000080008c28 <i_8656>:
    80008c28:	01fc7263          	bleu	t6,s8,80008c2c <i_8657>

0000000080008c2c <i_8657>:
    80008c2c:	0b411e83          	lh	t4,180(sp)

0000000080008c30 <i_8658>:
    80008c30:	019d7e63          	bleu	s9,s10,80008c4c <i_8665>

0000000080008c34 <i_8659>:
    80008c34:	1ba12823          	sw	s10,432(sp)

0000000080008c38 <i_8660>:
    80008c38:	edd11023          	sh	t4,-320(sp)

0000000080008c3c <i_8661>:
    80008c3c:	010d1463          	bne	s10,a6,80008c44 <i_8663>

0000000080008c40 <i_8662>:
    80008c40:	1b010f03          	lb	t5,432(sp)

0000000080008c44 <i_8663>:
    80008c44:	03415c03          	lhu	s8,52(sp)

0000000080008c48 <i_8664>:
    80008c48:	6fcc2c13          	slti	s8,s8,1788

0000000080008c4c <i_8665>:
    80008c4c:	01ec4663          	blt	s8,t5,80008c58 <i_8668>

0000000080008c50 <i_8666>:
    80008c50:	038c5c3b          	divuw	s8,s8,s8

0000000080008c54 <i_8667>:
    80008c54:	038c4463          	blt	s8,s8,80008c7c <i_8677>

0000000080008c58 <i_8668>:
    80008c58:	00a00c13          	li	s8,10

0000000080008c5c <i_8669>:
    80008c5c:	418c5bb3          	sra	s7,s8,s8

0000000080008c60 <i_8670>:
    80008c60:	e3314c03          	lbu	s8,-461(sp)

0000000080008c64 <i_8671>:
    80008c64:	038c6bb3          	rem	s7,s8,s8

0000000080008c68 <i_8672>:
    80008c68:	018c1a63          	bne	s8,s8,80008c7c <i_8677>

0000000080008c6c <i_8673>:
    80008c6c:	befbea93          	ori	s5,s7,-1041

0000000080008c70 <i_8674>:
    80008c70:	12013e03          	ld	t3,288(sp)

0000000080008c74 <i_8675>:
    80008c74:	00013a83          	ld	s5,0(sp)

0000000080008c78 <i_8676>:
    80008c78:	fa114183          	lbu	gp,-95(sp)

0000000080008c7c <i_8677>:
    80008c7c:	e0f9019b          	addiw	gp,s2,-497

0000000080008c80 <i_8678>:
    80008c80:	fe016183          	lwu	gp,-32(sp)

0000000080008c84 <i_8679>:
    80008c84:	03c62e33          	mulhsu	t3,a2,t3

0000000080008c88 <i_8680>:
    80008c88:	ee310f23          	sb	gp,-258(sp)

0000000080008c8c <i_8681>:
    80008c8c:	4031d19b          	sraiw	gp,gp,0x3

0000000080008c90 <i_8682>:
    80008c90:	023167b3          	rem	a5,sp,gp

0000000080008c94 <i_8683>:
    80008c94:	0031fc63          	bleu	gp,gp,80008cac <i_8689>

0000000080008c98 <i_8684>:
    80008c98:	06013e83          	ld	t4,96(sp)

0000000080008c9c <i_8685>:
    80008c9c:	5d81e193          	ori	gp,gp,1496

0000000080008ca0 <i_8686>:
    80008ca0:	09416183          	lwu	gp,148(sp)

0000000080008ca4 <i_8687>:
    80008ca4:	fe313023          	sd	gp,-32(sp)

0000000080008ca8 <i_8688>:
    80008ca8:	003f07b3          	add	a5,t5,gp

0000000080008cac <i_8689>:
    80008cac:	00000013          	nop

0000000080008cb0 <i_8690>:
    80008cb0:	02ff0f3b          	mulw	t5,t5,a5

0000000080008cb4 <i_8691>:
    80008cb4:	79800193          	li	gp,1944

0000000080008cb8 <i_8692>:
    80008cb8:	7a000613          	li	a2,1952

0000000080008cbc <i_8693>:
    80008cbc:	02ff6663          	bltu	t5,a5,80008ce8 <i_8703>

0000000080008cc0 <i_8694>:
    80008cc0:	01e13023          	sd	t5,0(sp)

0000000080008cc4 <i_8695>:
    80008cc4:	00f11223          	sh	a5,4(sp)

0000000080008cc8 <i_8696>:
    80008cc8:	00000013          	nop

0000000080008ccc <i_8697>:
    80008ccc:	e4c16783          	lwu	a5,-436(sp)

0000000080008cd0 <i_8698>:
    80008cd0:	02c7e7bb          	remw	a5,a5,a2

0000000080008cd4 <i_8699>:
    80008cd4:	00118193          	addi	gp,gp,1
    80008cd8:	fe3672e3          	bleu	gp,a2,80008cbc <i_8693>

0000000080008cdc <i_8700>:
    80008cdc:	fd013783          	ld	a5,-48(sp)

0000000080008ce0 <i_8701>:
    80008ce0:	977f039b          	addiw	t2,t5,-1673

0000000080008ce4 <i_8702>:
    80008ce4:	00778463          	beq	a5,t2,80008cec <i_8704>

0000000080008ce8 <i_8703>:
    80008ce8:	e3415783          	lhu	a5,-460(sp)

0000000080008cec <i_8704>:
    80008cec:	abb1f797          	auipc	a5,0xabb1f

0000000080008cf0 <i_8705>:
    80008cf0:	02f7c063          	blt	a5,a5,80008d10 <i_8713>

0000000080008cf4 <i_8706>:
    80008cf4:	02f7f263          	bleu	a5,a5,80008d18 <i_8715>

0000000080008cf8 <i_8707>:
    80008cf8:	05c12a03          	lw	s4,92(sp)

0000000080008cfc <i_8708>:
    80008cfc:	ec016783          	lwu	a5,-320(sp)

0000000080008d00 <i_8709>:
    80008d00:	f5412083          	lw	ra,-172(sp)

0000000080008d04 <i_8710>:
    80008d04:	f2f10423          	sb	a5,-216(sp)

0000000080008d08 <i_8711>:
    80008d08:	ee610783          	lb	a5,-282(sp)

0000000080008d0c <i_8712>:
    80008d0c:	12f13023          	sd	a5,288(sp)

0000000080008d10 <i_8713>:
    80008d10:	ea012783          	lw	a5,-352(sp)

0000000080008d14 <i_8714>:
    80008d14:	00112623          	sw	ra,12(sp)

0000000080008d18 <i_8715>:
    80008d18:	00000013          	nop

0000000080008d1c <i_8716>:
    80008d1c:	00000013          	nop

0000000080008d20 <i_8717>:
    80008d20:	75d00693          	li	a3,1885

0000000080008d24 <i_8718>:
    80008d24:	76100093          	li	ra,1889

0000000080008d28 <i_8719>:
    80008d28:	02e00213          	li	tp,46

0000000080008d2c <i_8720>:
    80008d2c:	004d9bb3          	sll	s7,s11,tp

0000000080008d30 <i_8721>:
    80008d30:	18811583          	lh	a1,392(sp)

0000000080008d34 <i_8722>:
    80008d34:	00a00493          	li	s1,10

0000000080008d38 <i_8723>:
    80008d38:	0096ddbb          	srlw	s11,a3,s1

0000000080008d3c <i_8724>:
    80008d3c:	e5813203          	ld	tp,-424(sp)

0000000080008d40 <i_8725>:
    80008d40:	009dca63          	blt	s11,s1,80008d54 <i_8730>

0000000080008d44 <i_8726>:
    80008d44:	0044ca63          	blt	s1,tp,80008d58 <i_8731>

0000000080008d48 <i_8727>:
    80008d48:	e3414e03          	lbu	t3,-460(sp)

0000000080008d4c <i_8728>:
    80008d4c:	03c4d663          	ble	t3,s1,80008d78 <i_8738>

0000000080008d50 <i_8729>:
    80008d50:	0c816b83          	lwu	s7,200(sp)

0000000080008d54 <i_8730>:
    80008d54:	00c00493          	li	s1,12

0000000080008d58 <i_8731>:
    80008d58:	00949e33          	sll	t3,s1,s1

0000000080008d5c <i_8732>:
    80008d5c:	ea512c23          	sw	t0,-328(sp)

0000000080008d60 <i_8733>:
    80008d60:	e3c16d03          	lwu	s10,-452(sp)

0000000080008d64 <i_8734>:
    80008d64:	10210283          	lb	t0,258(sp)

0000000080008d68 <i_8735>:
    80008d68:	00168693          	addi	a3,a3,1 # 36b38a91 <main-0x494c756f>
    80008d6c:	fa16cee3          	blt	a3,ra,80008d28 <i_8719>

0000000080008d70 <i_8736>:
    80008d70:	ee016583          	lwu	a1,-288(sp)

0000000080008d74 <i_8737>:
    80008d74:	e4a15203          	lhu	tp,-438(sp)

0000000080008d78 <i_8738>:
    80008d78:	00000013          	nop

0000000080008d7c <i_8739>:
    80008d7c:	f8d11b23          	sh	a3,-106(sp)

0000000080008d80 <i_8740>:
    80008d80:	7b000493          	li	s1,1968

0000000080008d84 <i_8741>:
    80008d84:	7c000693          	li	a3,1984

0000000080008d88 <i_8742>:
    80008d88:	02920233          	mul	tp,tp,s1

0000000080008d8c <i_8743>:
    80008d8c:	00449a63          	bne	s1,tp,80008da0 <i_8748>

0000000080008d90 <i_8744>:
    80008d90:	0294d23b          	divuw	tp,s1,s1

0000000080008d94 <i_8745>:
    80008d94:	3026ab93          	slti	s7,a3,770

0000000080008d98 <i_8746>:
    80008d98:	18910aa3          	sb	s1,405(sp)

0000000080008d9c <i_8747>:
    80008d9c:	00dbf263          	bleu	a3,s7,80008da0 <i_8748>

0000000080008da0 <i_8748>:
    80008da0:	f0912023          	sw	s1,-256(sp)

0000000080008da4 <i_8749>:
    80008da4:	004a9b93          	slli	s7,s5,0x4

0000000080008da8 <i_8750>:
    80008da8:	00900313          	li	t1,9

0000000080008dac <i_8751>:
    80008dac:	406bd33b          	sraw	t1,s7,t1

0000000080008db0 <i_8752>:
    80008db0:	00148493          	addi	s1,s1,1
    80008db4:	fc96dae3          	ble	s1,a3,80008d88 <i_8742>

0000000080008db8 <i_8753>:
    80008db8:	e2012503          	lw	a0,-480(sp)

0000000080008dbc <i_8754>:
    80008dbc:	009bfa63          	bleu	s1,s7,80008dd0 <i_8759>

0000000080008dc0 <i_8755>:
    80008dc0:	0374c3b3          	div	t2,s1,s7

0000000080008dc4 <i_8756>:
    80008dc4:	f2c15483          	lhu	s1,-212(sp)

0000000080008dc8 <i_8757>:
    80008dc8:	f4a11483          	lh	s1,-182(sp)

0000000080008dcc <i_8758>:
    80008dcc:	0d210203          	lb	tp,210(sp)

0000000080008dd0 <i_8759>:
    80008dd0:	00a49e63          	bne	s1,a0,80008dec <i_8766>

0000000080008dd4 <i_8760>:
    80008dd4:	40fe3497          	auipc	s1,0x40fe3

0000000080008dd8 <i_8761>:
    80008dd8:	0254c1bb          	divw	gp,s1,t0

0000000080008ddc <i_8762>:
    80008ddc:	12912c23          	sw	s1,312(sp)

0000000080008de0 <i_8763>:
    80008de0:	ee015203          	lhu	tp,-288(sp)

0000000080008de4 <i_8764>:
    80008de4:	0274f7b3          	remu	a5,s1,t2

0000000080008de8 <i_8765>:
    80008de8:	0ce15b03          	lhu	s6,206(sp)

0000000080008dec <i_8766>:
    80008dec:	01f18e33          	add	t3,gp,t6

0000000080008df0 <i_8767>:
    80008df0:	0233e1b3          	rem	gp,t2,gp

0000000080008df4 <i_8768>:
    80008df4:	77b00393          	li	t2,1915

0000000080008df8 <i_8769>:
    80008df8:	77d00493          	li	s1,1917

0000000080008dfc <i_8770>:
    80008dfc:	016e25b3          	slt	a1,t3,s6

0000000080008e00 <i_8771>:
    80008e00:	14c11e83          	lh	t4,332(sp)

0000000080008e04 <i_8772>:
    80008e04:	03a11503          	lh	a0,58(sp)

0000000080008e08 <i_8773>:
    80008e08:	00138393          	addi	t2,t2,1
    80008e0c:	fe74f8e3          	bleu	t2,s1,80008dfc <i_8770>

0000000080008e10 <i_8774>:
    80008e10:	00b00193          	li	gp,11

0000000080008e14 <i_8775>:
    80008e14:	0033d3bb          	srlw	t2,t2,gp

0000000080008e18 <i_8776>:
    80008e18:	16816683          	lwu	a3,360(sp)

0000000080008e1c <i_8777>:
    80008e1c:	00d18463          	beq	gp,a3,80008e24 <i_8779>

0000000080008e20 <i_8778>:
    80008e20:	0236e33b          	remw	t1,a3,gp

0000000080008e24 <i_8779>:
    80008e24:	06614403          	lbu	s0,102(sp)

0000000080008e28 <i_8780>:
    80008e28:	19c13c23          	sd	t3,408(sp)

0000000080008e2c <i_8781>:
    80008e2c:	db147513          	andi	a0,s0,-591

0000000080008e30 <i_8782>:
    80008e30:	0266fab3          	remu	s5,a3,t1

0000000080008e34 <i_8783>:
    80008e34:	01416663          	bltu	sp,s4,80008e40 <i_8786>

0000000080008e38 <i_8784>:
    80008e38:	015a6a33          	or	s4,s4,s5

0000000080008e3c <i_8785>:
    80008e3c:	10612e23          	sw	t1,284(sp)

0000000080008e40 <i_8786>:
    80008e40:	015ad263          	ble	s5,s5,80008e44 <i_8787>

0000000080008e44 <i_8787>:
    80008e44:	f1012503          	lw	a0,-240(sp)

0000000080008e48 <i_8788>:
    80008e48:	00aa3a33          	sltu	s4,s4,a0

0000000080008e4c <i_8789>:
    80008e4c:	015a1663          	bne	s4,s5,80008e58 <i_8792>

0000000080008e50 <i_8790>:
    80008e50:	01aa5a63          	ble	s10,s4,80008e64 <i_8795>

0000000080008e54 <i_8791>:
    80008e54:	01596663          	bltu	s2,s5,80008e60 <i_8794>

0000000080008e58 <i_8792>:
    80008e58:	03455abb          	divuw	s5,a0,s4

0000000080008e5c <i_8793>:
    80008e5c:	f4013683          	ld	a3,-192(sp)

0000000080008e60 <i_8794>:
    80008e60:	01420c63          	beq	tp,s4,80008e78 <i_8800>

0000000080008e64 <i_8795>:
    80008e64:	e9810b83          	lb	s7,-360(sp)

0000000080008e68 <i_8796>:
    80008e68:	fcb197b7          	lui	a5,0xfcb19

0000000080008e6c <i_8797>:
    80008e6c:	00668a63          	beq	a3,t1,80008e80 <i_8802>

0000000080008e70 <i_8798>:
    80008e70:	01578bb3          	add	s7,a5,s5

0000000080008e74 <i_8799>:
    80008e74:	01500c93          	li	s9,21

0000000080008e78 <i_8800>:
    80008e78:	019bdb3b          	srlw	s6,s7,s9

0000000080008e7c <i_8801>:
    80008e7c:	e9413c23          	sd	s4,-360(sp)

0000000080008e80 <i_8802>:
    80008e80:	0f813b83          	ld	s7,248(sp)

0000000080008e84 <i_8803>:
    80008e84:	017babb3          	slt	s7,s7,s7

0000000080008e88 <i_8804>:
    80008e88:	78400a13          	li	s4,1924

0000000080008e8c <i_8805>:
    80008e8c:	79500a93          	li	s5,1941

0000000080008e90 <i_8806>:
    80008e90:	01ebb333          	sltu	t1,s7,t5

0000000080008e94 <i_8807>:
    80008e94:	001a0a13          	addi	s4,s4,1
    80008e98:	ff4afce3          	bleu	s4,s5,80008e90 <i_8806>

0000000080008e9c <i_8808>:
    80008e9c:	03600b93          	li	s7,54

0000000080008ea0 <i_8809>:
    80008ea0:	017a90b3          	sll	ra,s5,s7

0000000080008ea4 <i_8810>:
    80008ea4:	19d10ea3          	sb	t4,413(sp)

0000000080008ea8 <i_8811>:
    80008ea8:	13215303          	lhu	t1,306(sp)

0000000080008eac <i_8812>:
    80008eac:	f7711123          	sh	s7,-158(sp)

0000000080008eb0 <i_8813>:
    80008eb0:	1a016683          	lwu	a3,416(sp)

0000000080008eb4 <i_8814>:
    80008eb4:	0136d663          	ble	s3,a3,80008ec0 <i_8817>

0000000080008eb8 <i_8815>:
    80008eb8:	fdc16303          	lwu	t1,-36(sp)

0000000080008ebc <i_8816>:
    80008ebc:	0060da63          	ble	t1,ra,80008ed0 <i_8821>

0000000080008ec0 <i_8817>:
    80008ec0:	e1e15c03          	lhu	s8,-482(sp)

0000000080008ec4 <i_8818>:
    80008ec4:	0c910ca3          	sb	s1,217(sp)

0000000080008ec8 <i_8819>:
    80008ec8:	00000013          	nop

0000000080008ecc <i_8820>:
    80008ecc:	13412983          	lw	s3,308(sp)

0000000080008ed0 <i_8821>:
    80008ed0:	00000013          	nop

0000000080008ed4 <i_8822>:
    80008ed4:	f5010583          	lb	a1,-176(sp)

0000000080008ed8 <i_8823>:
    80008ed8:	85b00c13          	li	s8,-1957

0000000080008edc <i_8824>:
    80008edc:	86b00313          	li	t1,-1941

0000000080008ee0 <i_8825>:
    80008ee0:	e3414983          	lbu	s3,-460(sp)

0000000080008ee4 <i_8826>:
    80008ee4:	01c00193          	li	gp,28

0000000080008ee8 <i_8827>:
    80008ee8:	003ed9b3          	srl	s3,t4,gp

0000000080008eec <i_8828>:
    80008eec:	001c0c13          	addi	s8,s8,1
    80008ef0:	fe6c68e3          	bltu	s8,t1,80008ee0 <i_8825>

0000000080008ef4 <i_8829>:
    80008ef4:	fb313023          	sd	s3,-96(sp)

0000000080008ef8 <i_8830>:
    80008ef8:	7541899b          	addiw	s3,gp,1876

0000000080008efc <i_8831>:
    80008efc:	12811983          	lh	s3,296(sp)

0000000080008f00 <i_8832>:
    80008f00:	b969851b          	addiw	a0,s3,-1130

0000000080008f04 <i_8833>:
    80008f04:	4049d993          	srai	s3,s3,0x4

0000000080008f08 <i_8834>:
    80008f08:	10814c03          	lbu	s8,264(sp)

0000000080008f0c <i_8835>:
    80008f0c:	f4a10983          	lb	s3,-182(sp)

0000000080008f10 <i_8836>:
    80008f10:	19014983          	lbu	s3,400(sp)

0000000080008f14 <i_8837>:
    80008f14:	2fa9b993          	sltiu	s3,s3,762

0000000080008f18 <i_8838>:
    80008f18:	002c581b          	srliw	a6,s8,0x2

0000000080008f1c <i_8839>:
    80008f1c:	f1414c03          	lbu	s8,-236(sp)

0000000080008f20 <i_8840>:
    80008f20:	c8266b93          	ori	s7,a2,-894

0000000080008f24 <i_8841>:
    80008f24:	02ec4463          	blt	s8,a4,80008f4c <i_8851>

0000000080008f28 <i_8842>:
    80008f28:	013585b3          	add	a1,a1,s3

0000000080008f2c <i_8843>:
    80008f2c:	1c415983          	lhu	s3,452(sp)

0000000080008f30 <i_8844>:
    80008f30:	e7211a03          	lh	s4,-398(sp)

0000000080008f34 <i_8845>:
    80008f34:	ef312a23          	sw	s3,-268(sp)

0000000080008f38 <i_8846>:
    80008f38:	018be0b3          	or	ra,s7,s8

0000000080008f3c <i_8847>:
    80008f3c:	0ba11403          	lh	s0,186(sp)

0000000080008f40 <i_8848>:
    80008f40:	eeb10b83          	lb	s7,-277(sp)

0000000080008f44 <i_8849>:
    80008f44:	f6815d83          	lhu	s11,-152(sp)

0000000080008f48 <i_8850>:
    80008f48:	03458eb3          	mul	t4,a1,s4

0000000080008f4c <i_8851>:
    80008f4c:	01012403          	lw	s0,16(sp)

0000000080008f50 <i_8852>:
    80008f50:	e2412e83          	lw	t4,-476(sp)

0000000080008f54 <i_8853>:
    80008f54:	0ee15a83          	lhu	s5,238(sp)

0000000080008f58 <i_8854>:
    80008f58:	fcb13c23          	sd	a1,-40(sp)

0000000080008f5c <i_8855>:
    80008f5c:	01d56e63          	bltu	a0,t4,80008f78 <i_8862>

0000000080008f60 <i_8856>:
    80008f60:	03decebb          	divw	t4,t4,t4

0000000080008f64 <i_8857>:
    80008f64:	e8b10a83          	lb	s5,-373(sp)

0000000080008f68 <i_8858>:
    80008f68:	f0911b23          	sh	s1,-234(sp)

0000000080008f6c <i_8859>:
    80008f6c:	07d10f23          	sb	t4,126(sp)

0000000080008f70 <i_8860>:
    80008f70:	ff014603          	lbu	a2,-16(sp)

0000000080008f74 <i_8861>:
    80008f74:	01d16e63          	bltu	sp,t4,80008f90 <i_8868>

0000000080008f78 <i_8862>:
    80008f78:	00800e93          	li	t4,8

0000000080008f7c <i_8863>:
    80008f7c:	01d651b3          	srl	gp,a2,t4

0000000080008f80 <i_8864>:
    80008f80:	02666db3          	rem	s11,a2,t1

0000000080008f84 <i_8865>:
    80008f84:	00000013          	nop

0000000080008f88 <i_8866>:
    80008f88:	b4f17d93          	andi	s11,sp,-1201

0000000080008f8c <i_8867>:
    80008f8c:	00000013          	nop

0000000080008f90 <i_8868>:
    80008f90:	0b415b83          	lhu	s7,180(sp)

0000000080008f94 <i_8869>:
    80008f94:	23f9ba13          	sltiu	s4,s3,575

0000000080008f98 <i_8870>:
    80008f98:	75c00c13          	li	s8,1884

0000000080008f9c <i_8871>:
    80008f9c:	76700613          	li	a2,1895

0000000080008fa0 <i_8872>:
    80008fa0:	03812cb3          	mulhsu	s9,sp,s8

0000000080008fa4 <i_8873>:
    80008fa4:	00000013          	nop

0000000080008fa8 <i_8874>:
    80008fa8:	038e9463          	bne	t4,s8,80008fd0 <i_8883>

0000000080008fac <i_8875>:
    80008fac:	001c0c13          	addi	s8,s8,1
    80008fb0:	fecc18e3          	bne	s8,a2,80008fa0 <i_8872>

0000000080008fb4 <i_8876>:
    80008fb4:	019bea63          	bltu	s7,s9,80008fc8 <i_8881>

0000000080008fb8 <i_8877>:
    80008fb8:	eb013e83          	ld	t4,-336(sp)

0000000080008fbc <i_8878>:
    80008fbc:	03cc7063          	bleu	t3,s8,80008fdc <i_8886>

0000000080008fc0 <i_8879>:
    80008fc0:	01dce863          	bltu	s9,t4,80008fd0 <i_8883>

0000000080008fc4 <i_8880>:
    80008fc4:	034631b3          	mulhu	gp,a2,s4

0000000080008fc8 <i_8881>:
    80008fc8:	00c65e63          	ble	a2,a2,80008fe4 <i_8888>

0000000080008fcc <i_8882>:
    80008fcc:	019caa33          	slt	s4,s9,s9

0000000080008fd0 <i_8883>:
    80008fd0:	9c378c37          	lui	s8,0x9c378

0000000080008fd4 <i_8884>:
    80008fd4:	ffe10c83          	lb	s9,-2(sp)

0000000080008fd8 <i_8885>:
    80008fd8:	ffe13823          	sd	t5,-16(sp)

0000000080008fdc <i_8886>:
    80008fdc:	011b0cb3          	add	s9,s6,a7

0000000080008fe0 <i_8887>:
    80008fe0:	00000013          	nop

0000000080008fe4 <i_8888>:
    80008fe4:	039cab33          	mulhsu	s6,s9,s9

0000000080008fe8 <i_8889>:
    80008fe8:	0e011d03          	lh	s10,224(sp)

0000000080008fec <i_8890>:
    80008fec:	8c300993          	li	s3,-1853

0000000080008ff0 <i_8891>:
    80008ff0:	8d600f13          	li	t5,-1834

0000000080008ff4 <i_8892>:
    80008ff4:	01c00c93          	li	s9,28

0000000080008ff8 <i_8893>:
    80008ff8:	019b1cbb          	sllw	s9,s6,s9

0000000080008ffc <i_8894>:
    80008ffc:	00700d93          	li	s11,7

0000000080009000 <i_8895>:
    80009000:	41bcd3bb          	sraw	t2,s9,s11

0000000080009004 <i_8896>:
    80009004:	00198993          	addi	s3,s3,1
    80009008:	ff3f56e3          	ble	s3,t5,80008ff4 <i_8892>

000000008000900c <i_8897>:
    8000900c:	019c8663          	beq	s9,s9,80009018 <i_8900>

0000000080009010 <i_8898>:
    80009010:	141cac93          	slti	s9,s9,321

0000000080009014 <i_8899>:
    80009014:	01a00c93          	li	s9,26

0000000080009018 <i_8900>:
    80009018:	419cdcb3          	sra	s9,s9,s9

000000008000901c <i_8901>:
    8000901c:	0b412603          	lw	a2,180(sp)

0000000080009020 <i_8902>:
    80009020:	6cec8613          	addi	a2,s9,1742

0000000080009024 <i_8903>:
    80009024:	07016c83          	lwu	s9,112(sp)

0000000080009028 <i_8904>:
    80009028:	00167e63          	bleu	ra,a2,80009044 <i_8911>

000000008000902c <i_8905>:
    8000902c:	00c11123          	sh	a2,2(sp)

0000000080009030 <i_8906>:
    80009030:	001c9613          	slli	a2,s9,0x1

0000000080009034 <i_8907>:
    80009034:	e4416603          	lwu	a2,-444(sp)

0000000080009038 <i_8908>:
    80009038:	02e00b93          	li	s7,46

000000008000903c <i_8909>:
    8000903c:	017dd7b3          	srl	a5,s11,s7

0000000080009040 <i_8910>:
    80009040:	00c65263          	ble	a2,a2,80009044 <i_8911>

0000000080009044 <i_8911>:
    80009044:	e6c10423          	sb	a2,-408(sp)

0000000080009048 <i_8912>:
    80009048:	17911823          	sh	s9,368(sp)

000000008000904c <i_8913>:
    8000904c:	019cc663          	blt	s9,s9,80009058 <i_8916>

0000000080009050 <i_8914>:
    80009050:	02f64cbb          	divw	s9,a2,a5

0000000080009054 <i_8915>:
    80009054:	02c667b3          	rem	a5,a2,a2

0000000080009058 <i_8916>:
    80009058:	0c012303          	lw	t1,192(sp)

000000008000905c <i_8917>:
    8000905c:	02f797b3          	mulh	a5,a5,a5

0000000080009060 <i_8918>:
    80009060:	83a00c93          	li	s9,-1990

0000000080009064 <i_8919>:
    80009064:	84600613          	li	a2,-1978

0000000080009068 <i_8920>:
    80009068:	001c8c93          	addi	s9,s9,1
    8000906c:	fecceee3          	bltu	s9,a2,80009068 <i_8920>

0000000080009070 <i_8921>:
    80009070:	0a212c23          	sw	sp,184(sp)

0000000080009074 <i_8922>:
    80009074:	00635863          	ble	t1,t1,80009084 <i_8926>

0000000080009078 <i_8923>:
    80009078:	02f7c063          	blt	a5,a5,80009098 <i_8931>

000000008000907c <i_8924>:
    8000907c:	0ba11303          	lh	t1,186(sp)

0000000080009080 <i_8925>:
    80009080:	cf752513          	slti	a0,a0,-777

0000000080009084 <i_8926>:
    80009084:	00f34433          	xor	s0,t1,a5

0000000080009088 <i_8927>:
    80009088:	f5410f03          	lb	t5,-172(sp)

000000008000908c <i_8928>:
    8000908c:	13c13423          	sd	t3,296(sp)

0000000080009090 <i_8929>:
    80009090:	00000013          	nop

0000000080009094 <i_8930>:
    80009094:	1c611f03          	lh	t5,454(sp)

0000000080009098 <i_8931>:
    80009098:	fb214303          	lbu	t1,-78(sp)

000000008000909c <i_8932>:
    8000909c:	f3c15503          	lhu	a0,-196(sp)

00000000800090a0 <i_8933>:
    800090a0:	7a800413          	li	s0,1960

00000000800090a4 <i_8934>:
    800090a4:	7af00e13          	li	t3,1967

00000000800090a8 <i_8935>:
    800090a8:	13813583          	ld	a1,312(sp)

00000000800090ac <i_8936>:
    800090ac:	16813983          	ld	s3,360(sp)

00000000800090b0 <i_8937>:
    800090b0:	10416603          	lwu	a2,260(sp)

00000000800090b4 <i_8938>:
    800090b4:	00e00213          	li	tp,14

00000000800090b8 <i_8939>:
    800090b8:	004f5d33          	srl	s10,t5,tp

00000000800090bc <i_8940>:
    800090bc:	033f67bb          	remw	a5,t5,s3

00000000800090c0 <i_8941>:
    800090c0:	10610603          	lb	a2,262(sp)

00000000800090c4 <i_8942>:
    800090c4:	02459263          	bne	a1,tp,800090e8 <i_8950>

00000000800090c8 <i_8943>:
    800090c8:	026d6063          	bltu	s10,t1,800090e8 <i_8950>

00000000800090cc <i_8944>:
    800090cc:	00140413          	addi	s0,s0,1
    800090d0:	fc8e7ce3          	bleu	s0,t3,800090a8 <i_8935>

00000000800090d4 <i_8945>:
    800090d4:	ed314603          	lbu	a2,-301(sp)

00000000800090d8 <i_8946>:
    800090d8:	02c57063          	bleu	a2,a0,800090f8 <i_8954>

00000000800090dc <i_8947>:
    800090dc:	0e813603          	ld	a2,232(sp)

00000000800090e0 <i_8948>:
    800090e0:	e0c13c23          	sd	a2,-488(sp)

00000000800090e4 <i_8949>:
    800090e4:	09412a83          	lw	s5,148(sp)

00000000800090e8 <i_8950>:
    800090e8:	e8f12e23          	sw	a5,-356(sp)

00000000800090ec <i_8951>:
    800090ec:	f4c103a3          	sb	a2,-185(sp)

00000000800090f0 <i_8952>:
    800090f0:	7c562a93          	slti	s5,a2,1989

00000000800090f4 <i_8953>:
    800090f4:	02ca8a3b          	mulw	s4,s5,a2

00000000800090f8 <i_8954>:
    800090f8:	02c29463          	bne	t0,a2,80009120 <i_8964>

00000000800090fc <i_8955>:
    800090fc:	15a11383          	lh	t2,346(sp)

0000000080009100 <i_8956>:
    80009100:	00f3ca63          	blt	t2,a5,80009114 <i_8961>

0000000080009104 <i_8957>:
    80009104:	027a07bb          	mulw	a5,s4,t2

0000000080009108 <i_8958>:
    80009108:	e7613023          	sd	s6,-416(sp)

000000008000910c <i_8959>:
    8000910c:	00c00593          	li	a1,12

0000000080009110 <i_8960>:
    80009110:	00b394bb          	sllw	s1,t2,a1

0000000080009114 <i_8961>:
    80009114:	e2712a23          	sw	t2,-460(sp)

0000000080009118 <i_8962>:
    80009118:	00000013          	nop

000000008000911c <i_8963>:
    8000911c:	41c50533          	sub	a0,a0,t3

0000000080009120 <i_8964>:
    80009120:	009231b3          	sltu	gp,tp,s1

0000000080009124 <i_8965>:
    80009124:	04c16503          	lwu	a0,76(sp)

0000000080009128 <i_8966>:
    80009128:	72f00a13          	li	s4,1839

000000008000912c <i_8967>:
    8000912c:	73b00b13          	li	s6,1851

0000000080009130 <i_8968>:
    80009130:	02a1d5bb          	divuw	a1,gp,a0

0000000080009134 <i_8969>:
    80009134:	00000013          	nop

0000000080009138 <i_8970>:
    80009138:	0b013183          	ld	gp,176(sp)

000000008000913c <i_8971>:
    8000913c:	05918d13          	addi	s10,gp,89

0000000080009140 <i_8972>:
    80009140:	001a0a13          	addi	s4,s4,1
    80009144:	ff4b56e3          	ble	s4,s6,80009130 <i_8968>

0000000080009148 <i_8973>:
    80009148:	00a1c463          	blt	gp,a0,80009150 <i_8975>

000000008000914c <i_8974>:
    8000914c:	e3c12b03          	lw	s6,-452(sp)

0000000080009150 <i_8975>:
    80009150:	fa510c83          	lb	s9,-91(sp)

0000000080009154 <i_8976>:
    80009154:	00600d13          	li	s10,6

0000000080009158 <i_8977>:
    80009158:	01a1d5bb          	srlw	a1,gp,s10

000000008000915c <i_8978>:
    8000915c:	01813183          	ld	gp,24(sp)

0000000080009160 <i_8979>:
    80009160:	06611b23          	sh	t1,118(sp)

0000000080009164 <i_8980>:
    80009164:	02200213          	li	tp,34

0000000080009168 <i_8981>:
    80009168:	4041dbb3          	sra	s7,gp,tp

000000008000916c <i_8982>:
    8000916c:	85400293          	li	t0,-1964

0000000080009170 <i_8983>:
    80009170:	86500413          	li	s0,-1947

0000000080009174 <i_8984>:
    80009174:	0a910f23          	sb	s1,190(sp)

0000000080009178 <i_8985>:
    80009178:	e9d10d03          	lb	s10,-355(sp)

000000008000917c <i_8986>:
    8000917c:	e5a11c23          	sh	s10,-424(sp)

0000000080009180 <i_8987>:
    80009180:	0f016303          	lwu	t1,240(sp)

0000000080009184 <i_8988>:
    80009184:	005106a3          	sb	t0,13(sp)

0000000080009188 <i_8989>:
    80009188:	17e15d03          	lhu	s10,382(sp)

000000008000918c <i_8990>:
    8000918c:	01ad04b3          	add	s1,s10,s10

0000000080009190 <i_8991>:
    80009190:	037d4663          	blt	s10,s7,800091bc <i_9001>

0000000080009194 <i_8992>:
    80009194:	0294dbbb          	divuw	s7,s1,s1

0000000080009198 <i_8993>:
    80009198:	e3910b83          	lb	s7,-455(sp)

000000008000919c <i_8994>:
    8000919c:	0374d263          	ble	s7,s1,800091c0 <i_9002>

00000000800091a0 <i_8995>:
    800091a0:	0174de63          	ble	s7,s1,800091bc <i_9001>

00000000800091a4 <i_8996>:
    800091a4:	ed215483          	lhu	s1,-302(sp)

00000000800091a8 <i_8997>:
    800091a8:	00128293          	addi	t0,t0,1
    800091ac:	fc5412e3          	bne	s0,t0,80009170 <i_8983>

00000000800091b0 <i_8998>:
    800091b0:	02912823          	sw	s1,48(sp)

00000000800091b4 <i_8999>:
    800091b4:	e1c12803          	lw	a6,-484(sp)

00000000800091b8 <i_9000>:
    800091b8:	e3016203          	lwu	tp,-464(sp)

00000000800091bc <i_9001>:
    800091bc:	11710d23          	sb	s7,282(sp)

00000000800091c0 <i_9002>:
    800091c0:	03113c23          	sd	a7,56(sp)

00000000800091c4 <i_9003>:
    800091c4:	fb711e23          	sh	s7,-68(sp)

00000000800091c8 <i_9004>:
    800091c8:	03321063          	bne	tp,s3,800091e8 <i_9012>

00000000800091cc <i_9005>:
    800091cc:	f2412b83          	lw	s7,-220(sp)

00000000800091d0 <i_9006>:
    800091d0:	f3c12503          	lw	a0,-196(sp)

00000000800091d4 <i_9007>:
    800091d4:	f0c10f03          	lb	t5,-244(sp)

00000000800091d8 <i_9008>:
    800091d8:	e2811603          	lh	a2,-472(sp)

00000000800091dc <i_9009>:
    800091dc:	f7415303          	lhu	t1,-140(sp)

00000000800091e0 <i_9010>:
    800091e0:	f9e11723          	sh	t5,-114(sp)

00000000800091e4 <i_9011>:
    800091e4:	01055e63          	ble	a6,a0,80009200 <i_9018>

00000000800091e8 <i_9012>:
    800091e8:	40530eb3          	sub	t4,t1,t0

00000000800091ec <i_9013>:
    800091ec:	6d80f817          	auipc	a6,0x6d80f

00000000800091f0 <i_9014>:
    800091f0:	03e0f633          	remu	a2,ra,t5

00000000800091f4 <i_9015>:
    800091f4:	405e82b3          	sub	t0,t4,t0

00000000800091f8 <i_9016>:
    800091f8:	eb412283          	lw	t0,-332(sp)

00000000800091fc <i_9017>:
    800091fc:	f2411203          	lh	tp,-220(sp)

0000000080009200 <i_9018>:
    80009200:	fec11523          	sh	a2,-22(sp)

0000000080009204 <i_9019>:
    80009204:	e55103a3          	sb	s5,-441(sp)

0000000080009208 <i_9020>:
    80009208:	72e00593          	li	a1,1838

000000008000920c <i_9021>:
    8000920c:	73000d93          	li	s11,1840

0000000080009210 <i_9022>:
    80009210:	00000013          	nop

0000000080009214 <i_9023>:
    80009214:	00000013          	nop

0000000080009218 <i_9024>:
    80009218:	02bd8663          	beq	s11,a1,80009244 <i_9034>

000000008000921c <i_9025>:
    8000921c:	02b12c23          	sw	a1,56(sp)

0000000080009220 <i_9026>:
    80009220:	ffb10683          	lb	a3,-5(sp)

0000000080009224 <i_9027>:
    80009224:	00158593          	addi	a1,a1,1 # 6ea35001 <main-0x115cafff>
    80009228:	ffb594e3          	bne	a1,s11,80009210 <i_9022>

000000008000922c <i_9028>:
    8000922c:	f9b12c23          	sw	s11,-104(sp)

0000000080009230 <i_9029>:
    80009230:	f5b10923          	sb	s11,-174(sp)

0000000080009234 <i_9030>:
    80009234:	00229263          	bne	t0,sp,80009238 <i_9031>

0000000080009238 <i_9031>:
    80009238:	00469d93          	slli	s11,a3,0x4

000000008000923c <i_9032>:
    8000923c:	02421263          	bne	tp,tp,80009260 <i_9041>

0000000080009240 <i_9033>:
    80009240:	00d21a63          	bne	tp,a3,80009254 <i_9038>

0000000080009244 <i_9034>:
    80009244:	04d14203          	lbu	tp,77(sp)

0000000080009248 <i_9035>:
    80009248:	0d510d83          	lb	s11,213(sp)

000000008000924c <i_9036>:
    8000924c:	00424463          	blt	tp,tp,80009254 <i_9038>

0000000080009250 <i_9037>:
    80009250:	e1814403          	lbu	s0,-488(sp)

0000000080009254 <i_9038>:
    80009254:	00345863          	ble	gp,s0,80009264 <i_9042>

0000000080009258 <i_9039>:
    80009258:	0e813403          	ld	s0,232(sp)

000000008000925c <i_9040>:
    8000925c:	e3a10503          	lb	a0,-454(sp)

0000000080009260 <i_9041>:
    80009260:	f0a12223          	sw	a0,-252(sp)

0000000080009264 <i_9042>:
    80009264:	4025519b          	sraiw	gp,a0,0x2

0000000080009268 <i_9043>:
    80009268:	00a41463          	bne	s0,a0,80009270 <i_9045>

000000008000926c <i_9044>:
    8000926c:	0f690513          	addi	a0,s2,246

0000000080009270 <i_9045>:
    80009270:	00000013          	nop

0000000080009274 <i_9046>:
    80009274:	11813d83          	ld	s11,280(sp)

0000000080009278 <i_9047>:
    80009278:	85800a93          	li	s5,-1960

000000008000927c <i_9048>:
    8000927c:	86400513          	li	a0,-1948

0000000080009280 <i_9049>:
    80009280:	0fb11723          	sh	s11,238(sp)

0000000080009284 <i_9050>:
    80009284:	f5b13c23          	sd	s11,-168(sp)

0000000080009288 <i_9051>:
    80009288:	88500193          	li	gp,-1915

000000008000928c <i_9052>:
    8000928c:	88a00613          	li	a2,-1910

0000000080009290 <i_9053>:
    80009290:	d11d7d13          	andi	s10,s10,-751

0000000080009294 <i_9054>:
    80009294:	ec814983          	lbu	s3,-312(sp)

0000000080009298 <i_9055>:
    80009298:	033d46bb          	divw	a3,s10,s3

000000008000929c <i_9056>:
    8000929c:	00118193          	addi	gp,gp,1
    800092a0:	fe3678e3          	bleu	gp,a2,80009290 <i_9053>

00000000800092a4 <i_9057>:
    800092a4:	19d10d83          	lb	s11,413(sp)

00000000800092a8 <i_9058>:
    800092a8:	13f12223          	sw	t6,292(sp)

00000000800092ac <i_9059>:
    800092ac:	01d18263          	beq	gp,t4,800092b0 <i_9060>

00000000800092b0 <i_9060>:
    800092b0:	403d5193          	srai	gp,s10,0x3

00000000800092b4 <i_9061>:
    800092b4:	03b383b3          	mul	t2,t2,s11

00000000800092b8 <i_9062>:
    800092b8:	001a8a93          	addi	s5,s5,1
    800092bc:	fcaae2e3          	bltu	s5,a0,80009280 <i_9049>

00000000800092c0 <i_9063>:
    800092c0:	01c1e4b3          	or	s1,gp,t3

00000000800092c4 <i_9064>:
    800092c4:	01449a63          	bne	s1,s4,800092d8 <i_9069>

00000000800092c8 <i_9065>:
    800092c8:	00349e1b          	slliw	t3,s1,0x3

00000000800092cc <i_9066>:
    800092cc:	b983a793          	slti	a5,t2,-1128

00000000800092d0 <i_9067>:
    800092d0:	ef714603          	lbu	a2,-265(sp)

00000000800092d4 <i_9068>:
    800092d4:	80f7829b          	addiw	t0,a5,-2033

00000000800092d8 <i_9069>:
    800092d8:	fc813503          	ld	a0,-56(sp)

00000000800092dc <i_9070>:
    800092dc:	005e5463          	ble	t0,t3,800092e4 <i_9072>

00000000800092e0 <i_9071>:
    800092e0:	02f4853b          	mulw	a0,s1,a5

00000000800092e4 <i_9072>:
    800092e4:	00979663          	bne	a5,s1,800092f0 <i_9075>

00000000800092e8 <i_9073>:
    800092e8:	0e713823          	sd	t2,240(sp)

00000000800092ec <i_9074>:
    800092ec:	02ff7063          	bleu	a5,t5,8000930c <i_9082>

00000000800092f0 <i_9075>:
    800092f0:	04214d83          	lbu	s11,66(sp)

00000000800092f4 <i_9076>:
    800092f4:	fe615203          	lhu	tp,-26(sp)

00000000800092f8 <i_9077>:
    800092f8:	03b4c463          	blt	s1,s11,80009320 <i_9087>

00000000800092fc <i_9078>:
    800092fc:	4037d793          	srai	a5,a5,0x3

0000000080009300 <i_9079>:
    80009300:	01b20e63          	beq	tp,s11,8000931c <i_9086>

0000000080009304 <i_9080>:
    80009304:	03a7fab3          	remu	s5,a5,s10

0000000080009308 <i_9081>:
    80009308:	1db102a3          	sb	s11,453(sp)

000000008000930c <i_9082>:
    8000930c:	f6013803          	ld	a6,-160(sp)

0000000080009310 <i_9083>:
    80009310:	00000013          	nop

0000000080009314 <i_9084>:
    80009314:	ff412503          	lw	a0,-12(sp)

0000000080009318 <i_9085>:
    80009318:	fea10b23          	sb	a0,-10(sp)

000000008000931c <i_9086>:
    8000931c:	00100513          	li	a0,1

0000000080009320 <i_9087>:
    80009320:	00a8153b          	sllw	a0,a6,a0

0000000080009324 <i_9088>:
    80009324:	00abebb3          	or	s7,s7,a0

0000000080009328 <i_9089>:
    80009328:	7ed00d13          	li	s10,2029

000000008000932c <i_9090>:
    8000932c:	7f600693          	li	a3,2038

0000000080009330 <i_9091>:
    80009330:	f2a13c23          	sd	a0,-200(sp)

0000000080009334 <i_9092>:
    80009334:	ed813e83          	ld	t4,-296(sp)

0000000080009338 <i_9093>:
    80009338:	7e700a93          	li	s5,2023

000000008000933c <i_9094>:
    8000933c:	7f700313          	li	t1,2039

0000000080009340 <i_9095>:
    80009340:	e4714603          	lbu	a2,-441(sp)

0000000080009344 <i_9096>:
    80009344:	03720233          	mul	tp,tp,s7

0000000080009348 <i_9097>:
    80009348:	cd52c617          	auipc	a2,0xcd52c

000000008000934c <i_9098>:
    8000934c:	0020909b          	slliw	ra,ra,0x2

0000000080009350 <i_9099>:
    80009350:	001a8a93          	addi	s5,s5,1
    80009354:	fe6a96e3          	bne	s5,t1,80009340 <i_9095>

0000000080009358 <i_9100>:
    80009358:	f5c11383          	lh	t2,-164(sp)

000000008000935c <i_9101>:
    8000935c:	18013503          	ld	a0,384(sp)

0000000080009360 <i_9102>:
    80009360:	001d0d13          	addi	s10,s10,1 # 5ffd99a5 <main-0x2002665b>
    80009364:	fda6f6e3          	bleu	s10,a3,80009330 <i_9091>

0000000080009368 <i_9103>:
    80009368:	ef713823          	sd	s7,-272(sp)

000000008000936c <i_9104>:
    8000936c:	035bdab3          	divu	s5,s7,s5

0000000080009370 <i_9105>:
    80009370:	01038eb3          	add	t4,t2,a6

0000000080009374 <i_9106>:
    80009374:	15016303          	lwu	t1,336(sp)

0000000080009378 <i_9107>:
    80009378:	03d08063          	beq	ra,t4,80009398 <i_9115>

000000008000937c <i_9108>:
    8000937c:	e2111d23          	sh	ra,-454(sp)

0000000080009380 <i_9109>:
    80009380:	01d55e63          	ble	t4,a0,8000939c <i_9116>

0000000080009384 <i_9110>:
    80009384:	8e050a93          	addi	s5,a0,-1824

0000000080009388 <i_9111>:
    80009388:	0d510b83          	lb	s7,213(sp)

000000008000938c <i_9112>:
    8000938c:	00a0ee63          	bltu	ra,a0,800093a8 <i_9119>

0000000080009390 <i_9113>:
    80009390:	eb5109a3          	sb	s5,-333(sp)

0000000080009394 <i_9114>:
    80009394:	40395b1b          	sraiw	s6,s2,0x3

0000000080009398 <i_9115>:
    80009398:	ef013083          	ld	ra,-272(sp)

000000008000939c <i_9116>:
    8000939c:	01713023          	sd	s7,0(sp)

00000000800093a0 <i_9117>:
    800093a0:	03e08f3b          	mulw	t5,ra,t5

00000000800093a4 <i_9118>:
    800093a4:	00000013          	nop

00000000800093a8 <i_9119>:
    800093a8:	1e611f03          	lh	t5,486(sp)

00000000800093ac <i_9120>:
    800093ac:	fb0106a3          	sb	a6,-83(sp)

00000000800093b0 <i_9121>:
    800093b0:	80400813          	li	a6,-2044

00000000800093b4 <i_9122>:
    800093b4:	81700093          	li	ra,-2025

00000000800093b8 <i_9123>:
    800093b8:	e9c12383          	lw	t2,-356(sp)

00000000800093bc <i_9124>:
    800093bc:	03679eb3          	mulh	t4,a5,s6

00000000800093c0 <i_9125>:
    800093c0:	03df4eb3          	div	t4,t5,t4

00000000800093c4 <i_9126>:
    800093c4:	75f00793          	li	a5,1887

00000000800093c8 <i_9127>:
    800093c8:	76600393          	li	t2,1894

00000000800093cc <i_9128>:
    800093cc:	00279c13          	slli	s8,a5,0x2

00000000800093d0 <i_9129>:
    800093d0:	00178793          	addi	a5,a5,1 # fffffffffcb19001 <_end+0xffffffff7cb08bed>
    800093d4:	fef3dce3          	ble	a5,t2,800093cc <i_9128>

00000000800093d8 <i_9130>:
    800093d8:	04a11e83          	lh	t4,74(sp)

00000000800093dc <i_9131>:
    800093dc:	00465e9b          	srliw	t4,a2,0x4

00000000800093e0 <i_9132>:
    800093e0:	15c16e83          	lwu	t4,348(sp)

00000000800093e4 <i_9133>:
    800093e4:	00180813          	addi	a6,a6,1 # ed8181ed <_end+0x6d807dd9>
    800093e8:	fd00f8e3          	bleu	a6,ra,800093b8 <i_9123>

00000000800093ec <i_9134>:
    800093ec:	03de9eb3          	mulh	t4,t4,t4

00000000800093f0 <i_9135>:
    800093f0:	094e8e93          	addi	t4,t4,148

00000000800093f4 <i_9136>:
    800093f4:	001e9b9b          	slliw	s7,t4,0x1

00000000800093f8 <i_9137>:
    800093f8:	0c812283          	lw	t0,200(sp)

00000000800093fc <i_9138>:
    800093fc:	0372ceb3          	div	t4,t0,s7

0000000080009400 <i_9139>:
    80009400:	0172ee63          	bltu	t0,s7,8000941c <i_9146>

0000000080009404 <i_9140>:
    80009404:	025efbb3          	remu	s7,t4,t0

0000000080009408 <i_9141>:
    80009408:	0f416b83          	lwu	s7,244(sp)

000000008000940c <i_9142>:
    8000940c:	0bc11283          	lh	t0,188(sp)

0000000080009410 <i_9143>:
    80009410:	002ede13          	srli	t3,t4,0x2

0000000080009414 <i_9144>:
    80009414:	03fbebb3          	rem	s7,s7,t6

0000000080009418 <i_9145>:
    80009418:	015bfa63          	bleu	s5,s7,8000942c <i_9150>

000000008000941c <i_9146>:
    8000941c:	e9713c23          	sd	s7,-360(sp)

0000000080009420 <i_9147>:
    80009420:	037a4e33          	div	t3,s4,s7

0000000080009424 <i_9148>:
    80009424:	e7710823          	sb	s7,-400(sp)

0000000080009428 <i_9149>:
    80009428:	017e6663          	bltu	t3,s7,80009434 <i_9152>

000000008000942c <i_9150>:
    8000942c:	03789263          	bne	a7,s7,80009450 <i_9159>

0000000080009430 <i_9151>:
    80009430:	f2a11d83          	lh	s11,-214(sp)

0000000080009434 <i_9152>:
    80009434:	00000013          	nop

0000000080009438 <i_9153>:
    80009438:	00312023          	sw	gp,0(sp)

000000008000943c <i_9154>:
    8000943c:	00000013          	nop

0000000080009440 <i_9155>:
    80009440:	11812283          	lw	t0,280(sp)

0000000080009444 <i_9156>:
    80009444:	02b2fdbb          	remuw	s11,t0,a1

0000000080009448 <i_9157>:
    80009448:	00000013          	nop

000000008000944c <i_9158>:
    8000944c:	04511623          	sh	t0,76(sp)

0000000080009450 <i_9159>:
    80009450:	05b12a23          	sw	s11,84(sp)

0000000080009454 <i_9160>:
    80009454:	19b10523          	sb	s11,394(sp)

0000000080009458 <i_9161>:
    80009458:	76500e13          	li	t3,1893

000000008000945c <i_9162>:
    8000945c:	77800b93          	li	s7,1912

0000000080009460 <i_9163>:
    80009460:	10513823          	sd	t0,272(sp)

0000000080009464 <i_9164>:
    80009464:	8b2dc493          	xori	s1,s11,-1870

0000000080009468 <i_9165>:
    80009468:	8c800593          	li	a1,-1848

000000008000946c <i_9166>:
    8000946c:	8cf00193          	li	gp,-1841

0000000080009470 <i_9167>:
    80009470:	14615d83          	lhu	s11,326(sp)

0000000080009474 <i_9168>:
    80009474:	00158593          	addi	a1,a1,1
    80009478:	fe35cce3          	blt	a1,gp,80009470 <i_9167>

000000008000947c <i_9169>:
    8000947c:	1e010d83          	lb	s11,480(sp)

0000000080009480 <i_9170>:
    80009480:	001e0e13          	addi	t3,t3,1
    80009484:	fdcbdee3          	ble	t3,s7,80009460 <i_9163>

0000000080009488 <i_9171>:
    80009488:	0c912023          	sw	s1,192(sp)

000000008000948c <i_9172>:
    8000948c:	03bdd633          	divu	a2,s11,s11

0000000080009490 <i_9173>:
    80009490:	1b416d83          	lwu	s11,436(sp)

0000000080009494 <i_9174>:
    80009494:	12016983          	lwu	s3,288(sp)

0000000080009498 <i_9175>:
    80009498:	cae63613          	sltiu	a2,a2,-850

000000008000949c <i_9176>:
    8000949c:	0022599b          	srliw	s3,tp,0x2

00000000800094a0 <i_9177>:
    800094a0:	ea013983          	ld	s3,-352(sp)

00000000800094a4 <i_9178>:
    800094a4:	0139d863          	ble	s3,s3,800094b4 <i_9182>

00000000800094a8 <i_9179>:
    800094a8:	f1714283          	lbu	t0,-233(sp)

00000000800094ac <i_9180>:
    800094ac:	1a412983          	lw	s3,420(sp)

00000000800094b0 <i_9181>:
    800094b0:	1c813983          	ld	s3,456(sp)

00000000800094b4 <i_9182>:
    800094b4:	0059f863          	bleu	t0,s3,800094c4 <i_9186>

00000000800094b8 <i_9183>:
    800094b8:	00e00313          	li	t1,14

00000000800094bc <i_9184>:
    800094bc:	006292bb          	sllw	t0,t0,t1

00000000800094c0 <i_9185>:
    800094c0:	ed312223          	sw	s3,-316(sp)

00000000800094c4 <i_9186>:
    800094c4:	0d013203          	ld	tp,208(sp)

00000000800094c8 <i_9187>:
    800094c8:	f6815983          	lhu	s3,-152(sp)

00000000800094cc <i_9188>:
    800094cc:	08813983          	ld	s3,136(sp)

00000000800094d0 <i_9189>:
    800094d0:	1e215083          	lhu	ra,482(sp)

00000000800094d4 <i_9190>:
    800094d4:	e5a11203          	lh	tp,-422(sp)

00000000800094d8 <i_9191>:
    800094d8:	00499313          	slli	t1,s3,0x4

00000000800094dc <i_9192>:
    800094dc:	06910e23          	sb	s1,124(sp)

00000000800094e0 <i_9193>:
    800094e0:	06e10503          	lb	a0,110(sp)

00000000800094e4 <i_9194>:
    800094e4:	12813b03          	ld	s6,296(sp)

00000000800094e8 <i_9195>:
    800094e8:	01b88263          	beq	a7,s11,800094ec <i_9196>

00000000800094ec <i_9196>:
    800094ec:	13c16e03          	lwu	t3,316(sp)

00000000800094f0 <i_9197>:
    800094f0:	0023979b          	slliw	a5,t2,0x2

00000000800094f4 <i_9198>:
    800094f4:	03c563bb          	remw	t2,a0,t3

00000000800094f8 <i_9199>:
    800094f8:	02f13423          	sd	a5,40(sp)

00000000800094fc <i_9200>:
    800094fc:	007fe863          	bltu	t6,t2,8000950c <i_9204>

0000000080009500 <i_9201>:
    80009500:	02769463          	bne	a3,t2,80009528 <i_9211>

0000000080009504 <i_9202>:
    80009504:	03d7eebb          	remw	t4,a5,t4

0000000080009508 <i_9203>:
    80009508:	d5438793          	addi	a5,t2,-684

000000008000950c <i_9204>:
    8000950c:	e4710123          	sb	t2,-446(sp)

0000000080009510 <i_9205>:
    80009510:	02f85833          	divu	a6,a6,a5

0000000080009514 <i_9206>:
    80009514:	0b013383          	ld	t2,176(sp)

0000000080009518 <i_9207>:
    80009518:	15013e83          	ld	t4,336(sp)

000000008000951c <i_9208>:
    8000951c:	01d86a63          	bltu	a6,t4,80009530 <i_9213>

0000000080009520 <i_9209>:
    80009520:	0ca11e83          	lh	t4,202(sp)

0000000080009524 <i_9210>:
    80009524:	0f414783          	lbu	a5,244(sp)

0000000080009528 <i_9211>:
    80009528:	1bc16c03          	lwu	s8,444(sp)

000000008000952c <i_9212>:
    8000952c:	027c77b3          	remu	a5,s8,t2

0000000080009530 <i_9213>:
    80009530:	038eeebb          	remw	t4,t4,s8

0000000080009534 <i_9214>:
    80009534:	15411e23          	sh	s4,348(sp)

0000000080009538 <i_9215>:
    80009538:	01611b03          	lh	s6,22(sp)

000000008000953c <i_9216>:
    8000953c:	89b00a13          	li	s4,-1893

0000000080009540 <i_9217>:
    80009540:	8a300213          	li	tp,-1885

0000000080009544 <i_9218>:
    80009544:	1c914c03          	lbu	s8,457(sp)

0000000080009548 <i_9219>:
    80009548:	f4c11c03          	lh	s8,-180(sp)

000000008000954c <i_9220>:
    8000954c:	e5c15c03          	lhu	s8,-420(sp)

0000000080009550 <i_9221>:
    80009550:	e4a13823          	sd	a0,-432(sp)

0000000080009554 <i_9222>:
    80009554:	021c40bb          	divw	ra,s8,ra

0000000080009558 <i_9223>:
    80009558:	fa416c03          	lwu	s8,-92(sp)

000000008000955c <i_9224>:
    8000955c:	00000013          	nop

0000000080009560 <i_9225>:
    80009560:	038c5b3b          	divuw	s6,s8,s8

0000000080009564 <i_9226>:
    80009564:	f8112e23          	sw	ra,-100(sp)

0000000080009568 <i_9227>:
    80009568:	eb416983          	lwu	s3,-332(sp)

000000008000956c <i_9228>:
    8000956c:	0189cc63          	blt	s3,s8,80009584 <i_9233>

0000000080009570 <i_9229>:
    80009570:	001a0a13          	addi	s4,s4,1
    80009574:	fc4a68e3          	bltu	s4,tp,80009544 <i_9218>

0000000080009578 <i_9230>:
    80009578:	0389fc3b          	remuw	s8,s3,s8

000000008000957c <i_9231>:
    8000957c:	00000013          	nop

0000000080009580 <i_9232>:
    80009580:	00000013          	nop

0000000080009584 <i_9233>:
    80009584:	00000013          	nop

0000000080009588 <i_9234>:
    80009588:	f6a15c03          	lhu	s8,-150(sp)

000000008000958c <i_9235>:
    8000958c:	7d200213          	li	tp,2002

0000000080009590 <i_9236>:
    80009590:	7d400993          	li	s3,2004

0000000080009594 <i_9237>:
    80009594:	f9812823          	sw	s8,-112(sp)

0000000080009598 <i_9238>:
    80009598:	033c0c33          	mul	s8,s8,s3

000000008000959c <i_9239>:
    8000959c:	02c00793          	li	a5,44

00000000800095a0 <i_9240>:
    800095a0:	00f7dc33          	srl	s8,a5,a5

00000000800095a4 <i_9241>:
    800095a4:	fb013483          	ld	s1,-80(sp)

00000000800095a8 <i_9242>:
    800095a8:	e9215783          	lhu	a5,-366(sp)

00000000800095ac <i_9243>:
    800095ac:	e7415783          	lhu	a5,-396(sp)

00000000800095b0 <i_9244>:
    800095b0:	00120213          	addi	tp,tp,1 # 1 <main-0x7fffffff>
    800095b4:	fe49d0e3          	ble	tp,s3,80009594 <i_9237>

00000000800095b8 <i_9245>:
    800095b8:	06f11923          	sh	a5,114(sp)

00000000800095bc <i_9246>:
    800095bc:	11412623          	sw	s4,268(sp)

00000000800095c0 <i_9247>:
    800095c0:	0f816503          	lwu	a0,248(sp)

00000000800095c4 <i_9248>:
    800095c4:	16416503          	lwu	a0,356(sp)

00000000800095c8 <i_9249>:
    800095c8:	4016d513          	srai	a0,a3,0x1

00000000800095cc <i_9250>:
    800095cc:	7b700693          	li	a3,1975

00000000800095d0 <i_9251>:
    800095d0:	7c300a13          	li	s4,1987

00000000800095d4 <i_9252>:
    800095d4:	40d5043b          	subw	s0,a0,a3

00000000800095d8 <i_9253>:
    800095d8:	e1c16f03          	lwu	t5,-484(sp)

00000000800095dc <i_9254>:
    800095dc:	012a6263          	bltu	s4,s2,800095e0 <i_9255>

00000000800095e0 <i_9255>:
    800095e0:	0086dc63          	ble	s0,a3,800095f8 <i_9261>

00000000800095e4 <i_9256>:
    800095e4:	1774e417          	auipc	s0,0x1774e

00000000800095e8 <i_9257>:
    800095e8:	ef647413          	andi	s0,s0,-266

00000000800095ec <i_9258>:
    800095ec:	f9015403          	lhu	s0,-112(sp)

00000000800095f0 <i_9259>:
    800095f0:	00b46463          	bltu	s0,a1,800095f8 <i_9261>

00000000800095f4 <i_9260>:
    800095f4:	1ab10723          	sb	a1,430(sp)

00000000800095f8 <i_9261>:
    800095f8:	00600593          	li	a1,6

00000000800095fc <i_9262>:
    800095fc:	00b455b3          	srl	a1,s0,a1

0000000080009600 <i_9263>:
    80009600:	f8811423          	sh	s0,-120(sp)

0000000080009604 <i_9264>:
    80009604:	ff013403          	ld	s0,-16(sp)

0000000080009608 <i_9265>:
    80009608:	22b4e197          	auipc	gp,0x22b4e

000000008000960c <i_9266>:
    8000960c:	00168693          	addi	a3,a3,1
    80009610:	fcda12e3          	bne	s4,a3,800095d4 <i_9252>

0000000080009614 <i_9267>:
    80009614:	f3415c83          	lhu	s9,-204(sp)

0000000080009618 <i_9268>:
    80009618:	036c843b          	mulw	s0,s9,s6

000000008000961c <i_9269>:
    8000961c:	03d461b3          	rem	gp,s0,t4

0000000080009620 <i_9270>:
    80009620:	07e13823          	sd	t5,112(sp)

0000000080009624 <i_9271>:
    80009624:	e4c16403          	lwu	s0,-436(sp)

0000000080009628 <i_9272>:
    80009628:	01416483          	lwu	s1,20(sp)

000000008000962c <i_9273>:
    8000962c:	fb813183          	ld	gp,-72(sp)

0000000080009630 <i_9274>:
    80009630:	02812a23          	sw	s0,52(sp)

0000000080009634 <i_9275>:
    80009634:	18810b23          	sb	s0,406(sp)

0000000080009638 <i_9276>:
    80009638:	fe913c23          	sd	s1,-8(sp)

000000008000963c <i_9277>:
    8000963c:	f5c16403          	lwu	s0,-164(sp)

0000000080009640 <i_9278>:
    80009640:	01369e63          	bne	a3,s3,8000965c <i_9285>

0000000080009644 <i_9279>:
    80009644:	86f18493          	addi	s1,gp,-1937 # a2b56e77 <_end+0x22b46a63>

0000000080009648 <i_9280>:
    80009648:	7ef721b7          	lui	gp,0x7ef72

000000008000964c <i_9281>:
    8000964c:	0094c663          	blt	s1,s1,80009658 <i_9284>

0000000080009650 <i_9282>:
    80009650:	0034fc63          	bleu	gp,s1,80009668 <i_9288>

0000000080009654 <i_9283>:
    80009654:	00d1c4b3          	xor	s1,gp,a3

0000000080009658 <i_9284>:
    80009658:	0284733b          	remuw	t1,s0,s0

000000008000965c <i_9285>:
    8000965c:	0261d1b3          	divu	gp,gp,t1

0000000080009660 <i_9286>:
    80009660:	efc11183          	lh	gp,-260(sp)

0000000080009664 <i_9287>:
    80009664:	4022521b          	sraiw	tp,tp,0x2

0000000080009668 <i_9288>:
    80009668:	02418463          	beq	gp,tp,80009690 <i_9298>

000000008000966c <i_9289>:
    8000966c:	00231e63          	bne	t1,sp,80009688 <i_9296>

0000000080009670 <i_9290>:
    80009670:	18611e23          	sh	t1,412(sp)

0000000080009674 <i_9291>:
    80009674:	fc410483          	lb	s1,-60(sp)

0000000080009678 <i_9292>:
    80009678:	17c16083          	lwu	ra,380(sp)

000000008000967c <i_9293>:
    8000967c:	f6013603          	ld	a2,-160(sp)

0000000080009680 <i_9294>:
    80009680:	03138063          	beq	t2,a7,800096a0 <i_9302>

0000000080009684 <i_9295>:
    80009684:	14613423          	sd	t1,328(sp)

0000000080009688 <i_9296>:
    80009688:	00b20463          	beq	tp,a1,80009690 <i_9298>

000000008000968c <i_9297>:
    8000968c:	fa610d23          	sb	t1,-70(sp)

0000000080009690 <i_9298>:
    80009690:	1ac12183          	lw	gp,428(sp)

0000000080009694 <i_9299>:
    80009694:	88c1b693          	sltiu	a3,gp,-1908

0000000080009698 <i_9300>:
    80009698:	f0311723          	sh	gp,-242(sp)

000000008000969c <i_9301>:
    8000969c:	1c111523          	sh	ra,458(sp)

00000000800096a0 <i_9302>:
    800096a0:	021481bb          	mulw	gp,s1,ra

00000000800096a4 <i_9303>:
    800096a4:	0060d863          	ble	t1,ra,800096b4 <i_9307>

00000000800096a8 <i_9304>:
    800096a8:	023264b3          	rem	s1,tp,gp

00000000800096ac <i_9305>:
    800096ac:	fe013183          	ld	gp,-32(sp)

00000000800096b0 <i_9306>:
    800096b0:	fa016303          	lwu	t1,-96(sp)

00000000800096b4 <i_9307>:
    800096b4:	03a37d33          	remu	s10,t1,s10

00000000800096b8 <i_9308>:
    800096b8:	029d0063          	beq	s10,s1,800096d8 <i_9316>

00000000800096bc <i_9309>:
    800096bc:	00119193          	slli	gp,gp,0x1

00000000800096c0 <i_9310>:
    800096c0:	01d00b13          	li	s6,29

00000000800096c4 <i_9311>:
    800096c4:	016491bb          	sllw	gp,s1,s6

00000000800096c8 <i_9312>:
    800096c8:	0f412a83          	lw	s5,244(sp)

00000000800096cc <i_9313>:
    800096cc:	03813e83          	ld	t4,56(sp)

00000000800096d0 <i_9314>:
    800096d0:	369b7413          	andi	s0,s6,873

00000000800096d4 <i_9315>:
    800096d4:	00619a63          	bne	gp,t1,800096e8 <i_9320>

00000000800096d8 <i_9316>:
    800096d8:	00bb1a63          	bne	s6,a1,800096ec <i_9321>

00000000800096dc <i_9317>:
    800096dc:	fbf14183          	lbu	gp,-65(sp)

00000000800096e0 <i_9318>:
    800096e0:	036d32b3          	mulhu	t0,s10,s6

00000000800096e4 <i_9319>:
    800096e4:	e8416183          	lwu	gp,-380(sp)

00000000800096e8 <i_9320>:
    800096e8:	0261f463          	bleu	t1,gp,80009710 <i_9330>

00000000800096ec <i_9321>:
    800096ec:	4024d51b          	sraiw	a0,s1,0x2

00000000800096f0 <i_9322>:
    800096f0:	f4c16c03          	lwu	s8,-180(sp)

00000000800096f4 <i_9323>:
    800096f4:	01664a63          	blt	a2,s6,80009708 <i_9328>

00000000800096f8 <i_9324>:
    800096f8:	01ab7a63          	bleu	s10,s6,8000970c <i_9329>

00000000800096fc <i_9325>:
    800096fc:	0251e063          	bltu	gp,t0,8000971c <i_9333>

0000000080009700 <i_9326>:
    80009700:	03ac6db3          	rem	s11,s8,s10

0000000080009704 <i_9327>:
    80009704:	09910083          	lb	ra,153(sp)

0000000080009708 <i_9328>:
    80009708:	01f00d93          	li	s11,31

000000008000970c <i_9329>:
    8000970c:	41b8583b          	sraw	a6,a6,s11

0000000080009710 <i_9330>:
    80009710:	418087b3          	sub	a5,ra,s8

0000000080009714 <i_9331>:
    80009714:	00000013          	nop

0000000080009718 <i_9332>:
    80009718:	06111423          	sh	ra,104(sp)

000000008000971c <i_9333>:
    8000971c:	40ac84b3          	sub	s1,s9,a0

0000000080009720 <i_9334>:
    80009720:	e7615c83          	lhu	s9,-394(sp)

0000000080009724 <i_9335>:
    80009724:	84f00c13          	li	s8,-1969

0000000080009728 <i_9336>:
    80009728:	85600d13          	li	s10,-1962

000000008000972c <i_9337>:
    8000972c:	10813c83          	ld	s9,264(sp)

0000000080009730 <i_9338>:
    80009730:	2334a313          	slti	t1,s1,563

0000000080009734 <i_9339>:
    80009734:	001cda1b          	srliw	s4,s9,0x1

0000000080009738 <i_9340>:
    80009738:	e5016d83          	lwu	s11,-432(sp)

000000008000973c <i_9341>:
    8000973c:	002a539b          	srliw	t2,s4,0x2

0000000080009740 <i_9342>:
    80009740:	15b12223          	sw	s11,324(sp)

0000000080009744 <i_9343>:
    80009744:	0062c663          	blt	t0,t1,80009750 <i_9346>

0000000080009748 <i_9344>:
    80009748:	09714f03          	lbu	t5,151(sp)

000000008000974c <i_9345>:
    8000974c:	10912823          	sw	s1,272(sp)

0000000080009750 <i_9346>:
    80009750:	00300393          	li	t2,3

0000000080009754 <i_9347>:
    80009754:	007392b3          	sll	t0,t2,t2

0000000080009758 <i_9348>:
    80009758:	001c0c13          	addi	s8,s8,1 # ffffffff9c378001 <_end+0xffffffff1c367bed>
    8000975c:	fdac68e3          	bltu	s8,s10,8000972c <i_9337>

0000000080009760 <i_9349>:
    80009760:	03e3f063          	bleu	t5,t2,80009780 <i_9357>

0000000080009764 <i_9350>:
    80009764:	007f2c33          	slt	s8,t5,t2

0000000080009768 <i_9351>:
    80009768:	03e6f6bb          	remuw	a3,a3,t5

000000008000976c <i_9352>:
    8000976c:	02800313          	li	t1,40

0000000080009770 <i_9353>:
    80009770:	006713b3          	sll	t2,a4,t1

0000000080009774 <i_9354>:
    80009774:	e2813c83          	ld	s9,-472(sp)

0000000080009778 <i_9355>:
    80009778:	006cea63          	bltu	s9,t1,8000978c <i_9360>

000000008000977c <i_9356>:
    8000977c:	07010b03          	lb	s6,112(sp)

0000000080009780 <i_9357>:
    80009780:	03b00c93          	li	s9,59

0000000080009784 <i_9358>:
    80009784:	419cdcb3          	sra	s9,s9,s9

0000000080009788 <i_9359>:
    80009788:	ef612c23          	sw	s6,-264(sp)

000000008000978c <i_9360>:
    8000978c:	017c8c63          	beq	s9,s7,800097a4 <i_9366>

0000000080009790 <i_9361>:
    80009790:	eb913423          	sd	s9,-344(sp)

0000000080009794 <i_9362>:
    80009794:	039b7263          	bleu	s9,s6,800097b8 <i_9371>

0000000080009798 <i_9363>:
    80009798:	ed610323          	sb	s6,-314(sp)

000000008000979c <i_9364>:
    8000979c:	fb913023          	sd	s9,-96(sp)

00000000800097a0 <i_9365>:
    800097a0:	004eda13          	srli	s4,t4,0x4

00000000800097a4 <i_9366>:
    800097a4:	039a7cb3          	remu	s9,s4,s9

00000000800097a8 <i_9367>:
    800097a8:	11013283          	ld	t0,272(sp)

00000000800097ac <i_9368>:
    800097ac:	014cd663          	ble	s4,s9,800097b8 <i_9371>

00000000800097b0 <i_9369>:
    800097b0:	02314a03          	lbu	s4,35(sp)

00000000800097b4 <i_9370>:
    800097b4:	0082dc63          	ble	s0,t0,800097cc <i_9376>

00000000800097b8 <i_9371>:
    800097b8:	02013603          	ld	a2,32(sp)

00000000800097bc <i_9372>:
    800097bc:	0e114a03          	lbu	s4,225(sp)

00000000800097c0 <i_9373>:
    800097c0:	014a6e63          	bltu	s4,s4,800097dc <i_9380>

00000000800097c4 <i_9374>:
    800097c4:	00ca4e63          	blt	s4,a2,800097e0 <i_9381>

00000000800097c8 <i_9375>:
    800097c8:	00361493          	slli	s1,a2,0x3

00000000800097cc <i_9376>:
    800097cc:	0144e633          	or	a2,s1,s4

00000000800097d0 <i_9377>:
    800097d0:	0d410d23          	sb	s4,218(sp)

00000000800097d4 <i_9378>:
    800097d4:	409a04b3          	sub	s1,s4,s1

00000000800097d8 <i_9379>:
    800097d8:	02c64463          	blt	a2,a2,80009800 <i_9389>

00000000800097dc <i_9380>:
    800097dc:	0a314f03          	lbu	t5,163(sp)

00000000800097e0 <i_9381>:
    800097e0:	009f6a33          	or	s4,t5,s1

00000000800097e4 <i_9382>:
    800097e4:	036efb33          	remu	s6,t4,s6

00000000800097e8 <i_9383>:
    800097e8:	0a011a83          	lh	s5,160(sp)

00000000800097ec <i_9384>:
    800097ec:	7c764993          	xori	s3,a2,1991

00000000800097f0 <i_9385>:
    800097f0:	00986663          	bltu	a6,s1,800097fc <i_9388>

00000000800097f4 <i_9386>:
    800097f4:	4029d493          	srai	s1,s3,0x2

00000000800097f8 <i_9387>:
    800097f8:	f0a14483          	lbu	s1,-246(sp)

00000000800097fc <i_9388>:
    800097fc:	03599263          	bne	s3,s5,80009820 <i_9397>

0000000080009800 <i_9389>:
    80009800:	0354fd33          	remu	s10,s1,s5

0000000080009804 <i_9390>:
    80009804:	06210ba3          	sb	sp,119(sp)

0000000080009808 <i_9391>:
    80009808:	00998d33          	add	s10,s3,s1

000000008000980c <i_9392>:
    8000980c:	03ad083b          	mulw	a6,s10,s10

0000000080009810 <i_9393>:
    80009810:	03a499b3          	mulh	s3,s1,s10

0000000080009814 <i_9394>:
    80009814:	01a9e9b3          	or	s3,s3,s10

0000000080009818 <i_9395>:
    80009818:	1b412483          	lw	s1,436(sp)

000000008000981c <i_9396>:
    8000981c:	19b108a3          	sb	s11,401(sp)

0000000080009820 <i_9397>:
    80009820:	03c16203          	lwu	tp,60(sp)

0000000080009824 <i_9398>:
    80009824:	ec913c23          	sd	s1,-296(sp)

0000000080009828 <i_9399>:
    80009828:	1e214403          	lbu	s0,482(sp)

000000008000982c <i_9400>:
    8000982c:	f5015d03          	lhu	s10,-176(sp)

0000000080009830 <i_9401>:
    80009830:	01a27263          	bleu	s10,tp,80009834 <i_9402>

0000000080009834 <i_9402>:
    80009834:	18813c23          	sd	s0,408(sp)

0000000080009838 <i_9403>:
    80009838:	00844c63          	blt	s0,s0,80009850 <i_9409>

000000008000983c <i_9404>:
    8000983c:	e1e10d03          	lb	s10,-482(sp)

0000000080009840 <i_9405>:
    80009840:	404dd413          	srai	s0,s11,0x4

0000000080009844 <i_9406>:
    80009844:	fd242413          	slti	s0,s0,-46

0000000080009848 <i_9407>:
    80009848:	02840433          	mul	s0,s0,s0

000000008000984c <i_9408>:
    8000984c:	02847263          	bleu	s0,s0,80009870 <i_9417>

0000000080009850 <i_9409>:
    80009850:	008a7e63          	bleu	s0,s4,8000986c <i_9416>

0000000080009854 <i_9410>:
    80009854:	11d14183          	lbu	gp,285(sp)

0000000080009858 <i_9411>:
    80009858:	0219f9b3          	remu	s3,s3,ra

000000008000985c <i_9412>:
    8000985c:	02416183          	lwu	gp,36(sp)

0000000080009860 <i_9413>:
    80009860:	56142c93          	slti	s9,s0,1377

0000000080009864 <i_9414>:
    80009864:	f8c11303          	lh	t1,-116(sp)

0000000080009868 <i_9415>:
    80009868:	12312223          	sw	gp,292(sp)

000000008000986c <i_9416>:
    8000986c:	039c8433          	mul	s0,s9,s9

0000000080009870 <i_9417>:
    80009870:	046101a3          	sb	t1,67(sp)

0000000080009874 <i_9418>:
    80009874:	f9816c03          	lwu	s8,-104(sp)

0000000080009878 <i_9419>:
    80009878:	fc812c23          	sw	s0,-40(sp)

000000008000987c <i_9420>:
    8000987c:	15810b23          	sb	s8,342(sp)

0000000080009880 <i_9421>:
    80009880:	08547093          	andi	ra,s0,133

0000000080009884 <i_9422>:
    80009884:	40345813          	srai	a6,s0,0x3

0000000080009888 <i_9423>:
    80009888:	e6412283          	lw	t0,-412(sp)

000000008000988c <i_9424>:
    8000988c:	0038129b          	slliw	t0,a6,0x3

0000000080009890 <i_9425>:
    80009890:	7a400c13          	li	s8,1956

0000000080009894 <i_9426>:
    80009894:	7ad00413          	li	s0,1965

0000000080009898 <i_9427>:
    80009898:	03900a93          	li	s5,57

000000008000989c <i_9428>:
    8000989c:	4150db33          	sra	s6,ra,s5

00000000800098a0 <i_9429>:
    800098a0:	fd010b23          	sb	a6,-42(sp)

00000000800098a4 <i_9430>:
    800098a4:	f2511523          	sh	t0,-214(sp)

00000000800098a8 <i_9431>:
    800098a8:	0aa15283          	lhu	t0,170(sp)

00000000800098ac <i_9432>:
    800098ac:	001c0c13          	addi	s8,s8,1
    800098b0:	ff8454e3          	ble	s8,s0,80009898 <i_9427>

00000000800098b4 <i_9433>:
    800098b4:	008f4e63          	blt	t5,s0,800098d0 <i_9440>

00000000800098b8 <i_9434>:
    800098b8:	ea416403          	lwu	s0,-348(sp)

00000000800098bc <i_9435>:
    800098bc:	1a813423          	sd	s0,424(sp)

00000000800098c0 <i_9436>:
    800098c0:	f9512423          	sw	s5,-120(sp)

00000000800098c4 <i_9437>:
    800098c4:	402e5613          	srai	a2,t3,0x2

00000000800098c8 <i_9438>:
    800098c8:	eac11423          	sh	a2,-344(sp)

00000000800098cc <i_9439>:
    800098cc:	0ac13c23          	sd	a2,184(sp)

00000000800098d0 <i_9440>:
    800098d0:	0252c263          	blt	t0,t0,800098f4 <i_9449>

00000000800098d4 <i_9441>:
    800098d4:	00c64633          	xor	a2,a2,a2

00000000800098d8 <i_9442>:
    800098d8:	f1412b03          	lw	s6,-236(sp)

00000000800098dc <i_9443>:
    800098dc:	11012023          	sw	a6,256(sp)

00000000800098e0 <i_9444>:
    800098e0:	036acabb          	divw	s5,s5,s6

00000000800098e4 <i_9445>:
    800098e4:	e72108a3          	sb	s2,-399(sp)

00000000800098e8 <i_9446>:
    800098e8:	00400a93          	li	s5,4

00000000800098ec <i_9447>:
    800098ec:	015a9b3b          	sllw	s6,s5,s5

00000000800098f0 <i_9448>:
    800098f0:	0fa10d83          	lb	s11,250(sp)

00000000800098f4 <i_9449>:
    800098f4:	00000013          	nop

00000000800098f8 <i_9450>:
    800098f8:	330abd13          	sltiu	s10,s5,816

00000000800098fc <i_9451>:
    800098fc:	84d00613          	li	a2,-1971

0000000080009900 <i_9452>:
    80009900:	85900813          	li	a6,-1959

0000000080009904 <i_9453>:
    80009904:	00160613          	addi	a2,a2,1 # 4d535349 <main-0x32acacb7>
    80009908:	ff064ee3          	blt	a2,a6,80009904 <i_9453>

000000008000990c <i_9454>:
    8000990c:	02427233          	remu	tp,tp,tp

0000000080009910 <i_9455>:
    80009910:	01b25663          	ble	s11,tp,8000991c <i_9458>

0000000080009914 <i_9456>:
    80009914:	e5b13023          	sd	s11,-448(sp)

0000000080009918 <i_9457>:
    80009918:	e9815583          	lhu	a1,-360(sp)

000000008000991c <i_9458>:
    8000991c:	03023d33          	mulhu	s10,tp,a6

0000000080009920 <i_9459>:
    80009920:	004d29b3          	slt	s3,s10,tp

0000000080009924 <i_9460>:
    80009924:	0a4105a3          	sb	tp,171(sp)

0000000080009928 <i_9461>:
    80009928:	ee015403          	lhu	s0,-288(sp)

000000008000992c <i_9462>:
    8000992c:	0249e23b          	remw	tp,s3,tp

0000000080009930 <i_9463>:
    80009930:	03d252b3          	divu	t0,tp,t4

0000000080009934 <i_9464>:
    80009934:	01328863          	beq	t0,s3,80009944 <i_9468>

0000000080009938 <i_9465>:
    80009938:	ec413423          	sd	tp,-312(sp)

000000008000993c <i_9466>:
    8000993c:	00225293          	srli	t0,tp,0x2

0000000080009940 <i_9467>:
    80009940:	23897293          	andi	t0,s2,568

0000000080009944 <i_9468>:
    80009944:	033ee9bb          	remw	s3,t4,s3

0000000080009948 <i_9469>:
    80009948:	fd614983          	lbu	s3,-42(sp)

000000008000994c <i_9470>:
    8000994c:	15014a83          	lbu	s5,336(sp)

0000000080009950 <i_9471>:
    80009950:	fd813403          	ld	s0,-40(sp)

0000000080009954 <i_9472>:
    80009954:	84900993          	li	s3,-1975

0000000080009958 <i_9473>:
    80009958:	85a00693          	li	a3,-1958

000000008000995c <i_9474>:
    8000995c:	fcd12023          	sw	a3,-64(sp)

0000000080009960 <i_9475>:
    80009960:	02b00e13          	li	t3,43

0000000080009964 <i_9476>:
    80009964:	01c9d433          	srl	s0,s3,t3

0000000080009968 <i_9477>:
    80009968:	e5c10723          	sb	t3,-434(sp)

000000008000996c <i_9478>:
    8000996c:	033b5abb          	divuw	s5,s6,s3

0000000080009970 <i_9479>:
    80009970:	00000013          	nop

0000000080009974 <i_9480>:
    80009974:	0339e463          	bltu	s3,s3,8000999c <i_9489>

0000000080009978 <i_9481>:
    80009978:	00198993          	addi	s3,s3,1
    8000997c:	ff3690e3          	bne	a3,s3,8000995c <i_9474>

0000000080009980 <i_9482>:
    80009980:	18812a83          	lw	s5,392(sp)

0000000080009984 <i_9483>:
    80009984:	0cd11c23          	sh	a3,216(sp)

0000000080009988 <i_9484>:
    80009988:	033f5463          	ble	s3,t5,800099b0 <i_9494>

000000008000998c <i_9485>:
    8000998c:	0186dc63          	ble	s8,a3,800099a4 <i_9491>

0000000080009990 <i_9486>:
    80009990:	19c15683          	lhu	a3,412(sp)

0000000080009994 <i_9487>:
    80009994:	f4710083          	lb	ra,-185(sp)

0000000080009998 <i_9488>:
    80009998:	03f6eab3          	rem	s5,a3,t6

000000008000999c <i_9489>:
    8000999c:	00daf263          	bleu	a3,s5,800099a0 <i_9490>

00000000800099a0 <i_9490>:
    800099a0:	e4c16a83          	lwu	s5,-436(sp)

00000000800099a4 <i_9491>:
    800099a4:	fc514683          	lbu	a3,-59(sp)

00000000800099a8 <i_9492>:
    800099a8:	f41104a3          	sb	ra,-183(sp)

00000000800099ac <i_9493>:
    800099ac:	e4c15683          	lhu	a3,-436(sp)

00000000800099b0 <i_9494>:
    800099b0:	0240d0bb          	divuw	ra,ra,tp

00000000800099b4 <i_9495>:
    800099b4:	11f10aa3          	sb	t6,277(sp)

00000000800099b8 <i_9496>:
    800099b8:	0146d863          	ble	s4,a3,800099c8 <i_9500>

00000000800099bc <i_9497>:
    800099bc:	02d6a4b3          	mulhsu	s1,a3,a3

00000000800099c0 <i_9498>:
    800099c0:	e9013383          	ld	t2,-368(sp)

00000000800099c4 <i_9499>:
    800099c4:	ffe11f03          	lh	t5,-2(sp)

00000000800099c8 <i_9500>:
    800099c8:	e3412f03          	lw	t5,-460(sp)

00000000800099cc <i_9501>:
    800099cc:	0c416603          	lwu	a2,196(sp)

00000000800099d0 <i_9502>:
    800099d0:	84200813          	li	a6,-1982

00000000800099d4 <i_9503>:
    800099d4:	84900493          	li	s1,-1975

00000000800099d8 <i_9504>:
    800099d8:	07a10c83          	lb	s9,122(sp)

00000000800099dc <i_9505>:
    800099dc:	0106d463          	ble	a6,a3,800099e4 <i_9507>

00000000800099e0 <i_9506>:
    800099e0:	00c183b3          	add	t2,gp,a2

00000000800099e4 <i_9507>:
    800099e4:	0270f197          	auipc	gp,0x270f

00000000800099e8 <i_9508>:
    800099e8:	0251f063          	bleu	t0,gp,80009a08 <i_9515>

00000000800099ec <i_9509>:
    800099ec:	00180813          	addi	a6,a6,1
    800099f0:	fe9844e3          	blt	a6,s1,800099d8 <i_9504>

00000000800099f4 <i_9510>:
    800099f4:	02c1c263          	blt	gp,a2,80009a18 <i_9519>

00000000800099f8 <i_9511>:
    800099f8:	e0311f23          	sh	gp,-482(sp)

00000000800099fc <i_9512>:
    800099fc:	1d811023          	sh	s8,448(sp)

0000000080009a00 <i_9513>:
    80009a00:	003b6b33          	or	s6,s6,gp

0000000080009a04 <i_9514>:
    80009a04:	028bc1b3          	div	gp,s7,s0

0000000080009a08 <i_9515>:
    80009a08:	0031fe63          	bleu	gp,gp,80009a24 <i_9522>

0000000080009a0c <i_9516>:
    80009a0c:	09013c83          	ld	s9,144(sp)

0000000080009a10 <i_9517>:
    80009a10:	19812803          	lw	a6,408(sp)

0000000080009a14 <i_9518>:
    80009a14:	11310683          	lb	a3,275(sp)

0000000080009a18 <i_9519>:
    80009a18:	1263adb7          	lui	s11,0x1263a

0000000080009a1c <i_9520>:
    80009a1c:	01ccf463          	bleu	t3,s9,80009a24 <i_9522>

0000000080009a20 <i_9521>:
    80009a20:	f8311123          	sh	gp,-126(sp)

0000000080009a24 <i_9522>:
    80009a24:	eb211d03          	lh	s10,-334(sp)

0000000080009a28 <i_9523>:
    80009a28:	00000013          	nop

0000000080009a2c <i_9524>:
    80009a2c:	89300613          	li	a2,-1901

0000000080009a30 <i_9525>:
    80009a30:	89d00813          	li	a6,-1891

0000000080009a34 <i_9526>:
    80009a34:	152105a3          	sb	s2,331(sp)

0000000080009a38 <i_9527>:
    80009a38:	3ecd3197          	auipc	gp,0x3ecd3

0000000080009a3c <i_9528>:
    80009a3c:	003dc263          	blt	s11,gp,80009a40 <i_9529>

0000000080009a40 <i_9529>:
    80009a40:	01a13023          	sd	s10,0(sp)

0000000080009a44 <i_9530>:
    80009a44:	023d71bb          	remuw	gp,s10,gp

0000000080009a48 <i_9531>:
    80009a48:	ec015a83          	lhu	s5,-320(sp)

0000000080009a4c <i_9532>:
    80009a4c:	00160613          	addi	a2,a2,1
    80009a50:	fec852e3          	ble	a2,a6,80009a34 <i_9526>

0000000080009a54 <i_9533>:
    80009a54:	15a10aa3          	sb	s10,341(sp)

0000000080009a58 <i_9534>:
    80009a58:	023add3b          	divuw	s10,s5,gp

0000000080009a5c <i_9535>:
    80009a5c:	01a54d33          	xor	s10,a0,s10

0000000080009a60 <i_9536>:
    80009a60:	01ad33b3          	sltu	t2,s10,s10

0000000080009a64 <i_9537>:
    80009a64:	f7914403          	lbu	s0,-135(sp)

0000000080009a68 <i_9538>:
    80009a68:	eb416203          	lwu	tp,-332(sp)

0000000080009a6c <i_9539>:
    80009a6c:	007f8a63          	beq	t6,t2,80009a80 <i_9544>

0000000080009a70 <i_9540>:
    80009a70:	37342393          	slti	t2,s0,883

0000000080009a74 <i_9541>:
    80009a74:	00b26c63          	bltu	tp,a1,80009a8c <i_9547>

0000000080009a78 <i_9542>:
    80009a78:	ff211283          	lh	t0,-14(sp)

0000000080009a7c <i_9543>:
    80009a7c:	03c12a83          	lw	s5,60(sp)

0000000080009a80 <i_9544>:
    80009a80:	01d00613          	li	a2,29

0000000080009a84 <i_9545>:
    80009a84:	00c41bbb          	sllw	s7,s0,a2

0000000080009a88 <i_9546>:
    80009a88:	72c44193          	xori	gp,s0,1836

0000000080009a8c <i_9547>:
    80009a8c:	e6811183          	lh	gp,-408(sp)

0000000080009a90 <i_9548>:
    80009a90:	015a87b3          	add	a5,s5,s5

0000000080009a94 <i_9549>:
    80009a94:	02f7eab3          	rem	s5,a5,a5

0000000080009a98 <i_9550>:
    80009a98:	0a310783          	lb	a5,163(sp)

0000000080009a9c <i_9551>:
    80009a9c:	e3012783          	lw	a5,-464(sp)

0000000080009aa0 <i_9552>:
    80009aa0:	fc013783          	ld	a5,-64(sp)

0000000080009aa4 <i_9553>:
    80009aa4:	02f7e463          	bltu	a5,a5,80009acc <i_9563>

0000000080009aa8 <i_9554>:
    80009aa8:	00f7cc63          	blt	a5,a5,80009ac0 <i_9560>

0000000080009aac <i_9555>:
    80009aac:	0cf12a23          	sw	a5,212(sp)

0000000080009ab0 <i_9556>:
    80009ab0:	16f11123          	sh	a5,354(sp)

0000000080009ab4 <i_9557>:
    80009ab4:	eaa15b83          	lhu	s7,-342(sp)

0000000080009ab8 <i_9558>:
    80009ab8:	ee914783          	lbu	a5,-279(sp)

0000000080009abc <i_9559>:
    80009abc:	ff314d03          	lbu	s10,-13(sp)

0000000080009ac0 <i_9560>:
    80009ac0:	02fbf7b3          	remu	a5,s7,a5

0000000080009ac4 <i_9561>:
    80009ac4:	f4c11b83          	lh	s7,-180(sp)

0000000080009ac8 <i_9562>:
    80009ac8:	00f78f33          	add	t5,a5,a5

0000000080009acc <i_9563>:
    80009acc:	0eb10b83          	lb	s7,235(sp)

0000000080009ad0 <i_9564>:
    80009ad0:	fef11923          	sh	a5,-14(sp)

0000000080009ad4 <i_9565>:
    80009ad4:	f9114383          	lbu	t2,-111(sp)

0000000080009ad8 <i_9566>:
    80009ad8:	0273ed33          	rem	s10,t2,t2

0000000080009adc <i_9567>:
    80009adc:	01ad73b3          	and	t2,s10,s10

0000000080009ae0 <i_9568>:
    80009ae0:	007d1263          	bne	s10,t2,80009ae4 <i_9569>

0000000080009ae4 <i_9569>:
    80009ae4:	01910f23          	sb	s9,30(sp)

0000000080009ae8 <i_9570>:
    80009ae8:	0113e2b3          	or	t0,t2,a7

0000000080009aec <i_9571>:
    80009aec:	0043d29b          	srliw	t0,t2,0x4

0000000080009af0 <i_9572>:
    80009af0:	e4016c03          	lwu	s8,-448(sp)

0000000080009af4 <i_9573>:
    80009af4:	00000013          	nop

0000000080009af8 <i_9574>:
    80009af8:	7e400d93          	li	s11,2020

0000000080009afc <i_9575>:
    80009afc:	7ee00393          	li	t2,2030

0000000080009b00 <i_9576>:
    80009b00:	ff016603          	lwu	a2,-16(sp)

0000000080009b04 <i_9577>:
    80009b04:	f4b10603          	lb	a2,-181(sp)

0000000080009b08 <i_9578>:
    80009b08:	87a00213          	li	tp,-1926

0000000080009b0c <i_9579>:
    80009b0c:	88600c13          	li	s8,-1914

0000000080009b10 <i_9580>:
    80009b10:	00120213          	addi	tp,tp,1 # 1 <main-0x7fffffff>
    80009b14:	fe4c7ee3          	bleu	tp,s8,80009b10 <i_9580>

0000000080009b18 <i_9581>:
    80009b18:	00000013          	nop

0000000080009b1c <i_9582>:
    80009b1c:	03813483          	ld	s1,56(sp)

0000000080009b20 <i_9583>:
    80009b20:	f8416f03          	lwu	t5,-124(sp)

0000000080009b24 <i_9584>:
    80009b24:	a90f099b          	addiw	s3,t5,-1392

0000000080009b28 <i_9585>:
    80009b28:	02c20263          	beq	tp,a2,80009b4c <i_9593>

0000000080009b2c <i_9586>:
    80009b2c:	003f5d13          	srli	s10,t5,0x3

0000000080009b30 <i_9587>:
    80009b30:	001d8d93          	addi	s11,s11,1 # 1263a001 <main-0x6d9c5fff>
    80009b34:	fdb3d6e3          	ble	s11,t2,80009b00 <i_9576>

0000000080009b38 <i_9588>:
    80009b38:	00cf2233          	slt	tp,t5,a2

0000000080009b3c <i_9589>:
    80009b3c:	01f00f13          	li	t5,31

0000000080009b40 <i_9590>:
    80009b40:	01e65b3b          	srlw	s6,a2,t5

0000000080009b44 <i_9591>:
    80009b44:	016d5e63          	ble	s6,s10,80009b60 <i_9598>

0000000080009b48 <i_9592>:
    80009b48:	07016b03          	lwu	s6,112(sp)

0000000080009b4c <i_9593>:
    80009b4c:	03615b03          	lhu	s6,54(sp)

0000000080009b50 <i_9594>:
    80009b50:	016b25b3          	slt	a1,s6,s6

0000000080009b54 <i_9595>:
    80009b54:	10c12583          	lw	a1,268(sp)

0000000080009b58 <i_9596>:
    80009b58:	03ef6263          	bltu	t5,t5,80009b7c <i_9605>

0000000080009b5c <i_9597>:
    80009b5c:	e1e14b03          	lbu	s6,-482(sp)

0000000080009b60 <i_9598>:
    80009b60:	001a1393          	slli	t2,s4,0x1

0000000080009b64 <i_9599>:
    80009b64:	003a1393          	slli	t2,s4,0x3

0000000080009b68 <i_9600>:
    80009b68:	ef610223          	sb	s6,-284(sp)

0000000080009b6c <i_9601>:
    80009b6c:	036b55b3          	divu	a1,s6,s6

0000000080009b70 <i_9602>:
    80009b70:	eb0b4093          	xori	ra,s6,-336

0000000080009b74 <i_9603>:
    80009b74:	1a412b03          	lw	s6,420(sp)

0000000080009b78 <i_9604>:
    80009b78:	41ab0d33          	sub	s10,s6,s10

0000000080009b7c <i_9605>:
    80009b7c:	f0a10e03          	lb	t3,-246(sp)

0000000080009b80 <i_9606>:
    80009b80:	1df14983          	lbu	s3,479(sp)

0000000080009b84 <i_9607>:
    80009b84:	81b00f13          	li	t5,-2021

0000000080009b88 <i_9608>:
    80009b88:	82700193          	li	gp,-2009

0000000080009b8c <i_9609>:
    80009b8c:	01ab4863          	blt	s6,s10,80009b9c <i_9613>

0000000080009b90 <i_9610>:
    80009b90:	02bf57bb          	divuw	a5,t5,a1

0000000080009b94 <i_9611>:
    80009b94:	067104a3          	sb	t2,105(sp)

0000000080009b98 <i_9612>:
    80009b98:	0fa11a23          	sh	s10,244(sp)

0000000080009b9c <i_9613>:
    80009b9c:	08811b03          	lh	s6,136(sp)

0000000080009ba0 <i_9614>:
    80009ba0:	02b6c5bb          	divw	a1,a3,a1

0000000080009ba4 <i_9615>:
    80009ba4:	001f0f13          	addi	t5,t5,1 # 748593d9 <main-0xb7a6c27>
    80009ba8:	fe3f12e3          	bne	t5,gp,80009b8c <i_9609>

0000000080009bac <i_9616>:
    80009bac:	0137de63          	ble	s3,a5,80009bc8 <i_9623>

0000000080009bb0 <i_9617>:
    80009bb0:	e5311d23          	sh	s3,-422(sp)

0000000080009bb4 <i_9618>:
    80009bb4:	01310323          	sb	s3,6(sp)

0000000080009bb8 <i_9619>:
    80009bb8:	03514c83          	lbu	s9,53(sp)

0000000080009bbc <i_9620>:
    80009bbc:	fdf14483          	lbu	s1,-33(sp)

0000000080009bc0 <i_9621>:
    80009bc0:	ef311723          	sh	s3,-274(sp)

0000000080009bc4 <i_9622>:
    80009bc4:	ef210583          	lb	a1,-270(sp)

0000000080009bc8 <i_9623>:
    80009bc8:	12416a03          	lwu	s4,292(sp)

0000000080009bcc <i_9624>:
    80009bcc:	ecb14983          	lbu	s3,-309(sp)

0000000080009bd0 <i_9625>:
    80009bd0:	77b00093          	li	ra,1915

0000000080009bd4 <i_9626>:
    80009bd4:	78c00313          	li	t1,1932

0000000080009bd8 <i_9627>:
    80009bd8:	f7311e23          	sh	s3,-132(sp)

0000000080009bdc <i_9628>:
    80009bdc:	01200593          	li	a1,18

0000000080009be0 <i_9629>:
    80009be0:	00bc95bb          	sllw	a1,s9,a1

0000000080009be4 <i_9630>:
    80009be4:	00000013          	nop

0000000080009be8 <i_9631>:
    80009be8:	039cecbb          	remw	s9,s9,s9

0000000080009bec <i_9632>:
    80009bec:	00000013          	nop

0000000080009bf0 <i_9633>:
    80009bf0:	0bc13823          	sd	t3,176(sp)

0000000080009bf4 <i_9634>:
    80009bf4:	00108093          	addi	ra,ra,1 # 17b3d001 <main-0x684c2fff>
    80009bf8:	fe60e0e3          	bltu	ra,t1,80009bd8 <i_9627>

0000000080009bfc <i_9635>:
    80009bfc:	e9614683          	lbu	a3,-362(sp)

0000000080009c00 <i_9636>:
    80009c00:	12816583          	lwu	a1,296(sp)

0000000080009c04 <i_9637>:
    80009c04:	01958a63          	beq	a1,s9,80009c18 <i_9642>

0000000080009c08 <i_9638>:
    80009c08:	13211c83          	lh	s9,306(sp)

0000000080009c0c <i_9639>:
    80009c0c:	019c8cb3          	add	s9,s9,s9

0000000080009c10 <i_9640>:
    80009c10:	bfb32293          	slti	t0,t1,-1029

0000000080009c14 <i_9641>:
    80009c14:	0ab12623          	sw	a1,172(sp)

0000000080009c18 <i_9642>:
    80009c18:	0c410923          	sb	tp,210(sp)

0000000080009c1c <i_9643>:
    80009c1c:	0e810803          	lb	a6,232(sp)

0000000080009c20 <i_9644>:
    80009c20:	00159b93          	slli	s7,a1,0x1

0000000080009c24 <i_9645>:
    80009c24:	88ccb093          	sltiu	ra,s9,-1908

0000000080009c28 <i_9646>:
    80009c28:	0e114c83          	lbu	s9,225(sp)

0000000080009c2c <i_9647>:
    80009c2c:	f3910e23          	sb	s9,-196(sp)

0000000080009c30 <i_9648>:
    80009c30:	02400c93          	li	s9,36

0000000080009c34 <i_9649>:
    80009c34:	01979cb3          	sll	s9,a5,s9

0000000080009c38 <i_9650>:
    80009c38:	01faa3b3          	slt	t2,s5,t6

0000000080009c3c <i_9651>:
    80009c3c:	ff913c23          	sd	s9,-8(sp)

0000000080009c40 <i_9652>:
    80009c40:	01a00d93          	li	s11,26

0000000080009c44 <i_9653>:
    80009c44:	41b3dcb3          	sra	s9,t2,s11

0000000080009c48 <i_9654>:
    80009c48:	039cc0b3          	div	ra,s9,s9

0000000080009c4c <i_9655>:
    80009c4c:	f7911123          	sh	s9,-158(sp)

0000000080009c50 <i_9656>:
    80009c50:	7b600c93          	li	s9,1974

0000000080009c54 <i_9657>:
    80009c54:	7c300393          	li	t2,1987

0000000080009c58 <i_9658>:
    80009c58:	00215a03          	lhu	s4,2(sp)

0000000080009c5c <i_9659>:
    80009c5c:	1b614983          	lbu	s3,438(sp)

0000000080009c60 <i_9660>:
    80009c60:	09c12803          	lw	a6,156(sp)

0000000080009c64 <i_9661>:
    80009c64:	15e10a03          	lb	s4,350(sp)

0000000080009c68 <i_9662>:
    80009c68:	0b413423          	sd	s4,168(sp)

0000000080009c6c <i_9663>:
    80009c6c:	10813423          	sd	s0,264(sp)

0000000080009c70 <i_9664>:
    80009c70:	001c8c93          	addi	s9,s9,1
    80009c74:	ff93f2e3          	bleu	s9,t2,80009c58 <i_9658>

0000000080009c78 <i_9665>:
    80009c78:	03f00813          	li	a6,63

0000000080009c7c <i_9666>:
    80009c7c:	01085433          	srl	s0,a6,a6

0000000080009c80 <i_9667>:
    80009c80:	73f00393          	li	t2,1855

0000000080009c84 <i_9668>:
    80009c84:	74e00313          	li	t1,1870

0000000080009c88 <i_9669>:
    80009c88:	01041263          	bne	s0,a6,80009c8c <i_9670>

0000000080009c8c <i_9670>:
    80009c8c:	83b80c93          	addi	s9,a6,-1989

0000000080009c90 <i_9671>:
    80009c90:	ec815803          	lhu	a6,-312(sp)

0000000080009c94 <i_9672>:
    80009c94:	00000013          	nop

0000000080009c98 <i_9673>:
    80009c98:	88100d93          	li	s11,-1919

0000000080009c9c <i_9674>:
    80009c9c:	88400e13          	li	t3,-1916

0000000080009ca0 <i_9675>:
    80009ca0:	00000013          	nop

0000000080009ca4 <i_9676>:
    80009ca4:	14813823          	sd	s0,336(sp)

0000000080009ca8 <i_9677>:
    80009ca8:	001d8d93          	addi	s11,s11,1
    80009cac:	ffcd9ae3          	bne	s11,t3,80009ca0 <i_9675>

0000000080009cb0 <i_9678>:
    80009cb0:	14810803          	lb	a6,328(sp)

0000000080009cb4 <i_9679>:
    80009cb4:	cc3e74b7          	lui	s1,0xcc3e7

0000000080009cb8 <i_9680>:
    80009cb8:	15c109a3          	sb	t3,339(sp)

0000000080009cbc <i_9681>:
    80009cbc:	f3c11223          	sh	t3,-220(sp)

0000000080009cc0 <i_9682>:
    80009cc0:	03e00c13          	li	s8,62

0000000080009cc4 <i_9683>:
    80009cc4:	018999b3          	sll	s3,s3,s8

0000000080009cc8 <i_9684>:
    80009cc8:	00138393          	addi	t2,t2,1
    80009ccc:	fa639ee3          	bne	t2,t1,80009c88 <i_9669>

0000000080009cd0 <i_9685>:
    80009cd0:	07611a03          	lh	s4,118(sp)

0000000080009cd4 <i_9686>:
    80009cd4:	0e612223          	sw	t1,228(sp)

0000000080009cd8 <i_9687>:
    80009cd8:	ed181997          	auipc	s3,0xed181

0000000080009cdc <i_9688>:
    80009cdc:	038809bb          	mulw	s3,a6,s8

0000000080009ce0 <i_9689>:
    80009ce0:	f0813823          	sd	s0,-240(sp)

0000000080009ce4 <i_9690>:
    80009ce4:	013c5e63          	ble	s3,s8,80009d00 <i_9697>

0000000080009ce8 <i_9691>:
    80009ce8:	13811423          	sh	s8,296(sp)

0000000080009cec <i_9692>:
    80009cec:	ed011583          	lh	a1,-304(sp)

0000000080009cf0 <i_9693>:
    80009cf0:	f8a13423          	sd	a0,-120(sp)

0000000080009cf4 <i_9694>:
    80009cf4:	02b12c23          	sw	a1,56(sp)

0000000080009cf8 <i_9695>:
    80009cf8:	0135d463          	ble	s3,a1,80009d00 <i_9697>

0000000080009cfc <i_9696>:
    80009cfc:	02b98533          	mul	a0,s3,a1

0000000080009d00 <i_9697>:
    80009d00:	0149f9b3          	and	s3,s3,s4

0000000080009d04 <i_9698>:
    80009d04:	16a11f23          	sh	a0,382(sp)

0000000080009d08 <i_9699>:
    80009d08:	0339c463          	blt	s3,s3,80009d30 <i_9709>

0000000080009d0c <i_9700>:
    80009d0c:	02c16183          	lwu	gp,44(sp)

0000000080009d10 <i_9701>:
    80009d10:	4041d99b          	sraiw	s3,gp,0x4

0000000080009d14 <i_9702>:
    80009d14:	00000013          	nop

0000000080009d18 <i_9703>:
    80009d18:	0015a7b3          	slt	a5,a1,ra

0000000080009d1c <i_9704>:
    80009d1c:	ea012783          	lw	a5,-352(sp)

0000000080009d20 <i_9705>:
    80009d20:	00000013          	nop

0000000080009d24 <i_9706>:
    80009d24:	f3110483          	lb	s1,-207(sp)

0000000080009d28 <i_9707>:
    80009d28:	00c12403          	lw	s0,12(sp)

0000000080009d2c <i_9708>:
    80009d2c:	00840433          	add	s0,s0,s0

0000000080009d30 <i_9709>:
    80009d30:	fbc12483          	lw	s1,-68(sp)

0000000080009d34 <i_9710>:
    80009d34:	00000013          	nop

0000000080009d38 <i_9711>:
    80009d38:	85100513          	li	a0,-1967

0000000080009d3c <i_9712>:
    80009d3c:	85600a93          	li	s5,-1962

0000000080009d40 <i_9713>:
    80009d40:	01800e13          	li	t3,24

0000000080009d44 <i_9714>:
    80009d44:	01c41f3b          	sllw	t5,s0,t3

0000000080009d48 <i_9715>:
    80009d48:	028e6063          	bltu	t3,s0,80009d68 <i_9722>

0000000080009d4c <i_9716>:
    80009d4c:	02600413          	li	s0,38

0000000080009d50 <i_9717>:
    80009d50:	00841433          	sll	s0,s0,s0

0000000080009d54 <i_9718>:
    80009d54:	ed813783          	ld	a5,-296(sp)

0000000080009d58 <i_9719>:
    80009d58:	00150513          	addi	a0,a0,1
    80009d5c:	feaad2e3          	ble	a0,s5,80009d40 <i_9713>

0000000080009d60 <i_9720>:
    80009d60:	00697663          	bleu	t1,s2,80009d6c <i_9723>

0000000080009d64 <i_9721>:
    80009d64:	01f00313          	li	t1,31

0000000080009d68 <i_9722>:
    80009d68:	006191bb          	sllw	gp,gp,t1

0000000080009d6c <i_9723>:
    80009d6c:	14610f23          	sb	t1,350(sp)

0000000080009d70 <i_9724>:
    80009d70:	8f530d1b          	addiw	s10,t1,-1803

0000000080009d74 <i_9725>:
    80009d74:	74e00e13          	li	t3,1870

0000000080009d78 <i_9726>:
    80009d78:	75600a93          	li	s5,1878

0000000080009d7c <i_9727>:
    80009d7c:	fdc14503          	lbu	a0,-36(sp)

0000000080009d80 <i_9728>:
    80009d80:	00000013          	nop

0000000080009d84 <i_9729>:
    80009d84:	83400313          	li	t1,-1996

0000000080009d88 <i_9730>:
    80009d88:	84700193          	li	gp,-1977

0000000080009d8c <i_9731>:
    80009d8c:	0043129b          	slliw	t0,t1,0x4

0000000080009d90 <i_9732>:
    80009d90:	00130313          	addi	t1,t1,1
    80009d94:	fe61fce3          	bleu	t1,gp,80009d8c <i_9731>

0000000080009d98 <i_9733>:
    80009d98:	4cb54213          	xori	tp,a0,1227

0000000080009d9c <i_9734>:
    80009d9c:	19416503          	lwu	a0,404(sp)

0000000080009da0 <i_9735>:
    80009da0:	00000013          	nop

0000000080009da4 <i_9736>:
    80009da4:	fe214503          	lbu	a0,-30(sp)

0000000080009da8 <i_9737>:
    80009da8:	03d27c3b          	remuw	s8,tp,t4

0000000080009dac <i_9738>:
    80009dac:	02a11723          	sh	a0,46(sp)

0000000080009db0 <i_9739>:
    80009db0:	001e0e13          	addi	t3,t3,1
    80009db4:	fdcad4e3          	ble	t3,s5,80009d7c <i_9727>

0000000080009db8 <i_9740>:
    80009db8:	2a836293          	ori	t0,t1,680

0000000080009dbc <i_9741>:
    80009dbc:	f9813d03          	ld	s10,-104(sp)

0000000080009dc0 <i_9742>:
    80009dc0:	01a21c63          	bne	tp,s10,80009dd8 <i_9748>

0000000080009dc4 <i_9743>:
    80009dc4:	18013083          	ld	ra,384(sp)

0000000080009dc8 <i_9744>:
    80009dc8:	0ba12c23          	sw	s10,184(sp)

0000000080009dcc <i_9745>:
    80009dcc:	03500513          	li	a0,53

0000000080009dd0 <i_9746>:
    80009dd0:	00a556b3          	srl	a3,a0,a0

0000000080009dd4 <i_9747>:
    80009dd4:	00ba4e33          	xor	t3,s4,a1

0000000080009dd8 <i_9748>:
    80009dd8:	01855c63          	ble	s8,a0,80009df0 <i_9754>

0000000080009ddc <i_9749>:
    80009ddc:	e9be4b13          	xori	s6,t3,-357

0000000080009de0 <i_9750>:
    80009de0:	009c3533          	sltu	a0,s8,s1

0000000080009de4 <i_9751>:
    80009de4:	06416283          	lwu	t0,100(sp)

0000000080009de8 <i_9752>:
    80009de8:	1d910c03          	lb	s8,473(sp)

0000000080009dec <i_9753>:
    80009dec:	00000013          	nop

0000000080009df0 <i_9754>:
    80009df0:	eb412b03          	lw	s6,-332(sp)

0000000080009df4 <i_9755>:
    80009df4:	fcf14c03          	lbu	s8,-49(sp)

0000000080009df8 <i_9756>:
    80009df8:	86700093          	li	ra,-1945

0000000080009dfc <i_9757>:
    80009dfc:	87500e13          	li	t3,-1931

0000000080009e00 <i_9758>:
    80009e00:	fb012a03          	lw	s4,-80(sp)

0000000080009e04 <i_9759>:
    80009e04:	00b00c13          	li	s8,11

0000000080009e08 <i_9760>:
    80009e08:	018a5dbb          	srlw	s11,s4,s8

0000000080009e0c <i_9761>:
    80009e0c:	13b12e23          	sw	s11,316(sp)

0000000080009e10 <i_9762>:
    80009e10:	f0814d03          	lbu	s10,-248(sp)

0000000080009e14 <i_9763>:
    80009e14:	1c013583          	ld	a1,448(sp)

0000000080009e18 <i_9764>:
    80009e18:	014583b3          	add	t2,a1,s4

0000000080009e1c <i_9765>:
    80009e1c:	03ade9bb          	remw	s3,s11,s10

0000000080009e20 <i_9766>:
    80009e20:	00108093          	addi	ra,ra,1
    80009e24:	fdc0eee3          	bltu	ra,t3,80009e00 <i_9758>

0000000080009e28 <i_9767>:
    80009e28:	0bb12623          	sw	s11,172(sp)

0000000080009e2c <i_9768>:
    80009e2c:	fe016583          	lwu	a1,-32(sp)

0000000080009e30 <i_9769>:
    80009e30:	01ade263          	bltu	s11,s10,80009e34 <i_9770>

0000000080009e34 <i_9770>:
    80009e34:	407d853b          	subw	a0,s11,t2

0000000080009e38 <i_9771>:
    80009e38:	01339c63          	bne	t2,s3,80009e50 <i_9777>

0000000080009e3c <i_9772>:
    80009e3c:	e2a10a23          	sb	a0,-460(sp)

0000000080009e40 <i_9773>:
    80009e40:	f8614383          	lbu	t2,-122(sp)

0000000080009e44 <i_9774>:
    80009e44:	f6c12503          	lw	a0,-148(sp)

0000000080009e48 <i_9775>:
    80009e48:	15013183          	ld	gp,336(sp)

0000000080009e4c <i_9776>:
    80009e4c:	ef810203          	lb	tp,-264(sp)

0000000080009e50 <i_9777>:
    80009e50:	00757263          	bleu	t2,a0,80009e54 <i_9778>

0000000080009e54 <i_9778>:
    80009e54:	e6311523          	sh	gp,-406(sp)

0000000080009e58 <i_9779>:
    80009e58:	00000013          	nop

0000000080009e5c <i_9780>:
    80009e5c:	7b100f13          	li	t5,1969

0000000080009e60 <i_9781>:
    80009e60:	7c500a13          	li	s4,1989

0000000080009e64 <i_9782>:
    80009e64:	03355cb3          	divu	s9,a0,s3

0000000080009e68 <i_9783>:
    80009e68:	00000013          	nop

0000000080009e6c <i_9784>:
    80009e6c:	03e5423b          	divw	tp,a0,t5

0000000080009e70 <i_9785>:
    80009e70:	08410d23          	sb	tp,154(sp)

0000000080009e74 <i_9786>:
    80009e74:	fe410723          	sb	tp,-18(sp)

0000000080009e78 <i_9787>:
    80009e78:	001f0f13          	addi	t5,t5,1
    80009e7c:	ff4f64e3          	bltu	t5,s4,80009e64 <i_9782>

0000000080009e80 <i_9788>:
    80009e80:	0c311123          	sh	gp,194(sp)

0000000080009e84 <i_9789>:
    80009e84:	ef016083          	lwu	ra,-272(sp)

0000000080009e88 <i_9790>:
    80009e88:	e3e13823          	sd	t5,-464(sp)

0000000080009e8c <i_9791>:
    80009e8c:	ede11723          	sh	t5,-306(sp)

0000000080009e90 <i_9792>:
    80009e90:	f7e12e23          	sw	t5,-132(sp)

0000000080009e94 <i_9793>:
    80009e94:	0c615203          	lhu	tp,198(sp)

0000000080009e98 <i_9794>:
    80009e98:	401f5c13          	srai	s8,t5,0x1

0000000080009e9c <i_9795>:
    80009e9c:	89900393          	li	t2,-1895

0000000080009ea0 <i_9796>:
    80009ea0:	89c00f13          	li	t5,-1892

0000000080009ea4 <i_9797>:
    80009ea4:	024add33          	divu	s10,s5,tp

0000000080009ea8 <i_9798>:
    80009ea8:	12215e83          	lhu	t4,290(sp)

0000000080009eac <i_9799>:
    80009eac:	00138393          	addi	t2,t2,1
    80009eb0:	ffe3eae3          	bltu	t2,t5,80009ea4 <i_9797>

0000000080009eb4 <i_9800>:
    80009eb4:	02011c83          	lh	s9,32(sp)

0000000080009eb8 <i_9801>:
    80009eb8:	014e9463          	bne	t4,s4,80009ec0 <i_9803>

0000000080009ebc <i_9802>:
    80009ebc:	01653d33          	sltu	s10,a0,s6

0000000080009ec0 <i_9803>:
    80009ec0:	11d4fe97          	auipc	t4,0x11d4f

0000000080009ec4 <i_9804>:
    80009ec4:	15412b83          	lw	s7,340(sp)

0000000080009ec8 <i_9805>:
    80009ec8:	021d1063          	bne	s10,ra,80009ee8 <i_9813>

0000000080009ecc <i_9806>:
    80009ecc:	09613c23          	sd	s6,152(sp)

0000000080009ed0 <i_9807>:
    80009ed0:	00135b9b          	srliw	s7,t1,0x1

0000000080009ed4 <i_9808>:
    80009ed4:	018970b3          	and	ra,s2,s8

0000000080009ed8 <i_9809>:
    80009ed8:	18412c23          	sw	tp,408(sp)

0000000080009edc <i_9810>:
    80009edc:	037f65b3          	rem	a1,t5,s7

0000000080009ee0 <i_9811>:
    80009ee0:	e9816783          	lwu	a5,-360(sp)

0000000080009ee4 <i_9812>:
    80009ee4:	0b613023          	sd	s6,160(sp)

0000000080009ee8 <i_9813>:
    80009ee8:	06712623          	sw	t2,108(sp)

0000000080009eec <i_9814>:
    80009eec:	eb813b83          	ld	s7,-328(sp)

0000000080009ef0 <i_9815>:
    80009ef0:	01737863          	bleu	s7,t1,80009f00 <i_9819>

0000000080009ef4 <i_9816>:
    80009ef4:	0373e5bb          	remw	a1,t2,s7

0000000080009ef8 <i_9817>:
    80009ef8:	f1a10a83          	lb	s5,-230(sp)

0000000080009efc <i_9818>:
    80009efc:	06810683          	lb	a3,104(sp)

0000000080009f00 <i_9819>:
    80009f00:	001f1b9b          	slliw	s7,t5,0x1

0000000080009f04 <i_9820>:
    80009f04:	01710bb3          	add	s7,sp,s7

0000000080009f08 <i_9821>:
    80009f08:	e5c1be13          	sltiu	t3,gp,-420

0000000080009f0c <i_9822>:
    80009f0c:	037bdbbb          	divuw	s7,s7,s7

0000000080009f10 <i_9823>:
    80009f10:	037e4b33          	div	s6,t3,s7

0000000080009f14 <i_9824>:
    80009f14:	416b8bb3          	sub	s7,s7,s6

0000000080009f18 <i_9825>:
    80009f18:	16e11503          	lh	a0,366(sp)

0000000080009f1c <i_9826>:
    80009f1c:	eb710ea3          	sb	s7,-323(sp)

0000000080009f20 <i_9827>:
    80009f20:	f2412b83          	lw	s7,-220(sp)

0000000080009f24 <i_9828>:
    80009f24:	017bf463          	bleu	s7,s7,80009f2c <i_9830>

0000000080009f28 <i_9829>:
    80009f28:	e2a12e23          	sw	a0,-452(sp)

0000000080009f2c <i_9830>:
    80009f2c:	02abe263          	bltu	s7,a0,80009f50 <i_9839>

0000000080009f30 <i_9831>:
    80009f30:	1d013503          	ld	a0,464(sp)

0000000080009f34 <i_9832>:
    80009f34:	fd013183          	ld	gp,-48(sp)

0000000080009f38 <i_9833>:
    80009f38:	0c412983          	lw	s3,196(sp)

0000000080009f3c <i_9834>:
    80009f3c:	e5013503          	ld	a0,-432(sp)

0000000080009f40 <i_9835>:
    80009f40:	e7416383          	lwu	t2,-396(sp)

0000000080009f44 <i_9836>:
    80009f44:	b323bdb7          	lui	s11,0xb323b

0000000080009f48 <i_9837>:
    80009f48:	0e713823          	sd	t2,240(sp)

0000000080009f4c <i_9838>:
    80009f4c:	4043db9b          	sraiw	s7,t2,0x4

0000000080009f50 <i_9839>:
    80009f50:	f5b10123          	sb	s11,-190(sp)

0000000080009f54 <i_9840>:
    80009f54:	0073f863          	bleu	t2,t2,80009f64 <i_9844>

0000000080009f58 <i_9841>:
    80009f58:	004b9f13          	slli	t5,s7,0x4

0000000080009f5c <i_9842>:
    80009f5c:	07610383          	lb	t2,118(sp)

0000000080009f60 <i_9843>:
    80009f60:	01e0bbb3          	sltu	s7,ra,t5

0000000080009f64 <i_9844>:
    80009f64:	01800393          	li	t2,24

0000000080009f68 <i_9845>:
    80009f68:	007393bb          	sllw	t2,t2,t2

0000000080009f6c <i_9846>:
    80009f6c:	0175b633          	sltu	a2,a1,s7

0000000080009f70 <i_9847>:
    80009f70:	0fc11e83          	lh	t4,252(sp)

0000000080009f74 <i_9848>:
    80009f74:	00000013          	nop

0000000080009f78 <i_9849>:
    80009f78:	79300193          	li	gp,1939

0000000080009f7c <i_9850>:
    80009f7c:	7a300d93          	li	s11,1955

0000000080009f80 <i_9851>:
    80009f80:	1c712623          	sw	t2,460(sp)

0000000080009f84 <i_9852>:
    80009f84:	07016c03          	lwu	s8,112(sp)

0000000080009f88 <i_9853>:
    80009f88:	1e912223          	sw	s1,484(sp)

0000000080009f8c <i_9854>:
    80009f8c:	0a710d23          	sb	t2,186(sp)

0000000080009f90 <i_9855>:
    80009f90:	f3812223          	sw	s8,-220(sp)

0000000080009f94 <i_9856>:
    80009f94:	00118193          	addi	gp,gp,1 # becdca39 <_end+0x3eccc625>
    80009f98:	fe3df4e3          	bleu	gp,s11,80009f80 <i_9851>

0000000080009f9c <i_9857>:
    80009f9c:	02415e83          	lhu	t4,36(sp)

0000000080009fa0 <i_9858>:
    80009fa0:	f4312e23          	sw	gp,-164(sp)

0000000080009fa4 <i_9859>:
    80009fa4:	f6f10203          	lb	tp,-145(sp)

0000000080009fa8 <i_9860>:
    80009fa8:	0d410583          	lb	a1,212(sp)

0000000080009fac <i_9861>:
    80009fac:	0be15e03          	lhu	t3,190(sp)

0000000080009fb0 <i_9862>:
    80009fb0:	f1b10e23          	sb	s11,-228(sp)

0000000080009fb4 <i_9863>:
    80009fb4:	0da11583          	lh	a1,218(sp)

0000000080009fb8 <i_9864>:
    80009fb8:	7f200493          	li	s1,2034

0000000080009fbc <i_9865>:
    80009fbc:	7fc00093          	li	ra,2044

0000000080009fc0 <i_9866>:
    80009fc0:	f9c13c23          	sd	t3,-104(sp)

0000000080009fc4 <i_9867>:
    80009fc4:	0ba15e03          	lhu	t3,186(sp)

0000000080009fc8 <i_9868>:
    80009fc8:	e2a11583          	lh	a1,-470(sp)

0000000080009fcc <i_9869>:
    80009fcc:	02bcf2b3          	remu	t0,s9,a1

0000000080009fd0 <i_9870>:
    80009fd0:	8bf00c93          	li	s9,-1857

0000000080009fd4 <i_9871>:
    80009fd4:	8cd00e13          	li	t3,-1843

0000000080009fd8 <i_9872>:
    80009fd8:	40682417          	auipc	s0,0x40682

0000000080009fdc <i_9873>:
    80009fdc:	001c8c93          	addi	s9,s9,1
    80009fe0:	ff9e5ce3          	ble	s9,t3,80009fd8 <i_9872>

0000000080009fe4 <i_9874>:
    80009fe4:	dcf2ed93          	ori	s11,t0,-561

0000000080009fe8 <i_9875>:
    80009fe8:	41cd0e33          	sub	t3,s10,t3

0000000080009fec <i_9876>:
    80009fec:	00148493          	addi	s1,s1,1 # ffffffffcc3e7001 <_end+0xffffffff4c3d6bed>
    80009ff0:	fc90f8e3          	bleu	s1,ra,80009fc0 <i_9866>

0000000080009ff4 <i_9877>:
    80009ff4:	d70a8413          	addi	s0,s5,-656

0000000080009ff8 <i_9878>:
    80009ff8:	07c11a03          	lh	s4,124(sp)

0000000080009ffc <i_9879>:
    80009ffc:	00229a63          	bne	t0,sp,8000a010 <i_9884>

000000008000a000 <i_9880>:
    8000a000:	73346513          	ori	a0,s0,1843

000000008000a004 <i_9881>:
    8000a004:	00329793          	slli	a5,t0,0x3

000000008000a008 <i_9882>:
    8000a008:	00255293          	srli	t0,a0,0x2

000000008000a00c <i_9883>:
    8000a00c:	f6013c03          	ld	s8,-160(sp)

000000008000a010 <i_9884>:
    8000a010:	02f78bbb          	mulw	s7,a5,a5

000000008000a014 <i_9885>:
    8000a014:	00fbce63          	blt	s7,a5,8000a030 <i_9892>

000000008000a018 <i_9886>:
    8000a018:	00f00b93          	li	s7,15

000000008000a01c <i_9887>:
    8000a01c:	017bdbbb          	srlw	s7,s7,s7

000000008000a020 <i_9888>:
    8000a020:	0c012c03          	lw	s8,192(sp)

000000008000a024 <i_9889>:
    8000a024:	f3013c03          	ld	s8,-208(sp)

000000008000a028 <i_9890>:
    8000a028:	418c07bb          	subw	a5,s8,s8

000000008000a02c <i_9891>:
    8000a02c:	03700093          	li	ra,55

000000008000a030 <i_9892>:
    8000a030:	001bd4b3          	srl	s1,s7,ra

000000008000a034 <i_9893>:
    8000a034:	08812783          	lw	a5,136(sp)

000000008000a038 <i_9894>:
    8000a038:	f8912223          	sw	s1,-124(sp)

000000008000a03c <i_9895>:
    8000a03c:	02e11b83          	lh	s7,46(sp)

000000008000a040 <i_9896>:
    8000a040:	14f12023          	sw	a5,320(sp)

000000008000a044 <i_9897>:
    8000a044:	e2111823          	sh	ra,-464(sp)

000000008000a048 <i_9898>:
    8000a048:	15714603          	lbu	a2,343(sp)

000000008000a04c <i_9899>:
    8000a04c:	ec110da3          	sb	ra,-293(sp)

000000008000a050 <i_9900>:
    8000a050:	10814783          	lbu	a5,264(sp)

000000008000a054 <i_9901>:
    8000a054:	001f5613          	srli	a2,t5,0x1

000000008000a058 <i_9902>:
    8000a058:	75c00f13          	li	t5,1884

000000008000a05c <i_9903>:
    8000a05c:	76700093          	li	ra,1895

000000008000a060 <i_9904>:
    8000a060:	0040da93          	srli	s5,ra,0x4

000000008000a064 <i_9905>:
    8000a064:	03e00313          	li	t1,62

000000008000a068 <i_9906>:
    8000a068:	006a9633          	sll	a2,s5,t1

000000008000a06c <i_9907>:
    8000a06c:	00000013          	nop

000000008000a070 <i_9908>:
    8000a070:	10813603          	ld	a2,264(sp)

000000008000a074 <i_9909>:
    8000a074:	0c211503          	lh	a0,194(sp)

000000008000a078 <i_9910>:
    8000a078:	eb013e03          	ld	t3,-336(sp)

000000008000a07c <i_9911>:
    8000a07c:	001f0f13          	addi	t5,t5,1
    8000a080:	fe1f10e3          	bne	t5,ra,8000a060 <i_9904>

000000008000a084 <i_9912>:
    8000a084:	f8416503          	lwu	a0,-124(sp)

000000008000a088 <i_9913>:
    8000a088:	d66c6c13          	ori	s8,s8,-666

000000008000a08c <i_9914>:
    8000a08c:	faa10e23          	sb	a0,-68(sp)

000000008000a090 <i_9915>:
    8000a090:	fbe15483          	lhu	s1,-66(sp)

000000008000a094 <i_9916>:
    8000a094:	73900e93          	li	t4,1849

000000008000a098 <i_9917>:
    8000a098:	74400e13          	li	t3,1860

000000008000a09c <i_9918>:
    8000a09c:	f3813423          	sd	s8,-216(sp)

000000008000a0a0 <i_9919>:
    8000a0a0:	10314603          	lbu	a2,259(sp)

000000008000a0a4 <i_9920>:
    8000a0a4:	00c54e63          	blt	a0,a2,8000a0c0 <i_9927>

000000008000a0a8 <i_9921>:
    8000a0a8:	04812603          	lw	a2,72(sp)

000000008000a0ac <i_9922>:
    8000a0ac:	02813d83          	ld	s11,40(sp)

000000008000a0b0 <i_9923>:
    8000a0b0:	ece15d83          	lhu	s11,-306(sp)

000000008000a0b4 <i_9924>:
    8000a0b4:	ab106637          	lui	a2,0xab106

000000008000a0b8 <i_9925>:
    8000a0b8:	40390a3b          	subw	s4,s2,gp

000000008000a0bc <i_9926>:
    8000a0bc:	401a5193          	srai	gp,s4,0x1

000000008000a0c0 <i_9927>:
    8000a0c0:	ebf12223          	sw	t6,-348(sp)

000000008000a0c4 <i_9928>:
    8000a0c4:	034a4463          	blt	s4,s4,8000a0ec <i_9937>

000000008000a0c8 <i_9929>:
    8000a0c8:	e2c13023          	sd	a2,-480(sp)

000000008000a0cc <i_9930>:
    8000a0cc:	0164fb33          	and	s6,s1,s6

000000008000a0d0 <i_9931>:
    8000a0d0:	03b791b3          	mulh	gp,a5,s11

000000008000a0d4 <i_9932>:
    8000a0d4:	001e8e93          	addi	t4,t4,1 # 91d58ec1 <_end+0x11d48aad>
    8000a0d8:	fdcee2e3          	bltu	t4,t3,8000a09c <i_9918>

000000008000a0dc <i_9933>:
    8000a0dc:	0231d463          	ble	gp,gp,8000a104 <i_9943>

000000008000a0e0 <i_9934>:
    8000a0e0:	0f510283          	lb	t0,245(sp)

000000008000a0e4 <i_9935>:
    8000a0e4:	03629263          	bne	t0,s6,8000a108 <i_9944>

000000008000a0e8 <i_9936>:
    8000a0e8:	06e11303          	lh	t1,110(sp)

000000008000a0ec <i_9937>:
    8000a0ec:	0231f263          	bleu	gp,gp,8000a110 <i_9946>

000000008000a0f0 <i_9938>:
    8000a0f0:	f2513023          	sd	t0,-224(sp)

000000008000a0f4 <i_9939>:
    8000a0f4:	02c16983          	lwu	s3,44(sp)

000000008000a0f8 <i_9940>:
    8000a0f8:	1e016383          	lwu	t2,480(sp)

000000008000a0fc <i_9941>:
    8000a0fc:	01236a63          	bltu	t1,s2,8000a110 <i_9946>

000000008000a100 <i_9942>:
    8000a100:	0351f3b3          	remu	t2,gp,s5

000000008000a104 <i_9943>:
    8000a104:	ec712623          	sw	t2,-308(sp)

000000008000a108 <i_9944>:
    8000a108:	0236c6bb          	divw	a3,a3,gp

000000008000a10c <i_9945>:
    8000a10c:	1cc16b03          	lwu	s6,460(sp)

000000008000a110 <i_9946>:
    8000a110:	f0510f23          	sb	t0,-226(sp)

000000008000a114 <i_9947>:
    8000a114:	024b5463          	ble	tp,s6,8000a13c <i_9957>

000000008000a118 <i_9948>:
    8000a118:	03200d13          	li	s10,50

000000008000a11c <i_9949>:
    8000a11c:	01a91c33          	sll	s8,s2,s10

000000008000a120 <i_9950>:
    8000a120:	407383b3          	sub	t2,t2,t2

000000008000a124 <i_9951>:
    8000a124:	00000013          	nop

000000008000a128 <i_9952>:
    8000a128:	f0016b83          	lwu	s7,-256(sp)

000000008000a12c <i_9953>:
    8000a12c:	01d00993          	li	s3,29

000000008000a130 <i_9954>:
    8000a130:	4133deb3          	sra	t4,t2,s3

000000008000a134 <i_9955>:
    8000a134:	11e13823          	sd	t5,272(sp)

000000008000a138 <i_9956>:
    8000a138:	00000013          	nop

000000008000a13c <i_9957>:
    8000a13c:	03c00293          	li	t0,60

000000008000a140 <i_9958>:
    8000a140:	0052dc33          	srl	s8,t0,t0

000000008000a144 <i_9959>:
    8000a144:	7b200593          	li	a1,1970

000000008000a148 <i_9960>:
    8000a148:	7b900f13          	li	t5,1977

000000008000a14c <i_9961>:
    8000a14c:	0fb14783          	lbu	a5,251(sp)

000000008000a150 <i_9962>:
    8000a150:	00158593          	addi	a1,a1,1
    8000a154:	ffe5cce3          	blt	a1,t5,8000a14c <i_9961>

000000008000a158 <i_9963>:
    8000a158:	07510583          	lb	a1,117(sp)

000000008000a15c <i_9964>:
    8000a15c:	1a416383          	lwu	t2,420(sp)

000000008000a160 <i_9965>:
    8000a160:	eb6ee593          	ori	a1,t4,-330

000000008000a164 <i_9966>:
    8000a164:	f4f10e83          	lb	t4,-177(sp)

000000008000a168 <i_9967>:
    8000a168:	02b5833b          	mulw	t1,a1,a1

000000008000a16c <i_9968>:
    8000a16c:	00628233          	add	tp,t0,t1

000000008000a170 <i_9969>:
    8000a170:	0cf11123          	sh	a5,194(sp)

000000008000a174 <i_9970>:
    8000a174:	025ec7b3          	div	a5,t4,t0

000000008000a178 <i_9971>:
    8000a178:	02f27463          	bleu	a5,tp,8000a1a0 <i_9981>

000000008000a17c <i_9972>:
    8000a17c:	03900213          	li	tp,57

000000008000a180 <i_9973>:
    8000a180:	00425eb3          	srl	t4,tp,tp

000000008000a184 <i_9974>:
    8000a184:	e8b10683          	lb	a3,-373(sp)

000000008000a188 <i_9975>:
    8000a188:	00f6c633          	xor	a2,a3,a5

000000008000a18c <i_9976>:
    8000a18c:	00200793          	li	a5,2

000000008000a190 <i_9977>:
    8000a190:	40feddb3          	sra	s11,t4,a5

000000008000a194 <i_9978>:
    8000a194:	fb013203          	ld	tp,-80(sp)

000000008000a198 <i_9979>:
    8000a198:	404dd41b          	sraiw	s0,s11,0x4

000000008000a19c <i_9980>:
    8000a19c:	0f610683          	lb	a3,246(sp)

000000008000a1a0 <i_9981>:
    8000a1a0:	fd813023          	sd	s8,-64(sp)

000000008000a1a4 <i_9982>:
    8000a1a4:	00000013          	nop

000000008000a1a8 <i_9983>:
    8000a1a8:	1c112823          	sw	ra,464(sp)

000000008000a1ac <i_9984>:
    8000a1ac:	7d800e93          	li	t4,2008

000000008000a1b0 <i_9985>:
    8000a1b0:	7e700093          	li	ra,2023

000000008000a1b4 <i_9986>:
    8000a1b4:	4022541b          	sraiw	s0,tp,0x2

000000008000a1b8 <i_9987>:
    8000a1b8:	01e10f23          	sb	t5,30(sp)

000000008000a1bc <i_9988>:
    8000a1bc:	00d3a233          	slt	tp,t2,a3

000000008000a1c0 <i_9989>:
    8000a1c0:	eec15f03          	lhu	t5,-276(sp)

000000008000a1c4 <i_9990>:
    8000a1c4:	008383b3          	add	t2,t2,s0

000000008000a1c8 <i_9991>:
    8000a1c8:	f0d10f03          	lb	t5,-243(sp)

000000008000a1cc <i_9992>:
    8000a1cc:	037f6bbb          	remw	s7,t5,s7

000000008000a1d0 <i_9993>:
    8000a1d0:	00000013          	nop

000000008000a1d4 <i_9994>:
    8000a1d4:	e9712423          	sw	s7,-376(sp)

000000008000a1d8 <i_9995>:
    8000a1d8:	00000013          	nop

000000008000a1dc <i_9996>:
    8000a1dc:	74900a13          	li	s4,1865

000000008000a1e0 <i_9997>:
    8000a1e0:	74b00b93          	li	s7,1867

000000008000a1e4 <i_9998>:
    8000a1e4:	00000013          	nop

000000008000a1e8 <i_9999>:
    8000a1e8:	09013603          	ld	a2,144(sp)

000000008000a1ec <i_10000>:
    8000a1ec:	001a0a13          	addi	s4,s4,1
    8000a1f0:	ff4bdae3          	ble	s4,s7,8000a1e4 <i_9998>

000000008000a1f4 <i_10001>:
    8000a1f4:	07c11283          	lh	t0,124(sp)

000000008000a1f8 <i_10002>:
    8000a1f8:	001e8e93          	addi	t4,t4,1
    8000a1fc:	fbd0dce3          	ble	t4,ra,8000a1b4 <i_9986>

000000008000a200 <i_10003>:
    8000a200:	014d3d33          	sltu	s10,s10,s4

000000008000a204 <i_10004>:
    8000a204:	ff415583          	lhu	a1,-12(sp)

000000008000a208 <i_10005>:
    8000a208:	00554bb3          	xor	s7,a0,t0

000000008000a20c <i_10006>:
    8000a20c:	00211a13          	slli	s4,sp,0x2

000000008000a210 <i_10007>:
    8000a210:	017b8463          	beq	s7,s7,8000a218 <i_10009>

000000008000a214 <i_10008>:
    8000a214:	b9c82bb7          	lui	s7,0xb9c82

000000008000a218 <i_10009>:
    8000a218:	003b9b1b          	slliw	s6,s7,0x3

000000008000a21c <i_10010>:
    8000a21c:	f6c15b83          	lhu	s7,-148(sp)

000000008000a220 <i_10011>:
    8000a220:	037bf263          	bleu	s7,s7,8000a244 <i_10020>

000000008000a224 <i_10012>:
    8000a224:	017b9a63          	bne	s7,s7,8000a238 <i_10017>

000000008000a228 <i_10013>:
    8000a228:	f3c11623          	sh	t3,-212(sp)

000000008000a22c <i_10014>:
    8000a22c:	f0913c23          	sd	s1,-232(sp)

000000008000a230 <i_10015>:
    8000a230:	f4012303          	lw	t1,-192(sp)

000000008000a234 <i_10016>:
    8000a234:	f9016c83          	lwu	s9,-112(sp)

000000008000a238 <i_10017>:
    8000a238:	04816303          	lwu	t1,72(sp)

000000008000a23c <i_10018>:
    8000a23c:	037ce263          	bltu	s9,s7,8000a260 <i_10027>

000000008000a240 <i_10019>:
    8000a240:	05913423          	sd	s9,72(sp)

000000008000a244 <i_10020>:
    8000a244:	032743bb          	divw	t2,a4,s2

000000008000a248 <i_10021>:
    8000a248:	036d76b3          	remu	a3,s10,s6

000000008000a24c <i_10022>:
    8000a24c:	ff813303          	ld	t1,-8(sp)

000000008000a250 <i_10023>:
    8000a250:	00000013          	nop

000000008000a254 <i_10024>:
    8000a254:	1c610a03          	lb	s4,454(sp)

000000008000a258 <i_10025>:
    8000a258:	01800993          	li	s3,24

000000008000a25c <i_10026>:
    8000a25c:	013b1b3b          	sllw	s6,s6,s3

000000008000a260 <i_10027>:
    8000a260:	ef913823          	sd	s9,-272(sp)

000000008000a264 <i_10028>:
    8000a264:	00000013          	nop

000000008000a268 <i_10029>:
    8000a268:	8ba00313          	li	t1,-1862

000000008000a26c <i_10030>:
    8000a26c:	8be00d93          	li	s11,-1858

000000008000a270 <i_10031>:
    8000a270:	f5812783          	lw	a5,-168(sp)

000000008000a274 <i_10032>:
    8000a274:	00000013          	nop

000000008000a278 <i_10033>:
    8000a278:	eb710823          	sb	s7,-336(sp)

000000008000a27c <i_10034>:
    8000a27c:	0266c663          	blt	a3,t1,8000a2a8 <i_10044>

000000008000a280 <i_10035>:
    8000a280:	02dd0bb3          	mul	s7,s10,a3

000000008000a284 <i_10036>:
    8000a284:	03621463          	bne	tp,s6,8000a2ac <i_10045>

000000008000a288 <i_10037>:
    8000a288:	bb8ecb93          	xori	s7,t4,-1096

000000008000a28c <i_10038>:
    8000a28c:	013786b3          	add	a3,a5,s3

000000008000a290 <i_10039>:
    8000a290:	013c0d33          	add	s10,s8,s3

000000008000a294 <i_10040>:
    8000a294:	00130313          	addi	t1,t1,1
    8000a298:	fdb34ce3          	blt	t1,s11,8000a270 <i_10031>

000000008000a29c <i_10041>:
    8000a29c:	00d9ba33          	sltu	s4,s3,a3

000000008000a2a0 <i_10042>:
    8000a2a0:	00122533          	slt	a0,tp,ra

000000008000a2a4 <i_10043>:
    8000a2a4:	00dd46b3          	xor	a3,s10,a3

000000008000a2a8 <i_10044>:
    8000a2a8:	00000013          	nop

000000008000a2ac <i_10045>:
    8000a2ac:	1bc12b83          	lw	s7,444(sp)

000000008000a2b0 <i_10046>:
    8000a2b0:	00000013          	nop

000000008000a2b4 <i_10047>:
    8000a2b4:	85700213          	li	tp,-1961

000000008000a2b8 <i_10048>:
    8000a2b8:	86700093          	li	ra,-1945

000000008000a2bc <i_10049>:
    8000a2bc:	eb813c83          	ld	s9,-328(sp)

000000008000a2c0 <i_10050>:
    8000a2c0:	02011983          	lh	s3,32(sp)

000000008000a2c4 <i_10051>:
    8000a2c4:	eee14803          	lbu	a6,-274(sp)

000000008000a2c8 <i_10052>:
    8000a2c8:	e3f10983          	lb	s3,-449(sp)

000000008000a2cc <i_10053>:
    8000a2cc:	11412e23          	sw	s4,284(sp)

000000008000a2d0 <i_10054>:
    8000a2d0:	030aabb3          	mulhsu	s7,s5,a6

000000008000a2d4 <i_10055>:
    8000a2d4:	00000013          	nop

000000008000a2d8 <i_10056>:
    8000a2d8:	57082593          	slti	a1,a6,1392

000000008000a2dc <i_10057>:
    8000a2dc:	0065c463          	blt	a1,t1,8000a2e4 <i_10059>

000000008000a2e0 <i_10058>:
    8000a2e0:	0179a333          	slt	t1,s3,s7

000000008000a2e4 <i_10059>:
    8000a2e4:	193100a3          	sb	s3,385(sp)

000000008000a2e8 <i_10060>:
    8000a2e8:	36e86593          	ori	a1,a6,878

000000008000a2ec <i_10061>:
    8000a2ec:	01b00d93          	li	s11,27

000000008000a2f0 <i_10062>:
    8000a2f0:	01bb9c3b          	sllw	s8,s7,s11

000000008000a2f4 <i_10063>:
    8000a2f4:	00120213          	addi	tp,tp,1 # 1 <main-0x7fffffff>
    8000a2f8:	fc1262e3          	bltu	tp,ra,8000a2bc <i_10049>

000000008000a2fc <i_10064>:
    8000a2fc:	0139d463          	ble	s3,s3,8000a304 <i_10066>

000000008000a300 <i_10065>:
    8000a300:	4015db9b          	sraiw	s7,a1,0x1

000000008000a304 <i_10066>:
    8000a304:	d5ca099b          	addiw	s3,s4,-676

000000008000a308 <i_10067>:
    8000a308:	09813a03          	ld	s4,152(sp)

000000008000a30c <i_10068>:
    8000a30c:	01ca0cb3          	add	s9,s4,t3

000000008000a310 <i_10069>:
    8000a310:	09013a03          	ld	s4,144(sp)

000000008000a314 <i_10070>:
    8000a314:	402cda1b          	sraiw	s4,s9,0x2

000000008000a318 <i_10071>:
    8000a318:	49ca2c93          	slti	s9,s4,1180

000000008000a31c <i_10072>:
    8000a31c:	039cf463          	bleu	s9,s9,8000a344 <i_10082>

000000008000a320 <i_10073>:
    8000a320:	ff413c23          	sd	s4,-8(sp)

000000008000a324 <i_10074>:
    8000a324:	1ae15a03          	lhu	s4,430(sp)

000000008000a328 <i_10075>:
    8000a328:	0192c2b3          	xor	t0,t0,s9

000000008000a32c <i_10076>:
    8000a32c:	0347e063          	bltu	a5,s4,8000a34c <i_10084>

000000008000a330 <i_10077>:
    8000a330:	e9911423          	sh	s9,-376(sp)

000000008000a334 <i_10078>:
    8000a334:	fe512c23          	sw	t0,-8(sp)

000000008000a338 <i_10079>:
    8000a338:	00e00c13          	li	s8,14

000000008000a33c <i_10080>:
    8000a33c:	01859cbb          	sllw	s9,a1,s8

000000008000a340 <i_10081>:
    8000a340:	f0016a83          	lwu	s5,-256(sp)

000000008000a344 <i_10082>:
    8000a344:	ff415c83          	lhu	s9,-12(sp)

000000008000a348 <i_10083>:
    8000a348:	00215c83          	lhu	s9,2(sp)

000000008000a34c <i_10084>:
    8000a34c:	e6c10a03          	lb	s4,-404(sp)

000000008000a350 <i_10085>:
    8000a350:	0140a0b3          	slt	ra,ra,s4

000000008000a354 <i_10086>:
    8000a354:	1b912823          	sw	s9,432(sp)

000000008000a358 <i_10087>:
    8000a358:	019a6e63          	bltu	s4,s9,8000a374 <i_10094>

000000008000a35c <i_10088>:
    8000a35c:	6c20f313          	andi	t1,ra,1730

000000008000a360 <i_10089>:
    8000a360:	0e010a03          	lb	s4,224(sp)

000000008000a364 <i_10090>:
    8000a364:	001365b3          	or	a1,t1,ra

000000008000a368 <i_10091>:
    8000a368:	00b46863          	bltu	s0,a1,8000a378 <i_10095>

000000008000a36c <i_10092>:
    8000a36c:	02da6063          	bltu	s4,a3,8000a38c <i_10100>

000000008000a370 <i_10093>:
    8000a370:	41940c3b          	subw	s8,s0,s9

000000008000a374 <i_10094>:
    8000a374:	e2613423          	sd	t1,-472(sp)

000000008000a378 <i_10095>:
    8000a378:	01858cb3          	add	s9,a1,s8

000000008000a37c <i_10096>:
    8000a37c:	01412303          	lw	t1,20(sp)

000000008000a380 <i_10097>:
    8000a380:	00b59663          	bne	a1,a1,8000a38c <i_10100>

000000008000a384 <i_10098>:
    8000a384:	01b00213          	li	tp,27

000000008000a388 <i_10099>:
    8000a388:	40435233          	sra	tp,t1,tp

000000008000a38c <i_10100>:
    8000a38c:	19b10823          	sb	s11,400(sp)

000000008000a390 <i_10101>:
    8000a390:	eeb13823          	sd	a1,-272(sp)

000000008000a394 <i_10102>:
    8000a394:	11910da3          	sb	s9,283(sp)

000000008000a398 <i_10103>:
    8000a398:	02d00e93          	li	t4,45

000000008000a39c <i_10104>:
    8000a39c:	01d5d7b3          	srl	a5,a1,t4

000000008000a3a0 <i_10105>:
    8000a3a0:	08f14503          	lbu	a0,143(sp)

000000008000a3a4 <i_10106>:
    8000a3a4:	02a00313          	li	t1,42

000000008000a3a8 <i_10107>:
    8000a3a8:	0067dcb3          	srl	s9,a5,t1

000000008000a3ac <i_10108>:
    8000a3ac:	003d5593          	srli	a1,s10,0x3

000000008000a3b0 <i_10109>:
    8000a3b0:	00ac0263          	beq	s8,a0,8000a3b4 <i_10110>

000000008000a3b4 <i_10110>:
    8000a3b4:	00650263          	beq	a0,t1,8000a3b8 <i_10111>

000000008000a3b8 <i_10111>:
    8000a3b8:	05016a03          	lwu	s4,80(sp)

000000008000a3bc <i_10112>:
    8000a3bc:	17013a83          	ld	s5,368(sp)

000000008000a3c0 <i_10113>:
    8000a3c0:	e5812a83          	lw	s5,-424(sp)

000000008000a3c4 <i_10114>:
    8000a3c4:	f4314d03          	lbu	s10,-189(sp)

000000008000a3c8 <i_10115>:
    8000a3c8:	0324e463          	bltu	s1,s2,8000a3f0 <i_10125>

000000008000a3cc <i_10116>:
    8000a3cc:	1cc12a03          	lw	s4,460(sp)

000000008000a3d0 <i_10117>:
    8000a3d0:	10d10723          	sb	a3,270(sp)

000000008000a3d4 <i_10118>:
    8000a3d4:	035af263          	bleu	s5,s5,8000a3f8 <i_10127>

000000008000a3d8 <i_10119>:
    8000a3d8:	e1c12c83          	lw	s9,-484(sp)

000000008000a3dc <i_10120>:
    8000a3dc:	f8812e83          	lw	t4,-120(sp)

000000008000a3e0 <i_10121>:
    8000a3e0:	0c714183          	lbu	gp,199(sp)

000000008000a3e4 <i_10122>:
    8000a3e4:	f3011b03          	lh	s6,-208(sp)

000000008000a3e8 <i_10123>:
    8000a3e8:	00000013          	nop

000000008000a3ec <i_10124>:
    8000a3ec:	00ab0f33          	add	t5,s6,a0

000000008000a3f0 <i_10125>:
    8000a3f0:	00000013          	nop

000000008000a3f4 <i_10126>:
    8000a3f4:	685ab617          	auipc	a2,0x685ab

000000008000a3f8 <i_10127>:
    8000a3f8:	1b013b03          	ld	s6,432(sp)

000000008000a3fc <i_10128>:
    8000a3fc:	02a4c3b3          	div	t2,s1,a0

000000008000a400 <i_10129>:
    8000a400:	76100a93          	li	s5,1889

000000008000a404 <i_10130>:
    8000a404:	77500b93          	li	s7,1909

000000008000a408 <i_10131>:
    8000a408:	402bd413          	srai	s0,s7,0x2

000000008000a40c <i_10132>:
    8000a40c:	f0c11283          	lh	t0,-244(sp)

000000008000a410 <i_10133>:
    8000a410:	74700513          	li	a0,1863

000000008000a414 <i_10134>:
    8000a414:	74a00493          	li	s1,1866

000000008000a418 <i_10135>:
    8000a418:	0369c333          	div	t1,s3,s6

000000008000a41c <i_10136>:
    8000a41c:	00150513          	addi	a0,a0,1
    8000a420:	fe956ce3          	bltu	a0,s1,8000a418 <i_10135>

000000008000a424 <i_10137>:
    8000a424:	edc12383          	lw	t2,-292(sp)

000000008000a428 <i_10138>:
    8000a428:	001a8a93          	addi	s5,s5,1
    8000a42c:	fd7aeee3          	bltu	s5,s7,8000a408 <i_10131>

000000008000a430 <i_10139>:
    8000a430:	0274d433          	divu	s0,s1,t2

000000008000a434 <i_10140>:
    8000a434:	ffe11d23          	sh	t5,-6(sp)

000000008000a438 <i_10141>:
    8000a438:	ec110b23          	sb	ra,-298(sp)

000000008000a43c <i_10142>:
    8000a43c:	03c9a333          	mulhsu	t1,s3,t3

000000008000a440 <i_10143>:
    8000a440:	00000013          	nop

000000008000a444 <i_10144>:
    8000a444:	74100f13          	li	t5,1857

000000008000a448 <i_10145>:
    8000a448:	75500e13          	li	t3,1877

000000008000a44c <i_10146>:
    8000a44c:	01c34463          	blt	t1,t3,8000a454 <i_10148>

000000008000a450 <i_10147>:
    8000a450:	fde13423          	sd	t5,-56(sp)

000000008000a454 <i_10148>:
    8000a454:	03ef50bb          	divuw	ra,t5,t5

000000008000a458 <i_10149>:
    8000a458:	f2016c03          	lwu	s8,-224(sp)

000000008000a45c <i_10150>:
    8000a45c:	09c16c03          	lwu	s8,156(sp)

000000008000a460 <i_10151>:
    8000a460:	00000013          	nop

000000008000a464 <i_10152>:
    8000a464:	001f0f13          	addi	t5,t5,1
    8000a468:	ffcf42e3          	blt	t5,t3,8000a44c <i_10146>

000000008000a46c <i_10153>:
    8000a46c:	fbc12e23          	sw	t3,-68(sp)

000000008000a470 <i_10154>:
    8000a470:	026f0db3          	mul	s11,t5,t1

000000008000a474 <i_10155>:
    8000a474:	018d2ab3          	slt	s5,s10,s8

000000008000a478 <i_10156>:
    8000a478:	08615303          	lhu	t1,134(sp)

000000008000a47c <i_10157>:
    8000a47c:	00000013          	nop

000000008000a480 <i_10158>:
    8000a480:	8aa00d13          	li	s10,-1878

000000008000a484 <i_10159>:
    8000a484:	8ac00f13          	li	t5,-1876

000000008000a488 <i_10160>:
    8000a488:	01ef7e63          	bleu	t5,t5,8000a4a4 <i_10167>

000000008000a48c <i_10161>:
    8000a48c:	01af8a63          	beq	t6,s10,8000a4a0 <i_10166>

000000008000a490 <i_10162>:
    8000a490:	00235b93          	srli	s7,t1,0x2

000000008000a494 <i_10163>:
    8000a494:	1e412303          	lw	t1,484(sp)

000000008000a498 <i_10164>:
    8000a498:	00000013          	nop

000000008000a49c <i_10165>:
    8000a49c:	f2016303          	lwu	t1,-224(sp)

000000008000a4a0 <i_10166>:
    8000a4a0:	046106a3          	sb	t1,77(sp)

000000008000a4a4 <i_10167>:
    8000a4a4:	0033579b          	srliw	a5,t1,0x3

000000008000a4a8 <i_10168>:
    8000a4a8:	0a612023          	sw	t1,160(sp)

000000008000a4ac <i_10169>:
    8000a4ac:	001d0d13          	addi	s10,s10,1
    8000a4b0:	fded1ce3          	bne	s10,t5,8000a488 <i_10160>

000000008000a4b4 <i_10170>:
    8000a4b4:	4047d793          	srai	a5,a5,0x4

000000008000a4b8 <i_10171>:
    8000a4b8:	00700e13          	li	t3,7

000000008000a4bc <i_10172>:
    8000a4bc:	41c1dbb3          	sra	s7,gp,t3

000000008000a4c0 <i_10173>:
    8000a4c0:	86f00193          	li	gp,-1937

000000008000a4c4 <i_10174>:
    8000a4c4:	87f00313          	li	t1,-1921

000000008000a4c8 <i_10175>:
    8000a4c8:	f01fc617          	auipc	a2,0xf01fc

000000008000a4cc <i_10176>:
    8000a4cc:	02000613          	li	a2,32

000000008000a4d0 <i_10177>:
    8000a4d0:	00c65633          	srl	a2,a2,a2

000000008000a4d4 <i_10178>:
    8000a4d4:	04812603          	lw	a2,72(sp)

000000008000a4d8 <i_10179>:
    8000a4d8:	02c67463          	bleu	a2,a2,8000a500 <i_10189>

000000008000a4dc <i_10180>:
    8000a4dc:	00c66c63          	bltu	a2,a2,8000a4f4 <i_10186>

000000008000a4e0 <i_10181>:
    8000a4e0:	02c672bb          	remuw	t0,a2,a2

000000008000a4e4 <i_10182>:
    8000a4e4:	02c635b3          	mulhu	a1,a2,a2

000000008000a4e8 <i_10183>:
    8000a4e8:	f8e11603          	lh	a2,-114(sp)

000000008000a4ec <i_10184>:
    8000a4ec:	19b10423          	sb	s11,392(sp)

000000008000a4f0 <i_10185>:
    8000a4f0:	06013283          	ld	t0,96(sp)

000000008000a4f4 <i_10186>:
    8000a4f4:	00c664b3          	or	s1,a2,a2

000000008000a4f8 <i_10187>:
    8000a4f8:	f18b5597          	auipc	a1,0xf18b5

000000008000a4fc <i_10188>:
    8000a4fc:	02566263          	bltu	a2,t0,8000a520 <i_10196>

000000008000a500 <i_10189>:
    8000a500:	0020d613          	srli	a2,ra,0x2

000000008000a504 <i_10190>:
    8000a504:	4025551b          	sraiw	a0,a0,0x2

000000008000a508 <i_10191>:
    8000a508:	00118193          	addi	gp,gp,1
    8000a50c:	fa337ee3          	bleu	gp,t1,8000a4c8 <i_10175>

000000008000a510 <i_10192>:
    8000a510:	00c64c63          	blt	a2,a2,8000a528 <i_10198>

000000008000a514 <i_10193>:
    8000a514:	f7813c03          	ld	s8,-136(sp)

000000008000a518 <i_10194>:
    8000a518:	10c11823          	sh	a2,272(sp)

000000008000a51c <i_10195>:
    8000a51c:	02a52a33          	mulhsu	s4,a0,a0

000000008000a520 <i_10196>:
    8000a520:	025a5063          	ble	t0,s4,8000a540 <i_10204>

000000008000a524 <i_10197>:
    8000a524:	00c51263          	bne	a0,a2,8000a528 <i_10198>

000000008000a528 <i_10198>:
    8000a528:	16a10823          	sb	a0,368(sp)

000000008000a52c <i_10199>:
    8000a52c:	08a10223          	sb	a0,132(sp)

000000008000a530 <i_10200>:
    8000a530:	151beb93          	ori	s7,s7,337

000000008000a534 <i_10201>:
    8000a534:	038b8463          	beq	s7,s8,8000a55c <i_10211>

000000008000a538 <i_10202>:
    8000a538:	03614c03          	lbu	s8,54(sp)

000000008000a53c <i_10203>:
    8000a53c:	0033519b          	srliw	gp,t1,0x3

000000008000a540 <i_10204>:
    8000a540:	f6312c23          	sw	gp,-136(sp)

000000008000a544 <i_10205>:
    8000a544:	0141f663          	bleu	s4,gp,8000a550 <i_10208>

000000008000a548 <i_10206>:
    8000a548:	19011303          	lh	t1,400(sp)

000000008000a54c <i_10207>:
    8000a54c:	0032f863          	bleu	gp,t0,8000a55c <i_10211>

000000008000a550 <i_10208>:
    8000a550:	014d6863          	bltu	s10,s4,8000a560 <i_10212>

000000008000a554 <i_10209>:
    8000a554:	0c610f23          	sb	t1,222(sp)

000000008000a558 <i_10210>:
    8000a558:	a4b1c193          	xori	gp,gp,-1461

000000008000a55c <i_10211>:
    8000a55c:	01e00c13          	li	s8,30

000000008000a560 <i_10212>:
    8000a560:	018351b3          	srl	gp,t1,s8

000000008000a564 <i_10213>:
    8000a564:	e4416303          	lwu	t1,-444(sp)

000000008000a568 <i_10214>:
    8000a568:	17c15603          	lhu	a2,380(sp)

000000008000a56c <i_10215>:
    8000a56c:	003c531b          	srliw	t1,s8,0x3

000000008000a570 <i_10216>:
    8000a570:	82300293          	li	t0,-2013

000000008000a574 <i_10217>:
    8000a574:	82800c13          	li	s8,-2008

000000008000a578 <i_10218>:
    8000a578:	06010303          	lb	t1,96(sp)

000000008000a57c <i_10219>:
    8000a57c:	1a110183          	lb	gp,417(sp)

000000008000a580 <i_10220>:
    8000a580:	023c46bb          	divw	a3,s8,gp

000000008000a584 <i_10221>:
    8000a584:	0031f1b3          	and	gp,gp,gp

000000008000a588 <i_10222>:
    8000a588:	f4310023          	sb	gp,-192(sp)

000000008000a58c <i_10223>:
    8000a58c:	f9c15183          	lhu	gp,-100(sp)

000000008000a590 <i_10224>:
    8000a590:	1a313423          	sd	gp,424(sp)

000000008000a594 <i_10225>:
    8000a594:	19b14183          	lbu	gp,411(sp)

000000008000a598 <i_10226>:
    8000a598:	00128293          	addi	t0,t0,1
    8000a59c:	fd82eee3          	bltu	t0,s8,8000a578 <i_10218>

000000008000a5a0 <i_10227>:
    8000a5a0:	02d18463          	beq	gp,a3,8000a5c8 <i_10237>

000000008000a5a4 <i_10228>:
    8000a5a4:	00000013          	nop

000000008000a5a8 <i_10229>:
    8000a5a8:	004dd51b          	srliw	a0,s11,0x4

000000008000a5ac <i_10230>:
    8000a5ac:	00c18233          	add	tp,gp,a2

000000008000a5b0 <i_10231>:
    8000a5b0:	13c16403          	lwu	s0,316(sp)

000000008000a5b4 <i_10232>:
    8000a5b4:	00000013          	nop

000000008000a5b8 <i_10233>:
    8000a5b8:	18812203          	lw	tp,392(sp)

000000008000a5bc <i_10234>:
    8000a5bc:	16413823          	sd	tp,368(sp)

000000008000a5c0 <i_10235>:
    8000a5c0:	00000013          	nop

000000008000a5c4 <i_10236>:
    8000a5c4:	efc16083          	lwu	ra,-260(sp)

000000008000a5c8 <i_10237>:
    8000a5c8:	06615f03          	lhu	t5,102(sp)

000000008000a5cc <i_10238>:
    8000a5cc:	f5816183          	lwu	gp,-168(sp)

000000008000a5d0 <i_10239>:
    8000a5d0:	7b400c93          	li	s9,1972

000000008000a5d4 <i_10240>:
    8000a5d4:	7bb00d93          	li	s11,1979

000000008000a5d8 <i_10241>:
    8000a5d8:	16313423          	sd	gp,360(sp)

000000008000a5dc <i_10242>:
    8000a5dc:	15b10303          	lb	t1,347(sp)

000000008000a5e0 <i_10243>:
    8000a5e0:	01314183          	lbu	gp,19(sp)

000000008000a5e4 <i_10244>:
    8000a5e4:	18311223          	sh	gp,388(sp)

000000008000a5e8 <i_10245>:
    8000a5e8:	001c8c93          	addi	s9,s9,1
    8000a5ec:	ffbce6e3          	bltu	s9,s11,8000a5d8 <i_10241>

000000008000a5f0 <i_10246>:
    8000a5f0:	023191b3          	mulh	gp,gp,gp

000000008000a5f4 <i_10247>:
    8000a5f4:	00387863          	bleu	gp,a6,8000a604 <i_10251>

000000008000a5f8 <i_10248>:
    8000a5f8:	00319863          	bne	gp,gp,8000a608 <i_10252>

000000008000a5fc <i_10249>:
    8000a5fc:	fbc261b7          	lui	gp,0xfbc26

000000008000a600 <i_10250>:
    8000a600:	02647063          	bleu	t1,s0,8000a620 <i_10258>

000000008000a604 <i_10251>:
    8000a604:	19c16183          	lwu	gp,412(sp)

000000008000a608 <i_10252>:
    8000a608:	10311523          	sh	gp,266(sp)

000000008000a60c <i_10253>:
    8000a60c:	f2c15183          	lhu	gp,-212(sp)

000000008000a610 <i_10254>:
    8000a610:	02c67333          	remu	t1,a2,a2

000000008000a614 <i_10255>:
    8000a614:	1a614d83          	lbu	s11,422(sp)

000000008000a618 <i_10256>:
    8000a618:	00000013          	nop

000000008000a61c <i_10257>:
    8000a61c:	12610183          	lb	gp,294(sp)

000000008000a620 <i_10258>:
    8000a620:	09c16183          	lwu	gp,156(sp)

000000008000a624 <i_10259>:
    8000a624:	a2059a97          	auipc	s5,0xa2059

000000008000a628 <i_10260>:
    8000a628:	88400613          	li	a2,-1916

000000008000a62c <i_10261>:
    8000a62c:	88700493          	li	s1,-1913

000000008000a630 <i_10262>:
    8000a630:	023301bb          	mulw	gp,t1,gp

000000008000a634 <i_10263>:
    8000a634:	0d615a83          	lhu	s5,214(sp)

000000008000a638 <i_10264>:
    8000a638:	75600d93          	li	s11,1878

000000008000a63c <i_10265>:
    8000a63c:	76700313          	li	t1,1895

000000008000a640 <i_10266>:
    8000a640:	02eacab3          	div	s5,s5,a4

000000008000a644 <i_10267>:
    8000a644:	001d8d93          	addi	s11,s11,1 # ffffffffb323b001 <_end+0xffffffff3322abed>
    8000a648:	fe6dece3          	bltu	s11,t1,8000a640 <i_10266>

000000008000a64c <i_10268>:
    8000a64c:	9c4de213          	ori	tp,s11,-1596

000000008000a650 <i_10269>:
    8000a650:	00160613          	addi	a2,a2,1 # 702064c9 <main-0xfdf9b37>
    8000a654:	fc961ee3          	bne	a2,s1,8000a630 <i_10262>

000000008000a658 <i_10270>:
    8000a658:	eae13c23          	sd	a4,-328(sp)

000000008000a65c <i_10271>:
    8000a65c:	03bb9463          	bne	s7,s11,8000a684 <i_10281>

000000008000a660 <i_10272>:
    8000a660:	ff013b83          	ld	s7,-16(sp)

000000008000a664 <i_10273>:
    8000a664:	4029d993          	srai	s3,s3,0x2

000000008000a668 <i_10274>:
    8000a668:	00c12c83          	lw	s9,12(sp)

000000008000a66c <i_10275>:
    8000a66c:	02611e03          	lh	t3,38(sp)

000000008000a670 <i_10276>:
    8000a670:	013cc2b3          	xor	t0,s9,s3

000000008000a674 <i_10277>:
    8000a674:	15011503          	lh	a0,336(sp)

000000008000a678 <i_10278>:
    8000a678:	eb711e23          	sh	s7,-324(sp)

000000008000a67c <i_10279>:
    8000a67c:	06613423          	sd	t1,104(sp)

000000008000a680 <i_10280>:
    8000a680:	00000013          	nop

000000008000a684 <i_10281>:
    8000a684:	0022d09b          	srliw	ra,t0,0x2

000000008000a688 <i_10282>:
    8000a688:	05416c83          	lwu	s9,84(sp)

000000008000a68c <i_10283>:
    8000a68c:	85c00d93          	li	s11,-1956

000000008000a690 <i_10284>:
    8000a690:	86400a93          	li	s5,-1948

000000008000a694 <i_10285>:
    8000a694:	02ae4663          	blt	t3,a0,8000a6c0 <i_10295>

000000008000a698 <i_10286>:
    8000a698:	01be1463          	bne	t3,s11,8000a6a0 <i_10288>

000000008000a69c <i_10287>:
    8000a69c:	00c2fe63          	bleu	a2,t0,8000a6b8 <i_10293>

000000008000a6a0 <i_10288>:
    8000a6a0:	00409993          	slli	s3,ra,0x4

000000008000a6a4 <i_10289>:
    8000a6a4:	e7016c83          	lwu	s9,-400(sp)

000000008000a6a8 <i_10290>:
    8000a6a8:	001d8d93          	addi	s11,s11,1
    8000a6ac:	ff5d94e3          	bne	s11,s5,8000a694 <i_10285>

000000008000a6b0 <i_10291>:
    8000a6b0:	ea914083          	lbu	ra,-343(sp)

000000008000a6b4 <i_10292>:
    8000a6b4:	ef311d23          	sh	s3,-262(sp)

000000008000a6b8 <i_10293>:
    8000a6b8:	f5b14503          	lbu	a0,-165(sp)

000000008000a6bc <i_10294>:
    8000a6bc:	a20cac93          	slti	s9,s9,-1504

000000008000a6c0 <i_10295>:
    8000a6c0:	06c16c83          	lwu	s9,108(sp)

000000008000a6c4 <i_10296>:
    8000a6c4:	019e2cb3          	slt	s9,t3,s9

000000008000a6c8 <i_10297>:
    8000a6c8:	002c9c93          	slli	s9,s9,0x2

000000008000a6cc <i_10298>:
    8000a6cc:	028c8433          	mul	s0,s9,s0

000000008000a6d0 <i_10299>:
    8000a6d0:	fc812a03          	lw	s4,-56(sp)

000000008000a6d4 <i_10300>:
    8000a6d4:	002cdc9b          	srliw	s9,s9,0x2

000000008000a6d8 <i_10301>:
    8000a6d8:	403ede93          	srai	t4,t4,0x3

000000008000a6dc <i_10302>:
    8000a6dc:	dcbcec93          	ori	s9,s9,-565

000000008000a6e0 <i_10303>:
    8000a6e0:	00e00793          	li	a5,14

000000008000a6e4 <i_10304>:
    8000a6e4:	40fedcbb          	sraw	s9,t4,a5

000000008000a6e8 <i_10305>:
    8000a6e8:	011ac463          	blt	s5,a7,8000a6f0 <i_10307>

000000008000a6ec <i_10306>:
    8000a6ec:	03dcc263          	blt	s9,t4,8000a710 <i_10315>

000000008000a6f0 <i_10307>:
    8000a6f0:	fb816e83          	lwu	t4,-72(sp)

000000008000a6f4 <i_10308>:
    8000a6f4:	0fe10183          	lb	gp,254(sp)

000000008000a6f8 <i_10309>:
    8000a6f8:	e7d107a3          	sb	t4,-401(sp)

000000008000a6fc <i_10310>:
    8000a6fc:	029e92b3          	mulh	t0,t4,s1

000000008000a700 <i_10311>:
    8000a700:	c53ce793          	ori	a5,s9,-941

000000008000a704 <i_10312>:
    8000a704:	02fed263          	ble	a5,t4,8000a728 <i_10321>

000000008000a708 <i_10313>:
    8000a708:	00f29463          	bne	t0,a5,8000a710 <i_10315>

000000008000a70c <i_10314>:
    8000a70c:	fd811503          	lh	a0,-40(sp)

000000008000a710 <i_10315>:
    8000a710:	14714503          	lbu	a0,327(sp)

000000008000a714 <i_10316>:
    8000a714:	01928263          	beq	t0,s9,8000a718 <i_10317>

000000008000a718 <i_10317>:
    8000a718:	01200293          	li	t0,18

000000008000a71c <i_10318>:
    8000a71c:	005552bb          	srlw	t0,a0,t0

000000008000a720 <i_10319>:
    8000a720:	03a572b3          	remu	t0,a0,s10

000000008000a724 <i_10320>:
    8000a724:	08a10a23          	sb	a0,148(sp)

000000008000a728 <i_10321>:
    8000a728:	03a372b3          	remu	t0,t1,s10

000000008000a72c <i_10322>:
    8000a72c:	4012de13          	srai	t3,t0,0x1

000000008000a730 <i_10323>:
    8000a730:	7bd00d13          	li	s10,1981

000000008000a734 <i_10324>:
    8000a734:	7ca00513          	li	a0,1994

000000008000a738 <i_10325>:
    8000a738:	00000013          	nop

000000008000a73c <i_10326>:
    8000a73c:	00000013          	nop

000000008000a740 <i_10327>:
    8000a740:	77000313          	li	t1,1904

000000008000a744 <i_10328>:
    8000a744:	78200e93          	li	t4,1922

000000008000a748 <i_10329>:
    8000a748:	ff410323          	sb	s4,-26(sp)

000000008000a74c <i_10330>:
    8000a74c:	007ea3b3          	slt	t2,t4,t2

000000008000a750 <i_10331>:
    8000a750:	00130313          	addi	t1,t1,1
    8000a754:	ffd36ae3          	bltu	t1,t4,8000a748 <i_10329>

000000008000a758 <i_10332>:
    8000a758:	00a3ee63          	bltu	t2,a0,8000a774 <i_10338>

000000008000a75c <i_10333>:
    8000a75c:	e9c16303          	lwu	t1,-356(sp)

000000008000a760 <i_10334>:
    8000a760:	001d0d13          	addi	s10,s10,1
    8000a764:	fcad4ae3          	blt	s10,a0,8000a738 <i_10325>

000000008000a768 <i_10335>:
    8000a768:	03556b33          	rem	s6,a0,s5

000000008000a76c <i_10336>:
    8000a76c:	03bee7b3          	rem	a5,t4,s11

000000008000a770 <i_10337>:
    8000a770:	f6012503          	lw	a0,-160(sp)

000000008000a774 <i_10338>:
    8000a774:	fac16303          	lwu	t1,-84(sp)

000000008000a778 <i_10339>:
    8000a778:	00000013          	nop

000000008000a77c <i_10340>:
    8000a77c:	7b900d93          	li	s11,1977

000000008000a780 <i_10341>:
    8000a780:	7c900e93          	li	t4,1993

000000008000a784 <i_10342>:
    8000a784:	f5016a03          	lwu	s4,-176(sp)

000000008000a788 <i_10343>:
    8000a788:	02f7e463          	bltu	a5,a5,8000a7b0 <i_10352>

000000008000a78c <i_10344>:
    8000a78c:	001d8d93          	addi	s11,s11,1
    8000a790:	ffddeae3          	bltu	s11,t4,8000a784 <i_10342>

000000008000a794 <i_10345>:
    8000a794:	007a7663          	bleu	t2,s4,8000a7a0 <i_10348>

000000008000a798 <i_10346>:
    8000a798:	024dc9b3          	div	s3,s11,tp

000000008000a79c <i_10347>:
    8000a79c:	03d38063          	beq	t2,t4,8000a7bc <i_10355>

000000008000a7a0 <i_10348>:
    8000a7a0:	05312e23          	sw	s3,92(sp)

000000008000a7a4 <i_10349>:
    8000a7a4:	fa013383          	ld	t2,-96(sp)

000000008000a7a8 <i_10350>:
    8000a7a8:	fb013383          	ld	t2,-80(sp)

000000008000a7ac <i_10351>:
    8000a7ac:	02f3f063          	bleu	a5,t2,8000a7cc <i_10359>

000000008000a7b0 <i_10352>:
    8000a7b0:	1b412983          	lw	s3,436(sp)

000000008000a7b4 <i_10353>:
    8000a7b4:	17f13c23          	sd	t6,376(sp)

000000008000a7b8 <i_10354>:
    8000a7b8:	f4713023          	sd	t2,-192(sp)

000000008000a7bc <i_10355>:
    8000a7bc:	0079ee63          	bltu	s3,t2,8000a7d8 <i_10362>

000000008000a7c0 <i_10356>:
    8000a7c0:	0273c3bb          	divw	t2,t2,t2

000000008000a7c4 <i_10357>:
    8000a7c4:	0270f0b3          	remu	ra,ra,t2

000000008000a7c8 <i_10358>:
    8000a7c8:	12712023          	sw	t2,288(sp)

000000008000a7cc <i_10359>:
    8000a7cc:	0f73e313          	ori	t1,t2,247

000000008000a7d0 <i_10360>:
    8000a7d0:	01e38c63          	beq	t2,t5,8000a7e8 <i_10366>

000000008000a7d4 <i_10361>:
    8000a7d4:	f6712e23          	sw	t2,-132(sp)

000000008000a7d8 <i_10362>:
    8000a7d8:	007e4663          	blt	t3,t2,8000a7e4 <i_10365>

000000008000a7dc <i_10363>:
    8000a7dc:	f990f393          	andi	t2,ra,-103

000000008000a7e0 <i_10364>:
    8000a7e0:	4d79b993          	sltiu	s3,s3,1239

000000008000a7e4 <i_10365>:
    8000a7e4:	f9416c03          	lwu	s8,-108(sp)

000000008000a7e8 <i_10366>:
    8000a7e8:	03313023          	sd	s3,32(sp)

000000008000a7ec <i_10367>:
    8000a7ec:	0339c9bb          	divw	s3,s3,s3

000000008000a7f0 <i_10368>:
    8000a7f0:	ee612823          	sw	t1,-272(sp)

000000008000a7f4 <i_10369>:
    8000a7f4:	01012983          	lw	s3,16(sp)

000000008000a7f8 <i_10370>:
    8000a7f8:	0189fc33          	and	s8,s3,s8

000000008000a7fc <i_10371>:
    8000a7fc:	033c79bb          	remuw	s3,s8,s3

000000008000a800 <i_10372>:
    8000a800:	00600993          	li	s3,6

000000008000a804 <i_10373>:
    8000a804:	013999b3          	sll	s3,s3,s3

000000008000a808 <i_10374>:
    8000a808:	fd215e03          	lhu	t3,-46(sp)

000000008000a80c <i_10375>:
    8000a80c:	15313823          	sd	s3,336(sp)

000000008000a810 <i_10376>:
    8000a810:	033e663b          	remw	a2,t3,s3

000000008000a814 <i_10377>:
    8000a814:	00c9d663          	ble	a2,s3,8000a820 <i_10380>

000000008000a818 <i_10378>:
    8000a818:	0139f463          	bleu	s3,s3,8000a820 <i_10380>

000000008000a81c <i_10379>:
    8000a81c:	033659bb          	divuw	s3,a2,s3

000000008000a820 <i_10380>:
    8000a820:	e3912423          	sw	s9,-472(sp)

000000008000a824 <i_10381>:
    8000a824:	404b5b1b          	sraiw	s6,s6,0x4

000000008000a828 <i_10382>:
    8000a828:	7d300e13          	li	t3,2003

000000008000a82c <i_10383>:
    8000a82c:	7e500613          	li	a2,2021

000000008000a830 <i_10384>:
    8000a830:	ecfb7b13          	andi	s6,s6,-305

000000008000a834 <i_10385>:
    8000a834:	ea812b03          	lw	s6,-344(sp)

000000008000a838 <i_10386>:
    8000a838:	8b200c93          	li	s9,-1870

000000008000a83c <i_10387>:
    8000a83c:	8c000993          	li	s3,-1856

000000008000a840 <i_10388>:
    8000a840:	00000013          	nop

000000008000a844 <i_10389>:
    8000a844:	1a610b03          	lb	s6,422(sp)

000000008000a848 <i_10390>:
    8000a848:	f5914b03          	lbu	s6,-167(sp)

000000008000a84c <i_10391>:
    8000a84c:	001c8c93          	addi	s9,s9,1
    8000a850:	ff99d8e3          	ble	s9,s3,8000a840 <i_10388>

000000008000a854 <i_10392>:
    8000a854:	021b1b33          	mulh	s6,s6,ra

000000008000a858 <i_10393>:
    8000a858:	03500d93          	li	s11,53

000000008000a85c <i_10394>:
    8000a85c:	01bb1db3          	sll	s11,s6,s11

000000008000a860 <i_10395>:
    8000a860:	001e0e13          	addi	t3,t3,1
    8000a864:	fcce46e3          	blt	t3,a2,8000a830 <i_10384>

000000008000a868 <i_10396>:
    8000a868:	1d914b03          	lbu	s6,473(sp)

000000008000a86c <i_10397>:
    8000a86c:	03640463          	beq	s0,s6,8000a894 <i_10407>

000000008000a870 <i_10398>:
    8000a870:	f7412583          	lw	a1,-140(sp)

000000008000a874 <i_10399>:
    8000a874:	016b1c63          	bne	s6,s6,8000a88c <i_10405>

000000008000a878 <i_10400>:
    8000a878:	036b7063          	bleu	s6,s6,8000a898 <i_10408>

000000008000a87c <i_10401>:
    8000a87c:	ef612e23          	sw	s6,-260(sp)

000000008000a880 <i_10402>:
    8000a880:	0a013e83          	ld	t4,160(sp)

000000008000a884 <i_10403>:
    8000a884:	1c7d8b13          	addi	s6,s11,455

000000008000a888 <i_10404>:
    8000a888:	fa214d03          	lbu	s10,-94(sp)

000000008000a88c <i_10405>:
    8000a88c:	036e5b33          	divu	s6,t3,s6

000000008000a890 <i_10406>:
    8000a890:	00c00313          	li	t1,12

000000008000a894 <i_10407>:
    8000a894:	006b1d33          	sll	s10,s6,t1

000000008000a898 <i_10408>:
    8000a898:	00000013          	nop

000000008000a89c <i_10409>:
    8000a89c:	e9611023          	sh	s6,-384(sp)

000000008000a8a0 <i_10410>:
    8000a8a0:	88c00313          	li	t1,-1908

000000008000a8a4 <i_10411>:
    8000a8a4:	89300b13          	li	s6,-1901

000000008000a8a8 <i_10412>:
    8000a8a8:	00000013          	nop

000000008000a8ac <i_10413>:
    8000a8ac:	f9813403          	ld	s0,-104(sp)

000000008000a8b0 <i_10414>:
    8000a8b0:	ee812a23          	sw	s0,-268(sp)

000000008000a8b4 <i_10415>:
    8000a8b4:	01143433          	sltu	s0,s0,a7

000000008000a8b8 <i_10416>:
    8000a8b8:	00811923          	sh	s0,18(sp)

000000008000a8bc <i_10417>:
    8000a8bc:	00447e63          	bleu	tp,s0,8000a8d8 <i_10423>

000000008000a8c0 <i_10418>:
    8000a8c0:	00130313          	addi	t1,t1,1
    8000a8c4:	ff6312e3          	bne	t1,s6,8000a8a8 <i_10412>

000000008000a8c8 <i_10419>:
    8000a8c8:	00843433          	sltu	s0,s0,s0

000000008000a8cc <i_10420>:
    8000a8cc:	1b412403          	lw	s0,436(sp)

000000008000a8d0 <i_10421>:
    8000a8d0:	02866063          	bltu	a2,s0,8000a8f0 <i_10429>

000000008000a8d4 <i_10422>:
    8000a8d4:	5690b517          	auipc	a0,0x5690b

000000008000a8d8 <i_10423>:
    8000a8d8:	0a810ba3          	sb	s0,183(sp)

000000008000a8dc <i_10424>:
    8000a8dc:	09012d03          	lw	s10,144(sp)

000000008000a8e0 <i_10425>:
    8000a8e0:	04412503          	lw	a0,68(sp)

000000008000a8e4 <i_10426>:
    8000a8e4:	03950063          	beq	a0,s9,8000a904 <i_10434>

000000008000a8e8 <i_10427>:
    8000a8e8:	ec810223          	sb	s0,-316(sp)

000000008000a8ec <i_10428>:
    8000a8ec:	06e15203          	lhu	tp,110(sp)

000000008000a8f0 <i_10429>:
    8000a8f0:	6dfbcc97          	auipc	s9,0x6dfbc

000000008000a8f4 <i_10430>:
    8000a8f4:	03a26a3b          	remw	s4,tp,s10

000000008000a8f8 <i_10431>:
    8000a8f8:	00100693          	li	a3,1

000000008000a8fc <i_10432>:
    8000a8fc:	00d2133b          	sllw	t1,tp,a3

000000008000a900 <i_10433>:
    8000a900:	5566b613          	sltiu	a2,a3,1366

000000008000a904 <i_10434>:
    8000a904:	02d517b3          	mulh	a5,a0,a3

000000008000a908 <i_10435>:
    8000a908:	eed11d23          	sh	a3,-262(sp)

000000008000a90c <i_10436>:
    8000a90c:	0291f4b3          	remu	s1,gp,s1

000000008000a910 <i_10437>:
    8000a910:	03300193          	li	gp,51

000000008000a914 <i_10438>:
    8000a914:	003595b3          	sll	a1,a1,gp

000000008000a918 <i_10439>:
    8000a918:	8ebb2b13          	slti	s6,s6,-1813

000000008000a91c <i_10440>:
    8000a91c:	0030d093          	srli	ra,ra,0x3

000000008000a920 <i_10441>:
    8000a920:	0210a2b3          	mulhsu	t0,ra,ra

000000008000a924 <i_10442>:
    8000a924:	02a00793          	li	a5,42

000000008000a928 <i_10443>:
    8000a928:	00f4d4b3          	srl	s1,s1,a5

000000008000a92c <i_10444>:
    8000a92c:	02109463          	bne	ra,ra,8000a954 <i_10454>

000000008000a930 <i_10445>:
    8000a930:	07314503          	lbu	a0,115(sp)

000000008000a934 <i_10446>:
    8000a934:	03e520b3          	mulhsu	ra,a0,t5

000000008000a938 <i_10447>:
    8000a938:	401080b3          	sub	ra,ra,ra

000000008000a93c <i_10448>:
    8000a93c:	e8a11083          	lh	ra,-374(sp)

000000008000a940 <i_10449>:
    8000a940:	06114f03          	lbu	t5,97(sp)

000000008000a944 <i_10450>:
    8000a944:	0b816083          	lwu	ra,184(sp)

000000008000a948 <i_10451>:
    8000a948:	01800f13          	li	t5,24

000000008000a94c <i_10452>:
    8000a94c:	41e0df33          	sra	t5,ra,t5

000000008000a950 <i_10453>:
    8000a950:	021ae063          	bltu	s5,ra,8000a970 <i_10461>

000000008000a954 <i_10454>:
    8000a954:	0b016083          	lwu	ra,176(sp)

000000008000a958 <i_10455>:
    8000a958:	0e016f03          	lwu	t5,224(sp)

000000008000a95c <i_10456>:
    8000a95c:	03ef10b3          	mulh	ra,t5,t5

000000008000a960 <i_10457>:
    8000a960:	ec011083          	lh	ra,-320(sp)

000000008000a964 <i_10458>:
    8000a964:	00df42b3          	xor	t0,t5,a3

000000008000a968 <i_10459>:
    8000a968:	0010c263          	blt	ra,ra,8000a96c <i_10460>

000000008000a96c <i_10460>:
    8000a96c:	d0208c9b          	addiw	s9,ra,-766

000000008000a970 <i_10461>:
    8000a970:	0d410c83          	lb	s9,212(sp)

000000008000a974 <i_10462>:
    8000a974:	00200293          	li	t0,2

000000008000a978 <i_10463>:
    8000a978:	4050df3b          	sraw	t5,ra,t0

000000008000a97c <i_10464>:
    8000a97c:	0210f0bb          	remuw	ra,ra,ra

000000008000a980 <i_10465>:
    8000a980:	401c80bb          	subw	ra,s9,ra

000000008000a984 <i_10466>:
    8000a984:	1d813c83          	ld	s9,472(sp)

000000008000a988 <i_10467>:
    8000a988:	0010f263          	bleu	ra,ra,8000a98c <i_10468>

000000008000a98c <i_10468>:
    8000a98c:	05510083          	lb	ra,85(sp)

000000008000a990 <i_10469>:
    8000a990:	0010d263          	ble	ra,ra,8000a994 <i_10470>

000000008000a994 <i_10470>:
    8000a994:	001c80b3          	add	ra,s9,ra

000000008000a998 <i_10471>:
    8000a998:	f010ac93          	slti	s9,ra,-255

000000008000a99c <i_10472>:
    8000a99c:	4010d093          	srai	ra,ra,0x1

000000008000a9a0 <i_10473>:
    8000a9a0:	e4a13023          	sd	a0,-448(sp)

000000008000a9a4 <i_10474>:
    8000a9a4:	f5913c23          	sd	s9,-168(sp)

000000008000a9a8 <i_10475>:
    8000a9a8:	03700493          	li	s1,55

000000008000a9ac <i_10476>:
    8000a9ac:	0090d833          	srl	a6,ra,s1

000000008000a9b0 <i_10477>:
    8000a9b0:	246c8313          	addi	t1,s9,582 # edfc6b36 <_end+0x6dfb6722>

000000008000a9b4 <i_10478>:
    8000a9b4:	013cfc63          	bleu	s3,s9,8000a9cc <i_10484>

000000008000a9b8 <i_10479>:
    8000a9b8:	fa913823          	sd	s1,-80(sp)

000000008000a9bc <i_10480>:
    8000a9bc:	029c8cb3          	mul	s9,s9,s1

000000008000a9c0 <i_10481>:
    8000a9c0:	025babb3          	mulhsu	s7,s7,t0

000000008000a9c4 <i_10482>:
    8000a9c4:	0eb13823          	sd	a1,240(sp)

000000008000a9c8 <i_10483>:
    8000a9c8:	0b815b03          	lhu	s6,184(sp)

000000008000a9cc <i_10484>:
    8000a9cc:	01012283          	lw	t0,16(sp)

000000008000a9d0 <i_10485>:
    8000a9d0:	0d813583          	ld	a1,216(sp)

000000008000a9d4 <i_10486>:
    8000a9d4:	02b14583          	lbu	a1,43(sp)

000000008000a9d8 <i_10487>:
    8000a9d8:	04710c03          	lb	s8,71(sp)

000000008000a9dc <i_10488>:
    8000a9dc:	02b5e263          	bltu	a1,a1,8000aa00 <i_10497>

000000008000a9e0 <i_10489>:
    8000a9e0:	02a5f53b          	remuw	a0,a1,a0

000000008000a9e4 <i_10490>:
    8000a9e4:	fd611783          	lh	a5,-42(sp)

000000008000a9e8 <i_10491>:
    8000a9e8:	0377cbb3          	div	s7,a5,s7

000000008000a9ec <i_10492>:
    8000a9ec:	40fc0ebb          	subw	t4,s8,a5

000000008000a9f0 <i_10493>:
    8000a9f0:	01ac5663          	ble	s10,s8,8000a9fc <i_10496>

000000008000a9f4 <i_10494>:
    8000a9f4:	84277b93          	andi	s7,a4,-1982

000000008000a9f8 <i_10495>:
    8000a9f8:	03d5d463          	ble	t4,a1,8000aa20 <i_10505>

000000008000a9fc <i_10496>:
    8000a9fc:	0b816e83          	lwu	t4,184(sp)

000000008000aa00 <i_10497>:
    8000aa00:	01dece63          	blt	t4,t4,8000aa1c <i_10504>

000000008000aa04 <i_10498>:
    8000aa04:	19c16203          	lwu	tp,412(sp)

000000008000aa08 <i_10499>:
    8000aa08:	03ded063          	ble	t4,t4,8000aa28 <i_10507>

000000008000aa0c <i_10500>:
    8000aa0c:	e7d13c23          	sd	t4,-392(sp)

000000008000aa10 <i_10501>:
    8000aa10:	fc416e83          	lwu	t4,-60(sp)

000000008000aa14 <i_10502>:
    8000aa14:	01de9263          	bne	t4,t4,8000aa18 <i_10503>

000000008000aa18 <i_10503>:
    8000aa18:	024eceb3          	div	t4,t4,tp

000000008000aa1c <i_10504>:
    8000aa1c:	15e10e83          	lb	t4,350(sp)

000000008000aa20 <i_10505>:
    8000aa20:	7da3031b          	addiw	t1,t1,2010

000000008000aa24 <i_10506>:
    8000aa24:	003ed313          	srli	t1,t4,0x3

000000008000aa28 <i_10507>:
    8000aa28:	0244a4b3          	mulhsu	s1,s1,tp

000000008000aa2c <i_10508>:
    8000aa2c:	1aa11e03          	lh	t3,426(sp)

000000008000aa30 <i_10509>:
    8000aa30:	78d00213          	li	tp,1933

000000008000aa34 <i_10510>:
    8000aa34:	79800093          	li	ra,1944

000000008000aa38 <i_10511>:
    8000aa38:	00120213          	addi	tp,tp,1 # 1 <main-0x7fffffff>
    8000aa3c:	fe40fee3          	bleu	tp,ra,8000aa38 <i_10511>

000000008000aa40 <i_10512>:
    8000aa40:	0b013403          	ld	s0,176(sp)

000000008000aa44 <i_10513>:
    8000aa44:	03ce7463          	bleu	t3,t3,8000aa6c <i_10523>

000000008000aa48 <i_10514>:
    8000aa48:	1c610423          	sb	t1,456(sp)

000000008000aa4c <i_10515>:
    8000aa4c:	00322eb3          	slt	t4,tp,gp

000000008000aa50 <i_10516>:
    8000aa50:	0014cc63          	blt	s1,ra,8000aa68 <i_10522>

000000008000aa54 <i_10517>:
    8000aa54:	0090ee63          	bltu	ra,s1,8000aa70 <i_10524>

000000008000aa58 <i_10518>:
    8000aa58:	e4013783          	ld	a5,-448(sp)

000000008000aa5c <i_10519>:
    8000aa5c:	00679663          	bne	a5,t1,8000aa68 <i_10522>

000000008000aa60 <i_10520>:
    8000aa60:	e6815303          	lhu	t1,-408(sp)

000000008000aa64 <i_10521>:
    8000aa64:	00408863          	beq	ra,tp,8000aa74 <i_10525>

000000008000aa68 <i_10522>:
    8000aa68:	f6812e83          	lw	t4,-152(sp)

000000008000aa6c <i_10523>:
    8000aa6c:	02933e33          	mulhu	t3,t1,s1

000000008000aa70 <i_10524>:
    8000aa70:	02f4fb33          	remu	s6,s1,a5

000000008000aa74 <i_10525>:
    8000aa74:	01cb6863          	bltu	s6,t3,8000aa84 <i_10529>

000000008000aa78 <i_10526>:
    8000aa78:	01000b93          	li	s7,16

000000008000aa7c <i_10527>:
    8000aa7c:	0173563b          	srlw	a2,t1,s7

000000008000aa80 <i_10528>:
    8000aa80:	f6816503          	lwu	a0,-152(sp)

000000008000aa84 <i_10529>:
    8000aa84:	00e37863          	bleu	a4,t1,8000aa94 <i_10533>

000000008000aa88 <i_10530>:
    8000aa88:	02436633          	rem	a2,t1,tp

000000008000aa8c <i_10531>:
    8000aa8c:	0267433b          	divw	t1,a4,t1

000000008000aa90 <i_10532>:
    8000aa90:	00000013          	nop

000000008000aa94 <i_10533>:
    8000aa94:	00000013          	nop

000000008000aa98 <i_10534>:
    8000aa98:	ea612423          	sw	t1,-344(sp)

000000008000aa9c <i_10535>:
    8000aa9c:	77d00313          	li	t1,1917

000000008000aaa0 <i_10536>:
    8000aaa0:	77f00d93          	li	s11,1919

000000008000aaa4 <i_10537>:
    8000aaa4:	00630463          	beq	t1,t1,8000aaac <i_10539>

000000008000aaa8 <i_10538>:
    8000aaa8:	fbe15483          	lhu	s1,-66(sp)

000000008000aaac <i_10539>:
    8000aaac:	fa613c23          	sd	t1,-72(sp)

000000008000aab0 <i_10540>:
    8000aab0:	ff111123          	sh	a7,-30(sp)

000000008000aab4 <i_10541>:
    8000aab4:	10412603          	lw	a2,260(sp)

000000008000aab8 <i_10542>:
    8000aab8:	00130313          	addi	t1,t1,1
    8000aabc:	fe6dd4e3          	ble	t1,s11,8000aaa4 <i_10537>

000000008000aac0 <i_10543>:
    8000aac0:	02b65263          	ble	a1,a2,8000aae4 <i_10552>

000000008000aac4 <i_10544>:
    8000aac4:	ea210d03          	lb	s10,-350(sp)

000000008000aac8 <i_10545>:
    8000aac8:	00f4f863          	bleu	a5,s1,8000aad8 <i_10549>

000000008000aacc <i_10546>:
    8000aacc:	00c66263          	bltu	a2,a2,8000aad0 <i_10547>

000000008000aad0 <i_10547>:
    8000aad0:	01ad0663          	beq	s10,s10,8000aadc <i_10550>

000000008000aad4 <i_10548>:
    8000aad4:	03f00393          	li	t2,63

000000008000aad8 <i_10549>:
    8000aad8:	0077d633          	srl	a2,a5,t2

000000008000aadc <i_10550>:
    8000aadc:	02c64d3b          	divw	s10,a2,a2

000000008000aae0 <i_10551>:
    8000aae0:	f6910e03          	lb	t3,-151(sp)

000000008000aae4 <i_10552>:
    8000aae4:	01c67ab3          	and	s5,a2,t3

000000008000aae8 <i_10553>:
    8000aae8:	0390d0b3          	divu	ra,ra,s9

000000008000aaec <i_10554>:
    8000aaec:	73200193          	li	gp,1842

000000008000aaf0 <i_10555>:
    8000aaf0:	74200613          	li	a2,1858

000000008000aaf4 <i_10556>:
    8000aaf4:	02664333          	div	t1,a2,t1

000000008000aaf8 <i_10557>:
    8000aaf8:	f8215a83          	lhu	s5,-126(sp)

000000008000aafc <i_10558>:
    8000aafc:	6ec30093          	addi	ra,t1,1772

000000008000ab00 <i_10559>:
    8000ab00:	f2113823          	sd	ra,-208(sp)

000000008000ab04 <i_10560>:
    8000ab04:	e3014a03          	lbu	s4,-464(sp)

000000008000ab08 <i_10561>:
    8000ab08:	03435463          	ble	s4,t1,8000ab30 <i_10570>

000000008000ab0c <i_10562>:
    8000ab0c:	00118193          	addi	gp,gp,1 # fffffffffbc26001 <_end+0xffffffff7bc15bed>
    8000ab10:	fec1e2e3          	bltu	gp,a2,8000aaf4 <i_10556>

000000008000ab14 <i_10563>:
    8000ab14:	f7e10aa3          	sb	t5,-139(sp)

000000008000ab18 <i_10564>:
    8000ab18:	404a531b          	sraiw	t1,s4,0x4

000000008000ab1c <i_10565>:
    8000ab1c:	03a0ddb3          	divu	s11,ra,s10

000000008000ab20 <i_10566>:
    8000ab20:	00409093          	slli	ra,ra,0x4

000000008000ab24 <i_10567>:
    8000ab24:	03408dbb          	mulw	s11,ra,s4

000000008000ab28 <i_10568>:
    8000ab28:	026dc463          	blt	s11,t1,8000ab50 <i_10578>

000000008000ab2c <i_10569>:
    8000ab2c:	e2612223          	sw	t1,-476(sp)

000000008000ab30 <i_10570>:
    8000ab30:	ff211483          	lh	s1,-14(sp)

000000008000ab34 <i_10571>:
    8000ab34:	ed210303          	lb	t1,-302(sp)

000000008000ab38 <i_10572>:
    8000ab38:	f0215203          	lhu	tp,-254(sp)

000000008000ab3c <i_10573>:
    8000ab3c:	8d846413          	ori	s0,s0,-1832

000000008000ab40 <i_10574>:
    8000ab40:	e7611403          	lh	s0,-394(sp)

000000008000ab44 <i_10575>:
    8000ab44:	00645c63          	ble	t1,s0,8000ab5c <i_10581>

000000008000ab48 <i_10576>:
    8000ab48:	02413423          	sd	tp,40(sp)

000000008000ab4c <i_10577>:
    8000ab4c:	00000013          	nop

000000008000ab50 <i_10578>:
    8000ab50:	00000013          	nop

000000008000ab54 <i_10579>:
    8000ab54:	00000013          	nop

000000008000ab58 <i_10580>:
    8000ab58:	00000013          	nop

000000008000ab5c <i_10581>:
    8000ab5c:	01a00b93          	li	s7,26

000000008000ab60 <i_10582>:
    8000ab60:	017f10bb          	sllw	ra,t5,s7

000000008000ab64 <i_10583>:
    8000ab64:	78700613          	li	a2,1927

000000008000ab68 <i_10584>:
    8000ab68:	79100593          	li	a1,1937

000000008000ab6c <i_10585>:
    8000ab6c:	0210c7b3          	div	a5,ra,ra

000000008000ab70 <i_10586>:
    8000ab70:	00160613          	addi	a2,a2,1
    8000ab74:	feb66ce3          	bltu	a2,a1,8000ab6c <i_10585>

000000008000ab78 <i_10587>:
    8000ab78:	f9711c23          	sh	s7,-104(sp)

000000008000ab7c <i_10588>:
    8000ab7c:	fbc10603          	lb	a2,-68(sp)

000000008000ab80 <i_10589>:
    8000ab80:	e3410b83          	lb	s7,-460(sp)

000000008000ab84 <i_10590>:
    8000ab84:	017be463          	bltu	s7,s7,8000ab8c <i_10592>

000000008000ab88 <i_10591>:
    8000ab88:	fde14403          	lbu	s0,-34(sp)

000000008000ab8c <i_10592>:
    8000ab8c:	00cff2b3          	and	t0,t6,a2

000000008000ab90 <i_10593>:
    8000ab90:	02160f33          	mul	t5,a2,ra

000000008000ab94 <i_10594>:
    8000ab94:	18f11823          	sh	a5,400(sp)

000000008000ab98 <i_10595>:
    8000ab98:	e7710423          	sb	s7,-408(sp)

000000008000ab9c <i_10596>:
    8000ab9c:	41760ebb          	subw	t4,a2,s7

000000008000aba0 <i_10597>:
    8000aba0:	ed013283          	ld	t0,-304(sp)

000000008000aba4 <i_10598>:
    8000aba4:	0ac15083          	lhu	ra,172(sp)

000000008000aba8 <i_10599>:
    8000aba8:	12813583          	ld	a1,296(sp)

000000008000abac <i_10600>:
    8000abac:	f2c11b23          	sh	a2,-202(sp)

000000008000abb0 <i_10601>:
    8000abb0:	00e11603          	lh	a2,14(sp)

000000008000abb4 <i_10602>:
    8000abb4:	e4814603          	lbu	a2,-440(sp)

000000008000abb8 <i_10603>:
    8000abb8:	0a813603          	ld	a2,168(sp)

000000008000abbc <i_10604>:
    8000abbc:	02c66633          	rem	a2,a2,a2

000000008000abc0 <i_10605>:
    8000abc0:	0384e4b3          	rem	s1,s1,s8

000000008000abc4 <i_10606>:
    8000abc4:	01b00f13          	li	t5,27

000000008000abc8 <i_10607>:
    8000abc8:	01e65a33          	srl	s4,a2,t5

000000008000abcc <i_10608>:
    8000abcc:	00ca6833          	or	a6,s4,a2

000000008000abd0 <i_10609>:
    8000abd0:	e6011a83          	lh	s5,-416(sp)

000000008000abd4 <i_10610>:
    8000abd4:	00ca7863          	bleu	a2,s4,8000abe4 <i_10614>

000000008000abd8 <i_10611>:
    8000abd8:	f7416a83          	lwu	s5,-140(sp)

000000008000abdc <i_10612>:
    8000abdc:	01084a63          	blt	a6,a6,8000abf0 <i_10617>

000000008000abe0 <i_10613>:
    8000abe0:	1e815603          	lhu	a2,488(sp)

000000008000abe4 <i_10614>:
    8000abe4:	02900a93          	li	s5,41

000000008000abe8 <i_10615>:
    8000abe8:	415adab3          	sra	s5,s5,s5

000000008000abec <i_10616>:
    8000abec:	0e6a8c9b          	addiw	s9,s5,230

000000008000abf0 <i_10617>:
    8000abf0:	035cfabb          	remuw	s5,s9,s5

000000008000abf4 <i_10618>:
    8000abf4:	02815083          	lhu	ra,40(sp)

000000008000abf8 <i_10619>:
    8000abf8:	ea412a83          	lw	s5,-348(sp)

000000008000abfc <i_10620>:
    8000abfc:	035a9ab3          	mulh	s5,s5,s5

000000008000ac00 <i_10621>:
    8000ac00:	01561663          	bne	a2,s5,8000ac0c <i_10624>

000000008000ac04 <i_10622>:
    8000ac04:	00400693          	li	a3,4

000000008000ac08 <i_10623>:
    8000ac08:	40dadcbb          	sraw	s9,s5,a3

000000008000ac0c <i_10624>:
    8000ac0c:	e6c14c83          	lbu	s9,-404(sp)

000000008000ac10 <i_10625>:
    8000ac10:	0356fe3b          	remuw	t3,a3,s5

000000008000ac14 <i_10626>:
    8000ac14:	04813c83          	ld	s9,72(sp)

000000008000ac18 <i_10627>:
    8000ac18:	001d8d33          	add	s10,s11,ra

000000008000ac1c <i_10628>:
    8000ac1c:	87f00493          	li	s1,-1921

000000008000ac20 <i_10629>:
    8000ac20:	88900d93          	li	s11,-1911

000000008000ac24 <i_10630>:
    8000ac24:	0e416a03          	lwu	s4,228(sp)

000000008000ac28 <i_10631>:
    8000ac28:	f1913c23          	sd	s9,-232(sp)

000000008000ac2c <i_10632>:
    8000ac2c:	098e0a13          	addi	s4,t3,152

000000008000ac30 <i_10633>:
    8000ac30:	0350c463          	blt	ra,s5,8000ac58 <i_10642>

000000008000ac34 <i_10634>:
    8000ac34:	17416c83          	lwu	s9,372(sp)

000000008000ac38 <i_10635>:
    8000ac38:	00000013          	nop

000000008000ac3c <i_10636>:
    8000ac3c:	02e48263          	beq	s1,a4,8000ac60 <i_10644>

000000008000ac40 <i_10637>:
    8000ac40:	0c112c23          	sw	ra,216(sp)

000000008000ac44 <i_10638>:
    8000ac44:	e5816d03          	lwu	s10,-424(sp)

000000008000ac48 <i_10639>:
    8000ac48:	00148493          	addi	s1,s1,1
    8000ac4c:	fdb4cce3          	blt	s1,s11,8000ac24 <i_10630>

000000008000ac50 <i_10640>:
    8000ac50:	e2d10a03          	lb	s4,-467(sp)

000000008000ac54 <i_10641>:
    8000ac54:	0380cc3b          	divw	s8,ra,s8

000000008000ac58 <i_10642>:
    8000ac58:	006ae863          	bltu	s5,t1,8000ac68 <i_10646>

000000008000ac5c <i_10643>:
    8000ac5c:	f1014383          	lbu	t2,-240(sp)

000000008000ac60 <i_10644>:
    8000ac60:	00013083          	ld	ra,0(sp)

000000008000ac64 <i_10645>:
    8000ac64:	0d413c23          	sd	s4,216(sp)

000000008000ac68 <i_10646>:
    8000ac68:	06111723          	sh	ra,110(sp)

000000008000ac6c <i_10647>:
    8000ac6c:	d277c5b7          	lui	a1,0xd277c

000000008000ac70 <i_10648>:
    8000ac70:	029593b3          	mulh	t2,a1,s1

000000008000ac74 <i_10649>:
    8000ac74:	001fdc13          	srli	s8,t6,0x1

000000008000ac78 <i_10650>:
    8000ac78:	00000013          	nop

000000008000ac7c <i_10651>:
    8000ac7c:	7e000593          	li	a1,2016

000000008000ac80 <i_10652>:
    8000ac80:	7eb00393          	li	t2,2027

000000008000ac84 <i_10653>:
    8000ac84:	1cb13423          	sd	a1,456(sp)

000000008000ac88 <i_10654>:
    8000ac88:	02bc0463          	beq	s8,a1,8000acb0 <i_10663>

000000008000ac8c <i_10655>:
    8000ac8c:	00158593          	addi	a1,a1,1 # ffffffffd277c001 <_end+0xffffffff5276bbed>
    8000ac90:	fe75cae3          	blt	a1,t2,8000ac84 <i_10653>

000000008000ac94 <i_10656>:
    8000ac94:	fbc15c03          	lhu	s8,-68(sp)

000000008000ac98 <i_10657>:
    8000ac98:	e7015783          	lhu	a5,-400(sp)

000000008000ac9c <i_10658>:
    8000ac9c:	02bc7c3b          	remuw	s8,s8,a1

000000008000aca0 <i_10659>:
    8000aca0:	02f7d7bb          	divuw	a5,a5,a5

000000008000aca4 <i_10660>:
    8000aca4:	16810783          	lb	a5,360(sp)

000000008000aca8 <i_10661>:
    8000aca8:	00000013          	nop

000000008000acac <i_10662>:
    8000acac:	19813983          	ld	s3,408(sp)

000000008000acb0 <i_10663>:
    8000acb0:	01400793          	li	a5,20

000000008000acb4 <i_10664>:
    8000acb4:	40f6db33          	sra	s6,a3,a5

000000008000acb8 <i_10665>:
    8000acb8:	87b00a93          	li	s5,-1925

000000008000acbc <i_10666>:
    8000acbc:	88c00593          	li	a1,-1908

000000008000acc0 <i_10667>:
    8000acc0:	001a8a93          	addi	s5,s5,1 # 22063625 <main-0x5df9c9db>
    8000acc4:	febacee3          	blt	s5,a1,8000acc0 <i_10667>

000000008000acc8 <i_10668>:
    8000acc8:	16a10b03          	lb	s6,362(sp)

000000008000accc <i_10669>:
    8000accc:	018b3b33          	sltu	s6,s6,s8

000000008000acd0 <i_10670>:
    8000acd0:	0167af33          	slt	t5,a5,s6

000000008000acd4 <i_10671>:
    8000acd4:	01ddcdb3          	xor	s11,s11,t4

000000008000acd8 <i_10672>:
    8000acd8:	16e14b83          	lbu	s7,366(sp)

000000008000acdc <i_10673>:
    8000acdc:	19d12023          	sw	t4,384(sp)

000000008000ace0 <i_10674>:
    8000ace0:	01bdcf33          	xor	t5,s11,s11

000000008000ace4 <i_10675>:
    8000ace4:	0b7102a3          	sb	s7,165(sp)

000000008000ace8 <i_10676>:
    8000ace8:	12e15c83          	lhu	s9,302(sp)

000000008000acec <i_10677>:
    8000acec:	0c013183          	ld	gp,192(sp)

000000008000acf0 <i_10678>:
    8000acf0:	4029d39b          	sraiw	t2,s3,0x2

000000008000acf4 <i_10679>:
    8000acf4:	1b416e83          	lwu	t4,436(sp)

000000008000acf8 <i_10680>:
    8000acf8:	01b1ec63          	bltu	gp,s11,8000ad10 <i_10686>

000000008000acfc <i_10681>:
    8000acfc:	41d181bb          	subw	gp,gp,t4

000000008000ad00 <i_10682>:
    8000ad00:	01d08333          	add	t1,ra,t4

000000008000ad04 <i_10683>:
    8000ad04:	023ec463          	blt	t4,gp,8000ad2c <i_10693>

000000008000ad08 <i_10684>:
    8000ad08:	16012403          	lw	s0,352(sp)

000000008000ad0c <i_10685>:
    8000ad0c:	014ec9b3          	xor	s3,t4,s4

000000008000ad10 <i_10686>:
    8000ad10:	03d2523b          	divuw	tp,tp,t4

000000008000ad14 <i_10687>:
    8000ad14:	f6812183          	lw	gp,-152(sp)

000000008000ad18 <i_10688>:
    8000ad18:	01416583          	lwu	a1,20(sp)

000000008000ad1c <i_10689>:
    8000ad1c:	0a614e03          	lbu	t3,166(sp)

000000008000ad20 <i_10690>:
    8000ad20:	04711223          	sh	t2,68(sp)

000000008000ad24 <i_10691>:
    8000ad24:	4049d393          	srai	t2,s3,0x4

000000008000ad28 <i_10692>:
    8000ad28:	02bee463          	bltu	t4,a1,8000ad50 <i_10702>

000000008000ad2c <i_10693>:
    8000ad2c:	fc210383          	lb	t2,-62(sp)

000000008000ad30 <i_10694>:
    8000ad30:	f1211b83          	lh	s7,-238(sp)

000000008000ad34 <i_10695>:
    8000ad34:	13011603          	lh	a2,304(sp)

000000008000ad38 <i_10696>:
    8000ad38:	1cc12e23          	sw	a2,476(sp)

000000008000ad3c <i_10697>:
    8000ad3c:	fb816383          	lwu	t2,-72(sp)

000000008000ad40 <i_10698>:
    8000ad40:	0374f3bb          	remuw	t2,s1,s7

000000008000ad44 <i_10699>:
    8000ad44:	0073ce63          	blt	t2,t2,8000ad60 <i_10706>

000000008000ad48 <i_10700>:
    8000ad48:	e0c10c23          	sb	a2,-488(sp)

000000008000ad4c <i_10701>:
    8000ad4c:	03764bbb          	divw	s7,a2,s7

000000008000ad50 <i_10702>:
    8000ad50:	00cdda63          	ble	a2,s11,8000ad64 <i_10707>

000000008000ad54 <i_10703>:
    8000ad54:	01813803          	ld	a6,24(sp)

000000008000ad58 <i_10704>:
    8000ad58:	00fd8db3          	add	s11,s11,a5

000000008000ad5c <i_10705>:
    8000ad5c:	f5010023          	sb	a6,-192(sp)

000000008000ad60 <i_10706>:
    8000ad60:	01b87463          	bleu	s11,a6,8000ad68 <i_10708>

000000008000ad64 <i_10707>:
    8000ad64:	e05e879b          	addiw	a5,t4,-507

000000008000ad68 <i_10708>:
    8000ad68:	00f00d93          	li	s11,15

000000008000ad6c <i_10709>:
    8000ad6c:	41b7d533          	sra	a0,a5,s11

000000008000ad70 <i_10710>:
    8000ad70:	84300d13          	li	s10,-1981

000000008000ad74 <i_10711>:
    8000ad74:	84d00e93          	li	t4,-1971

000000008000ad78 <i_10712>:
    8000ad78:	03bed9b3          	divu	s3,t4,s11

000000008000ad7c <i_10713>:
    8000ad7c:	0337e463          	bltu	a5,s3,8000ada4 <i_10722>

000000008000ad80 <i_10714>:
    8000ad80:	01cdc9b3          	xor	s3,s11,t3

000000008000ad84 <i_10715>:
    8000ad84:	0b816203          	lwu	tp,184(sp)

000000008000ad88 <i_10716>:
    8000ad88:	001d0d13          	addi	s10,s10,1
    8000ad8c:	ffaef6e3          	bleu	s10,t4,8000ad78 <i_10712>

000000008000ad90 <i_10717>:
    8000ad90:	d26f7ab7          	lui	s5,0xd26f7

000000008000ad94 <i_10718>:
    8000ad94:	fa413c23          	sd	tp,-72(sp)

000000008000ad98 <i_10719>:
    8000ad98:	01421463          	bne	tp,s4,8000ada0 <i_10721>

000000008000ad9c <i_10720>:
    8000ad9c:	0a07fa93          	andi	s5,a5,160

000000008000ada0 <i_10721>:
    8000ada0:	01427663          	bleu	s4,tp,8000adac <i_10724>

000000008000ada4 <i_10722>:
    8000ada4:	01600e13          	li	t3,22

000000008000ada8 <i_10723>:
    8000ada8:	01c7d5bb          	srlw	a1,a5,t3

000000008000adac <i_10724>:
    8000adac:	0d813823          	sd	s8,208(sp)

000000008000adb0 <i_10725>:
    8000adb0:	02be0a33          	mul	s4,t3,a1

000000008000adb4 <i_10726>:
    8000adb4:	034104b3          	mul	s1,sp,s4

000000008000adb8 <i_10727>:
    8000adb8:	01ce0a33          	add	s4,t3,t3

000000008000adbc <i_10728>:
    8000adbc:	ef812603          	lw	a2,-264(sp)

000000008000adc0 <i_10729>:
    8000adc0:	0e815583          	lhu	a1,232(sp)

000000008000adc4 <i_10730>:
    8000adc4:	0f411523          	sh	s4,234(sp)

000000008000adc8 <i_10731>:
    8000adc8:	e9211c83          	lh	s9,-366(sp)

000000008000adcc <i_10732>:
    8000adcc:	034e6063          	bltu	t3,s4,8000adec <i_10740>

000000008000add0 <i_10733>:
    8000add0:	15f14583          	lbu	a1,351(sp)

000000008000add4 <i_10734>:
    8000add4:	01c5e4b3          	or	s1,a1,t3

000000008000add8 <i_10735>:
    8000add8:	ec8105a3          	sb	s0,-309(sp)

000000008000addc <i_10736>:
    8000addc:	12e15683          	lhu	a3,302(sp)

000000008000ade0 <i_10737>:
    8000ade0:	02014603          	lbu	a2,32(sp)

000000008000ade4 <i_10738>:
    8000ade4:	10d13023          	sd	a3,256(sp)

000000008000ade8 <i_10739>:
    8000ade8:	004a5a1b          	srliw	s4,s4,0x4

000000008000adec <i_10740>:
    8000adec:	05412823          	sw	s4,80(sp)

000000008000adf0 <i_10741>:
    8000adf0:	0b411d23          	sh	s4,186(sp)

000000008000adf4 <i_10742>:
    8000adf4:	f8b11423          	sh	a1,-120(sp)

000000008000adf8 <i_10743>:
    8000adf8:	00000013          	nop

000000008000adfc <i_10744>:
    8000adfc:	7a200293          	li	t0,1954

000000008000ae00 <i_10745>:
    8000ae00:	7b300e13          	li	t3,1971

000000008000ae04 <i_10746>:
    8000ae04:	00d68a63          	beq	a3,a3,8000ae18 <i_10751>

000000008000ae08 <i_10747>:
    8000ae08:	00c16483          	lwu	s1,12(sp)

000000008000ae0c <i_10748>:
    8000ae0c:	00249a93          	slli	s5,s1,0x2

000000008000ae10 <i_10749>:
    8000ae10:	fbc14683          	lbu	a3,-68(sp)

000000008000ae14 <i_10750>:
    8000ae14:	fa210683          	lb	a3,-94(sp)

000000008000ae18 <i_10751>:
    8000ae18:	00000013          	nop

000000008000ae1c <i_10752>:
    8000ae1c:	08d13423          	sd	a3,136(sp)

000000008000ae20 <i_10753>:
    8000ae20:	1d513423          	sd	s5,456(sp)

000000008000ae24 <i_10754>:
    8000ae24:	12c16483          	lwu	s1,300(sp)

000000008000ae28 <i_10755>:
    8000ae28:	00128293          	addi	t0,t0,1
    8000ae2c:	fdc2ece3          	bltu	t0,t3,8000ae04 <i_10746>

000000008000ae30 <i_10756>:
    8000ae30:	ff914503          	lbu	a0,-7(sp)

000000008000ae34 <i_10757>:
    8000ae34:	0cd10e23          	sb	a3,220(sp)

000000008000ae38 <i_10758>:
    8000ae38:	00269c1b          	slliw	s8,a3,0x2

000000008000ae3c <i_10759>:
    8000ae3c:	00dd3ab3          	sltu	s5,s10,a3

000000008000ae40 <i_10760>:
    8000ae40:	0d210683          	lb	a3,210(sp)

000000008000ae44 <i_10761>:
    8000ae44:	f6016503          	lwu	a0,-160(sp)

000000008000ae48 <i_10762>:
    8000ae48:	02dc35b3          	mulhu	a1,s8,a3

000000008000ae4c <i_10763>:
    8000ae4c:	01855863          	ble	s8,a0,8000ae5c <i_10767>

000000008000ae50 <i_10764>:
    8000ae50:	11811423          	sh	s8,264(sp)

000000008000ae54 <i_10765>:
    8000ae54:	00db9263          	bne	s7,a3,8000ae58 <i_10766>

000000008000ae58 <i_10766>:
    8000ae58:	f6b11123          	sh	a1,-158(sp)

000000008000ae5c <i_10767>:
    8000ae5c:	40d506bb          	subw	a3,a0,a3

000000008000ae60 <i_10768>:
    8000ae60:	01700d93          	li	s11,23

000000008000ae64 <i_10769>:
    8000ae64:	01be15b3          	sll	a1,t3,s11

000000008000ae68 <i_10770>:
    8000ae68:	00cd8a63          	beq	s11,a2,8000ae7c <i_10775>

000000008000ae6c <i_10771>:
    8000ae6c:	0176ee63          	bltu	a3,s7,8000ae88 <i_10778>

000000008000ae70 <i_10772>:
    8000ae70:	00c58463          	beq	a1,a2,8000ae78 <i_10774>

000000008000ae74 <i_10773>:
    8000ae74:	f4611683          	lh	a3,-186(sp)

000000008000ae78 <i_10774>:
    8000ae78:	ff615b83          	lhu	s7,-10(sp)

000000008000ae7c <i_10775>:
    8000ae7c:	0ec10083          	lb	ra,236(sp)

000000008000ae80 <i_10776>:
    8000ae80:	13713823          	sd	s7,304(sp)

000000008000ae84 <i_10777>:
    8000ae84:	f2d12023          	sw	a3,-224(sp)

000000008000ae88 <i_10778>:
    8000ae88:	00169c9b          	slliw	s9,a3,0x1

000000008000ae8c <i_10779>:
    8000ae8c:	021e7e33          	remu	t3,t3,ra

000000008000ae90 <i_10780>:
    8000ae90:	85a00593          	li	a1,-1958

000000008000ae94 <i_10781>:
    8000ae94:	86c00813          	li	a6,-1940

000000008000ae98 <i_10782>:
    8000ae98:	1d011823          	sh	a6,464(sp)

000000008000ae9c <i_10783>:
    8000ae9c:	f2c12683          	lw	a3,-212(sp)

000000008000aea0 <i_10784>:
    8000aea0:	f1011683          	lh	a3,-240(sp)

000000008000aea4 <i_10785>:
    8000aea4:	fa810b83          	lb	s7,-88(sp)

000000008000aea8 <i_10786>:
    8000aea8:	1db14303          	lbu	t1,475(sp)

000000008000aeac <i_10787>:
    8000aeac:	03c0adb3          	mulhsu	s11,ra,t3

000000008000aeb0 <i_10788>:
    8000aeb0:	00158593          	addi	a1,a1,1
    8000aeb4:	ff05c2e3          	blt	a1,a6,8000ae98 <i_10782>

000000008000aeb8 <i_10789>:
    8000aeb8:	037d9063          	bne	s11,s7,8000aed8 <i_10797>

000000008000aebc <i_10790>:
    8000aebc:	0390c063          	blt	ra,s9,8000aedc <i_10798>

000000008000aec0 <i_10791>:
    8000aec0:	00608263          	beq	ra,t1,8000aec4 <i_10792>

000000008000aec4 <i_10792>:
    8000aec4:	1b416c03          	lwu	s8,436(sp)

000000008000aec8 <i_10793>:
    8000aec8:	03981263          	bne	a6,s9,8000aeec <i_10802>

000000008000aecc <i_10794>:
    8000aecc:	02e08ab3          	mul	s5,ra,a4

000000008000aed0 <i_10795>:
    8000aed0:	fe011483          	lh	s1,-32(sp)

000000008000aed4 <i_10796>:
    8000aed4:	ec611a23          	sh	t1,-300(sp)

000000008000aed8 <i_10797>:
    8000aed8:	021cf833          	remu	a6,s9,ra

000000008000aedc <i_10798>:
    8000aedc:	e4412503          	lw	a0,-444(sp)

000000008000aee0 <i_10799>:
    8000aee0:	01012e03          	lw	t3,16(sp)

000000008000aee4 <i_10800>:
    8000aee4:	f9111223          	sh	a7,-124(sp)

000000008000aee8 <i_10801>:
    8000aee8:	19413023          	sd	s4,384(sp)

000000008000aeec <i_10802>:
    8000aeec:	15413423          	sd	s4,328(sp)

000000008000aef0 <i_10803>:
    8000aef0:	ed910b83          	lb	s7,-295(sp)

000000008000aef4 <i_10804>:
    8000aef4:	88a00d93          	li	s11,-1910

000000008000aef8 <i_10805>:
    8000aef8:	89400a13          	li	s4,-1900

000000008000aefc <i_10806>:
    8000aefc:	f5913c23          	sd	s9,-168(sp)

000000008000af00 <i_10807>:
    8000af00:	40db8bb3          	sub	s7,s7,a3

000000008000af04 <i_10808>:
    8000af04:	fae11b83          	lh	s7,-82(sp)

000000008000af08 <i_10809>:
    8000af08:	00000013          	nop

000000008000af0c <i_10810>:
    8000af0c:	00435b93          	srli	s7,t1,0x4

000000008000af10 <i_10811>:
    8000af10:	001d8d93          	addi	s11,s11,1
    8000af14:	ff4d94e3          	bne	s11,s4,8000aefc <i_10806>

000000008000af18 <i_10812>:
    8000af18:	017ec663          	blt	t4,s7,8000af24 <i_10815>

000000008000af1c <i_10813>:
    8000af1c:	401bd393          	srai	t2,s7,0x1

000000008000af20 <i_10814>:
    8000af20:	0177e663          	bltu	a5,s7,8000af2c <i_10817>

000000008000af24 <i_10815>:
    8000af24:	00800b13          	li	s6,8

000000008000af28 <i_10816>:
    8000af28:	016bd333          	srl	t1,s7,s6

000000008000af2c <i_10817>:
    8000af2c:	11811a03          	lh	s4,280(sp)

000000008000af30 <i_10818>:
    8000af30:	027b7bb3          	remu	s7,s6,t2

000000008000af34 <i_10819>:
    8000af34:	f8e11203          	lh	tp,-114(sp)

000000008000af38 <i_10820>:
    8000af38:	05411223          	sh	s4,68(sp)

000000008000af3c <i_10821>:
    8000af3c:	00725e63          	ble	t2,tp,8000af58 <i_10828>

000000008000af40 <i_10822>:
    8000af40:	0242523b          	divuw	tp,tp,tp

000000008000af44 <i_10823>:
    8000af44:	004a7e63          	bleu	tp,s4,8000af60 <i_10830>

000000008000af48 <i_10824>:
    8000af48:	00325993          	srli	s3,tp,0x3

000000008000af4c <i_10825>:
    8000af4c:	1b012483          	lw	s1,432(sp)

000000008000af50 <i_10826>:
    8000af50:	f7013203          	ld	tp,-144(sp)

000000008000af54 <i_10827>:
    8000af54:	59e48213          	addi	tp,s1,1438

000000008000af58 <i_10828>:
    8000af58:	05110083          	lb	ra,81(sp)

000000008000af5c <i_10829>:
    8000af5c:	02125063          	ble	ra,tp,8000af7c <i_10837>

000000008000af60 <i_10830>:
    8000af60:	41308233          	sub	tp,ra,s3

000000008000af64 <i_10831>:
    8000af64:	004de233          	or	tp,s11,tp

000000008000af68 <i_10832>:
    8000af68:	01655a63          	ble	s6,a0,8000af7c <i_10837>

000000008000af6c <i_10833>:
    8000af6c:	14412203          	lw	tp,324(sp)

000000008000af70 <i_10834>:
    8000af70:	ede11323          	sh	t5,-314(sp)

000000008000af74 <i_10835>:
    8000af74:	10816a83          	lwu	s5,264(sp)

000000008000af78 <i_10836>:
    8000af78:	00000013          	nop

000000008000af7c <i_10837>:
    8000af7c:	00000013          	nop

000000008000af80 <i_10838>:
    8000af80:	e484ea13          	ori	s4,s1,-440

000000008000af84 <i_10839>:
    8000af84:	85100213          	li	tp,-1967

000000008000af88 <i_10840>:
    8000af88:	85a00d93          	li	s11,-1958

000000008000af8c <i_10841>:
    8000af8c:	00120213          	addi	tp,tp,1 # 1 <main-0x7fffffff>
    8000af90:	fe4ddee3          	ble	tp,s11,8000af8c <i_10841>

000000008000af94 <i_10842>:
    8000af94:	004c9e63          	bne	s9,tp,8000afb0 <i_10849>

000000008000af98 <i_10843>:
    8000af98:	02412303          	lw	t1,36(sp)

000000008000af9c <i_10844>:
    8000af9c:	03bd9063          	bne	s11,s11,8000afbc <i_10852>

000000008000afa0 <i_10845>:
    8000afa0:	f2415d83          	lhu	s11,-220(sp)

000000008000afa4 <i_10846>:
    8000afa4:	004adc63          	ble	tp,s5,8000afbc <i_10852>

000000008000afa8 <i_10847>:
    8000afa8:	15c12983          	lw	s3,348(sp)

000000008000afac <i_10848>:
    8000afac:	e5812683          	lw	a3,-424(sp)

000000008000afb0 <i_10849>:
    8000afb0:	40335693          	srai	a3,t1,0x3

000000008000afb4 <i_10850>:
    8000afb4:	f2e15303          	lhu	t1,-210(sp)

000000008000afb8 <i_10851>:
    8000afb8:	e8d13423          	sd	a3,-376(sp)

000000008000afbc <i_10852>:
    8000afbc:	19c16a03          	lwu	s4,412(sp)

000000008000afc0 <i_10853>:
    8000afc0:	1b812203          	lw	tp,440(sp)

000000008000afc4 <i_10854>:
    8000afc4:	7d500413          	li	s0,2005

000000008000afc8 <i_10855>:
    8000afc8:	7e700a93          	li	s5,2023

000000008000afcc <i_10856>:
    8000afcc:	ef013d83          	ld	s11,-272(sp)

000000008000afd0 <i_10857>:
    8000afd0:	01bade63          	ble	s11,s5,8000afec <i_10864>

000000008000afd4 <i_10858>:
    8000afd4:	01e00a13          	li	s4,30

000000008000afd8 <i_10859>:
    8000afd8:	01469a3b          	sllw	s4,a3,s4

000000008000afdc <i_10860>:
    8000afdc:	fa016983          	lwu	s3,-96(sp)

000000008000afe0 <i_10861>:
    8000afe0:	ff312023          	sw	s3,-32(sp)

000000008000afe4 <i_10862>:
    8000afe4:	01c00a13          	li	s4,28

000000008000afe8 <i_10863>:
    8000afe8:	4140d0bb          	sraw	ra,ra,s4

000000008000afec <i_10864>:
    8000afec:	0ac11b03          	lh	s6,172(sp)

000000008000aff0 <i_10865>:
    8000aff0:	03526463          	bltu	tp,s5,8000b018 <i_10874>

000000008000aff4 <i_10866>:
    8000aff4:	00000013          	nop

000000008000aff8 <i_10867>:
    8000aff8:	00399293          	slli	t0,s3,0x3

000000008000affc <i_10868>:
    8000affc:	01530a63          	beq	t1,s5,8000b010 <i_10872>

000000008000b000 <i_10869>:
    8000b000:	00140413          	addi	s0,s0,1 # c068bfd9 <_end+0x4067bbc5>
    8000b004:	fc8af4e3          	bleu	s0,s5,8000afcc <i_10856>

000000008000b008 <i_10870>:
    8000b008:	00400513          	li	a0,4

000000008000b00c <i_10871>:
    8000b00c:	00a2dd3b          	srlw	s10,t0,a0

000000008000b010 <i_10872>:
    8000b010:	e3b12023          	sw	s11,-480(sp)

000000008000b014 <i_10873>:
    8000b014:	025a5463          	ble	t0,s4,8000b03c <i_10883>

000000008000b018 <i_10874>:
    8000b018:	0db12a23          	sw	s11,212(sp)

000000008000b01c <i_10875>:
    8000b01c:	17414a03          	lbu	s4,372(sp)

000000008000b020 <i_10876>:
    8000b020:	00a11d23          	sh	a0,26(sp)

000000008000b024 <i_10877>:
    8000b024:	11010a03          	lb	s4,272(sp)

000000008000b028 <i_10878>:
    8000b028:	089d2993          	slti	s3,s10,137

000000008000b02c <i_10879>:
    8000b02c:	03ad6533          	rem	a0,s10,s10

000000008000b030 <i_10880>:
    8000b030:	00000013          	nop

000000008000b034 <i_10881>:
    8000b034:	033d6abb          	remw	s5,s10,s3

000000008000b038 <i_10882>:
    8000b038:	f4e14083          	lbu	ra,-178(sp)

000000008000b03c <i_10883>:
    8000b03c:	1d313423          	sd	s3,456(sp)

000000008000b040 <i_10884>:
    8000b040:	f3c15a03          	lhu	s4,-196(sp)

000000008000b044 <i_10885>:
    8000b044:	76700193          	li	gp,1895

000000008000b048 <i_10886>:
    8000b048:	76b00d13          	li	s10,1899

000000008000b04c <i_10887>:
    8000b04c:	03710983          	lb	s3,55(sp)

000000008000b050 <i_10888>:
    8000b050:	0372e2bb          	remw	t0,t0,s7

000000008000b054 <i_10889>:
    8000b054:	0140fe63          	bleu	s4,ra,8000b070 <i_10895>

000000008000b058 <i_10890>:
    8000b058:	01a00b93          	li	s7,26

000000008000b05c <i_10891>:
    8000b05c:	0172d2bb          	srlw	t0,t0,s7

000000008000b060 <i_10892>:
    8000b060:	00118193          	addi	gp,gp,1
    8000b064:	ffa194e3          	bne	gp,s10,8000b04c <i_10887>

000000008000b068 <i_10893>:
    8000b068:	0f816983          	lwu	s3,248(sp)

000000008000b06c <i_10894>:
    8000b06c:	4179823b          	subw	tp,s3,s7

000000008000b070 <i_10895>:
    8000b070:	eb713823          	sd	s7,-336(sp)

000000008000b074 <i_10896>:
    8000b074:	fd313c23          	sd	s3,-40(sp)

000000008000b078 <i_10897>:
    8000b078:	403bd21b          	sraiw	tp,s7,0x3

000000008000b07c <i_10898>:
    8000b07c:	00000013          	nop

000000008000b080 <i_10899>:
    8000b080:	00000013          	nop

000000008000b084 <i_10900>:
    8000b084:	81b00b13          	li	s6,-2021

000000008000b088 <i_10901>:
    8000b088:	82100e13          	li	t3,-2015

000000008000b08c <i_10902>:
    8000b08c:	01e15983          	lhu	s3,30(sp)

000000008000b090 <i_10903>:
    8000b090:	036e52bb          	divuw	t0,t3,s6

000000008000b094 <i_10904>:
    8000b094:	02529db3          	mulh	s11,t0,t0

000000008000b098 <i_10905>:
    8000b098:	0252d663          	ble	t0,t0,8000b0c4 <i_10915>

000000008000b09c <i_10906>:
    8000b09c:	01bdcdb3          	xor	s11,s11,s11

000000008000b0a0 <i_10907>:
    8000b0a0:	013cf463          	bleu	s3,s9,8000b0a8 <i_10909>

000000008000b0a4 <i_10908>:
    8000b0a4:	00000013          	nop

000000008000b0a8 <i_10909>:
    8000b0a8:	00de5e63          	ble	a3,t3,8000b0c4 <i_10915>

000000008000b0ac <i_10910>:
    8000b0ac:	0b815983          	lhu	s3,184(sp)

000000008000b0b0 <i_10911>:
    8000b0b0:	07e15383          	lhu	t2,126(sp)

000000008000b0b4 <i_10912>:
    8000b0b4:	001b0b13          	addi	s6,s6,1
    8000b0b8:	fd6e5ae3          	ble	s6,t3,8000b08c <i_10902>

000000008000b0bc <i_10913>:
    8000b0bc:	e8812223          	sw	s0,-380(sp)

000000008000b0c0 <i_10914>:
    8000b0c0:	aca9e093          	ori	ra,s3,-1334

000000008000b0c4 <i_10915>:
    8000b0c4:	01d00093          	li	ra,29

000000008000b0c8 <i_10916>:
    8000b0c8:	00139abb          	sllw	s5,t2,ra

000000008000b0cc <i_10917>:
    8000b0cc:	00000013          	nop

000000008000b0d0 <i_10918>:
    8000b0d0:	e93109a3          	sb	s3,-365(sp)

000000008000b0d4 <i_10919>:
    8000b0d4:	78100a93          	li	s5,1921

000000008000b0d8 <i_10920>:
    8000b0d8:	78800a13          	li	s4,1928

000000008000b0dc <i_10921>:
    8000b0dc:	03600e93          	li	t4,54

000000008000b0e0 <i_10922>:
    8000b0e0:	01d9dd33          	srl	s10,s3,t4

000000008000b0e4 <i_10923>:
    8000b0e4:	15016083          	lwu	ra,336(sp)

000000008000b0e8 <i_10924>:
    8000b0e8:	f3812383          	lw	t2,-200(sp)

000000008000b0ec <i_10925>:
    8000b0ec:	0280d433          	divu	s0,ra,s0

000000008000b0f0 <i_10926>:
    8000b0f0:	f0610e83          	lb	t4,-250(sp)

000000008000b0f4 <i_10927>:
    8000b0f4:	fba42b93          	slti	s7,s0,-70

000000008000b0f8 <i_10928>:
    8000b0f8:	ebd13023          	sd	t4,-352(sp)

000000008000b0fc <i_10929>:
    8000b0fc:	fa013c03          	ld	s8,-96(sp)

000000008000b100 <i_10930>:
    8000b100:	0333d83b          	divuw	a6,t2,s3

000000008000b104 <i_10931>:
    8000b104:	f1a11c23          	sh	s10,-232(sp)

000000008000b108 <i_10932>:
    8000b108:	e6813823          	sd	s0,-400(sp)

000000008000b10c <i_10933>:
    8000b10c:	001a8a93          	addi	s5,s5,1 # ffffffffd26f7001 <_end+0xffffffff526e6bed>
    8000b110:	fd4ae6e3          	bltu	s5,s4,8000b0dc <i_10921>

000000008000b114 <i_10934>:
    8000b114:	0f214203          	lbu	tp,242(sp)

000000008000b118 <i_10935>:
    8000b118:	e8c12e03          	lw	t3,-372(sp)

000000008000b11c <i_10936>:
    8000b11c:	008c6663          	bltu	s8,s0,8000b128 <i_10939>

000000008000b120 <i_10937>:
    8000b120:	019a1463          	bne	s4,s9,8000b128 <i_10939>

000000008000b124 <i_10938>:
    8000b124:	e84105a3          	sb	tp,-373(sp)

000000008000b128 <i_10939>:
    8000b128:	cbde7413          	andi	s0,t3,-835

000000008000b12c <i_10940>:
    8000b12c:	035be463          	bltu	s7,s5,8000b154 <i_10950>

000000008000b130 <i_10941>:
    8000b130:	0e411083          	lh	ra,228(sp)

000000008000b134 <i_10942>:
    8000b134:	15a10a23          	sb	s10,340(sp)

000000008000b138 <i_10943>:
    8000b138:	fc416083          	lwu	ra,-60(sp)

000000008000b13c <i_10944>:
    8000b13c:	0270d263          	ble	t2,ra,8000b160 <i_10953>

000000008000b140 <i_10945>:
    8000b140:	00880a63          	beq	a6,s0,8000b154 <i_10950>

000000008000b144 <i_10946>:
    8000b144:	001c4a63          	blt	s8,ra,8000b158 <i_10951>

000000008000b148 <i_10947>:
    8000b148:	028420b3          	mulhsu	ra,s0,s0

000000008000b14c <i_10948>:
    8000b14c:	01c00d93          	li	s11,28

000000008000b150 <i_10949>:
    8000b150:	01ba1a3b          	sllw	s4,s4,s11

000000008000b154 <i_10950>:
    8000b154:	1b814d83          	lbu	s11,440(sp)

000000008000b158 <i_10951>:
    8000b158:	0285fcb3          	remu	s9,a1,s0

000000008000b15c <i_10952>:
    8000b15c:	03409263          	bne	ra,s4,8000b180 <i_10961>

000000008000b160 <i_10953>:
    8000b160:	c99cf413          	andi	s0,s9,-871

000000008000b164 <i_10954>:
    8000b164:	00827e63          	bleu	s0,tp,8000b180 <i_10961>

000000008000b168 <i_10955>:
    8000b168:	019cfcb3          	and	s9,s9,s9

000000008000b16c <i_10956>:
    8000b16c:	0f912e23          	sw	s9,252(sp)

000000008000b170 <i_10957>:
    8000b170:	e2a14c83          	lbu	s9,-470(sp)

000000008000b174 <i_10958>:
    8000b174:	1bf10e83          	lb	t4,447(sp)

000000008000b178 <i_10959>:
    8000b178:	0dd11623          	sh	t4,204(sp)

000000008000b17c <i_10960>:
    8000b17c:	03600a93          	li	s5,54

000000008000b180 <i_10961>:
    8000b180:	015595b3          	sll	a1,a1,s5

000000008000b184 <i_10962>:
    8000b184:	f7c12c83          	lw	s9,-132(sp)

000000008000b188 <i_10963>:
    8000b188:	15d11723          	sh	t4,334(sp)

000000008000b18c <i_10964>:
    8000b18c:	019a8263          	beq	s5,s9,8000b190 <i_10965>

000000008000b190 <i_10965>:
    8000b190:	03844c3b          	divw	s8,s0,s8

000000008000b194 <i_10966>:
    8000b194:	e8114583          	lbu	a1,-383(sp)

000000008000b198 <i_10967>:
    8000b198:	f3e14403          	lbu	s0,-194(sp)

000000008000b19c <i_10968>:
    8000b19c:	032c5a3b          	divuw	s4,s8,s2

000000008000b1a0 <i_10969>:
    8000b1a0:	028a6263          	bltu	s4,s0,8000b1c4 <i_10978>

000000008000b1a4 <i_10970>:
    8000b1a4:	be258c13          	addi	s8,a1,-1054

000000008000b1a8 <i_10971>:
    8000b1a8:	03482833          	mulhsu	a6,a6,s4

000000008000b1ac <i_10972>:
    8000b1ac:	1c813283          	ld	t0,456(sp)

000000008000b1b0 <i_10973>:
    8000b1b0:	00b58433          	add	s0,a1,a1

000000008000b1b4 <i_10974>:
    8000b1b4:	014c7863          	bleu	s4,s8,8000b1c4 <i_10978>

000000008000b1b8 <i_10975>:
    8000b1b8:	02ba0063          	beq	s4,a1,8000b1d8 <i_10983>

000000008000b1bc <i_10976>:
    8000b1bc:	f3610a03          	lb	s4,-202(sp)

000000008000b1c0 <i_10977>:
    8000b1c0:	f5014a03          	lbu	s4,-176(sp)

000000008000b1c4 <i_10978>:
    8000b1c4:	f0814503          	lbu	a0,-248(sp)

000000008000b1c8 <i_10979>:
    8000b1c8:	03457a33          	remu	s4,a0,s4

000000008000b1cc <i_10980>:
    8000b1cc:	04a12423          	sw	a0,72(sp)

000000008000b1d0 <i_10981>:
    8000b1d0:	01400993          	li	s3,20

000000008000b1d4 <i_10982>:
    8000b1d4:	013e9633          	sll	a2,t4,s3

000000008000b1d8 <i_10983>:
    8000b1d8:	01700a93          	li	s5,23

000000008000b1dc <i_10984>:
    8000b1dc:	415a5cbb          	sraw	s9,s4,s5

000000008000b1e0 <i_10985>:
    8000b1e0:	79c00993          	li	s3,1948

000000008000b1e4 <i_10986>:
    8000b1e4:	7a600a13          	li	s4,1958

000000008000b1e8 <i_10987>:
    8000b1e8:	19310da3          	sb	s3,411(sp)

000000008000b1ec <i_10988>:
    8000b1ec:	e8013503          	ld	a0,-384(sp)

000000008000b1f0 <i_10989>:
    8000b1f0:	01571c63          	bne	a4,s5,8000b208 <i_10995>

000000008000b1f4 <i_10990>:
    8000b1f4:	e1b14303          	lbu	t1,-485(sp)

000000008000b1f8 <i_10991>:
    8000b1f8:	e5013d03          	ld	s10,-432(sp)

000000008000b1fc <i_10992>:
    8000b1fc:	01438c63          	beq	t2,s4,8000b214 <i_10998>

000000008000b200 <i_10993>:
    8000b200:	015a5c63          	ble	s5,s4,8000b218 <i_10999>

000000008000b204 <i_10994>:
    8000b204:	c52d3a97          	auipc	s5,0xc52d3

000000008000b208 <i_10995>:
    8000b208:	00000013          	nop

000000008000b20c <i_10996>:
    8000b20c:	1c613823          	sd	t1,464(sp)

000000008000b210 <i_10997>:
    8000b210:	02aa0eb3          	mul	t4,s4,a0

000000008000b214 <i_10998>:
    8000b214:	034e9463          	bne	t4,s4,8000b23c <i_11007>

000000008000b218 <i_10999>:
    8000b218:	04f10303          	lb	t1,79(sp)

000000008000b21c <i_11000>:
    8000b21c:	1ec10323          	sb	a2,486(sp)

000000008000b220 <i_11001>:
    8000b220:	00198993          	addi	s3,s3,1 # 6d18acd9 <main-0x12e75327>
    8000b224:	fd3a72e3          	bleu	s3,s4,8000b1e8 <i_10987>

000000008000b228 <i_11002>:
    8000b228:	00000013          	nop

000000008000b22c <i_11003>:
    8000b22c:	f4c12183          	lw	gp,-180(sp)

000000008000b230 <i_11004>:
    8000b230:	01da2cb3          	slt	s9,s4,t4

000000008000b234 <i_11005>:
    8000b234:	00000013          	nop

000000008000b238 <i_11006>:
    8000b238:	002d5a9b          	srliw	s5,s10,0x2

000000008000b23c <i_11007>:
    8000b23c:	00000013          	nop

000000008000b240 <i_11008>:
    8000b240:	1b611183          	lh	gp,438(sp)

000000008000b244 <i_11009>:
    8000b244:	89f00993          	li	s3,-1889

000000008000b248 <i_11010>:
    8000b248:	8b100a13          	li	s4,-1871

000000008000b24c <i_11011>:
    8000b24c:	01f9f663          	bleu	t6,s3,8000b258 <i_11014>

000000008000b250 <i_11012>:
    8000b250:	fb910423          	sb	s9,-88(sp)

000000008000b254 <i_11013>:
    8000b254:	11816d83          	lwu	s11,280(sp)

000000008000b258 <i_11014>:
    8000b258:	01f9f463          	bleu	t6,s3,8000b260 <i_11016>

000000008000b25c <i_11015>:
    8000b25c:	cb06cc93          	xori	s9,a3,-848

000000008000b260 <i_11016>:
    8000b260:	00000013          	nop

000000008000b264 <i_11017>:
    8000b264:	0a710c83          	lb	s9,167(sp)

000000008000b268 <i_11018>:
    8000b268:	005dbdb3          	sltu	s11,s11,t0

000000008000b26c <i_11019>:
    8000b26c:	01d00213          	li	tp,29

000000008000b270 <i_11020>:
    8000b270:	404cdcb3          	sra	s9,s9,tp

000000008000b274 <i_11021>:
    8000b274:	00198993          	addi	s3,s3,1
    8000b278:	fd49eae3          	bltu	s3,s4,8000b24c <i_11011>

000000008000b27c <i_11022>:
    8000b27c:	12510ba3          	sb	t0,311(sp)

000000008000b280 <i_11023>:
    8000b280:	f2e11f03          	lh	t5,-210(sp)

000000008000b284 <i_11024>:
    8000b284:	e9813e03          	ld	t3,-360(sp)

000000008000b288 <i_11025>:
    8000b288:	0245c433          	div	s0,a1,tp

000000008000b28c <i_11026>:
    8000b28c:	1de12223          	sw	t5,452(sp)

000000008000b290 <i_11027>:
    8000b290:	ef912823          	sw	s9,-272(sp)

000000008000b294 <i_11028>:
    8000b294:	18016803          	lwu	a6,384(sp)

000000008000b298 <i_11029>:
    8000b298:	f8110203          	lb	tp,-127(sp)

000000008000b29c <i_11030>:
    8000b29c:	00c45e63          	ble	a2,s0,8000b2b8 <i_11037>

000000008000b2a0 <i_11031>:
    8000b2a0:	0242e263          	bltu	t0,tp,8000b2c4 <i_11040>

000000008000b2a4 <i_11032>:
    8000b2a4:	e8c13023          	sd	a2,-384(sp)

000000008000b2a8 <i_11033>:
    8000b2a8:	1e013d83          	ld	s11,480(sp)

000000008000b2ac <i_11034>:
    8000b2ac:	006b6433          	or	s0,s6,t1

000000008000b2b0 <i_11035>:
    8000b2b0:	00580a63          	beq	a6,t0,8000b2c4 <i_11040>

000000008000b2b4 <i_11036>:
    8000b2b4:	03bff433          	remu	s0,t6,s11

000000008000b2b8 <i_11037>:
    8000b2b8:	010de833          	or	a6,s11,a6

000000008000b2bc <i_11038>:
    8000b2bc:	030235b3          	mulhu	a1,tp,a6

000000008000b2c0 <i_11039>:
    8000b2c0:	f1016803          	lwu	a6,-240(sp)

000000008000b2c4 <i_11040>:
    8000b2c4:	02b46abb          	remw	s5,s0,a1

000000008000b2c8 <i_11041>:
    8000b2c8:	05615a83          	lhu	s5,86(sp)

000000008000b2cc <i_11042>:
    8000b2cc:	13512823          	sw	s5,304(sp)

000000008000b2d0 <i_11043>:
    8000b2d0:	1ae14583          	lbu	a1,430(sp)

000000008000b2d4 <i_11044>:
    8000b2d4:	01581a63          	bne	a6,s5,8000b2e8 <i_11049>

000000008000b2d8 <i_11045>:
    8000b2d8:	010ae863          	bltu	s5,a6,8000b2e8 <i_11049>

000000008000b2dc <i_11046>:
    8000b2dc:	01dadc63          	ble	t4,s5,8000b2f4 <i_11052>

000000008000b2e0 <i_11047>:
    8000b2e0:	17416803          	lwu	a6,372(sp)

000000008000b2e4 <i_11048>:
    8000b2e4:	eb011723          	sh	a6,-338(sp)

000000008000b2e8 <i_11049>:
    8000b2e8:	0cb10f23          	sb	a1,222(sp)

000000008000b2ec <i_11050>:
    8000b2ec:	ea016d83          	lwu	s11,-352(sp)

000000008000b2f0 <i_11051>:
    8000b2f0:	106e8d9b          	addiw	s11,t4,262

000000008000b2f4 <i_11052>:
    8000b2f4:	0bd102a3          	sb	t4,165(sp)

000000008000b2f8 <i_11053>:
    8000b2f8:	eb914d83          	lbu	s11,-327(sp)

000000008000b2fc <i_11054>:
    8000b2fc:	82000e13          	li	t3,-2016

000000008000b300 <i_11055>:
    8000b300:	82600e93          	li	t4,-2010

000000008000b304 <i_11056>:
    8000b304:	11b11323          	sh	s11,262(sp)

000000008000b308 <i_11057>:
    8000b308:	e6810123          	sb	s0,-414(sp)

000000008000b30c <i_11058>:
    8000b30c:	e6911623          	sh	s1,-404(sp)

000000008000b310 <i_11059>:
    8000b310:	03b65063          	ble	s11,a2,8000b330 <i_11066>

000000008000b314 <i_11060>:
    8000b314:	001e0e13          	addi	t3,t3,1
    8000b318:	ffcef6e3          	bleu	t3,t4,8000b304 <i_11056>

000000008000b31c <i_11061>:
    8000b31c:	ed310483          	lb	s1,-301(sp)

000000008000b320 <i_11062>:
    8000b320:	030da4b3          	mulhsu	s1,s11,a6

000000008000b324 <i_11063>:
    8000b324:	13e15b83          	lhu	s7,318(sp)

000000008000b328 <i_11064>:
    8000b328:	f4813d83          	ld	s11,-184(sp)

000000008000b32c <i_11065>:
    8000b32c:	f0913023          	sd	s1,-256(sp)

000000008000b330 <i_11066>:
    8000b330:	f7e13023          	sd	t5,-160(sp)

000000008000b334 <i_11067>:
    8000b334:	f8611f03          	lh	t5,-122(sp)

000000008000b338 <i_11068>:
    8000b338:	83f00e13          	li	t3,-1985

000000008000b33c <i_11069>:
    8000b33c:	84100813          	li	a6,-1983

000000008000b340 <i_11070>:
    8000b340:	14015283          	lhu	t0,320(sp)

000000008000b344 <i_11071>:
    8000b344:	001e0e13          	addi	t3,t3,1
    8000b348:	ff0e6ce3          	bltu	t3,a6,8000b340 <i_11070>

000000008000b34c <i_11072>:
    8000b34c:	07815b83          	lhu	s7,120(sp)

000000008000b350 <i_11073>:
    8000b350:	05a101a3          	sb	s10,67(sp)

000000008000b354 <i_11074>:
    8000b354:	efc12b83          	lw	s7,-260(sp)

000000008000b358 <i_11075>:
    8000b358:	e9c15f03          	lhu	t5,-356(sp)

000000008000b35c <i_11076>:
    8000b35c:	404bd61b          	sraiw	a2,s7,0x4

000000008000b360 <i_11077>:
    8000b360:	e7e10b23          	sb	t5,-394(sp)

000000008000b364 <i_11078>:
    8000b364:	01e10f33          	add	t5,sp,t5

000000008000b368 <i_11079>:
    8000b368:	07e10ca3          	sb	t5,121(sp)

000000008000b36c <i_11080>:
    8000b36c:	03a10f03          	lb	t5,58(sp)

000000008000b370 <i_11081>:
    8000b370:	01100f13          	li	t5,17

000000008000b374 <i_11082>:
    8000b374:	41e0df3b          	sraw	t5,ra,t5

000000008000b378 <i_11083>:
    8000b378:	beef7b13          	andi	s6,t5,-1042

000000008000b37c <i_11084>:
    8000b37c:	0c013f03          	ld	t5,192(sp)

000000008000b380 <i_11085>:
    8000b380:	02df7f3b          	remuw	t5,t5,a3

000000008000b384 <i_11086>:
    8000b384:	f1a10d03          	lb	s10,-230(sp)

000000008000b388 <i_11087>:
    8000b388:	1d412083          	lw	ra,468(sp)

000000008000b38c <i_11088>:
    8000b38c:	f9c12f03          	lw	t5,-100(sp)

000000008000b390 <i_11089>:
    8000b390:	e7e10823          	sb	t5,-400(sp)

000000008000b394 <i_11090>:
    8000b394:	01e36c63          	bltu	t1,t5,8000b3ac <i_11096>

000000008000b398 <i_11091>:
    8000b398:	01e00f13          	li	t5,30

000000008000b39c <i_11092>:
    8000b39c:	01ed54bb          	srlw	s1,s10,t5

000000008000b3a0 <i_11093>:
    8000b3a0:	fc24cf13          	xori	t5,s1,-62

000000008000b3a4 <i_11094>:
    8000b3a4:	03ef6d3b          	remw	s10,t5,t5

000000008000b3a8 <i_11095>:
    8000b3a8:	13a10c23          	sb	s10,312(sp)

000000008000b3ac <i_11096>:
    8000b3ac:	01ef0863          	beq	t5,t5,8000b3bc <i_11100>

000000008000b3b0 <i_11097>:
    8000b3b0:	e9813f03          	ld	t5,-360(sp)

000000008000b3b4 <i_11098>:
    8000b3b4:	08e11503          	lh	a0,142(sp)

000000008000b3b8 <i_11099>:
    8000b3b8:	01af5863          	ble	s10,t5,8000b3c8 <i_11103>

000000008000b3bc <i_11100>:
    8000b3bc:	80cf2f13          	slti	t5,t5,-2036

000000008000b3c0 <i_11101>:
    8000b3c0:	15c16183          	lwu	gp,348(sp)

000000008000b3c4 <i_11102>:
    8000b3c4:	d3118f1b          	addiw	t5,gp,-719

000000008000b3c8 <i_11103>:
    8000b3c8:	1a311723          	sh	gp,430(sp)

000000008000b3cc <i_11104>:
    8000b3cc:	01e84663          	blt	a6,t5,8000b3d8 <i_11107>

000000008000b3d0 <i_11105>:
    8000b3d0:	03e1ff3b          	remuw	t5,gp,t5

000000008000b3d4 <i_11106>:
    8000b3d4:	fca13c23          	sd	a0,-40(sp)

000000008000b3d8 <i_11107>:
    8000b3d8:	0039ee63          	bltu	s3,gp,8000b3f4 <i_11114>

000000008000b3dc <i_11108>:
    8000b3dc:	0044d49b          	srliw	s1,s1,0x4

000000008000b3e0 <i_11109>:
    8000b3e0:	18510f03          	lb	t5,389(sp)

000000008000b3e4 <i_11110>:
    8000b3e4:	03013503          	ld	a0,48(sp)

000000008000b3e8 <i_11111>:
    8000b3e8:	02a4de3b          	divuw	t3,s1,a0

000000008000b3ec <i_11112>:
    8000b3ec:	07e10923          	sb	t5,114(sp)

000000008000b3f0 <i_11113>:
    8000b3f0:	01e400b3          	add	ra,s0,t5

000000008000b3f4 <i_11114>:
    8000b3f4:	13611923          	sh	s6,306(sp)

000000008000b3f8 <i_11115>:
    8000b3f8:	0de10d23          	sb	t5,218(sp)

000000008000b3fc <i_11116>:
    8000b3fc:	fb816383          	lwu	t2,-72(sp)

000000008000b400 <i_11117>:
    8000b400:	0291d4b3          	divu	s1,gp,s1

000000008000b404 <i_11118>:
    8000b404:	e2c16303          	lwu	t1,-468(sp)

000000008000b408 <i_11119>:
    8000b408:	0a311423          	sh	gp,168(sp)

000000008000b40c <i_11120>:
    8000b40c:	6f02be17          	auipc	t3,0x6f02b

000000008000b410 <i_11121>:
    8000b410:	01200e13          	li	t3,18

000000008000b414 <i_11122>:
    8000b414:	41ce5e33          	sra	t3,t3,t3

000000008000b418 <i_11123>:
    8000b418:	83200213          	li	tp,-1998

000000008000b41c <i_11124>:
    8000b41c:	84400293          	li	t0,-1980

000000008000b420 <i_11125>:
    8000b420:	f2612623          	sw	t1,-212(sp)

000000008000b424 <i_11126>:
    8000b424:	03ce4e3b          	divw	t3,t3,t3

000000008000b428 <i_11127>:
    8000b428:	10512a23          	sw	t0,276(sp)

000000008000b42c <i_11128>:
    8000b42c:	faa108a3          	sb	a0,-79(sp)

000000008000b430 <i_11129>:
    8000b430:	00700e13          	li	t3,7

000000008000b434 <i_11130>:
    8000b434:	41ce5e33          	sra	t3,t3,t3

000000008000b438 <i_11131>:
    8000b438:	00000013          	nop

000000008000b43c <i_11132>:
    8000b43c:	02c10383          	lb	t2,44(sp)

000000008000b440 <i_11133>:
    8000b440:	001e1a9b          	slliw	s5,t3,0x1

000000008000b444 <i_11134>:
    8000b444:	00120213          	addi	tp,tp,1 # 1 <main-0x7fffffff>
    8000b448:	fc42dce3          	ble	tp,t0,8000b420 <i_11125>

000000008000b44c <i_11135>:
    8000b44c:	11416e03          	lwu	t3,276(sp)

000000008000b450 <i_11136>:
    8000b450:	03cadbb3          	divu	s7,s5,t3

000000008000b454 <i_11137>:
    8000b454:	1c713423          	sd	t2,456(sp)

000000008000b458 <i_11138>:
    8000b458:	0ce11683          	lh	a3,206(sp)

000000008000b45c <i_11139>:
    8000b45c:	e3c10e03          	lb	t3,-452(sp)

000000008000b460 <i_11140>:
    8000b460:	004b9e13          	slli	t3,s7,0x4

000000008000b464 <i_11141>:
    8000b464:	13c12b83          	lw	s7,316(sp)

000000008000b468 <i_11142>:
    8000b468:	0138c1b3          	xor	gp,a7,s3

000000008000b46c <i_11143>:
    8000b46c:	04013983          	ld	s3,64(sp)

000000008000b470 <i_11144>:
    8000b470:	f5e11d03          	lh	s10,-162(sp)

000000008000b474 <i_11145>:
    8000b474:	1e014a03          	lbu	s4,480(sp)

000000008000b478 <i_11146>:
    8000b478:	01a00e93          	li	t4,26

000000008000b47c <i_11147>:
    8000b47c:	01d999bb          	sllw	s3,s3,t4

000000008000b480 <i_11148>:
    8000b480:	12e10aa3          	sb	a4,309(sp)

000000008000b484 <i_11149>:
    8000b484:	f5813983          	ld	s3,-168(sp)

000000008000b488 <i_11150>:
    8000b488:	025e69bb          	remw	s3,t3,t0

000000008000b48c <i_11151>:
    8000b48c:	013c8cb3          	add	s9,s9,s3

000000008000b490 <i_11152>:
    8000b490:	18412483          	lw	s1,388(sp)

000000008000b494 <i_11153>:
    8000b494:	e3911423          	sh	s9,-472(sp)

000000008000b498 <i_11154>:
    8000b498:	07313423          	sd	s3,104(sp)

000000008000b49c <i_11155>:
    8000b49c:	19b11523          	sh	s11,394(sp)

000000008000b4a0 <i_11156>:
    8000b4a0:	01399263          	bne	s3,s3,8000b4a4 <i_11157>

000000008000b4a4 <i_11157>:
    8000b4a4:	e7c4a493          	slti	s1,s1,-388

000000008000b4a8 <i_11158>:
    8000b4a8:	0099ecb3          	or	s9,s3,s1

000000008000b4ac <i_11159>:
    8000b4ac:	19313023          	sd	s3,384(sp)

000000008000b4b0 <i_11160>:
    8000b4b0:	01726663          	bltu	tp,s7,8000b4bc <i_11163>

000000008000b4b4 <i_11161>:
    8000b4b4:	c37d8413          	addi	s0,s11,-969

000000008000b4b8 <i_11162>:
    8000b4b8:	ef314a83          	lbu	s5,-269(sp)

000000008000b4bc <i_11163>:
    8000b4bc:	09911d23          	sh	s9,154(sp)

000000008000b4c0 <i_11164>:
    8000b4c0:	07513c23          	sd	s5,120(sp)

000000008000b4c4 <i_11165>:
    8000b4c4:	13611d83          	lh	s11,310(sp)

000000008000b4c8 <i_11166>:
    8000b4c8:	ed211a23          	sh	s2,-300(sp)

000000008000b4cc <i_11167>:
    8000b4cc:	18c10523          	sb	a2,394(sp)

000000008000b4d0 <i_11168>:
    8000b4d0:	0357d063          	ble	s5,a5,8000b4f0 <i_11176>

000000008000b4d4 <i_11169>:
    8000b4d4:	03541263          	bne	s0,s5,8000b4f8 <i_11178>

000000008000b4d8 <i_11170>:
    8000b4d8:	1c016d83          	lwu	s11,448(sp)

000000008000b4dc <i_11171>:
    8000b4dc:	fe012603          	lw	a2,-32(sp)

000000008000b4e0 <i_11172>:
    8000b4e0:	00ca8a63          	beq	s5,a2,8000b4f4 <i_11177>

000000008000b4e4 <i_11173>:
    8000b4e4:	00ca8633          	add	a2,s5,a2

000000008000b4e8 <i_11174>:
    8000b4e8:	00c44e63          	blt	s0,a2,8000b504 <i_11181>

000000008000b4ec <i_11175>:
    8000b4ec:	01b6f433          	and	s0,a3,s11

000000008000b4f0 <i_11176>:
    8000b4f0:	eaf10e03          	lb	t3,-337(sp)

000000008000b4f4 <i_11177>:
    8000b4f4:	00846a63          	bltu	s0,s0,8000b508 <i_11182>

000000008000b4f8 <i_11178>:
    8000b4f8:	e6812a83          	lw	s5,-408(sp)

000000008000b4fc <i_11179>:
    8000b4fc:	01100793          	li	a5,17

000000008000b500 <i_11180>:
    8000b500:	40fadab3          	sra	s5,s5,a5

000000008000b504 <i_11181>:
    8000b504:	01cd5663          	ble	t3,s10,8000b510 <i_11184>

000000008000b508 <i_11182>:
    8000b508:	e8c11e83          	lh	t4,-372(sp)

000000008000b50c <i_11183>:
    8000b50c:	03af6d3b          	remw	s10,t5,s10

000000008000b510 <i_11184>:
    8000b510:	004b5b9b          	srliw	s7,s6,0x4

000000008000b514 <i_11185>:
    8000b514:	024efbbb          	remuw	s7,t4,tp

000000008000b518 <i_11186>:
    8000b518:	01ae0463          	beq	t3,s10,8000b520 <i_11188>

000000008000b51c <i_11187>:
    8000b51c:	002e9e9b          	slliw	t4,t4,0x2

000000008000b520 <i_11188>:
    8000b520:	03dbfe3b          	remuw	t3,s7,t4

000000008000b524 <i_11189>:
    8000b524:	03ce0063          	beq	t3,t3,8000b544 <i_11197>

000000008000b528 <i_11190>:
    8000b528:	017e8863          	beq	t4,s7,8000b538 <i_11194>

000000008000b52c <i_11191>:
    8000b52c:	13d12823          	sw	t4,304(sp)

000000008000b530 <i_11192>:
    8000b530:	14614e83          	lbu	t4,326(sp)

000000008000b534 <i_11193>:
    8000b534:	3ceeff13          	andi	t5,t4,974

000000008000b538 <i_11194>:
    8000b538:	00000013          	nop

000000008000b53c <i_11195>:
    8000b53c:	ea611083          	lh	ra,-346(sp)

000000008000b540 <i_11196>:
    8000b540:	010108a3          	sb	a6,17(sp)

000000008000b544 <i_11197>:
    8000b544:	03ef0f33          	mul	t5,t5,t5

000000008000b548 <i_11198>:
    8000b548:	00000013          	nop

000000008000b54c <i_11199>:
    8000b54c:	8c900813          	li	a6,-1847

000000008000b550 <i_11200>:
    8000b550:	8cd00213          	li	tp,-1843

000000008000b554 <i_11201>:
    8000b554:	021f1f33          	mulh	t5,t5,ra

000000008000b558 <i_11202>:
    8000b558:	00180813          	addi	a6,a6,1
    8000b55c:	ff025ce3          	ble	a6,tp,8000b554 <i_11201>

000000008000b560 <i_11203>:
    8000b560:	08f14f03          	lbu	t5,143(sp)

000000008000b564 <i_11204>:
    8000b564:	01ee1463          	bne	t3,t5,8000b56c <i_11206>

000000008000b568 <i_11205>:
    8000b568:	03e10ca3          	sb	t5,57(sp)

000000008000b56c <i_11206>:
    8000b56c:	01ef7e63          	bleu	t5,t5,8000b588 <i_11213>

000000008000b570 <i_11207>:
    8000b570:	86af0593          	addi	a1,t5,-1942

000000008000b574 <i_11208>:
    8000b574:	16010d03          	lb	s10,352(sp)

000000008000b578 <i_11209>:
    8000b578:	fa615583          	lhu	a1,-90(sp)

000000008000b57c <i_11210>:
    8000b57c:	04b10923          	sb	a1,82(sp)

000000008000b580 <i_11211>:
    8000b580:	ed2102a3          	sb	s2,-315(sp)

000000008000b584 <i_11212>:
    8000b584:	029d75bb          	remuw	a1,s10,s1

000000008000b588 <i_11213>:
    8000b588:	f1a11a03          	lh	s4,-230(sp)

000000008000b58c <i_11214>:
    8000b58c:	06c12483          	lw	s1,108(sp)

000000008000b590 <i_11215>:
    8000b590:	00100a13          	li	s4,1

000000008000b594 <i_11216>:
    8000b594:	014a1a33          	sll	s4,s4,s4

000000008000b598 <i_11217>:
    8000b598:	1a215a03          	lhu	s4,418(sp)

000000008000b59c <i_11218>:
    8000b59c:	01448e63          	beq	s1,s4,8000b5b8 <i_11225>

000000008000b5a0 <i_11219>:
    8000b5a0:	003c5c13          	srli	s8,s8,0x3

000000008000b5a4 <i_11220>:
    8000b5a4:	014c7463          	bleu	s4,s8,8000b5ac <i_11222>

000000008000b5a8 <i_11221>:
    8000b5a8:	6d7a64b7          	lui	s1,0x6d7a6

000000008000b5ac <i_11222>:
    8000b5ac:	00110503          	lb	a0,1(sp)

000000008000b5b0 <i_11223>:
    8000b5b0:	4044dc1b          	sraiw	s8,s1,0x4

000000008000b5b4 <i_11224>:
    8000b5b4:	00299c93          	slli	s9,s3,0x2

000000008000b5b8 <i_11225>:
    8000b5b8:	01949e63          	bne	s1,s9,8000b5d4 <i_11232>

000000008000b5bc <i_11226>:
    8000b5bc:	e5811483          	lh	s1,-424(sp)

000000008000b5c0 <i_11227>:
    8000b5c0:	11611083          	lh	ra,278(sp)

000000008000b5c4 <i_11228>:
    8000b5c4:	03951263          	bne	a0,s9,8000b5e8 <i_11237>

000000008000b5c8 <i_11229>:
    8000b5c8:	03e00c93          	li	s9,62

000000008000b5cc <i_11230>:
    8000b5cc:	419b54b3          	sra	s1,s6,s9

000000008000b5d0 <i_11231>:
    8000b5d0:	04615503          	lhu	a0,70(sp)

000000008000b5d4 <i_11232>:
    8000b5d4:	16a13c23          	sd	a0,376(sp)

000000008000b5d8 <i_11233>:
    8000b5d8:	029654b3          	divu	s1,a2,s1

000000008000b5dc <i_11234>:
    8000b5dc:	0c910423          	sb	s1,200(sp)

000000008000b5e0 <i_11235>:
    8000b5e0:	ea011503          	lh	a0,-352(sp)

000000008000b5e4 <i_11236>:
    8000b5e4:	1c910f23          	sb	s1,478(sp)

000000008000b5e8 <i_11237>:
    8000b5e8:	15910503          	lb	a0,345(sp)

000000008000b5ec <i_11238>:
    8000b5ec:	f8a11023          	sh	a0,-128(sp)

000000008000b5f0 <i_11239>:
    8000b5f0:	7c700c93          	li	s9,1991

000000008000b5f4 <i_11240>:
    8000b5f4:	7d800b13          	li	s6,2008

000000008000b5f8 <i_11241>:
    8000b5f8:	f3c15d03          	lhu	s10,-196(sp)

000000008000b5fc <i_11242>:
    8000b5fc:	0b557493          	andi	s1,a0,181

000000008000b600 <i_11243>:
    8000b600:	131d3513          	sltiu	a0,s10,305

000000008000b604 <i_11244>:
    8000b604:	02a49263          	bne	s1,a0,8000b628 <i_11252>

000000008000b608 <i_11245>:
    8000b608:	f5a13823          	sd	s10,-176(sp)

000000008000b60c <i_11246>:
    8000b60c:	001c8c93          	addi	s9,s9,1
    8000b610:	ff9b54e3          	ble	s9,s6,8000b5f8 <i_11241>

000000008000b614 <i_11247>:
    8000b614:	1d613023          	sd	s6,448(sp)

000000008000b618 <i_11248>:
    8000b618:	009d6663          	bltu	s10,s1,8000b624 <i_11251>

000000008000b61c <i_11249>:
    8000b61c:	eb414c83          	lbu	s9,-332(sp)

000000008000b620 <i_11250>:
    8000b620:	02ccc063          	blt	s9,a2,8000b640 <i_11258>

000000008000b624 <i_11251>:
    8000b624:	00d00c93          	li	s9,13

000000008000b628 <i_11252>:
    8000b628:	019b183b          	sllw	a6,s6,s9

000000008000b62c <i_11253>:
    8000b62c:	f1913c23          	sd	s9,-232(sp)

000000008000b630 <i_11254>:
    8000b630:	fd016d03          	lwu	s10,-48(sp)

000000008000b634 <i_11255>:
    8000b634:	6e0c809b          	addiw	ra,s9,1760

000000008000b638 <i_11256>:
    8000b638:	11e10a23          	sb	t5,276(sp)

000000008000b63c <i_11257>:
    8000b63c:	026c8db3          	mul	s11,s9,t1

000000008000b640 <i_11258>:
    8000b640:	0a416983          	lwu	s3,164(sp)

000000008000b644 <i_11259>:
    8000b644:	00000013          	nop

000000008000b648 <i_11260>:
    8000b648:	8d200c93          	li	s9,-1838

000000008000b64c <i_11261>:
    8000b64c:	8dd00313          	li	t1,-1827

000000008000b650 <i_11262>:
    8000b650:	01a976b3          	and	a3,s2,s10

000000008000b654 <i_11263>:
    8000b654:	f2c14683          	lbu	a3,-212(sp)

000000008000b658 <i_11264>:
    8000b658:	0016d69b          	srliw	a3,a3,0x1

000000008000b65c <i_11265>:
    8000b65c:	1c016483          	lwu	s1,448(sp)

000000008000b660 <i_11266>:
    8000b660:	00000013          	nop

000000008000b664 <i_11267>:
    8000b664:	001c8c93          	addi	s9,s9,1
    8000b668:	fe6ce4e3          	bltu	s9,t1,8000b650 <i_11262>

000000008000b66c <i_11268>:
    8000b66c:	ea411e83          	lh	t4,-348(sp)

000000008000b670 <i_11269>:
    8000b670:	10d10aa3          	sb	a3,277(sp)

000000008000b674 <i_11270>:
    8000b674:	10d11023          	sh	a3,256(sp)

000000008000b678 <i_11271>:
    8000b678:	0c110683          	lb	a3,193(sp)

000000008000b67c <i_11272>:
    8000b67c:	1cd13423          	sd	a3,456(sp)

000000008000b680 <i_11273>:
    8000b680:	0f415e03          	lhu	t3,244(sp)

000000008000b684 <i_11274>:
    8000b684:	79100693          	li	a3,1937

000000008000b688 <i_11275>:
    8000b688:	79400a93          	li	s5,1940

000000008000b68c <i_11276>:
    8000b68c:	00d68eb3          	add	t4,a3,a3

000000008000b690 <i_11277>:
    8000b690:	02da1263          	bne	s4,a3,8000b6b4 <i_11285>

000000008000b694 <i_11278>:
    8000b694:	00168693          	addi	a3,a3,1
    8000b698:	ff569ae3          	bne	a3,s5,8000b68c <i_11276>

000000008000b69c <i_11279>:
    8000b69c:	01d50a63          	beq	a0,t4,8000b6b0 <i_11284>

000000008000b6a0 <i_11280>:
    8000b6a0:	011ae863          	bltu	s5,a7,8000b6b0 <i_11284>

000000008000b6a4 <i_11281>:
    8000b6a4:	e6d10aa3          	sb	a3,-395(sp)

000000008000b6a8 <i_11282>:
    8000b6a8:	fb511523          	sh	s5,-86(sp)

000000008000b6ac <i_11283>:
    8000b6ac:	025ad2bb          	divuw	t0,s5,t0

000000008000b6b0 <i_11284>:
    8000b6b0:	e7213423          	sd	s2,-408(sp)

000000008000b6b4 <i_11285>:
    8000b6b4:	07414283          	lbu	t0,116(sp)

000000008000b6b8 <i_11286>:
    8000b6b8:	0fd106a3          	sb	t4,237(sp)

000000008000b6bc <i_11287>:
    8000b6bc:	88e00c13          	li	s8,-1906

000000008000b6c0 <i_11288>:
    8000b6c0:	89200513          	li	a0,-1902

000000008000b6c4 <i_11289>:
    8000b6c4:	0048db1b          	srliw	s6,a7,0x4

000000008000b6c8 <i_11290>:
    8000b6c8:	00510b23          	sb	t0,22(sp)

000000008000b6cc <i_11291>:
    8000b6cc:	001c0c13          	addi	s8,s8,1
    8000b6d0:	ff855ae3          	ble	s8,a0,8000b6c4 <i_11289>

000000008000b6d4 <i_11292>:
    8000b6d4:	fbc11123          	sh	t3,-94(sp)

000000008000b6d8 <i_11293>:
    8000b6d8:	0254f2bb          	remuw	t0,s1,t0

000000008000b6dc <i_11294>:
    8000b6dc:	fe816d03          	lwu	s10,-24(sp)

000000008000b6e0 <i_11295>:
    8000b6e0:	036d51b3          	divu	gp,s10,s6

000000008000b6e4 <i_11296>:
    8000b6e4:	07910283          	lb	t0,121(sp)

000000008000b6e8 <i_11297>:
    8000b6e8:	fa710023          	sb	t2,-96(sp)

000000008000b6ec <i_11298>:
    8000b6ec:	e3d10383          	lb	t2,-451(sp)

000000008000b6f0 <i_11299>:
    8000b6f0:	e4714283          	lbu	t0,-441(sp)

000000008000b6f4 <i_11300>:
    8000b6f4:	02325433          	divu	s0,tp,gp

000000008000b6f8 <i_11301>:
    8000b6f8:	ec812203          	lw	tp,-312(sp)

000000008000b6fc <i_11302>:
    8000b6fc:	02747233          	remu	tp,s0,t2

000000008000b700 <i_11303>:
    8000b700:	03016f03          	lwu	t5,48(sp)

000000008000b704 <i_11304>:
    8000b704:	0da15a83          	lhu	s5,218(sp)

000000008000b708 <i_11305>:
    8000b708:	02b3f463          	bleu	a1,t2,8000b730 <i_11315>

000000008000b70c <i_11306>:
    8000b70c:	7e043413          	sltiu	s0,s0,2016

000000008000b710 <i_11307>:
    8000b710:	fde10423          	sb	t5,-56(sp)

000000008000b714 <i_11308>:
    8000b714:	ea4102a3          	sb	tp,-347(sp)

000000008000b718 <i_11309>:
    8000b718:	f1410503          	lb	a0,-236(sp)

000000008000b71c <i_11310>:
    8000b71c:	1ca12623          	sw	a0,460(sp)

000000008000b720 <i_11311>:
    8000b720:	03521c33          	mulh	s8,tp,s5

000000008000b724 <i_11312>:
    8000b724:	08611803          	lh	a6,134(sp)

000000008000b728 <i_11313>:
    8000b728:	4032da9b          	sraiw	s5,t0,0x3

000000008000b72c <i_11314>:
    8000b72c:	01511223          	sh	s5,4(sp)

000000008000b730 <i_11315>:
    8000b730:	ee711a23          	sh	t2,-268(sp)

000000008000b734 <i_11316>:
    8000b734:	0a478e97          	auipc	t4,0xa478

000000008000b738 <i_11317>:
    8000b738:	011f6263          	bltu	t5,a7,8000b73c <i_11318>

000000008000b73c <i_11318>:
    8000b73c:	00a87233          	and	tp,a6,a0

000000008000b740 <i_11319>:
    8000b740:	0243b6b3          	mulhu	a3,t2,tp

000000008000b744 <i_11320>:
    8000b744:	0c412383          	lw	t2,196(sp)

000000008000b748 <i_11321>:
    8000b748:	1b812203          	lw	tp,440(sp)

000000008000b74c <i_11322>:
    8000b74c:	f7811c03          	lh	s8,-136(sp)

000000008000b750 <i_11323>:
    8000b750:	00f00413          	li	s0,15

000000008000b754 <i_11324>:
    8000b754:	4083d3bb          	sraw	t2,t2,s0

000000008000b758 <i_11325>:
    8000b758:	02745c3b          	divuw	s8,s0,t2

000000008000b75c <i_11326>:
    8000b75c:	03820063          	beq	tp,s8,8000b77c <i_11334>

000000008000b760 <i_11327>:
    8000b760:	00141c1b          	slliw	s8,s0,0x1

000000008000b764 <i_11328>:
    8000b764:	018c5263          	ble	s8,s8,8000b768 <i_11329>

000000008000b768 <i_11329>:
    8000b768:	0386cc33          	div	s8,a3,s8

000000008000b76c <i_11330>:
    8000b76c:	e7812e23          	sw	s8,-388(sp)

000000008000b770 <i_11331>:
    8000b770:	9c0c069b          	addiw	a3,s8,-1600

000000008000b774 <i_11332>:
    8000b774:	1c215683          	lhu	a3,450(sp)

000000008000b778 <i_11333>:
    8000b778:	2f55fb93          	andi	s7,a1,757

000000008000b77c <i_11334>:
    8000b77c:	00000013          	nop

000000008000b780 <i_11335>:
    8000b780:	0175aa33          	slt	s4,a1,s7

000000008000b784 <i_11336>:
    8000b784:	77a00593          	li	a1,1914

000000008000b788 <i_11337>:
    8000b788:	78900c13          	li	s8,1929

000000008000b78c <i_11338>:
    8000b78c:	02d1d063          	ble	a3,gp,8000b7ac <i_11345>

000000008000b790 <i_11339>:
    8000b790:	00158593          	addi	a1,a1,1
    8000b794:	ff859ce3          	bne	a1,s8,8000b78c <i_11338>

000000008000b798 <i_11340>:
    8000b798:	00d6ec63          	bltu	a3,a3,8000b7b0 <i_11346>

000000008000b79c <i_11341>:
    8000b79c:	10c15a03          	lhu	s4,268(sp)

000000008000b7a0 <i_11342>:
    8000b7a0:	f0713823          	sd	t2,-240(sp)

000000008000b7a4 <i_11343>:
    8000b7a4:	41758e3b          	subw	t3,a1,s7

000000008000b7a8 <i_11344>:
    8000b7a8:	01b00093          	li	ra,27

000000008000b7ac <i_11345>:
    8000b7ac:	001695bb          	sllw	a1,a3,ra

000000008000b7b0 <i_11346>:
    8000b7b0:	e9410123          	sb	s4,-382(sp)

000000008000b7b4 <i_11347>:
    8000b7b4:	0146ee63          	bltu	a3,s4,8000b7d0 <i_11354>

000000008000b7b8 <i_11348>:
    8000b7b8:	00b6f263          	bleu	a1,a3,8000b7bc <i_11349>

000000008000b7bc <i_11349>:
    8000b7bc:	417b8c33          	sub	s8,s7,s7

000000008000b7c0 <i_11350>:
    8000b7c0:	02b230b3          	mulhu	ra,tp,a1

000000008000b7c4 <i_11351>:
    8000b7c4:	0027ef33          	or	t5,a5,sp

000000008000b7c8 <i_11352>:
    8000b7c8:	06914203          	lbu	tp,105(sp)

000000008000b7cc <i_11353>:
    8000b7cc:	00000013          	nop

000000008000b7d0 <i_11354>:
    8000b7d0:	e1b14f03          	lbu	t5,-485(sp)

000000008000b7d4 <i_11355>:
    8000b7d4:	00000013          	nop

000000008000b7d8 <i_11356>:
    8000b7d8:	76200793          	li	a5,1890

000000008000b7dc <i_11357>:
    8000b7dc:	77300d93          	li	s11,1907

000000008000b7e0 <i_11358>:
    8000b7e0:	1e013183          	ld	gp,480(sp)

000000008000b7e4 <i_11359>:
    8000b7e4:	01e21463          	bne	tp,t5,8000b7ec <i_11361>

000000008000b7e8 <i_11360>:
    8000b7e8:	023f7f33          	remu	t5,t5,gp

000000008000b7ec <i_11361>:
    8000b7ec:	e2e11f03          	lh	t5,-466(sp)

000000008000b7f0 <i_11362>:
    8000b7f0:	fb013183          	ld	gp,-80(sp)

000000008000b7f4 <i_11363>:
    8000b7f4:	00178793          	addi	a5,a5,1
    8000b7f8:	fefdd4e3          	ble	a5,s11,8000b7e0 <i_11358>

000000008000b7fc <i_11364>:
    8000b7fc:	fbe15183          	lhu	gp,-66(sp)

000000008000b800 <i_11365>:
    8000b800:	00000013          	nop

000000008000b804 <i_11366>:
    8000b804:	7ed00293          	li	t0,2029

000000008000b808 <i_11367>:
    8000b808:	7f700f13          	li	t5,2039

000000008000b80c <i_11368>:
    8000b80c:	039b93b3          	mulh	t2,s7,s9

000000008000b810 <i_11369>:
    8000b810:	e4710d23          	sb	t2,-422(sp)

000000008000b814 <i_11370>:
    8000b814:	8bd00c93          	li	s9,-1859

000000008000b818 <i_11371>:
    8000b818:	8cb00b93          	li	s7,-1845

000000008000b81c <i_11372>:
    8000b81c:	02400493          	li	s1,36

000000008000b820 <i_11373>:
    8000b820:	409bd3b3          	sra	t2,s7,s1

000000008000b824 <i_11374>:
    8000b824:	00967db3          	and	s11,a2,s1

000000008000b828 <i_11375>:
    8000b828:	00000013          	nop

000000008000b82c <i_11376>:
    8000b82c:	1c3106a3          	sb	gp,461(sp)

000000008000b830 <i_11377>:
    8000b830:	03b1d1b3          	divu	gp,gp,s11

000000008000b834 <i_11378>:
    8000b834:	6b45fc13          	andi	s8,a1,1716

000000008000b838 <i_11379>:
    8000b838:	02faf863          	bleu	a5,s5,8000b868 <i_11389>

000000008000b83c <i_11380>:
    8000b83c:	001c8c93          	addi	s9,s9,1
    8000b840:	fd9bdee3          	ble	s9,s7,8000b81c <i_11372>

000000008000b844 <i_11381>:
    8000b844:	1bf13823          	sd	t6,432(sp)

000000008000b848 <i_11382>:
    8000b848:	ea611183          	lh	gp,-346(sp)

000000008000b84c <i_11383>:
    8000b84c:	00128293          	addi	t0,t0,1
    8000b850:	fa5f7ee3          	bleu	t0,t5,8000b80c <i_11368>

000000008000b854 <i_11384>:
    8000b854:	0051ee63          	bltu	gp,t0,8000b870 <i_11391>

000000008000b858 <i_11385>:
    8000b858:	fb7106a3          	sb	s7,-83(sp)

000000008000b85c <i_11386>:
    8000b85c:	00718a63          	beq	gp,t2,8000b870 <i_11391>

000000008000b860 <i_11387>:
    8000b860:	e2712623          	sw	t2,-468(sp)

000000008000b864 <i_11388>:
    8000b864:	0e815e83          	lhu	t4,232(sp)

000000008000b868 <i_11389>:
    8000b868:	02a11383          	lh	t2,42(sp)

000000008000b86c <i_11390>:
    8000b86c:	0103c833          	xor	a6,t2,a6

000000008000b870 <i_11391>:
    8000b870:	f5cee813          	ori	a6,t4,-164

000000008000b874 <i_11392>:
    8000b874:	01d3dc63          	ble	t4,t2,8000b88c <i_11398>

000000008000b878 <i_11393>:
    8000b878:	03dc9263          	bne	s9,t4,8000b89c <i_11402>

000000008000b87c <i_11394>:
    8000b87c:	16813803          	ld	a6,360(sp)

000000008000b880 <i_11395>:
    8000b880:	012a8eb3          	add	t4,s5,s2

000000008000b884 <i_11396>:
    8000b884:	f1c15e83          	lhu	t4,-228(sp)

000000008000b888 <i_11397>:
    8000b888:	01cea333          	slt	t1,t4,t3

000000008000b88c <i_11398>:
    8000b88c:	00000013          	nop

000000008000b890 <i_11399>:
    8000b890:	01cefe33          	and	t3,t4,t3

000000008000b894 <i_11400>:
    8000b894:	00000013          	nop

000000008000b898 <i_11401>:
    8000b898:	ebd10823          	sb	t4,-336(sp)

000000008000b89c <i_11402>:
    8000b89c:	00900313          	li	t1,9

000000008000b8a0 <i_11403>:
    8000b8a0:	006e5333          	srl	t1,t3,t1

000000008000b8a4 <i_11404>:
    8000b8a4:	7c700a93          	li	s5,1991

000000008000b8a8 <i_11405>:
    8000b8a8:	7d800c93          	li	s9,2008

000000008000b8ac <i_11406>:
    8000b8ac:	001a8a93          	addi	s5,s5,1 # 452de205 <main-0x3ad21dfb>
    8000b8b0:	ff5cdee3          	ble	s5,s9,8000b8ac <i_11406>

000000008000b8b4 <i_11407>:
    8000b8b4:	02637bbb          	remuw	s7,t1,t1

000000008000b8b8 <i_11408>:
    8000b8b8:	fe812e03          	lw	t3,-24(sp)

000000008000b8bc <i_11409>:
    8000b8bc:	03b32db3          	mulhsu	s11,t1,s11

000000008000b8c0 <i_11410>:
    8000b8c0:	01c90a33          	add	s4,s2,t3

000000008000b8c4 <i_11411>:
    8000b8c4:	0a110a03          	lb	s4,161(sp)

000000008000b8c8 <i_11412>:
    8000b8c8:	86700793          	li	a5,-1945

000000008000b8cc <i_11413>:
    8000b8cc:	87900c13          	li	s8,-1927

000000008000b8d0 <i_11414>:
    8000b8d0:	02f30f3b          	mulw	t5,t1,a5

000000008000b8d4 <i_11415>:
    8000b8d4:	00178793          	addi	a5,a5,1
    8000b8d8:	ff87cce3          	blt	a5,s8,8000b8d0 <i_11414>

000000008000b8dc <i_11416>:
    8000b8dc:	032e4a3b          	divw	s4,t3,s2

000000008000b8e0 <i_11417>:
    8000b8e0:	01cd8433          	add	s0,s11,t3

000000008000b8e4 <i_11418>:
    8000b8e4:	026a6bb3          	rem	s7,s4,t1

000000008000b8e8 <i_11419>:
    8000b8e8:	fa013e03          	ld	t3,-96(sp)

000000008000b8ec <i_11420>:
    8000b8ec:	0dc11c23          	sh	t3,216(sp)

000000008000b8f0 <i_11421>:
    8000b8f0:	40c48833          	sub	a6,s1,a2

000000008000b8f4 <i_11422>:
    8000b8f4:	03ca9e33          	mulh	t3,s5,t3

000000008000b8f8 <i_11423>:
    8000b8f8:	00ae1863          	bne	t3,a0,8000b908 <i_11427>

000000008000b8fc <i_11424>:
    8000b8fc:	00289513          	slli	a0,a7,0x2

000000008000b900 <i_11425>:
    8000b900:	f4a12023          	sw	a0,-192(sp)

000000008000b904 <i_11426>:
    8000b904:	03ce2e33          	mulhsu	t3,t3,t3

000000008000b908 <i_11427>:
    8000b908:	e5c10823          	sb	t3,-432(sp)

000000008000b90c <i_11428>:
    8000b90c:	ffc12423          	sw	t3,-24(sp)

000000008000b910 <i_11429>:
    8000b910:	03ce4e3b          	divw	t3,t3,t3

000000008000b914 <i_11430>:
    8000b914:	01d00513          	li	a0,29

000000008000b918 <i_11431>:
    8000b918:	00ae1b33          	sll	s6,t3,a0

000000008000b91c <i_11432>:
    8000b91c:	036e25b3          	mulhsu	a1,t3,s6

000000008000b920 <i_11433>:
    8000b920:	eee14803          	lbu	a6,-274(sp)

000000008000b924 <i_11434>:
    8000b924:	010b4263          	blt	s6,a6,8000b928 <i_11435>

000000008000b928 <i_11435>:
    8000b928:	02b89db3          	mulh	s11,a7,a1

000000008000b92c <i_11436>:
    8000b92c:	00015b03          	lhu	s6,0(sp)

000000008000b930 <i_11437>:
    8000b930:	f8013803          	ld	a6,-128(sp)

000000008000b934 <i_11438>:
    8000b934:	02c16203          	lwu	tp,44(sp)

000000008000b938 <i_11439>:
    8000b938:	03b84463          	blt	a6,s11,8000b960 <i_11449>

000000008000b93c <i_11440>:
    8000b93c:	01b84863          	blt	a6,s11,8000b94c <i_11444>

000000008000b940 <i_11441>:
    8000b940:	10413823          	sd	tp,272(sp)

000000008000b944 <i_11442>:
    8000b944:	00e24463          	blt	tp,a4,8000b94c <i_11444>

000000008000b948 <i_11443>:
    8000b948:	6a9dcd93          	xori	s11,s11,1705

000000008000b94c <i_11444>:
    8000b94c:	03b24233          	div	tp,tp,s11

000000008000b950 <i_11445>:
    8000b950:	e7011583          	lh	a1,-400(sp)

000000008000b954 <i_11446>:
    8000b954:	01a11303          	lh	t1,26(sp)

000000008000b958 <i_11447>:
    8000b958:	02bdc263          	blt	s11,a1,8000b97c <i_11456>

000000008000b95c <i_11448>:
    8000b95c:	00620c63          	beq	tp,t1,8000b974 <i_11454>

000000008000b960 <i_11449>:
    8000b960:	f2212823          	sw	sp,-208(sp)

000000008000b964 <i_11450>:
    8000b964:	00000013          	nop

000000008000b968 <i_11451>:
    8000b968:	03400c93          	li	s9,52

000000008000b96c <i_11452>:
    8000b96c:	019b5b33          	srl	s6,s6,s9

000000008000b970 <i_11453>:
    8000b970:	00000013          	nop

000000008000b974 <i_11454>:
    8000b974:	004c0833          	add	a6,s8,tp

000000008000b978 <i_11455>:
    8000b978:	019cf0b3          	and	ra,s9,s9

000000008000b97c <i_11456>:
    8000b97c:	419e0a3b          	subw	s4,t3,s9

000000008000b980 <i_11457>:
    8000b980:	eb310783          	lb	a5,-333(sp)

000000008000b984 <i_11458>:
    8000b984:	89300c13          	li	s8,-1901

000000008000b988 <i_11459>:
    8000b988:	8a100213          	li	tp,-1887

000000008000b98c <i_11460>:
    8000b98c:	1b911d23          	sh	s9,442(sp)

000000008000b990 <i_11461>:
    8000b990:	029cd7bb          	divuw	a5,s9,s1

000000008000b994 <i_11462>:
    8000b994:	88600c93          	li	s9,-1914

000000008000b998 <i_11463>:
    8000b998:	88f00b13          	li	s6,-1905

000000008000b99c <i_11464>:
    8000b99c:	f3e15d03          	lhu	s10,-194(sp)

000000008000b9a0 <i_11465>:
    8000b9a0:	001c8c93          	addi	s9,s9,1
    8000b9a4:	ff6c9ce3          	bne	s9,s6,8000b99c <i_11464>

000000008000b9a8 <i_11466>:
    8000b9a8:	00b00c93          	li	s9,11

000000008000b9ac <i_11467>:
    8000b9ac:	019a1a3b          	sllw	s4,s4,s9

000000008000b9b0 <i_11468>:
    8000b9b0:	001c0c13          	addi	s8,s8,1
    8000b9b4:	fd825ce3          	ble	s8,tp,8000b98c <i_11460>

000000008000b9b8 <i_11469>:
    8000b9b8:	00000013          	nop

000000008000b9bc <i_11470>:
    8000b9bc:	f2a10083          	lb	ra,-214(sp)

000000008000b9c0 <i_11471>:
    8000b9c0:	015af5b3          	and	a1,s5,s5

000000008000b9c4 <i_11472>:
    8000b9c4:	7e700813          	li	a6,2023

000000008000b9c8 <i_11473>:
    8000b9c8:	7f100a93          	li	s5,2033

000000008000b9cc <i_11474>:
    8000b9cc:	02c16c83          	lwu	s9,44(sp)

000000008000b9d0 <i_11475>:
    8000b9d0:	00200093          	li	ra,2

000000008000b9d4 <i_11476>:
    8000b9d4:	0016dcbb          	srlw	s9,a3,ra

000000008000b9d8 <i_11477>:
    8000b9d8:	4030de13          	srai	t3,ra,0x3

000000008000b9dc <i_11478>:
    8000b9dc:	1d9106a3          	sb	s9,461(sp)

000000008000b9e0 <i_11479>:
    8000b9e0:	14d804b7          	lui	s1,0x14d80

000000008000b9e4 <i_11480>:
    8000b9e4:	17e11483          	lh	s1,382(sp)

000000008000b9e8 <i_11481>:
    8000b9e8:	e6910083          	lb	ra,-407(sp)

000000008000b9ec <i_11482>:
    8000b9ec:	008082b3          	add	t0,ra,s0

000000008000b9f0 <i_11483>:
    8000b9f0:	00180813          	addi	a6,a6,1
    8000b9f4:	fd0adce3          	ble	a6,s5,8000b9cc <i_11474>

000000008000b9f8 <i_11484>:
    8000b9f8:	021bd1bb          	divuw	gp,s7,ra

000000008000b9fc <i_11485>:
    8000b9fc:	f0710083          	lb	ra,-249(sp)

000000008000ba00 <i_11486>:
    8000ba00:	0250fdb3          	remu	s11,ra,t0

000000008000ba04 <i_11487>:
    8000ba04:	03b28463          	beq	t0,s11,8000ba2c <i_11497>

000000008000ba08 <i_11488>:
    8000ba08:	01500a93          	li	s5,21

000000008000ba0c <i_11489>:
    8000ba0c:	0158d2bb          	srlw	t0,a7,s5

000000008000ba10 <i_11490>:
    8000ba10:	025d7233          	remu	tp,s10,t0

000000008000ba14 <i_11491>:
    8000ba14:	003a9d1b          	slliw	s10,s5,0x3

000000008000ba18 <i_11492>:
    8000ba18:	035a7063          	bleu	s5,s4,8000ba38 <i_11500>

000000008000ba1c <i_11493>:
    8000ba1c:	00a00993          	li	s3,10

000000008000ba20 <i_11494>:
    8000ba20:	013d93bb          	sllw	t2,s11,s3

000000008000ba24 <i_11495>:
    8000ba24:	13810a83          	lb	s5,312(sp)

000000008000ba28 <i_11496>:
    8000ba28:	015ada63          	ble	s5,s5,8000ba3c <i_11501>

000000008000ba2c <i_11497>:
    8000ba2c:	0252d2b3          	divu	t0,t0,t0

000000008000ba30 <i_11498>:
    8000ba30:	00811a83          	lh	s5,8(sp)

000000008000ba34 <i_11499>:
    8000ba34:	e9412283          	lw	t0,-364(sp)

000000008000ba38 <i_11500>:
    8000ba38:	0042941b          	slliw	s0,t0,0x4

000000008000ba3c <i_11501>:
    8000ba3c:	e14ac593          	xori	a1,s5,-492

000000008000ba40 <i_11502>:
    8000ba40:	15010283          	lb	t0,336(sp)

000000008000ba44 <i_11503>:
    8000ba44:	02546263          	bltu	s0,t0,8000ba68 <i_11512>

000000008000ba48 <i_11504>:
    8000ba48:	eda15403          	lhu	s0,-294(sp)

000000008000ba4c <i_11505>:
    8000ba4c:	19510223          	sb	s5,388(sp)

000000008000ba50 <i_11506>:
    8000ba50:	0156ce63          	blt	a3,s5,8000ba6c <i_11513>

000000008000ba54 <i_11507>:
    8000ba54:	0056d463          	ble	t0,a3,8000ba5c <i_11509>

000000008000ba58 <i_11508>:
    8000ba58:	1a813023          	sd	s0,416(sp)

000000008000ba5c <i_11509>:
    8000ba5c:	03f2f463          	bleu	t6,t0,8000ba84 <i_11519>

000000008000ba60 <i_11510>:
    8000ba60:	0a012383          	lw	t2,160(sp)

000000008000ba64 <i_11511>:
    8000ba64:	00d3d263          	ble	a3,t2,8000ba68 <i_11512>

000000008000ba68 <i_11512>:
    8000ba68:	4033d69b          	sraiw	a3,t2,0x3

000000008000ba6c <i_11513>:
    8000ba6c:	60e6c393          	xori	t2,a3,1550

000000008000ba70 <i_11514>:
    8000ba70:	01812683          	lw	a3,24(sp)

000000008000ba74 <i_11515>:
    8000ba74:	02d39463          	bne	t2,a3,8000ba9c <i_11525>

000000008000ba78 <i_11516>:
    8000ba78:	0231b1b3          	mulhu	gp,gp,gp

000000008000ba7c <i_11517>:
    8000ba7c:	0071b1b3          	sltu	gp,gp,t2

000000008000ba80 <i_11518>:
    8000ba80:	f1a15403          	lhu	s0,-230(sp)

000000008000ba84 <i_11519>:
    8000ba84:	fe013a03          	ld	s4,-32(sp)

000000008000ba88 <i_11520>:
    8000ba88:	4013d41b          	sraiw	s0,t2,0x1

000000008000ba8c <i_11521>:
    8000ba8c:	034a4463          	blt	s4,s4,8000bab4 <i_11531>

000000008000ba90 <i_11522>:
    8000ba90:	19f109a3          	sb	t6,403(sp)

000000008000ba94 <i_11523>:
    8000ba94:	0143f263          	bleu	s4,t2,8000ba98 <i_11524>

000000008000ba98 <i_11524>:
    8000ba98:	0073ca33          	xor	s4,t2,t2

000000008000ba9c <i_11525>:
    8000ba9c:	0024181b          	slliw	a6,s0,0x2

000000008000baa0 <i_11526>:
    8000baa0:	02d3f63b          	remuw	a2,t2,a3

000000008000baa4 <i_11527>:
    8000baa4:	7b8fc437          	lui	s0,0x7b8fc

000000008000baa8 <i_11528>:
    8000baa8:	03d68263          	beq	a3,t4,8000bacc <i_11537>

000000008000baac <i_11529>:
    8000baac:	0b013c23          	sd	a6,184(sp)

000000008000bab0 <i_11530>:
    8000bab0:	17813c83          	ld	s9,376(sp)

000000008000bab4 <i_11531>:
    8000bab4:	0073fc63          	bleu	t2,t2,8000bacc <i_11537>

000000008000bab8 <i_11532>:
    8000bab8:	0e016c83          	lwu	s9,224(sp)

000000008000babc <i_11533>:
    8000babc:	e5416383          	lwu	t2,-428(sp)

000000008000bac0 <i_11534>:
    8000bac0:	f6010b03          	lb	s6,-160(sp)

000000008000bac4 <i_11535>:
    8000bac4:	007b73b3          	and	t2,s6,t2

000000008000bac8 <i_11536>:
    8000bac8:	ed410203          	lb	tp,-300(sp)

000000008000bacc <i_11537>:
    8000bacc:	ee013283          	ld	t0,-288(sp)

000000008000bad0 <i_11538>:
    8000bad0:	00476663          	bltu	a4,tp,8000badc <i_11541>

000000008000bad4 <i_11539>:
    8000bad4:	00000013          	nop

000000008000bad8 <i_11540>:
    8000bad8:	413289bb          	subw	s3,t0,s3

000000008000badc <i_11541>:
    8000badc:	15311623          	sh	s3,332(sp)

000000008000bae0 <i_11542>:
    8000bae0:	00429413          	slli	s0,t0,0x4

000000008000bae4 <i_11543>:
    8000bae4:	82300393          	li	t2,-2013

000000008000bae8 <i_11544>:
    8000bae8:	83200213          	li	tp,-1998

000000008000baec <i_11545>:
    8000baec:	00000013          	nop

000000008000baf0 <i_11546>:
    8000baf0:	f9c16283          	lwu	t0,-100(sp)

000000008000baf4 <i_11547>:
    8000baf4:	00799e63          	bne	s3,t2,8000bb10 <i_11554>

000000008000baf8 <i_11548>:
    8000baf8:	7fe9899b          	addiw	s3,s3,2046

000000008000bafc <i_11549>:
    8000bafc:	1571cd13          	xori	s10,gp,343

000000008000bb00 <i_11550>:
    8000bb00:	0083d663          	ble	s0,t2,8000bb0c <i_11553>

000000008000bb04 <i_11551>:
    8000bb04:	0139c663          	blt	s3,s3,8000bb10 <i_11554>

000000008000bb08 <i_11552>:
    8000bb08:	013989b3          	add	s3,s3,s3

000000008000bb0c <i_11553>:
    8000bb0c:	15312223          	sw	s3,324(sp)

000000008000bb10 <i_11554>:
    8000bb10:	033109b3          	mul	s3,sp,s3

000000008000bb14 <i_11555>:
    8000bb14:	00000013          	nop

000000008000bb18 <i_11556>:
    8000bb18:	00138393          	addi	t2,t2,1
    8000bb1c:	fc4398e3          	bne	t2,tp,8000baec <i_11545>

000000008000bb20 <i_11557>:
    8000bb20:	ed312623          	sw	s3,-308(sp)

000000008000bb24 <i_11558>:
    8000bb24:	0fa13c23          	sd	s10,248(sp)

000000008000bb28 <i_11559>:
    8000bb28:	0139c9b3          	xor	s3,s3,s3

000000008000bb2c <i_11560>:
    8000bb2c:	0134c6b3          	xor	a3,s1,s3

000000008000bb30 <i_11561>:
    8000bb30:	02f69263          	bne	a3,a5,8000bb54 <i_11570>

000000008000bb34 <i_11562>:
    8000bb34:	40d98ab3          	sub	s5,s3,a3

000000008000bb38 <i_11563>:
    8000bb38:	015c4c33          	xor	s8,s8,s5

000000008000bb3c <i_11564>:
    8000bb3c:	16e15683          	lhu	a3,366(sp)

000000008000bb40 <i_11565>:
    8000bb40:	018c1e63          	bne	s8,s8,8000bb5c <i_11572>

000000008000bb44 <i_11566>:
    8000bb44:	015c7663          	bleu	s5,s8,8000bb50 <i_11569>

000000008000bb48 <i_11567>:
    8000bb48:	0b813b03          	ld	s6,184(sp)

000000008000bb4c <i_11568>:
    8000bb4c:	00121313          	slli	t1,tp,0x1

000000008000bb50 <i_11569>:
    8000bb50:	0186b3b3          	sltu	t2,a3,s8

000000008000bb54 <i_11570>:
    8000bb54:	026eb4b3          	mulhu	s1,t4,t1

000000008000bb58 <i_11571>:
    8000bb58:	efe15d03          	lhu	s10,-258(sp)

000000008000bb5c <i_11572>:
    8000bb5c:	17712c23          	sw	s7,376(sp)

000000008000bb60 <i_11573>:
    8000bb60:	f1016e83          	lwu	t4,-240(sp)

000000008000bb64 <i_11574>:
    8000bb64:	eb816083          	lwu	ra,-328(sp)

000000008000bb68 <i_11575>:
    8000bb68:	e2416083          	lwu	ra,-476(sp)

000000008000bb6c <i_11576>:
    8000bb6c:	e7a10a83          	lb	s5,-390(sp)

000000008000bb70 <i_11577>:
    8000bb70:	239c4093          	xori	ra,s8,569

000000008000bb74 <i_11578>:
    8000bb74:	0350bab3          	mulhu	s5,ra,s5

000000008000bb78 <i_11579>:
    8000bb78:	ea412083          	lw	ra,-348(sp)

000000008000bb7c <i_11580>:
    8000bb7c:	01b09863          	bne	ra,s11,8000bb8c <i_11584>

000000008000bb80 <i_11581>:
    8000bb80:	9cc070b7          	lui	ra,0x9cc07

000000008000bb84 <i_11582>:
    8000bb84:	12c11303          	lh	t1,300(sp)

000000008000bb88 <i_11583>:
    8000bb88:	03509263          	bne	ra,s5,8000bbac <i_11592>

000000008000bb8c <i_11584>:
    8000bb8c:	0b610083          	lb	ra,182(sp)

000000008000bb90 <i_11585>:
    8000bb90:	13514603          	lbu	a2,309(sp)

000000008000bb94 <i_11586>:
    8000bb94:	0fe10403          	lb	s0,254(sp)

000000008000bb98 <i_11587>:
    8000bb98:	02831463          	bne	t1,s0,8000bbc0 <i_11597>

000000008000bb9c <i_11588>:
    8000bb9c:	001c5293          	srli	t0,s8,0x1

000000008000bba0 <i_11589>:
    8000bba0:	0313033b          	mulw	t1,t1,a7

000000008000bba4 <i_11590>:
    8000bba4:	10511323          	sh	t0,262(sp)

000000008000bba8 <i_11591>:
    8000bba8:	fcd10403          	lb	s0,-51(sp)

000000008000bbac <i_11592>:
    8000bbac:	03e34cb3          	div	s9,t1,t5

000000008000bbb0 <i_11593>:
    8000bbb0:	3e22f293          	andi	t0,t0,994

000000008000bbb4 <i_11594>:
    8000bbb4:	11b12223          	sw	s11,260(sp)

000000008000bbb8 <i_11595>:
    8000bbb8:	49883813          	sltiu	a6,a6,1176

000000008000bbbc <i_11596>:
    8000bbbc:	05514f03          	lbu	t5,85(sp)

000000008000bbc0 <i_11597>:
    8000bbc0:	13a15e83          	lhu	t4,314(sp)

000000008000bbc4 <i_11598>:
    8000bbc4:	332c849b          	addiw	s1,s9,818

000000008000bbc8 <i_11599>:
    8000bbc8:	0e815b83          	lhu	s7,232(sp)

000000008000bbcc <i_11600>:
    8000bbcc:	018bdc63          	ble	s8,s7,8000bbe4 <i_11606>

000000008000bbd0 <i_11601>:
    8000bbd0:	01fbc9b3          	xor	s3,s7,t6

000000008000bbd4 <i_11602>:
    8000bbd4:	06812983          	lw	s3,104(sp)

000000008000bbd8 <i_11603>:
    8000bbd8:	037d43b3          	div	t2,s10,s7

000000008000bbdc <i_11604>:
    8000bbdc:	00000013          	nop

000000008000bbe0 <i_11605>:
    8000bbe0:	00299193          	slli	gp,s3,0x2

000000008000bbe4 <i_11606>:
    8000bbe4:	00000013          	nop

000000008000bbe8 <i_11607>:
    8000bbe8:	eb711b23          	sh	s7,-330(sp)

000000008000bbec <i_11608>:
    8000bbec:	77a00b93          	li	s7,1914

000000008000bbf0 <i_11609>:
    8000bbf0:	78700c13          	li	s8,1927

000000008000bbf4 <i_11610>:
    8000bbf4:	01319e63          	bne	gp,s3,8000bc10 <i_11616>

000000008000bbf8 <i_11611>:
    8000bbf8:	001b8b93          	addi	s7,s7,1 # ffffffffb9c82001 <_end+0xffffffff39c71bed>
    8000bbfc:	ff7c7ce3          	bleu	s7,s8,8000bbf4 <i_11610>

000000008000bc00 <i_11612>:
    8000bc00:	1a110983          	lb	s3,417(sp)

000000008000bc04 <i_11613>:
    8000bc04:	0019dc1b          	srliw	s8,s3,0x1

000000008000bc08 <i_11614>:
    8000bc08:	01d60b33          	add	s6,a2,t4

000000008000bc0c <i_11615>:
    8000bc0c:	e8e14e03          	lbu	t3,-370(sp)

000000008000bc10 <i_11616>:
    8000bc10:	fb412b03          	lw	s6,-76(sp)

000000008000bc14 <i_11617>:
    8000bc14:	033c32b3          	mulhu	t0,s8,s3

000000008000bc18 <i_11618>:
    8000bc18:	78000313          	li	t1,1920

000000008000bc1c <i_11619>:
    8000bc1c:	78300d13          	li	s10,1923

000000008000bc20 <i_11620>:
    8000bc20:	403b541b          	sraiw	s0,s6,0x3

000000008000bc24 <i_11621>:
    8000bc24:	0383763b          	remuw	a2,t1,s8

000000008000bc28 <i_11622>:
    8000bc28:	639b0b1b          	addiw	s6,s6,1593

000000008000bc2c <i_11623>:
    8000bc2c:	16415583          	lhu	a1,356(sp)

000000008000bc30 <i_11624>:
    8000bc30:	1e78b637          	lui	a2,0x1e78b

000000008000bc34 <i_11625>:
    8000bc34:	0d014483          	lbu	s1,208(sp)

000000008000bc38 <i_11626>:
    8000bc38:	00130313          	addi	t1,t1,1
    8000bc3c:	fe6d52e3          	ble	t1,s10,8000bc20 <i_11620>

000000008000bc40 <i_11627>:
    8000bc40:	0f612223          	sw	s6,228(sp)

000000008000bc44 <i_11628>:
    8000bc44:	f6812603          	lw	a2,-152(sp)

000000008000bc48 <i_11629>:
    8000bc48:	006d0433          	add	s0,s10,t1

000000008000bc4c <i_11630>:
    8000bc4c:	00100693          	li	a3,1

000000008000bc50 <i_11631>:
    8000bc50:	40db5bbb          	sraw	s7,s6,a3

000000008000bc54 <i_11632>:
    8000bc54:	e4d54b13          	xori	s6,a0,-435

000000008000bc58 <i_11633>:
    8000bc58:	f4a13423          	sd	a0,-184(sp)

000000008000bc5c <i_11634>:
    8000bc5c:	f1613c23          	sd	s6,-232(sp)

000000008000bc60 <i_11635>:
    8000bc60:	79200193          	li	gp,1938

000000008000bc64 <i_11636>:
    8000bc64:	79b00513          	li	a0,1947

000000008000bc68 <i_11637>:
    8000bc68:	17c12a23          	sw	t3,372(sp)

000000008000bc6c <i_11638>:
    8000bc6c:	1a612623          	sw	t1,428(sp)

000000008000bc70 <i_11639>:
    8000bc70:	e4311123          	sh	gp,-446(sp)

000000008000bc74 <i_11640>:
    8000bc74:	fb613023          	sd	s6,-96(sp)

000000008000bc78 <i_11641>:
    8000bc78:	02313c23          	sd	gp,56(sp)

000000008000bc7c <i_11642>:
    8000bc7c:	1dc12203          	lw	tp,476(sp)

000000008000bc80 <i_11643>:
    8000bc80:	00000013          	nop

000000008000bc84 <i_11644>:
    8000bc84:	01609e63          	bne	ra,s6,8000bca0 <i_11650>

000000008000bc88 <i_11645>:
    8000bc88:	fde10683          	lb	a3,-34(sp)

000000008000bc8c <i_11646>:
    8000bc8c:	00118193          	addi	gp,gp,1
    8000bc90:	fca1ece3          	bltu	gp,a0,8000bc68 <i_11637>

000000008000bc94 <i_11647>:
    8000bc94:	99852b13          	slti	s6,a0,-1640

000000008000bc98 <i_11648>:
    8000bc98:	12710ba3          	sb	t2,311(sp)

000000008000bc9c <i_11649>:
    8000bc9c:	02350463          	beq	a0,gp,8000bcc4 <i_11659>

000000008000bca0 <i_11650>:
    8000bca0:	f3c16803          	lwu	a6,-196(sp)

000000008000bca4 <i_11651>:
    8000bca4:	01e00693          	li	a3,30

000000008000bca8 <i_11652>:
    8000bca8:	00db9233          	sll	tp,s7,a3

000000008000bcac <i_11653>:
    8000bcac:	0f012083          	lw	ra,240(sp)

000000008000bcb0 <i_11654>:
    8000bcb0:	04312823          	sw	gp,80(sp)

000000008000bcb4 <i_11655>:
    8000bcb4:	00d225b3          	slt	a1,tp,a3

000000008000bcb8 <i_11656>:
    8000bcb8:	00d21663          	bne	tp,a3,8000bcc4 <i_11659>

000000008000bcbc <i_11657>:
    8000bcbc:	01824c63          	blt	tp,s8,8000bcd4 <i_11663>

000000008000bcc0 <i_11658>:
    8000bcc0:	00a00213          	li	tp,10

000000008000bcc4 <i_11659>:
    8000bcc4:	0046d0bb          	srlw	ra,a3,tp

000000008000bcc8 <i_11660>:
    8000bcc8:	02800b93          	li	s7,40

000000008000bccc <i_11661>:
    8000bccc:	017bdbb3          	srl	s7,s7,s7

000000008000bcd0 <i_11662>:
    8000bcd0:	19813b83          	ld	s7,408(sp)

000000008000bcd4 <i_11663>:
    8000bcd4:	001ad293          	srli	t0,s5,0x1

000000008000bcd8 <i_11664>:
    8000bcd8:	017266b3          	or	a3,tp,s7

000000008000bcdc <i_11665>:
    8000bcdc:	8a100313          	li	t1,-1887

000000008000bce0 <i_11666>:
    8000bce0:	8a700a93          	li	s5,-1881

000000008000bce4 <i_11667>:
    8000bce4:	0fd10d03          	lb	s10,253(sp)

000000008000bce8 <i_11668>:
    8000bce8:	02d87663          	bleu	a3,a6,8000bd14 <i_11678>

000000008000bcec <i_11669>:
    8000bcec:	f5013b83          	ld	s7,-176(sp)

000000008000bcf0 <i_11670>:
    8000bcf0:	03799463          	bne	s3,s7,8000bd18 <i_11679>

000000008000bcf4 <i_11671>:
    8000bcf4:	07813b83          	ld	s7,120(sp)

000000008000bcf8 <i_11672>:
    8000bcf8:	00000013          	nop

000000008000bcfc <i_11673>:
    8000bcfc:	00465b9b          	srliw	s7,a2,0x4

000000008000bd00 <i_11674>:
    8000bd00:	00130313          	addi	t1,t1,1
    8000bd04:	ff5310e3          	bne	t1,s5,8000bce4 <i_11667>

000000008000bd08 <i_11675>:
    8000bd08:	f5710023          	sb	s7,-192(sp)

000000008000bd0c <i_11676>:
    8000bd0c:	f2416b83          	lwu	s7,-220(sp)

000000008000bd10 <i_11677>:
    8000bd10:	f0013483          	ld	s1,-256(sp)

000000008000bd14 <i_11678>:
    8000bd14:	00314483          	lbu	s1,3(sp)

000000008000bd18 <i_11679>:
    8000bd18:	017504b3          	add	s1,a0,s7

000000008000bd1c <i_11680>:
    8000bd1c:	eb712c23          	sw	s7,-328(sp)

000000008000bd20 <i_11681>:
    8000bd20:	81c00b93          	li	s7,-2020

000000008000bd24 <i_11682>:
    8000bd24:	82900613          	li	a2,-2007

000000008000bd28 <i_11683>:
    8000bd28:	fe610623          	sb	t1,-20(sp)

000000008000bd2c <i_11684>:
    8000bd2c:	001b8b93          	addi	s7,s7,1
    8000bd30:	fecbece3          	bltu	s7,a2,8000bd28 <i_11683>

000000008000bd34 <i_11685>:
    8000bd34:	010bde63          	ble	a6,s7,8000bd50 <i_11692>

000000008000bd38 <i_11686>:
    8000bd38:	f2816803          	lwu	a6,-216(sp)

000000008000bd3c <i_11687>:
    8000bd3c:	f7010723          	sb	a6,-146(sp)

000000008000bd40 <i_11688>:
    8000bd40:	ee812303          	lw	t1,-280(sp)

000000008000bd44 <i_11689>:
    8000bd44:	19f10583          	lb	a1,415(sp)

000000008000bd48 <i_11690>:
    8000bd48:	0b011603          	lh	a2,176(sp)

000000008000bd4c <i_11691>:
    8000bd4c:	f3615303          	lhu	t1,-202(sp)

000000008000bd50 <i_11692>:
    8000bd50:	06b13423          	sd	a1,104(sp)

000000008000bd54 <i_11693>:
    8000bd54:	01f36e63          	bltu	t1,t6,8000bd70 <i_11700>

000000008000bd58 <i_11694>:
    8000bd58:	00900413          	li	s0,9

000000008000bd5c <i_11695>:
    8000bd5c:	00849dbb          	sllw	s11,s1,s0

000000008000bd60 <i_11696>:
    8000bd60:	fe610da3          	sb	t1,-5(sp)

000000008000bd64 <i_11697>:
    8000bd64:	12c12303          	lw	t1,300(sp)

000000008000bd68 <i_11698>:
    8000bd68:	00c36663          	bltu	t1,a2,8000bd74 <i_11701>

000000008000bd6c <i_11699>:
    8000bd6c:	40cb0633          	sub	a2,s6,a2

000000008000bd70 <i_11700>:
    8000bd70:	00900b13          	li	s6,9

000000008000bd74 <i_11701>:
    8000bd74:	416b5eb3          	sra	t4,s6,s6

000000008000bd78 <i_11702>:
    8000bd78:	00835463          	ble	s0,t1,8000bd80 <i_11704>

000000008000bd7c <i_11703>:
    8000bd7c:	16611d23          	sh	t1,378(sp)

000000008000bd80 <i_11704>:
    8000bd80:	0ac13023          	sd	a2,160(sp)

000000008000bd84 <i_11705>:
    8000bd84:	00300313          	li	t1,3

000000008000bd88 <i_11706>:
    8000bd88:	0064143b          	sllw	s0,s0,t1

000000008000bd8c <i_11707>:
    8000bd8c:	ee013603          	ld	a2,-288(sp)

000000008000bd90 <i_11708>:
    8000bd90:	4c53061b          	addiw	a2,t1,1221

000000008000bd94 <i_11709>:
    8000bd94:	0065e263          	bltu	a1,t1,8000bd98 <i_11710>

000000008000bd98 <i_11710>:
    8000bd98:	10d13c23          	sd	a3,280(sp)

000000008000bd9c <i_11711>:
    8000bd9c:	13010f23          	sb	a6,318(sp)

000000008000bda0 <i_11712>:
    8000bda0:	5fb32a13          	slti	s4,t1,1531

000000008000bda4 <i_11713>:
    8000bda4:	f7015a03          	lhu	s4,-144(sp)

000000008000bda8 <i_11714>:
    8000bda8:	00000013          	nop

000000008000bdac <i_11715>:
    8000bdac:	73100513          	li	a0,1841

000000008000bdb0 <i_11716>:
    8000bdb0:	74300b13          	li	s6,1859

000000008000bdb4 <i_11717>:
    8000bdb4:	014524b3          	slt	s1,a0,s4

000000008000bdb8 <i_11718>:
    8000bdb8:	e7813a03          	ld	s4,-392(sp)

000000008000bdbc <i_11719>:
    8000bdbc:	01448263          	beq	s1,s4,8000bdc0 <i_11720>

000000008000bdc0 <i_11720>:
    8000bdc0:	00000013          	nop

000000008000bdc4 <i_11721>:
    8000bdc4:	01a00e93          	li	t4,26

000000008000bdc8 <i_11722>:
    8000bdc8:	01d4d23b          	srlw	tp,s1,t4

000000008000bdcc <i_11723>:
    8000bdcc:	08b11623          	sh	a1,140(sp)

000000008000bdd0 <i_11724>:
    8000bdd0:	18813023          	sd	s0,384(sp)

000000008000bdd4 <i_11725>:
    8000bdd4:	00000013          	nop

000000008000bdd8 <i_11726>:
    8000bdd8:	12413823          	sd	tp,304(sp)

000000008000bddc <i_11727>:
    8000bddc:	fd215e03          	lhu	t3,-46(sp)

000000008000bde0 <i_11728>:
    8000bde0:	00150513          	addi	a0,a0,1 # d69158d5 <_end+0x569054c1>
    8000bde4:	fd6568e3          	bltu	a0,s6,8000bdb4 <i_11717>

000000008000bde8 <i_11729>:
    8000bde8:	00300a13          	li	s4,3

000000008000bdec <i_11730>:
    8000bdec:	414a5b33          	sra	s6,s4,s4

000000008000bdf0 <i_11731>:
    8000bdf0:	e7214983          	lbu	s3,-398(sp)

000000008000bdf4 <i_11732>:
    8000bdf4:	f5e14b03          	lbu	s6,-162(sp)

000000008000bdf8 <i_11733>:
    8000bdf8:	016c4ab3          	xor	s5,s8,s6

000000008000bdfc <i_11734>:
    8000bdfc:	ec314483          	lbu	s1,-317(sp)

000000008000be00 <i_11735>:
    8000be00:	00a48e63          	beq	s1,a0,8000be1c <i_11742>

000000008000be04 <i_11736>:
    8000be04:	018c3cb3          	sltu	s9,s8,s8

000000008000be08 <i_11737>:
    8000be08:	009c6c63          	bltu	s8,s1,8000be20 <i_11743>

000000008000be0c <i_11738>:
    8000be0c:	f3e14e83          	lbu	t4,-194(sp)

000000008000be10 <i_11739>:
    8000be10:	01412d83          	lw	s11,20(sp)

000000008000be14 <i_11740>:
    8000be14:	1ae15c83          	lhu	s9,430(sp)

000000008000be18 <i_11741>:
    8000be18:	f4813c83          	ld	s9,-184(sp)

000000008000be1c <i_11742>:
    8000be1c:	f6a14e03          	lbu	t3,-150(sp)

000000008000be20 <i_11743>:
    8000be20:	12710f03          	lb	t5,295(sp)

000000008000be24 <i_11744>:
    8000be24:	01ec9e63          	bne	s9,t5,8000be40 <i_11751>

000000008000be28 <i_11745>:
    8000be28:	03bf6463          	bltu	t5,s11,8000be50 <i_11755>

000000008000be2c <i_11746>:
    8000be2c:	03ee0f3b          	mulw	t5,t3,t5

000000008000be30 <i_11747>:
    8000be30:	00a00593          	li	a1,10

000000008000be34 <i_11748>:
    8000be34:	00bf56bb          	srlw	a3,t5,a1

000000008000be38 <i_11749>:
    8000be38:	00000013          	nop

000000008000be3c <i_11750>:
    8000be3c:	e6e15a03          	lhu	s4,-402(sp)

000000008000be40 <i_11751>:
    8000be40:	f2111523          	sh	ra,-214(sp)

000000008000be44 <i_11752>:
    8000be44:	f5c16c03          	lwu	s8,-164(sp)

000000008000be48 <i_11753>:
    8000be48:	ed812c03          	lw	s8,-296(sp)

000000008000be4c <i_11754>:
    8000be4c:	09411023          	sh	s4,128(sp)

000000008000be50 <i_11755>:
    8000be50:	edf08213          	addi	tp,ra,-289 # ffffffff9cc06edf <_end+0xffffffff1cbf6acb>

000000008000be54 <i_11756>:
    8000be54:	00000013          	nop

000000008000be58 <i_11757>:
    8000be58:	7ea00093          	li	ra,2026

000000008000be5c <i_11758>:
    8000be5c:	7ef00e13          	li	t3,2031

000000008000be60 <i_11759>:
    8000be60:	eb813823          	sd	s8,-336(sp)

000000008000be64 <i_11760>:
    8000be64:	004ccc63          	blt	s9,tp,8000be7c <i_11765>

000000008000be68 <i_11761>:
    8000be68:	00108093          	addi	ra,ra,1
    8000be6c:	ffc09ae3          	bne	ra,t3,8000be60 <i_11759>

000000008000be70 <i_11762>:
    8000be70:	02811e03          	lh	t3,40(sp)

000000008000be74 <i_11763>:
    8000be74:	0dc13023          	sd	t3,192(sp)

000000008000be78 <i_11764>:
    8000be78:	01cefa63          	bleu	t3,t4,8000be8c <i_11769>

000000008000be7c <i_11765>:
    8000be7c:	001ad613          	srli	a2,s5,0x1

000000008000be80 <i_11766>:
    8000be80:	038c1463          	bne	s8,s8,8000bea8 <i_11776>

000000008000be84 <i_11767>:
    8000be84:	01866c63          	bltu	a2,s8,8000be9c <i_11773>

000000008000be88 <i_11768>:
    8000be88:	024c1263          	bne	s8,tp,8000beac <i_11777>

000000008000be8c <i_11769>:
    8000be8c:	e4412623          	sw	tp,-436(sp)

000000008000be90 <i_11770>:
    8000be90:	07c12083          	lw	ra,124(sp)

000000008000be94 <i_11771>:
    8000be94:	12110523          	sb	ra,298(sp)

000000008000be98 <i_11772>:
    8000be98:	e9813603          	ld	a2,-360(sp)

000000008000be9c <i_11773>:
    8000be9c:	f0815e03          	lhu	t3,-248(sp)

000000008000bea0 <i_11774>:
    8000bea0:	02000213          	li	tp,32

000000008000bea4 <i_11775>:
    8000bea4:	004e16b3          	sll	a3,t3,tp

000000008000bea8 <i_11776>:
    8000bea8:	038240b3          	div	ra,tp,s8

000000008000beac <i_11777>:
    8000beac:	f2412283          	lw	t0,-220(sp)

000000008000beb0 <i_11778>:
    8000beb0:	004e1613          	slli	a2,t3,0x4

000000008000beb4 <i_11779>:
    8000beb4:	e8412283          	lw	t0,-380(sp)

000000008000beb8 <i_11780>:
    8000beb8:	11210283          	lb	t0,274(sp)

000000008000bebc <i_11781>:
    8000bebc:	00000013          	nop

000000008000bec0 <i_11782>:
    8000bec0:	80800613          	li	a2,-2040

000000008000bec4 <i_11783>:
    8000bec4:	81700993          	li	s3,-2025

000000008000bec8 <i_11784>:
    8000bec8:	40808433          	sub	s0,ra,s0

000000008000becc <i_11785>:
    8000becc:	05313423          	sd	s3,72(sp)

000000008000bed0 <i_11786>:
    8000bed0:	fd711323          	sh	s7,-58(sp)

000000008000bed4 <i_11787>:
    8000bed4:	02c00b93          	li	s7,44

000000008000bed8 <i_11788>:
    8000bed8:	017b96b3          	sll	a3,s7,s7

000000008000bedc <i_11789>:
    8000bedc:	f7711523          	sh	s7,-150(sp)

000000008000bee0 <i_11790>:
    8000bee0:	13012503          	lw	a0,304(sp)

000000008000bee4 <i_11791>:
    8000bee4:	f3813b83          	ld	s7,-200(sp)

000000008000bee8 <i_11792>:
    8000bee8:	03710d23          	sb	s7,58(sp)

000000008000beec <i_11793>:
    8000beec:	2a8bac13          	slti	s8,s7,680

000000008000bef0 <i_11794>:
    8000bef0:	037be063          	bltu	s7,s7,8000bf10 <i_11801>

000000008000bef4 <i_11795>:
    8000bef4:	00160613          	addi	a2,a2,1 # 1e78b001 <main-0x61874fff>
    8000bef8:	fcc9f8e3          	bleu	a2,s3,8000bec8 <i_11784>

000000008000befc <i_11796>:
    8000befc:	1ab106a3          	sb	a1,429(sp)

000000008000bf00 <i_11797>:
    8000bf00:	e8813503          	ld	a0,-376(sp)

000000008000bf04 <i_11798>:
    8000bf04:	abd58593          	addi	a1,a1,-1347

000000008000bf08 <i_11799>:
    8000bf08:	0269b993          	sltiu	s3,s3,38

000000008000bf0c <i_11800>:
    8000bf0c:	00000013          	nop

000000008000bf10 <i_11801>:
    8000bf10:	1f612223          	sw	s6,484(sp)

000000008000bf14 <i_11802>:
    8000bf14:	02000993          	li	s3,32

000000008000bf18 <i_11803>:
    8000bf18:	413c5c33          	sra	s8,s8,s3

000000008000bf1c <i_11804>:
    8000bf1c:	80000b93          	li	s7,-2048

000000008000bf20 <i_11805>:
    8000bf20:	80d00b13          	li	s6,-2035

000000008000bf24 <i_11806>:
    8000bf24:	001b8b93          	addi	s7,s7,1
    8000bf28:	ff7b5ce3          	ble	s7,s6,8000bf20 <i_11805>

000000008000bf2c <i_11807>:
    8000bf2c:	01b00593          	li	a1,27

000000008000bf30 <i_11808>:
    8000bf30:	00b999bb          	sllw	s3,s3,a1

000000008000bf34 <i_11809>:
    8000bf34:	4010dd13          	srai	s10,ra,0x1

000000008000bf38 <i_11810>:
    8000bf38:	eb812983          	lw	s3,-328(sp)

000000008000bf3c <i_11811>:
    8000bf3c:	021f5f33          	divu	t5,t5,ra

000000008000bf40 <i_11812>:
    8000bf40:	1350d697          	auipc	a3,0x1350d

000000008000bf44 <i_11813>:
    8000bf44:	07013983          	ld	s3,112(sp)

000000008000bf48 <i_11814>:
    8000bf48:	013f0c63          	beq	t5,s3,8000bf60 <i_11820>

000000008000bf4c <i_11815>:
    8000bf4c:	eb311b23          	sh	s3,-330(sp)

000000008000bf50 <i_11816>:
    8000bf50:	033f6f3b          	remw	t5,t5,s3

000000008000bf54 <i_11817>:
    8000bf54:	17513c23          	sd	s5,376(sp)

000000008000bf58 <i_11818>:
    8000bf58:	01300793          	li	a5,19

000000008000bf5c <i_11819>:
    8000bf5c:	00f45ebb          	srlw	t4,s0,a5

000000008000bf60 <i_11820>:
    8000bf60:	0d211403          	lh	s0,210(sp)

000000008000bf64 <i_11821>:
    8000bf64:	034aeabb          	remw	s5,s5,s4

000000008000bf68 <i_11822>:
    8000bf68:	75b00a13          	li	s4,1883

000000008000bf6c <i_11823>:
    8000bf6c:	76200993          	li	s3,1890

000000008000bf70 <i_11824>:
    8000bf70:	e1c12603          	lw	a2,-484(sp)

000000008000bf74 <i_11825>:
    8000bf74:	014d4c63          	blt	s10,s4,8000bf8c <i_11831>

000000008000bf78 <i_11826>:
    8000bf78:	40145413          	srai	s0,s0,0x1

000000008000bf7c <i_11827>:
    8000bf7c:	1ae14e03          	lbu	t3,430(sp)

000000008000bf80 <i_11828>:
    8000bf80:	0dc10283          	lb	t0,220(sp)

000000008000bf84 <i_11829>:
    8000bf84:	17411e03          	lh	t3,372(sp)

000000008000bf88 <i_11830>:
    8000bf88:	01400e93          	li	t4,20

000000008000bf8c <i_11831>:
    8000bf8c:	01d295bb          	sllw	a1,t0,t4

000000008000bf90 <i_11832>:
    8000bf90:	16a15e83          	lhu	t4,362(sp)

000000008000bf94 <i_11833>:
    8000bf94:	001a0a13          	addi	s4,s4,1
    8000bf98:	fd49dce3          	ble	s4,s3,8000bf70 <i_11824>

000000008000bf9c <i_11834>:
    8000bf9c:	f6012283          	lw	t0,-160(sp)

000000008000bfa0 <i_11835>:
    8000bfa0:	01d42433          	slt	s0,s0,t4

000000008000bfa4 <i_11836>:
    8000bfa4:	019ede63          	ble	s9,t4,8000bfc0 <i_11843>

000000008000bfa8 <i_11837>:
    8000bfa8:	fc811d23          	sh	s0,-38(sp)

000000008000bfac <i_11838>:
    8000bfac:	01043833          	sltu	a6,s0,a6

000000008000bfb0 <i_11839>:
    8000bfb0:	01c16c83          	lwu	s9,28(sp)

000000008000bfb4 <i_11840>:
    8000bfb4:	02c6663b          	remw	a2,a2,a2

000000008000bfb8 <i_11841>:
    8000bfb8:	01e64863          	blt	a2,t5,8000bfc8 <i_11845>

000000008000bfbc <i_11842>:
    8000bfbc:	10015203          	lhu	tp,256(sp)

000000008000bfc0 <i_11843>:
    8000bfc0:	170100a3          	sb	a6,353(sp)

000000008000bfc4 <i_11844>:
    8000bfc4:	07b10d23          	sb	s11,122(sp)

000000008000bfc8 <i_11845>:
    8000bfc8:	0d215603          	lhu	a2,210(sp)

000000008000bfcc <i_11846>:
    8000bfcc:	e2812e23          	sw	s0,-452(sp)

000000008000bfd0 <i_11847>:
    8000bfd0:	019c8263          	beq	s9,s9,8000bfd4 <i_11848>

000000008000bfd4 <i_11848>:
    8000bfd4:	17010c83          	lb	s9,368(sp)

000000008000bfd8 <i_11849>:
    8000bfd8:	0a1101a3          	sb	ra,163(sp)

000000008000bfdc <i_11850>:
    8000bfdc:	f3012583          	lw	a1,-208(sp)

000000008000bfe0 <i_11851>:
    8000bfe0:	02427463          	bleu	tp,tp,8000c008 <i_11861>

000000008000bfe4 <i_11852>:
    8000bfe4:	004cb233          	sltu	tp,s9,tp

000000008000bfe8 <i_11853>:
    8000bfe8:	f4416d03          	lwu	s10,-188(sp)

000000008000bfec <i_11854>:
    8000bfec:	fda12623          	sw	s10,-52(sp)

000000008000bff0 <i_11855>:
    8000bff0:	03025463          	ble	a6,tp,8000c018 <i_11865>

000000008000bff4 <i_11856>:
    8000bff4:	02451463          	bne	a0,tp,8000c01c <i_11866>

000000008000bff8 <i_11857>:
    8000bff8:	002d5513          	srli	a0,s10,0x2

000000008000bffc <i_11858>:
    8000bffc:	ed812683          	lw	a3,-296(sp)

000000008000c000 <i_11859>:
    8000c000:	03200b93          	li	s7,50

000000008000c004 <i_11860>:
    8000c004:	0176d6b3          	srl	a3,a3,s7

000000008000c008 <i_11861>:
    8000c008:	12e15683          	lhu	a3,302(sp)

000000008000c00c <i_11862>:
    8000c00c:	0036d793          	srli	a5,a3,0x3

000000008000c010 <i_11863>:
    8000c010:	00f68c63          	beq	a3,a5,8000c028 <i_11869>

000000008000c014 <i_11864>:
    8000c014:	037bdc33          	divu	s8,s7,s7

000000008000c018 <i_11865>:
    8000c018:	7cac4b93          	xori	s7,s8,1994

000000008000c01c <i_11866>:
    8000c01c:	4cf1a193          	slti	gp,gp,1231

000000008000c020 <i_11867>:
    8000c020:	00d12223          	sw	a3,4(sp)

000000008000c024 <i_11868>:
    8000c024:	018187b3          	add	a5,gp,s8

000000008000c028 <i_11869>:
    8000c028:	03e11f03          	lh	t5,62(sp)

000000008000c02c <i_11870>:
    8000c02c:	fbc16b83          	lwu	s7,-68(sp)

000000008000c030 <i_11871>:
    8000c030:	f4f13023          	sd	a5,-192(sp)

000000008000c034 <i_11872>:
    8000c034:	00d19c63          	bne	gp,a3,8000c04c <i_11878>

000000008000c038 <i_11873>:
    8000c038:	ef713c23          	sd	s7,-264(sp)

000000008000c03c <i_11874>:
    8000c03c:	00479813          	slli	a6,a5,0x4

000000008000c040 <i_11875>:
    8000c040:	0f713423          	sd	s7,232(sp)

000000008000c044 <i_11876>:
    8000c044:	dc0fe697          	auipc	a3,0xdc0fe

000000008000c048 <i_11877>:
    8000c048:	404bd793          	srai	a5,s7,0x4

000000008000c04c <i_11878>:
    8000c04c:	01300793          	li	a5,19

000000008000c050 <i_11879>:
    8000c050:	00fa5f3b          	srlw	t5,s4,a5

000000008000c054 <i_11880>:
    8000c054:	8cd00093          	li	ra,-1843

000000008000c058 <i_11881>:
    8000c058:	8d600b93          	li	s7,-1834

000000008000c05c <i_11882>:
    8000c05c:	00108093          	addi	ra,ra,1
    8000c060:	ff709ee3          	bne	ra,s7,8000c05c <i_11882>

000000008000c064 <i_11883>:
    8000c064:	03d87063          	bleu	t4,a6,8000c084 <i_11891>

000000008000c068 <i_11884>:
    8000c068:	00000013          	nop

000000008000c06c <i_11885>:
    8000c06c:	07611483          	lh	s1,118(sp)

000000008000c070 <i_11886>:
    8000c070:	0035551b          	srliw	a0,a0,0x3

000000008000c074 <i_11887>:
    8000c074:	03016203          	lwu	tp,48(sp)

000000008000c078 <i_11888>:
    8000c078:	fde14283          	lbu	t0,-34(sp)

000000008000c07c <i_11889>:
    8000c07c:	00000013          	nop

000000008000c080 <i_11890>:
    8000c080:	18a11b03          	lh	s6,394(sp)

000000008000c084 <i_11891>:
    8000c084:	03a00213          	li	tp,58

000000008000c088 <i_11892>:
    8000c088:	00425533          	srl	a0,tp,tp

000000008000c08c <i_11893>:
    8000c08c:	80400813          	li	a6,-2044

000000008000c090 <i_11894>:
    8000c090:	80800e93          	li	t4,-2040

000000008000c094 <i_11895>:
    8000c094:	01300213          	li	tp,19

000000008000c098 <i_11896>:
    8000c098:	00499233          	sll	tp,s3,tp

000000008000c09c <i_11897>:
    8000c09c:	12b6eb17          	auipc	s6,0x12b6e

000000008000c0a0 <i_11898>:
    8000c0a0:	00180813          	addi	a6,a6,1
    8000c0a4:	ff0ed8e3          	ble	a6,t4,8000c094 <i_11895>

000000008000c0a8 <i_11899>:
    8000c0a8:	e7714983          	lbu	s3,-393(sp)

000000008000c0ac <i_11900>:
    8000c0ac:	ef311223          	sh	s3,-284(sp)

000000008000c0b0 <i_11901>:
    8000c0b0:	7a900213          	li	tp,1961

000000008000c0b4 <i_11902>:
    8000c0b4:	7b000093          	li	ra,1968

000000008000c0b8 <i_11903>:
    8000c0b8:	001103a3          	sb	ra,7(sp)

000000008000c0bc <i_11904>:
    8000c0bc:	18414383          	lbu	t2,388(sp)

000000008000c0c0 <i_11905>:
    8000c0c0:	0010eb33          	or	s6,ra,ra

000000008000c0c4 <i_11906>:
    8000c0c4:	e9714983          	lbu	s3,-361(sp)

000000008000c0c8 <i_11907>:
    8000c0c8:	f0110123          	sb	ra,-254(sp)

000000008000c0cc <i_11908>:
    8000c0cc:	82400393          	li	t2,-2012

000000008000c0d0 <i_11909>:
    8000c0d0:	82e00513          	li	a0,-2002

000000008000c0d4 <i_11910>:
    8000c0d4:	02ac8463          	beq	s9,a0,8000c0fc <i_11918>

000000008000c0d8 <i_11911>:
    8000c0d8:	00138393          	addi	t2,t2,1
    8000c0dc:	fe755ce3          	ble	t2,a0,8000c0d4 <i_11910>

000000008000c0e0 <i_11912>:
    8000c0e0:	03357833          	remu	a6,a0,s3

000000008000c0e4 <i_11913>:
    8000c0e4:	00000013          	nop

000000008000c0e8 <i_11914>:
    8000c0e8:	00120213          	addi	tp,tp,1 # 1 <main-0x7fffffff>
    8000c0ec:	fc40f6e3          	bleu	tp,ra,8000c0b8 <i_11903>

000000008000c0f0 <i_11915>:
    8000c0f0:	eac16803          	lwu	a6,-340(sp)

000000008000c0f4 <i_11916>:
    8000c0f4:	f7813c83          	ld	s9,-136(sp)

000000008000c0f8 <i_11917>:
    8000c0f8:	1cc15c03          	lhu	s8,460(sp)

000000008000c0fc <i_11918>:
    8000c0fc:	018c6663          	bltu	s8,s8,8000c108 <i_11921>

000000008000c100 <i_11919>:
    8000c100:	ffc16803          	lwu	a6,-4(sp)

000000008000c104 <i_11920>:
    8000c104:	038c5c33          	divu	s8,s8,s8

000000008000c108 <i_11921>:
    8000c108:	11813823          	sd	s8,272(sp)

000000008000c10c <i_11922>:
    8000c10c:	eb810123          	sb	s8,-350(sp)

000000008000c110 <i_11923>:
    8000c110:	018cfc63          	bleu	s8,s9,8000c128 <i_11929>

000000008000c114 <i_11924>:
    8000c114:	13812823          	sw	s8,304(sp)

000000008000c118 <i_11925>:
    8000c118:	12f14c03          	lbu	s8,303(sp)

000000008000c11c <i_11926>:
    8000c11c:	0c914803          	lbu	a6,201(sp)

000000008000c120 <i_11927>:
    8000c120:	e99106a3          	sb	s9,-371(sp)

000000008000c124 <i_11928>:
    8000c124:	01887463          	bleu	s8,a6,8000c12c <i_11930>

000000008000c128 <i_11929>:
    8000c128:	037c6cbb          	remw	s9,s8,s7

000000008000c12c <i_11930>:
    8000c12c:	01817533          	and	a0,sp,s8

000000008000c130 <i_11931>:
    8000c130:	e2a13c23          	sd	a0,-456(sp)

000000008000c134 <i_11932>:
    8000c134:	01887a63          	bleu	s8,a6,8000c148 <i_11937>

000000008000c138 <i_11933>:
    8000c138:	02f66063          	bltu	a2,a5,8000c158 <i_11941>

000000008000c13c <i_11934>:
    8000c13c:	030812b3          	mulh	t0,a6,a6

000000008000c140 <i_11935>:
    8000c140:	018585b3          	add	a1,a1,s8

000000008000c144 <i_11936>:
    8000c144:	00b84a63          	blt	a6,a1,8000c158 <i_11941>

000000008000c148 <i_11937>:
    8000c148:	038c4263          	blt	s8,s8,8000c16c <i_11946>

000000008000c14c <i_11938>:
    8000c14c:	eea13423          	sd	a0,-280(sp)

000000008000c150 <i_11939>:
    8000c150:	03050263          	beq	a0,a6,8000c174 <i_11948>

000000008000c154 <i_11940>:
    8000c154:	ee210983          	lb	s3,-286(sp)

000000008000c158 <i_11941>:
    8000c158:	00225513          	srli	a0,tp,0x2

000000008000c15c <i_11942>:
    8000c15c:	0299b533          	mulhu	a0,s3,s1

000000008000c160 <i_11943>:
    8000c160:	06615483          	lhu	s1,102(sp)

000000008000c164 <i_11944>:
    8000c164:	00300e93          	li	t4,3

000000008000c168 <i_11945>:
    8000c168:	01d51ebb          	sllw	t4,a0,t4

000000008000c16c <i_11946>:
    8000c16c:	ff510e83          	lb	t4,-11(sp)

000000008000c170 <i_11947>:
    8000c170:	00000013          	nop

000000008000c174 <i_11948>:
    8000c174:	402ed69b          	sraiw	a3,t4,0x2

000000008000c178 <i_11949>:
    8000c178:	e4610503          	lb	a0,-442(sp)

000000008000c17c <i_11950>:
    8000c17c:	73800293          	li	t0,1848

000000008000c180 <i_11951>:
    8000c180:	74700213          	li	tp,1863

000000008000c184 <i_11952>:
    8000c184:	1aa13823          	sd	a0,432(sp)

000000008000c188 <i_11953>:
    8000c188:	00013403          	ld	s0,0(sp)

000000008000c18c <i_11954>:
    8000c18c:	0fa13023          	sd	s10,224(sp)

000000008000c190 <i_11955>:
    8000c190:	02d9ec33          	rem	s8,s3,a3

000000008000c194 <i_11956>:
    8000c194:	0286e1b3          	rem	gp,a3,s0

000000008000c198 <i_11957>:
    8000c198:	fac12503          	lw	a0,-84(sp)

000000008000c19c <i_11958>:
    8000c19c:	0a811483          	lh	s1,168(sp)

000000008000c1a0 <i_11959>:
    8000c1a0:	00128293          	addi	t0,t0,1
    8000c1a4:	fe42e0e3          	bltu	t0,tp,8000c184 <i_11952>

000000008000c1a8 <i_11960>:
    8000c1a8:	01820863          	beq	tp,s8,8000c1b8 <i_11964>

000000008000c1ac <i_11961>:
    8000c1ac:	1b110803          	lb	a6,433(sp)

000000008000c1b0 <i_11962>:
    8000c1b0:	8e1c0c1b          	addiw	s8,s8,-1823

000000008000c1b4 <i_11963>:
    8000c1b4:	00900e93          	li	t4,9

000000008000c1b8 <i_11964>:
    8000c1b8:	01de9ebb          	sllw	t4,t4,t4

000000008000c1bc <i_11965>:
    8000c1bc:	418c0ab3          	sub	s5,s8,s8

000000008000c1c0 <i_11966>:
    8000c1c0:	00949663          	bne	s1,s1,8000c1cc <i_11969>

000000008000c1c4 <i_11967>:
    8000c1c4:	01911a23          	sh	s9,20(sp)

000000008000c1c8 <i_11968>:
    8000c1c8:	e342021b          	addiw	tp,tp,-460

000000008000c1cc <i_11969>:
    8000c1cc:	16110303          	lb	t1,353(sp)

000000008000c1d0 <i_11970>:
    8000c1d0:	09813c23          	sd	s8,152(sp)

000000008000c1d4 <i_11971>:
    8000c1d4:	003edb1b          	srliw	s6,t4,0x3

000000008000c1d8 <i_11972>:
    8000c1d8:	e6612a23          	sw	t1,-396(sp)

000000008000c1dc <i_11973>:
    8000c1dc:	f4416c03          	lwu	s8,-188(sp)

000000008000c1e0 <i_11974>:
    8000c1e0:	02ba4333          	div	t1,s4,a1

000000008000c1e4 <i_11975>:
    8000c1e4:	88200593          	li	a1,-1918

000000008000c1e8 <i_11976>:
    8000c1e8:	88e00a13          	li	s4,-1906

000000008000c1ec <i_11977>:
    8000c1ec:	03d2f2b3          	remu	t0,t0,t4

000000008000c1f0 <i_11978>:
    8000c1f0:	00112223          	sw	ra,4(sp)

000000008000c1f4 <i_11979>:
    8000c1f4:	00158593          	addi	a1,a1,1
    8000c1f8:	ff459ae3          	bne	a1,s4,8000c1ec <i_11977>

000000008000c1fc <i_11980>:
    8000c1fc:	fe513c23          	sd	t0,-8(sp)

000000008000c200 <i_11981>:
    8000c200:	026b0463          	beq	s6,t1,8000c228 <i_11991>

000000008000c204 <i_11982>:
    8000c204:	1d610b83          	lb	s7,470(sp)

000000008000c208 <i_11983>:
    8000c208:	02627263          	bleu	t1,tp,8000c22c <i_11992>

000000008000c20c <i_11984>:
    8000c20c:	00682bb3          	slt	s7,a6,t1

000000008000c210 <i_11985>:
    8000c210:	ff5101a3          	sb	s5,-29(sp)

000000008000c214 <i_11986>:
    8000c214:	02c16383          	lwu	t2,44(sp)

000000008000c218 <i_11987>:
    8000c218:	1a211a03          	lh	s4,418(sp)

000000008000c21c <i_11988>:
    8000c21c:	05214203          	lbu	tp,82(sp)

000000008000c220 <i_11989>:
    8000c220:	0d512c23          	sw	s5,216(sp)

000000008000c224 <i_11990>:
    8000c224:	40738ab3          	sub	s5,t2,t2

000000008000c228 <i_11991>:
    8000c228:	00000013          	nop

000000008000c22c <i_11992>:
    8000c22c:	014aceb3          	xor	t4,s5,s4

000000008000c230 <i_11993>:
    8000c230:	03513823          	sd	s5,48(sp)

000000008000c234 <i_11994>:
    8000c234:	75e00f13          	li	t5,1886

000000008000c238 <i_11995>:
    8000c238:	76800693          	li	a3,1896

000000008000c23c <i_11996>:
    8000c23c:	027a633b          	remw	t1,s4,t2

000000008000c240 <i_11997>:
    8000c240:	e7c16383          	lwu	t2,-388(sp)

000000008000c244 <i_11998>:
    8000c244:	87a00b13          	li	s6,-1926

000000008000c248 <i_11999>:
    8000c248:	88000d13          	li	s10,-1920

000000008000c24c <i_12000>:
    8000c24c:	00000013          	nop

000000008000c250 <i_12001>:
    8000c250:	00000013          	nop

000000008000c254 <i_12002>:
    8000c254:	00000013          	nop

000000008000c258 <i_12003>:
    8000c258:	00000013          	nop

000000008000c25c <i_12004>:
    8000c25c:	00000013          	nop

000000008000c260 <i_12005>:
    8000c260:	00000013          	nop

000000008000c264 <i_12006>:
    8000c264:	00000013          	nop

000000008000c268 <i_12007>:
    8000c268:	00000013          	nop

000000008000c26c <i_12008>:
    8000c26c:	00000013          	nop

000000008000c270 <i_12009>:
    8000c270:	00000013          	nop
    8000c274:	0040006f          	j	8000c278 <tohost_exit>

000000008000c278 <tohost_exit>:
    8000c278:	00100113          	li	sp,1
    8000c27c:	01f11113          	slli	sp,sp,0x1f
    8000c280:	000101b7          	lui	gp,0x10
    8000c284:	00310133          	add	sp,sp,gp
    8000c288:	00100713          	li	a4,1
    8000c28c:	40e12023          	sw	a4,1024(sp)

000000008000c290 <loop>:
    8000c290:	0000006f          	j	8000c290 <loop>

Disassembly of section .data:

0000000080010000 <data>:
    80010000:	d531                	beqz	a0,8000ff4c <loop+0x3cbc>
    80010002:	d1880033          	0xd1880033
    80010006:	7aac2917          	auipc	s2,0x7aac2
    8001000a:	d46a96f7          	0xd46a96f7
    8001000e:	ed68                	sd	a0,216(a0)
    80010010:	fc8c                	sd	a1,56(s1)
    80010012:	2bf0                	fld	fa2,208(a5)
    80010014:	37eac2cf          	fnmadd.q	ft5,fs5,ft10,ft6,rmm
    80010018:	c908                	sw	a0,16(a0)
    8001001a:	070a                	slli	a4,a4,0x2
    8001001c:	37e5                	addiw	a5,a5,-7
    8001001e:	854e                	mv	a0,s3
    80010020:	3345                	addiw	t1,t1,-15
    80010022:	5f40                	lw	s0,60(a4)
    80010024:	2c765557          	0x2c765557
    80010028:	9178                	0x9178
    8001002a:	c862                	sw	s8,16(sp)
    8001002c:	7a35                	lui	s4,0xfffed
    8001002e:	ae41                	j	800103be <data+0x3be>
    80010030:	325f 52d4 f291      	0xf29152d4325f
    80010036:	351e7923          	0x351e7923
    8001003a:	c98defab          	0xc98defab
    8001003e:	42f6                	lw	t0,92(sp)
    80010040:	d65f7753          	0xd65f7753
    80010044:	6000                	ld	s0,0(s0)
    80010046:	e6c8                	sd	a0,136(a3)
    80010048:	8f3e18bf 6c05b347 	0x6c05b3478f3e18bf
    80010050:	8fc36d0f          	0x8fc36d0f
    80010054:	5398                	lw	a4,32(a5)
    80010056:	fb64                	sd	s1,240(a4)
    80010058:	6b1a                	ld	s6,384(sp)
    8001005a:	117f7b63          	bleu	s7,t5,80010170 <data+0x170>
    8001005e:	7185                	lui	gp,0xfffe1
    80010060:	7c30                	ld	a2,120(s0)
    80010062:	4924                	lw	s1,80(a0)
    80010064:	b77d                	j	80010012 <data+0x12>
    80010066:	147a                	slli	s0,s0,0x3e
    80010068:	2621                	addiw	a2,a2,8
    8001006a:	cc40                	sw	s0,28(s0)
    8001006c:	5bb0c87b          	0x5bb0c87b
    80010070:	947cd14f          	0x947cd14f
    80010074:	39fc                	fld	fa5,240(a1)
    80010076:	f5ce                	sd	s3,232(sp)
    80010078:	c8d8                	sw	a4,20(s1)
    8001007a:	0a8d                	addi	s5,s5,3
    8001007c:	179c94f3          	csrrw	s1,0x179,s9
    80010080:	6f3c                	ld	a5,88(a4)
    80010082:	9268                	0x9268
    80010084:	225fa19b          	0x225fa19b
    80010088:	4532                	lw	a0,12(sp)
    8001008a:	dc31                	beqz	s0,8000ffe6 <loop+0x3d56>
    8001008c:	325c8dcb          	fnmsub.d	fs11,fs9,ft5,ft6,rne
    80010090:	0fe4                	addi	s1,sp,988
    80010092:	3a99                	addiw	s5,s5,-26
    80010094:	d73bbe2b          	0xd73bbe2b
    80010098:	f6d2                	sd	s4,360(sp)
    8001009a:	dd481367          	0xdd481367
    8001009e:	d206                	sw	ra,36(sp)
    800100a0:	a13b0313          	addi	t1,s6,-1517 # 92b79aaf <_end+0x12b6969b>
    800100a4:	5530                	lw	a2,104(a0)
    800100a6:	a072                	fsd	ft8,0(sp)
    800100a8:	b0e8                	fsd	fa0,224(s1)
    800100aa:	a733a6eb          	0xa733a6eb
    800100ae:	e17f                	0xe17f
    800100b0:	7eac                	ld	a1,120(a3)
    800100b2:	1cd8                	addi	a4,sp,628
    800100b4:	1d05                	addi	s10,s10,-31
    800100b6:	1900                	addi	s0,sp,176
    800100b8:	e6ec                	sd	a1,200(a3)
    800100ba:	da4a                	sw	s2,52(sp)
    800100bc:	a7c6                	fsd	fa7,456(sp)
    800100be:	9645                	srai	a2,a2,0x31
    800100c0:	a929                	j	800104da <_end+0xc6>
    800100c2:	66e2                	ld	a3,24(sp)
    800100c4:	8762                	mv	a4,s8
    800100c6:	0bafa1f7          	0xbafa1f7
    800100ca:	9ff0f2eb          	0x9ff0f2eb
    800100ce:	fa19                	bnez	a2,8000ffe4 <loop+0x3d54>
    800100d0:	46f4748f          	0x46f4748f
    800100d4:	a706                	fsd	ft1,392(sp)
    800100d6:	0346                	slli	t1,t1,0x11
    800100d8:	017da517          	auipc	a0,0x17da
    800100dc:	f219ec23          	0xf219ec23
    800100e0:	f38a                	sd	sp,480(sp)
    800100e2:	29b4                	fld	fa3,80(a1)
    800100e4:	f15c                	sd	a5,160(a0)
    800100e6:	691e                	ld	s2,448(sp)
    800100e8:	6bdd                	lui	s7,0x17
    800100ea:	bb6d                	j	8000fea4 <loop+0x3c14>
    800100ec:	f854                	sd	a3,176(s0)
    800100ee:	3986                	fld	fs3,96(sp)
    800100f0:	0d9e                	slli	s11,s11,0x7
    800100f2:	b83c                	fsd	fa5,112(s0)
    800100f4:	f8fe                	sd	t6,112(sp)
    800100f6:	bb80                	fsd	fs0,48(a5)
    800100f8:	467f                	0x467f
    800100fa:	22c2                	fld	ft5,16(sp)
    800100fc:	ba18                	fsd	fa4,48(a2)
    800100fe:	8c3e0463          	beq	t3,gp,8000f1c6 <loop+0x2f36>
    80010102:	82633f83          	ld	t6,-2010(t1)
    80010106:	0b82                	slli	s7,s7,0x0
    80010108:	a490                	fsd	fa2,8(s1)
    8001010a:	245d                	addiw	s0,s0,23
    8001010c:	3756                	fld	fa4,368(sp)
    8001010e:	e619                	bnez	a2,8001011c <data+0x11c>
    80010110:	cfbe                	sw	a5,220(sp)
    80010112:	3527608b          	0x3527608b
    80010116:	58fe                	lw	a7,252(sp)
    80010118:	1de2                	slli	s11,s11,0x38
    8001011a:	6881                	0x6881
    8001011c:	2349                	addiw	t1,t1,18
    8001011e:	5d92                	lw	s11,36(sp)
    80010120:	5a0e                	lw	s4,224(sp)
    80010122:	40df 4d5c b0d6      	0xb0d64d5c40df
    80010128:	72d8                	ld	a4,160(a3)
    8001012a:	8a3c                	0x8a3c
    8001012c:	2069                	0x2069
    8001012e:	ca140393          	addi	t2,s0,-863 # 7b8fbca1 <main-0x470435f>
    80010132:	8b89                	andi	a5,a5,2
    80010134:	e3c8                	sd	a0,128(a5)
    80010136:	6965                	lui	s2,0x19
    80010138:	2832                	fld	fa6,264(sp)
    8001013a:	f109                	bnez	a0,8001003c <data+0x3c>
    8001013c:	81b6283b          	0x81b6283b
    80010140:	f8d4                	sd	a3,176(s1)
    80010142:	75f4                	ld	a3,232(a1)
    80010144:	56a6                	lw	a3,104(sp)
    80010146:	b060                	fsd	fs0,224(s0)
    80010148:	2f963cc3          	fmadd.q	fs9,fa2,fs9,ft5,rup
    8001014c:	3b4a                	fld	fs6,176(sp)
    8001014e:	1ace                	slli	s5,s5,0x33
    80010150:	f322                	sd	s0,416(sp)
    80010152:	8271e8db          	0x8271e8db
    80010156:	a39d                	j	800106bc <_end+0x2a8>
    80010158:	fe79                	bnez	a2,80010136 <data+0x136>
    8001015a:	cad2                	sw	s4,84(sp)
    8001015c:	67d1                	lui	a5,0x14
    8001015e:	49b4de87          	0x49b4de87
    80010162:	8fbc                	0x8fbc
    80010164:	d4b4b333          	0xd4b4b333
    80010168:	a984                	fsd	fs1,16(a1)
    8001016a:	c5d5631b          	0xc5d5631b
    8001016e:	d436                	sw	a3,40(sp)
    80010170:	c162                	sw	s8,128(sp)
    80010172:	5870                	lw	a2,116(s0)
    80010174:	c2cc                	sw	a1,4(a3)
    80010176:	336c                	fld	fa1,224(a4)
    80010178:	398e                	fld	fs3,224(sp)
    8001017a:	beae39af          	0xbeae39af
    8001017e:	7cc9                	lui	s9,0xffff2
    80010180:	b57e                	fsd	ft11,168(sp)
    80010182:	f2a9                	bnez	a3,800100c4 <data+0xc4>
    80010184:	662c                	ld	a1,72(a2)
    80010186:	4c60                	lw	s0,92(s0)
    80010188:	edd8                	sd	a4,152(a1)
    8001018a:	daa02397          	auipc	t2,0xdaa02
    8001018e:	98f9                	andi	s1,s1,-2
    80010190:	aba8                	fsd	fa0,80(a5)
    80010192:	5922                	lw	s2,40(sp)
    80010194:	b3c0                	fsd	fs0,160(a5)
    80010196:	b8216517          	auipc	a0,0xb8216
    8001019a:	1f74                	addi	a3,sp,956
    8001019c:	4d48                	lw	a0,28(a0)
    8001019e:	0bbc                	addi	a5,sp,472
    800101a0:	e002                	sd	zero,0(sp)
    800101a2:	b35f e3fa 4830      	0x4830e3fab35f
    800101a8:	cf8e                	sw	gp,220(sp)
    800101aa:	0471                	addi	s0,s0,28
    800101ac:	2875                	addiw	a6,a6,29
    800101ae:	57be                	lw	a5,236(sp)
    800101b0:	ebb0                	sd	a2,80(a5)
    800101b2:	91a0                	0x91a0
    800101b4:	de41                	beqz	a2,8001014c <data+0x14c>
    800101b6:	5d86                	lw	s11,96(sp)
    800101b8:	b837b5bb          	0xb837b5bb
    800101bc:	7e1f 2553 e20c      	0xe20c25537e1f
    800101c2:	8dcd                	or	a1,a1,a1
    800101c4:	5385                	li	t2,-31
    800101c6:	0339                	addi	t1,t1,14
    800101c8:	da99                	beqz	a3,800100de <data+0xde>
    800101ca:	0e6fde9b          	0xe6fde9b
    800101ce:	d9a1                	beqz	a1,8001011e <data+0x11e>
    800101d0:	9b88a36f          	jal	t1,7ff9a388 <main-0x65c78>
    800101d4:	971ffa87          	0x971ffa87
    800101d8:	a59539cb          	0xa59539cb
    800101dc:	1d21                	addi	s10,s10,-24
    800101de:	f10e                	sd	gp,160(sp)
    800101e0:	e6850583          	lb	a1,-408(a0) # 38225ffe <main-0x47dda002>
    800101e4:	64627b9b          	0x64627b9b
    800101e8:	fb04                	sd	s1,48(a4)
    800101ea:	2ffc                	fld	fa5,216(a5)
    800101ec:	cf69                	beqz	a4,800102c6 <data+0x2c6>
    800101ee:	355d                	addiw	a0,a0,-9
    800101f0:	b5e74b87          	flq	fs7,-1186(a4)
    800101f4:	4b16                	lw	s6,68(sp)
    800101f6:	be029f77          	0xbe029f77
    800101fa:	1adbbbfb          	0x1adbbbfb
    800101fe:	ace291c3          	0xace291c3
    80010202:	2f82                	fld	ft11,0(sp)
    80010204:	e8c1a2e3          	0xe8c1a2e3
    80010208:	b648                	fsd	fa0,168(a2)
    8001020a:	b8fe                	fsd	ft11,112(sp)
    8001020c:	150a                	slli	a0,a0,0x22
    8001020e:	84e0                	0x84e0
    80010210:	ec05                	bnez	s0,80010248 <data+0x248>
    80010212:	8c9696a7          	0x8c9696a7
    80010216:	1d14                	addi	a3,sp,688
    80010218:	2572                	fld	fa0,280(sp)
    8001021a:	c625                	beqz	a2,80010282 <data+0x282>
    8001021c:	14c0                	addi	s0,sp,612
    8001021e:	f064                	sd	s1,224(s0)
    80010220:	acd4                	fsd	fa3,152(s1)
    80010222:	429c                	lw	a5,0(a3)
    80010224:	9928                	0x9928
    80010226:	2026                	fld	ft0,72(sp)
    80010228:	b92c                	fsd	fa1,112(a0)
    8001022a:	bb84a743          	fmadd.d	fa4,fs1,fs8,fs7,rdn
    8001022e:	5e75194b          	fnmsub.q	fs2,fa0,ft7,fa1,rtz
    80010232:	ca9d                	beqz	a3,80010268 <data+0x268>
    80010234:	bc1a                	fsd	ft6,56(sp)
    80010236:	63ae                	ld	t2,200(sp)
    80010238:	39fe970f          	0x39fe970f
    8001023c:	0b9d4b63          	blt	s10,s9,800102f2 <data+0x2f2>
    80010240:	e031                	bnez	s0,80010284 <data+0x284>
    80010242:	3e7b8b47          	fmsub.q	fs6,fs7,ft7,ft7,rne
    80010246:	8060                	0x8060
    80010248:	496d                	li	s2,27
    8001024a:	d140                	sw	s0,36(a0)
    8001024c:	75d4                	ld	a3,168(a1)
    8001024e:	9692                	add	a3,a3,tp
    80010250:	aab12ec7          	fmsub.d	ft9,ft2,fa1,fs5,rdn
    80010254:	6a78                	ld	a4,208(a2)
    80010256:	dcb1                	beqz	s1,800101b2 <data+0x1b2>
    80010258:	5c35                	li	s8,-19
    8001025a:	6b2d                	lui	s6,0xb
    8001025c:	7ab0                	ld	a2,112(a3)
    8001025e:	b2b2                	fsd	fa2,352(sp)
    80010260:	2ce9                	addiw	s9,s9,26
    80010262:	4ece                	lw	t4,208(sp)
    80010264:	0cf0                	addi	a2,sp,604
    80010266:	a9bbad4f          	fnmadd.s	fs10,fs7,fs11,fs5,rdn
    8001026a:	5b34                	lw	a3,112(a4)
    8001026c:	7365                	lui	t1,0xffff9
    8001026e:	a486                	fsd	ft1,72(sp)
    80010270:	8b36                	mv	s6,a3
    80010272:	618bcef3          	0x618bcef3
    80010276:	4ce6                	lw	s9,88(sp)
    80010278:	397c                	fld	fa5,240(a0)
    8001027a:	5349                	li	t1,-14
    8001027c:	37deb72f          	0x37deb72f
    80010280:	bb46                	fsd	fa7,432(sp)
    80010282:	a4a9                	j	800104cc <_end+0xb8>
    80010284:	dd42                	sw	a6,184(sp)
    80010286:	9d51                	0x9d51
    80010288:	876e                	mv	a4,s11
    8001028a:	2484                	fld	fs1,8(s1)
    8001028c:	fc6a                	sd	s10,56(sp)
    8001028e:	0e12962b          	0xe12962b
    80010292:	a6c0                	fsd	fs0,136(a3)
    80010294:	759d                	lui	a1,0xfffe7
    80010296:	9222                	add	tp,tp,s0
    80010298:	3795                	addiw	a5,a5,-27
    8001029a:	9688215b          	0x9688215b
    8001029e:	49f5                	li	s3,29
    800102a0:	3316                	fld	ft6,352(sp)
    800102a2:	bec2                	fsd	fa6,376(sp)
    800102a4:	4a75                	li	s4,29
    800102a6:	1c6d                	addi	s8,s8,-5
    800102a8:	17f7e3ab          	0x17f7e3ab
    800102ac:	5fce                	lw	t6,240(sp)
    800102ae:	50f9                	li	ra,-2
    800102b0:	c7ae                	sw	a1,204(sp)
    800102b2:	9138                	0x9138
    800102b4:	0a20                	addi	s0,sp,280
    800102b6:	dc70                	sw	a2,124(s0)
    800102b8:	6a52                	ld	s4,272(sp)
    800102ba:	849c543b          	0x849c543b
    800102be:	1406                	slli	s0,s0,0x21
    800102c0:	984e376b          	0x984e376b
    800102c4:	a21fb987          	fld	fs3,-1503(t6)
    800102c8:	e924                	sd	s1,80(a0)
    800102ca:	6fb37fbf 54da0cac 	0x54da0cac6fb37fbf
    800102d2:	5942                	lw	s2,48(sp)
    800102d4:	0480                	addi	s0,sp,576
    800102d6:	d339                	beqz	a4,8001021c <data+0x21c>
    800102d8:	90e1                	srli	s1,s1,0x38
    800102da:	86ee                	mv	a3,s11
    800102dc:	f23a                	sd	a4,288(sp)
    800102de:	55a5                	li	a1,-23
    800102e0:	cd96                	sw	t0,216(sp)
    800102e2:	261c                	fld	fa5,8(a2)
    800102e4:	6da2                	ld	s11,8(sp)
    800102e6:	7de4                	ld	s1,248(a1)
    800102e8:	159a                	slli	a1,a1,0x26
    800102ea:	58c1363b          	0x58c1363b
    800102ee:	00b295b7          	lui	a1,0xb29
    800102f2:	7c98                	ld	a4,56(s1)
    800102f4:	0424                	addi	s1,sp,520
    800102f6:	994a                	add	s2,s2,s2
    800102f8:	73f5                	lui	t2,0xffffd
    800102fa:	7f71                	lui	t5,0xffffc
    800102fc:	d61c5283          	lhu	t0,-671(s8)
    80010300:	3ffd                	addiw	t6,t6,-1
    80010302:	791e                	ld	s2,480(sp)
    80010304:	0421                	addi	s0,s0,8
    80010306:	db26                	sw	s1,180(sp)
    80010308:	ae0e                	fsd	ft3,280(sp)
    8001030a:	91ec4c47          	fmsub.s	fs8,fs8,ft10,fs2,rmm
    8001030e:	8be8                	0x8be8
    80010310:	e734                	sd	a3,72(a4)
    80010312:	d0ae                	sw	a1,96(sp)
    80010314:	0cb2                	slli	s9,s9,0xc
    80010316:	1a818c8f          	0x1a818c8f
    8001031a:	158c69ab          	0x158c69ab
    8001031e:	8bef7eef          	jal	t4,800073dc <i_7150>
    80010322:	f81c                	sd	a5,48(s0)
    80010324:	f6ee                	sd	s11,360(sp)
    80010326:	fcb5                	bnez	s1,800102a2 <data+0x2a2>
    80010328:	d3d5                	beqz	a5,800102cc <data+0x2cc>
    8001032a:	05f2                	slli	a1,a1,0x1c
    8001032c:	23c8                	fld	fa0,128(a5)
    8001032e:	cbc1                	beqz	a5,800103be <data+0x3be>
    80010330:	0f0c                	addi	a1,sp,912
    80010332:	4321                	li	t1,8
    80010334:	4a15ceb7          	lui	t4,0x4a15c
    80010338:	25ca                	fld	fa1,144(sp)
    8001033a:	ec39                	bnez	s0,80010398 <data+0x398>
    8001033c:	bdd6                	fsd	fs5,248(sp)
    8001033e:	77e2                	ld	a5,56(sp)
    80010340:	7528                	ld	a0,104(a0)
    80010342:	aff9                	j	80010b20 <_end+0x70c>
    80010344:	15b0                	addi	a2,sp,744
    80010346:	fc25                	bnez	s0,800102be <data+0x2be>
    80010348:	a995                	j	800107bc <_end+0x3a8>
    8001034a:	596e                	lw	s2,248(sp)
    8001034c:	dc6a                	sw	s10,56(sp)
    8001034e:	01ae                	slli	gp,gp,0xb
    80010350:	fde5                	bnez	a1,80010348 <data+0x348>
    80010352:	669c                	ld	a5,8(a3)
    80010354:	3454                	fld	fa3,168(s0)
    80010356:	9eba                	add	t4,t4,a4
    80010358:	7994                	ld	a3,48(a1)
    8001035a:	b900                	fsd	fs0,48(a0)
    8001035c:	4f3a                	lw	t5,140(sp)
    8001035e:	f70e                	sd	gp,424(sp)
    80010360:	9e9f b233 a4e2      	0xa4e2b2339e9f
    80010366:	856d                	srai	a0,a0,0x1b
    80010368:	1fa3e73f 341dae4c 	0x341dae4c1fa3e73f
    80010370:	cb26                	sw	s1,148(sp)
    80010372:	921f1f7b          	0x921f1f7b
    80010376:	e495                	bnez	s1,800103a2 <data+0x3a2>
    80010378:	d4bd8107          	0xd4bd8107
    8001037c:	55684503          	lbu	a0,1366(a6)
    80010380:	649a                	ld	s1,384(sp)
    80010382:	d8c8                	sw	a0,52(s1)
    80010384:	d688                	sw	a0,40(a3)
    80010386:	b806                	fsd	ft1,48(sp)
    80010388:	6ce6                	ld	s9,88(sp)
    8001038a:	aa15                	j	800104be <_end+0xaa>
    8001038c:	fa29                	bnez	a2,800102de <data+0x2de>
    8001038e:	badd9853          	0xbadd9853
    80010392:	8035                	srli	s0,s0,0xd
    80010394:	ba6386bf 78051e08 	0x78051e08ba6386bf
    8001039c:	e31d                	bnez	a4,800103c2 <data+0x3c2>
    8001039e:	8938                	0x8938
    800103a0:	93df 16cd 42d6      	0x42d616cd93df
    800103a6:	64bd                	lui	s1,0xf
    800103a8:	7559df6f          	jal	t5,800ae2fc <_end+0x9dee8>
    800103ac:	6944                	ld	s1,144(a0)
    800103ae:	3921                	addiw	s2,s2,-24
    800103b0:	f4da                	sd	s6,104(sp)
    800103b2:	cf6d                	beqz	a4,800104ac <_end+0x98>
    800103b4:	5f78894f          	fnmadd.q	fs2,fa7,fs7,fa1,rne
    800103b8:	d37f                	0xd37f
    800103ba:	c590                	sw	a2,8(a1)
    800103bc:	5e10                	lw	a2,56(a2)
    800103be:	725d4e47          	fmsub.d	ft8,fs10,ft5,fa4,rmm
    800103c2:	b0fd15db          	0xb0fd15db
    800103c6:	70b1                	lui	ra,0xfffec
    800103c8:	b3f9                	j	80010196 <data+0x196>
    800103ca:	5208                	lw	a0,32(a2)
    800103cc:	5150396f          	jal	s2,800140e0 <_end+0x3ccc>
    800103d0:	472c7eb7          	lui	t4,0x472c7
    800103d4:	67365bc7          	fmsub.q	fs7,fa2,fs3,fa2,unknown
    800103d8:	ad2b6c03          	lwu	s8,-1326(s6) # aad2 <main-0x7fff552e>
    800103dc:	ec6d                	bnez	s0,800104d6 <_end+0xc2>
    800103de:	04ae                	slli	s1,s1,0xb
    800103e0:	c0ae                	sw	a1,64(sp)
    800103e2:	72b10997          	auipc	s3,0x72b10
    800103e6:	efa4                	sd	s1,88(a5)
    800103e8:	048f138b          	0x48f138b
    800103ec:	cdad864f          	0xcdad864f
    800103f0:	5f19                	li	t5,-26
    800103f2:	a2751493          	0xa2751493
    800103f6:	32f2                	fld	ft5,312(sp)
    800103f8:	dc31                	beqz	s0,80010354 <data+0x354>
    800103fa:	399e                	fld	fs3,480(sp)
    800103fc:	9a61                	andi	a2,a2,-8
    800103fe:	9db6                	add	s11,s11,a3

Disassembly of section .tohost:

0000000080010400 <tohost>:
	...

0000000080010410 <fromhost>:
    80010410:	0000                	unimp
	...
