
output.riscv:     file format elf64-littleriscv


Disassembly of section .text:

0000000080000000 <main>:
    80000000:	40000137          	lui	sp,0x40000
    80000004:	00111113          	slli	sp,sp,0x1
    80000008:	000101b7          	lui	gp,0x10
    8000000c:	00310133          	add	sp,sp,gp
    80000010:	000032b7          	lui	t0,0x3
    80000014:	3002a073          	csrs	mstatus,t0
    80000018:	09f00293          	li	t0,159
    8000001c:	0032a073          	csrs	fcsr,t0
    80000020:	00813083          	ld	ra,8(sp) # 40000008 <main-0x3ffffff8>
    80000024:	01813183          	ld	gp,24(sp)
    80000028:	02013203          	ld	tp,32(sp)
    8000002c:	02813283          	ld	t0,40(sp)
    80000030:	03013303          	ld	t1,48(sp)
    80000034:	03813383          	ld	t2,56(sp)
    80000038:	04013403          	ld	s0,64(sp)
    8000003c:	04813483          	ld	s1,72(sp)
    80000040:	05013503          	ld	a0,80(sp)
    80000044:	05813583          	ld	a1,88(sp)
    80000048:	06013603          	ld	a2,96(sp)
    8000004c:	06813683          	ld	a3,104(sp)
    80000050:	07013703          	ld	a4,112(sp)
    80000054:	07813783          	ld	a5,120(sp)
    80000058:	08013803          	ld	a6,128(sp)
    8000005c:	08813883          	ld	a7,136(sp)
    80000060:	09013903          	ld	s2,144(sp)
    80000064:	09813983          	ld	s3,152(sp)
    80000068:	0a013a03          	ld	s4,160(sp)
    8000006c:	0a813a83          	ld	s5,168(sp)
    80000070:	0b013b03          	ld	s6,176(sp)
    80000074:	0b813b83          	ld	s7,184(sp)
    80000078:	0c013c03          	ld	s8,192(sp)
    8000007c:	0c813c83          	ld	s9,200(sp)
    80000080:	0d013d03          	ld	s10,208(sp)
    80000084:	0d813d83          	ld	s11,216(sp)
    80000088:	0e013e03          	ld	t3,224(sp)
    8000008c:	0e813e83          	ld	t4,232(sp)
    80000090:	0f013f03          	ld	t5,240(sp)
    80000094:	0f813f83          	ld	t6,248(sp)

0000000080000098 <i_0>:
    80000098:	0e812a03          	lw	s4,232(sp)

000000008000009c <i_1>:
    8000009c:	001a0863          	beq	s4,ra,800000ac <i_5>

00000000800000a0 <i_2>:
    800000a0:	16912423          	sw	s1,360(sp)

00000000800000a4 <i_3>:
    800000a4:	02712023          	sw	t2,32(sp)

00000000800000a8 <i_4>:
    800000a8:	41e383bb          	subw	t2,t2,t5

00000000800000ac <i_5>:
    800000ac:	0273d4b3          	divu	s1,t2,t2

00000000800000b0 <i_6>:
    800000b0:	0073b3b3          	sltu	t2,t2,t2

00000000800000b4 <i_7>:
    800000b4:	03419063          	bne	gp,s4,800000d4 <i_15>

00000000800000b8 <i_8>:
    800000b8:	02c00393          	li	t2,44

00000000800000bc <i_9>:
    800000bc:	007191b3          	sll	gp,gp,t2

00000000800000c0 <i_10>:
    800000c0:	0294e1b3          	rem	gp,s1,s1

00000000800000c4 <i_11>:
    800000c4:	00d1b0b3          	sltu	ra,gp,a3

00000000800000c8 <i_12>:
    800000c8:	06310083          	lb	ra,99(sp)

00000000800000cc <i_13>:
    800000cc:	0161c2b3          	xor	t0,gp,s6

00000000800000d0 <i_14>:
    800000d0:	01700593          	li	a1,23

00000000800000d4 <i_15>:
    800000d4:	40b4d53b          	sraw	a0,s1,a1

00000000800000d8 <i_16>:
    800000d8:	0072fe63          	bleu	t2,t0,800000f4 <i_23>

00000000800000dc <i_17>:
    800000dc:	ba84a093          	slti	ra,s1,-1112

00000000800000e0 <i_18>:
    800000e0:	0035f263          	bleu	gp,a1,800000e4 <i_19>

00000000800000e4 <i_19>:
    800000e4:	ebc16e83          	lwu	t4,-324(sp)

00000000800000e8 <i_20>:
    800000e8:	fb615383          	lhu	t2,-74(sp)

00000000800000ec <i_21>:
    800000ec:	0184dc63          	ble	s8,s1,80000104 <i_27>

00000000800000f0 <i_22>:
    800000f0:	02310523          	sb	gp,42(sp)

00000000800000f4 <i_23>:
    800000f4:	e2113823          	sd	ra,-464(sp)

00000000800000f8 <i_24>:
    800000f8:	eb610183          	lb	gp,-330(sp)

00000000800000fc <i_25>:
    800000fc:	79cef793          	andi	a5,t4,1948

0000000080000100 <i_26>:
    80000100:	0fd12423          	sw	t4,232(sp)

0000000080000104 <i_27>:
    80000104:	03d1beb3          	mulhu	t4,gp,t4

0000000080000108 <i_28>:
    80000108:	01d1c663          	blt	gp,t4,80000114 <i_31>

000000008000010c <i_29>:
    8000010c:	01d1ee33          	or	t3,gp,t4

0000000080000110 <i_30>:
    80000110:	f2a11b83          	lh	s7,-214(sp)

0000000080000114 <i_31>:
    80000114:	13713023          	sd	s7,288(sp)

0000000080000118 <i_32>:
    80000118:	40dd81bb          	subw	gp,s11,a3

000000008000011c <i_33>:
    8000011c:	15f10503          	lb	a0,351(sp)

0000000080000120 <i_34>:
    80000120:	01ddfa63          	bleu	t4,s11,80000134 <i_39>

0000000080000124 <i_35>:
    80000124:	0327a513          	slti	a0,a5,50

0000000080000128 <i_36>:
    80000128:	da17819b          	addiw	gp,a5,-607

000000008000012c <i_37>:
    8000012c:	13813483          	ld	s1,312(sp)

0000000080000130 <i_38>:
    80000130:	14013203          	ld	tp,320(sp)

0000000080000134 <i_39>:
    80000134:	03815803          	lhu	a6,56(sp)

0000000080000138 <i_40>:
    80000138:	521ded93          	ori	s11,s11,1313

000000008000013c <i_41>:
    8000013c:	00abc863          	blt	s7,a0,8000014c <i_45>

0000000080000140 <i_42>:
    80000140:	03084463          	blt	a6,a6,80000168 <i_52>

0000000080000144 <i_43>:
    80000144:	02d00513          	li	a0,45

0000000080000148 <i_44>:
    80000148:	00ae1ab3          	sll	s5,t3,a0

000000008000014c <i_45>:
    8000014c:	e2e11803          	lh	a6,-466(sp)

0000000080000150 <i_46>:
    80000150:	01bd8263          	beq	s11,s11,80000154 <i_47>

0000000080000154 <i_47>:
    80000154:	07010f23          	sb	a6,126(sp)

0000000080000158 <i_48>:
    80000158:	ea111a23          	sh	ra,-332(sp)

000000008000015c <i_49>:
    8000015c:	035d8063          	beq	s11,s5,8000017c <i_57>

0000000080000160 <i_50>:
    80000160:	03bac063          	blt	s5,s11,80000180 <i_58>

0000000080000164 <i_51>:
    80000164:	015a8ab3          	add	s5,s5,s5

0000000080000168 <i_52>:
    80000168:	f0410a03          	lb	s4,-252(sp)

000000008000016c <i_53>:
    8000016c:	015a9a63          	bne	s5,s5,80000180 <i_58>

0000000080000170 <i_54>:
    80000170:	00d00513          	li	a0,13

0000000080000174 <i_55>:
    80000174:	00aa5abb          	srlw	s5,s4,a0

0000000080000178 <i_56>:
    80000178:	e5510723          	sb	s5,-434(sp)

000000008000017c <i_57>:
    8000017c:	00251193          	slli	gp,a0,0x2

0000000080000180 <i_58>:
    80000180:	02a54533          	div	a0,a0,a0

0000000080000184 <i_59>:
    80000184:	19412183          	lw	gp,404(sp)

0000000080000188 <i_60>:
    80000188:	78e00a93          	li	s5,1934

000000008000018c <i_61>:
    8000018c:	79f00413          	li	s0,1951

0000000080000190 <i_62>:
    80000190:	00000013          	nop

0000000080000194 <i_63>:
    80000194:	1b210203          	lb	tp,434(sp)

0000000080000198 <i_64>:
    80000198:	40ac0c33          	sub	s8,s8,a0

000000008000019c <i_65>:
    8000019c:	a9526193          	ori	gp,tp,-1387

00000000800001a0 <i_66>:
    800001a0:	1aa12a23          	sw	a0,436(sp)

00000000800001a4 <i_67>:
    800001a4:	0b811423          	sh	s8,168(sp)

00000000800001a8 <i_68>:
    800001a8:	00000013          	nop

00000000800001ac <i_69>:
    800001ac:	001a8a93          	addi	s5,s5,1
    800001b0:	fe8ae0e3          	bltu	s5,s0,80000190 <i_62>

00000000800001b4 <i_70>:
    800001b4:	0a810403          	lb	s0,168(sp)

00000000800001b8 <i_71>:
    800001b8:	02319063          	bne	gp,gp,800001d8 <i_79>

00000000800001bc <i_72>:
    800001bc:	fe810a23          	sb	s0,-12(sp)

00000000800001c0 <i_73>:
    800001c0:	ed013d83          	ld	s11,-304(sp)

00000000800001c4 <i_74>:
    800001c4:	f0211603          	lh	a2,-254(sp)

00000000800001c8 <i_75>:
    800001c8:	03b5053b          	mulw	a0,a0,s11

00000000800001cc <i_76>:
    800001cc:	09813e83          	ld	t4,152(sp)

00000000800001d0 <i_77>:
    800001d0:	008dd263          	ble	s0,s11,800001d4 <i_78>

00000000800001d4 <i_78>:
    800001d4:	07811e23          	sh	s8,124(sp)

00000000800001d8 <i_79>:
    800001d8:	ed813403          	ld	s0,-296(sp)

00000000800001dc <i_80>:
    800001dc:	04810523          	sb	s0,74(sp)

00000000800001e0 <i_81>:
    800001e0:	ec016d83          	lwu	s11,-320(sp)

00000000800001e4 <i_82>:
    800001e4:	0d416403          	lwu	s0,212(sp)

00000000800001e8 <i_83>:
    800001e8:	01d90263          	beq	s2,t4,800001ec <i_84>

00000000800001ec <i_84>:
    800001ec:	00f00e93          	li	t4,15

00000000800001f0 <i_85>:
    800001f0:	41d0d0bb          	sraw	ra,ra,t4

00000000800001f4 <i_86>:
    800001f4:	0080d463          	ble	s0,ra,800001fc <i_88>

00000000800001f8 <i_87>:
    800001f8:	f9210d83          	lb	s11,-110(sp)

00000000800001fc <i_88>:
    800001fc:	004ddd93          	srli	s11,s11,0x4

0000000080000200 <i_89>:
    80000200:	01bd8c33          	add	s8,s11,s11

0000000080000204 <i_90>:
    80000204:	e8c11e83          	lh	t4,-372(sp)

0000000080000208 <i_91>:
    80000208:	fe416b83          	lwu	s7,-28(sp)

000000008000020c <i_92>:
    8000020c:	4c6e8a93          	addi	s5,t4,1222

0000000080000210 <i_93>:
    80000210:	83900d93          	li	s11,-1991

0000000080000214 <i_94>:
    80000214:	84900e93          	li	t4,-1975

0000000080000218 <i_95>:
    80000218:	13013c03          	ld	s8,304(sp)

000000008000021c <i_96>:
    8000021c:	e6c15783          	lhu	a5,-404(sp)

0000000080000220 <i_97>:
    80000220:	001d8d93          	addi	s11,s11,1
    80000224:	ffddeae3          	bltu	s11,t4,80000218 <i_95>

0000000080000228 <i_98>:
    80000228:	401bd51b          	sraiw	a0,s7,0x1

000000008000022c <i_99>:
    8000022c:	01551463          	bne	a0,s5,80000234 <i_101>

0000000080000230 <i_100>:
    80000230:	19a15b83          	lhu	s7,410(sp)

0000000080000234 <i_101>:
    80000234:	07713c23          	sd	s7,120(sp)

0000000080000238 <i_102>:
    80000238:	e2210fa3          	sb	sp,-449(sp)

000000008000023c <i_103>:
    8000023c:	03765063          	ble	s7,a2,8000025c <i_111>

0000000080000240 <i_104>:
    80000240:	01156a63          	bltu	a0,a7,80000254 <i_109>

0000000080000244 <i_105>:
    80000244:	01100493          	li	s1,17

0000000080000248 <i_106>:
    80000248:	009bd53b          	srlw	a0,s7,s1

000000008000024c <i_107>:
    8000024c:	02a17533          	remu	a0,sp,a0

0000000080000250 <i_108>:
    80000250:	0374d533          	divu	a0,s1,s7

0000000080000254 <i_109>:
    80000254:	037bceb3          	div	t4,s7,s7

0000000080000258 <i_110>:
    80000258:	01d57c63          	bleu	t4,a0,80000270 <i_116>

000000008000025c <i_111>:
    8000025c:	00b505b3          	add	a1,a0,a1

0000000080000260 <i_112>:
    80000260:	f7910c03          	lb	s8,-135(sp)

0000000080000264 <i_113>:
    80000264:	01600593          	li	a1,22

0000000080000268 <i_114>:
    80000268:	00bddebb          	srlw	t4,s11,a1

000000008000026c <i_115>:
    8000026c:	e51d8513          	addi	a0,s11,-431

0000000080000270 <i_116>:
    80000270:	0dd11023          	sh	t4,192(sp)

0000000080000274 <i_117>:
    80000274:	ee813983          	ld	s3,-280(sp)

0000000080000278 <i_118>:
    80000278:	88900c13          	li	s8,-1911

000000008000027c <i_119>:
    8000027c:	89600d93          	li	s11,-1898

0000000080000280 <i_120>:
    80000280:	e4110983          	lb	s3,-447(sp)

0000000080000284 <i_121>:
    80000284:	033dceb3          	div	t4,s11,s3

0000000080000288 <i_122>:
    80000288:	ea010483          	lb	s1,-352(sp)

000000008000028c <i_123>:
    8000028c:	00011483          	lh	s1,0(sp)

0000000080000290 <i_124>:
    80000290:	fa914e83          	lbu	t4,-87(sp)

0000000080000294 <i_125>:
    80000294:	013989b3          	add	s3,s3,s3

0000000080000298 <i_126>:
    80000298:	f8b10983          	lb	s3,-117(sp)

000000008000029c <i_127>:
    8000029c:	03d9d33b          	divuw	t1,s3,t4

00000000800002a0 <i_128>:
    800002a0:	00000013          	nop

00000000800002a4 <i_129>:
    800002a4:	001c0c13          	addi	s8,s8,1
    800002a8:	fd8dfce3          	bleu	s8,s11,80000280 <i_120>

00000000800002ac <i_130>:
    800002ac:	027349bb          	divw	s3,t1,t2

00000000800002b0 <i_131>:
    800002b0:	17816983          	lwu	s3,376(sp)

00000000800002b4 <i_132>:
    800002b4:	013309b3          	add	s3,t1,s3

00000000800002b8 <i_133>:
    800002b8:	33543493          	sltiu	s1,s0,821

00000000800002bc <i_134>:
    800002bc:	033a4a33          	div	s4,s4,s3

00000000800002c0 <i_135>:
    800002c0:	001a5213          	srli	tp,s4,0x1

00000000800002c4 <i_136>:
    800002c4:	01498433          	add	s0,s3,s4

00000000800002c8 <i_137>:
    800002c8:	03016983          	lwu	s3,48(sp)

00000000800002cc <i_138>:
    800002cc:	01a5ca63          	blt	a1,s10,800002e0 <i_143>

00000000800002d0 <i_139>:
    800002d0:	033f81bb          	mulw	gp,t6,s3

00000000800002d4 <i_140>:
    800002d4:	0139a233          	slt	tp,s3,s3

00000000800002d8 <i_141>:
    800002d8:	00823433          	sltu	s0,tp,s0

00000000800002dc <i_142>:
    800002dc:	03d10d83          	lb	s11,61(sp)

00000000800002e0 <i_143>:
    800002e0:	40320233          	sub	tp,tp,gp

00000000800002e4 <i_144>:
    800002e4:	3a73ee13          	ori	t3,t2,935

00000000800002e8 <i_145>:
    800002e8:	0c813203          	ld	tp,200(sp)

00000000800002ec <i_146>:
    800002ec:	13c11f23          	sh	t3,318(sp)

00000000800002f0 <i_147>:
    800002f0:	413e01bb          	subw	gp,t3,s3

00000000800002f4 <i_148>:
    800002f4:	004e1463          	bne	t3,tp,800002fc <i_150>

00000000800002f8 <i_149>:
    800002f8:	02418263          	beq	gp,tp,8000031c <i_158>

00000000800002fc <i_150>:
    800002fc:	eea10ba3          	sb	a0,-265(sp)

0000000080000300 <i_151>:
    80000300:	01b00993          	li	s3,27

0000000080000304 <i_152>:
    80000304:	0132523b          	srlw	tp,tp,s3

0000000080000308 <i_153>:
    80000308:	00269993          	slli	s3,a3,0x2

000000008000030c <i_154>:
    8000030c:	16014983          	lbu	s3,352(sp)

0000000080000310 <i_155>:
    80000310:	ea313823          	sd	gp,-336(sp)

0000000080000314 <i_156>:
    80000314:	0be10603          	lb	a2,190(sp)

0000000080000318 <i_157>:
    80000318:	01010d83          	lb	s11,16(sp)

000000008000031c <i_158>:
    8000031c:	1b313023          	sd	s3,416(sp)

0000000080000320 <i_159>:
    80000320:	033629b3          	mulhsu	s3,a2,s3

0000000080000324 <i_160>:
    80000324:	f3415983          	lhu	s3,-204(sp)

0000000080000328 <i_161>:
    80000328:	01610483          	lb	s1,22(sp)

000000008000032c <i_162>:
    8000032c:	00f61e63          	bne	a2,a5,80000348 <i_169>

0000000080000330 <i_163>:
    80000330:	1fb101a3          	sb	s11,483(sp)

0000000080000334 <i_164>:
    80000334:	0b711523          	sh	s7,170(sp)

0000000080000338 <i_165>:
    80000338:	00400993          	li	s3,4

000000008000033c <i_166>:
    8000033c:	013995b3          	sll	a1,s3,s3

0000000080000340 <i_167>:
    80000340:	08514203          	lbu	tp,133(sp)

0000000080000344 <i_168>:
    80000344:	00000013          	nop

0000000080000348 <i_169>:
    80000348:	29d9ba93          	sltiu	s5,s3,669

000000008000034c <i_170>:
    8000034c:	f6c12c83          	lw	s9,-148(sp)

0000000080000350 <i_171>:
    80000350:	87200613          	li	a2,-1934

0000000080000354 <i_172>:
    80000354:	87a00b93          	li	s7,-1926

0000000080000358 <i_173>:
    80000358:	01911e63          	bne	sp,s9,80000374 <i_179>

000000008000035c <i_174>:
    8000035c:	00000013          	nop

0000000080000360 <i_175>:
    80000360:	e9912a23          	sw	s9,-364(sp)

0000000080000364 <i_176>:
    80000364:	00160613          	addi	a2,a2,1
    80000368:	fecbf8e3          	bleu	a2,s7,80000358 <i_173>

000000008000036c <i_177>:
    8000036c:	e9015d83          	lhu	s11,-368(sp)

0000000080000370 <i_178>:
    80000370:	00221c63          	bne	tp,sp,80000388 <i_184>

0000000080000374 <i_179>:
    80000374:	01546c63          	bltu	s0,s5,8000038c <i_185>

0000000080000378 <i_180>:
    80000378:	00600e93          	li	t4,6

000000008000037c <i_181>:
    8000037c:	01dd9233          	sll	tp,s11,t4

0000000080000380 <i_182>:
    80000380:	024e8abb          	mulw	s5,t4,tp

0000000080000384 <i_183>:
    80000384:	01800993          	li	s3,24

0000000080000388 <i_184>:
    80000388:	013ad63b          	srlw	a2,s5,s3

000000008000038c <i_185>:
    8000038c:	004e9863          	bne	t4,tp,8000039c <i_189>

0000000080000390 <i_186>:
    80000390:	03611503          	lh	a0,54(sp)

0000000080000394 <i_187>:
    80000394:	03a11a03          	lh	s4,58(sp)

0000000080000398 <i_188>:
    80000398:	fbf9c513          	xori	a0,s3,-65

000000008000039c <i_189>:
    8000039c:	eec15583          	lhu	a1,-276(sp)

00000000800003a0 <i_190>:
    800003a0:	06110403          	lb	s0,97(sp)

00000000800003a4 <i_191>:
    800003a4:	f3016c83          	lwu	s9,-208(sp)

00000000800003a8 <i_192>:
    800003a8:	00800a13          	li	s4,8

00000000800003ac <i_193>:
    800003ac:	414ada33          	sra	s4,s5,s4

00000000800003b0 <i_194>:
    800003b0:	13812c23          	sw	s8,312(sp)

00000000800003b4 <i_195>:
    800003b4:	e7013a03          	ld	s4,-400(sp)

00000000800003b8 <i_196>:
    800003b8:	fe012a83          	lw	s5,-32(sp)

00000000800003bc <i_197>:
    800003bc:	1f912023          	sw	s9,480(sp)

00000000800003c0 <i_198>:
    800003c0:	00eaeab3          	or	s5,s5,a4

00000000800003c4 <i_199>:
    800003c4:	fc8aea93          	ori	s5,s5,-56

00000000800003c8 <i_200>:
    800003c8:	03500c93          	li	s9,53

00000000800003cc <i_201>:
    800003cc:	019a5833          	srl	a6,s4,s9

00000000800003d0 <i_202>:
    800003d0:	ff911623          	sh	s9,-20(sp)

00000000800003d4 <i_203>:
    800003d4:	019a9663          	bne	s5,s9,800003e0 <i_206>

00000000800003d8 <i_204>:
    800003d8:	e3a14a03          	lbu	s4,-454(sp)

00000000800003dc <i_205>:
    800003dc:	039c9463          	bne	s9,s9,80000404 <i_215>

00000000800003e0 <i_206>:
    800003e0:	fa714983          	lbu	s3,-89(sp)

00000000800003e4 <i_207>:
    800003e4:	01512223          	sw	s5,4(sp)

00000000800003e8 <i_208>:
    800003e8:	f0114c83          	lbu	s9,-255(sp)

00000000800003ec <i_209>:
    800003ec:	4019d09b          	sraiw	ra,s3,0x1

00000000800003f0 <i_210>:
    800003f0:	12c15a83          	lhu	s5,300(sp)

00000000800003f4 <i_211>:
    800003f4:	0a811723          	sh	s0,174(sp)

00000000800003f8 <i_212>:
    800003f8:	e5e13423          	sd	t5,-440(sp)

00000000800003fc <i_213>:
    800003fc:	035adebb          	divuw	t4,s5,s5

0000000080000400 <i_214>:
    80000400:	0a110d83          	lb	s11,161(sp)

0000000080000404 <i_215>:
    80000404:	00000013          	nop

0000000080000408 <i_216>:
    80000408:	03520ab3          	mul	s5,tp,s5

000000008000040c <i_217>:
    8000040c:	8ae00413          	li	s0,-1874

0000000080000410 <i_218>:
    80000410:	8bf00313          	li	t1,-1857

0000000080000414 <i_219>:
    80000414:	06c15783          	lhu	a5,108(sp)

0000000080000418 <i_220>:
    80000418:	19813a83          	ld	s5,408(sp)

000000008000041c <i_221>:
    8000041c:	79900393          	li	t2,1945

0000000080000420 <i_222>:
    80000420:	7a900213          	li	tp,1961

0000000080000424 <i_223>:
    80000424:	41568cbb          	subw	s9,a3,s5

0000000080000428 <i_224>:
    80000428:	00138393          	addi	t2,t2,1
    8000042c:	fe43ece3          	bltu	t2,tp,80000424 <i_223>

0000000080000430 <i_225>:
    80000430:	03913023          	sd	s9,32(sp)

0000000080000434 <i_226>:
    80000434:	00000013          	nop

0000000080000438 <i_227>:
    80000438:	00140413          	addi	s0,s0,1
    8000043c:	fc641ce3          	bne	s0,t1,80000414 <i_219>

0000000080000440 <i_228>:
    80000440:	04a11d83          	lh	s11,74(sp)

0000000080000444 <i_229>:
    80000444:	1a211803          	lh	a6,418(sp)

0000000080000448 <i_230>:
    80000448:	00384863          	blt	a6,gp,80000458 <i_234>

000000008000044c <i_231>:
    8000044c:	e2853837          	lui	a6,0xe2853

0000000080000450 <i_232>:
    80000450:	02100393          	li	t2,33

0000000080000454 <i_233>:
    80000454:	00781833          	sll	a6,a6,t2

0000000080000458 <i_234>:
    80000458:	1afd0817          	auipc	a6,0x1afd0

000000008000045c <i_235>:
    8000045c:	f3b11623          	sh	s11,-212(sp)

0000000080000460 <i_236>:
    80000460:	01000613          	li	a2,16

0000000080000464 <i_237>:
    80000464:	00ca9bbb          	sllw	s7,s5,a2

0000000080000468 <i_238>:
    80000468:	02286633          	rem	a2,a6,sp

000000008000046c <i_239>:
    8000046c:	02c12423          	sw	a2,40(sp)

0000000080000470 <i_240>:
    80000470:	0034141b          	slliw	s0,s0,0x3

0000000080000474 <i_241>:
    80000474:	77800813          	li	a6,1912

0000000080000478 <i_242>:
    80000478:	78100613          	li	a2,1921

000000008000047c <i_243>:
    8000047c:	f9012203          	lw	tp,-112(sp)

0000000080000480 <i_244>:
    80000480:	fa412383          	lw	t2,-92(sp)

0000000080000484 <i_245>:
    80000484:	e6813023          	sd	s0,-416(sp)

0000000080000488 <i_246>:
    80000488:	06b14b83          	lbu	s7,107(sp)

000000008000048c <i_247>:
    8000048c:	00c3e2b3          	or	t0,t2,a2

0000000080000490 <i_248>:
    80000490:	1a512423          	sw	t0,424(sp)

0000000080000494 <i_249>:
    80000494:	e9211283          	lh	t0,-366(sp)

0000000080000498 <i_250>:
    80000498:	01746263          	bltu	s0,s7,8000049c <i_251>

000000008000049c <i_251>:
    8000049c:	00000013          	nop

00000000800004a0 <i_252>:
    800004a0:	aafa4193          	xori	gp,s4,-1361

00000000800004a4 <i_253>:
    800004a4:	00180813          	addi	a6,a6,1 # 9afd0459 <_end+0x1afc0045>
    800004a8:	fcc84ae3          	blt	a6,a2,8000047c <i_243>

00000000800004ac <i_254>:
    800004ac:	0022959b          	slliw	a1,t0,0x2

00000000800004b0 <i_255>:
    800004b0:	13914b83          	lbu	s7,313(sp)

00000000800004b4 <i_256>:
    800004b4:	ec813e03          	ld	t3,-312(sp)

00000000800004b8 <i_257>:
    800004b8:	fef10e03          	lb	t3,-17(sp)

00000000800004bc <i_258>:
    800004bc:	02e24063          	blt	tp,a4,800004dc <i_266>

00000000800004c0 <i_259>:
    800004c0:	002e1193          	slli	gp,t3,0x2

00000000800004c4 <i_260>:
    800004c4:	40c4863b          	subw	a2,s1,a2

00000000800004c8 <i_261>:
    800004c8:	02c27e3b          	remuw	t3,tp,a2

00000000800004cc <i_262>:
    800004cc:	00520263          	beq	tp,t0,800004d0 <i_263>

00000000800004d0 <i_263>:
    800004d0:	e5712e23          	sw	s7,-420(sp)

00000000800004d4 <i_264>:
    800004d4:	41c282bb          	subw	t0,t0,t3

00000000800004d8 <i_265>:
    800004d8:	e7812203          	lw	tp,-392(sp)

00000000800004dc <i_266>:
    800004dc:	f2c13423          	sd	a2,-216(sp)

00000000800004e0 <i_267>:
    800004e0:	00000013          	nop

00000000800004e4 <i_268>:
    800004e4:	73800a13          	li	s4,1848

00000000800004e8 <i_269>:
    800004e8:	74000613          	li	a2,1856

00000000800004ec <i_270>:
    800004ec:	02c6723b          	remuw	tp,a2,a2

00000000800004f0 <i_271>:
    800004f0:	f6512223          	sw	t0,-156(sp)

00000000800004f4 <i_272>:
    800004f4:	19012203          	lw	tp,400(sp)

00000000800004f8 <i_273>:
    800004f8:	07e15e83          	lhu	t4,126(sp)

00000000800004fc <i_274>:
    800004fc:	78600393          	li	t2,1926

0000000080000500 <i_275>:
    80000500:	79400293          	li	t0,1940

0000000080000504 <i_276>:
    80000504:	407a8533          	sub	a0,s5,t2

0000000080000508 <i_277>:
    80000508:	1a511023          	sh	t0,416(sp)

000000008000050c <i_278>:
    8000050c:	00138393          	addi	t2,t2,1
    80000510:	fe53cae3          	blt	t2,t0,80000504 <i_276>

0000000080000514 <i_279>:
    80000514:	00a235b3          	sltu	a1,tp,a0

0000000080000518 <i_280>:
    80000518:	02a5f263          	bleu	a0,a1,8000053c <i_288>

000000008000051c <i_281>:
    8000051c:	f3e11b83          	lh	s7,-194(sp)

0000000080000520 <i_282>:
    80000520:	001a0a13          	addi	s4,s4,1
    80000524:	fd4654e3          	ble	s4,a2,800004ec <i_270>

0000000080000528 <i_283>:
    80000528:	00c81a63          	bne	a6,a2,8000053c <i_288>

000000008000052c <i_284>:
    8000052c:	1d415383          	lhu	t2,468(sp)

0000000080000530 <i_285>:
    80000530:	02bb9633          	mulh	a2,s7,a1

0000000080000534 <i_286>:
    80000534:	01812b83          	lw	s7,24(sp)

0000000080000538 <i_287>:
    80000538:	18212423          	sw	sp,392(sp)

000000008000053c <i_288>:
    8000053c:	e5f10403          	lb	s0,-417(sp)

0000000080000540 <i_289>:
    80000540:	00000013          	nop

0000000080000544 <i_290>:
    80000544:	01cebdb3          	sltu	s11,t4,t3

0000000080000548 <i_291>:
    80000548:	84d00e93          	li	t4,-1971

000000008000054c <i_292>:
    8000054c:	85000e13          	li	t3,-1968

0000000080000550 <i_293>:
    80000550:	f8e14b83          	lbu	s7,-114(sp)

0000000080000554 <i_294>:
    80000554:	03ce42b3          	div	t0,t3,t3

0000000080000558 <i_295>:
    80000558:	006e3633          	sltu	a2,t3,t1

000000008000055c <i_296>:
    8000055c:	01400313          	li	t1,20

0000000080000560 <i_297>:
    80000560:	406ddbbb          	sraw	s7,s11,t1

0000000080000564 <i_298>:
    80000564:	eb815983          	lhu	s3,-328(sp)

0000000080000568 <i_299>:
    80000568:	013b8c63          	beq	s7,s3,80000580 <i_304>

000000008000056c <i_300>:
    8000056c:	001e8e93          	addi	t4,t4,1
    80000570:	ffcee0e3          	bltu	t4,t3,80000550 <i_293>

0000000080000574 <i_301>:
    80000574:	001d9513          	slli	a0,s11,0x1

0000000080000578 <i_302>:
    80000578:	00500313          	li	t1,5

000000008000057c <i_303>:
    8000057c:	006dddbb          	srlw	s11,s11,t1

0000000080000580 <i_304>:
    80000580:	eec11d23          	sh	a2,-262(sp)

0000000080000584 <i_305>:
    80000584:	00c225b3          	slt	a1,tp,a2

0000000080000588 <i_306>:
    80000588:	80100613          	li	a2,-2047

000000008000058c <i_307>:
    8000058c:	81100b93          	li	s7,-2031

0000000080000590 <i_308>:
    80000590:	0e612623          	sw	t1,236(sp)

0000000080000594 <i_309>:
    80000594:	00000013          	nop

0000000080000598 <i_310>:
    80000598:	0019d39b          	srliw	t2,s3,0x1

000000008000059c <i_311>:
    8000059c:	00160613          	addi	a2,a2,1
    800005a0:	fecbd8e3          	ble	a2,s7,80000590 <i_308>

00000000800005a4 <i_312>:
    800005a4:	0a816e03          	lwu	t3,168(sp)

00000000800005a8 <i_313>:
    800005a8:	01600e13          	li	t3,22

00000000800005ac <i_314>:
    800005ac:	01cb9bb3          	sll	s7,s7,t3

00000000800005b0 <i_315>:
    800005b0:	11712823          	sw	s7,272(sp)

00000000800005b4 <i_316>:
    800005b4:	025ef2bb          	remuw	t0,t4,t0

00000000800005b8 <i_317>:
    800005b8:	01211503          	lh	a0,18(sp)

00000000800005bc <i_318>:
    800005bc:	1a011b83          	lh	s7,416(sp)

00000000800005c0 <i_319>:
    800005c0:	1c016383          	lwu	t2,448(sp)

00000000800005c4 <i_320>:
    800005c4:	0073f863          	bleu	t2,t2,800005d4 <i_324>

00000000800005c8 <i_321>:
    800005c8:	00791e63          	bne	s2,t2,800005e4 <i_328>

00000000800005cc <i_322>:
    800005cc:	00739663          	bne	t2,t2,800005d8 <i_325>

00000000800005d0 <i_323>:
    800005d0:	02a38463          	beq	t2,a0,800005f8 <i_333>

00000000800005d4 <i_324>:
    800005d4:	1a710823          	sb	t2,432(sp)

00000000800005d8 <i_325>:
    800005d8:	00600513          	li	a0,6

00000000800005dc <i_326>:
    800005dc:	00a117bb          	sllw	a5,sp,a0

00000000800005e0 <i_327>:
    800005e0:	02f387bb          	mulw	a5,t2,a5

00000000800005e4 <i_328>:
    800005e4:	66d7fb93          	andi	s7,a5,1645

00000000800005e8 <i_329>:
    800005e8:	003bd39b          	srliw	t2,s7,0x3

00000000800005ec <i_330>:
    800005ec:	017507b3          	add	a5,a0,s7

00000000800005f0 <i_331>:
    800005f0:	00740463          	beq	s0,t2,800005f8 <i_333>

00000000800005f4 <i_332>:
    800005f4:	00215513          	srli	a0,sp,0x2

00000000800005f8 <i_333>:
    800005f8:	0070f663          	bleu	t2,ra,80000604 <i_336>

00000000800005fc <i_334>:
    800005fc:	00a3e263          	bltu	t2,a0,80000600 <i_335>

0000000080000600 <i_335>:
    80000600:	12412983          	lw	s3,292(sp)

0000000080000604 <i_336>:
    80000604:	00a9a1b3          	slt	gp,s3,a0

0000000080000608 <i_337>:
    80000608:	fd411983          	lh	s3,-44(sp)

000000008000060c <i_338>:
    8000060c:	e2c11203          	lh	tp,-468(sp)

0000000080000610 <i_339>:
    80000610:	00013a83          	ld	s5,0(sp)

0000000080000614 <i_340>:
    80000614:	7a000993          	li	s3,1952

0000000080000618 <i_341>:
    80000618:	7b400613          	li	a2,1972

000000008000061c <i_342>:
    8000061c:	01a00293          	li	t0,26

0000000080000620 <i_343>:
    80000620:	0059d0bb          	srlw	ra,s3,t0

0000000080000624 <i_344>:
    80000624:	9a21b193          	sltiu	gp,gp,-1630

0000000080000628 <i_345>:
    80000628:	02cafabb          	remuw	s5,s5,a2

000000008000062c <i_346>:
    8000062c:	00198993          	addi	s3,s3,1
    80000630:	fec9c6e3          	blt	s3,a2,8000061c <i_342>

0000000080000634 <i_347>:
    80000634:	01d12023          	sw	t4,0(sp)

0000000080000638 <i_348>:
    80000638:	03560463          	beq	a2,s5,80000660 <i_358>

000000008000063c <i_349>:
    8000063c:	ec416e83          	lwu	t4,-316(sp)

0000000080000640 <i_350>:
    80000640:	01a00e93          	li	t4,26

0000000080000644 <i_351>:
    80000644:	41d1d63b          	sraw	a2,gp,t4

0000000080000648 <i_352>:
    80000648:	009ac463          	blt	s5,s1,80000650 <i_354>

000000008000064c <i_353>:
    8000064c:	0261f1b3          	remu	gp,gp,t1

0000000080000650 <i_354>:
    80000650:	00000013          	nop

0000000080000654 <i_355>:
    80000654:	00000013          	nop

0000000080000658 <i_356>:
    80000658:	0013961b          	slliw	a2,t2,0x1

000000008000065c <i_357>:
    8000065c:	00000013          	nop

0000000080000660 <i_358>:
    80000660:	fd813603          	ld	a2,-40(sp)

0000000080000664 <i_359>:
    80000664:	14016d83          	lwu	s11,320(sp)

0000000080000668 <i_360>:
    80000668:	7bf00a13          	li	s4,1983

000000008000066c <i_361>:
    8000066c:	7c400393          	li	t2,1988

0000000080000670 <i_362>:
    80000670:	0c710c23          	sb	t2,216(sp)

0000000080000674 <i_363>:
    80000674:	1e411d83          	lh	s11,484(sp)

0000000080000678 <i_364>:
    80000678:	0dc12603          	lw	a2,220(sp)

000000008000067c <i_365>:
    8000067c:	01510503          	lb	a0,21(sp)

0000000080000680 <i_366>:
    80000680:	f8c10aa3          	sb	a2,-107(sp)

0000000080000684 <i_367>:
    80000684:	0cc12023          	sw	a2,192(sp)

0000000080000688 <i_368>:
    80000688:	02c0e463          	bltu	ra,a2,800006b0 <i_377>

000000008000068c <i_369>:
    8000068c:	ea013403          	ld	s0,-352(sp)

0000000080000690 <i_370>:
    80000690:	09215603          	lhu	a2,146(sp)

0000000080000694 <i_371>:
    80000694:	00c63233          	sltu	tp,a2,a2

0000000080000698 <i_372>:
    80000698:	001a0a13          	addi	s4,s4,1
    8000069c:	fd43fae3          	bleu	s4,t2,80000670 <i_362>

00000000800006a0 <i_373>:
    800006a0:	00455e9b          	srliw	t4,a0,0x4

00000000800006a4 <i_374>:
    800006a4:	00000013          	nop

00000000800006a8 <i_375>:
    800006a8:	fb013083          	ld	ra,-80(sp)

00000000800006ac <i_376>:
    800006ac:	fbe15e83          	lhu	t4,-66(sp)

00000000800006b0 <i_377>:
    800006b0:	ebd12e23          	sw	t4,-324(sp)

00000000800006b4 <i_378>:
    800006b4:	0bc15e83          	lhu	t4,188(sp)

00000000800006b8 <i_379>:
    800006b8:	74000c13          	li	s8,1856

00000000800006bc <i_380>:
    800006bc:	74f00293          	li	t0,1871

00000000800006c0 <i_381>:
    800006c0:	00000013          	nop

00000000800006c4 <i_382>:
    800006c4:	10d12823          	sw	a3,272(sp)

00000000800006c8 <i_383>:
    800006c8:	fd410023          	sb	s4,-64(sp)

00000000800006cc <i_384>:
    800006cc:	0340f463          	bleu	s4,ra,800006f4 <i_393>

00000000800006d0 <i_385>:
    800006d0:	01d10203          	lb	tp,29(sp)

00000000800006d4 <i_386>:
    800006d4:	004a509b          	srliw	ra,s4,0x4

00000000800006d8 <i_387>:
    800006d8:	f7314083          	lbu	ra,-141(sp)

00000000800006dc <i_388>:
    800006dc:	00000013          	nop

00000000800006e0 <i_389>:
    800006e0:	021b3333          	mulhu	t1,s6,ra

00000000800006e4 <i_390>:
    800006e4:	001c0c13          	addi	s8,s8,1
    800006e8:	fc5c1ce3          	bne	s8,t0,800006c0 <i_381>

00000000800006ec <i_391>:
    800006ec:	e4210e03          	lb	t3,-446(sp)

00000000800006f0 <i_392>:
    800006f0:	16615083          	lhu	ra,358(sp)

00000000800006f4 <i_393>:
    800006f4:	01438663          	beq	t2,s4,80000700 <i_396>

00000000800006f8 <i_394>:
    800006f8:	06215303          	lhu	t1,98(sp)

00000000800006fc <i_395>:
    800006fc:	03ca9463          	bne	s5,t3,80000724 <i_405>

0000000080000700 <i_396>:
    80000700:	01aa1663          	bne	s4,s10,8000070c <i_399>

0000000080000704 <i_397>:
    80000704:	0e112a23          	sw	ra,244(sp)

0000000080000708 <i_398>:
    80000708:	01500593          	li	a1,21

000000008000070c <i_399>:
    8000070c:	00badab3          	srl	s5,s5,a1

0000000080000710 <i_400>:
    80000710:	10611623          	sh	t1,268(sp)

0000000080000714 <i_401>:
    80000714:	03600a93          	li	s5,54

0000000080000718 <i_402>:
    80000718:	415ad9b3          	sra	s3,s5,s5

000000008000071c <i_403>:
    8000071c:	16615803          	lhu	a6,358(sp)

0000000080000720 <i_404>:
    80000720:	01c34663          	blt	t1,t3,8000072c <i_407>

0000000080000724 <i_405>:
    80000724:	011e9863          	bne	t4,a7,80000734 <i_409>

0000000080000728 <i_406>:
    80000728:	07b13423          	sd	s11,104(sp)

000000008000072c <i_407>:
    8000072c:	f5810d83          	lb	s11,-168(sp)

0000000080000730 <i_408>:
    80000730:	0c810783          	lb	a5,200(sp)

0000000080000734 <i_409>:
    80000734:	6d987d93          	andi	s11,a6,1753

0000000080000738 <i_410>:
    80000738:	03c5fcbb          	remuw	s9,a1,t3

000000008000073c <i_411>:
    8000073c:	03bcc463          	blt	s9,s11,80000764 <i_421>

0000000080000740 <i_412>:
    80000740:	e2113023          	sd	ra,-480(sp)

0000000080000744 <i_413>:
    80000744:	19013d83          	ld	s11,400(sp)

0000000080000748 <i_414>:
    80000748:	401ad99b          	sraiw	s3,s5,0x1

000000008000074c <i_415>:
    8000074c:	00195593          	srli	a1,s2,0x1

0000000080000750 <i_416>:
    80000750:	fb210a83          	lb	s5,-78(sp)

0000000080000754 <i_417>:
    80000754:	03d77abb          	remuw	s5,a4,t4

0000000080000758 <i_418>:
    80000758:	0b215983          	lhu	s3,178(sp)

000000008000075c <i_419>:
    8000075c:	00000013          	nop

0000000080000760 <i_420>:
    80000760:	ec713423          	sd	t2,-312(sp)

0000000080000764 <i_421>:
    80000764:	fa416e83          	lwu	t4,-92(sp)

0000000080000768 <i_422>:
    80000768:	00000013          	nop

000000008000076c <i_423>:
    8000076c:	77300c93          	li	s9,1907

0000000080000770 <i_424>:
    80000770:	78000b93          	li	s7,1920

0000000080000774 <i_425>:
    80000774:	00698e63          	beq	s3,t1,80000790 <i_431>

0000000080000778 <i_426>:
    80000778:	001c8c93          	addi	s9,s9,1
    8000077c:	ff7ccce3          	blt	s9,s7,80000774 <i_425>

0000000080000780 <i_427>:
    80000780:	14816783          	lwu	a5,328(sp)

0000000080000784 <i_428>:
    80000784:	ba548537          	lui	a0,0xba548

0000000080000788 <i_429>:
    80000788:	ed610403          	lb	s0,-298(sp)

000000008000078c <i_430>:
    8000078c:	00bd9663          	bne	s11,a1,80000798 <i_433>

0000000080000790 <i_431>:
    80000790:	49e9a213          	slti	tp,s3,1182

0000000080000794 <i_432>:
    80000794:	01811e03          	lh	t3,24(sp)

0000000080000798 <i_433>:
    80000798:	00bd9463          	bne	s11,a1,800007a0 <i_435>

000000008000079c <i_434>:
    8000079c:	00fb9c63          	bne	s7,a5,800007b4 <i_440>

00000000800007a0 <i_435>:
    800007a0:	ee812223          	sw	s0,-284(sp)

00000000800007a4 <i_436>:
    800007a4:	fd711f23          	sh	s7,-34(sp)

00000000800007a8 <i_437>:
    800007a8:	13811783          	lh	a5,312(sp)

00000000800007ac <i_438>:
    800007ac:	06314403          	lbu	s0,99(sp)

00000000800007b0 <i_439>:
    800007b0:	001bd61b          	srliw	a2,s7,0x1

00000000800007b4 <i_440>:
    800007b4:	02863bb3          	mulhu	s7,a2,s0

00000000800007b8 <i_441>:
    800007b8:	14411083          	lh	ra,324(sp)

00000000800007bc <i_442>:
    800007bc:	417b8bbb          	subw	s7,s7,s7

00000000800007c0 <i_443>:
    800007c0:	03900093          	li	ra,57

00000000800007c4 <i_444>:
    800007c4:	001412b3          	sll	t0,s0,ra

00000000800007c8 <i_445>:
    800007c8:	0095a7b3          	slt	a5,a1,s1

00000000800007cc <i_446>:
    800007cc:	322a6797          	auipc	a5,0x322a6

00000000800007d0 <i_447>:
    800007d0:	00f7dc63          	ble	a5,a5,800007e8 <i_453>

00000000800007d4 <i_448>:
    800007d4:	ecc11783          	lh	a5,-308(sp)

00000000800007d8 <i_449>:
    800007d8:	f9d11f23          	sh	t4,-98(sp)

00000000800007dc <i_450>:
    800007dc:	1dd14483          	lbu	s1,477(sp)

00000000800007e0 <i_451>:
    800007e0:	e6813503          	ld	a0,-408(sp)

00000000800007e4 <i_452>:
    800007e4:	00300e93          	li	t4,3

00000000800007e8 <i_453>:
    800007e8:	01d4d4bb          	srlw	s1,s1,t4

00000000800007ec <i_454>:
    800007ec:	0041d19b          	srliw	gp,gp,0x4

00000000800007f0 <i_455>:
    800007f0:	e7410e83          	lb	t4,-396(sp)

00000000800007f4 <i_456>:
    800007f4:	023a85b3          	mul	a1,s5,gp

00000000800007f8 <i_457>:
    800007f8:	13013503          	ld	a0,304(sp)

00000000800007fc <i_458>:
    800007fc:	06812b83          	lw	s7,104(sp)

0000000080000800 <i_459>:
    80000800:	3e053b93          	sltiu	s7,a0,992

0000000080000804 <i_460>:
    80000804:	f6d10b83          	lb	s7,-147(sp)

0000000080000808 <i_461>:
    80000808:	ee013583          	ld	a1,-288(sp)

000000008000080c <i_462>:
    8000080c:	00359593          	slli	a1,a1,0x3

0000000080000810 <i_463>:
    80000810:	74700093          	li	ra,1863

0000000080000814 <i_464>:
    80000814:	74c00e93          	li	t4,1868

0000000080000818 <i_465>:
    80000818:	00108093          	addi	ra,ra,1
    8000081c:	ffd0eee3          	bltu	ra,t4,80000818 <i_465>

0000000080000820 <i_466>:
    80000820:	fab12823          	sw	a1,-80(sp)

0000000080000824 <i_467>:
    80000824:	01300593          	li	a1,19

0000000080000828 <i_468>:
    80000828:	00b89ebb          	sllw	t4,a7,a1

000000008000082c <i_469>:
    8000082c:	01decc63          	blt	t4,t4,80000844 <i_475>

0000000080000830 <i_470>:
    80000830:	01dfdc63          	ble	t4,t6,80000848 <i_476>

0000000080000834 <i_471>:
    80000834:	01017e63          	bleu	a6,sp,80000850 <i_478>

0000000080000838 <i_472>:
    80000838:	f9013803          	ld	a6,-112(sp)

000000008000083c <i_473>:
    8000083c:	00182633          	slt	a2,a6,ra

0000000080000840 <i_474>:
    80000840:	0f910a23          	sb	s9,244(sp)

0000000080000844 <i_475>:
    80000844:	03087263          	bleu	a6,a6,80000868 <i_484>

0000000080000848 <i_476>:
    80000848:	00e7ce63          	blt	a5,a4,80000864 <i_483>

000000008000084c <i_477>:
    8000084c:	01086c63          	bltu	a6,a6,80000864 <i_483>

0000000080000850 <i_478>:
    80000850:	ee412503          	lw	a0,-284(sp)

0000000080000854 <i_479>:
    80000854:	ef016983          	lwu	s3,-272(sp)

0000000080000858 <i_480>:
    80000858:	10b13023          	sd	a1,256(sp)

000000008000085c <i_481>:
    8000085c:	002fde13          	srli	t3,t6,0x2

0000000080000860 <i_482>:
    80000860:	04512623          	sw	t0,76(sp)

0000000080000864 <i_483>:
    80000864:	19e14083          	lbu	ra,414(sp)

0000000080000868 <i_484>:
    80000868:	00600293          	li	t0,6

000000008000086c <i_485>:
    8000086c:	0052d2bb          	srlw	t0,t0,t0

0000000080000870 <i_486>:
    80000870:	e2013283          	ld	t0,-480(sp)

0000000080000874 <i_487>:
    80000874:	1a011983          	lh	s3,416(sp)

0000000080000878 <i_488>:
    80000878:	0052fe63          	bleu	t0,t0,80000894 <i_495>

000000008000087c <i_489>:
    8000087c:	eb114303          	lbu	t1,-335(sp)

0000000080000880 <i_490>:
    80000880:	01329a63          	bne	t0,s3,80000894 <i_495>

0000000080000884 <i_491>:
    80000884:	0263e463          	bltu	t2,t1,800008ac <i_501>

0000000080000888 <i_492>:
    80000888:	0282f7bb          	remuw	a5,t0,s0

000000008000088c <i_493>:
    8000088c:	00f30e33          	add	t3,t1,a5

0000000080000890 <i_494>:
    80000890:	00fe9c63          	bne	t4,a5,800008a8 <i_500>

0000000080000894 <i_495>:
    80000894:	e6c16783          	lwu	a5,-404(sp)

0000000080000898 <i_496>:
    80000898:	02f78463          	beq	a5,a5,800008c0 <i_506>

000000008000089c <i_497>:
    8000089c:	02f35063          	ble	a5,t1,800008bc <i_505>

00000000800008a0 <i_498>:
    800008a0:	01e11303          	lh	t1,30(sp)

00000000800008a4 <i_499>:
    800008a4:	03c10c23          	sb	t3,56(sp)

00000000800008a8 <i_500>:
    800008a8:	11510423          	sb	s5,264(sp)

00000000800008ac <i_501>:
    800008ac:	01600293          	li	t0,22

00000000800008b0 <i_502>:
    800008b0:	4052d7b3          	sra	a5,t0,t0

00000000800008b4 <i_503>:
    800008b4:	025887bb          	mulw	a5,a7,t0

00000000800008b8 <i_504>:
    800008b8:	00000013          	nop

00000000800008bc <i_505>:
    800008bc:	e8513023          	sd	t0,-384(sp)

00000000800008c0 <i_506>:
    800008c0:	13614803          	lbu	a6,310(sp)

00000000800008c4 <i_507>:
    800008c4:	e6d03217          	auipc	tp,0xe6d03

00000000800008c8 <i_508>:
    800008c8:	8a000293          	li	t0,-1888

00000000800008cc <i_509>:
    800008cc:	8ab00513          	li	a0,-1877

00000000800008d0 <i_510>:
    800008d0:	fa816483          	lwu	s1,-88(sp)

00000000800008d4 <i_511>:
    800008d4:	0387d4bb          	divuw	s1,a5,s8

00000000800008d8 <i_512>:
    800008d8:	82300793          	li	a5,-2013

00000000800008dc <i_513>:
    800008dc:	83200d93          	li	s11,-1998

00000000800008e0 <i_514>:
    800008e0:	00178793          	addi	a5,a5,1 # b22a67cd <_end+0x322963b9>
    800008e4:	fefdfee3          	bleu	a5,s11,800008e0 <i_514>

00000000800008e8 <i_515>:
    800008e8:	09a2081b          	addiw	a6,tp,154

00000000800008ec <i_516>:
    800008ec:	fa013783          	ld	a5,-96(sp)

00000000800008f0 <i_517>:
    800008f0:	01048e63          	beq	s1,a6,8000090c <i_523>

00000000800008f4 <i_518>:
    800008f4:	00128293          	addi	t0,t0,1 # 3001 <main-0x7fffcfff>
    800008f8:	fca2cce3          	blt	t0,a0,800008d0 <i_510>

00000000800008fc <i_519>:
    800008fc:	00c00493          	li	s1,12

0000000080000900 <i_520>:
    80000900:	4094d7bb          	sraw	a5,s1,s1

0000000080000904 <i_521>:
    80000904:	4024d49b          	sraiw	s1,s1,0x2

0000000080000908 <i_522>:
    80000908:	01d00c93          	li	s9,29

000000008000090c <i_523>:
    8000090c:	019494bb          	sllw	s1,s1,s9

0000000080000910 <i_524>:
    80000910:	2ec38813          	addi	a6,t2,748

0000000080000914 <i_525>:
    80000914:	ff912823          	sw	s9,-16(sp)

0000000080000918 <i_526>:
    80000918:	8c200c93          	li	s9,-1854

000000008000091c <i_527>:
    8000091c:	8d600493          	li	s1,-1834

0000000080000920 <i_528>:
    80000920:	010cfa63          	bleu	a6,s9,80000934 <i_533>

0000000080000924 <i_529>:
    80000924:	e7e15b83          	lhu	s7,-386(sp)

0000000080000928 <i_530>:
    80000928:	08d14b83          	lbu	s7,141(sp)

000000008000092c <i_531>:
    8000092c:	00400193          	li	gp,4

0000000080000930 <i_532>:
    80000930:	003651bb          	srlw	gp,a2,gp

0000000080000934 <i_533>:
    80000934:	02700293          	li	t0,39

0000000080000938 <i_534>:
    80000938:	405c51b3          	sra	gp,s8,t0

000000008000093c <i_535>:
    8000093c:	0c311923          	sh	gp,210(sp)

0000000080000940 <i_536>:
    80000940:	0030d09b          	srliw	ra,ra,0x3

0000000080000944 <i_537>:
    80000944:	00000013          	nop

0000000080000948 <i_538>:
    80000948:	19611183          	lh	gp,406(sp)

000000008000094c <i_539>:
    8000094c:	16310f23          	sb	gp,382(sp)

0000000080000950 <i_540>:
    80000950:	03d082b3          	mul	t0,ra,t4

0000000080000954 <i_541>:
    80000954:	13e15083          	lhu	ra,318(sp)

0000000080000958 <i_542>:
    80000958:	0f769097          	auipc	ra,0xf769

000000008000095c <i_543>:
    8000095c:	001c8c93          	addi	s9,s9,1
    80000960:	fc9ce0e3          	bltu	s9,s1,80000920 <i_528>

0000000080000964 <i_544>:
    80000964:	025091b3          	mulh	gp,ra,t0

0000000080000968 <i_545>:
    80000968:	0bb10a83          	lb	s5,187(sp)

000000008000096c <i_546>:
    8000096c:	e9611a83          	lh	s5,-362(sp)

0000000080000970 <i_547>:
    80000970:	f4310c23          	sb	gp,-168(sp)

0000000080000974 <i_548>:
    80000974:	7eb00193          	li	gp,2027

0000000080000978 <i_549>:
    80000978:	7f400593          	li	a1,2036

000000008000097c <i_550>:
    8000097c:	02b2a2b3          	mulhsu	t0,t0,a1

0000000080000980 <i_551>:
    80000980:	0032521b          	srliw	tp,tp,0x3

0000000080000984 <i_552>:
    80000984:	0b813283          	ld	t0,184(sp)

0000000080000988 <i_553>:
    80000988:	1ca20293          	addi	t0,tp,458 # 66d03a8e <main-0x192fc572>

000000008000098c <i_554>:
    8000098c:	00b58233          	add	tp,a1,a1

0000000080000990 <i_555>:
    80000990:	0025dc9b          	srliw	s9,a1,0x2

0000000080000994 <i_556>:
    80000994:	0192fa63          	bleu	s9,t0,800009a8 <i_561>

0000000080000998 <i_557>:
    80000998:	eef10e23          	sb	a5,-260(sp)

000000008000099c <i_558>:
    8000099c:	1d6cb213          	sltiu	tp,s9,470

00000000800009a0 <i_559>:
    800009a0:	e2812e83          	lw	t4,-472(sp)

00000000800009a4 <i_560>:
    800009a4:	9bd22213          	slti	tp,tp,-1603

00000000800009a8 <i_561>:
    800009a8:	00100213          	li	tp,1

00000000800009ac <i_562>:
    800009ac:	00459cb3          	sll	s9,a1,tp

00000000800009b0 <i_563>:
    800009b0:	0035fe63          	bleu	gp,a1,800009cc <i_569>

00000000800009b4 <i_564>:
    800009b4:	00118193          	addi	gp,gp,1 # 10001 <main-0x7ffeffff>
    800009b8:	fc35f2e3          	bleu	gp,a1,8000097c <i_550>

00000000800009bc <i_565>:
    800009bc:	3011b613          	sltiu	a2,gp,769

00000000800009c0 <i_566>:
    800009c0:	e3a11b83          	lh	s7,-454(sp)

00000000800009c4 <i_567>:
    800009c4:	17c16783          	lwu	a5,380(sp)

00000000800009c8 <i_568>:
    800009c8:	40f781b3          	sub	gp,a5,a5

00000000800009cc <i_569>:
    800009cc:	f1a15483          	lhu	s1,-230(sp)

00000000800009d0 <i_570>:
    800009d0:	02379063          	bne	a5,gp,800009f0 <i_578>

00000000800009d4 <i_571>:
    800009d4:	037801bb          	mulw	gp,a6,s7

00000000800009d8 <i_572>:
    800009d8:	e2014183          	lbu	gp,-480(sp)

00000000800009dc <i_573>:
    800009dc:	1a912c23          	sw	s1,440(sp)

00000000800009e0 <i_574>:
    800009e0:	e9910b83          	lb	s7,-359(sp)

00000000800009e4 <i_575>:
    800009e4:	00000013          	nop

00000000800009e8 <i_576>:
    800009e8:	00000013          	nop

00000000800009ec <i_577>:
    800009ec:	039aca33          	div	s4,s5,s9

00000000800009f0 <i_578>:
    800009f0:	00000013          	nop

00000000800009f4 <i_579>:
    800009f4:	00000013          	nop

00000000800009f8 <i_580>:
    800009f8:	88d00993          	li	s3,-1907

00000000800009fc <i_581>:
    800009fc:	89e00c93          	li	s9,-1890

0000000080000a00 <i_582>:
    80000a00:	00611a03          	lh	s4,6(sp)

0000000080000a04 <i_583>:
    80000a04:	09910723          	sb	s9,142(sp)

0000000080000a08 <i_584>:
    80000a08:	83700a93          	li	s5,-1993

0000000080000a0c <i_585>:
    80000a0c:	83d00493          	li	s1,-1987

0000000080000a10 <i_586>:
    80000a10:	f6913423          	sd	s1,-152(sp)

0000000080000a14 <i_587>:
    80000a14:	001a8a93          	addi	s5,s5,1
    80000a18:	fe9aece3          	bltu	s5,s1,80000a10 <i_586>

0000000080000a1c <i_588>:
    80000a1c:	ef816303          	lwu	t1,-264(sp)

0000000080000a20 <i_589>:
    80000a20:	00198993          	addi	s3,s3,1
    80000a24:	fd999ee3          	bne	s3,s9,80000a00 <i_582>

0000000080000a28 <i_590>:
    80000a28:	fa014a83          	lbu	s5,-96(sp)

0000000080000a2c <i_591>:
    80000a2c:	fb416a03          	lwu	s4,-76(sp)

0000000080000a30 <i_592>:
    80000a30:	015af263          	bleu	s5,s5,80000a34 <i_593>

0000000080000a34 <i_593>:
    80000a34:	ee613c23          	sd	t1,-264(sp)

0000000080000a38 <i_594>:
    80000a38:	40335313          	srai	t1,t1,0x3

0000000080000a3c <i_595>:
    80000a3c:	14f14283          	lbu	t0,335(sp)

0000000080000a40 <i_596>:
    80000a40:	02510aa3          	sb	t0,53(sp)

0000000080000a44 <i_597>:
    80000a44:	025a5633          	divu	a2,s4,t0

0000000080000a48 <i_598>:
    80000a48:	12511d23          	sh	t0,314(sp)

0000000080000a4c <i_599>:
    80000a4c:	01464463          	blt	a2,s4,80000a54 <i_601>

0000000080000a50 <i_600>:
    80000a50:	f0211d83          	lh	s11,-254(sp)

0000000080000a54 <i_601>:
    80000a54:	fac11123          	sh	a2,-94(sp)

0000000080000a58 <i_602>:
    80000a58:	ec611503          	lh	a0,-314(sp)

0000000080000a5c <i_603>:
    80000a5c:	0a414303          	lbu	t1,164(sp)

0000000080000a60 <i_604>:
    80000a60:	0a813203          	ld	tp,168(sp)

0000000080000a64 <i_605>:
    80000a64:	005262b3          	or	t0,tp,t0

0000000080000a68 <i_606>:
    80000a68:	e4a11023          	sh	a0,-448(sp)

0000000080000a6c <i_607>:
    80000a6c:	004262b3          	or	t0,tp,tp

0000000080000a70 <i_608>:
    80000a70:	57c03d97          	auipc	s11,0x57c03

0000000080000a74 <i_609>:
    80000a74:	02615983          	lhu	s3,38(sp)

0000000080000a78 <i_610>:
    80000a78:	02f00293          	li	t0,47

0000000080000a7c <i_611>:
    80000a7c:	405252b3          	sra	t0,tp,t0

0000000080000a80 <i_612>:
    80000a80:	11620213          	addi	tp,tp,278 # 116 <main-0x7ffffeea>

0000000080000a84 <i_613>:
    80000a84:	0252a233          	mulhsu	tp,t0,t0

0000000080000a88 <i_614>:
    80000a88:	f5e10203          	lb	tp,-162(sp)

0000000080000a8c <i_615>:
    80000a8c:	02900e13          	li	t3,41

0000000080000a90 <i_616>:
    80000a90:	41c25233          	sra	tp,tp,t3

0000000080000a94 <i_617>:
    80000a94:	fa413823          	sd	tp,-80(sp)

0000000080000a98 <i_618>:
    80000a98:	00b00313          	li	t1,11

0000000080000a9c <i_619>:
    80000a9c:	40625c3b          	sraw	s8,tp,t1

0000000080000aa0 <i_620>:
    80000aa0:	04013203          	ld	tp,64(sp)

0000000080000aa4 <i_621>:
    80000aa4:	fe012503          	lw	a0,-32(sp)

0000000080000aa8 <i_622>:
    80000aa8:	16012203          	lw	tp,352(sp)

0000000080000aac <i_623>:
    80000aac:	ee411d23          	sh	tp,-262(sp)

0000000080000ab0 <i_624>:
    80000ab0:	e7412503          	lw	a0,-396(sp)

0000000080000ab4 <i_625>:
    80000ab4:	74200213          	li	tp,1858

0000000080000ab8 <i_626>:
    80000ab8:	74f00b93          	li	s7,1871

0000000080000abc <i_627>:
    80000abc:	024541bb          	divw	gp,a0,tp

0000000080000ac0 <i_628>:
    80000ac0:	0e012803          	lw	a6,224(sp)

0000000080000ac4 <i_629>:
    80000ac4:	01b00193          	li	gp,27

0000000080000ac8 <i_630>:
    80000ac8:	0031953b          	sllw	a0,gp,gp

0000000080000acc <i_631>:
    80000acc:	0ce15383          	lhu	t2,206(sp)

0000000080000ad0 <i_632>:
    80000ad0:	e6d1a393          	slti	t2,gp,-403

0000000080000ad4 <i_633>:
    80000ad4:	e4a15983          	lhu	s3,-438(sp)

0000000080000ad8 <i_634>:
    80000ad8:	03b00a93          	li	s5,59

0000000080000adc <i_635>:
    80000adc:	015651b3          	srl	gp,a2,s5

0000000080000ae0 <i_636>:
    80000ae0:	0279e9bb          	remw	s3,s3,t2

0000000080000ae4 <i_637>:
    80000ae4:	f9815603          	lhu	a2,-104(sp)

0000000080000ae8 <i_638>:
    80000ae8:	e5c12603          	lw	a2,-420(sp)

0000000080000aec <i_639>:
    80000aec:	00360463          	beq	a2,gp,80000af4 <i_641>

0000000080000af0 <i_640>:
    80000af0:	00c671b3          	and	gp,a2,a2

0000000080000af4 <i_641>:
    80000af4:	f3714603          	lbu	a2,-201(sp)

0000000080000af8 <i_642>:
    80000af8:	1c610923          	sb	t1,466(sp)

0000000080000afc <i_643>:
    80000afc:	00120213          	addi	tp,tp,1 # 1 <main-0x7fffffff>
    80000b00:	fb726ee3          	bltu	tp,s7,80000abc <i_627>

0000000080000b04 <i_644>:
    80000b04:	00f00a93          	li	s5,15

0000000080000b08 <i_645>:
    80000b08:	01565abb          	srlw	s5,a2,s5

0000000080000b0c <i_646>:
    80000b0c:	1b114803          	lbu	a6,433(sp)

0000000080000b10 <i_647>:
    80000b10:	015aee63          	bltu	s5,s5,80000b2c <i_654>

0000000080000b14 <i_648>:
    80000b14:	015abab3          	sltu	s5,s5,s5

0000000080000b18 <i_649>:
    80000b18:	03d00e93          	li	t4,61

0000000080000b1c <i_650>:
    80000b1c:	41da5433          	sra	s0,s4,t4

0000000080000b20 <i_651>:
    80000b20:	13013823          	sd	a6,304(sp)

0000000080000b24 <i_652>:
    80000b24:	ff412083          	lw	ra,-12(sp)

0000000080000b28 <i_653>:
    80000b28:	015e8e63          	beq	t4,s5,80000b44 <i_660>

0000000080000b2c <i_654>:
    80000b2c:	01b84a63          	blt	a6,s11,80000b40 <i_659>

0000000080000b30 <i_655>:
    80000b30:	e3a10803          	lb	a6,-454(sp)

0000000080000b34 <i_656>:
    80000b34:	00108263          	beq	ra,ra,80000b38 <i_657>

0000000080000b38 <i_657>:
    80000b38:	0cbd881b          	addiw	a6,s11,203

0000000080000b3c <i_658>:
    80000b3c:	ed013803          	ld	a6,-304(sp)

0000000080000b40 <i_659>:
    80000b40:	02187463          	bleu	ra,a6,80000b68 <i_669>

0000000080000b44 <i_660>:
    80000b44:	fad14803          	lbu	a6,-83(sp)

0000000080000b48 <i_661>:
    80000b48:	1be106a3          	sb	t5,429(sp)

0000000080000b4c <i_662>:
    80000b4c:	035a9c33          	mulh	s8,s5,s5

0000000080000b50 <i_663>:
    80000b50:	ffc15183          	lhu	gp,-4(sp)

0000000080000b54 <i_664>:
    80000b54:	035acabb          	divw	s5,s5,s5

0000000080000b58 <i_665>:
    80000b58:	015c4233          	xor	tp,s8,s5

0000000080000b5c <i_666>:
    80000b5c:	01c1c1b3          	xor	gp,gp,t3

0000000080000b60 <i_667>:
    80000b60:	00000013          	nop

0000000080000b64 <i_668>:
    80000b64:	00400793          	li	a5,4

0000000080000b68 <i_669>:
    80000b68:	00f2d5bb          	srlw	a1,t0,a5

0000000080000b6c <i_670>:
    80000b6c:	003c7a33          	and	s4,s8,gp

0000000080000b70 <i_671>:
    80000b70:	8b300293          	li	t0,-1869

0000000080000b74 <i_672>:
    80000b74:	8b900a93          	li	s5,-1863

0000000080000b78 <i_673>:
    80000b78:	404a519b          	sraiw	gp,s4,0x4

0000000080000b7c <i_674>:
    80000b7c:	7e158797          	auipc	a5,0x7e158

0000000080000b80 <i_675>:
    80000b80:	41fa0cbb          	subw	s9,s4,t6

0000000080000b84 <i_676>:
    80000b84:	16f14603          	lbu	a2,367(sp)

0000000080000b88 <i_677>:
    80000b88:	0016d093          	srli	ra,a3,0x1

0000000080000b8c <i_678>:
    80000b8c:	a060fa13          	andi	s4,ra,-1530

0000000080000b90 <i_679>:
    80000b90:	ea110ea3          	sb	ra,-323(sp)

0000000080000b94 <i_680>:
    80000b94:	13412423          	sw	s4,296(sp)

0000000080000b98 <i_681>:
    80000b98:	fb410ca3          	sb	s4,-71(sp)

0000000080000b9c <i_682>:
    80000b9c:	40930333          	sub	t1,t1,s1

0000000080000ba0 <i_683>:
    80000ba0:	02ca5663          	ble	a2,s4,80000bcc <i_693>

0000000080000ba4 <i_684>:
    80000ba4:	00128293          	addi	t0,t0,1
    80000ba8:	fd5298e3          	bne	t0,s5,80000b78 <i_673>

0000000080000bac <i_685>:
    80000bac:	12611123          	sh	t1,290(sp)

0000000080000bb0 <i_686>:
    80000bb0:	1f412223          	sw	s4,484(sp)

0000000080000bb4 <i_687>:
    80000bb4:	01866263          	bltu	a2,s8,80000bb8 <i_688>

0000000080000bb8 <i_688>:
    80000bb8:	3ec34c93          	xori	s9,t1,1004

0000000080000bbc <i_689>:
    80000bbc:	1c110f23          	sb	ra,478(sp)

0000000080000bc0 <i_690>:
    80000bc0:	00ca8a63          	beq	s5,a2,80000bd4 <i_695>

0000000080000bc4 <i_691>:
    80000bc4:	03460cbb          	mulw	s9,a2,s4

0000000080000bc8 <i_692>:
    80000bc8:	09411e23          	sh	s4,156(sp)

0000000080000bcc <i_693>:
    80000bcc:	0260fcbb          	remuw	s9,ra,t1

0000000080000bd0 <i_694>:
    80000bd0:	03536263          	bltu	t1,s5,80000bf4 <i_703>

0000000080000bd4 <i_695>:
    80000bd4:	014cfeb3          	and	t4,s9,s4

0000000080000bd8 <i_696>:
    80000bd8:	1675831b          	addiw	t1,a1,359

0000000080000bdc <i_697>:
    80000bdc:	01958ab3          	add	s5,a1,s9

0000000080000be0 <i_698>:
    80000be0:	02c14583          	lbu	a1,44(sp)

0000000080000be4 <i_699>:
    80000be4:	01dc9263          	bne	s9,t4,80000be8 <i_700>

0000000080000be8 <i_700>:
    80000be8:	00bef463          	bleu	a1,t4,80000bf0 <i_702>

0000000080000bec <i_701>:
    80000bec:	03400613          	li	a2,52

0000000080000bf0 <i_702>:
    80000bf0:	40ced633          	sra	a2,t4,a2

0000000080000bf4 <i_703>:
    80000bf4:	03dee463          	bltu	t4,t4,80000c1c <i_713>

0000000080000bf8 <i_704>:
    80000bf8:	08e15603          	lhu	a2,142(sp)

0000000080000bfc <i_705>:
    80000bfc:	1e160593          	addi	a1,a2,481

0000000080000c00 <i_706>:
    80000c00:	00f66e63          	bltu	a2,a5,80000c1c <i_713>

0000000080000c04 <i_707>:
    80000c04:	00c64663          	blt	a2,a2,80000c10 <i_710>

0000000080000c08 <i_708>:
    80000c08:	02c12583          	lw	a1,44(sp)

0000000080000c0c <i_709>:
    80000c0c:	00c60e63          	beq	a2,a2,80000c28 <i_716>

0000000080000c10 <i_710>:
    80000c10:	0fd10603          	lb	a2,253(sp)

0000000080000c14 <i_711>:
    80000c14:	00c59a63          	bne	a1,a2,80000c28 <i_716>

0000000080000c18 <i_712>:
    80000c18:	00c35263          	ble	a2,t1,80000c1c <i_713>

0000000080000c1c <i_713>:
    80000c1c:	f6c12e23          	sw	a2,-132(sp)

0000000080000c20 <i_714>:
    80000c20:	00c61a63          	bne	a2,a2,80000c34 <i_719>

0000000080000c24 <i_715>:
    80000c24:	04c11823          	sh	a2,80(sp)

0000000080000c28 <i_716>:
    80000c28:	e3416a03          	lwu	s4,-460(sp)

0000000080000c2c <i_717>:
    80000c2c:	00ca1263          	bne	s4,a2,80000c30 <i_718>

0000000080000c30 <i_718>:
    80000c30:	17013603          	ld	a2,368(sp)

0000000080000c34 <i_719>:
    80000c34:	01d58333          	add	t1,a1,t4

0000000080000c38 <i_720>:
    80000c38:	026c7c33          	remu	s8,s8,t1

0000000080000c3c <i_721>:
    80000c3c:	1cc10c23          	sb	a2,472(sp)

0000000080000c40 <i_722>:
    80000c40:	03361463          	bne	a2,s3,80000c68 <i_732>

0000000080000c44 <i_723>:
    80000c44:	00ba4463          	blt	s4,a1,80000c4c <i_725>

0000000080000c48 <i_724>:
    80000c48:	00510803          	lb	a6,5(sp)

0000000080000c4c <i_725>:
    80000c4c:	030d8c3b          	mulw	s8,s11,a6

0000000080000c50 <i_726>:
    80000c50:	00b2f263          	bleu	a1,t0,80000c54 <i_727>

0000000080000c54 <i_727>:
    80000c54:	09813023          	sd	s8,128(sp)

0000000080000c58 <i_728>:
    80000c58:	03820c33          	mul	s8,tp,s8

0000000080000c5c <i_729>:
    80000c5c:	f7812023          	sw	s8,-160(sp)

0000000080000c60 <i_730>:
    80000c60:	00000013          	nop

0000000080000c64 <i_731>:
    80000c64:	0b810aa3          	sb	s8,181(sp)

0000000080000c68 <i_732>:
    80000c68:	19413423          	sd	s4,392(sp)

0000000080000c6c <i_733>:
    80000c6c:	fb013303          	ld	t1,-80(sp)

0000000080000c70 <i_734>:
    80000c70:	85d00a13          	li	s4,-1955

0000000080000c74 <i_735>:
    80000c74:	86300213          	li	tp,-1949

0000000080000c78 <i_736>:
    80000c78:	e4d14c03          	lbu	s8,-435(sp)

0000000080000c7c <i_737>:
    80000c7c:	00da4263          	blt	s4,a3,80000c80 <i_738>

0000000080000c80 <i_738>:
    80000c80:	ec411323          	sh	tp,-314(sp)

0000000080000c84 <i_739>:
    80000c84:	034a5663          	ble	s4,s4,80000cb0 <i_749>

0000000080000c88 <i_740>:
    80000c88:	e9411c23          	sh	s4,-360(sp)

0000000080000c8c <i_741>:
    80000c8c:	001a0a13          	addi	s4,s4,1
    80000c90:	fe4a14e3          	bne	s4,tp,80000c78 <i_736>

0000000080000c94 <i_742>:
    80000c94:	00800c13          	li	s8,8

0000000080000c98 <i_743>:
    80000c98:	01821e3b          	sllw	t3,tp,s8

0000000080000c9c <i_744>:
    80000c9c:	40235313          	srai	t1,t1,0x2

0000000080000ca0 <i_745>:
    80000ca0:	4f15c637          	lui	a2,0x4f15c

0000000080000ca4 <i_746>:
    80000ca4:	014c4263          	blt	s8,s4,80000ca8 <i_747>

0000000080000ca8 <i_747>:
    80000ca8:	10c11623          	sh	a2,268(sp)

0000000080000cac <i_748>:
    80000cac:	10d14383          	lbu	t2,269(sp)

0000000080000cb0 <i_749>:
    80000cb0:	402e5c1b          	sraiw	s8,t3,0x2

0000000080000cb4 <i_750>:
    80000cb4:	fb813423          	sd	s8,-88(sp)

0000000080000cb8 <i_751>:
    80000cb8:	f0613023          	sd	t1,-256(sp)

0000000080000cbc <i_752>:
    80000cbc:	00c20663          	beq	tp,a2,80000cc8 <i_755>

0000000080000cc0 <i_753>:
    80000cc0:	10810a03          	lb	s4,264(sp)

0000000080000cc4 <i_754>:
    80000cc4:	17c10323          	sb	t3,358(sp)

0000000080000cc8 <i_755>:
    80000cc8:	0273d063          	ble	t2,t2,80000ce8 <i_763>

0000000080000ccc <i_756>:
    80000ccc:	10712423          	sw	t2,264(sp)

0000000080000cd0 <i_757>:
    80000cd0:	00a64a63          	blt	a2,a0,80000ce4 <i_762>

0000000080000cd4 <i_758>:
    80000cd4:	0073bc33          	sltu	s8,t2,t2

0000000080000cd8 <i_759>:
    80000cd8:	01d00c93          	li	s9,29

0000000080000cdc <i_760>:
    80000cdc:	4196563b          	sraw	a2,a2,s9

0000000080000ce0 <i_761>:
    80000ce0:	f3514303          	lbu	t1,-203(sp)

0000000080000ce4 <i_762>:
    80000ce4:	00000013          	nop

0000000080000ce8 <i_763>:
    80000ce8:	03a33cb3          	mulhu	s9,t1,s10

0000000080000cec <i_764>:
    80000cec:	038cec33          	rem	s8,s9,s8

0000000080000cf0 <i_765>:
    80000cf0:	8a600d93          	li	s11,-1882

0000000080000cf4 <i_766>:
    80000cf4:	8b200393          	li	t2,-1870

0000000080000cf8 <i_767>:
    80000cf8:	f5a12223          	sw	s10,-188(sp)

0000000080000cfc <i_768>:
    80000cfc:	0139fa63          	bleu	s3,s3,80000d10 <i_773>

0000000080000d00 <i_769>:
    80000d00:	0079fa63          	bleu	t2,s3,80000d14 <i_774>

0000000080000d04 <i_770>:
    80000d04:	ec810983          	lb	s3,-312(sp)

0000000080000d08 <i_771>:
    80000d08:	03998263          	beq	s3,s9,80000d2c <i_779>

0000000080000d0c <i_772>:
    80000d0c:	0189a9b3          	slt	s3,s3,s8

0000000080000d10 <i_773>:
    80000d10:	0339f9bb          	remuw	s3,s3,s3

0000000080000d14 <i_774>:
    80000d14:	01d9cc63          	blt	s3,t4,80000d2c <i_779>

0000000080000d18 <i_775>:
    80000d18:	0f813983          	ld	s3,248(sp)

0000000080000d1c <i_776>:
    80000d1c:	001d8d93          	addi	s11,s11,1 # d7c03a71 <_end+0x57bf365d>
    80000d20:	fdb3dce3          	ble	s11,t2,80000cf8 <i_767>

0000000080000d24 <i_777>:
    80000d24:	f2414083          	lbu	ra,-220(sp)

0000000080000d28 <i_778>:
    80000d28:	413c043b          	subw	s0,s8,s3

0000000080000d2c <i_779>:
    80000d2c:	fc1109a3          	sb	ra,-45(sp)

0000000080000d30 <i_780>:
    80000d30:	408980b3          	sub	ra,s3,s0

0000000080000d34 <i_781>:
    80000d34:	a809ec13          	ori	s8,s3,-1408

0000000080000d38 <i_782>:
    80000d38:	00000013          	nop

0000000080000d3c <i_783>:
    80000d3c:	0c211b83          	lh	s7,194(sp)

0000000080000d40 <i_784>:
    80000d40:	84e00993          	li	s3,-1970

0000000080000d44 <i_785>:
    80000d44:	86100593          	li	a1,-1951

0000000080000d48 <i_786>:
    80000d48:	03710523          	sb	s7,42(sp)

0000000080000d4c <i_787>:
    80000d4c:	02a5ebb3          	rem	s7,a1,a0

0000000080000d50 <i_788>:
    80000d50:	1fb28b93          	addi	s7,t0,507

0000000080000d54 <i_789>:
    80000d54:	00000013          	nop

0000000080000d58 <i_790>:
    80000d58:	00000013          	nop

0000000080000d5c <i_791>:
    80000d5c:	02c383bb          	mulw	t2,t2,a2

0000000080000d60 <i_792>:
    80000d60:	00198993          	addi	s3,s3,1
    80000d64:	feb9e2e3          	bltu	s3,a1,80000d48 <i_786>

0000000080000d68 <i_793>:
    80000d68:	f1712a23          	sw	s7,-236(sp)

0000000080000d6c <i_794>:
    80000d6c:	00600293          	li	t0,6

0000000080000d70 <i_795>:
    80000d70:	4054d633          	sra	a2,s1,t0

0000000080000d74 <i_796>:
    80000d74:	73400393          	li	t2,1844

0000000080000d78 <i_797>:
    80000d78:	74500493          	li	s1,1861

0000000080000d7c <i_798>:
    80000d7c:	00138393          	addi	t2,t2,1
    80000d80:	fe93cee3          	blt	t2,s1,80000d7c <i_798>

0000000080000d84 <i_799>:
    80000d84:	0174f863          	bleu	s7,s1,80000d94 <i_803>

0000000080000d88 <i_800>:
    80000d88:	15016b83          	lwu	s7,336(sp)

0000000080000d8c <i_801>:
    80000d8c:	00578c63          	beq	a5,t0,80000da4 <i_807>

0000000080000d90 <i_802>:
    80000d90:	017d4433          	xor	s0,s10,s7

0000000080000d94 <i_803>:
    80000d94:	00d00393          	li	t2,13

0000000080000d98 <i_804>:
    80000d98:	4073d0bb          	sraw	ra,t2,t2

0000000080000d9c <i_805>:
    80000d9c:	01747a63          	bleu	s7,s0,80000db0 <i_810>

0000000080000da0 <i_806>:
    80000da0:	00209b93          	slli	s7,ra,0x2

0000000080000da4 <i_807>:
    80000da4:	e5816083          	lwu	ra,-424(sp)

0000000080000da8 <i_808>:
    80000da8:	fd710803          	lb	a6,-41(sp)

0000000080000dac <i_809>:
    80000dac:	01670463          	beq	a4,s6,80000db4 <i_811>

0000000080000db0 <i_810>:
    80000db0:	05210b83          	lb	s7,82(sp)

0000000080000db4 <i_811>:
    80000db4:	f8414503          	lbu	a0,-124(sp)

0000000080000db8 <i_812>:
    80000db8:	e8b101a3          	sb	a1,-381(sp)

0000000080000dbc <i_813>:
    80000dbc:	0b813a83          	ld	s5,184(sp)

0000000080000dc0 <i_814>:
    80000dc0:	ed414203          	lbu	tp,-300(sp)

0000000080000dc4 <i_815>:
    80000dc4:	035bc9bb          	divw	s3,s7,s5

0000000080000dc8 <i_816>:
    80000dc8:	00186663          	bltu	a6,ra,80000dd4 <i_819>

0000000080000dcc <i_817>:
    80000dcc:	f1016283          	lwu	t0,-240(sp)

0000000080000dd0 <i_818>:
    80000dd0:	01f10203          	lb	tp,31(sp)

0000000080000dd4 <i_819>:
    80000dd4:	0210a533          	mulhsu	a0,ra,ra

0000000080000dd8 <i_820>:
    80000dd8:	021be0b3          	rem	ra,s7,ra

0000000080000ddc <i_821>:
    80000ddc:	e8110ea3          	sb	ra,-355(sp)

0000000080000de0 <i_822>:
    80000de0:	0254c463          	blt	s1,t0,80000e08 <i_832>

0000000080000de4 <i_823>:
    80000de4:	005902b3          	add	t0,s2,t0

0000000080000de8 <i_824>:
    80000de8:	ecc16983          	lwu	s3,-308(sp)

0000000080000dec <i_825>:
    80000dec:	0052b2b3          	sltu	t0,t0,t0

0000000080000df0 <i_826>:
    80000df0:	fd415803          	lhu	a6,-44(sp)

0000000080000df4 <i_827>:
    80000df4:	ffb12e23          	sw	s11,-4(sp)

0000000080000df8 <i_828>:
    80000df8:	03085a33          	divu	s4,a6,a6

0000000080000dfc <i_829>:
    80000dfc:	11013803          	ld	a6,272(sp)

0000000080000e00 <i_830>:
    80000e00:	02a84833          	div	a6,a6,a0

0000000080000e04 <i_831>:
    80000e04:	010a2c33          	slt	s8,s4,a6

0000000080000e08 <i_832>:
    80000e08:	032de063          	bltu	s11,s2,80000e28 <i_840>

0000000080000e0c <i_833>:
    80000e0c:	07813283          	ld	t0,120(sp)

0000000080000e10 <i_834>:
    80000e10:	01884463          	blt	a6,s8,80000e18 <i_836>

0000000080000e14 <i_835>:
    80000e14:	01a00813          	li	a6,26

0000000080000e18 <i_836>:
    80000e18:	010a59b3          	srl	s3,s4,a6

0000000080000e1c <i_837>:
    80000e1c:	010a4c63          	blt	s4,a6,80000e34 <i_843>

0000000080000e20 <i_838>:
    80000e20:	01087663          	bleu	a6,a6,80000e2c <i_841>

0000000080000e24 <i_839>:
    80000e24:	01029863          	bne	t0,a6,80000e34 <i_843>

0000000080000e28 <i_840>:
    80000e28:	0f811b23          	sh	s8,246(sp)

0000000080000e2c <i_841>:
    80000e2c:	f3c12a03          	lw	s4,-196(sp)

0000000080000e30 <i_842>:
    80000e30:	025c42b3          	div	t0,s8,t0

0000000080000e34 <i_843>:
    80000e34:	e9513c23          	sd	s5,-360(sp)

0000000080000e38 <i_844>:
    80000e38:	013a4233          	xor	tp,s4,s3

0000000080000e3c <i_845>:
    80000e3c:	00d00a13          	li	s4,13

0000000080000e40 <i_846>:
    80000e40:	014c5e3b          	srlw	t3,s8,s4

0000000080000e44 <i_847>:
    80000e44:	401a579b          	sraiw	a5,s4,0x1

0000000080000e48 <i_848>:
    80000e48:	ffc5f997          	auipc	s3,0xffc5f

0000000080000e4c <i_849>:
    80000e4c:	00f7c463          	blt	a5,a5,80000e54 <i_851>

0000000080000e50 <i_850>:
    80000e50:	0379fbb3          	remu	s7,s3,s7

0000000080000e54 <i_851>:
    80000e54:	033a5463          	ble	s3,s4,80000e7c <i_861>

0000000080000e58 <i_852>:
    80000e58:	e8f14a03          	lbu	s4,-369(sp)

0000000080000e5c <i_853>:
    80000e5c:	f7314c83          	lbu	s9,-141(sp)

0000000080000e60 <i_854>:
    80000e60:	037f6263          	bltu	t5,s7,80000e84 <i_863>

0000000080000e64 <i_855>:
    80000e64:	fb412c83          	lw	s9,-76(sp)

0000000080000e68 <i_856>:
    80000e68:	01abf863          	bleu	s10,s7,80000e78 <i_860>

0000000080000e6c <i_857>:
    80000e6c:	ff713c23          	sd	s7,-8(sp)

0000000080000e70 <i_858>:
    80000e70:	014caa33          	slt	s4,s9,s4

0000000080000e74 <i_859>:
    80000e74:	003a7bb3          	and	s7,s4,gp

0000000080000e78 <i_860>:
    80000e78:	002a579b          	srliw	a5,s4,0x2

0000000080000e7c <i_861>:
    80000e7c:	1bb11c23          	sh	s11,440(sp)

0000000080000e80 <i_862>:
    80000e80:	019a6c63          	bltu	s4,s9,80000e98 <i_868>

0000000080000e84 <i_863>:
    80000e84:	00fbee63          	bltu	s7,a5,80000ea0 <i_870>

0000000080000e88 <i_864>:
    80000e88:	ff811183          	lh	gp,-8(sp)

0000000080000e8c <i_865>:
    80000e8c:	017a47b3          	xor	a5,s4,s7

0000000080000e90 <i_866>:
    80000e90:	039b8a33          	mul	s4,s7,s9

0000000080000e94 <i_867>:
    80000e94:	002a5a13          	srli	s4,s4,0x2

0000000080000e98 <i_868>:
    80000e98:	03499063          	bne	s3,s4,80000eb8 <i_876>

0000000080000e9c <i_869>:
    80000e9c:	114105a3          	sb	s4,267(sp)

0000000080000ea0 <i_870>:
    80000ea0:	0d614403          	lbu	s0,214(sp)

0000000080000ea4 <i_871>:
    80000ea4:	12412303          	lw	t1,292(sp)

0000000080000ea8 <i_872>:
    80000ea8:	ff7109a3          	sb	s7,-13(sp)

0000000080000eac <i_873>:
    80000eac:	02632bb3          	mulhsu	s7,t1,t1

0000000080000eb0 <i_874>:
    80000eb0:	05013383          	ld	t2,80(sp)

0000000080000eb4 <i_875>:
    80000eb4:	4033de9b          	sraiw	t4,t2,0x3

0000000080000eb8 <i_876>:
    80000eb8:	0073e3b3          	or	t2,t2,t2

0000000080000ebc <i_877>:
    80000ebc:	00800813          	li	a6,8

0000000080000ec0 <i_878>:
    80000ec0:	010c9abb          	sllw	s5,s9,a6

0000000080000ec4 <i_879>:
    80000ec4:	0073ea63          	bltu	t2,t2,80000ed8 <i_884>

0000000080000ec8 <i_880>:
    80000ec8:	05414303          	lbu	t1,84(sp)

0000000080000ecc <i_881>:
    80000ecc:	19015303          	lhu	t1,400(sp)

0000000080000ed0 <i_882>:
    80000ed0:	00485a93          	srli	s5,a6,0x4

0000000080000ed4 <i_883>:
    80000ed4:	05b14a83          	lbu	s5,91(sp)

0000000080000ed8 <i_884>:
    80000ed8:	e4613c23          	sd	t1,-424(sp)

0000000080000edc <i_885>:
    80000edc:	14611a23          	sh	t1,340(sp)

0000000080000ee0 <i_886>:
    80000ee0:	035ad063          	ble	s5,s5,80000f00 <i_894>

0000000080000ee4 <i_887>:
    80000ee4:	403ad41b          	sraiw	s0,s5,0x3

0000000080000ee8 <i_888>:
    80000ee8:	ff5102a3          	sb	s5,-27(sp)

0000000080000eec <i_889>:
    80000eec:	e2a12823          	sw	a0,-464(sp)

0000000080000ef0 <i_890>:
    80000ef0:	00000013          	nop

0000000080000ef4 <i_891>:
    80000ef4:	e9012803          	lw	a6,-368(sp)

0000000080000ef8 <i_892>:
    80000ef8:	00000013          	nop

0000000080000efc <i_893>:
    80000efc:	035cdcbb          	divuw	s9,s9,s5

0000000080000f00 <i_894>:
    80000f00:	00000013          	nop

0000000080000f04 <i_895>:
    80000f04:	0c510c23          	sb	t0,216(sp)

0000000080000f08 <i_896>:
    80000f08:	8c100a93          	li	s5,-1855

0000000080000f0c <i_897>:
    80000f0c:	8c300413          	li	s0,-1853

0000000080000f10 <i_898>:
    80000f10:	00300493          	li	s1,3

0000000080000f14 <i_899>:
    80000f14:	00981cbb          	sllw	s9,a6,s1

0000000080000f18 <i_900>:
    80000f18:	03524333          	div	t1,tp,s5

0000000080000f1c <i_901>:
    80000f1c:	f5513823          	sd	s5,-176(sp)

0000000080000f20 <i_902>:
    80000f20:	0de15503          	lhu	a0,222(sp)

0000000080000f24 <i_903>:
    80000f24:	001a8a93          	addi	s5,s5,1
    80000f28:	ff5474e3          	bleu	s5,s0,80000f10 <i_898>

0000000080000f2c <i_904>:
    80000f2c:	00800493          	li	s1,8

0000000080000f30 <i_905>:
    80000f30:	40955233          	sra	tp,a0,s1

0000000080000f34 <i_906>:
    80000f34:	99f5a4b7          	lui	s1,0x99f5a

0000000080000f38 <i_907>:
    80000f38:	409585b3          	sub	a1,a1,s1

0000000080000f3c <i_908>:
    80000f3c:	ee416603          	lwu	a2,-284(sp)

0000000080000f40 <i_909>:
    80000f40:	03700d93          	li	s11,55

0000000080000f44 <i_910>:
    80000f44:	01b495b3          	sll	a1,s1,s11

0000000080000f48 <i_911>:
    80000f48:	00b21e63          	bne	tp,a1,80000f64 <i_918>

0000000080000f4c <i_912>:
    80000f4c:	003f81b3          	add	gp,t6,gp

0000000080000f50 <i_913>:
    80000f50:	0031921b          	slliw	tp,gp,0x3

0000000080000f54 <i_914>:
    80000f54:	e8012d83          	lw	s11,-384(sp)

0000000080000f58 <i_915>:
    80000f58:	02b7a7b3          	mulhsu	a5,a5,a1

0000000080000f5c <i_916>:
    80000f5c:	04412023          	sw	tp,64(sp)

0000000080000f60 <i_917>:
    80000f60:	12a12823          	sw	a0,304(sp)

0000000080000f64 <i_918>:
    80000f64:	023fc1bb          	divw	gp,t6,gp

0000000080000f68 <i_919>:
    80000f68:	0ef10223          	sb	a5,228(sp)

0000000080000f6c <i_920>:
    80000f6c:	77900793          	li	a5,1913

0000000080000f70 <i_921>:
    80000f70:	78b00513          	li	a0,1931

0000000080000f74 <i_922>:
    80000f74:	05412c03          	lw	s8,84(sp)

0000000080000f78 <i_923>:
    80000f78:	1cc12183          	lw	gp,460(sp)

0000000080000f7c <i_924>:
    80000f7c:	07211083          	lh	ra,114(sp)

0000000080000f80 <i_925>:
    80000f80:	003181b3          	add	gp,gp,gp

0000000080000f84 <i_926>:
    80000f84:	16312c23          	sw	gp,376(sp)

0000000080000f88 <i_927>:
    80000f88:	e880deb7          	lui	t4,0xe880d

0000000080000f8c <i_928>:
    80000f8c:	01d1d863          	ble	t4,gp,80000f9c <i_932>

0000000080000f90 <i_929>:
    80000f90:	001ddd93          	srli	s11,s11,0x1

0000000080000f94 <i_930>:
    80000f94:	5720bc93          	sltiu	s9,ra,1394

0000000080000f98 <i_931>:
    80000f98:	f3d14c83          	lbu	s9,-195(sp)

0000000080000f9c <i_932>:
    80000f9c:	f5610083          	lb	ra,-170(sp)

0000000080000fa0 <i_933>:
    80000fa0:	003cda9b          	srliw	s5,s9,0x3

0000000080000fa4 <i_934>:
    80000fa4:	ea3109a3          	sb	gp,-333(sp)

0000000080000fa8 <i_935>:
    80000fa8:	00000013          	nop

0000000080000fac <i_936>:
    80000fac:	1c913c23          	sd	s1,472(sp)

0000000080000fb0 <i_937>:
    80000fb0:	00178793          	addi	a5,a5,1 # fe158b7d <_end+0x7e148769>
    80000fb4:	fcf550e3          	ble	a5,a0,80000f74 <i_922>

0000000080000fb8 <i_938>:
    80000fb8:	fe714a83          	lbu	s5,-25(sp)

0000000080000fbc <i_939>:
    80000fbc:	f9411183          	lh	gp,-108(sp)

0000000080000fc0 <i_940>:
    80000fc0:	01bf87b3          	add	a5,t6,s11

0000000080000fc4 <i_941>:
    80000fc4:	03b455b3          	divu	a1,s0,s11

0000000080000fc8 <i_942>:
    80000fc8:	0141ec63          	bltu	gp,s4,80000fe0 <i_948>

0000000080000fcc <i_943>:
    80000fcc:	01408cb3          	add	s9,ra,s4

0000000080000fd0 <i_944>:
    80000fd0:	05d10e83          	lb	t4,93(sp)

0000000080000fd4 <i_945>:
    80000fd4:	fd813e83          	ld	t4,-40(sp)

0000000080000fd8 <i_946>:
    80000fd8:	f7c10503          	lb	a0,-132(sp)

0000000080000fdc <i_947>:
    80000fdc:	003571b3          	and	gp,a0,gp

0000000080000fe0 <i_948>:
    80000fe0:	00ae7e33          	and	t3,t3,a0

0000000080000fe4 <i_949>:
    80000fe4:	e3815e03          	lhu	t3,-456(sp)

0000000080000fe8 <i_950>:
    80000fe8:	00f00513          	li	a0,15

0000000080000fec <i_951>:
    80000fec:	40ab523b          	sraw	tp,s6,a0

0000000080000ff0 <i_952>:
    80000ff0:	00419463          	bne	gp,tp,80000ff8 <i_954>

0000000080000ff4 <i_953>:
    80000ff4:	01c21663          	bne	tp,t3,80001000 <i_956>

0000000080000ff8 <i_954>:
    80000ff8:	02c25063          	ble	a2,tp,80001018 <i_962>

0000000080000ffc <i_955>:
    80000ffc:	f7813e03          	ld	t3,-136(sp)

0000000080001000 <i_956>:
    80001000:	fe016203          	lwu	tp,-32(sp)

0000000080001004 <i_957>:
    80001004:	00723233          	sltu	tp,tp,t2

0000000080001008 <i_958>:
    80001008:	00000013          	nop

000000008000100c <i_959>:
    8000100c:	4034d213          	srai	tp,s1,0x3

0000000080001010 <i_960>:
    80001010:	00900313          	li	t1,9

0000000080001014 <i_961>:
    80001014:	406b5c3b          	sraw	s8,s6,t1

0000000080001018 <i_962>:
    80001018:	c5329d97          	auipc	s11,0xc5329

000000008000101c <i_963>:
    8000101c:	40335a93          	srai	s5,t1,0x3

0000000080001020 <i_964>:
    80001020:	7b700e13          	li	t3,1975

0000000080001024 <i_965>:
    80001024:	7c000413          	li	s0,1984

0000000080001028 <i_966>:
    80001028:	00239313          	slli	t1,t2,0x2

000000008000102c <i_967>:
    8000102c:	01ddf463          	bleu	t4,s11,80001034 <i_969>

0000000080001030 <i_968>:
    80001030:	01ce1863          	bne	t3,t3,80001040 <i_972>

0000000080001034 <i_969>:
    80001034:	00000013          	nop

0000000080001038 <i_970>:
    80001038:	026af33b          	remuw	t1,s5,t1

000000008000103c <i_971>:
    8000103c:	e9012283          	lw	t0,-368(sp)

0000000080001040 <i_972>:
    80001040:	0e914283          	lbu	t0,233(sp)

0000000080001044 <i_973>:
    80001044:	033303bb          	mulw	t2,t1,s3

0000000080001048 <i_974>:
    80001048:	0263a833          	mulhsu	a6,t2,t1

000000008000104c <i_975>:
    8000104c:	027ac263          	blt	s5,t2,80001070 <i_983>

0000000080001050 <i_976>:
    80001050:	00300313          	li	t1,3

0000000080001054 <i_977>:
    80001054:	0063d3bb          	srlw	t2,t2,t1

0000000080001058 <i_978>:
    80001058:	001e0e13          	addi	t3,t3,1
    8000105c:	fc8e46e3          	blt	t3,s0,80001028 <i_966>

0000000080001060 <i_979>:
    80001060:	03f36263          	bltu	t1,t6,80001084 <i_988>

0000000080001064 <i_980>:
    80001064:	1ca11c03          	lh	s8,458(sp)

0000000080001068 <i_981>:
    80001068:	65286e17          	auipc	t3,0x65286

000000008000106c <i_982>:
    8000106c:	10710023          	sb	t2,256(sp)

0000000080001070 <i_983>:
    80001070:	403e539b          	sraiw	t2,t3,0x3

0000000080001074 <i_984>:
    80001074:	03c3f463          	bleu	t3,t2,8000109c <i_994>

0000000080001078 <i_985>:
    80001078:	030c73b3          	remu	t2,s8,a6

000000008000107c <i_986>:
    8000107c:	047101a3          	sb	t2,67(sp)

0000000080001080 <i_987>:
    80001080:	edf10803          	lb	a6,-289(sp)

0000000080001084 <i_988>:
    80001084:	0fc16383          	lwu	t2,252(sp)

0000000080001088 <i_989>:
    80001088:	0023f663          	bleu	sp,t2,80001094 <i_992>

000000008000108c <i_990>:
    8000108c:	e9011d23          	sh	a6,-358(sp)

0000000080001090 <i_991>:
    80001090:	efc12803          	lw	a6,-260(sp)

0000000080001094 <i_992>:
    80001094:	00000013          	nop

0000000080001098 <i_993>:
    80001098:	e9c16803          	lwu	a6,-356(sp)

000000008000109c <i_994>:
    8000109c:	00787833          	and	a6,a6,t2

00000000800010a0 <i_995>:
    800010a0:	16a11803          	lh	a6,362(sp)

00000000800010a4 <i_996>:
    800010a4:	77200413          	li	s0,1906

00000000800010a8 <i_997>:
    800010a8:	78600c93          	li	s9,1926

00000000800010ac <i_998>:
    800010ac:	f5410503          	lb	a0,-172(sp)

00000000800010b0 <i_999>:
    800010b0:	ff010d83          	lb	s11,-16(sp)

00000000800010b4 <i_1000>:
    800010b4:	81e00e13          	li	t3,-2018

00000000800010b8 <i_1001>:
    800010b8:	82900393          	li	t2,-2007

00000000800010bc <i_1002>:
    800010bc:	fa013803          	ld	a6,-96(sp)

00000000800010c0 <i_1003>:
    800010c0:	03813983          	ld	s3,56(sp)

00000000800010c4 <i_1004>:
    800010c4:	001e0e13          	addi	t3,t3,1 # e5287069 <_end+0x65276c55>
    800010c8:	ffc3dae3          	ble	t3,t2,800010bc <i_1002>

00000000800010cc <i_1005>:
    800010cc:	03900993          	li	s3,57

00000000800010d0 <i_1006>:
    800010d0:	0139d7b3          	srl	a5,s3,s3

00000000800010d4 <i_1007>:
    800010d4:	00140413          	addi	s0,s0,1
    800010d8:	fc8cfae3          	bleu	s0,s9,800010ac <i_998>

00000000800010dc <i_1008>:
    800010dc:	ed815d83          	lhu	s11,-296(sp)

00000000800010e0 <i_1009>:
    800010e0:	4049d213          	srai	tp,s3,0x4

00000000800010e4 <i_1010>:
    800010e4:	02ae7a33          	remu	s4,t3,a0

00000000800010e8 <i_1011>:
    800010e8:	01b11823          	sh	s11,16(sp)

00000000800010ec <i_1012>:
    800010ec:	0f510183          	lb	gp,245(sp)

00000000800010f0 <i_1013>:
    800010f0:	f3412d83          	lw	s11,-204(sp)

00000000800010f4 <i_1014>:
    800010f4:	ef814183          	lbu	gp,-264(sp)

00000000800010f8 <i_1015>:
    800010f8:	79200293          	li	t0,1938

00000000800010fc <i_1016>:
    800010fc:	79500e13          	li	t3,1941

0000000080001100 <i_1017>:
    80001100:	0137c463          	blt	a5,s3,80001108 <i_1019>

0000000080001104 <i_1018>:
    80001104:	03b1c83b          	divw	a6,gp,s11

0000000080001108 <i_1019>:
    80001108:	f1610783          	lb	a5,-234(sp)

000000008000110c <i_1020>:
    8000110c:	02318463          	beq	gp,gp,80001134 <i_1030>

0000000080001110 <i_1021>:
    80001110:	f4215e83          	lhu	t4,-190(sp)

0000000080001114 <i_1022>:
    80001114:	02c7d83b          	divuw	a6,a5,a2

0000000080001118 <i_1023>:
    80001118:	01013423          	sd	a6,8(sp)

000000008000111c <i_1024>:
    8000111c:	00f84263          	blt	a6,a5,80001120 <i_1025>

0000000080001120 <i_1025>:
    80001120:	11e50513          	addi	a0,a0,286 # ffffffffba54811e <_end+0xffffffff3a537d0a>

0000000080001124 <i_1026>:
    80001124:	00000013          	nop

0000000080001128 <i_1027>:
    80001128:	faa11d23          	sh	a0,-70(sp)

000000008000112c <i_1028>:
    8000112c:	00000013          	nop

0000000080001130 <i_1029>:
    80001130:	02a50533          	mul	a0,a0,a0

0000000080001134 <i_1030>:
    80001134:	18615183          	lhu	gp,390(sp)

0000000080001138 <i_1031>:
    80001138:	00000013          	nop

000000008000113c <i_1032>:
    8000113c:	02a5e663          	bltu	a1,a0,80001168 <i_1042>

0000000080001140 <i_1033>:
    80001140:	00128293          	addi	t0,t0,1
    80001144:	fbc29ee3          	bne	t0,t3,80001100 <i_1017>

0000000080001148 <i_1034>:
    80001148:	02aef063          	bleu	a0,t4,80001168 <i_1042>

000000008000114c <i_1035>:
    8000114c:	13d13423          	sd	t4,296(sp)

0000000080001150 <i_1036>:
    80001150:	02b51533          	mulh	a0,a0,a1

0000000080001154 <i_1037>:
    80001154:	18914e03          	lbu	t3,393(sp)

0000000080001158 <i_1038>:
    80001158:	18815503          	lhu	a0,392(sp)

000000008000115c <i_1039>:
    8000115c:	fbc13c23          	sd	t3,-72(sp)

0000000080001160 <i_1040>:
    80001160:	15811503          	lh	a0,344(sp)

0000000080001164 <i_1041>:
    80001164:	0231ec33          	rem	s8,gp,gp

0000000080001168 <i_1042>:
    80001168:	01c57663          	bleu	t3,a0,80001174 <i_1045>

000000008000116c <i_1043>:
    8000116c:	01000193          	li	gp,16

0000000080001170 <i_1044>:
    80001170:	003d51b3          	srl	gp,s10,gp

0000000080001174 <i_1045>:
    80001174:	023c083b          	mulw	a6,s8,gp

0000000080001178 <i_1046>:
    80001178:	023e59bb          	divuw	s3,t3,gp

000000008000117c <i_1047>:
    8000117c:	02013183          	ld	gp,32(sp)

0000000080001180 <i_1048>:
    80001180:	0039f9b3          	and	s3,s3,gp

0000000080001184 <i_1049>:
    80001184:	04611e23          	sh	t1,92(sp)

0000000080001188 <i_1050>:
    80001188:	023fd1bb          	divuw	gp,t6,gp

000000008000118c <i_1051>:
    8000118c:	ec416983          	lwu	s3,-316(sp)

0000000080001190 <i_1052>:
    80001190:	03813783          	ld	a5,56(sp)

0000000080001194 <i_1053>:
    80001194:	02f7f43b          	remuw	s0,a5,a5

0000000080001198 <i_1054>:
    80001198:	18f102a3          	sb	a5,389(sp)

000000008000119c <i_1055>:
    8000119c:	1aa15983          	lhu	s3,426(sp)

00000000800011a0 <i_1056>:
    800011a0:	01378463          	beq	a5,s3,800011a8 <i_1058>

00000000800011a4 <i_1057>:
    800011a4:	ffc16983          	lwu	s3,-4(sp)

00000000800011a8 <i_1058>:
    800011a8:	14b13023          	sd	a1,320(sp)

00000000800011ac <i_1059>:
    800011ac:	0289c463          	blt	s3,s0,800011d4 <i_1069>

00000000800011b0 <i_1060>:
    800011b0:	e2066613          	ori	a2,a2,-480

00000000800011b4 <i_1061>:
    800011b4:	03a98463          	beq	s3,s10,800011dc <i_1071>

00000000800011b8 <i_1062>:
    800011b8:	003cc463          	blt	s9,gp,800011c0 <i_1064>

00000000800011bc <i_1063>:
    800011bc:	72c3ec93          	ori	s9,t2,1836

00000000800011c0 <i_1064>:
    800011c0:	01960863          	beq	a2,s9,800011d0 <i_1068>

00000000800011c4 <i_1065>:
    800011c4:	14815603          	lhu	a2,328(sp)

00000000800011c8 <i_1066>:
    800011c8:	06812503          	lw	a0,104(sp)

00000000800011cc <i_1067>:
    800011cc:	033529b3          	mulhsu	s3,a0,s3

00000000800011d0 <i_1068>:
    800011d0:	1b913823          	sd	s9,432(sp)

00000000800011d4 <i_1069>:
    800011d4:	00400c93          	li	s9,4

00000000800011d8 <i_1070>:
    800011d8:	019999bb          	sllw	s3,s3,s9

00000000800011dc <i_1071>:
    800011dc:	00fc87b3          	add	a5,s9,a5

00000000800011e0 <i_1072>:
    800011e0:	1ea12023          	sw	a0,480(sp)

00000000800011e4 <i_1073>:
    800011e4:	15912223          	sw	s9,324(sp)

00000000800011e8 <i_1074>:
    800011e8:	82d00513          	li	a0,-2003

00000000800011ec <i_1075>:
    800011ec:	84000793          	li	a5,-1984

00000000800011f0 <i_1076>:
    800011f0:	edc15c83          	lhu	s9,-292(sp)

00000000800011f4 <i_1077>:
    800011f4:	f2f13023          	sd	a5,-224(sp)

00000000800011f8 <i_1078>:
    800011f8:	f4013203          	ld	tp,-192(sp)

00000000800011fc <i_1079>:
    800011fc:	0d913023          	sd	s9,192(sp)

0000000080001200 <i_1080>:
    80001200:	f4011283          	lh	t0,-192(sp)

0000000080001204 <i_1081>:
    80001204:	f8a10623          	sb	a0,-116(sp)

0000000080001208 <i_1082>:
    80001208:	e6f13c23          	sd	a5,-392(sp)

000000008000120c <i_1083>:
    8000120c:	0c011c83          	lh	s9,192(sp)

0000000080001210 <i_1084>:
    80001210:	00150513          	addi	a0,a0,1
    80001214:	fcf54ee3          	blt	a0,a5,800011f0 <i_1076>

0000000080001218 <i_1085>:
    80001218:	01920463          	beq	tp,s9,80001220 <i_1087>

000000008000121c <i_1086>:
    8000121c:	02a00793          	li	a5,42

0000000080001220 <i_1087>:
    80001220:	40f7d7b3          	sra	a5,a5,a5

0000000080001224 <i_1088>:
    80001224:	00f7ce63          	blt	a5,a5,80001240 <i_1095>

0000000080001228 <i_1089>:
    80001228:	09415783          	lhu	a5,148(sp)

000000008000122c <i_1090>:
    8000122c:	e2211783          	lh	a5,-478(sp)

0000000080001230 <i_1091>:
    80001230:	14f109a3          	sb	a5,339(sp)

0000000080001234 <i_1092>:
    80001234:	e0f10f23          	sb	a5,-482(sp)

0000000080001238 <i_1093>:
    80001238:	02f7d463          	ble	a5,a5,80001260 <i_1103>

000000008000123c <i_1094>:
    8000123c:	01f00513          	li	a0,31

0000000080001240 <i_1095>:
    80001240:	00a09533          	sll	a0,ra,a0

0000000080001244 <i_1096>:
    80001244:	00a54533          	xor	a0,a0,a0

0000000080001248 <i_1097>:
    80001248:	f9238c17          	auipc	s8,0xf9238

000000008000124c <i_1098>:
    8000124c:	00000013          	nop

0000000080001250 <i_1099>:
    80001250:	02a7b433          	mulhu	s0,a5,a0

0000000080001254 <i_1100>:
    80001254:	00000013          	nop

0000000080001258 <i_1101>:
    80001258:	00000013          	nop

000000008000125c <i_1102>:
    8000125c:	00000013          	nop

0000000080001260 <i_1103>:
    80001260:	e4a15a03          	lhu	s4,-438(sp)

0000000080001264 <i_1104>:
    80001264:	00711e23          	sh	t2,28(sp)

0000000080001268 <i_1105>:
    80001268:	89400393          	li	t2,-1900

000000008000126c <i_1106>:
    8000126c:	8a400793          	li	a5,-1884

0000000080001270 <i_1107>:
    80001270:	00138393          	addi	t2,t2,1
    80001274:	fe77fee3          	bleu	t2,a5,80001270 <i_1107>

0000000080001278 <i_1108>:
    80001278:	e4611783          	lh	a5,-442(sp)

000000008000127c <i_1109>:
    8000127c:	e5015d83          	lhu	s11,-432(sp)

0000000080001280 <i_1110>:
    80001280:	eef11323          	sh	a5,-282(sp)

0000000080001284 <i_1111>:
    80001284:	10810823          	sb	s0,272(sp)

0000000080001288 <i_1112>:
    80001288:	03211e23          	sh	s2,60(sp)

000000008000128c <i_1113>:
    8000128c:	01500193          	li	gp,21

0000000080001290 <i_1114>:
    80001290:	00341ebb          	sllw	t4,s0,gp

0000000080001294 <i_1115>:
    80001294:	5a2a8a93          	addi	s5,s5,1442

0000000080001298 <i_1116>:
    80001298:	f5d11723          	sh	t4,-178(sp)

000000008000129c <i_1117>:
    8000129c:	a91f2993          	slti	s3,t5,-1391

00000000800012a0 <i_1118>:
    800012a0:	013dd863          	ble	s3,s11,800012b0 <i_1122>

00000000800012a4 <i_1119>:
    800012a4:	023c4263          	blt	s8,gp,800012c8 <i_1128>

00000000800012a8 <i_1120>:
    800012a8:	034ef3b3          	remu	t2,t4,s4

00000000800012ac <i_1121>:
    800012ac:	01f3f863          	bleu	t6,t2,800012bc <i_1125>

00000000800012b0 <i_1122>:
    800012b0:	00312a23          	sw	gp,20(sp)

00000000800012b4 <i_1123>:
    800012b4:	1b311123          	sh	s3,418(sp)

00000000800012b8 <i_1124>:
    800012b8:	0083b7b3          	sltu	a5,t2,s0

00000000800012bc <i_1125>:
    800012bc:	00214383          	lbu	t2,2(sp)

00000000800012c0 <i_1126>:
    800012c0:	03c3c3bb          	divw	t2,t2,t3

00000000800012c4 <i_1127>:
    800012c4:	0193e533          	or	a0,t2,s9

00000000800012c8 <i_1128>:
    800012c8:	00000013          	nop

00000000800012cc <i_1129>:
    800012cc:	e8711123          	sh	t2,-382(sp)

00000000800012d0 <i_1130>:
    800012d0:	84700e13          	li	t3,-1977

00000000800012d4 <i_1131>:
    800012d4:	85000e93          	li	t4,-1968

00000000800012d8 <i_1132>:
    800012d8:	2f2a0a1b          	addiw	s4,s4,754

00000000800012dc <i_1133>:
    800012dc:	0e816303          	lwu	t1,232(sp)

00000000800012e0 <i_1134>:
    800012e0:	403a5a13          	srai	s4,s4,0x3

00000000800012e4 <i_1135>:
    800012e4:	15412c23          	sw	s4,344(sp)

00000000800012e8 <i_1136>:
    800012e8:	01f38a33          	add	s4,t2,t6

00000000800012ec <i_1137>:
    800012ec:	00000013          	nop

00000000800012f0 <i_1138>:
    800012f0:	1a014803          	lbu	a6,416(sp)

00000000800012f4 <i_1139>:
    800012f4:	00900613          	li	a2,9

00000000800012f8 <i_1140>:
    800012f8:	00ca1a3b          	sllw	s4,s4,a2

00000000800012fc <i_1141>:
    800012fc:	014a2c33          	slt	s8,s4,s4

0000000080001300 <i_1142>:
    80001300:	fda14603          	lbu	a2,-38(sp)

0000000080001304 <i_1143>:
    80001304:	02fa4263          	blt	s4,a5,80001328 <i_1151>

0000000080001308 <i_1144>:
    80001308:	001e0e13          	addi	t3,t3,1
    8000130c:	fdcef6e3          	bleu	t3,t4,800012d8 <i_1132>

0000000080001310 <i_1145>:
    80001310:	6dfe039b          	addiw	t2,t3,1759

0000000080001314 <i_1146>:
    80001314:	40b380bb          	subw	ra,t2,a1

0000000080001318 <i_1147>:
    80001318:	fe112e23          	sw	ra,-4(sp)

000000008000131c <i_1148>:
    8000131c:	02741463          	bne	s0,t2,80001344 <i_1158>

0000000080001320 <i_1149>:
    80001320:	fc112a23          	sw	ra,-44(sp)

0000000080001324 <i_1150>:
    80001324:	402c5c1b          	sraiw	s8,s8,0x2

0000000080001328 <i_1151>:
    80001328:	e6311d23          	sh	gp,-390(sp)

000000008000132c <i_1152>:
    8000132c:	1e013383          	ld	t2,480(sp)

0000000080001330 <i_1153>:
    80001330:	00300393          	li	t2,3

0000000080001334 <i_1154>:
    80001334:	0074543b          	srlw	s0,s0,t2

0000000080001338 <i_1155>:
    80001338:	0284743b          	remuw	s0,s0,s0

000000008000133c <i_1156>:
    8000133c:	0013f263          	bleu	ra,t2,80001340 <i_1157>

0000000080001340 <i_1157>:
    80001340:	14211403          	lh	s0,322(sp)

0000000080001344 <i_1158>:
    80001344:	0f812b83          	lw	s7,248(sp)

0000000080001348 <i_1159>:
    80001348:	177108a3          	sb	s7,369(sp)

000000008000134c <i_1160>:
    8000134c:	8dcbb093          	sltiu	ra,s7,-1828

0000000080001350 <i_1161>:
    80001350:	f5f14603          	lbu	a2,-161(sp)

0000000080001354 <i_1162>:
    80001354:	7da00b93          	li	s7,2010

0000000080001358 <i_1163>:
    80001358:	7e200a13          	li	s4,2018

000000008000135c <i_1164>:
    8000135c:	6471c093          	xori	ra,gp,1607

0000000080001360 <i_1165>:
    80001360:	fa412183          	lw	gp,-92(sp)

0000000080001364 <i_1166>:
    80001364:	00318e63          	beq	gp,gp,80001380 <i_1172>

0000000080001368 <i_1167>:
    80001368:	00125213          	srli	tp,tp,0x1

000000008000136c <i_1168>:
    8000136c:	001b8b93          	addi	s7,s7,1
    80001370:	ff4be6e3          	bltu	s7,s4,8000135c <i_1164>

0000000080001374 <i_1169>:
    80001374:	f7414083          	lbu	ra,-140(sp)

0000000080001378 <i_1170>:
    80001378:	13d14b83          	lbu	s7,317(sp)

000000008000137c <i_1171>:
    8000137c:	1c112823          	sw	ra,464(sp)

0000000080001380 <i_1172>:
    80001380:	ee310b23          	sb	gp,-266(sp)

0000000080001384 <i_1173>:
    80001384:	0020d09b          	srliw	ra,ra,0x2

0000000080001388 <i_1174>:
    80001388:	74600213          	li	tp,1862

000000008000138c <i_1175>:
    8000138c:	75000813          	li	a6,1872

0000000080001390 <i_1176>:
    80001390:	02108063          	beq	ra,ra,800013b0 <i_1183>

0000000080001394 <i_1177>:
    80001394:	e7711c23          	sh	s7,-392(sp)

0000000080001398 <i_1178>:
    80001398:	037b9bb3          	mulh	s7,s7,s7

000000008000139c <i_1179>:
    8000139c:	00120213          	addi	tp,tp,1 # 1 <main-0x7fffffff>
    800013a0:	ff0218e3          	bne	tp,a6,80001390 <i_1176>

00000000800013a4 <i_1180>:
    800013a4:	5d1289b7          	lui	s3,0x5d128

00000000800013a8 <i_1181>:
    800013a8:	00365613          	srli	a2,a2,0x3

00000000800013ac <i_1182>:
    800013ac:	da126bb7          	lui	s7,0xda126

00000000800013b0 <i_1183>:
    800013b0:	00112223          	sw	ra,4(sp)

00000000800013b4 <i_1184>:
    800013b4:	f7416b83          	lwu	s7,-140(sp)

00000000800013b8 <i_1185>:
    800013b8:	00000013          	nop

00000000800013bc <i_1186>:
    800013bc:	18013a03          	ld	s4,384(sp)

00000000800013c0 <i_1187>:
    800013c0:	7a600193          	li	gp,1958

00000000800013c4 <i_1188>:
    800013c4:	7af00613          	li	a2,1967

00000000800013c8 <i_1189>:
    800013c8:	fccbcb93          	xori	s7,s7,-52

00000000800013cc <i_1190>:
    800013cc:	00cbf463          	bleu	a2,s7,800013d4 <i_1192>

00000000800013d0 <i_1191>:
    800013d0:	f7713c23          	sd	s7,-136(sp)

00000000800013d4 <i_1192>:
    800013d4:	4d41ab97          	auipc	s7,0x4d41a

00000000800013d8 <i_1193>:
    800013d8:	722bcc13          	xori	s8,s7,1826

00000000800013dc <i_1194>:
    800013dc:	038a7263          	bleu	s8,s4,80001400 <i_1202>

00000000800013e0 <i_1195>:
    800013e0:	17e11303          	lh	t1,382(sp)

00000000800013e4 <i_1196>:
    800013e4:	406a0a3b          	subw	s4,s4,t1

00000000800013e8 <i_1197>:
    800013e8:	01300513          	li	a0,19

00000000800013ec <i_1198>:
    800013ec:	00aa5a3b          	srlw	s4,s4,a0

00000000800013f0 <i_1199>:
    800013f0:	00118193          	addi	gp,gp,1
    800013f4:	fc367ae3          	bleu	gp,a2,800013c8 <i_1189>

00000000800013f8 <i_1200>:
    800013f8:	0c813603          	ld	a2,200(sp)

00000000800013fc <i_1201>:
    800013fc:	e1411c23          	sh	s4,-488(sp)

0000000080001400 <i_1202>:
    80001400:	01766e63          	bltu	a2,s7,8000141c <i_1209>

0000000080001404 <i_1203>:
    80001404:	002b949b          	slliw	s1,s7,0x2

0000000080001408 <i_1204>:
    80001408:	026bfbbb          	remuw	s7,s7,t1

000000008000140c <i_1205>:
    8000140c:	fcc10c23          	sb	a2,-40(sp)

0000000080001410 <i_1206>:
    80001410:	f1016183          	lwu	gp,-240(sp)

0000000080001414 <i_1207>:
    80001414:	00319663          	bne	gp,gp,80001420 <i_1210>

0000000080001418 <i_1208>:
    80001418:	fc012203          	lw	tp,-64(sp)

000000008000141c <i_1209>:
    8000141c:	0170e263          	bltu	ra,s7,80001420 <i_1210>

0000000080001420 <i_1210>:
    80001420:	f0412e23          	sw	tp,-228(sp)

0000000080001424 <i_1211>:
    80001424:	1cc13023          	sd	a2,448(sp)

0000000080001428 <i_1212>:
    80001428:	e3412a03          	lw	s4,-460(sp)

000000008000142c <i_1213>:
    8000142c:	00000013          	nop

0000000080001430 <i_1214>:
    80001430:	7d100513          	li	a0,2001

0000000080001434 <i_1215>:
    80001434:	7d500b93          	li	s7,2005

0000000080001438 <i_1216>:
    80001438:	1c410023          	sb	tp,448(sp)

000000008000143c <i_1217>:
    8000143c:	01712423          	sw	s7,8(sp)

0000000080001440 <i_1218>:
    80001440:	f5015203          	lhu	tp,-176(sp)

0000000080001444 <i_1219>:
    80001444:	00150513          	addi	a0,a0,1
    80001448:	feabf8e3          	bleu	a0,s7,80001438 <i_1216>

000000008000144c <i_1220>:
    8000144c:	02425233          	divu	tp,tp,tp

0000000080001450 <i_1221>:
    80001450:	00ea8463          	beq	s5,a4,80001458 <i_1223>

0000000080001454 <i_1222>:
    80001454:	024bca3b          	divw	s4,s7,tp

0000000080001458 <i_1223>:
    80001458:	ec211083          	lh	ra,-318(sp)

000000008000145c <i_1224>:
    8000145c:	1d510a03          	lb	s4,469(sp)

0000000080001460 <i_1225>:
    80001460:	00125263          	ble	ra,tp,80001464 <i_1226>

0000000080001464 <i_1226>:
    80001464:	00409463          	bne	ra,tp,8000146c <i_1228>

0000000080001468 <i_1227>:
    80001468:	021c8cbb          	mulw	s9,s9,ra

000000008000146c <i_1228>:
    8000146c:	0340c063          	blt	ra,s4,8000148c <i_1236>

0000000080001470 <i_1229>:
    80001470:	0190c663          	blt	ra,s9,8000147c <i_1232>

0000000080001474 <i_1230>:
    80001474:	02400213          	li	tp,36

0000000080001478 <i_1231>:
    80001478:	004c91b3          	sll	gp,s9,tp

000000008000147c <i_1232>:
    8000147c:	ed410583          	lb	a1,-300(sp)

0000000080001480 <i_1233>:
    80001480:	1de13c23          	sd	t5,472(sp)

0000000080001484 <i_1234>:
    80001484:	f8410b23          	sb	tp,-106(sp)

0000000080001488 <i_1235>:
    80001488:	02b59233          	mulh	tp,a1,a1

000000008000148c <i_1236>:
    8000148c:	1f713023          	sd	s7,480(sp)

0000000080001490 <i_1237>:
    80001490:	0025c5b3          	xor	a1,a1,sp

0000000080001494 <i_1238>:
    80001494:	80700d93          	li	s11,-2041

0000000080001498 <i_1239>:
    80001498:	81600413          	li	s0,-2026

000000008000149c <i_1240>:
    8000149c:	1ca11583          	lh	a1,458(sp)

00000000800014a0 <i_1241>:
    800014a0:	02b94063          	blt	s2,a1,800014c0 <i_1248>

00000000800014a4 <i_1242>:
    800014a4:	001d8d93          	addi	s11,s11,1 # 4532a019 <main-0x3acd5fe7>
    800014a8:	ffb47ae3          	bleu	s11,s0,8000149c <i_1240>

00000000800014ac <i_1243>:
    800014ac:	b73795b7          	lui	a1,0xb7379

00000000800014b0 <i_1244>:
    800014b0:	024ac5b3          	div	a1,s5,tp

00000000800014b4 <i_1245>:
    800014b4:	00500313          	li	t1,5

00000000800014b8 <i_1246>:
    800014b8:	0065d7bb          	srlw	a5,a1,t1

00000000800014bc <i_1247>:
    800014bc:	034593b3          	mulh	t2,a1,s4

00000000800014c0 <i_1248>:
    800014c0:	00b7fc63          	bleu	a1,a5,800014d8 <i_1254>

00000000800014c4 <i_1249>:
    800014c4:	40620ebb          	subw	t4,tp,t1

00000000800014c8 <i_1250>:
    800014c8:	03be8dbb          	mulw	s11,t4,s11

00000000800014cc <i_1251>:
    800014cc:	0023131b          	slliw	t1,t1,0x2

00000000800014d0 <i_1252>:
    800014d0:	006dce63          	blt	s11,t1,800014ec <i_1259>

00000000800014d4 <i_1253>:
    800014d4:	01300a93          	li	s5,19

00000000800014d8 <i_1254>:
    800014d8:	015bd33b          	srlw	t1,s7,s5

00000000800014dc <i_1255>:
    800014dc:	e8c12583          	lw	a1,-372(sp)

00000000800014e0 <i_1256>:
    800014e0:	0e016483          	lwu	s1,224(sp)

00000000800014e4 <i_1257>:
    800014e4:	03ddcabb          	divw	s5,s11,t4

00000000800014e8 <i_1258>:
    800014e8:	0224e063          	bltu	s1,sp,80001508 <i_1266>

00000000800014ec <i_1259>:
    800014ec:	16910183          	lb	gp,361(sp)

00000000800014f0 <i_1260>:
    800014f0:	f0211303          	lh	t1,-254(sp)

00000000800014f4 <i_1261>:
    800014f4:	00ceeeb3          	or	t4,t4,a2

00000000800014f8 <i_1262>:
    800014f8:	08313023          	sd	gp,128(sp)

00000000800014fc <i_1263>:
    800014fc:	40135c13          	srai	s8,t1,0x1

0000000080001500 <i_1264>:
    80001500:	d3537097          	auipc	ra,0xd3537

0000000080001504 <i_1265>:
    80001504:	00137263          	bleu	ra,t1,80001508 <i_1266>

0000000080001508 <i_1266>:
    80001508:	1c016c03          	lwu	s8,448(sp)

000000008000150c <i_1267>:
    8000150c:	f9813423          	sd	s8,-120(sp)

0000000080001510 <i_1268>:
    80001510:	0e514c03          	lbu	s8,229(sp)

0000000080001514 <i_1269>:
    80001514:	e2b10283          	lb	t0,-469(sp)

0000000080001518 <i_1270>:
    80001518:	0380ce33          	div	t3,ra,s8

000000008000151c <i_1271>:
    8000151c:	01cc2633          	slt	a2,s8,t3

0000000080001520 <i_1272>:
    80001520:	0c112c23          	sw	ra,216(sp)

0000000080001524 <i_1273>:
    80001524:	09c10423          	sb	t3,136(sp)

0000000080001528 <i_1274>:
    80001528:	1dc13023          	sd	t3,448(sp)

000000008000152c <i_1275>:
    8000152c:	16415083          	lhu	ra,356(sp)

0000000080001530 <i_1276>:
    80001530:	f1816a03          	lwu	s4,-232(sp)

0000000080001534 <i_1277>:
    80001534:	02000793          	li	a5,32

0000000080001538 <i_1278>:
    80001538:	00f2d2b3          	srl	t0,t0,a5

000000008000153c <i_1279>:
    8000153c:	005ac863          	blt	s5,t0,8000154c <i_1283>

0000000080001540 <i_1280>:
    80001540:	06f12823          	sw	a5,112(sp)

0000000080001544 <i_1281>:
    80001544:	0fc10823          	sb	t3,240(sp)

0000000080001548 <i_1282>:
    80001548:	2bf78793          	addi	a5,a5,703

000000008000154c <i_1283>:
    8000154c:	001e7a63          	bleu	ra,t3,80001560 <i_1288>

0000000080001550 <i_1284>:
    80001550:	00900c13          	li	s8,9

0000000080001554 <i_1285>:
    80001554:	018c5abb          	srlw	s5,s8,s8

0000000080001558 <i_1286>:
    80001558:	1c415983          	lhu	s3,452(sp)

000000008000155c <i_1287>:
    8000155c:	0182e833          	or	a6,t0,s8

0000000080001560 <i_1288>:
    80001560:	e1c14483          	lbu	s1,-484(sp)

0000000080001564 <i_1289>:
    80001564:	f6a184b7          	lui	s1,0xf6a18

0000000080001568 <i_1290>:
    80001568:	03a10a83          	lb	s5,58(sp)

000000008000156c <i_1291>:
    8000156c:	00331c93          	slli	s9,t1,0x3

0000000080001570 <i_1292>:
    80001570:	13511e23          	sh	s5,316(sp)

0000000080001574 <i_1293>:
    80001574:	0e813c83          	ld	s9,232(sp)

0000000080001578 <i_1294>:
    80001578:	f8914203          	lbu	tp,-119(sp)

000000008000157c <i_1295>:
    8000157c:	03710383          	lb	t2,55(sp)

0000000080001580 <i_1296>:
    80001580:	029cd263          	ble	s1,s9,800015a4 <i_1305>

0000000080001584 <i_1297>:
    80001584:	01200193          	li	gp,18

0000000080001588 <i_1298>:
    80001588:	003cda33          	srl	s4,s9,gp

000000008000158c <i_1299>:
    8000158c:	01e1f263          	bleu	t5,gp,80001590 <i_1300>

0000000080001590 <i_1300>:
    80001590:	0e811183          	lh	gp,232(sp)

0000000080001594 <i_1301>:
    80001594:	02e11c83          	lh	s9,46(sp)

0000000080001598 <i_1302>:
    80001598:	0398e063          	bltu	a7,s9,800015b8 <i_1310>

000000008000159c <i_1303>:
    8000159c:	0a012603          	lw	a2,160(sp)

00000000800015a0 <i_1304>:
    800015a0:	e9813b83          	ld	s7,-360(sp)

00000000800015a4 <i_1305>:
    800015a4:	00000013          	nop

00000000800015a8 <i_1306>:
    800015a8:	00000013          	nop

00000000800015ac <i_1307>:
    800015ac:	00000013          	nop

00000000800015b0 <i_1308>:
    800015b0:	00900193          	li	gp,9

00000000800015b4 <i_1309>:
    800015b4:	403fd333          	sra	t1,t6,gp

00000000800015b8 <i_1310>:
    800015b8:	09e15403          	lhu	s0,158(sp)

00000000800015bc <i_1311>:
    800015bc:	00000013          	nop

00000000800015c0 <i_1312>:
    800015c0:	76300a13          	li	s4,1891

00000000800015c4 <i_1313>:
    800015c4:	76900c93          	li	s9,1897

00000000800015c8 <i_1314>:
    800015c8:	f4612023          	sw	t1,-192(sp)

00000000800015cc <i_1315>:
    800015cc:	1d712823          	sw	s7,464(sp)

00000000800015d0 <i_1316>:
    800015d0:	0c013d83          	ld	s11,192(sp)

00000000800015d4 <i_1317>:
    800015d4:	03bbabb3          	mulhsu	s7,s7,s11

00000000800015d8 <i_1318>:
    800015d8:	002dd313          	srli	t1,s11,0x2

00000000800015dc <i_1319>:
    800015dc:	fcc12d83          	lw	s11,-52(sp)

00000000800015e0 <i_1320>:
    800015e0:	001a0a13          	addi	s4,s4,1
    800015e4:	ff9a42e3          	blt	s4,s9,800015c8 <i_1314>

00000000800015e8 <i_1321>:
    800015e8:	40435b9b          	sraiw	s7,t1,0x4

00000000800015ec <i_1322>:
    800015ec:	026de263          	bltu	s11,t1,80001610 <i_1331>

00000000800015f0 <i_1323>:
    800015f0:	f9b12c23          	sw	s11,-104(sp)

00000000800015f4 <i_1324>:
    800015f4:	02cdd63b          	divuw	a2,s11,a2

00000000800015f8 <i_1325>:
    800015f8:	f2b12823          	sw	a1,-208(sp)

00000000800015fc <i_1326>:
    800015fc:	037b8263          	beq	s7,s7,80001620 <i_1335>

0000000080001600 <i_1327>:
    80001600:	12812c03          	lw	s8,296(sp)

0000000080001604 <i_1328>:
    80001604:	14016e83          	lwu	t4,320(sp)

0000000080001608 <i_1329>:
    80001608:	02c8d263          	ble	a2,a7,8000162c <i_1338>

000000008000160c <i_1330>:
    8000160c:	0c813e83          	ld	t4,200(sp)

0000000080001610 <i_1331>:
    80001610:	03de9eb3          	mulh	t4,t4,t4

0000000080001614 <i_1332>:
    80001614:	ffd11623          	sh	t4,-20(sp)

0000000080001618 <i_1333>:
    80001618:	01d56533          	or	a0,a0,t4

000000008000161c <i_1334>:
    8000161c:	03d51463          	bne	a0,t4,80001644 <i_1344>

0000000080001620 <i_1335>:
    80001620:	01dece63          	blt	t4,t4,8000163c <i_1342>

0000000080001624 <i_1336>:
    80001624:	03de8533          	mul	a0,t4,t4

0000000080001628 <i_1337>:
    80001628:	02a30eb3          	mul	t4,t1,a0

000000008000162c <i_1338>:
    8000162c:	17d12a23          	sw	t4,372(sp)

0000000080001630 <i_1339>:
    80001630:	1d411e83          	lh	t4,468(sp)

0000000080001634 <i_1340>:
    80001634:	19412503          	lw	a0,404(sp)

0000000080001638 <i_1341>:
    80001638:	02251cb3          	mulh	s9,a0,sp

000000008000163c <i_1342>:
    8000163c:	0f614603          	lbu	a2,246(sp)

0000000080001640 <i_1343>:
    80001640:	0a416283          	lwu	t0,164(sp)

0000000080001644 <i_1344>:
    80001644:	01b28a63          	beq	t0,s11,80001658 <i_1349>

0000000080001648 <i_1345>:
    80001648:	00900c13          	li	s8,9

000000008000164c <i_1346>:
    8000164c:	41885833          	sra	a6,a6,s8

0000000080001650 <i_1347>:
    80001650:	03d48db3          	mul	s11,s1,t4

0000000080001654 <i_1348>:
    80001654:	0028181b          	slliw	a6,a6,0x2

0000000080001658 <i_1349>:
    80001658:	06c16d83          	lwu	s11,108(sp)

000000008000165c <i_1350>:
    8000165c:	e5813c23          	sd	s8,-424(sp)

0000000080001660 <i_1351>:
    80001660:	74900a93          	li	s5,1865

0000000080001664 <i_1352>:
    80001664:	75500e93          	li	t4,1877

0000000080001668 <i_1353>:
    80001668:	e6013c03          	ld	s8,-416(sp)

000000008000166c <i_1354>:
    8000166c:	10610c03          	lb	s8,262(sp)

0000000080001670 <i_1355>:
    80001670:	00000013          	nop

0000000080001674 <i_1356>:
    80001674:	19c11923          	sh	t3,402(sp)

0000000080001678 <i_1357>:
    80001678:	8ac00213          	li	tp,-1876

000000008000167c <i_1358>:
    8000167c:	8ba00c13          	li	s8,-1862

0000000080001680 <i_1359>:
    80001680:	00000013          	nop

0000000080001684 <i_1360>:
    80001684:	00120213          	addi	tp,tp,1 # 1 <main-0x7fffffff>
    80001688:	ff824ce3          	blt	tp,s8,80001680 <i_1359>

000000008000168c <i_1361>:
    8000168c:	f6913423          	sd	s1,-152(sp)

0000000080001690 <i_1362>:
    80001690:	00000013          	nop

0000000080001694 <i_1363>:
    80001694:	001a8a93          	addi	s5,s5,1
    80001698:	fddac8e3          	blt	s5,t4,80001668 <i_1353>

000000008000169c <i_1364>:
    8000169c:	00997c63          	bleu	s1,s2,800016b4 <i_1370>

00000000800016a0 <i_1365>:
    800016a0:	02910c83          	lb	s9,41(sp)

00000000800016a4 <i_1366>:
    800016a4:	16016d83          	lwu	s11,352(sp)

00000000800016a8 <i_1367>:
    800016a8:	010d8e63          	beq	s11,a6,800016c4 <i_1374>

00000000800016ac <i_1368>:
    800016ac:	f1010c83          	lb	s9,-240(sp)

00000000800016b0 <i_1369>:
    800016b0:	4014d29b          	sraiw	t0,s1,0x1

00000000800016b4 <i_1370>:
    800016b4:	01027a63          	bleu	a6,tp,800016c8 <i_1375>

00000000800016b8 <i_1371>:
    800016b8:	e9b13023          	sd	s11,-384(sp)

00000000800016bc <i_1372>:
    800016bc:	0192c833          	xor	a6,t0,s9

00000000800016c0 <i_1373>:
    800016c0:	002a5e93          	srli	t4,s4,0x2

00000000800016c4 <i_1374>:
    800016c4:	019e8263          	beq	t4,s9,800016c8 <i_1375>

00000000800016c8 <i_1375>:
    800016c8:	eb011f23          	sh	a6,-322(sp)

00000000800016cc <i_1376>:
    800016cc:	08c16803          	lwu	a6,140(sp)

00000000800016d0 <i_1377>:
    800016d0:	00d00813          	li	a6,13

00000000800016d4 <i_1378>:
    800016d4:	010ed83b          	srlw	a6,t4,a6

00000000800016d8 <i_1379>:
    800016d8:	e9013023          	sd	a6,-384(sp)

00000000800016dc <i_1380>:
    800016dc:	5a687513          	andi	a0,a6,1446

00000000800016e0 <i_1381>:
    800016e0:	73000313          	li	t1,1840

00000000800016e4 <i_1382>:
    800016e4:	73d00813          	li	a6,1853

00000000800016e8 <i_1383>:
    800016e8:	e4013383          	ld	t2,-448(sp)

00000000800016ec <i_1384>:
    800016ec:	03d543bb          	divw	t2,a0,t4

00000000800016f0 <i_1385>:
    800016f0:	e2711823          	sh	t2,-464(sp)

00000000800016f4 <i_1386>:
    800016f4:	fe015e83          	lhu	t4,-32(sp)

00000000800016f8 <i_1387>:
    800016f8:	13e15383          	lhu	t2,318(sp)

00000000800016fc <i_1388>:
    800016fc:	03938433          	mul	s0,t2,s9

0000000080001700 <i_1389>:
    80001700:	0043d39b          	srliw	t2,t2,0x4

0000000080001704 <i_1390>:
    80001704:	fdc11e03          	lh	t3,-36(sp)

0000000080001708 <i_1391>:
    80001708:	f2711623          	sh	t2,-212(sp)

000000008000170c <i_1392>:
    8000170c:	00400393          	li	t2,4

0000000080001710 <i_1393>:
    80001710:	007c953b          	sllw	a0,s9,t2

0000000080001714 <i_1394>:
    80001714:	02a57263          	bleu	a0,a0,80001738 <i_1402>

0000000080001718 <i_1395>:
    80001718:	06411d83          	lh	s11,100(sp)

000000008000171c <i_1396>:
    8000171c:	e3b11e23          	sh	s11,-452(sp)

0000000080001720 <i_1397>:
    80001720:	00130313          	addi	t1,t1,1
    80001724:	fc6872e3          	bleu	t1,a6,800016e8 <i_1383>

0000000080001728 <i_1398>:
    80001728:	19013203          	ld	tp,400(sp)

000000008000172c <i_1399>:
    8000172c:	02d00c13          	li	s8,45

0000000080001730 <i_1400>:
    80001730:	41845433          	sra	s0,s0,s8

0000000080001734 <i_1401>:
    80001734:	02ae1bb3          	mulh	s7,t3,a0

0000000080001738 <i_1402>:
    80001738:	00900393          	li	t2,9

000000008000173c <i_1403>:
    8000173c:	407c553b          	sraw	a0,s8,t2

0000000080001740 <i_1404>:
    80001740:	01800993          	li	s3,24

0000000080001744 <i_1405>:
    80001744:	0131d533          	srl	a0,gp,s3

0000000080001748 <i_1406>:
    80001748:	01c38863          	beq	t2,t3,80001758 <i_1410>

000000008000174c <i_1407>:
    8000174c:	1bc16783          	lwu	a5,444(sp)

0000000080001750 <i_1408>:
    80001750:	00179193          	slli	gp,a5,0x1

0000000080001754 <i_1409>:
    80001754:	013e0e33          	add	t3,t3,s3

0000000080001758 <i_1410>:
    80001758:	f2012d83          	lw	s11,-224(sp)

000000008000175c <i_1411>:
    8000175c:	06412e03          	lw	t3,100(sp)

0000000080001760 <i_1412>:
    80001760:	03b1b4b3          	mulhu	s1,gp,s11

0000000080001764 <i_1413>:
    80001764:	38be0513          	addi	a0,t3,907

0000000080001768 <i_1414>:
    80001768:	0232e063          	bltu	t0,gp,80001788 <i_1422>

000000008000176c <i_1415>:
    8000176c:	4407b197          	auipc	gp,0x4407b

0000000080001770 <i_1416>:
    80001770:	00e00393          	li	t2,14

0000000080001774 <i_1417>:
    80001774:	0071d33b          	srlw	t1,gp,t2

0000000080001778 <i_1418>:
    80001778:	f6016383          	lwu	t2,-160(sp)

000000008000177c <i_1419>:
    8000177c:	16712423          	sw	t2,360(sp)

0000000080001780 <i_1420>:
    80001780:	19813503          	ld	a0,408(sp)

0000000080001784 <i_1421>:
    80001784:	07c16183          	lwu	gp,124(sp)

0000000080001788 <i_1422>:
    80001788:	fc313023          	sd	gp,-64(sp)

000000008000178c <i_1423>:
    8000178c:	f8c12383          	lw	t2,-116(sp)

0000000080001790 <i_1424>:
    80001790:	005383b3          	add	t2,t2,t0

0000000080001794 <i_1425>:
    80001794:	1cc10083          	lb	ra,460(sp)

0000000080001798 <i_1426>:
    80001798:	00f49863          	bne	s1,a5,800017a8 <i_1430>

000000008000179c <i_1427>:
    8000179c:	06816083          	lwu	ra,104(sp)

00000000800017a0 <i_1428>:
    800017a0:	03b4ea3b          	remw	s4,s1,s11

00000000800017a4 <i_1429>:
    800017a4:	018b9263          	bne	s7,s8,800017a8 <i_1430>

00000000800017a8 <i_1430>:
    800017a8:	fd23859b          	addiw	a1,t2,-46

00000000800017ac <i_1431>:
    800017ac:	15c12d83          	lw	s11,348(sp)

00000000800017b0 <i_1432>:
    800017b0:	0037d393          	srli	t2,a5,0x3

00000000800017b4 <i_1433>:
    800017b4:	401bda1b          	sraiw	s4,s7,0x1

00000000800017b8 <i_1434>:
    800017b8:	eec11203          	lh	tp,-276(sp)

00000000800017bc <i_1435>:
    800017bc:	0244e2bb          	remw	t0,s1,tp

00000000800017c0 <i_1436>:
    800017c0:	1dc12203          	lw	tp,476(sp)

00000000800017c4 <i_1437>:
    800017c4:	01334a63          	blt	t1,s3,800017d8 <i_1442>

00000000800017c8 <i_1438>:
    800017c8:	01b3ea63          	bltu	t2,s11,800017dc <i_1443>

00000000800017cc <i_1439>:
    800017cc:	02329333          	mulh	t1,t0,gp

00000000800017d0 <i_1440>:
    800017d0:	0262f233          	remu	tp,t0,t1

00000000800017d4 <i_1441>:
    800017d4:	ebd24b93          	xori	s7,tp,-323

00000000800017d8 <i_1442>:
    800017d8:	00b24263          	blt	tp,a1,800017dc <i_1443>

00000000800017dc <i_1443>:
    800017dc:	12311023          	sh	gp,288(sp)

00000000800017e0 <i_1444>:
    800017e0:	018875b3          	and	a1,a6,s8

00000000800017e4 <i_1445>:
    800017e4:	fc813783          	ld	a5,-56(sp)

00000000800017e8 <i_1446>:
    800017e8:	0013181b          	slliw	a6,t1,0x1

00000000800017ec <i_1447>:
    800017ec:	8b121317          	auipc	t1,0x8b121

00000000800017f0 <i_1448>:
    800017f0:	8c000593          	li	a1,-1856

00000000800017f4 <i_1449>:
    800017f4:	8c900c13          	li	s8,-1847

00000000800017f8 <i_1450>:
    800017f8:	010c2cb3          	slt	s9,s8,a6

00000000800017fc <i_1451>:
    800017fc:	16013983          	ld	s3,352(sp)

0000000080001800 <i_1452>:
    80001800:	fc215803          	lhu	a6,-62(sp)

0000000080001804 <i_1453>:
    80001804:	09311423          	sh	s3,136(sp)

0000000080001808 <i_1454>:
    80001808:	17310403          	lb	s0,371(sp)

000000008000180c <i_1455>:
    8000180c:	fac10403          	lb	s0,-84(sp)

0000000080001810 <i_1456>:
    80001810:	e3012a03          	lw	s4,-464(sp)

0000000080001814 <i_1457>:
    80001814:	42728997          	auipc	s3,0x42728

0000000080001818 <i_1458>:
    80001818:	03d10803          	lb	a6,61(sp)

000000008000181c <i_1459>:
    8000181c:	008a1e63          	bne	s4,s0,80001838 <i_1465>

0000000080001820 <i_1460>:
    80001820:	d9b0c093          	xori	ra,ra,-613

0000000080001824 <i_1461>:
    80001824:	00158593          	addi	a1,a1,1 # ffffffffb7379001 <_end+0xffffffff37368bed>
    80001828:	fd85c8e3          	blt	a1,s8,800017f8 <i_1450>

000000008000182c <i_1462>:
    8000182c:	028e6433          	rem	s0,t3,s0

0000000080001830 <i_1463>:
    80001830:	e7413c23          	sd	s4,-392(sp)

0000000080001834 <i_1464>:
    80001834:	14713c23          	sd	t2,344(sp)

0000000080001838 <i_1465>:
    80001838:	0140f263          	bleu	s4,ra,8000183c <i_1466>

000000008000183c <i_1466>:
    8000183c:	1b011403          	lh	s0,432(sp)

0000000080001840 <i_1467>:
    80001840:	001ff663          	bleu	ra,t6,8000184c <i_1470>

0000000080001844 <i_1468>:
    80001844:	16310d83          	lb	s11,355(sp)

0000000080001848 <i_1469>:
    80001848:	0082fa63          	bleu	s0,t0,8000185c <i_1474>

000000008000184c <i_1470>:
    8000184c:	01409263          	bne	ra,s4,80001850 <i_1471>

0000000080001850 <i_1471>:
    80001850:	ebd10823          	sb	t4,-336(sp)

0000000080001854 <i_1472>:
    80001854:	1dc16d83          	lwu	s11,476(sp)

0000000080001858 <i_1473>:
    80001858:	028d8e3b          	mulw	t3,s11,s0

000000008000185c <i_1474>:
    8000185c:	e5e15403          	lhu	s0,-418(sp)

0000000080001860 <i_1475>:
    80001860:	05013283          	ld	t0,80(sp)

0000000080001864 <i_1476>:
    80001864:	03de5463          	ble	t4,t3,8000188c <i_1486>

0000000080001868 <i_1477>:
    80001868:	01c8f863          	bleu	t3,a7,80001878 <i_1481>

000000008000186c <i_1478>:
    8000186c:	00446a63          	bltu	s0,tp,80001880 <i_1483>

0000000080001870 <i_1479>:
    80001870:	ee510423          	sb	t0,-280(sp)

0000000080001874 <i_1480>:
    80001874:	025299b3          	mulh	s3,t0,t0

0000000080001878 <i_1481>:
    80001878:	f7310ca3          	sb	s3,-135(sp)

000000008000187c <i_1482>:
    8000187c:	0343ca3b          	divw	s4,t2,s4

0000000080001880 <i_1483>:
    80001880:	16513023          	sd	t0,352(sp)

0000000080001884 <i_1484>:
    80001884:	02c16583          	lwu	a1,44(sp)

0000000080001888 <i_1485>:
    80001888:	403a599b          	sraiw	s3,s4,0x3

000000008000188c <i_1486>:
    8000188c:	00ba8a33          	add	s4,s5,a1

0000000080001890 <i_1487>:
    80001890:	40b3033b          	subw	t1,t1,a1

0000000080001894 <i_1488>:
    80001894:	81d00293          	li	t0,-2019

0000000080001898 <i_1489>:
    80001898:	82f00e13          	li	t3,-2001

000000008000189c <i_1490>:
    8000189c:	00000013          	nop

00000000800018a0 <i_1491>:
    800018a0:	09813a83          	ld	s5,152(sp)

00000000800018a4 <i_1492>:
    800018a4:	01300393          	li	t2,19

00000000800018a8 <i_1493>:
    800018a8:	407355bb          	sraw	a1,t1,t2

00000000800018ac <i_1494>:
    800018ac:	287d8213          	addi	tp,s11,647

00000000800018b0 <i_1495>:
    800018b0:	17013983          	ld	s3,368(sp)

00000000800018b4 <i_1496>:
    800018b4:	00000013          	nop

00000000800018b8 <i_1497>:
    800018b8:	e7011983          	lh	s3,-400(sp)

00000000800018bc <i_1498>:
    800018bc:	ea211b83          	lh	s7,-350(sp)

00000000800018c0 <i_1499>:
    800018c0:	00128293          	addi	t0,t0,1
    800018c4:	fc5e7ce3          	bleu	t0,t3,8000189c <i_1490>

00000000800018c8 <i_1500>:
    800018c8:	06c9f813          	andi	a6,s3,108

00000000800018cc <i_1501>:
    800018cc:	013af9b3          	and	s3,s5,s3

00000000800018d0 <i_1502>:
    800018d0:	01531263          	bne	t1,s5,800018d4 <i_1503>

00000000800018d4 <i_1503>:
    800018d4:	e9611303          	lh	t1,-362(sp)

00000000800018d8 <i_1504>:
    800018d8:	0243e3bb          	remw	t2,t2,tp

00000000800018dc <i_1505>:
    800018dc:	f0813383          	ld	t2,-248(sp)

00000000800018e0 <i_1506>:
    800018e0:	00800993          	li	s3,8

00000000800018e4 <i_1507>:
    800018e4:	4137d7bb          	sraw	a5,a5,s3

00000000800018e8 <i_1508>:
    800018e8:	0d813403          	ld	s0,216(sp)

00000000800018ec <i_1509>:
    800018ec:	1aca0a13          	addi	s4,s4,428

00000000800018f0 <i_1510>:
    800018f0:	fc815783          	lhu	a5,-56(sp)

00000000800018f4 <i_1511>:
    800018f4:	01413c23          	sd	s4,24(sp)

00000000800018f8 <i_1512>:
    800018f8:	87700193          	li	gp,-1929

00000000800018fc <i_1513>:
    800018fc:	87e00513          	li	a0,-1922

0000000080001900 <i_1514>:
    80001900:	e9812403          	lw	s0,-360(sp)

0000000080001904 <i_1515>:
    80001904:	01454a33          	xor	s4,a0,s4

0000000080001908 <i_1516>:
    80001908:	033b7263          	bleu	s3,s6,8000192c <i_1524>

000000008000190c <i_1517>:
    8000190c:	00016583          	lwu	a1,0(sp)

0000000080001910 <i_1518>:
    80001910:	00000013          	nop

0000000080001914 <i_1519>:
    80001914:	40f809b3          	sub	s3,a6,a5

0000000080001918 <i_1520>:
    80001918:	00118193          	addi	gp,gp,1 # c407c76d <_end+0x4406c359>
    8000191c:	fea192e3          	bne	gp,a0,80001900 <i_1514>

0000000080001920 <i_1521>:
    80001920:	01454863          	blt	a0,s4,80001930 <i_1525>

0000000080001924 <i_1522>:
    80001924:	00ba4863          	blt	s4,a1,80001934 <i_1526>

0000000080001928 <i_1523>:
    80001928:	41758833          	sub	a6,a1,s7

000000008000192c <i_1524>:
    8000192c:	f7015283          	lhu	t0,-144(sp)

0000000080001930 <i_1525>:
    80001930:	00016e83          	lwu	t4,0(sp)

0000000080001934 <i_1526>:
    80001934:	00000013          	nop

0000000080001938 <i_1527>:
    80001938:	00000013          	nop

000000008000193c <i_1528>:
    8000193c:	8ab00a13          	li	s4,-1877

0000000080001940 <i_1529>:
    80001940:	8ad00d93          	li	s11,-1875

0000000080001944 <i_1530>:
    80001944:	e9414a83          	lbu	s5,-364(sp)

0000000080001948 <i_1531>:
    80001948:	1aa15403          	lhu	s0,426(sp)

000000008000194c <i_1532>:
    8000194c:	0047d39b          	srliw	t2,a5,0x4

0000000080001950 <i_1533>:
    80001950:	f7813783          	ld	a5,-136(sp)

0000000080001954 <i_1534>:
    80001954:	001a0a13          	addi	s4,s4,1
    80001958:	ffba16e3          	bne	s4,s11,80001944 <i_1530>

000000008000195c <i_1535>:
    8000195c:	fd211283          	lh	t0,-46(sp)

0000000080001960 <i_1536>:
    80001960:	15c13c23          	sd	t3,344(sp)

0000000080001964 <i_1537>:
    80001964:	025cc433          	div	s0,s9,t0

0000000080001968 <i_1538>:
    80001968:	00811923          	sh	s0,18(sp)

000000008000196c <i_1539>:
    8000196c:	73800c93          	li	s9,1848

0000000080001970 <i_1540>:
    80001970:	74600e13          	li	t3,1862

0000000080001974 <i_1541>:
    80001974:	edc101a3          	sb	t3,-317(sp)

0000000080001978 <i_1542>:
    80001978:	00000013          	nop

000000008000197c <i_1543>:
    8000197c:	005ce863          	bltu	s9,t0,8000198c <i_1547>

0000000080001980 <i_1544>:
    80001980:	11012a03          	lw	s4,272(sp)

0000000080001984 <i_1545>:
    80001984:	4be33293          	sltiu	t0,t1,1214

0000000080001988 <i_1546>:
    80001988:	f0910a03          	lb	s4,-247(sp)

000000008000198c <i_1547>:
    8000198c:	034ef663          	bleu	s4,t4,800019b8 <i_1557>

0000000080001990 <i_1548>:
    80001990:	0252c463          	blt	t0,t0,800019b8 <i_1557>

0000000080001994 <i_1549>:
    80001994:	ffa13c23          	sd	s10,-8(sp)

0000000080001998 <i_1550>:
    80001998:	01328433          	add	s0,t0,s3

000000008000199c <i_1551>:
    8000199c:	001c8c93          	addi	s9,s9,1
    800019a0:	fdcceae3          	bltu	s9,t3,80001974 <i_1541>

00000000800019a4 <i_1552>:
    800019a4:	0252e2b3          	rem	t0,t0,t0

00000000800019a8 <i_1553>:
    800019a8:	00000013          	nop

00000000800019ac <i_1554>:
    800019ac:	00000013          	nop

00000000800019b0 <i_1555>:
    800019b0:	02013083          	ld	ra,32(sp)

00000000800019b4 <i_1556>:
    800019b4:	e4815283          	lhu	t0,-440(sp)

00000000800019b8 <i_1557>:
    800019b8:	0e011083          	lh	ra,224(sp)

00000000800019bc <i_1558>:
    800019bc:	00000013          	nop

00000000800019c0 <i_1559>:
    800019c0:	85500413          	li	s0,-1963

00000000800019c4 <i_1560>:
    800019c4:	86000a93          	li	s5,-1952

00000000800019c8 <i_1561>:
    800019c8:	0082c463          	blt	t0,s0,800019d0 <i_1563>

00000000800019cc <i_1562>:
    800019cc:	e3f11a23          	sh	t6,-460(sp)

00000000800019d0 <i_1563>:
    800019d0:	e10aca13          	xori	s4,s5,-496

00000000800019d4 <i_1564>:
    800019d4:	1d512a23          	sw	s5,468(sp)

00000000800019d8 <i_1565>:
    800019d8:	1b610a03          	lb	s4,438(sp)

00000000800019dc <i_1566>:
    800019dc:	00000013          	nop

00000000800019e0 <i_1567>:
    800019e0:	03a28663          	beq	t0,s10,80001a0c <i_1577>

00000000800019e4 <i_1568>:
    800019e4:	00140413          	addi	s0,s0,1
    800019e8:	ff5460e3          	bltu	s0,s5,800019c8 <i_1561>

00000000800019ec <i_1569>:
    800019ec:	02153533          	mulhu	a0,a0,ra

00000000800019f0 <i_1570>:
    800019f0:	f4510b23          	sb	t0,-170(sp)

00000000800019f4 <i_1571>:
    800019f4:	02509463          	bne	ra,t0,80001a1c <i_1581>

00000000800019f8 <i_1572>:
    800019f8:	014f8e63          	beq	t6,s4,80001a14 <i_1579>

00000000800019fc <i_1573>:
    800019fc:	008abcb3          	sltu	s9,s5,s0

0000000080001a00 <i_1574>:
    80001a00:	01939c63          	bne	t2,s9,80001a18 <i_1580>

0000000080001a04 <i_1575>:
    80001a04:	f5012a83          	lw	s5,-176(sp)

0000000080001a08 <i_1576>:
    80001a08:	0ca13423          	sd	a0,200(sp)

0000000080001a0c <i_1577>:
    80001a0c:	03daaab3          	mulhsu	s5,s5,t4

0000000080001a10 <i_1578>:
    80001a10:	001cd513          	srli	a0,s9,0x1

0000000080001a14 <i_1579>:
    80001a14:	cac7c793          	xori	a5,a5,-852

0000000080001a18 <i_1580>:
    80001a18:	00ad8a33          	add	s4,s11,a0

0000000080001a1c <i_1581>:
    80001a1c:	03512a23          	sw	s5,52(sp)

0000000080001a20 <i_1582>:
    80001a20:	09412a83          	lw	s5,148(sp)

0000000080001a24 <i_1583>:
    80001a24:	02eac53b          	divw	a0,s5,a4

0000000080001a28 <i_1584>:
    80001a28:	015a9463          	bne	s5,s5,80001a30 <i_1586>

0000000080001a2c <i_1585>:
    80001a2c:	03556063          	bltu	a0,s5,80001a4c <i_1593>

0000000080001a30 <i_1586>:
    80001a30:	03457063          	bleu	s4,a0,80001a50 <i_1594>

0000000080001a34 <i_1587>:
    80001a34:	07413823          	sd	s4,112(sp)

0000000080001a38 <i_1588>:
    80001a38:	f9710503          	lb	a0,-105(sp)

0000000080001a3c <i_1589>:
    80001a3c:	02fd5a33          	divu	s4,s10,a5

0000000080001a40 <i_1590>:
    80001a40:	08a13823          	sd	a0,144(sp)

0000000080001a44 <i_1591>:
    80001a44:	f1413423          	sd	s4,-248(sp)

0000000080001a48 <i_1592>:
    80001a48:	01457463          	bleu	s4,a0,80001a50 <i_1594>

0000000080001a4c <i_1593>:
    80001a4c:	00000013          	nop

0000000080001a50 <i_1594>:
    80001a50:	fee15383          	lhu	t2,-18(sp)

0000000080001a54 <i_1595>:
    80001a54:	00711c23          	sh	t2,24(sp)

0000000080001a58 <i_1596>:
    80001a58:	75b00493          	li	s1,1883

0000000080001a5c <i_1597>:
    80001a5c:	76200593          	li	a1,1890

0000000080001a60 <i_1598>:
    80001a60:	ba37ac37          	lui	s8,0xba37a

0000000080001a64 <i_1599>:
    80001a64:	00148493          	addi	s1,s1,1 # fffffffff6a18001 <_end+0xffffffff76a07bed>
    80001a68:	fe95dce3          	ble	s1,a1,80001a60 <i_1598>

0000000080001a6c <i_1600>:
    80001a6c:	035a6063          	bltu	s4,s5,80001a8c <i_1608>

0000000080001a70 <i_1601>:
    80001a70:	e6814e03          	lbu	t3,-408(sp)

0000000080001a74 <i_1602>:
    80001a74:	00a54533          	xor	a0,a0,a0

0000000080001a78 <i_1603>:
    80001a78:	0fc11c23          	sh	t3,248(sp)

0000000080001a7c <i_1604>:
    80001a7c:	f7c13c23          	sd	t3,-136(sp)

0000000080001a80 <i_1605>:
    80001a80:	02ac79b3          	remu	s3,s8,a0

0000000080001a84 <i_1606>:
    80001a84:	00295213          	srli	tp,s2,0x2

0000000080001a88 <i_1607>:
    80001a88:	1c9107a3          	sb	s1,463(sp)

0000000080001a8c <i_1608>:
    80001a8c:	01300993          	li	s3,19

0000000080001a90 <i_1609>:
    80001a90:	01355a33          	srl	s4,a0,s3

0000000080001a94 <i_1610>:
    80001a94:	00179c1b          	slliw	s8,a5,0x1

0000000080001a98 <i_1611>:
    80001a98:	09e15983          	lhu	s3,158(sp)

0000000080001a9c <i_1612>:
    80001a9c:	03cc5463          	ble	t3,s8,80001ac4 <i_1622>

0000000080001aa0 <i_1613>:
    80001aa0:	f5311c23          	sh	s3,-168(sp)

0000000080001aa4 <i_1614>:
    80001aa4:	033a79bb          	remuw	s3,s4,s3

0000000080001aa8 <i_1615>:
    80001aa8:	eac12e03          	lw	t3,-340(sp)

0000000080001aac <i_1616>:
    80001aac:	eb310fa3          	sb	s3,-321(sp)

0000000080001ab0 <i_1617>:
    80001ab0:	f3da3c93          	sltiu	s9,s4,-195

0000000080001ab4 <i_1618>:
    80001ab4:	02fe69b3          	rem	s3,t3,a5

0000000080001ab8 <i_1619>:
    80001ab8:	f6211483          	lh	s1,-158(sp)

0000000080001abc <i_1620>:
    80001abc:	0d412283          	lw	t0,212(sp)

0000000080001ac0 <i_1621>:
    80001ac0:	10512c23          	sw	t0,280(sp)

0000000080001ac4 <i_1622>:
    80001ac4:	fcba2a13          	slti	s4,s4,-53

0000000080001ac8 <i_1623>:
    80001ac8:	00000013          	nop

0000000080001acc <i_1624>:
    80001acc:	76f00293          	li	t0,1903

0000000080001ad0 <i_1625>:
    80001ad0:	77200993          	li	s3,1906

0000000080001ad4 <i_1626>:
    80001ad4:	f3211a03          	lh	s4,-206(sp)

0000000080001ad8 <i_1627>:
    80001ad8:	12511423          	sh	t0,296(sp)

0000000080001adc <i_1628>:
    80001adc:	0252d063          	ble	t0,t0,80001afc <i_1636>

0000000080001ae0 <i_1629>:
    80001ae0:	00e00d93          	li	s11,14

0000000080001ae4 <i_1630>:
    80001ae4:	01bbddb3          	srl	s11,s7,s11

0000000080001ae8 <i_1631>:
    80001ae8:	034dd063          	ble	s4,s11,80001b08 <i_1639>

0000000080001aec <i_1632>:
    80001aec:	00261c93          	slli	s9,a2,0x2

0000000080001af0 <i_1633>:
    80001af0:	eb3104a3          	sb	s3,-343(sp)

0000000080001af4 <i_1634>:
    80001af4:	0c012d83          	lw	s11,192(sp)

0000000080001af8 <i_1635>:
    80001af8:	0197d663          	ble	s9,a5,80001b04 <i_1638>

0000000080001afc <i_1636>:
    80001afc:	08c15b83          	lhu	s7,140(sp)

0000000080001b00 <i_1637>:
    80001b00:	00000013          	nop

0000000080001b04 <i_1638>:
    80001b04:	f4e15d83          	lhu	s11,-178(sp)

0000000080001b08 <i_1639>:
    80001b08:	01200d93          	li	s11,18

0000000080001b0c <i_1640>:
    80001b0c:	01bd9dbb          	sllw	s11,s11,s11

0000000080001b10 <i_1641>:
    80001b10:	00128293          	addi	t0,t0,1
    80001b14:	fd32e0e3          	bltu	t0,s3,80001ad4 <i_1626>

0000000080001b18 <i_1642>:
    80001b18:	2e3de813          	ori	a6,s11,739

0000000080001b1c <i_1643>:
    80001b1c:	02ada5b3          	mulhsu	a1,s11,a0

0000000080001b20 <i_1644>:
    80001b20:	e2013d83          	ld	s11,-480(sp)

0000000080001b24 <i_1645>:
    80001b24:	17b12023          	sw	s11,352(sp)

0000000080001b28 <i_1646>:
    80001b28:	01013823          	sd	a6,16(sp)

0000000080001b2c <i_1647>:
    80001b2c:	01076db3          	or	s11,a4,a6

0000000080001b30 <i_1648>:
    80001b30:	76b00813          	li	a6,1899

0000000080001b34 <i_1649>:
    80001b34:	76e00193          	li	gp,1902

0000000080001b38 <i_1650>:
    80001b38:	006d8db3          	add	s11,s11,t1

0000000080001b3c <i_1651>:
    80001b3c:	e9816603          	lwu	a2,-360(sp)

0000000080001b40 <i_1652>:
    80001b40:	74e00313          	li	t1,1870

0000000080001b44 <i_1653>:
    80001b44:	75700c13          	li	s8,1879

0000000080001b48 <i_1654>:
    80001b48:	13b12223          	sw	s11,292(sp)

0000000080001b4c <i_1655>:
    80001b4c:	03cdde33          	divu	t3,s11,t3

0000000080001b50 <i_1656>:
    80001b50:	f4c10a23          	sb	a2,-172(sp)

0000000080001b54 <i_1657>:
    80001b54:	00130313          	addi	t1,t1,1 # b1227ed <main-0x74edd813>
    80001b58:	ff8368e3          	bltu	t1,s8,80001b48 <i_1654>

0000000080001b5c <i_1658>:
    80001b5c:	02cbd5b3          	divu	a1,s7,a2

0000000080001b60 <i_1659>:
    80001b60:	01c67a63          	bleu	t3,a2,80001b74 <i_1663>

0000000080001b64 <i_1660>:
    80001b64:	00180813          	addi	a6,a6,1
    80001b68:	fc3848e3          	blt	a6,gp,80001b38 <i_1650>

0000000080001b6c <i_1661>:
    80001b6c:	0f011023          	sh	a6,224(sp)

0000000080001b70 <i_1662>:
    80001b70:	003dce63          	blt	s11,gp,80001b8c <i_1669>

0000000080001b74 <i_1663>:
    80001b74:	02187263          	bleu	ra,a6,80001b98 <i_1672>

0000000080001b78 <i_1664>:
    80001b78:	f3711023          	sh	s7,-224(sp)

0000000080001b7c <i_1665>:
    80001b7c:	00b33db3          	sltu	s11,t1,a1

0000000080001b80 <i_1666>:
    80001b80:	0ef10a83          	lb	s5,239(sp)

0000000080001b84 <i_1667>:
    80001b84:	02cafab3          	remu	s5,s5,a2

0000000080001b88 <i_1668>:
    80001b88:	15812483          	lw	s1,344(sp)

0000000080001b8c <i_1669>:
    80001b8c:	03bcbcb3          	mulhu	s9,s9,s11

0000000080001b90 <i_1670>:
    80001b90:	01f14a83          	lbu	s5,31(sp)

0000000080001b94 <i_1671>:
    80001b94:	07e14603          	lbu	a2,126(sp)

0000000080001b98 <i_1672>:
    80001b98:	00000013          	nop

0000000080001b9c <i_1673>:
    80001b9c:	00914a83          	lbu	s5,9(sp)

0000000080001ba0 <i_1674>:
    80001ba0:	7ec00c13          	li	s8,2028

0000000080001ba4 <i_1675>:
    80001ba4:	7fe00313          	li	t1,2046

0000000080001ba8 <i_1676>:
    80001ba8:	f3813c23          	sd	s8,-200(sp)

0000000080001bac <i_1677>:
    80001bac:	029c5463          	ble	s1,s8,80001bd4 <i_1687>

0000000080001bb0 <i_1678>:
    80001bb0:	061108a3          	sb	ra,113(sp)

0000000080001bb4 <i_1679>:
    80001bb4:	ed813d83          	ld	s11,-296(sp)

0000000080001bb8 <i_1680>:
    80001bb8:	015afe63          	bleu	s5,s5,80001bd4 <i_1687>

0000000080001bbc <i_1681>:
    80001bbc:	038ce7b3          	rem	a5,s9,s8

0000000080001bc0 <i_1682>:
    80001bc0:	00000013          	nop

0000000080001bc4 <i_1683>:
    80001bc4:	a9ac7093          	andi	ra,s8,-1382

0000000080001bc8 <i_1684>:
    80001bc8:	035d80b3          	mul	ra,s11,s5

0000000080001bcc <i_1685>:
    80001bcc:	00000013          	nop

0000000080001bd0 <i_1686>:
    80001bd0:	00000013          	nop

0000000080001bd4 <i_1687>:
    80001bd4:	00600c93          	li	s9,6

0000000080001bd8 <i_1688>:
    80001bd8:	019c15b3          	sll	a1,s8,s9

0000000080001bdc <i_1689>:
    80001bdc:	001c0c13          	addi	s8,s8,1 # ffffffffba37a001 <_end+0xffffffff3a369bed>
    80001be0:	fd8354e3          	ble	s8,t1,80001ba8 <i_1676>

0000000080001be4 <i_1690>:
    80001be4:	fcc16603          	lwu	a2,-52(sp)

0000000080001be8 <i_1691>:
    80001be8:	1cb11f23          	sh	a1,478(sp)

0000000080001bec <i_1692>:
    80001bec:	18910223          	sb	s1,388(sp)

0000000080001bf0 <i_1693>:
    80001bf0:	f2611b23          	sh	t1,-202(sp)

0000000080001bf4 <i_1694>:
    80001bf4:	03864a33          	div	s4,a2,s8

0000000080001bf8 <i_1695>:
    80001bf8:	f9610803          	lb	a6,-106(sp)

0000000080001bfc <i_1696>:
    80001bfc:	02ca9063          	bne	s5,a2,80001c1c <i_1704>

0000000080001c00 <i_1697>:
    80001c00:	00c80633          	add	a2,a6,a2

0000000080001c04 <i_1698>:
    80001c04:	16013603          	ld	a2,352(sp)

0000000080001c08 <i_1699>:
    80001c08:	e6314403          	lbu	s0,-413(sp)

0000000080001c0c <i_1700>:
    80001c0c:	1cc12c23          	sw	a2,472(sp)

0000000080001c10 <i_1701>:
    80001c10:	16c13423          	sd	a2,360(sp)

0000000080001c14 <i_1702>:
    80001c14:	14c10c23          	sb	a2,344(sp)

0000000080001c18 <i_1703>:
    80001c18:	f3813803          	ld	a6,-200(sp)

0000000080001c1c <i_1704>:
    80001c1c:	0531a437          	lui	s0,0x531a

0000000080001c20 <i_1705>:
    80001c20:	0ec10b23          	sb	a2,246(sp)

0000000080001c24 <i_1706>:
    80001c24:	0f011623          	sh	a6,236(sp)

0000000080001c28 <i_1707>:
    80001c28:	03a00813          	li	a6,58

0000000080001c2c <i_1708>:
    80001c2c:	01085633          	srl	a2,a6,a6

0000000080001c30 <i_1709>:
    80001c30:	77a44513          	xori	a0,s0,1914

0000000080001c34 <i_1710>:
    80001c34:	67e8039b          	addiw	t2,a6,1662

0000000080001c38 <i_1711>:
    80001c38:	03e47433          	remu	s0,s0,t5

0000000080001c3c <i_1712>:
    80001c3c:	06611503          	lh	a0,102(sp)

0000000080001c40 <i_1713>:
    80001c40:	01043833          	sltu	a6,s0,a6

0000000080001c44 <i_1714>:
    80001c44:	f95bab93          	slti	s7,s7,-107

0000000080001c48 <i_1715>:
    80001c48:	0032941b          	slliw	s0,t0,0x3

0000000080001c4c <i_1716>:
    80001c4c:	00a6ec63          	bltu	a3,a0,80001c64 <i_1722>

0000000080001c50 <i_1717>:
    80001c50:	e5011123          	sh	a6,-446(sp)

0000000080001c54 <i_1718>:
    80001c54:	ab6afa93          	andi	s5,s5,-1354

0000000080001c58 <i_1719>:
    80001c58:	18c16a83          	lwu	s5,396(sp)

0000000080001c5c <i_1720>:
    80001c5c:	0c811423          	sh	s0,200(sp)

0000000080001c60 <i_1721>:
    80001c60:	03c16d83          	lwu	s11,60(sp)

0000000080001c64 <i_1722>:
    80001c64:	87e54b93          	xori	s7,a0,-1922

0000000080001c68 <i_1723>:
    80001c68:	10a13823          	sd	a0,272(sp)

0000000080001c6c <i_1724>:
    80001c6c:	7dd00c13          	li	s8,2013

0000000080001c70 <i_1725>:
    80001c70:	7ed00813          	li	a6,2029

0000000080001c74 <i_1726>:
    80001c74:	eec15203          	lhu	tp,-276(sp)

0000000080001c78 <i_1727>:
    80001c78:	4154043b          	subw	s0,s0,s5

0000000080001c7c <i_1728>:
    80001c7c:	82600513          	li	a0,-2010

0000000080001c80 <i_1729>:
    80001c80:	83700493          	li	s1,-1993

0000000080001c84 <i_1730>:
    80001c84:	024103bb          	mulw	t2,sp,tp

0000000080001c88 <i_1731>:
    80001c88:	9e460417          	auipc	s0,0x9e460

0000000080001c8c <i_1732>:
    80001c8c:	00150513          	addi	a0,a0,1
    80001c90:	fea4dae3          	ble	a0,s1,80001c84 <i_1730>

0000000080001c94 <i_1733>:
    80001c94:	00855e63          	ble	s0,a0,80001cb0 <i_1739>

0000000080001c98 <i_1734>:
    80001c98:	11810303          	lb	t1,280(sp)

0000000080001c9c <i_1735>:
    80001c9c:	001c0c13          	addi	s8,s8,1
    80001ca0:	fd0c6ae3          	bltu	s8,a6,80001c74 <i_1726>

0000000080001ca4 <i_1736>:
    80001ca4:	085101a3          	sb	t0,131(sp)

0000000080001ca8 <i_1737>:
    80001ca8:	00a39263          	bne	t2,a0,80001cac <i_1738>

0000000080001cac <i_1738>:
    80001cac:	f9e14e83          	lbu	t4,-98(sp)

0000000080001cb0 <i_1739>:
    80001cb0:	01300c93          	li	s9,19

0000000080001cb4 <i_1740>:
    80001cb4:	01955533          	srl	a0,a0,s9

0000000080001cb8 <i_1741>:
    80001cb8:	00700093          	li	ra,7

0000000080001cbc <i_1742>:
    80001cbc:	001c92b3          	sll	t0,s9,ra

0000000080001cc0 <i_1743>:
    80001cc0:	0d010183          	lb	gp,208(sp)

0000000080001cc4 <i_1744>:
    80001cc4:	0190b3b3          	sltu	t2,ra,s9

0000000080001cc8 <i_1745>:
    80001cc8:	ed712223          	sw	s7,-316(sp)

0000000080001ccc <i_1746>:
    80001ccc:	79300213          	li	tp,1939

0000000080001cd0 <i_1747>:
    80001cd0:	7a500093          	li	ra,1957

0000000080001cd4 <i_1748>:
    80001cd4:	03014483          	lbu	s1,48(sp)

0000000080001cd8 <i_1749>:
    80001cd8:	e9c15283          	lhu	t0,-356(sp)

0000000080001cdc <i_1750>:
    80001cdc:	e9d12023          	sw	t4,-384(sp)

0000000080001ce0 <i_1751>:
    80001ce0:	00120213          	addi	tp,tp,1 # 1 <main-0x7fffffff>
    80001ce4:	fe40d8e3          	ble	tp,ra,80001cd4 <i_1748>

0000000080001ce8 <i_1752>:
    80001ce8:	ec013083          	ld	ra,-320(sp)

0000000080001cec <i_1753>:
    80001cec:	03d0c063          	blt	ra,t4,80001d0c <i_1761>

0000000080001cf0 <i_1754>:
    80001cf0:	faa11083          	lh	ra,-86(sp)

0000000080001cf4 <i_1755>:
    80001cf4:	02500093          	li	ra,37

0000000080001cf8 <i_1756>:
    80001cf8:	00125233          	srl	tp,tp,ra

0000000080001cfc <i_1757>:
    80001cfc:	16910623          	sb	s1,364(sp)

0000000080001d00 <i_1758>:
    80001d00:	02126463          	bltu	tp,ra,80001d28 <i_1768>

0000000080001d04 <i_1759>:
    80001d04:	09714483          	lbu	s1,151(sp)

0000000080001d08 <i_1760>:
    80001d08:	00351513          	slli	a0,a0,0x3

0000000080001d0c <i_1761>:
    80001d0c:	18416483          	lwu	s1,388(sp)

0000000080001d10 <i_1762>:
    80001d10:	0ea15083          	lhu	ra,234(sp)

0000000080001d14 <i_1763>:
    80001d14:	021a20b3          	mulhsu	ra,s4,ra

0000000080001d18 <i_1764>:
    80001d18:	02a15263          	ble	a0,sp,80001d3c <i_1773>

0000000080001d1c <i_1765>:
    80001d1c:	00109263          	bne	ra,ra,80001d20 <i_1766>

0000000080001d20 <i_1766>:
    80001d20:	00200293          	li	t0,2

0000000080001d24 <i_1767>:
    80001d24:	005092bb          	sllw	t0,ra,t0

0000000080001d28 <i_1768>:
    80001d28:	001282b3          	add	t0,t0,ra

0000000080001d2c <i_1769>:
    80001d2c:	f45105a3          	sb	t0,-181(sp)

0000000080001d30 <i_1770>:
    80001d30:	003b5293          	srli	t0,s6,0x3

0000000080001d34 <i_1771>:
    80001d34:	13412d83          	lw	s11,308(sp)

0000000080001d38 <i_1772>:
    80001d38:	f5412e03          	lw	t3,-172(sp)

0000000080001d3c <i_1773>:
    80001d3c:	0292e5bb          	remw	a1,t0,s1

0000000080001d40 <i_1774>:
    80001d40:	41428eb3          	sub	t4,t0,s4

0000000080001d44 <i_1775>:
    80001d44:	85500093          	li	ra,-1963

0000000080001d48 <i_1776>:
    80001d48:	86500513          	li	a0,-1947

0000000080001d4c <i_1777>:
    80001d4c:	ed011403          	lh	s0,-304(sp)

0000000080001d50 <i_1778>:
    80001d50:	f3d11f23          	sh	t4,-194(sp)

0000000080001d54 <i_1779>:
    80001d54:	7a500293          	li	t0,1957

0000000080001d58 <i_1780>:
    80001d58:	7b700493          	li	s1,1975

0000000080001d5c <i_1781>:
    80001d5c:	00128293          	addi	t0,t0,1
    80001d60:	fe54fee3          	bleu	t0,s1,80001d5c <i_1781>

0000000080001d64 <i_1782>:
    80001d64:	55a5ce13          	xori	t3,a1,1370

0000000080001d68 <i_1783>:
    80001d68:	02d78463          	beq	a5,a3,80001d90 <i_1792>

0000000080001d6c <i_1784>:
    80001d6c:	00000013          	nop

0000000080001d70 <i_1785>:
    80001d70:	008ef433          	and	s0,t4,s0

0000000080001d74 <i_1786>:
    80001d74:	00108093          	addi	ra,ra,1 # 53538501 <main-0x2cac7aff>
    80001d78:	fc157ae3          	bleu	ra,a0,80001d4c <i_1777>

0000000080001d7c <i_1787>:
    80001d7c:	03ded23b          	divuw	tp,t4,t4

0000000080001d80 <i_1788>:
    80001d80:	03a24263          	blt	tp,s10,80001da4 <i_1797>

0000000080001d84 <i_1789>:
    80001d84:	001c5c1b          	srliw	s8,s8,0x1

0000000080001d88 <i_1790>:
    80001d88:	16711a23          	sh	t2,372(sp)

0000000080001d8c <i_1791>:
    80001d8c:	0a812983          	lw	s3,168(sp)

0000000080001d90 <i_1792>:
    80001d90:	ee416c03          	lwu	s8,-284(sp)

0000000080001d94 <i_1793>:
    80001d94:	01500793          	li	a5,21

0000000080001d98 <i_1794>:
    80001d98:	40f9de33          	sra	t3,s3,a5

0000000080001d9c <i_1795>:
    80001d9c:	01ce8463          	beq	t4,t3,80001da4 <i_1797>

0000000080001da0 <i_1796>:
    80001da0:	03312a23          	sw	s3,52(sp)

0000000080001da4 <i_1797>:
    80001da4:	17615e83          	lhu	t4,374(sp)

0000000080001da8 <i_1798>:
    80001da8:	03827eb3          	remu	t4,tp,s8

0000000080001dac <i_1799>:
    80001dac:	03345463          	ble	s3,s0,80001dd4 <i_1809>

0000000080001db0 <i_1800>:
    80001db0:	013e9463          	bne	t4,s3,80001db8 <i_1802>

0000000080001db4 <i_1801>:
    80001db4:	f9611e03          	lh	t3,-106(sp)

0000000080001db8 <i_1802>:
    80001db8:	018ef433          	and	s0,t4,s8

0000000080001dbc <i_1803>:
    80001dbc:	06011203          	lh	tp,96(sp)

0000000080001dc0 <i_1804>:
    80001dc0:	003bde9b          	srliw	t4,s7,0x3

0000000080001dc4 <i_1805>:
    80001dc4:	004ee863          	bltu	t4,tp,80001dd4 <i_1809>

0000000080001dc8 <i_1806>:
    80001dc8:	fb410b83          	lb	s7,-76(sp)

0000000080001dcc <i_1807>:
    80001dcc:	02400e93          	li	t4,36

0000000080001dd0 <i_1808>:
    80001dd0:	01d79233          	sll	tp,a5,t4

0000000080001dd4 <i_1809>:
    80001dd4:	fd410203          	lb	tp,-44(sp)

0000000080001dd8 <i_1810>:
    80001dd8:	01d24e63          	blt	tp,t4,80001df4 <i_1817>

0000000080001ddc <i_1811>:
    80001ddc:	16413c23          	sd	tp,376(sp)

0000000080001de0 <i_1812>:
    80001de0:	02424063          	blt	tp,tp,80001e00 <i_1820>

0000000080001de4 <i_1813>:
    80001de4:	e5014d83          	lbu	s11,-432(sp)

0000000080001de8 <i_1814>:
    80001de8:	01211403          	lh	s0,18(sp)

0000000080001dec <i_1815>:
    80001dec:	0ec15603          	lhu	a2,236(sp)

0000000080001df0 <i_1816>:
    80001df0:	e5813783          	ld	a5,-424(sp)

0000000080001df4 <i_1817>:
    80001df4:	10410823          	sb	tp,272(sp)

0000000080001df8 <i_1818>:
    80001df8:	417b863b          	subw	a2,s7,s7

0000000080001dfc <i_1819>:
    80001dfc:	4f67fb93          	andi	s7,a5,1270

0000000080001e00 <i_1820>:
    80001e00:	00f10463          	beq	sp,a5,80001e08 <i_1822>

0000000080001e04 <i_1821>:
    80001e04:	ea812e03          	lw	t3,-344(sp)

0000000080001e08 <i_1822>:
    80001e08:	02c7d63b          	divuw	a2,a5,a2

0000000080001e0c <i_1823>:
    80001e0c:	fbc16e03          	lwu	t3,-68(sp)

0000000080001e10 <i_1824>:
    80001e10:	02ce51b3          	divu	gp,t3,a2

0000000080001e14 <i_1825>:
    80001e14:	00161513          	slli	a0,a2,0x1

0000000080001e18 <i_1826>:
    80001e18:	0ca13823          	sd	a0,208(sp)

0000000080001e1c <i_1827>:
    80001e1c:	1707f593          	andi	a1,a5,368

0000000080001e20 <i_1828>:
    80001e20:	f0a15603          	lhu	a2,-246(sp)

0000000080001e24 <i_1829>:
    80001e24:	017d1863          	bne	s10,s7,80001e34 <i_1833>

0000000080001e28 <i_1830>:
    80001e28:	03800293          	li	t0,56

0000000080001e2c <i_1831>:
    80001e2c:	005e1a33          	sll	s4,t3,t0

0000000080001e30 <i_1832>:
    80001e30:	00f7a633          	slt	a2,a5,a5

0000000080001e34 <i_1833>:
    80001e34:	02bdddb3          	divu	s11,s11,a1

0000000080001e38 <i_1834>:
    80001e38:	11815c03          	lhu	s8,280(sp)

0000000080001e3c <i_1835>:
    80001e3c:	80500293          	li	t0,-2043

0000000080001e40 <i_1836>:
    80001e40:	81600593          	li	a1,-2026

0000000080001e44 <i_1837>:
    80001e44:	f1214a83          	lbu	s5,-238(sp)

0000000080001e48 <i_1838>:
    80001e48:	12a11f23          	sh	a0,318(sp)

0000000080001e4c <i_1839>:
    80001e4c:	01c18463          	beq	gp,t3,80001e54 <i_1841>

0000000080001e50 <i_1840>:
    80001e50:	01c2d663          	ble	t3,t0,80001e5c <i_1843>

0000000080001e54 <i_1841>:
    80001e54:	e4510383          	lb	t2,-443(sp)

0000000080001e58 <i_1842>:
    80001e58:	ef815603          	lhu	a2,-264(sp)

0000000080001e5c <i_1843>:
    80001e5c:	17e15d83          	lhu	s11,382(sp)

0000000080001e60 <i_1844>:
    80001e60:	00000013          	nop

0000000080001e64 <i_1845>:
    80001e64:	0d410e03          	lb	t3,212(sp)

0000000080001e68 <i_1846>:
    80001e68:	00128293          	addi	t0,t0,1
    80001e6c:	fcb2cce3          	blt	t0,a1,80001e44 <i_1837>

0000000080001e70 <i_1847>:
    80001e70:	15b13423          	sd	s11,328(sp)

0000000080001e74 <i_1848>:
    80001e74:	16cd8d9b          	addiw	s11,s11,364

0000000080001e78 <i_1849>:
    80001e78:	01d38eb3          	add	t4,t2,t4

0000000080001e7c <i_1850>:
    80001e7c:	012433b3          	sltu	t2,s0,s2

0000000080001e80 <i_1851>:
    80001e80:	05815e83          	lhu	t4,88(sp)

0000000080001e84 <i_1852>:
    80001e84:	15c12d83          	lw	s11,348(sp)

0000000080001e88 <i_1853>:
    80001e88:	007e9263          	bne	t4,t2,80001e8c <i_1854>

0000000080001e8c <i_1854>:
    80001e8c:	01ded263          	ble	t4,t4,80001e90 <i_1855>

0000000080001e90 <i_1855>:
    80001e90:	15f10383          	lb	t2,351(sp)

0000000080001e94 <i_1856>:
    80001e94:	85338d93          	addi	s11,t2,-1965

0000000080001e98 <i_1857>:
    80001e98:	03b1f1bb          	remuw	gp,gp,s11

0000000080001e9c <i_1858>:
    80001e9c:	18710a23          	sb	t2,404(sp)

0000000080001ea0 <i_1859>:
    80001ea0:	0f015e83          	lhu	t4,240(sp)

0000000080001ea4 <i_1860>:
    80001ea4:	0213a3b3          	mulhsu	t2,t2,ra

0000000080001ea8 <i_1861>:
    80001ea8:	05b10623          	sb	s11,76(sp)

0000000080001eac <i_1862>:
    80001eac:	e2f18613          	addi	a2,gp,-465

0000000080001eb0 <i_1863>:
    80001eb0:	09615d83          	lhu	s11,150(sp)

0000000080001eb4 <i_1864>:
    80001eb4:	eac11823          	sh	a2,-336(sp)

0000000080001eb8 <i_1865>:
    80001eb8:	0187c663          	blt	a5,s8,80001ec4 <i_1868>

0000000080001ebc <i_1866>:
    80001ebc:	4fa62d93          	slti	s11,a2,1274

0000000080001ec0 <i_1867>:
    80001ec0:	eac16783          	lwu	a5,-340(sp)

0000000080001ec4 <i_1868>:
    80001ec4:	0d110783          	lb	a5,209(sp)

0000000080001ec8 <i_1869>:
    80001ec8:	00cfda63          	ble	a2,t6,80001edc <i_1874>

0000000080001ecc <i_1870>:
    80001ecc:	007e8a63          	beq	t4,t2,80001ee0 <i_1875>

0000000080001ed0 <i_1871>:
    80001ed0:	41d083bb          	subw	t2,ra,t4

0000000080001ed4 <i_1872>:
    80001ed4:	e3812383          	lw	t2,-456(sp)

0000000080001ed8 <i_1873>:
    80001ed8:	00738663          	beq	t2,t2,80001ee4 <i_1876>

0000000080001edc <i_1874>:
    80001edc:	5bde41b7          	lui	gp,0x5bde4

0000000080001ee0 <i_1875>:
    80001ee0:	00b00513          	li	a0,11

0000000080001ee4 <i_1876>:
    80001ee4:	40acd4b3          	sra	s1,s9,a0

0000000080001ee8 <i_1877>:
    80001ee8:	003cda63          	ble	gp,s9,80001efc <i_1882>

0000000080001eec <i_1878>:
    80001eec:	13f14503          	lbu	a0,319(sp)

0000000080001ef0 <i_1879>:
    80001ef0:	01900793          	li	a5,25

0000000080001ef4 <i_1880>:
    80001ef4:	40f3de33          	sra	t3,t2,a5

0000000080001ef8 <i_1881>:
    80001ef8:	f5812e03          	lw	t3,-168(sp)

0000000080001efc <i_1882>:
    80001efc:	01600c93          	li	s9,22

0000000080001f00 <i_1883>:
    80001f00:	019cd3bb          	srlw	t2,s9,s9

0000000080001f04 <i_1884>:
    80001f04:	03ce4463          	blt	t3,t3,80001f2c <i_1894>

0000000080001f08 <i_1885>:
    80001f08:	01ccf463          	bleu	t3,s9,80001f10 <i_1887>

0000000080001f0c <i_1886>:
    80001f0c:	0073e463          	bltu	t2,t2,80001f14 <i_1888>

0000000080001f10 <i_1887>:
    80001f10:	001c9393          	slli	t2,s9,0x1

0000000080001f14 <i_1888>:
    80001f14:	0073f263          	bleu	t2,t2,80001f18 <i_1889>

0000000080001f18 <i_1889>:
    80001f18:	027cf063          	bleu	t2,s9,80001f38 <i_1897>

0000000080001f1c <i_1890>:
    80001f1c:	004c979b          	slliw	a5,s9,0x4

0000000080001f20 <i_1891>:
    80001f20:	01d7ceb3          	xor	t4,a5,t4

0000000080001f24 <i_1892>:
    80001f24:	03df5c33          	divu	s8,t5,t4

0000000080001f28 <i_1893>:
    80001f28:	09c11e83          	lh	t4,156(sp)

0000000080001f2c <i_1894>:
    80001f2c:	f2816783          	lwu	a5,-216(sp)

0000000080001f30 <i_1895>:
    80001f30:	007c0e13          	addi	t3,s8,7

0000000080001f34 <i_1896>:
    80001f34:	ffc16283          	lwu	t0,-4(sp)

0000000080001f38 <i_1897>:
    80001f38:	40385e13          	srai	t3,a6,0x3

0000000080001f3c <i_1898>:
    80001f3c:	f3510c03          	lb	s8,-203(sp)

0000000080001f40 <i_1899>:
    80001f40:	f92fca13          	xori	s4,t6,-110

0000000080001f44 <i_1900>:
    80001f44:	005a5263          	ble	t0,s4,80001f48 <i_1901>

0000000080001f48 <i_1901>:
    80001f48:	fcd10423          	sb	a3,-56(sp)

0000000080001f4c <i_1902>:
    80001f4c:	005ea233          	slt	tp,t4,t0

0000000080001f50 <i_1903>:
    80001f50:	004262b3          	or	t0,tp,tp

0000000080001f54 <i_1904>:
    80001f54:	02013e83          	ld	t4,32(sp)

0000000080001f58 <i_1905>:
    80001f58:	4042dd9b          	sraiw	s11,t0,0x4

0000000080001f5c <i_1906>:
    80001f5c:	84d00293          	li	t0,-1971

0000000080001f60 <i_1907>:
    80001f60:	85e00213          	li	tp,-1954

0000000080001f64 <i_1908>:
    80001f64:	e7d12423          	sw	t4,-408(sp)

0000000080001f68 <i_1909>:
    80001f68:	00500e93          	li	t4,5

0000000080001f6c <i_1910>:
    80001f6c:	41deddb3          	sra	s11,t4,t4

0000000080001f70 <i_1911>:
    80001f70:	00128293          	addi	t0,t0,1
    80001f74:	fe42c8e3          	blt	t0,tp,80001f64 <i_1908>

0000000080001f78 <i_1912>:
    80001f78:	e2914d83          	lbu	s11,-471(sp)

0000000080001f7c <i_1913>:
    80001f7c:	01800213          	li	tp,24

0000000080001f80 <i_1914>:
    80001f80:	004e9db3          	sll	s11,t4,tp

0000000080001f84 <i_1915>:
    80001f84:	f4016e83          	lwu	t4,-192(sp)

0000000080001f88 <i_1916>:
    80001f88:	1a113823          	sd	ra,432(sp)

0000000080001f8c <i_1917>:
    80001f8c:	09d13c23          	sd	t4,152(sp)

0000000080001f90 <i_1918>:
    80001f90:	e5812803          	lw	a6,-424(sp)

0000000080001f94 <i_1919>:
    80001f94:	01d00d93          	li	s11,29

0000000080001f98 <i_1920>:
    80001f98:	41b350bb          	sraw	ra,t1,s11

0000000080001f9c <i_1921>:
    80001f9c:	7ce00e93          	li	t4,1998

0000000080001fa0 <i_1922>:
    80001fa0:	7d400a13          	li	s4,2004

0000000080001fa4 <i_1923>:
    80001fa4:	02700313          	li	t1,39

0000000080001fa8 <i_1924>:
    80001fa8:	4060d333          	sra	t1,ra,t1

0000000080001fac <i_1925>:
    80001fac:	026e0e33          	mul	t3,t3,t1

0000000080001fb0 <i_1926>:
    80001fb0:	fb813583          	ld	a1,-72(sp)

0000000080001fb4 <i_1927>:
    80001fb4:	02b34ab3          	div	s5,t1,a1

0000000080001fb8 <i_1928>:
    80001fb8:	e3512823          	sw	s5,-464(sp)

0000000080001fbc <i_1929>:
    80001fbc:	0262523b          	divuw	tp,tp,t1

0000000080001fc0 <i_1930>:
    80001fc0:	e6111623          	sh	ra,-404(sp)

0000000080001fc4 <i_1931>:
    80001fc4:	001e8e93          	addi	t4,t4,1 # ffffffffe880d001 <_end+0xffffffff687fcbed>
    80001fc8:	fdda1ee3          	bne	s4,t4,80001fa4 <i_1923>

0000000080001fcc <i_1932>:
    80001fcc:	ed415183          	lhu	gp,-300(sp)

0000000080001fd0 <i_1933>:
    80001fd0:	14012503          	lw	a0,320(sp)

0000000080001fd4 <i_1934>:
    80001fd4:	e2816483          	lwu	s1,-472(sp)

0000000080001fd8 <i_1935>:
    80001fd8:	ee013203          	ld	tp,-288(sp)

0000000080001fdc <i_1936>:
    80001fdc:	02b31063          	bne	t1,a1,80001ffc <i_1944>

0000000080001fe0 <i_1937>:
    80001fe0:	f33106a3          	sb	s3,-211(sp)

0000000080001fe4 <i_1938>:
    80001fe4:	18c12023          	sw	a2,384(sp)

0000000080001fe8 <i_1939>:
    80001fe8:	404d03b3          	sub	t2,s10,tp

0000000080001fec <i_1940>:
    80001fec:	f4416a83          	lwu	s5,-188(sp)

0000000080001ff0 <i_1941>:
    80001ff0:	1b414483          	lbu	s1,436(sp)

0000000080001ff4 <i_1942>:
    80001ff4:	e2416d83          	lwu	s11,-476(sp)

0000000080001ff8 <i_1943>:
    80001ff8:	0096fe63          	bleu	s1,a3,80002014 <i_1950>

0000000080001ffc <i_1944>:
    80001ffc:	00500e93          	li	t4,5

0000000080002000 <i_1945>:
    80002000:	41ddd0bb          	sraw	ra,s11,t4

0000000080002004 <i_1946>:
    80002004:	fa615083          	lhu	ra,-90(sp)

0000000080002008 <i_1947>:
    80002008:	13b10b23          	sb	s11,310(sp)

000000008000200c <i_1948>:
    8000200c:	00012783          	lw	a5,0(sp)

0000000080002010 <i_1949>:
    80002010:	03414203          	lbu	tp,52(sp)

0000000080002014 <i_1950>:
    80002014:	e9615203          	lhu	tp,-362(sp)

0000000080002018 <i_1951>:
    80002018:	e9b10023          	sb	s11,-384(sp)

000000008000201c <i_1952>:
    8000201c:	88900a93          	li	s5,-1911

0000000080002020 <i_1953>:
    80002020:	89800d93          	li	s11,-1896

0000000080002024 <i_1954>:
    80002024:	00815303          	lhu	t1,8(sp)

0000000080002028 <i_1955>:
    80002028:	00a78533          	add	a0,a5,a0

000000008000202c <i_1956>:
    8000202c:	03edd0bb          	divuw	ra,s11,t5

0000000080002030 <i_1957>:
    80002030:	0265c5b3          	div	a1,a1,t1

0000000080002034 <i_1958>:
    80002034:	00000013          	nop

0000000080002038 <i_1959>:
    80002038:	fdb12e23          	sw	s11,-36(sp)

000000008000203c <i_1960>:
    8000203c:	00000013          	nop

0000000080002040 <i_1961>:
    80002040:	00000013          	nop

0000000080002044 <i_1962>:
    80002044:	00459793          	slli	a5,a1,0x4

0000000080002048 <i_1963>:
    80002048:	03839663          	bne	t2,s8,80002074 <i_1973>

000000008000204c <i_1964>:
    8000204c:	001a8a93          	addi	s5,s5,1
    80002050:	fd5ddae3          	ble	s5,s11,80002024 <i_1954>

0000000080002054 <i_1965>:
    80002054:	e4514283          	lbu	t0,-443(sp)

0000000080002058 <i_1966>:
    80002058:	ea914c03          	lbu	s8,-343(sp)

000000008000205c <i_1967>:
    8000205c:	e2f12823          	sw	a5,-464(sp)

0000000080002060 <i_1968>:
    80002060:	8c92f393          	andi	t2,t0,-1847

0000000080002064 <i_1969>:
    80002064:	7d538b93          	addi	s7,t2,2005

0000000080002068 <i_1970>:
    80002068:	0273b3b3          	mulhu	t2,t2,t2

000000008000206c <i_1971>:
    8000206c:	18710023          	sb	t2,384(sp)

0000000080002070 <i_1972>:
    80002070:	03b00b93          	li	s7,59

0000000080002074 <i_1973>:
    80002074:	017bd3b3          	srl	t2,s7,s7

0000000080002078 <i_1974>:
    80002078:	007ee663          	bltu	t4,t2,80002084 <i_1977>

000000008000207c <i_1975>:
    8000207c:	1d910183          	lb	gp,473(sp)

0000000080002080 <i_1976>:
    80002080:	00e00393          	li	t2,14

0000000080002084 <i_1977>:
    80002084:	4073d3bb          	sraw	t2,t2,t2

0000000080002088 <i_1978>:
    80002088:	00719c63          	bne	gp,t2,800020a0 <i_1984>

000000008000208c <i_1979>:
    8000208c:	8f71c393          	xori	t2,gp,-1801

0000000080002090 <i_1980>:
    80002090:	002843b3          	xor	t2,a6,sp

0000000080002094 <i_1981>:
    80002094:	0273cc3b          	divw	s8,t2,t2

0000000080002098 <i_1982>:
    80002098:	0184d663          	ble	s8,s1,800020a4 <i_1985>

000000008000209c <i_1983>:
    8000209c:	027383b3          	mul	t2,t2,t2

00000000800020a0 <i_1984>:
    800020a0:	039c1263          	bne	s8,s9,800020c4 <i_1993>

00000000800020a4 <i_1985>:
    800020a4:	17013403          	ld	s0,368(sp)

00000000800020a8 <i_1986>:
    800020a8:	0073ea63          	bltu	t2,t2,800020bc <i_1991>

00000000800020ac <i_1987>:
    800020ac:	e7015383          	lhu	t2,-400(sp)

00000000800020b0 <i_1988>:
    800020b0:	0073ce63          	blt	t2,t2,800020cc <i_1995>

00000000800020b4 <i_1989>:
    800020b4:	4013d393          	srai	t2,t2,0x1

00000000800020b8 <i_1990>:
    800020b8:	0073cc63          	blt	t2,t2,800020d0 <i_1996>

00000000800020bc <i_1991>:
    800020bc:	e2710723          	sb	t2,-466(sp)

00000000800020c0 <i_1992>:
    800020c0:	0ef11b23          	sh	a5,246(sp)

00000000800020c4 <i_1993>:
    800020c4:	00000013          	nop

00000000800020c8 <i_1994>:
    800020c8:	fac12303          	lw	t1,-84(sp)

00000000800020cc <i_1995>:
    800020cc:	00000013          	nop

00000000800020d0 <i_1996>:
    800020d0:	fc615303          	lhu	t1,-58(sp)

00000000800020d4 <i_1997>:
    800020d4:	03c30333          	mul	t1,t1,t3

00000000800020d8 <i_1998>:
    800020d8:	82500413          	li	s0,-2011

00000000800020dc <i_1999>:
    800020dc:	82800993          	li	s3,-2008

00000000800020e0 <i_2000>:
    800020e0:	e87108a3          	sb	t2,-367(sp)

00000000800020e4 <i_2001>:
    800020e4:	f9312223          	sw	s3,-124(sp)

00000000800020e8 <i_2002>:
    800020e8:	82300393          	li	t2,-2013

00000000800020ec <i_2003>:
    800020ec:	82700593          	li	a1,-2009

00000000800020f0 <i_2004>:
    800020f0:	18610ea3          	sb	t1,413(sp)

00000000800020f4 <i_2005>:
    800020f4:	001d151b          	slliw	a0,s10,0x1

00000000800020f8 <i_2006>:
    800020f8:	00000013          	nop

00000000800020fc <i_2007>:
    800020fc:	10b0a337          	lui	t1,0x10b0a

0000000080002100 <i_2008>:
    80002100:	00138393          	addi	t2,t2,1
    80002104:	fe75f6e3          	bleu	t2,a1,800020f0 <i_2004>

0000000080002108 <i_2009>:
    80002108:	0363633b          	remw	t1,t1,s6

000000008000210c <i_2010>:
    8000210c:	00140413          	addi	s0,s0,1 # 1e461c89 <main-0x61b9e377>
    80002110:	fd3468e3          	bltu	s0,s3,800020e0 <i_2000>

0000000080002114 <i_2011>:
    80002114:	fdf11523          	sh	t6,-54(sp)

0000000080002118 <i_2012>:
    80002118:	04914d83          	lbu	s11,73(sp)

000000008000211c <i_2013>:
    8000211c:	40135d9b          	sraiw	s11,t1,0x1

0000000080002120 <i_2014>:
    80002120:	e3410e03          	lb	t3,-460(sp)

0000000080002124 <i_2015>:
    80002124:	004dd21b          	srliw	tp,s11,0x4

0000000080002128 <i_2016>:
    80002128:	01326333          	or	t1,tp,s3

000000008000212c <i_2017>:
    8000212c:	01be1e63          	bne	t3,s11,80002148 <i_2024>

0000000080002130 <i_2018>:
    80002130:	00654863          	blt	a0,t1,80002140 <i_2022>

0000000080002134 <i_2019>:
    80002134:	00000013          	nop

0000000080002138 <i_2020>:
    80002138:	efc13423          	sd	t3,-280(sp)

000000008000213c <i_2021>:
    8000213c:	0b813d83          	ld	s11,184(sp)

0000000080002140 <i_2022>:
    80002140:	0ca15b83          	lhu	s7,202(sp)

0000000080002144 <i_2023>:
    80002144:	1e214b83          	lbu	s7,482(sp)

0000000080002148 <i_2024>:
    80002148:	0171a1b3          	slt	gp,gp,s7

000000008000214c <i_2025>:
    8000214c:	f4411403          	lh	s0,-188(sp)

0000000080002150 <i_2026>:
    80002150:	86100e13          	li	t3,-1951

0000000080002154 <i_2027>:
    80002154:	86e00213          	li	tp,-1938

0000000080002158 <i_2028>:
    80002158:	20946b93          	ori	s7,s0,521

000000008000215c <i_2029>:
    8000215c:	73d1ae93          	slti	t4,gp,1853

0000000080002160 <i_2030>:
    80002160:	1e415183          	lhu	gp,484(sp)

0000000080002164 <i_2031>:
    80002164:	0a816e83          	lwu	t4,168(sp)

0000000080002168 <i_2032>:
    80002168:	11d14303          	lbu	t1,285(sp)

000000008000216c <i_2033>:
    8000216c:	406f033b          	subw	t1,t5,t1

0000000080002170 <i_2034>:
    80002170:	f2311923          	sh	gp,-206(sp)

0000000080002174 <i_2035>:
    80002174:	008bc263          	blt	s7,s0,80002178 <i_2036>

0000000080002178 <i_2036>:
    80002178:	01d00313          	li	t1,29

000000008000217c <i_2037>:
    8000217c:	0069133b          	sllw	t1,s2,t1

0000000080002180 <i_2038>:
    80002180:	001e0e13          	addi	t3,t3,1
    80002184:	fdc21ae3          	bne	tp,t3,80002158 <i_2028>

0000000080002188 <i_2039>:
    80002188:	00000013          	nop

000000008000218c <i_2040>:
    8000218c:	ee011403          	lh	s0,-288(sp)

0000000080002190 <i_2041>:
    80002190:	0bf10303          	lb	t1,191(sp)

0000000080002194 <i_2042>:
    80002194:	10f14403          	lbu	s0,271(sp)

0000000080002198 <i_2043>:
    80002198:	1e614303          	lbu	t1,486(sp)

000000008000219c <i_2044>:
    8000219c:	026471bb          	remuw	gp,s0,t1

00000000800021a0 <i_2045>:
    800021a0:	00335393          	srli	t2,t1,0x3

00000000800021a4 <i_2046>:
    800021a4:	14813c23          	sd	s0,344(sp)

00000000800021a8 <i_2047>:
    800021a8:	ca71ce93          	xori	t4,gp,-857

00000000800021ac <i_2048>:
    800021ac:	00630433          	add	s0,t1,t1

00000000800021b0 <i_2049>:
    800021b0:	008ef4b3          	and	s1,t4,s0

00000000800021b4 <i_2050>:
    800021b4:	01d8d463          	ble	t4,a7,800021bc <i_2052>

00000000800021b8 <i_2051>:
    800021b8:	003ea333          	slt	t1,t4,gp

00000000800021bc <i_2052>:
    800021bc:	ea114e83          	lbu	t4,-351(sp)

00000000800021c0 <i_2053>:
    800021c0:	ff214803          	lbu	a6,-14(sp)

00000000800021c4 <i_2054>:
    800021c4:	03714983          	lbu	s3,55(sp)

00000000800021c8 <i_2055>:
    800021c8:	1dd12c23          	sw	t4,472(sp)

00000000800021cc <i_2056>:
    800021cc:	07d12023          	sw	t4,96(sp)

00000000800021d0 <i_2057>:
    800021d0:	05814583          	lbu	a1,88(sp)

00000000800021d4 <i_2058>:
    800021d4:	02f847b3          	div	a5,a6,a5

00000000800021d8 <i_2059>:
    800021d8:	84b00313          	li	t1,-1973

00000000800021dc <i_2060>:
    800021dc:	84f00d93          	li	s11,-1969

00000000800021e0 <i_2061>:
    800021e0:	4029d81b          	sraiw	a6,s3,0x2

00000000800021e4 <i_2062>:
    800021e4:	030ef063          	bleu	a6,t4,80002204 <i_2070>

00000000800021e8 <i_2063>:
    800021e8:	004ed49b          	srliw	s1,t4,0x4

00000000800021ec <i_2064>:
    800021ec:	00500c13          	li	s8,5

00000000800021f0 <i_2065>:
    800021f0:	0187d83b          	srlw	a6,a5,s8

00000000800021f4 <i_2066>:
    800021f4:	0015979b          	slliw	a5,a1,0x1

00000000800021f8 <i_2067>:
    800021f8:	01c00993          	li	s3,28

00000000800021fc <i_2068>:
    800021fc:	01349ebb          	sllw	t4,s1,s3

0000000080002200 <i_2069>:
    80002200:	ebd100a3          	sb	t4,-351(sp)

0000000080002204 <i_2070>:
    80002204:	01400e93          	li	t4,20

0000000080002208 <i_2071>:
    80002208:	01ded0b3          	srl	ra,t4,t4

000000008000220c <i_2072>:
    8000220c:	00130313          	addi	t1,t1,1 # 10b0a001 <main-0x6f4f5fff>
    80002210:	fc6df8e3          	bleu	t1,s11,800021e0 <i_2061>

0000000080002214 <i_2073>:
    80002214:	0032d993          	srli	s3,t0,0x3

0000000080002218 <i_2074>:
    80002218:	01398863          	beq	s3,s3,80002228 <i_2078>

000000008000221c <i_2075>:
    8000221c:	f6813083          	ld	ra,-152(sp)

0000000080002220 <i_2076>:
    80002220:	01800093          	li	ra,24

0000000080002224 <i_2077>:
    80002224:	00199abb          	sllw	s5,s3,ra

0000000080002228 <i_2078>:
    80002228:	0399d833          	divu	a6,s3,s9

000000008000222c <i_2079>:
    8000222c:	e276a0b7          	lui	ra,0xe276a

0000000080002230 <i_2080>:
    80002230:	034ad463          	ble	s4,s5,80002258 <i_2090>

0000000080002234 <i_2081>:
    80002234:	f2416083          	lwu	ra,-220(sp)

0000000080002238 <i_2082>:
    80002238:	021eecb3          	rem	s9,t4,ra

000000008000223c <i_2083>:
    8000223c:	0300ecbb          	remw	s9,ra,a6

0000000080002240 <i_2084>:
    80002240:	00186263          	bltu	a6,ra,80002244 <i_2085>

0000000080002244 <i_2085>:
    80002244:	06e15483          	lhu	s1,110(sp)

0000000080002248 <i_2086>:
    80002248:	039df83b          	remuw	a6,s11,s9

000000008000224c <i_2087>:
    8000224c:	07710803          	lb	a6,119(sp)

0000000080002250 <i_2088>:
    80002250:	f4413023          	sd	tp,-192(sp)

0000000080002254 <i_2089>:
    80002254:	01a00a93          	li	s5,26

0000000080002258 <i_2090>:
    80002258:	015292b3          	sll	t0,t0,s5

000000008000225c <i_2091>:
    8000225c:	0c513823          	sd	t0,208(sp)

0000000080002260 <i_2092>:
    80002260:	7cc00093          	li	ra,1996

0000000080002264 <i_2093>:
    80002264:	7d500213          	li	tp,2005

0000000080002268 <i_2094>:
    80002268:	f7d14483          	lbu	s1,-131(sp)

000000008000226c <i_2095>:
    8000226c:	0e416303          	lwu	t1,228(sp)

0000000080002270 <i_2096>:
    80002270:	006ac263          	blt	s5,t1,80002274 <i_2097>

0000000080002274 <i_2097>:
    80002274:	0dc14303          	lbu	t1,220(sp)

0000000080002278 <i_2098>:
    80002278:	16613c23          	sd	t1,376(sp)

000000008000227c <i_2099>:
    8000227c:	ece14303          	lbu	t1,-306(sp)

0000000080002280 <i_2100>:
    80002280:	0261d1bb          	divuw	gp,gp,t1

0000000080002284 <i_2101>:
    80002284:	4023531b          	sraiw	t1,t1,0x2

0000000080002288 <i_2102>:
    80002288:	19013183          	ld	gp,400(sp)

000000008000228c <i_2103>:
    8000228c:	00000013          	nop

0000000080002290 <i_2104>:
    80002290:	00108093          	addi	ra,ra,1 # ffffffffe276a001 <_end+0xffffffff62759bed>
    80002294:	fc121ae3          	bne	tp,ra,80002268 <i_2094>

0000000080002298 <i_2105>:
    80002298:	ece10d83          	lb	s11,-306(sp)

000000008000229c <i_2106>:
    8000229c:	08013183          	ld	gp,128(sp)

00000000800022a0 <i_2107>:
    800022a0:	006d8463          	beq	s11,t1,800022a8 <i_2109>

00000000800022a4 <i_2108>:
    800022a4:	f2013c83          	ld	s9,-224(sp)

00000000800022a8 <i_2109>:
    800022a8:	03bc9263          	bne	s9,s11,800022cc <i_2118>

00000000800022ac <i_2110>:
    800022ac:	fc312023          	sw	gp,-64(sp)

00000000800022b0 <i_2111>:
    800022b0:	03bcd1bb          	divuw	gp,s9,s11

00000000800022b4 <i_2112>:
    800022b4:	f8816c83          	lwu	s9,-120(sp)

00000000800022b8 <i_2113>:
    800022b8:	12312c23          	sw	gp,312(sp)

00000000800022bc <i_2114>:
    800022bc:	d0fb8b93          	addi	s7,s7,-753 # cd41b0e3 <_end+0x4d40accf>

00000000800022c0 <i_2115>:
    800022c0:	00000013          	nop

00000000800022c4 <i_2116>:
    800022c4:	00000013          	nop

00000000800022c8 <i_2117>:
    800022c8:	edb12e23          	sw	s11,-292(sp)

00000000800022cc <i_2118>:
    800022cc:	00000013          	nop

00000000800022d0 <i_2119>:
    800022d0:	40265813          	srai	a6,a2,0x2

00000000800022d4 <i_2120>:
    800022d4:	74500513          	li	a0,1861

00000000800022d8 <i_2121>:
    800022d8:	74700293          	li	t0,1863

00000000800022dc <i_2122>:
    800022dc:	f3c13023          	sd	t3,-224(sp)

00000000800022e0 <i_2123>:
    800022e0:	09c12a23          	sw	t3,148(sp)

00000000800022e4 <i_2124>:
    800022e4:	0d010d23          	sb	a6,218(sp)

00000000800022e8 <i_2125>:
    800022e8:	ff0102a3          	sb	a6,-27(sp)

00000000800022ec <i_2126>:
    800022ec:	01600b93          	li	s7,22

00000000800022f0 <i_2127>:
    800022f0:	4173d23b          	sraw	tp,t2,s7

00000000800022f4 <i_2128>:
    800022f4:	03c4f4b3          	remu	s1,s1,t3

00000000800022f8 <i_2129>:
    800022f8:	fac11483          	lh	s1,-84(sp)

00000000800022fc <i_2130>:
    800022fc:	ec011b83          	lh	s7,-320(sp)

0000000080002300 <i_2131>:
    80002300:	00150513          	addi	a0,a0,1
    80002304:	fc556ce3          	bltu	a0,t0,800022dc <i_2122>

0000000080002308 <i_2132>:
    80002308:	0094c463          	blt	s1,s1,80002310 <i_2134>

000000008000230c <i_2133>:
    8000230c:	01710483          	lb	s1,23(sp)

0000000080002310 <i_2134>:
    80002310:	0e912623          	sw	s1,236(sp)

0000000080002314 <i_2135>:
    80002314:	0014d493          	srli	s1,s1,0x1

0000000080002318 <i_2136>:
    80002318:	1a911d23          	sh	s1,442(sp)

000000008000231c <i_2137>:
    8000231c:	4e64f493          	andi	s1,s1,1254

0000000080002320 <i_2138>:
    80002320:	40e104b3          	sub	s1,sp,a4

0000000080002324 <i_2139>:
    80002324:	00900493          	li	s1,9

0000000080002328 <i_2140>:
    80002328:	009494bb          	sllw	s1,s1,s1

000000008000232c <i_2141>:
    8000232c:	ebe10b83          	lb	s7,-322(sp)

0000000080002330 <i_2142>:
    80002330:	009bdc63          	ble	s1,s7,80002348 <i_2148>

0000000080002334 <i_2143>:
    80002334:	0b712823          	sw	s7,176(sp)

0000000080002338 <i_2144>:
    80002338:	02f4d263          	ble	a5,s1,8000235c <i_2153>

000000008000233c <i_2145>:
    8000233c:	a364c813          	xori	a6,s1,-1482

0000000080002340 <i_2146>:
    80002340:	0e211483          	lh	s1,226(sp)

0000000080002344 <i_2147>:
    80002344:	19614483          	lbu	s1,406(sp)

0000000080002348 <i_2148>:
    80002348:	0094f4b3          	and	s1,s1,s1

000000008000234c <i_2149>:
    8000234c:	f3a12423          	sw	s10,-216(sp)

0000000080002350 <i_2150>:
    80002350:	e1e15983          	lhu	s3,-482(sp)

0000000080002354 <i_2151>:
    80002354:	18913023          	sd	s1,384(sp)

0000000080002358 <i_2152>:
    80002358:	030a81b3          	mul	gp,s5,a6

000000008000235c <i_2153>:
    8000235c:	033984b3          	mul	s1,s3,s3

0000000080002360 <i_2154>:
    80002360:	51b48a13          	addi	s4,s1,1307

0000000080002364 <i_2155>:
    80002364:	023a77bb          	remuw	a5,s4,gp

0000000080002368 <i_2156>:
    80002368:	f4415483          	lhu	s1,-188(sp)

000000008000236c <i_2157>:
    8000236c:	01d00193          	li	gp,29

0000000080002370 <i_2158>:
    80002370:	003151b3          	srl	gp,sp,gp

0000000080002374 <i_2159>:
    80002374:	ac144413          	xori	s0,s0,-1343

0000000080002378 <i_2160>:
    80002378:	eea15603          	lhu	a2,-278(sp)

000000008000237c <i_2161>:
    8000237c:	006d01b3          	add	gp,s10,t1

0000000080002380 <i_2162>:
    80002380:	0281e1b3          	rem	gp,gp,s0

0000000080002384 <i_2163>:
    80002384:	00866863          	bltu	a2,s0,80002394 <i_2167>

0000000080002388 <i_2164>:
    80002388:	1d015d83          	lhu	s11,464(sp)

000000008000238c <i_2165>:
    8000238c:	0fb12e23          	sw	s11,252(sp)

0000000080002390 <i_2166>:
    80002390:	00341663          	bne	s0,gp,8000239c <i_2169>

0000000080002394 <i_2167>:
    80002394:	023191b3          	mulh	gp,gp,gp

0000000080002398 <i_2168>:
    80002398:	00319663          	bne	gp,gp,800023a4 <i_2171>

000000008000239c <i_2169>:
    8000239c:	03b11b23          	sh	s11,54(sp)

00000000800023a0 <i_2170>:
    800023a0:	01b1f5b3          	and	a1,gp,s11

00000000800023a4 <i_2171>:
    800023a4:	00359663          	bne	a1,gp,800023b0 <i_2174>

00000000800023a8 <i_2172>:
    800023a8:	fab13023          	sd	a1,-96(sp)

00000000800023ac <i_2173>:
    800023ac:	003b6863          	bltu	s6,gp,800023bc <i_2177>

00000000800023b0 <i_2174>:
    800023b0:	02bf1e33          	mulh	t3,t5,a1

00000000800023b4 <i_2175>:
    800023b4:	003dda63          	ble	gp,s11,800023c8 <i_2180>

00000000800023b8 <i_2176>:
    800023b8:	01ba9663          	bne	s5,s11,800023c4 <i_2179>

00000000800023bc <i_2177>:
    800023bc:	00359e13          	slli	t3,a1,0x3

00000000800023c0 <i_2178>:
    800023c0:	01b2e863          	bltu	t0,s11,800023d0 <i_2182>

00000000800023c4 <i_2179>:
    800023c4:	0231d063          	ble	gp,gp,800023e4 <i_2187>

00000000800023c8 <i_2180>:
    800023c8:	319e7c13          	andi	s8,t3,793

00000000800023cc <i_2181>:
    800023cc:	03b1e063          	bltu	gp,s11,800023ec <i_2189>

00000000800023d0 <i_2182>:
    800023d0:	0e812a03          	lw	s4,232(sp)

00000000800023d4 <i_2183>:
    800023d4:	01b12023          	sw	s11,0(sp)

00000000800023d8 <i_2184>:
    800023d8:	09413423          	sd	s4,136(sp)

00000000800023dc <i_2185>:
    800023dc:	bb08819b          	addiw	gp,a7,-1104

00000000800023e0 <i_2186>:
    800023e0:	12910983          	lb	s3,297(sp)

00000000800023e4 <i_2187>:
    800023e4:	034c0063          	beq	s8,s4,80002404 <i_2195>

00000000800023e8 <i_2188>:
    800023e8:	05416c03          	lwu	s8,84(sp)

00000000800023ec <i_2189>:
    800023ec:	17a15303          	lhu	t1,378(sp)

00000000800023f0 <i_2190>:
    800023f0:	02331463          	bne	t1,gp,80002418 <i_2200>

00000000800023f4 <i_2191>:
    800023f4:	1b416983          	lwu	s3,436(sp)

00000000800023f8 <i_2192>:
    800023f8:	01519c63          	bne	gp,s5,80002410 <i_2198>

00000000800023fc <i_2193>:
    800023fc:	026c0463          	beq	s8,t1,80002424 <i_2203>

0000000080002400 <i_2194>:
    80002400:	ea310823          	sb	gp,-336(sp)

0000000080002404 <i_2195>:
    80002404:	013c6e63          	bltu	s8,s3,80002420 <i_2202>

0000000080002408 <i_2196>:
    80002408:	01329263          	bne	t0,s3,8000240c <i_2197>

000000008000240c <i_2197>:
    8000240c:	18210383          	lb	t2,386(sp)

0000000080002410 <i_2198>:
    80002410:	41818bbb          	subw	s7,gp,s8

0000000080002414 <i_2199>:
    80002414:	033bf463          	bleu	s3,s7,8000243c <i_2209>

0000000080002418 <i_2200>:
    80002418:	e5013603          	ld	a2,-432(sp)

000000008000241c <i_2201>:
    8000241c:	02c66c33          	rem	s8,a2,a2

0000000080002420 <i_2202>:
    80002420:	1d812223          	sw	s8,452(sp)

0000000080002424 <i_2203>:
    80002424:	0386463b          	divw	a2,a2,s8

0000000080002428 <i_2204>:
    80002428:	fec10c23          	sb	a2,-8(sp)

000000008000242c <i_2205>:
    8000242c:	004c1193          	slli	gp,s8,0x4

0000000080002430 <i_2206>:
    80002430:	01fc0263          	beq	s8,t6,80002434 <i_2207>

0000000080002434 <i_2207>:
    80002434:	43c7ba13          	sltiu	s4,a5,1084

0000000080002438 <i_2208>:
    80002438:	036a6abb          	remw	s5,s4,s6

000000008000243c <i_2209>:
    8000243c:	003bdc63          	ble	gp,s7,80002454 <i_2215>

0000000080002440 <i_2210>:
    80002440:	003a21b3          	slt	gp,s4,gp

0000000080002444 <i_2211>:
    80002444:	00c00193          	li	gp,12

0000000080002448 <i_2212>:
    80002448:	0031983b          	sllw	a6,gp,gp

000000008000244c <i_2213>:
    8000244c:	034ac9b3          	div	s3,s5,s4

0000000080002450 <i_2214>:
    80002450:	0041919b          	slliw	gp,gp,0x4

0000000080002454 <i_2215>:
    80002454:	014989b3          	add	s3,s3,s4

0000000080002458 <i_2216>:
    80002458:	00000013          	nop

000000008000245c <i_2217>:
    8000245c:	fa011183          	lh	gp,-96(sp)

0000000080002460 <i_2218>:
    80002460:	87400a13          	li	s4,-1932

0000000080002464 <i_2219>:
    80002464:	87f00e13          	li	t3,-1921

0000000080002468 <i_2220>:
    80002468:	8d6b0297          	auipc	t0,0x8d6b0

000000008000246c <i_2221>:
    8000246c:	02a50533          	mul	a0,a0,a0

0000000080002470 <i_2222>:
    80002470:	41478cbb          	subw	s9,a5,s4

0000000080002474 <i_2223>:
    80002474:	403e5813          	srai	a6,t3,0x3

0000000080002478 <i_2224>:
    80002478:	ed012423          	sw	a6,-312(sp)

000000008000247c <i_2225>:
    8000247c:	0c511923          	sh	t0,210(sp)

0000000080002480 <i_2226>:
    80002480:	0e415803          	lhu	a6,228(sp)

0000000080002484 <i_2227>:
    80002484:	0296c263          	blt	a3,s1,800024a8 <i_2235>

0000000080002488 <i_2228>:
    80002488:	02ae0263          	beq	t3,a0,800024ac <i_2236>

000000008000248c <i_2229>:
    8000248c:	06a13c23          	sd	a0,120(sp)

0000000080002490 <i_2230>:
    80002490:	f1912023          	sw	s9,-256(sp)

0000000080002494 <i_2231>:
    80002494:	001a0a13          	addi	s4,s4,1
    80002498:	fd4e58e3          	ble	s4,t3,80002468 <i_2220>

000000008000249c <i_2232>:
    8000249c:	02b50a3b          	mulw	s4,a0,a1

00000000800024a0 <i_2233>:
    800024a0:	0e411583          	lh	a1,228(sp)

00000000800024a4 <i_2234>:
    800024a4:	ff011803          	lh	a6,-16(sp)

00000000800024a8 <i_2235>:
    800024a8:	ea813583          	ld	a1,-344(sp)

00000000800024ac <i_2236>:
    800024ac:	04813a03          	ld	s4,72(sp)

00000000800024b0 <i_2237>:
    800024b0:	f5415383          	lhu	t2,-172(sp)

00000000800024b4 <i_2238>:
    800024b4:	04414a03          	lbu	s4,68(sp)

00000000800024b8 <i_2239>:
    800024b8:	fc213023          	sd	sp,-64(sp)

00000000800024bc <i_2240>:
    800024bc:	029a14b3          	mulh	s1,s4,s1

00000000800024c0 <i_2241>:
    800024c0:	0bd14a03          	lbu	s4,189(sp)

00000000800024c4 <i_2242>:
    800024c4:	07410a23          	sb	s4,116(sp)

00000000800024c8 <i_2243>:
    800024c8:	0f1a7a13          	andi	s4,s4,241

00000000800024cc <i_2244>:
    800024cc:	007a0c63          	beq	s4,t2,800024e4 <i_2250>

00000000800024d0 <i_2245>:
    800024d0:	ef611603          	lh	a2,-266(sp)

00000000800024d4 <i_2246>:
    800024d4:	0bd13c23          	sd	t4,184(sp)

00000000800024d8 <i_2247>:
    800024d8:	0349b9b3          	mulhu	s3,s3,s4

00000000800024dc <i_2248>:
    800024dc:	033dd9b3          	divu	s3,s11,s3

00000000800024e0 <i_2249>:
    800024e0:	f1d9f993          	andi	s3,s3,-227

00000000800024e4 <i_2250>:
    800024e4:	b77ca9b7          	lui	s3,0xb77ca

00000000800024e8 <i_2251>:
    800024e8:	00000013          	nop

00000000800024ec <i_2252>:
    800024ec:	7cc1e993          	ori	s3,gp,1996

00000000800024f0 <i_2253>:
    800024f0:	74700b93          	li	s7,1863

00000000800024f4 <i_2254>:
    800024f4:	75000813          	li	a6,1872

00000000800024f8 <i_2255>:
    800024f8:	001b8b93          	addi	s7,s7,1
    800024fc:	ff785ee3          	ble	s7,a6,800024f8 <i_2255>

0000000080002500 <i_2256>:
    80002500:	0049d493          	srli	s1,s3,0x4

0000000080002504 <i_2257>:
    80002504:	00181b9b          	slliw	s7,a6,0x1

0000000080002508 <i_2258>:
    80002508:	010b9263          	bne	s7,a6,8000250c <i_2259>

000000008000250c <i_2259>:
    8000250c:	00d00393          	li	t2,13

0000000080002510 <i_2260>:
    80002510:	00749c33          	sll	s8,s1,t2

0000000080002514 <i_2261>:
    80002514:	005b8a63          	beq	s7,t0,80002528 <i_2266>

0000000080002518 <i_2262>:
    80002518:	fa813b83          	ld	s7,-88(sp)

000000008000251c <i_2263>:
    8000251c:	e3013503          	ld	a0,-464(sp)

0000000080002520 <i_2264>:
    80002520:	039c4ab3          	div	s5,s8,s9

0000000080002524 <i_2265>:
    80002524:	f3510ea3          	sb	s5,-195(sp)

0000000080002528 <i_2266>:
    80002528:	01813503          	ld	a0,24(sp)

000000008000252c <i_2267>:
    8000252c:	02310a83          	lb	s5,35(sp)

0000000080002530 <i_2268>:
    80002530:	f7414a83          	lbu	s5,-140(sp)

0000000080002534 <i_2269>:
    80002534:	03881c33          	mulh	s8,a6,s8

0000000080002538 <i_2270>:
    80002538:	038c6c33          	rem	s8,s8,s8

000000008000253c <i_2271>:
    8000253c:	015c6a63          	bltu	s8,s5,80002550 <i_2276>

0000000080002540 <i_2272>:
    80002540:	17810ca3          	sb	s8,377(sp)

0000000080002544 <i_2273>:
    80002544:	ed5104a3          	sb	s5,-311(sp)

0000000080002548 <i_2274>:
    80002548:	06412283          	lw	t0,100(sp)

000000008000254c <i_2275>:
    8000254c:	00550c63          	beq	a0,t0,80002564 <i_2281>

0000000080002550 <i_2276>:
    80002550:	15912e23          	sw	s9,348(sp)

0000000080002554 <i_2277>:
    80002554:	f0432313          	slti	t1,t1,-252

0000000080002558 <i_2278>:
    80002558:	fd813823          	sd	s8,-48(sp)

000000008000255c <i_2279>:
    8000255c:	06011603          	lh	a2,96(sp)

0000000080002560 <i_2280>:
    80002560:	e6511323          	sh	t0,-410(sp)

0000000080002564 <i_2281>:
    80002564:	029af63b          	remuw	a2,s5,s1

0000000080002568 <i_2282>:
    80002568:	e3512c23          	sw	s5,-456(sp)

000000008000256c <i_2283>:
    8000256c:	7d800493          	li	s1,2008

0000000080002570 <i_2284>:
    80002570:	7e000293          	li	t0,2016

0000000080002574 <i_2285>:
    80002574:	0242f063          	bleu	tp,t0,80002594 <i_2292>

0000000080002578 <i_2286>:
    80002578:	f4e11603          	lh	a2,-178(sp)

000000008000257c <i_2287>:
    8000257c:	00000013          	nop

0000000080002580 <i_2288>:
    80002580:	00148493          	addi	s1,s1,1
    80002584:	fe54e8e3          	bltu	s1,t0,80002574 <i_2285>

0000000080002588 <i_2289>:
    80002588:	eca15983          	lhu	s3,-310(sp)

000000008000258c <i_2290>:
    8000258c:	1a912423          	sw	s1,424(sp)

0000000080002590 <i_2291>:
    80002590:	13e15a83          	lhu	s5,318(sp)

0000000080002594 <i_2292>:
    80002594:	03585263          	ble	s5,a6,800025b8 <i_2301>

0000000080002598 <i_2293>:
    80002598:	0d415383          	lhu	t2,212(sp)

000000008000259c <i_2294>:
    8000259c:	027a9ab3          	mulh	s5,s5,t2

00000000800025a0 <i_2295>:
    800025a0:	feb10083          	lb	ra,-21(sp)

00000000800025a4 <i_2296>:
    800025a4:	1b511823          	sh	s5,432(sp)

00000000800025a8 <i_2297>:
    800025a8:	02d0f833          	remu	a6,ra,a3

00000000800025ac <i_2298>:
    800025ac:	0e813e83          	ld	t4,232(sp)

00000000800025b0 <i_2299>:
    800025b0:	0010ea63          	bltu	ra,ra,800025c4 <i_2304>

00000000800025b4 <i_2300>:
    800025b4:	e7416203          	lwu	tp,-396(sp)

00000000800025b8 <i_2301>:
    800025b8:	0dd10aa3          	sb	t4,213(sp)

00000000800025bc <i_2302>:
    800025bc:	15a10e83          	lb	t4,346(sp)

00000000800025c0 <i_2303>:
    800025c0:	fb511a23          	sh	s5,-76(sp)

00000000800025c4 <i_2304>:
    800025c4:	fd811a23          	sh	s8,-44(sp)

00000000800025c8 <i_2305>:
    800025c8:	024de83b          	remw	a6,s11,tp

00000000800025cc <i_2306>:
    800025cc:	04c16e03          	lwu	t3,76(sp)

00000000800025d0 <i_2307>:
    800025d0:	01d14d83          	lbu	s11,29(sp)

00000000800025d4 <i_2308>:
    800025d4:	03ca4e3b          	divw	t3,s4,t3

00000000800025d8 <i_2309>:
    800025d8:	03de0eb3          	mul	t4,t3,t4

00000000800025dc <i_2310>:
    800025dc:	85f00213          	li	tp,-1953

00000000800025e0 <i_2311>:
    800025e0:	86a00a13          	li	s4,-1942

00000000800025e4 <i_2312>:
    800025e4:	01be6e33          	or	t3,t3,s11

00000000800025e8 <i_2313>:
    800025e8:	f8710d83          	lb	s11,-121(sp)

00000000800025ec <i_2314>:
    800025ec:	01cdda63          	ble	t3,s11,80002600 <i_2319>

00000000800025f0 <i_2315>:
    800025f0:	005eceb3          	xor	t4,t4,t0

00000000800025f4 <i_2316>:
    800025f4:	0a611383          	lh	t2,166(sp)

00000000800025f8 <i_2317>:
    800025f8:	e2014183          	lbu	gp,-480(sp)

00000000800025fc <i_2318>:
    800025fc:	00000013          	nop

0000000080002600 <i_2319>:
    80002600:	023a7dbb          	remuw	s11,s4,gp

0000000080002604 <i_2320>:
    80002604:	03f1cdbb          	divw	s11,gp,t6

0000000080002608 <i_2321>:
    80002608:	00120213          	addi	tp,tp,1 # 1 <main-0x7fffffff>
    8000260c:	fd426ce3          	bltu	tp,s4,800025e4 <i_2312>

0000000080002610 <i_2322>:
    80002610:	034e7463          	bleu	s4,t3,80002638 <i_2332>

0000000080002614 <i_2323>:
    80002614:	14011e03          	lh	t3,320(sp)

0000000080002618 <i_2324>:
    80002618:	03fea2b3          	mulhsu	t0,t4,t6

000000008000261c <i_2325>:
    8000261c:	02ce71b3          	remu	gp,t3,a2

0000000080002620 <i_2326>:
    80002620:	fb811183          	lh	gp,-72(sp)

0000000080002624 <i_2327>:
    80002624:	00411023          	sh	tp,0(sp)

0000000080002628 <i_2328>:
    80002628:	0372dbbb          	divuw	s7,t0,s7

000000008000262c <i_2329>:
    8000262c:	ea314983          	lbu	s3,-349(sp)

0000000080002630 <i_2330>:
    80002630:	0e9103a3          	sb	s1,231(sp)

0000000080002634 <i_2331>:
    80002634:	03c35abb          	divuw	s5,t1,t3

0000000080002638 <i_2332>:
    80002638:	17611e03          	lh	t3,374(sp)

000000008000263c <i_2333>:
    8000263c:	f3013403          	ld	s0,-208(sp)

0000000080002640 <i_2334>:
    80002640:	75000e93          	li	t4,1872

0000000080002644 <i_2335>:
    80002644:	76300313          	li	t1,1891

0000000080002648 <i_2336>:
    80002648:	402e559b          	sraiw	a1,t3,0x2

000000008000264c <i_2337>:
    8000264c:	02e00293          	li	t0,46

0000000080002650 <i_2338>:
    80002650:	0051dab3          	srl	s5,gp,t0

0000000080002654 <i_2339>:
    80002654:	001e8e93          	addi	t4,t4,1
    80002658:	ffd378e3          	bleu	t4,t1,80002648 <i_2336>

000000008000265c <i_2340>:
    8000265c:	00900793          	li	a5,9

0000000080002660 <i_2341>:
    80002660:	40f2debb          	sraw	t4,t0,a5

0000000080002664 <i_2342>:
    80002664:	012a1263          	bne	s4,s2,80002668 <i_2343>

0000000080002668 <i_2343>:
    80002668:	ee714e83          	lbu	t4,-281(sp)

000000008000266c <i_2344>:
    8000266c:	14510123          	sb	t0,322(sp)

0000000080002670 <i_2345>:
    80002670:	fa411c03          	lh	s8,-92(sp)

0000000080002674 <i_2346>:
    80002674:	038ad063          	ble	s8,s5,80002694 <i_2354>

0000000080002678 <i_2347>:
    80002678:	02d11523          	sh	a3,42(sp)

000000008000267c <i_2348>:
    8000267c:	01c2ec63          	bltu	t0,t3,80002694 <i_2354>

0000000080002680 <i_2349>:
    80002680:	0d813023          	sd	s8,192(sp)

0000000080002684 <i_2350>:
    80002684:	1a810823          	sb	s0,432(sp)

0000000080002688 <i_2351>:
    80002688:	01810623          	sb	s8,12(sp)

000000008000268c <i_2352>:
    8000268c:	00315c13          	srli	s8,sp,0x3

0000000080002690 <i_2353>:
    80002690:	018c3c33          	sltu	s8,s8,s8

0000000080002694 <i_2354>:
    80002694:	00000013          	nop

0000000080002698 <i_2355>:
    80002698:	40538ebb          	subw	t4,t2,t0

000000008000269c <i_2356>:
    8000269c:	84100413          	li	s0,-1983

00000000800026a0 <i_2357>:
    800026a0:	84500293          	li	t0,-1979

00000000800026a4 <i_2358>:
    800026a4:	e5812223          	sw	s8,-444(sp)

00000000800026a8 <i_2359>:
    800026a8:	03d2f063          	bleu	t4,t0,800026c8 <i_2366>

00000000800026ac <i_2360>:
    800026ac:	00140413          	addi	s0,s0,1
    800026b0:	fe541ae3          	bne	s0,t0,800026a4 <i_2358>

00000000800026b4 <i_2361>:
    800026b4:	0082f663          	bleu	s0,t0,800026c0 <i_2364>

00000000800026b8 <i_2362>:
    800026b8:	03a00793          	li	a5,58

00000000800026bc <i_2363>:
    800026bc:	00f45eb3          	srl	t4,s0,a5

00000000800026c0 <i_2364>:
    800026c0:	41d58ab3          	sub	s5,a1,t4

00000000800026c4 <i_2365>:
    800026c4:	416e8c3b          	subw	s8,t4,s6

00000000800026c8 <i_2366>:
    800026c8:	e22100a3          	sb	sp,-479(sp)

00000000800026cc <i_2367>:
    800026cc:	021c7263          	bleu	ra,s8,800026f0 <i_2376>

00000000800026d0 <i_2368>:
    800026d0:	00f44333          	xor	t1,s0,a5

00000000800026d4 <i_2369>:
    800026d4:	ff510b23          	sb	s5,-10(sp)

00000000800026d8 <i_2370>:
    800026d8:	006e4863          	blt	t3,t1,800026e8 <i_2374>

00000000800026dc <i_2371>:
    800026dc:	41530c3b          	subw	s8,t1,s5

00000000800026e0 <i_2372>:
    800026e0:	06816e03          	lwu	t3,104(sp)

00000000800026e4 <i_2373>:
    800026e4:	03ce4263          	blt	t3,t3,80002708 <i_2382>

00000000800026e8 <i_2374>:
    800026e8:	ee014a83          	lbu	s5,-288(sp)

00000000800026ec <i_2375>:
    800026ec:	01cc6a63          	bltu	s8,t3,80002700 <i_2380>

00000000800026f0 <i_2376>:
    800026f0:	f8c16e03          	lwu	t3,-116(sp)

00000000800026f4 <i_2377>:
    800026f4:	e3513823          	sd	s5,-464(sp)

00000000800026f8 <i_2378>:
    800026f8:	035c4063          	blt	s8,s5,80002718 <i_2386>

00000000800026fc <i_2379>:
    800026fc:	09013a83          	ld	s5,144(sp)

0000000080002700 <i_2380>:
    80002700:	10016803          	lwu	a6,256(sp)

0000000080002704 <i_2381>:
    80002704:	ccf0f293          	andi	t0,ra,-817

0000000080002708 <i_2382>:
    80002708:	403c5193          	srai	gp,s8,0x3

000000008000270c <i_2383>:
    8000270c:	0e512c23          	sw	t0,248(sp)

0000000080002710 <i_2384>:
    80002710:	f0412083          	lw	ra,-252(sp)

0000000080002714 <i_2385>:
    80002714:	01009263          	bne	ra,a6,80002718 <i_2386>

0000000080002718 <i_2386>:
    80002718:	00384533          	xor	a0,a6,gp

000000008000271c <i_2387>:
    8000271c:	0f013783          	ld	a5,240(sp)

0000000080002720 <i_2388>:
    80002720:	f5013023          	sd	a6,-192(sp)

0000000080002724 <i_2389>:
    80002724:	00200313          	li	t1,2

0000000080002728 <i_2390>:
    80002728:	4061da3b          	sraw	s4,gp,t1

000000008000272c <i_2391>:
    8000272c:	00d00a13          	li	s4,13

0000000080002730 <i_2392>:
    80002730:	014a52bb          	srlw	t0,s4,s4

0000000080002734 <i_2393>:
    80002734:	fe613023          	sd	t1,-32(sp)

0000000080002738 <i_2394>:
    80002738:	18211a03          	lh	s4,386(sp)

000000008000273c <i_2395>:
    8000273c:	014a74b3          	and	s1,s4,s4

0000000080002740 <i_2396>:
    80002740:	00508c63          	beq	ra,t0,80002758 <i_2402>

0000000080002744 <i_2397>:
    80002744:	0344e4b3          	rem	s1,s1,s4

0000000080002748 <i_2398>:
    80002748:	10015483          	lhu	s1,256(sp)

000000008000274c <i_2399>:
    8000274c:	fca11e03          	lh	t3,-54(sp)

0000000080002750 <i_2400>:
    80002750:	03ca3a33          	mulhu	s4,s4,t3

0000000080002754 <i_2401>:
    80002754:	fc9108a3          	sb	s1,-47(sp)

0000000080002758 <i_2402>:
    80002758:	0054ca63          	blt	s1,t0,8000276c <i_2407>

000000008000275c <i_2403>:
    8000275c:	1d514e03          	lbu	t3,469(sp)

0000000080002760 <i_2404>:
    80002760:	0bc11023          	sh	t3,160(sp)

0000000080002764 <i_2405>:
    80002764:	12913423          	sd	s1,296(sp)

0000000080002768 <i_2406>:
    80002768:	06513423          	sd	t0,104(sp)

000000008000276c <i_2407>:
    8000276c:	eb013e03          	ld	t3,-336(sp)

0000000080002770 <i_2408>:
    80002770:	00de6c63          	bltu	t3,a3,80002788 <i_2414>

0000000080002774 <i_2409>:
    80002774:	01ce5463          	ble	t3,t3,8000277c <i_2411>

0000000080002778 <i_2410>:
    80002778:	15d14303          	lbu	t1,349(sp)

000000008000277c <i_2411>:
    8000277c:	1c314a03          	lbu	s4,451(sp)

0000000080002780 <i_2412>:
    80002780:	01c6e333          	or	t1,a3,t3

0000000080002784 <i_2413>:
    80002784:	01c48e63          	beq	s1,t3,800027a0 <i_2420>

0000000080002788 <i_2414>:
    80002788:	fd012483          	lw	s1,-48(sp)

000000008000278c <i_2415>:
    8000278c:	f7d14c83          	lbu	s9,-131(sp)

0000000080002790 <i_2416>:
    80002790:	4094833b          	subw	t1,s1,s1

0000000080002794 <i_2417>:
    80002794:	f5912823          	sw	s9,-176(sp)

0000000080002798 <i_2418>:
    80002798:	1c015a83          	lhu	s5,448(sp)

000000008000279c <i_2419>:
    8000279c:	019aa433          	slt	s0,s5,s9

00000000800027a0 <i_2420>:
    800027a0:	ec610aa3          	sb	t1,-299(sp)

00000000800027a4 <i_2421>:
    800027a4:	fb415983          	lhu	s3,-76(sp)

00000000800027a8 <i_2422>:
    800027a8:	00311a9b          	slliw	s5,sp,0x3

00000000800027ac <i_2423>:
    800027ac:	0e812303          	lw	t1,232(sp)

00000000800027b0 <i_2424>:
    800027b0:	ea612823          	sw	t1,-336(sp)

00000000800027b4 <i_2425>:
    800027b4:	11c12403          	lw	s0,284(sp)

00000000800027b8 <i_2426>:
    800027b8:	e3c16303          	lwu	t1,-452(sp)

00000000800027bc <i_2427>:
    800027bc:	0df14303          	lbu	t1,223(sp)

00000000800027c0 <i_2428>:
    800027c0:	03325333          	divu	t1,tp,s3

00000000800027c4 <i_2429>:
    800027c4:	0069ca63          	blt	s3,t1,800027d8 <i_2434>

00000000800027c8 <i_2430>:
    800027c8:	0263033b          	mulw	t1,t1,t1

00000000800027cc <i_2431>:
    800027cc:	0043159b          	slliw	a1,t1,0x4

00000000800027d0 <i_2432>:
    800027d0:	0069f7b3          	and	a5,s3,t1

00000000800027d4 <i_2433>:
    800027d4:	0e612623          	sw	t1,236(sp)

00000000800027d8 <i_2434>:
    800027d8:	02634063          	blt	t1,t1,800027f8 <i_2442>

00000000800027dc <i_2435>:
    800027dc:	e1c15183          	lhu	gp,-484(sp)

00000000800027e0 <i_2436>:
    800027e0:	fe613023          	sd	t1,-32(sp)

00000000800027e4 <i_2437>:
    800027e4:	7b4b051b          	addiw	a0,s6,1972

00000000800027e8 <i_2438>:
    800027e8:	e4a12023          	sw	a0,-448(sp)

00000000800027ec <i_2439>:
    800027ec:	3583a793          	slti	a5,t2,856

00000000800027f0 <i_2440>:
    800027f0:	08c16c03          	lwu	s8,140(sp)

00000000800027f4 <i_2441>:
    800027f4:	00bc6663          	bltu	s8,a1,80002800 <i_2444>

00000000800027f8 <i_2442>:
    800027f8:	00841663          	bne	s0,s0,80002804 <i_2445>

00000000800027fc <i_2443>:
    800027fc:	033dcdb3          	div	s11,s11,s3

0000000080002800 <i_2444>:
    80002800:	c20e4417          	auipc	s0,0xc20e4

0000000080002804 <i_2445>:
    80002804:	03ac4463          	blt	s8,s10,8000282c <i_2455>

0000000080002808 <i_2446>:
    80002808:	d25ba993          	slti	s3,s7,-731

000000008000280c <i_2447>:
    8000280c:	008d9a63          	bne	s11,s0,80002820 <i_2452>

0000000080002810 <i_2448>:
    80002810:	0034141b          	slliw	s0,s0,0x3

0000000080002814 <i_2449>:
    80002814:	0089c463          	blt	s3,s0,8000281c <i_2451>

0000000080002818 <i_2450>:
    80002818:	fc211723          	sh	sp,-50(sp)

000000008000281c <i_2451>:
    8000281c:	0e8106a3          	sb	s0,237(sp)

0000000080002820 <i_2452>:
    80002820:	09312223          	sw	s3,132(sp)

0000000080002824 <i_2453>:
    80002824:	00125663          	ble	ra,tp,80002830 <i_2456>

0000000080002828 <i_2454>:
    80002828:	f2813403          	ld	s0,-216(sp)

000000008000282c <i_2455>:
    8000282c:	01be9863          	bne	t4,s11,8000283c <i_2459>

0000000080002830 <i_2456>:
    80002830:	01313823          	sd	s3,16(sp)

0000000080002834 <i_2457>:
    80002834:	02b9fdbb          	remuw	s11,s3,a1

0000000080002838 <i_2458>:
    80002838:	02898263          	beq	s3,s0,8000285c <i_2467>

000000008000283c <i_2459>:
    8000283c:	0bc12983          	lw	s3,188(sp)

0000000080002840 <i_2460>:
    80002840:	01344263          	blt	s0,s3,80002844 <i_2461>

0000000080002844 <i_2461>:
    80002844:	e5012d83          	lw	s11,-432(sp)

0000000080002848 <i_2462>:
    80002848:	404dd21b          	sraiw	tp,s11,0x4

000000008000284c <i_2463>:
    8000284c:	0137e3b3          	or	t2,a5,s3

0000000080002850 <i_2464>:
    80002850:	13012383          	lw	t2,304(sp)

0000000080002854 <i_2465>:
    80002854:	00000013          	nop

0000000080002858 <i_2466>:
    80002858:	68d3ae93          	slti	t4,t2,1677

000000008000285c <i_2467>:
    8000285c:	fc815c03          	lhu	s8,-56(sp)

0000000080002860 <i_2468>:
    80002860:	b04e6093          	ori	ra,t3,-1276

0000000080002864 <i_2469>:
    80002864:	72d00513          	li	a0,1837

0000000080002868 <i_2470>:
    80002868:	74100593          	li	a1,1857

000000008000286c <i_2471>:
    8000286c:	e8813283          	ld	t0,-376(sp)

0000000080002870 <i_2472>:
    80002870:	01c5b0b3          	sltu	ra,a1,t3

0000000080002874 <i_2473>:
    80002874:	7b600393          	li	t2,1974

0000000080002878 <i_2474>:
    80002878:	7c100e13          	li	t3,1985

000000008000287c <i_2475>:
    8000287c:	004e1e93          	slli	t4,t3,0x4

0000000080002880 <i_2476>:
    80002880:	00138393          	addi	t2,t2,1
    80002884:	fe7e7ce3          	bleu	t2,t3,8000287c <i_2475>

0000000080002888 <i_2477>:
    80002888:	17012c03          	lw	s8,368(sp)

000000008000288c <i_2478>:
    8000288c:	00150513          	addi	a0,a0,1
    80002890:	fcb56ee3          	bltu	a0,a1,8000286c <i_2471>

0000000080002894 <i_2479>:
    80002894:	0252de33          	divu	t3,t0,t0

0000000080002898 <i_2480>:
    80002898:	efc13023          	sd	t3,-288(sp)

000000008000289c <i_2481>:
    8000289c:	01c09463          	bne	ra,t3,800028a4 <i_2483>

00000000800028a0 <i_2482>:
    800028a0:	12110fa3          	sb	ra,319(sp)

00000000800028a4 <i_2483>:
    800028a4:	e9c12023          	sw	t3,-384(sp)

00000000800028a8 <i_2484>:
    800028a8:	0011de63          	ble	ra,gp,800028c4 <i_2491>

00000000800028ac <i_2485>:
    800028ac:	01400193          	li	gp,20

00000000800028b0 <i_2486>:
    800028b0:	0032de3b          	srlw	t3,t0,gp

00000000800028b4 <i_2487>:
    800028b4:	16b14e03          	lbu	t3,363(sp)

00000000800028b8 <i_2488>:
    800028b8:	03ce4263          	blt	t3,t3,800028dc <i_2497>

00000000800028bc <i_2489>:
    800028bc:	023e5063          	ble	gp,t3,800028dc <i_2497>

00000000800028c0 <i_2490>:
    800028c0:	03ce3233          	mulhu	tp,t3,t3

00000000800028c4 <i_2491>:
    800028c4:	004241b3          	xor	gp,tp,tp

00000000800028c8 <i_2492>:
    800028c8:	f4c10203          	lb	tp,-180(sp)

00000000800028cc <i_2493>:
    800028cc:	ff010a23          	sb	a6,-12(sp)

00000000800028d0 <i_2494>:
    800028d0:	e6313c23          	sd	gp,-392(sp)

00000000800028d4 <i_2495>:
    800028d4:	08013503          	ld	a0,128(sp)

00000000800028d8 <i_2496>:
    800028d8:	00600193          	li	gp,6

00000000800028dc <i_2497>:
    800028dc:	003191bb          	sllw	gp,gp,gp

00000000800028e0 <i_2498>:
    800028e0:	19211d83          	lh	s11,402(sp)

00000000800028e4 <i_2499>:
    800028e4:	021b79bb          	remuw	s3,s6,ra

00000000800028e8 <i_2500>:
    800028e8:	022d9db3          	mulh	s11,s11,sp

00000000800028ec <i_2501>:
    800028ec:	41998db3          	sub	s11,s3,s9

00000000800028f0 <i_2502>:
    800028f0:	013de463          	bltu	s11,s3,800028f8 <i_2504>

00000000800028f4 <i_2503>:
    800028f4:	01400993          	li	s3,20

00000000800028f8 <i_2504>:
    800028f8:	4139ddb3          	sra	s11,s3,s3

00000000800028fc <i_2505>:
    800028fc:	00299293          	slli	t0,s3,0x2

0000000080002900 <i_2506>:
    80002900:	0f510a03          	lb	s4,245(sp)

0000000080002904 <i_2507>:
    80002904:	1da10303          	lb	t1,474(sp)

0000000080002908 <i_2508>:
    80002908:	7a500293          	li	t0,1957

000000008000290c <i_2509>:
    8000290c:	7ad00993          	li	s3,1965

0000000080002910 <i_2510>:
    80002910:	e8a10383          	lb	t2,-374(sp)

0000000080002914 <i_2511>:
    80002914:	e6412c23          	sw	tp,-392(sp)

0000000080002918 <i_2512>:
    80002918:	85700a13          	li	s4,-1961

000000008000291c <i_2513>:
    8000291c:	86400d93          	li	s11,-1948

0000000080002920 <i_2514>:
    80002920:	f6215e03          	lhu	t3,-158(sp)

0000000080002924 <i_2515>:
    80002924:	00634333          	xor	t1,t1,t1

0000000080002928 <i_2516>:
    80002928:	4053033b          	subw	t1,t1,t0

000000008000292c <i_2517>:
    8000292c:	001a0a13          	addi	s4,s4,1
    80002930:	ffba68e3          	bltu	s4,s11,80002920 <i_2514>

0000000080002934 <i_2518>:
    80002934:	e2415383          	lhu	t2,-476(sp)

0000000080002938 <i_2519>:
    80002938:	00b00313          	li	t1,11

000000008000293c <i_2520>:
    8000293c:	006e51bb          	srlw	gp,t3,t1

0000000080002940 <i_2521>:
    80002940:	00128293          	addi	t0,t0,1 # d6b2469 <main-0x7294db97>
    80002944:	fc59f6e3          	bleu	t0,s3,80002910 <i_2510>

0000000080002948 <i_2522>:
    80002948:	f4612c23          	sw	t1,-168(sp)

000000008000294c <i_2523>:
    8000294c:	0c815403          	lhu	s0,200(sp)

0000000080002950 <i_2524>:
    80002950:	08412c83          	lw	s9,132(sp)

0000000080002954 <i_2525>:
    80002954:	00000013          	nop

0000000080002958 <i_2526>:
    80002958:	75700613          	li	a2,1879

000000008000295c <i_2527>:
    8000295c:	76a00813          	li	a6,1898

0000000080002960 <i_2528>:
    80002960:	17a15d83          	lhu	s11,378(sp)

0000000080002964 <i_2529>:
    80002964:	0e813b83          	ld	s7,232(sp)

0000000080002968 <i_2530>:
    80002968:	00000013          	nop

000000008000296c <i_2531>:
    8000296c:	84400413          	li	s0,-1980

0000000080002970 <i_2532>:
    80002970:	84700093          	li	ra,-1977

0000000080002974 <i_2533>:
    80002974:	023851b3          	divu	gp,a6,gp

0000000080002978 <i_2534>:
    80002978:	0172e1b3          	or	gp,t0,s7

000000008000297c <i_2535>:
    8000297c:	ff711523          	sh	s7,-22(sp)

0000000080002980 <i_2536>:
    80002980:	4021d193          	srai	gp,gp,0x2

0000000080002984 <i_2537>:
    80002984:	02319663          	bne	gp,gp,800029b0 <i_2546>

0000000080002988 <i_2538>:
    80002988:	00140413          	addi	s0,s0,1 # 420e6801 <main-0x3df197ff>
    8000298c:	fe8094e3          	bne	ra,s0,80002974 <i_2533>

0000000080002990 <i_2539>:
    80002990:	f3c16183          	lwu	gp,-196(sp)

0000000080002994 <i_2540>:
    80002994:	0231f1b3          	remu	gp,gp,gp

0000000080002998 <i_2541>:
    80002998:	f6d10123          	sb	a3,-158(sp)

000000008000299c <i_2542>:
    8000299c:	00160613          	addi	a2,a2,1 # 4f15c001 <main-0x30ea3fff>
    800029a0:	fd0610e3          	bne	a2,a6,80002960 <i_2528>

00000000800029a4 <i_2543>:
    800029a4:	0031e1b3          	or	gp,gp,gp

00000000800029a8 <i_2544>:
    800029a8:	21a18c9b          	addiw	s9,gp,538

00000000800029ac <i_2545>:
    800029ac:	00300a13          	li	s4,3

00000000800029b0 <i_2546>:
    800029b0:	0141d63b          	srlw	a2,gp,s4

00000000800029b4 <i_2547>:
    800029b4:	f2c11583          	lh	a1,-212(sp)

00000000800029b8 <i_2548>:
    800029b8:	86900413          	li	s0,-1943

00000000800029bc <i_2549>:
    800029bc:	87500e93          	li	t4,-1931

00000000800029c0 <i_2550>:
    800029c0:	5bb44193          	xori	gp,s0,1467

00000000800029c4 <i_2551>:
    800029c4:	003a5c9b          	srliw	s9,s4,0x3

00000000800029c8 <i_2552>:
    800029c8:	1d913c23          	sd	s9,472(sp)

00000000800029cc <i_2553>:
    800029cc:	01a5d263          	ble	s10,a1,800029d0 <i_2554>

00000000800029d0 <i_2554>:
    800029d0:	03f5d833          	divu	a6,a1,t6

00000000800029d4 <i_2555>:
    800029d4:	1ab11323          	sh	a1,422(sp)

00000000800029d8 <i_2556>:
    800029d8:	00000013          	nop

00000000800029dc <i_2557>:
    800029dc:	034a1463          	bne	s4,s4,80002a04 <i_2566>

00000000800029e0 <i_2558>:
    800029e0:	034ce263          	bltu	s9,s4,80002a04 <i_2566>

00000000800029e4 <i_2559>:
    800029e4:	00140413          	addi	s0,s0,1
    800029e8:	fdd44ce3          	blt	s0,t4,800029c0 <i_2550>

00000000800029ec <i_2560>:
    800029ec:	1a813183          	ld	gp,424(sp)

00000000800029f0 <i_2561>:
    800029f0:	00000013          	nop

00000000800029f4 <i_2562>:
    800029f4:	ebc12483          	lw	s1,-324(sp)

00000000800029f8 <i_2563>:
    800029f8:	19012e23          	sw	a6,412(sp)

00000000800029fc <i_2564>:
    800029fc:	0fe15803          	lhu	a6,254(sp)

0000000080002a00 <i_2565>:
    80002a00:	e7611183          	lh	gp,-394(sp)

0000000080002a04 <i_2566>:
    80002a04:	19013183          	ld	gp,400(sp)

0000000080002a08 <i_2567>:
    80002a08:	fe310803          	lb	a6,-29(sp)

0000000080002a0c <i_2568>:
    80002a0c:	7bf00a13          	li	s4,1983

0000000080002a10 <i_2569>:
    80002a10:	7cc00e13          	li	t3,1996

0000000080002a14 <i_2570>:
    80002a14:	e9013823          	sd	a6,-368(sp)

0000000080002a18 <i_2571>:
    80002a18:	01085a63          	ble	a6,a6,80002a2c <i_2575>

0000000080002a1c <i_2572>:
    80002a1c:	001a0a13          	addi	s4,s4,1
    80002a20:	ffca4ae3          	blt	s4,t3,80002a14 <i_2570>

0000000080002a24 <i_2573>:
    80002a24:	0034d463          	ble	gp,s1,80002a2c <i_2575>

0000000080002a28 <i_2574>:
    80002a28:	0031da63          	ble	gp,gp,80002a3c <i_2579>

0000000080002a2c <i_2575>:
    80002a2c:	05816183          	lwu	gp,88(sp)

0000000080002a30 <i_2576>:
    80002a30:	f8013183          	ld	gp,-128(sp)

0000000080002a34 <i_2577>:
    80002a34:	78a8019b          	addiw	gp,a6,1930

0000000080002a38 <i_2578>:
    80002a38:	409484bb          	subw	s1,s1,s1

0000000080002a3c <i_2579>:
    80002a3c:	00000013          	nop

0000000080002a40 <i_2580>:
    80002a40:	ff012483          	lw	s1,-16(sp)

0000000080002a44 <i_2581>:
    80002a44:	85b00193          	li	gp,-1957

0000000080002a48 <i_2582>:
    80002a48:	86c00213          	li	tp,-1940

0000000080002a4c <i_2583>:
    80002a4c:	00000013          	nop

0000000080002a50 <i_2584>:
    80002a50:	06c11823          	sh	a2,112(sp)

0000000080002a54 <i_2585>:
    80002a54:	7a400b93          	li	s7,1956

0000000080002a58 <i_2586>:
    80002a58:	7b100613          	li	a2,1969

0000000080002a5c <i_2587>:
    80002a5c:	f0714e83          	lbu	t4,-249(sp)

0000000080002a60 <i_2588>:
    80002a60:	25a4fa13          	andi	s4,s1,602

0000000080002a64 <i_2589>:
    80002a64:	01700993          	li	s3,23

0000000080002a68 <i_2590>:
    80002a68:	013ddcbb          	srlw	s9,s11,s3

0000000080002a6c <i_2591>:
    80002a6c:	001b8b93          	addi	s7,s7,1
    80002a70:	ff7676e3          	bleu	s7,a2,80002a5c <i_2587>

0000000080002a74 <i_2592>:
    80002a74:	034de063          	bltu	s11,s4,80002a94 <i_2599>

0000000080002a78 <i_2593>:
    80002a78:	09615d83          	lhu	s11,150(sp)

0000000080002a7c <i_2594>:
    80002a7c:	0339c063          	blt	s3,s3,80002a9c <i_2601>

0000000080002a80 <i_2595>:
    80002a80:	00118193          	addi	gp,gp,1 # 5bde4001 <main-0x2421bfff>
    80002a84:	fc41c4e3          	blt	gp,tp,80002a4c <i_2583>

0000000080002a88 <i_2596>:
    80002a88:	19312823          	sw	s3,400(sp)

0000000080002a8c <i_2597>:
    80002a8c:	05c10583          	lb	a1,92(sp)

0000000080002a90 <i_2598>:
    80002a90:	00159993          	slli	s3,a1,0x1

0000000080002a94 <i_2599>:
    80002a94:	01bb37b3          	sltu	a5,s6,s11

0000000080002a98 <i_2600>:
    80002a98:	fca11983          	lh	s3,-54(sp)

0000000080002a9c <i_2601>:
    80002a9c:	f6c12c03          	lw	s8,-148(sp)

0000000080002aa0 <i_2602>:
    80002aa0:	12014e83          	lbu	t4,288(sp)

0000000080002aa4 <i_2603>:
    80002aa4:	81d00c93          	li	s9,-2019

0000000080002aa8 <i_2604>:
    80002aa8:	83000d93          	li	s11,-2000

0000000080002aac <i_2605>:
    80002aac:	00000013          	nop

0000000080002ab0 <i_2606>:
    80002ab0:	00000013          	nop

0000000080002ab4 <i_2607>:
    80002ab4:	77e00793          	li	a5,1918

0000000080002ab8 <i_2608>:
    80002ab8:	78600393          	li	t2,1926

0000000080002abc <i_2609>:
    80002abc:	00000013          	nop

0000000080002ac0 <i_2610>:
    80002ac0:	00000013          	nop

0000000080002ac4 <i_2611>:
    80002ac4:	00000013          	nop

0000000080002ac8 <i_2612>:
    80002ac8:	f1d14303          	lbu	t1,-227(sp)

0000000080002acc <i_2613>:
    80002acc:	00178793          	addi	a5,a5,1
    80002ad0:	fe77c6e3          	blt	a5,t2,80002abc <i_2609>

0000000080002ad4 <i_2614>:
    80002ad4:	eb013583          	ld	a1,-336(sp)

0000000080002ad8 <i_2615>:
    80002ad8:	001c8c93          	addi	s9,s9,1
    80002adc:	fdbcc8e3          	blt	s9,s11,80002aac <i_2605>

0000000080002ae0 <i_2616>:
    80002ae0:	03d78463          	beq	a5,t4,80002b08 <i_2626>

0000000080002ae4 <i_2617>:
    80002ae4:	01bed663          	ble	s11,t4,80002af0 <i_2620>

0000000080002ae8 <i_2618>:
    80002ae8:	00fddc63          	ble	a5,s11,80002b00 <i_2624>

0000000080002aec <i_2619>:
    80002aec:	1e012083          	lw	ra,480(sp)

0000000080002af0 <i_2620>:
    80002af0:	007c6bb3          	or	s7,s8,t2

0000000080002af4 <i_2621>:
    80002af4:	e2510c03          	lb	s8,-475(sp)

0000000080002af8 <i_2622>:
    80002af8:	038bfc3b          	remuw	s8,s7,s8

0000000080002afc <i_2623>:
    80002afc:	e9013383          	ld	t2,-368(sp)

0000000080002b00 <i_2624>:
    80002b00:	ee816503          	lwu	a0,-280(sp)

0000000080002b04 <i_2625>:
    80002b04:	16814483          	lbu	s1,360(sp)

0000000080002b08 <i_2626>:
    80002b08:	038c6e33          	rem	t3,s8,s8

0000000080002b0c <i_2627>:
    80002b0c:	4034dc9b          	sraiw	s9,s1,0x3

0000000080002b10 <i_2628>:
    80002b10:	001e0e33          	add	t3,t3,ra

0000000080002b14 <i_2629>:
    80002b14:	019cf463          	bleu	s9,s9,80002b1c <i_2631>

0000000080002b18 <i_2630>:
    80002b18:	00ad0633          	add	a2,s10,a0

0000000080002b1c <i_2631>:
    80002b1c:	f3c11a23          	sh	t3,-204(sp)

0000000080002b20 <i_2632>:
    80002b20:	03c64e3b          	divw	t3,a2,t3

0000000080002b24 <i_2633>:
    80002b24:	00c8d663          	ble	a2,a7,80002b30 <i_2636>

0000000080002b28 <i_2634>:
    80002b28:	ebc14603          	lbu	a2,-324(sp)

0000000080002b2c <i_2635>:
    80002b2c:	f1c11603          	lh	a2,-228(sp)

0000000080002b30 <i_2636>:
    80002b30:	02e00213          	li	tp,46

0000000080002b34 <i_2637>:
    80002b34:	004e1233          	sll	tp,t3,tp

0000000080002b38 <i_2638>:
    80002b38:	0c412623          	sw	tp,204(sp)

0000000080002b3c <i_2639>:
    80002b3c:	ee012503          	lw	a0,-288(sp)

0000000080002b40 <i_2640>:
    80002b40:	06813183          	ld	gp,104(sp)

0000000080002b44 <i_2641>:
    80002b44:	00a24e63          	blt	tp,a0,80002b60 <i_2648>

0000000080002b48 <i_2642>:
    80002b48:	02ce1263          	bne	t3,a2,80002b6c <i_2651>

0000000080002b4c <i_2643>:
    80002b4c:	003dfa63          	bleu	gp,s11,80002b60 <i_2648>

0000000080002b50 <i_2644>:
    80002b50:	07416e03          	lwu	t3,116(sp)

0000000080002b54 <i_2645>:
    80002b54:	14a13423          	sd	a0,328(sp)

0000000080002b58 <i_2646>:
    80002b58:	023577bb          	remuw	a5,a0,gp

0000000080002b5c <i_2647>:
    80002b5c:	01cc7c33          	and	s8,s8,t3

0000000080002b60 <i_2648>:
    80002b60:	01cc7863          	bleu	t3,s8,80002b70 <i_2652>

0000000080002b64 <i_2649>:
    80002b64:	4038d09b          	sraiw	ra,a7,0x3

0000000080002b68 <i_2650>:
    80002b68:	001a0333          	add	t1,s4,ra

0000000080002b6c <i_2651>:
    80002b6c:	00118e63          	beq	gp,ra,80002b88 <i_2658>

0000000080002b70 <i_2652>:
    80002b70:	0043509b          	srliw	ra,t1,0x4

0000000080002b74 <i_2653>:
    80002b74:	001577b3          	and	a5,a0,ra

0000000080002b78 <i_2654>:
    80002b78:	e9e11083          	lh	ra,-354(sp)

0000000080002b7c <i_2655>:
    80002b7c:	e7016203          	lwu	tp,-400(sp)

0000000080002b80 <i_2656>:
    80002b80:	e4d12223          	sw	a3,-444(sp)

0000000080002b84 <i_2657>:
    80002b84:	a762049b          	addiw	s1,tp,-1418

0000000080002b88 <i_2658>:
    80002b88:	e2414d83          	lbu	s11,-476(sp)

0000000080002b8c <i_2659>:
    80002b8c:	63078313          	addi	t1,a5,1584

0000000080002b90 <i_2660>:
    80002b90:	8bf00093          	li	ra,-1857

0000000080002b94 <i_2661>:
    80002b94:	8c600b93          	li	s7,-1850

0000000080002b98 <i_2662>:
    80002b98:	00134e63          	blt	t1,ra,80002bb4 <i_2669>

0000000080002b9c <i_2663>:
    80002b9c:	00000013          	nop

0000000080002ba0 <i_2664>:
    80002ba0:	f2911d23          	sh	s1,-198(sp)

0000000080002ba4 <i_2665>:
    80002ba4:	021354b3          	divu	s1,t1,ra

0000000080002ba8 <i_2666>:
    80002ba8:	0013149b          	slliw	s1,t1,0x1

0000000080002bac <i_2667>:
    80002bac:	00d10303          	lb	t1,13(sp)

0000000080002bb0 <i_2668>:
    80002bb0:	f7712623          	sw	s7,-148(sp)

0000000080002bb4 <i_2669>:
    80002bb4:	06e11523          	sh	a4,106(sp)

0000000080002bb8 <i_2670>:
    80002bb8:	00d00393          	li	t2,13

0000000080002bbc <i_2671>:
    80002bbc:	007a94b3          	sll	s1,s5,t2

0000000080002bc0 <i_2672>:
    80002bc0:	00108093          	addi	ra,ra,1
    80002bc4:	fc1bdae3          	ble	ra,s7,80002b98 <i_2662>

0000000080002bc8 <i_2673>:
    80002bc8:	03000813          	li	a6,48

0000000080002bcc <i_2674>:
    80002bcc:	0103dcb3          	srl	s9,t2,a6

0000000080002bd0 <i_2675>:
    80002bd0:	4032d293          	srai	t0,t0,0x3

0000000080002bd4 <i_2676>:
    80002bd4:	03812e03          	lw	t3,56(sp)

0000000080002bd8 <i_2677>:
    80002bd8:	01c5e863          	bltu	a1,t3,80002be8 <i_2681>

0000000080002bdc <i_2678>:
    80002bdc:	0257fe33          	remu	t3,a5,t0

0000000080002be0 <i_2679>:
    80002be0:	00be65b3          	or	a1,t3,a1

0000000080002be4 <i_2680>:
    80002be4:	0045d663          	ble	tp,a1,80002bf0 <i_2683>

0000000080002be8 <i_2681>:
    80002be8:	00be4833          	xor	a6,t3,a1

0000000080002bec <i_2682>:
    80002bec:	028e30b3          	mulhu	ra,t3,s0

0000000080002bf0 <i_2683>:
    80002bf0:	ba9e019b          	addiw	gp,t3,-1111

0000000080002bf4 <i_2684>:
    80002bf4:	f0012083          	lw	ra,-256(sp)

0000000080002bf8 <i_2685>:
    80002bf8:	f1b13423          	sd	s11,-248(sp)

0000000080002bfc <i_2686>:
    80002bfc:	f5015083          	lhu	ra,-176(sp)

0000000080002c00 <i_2687>:
    80002c00:	00319e63          	bne	gp,gp,80002c1c <i_2694>

0000000080002c04 <i_2688>:
    80002c04:	10614183          	lbu	gp,262(sp)

0000000080002c08 <i_2689>:
    80002c08:	4010d19b          	sraiw	gp,ra,0x1

0000000080002c0c <i_2690>:
    80002c0c:	f6412183          	lw	gp,-156(sp)

0000000080002c10 <i_2691>:
    80002c10:	0081eab3          	or	s5,gp,s0

0000000080002c14 <i_2692>:
    80002c14:	f1c12a83          	lw	s5,-228(sp)

0000000080002c18 <i_2693>:
    80002c18:	0031b1b3          	sltu	gp,gp,gp

0000000080002c1c <i_2694>:
    80002c1c:	06312a23          	sw	gp,116(sp)

0000000080002c20 <i_2695>:
    80002c20:	00000013          	nop

0000000080002c24 <i_2696>:
    80002c24:	0f411f23          	sh	s4,254(sp)

0000000080002c28 <i_2697>:
    80002c28:	73800193          	li	gp,1848

0000000080002c2c <i_2698>:
    80002c2c:	73b00a13          	li	s4,1851

0000000080002c30 <i_2699>:
    80002c30:	003caab3          	slt	s5,s9,gp

0000000080002c34 <i_2700>:
    80002c34:	0e813a83          	ld	s5,232(sp)

0000000080002c38 <i_2701>:
    80002c38:	034a8833          	mul	a6,s5,s4

0000000080002c3c <i_2702>:
    80002c3c:	02373c33          	mulhu	s8,a4,gp

0000000080002c40 <i_2703>:
    80002c40:	d68a7c13          	andi	s8,s4,-664

0000000080002c44 <i_2704>:
    80002c44:	023af663          	bleu	gp,s5,80002c70 <i_2714>

0000000080002c48 <i_2705>:
    80002c48:	05814a83          	lbu	s5,88(sp)

0000000080002c4c <i_2706>:
    80002c4c:	02385263          	ble	gp,a6,80002c70 <i_2714>

0000000080002c50 <i_2707>:
    80002c50:	035c743b          	remuw	s0,s8,s5

0000000080002c54 <i_2708>:
    80002c54:	e4810803          	lb	a6,-440(sp)

0000000080002c58 <i_2709>:
    80002c58:	00118193          	addi	gp,gp,1
    80002c5c:	fc3a1ae3          	bne	s4,gp,80002c30 <i_2699>

0000000080002c60 <i_2710>:
    80002c60:	1cf10183          	lb	gp,463(sp)

0000000080002c64 <i_2711>:
    80002c64:	0281e063          	bltu	gp,s0,80002c84 <i_2719>

0000000080002c68 <i_2712>:
    80002c68:	169a4c37          	lui	s8,0x169a4

0000000080002c6c <i_2713>:
    80002c6c:	07013183          	ld	gp,112(sp)

0000000080002c70 <i_2714>:
    80002c70:	1c611183          	lh	gp,454(sp)

0000000080002c74 <i_2715>:
    80002c74:	002c5a63          	ble	sp,s8,80002c88 <i_2720>

0000000080002c78 <i_2716>:
    80002c78:	3eb74197          	auipc	gp,0x3eb74

0000000080002c7c <i_2717>:
    80002c7c:	018c0c63          	beq	s8,s8,80002c94 <i_2723>

0000000080002c80 <i_2718>:
    80002c80:	f3215c03          	lhu	s8,-206(sp)

0000000080002c84 <i_2719>:
    80002c84:	e211c993          	xori	s3,gp,-479

0000000080002c88 <i_2720>:
    80002c88:	c9b1e993          	ori	s3,gp,-869

0000000080002c8c <i_2721>:
    80002c8c:	1b012503          	lw	a0,432(sp)

0000000080002c90 <i_2722>:
    80002c90:	ff812183          	lw	gp,-8(sp)

0000000080002c94 <i_2723>:
    80002c94:	02a1e263          	bltu	gp,a0,80002cb8 <i_2732>

0000000080002c98 <i_2724>:
    80002c98:	00357463          	bleu	gp,a0,80002ca0 <i_2726>

0000000080002c9c <i_2725>:
    80002c9c:	13416403          	lwu	s0,308(sp)

0000000080002ca0 <i_2726>:
    80002ca0:	0bc14203          	lbu	tp,188(sp)

0000000080002ca4 <i_2727>:
    80002ca4:	00c00c13          	li	s8,12

0000000080002ca8 <i_2728>:
    80002ca8:	4181d1bb          	sraw	gp,gp,s8

0000000080002cac <i_2729>:
    80002cac:	15014a03          	lbu	s4,336(sp)

0000000080002cb0 <i_2730>:
    80002cb0:	feb14203          	lbu	tp,-21(sp)

0000000080002cb4 <i_2731>:
    80002cb4:	0239ca3b          	divw	s4,s3,gp

0000000080002cb8 <i_2732>:
    80002cb8:	ff410b23          	sb	s4,-10(sp)

0000000080002cbc <i_2733>:
    80002cbc:	00000013          	nop

0000000080002cc0 <i_2734>:
    80002cc0:	00000013          	nop

0000000080002cc4 <i_2735>:
    80002cc4:	81d00d93          	li	s11,-2019

0000000080002cc8 <i_2736>:
    80002cc8:	82500a13          	li	s4,-2011

0000000080002ccc <i_2737>:
    80002ccc:	1a412823          	sw	tp,432(sp)

0000000080002cd0 <i_2738>:
    80002cd0:	f7a11983          	lh	s3,-134(sp)

0000000080002cd4 <i_2739>:
    80002cd4:	6cf24393          	xori	t2,tp,1743

0000000080002cd8 <i_2740>:
    80002cd8:	0078f863          	bleu	t2,a7,80002ce8 <i_2744>

0000000080002cdc <i_2741>:
    80002cdc:	001d9393          	slli	t2,s11,0x1

0000000080002ce0 <i_2742>:
    80002ce0:	0273f063          	bleu	t2,t2,80002d00 <i_2749>

0000000080002ce4 <i_2743>:
    80002ce4:	08711123          	sh	t2,130(sp)

0000000080002ce8 <i_2744>:
    80002ce8:	0093f3b3          	and	t2,t2,s1

0000000080002cec <i_2745>:
    80002cec:	00000013          	nop

0000000080002cf0 <i_2746>:
    80002cf0:	001d8d93          	addi	s11,s11,1
    80002cf4:	fdba7ce3          	bleu	s11,s4,80002ccc <i_2737>

0000000080002cf8 <i_2747>:
    80002cf8:	02500a13          	li	s4,37

0000000080002cfc <i_2748>:
    80002cfc:	4143d0b3          	sra	ra,t2,s4

0000000080002d00 <i_2749>:
    80002d00:	0340d83b          	divuw	a6,ra,s4

0000000080002d04 <i_2750>:
    80002d04:	fbc13823          	sd	t3,-80(sp)

0000000080002d08 <i_2751>:
    80002d08:	75200313          	li	t1,1874

0000000080002d0c <i_2752>:
    80002d0c:	75c00e13          	li	t3,1884

0000000080002d10 <i_2753>:
    80002d10:	00000013          	nop

0000000080002d14 <i_2754>:
    80002d14:	11015383          	lhu	t2,272(sp)

0000000080002d18 <i_2755>:
    80002d18:	12614183          	lbu	gp,294(sp)

0000000080002d1c <i_2756>:
    80002d1c:	0073ce63          	blt	t2,t2,80002d38 <i_2762>

0000000080002d20 <i_2757>:
    80002d20:	030109a3          	sb	a6,51(sp)

0000000080002d24 <i_2758>:
    80002d24:	00130313          	addi	t1,t1,1
    80002d28:	fe6e54e3          	ble	t1,t3,80002d10 <i_2753>

0000000080002d2c <i_2759>:
    80002d2c:	18016b83          	lwu	s7,384(sp)

0000000080002d30 <i_2760>:
    80002d30:	1a310da3          	sb	gp,443(sp)

0000000080002d34 <i_2761>:
    80002d34:	01080a63          	beq	a6,a6,80002d48 <i_2766>

0000000080002d38 <i_2762>:
    80002d38:	1e614803          	lbu	a6,486(sp)

0000000080002d3c <i_2763>:
    80002d3c:	413809b3          	sub	s3,a6,s3

0000000080002d40 <i_2764>:
    80002d40:	023b9333          	mulh	t1,s7,gp

0000000080002d44 <i_2765>:
    80002d44:	03376463          	bltu	a4,s3,80002d6c <i_2775>

0000000080002d48 <i_2766>:
    80002d48:	0361c463          	blt	gp,s6,80002d70 <i_2776>

0000000080002d4c <i_2767>:
    80002d4c:	1a613423          	sd	t1,424(sp)

0000000080002d50 <i_2768>:
    80002d50:	ef811303          	lh	t1,-264(sp)

0000000080002d54 <i_2769>:
    80002d54:	f8614283          	lbu	t0,-122(sp)

0000000080002d58 <i_2770>:
    80002d58:	fd013483          	ld	s1,-48(sp)

0000000080002d5c <i_2771>:
    80002d5c:	f9c16403          	lwu	s0,-100(sp)

0000000080002d60 <i_2772>:
    80002d60:	0e010c03          	lb	s8,224(sp)

0000000080002d64 <i_2773>:
    80002d64:	01f00a93          	li	s5,31

0000000080002d68 <i_2774>:
    80002d68:	41585633          	sra	a2,a6,s5

0000000080002d6c <i_2775>:
    80002d6c:	0188ac33          	slt	s8,a7,s8

0000000080002d70 <i_2776>:
    80002d70:	00585c63          	ble	t0,a6,80002d88 <i_2782>

0000000080002d74 <i_2777>:
    80002d74:	18110783          	lb	a5,385(sp)

0000000080002d78 <i_2778>:
    80002d78:	17c10a83          	lb	s5,380(sp)

0000000080002d7c <i_2779>:
    80002d7c:	3355881b          	addiw	a6,a1,821

0000000080002d80 <i_2780>:
    80002d80:	00000013          	nop

0000000080002d84 <i_2781>:
    80002d84:	00000013          	nop

0000000080002d88 <i_2782>:
    80002d88:	faa10a03          	lb	s4,-86(sp)

0000000080002d8c <i_2783>:
    80002d8c:	01580eb3          	add	t4,a6,s5

0000000080002d90 <i_2784>:
    80002d90:	74800a93          	li	s5,1864

0000000080002d94 <i_2785>:
    80002d94:	74a00313          	li	t1,1866

0000000080002d98 <i_2786>:
    80002d98:	14813203          	ld	tp,328(sp)

0000000080002d9c <i_2787>:
    80002d9c:	001a8a93          	addi	s5,s5,1
    80002da0:	ff535ce3          	ble	s5,t1,80002d98 <i_2786>

0000000080002da4 <i_2788>:
    80002da4:	f640a093          	slti	ra,ra,-156

0000000080002da8 <i_2789>:
    80002da8:	01d13823          	sd	t4,16(sp)

0000000080002dac <i_2790>:
    80002dac:	f8813783          	ld	a5,-120(sp)

0000000080002db0 <i_2791>:
    80002db0:	01d25a63          	ble	t4,tp,80002dc4 <i_2796>

0000000080002db4 <i_2792>:
    80002db4:	02120db3          	mul	s11,tp,ra

0000000080002db8 <i_2793>:
    80002db8:	01d24e63          	blt	tp,t4,80002dd4 <i_2800>

0000000080002dbc <i_2794>:
    80002dbc:	00000013          	nop

0000000080002dc0 <i_2795>:
    80002dc0:	024191b3          	mulh	gp,gp,tp

0000000080002dc4 <i_2796>:
    80002dc4:	4ef39db7          	lui	s11,0x4ef39

0000000080002dc8 <i_2797>:
    80002dc8:	06a11a83          	lh	s5,106(sp)

0000000080002dcc <i_2798>:
    80002dcc:	0330cabb          	divw	s5,ra,s3

0000000080002dd0 <i_2799>:
    80002dd0:	00000013          	nop

0000000080002dd4 <i_2800>:
    80002dd4:	11910c83          	lb	s9,281(sp)

0000000080002dd8 <i_2801>:
    80002dd8:	00000013          	nop

0000000080002ddc <i_2802>:
    80002ddc:	84800093          	li	ra,-1976

0000000080002de0 <i_2803>:
    80002de0:	85500213          	li	tp,-1963

0000000080002de4 <i_2804>:
    80002de4:	1be15c83          	lhu	s9,446(sp)

0000000080002de8 <i_2805>:
    80002de8:	001ae433          	or	s0,s5,ra

0000000080002dec <i_2806>:
    80002dec:	00108093          	addi	ra,ra,1
    80002df0:	fe40cae3          	blt	ra,tp,80002de4 <i_2804>

0000000080002df4 <i_2807>:
    80002df4:	f5815183          	lhu	gp,-168(sp)

0000000080002df8 <i_2808>:
    80002df8:	ff513023          	sd	s5,-32(sp)

0000000080002dfc <i_2809>:
    80002dfc:	f4412423          	sw	tp,-184(sp)

0000000080002e00 <i_2810>:
    80002e00:	ea015203          	lhu	tp,-352(sp)

0000000080002e04 <i_2811>:
    80002e04:	00e31663          	bne	t1,a4,80002e10 <i_2814>

0000000080002e08 <i_2812>:
    80002e08:	02d9d4b3          	divu	s1,s3,a3

0000000080002e0c <i_2813>:
    80002e0c:	f8411983          	lh	s3,-124(sp)

0000000080002e10 <i_2814>:
    80002e10:	0099f4b3          	and	s1,s3,s1

0000000080002e14 <i_2815>:
    80002e14:	08412c83          	lw	s9,132(sp)

0000000080002e18 <i_2816>:
    80002e18:	01398c63          	beq	s3,s3,80002e30 <i_2822>

0000000080002e1c <i_2817>:
    80002e1c:	0399e063          	bltu	s3,s9,80002e3c <i_2825>

0000000080002e20 <i_2818>:
    80002e20:	943cc193          	xori	gp,s9,-1725

0000000080002e24 <i_2819>:
    80002e24:	f19103a3          	sb	s9,-249(sp)

0000000080002e28 <i_2820>:
    80002e28:	0131ec63          	bltu	gp,s3,80002e40 <i_2826>

0000000080002e2c <i_2821>:
    80002e2c:	0398f263          	bleu	s9,a7,80002e50 <i_2830>

0000000080002e30 <i_2822>:
    80002e30:	0391e23b          	remw	tp,gp,s9

0000000080002e34 <i_2823>:
    80002e34:	0246c463          	blt	a3,tp,80002e5c <i_2833>

0000000080002e38 <i_2824>:
    80002e38:	fe412983          	lw	s3,-28(sp)

0000000080002e3c <i_2825>:
    80002e3c:	02c00213          	li	tp,44

0000000080002e40 <i_2826>:
    80002e40:	00475833          	srl	a6,a4,tp

0000000080002e44 <i_2827>:
    80002e44:	01026863          	bltu	tp,a6,80002e54 <i_2831>

0000000080002e48 <i_2828>:
    80002e48:	030999b3          	mulh	s3,s3,a6

0000000080002e4c <i_2829>:
    80002e4c:	0338783b          	remuw	a6,a6,s3

0000000080002e50 <i_2830>:
    80002e50:	fd313823          	sd	s3,-48(sp)

0000000080002e54 <i_2831>:
    80002e54:	00b26663          	bltu	tp,a1,80002e60 <i_2834>

0000000080002e58 <i_2832>:
    80002e58:	0c110603          	lb	a2,193(sp)

0000000080002e5c <i_2833>:
    80002e5c:	0ec16083          	lwu	ra,236(sp)

0000000080002e60 <i_2834>:
    80002e60:	00000013          	nop

0000000080002e64 <i_2835>:
    80002e64:	18110fa3          	sb	ra,415(sp)

0000000080002e68 <i_2836>:
    80002e68:	7be00993          	li	s3,1982

0000000080002e6c <i_2837>:
    80002e6c:	7cc00213          	li	tp,1996

0000000080002e70 <i_2838>:
    80002e70:	01900093          	li	ra,25

0000000080002e74 <i_2839>:
    80002e74:	001990bb          	sllw	ra,s3,ra

0000000080002e78 <i_2840>:
    80002e78:	ed210d83          	lb	s11,-302(sp)

0000000080002e7c <i_2841>:
    80002e7c:	05016c83          	lwu	s9,80(sp)

0000000080002e80 <i_2842>:
    80002e80:	1d815c83          	lhu	s9,472(sp)

0000000080002e84 <i_2843>:
    80002e84:	0d912023          	sw	s9,192(sp)

0000000080002e88 <i_2844>:
    80002e88:	00198993          	addi	s3,s3,1 # ffffffffb77ca001 <_end+0xffffffff377b9bed>
    80002e8c:	fe49c2e3          	blt	s3,tp,80002e70 <i_2838>

0000000080002e90 <i_2845>:
    80002e90:	08113823          	sd	ra,144(sp)

0000000080002e94 <i_2846>:
    80002e94:	02c37833          	remu	a6,t1,a2

0000000080002e98 <i_2847>:
    80002e98:	00c00d93          	li	s11,12

0000000080002e9c <i_2848>:
    80002e9c:	01bc9c3b          	sllw	s8,s9,s11

0000000080002ea0 <i_2849>:
    80002ea0:	00211c83          	lh	s9,2(sp)

0000000080002ea4 <i_2850>:
    80002ea4:	e8114c83          	lbu	s9,-383(sp)

0000000080002ea8 <i_2851>:
    80002ea8:	19c12c83          	lw	s9,412(sp)

0000000080002eac <i_2852>:
    80002eac:	0bb10023          	sb	s11,160(sp)

0000000080002eb0 <i_2853>:
    80002eb0:	169101a3          	sb	s1,355(sp)

0000000080002eb4 <i_2854>:
    80002eb4:	03015c83          	lhu	s9,48(sp)

0000000080002eb8 <i_2855>:
    80002eb8:	02411503          	lh	a0,36(sp)

0000000080002ebc <i_2856>:
    80002ebc:	01950663          	beq	a0,s9,80002ec8 <i_2859>

0000000080002ec0 <i_2857>:
    80002ec0:	03b13423          	sd	s11,40(sp)

0000000080002ec4 <i_2858>:
    80002ec4:	019cf263          	bleu	s9,s9,80002ec8 <i_2859>

0000000080002ec8 <i_2859>:
    80002ec8:	00000013          	nop

0000000080002ecc <i_2860>:
    80002ecc:	0e610d83          	lb	s11,230(sp)

0000000080002ed0 <i_2861>:
    80002ed0:	80100393          	li	t2,-2047

0000000080002ed4 <i_2862>:
    80002ed4:	80f00c93          	li	s9,-2033

0000000080002ed8 <i_2863>:
    80002ed8:	0d710e83          	lb	t4,215(sp)

0000000080002edc <i_2864>:
    80002edc:	01bdadb3          	slt	s11,s11,s11

0000000080002ee0 <i_2865>:
    80002ee0:	05b10223          	sb	s11,68(sp)

0000000080002ee4 <i_2866>:
    80002ee4:	0a2eed93          	ori	s11,t4,162

0000000080002ee8 <i_2867>:
    80002ee8:	f9b11623          	sh	s11,-116(sp)

0000000080002eec <i_2868>:
    80002eec:	03bd8663          	beq	s11,s11,80002f18 <i_2878>

0000000080002ef0 <i_2869>:
    80002ef0:	00000013          	nop

0000000080002ef4 <i_2870>:
    80002ef4:	01bdf463          	bleu	s11,s11,80002efc <i_2872>

0000000080002ef8 <i_2871>:
    80002ef8:	fbb13823          	sd	s11,-80(sp)

0000000080002efc <i_2872>:
    80002efc:	01f00d93          	li	s11,31

0000000080002f00 <i_2873>:
    80002f00:	01bd90bb          	sllw	ra,s11,s11

0000000080002f04 <i_2874>:
    80002f04:	00138393          	addi	t2,t2,1
    80002f08:	fc7cd8e3          	ble	t2,s9,80002ed8 <i_2863>

0000000080002f0c <i_2875>:
    80002f0c:	02e09263          	bne	ra,a4,80002f30 <i_2884>

0000000080002f10 <i_2876>:
    80002f10:	f1b11923          	sh	s11,-238(sp)

0000000080002f14 <i_2877>:
    80002f14:	00e15d83          	lhu	s11,14(sp)

0000000080002f18 <i_2878>:
    80002f18:	02194263          	blt	s2,ra,80002f3c <i_2887>

0000000080002f1c <i_2879>:
    80002f1c:	53810d93          	addi	s11,sp,1336

0000000080002f20 <i_2880>:
    80002f20:	0010dd9b          	srliw	s11,ra,0x1

0000000080002f24 <i_2881>:
    80002f24:	1a111123          	sh	ra,418(sp)

0000000080002f28 <i_2882>:
    80002f28:	03b08463          	beq	ra,s11,80002f50 <i_2892>

0000000080002f2c <i_2883>:
    80002f2c:	f7912623          	sw	s9,-148(sp)

0000000080002f30 <i_2884>:
    80002f30:	17714303          	lbu	t1,375(sp)

0000000080002f34 <i_2885>:
    80002f34:	03bd9063          	bne	s11,s11,80002f54 <i_2893>

0000000080002f38 <i_2886>:
    80002f38:	00261613          	slli	a2,a2,0x2

0000000080002f3c <i_2887>:
    80002f3c:	02414d83          	lbu	s11,36(sp)

0000000080002f40 <i_2888>:
    80002f40:	01bddc63          	ble	s11,s11,80002f58 <i_2894>

0000000080002f44 <i_2889>:
    80002f44:	e6810d83          	lb	s11,-408(sp)

0000000080002f48 <i_2890>:
    80002f48:	0d416183          	lwu	gp,212(sp)

0000000080002f4c <i_2891>:
    80002f4c:	017d9c63          	bne	s11,s7,80002f64 <i_2897>

0000000080002f50 <i_2892>:
    80002f50:	4ca5b593          	sltiu	a1,a1,1226

0000000080002f54 <i_2893>:
    80002f54:	01b61c63          	bne	a2,s11,80002f6c <i_2899>

0000000080002f58 <i_2894>:
    80002f58:	02c63bb3          	mulhu	s7,a2,a2

0000000080002f5c <i_2895>:
    80002f5c:	0cb10c83          	lb	s9,203(sp)

0000000080002f60 <i_2896>:
    80002f60:	e2c12b83          	lw	s7,-468(sp)

0000000080002f64 <i_2897>:
    80002f64:	630dba93          	sltiu	s5,s11,1584

0000000080002f68 <i_2898>:
    80002f68:	01960633          	add	a2,a2,s9

0000000080002f6c <i_2899>:
    80002f6c:	00c9f833          	and	a6,s3,a2

0000000080002f70 <i_2900>:
    80002f70:	0f013823          	sd	a6,240(sp)

0000000080002f74 <i_2901>:
    80002f74:	88d00d93          	li	s11,-1907

0000000080002f78 <i_2902>:
    80002f78:	89c00213          	li	tp,-1892

0000000080002f7c <i_2903>:
    80002f7c:	02c33633          	mulhu	a2,t1,a2

0000000080002f80 <i_2904>:
    80002f80:	18c11a23          	sh	a2,404(sp)

0000000080002f84 <i_2905>:
    80002f84:	00d62e33          	slt	t3,a2,a3

0000000080002f88 <i_2906>:
    80002f88:	ec813803          	ld	a6,-312(sp)

0000000080002f8c <i_2907>:
    80002f8c:	00361793          	slli	a5,a2,0x3

0000000080002f90 <i_2908>:
    80002f90:	001d8d93          	addi	s11,s11,1 # 4ef39001 <main-0x310c6fff>
    80002f94:	fe4dc4e3          	blt	s11,tp,80002f7c <i_2903>

0000000080002f98 <i_2909>:
    80002f98:	ed611983          	lh	s3,-298(sp)

0000000080002f9c <i_2910>:
    80002f9c:	00485e13          	srli	t3,a6,0x4

0000000080002fa0 <i_2911>:
    80002fa0:	00000013          	nop

0000000080002fa4 <i_2912>:
    80002fa4:	78700613          	li	a2,1927

0000000080002fa8 <i_2913>:
    80002fa8:	79700813          	li	a6,1943

0000000080002fac <i_2914>:
    80002fac:	eae15d83          	lhu	s11,-338(sp)

0000000080002fb0 <i_2915>:
    80002fb0:	00d00d93          	li	s11,13

0000000080002fb4 <i_2916>:
    80002fb4:	01be13b3          	sll	t2,t3,s11

0000000080002fb8 <i_2917>:
    80002fb8:	00160613          	addi	a2,a2,1
    80002fbc:	ff0648e3          	blt	a2,a6,80002fac <i_2914>

0000000080002fc0 <i_2918>:
    80002fc0:	03ca54b3          	divu	s1,s4,t3

0000000080002fc4 <i_2919>:
    80002fc4:	01c00a93          	li	s5,28

0000000080002fc8 <i_2920>:
    80002fc8:	015d93b3          	sll	t2,s11,s5

0000000080002fcc <i_2921>:
    80002fcc:	eb510da3          	sb	s5,-325(sp)

0000000080002fd0 <i_2922>:
    80002fd0:	02c00413          	li	s0,44

0000000080002fd4 <i_2923>:
    80002fd4:	008adab3          	srl	s5,s5,s0

0000000080002fd8 <i_2924>:
    80002fd8:	00738863          	beq	t2,t2,80002fe8 <i_2928>

0000000080002fdc <i_2925>:
    80002fdc:	035ab3b3          	mulhu	t2,s5,s5

0000000080002fe0 <i_2926>:
    80002fe0:	f9014a83          	lbu	s5,-112(sp)

0000000080002fe4 <i_2927>:
    80002fe4:	fb211a03          	lh	s4,-78(sp)

0000000080002fe8 <i_2928>:
    80002fe8:	681a8313          	addi	t1,s5,1665

0000000080002fec <i_2929>:
    80002fec:	fb412823          	sw	s4,-80(sp)

0000000080002ff0 <i_2930>:
    80002ff0:	10611f23          	sh	t1,286(sp)

0000000080002ff4 <i_2931>:
    80002ff4:	00745663          	ble	t2,s0,80003000 <i_2934>

0000000080002ff8 <i_2932>:
    80002ff8:	f8813823          	sd	s0,-112(sp)

0000000080002ffc <i_2933>:
    80002ffc:	1dc16c83          	lwu	s9,476(sp)

0000000080003000 <i_2934>:
    80003000:	eb710c83          	lb	s9,-329(sp)

0000000080003004 <i_2935>:
    80003004:	01400613          	li	a2,20

0000000080003008 <i_2936>:
    80003008:	40cada33          	sra	s4,s5,a2

000000008000300c <i_2937>:
    8000300c:	015a0663          	beq	s4,s5,80003018 <i_2940>

0000000080003010 <i_2938>:
    80003010:	04013e03          	ld	t3,64(sp)

0000000080003014 <i_2939>:
    80003014:	ab5e2c13          	slti	s8,t3,-1355

0000000080003018 <i_2940>:
    80003018:	e88c9e97          	auipc	t4,0xe88c9

000000008000301c <i_2941>:
    8000301c:	f8c12823          	sw	a2,-112(sp)

0000000080003020 <i_2942>:
    80003020:	86200a13          	li	s4,-1950

0000000080003024 <i_2943>:
    80003024:	86800613          	li	a2,-1944

0000000080003028 <i_2944>:
    80003028:	004e9c1b          	slliw	s8,t4,0x4

000000008000302c <i_2945>:
    8000302c:	e5c10fa3          	sb	t3,-417(sp)

0000000080003030 <i_2946>:
    80003030:	0e615e03          	lhu	t3,230(sp)

0000000080003034 <i_2947>:
    80003034:	01800793          	li	a5,24

0000000080003038 <i_2948>:
    80003038:	00f6533b          	srlw	t1,a2,a5

000000008000303c <i_2949>:
    8000303c:	10810e03          	lb	t3,264(sp)

0000000080003040 <i_2950>:
    80003040:	02c00c13          	li	s8,44

0000000080003044 <i_2951>:
    80003044:	01879e33          	sll	t3,a5,s8

0000000080003048 <i_2952>:
    80003048:	00000013          	nop

000000008000304c <i_2953>:
    8000304c:	001a0a13          	addi	s4,s4,1
    80003050:	fd467ce3          	bleu	s4,a2,80003028 <i_2944>

0000000080003054 <i_2954>:
    80003054:	02f7d463          	ble	a5,a5,8000307c <i_2964>

0000000080003058 <i_2955>:
    80003058:	02d787bb          	mulw	a5,a5,a3

000000008000305c <i_2956>:
    8000305c:	08816783          	lwu	a5,136(sp)

0000000080003060 <i_2957>:
    80003060:	00000013          	nop

0000000080003064 <i_2958>:
    80003064:	06613823          	sd	t1,112(sp)

0000000080003068 <i_2959>:
    80003068:	4038d51b          	sraiw	a0,a7,0x3

000000008000306c <i_2960>:
    8000306c:	791db993          	sltiu	s3,s11,1937

0000000080003070 <i_2961>:
    80003070:	01400813          	li	a6,20

0000000080003074 <i_2962>:
    80003074:	01035833          	srl	a6,t1,a6

0000000080003078 <i_2963>:
    80003078:	f30109a3          	sb	a6,-205(sp)

000000008000307c <i_2964>:
    8000307c:	18e14803          	lbu	a6,398(sp)

0000000080003080 <i_2965>:
    80003080:	17b10283          	lb	t0,379(sp)

0000000080003084 <i_2966>:
    80003084:	83100313          	li	t1,-1999

0000000080003088 <i_2967>:
    80003088:	83400d93          	li	s11,-1996

000000008000308c <i_2968>:
    8000308c:	0ce15803          	lhu	a6,206(sp)

0000000080003090 <i_2969>:
    80003090:	cf78079b          	addiw	a5,a6,-777

0000000080003094 <i_2970>:
    80003094:	00130313          	addi	t1,t1,1
    80003098:	ffb34ae3          	blt	t1,s11,8000308c <i_2968>

000000008000309c <i_2971>:
    8000309c:	a8045a97          	auipc	s5,0xa8045

00000000800030a0 <i_2972>:
    800030a0:	0102e463          	bltu	t0,a6,800030a8 <i_2974>

00000000800030a4 <i_2973>:
    800030a4:	03483a33          	mulhu	s4,a6,s4

00000000800030a8 <i_2974>:
    800030a8:	00000013          	nop

00000000800030ac <i_2975>:
    800030ac:	00000013          	nop

00000000800030b0 <i_2976>:
    800030b0:	73c00813          	li	a6,1852

00000000800030b4 <i_2977>:
    800030b4:	74100493          	li	s1,1857

00000000800030b8 <i_2978>:
    800030b8:	40315a9b          	sraiw	s5,sp,0x3

00000000800030bc <i_2979>:
    800030bc:	f0e15a03          	lhu	s4,-242(sp)

00000000800030c0 <i_2980>:
    800030c0:	7a400293          	li	t0,1956

00000000800030c4 <i_2981>:
    800030c4:	7b000e13          	li	t3,1968

00000000800030c8 <i_2982>:
    800030c8:	00000013          	nop

00000000800030cc <i_2983>:
    800030cc:	12b10a83          	lb	s5,299(sp)

00000000800030d0 <i_2984>:
    800030d0:	00128293          	addi	t0,t0,1
    800030d4:	fe5e7ae3          	bleu	t0,t3,800030c8 <i_2982>

00000000800030d8 <i_2985>:
    800030d8:	015e6c63          	bltu	t3,s5,800030f0 <i_2990>

00000000800030dc <i_2986>:
    800030dc:	00180813          	addi	a6,a6,1
    800030e0:	fc981ce3          	bne	a6,s1,800030b8 <i_2978>

00000000800030e4 <i_2987>:
    800030e4:	03c325b3          	mulhsu	a1,t1,t3

00000000800030e8 <i_2988>:
    800030e8:	00415c03          	lhu	s8,4(sp)

00000000800030ec <i_2989>:
    800030ec:	03a58063          	beq	a1,s10,8000310c <i_2997>

00000000800030f0 <i_2990>:
    800030f0:	f1813a83          	ld	s5,-232(sp)

00000000800030f4 <i_2991>:
    800030f4:	eb813c83          	ld	s9,-328(sp)

00000000800030f8 <i_2992>:
    800030f8:	002ad413          	srli	s0,s5,0x2

00000000800030fc <i_2993>:
    800030fc:	01c44a63          	blt	s0,t3,80003110 <i_2998>

0000000080003100 <i_2994>:
    80003100:	018adc63          	ble	s8,s5,80003118 <i_3000>

0000000080003104 <i_2995>:
    80003104:	19614a83          	lbu	s5,406(sp)

0000000080003108 <i_2996>:
    80003108:	1b210603          	lb	a2,434(sp)

000000008000310c <i_2997>:
    8000310c:	01546263          	bltu	s0,s5,80003110 <i_2998>

0000000080003110 <i_2998>:
    80003110:	02a15603          	lhu	a2,42(sp)

0000000080003114 <i_2999>:
    80003114:	035ad433          	divu	s0,s5,s5

0000000080003118 <i_3000>:
    80003118:	06812623          	sw	s0,108(sp)

000000008000311c <i_3001>:
    8000311c:	01d00613          	li	a2,29

0000000080003120 <i_3002>:
    80003120:	40c650bb          	sraw	ra,a2,a2

0000000080003124 <i_3003>:
    80003124:	02600593          	li	a1,38

0000000080003128 <i_3004>:
    80003128:	00b09433          	sll	s0,ra,a1

000000008000312c <i_3005>:
    8000312c:	0280f433          	remu	s0,ra,s0

0000000080003130 <i_3006>:
    80003130:	f5812d83          	lw	s11,-168(sp)

0000000080003134 <i_3007>:
    80003134:	02b45463          	ble	a1,s0,8000315c <i_3017>

0000000080003138 <i_3008>:
    80003138:	00c66863          	bltu	a2,a2,80003148 <i_3012>

000000008000313c <i_3009>:
    8000313c:	00c40433          	add	s0,s0,a2

0000000080003140 <i_3010>:
    80003140:	1e414403          	lbu	s0,484(sp)

0000000080003144 <i_3011>:
    80003144:	e4813c23          	sd	s0,-424(sp)

0000000080003148 <i_3012>:
    80003148:	01bdcdb3          	xor	s11,s11,s11

000000008000314c <i_3013>:
    8000314c:	03b45633          	divu	a2,s0,s11

0000000080003150 <i_3014>:
    80003150:	0a812423          	sw	s0,168(sp)

0000000080003154 <i_3015>:
    80003154:	521ff413          	andi	s0,t6,1313

0000000080003158 <i_3016>:
    80003158:	e5913023          	sd	s9,-448(sp)

000000008000315c <i_3017>:
    8000315c:	17d14c83          	lbu	s9,381(sp)

0000000080003160 <i_3018>:
    80003160:	f2c10f23          	sb	a2,-194(sp)

0000000080003164 <i_3019>:
    80003164:	02c6063b          	mulw	a2,a2,a2

0000000080003168 <i_3020>:
    80003168:	004c961b          	slliw	a2,s9,0x4

000000008000316c <i_3021>:
    8000316c:	02f677bb          	remuw	a5,a2,a5

0000000080003170 <i_3022>:
    80003170:	003c9c13          	slli	s8,s9,0x3

0000000080003174 <i_3023>:
    80003174:	89e00313          	li	t1,-1890

0000000080003178 <i_3024>:
    80003178:	8aa00c93          	li	s9,-1878

000000008000317c <i_3025>:
    8000317c:	e3913c23          	sd	s9,-456(sp)

0000000080003180 <i_3026>:
    80003180:	0c011403          	lh	s0,192(sp)

0000000080003184 <i_3027>:
    80003184:	11412783          	lw	a5,276(sp)

0000000080003188 <i_3028>:
    80003188:	038c4263          	blt	s8,s8,800031ac <i_3036>

000000008000318c <i_3029>:
    8000318c:	4047dc1b          	sraiw	s8,a5,0x4

0000000080003190 <i_3030>:
    80003190:	14a11c03          	lh	s8,330(sp)

0000000080003194 <i_3031>:
    80003194:	00130313          	addi	t1,t1,1
    80003198:	ff9312e3          	bne	t1,s9,8000317c <i_3025>

000000008000319c <i_3032>:
    8000319c:	5c2c0213          	addi	tp,s8,1474 # 169a45c2 <main-0x6965ba3e>

00000000800031a0 <i_3033>:
    800031a0:	0187a2b3          	slt	t0,a5,s8

00000000800031a4 <i_3034>:
    800031a4:	02511123          	sh	t0,34(sp)

00000000800031a8 <i_3035>:
    800031a8:	038f2c33          	mulhsu	s8,t5,s8

00000000800031ac <i_3036>:
    800031ac:	0dc11283          	lh	t0,220(sp)

00000000800031b0 <i_3037>:
    800031b0:	15813c23          	sd	s8,344(sp)

00000000800031b4 <i_3038>:
    800031b4:	00700e93          	li	t4,7

00000000800031b8 <i_3039>:
    800031b8:	41dc5cbb          	sraw	s9,s8,t4

00000000800031bc <i_3040>:
    800031bc:	0257d263          	ble	t0,a5,800031e0 <i_3049>

00000000800031c0 <i_3041>:
    800031c0:	f6016e83          	lwu	t4,-160(sp)

00000000800031c4 <i_3042>:
    800031c4:	00c11e83          	lh	t4,12(sp)

00000000800031c8 <i_3043>:
    800031c8:	018ec463          	blt	t4,s8,800031d0 <i_3045>

00000000800031cc <i_3044>:
    800031cc:	e7a15a83          	lhu	s5,-390(sp)

00000000800031d0 <i_3045>:
    800031d0:	0332acb3          	mulhsu	s9,t0,s3

00000000800031d4 <i_3046>:
    800031d4:	00000013          	nop

00000000800031d8 <i_3047>:
    800031d8:	035462b3          	rem	t0,s0,s5

00000000800031dc <i_3048>:
    800031dc:	10415a83          	lhu	s5,260(sp)

00000000800031e0 <i_3049>:
    800031e0:	404e5e1b          	sraiw	t3,t3,0x4

00000000800031e4 <i_3050>:
    800031e4:	ef813283          	ld	t0,-264(sp)

00000000800031e8 <i_3051>:
    800031e8:	83b00d93          	li	s11,-1989

00000000800031ec <i_3052>:
    800031ec:	84600413          	li	s0,-1978

00000000800031f0 <i_3053>:
    800031f0:	ebc12c83          	lw	s9,-324(sp)

00000000800031f4 <i_3054>:
    800031f4:	4152863b          	subw	a2,t0,s5

00000000800031f8 <i_3055>:
    800031f8:	74000a93          	li	s5,1856

00000000800031fc <i_3056>:
    800031fc:	74700e13          	li	t3,1863

0000000080003200 <i_3057>:
    80003200:	0a512a23          	sw	t0,180(sp)

0000000080003204 <i_3058>:
    80003204:	001a8a93          	addi	s5,s5,1 # 2804809d <main-0x57fb7f63>
    80003208:	ffcaece3          	bltu	s5,t3,80003200 <i_3057>

000000008000320c <i_3059>:
    8000320c:	fd412603          	lw	a2,-44(sp)

0000000080003210 <i_3060>:
    80003210:	f9213423          	sd	s2,-120(sp)

0000000080003214 <i_3061>:
    80003214:	01300793          	li	a5,19

0000000080003218 <i_3062>:
    80003218:	00f25ab3          	srl	s5,tp,a5

000000008000321c <i_3063>:
    8000321c:	f8e11303          	lh	t1,-114(sp)

0000000080003220 <i_3064>:
    80003220:	f2f12e23          	sw	a5,-196(sp)

0000000080003224 <i_3065>:
    80003224:	00479793          	slli	a5,a5,0x4

0000000080003228 <i_3066>:
    80003228:	001d8d93          	addi	s11,s11,1
    8000322c:	fdb452e3          	ble	s11,s0,800031f0 <i_3053>

0000000080003230 <i_3067>:
    80003230:	00c66663          	bltu	a2,a2,8000323c <i_3070>

0000000080003234 <i_3068>:
    80003234:	019ad463          	ble	s9,s5,8000323c <i_3070>

0000000080003238 <i_3069>:
    80003238:	01c2fa63          	bleu	t3,t0,8000324c <i_3074>

000000008000323c <i_3070>:
    8000323c:	0082ca63          	blt	t0,s0,80003250 <i_3075>

0000000080003240 <i_3071>:
    80003240:	e7813983          	ld	s3,-392(sp)

0000000080003244 <i_3072>:
    80003244:	13812383          	lw	t2,312(sp)

0000000080003248 <i_3073>:
    80003248:	035644bb          	divw	s1,a2,s5

000000008000324c <i_3074>:
    8000324c:	e9512823          	sw	s5,-368(sp)

0000000080003250 <i_3075>:
    80003250:	1c211983          	lh	s3,450(sp)

0000000080003254 <i_3076>:
    80003254:	0073de63          	ble	t2,t2,80003270 <i_3083>

0000000080003258 <i_3077>:
    80003258:	eed12623          	sw	a3,-276(sp)

000000008000325c <i_3078>:
    8000325c:	00700313          	li	t1,7

0000000080003260 <i_3079>:
    80003260:	006614b3          	sll	s1,a2,t1

0000000080003264 <i_3080>:
    80003264:	01975863          	ble	s9,a4,80003274 <i_3084>

0000000080003268 <i_3081>:
    80003268:	03399e33          	mulh	t3,s3,s3

000000008000326c <i_3082>:
    8000326c:	0014961b          	slliw	a2,s1,0x1

0000000080003270 <i_3083>:
    80003270:	ffb10483          	lb	s1,-5(sp)

0000000080003274 <i_3084>:
    80003274:	02f32833          	mulhsu	a6,t1,a5

0000000080003278 <i_3085>:
    80003278:	13c11e83          	lh	t4,316(sp)

000000008000327c <i_3086>:
    8000327c:	02300493          	li	s1,35

0000000080003280 <i_3087>:
    80003280:	409edeb3          	sra	t4,t4,s1

0000000080003284 <i_3088>:
    80003284:	87100813          	li	a6,-1935

0000000080003288 <i_3089>:
    80003288:	87a00593          	li	a1,-1926

000000008000328c <i_3090>:
    8000328c:	00b85463          	ble	a1,a6,80003294 <i_3092>

0000000080003290 <i_3091>:
    80003290:	01d86263          	bltu	a6,t4,80003294 <i_3092>

0000000080003294 <i_3092>:
    80003294:	1bc15483          	lhu	s1,444(sp)

0000000080003298 <i_3093>:
    80003298:	03084ebb          	divw	t4,a6,a6

000000008000329c <i_3094>:
    8000329c:	0f210e83          	lb	t4,242(sp)

00000000800032a0 <i_3095>:
    800032a0:	0c211783          	lh	a5,194(sp)

00000000800032a4 <i_3096>:
    800032a4:	00180813          	addi	a6,a6,1
    800032a8:	ff05f0e3          	bleu	a6,a1,80003288 <i_3089>

00000000800032ac <i_3097>:
    800032ac:	02fe8c33          	mul	s8,t4,a5

00000000800032b0 <i_3098>:
    800032b0:	00e79463          	bne	a5,a4,800032b8 <i_3100>

00000000800032b4 <i_3099>:
    800032b4:	1bc10503          	lb	a0,444(sp)

00000000800032b8 <i_3100>:
    800032b8:	02aa5a33          	divu	s4,s4,a0

00000000800032bc <i_3101>:
    800032bc:	402a5a1b          	sraiw	s4,s4,0x2

00000000800032c0 <i_3102>:
    800032c0:	8c000e93          	li	t4,-1856

00000000800032c4 <i_3103>:
    800032c4:	8cb00d93          	li	s11,-1845

00000000800032c8 <i_3104>:
    800032c8:	01800513          	li	a0,24

00000000800032cc <i_3105>:
    800032cc:	00a515bb          	sllw	a1,a0,a0

00000000800032d0 <i_3106>:
    800032d0:	00000013          	nop

00000000800032d4 <i_3107>:
    800032d4:	001e8e93          	addi	t4,t4,1 # 688cc019 <main-0x17733fe7>
    800032d8:	ffbee8e3          	bltu	t4,s11,800032c8 <i_3104>

00000000800032dc <i_3108>:
    800032dc:	1dd12823          	sw	t4,464(sp)

00000000800032e0 <i_3109>:
    800032e0:	0035dc13          	srli	s8,a1,0x3

00000000800032e4 <i_3110>:
    800032e4:	01813e83          	ld	t4,24(sp)

00000000800032e8 <i_3111>:
    800032e8:	00a54863          	blt	a0,a0,800032f8 <i_3115>

00000000800032ec <i_3112>:
    800032ec:	01d54a63          	blt	a0,t4,80003300 <i_3117>

00000000800032f0 <i_3113>:
    800032f0:	02a50063          	beq	a0,a0,80003310 <i_3121>

00000000800032f4 <i_3114>:
    800032f4:	f4a13423          	sd	a0,-184(sp)

00000000800032f8 <i_3115>:
    800032f8:	dc9e8e93          	addi	t4,t4,-567

00000000800032fc <i_3116>:
    800032fc:	ed016b83          	lwu	s7,-304(sp)

0000000080003300 <i_3117>:
    80003300:	012ba533          	slt	a0,s7,s2

0000000080003304 <i_3118>:
    80003304:	99ffae93          	slti	t4,t6,-1633

0000000080003308 <i_3119>:
    80003308:	beeeec13          	ori	s8,t4,-1042

000000008000330c <i_3120>:
    8000330c:	017c4bb3          	xor	s7,s8,s7

0000000080003310 <i_3121>:
    80003310:	e1c14e83          	lbu	t4,-484(sp)

0000000080003314 <i_3122>:
    80003314:	01dc5a63          	ble	t4,s8,80003328 <i_3127>

0000000080003318 <i_3123>:
    80003318:	0b810e03          	lb	t3,184(sp)

000000008000331c <i_3124>:
    8000331c:	01ee6663          	bltu	t3,t5,80003328 <i_3127>

0000000080003320 <i_3125>:
    80003320:	018c5463          	ble	s8,s8,80003328 <i_3127>

0000000080003324 <i_3126>:
    80003324:	03dcfc3b          	remuw	s8,s9,t4

0000000080003328 <i_3127>:
    80003328:	fb615483          	lhu	s1,-74(sp)

000000008000332c <i_3128>:
    8000332c:	018ef663          	bleu	s8,t4,80003338 <i_3131>

0000000080003330 <i_3129>:
    80003330:	01f00e93          	li	t4,31

0000000080003334 <i_3130>:
    80003334:	01d49e33          	sll	t3,s1,t4

0000000080003338 <i_3131>:
    80003338:	03714c03          	lbu	s8,55(sp)

000000008000333c <i_3132>:
    8000333c:	f5c12623          	sw	t3,-180(sp)

0000000080003340 <i_3133>:
    80003340:	018c1a63          	bne	s8,s8,80003354 <i_3138>

0000000080003344 <i_3134>:
    80003344:	03848633          	mul	a2,s1,s8

0000000080003348 <i_3135>:
    80003348:	e4c11923          	sh	a2,-430(sp)

000000008000334c <i_3136>:
    8000334c:	11211383          	lh	t2,274(sp)

0000000080003350 <i_3137>:
    80003350:	03460633          	mul	a2,a2,s4

0000000080003354 <i_3138>:
    80003354:	0273e633          	rem	a2,t2,t2

0000000080003358 <i_3139>:
    80003358:	e89eee93          	ori	t4,t4,-375

000000008000335c <i_3140>:
    8000335c:	e2e14e83          	lbu	t4,-466(sp)

0000000080003360 <i_3141>:
    80003360:	fe710c23          	sb	t2,-8(sp)

0000000080003364 <i_3142>:
    80003364:	01714303          	lbu	t1,23(sp)

0000000080003368 <i_3143>:
    80003368:	00000013          	nop

000000008000336c <i_3144>:
    8000336c:	8b700e93          	li	t4,-1865

0000000080003370 <i_3145>:
    80003370:	8c300393          	li	t2,-1853

0000000080003374 <i_3146>:
    80003374:	4193063b          	subw	a2,t1,s9

0000000080003378 <i_3147>:
    80003378:	13111e23          	sh	a7,316(sp)

000000008000337c <i_3148>:
    8000337c:	8b500a93          	li	s5,-1867

0000000080003380 <i_3149>:
    80003380:	8be00513          	li	a0,-1858

0000000080003384 <i_3150>:
    80003384:	001a8a93          	addi	s5,s5,1
    80003388:	feaaeee3          	bltu	s5,a0,80003384 <i_3150>

000000008000338c <i_3151>:
    8000338c:	e6615503          	lhu	a0,-410(sp)

0000000080003390 <i_3152>:
    80003390:	ed810603          	lb	a2,-296(sp)

0000000080003394 <i_3153>:
    80003394:	001e8e93          	addi	t4,t4,1
    80003398:	fdd3fee3          	bleu	t4,t2,80003374 <i_3146>

000000008000339c <i_3154>:
    8000339c:	40c90ab3          	sub	s5,s2,a2

00000000800033a0 <i_3155>:
    800033a0:	415503b3          	sub	t2,a0,s5

00000000800033a4 <i_3156>:
    800033a4:	78c00a13          	li	s4,1932

00000000800033a8 <i_3157>:
    800033a8:	79c00193          	li	gp,1948

00000000800033ac <i_3158>:
    800033ac:	001a0a13          	addi	s4,s4,1
    800033b0:	fe3a1ee3          	bne	s4,gp,800033ac <i_3158>

00000000800033b4 <i_3159>:
    800033b4:	004a9093          	slli	ra,s5,0x4

00000000800033b8 <i_3160>:
    800033b8:	015c5263          	ble	s5,s8,800033bc <i_3161>

00000000800033bc <i_3161>:
    800033bc:	13512c23          	sw	s5,312(sp)

00000000800033c0 <i_3162>:
    800033c0:	11511523          	sh	s5,266(sp)

00000000800033c4 <i_3163>:
    800033c4:	8af00c13          	li	s8,-1873

00000000800033c8 <i_3164>:
    800033c8:	8ba00513          	li	a0,-1862

00000000800033cc <i_3165>:
    800033cc:	13210383          	lb	t2,306(sp)

00000000800033d0 <i_3166>:
    800033d0:	03816183          	lwu	gp,56(sp)

00000000800033d4 <i_3167>:
    800033d4:	06c11303          	lh	t1,108(sp)

00000000800033d8 <i_3168>:
    800033d8:	00a50463          	beq	a0,a0,800033e0 <i_3170>

00000000800033dc <i_3169>:
    800033dc:	0375d5b3          	divu	a1,a1,s7

00000000800033e0 <i_3170>:
    800033e0:	00800593          	li	a1,8

00000000800033e4 <i_3171>:
    800033e4:	40b355bb          	sraw	a1,t1,a1

00000000800033e8 <i_3172>:
    800033e8:	00000013          	nop

00000000800033ec <i_3173>:
    800033ec:	1a416583          	lwu	a1,420(sp)

00000000800033f0 <i_3174>:
    800033f0:	ea75f593          	andi	a1,a1,-345

00000000800033f4 <i_3175>:
    800033f4:	0025931b          	slliw	t1,a1,0x2

00000000800033f8 <i_3176>:
    800033f8:	001c0c13          	addi	s8,s8,1
    800033fc:	fd8558e3          	ble	s8,a0,800033cc <i_3165>

0000000080003400 <i_3177>:
    80003400:	00b5de63          	ble	a1,a1,8000341c <i_3184>

0000000080003404 <i_3178>:
    80003404:	ed815a83          	lhu	s5,-296(sp)

0000000080003408 <i_3179>:
    80003408:	e0610ca3          	sb	t1,-487(sp)

000000008000340c <i_3180>:
    8000340c:	e6b13c23          	sd	a1,-392(sp)

0000000080003410 <i_3181>:
    80003410:	0ab11f23          	sh	a1,190(sp)

0000000080003414 <i_3182>:
    80003414:	01d34333          	xor	t1,t1,t4

0000000080003418 <i_3183>:
    80003418:	18816a83          	lwu	s5,392(sp)

000000008000341c <i_3184>:
    8000341c:	019c5863          	ble	s9,s8,8000342c <i_3188>

0000000080003420 <i_3185>:
    80003420:	035a9ab3          	mulh	s5,s5,s5

0000000080003424 <i_3186>:
    80003424:	01564633          	xor	a2,a2,s5

0000000080003428 <i_3187>:
    80003428:	01536c63          	bltu	t1,s5,80003440 <i_3193>

000000008000342c <i_3188>:
    8000342c:	05511423          	sh	s5,72(sp)

0000000080003430 <i_3189>:
    80003430:	00635a63          	ble	t1,t1,80003444 <i_3194>

0000000080003434 <i_3190>:
    80003434:	026e8463          	beq	t4,t1,8000345c <i_3200>

0000000080003438 <i_3191>:
    80003438:	01deaeb3          	slt	t4,t4,t4

000000008000343c <i_3192>:
    8000343c:	17513023          	sd	s5,352(sp)

0000000080003440 <i_3193>:
    80003440:	03760bbb          	mulw	s7,a2,s7

0000000080003444 <i_3194>:
    80003444:	4078833b          	subw	t1,a7,t2

0000000080003448 <i_3195>:
    80003448:	01700513          	li	a0,23

000000008000344c <i_3196>:
    8000344c:	00aa9cbb          	sllw	s9,s5,a0

0000000080003450 <i_3197>:
    80003450:	037af463          	bleu	s7,s5,80003478 <i_3207>

0000000080003454 <i_3198>:
    80003454:	01dcd263          	ble	t4,s9,80003458 <i_3199>

0000000080003458 <i_3199>:
    80003458:	f99101a3          	sb	s9,-125(sp)

000000008000345c <i_3200>:
    8000345c:	00aeea63          	bltu	t4,a0,80003470 <i_3205>

0000000080003460 <i_3201>:
    80003460:	15110183          	lb	gp,337(sp)

0000000080003464 <i_3202>:
    80003464:	10310fa3          	sb	gp,287(sp)

0000000080003468 <i_3203>:
    80003468:	01100613          	li	a2,17

000000008000346c <i_3204>:
    8000346c:	40c65cbb          	sraw	s9,a2,a2

0000000080003470 <i_3205>:
    80003470:	174cec93          	ori	s9,s9,372

0000000080003474 <i_3206>:
    80003474:	01918633          	add	a2,gp,s9

0000000080003478 <i_3207>:
    80003478:	01200413          	li	s0,18

000000008000347c <i_3208>:
    8000347c:	008393b3          	sll	t2,t2,s0

0000000080003480 <i_3209>:
    80003480:	023421b3          	mulhsu	gp,s0,gp

0000000080003484 <i_3210>:
    80003484:	f3d14183          	lbu	gp,-195(sp)

0000000080003488 <i_3211>:
    80003488:	e5810583          	lb	a1,-424(sp)

000000008000348c <i_3212>:
    8000348c:	02584e3b          	divw	t3,a6,t0

0000000080003490 <i_3213>:
    80003490:	83c00c13          	li	s8,-1988

0000000080003494 <i_3214>:
    80003494:	83f00813          	li	a6,-1985

0000000080003498 <i_3215>:
    80003498:	72e1ac93          	slti	s9,gp,1838

000000008000349c <i_3216>:
    8000349c:	001c0c13          	addi	s8,s8,1
    800034a0:	ff0c6ce3          	bltu	s8,a6,80003498 <i_3215>

00000000800034a4 <i_3217>:
    800034a4:	03816203          	lwu	tp,56(sp)

00000000800034a8 <i_3218>:
    800034a8:	ff412183          	lw	gp,-12(sp)

00000000800034ac <i_3219>:
    800034ac:	02745063          	ble	t2,s0,800034cc <i_3227>

00000000800034b0 <i_3220>:
    800034b0:	01ce1a63          	bne	t3,t3,800034c4 <i_3225>

00000000800034b4 <i_3221>:
    800034b4:	1c810e03          	lb	t3,456(sp)

00000000800034b8 <i_3222>:
    800034b8:	05013823          	sd	a6,80(sp)

00000000800034bc <i_3223>:
    800034bc:	00375a63          	ble	gp,a4,800034d0 <i_3228>

00000000800034c0 <i_3224>:
    800034c0:	41ca0233          	sub	tp,s4,t3

00000000800034c4 <i_3225>:
    800034c4:	007e63b3          	or	t2,t3,t2

00000000800034c8 <i_3226>:
    800034c8:	01400413          	li	s0,20

00000000800034cc <i_3227>:
    800034cc:	40845ebb          	sraw	t4,s0,s0

00000000800034d0 <i_3228>:
    800034d0:	f7c16e03          	lwu	t3,-132(sp)

00000000800034d4 <i_3229>:
    800034d4:	023ecebb          	divw	t4,t4,gp

00000000800034d8 <i_3230>:
    800034d8:	e9c15203          	lhu	tp,-356(sp)

00000000800034dc <i_3231>:
    800034dc:	f3d12c23          	sw	t4,-200(sp)

00000000800034e0 <i_3232>:
    800034e0:	01c35663          	ble	t3,t1,800034ec <i_3235>

00000000800034e4 <i_3233>:
    800034e4:	04812783          	lw	a5,72(sp)

00000000800034e8 <i_3234>:
    800034e8:	1ba11e03          	lh	t3,442(sp)

00000000800034ec <i_3235>:
    800034ec:	0a410b23          	sb	tp,182(sp)

00000000800034f0 <i_3236>:
    800034f0:	f8f13c23          	sd	a5,-104(sp)

00000000800034f4 <i_3237>:
    800034f4:	00f45263          	ble	a5,s0,800034f8 <i_3238>

00000000800034f8 <i_3238>:
    800034f8:	feb14783          	lbu	a5,-21(sp)

00000000800034fc <i_3239>:
    800034fc:	0ef11b23          	sh	a5,246(sp)

0000000080003500 <i_3240>:
    80003500:	1ca14783          	lbu	a5,458(sp)

0000000080003504 <i_3241>:
    80003504:	03c37e33          	remu	t3,t1,t3

0000000080003508 <i_3242>:
    80003508:	ff011783          	lh	a5,-16(sp)

000000008000350c <i_3243>:
    8000350c:	0060a333          	slt	t1,ra,t1

0000000080003510 <i_3244>:
    80003510:	ea412c83          	lw	s9,-348(sp)

0000000080003514 <i_3245>:
    80003514:	00f36333          	or	t1,t1,a5

0000000080003518 <i_3246>:
    80003518:	03909063          	bne	ra,s9,80003538 <i_3254>

000000008000351c <i_3247>:
    8000351c:	0397b1b3          	mulhu	gp,a5,s9

0000000080003520 <i_3248>:
    80003520:	f06103a3          	sb	t1,-249(sp)

0000000080003524 <i_3249>:
    80003524:	00634c63          	blt	t1,t1,8000353c <i_3255>

0000000080003528 <i_3250>:
    80003528:	0017d513          	srli	a0,a5,0x1

000000008000352c <i_3251>:
    8000352c:	fc613423          	sd	t1,-56(sp)

0000000080003530 <i_3252>:
    80003530:	ee010783          	lb	a5,-288(sp)

0000000080003534 <i_3253>:
    80003534:	18215803          	lhu	a6,386(sp)

0000000080003538 <i_3254>:
    80003538:	0f812803          	lw	a6,248(sp)

000000008000353c <i_3255>:
    8000353c:	04a11803          	lh	a6,74(sp)

0000000080003540 <i_3256>:
    80003540:	0301d1b3          	divu	gp,gp,a6

0000000080003544 <i_3257>:
    80003544:	0301e1b3          	rem	gp,gp,a6

0000000080003548 <i_3258>:
    80003548:	eac11483          	lh	s1,-340(sp)

000000008000354c <i_3259>:
    8000354c:	ed8db193          	sltiu	gp,s11,-296

0000000080003550 <i_3260>:
    80003550:	00913423          	sd	s1,8(sp)

0000000080003554 <i_3261>:
    80003554:	89b00d93          	li	s11,-1893

0000000080003558 <i_3262>:
    80003558:	8a900813          	li	a6,-1879

000000008000355c <i_3263>:
    8000355c:	0292e4b3          	rem	s1,t0,s1

0000000080003560 <i_3264>:
    80003560:	e4913423          	sd	s1,-440(sp)

0000000080003564 <i_3265>:
    80003564:	003dfc63          	bleu	gp,s11,8000357c <i_3270>

0000000080003568 <i_3266>:
    80003568:	001d8d93          	addi	s11,s11,1
    8000356c:	ff0dc8e3          	blt	s11,a6,8000355c <i_3263>

0000000080003570 <i_3267>:
    80003570:	01612a23          	sw	s6,20(sp)

0000000080003574 <i_3268>:
    80003574:	00348db3          	add	s11,s1,gp

0000000080003578 <i_3269>:
    80003578:	f3910d83          	lb	s11,-199(sp)

000000008000357c <i_3270>:
    8000357c:	e4913823          	sd	s1,-432(sp)

0000000080003580 <i_3271>:
    80003580:	023841b3          	div	gp,a6,gp

0000000080003584 <i_3272>:
    80003584:	01200613          	li	a2,18

0000000080003588 <i_3273>:
    80003588:	00ccdcbb          	srlw	s9,s9,a2

000000008000358c <i_3274>:
    8000358c:	f1a10183          	lb	gp,-230(sp)

0000000080003590 <i_3275>:
    80003590:	fa411183          	lh	gp,-92(sp)

0000000080003594 <i_3276>:
    80003594:	002c921b          	slliw	tp,s9,0x2

0000000080003598 <i_3277>:
    80003598:	81dc8237          	lui	tp,0x81dc8

000000008000359c <i_3278>:
    8000359c:	f8111a23          	sh	ra,-108(sp)

00000000800035a0 <i_3279>:
    800035a0:	fb8108a3          	sb	s8,-79(sp)

00000000800035a4 <i_3280>:
    800035a4:	e5913c23          	sd	s9,-424(sp)

00000000800035a8 <i_3281>:
    800035a8:	003c5c63          	ble	gp,s8,800035c0 <i_3287>

00000000800035ac <i_3282>:
    800035ac:	14310623          	sb	gp,332(sp)

00000000800035b0 <i_3283>:
    800035b0:	01800193          	li	gp,24

00000000800035b4 <i_3284>:
    800035b4:	003c923b          	sllw	tp,s9,gp

00000000800035b8 <i_3285>:
    800035b8:	018c5263          	ble	s8,s8,800035bc <i_3286>

00000000800035bc <i_3286>:
    800035bc:	fb4106a3          	sb	s4,-83(sp)

00000000800035c0 <i_3287>:
    800035c0:	01820e63          	beq	tp,s8,800035dc <i_3294>

00000000800035c4 <i_3288>:
    800035c4:	00319263          	bne	gp,gp,800035c8 <i_3289>

00000000800035c8 <i_3289>:
    800035c8:	018181b3          	add	gp,gp,s8

00000000800035cc <i_3290>:
    800035cc:	01600093          	li	ra,22

00000000800035d0 <i_3291>:
    800035d0:	401adabb          	sraw	s5,s5,ra

00000000800035d4 <i_3292>:
    800035d4:	00000013          	nop

00000000800035d8 <i_3293>:
    800035d8:	e1d14a03          	lbu	s4,-483(sp)

00000000800035dc <i_3294>:
    800035dc:	eb5102a3          	sb	s5,-347(sp)

00000000800035e0 <i_3295>:
    800035e0:	fc013e83          	ld	t4,-64(sp)

00000000800035e4 <i_3296>:
    800035e4:	78300193          	li	gp,1923

00000000800035e8 <i_3297>:
    800035e8:	79200c13          	li	s8,1938

00000000800035ec <i_3298>:
    800035ec:	00118193          	addi	gp,gp,1 # beb76c79 <_end+0x3eb66865>
    800035f0:	ff81cee3          	blt	gp,s8,800035ec <i_3298>

00000000800035f4 <i_3299>:
    800035f4:	00000013          	nop

00000000800035f8 <i_3300>:
    800035f8:	f3013083          	ld	ra,-208(sp)

00000000800035fc <i_3301>:
    800035fc:	f8412403          	lw	s0,-124(sp)

0000000080003600 <i_3302>:
    80003600:	f2313c23          	sd	gp,-200(sp)

0000000080003604 <i_3303>:
    80003604:	18510e83          	lb	t4,389(sp)

0000000080003608 <i_3304>:
    80003608:	065109a3          	sb	t0,115(sp)

000000008000360c <i_3305>:
    8000360c:	6aa7be37          	lui	t3,0x6aa7b

0000000080003610 <i_3306>:
    80003610:	03ce02b3          	mul	t0,t3,t3

0000000080003614 <i_3307>:
    80003614:	3322e313          	ori	t1,t0,818

0000000080003618 <i_3308>:
    80003618:	01b00493          	li	s1,27

000000008000361c <i_3309>:
    8000361c:	0092de3b          	srlw	t3,t0,s1

0000000080003620 <i_3310>:
    80003620:	01c2f7b3          	and	a5,t0,t3

0000000080003624 <i_3311>:
    80003624:	10a11e03          	lh	t3,266(sp)

0000000080003628 <i_3312>:
    80003628:	7b900293          	li	t0,1977

000000008000362c <i_3313>:
    8000362c:	7cb00313          	li	t1,1995

0000000080003630 <i_3314>:
    80003630:	04412403          	lw	s0,68(sp)

0000000080003634 <i_3315>:
    80003634:	e8615383          	lhu	t2,-378(sp)

0000000080003638 <i_3316>:
    80003638:	0293ce3b          	divw	t3,t2,s1

000000008000363c <i_3317>:
    8000363c:	00743433          	sltu	s0,s0,t2

0000000080003640 <i_3318>:
    80003640:	f9c11083          	lh	ra,-100(sp)

0000000080003644 <i_3319>:
    80003644:	6910ae13          	slti	t3,ra,1681

0000000080003648 <i_3320>:
    80003648:	12813a03          	ld	s4,296(sp)

000000008000364c <i_3321>:
    8000364c:	f0814d83          	lbu	s11,-248(sp)

0000000080003650 <i_3322>:
    80003650:	18c11d83          	lh	s11,396(sp)

0000000080003654 <i_3323>:
    80003654:	07613c23          	sd	s6,120(sp)

0000000080003658 <i_3324>:
    80003658:	00128293          	addi	t0,t0,1
    8000365c:	fc62eae3          	bltu	t0,t1,80003630 <i_3314>

0000000080003660 <i_3325>:
    80003660:	05510e83          	lb	t4,85(sp)

0000000080003664 <i_3326>:
    80003664:	68343a13          	sltiu	s4,s0,1667

0000000080003668 <i_3327>:
    80003668:	e6c12e83          	lw	t4,-404(sp)

000000008000366c <i_3328>:
    8000366c:	028ee43b          	remw	s0,t4,s0

0000000080003670 <i_3329>:
    80003670:	02cd8063          	beq	s11,a2,80003690 <i_3337>

0000000080003674 <i_3330>:
    80003674:	03100813          	li	a6,49

0000000080003678 <i_3331>:
    80003678:	410edeb3          	sra	t4,t4,a6

000000008000367c <i_3332>:
    8000367c:	01beadb3          	slt	s11,t4,s11

0000000080003680 <i_3333>:
    80003680:	00900313          	li	t1,9

0000000080003684 <i_3334>:
    80003684:	00619abb          	sllw	s5,gp,t1

0000000080003688 <i_3335>:
    80003688:	1c014083          	lbu	ra,448(sp)

000000008000368c <i_3336>:
    8000368c:	4010da9b          	sraiw	s5,ra,0x1

0000000080003690 <i_3337>:
    80003690:	f3b32d93          	slti	s11,t1,-197

0000000080003694 <i_3338>:
    80003694:	13733a13          	sltiu	s4,t1,311

0000000080003698 <i_3339>:
    80003698:	01800d93          	li	s11,24

000000008000369c <i_3340>:
    8000369c:	01b55db3          	srl	s11,a0,s11

00000000800036a0 <i_3341>:
    800036a0:	89800093          	li	ra,-1896

00000000800036a4 <i_3342>:
    800036a4:	8ab00313          	li	t1,-1877

00000000800036a8 <i_3343>:
    800036a8:	fda12c23          	sw	s10,-40(sp)

00000000800036ac <i_3344>:
    800036ac:	7e400a93          	li	s5,2020

00000000800036b0 <i_3345>:
    800036b0:	7f400513          	li	a0,2036

00000000800036b4 <i_3346>:
    800036b4:	03b3bdb3          	mulhu	s11,t2,s11

00000000800036b8 <i_3347>:
    800036b8:	01200d93          	li	s11,18

00000000800036bc <i_3348>:
    800036bc:	41bad43b          	sraw	s0,s5,s11

00000000800036c0 <i_3349>:
    800036c0:	00000013          	nop

00000000800036c4 <i_3350>:
    800036c4:	002a9a1b          	slliw	s4,s5,0x2

00000000800036c8 <i_3351>:
    800036c8:	03436863          	bltu	t1,s4,800036f8 <i_3361>

00000000800036cc <i_3352>:
    800036cc:	0a812423          	sw	s0,168(sp)

00000000800036d0 <i_3353>:
    800036d0:	00000013          	nop

00000000800036d4 <i_3354>:
    800036d4:	02400d93          	li	s11,36

00000000800036d8 <i_3355>:
    800036d8:	01b354b3          	srl	s1,t1,s11

00000000800036dc <i_3356>:
    800036dc:	001a8a93          	addi	s5,s5,1
    800036e0:	fcaacae3          	blt	s5,a0,800036b4 <i_3346>

00000000800036e4 <i_3357>:
    800036e4:	00108093          	addi	ra,ra,1
    800036e8:	fa609ee3          	bne	ra,t1,800036a4 <i_3342>

00000000800036ec <i_3358>:
    800036ec:	02812b83          	lw	s7,40(sp)

00000000800036f0 <i_3359>:
    800036f0:	01900593          	li	a1,25

00000000800036f4 <i_3360>:
    800036f4:	00b4ddbb          	srlw	s11,s1,a1

00000000800036f8 <i_3361>:
    800036f8:	01ebed93          	ori	s11,s7,30

00000000800036fc <i_3362>:
    800036fc:	f9011b83          	lh	s7,-112(sp)

0000000080003700 <i_3363>:
    80003700:	017bcc63          	blt	s7,s7,80003718 <i_3369>

0000000080003704 <i_3364>:
    80003704:	03700b93          	li	s7,55

0000000080003708 <i_3365>:
    80003708:	417a5a33          	sra	s4,s4,s7

000000008000370c <i_3366>:
    8000370c:	05712423          	sw	s7,72(sp)

0000000080003710 <i_3367>:
    80003710:	98d86513          	ori	a0,a6,-1651

0000000080003714 <i_3368>:
    80003714:	1bf14e83          	lbu	t4,447(sp)

0000000080003718 <i_3369>:
    80003718:	0015181b          	slliw	a6,a0,0x1

000000008000371c <i_3370>:
    8000371c:	01d38463          	beq	t2,t4,80003724 <i_3372>

0000000080003720 <i_3371>:
    80003720:	13813a83          	ld	s5,312(sp)

0000000080003724 <i_3372>:
    80003724:	0e411223          	sh	tp,228(sp)

0000000080003728 <i_3373>:
    80003728:	07d11723          	sh	t4,110(sp)

000000008000372c <i_3374>:
    8000372c:	80e00813          	li	a6,-2034

0000000080003730 <i_3375>:
    80003730:	81c00413          	li	s0,-2020

0000000080003734 <i_3376>:
    80003734:	d3df4193          	xori	gp,t5,-707

0000000080003738 <i_3377>:
    80003738:	1ac11783          	lh	a5,428(sp)

000000008000373c <i_3378>:
    8000373c:	02fef33b          	remuw	t1,t4,a5

0000000080003740 <i_3379>:
    80003740:	03b14783          	lbu	a5,59(sp)

0000000080003744 <i_3380>:
    80003744:	00000013          	nop

0000000080003748 <i_3381>:
    80003748:	8c900613          	li	a2,-1847

000000008000374c <i_3382>:
    8000374c:	8ce00993          	li	s3,-1842

0000000080003750 <i_3383>:
    80003750:	00160613          	addi	a2,a2,1
    80003754:	ff364ee3          	blt	a2,s3,80003750 <i_3383>

0000000080003758 <i_3384>:
    80003758:	0d013203          	ld	tp,208(sp)

000000008000375c <i_3385>:
    8000375c:	00300293          	li	t0,3

0000000080003760 <i_3386>:
    80003760:	00519633          	sll	a2,gp,t0

0000000080003764 <i_3387>:
    80003764:	03313023          	sd	s3,32(sp)

0000000080003768 <i_3388>:
    80003768:	01412a03          	lw	s4,20(sp)

000000008000376c <i_3389>:
    8000376c:	00180813          	addi	a6,a6,1
    80003770:	fd0452e3          	ble	a6,s0,80003734 <i_3376>

0000000080003774 <i_3390>:
    80003774:	0147ce63          	blt	a5,s4,80003790 <i_3397>

0000000080003778 <i_3391>:
    80003778:	02c1c063          	blt	gp,a2,80003798 <i_3399>

000000008000377c <i_3392>:
    8000377c:	025a523b          	divuw	tp,s4,t0

0000000080003780 <i_3393>:
    80003780:	4062083b          	subw	a6,tp,t1

0000000080003784 <i_3394>:
    80003784:	00000013          	nop

0000000080003788 <i_3395>:
    80003788:	e6813383          	ld	t2,-408(sp)

000000008000378c <i_3396>:
    8000378c:	03083833          	mulhu	a6,a6,a6

0000000080003790 <i_3397>:
    80003790:	07011a23          	sh	a6,116(sp)

0000000080003794 <i_3398>:
    80003794:	0273e3bb          	remw	t2,t2,t2

0000000080003798 <i_3399>:
    80003798:	0273d3b3          	divu	t2,t2,t2

000000008000379c <i_3400>:
    8000379c:	0e710c23          	sb	t2,248(sp)

00000000800037a0 <i_3401>:
    800037a0:	79600313          	li	t1,1942

00000000800037a4 <i_3402>:
    800037a4:	7aa00213          	li	tp,1962

00000000800037a8 <i_3403>:
    800037a8:	0303f7b3          	remu	a5,t2,a6

00000000800037ac <i_3404>:
    800037ac:	02e12813          	slti	a6,sp,46

00000000800037b0 <i_3405>:
    800037b0:	00130313          	addi	t1,t1,1
    800037b4:	fe627ae3          	bleu	t1,tp,800037a8 <i_3403>

00000000800037b8 <i_3406>:
    800037b8:	007c8eb3          	add	t4,s9,t2

00000000800037bc <i_3407>:
    800037bc:	03d7ceb3          	div	t4,a5,t4

00000000800037c0 <i_3408>:
    800037c0:	11d11223          	sh	t4,260(sp)

00000000800037c4 <i_3409>:
    800037c4:	00281a1b          	slliw	s4,a6,0x2

00000000800037c8 <i_3410>:
    800037c8:	00e00393          	li	t2,14

00000000800037cc <i_3411>:
    800037cc:	0073d3bb          	srlw	t2,t2,t2

00000000800037d0 <i_3412>:
    800037d0:	03d8483b          	divw	a6,a6,t4

00000000800037d4 <i_3413>:
    800037d4:	01500c13          	li	s8,21

00000000800037d8 <i_3414>:
    800037d8:	018952b3          	srl	t0,s2,s8

00000000800037dc <i_3415>:
    800037dc:	ff813383          	ld	t2,-8(sp)

00000000800037e0 <i_3416>:
    800037e0:	15811323          	sh	s8,326(sp)

00000000800037e4 <i_3417>:
    800037e4:	0273d2b3          	divu	t0,t2,t2

00000000800037e8 <i_3418>:
    800037e8:	025d8463          	beq	s11,t0,80003810 <i_3428>

00000000800037ec <i_3419>:
    800037ec:	f6513023          	sd	t0,-160(sp)

00000000800037f0 <i_3420>:
    800037f0:	027df1bb          	remuw	gp,s11,t2

00000000800037f4 <i_3421>:
    800037f4:	18313023          	sd	gp,384(sp)

00000000800037f8 <i_3422>:
    800037f8:	012c5863          	ble	s2,s8,80003808 <i_3426>

00000000800037fc <i_3423>:
    800037fc:	038963bb          	remw	t2,s2,s8

0000000080003800 <i_3424>:
    80003800:	018c4863          	blt	s8,s8,80003810 <i_3428>

0000000080003804 <i_3425>:
    80003804:	15813283          	ld	t0,344(sp)

0000000080003808 <i_3426>:
    80003808:	00013d83          	ld	s11,0(sp)

000000008000380c <i_3427>:
    8000380c:	4042dc13          	srai	s8,t0,0x4

0000000080003810 <i_3428>:
    80003810:	15210083          	lb	ra,338(sp)

0000000080003814 <i_3429>:
    80003814:	00129a63          	bne	t0,ra,80003828 <i_3434>

0000000080003818 <i_3430>:
    80003818:	f6013a03          	ld	s4,-160(sp)

000000008000381c <i_3431>:
    8000381c:	03860463          	beq	a2,s8,80003844 <i_3441>

0000000080003820 <i_3432>:
    80003820:	00543a33          	sltu	s4,s0,t0

0000000080003824 <i_3433>:
    80003824:	03b0c463          	blt	ra,s11,8000384c <i_3443>

0000000080003828 <i_3434>:
    80003828:	0182da63          	ble	s8,t0,8000383c <i_3439>

000000008000382c <i_3435>:
    8000382c:	247d8213          	addi	tp,s11,583

0000000080003830 <i_3436>:
    80003830:	fb514a03          	lbu	s4,-75(sp)

0000000080003834 <i_3437>:
    80003834:	f1812083          	lw	ra,-232(sp)

0000000080003838 <i_3438>:
    80003838:	f3714383          	lbu	t2,-201(sp)

000000008000383c <i_3439>:
    8000383c:	1a013503          	ld	a0,416(sp)

0000000080003840 <i_3440>:
    80003840:	00000013          	nop

0000000080003844 <i_3441>:
    80003844:	e3a11383          	lh	t2,-454(sp)

0000000080003848 <i_3442>:
    80003848:	00000013          	nop

000000008000384c <i_3443>:
    8000384c:	01000a93          	li	s5,16

0000000080003850 <i_3444>:
    80003850:	015a5a3b          	srlw	s4,s4,s5

0000000080003854 <i_3445>:
    80003854:	88300d93          	li	s11,-1917

0000000080003858 <i_3446>:
    80003858:	88900313          	li	t1,-1911

000000008000385c <i_3447>:
    8000385c:	00000013          	nop

0000000080003860 <i_3448>:
    80003860:	001d8d93          	addi	s11,s11,1
    80003864:	fe6dece3          	bltu	s11,t1,8000385c <i_3447>

0000000080003868 <i_3449>:
    80003868:	02736a33          	rem	s4,t1,t2

000000008000386c <i_3450>:
    8000386c:	0063d663          	ble	t1,t2,80003878 <i_3453>

0000000080003870 <i_3451>:
    80003870:	e9511a23          	sh	s5,-364(sp)

0000000080003874 <i_3452>:
    80003874:	00633a33          	sltu	s4,t1,t1

0000000080003878 <i_3453>:
    80003878:	f7510083          	lb	ra,-139(sp)

000000008000387c <i_3454>:
    8000387c:	0d413823          	sd	s4,208(sp)

0000000080003880 <i_3455>:
    80003880:	08c11a03          	lh	s4,140(sp)

0000000080003884 <i_3456>:
    80003884:	1a910303          	lb	t1,425(sp)

0000000080003888 <i_3457>:
    80003888:	01300c13          	li	s8,19

000000008000388c <i_3458>:
    8000388c:	018a11b3          	sll	gp,s4,s8

0000000080003890 <i_3459>:
    80003890:	025c6233          	rem	tp,s8,t0

0000000080003894 <i_3460>:
    80003894:	fa410ca3          	sb	tp,-71(sp)

0000000080003898 <i_3461>:
    80003898:	12012283          	lw	t0,288(sp)

000000008000389c <i_3462>:
    8000389c:	023341b3          	div	gp,t1,gp

00000000800038a0 <i_3463>:
    800038a0:	01800313          	li	t1,24

00000000800038a4 <i_3464>:
    800038a4:	006b5c3b          	srlw	s8,s6,t1

00000000800038a8 <i_3465>:
    800038a8:	005bce63          	blt	s7,t0,800038c4 <i_3472>

00000000800038ac <i_3466>:
    800038ac:	00129e1b          	slliw	t3,t0,0x1

00000000800038b0 <i_3467>:
    800038b0:	4013521b          	sraiw	tp,t1,0x1

00000000800038b4 <i_3468>:
    800038b4:	e1816383          	lwu	t2,-488(sp)

00000000800038b8 <i_3469>:
    800038b8:	41bc0db3          	sub	s11,s8,s11

00000000800038bc <i_3470>:
    800038bc:	40720db3          	sub	s11,tp,t2

00000000800038c0 <i_3471>:
    800038c0:	00000013          	nop

00000000800038c4 <i_3472>:
    800038c4:	00000013          	nop

00000000800038c8 <i_3473>:
    800038c8:	ffc10223          	sb	t3,-28(sp)

00000000800038cc <i_3474>:
    800038cc:	87400e93          	li	t4,-1932

00000000800038d0 <i_3475>:
    800038d0:	87a00493          	li	s1,-1926

00000000800038d4 <i_3476>:
    800038d4:	03ce5e33          	divu	t3,t3,t3

00000000800038d8 <i_3477>:
    800038d8:	00a00e13          	li	t3,10

00000000800038dc <i_3478>:
    800038dc:	01c71cbb          	sllw	s9,a4,t3

00000000800038e0 <i_3479>:
    800038e0:	09913423          	sd	s9,136(sp)

00000000800038e4 <i_3480>:
    800038e4:	00784863          	blt	a6,t2,800038f4 <i_3484>

00000000800038e8 <i_3481>:
    800038e8:	03ccd663          	ble	t3,s9,80003914 <i_3491>

00000000800038ec <i_3482>:
    800038ec:	02600c93          	li	s9,38

00000000800038f0 <i_3483>:
    800038f0:	019e5e33          	srl	t3,t3,s9

00000000800038f4 <i_3484>:
    800038f4:	e4c15e03          	lhu	t3,-436(sp)

00000000800038f8 <i_3485>:
    800038f8:	e5c12a23          	sw	t3,-428(sp)

00000000800038fc <i_3486>:
    800038fc:	ee112223          	sw	ra,-284(sp)

0000000080003900 <i_3487>:
    80003900:	001e8e93          	addi	t4,t4,1
    80003904:	fc9e98e3          	bne	t4,s1,800038d4 <i_3476>

0000000080003908 <i_3488>:
    80003908:	19a11e03          	lh	t3,410(sp)

000000008000390c <i_3489>:
    8000390c:	402e5e13          	srai	t3,t3,0x2

0000000080003910 <i_3490>:
    80003910:	e3f102a3          	sb	t6,-475(sp)

0000000080003914 <i_3491>:
    80003914:	17011e03          	lh	t3,368(sp)

0000000080003918 <i_3492>:
    80003918:	01ce1463          	bne	t3,t3,80003920 <i_3494>

000000008000391c <i_3493>:
    8000391c:	01e00e13          	li	t3,30

0000000080003920 <i_3494>:
    80003920:	01ce1233          	sll	tp,t3,t3

0000000080003924 <i_3495>:
    80003924:	06410b23          	sb	tp,118(sp)

0000000080003928 <i_3496>:
    80003928:	01ce1263          	bne	t3,t3,8000392c <i_3497>

000000008000392c <i_3497>:
    8000392c:	00527a63          	bleu	t0,tp,80003940 <i_3502>

0000000080003930 <i_3498>:
    80003930:	02bc7ab3          	remu	s5,s8,a1

0000000080003934 <i_3499>:
    80003934:	fa015a83          	lhu	s5,-96(sp)

0000000080003938 <i_3500>:
    80003938:	001e1d93          	slli	s11,t3,0x1

000000008000393c <i_3501>:
    8000393c:	0be107a3          	sb	t5,175(sp)

0000000080003940 <i_3502>:
    80003940:	00000013          	nop

0000000080003944 <i_3503>:
    80003944:	f1412423          	sw	s4,-248(sp)

0000000080003948 <i_3504>:
    80003948:	8c100813          	li	a6,-1855

000000008000394c <i_3505>:
    8000394c:	8d400593          	li	a1,-1836

0000000080003950 <i_3506>:
    80003950:	034ae333          	rem	t1,s5,s4

0000000080003954 <i_3507>:
    80003954:	00700a13          	li	s4,7

0000000080003958 <i_3508>:
    80003958:	4149de3b          	sraw	t3,s3,s4

000000008000395c <i_3509>:
    8000395c:	ea812e23          	sw	s0,-324(sp)

0000000080003960 <i_3510>:
    80003960:	03bdc2bb          	divw	t0,s11,s11

0000000080003964 <i_3511>:
    80003964:	03ba1663          	bne	s4,s11,80003990 <i_3521>

0000000080003968 <i_3512>:
    80003968:	00000013          	nop

000000008000396c <i_3513>:
    8000396c:	0252a0b3          	mulhsu	ra,t0,t0

0000000080003970 <i_3514>:
    80003970:	efd14b83          	lbu	s7,-259(sp)

0000000080003974 <i_3515>:
    80003974:	02fdc4b3          	div	s1,s11,a5

0000000080003978 <i_3516>:
    80003978:	01b00293          	li	t0,27

000000008000397c <i_3517>:
    8000397c:	4050dbbb          	sraw	s7,ra,t0

0000000080003980 <i_3518>:
    80003980:	00180813          	addi	a6,a6,1
    80003984:	fd05d6e3          	ble	a6,a1,80003950 <i_3506>

0000000080003988 <i_3519>:
    80003988:	fcc12303          	lw	t1,-52(sp)

000000008000398c <i_3520>:
    8000398c:	0264e063          	bltu	s1,t1,800039ac <i_3528>

0000000080003990 <i_3521>:
    80003990:	f8416d83          	lwu	s11,-124(sp)

0000000080003994 <i_3522>:
    80003994:	74848593          	addi	a1,s1,1864

0000000080003998 <i_3523>:
    80003998:	00149a63          	bne	s1,ra,800039ac <i_3528>

000000008000399c <i_3524>:
    8000399c:	fbc12303          	lw	t1,-68(sp)

00000000800039a0 <i_3525>:
    800039a0:	0bc12083          	lw	ra,188(sp)

00000000800039a4 <i_3526>:
    800039a4:	ffc12483          	lw	s1,-4(sp)

00000000800039a8 <i_3527>:
    800039a8:	0210f0bb          	remuw	ra,ra,ra

00000000800039ac <i_3528>:
    800039ac:	fa414803          	lbu	a6,-92(sp)

00000000800039b0 <i_3529>:
    800039b0:	0d411503          	lh	a0,212(sp)

00000000800039b4 <i_3530>:
    800039b4:	00a08863          	beq	ra,a0,800039c4 <i_3534>

00000000800039b8 <i_3531>:
    800039b8:	e4e11083          	lh	ra,-434(sp)

00000000800039bc <i_3532>:
    800039bc:	15214483          	lbu	s1,338(sp)

00000000800039c0 <i_3533>:
    800039c0:	401a0533          	sub	a0,s4,ra

00000000800039c4 <i_3534>:
    800039c4:	00000013          	nop

00000000800039c8 <i_3535>:
    800039c8:	1ca12023          	sw	a0,448(sp)

00000000800039cc <i_3536>:
    800039cc:	80400d93          	li	s11,-2044

00000000800039d0 <i_3537>:
    800039d0:	81400993          	li	s3,-2028

00000000800039d4 <i_3538>:
    800039d4:	00b00a93          	li	s5,11

00000000800039d8 <i_3539>:
    800039d8:	4159dab3          	sra	s5,s3,s5

00000000800039dc <i_3540>:
    800039dc:	00a45263          	ble	a0,s0,800039e0 <i_3541>

00000000800039e0 <i_3541>:
    800039e0:	00aa9263          	bne	s5,a0,800039e4 <i_3542>

00000000800039e4 <i_3542>:
    800039e4:	02956063          	bltu	a0,s1,80003a04 <i_3549>

00000000800039e8 <i_3543>:
    800039e8:	eaa12023          	sw	a0,-352(sp)

00000000800039ec <i_3544>:
    800039ec:	001d8d93          	addi	s11,s11,1
    800039f0:	ffb9d2e3          	ble	s11,s3,800039d4 <i_3538>

00000000800039f4 <i_3545>:
    800039f4:	ea414a83          	lbu	s5,-348(sp)

00000000800039f8 <i_3546>:
    800039f8:	fcc12083          	lw	ra,-52(sp)

00000000800039fc <i_3547>:
    800039fc:	00000013          	nop

0000000080003a00 <i_3548>:
    80003a00:	16011a83          	lh	s5,352(sp)

0000000080003a04 <i_3549>:
    80003a04:	fa810a83          	lb	s5,-88(sp)

0000000080003a08 <i_3550>:
    80003a08:	00000013          	nop

0000000080003a0c <i_3551>:
    80003a0c:	8d600093          	li	ra,-1834

0000000080003a10 <i_3552>:
    80003a10:	8e400513          	li	a0,-1820

0000000080003a14 <i_3553>:
    80003a14:	f7d14a83          	lbu	s5,-131(sp)

0000000080003a18 <i_3554>:
    80003a18:	80954313          	xori	t1,a0,-2039

0000000080003a1c <i_3555>:
    80003a1c:	0140ca63          	blt	ra,s4,80003a30 <i_3560>

0000000080003a20 <i_3556>:
    80003a20:	00a54a63          	blt	a0,a0,80003a34 <i_3561>

0000000080003a24 <i_3557>:
    80003a24:	e7813303          	ld	t1,-392(sp)

0000000080003a28 <i_3558>:
    80003a28:	01291463          	bne	s2,s2,80003a30 <i_3560>

0000000080003a2c <i_3559>:
    80003a2c:	029a9063          	bne	s5,s1,80003a4c <i_3566>

0000000080003a30 <i_3560>:
    80003a30:	03534abb          	divw	s5,t1,s5

0000000080003a34 <i_3561>:
    80003a34:	18611623          	sh	t1,396(sp)

0000000080003a38 <i_3562>:
    80003a38:	e2a12a23          	sw	a0,-460(sp)

0000000080003a3c <i_3563>:
    80003a3c:	00108093          	addi	ra,ra,1
    80003a40:	fca0cae3          	blt	ra,a0,80003a14 <i_3553>

0000000080003a44 <i_3564>:
    80003a44:	01c74663          	blt	a4,t3,80003a50 <i_3567>

0000000080003a48 <i_3565>:
    80003a48:	f0812183          	lw	gp,-248(sp)

0000000080003a4c <i_3566>:
    80003a4c:	001bcc63          	blt	s7,ra,80003a64 <i_3572>

0000000080003a50 <i_3567>:
    80003a50:	023a9263          	bne	s5,gp,80003a74 <i_3576>

0000000080003a54 <i_3568>:
    80003a54:	05811c83          	lh	s9,88(sp)

0000000080003a58 <i_3569>:
    80003a58:	00500193          	li	gp,5

0000000080003a5c <i_3570>:
    80003a5c:	003ad43b          	srlw	s0,s5,gp

0000000080003a60 <i_3571>:
    80003a60:	00809c63          	bne	ra,s0,80003a78 <i_3577>

0000000080003a64 <i_3572>:
    80003a64:	41430633          	sub	a2,t1,s4

0000000080003a68 <i_3573>:
    80003a68:	00319d93          	slli	s11,gp,0x3

0000000080003a6c <i_3574>:
    80003a6c:	e5811303          	lh	t1,-424(sp)

0000000080003a70 <i_3575>:
    80003a70:	01b67633          	and	a2,a2,s11

0000000080003a74 <i_3576>:
    80003a74:	ef013303          	ld	t1,-272(sp)

0000000080003a78 <i_3577>:
    80003a78:	03016d83          	lwu	s11,48(sp)

0000000080003a7c <i_3578>:
    80003a7c:	00000013          	nop

0000000080003a80 <i_3579>:
    80003a80:	7ea00813          	li	a6,2026

0000000080003a84 <i_3580>:
    80003a84:	7f800a13          	li	s4,2040

0000000080003a88 <i_3581>:
    80003a88:	0a611283          	lh	t0,166(sp)

0000000080003a8c <i_3582>:
    80003a8c:	026f9263          	bne	t6,t1,80003ab0 <i_3590>

0000000080003a90 <i_3583>:
    80003a90:	03800e93          	li	t4,56

0000000080003a94 <i_3584>:
    80003a94:	01d31333          	sll	t1,t1,t4

0000000080003a98 <i_3585>:
    80003a98:	00180813          	addi	a6,a6,1
    80003a9c:	ff4866e3          	bltu	a6,s4,80003a88 <i_3581>

0000000080003aa0 <i_3586>:
    80003aa0:	08510da3          	sb	t0,155(sp)

0000000080003aa4 <i_3587>:
    80003aa4:	01d34c63          	blt	t1,t4,80003abc <i_3593>

0000000080003aa8 <i_3588>:
    80003aa8:	fe215303          	lhu	t1,-30(sp)

0000000080003aac <i_3589>:
    80003aac:	02b10403          	lb	s0,43(sp)

0000000080003ab0 <i_3590>:
    80003ab0:	0c612c23          	sw	t1,216(sp)

0000000080003ab4 <i_3591>:
    80003ab4:	fc016c83          	lwu	s9,-64(sp)

0000000080003ab8 <i_3592>:
    80003ab8:	e2813423          	sd	s0,-472(sp)

0000000080003abc <i_3593>:
    80003abc:	1a611323          	sh	t1,422(sp)

0000000080003ac0 <i_3594>:
    80003ac0:	01936863          	bltu	t1,s9,80003ad0 <i_3598>

0000000080003ac4 <i_3595>:
    80003ac4:	05816203          	lwu	tp,88(sp)

0000000080003ac8 <i_3596>:
    80003ac8:	f2b13423          	sd	a1,-216(sp)

0000000080003acc <i_3597>:
    80003acc:	3e137c93          	andi	s9,t1,993

0000000080003ad0 <i_3598>:
    80003ad0:	05536093          	ori	ra,t1,85

0000000080003ad4 <i_3599>:
    80003ad4:	0d514c03          	lbu	s8,213(sp)

0000000080003ad8 <i_3600>:
    80003ad8:	02648263          	beq	s1,t1,80003afc <i_3609>

0000000080003adc <i_3601>:
    80003adc:	eb812b83          	lw	s7,-328(sp)

0000000080003ae0 <i_3602>:
    80003ae0:	e5416083          	lwu	ra,-428(sp)

0000000080003ae4 <i_3603>:
    80003ae4:	cd786b97          	auipc	s7,0xcd786

0000000080003ae8 <i_3604>:
    80003ae8:	ff714403          	lbu	s0,-9(sp)

0000000080003aec <i_3605>:
    80003aec:	018bda63          	ble	s8,s7,80003b00 <i_3610>

0000000080003af0 <i_3606>:
    80003af0:	e5511a23          	sh	s5,-428(sp)

0000000080003af4 <i_3607>:
    80003af4:	0379c83b          	divw	a6,s3,s7

0000000080003af8 <i_3608>:
    80003af8:	0065c9b3          	xor	s3,a1,t1

0000000080003afc <i_3609>:
    80003afc:	13014c83          	lbu	s9,304(sp)

0000000080003b00 <i_3610>:
    80003b00:	006d2233          	slt	tp,s10,t1

0000000080003b04 <i_3611>:
    80003b04:	e0def493          	andi	s1,t4,-499

0000000080003b08 <i_3612>:
    80003b08:	03584263          	blt	a6,s5,80003b2c <i_3621>

0000000080003b0c <i_3613>:
    80003b0c:	00e00813          	li	a6,14

0000000080003b10 <i_3614>:
    80003b10:	41035c3b          	sraw	s8,t1,a6

0000000080003b14 <i_3615>:
    80003b14:	404c5093          	srai	ra,s8,0x4

0000000080003b18 <i_3616>:
    80003b18:	02b00093          	li	ra,43

0000000080003b1c <i_3617>:
    80003b1c:	0019d9b3          	srl	s3,s3,ra

0000000080003b20 <i_3618>:
    80003b20:	0017d39b          	srliw	t2,a5,0x1

0000000080003b24 <i_3619>:
    80003b24:	e4114c03          	lbu	s8,-447(sp)

0000000080003b28 <i_3620>:
    80003b28:	01731663          	bne	t1,s7,80003b34 <i_3623>

0000000080003b2c <i_3621>:
    80003b2c:	0d811223          	sh	s8,196(sp)

0000000080003b30 <i_3622>:
    80003b30:	01034663          	blt	t1,a6,80003b3c <i_3625>

0000000080003b34 <i_3623>:
    80003b34:	0060d263          	ble	t1,ra,80003b38 <i_3624>

0000000080003b38 <i_3624>:
    80003b38:	053104a3          	sb	s3,73(sp)

0000000080003b3c <i_3625>:
    80003b3c:	14711b23          	sh	t2,342(sp)

0000000080003b40 <i_3626>:
    80003b40:	410803b3          	sub	t2,a6,a6

0000000080003b44 <i_3627>:
    80003b44:	84400813          	li	a6,-1980

0000000080003b48 <i_3628>:
    80003b48:	85300a93          	li	s5,-1965

0000000080003b4c <i_3629>:
    80003b4c:	19513823          	sd	s5,400(sp)

0000000080003b50 <i_3630>:
    80003b50:	0015d593          	srli	a1,a1,0x1

0000000080003b54 <i_3631>:
    80003b54:	0d012623          	sw	a6,204(sp)

0000000080003b58 <i_3632>:
    80003b58:	02a00b93          	li	s7,42

0000000080003b5c <i_3633>:
    80003b5c:	0175d2b3          	srl	t0,a1,s7

0000000080003b60 <i_3634>:
    80003b60:	00000013          	nop

0000000080003b64 <i_3635>:
    80003b64:	00000013          	nop

0000000080003b68 <i_3636>:
    80003b68:	ffe10283          	lb	t0,-2(sp)

0000000080003b6c <i_3637>:
    80003b6c:	017babb3          	slt	s7,s7,s7

0000000080003b70 <i_3638>:
    80003b70:	00180813          	addi	a6,a6,1
    80003b74:	fd586ce3          	bltu	a6,s5,80003b4c <i_3629>

0000000080003b78 <i_3639>:
    80003b78:	f3710a23          	sb	s7,-204(sp)

0000000080003b7c <i_3640>:
    80003b7c:	ea614b83          	lbu	s7,-346(sp)

0000000080003b80 <i_3641>:
    80003b80:	08410d83          	lb	s11,132(sp)

0000000080003b84 <i_3642>:
    80003b84:	05e13023          	sd	t5,64(sp)

0000000080003b88 <i_3643>:
    80003b88:	e3813203          	ld	tp,-456(sp)

0000000080003b8c <i_3644>:
    80003b8c:	01b20663          	beq	tp,s11,80003b98 <i_3647>

0000000080003b90 <i_3645>:
    80003b90:	004b9a63          	bne	s7,tp,80003ba4 <i_3650>

0000000080003b94 <i_3646>:
    80003b94:	f5214203          	lbu	tp,-174(sp)

0000000080003b98 <i_3647>:
    80003b98:	01500393          	li	t2,21

0000000080003b9c <i_3648>:
    80003b9c:	407dd23b          	sraw	tp,s11,t2

0000000080003ba0 <i_3649>:
    80003ba0:	0032121b          	slliw	tp,tp,0x3

0000000080003ba4 <i_3650>:
    80003ba4:	03b26db3          	rem	s11,tp,s11

0000000080003ba8 <i_3651>:
    80003ba8:	02436463          	bltu	t1,tp,80003bd0 <i_3661>

0000000080003bac <i_3652>:
    80003bac:	024d8233          	mul	tp,s11,tp

0000000080003bb0 <i_3653>:
    80003bb0:	00300193          	li	gp,3

0000000080003bb4 <i_3654>:
    80003bb4:	00325c3b          	srlw	s8,tp,gp

0000000080003bb8 <i_3655>:
    80003bb8:	e3014203          	lbu	tp,-464(sp)

0000000080003bbc <i_3656>:
    80003bbc:	01bc5a63          	ble	s11,s8,80003bd0 <i_3661>

0000000080003bc0 <i_3657>:
    80003bc0:	038b3233          	mulhu	tp,s6,s8

0000000080003bc4 <i_3658>:
    80003bc4:	0111da63          	ble	a7,gp,80003bd8 <i_3663>

0000000080003bc8 <i_3659>:
    80003bc8:	023c563b          	divuw	a2,s8,gp

0000000080003bcc <i_3660>:
    80003bcc:	5293ad93          	slti	s11,t2,1321

0000000080003bd0 <i_3661>:
    80003bd0:	14011203          	lh	tp,320(sp)

0000000080003bd4 <i_3662>:
    80003bd4:	f1414d83          	lbu	s11,-236(sp)

0000000080003bd8 <i_3663>:
    80003bd8:	eb910d83          	lb	s11,-327(sp)

0000000080003bdc <i_3664>:
    80003bdc:	004c5263          	ble	tp,s8,80003be0 <i_3665>

0000000080003be0 <i_3665>:
    80003be0:	03811423          	sh	s8,40(sp)

0000000080003be4 <i_3666>:
    80003be4:	1a410ca3          	sb	tp,441(sp)

0000000080003be8 <i_3667>:
    80003be8:	3cac4213          	xori	tp,s8,970

0000000080003bec <i_3668>:
    80003bec:	4dec6d93          	ori	s11,s8,1246

0000000080003bf0 <i_3669>:
    80003bf0:	00319193          	slli	gp,gp,0x3

0000000080003bf4 <i_3670>:
    80003bf4:	0042d663          	ble	tp,t0,80003c00 <i_3673>

0000000080003bf8 <i_3671>:
    80003bf8:	08211d83          	lh	s11,130(sp)

0000000080003bfc <i_3672>:
    80003bfc:	01b3f863          	bleu	s11,t2,80003c0c <i_3676>

0000000080003c00 <i_3673>:
    80003c00:	07810423          	sb	s8,104(sp)

0000000080003c04 <i_3674>:
    80003c04:	02c67633          	remu	a2,a2,a2

0000000080003c08 <i_3675>:
    80003c08:	0dd14083          	lbu	ra,221(sp)

0000000080003c0c <i_3676>:
    80003c0c:	03ba4063          	blt	s4,s11,80003c2c <i_3684>

0000000080003c10 <i_3677>:
    80003c10:	018c4c63          	blt	s8,s8,80003c28 <i_3683>

0000000080003c14 <i_3678>:
    80003c14:	13314983          	lbu	s3,307(sp)

0000000080003c18 <i_3679>:
    80003c18:	62623d93          	sltiu	s11,tp,1574

0000000080003c1c <i_3680>:
    80003c1c:	013dedb3          	or	s11,s11,s3

0000000080003c20 <i_3681>:
    80003c20:	12c10d83          	lb	s11,300(sp)

0000000080003c24 <i_3682>:
    80003c24:	1e215203          	lhu	tp,482(sp)

0000000080003c28 <i_3683>:
    80003c28:	e4014983          	lbu	s3,-448(sp)

0000000080003c2c <i_3684>:
    80003c2c:	1c612a23          	sw	t1,468(sp)

0000000080003c30 <i_3685>:
    80003c30:	f4e11083          	lh	ra,-178(sp)

0000000080003c34 <i_3686>:
    80003c34:	8ae00313          	li	t1,-1874

0000000080003c38 <i_3687>:
    80003c38:	8b300613          	li	a2,-1869

0000000080003c3c <i_3688>:
    80003c3c:	013a7e63          	bleu	s3,s4,80003c58 <i_3695>

0000000080003c40 <i_3689>:
    80003c40:	a1726513          	ori	a0,tp,-1513

0000000080003c44 <i_3690>:
    80003c44:	f1013c03          	ld	s8,-240(sp)

0000000080003c48 <i_3691>:
    80003c48:	01a00093          	li	ra,26

0000000080003c4c <i_3692>:
    80003c4c:	001212bb          	sllw	t0,tp,ra

0000000080003c50 <i_3693>:
    80003c50:	16e11503          	lh	a0,366(sp)

0000000080003c54 <i_3694>:
    80003c54:	edc12503          	lw	a0,-292(sp)

0000000080003c58 <i_3695>:
    80003c58:	00000013          	nop

0000000080003c5c <i_3696>:
    80003c5c:	00a50533          	add	a0,a0,a0

0000000080003c60 <i_3697>:
    80003c60:	edc16403          	lwu	s0,-292(sp)

0000000080003c64 <i_3698>:
    80003c64:	f8110123          	sb	ra,-126(sp)

0000000080003c68 <i_3699>:
    80003c68:	00130313          	addi	t1,t1,1
    80003c6c:	fcc318e3          	bne	t1,a2,80003c3c <i_3688>

0000000080003c70 <i_3700>:
    80003c70:	00140463          	beq	s0,ra,80003c78 <i_3702>

0000000080003c74 <i_3701>:
    80003c74:	fb211e03          	lh	t3,-78(sp)

0000000080003c78 <i_3702>:
    80003c78:	f4615083          	lhu	ra,-186(sp)

0000000080003c7c <i_3703>:
    80003c7c:	01100513          	li	a0,17

0000000080003c80 <i_3704>:
    80003c80:	00a0de3b          	srlw	t3,ra,a0

0000000080003c84 <i_3705>:
    80003c84:	03c0d263          	ble	t3,ra,80003ca8 <i_3714>

0000000080003c88 <i_3706>:
    80003c88:	061102a3          	sb	ra,101(sp)

0000000080003c8c <i_3707>:
    80003c8c:	00255513          	srli	a0,a0,0x2

0000000080003c90 <i_3708>:
    80003c90:	c7ee2293          	slti	t0,t3,-898

0000000080003c94 <i_3709>:
    80003c94:	019e5463          	ble	s9,t3,80003c9c <i_3711>

0000000080003c98 <i_3710>:
    80003c98:	faa105a3          	sb	a0,-85(sp)

0000000080003c9c <i_3711>:
    80003c9c:	00552a33          	slt	s4,a0,t0

0000000080003ca0 <i_3712>:
    80003ca0:	0380f0b3          	remu	ra,ra,s8

0000000080003ca4 <i_3713>:
    80003ca4:	ec511423          	sh	t0,-312(sp)

0000000080003ca8 <i_3714>:
    80003ca8:	00128463          	beq	t0,ra,80003cb0 <i_3716>

0000000080003cac <i_3715>:
    80003cac:	11610aa3          	sb	s6,277(sp)

0000000080003cb0 <i_3716>:
    80003cb0:	01c51c63          	bne	a0,t3,80003cc8 <i_3722>

0000000080003cb4 <i_3717>:
    80003cb4:	ec511223          	sh	t0,-316(sp)

0000000080003cb8 <i_3718>:
    80003cb8:	013322b3          	slt	t0,t1,s3

0000000080003cbc <i_3719>:
    80003cbc:	04511423          	sh	t0,72(sp)

0000000080003cc0 <i_3720>:
    80003cc0:	02109463          	bne	ra,ra,80003ce8 <i_3730>

0000000080003cc4 <i_3721>:
    80003cc4:	fe416283          	lwu	t0,-28(sp)

0000000080003cc8 <i_3722>:
    80003cc8:	018a0463          	beq	s4,s8,80003cd0 <i_3724>

0000000080003ccc <i_3723>:
    80003ccc:	0011f863          	bleu	ra,gp,80003cdc <i_3727>

0000000080003cd0 <i_3724>:
    80003cd0:	0052ee63          	bltu	t0,t0,80003cec <i_3731>

0000000080003cd4 <i_3725>:
    80003cd4:	01000613          	li	a2,16

0000000080003cd8 <i_3726>:
    80003cd8:	40c1d1bb          	sraw	gp,gp,a2

0000000080003cdc <i_3727>:
    80003cdc:	015c4663          	blt	s8,s5,80003ce8 <i_3730>

0000000080003ce0 <i_3728>:
    80003ce0:	023c5c33          	divu	s8,s8,gp

0000000080003ce4 <i_3729>:
    80003ce4:	00000013          	nop

0000000080003ce8 <i_3730>:
    80003ce8:	0e812c03          	lw	s8,232(sp)

0000000080003cec <i_3731>:
    80003cec:	55d0ac13          	slti	s8,ra,1373

0000000080003cf0 <i_3732>:
    80003cf0:	00000013          	nop

0000000080003cf4 <i_3733>:
    80003cf4:	7ec00a13          	li	s4,2028

0000000080003cf8 <i_3734>:
    80003cf8:	7f300093          	li	ra,2035

0000000080003cfc <i_3735>:
    80003cfc:	14d10783          	lb	a5,333(sp)

0000000080003d00 <i_3736>:
    80003d00:	04f10923          	sb	a5,82(sp)

0000000080003d04 <i_3737>:
    80003d04:	ff812e23          	sw	s8,-4(sp)

0000000080003d08 <i_3738>:
    80003d08:	eba15e83          	lhu	t4,-326(sp)

0000000080003d0c <i_3739>:
    80003d0c:	74d00793          	li	a5,1869

0000000080003d10 <i_3740>:
    80003d10:	75000a93          	li	s5,1872

0000000080003d14 <i_3741>:
    80003d14:	00178793          	addi	a5,a5,1
    80003d18:	fefadee3          	ble	a5,s5,80003d14 <i_3741>

0000000080003d1c <i_3742>:
    80003d1c:	05511f23          	sh	s5,94(sp)

0000000080003d20 <i_3743>:
    80003d20:	01100213          	li	tp,17

0000000080003d24 <i_3744>:
    80003d24:	4047d2b3          	sra	t0,a5,tp

0000000080003d28 <i_3745>:
    80003d28:	0e813783          	ld	a5,232(sp)

0000000080003d2c <i_3746>:
    80003d2c:	0a012a83          	lw	s5,160(sp)

0000000080003d30 <i_3747>:
    80003d30:	02811c83          	lh	s9,40(sp)

0000000080003d34 <i_3748>:
    80003d34:	001a0a13          	addi	s4,s4,1
    80003d38:	fc1a42e3          	blt	s4,ra,80003cfc <i_3735>

0000000080003d3c <i_3749>:
    80003d3c:	4192023b          	subw	tp,tp,s9

0000000080003d40 <i_3750>:
    80003d40:	e035a237          	lui	tp,0xe035a

0000000080003d44 <i_3751>:
    80003d44:	00425663          	ble	tp,tp,80003d50 <i_3754>

0000000080003d48 <i_3752>:
    80003d48:	0396d063          	ble	s9,a3,80003d68 <i_3760>

0000000080003d4c <i_3753>:
    80003d4c:	1e812203          	lw	tp,488(sp)

0000000080003d50 <i_3754>:
    80003d50:	9b5e8b93          	addi	s7,t4,-1611

0000000080003d54 <i_3755>:
    80003d54:	079106a3          	sb	s9,109(sp)

0000000080003d58 <i_3756>:
    80003d58:	023bb0b3          	mulhu	ra,s7,gp

0000000080003d5c <i_3757>:
    80003d5c:	1de11c83          	lh	s9,478(sp)

0000000080003d60 <i_3758>:
    80003d60:	967c8c93          	addi	s9,s9,-1689

0000000080003d64 <i_3759>:
    80003d64:	f7910123          	sb	s9,-158(sp)

0000000080003d68 <i_3760>:
    80003d68:	f9e15c83          	lhu	s9,-98(sp)

0000000080003d6c <i_3761>:
    80003d6c:	e3911f23          	sh	s9,-450(sp)

0000000080003d70 <i_3762>:
    80003d70:	fc416e03          	lwu	t3,-60(sp)

0000000080003d74 <i_3763>:
    80003d74:	15012b83          	lw	s7,336(sp)

0000000080003d78 <i_3764>:
    80003d78:	73000c93          	li	s9,1840

0000000080003d7c <i_3765>:
    80003d7c:	73b00e93          	li	t4,1851

0000000080003d80 <i_3766>:
    80003d80:	01c00e13          	li	t3,28

0000000080003d84 <i_3767>:
    80003d84:	01ce19bb          	sllw	s3,t3,t3

0000000080003d88 <i_3768>:
    80003d88:	01ce29b3          	slt	s3,t3,t3

0000000080003d8c <i_3769>:
    80003d8c:	00000013          	nop

0000000080003d90 <i_3770>:
    80003d90:	1d313823          	sd	s3,464(sp)

0000000080003d94 <i_3771>:
    80003d94:	001c8c93          	addi	s9,s9,1
    80003d98:	ff9ed4e3          	ble	s9,t4,80003d80 <i_3766>

0000000080003d9c <i_3772>:
    80003d9c:	02b9fbbb          	remuw	s7,s3,a1

0000000080003da0 <i_3773>:
    80003da0:	fca15983          	lhu	s3,-54(sp)

0000000080003da4 <i_3774>:
    80003da4:	1b313823          	sd	s3,432(sp)

0000000080003da8 <i_3775>:
    80003da8:	73600213          	li	tp,1846

0000000080003dac <i_3776>:
    80003dac:	73b00d93          	li	s11,1851

0000000080003db0 <i_3777>:
    80003db0:	00120213          	addi	tp,tp,1 # ffffffffe035a001 <_end+0xffffffff60349bed>
    80003db4:	ffb26ee3          	bltu	tp,s11,80003db0 <i_3777>

0000000080003db8 <i_3778>:
    80003db8:	4029de9b          	sraiw	t4,s3,0x2

0000000080003dbc <i_3779>:
    80003dbc:	695b3a37          	lui	s4,0x695b3

0000000080003dc0 <i_3780>:
    80003dc0:	fdb14d83          	lbu	s11,-37(sp)

0000000080003dc4 <i_3781>:
    80003dc4:	402a5c9b          	sraiw	s9,s4,0x2

0000000080003dc8 <i_3782>:
    80003dc8:	019a1663          	bne	s4,s9,80003dd4 <i_3785>

0000000080003dcc <i_3783>:
    80003dcc:	039cc9bb          	divw	s3,s9,s9

0000000080003dd0 <i_3784>:
    80003dd0:	e2812e03          	lw	t3,-472(sp)

0000000080003dd4 <i_3785>:
    80003dd4:	41cc8cb3          	sub	s9,s9,t3

0000000080003dd8 <i_3786>:
    80003dd8:	1d910c23          	sb	s9,472(sp)

0000000080003ddc <i_3787>:
    80003ddc:	08410ea3          	sb	tp,157(sp)

0000000080003de0 <i_3788>:
    80003de0:	019c9263          	bne	s9,s9,80003de4 <i_3789>

0000000080003de4 <i_3789>:
    80003de4:	019cf263          	bleu	s9,s9,80003de8 <i_3790>

0000000080003de8 <i_3790>:
    80003de8:	54fcb593          	sltiu	a1,s9,1359

0000000080003dec <i_3791>:
    80003dec:	00000013          	nop

0000000080003df0 <i_3792>:
    80003df0:	00355593          	srli	a1,a0,0x3

0000000080003df4 <i_3793>:
    80003df4:	75a00513          	li	a0,1882

0000000080003df8 <i_3794>:
    80003df8:	76600c93          	li	s9,1894

0000000080003dfc <i_3795>:
    80003dfc:	01000493          	li	s1,16

0000000080003e00 <i_3796>:
    80003e00:	0094d5bb          	srlw	a1,s1,s1

0000000080003e04 <i_3797>:
    80003e04:	02ac9ab3          	mulh	s5,s9,a0

0000000080003e08 <i_3798>:
    80003e08:	1d416a83          	lwu	s5,468(sp)

0000000080003e0c <i_3799>:
    80003e0c:	00c00293          	li	t0,12

0000000080003e10 <i_3800>:
    80003e10:	4054d4bb          	sraw	s1,s1,t0

0000000080003e14 <i_3801>:
    80003e14:	019ae0b3          	or	ra,s5,s9

0000000080003e18 <i_3802>:
    80003e18:	30354193          	xori	gp,a0,771

0000000080003e1c <i_3803>:
    80003e1c:	01f482b3          	add	t0,s1,t6

0000000080003e20 <i_3804>:
    80003e20:	00000013          	nop

0000000080003e24 <i_3805>:
    80003e24:	02bcf663          	bleu	a1,s9,80003e50 <i_3815>

0000000080003e28 <i_3806>:
    80003e28:	19511023          	sh	s5,384(sp)

0000000080003e2c <i_3807>:
    80003e2c:	07813a83          	ld	s5,120(sp)

0000000080003e30 <i_3808>:
    80003e30:	00000013          	nop

0000000080003e34 <i_3809>:
    80003e34:	16815283          	lhu	t0,360(sp)

0000000080003e38 <i_3810>:
    80003e38:	00150513          	addi	a0,a0,1
    80003e3c:	fcac90e3          	bne	s9,a0,80003dfc <i_3795>

0000000080003e40 <i_3811>:
    80003e40:	0211d0b3          	divu	ra,gp,ra

0000000080003e44 <i_3812>:
    80003e44:	0230dab3          	divu	s5,ra,gp

0000000080003e48 <i_3813>:
    80003e48:	00a00813          	li	a6,10

0000000080003e4c <i_3814>:
    80003e4c:	0101983b          	sllw	a6,gp,a6

0000000080003e50 <i_3815>:
    80003e50:	f9e10383          	lb	t2,-98(sp)

0000000080003e54 <i_3816>:
    80003e54:	00000013          	nop

0000000080003e58 <i_3817>:
    80003e58:	81c00d93          	li	s11,-2020

0000000080003e5c <i_3818>:
    80003e5c:	81f00293          	li	t0,-2017

0000000080003e60 <i_3819>:
    80003e60:	f9310c03          	lb	s8,-109(sp)

0000000080003e64 <i_3820>:
    80003e64:	f8012303          	lw	t1,-128(sp)

0000000080003e68 <i_3821>:
    80003e68:	09912623          	sw	s9,140(sp)

0000000080003e6c <i_3822>:
    80003e6c:	001d8d93          	addi	s11,s11,1
    80003e70:	fe5dc8e3          	blt	s11,t0,80003e60 <i_3819>

0000000080003e74 <i_3823>:
    80003e74:	1c713423          	sd	t2,456(sp)

0000000080003e78 <i_3824>:
    80003e78:	01c00a13          	li	s4,28

0000000080003e7c <i_3825>:
    80003e7c:	41435333          	sra	t1,t1,s4

0000000080003e80 <i_3826>:
    80003e80:	8a800393          	li	t2,-1880

0000000080003e84 <i_3827>:
    80003e84:	8b500a93          	li	s5,-1867

0000000080003e88 <i_3828>:
    80003e88:	da628293          	addi	t0,t0,-602

0000000080003e8c <i_3829>:
    80003e8c:	06210983          	lb	s3,98(sp)

0000000080003e90 <i_3830>:
    80003e90:	0052c2b3          	xor	t0,t0,t0

0000000080003e94 <i_3831>:
    80003e94:	0339fbb3          	remu	s7,s3,s3

0000000080003e98 <i_3832>:
    80003e98:	00000013          	nop

0000000080003e9c <i_3833>:
    80003e9c:	f2a15283          	lhu	t0,-214(sp)

0000000080003ea0 <i_3834>:
    80003ea0:	10813983          	ld	s3,264(sp)

0000000080003ea4 <i_3835>:
    80003ea4:	00000013          	nop

0000000080003ea8 <i_3836>:
    80003ea8:	0259e663          	bltu	s3,t0,80003ed4 <i_3846>

0000000080003eac <i_3837>:
    80003eac:	01367633          	and	a2,a2,s3

0000000080003eb0 <i_3838>:
    80003eb0:	16b14183          	lbu	gp,363(sp)

0000000080003eb4 <i_3839>:
    80003eb4:	0a511b23          	sh	t0,182(sp)

0000000080003eb8 <i_3840>:
    80003eb8:	0232c063          	blt	t0,gp,80003ed8 <i_3847>

0000000080003ebc <i_3841>:
    80003ebc:	00138393          	addi	t2,t2,1
    80003ec0:	fc7a94e3          	bne	s5,t2,80003e88 <i_3828>

0000000080003ec4 <i_3842>:
    80003ec4:	e2312623          	sw	gp,-468(sp)

0000000080003ec8 <i_3843>:
    80003ec8:	d162e293          	ori	t0,t0,-746

0000000080003ecc <i_3844>:
    80003ecc:	02513823          	sd	t0,48(sp)

0000000080003ed0 <i_3845>:
    80003ed0:	1bc10a83          	lb	s5,444(sp)

0000000080003ed4 <i_3846>:
    80003ed4:	004fc633          	xor	a2,t6,tp

0000000080003ed8 <i_3847>:
    80003ed8:	00000013          	nop

0000000080003edc <i_3848>:
    80003edc:	16710283          	lb	t0,359(sp)

0000000080003ee0 <i_3849>:
    80003ee0:	82400813          	li	a6,-2012

0000000080003ee4 <i_3850>:
    80003ee4:	82a00213          	li	tp,-2006

0000000080003ee8 <i_3851>:
    80003ee8:	00012c03          	lw	s8,0(sp)

0000000080003eec <i_3852>:
    80003eec:	00000013          	nop

0000000080003ef0 <i_3853>:
    80003ef0:	e2c11023          	sh	a2,-480(sp)

0000000080003ef4 <i_3854>:
    80003ef4:	41b20533          	sub	a0,tp,s11

0000000080003ef8 <i_3855>:
    80003ef8:	078101a3          	sb	s8,99(sp)

0000000080003efc <i_3856>:
    80003efc:	00180813          	addi	a6,a6,1
    80003f00:	fe4814e3          	bne	a6,tp,80003ee8 <i_3851>

0000000080003f04 <i_3857>:
    80003f04:	f7211a03          	lh	s4,-142(sp)

0000000080003f08 <i_3858>:
    80003f08:	034c0263          	beq	s8,s4,80003f2c <i_3867>

0000000080003f0c <i_3859>:
    80003f0c:	e123c337          	lui	t1,0xe123c

0000000080003f10 <i_3860>:
    80003f10:	033ac463          	blt	s5,s3,80003f38 <i_3870>

0000000080003f14 <i_3861>:
    80003f14:	01400993          	li	s3,20

0000000080003f18 <i_3862>:
    80003f18:	0138163b          	sllw	a2,a6,s3

0000000080003f1c <i_3863>:
    80003f1c:	e9012423          	sw	a6,-376(sp)

0000000080003f20 <i_3864>:
    80003f20:	00c60863          	beq	a2,a2,80003f30 <i_3868>

0000000080003f24 <i_3865>:
    80003f24:	018d82b3          	add	t0,s11,s8

0000000080003f28 <i_3866>:
    80003f28:	01828863          	beq	t0,s8,80003f38 <i_3870>

0000000080003f2c <i_3867>:
    80003f2c:	e2e15783          	lhu	a5,-466(sp)

0000000080003f30 <i_3868>:
    80003f30:	01427a63          	bleu	s4,tp,80003f44 <i_3873>

0000000080003f34 <i_3869>:
    80003f34:	0a414803          	lbu	a6,164(sp)

0000000080003f38 <i_3870>:
    80003f38:	9d564513          	xori	a0,a2,-1579

0000000080003f3c <i_3871>:
    80003f3c:	0153c863          	blt	t2,s5,80003f4c <i_3875>

0000000080003f40 <i_3872>:
    80003f40:	002c9613          	slli	a2,s9,0x2

0000000080003f44 <i_3873>:
    80003f44:	00727c33          	and	s8,tp,t2

0000000080003f48 <i_3874>:
    80003f48:	0338f7bb          	remuw	a5,a7,s3

0000000080003f4c <i_3875>:
    80003f4c:	0342f263          	bleu	s4,t0,80003f70 <i_3884>

0000000080003f50 <i_3876>:
    80003f50:	fca14a03          	lbu	s4,-54(sp)

0000000080003f54 <i_3877>:
    80003f54:	009a0663          	beq	s4,s1,80003f60 <i_3880>

0000000080003f58 <i_3878>:
    80003f58:	08811603          	lh	a2,136(sp)

0000000080003f5c <i_3879>:
    80003f5c:	fac12423          	sw	a2,-88(sp)

0000000080003f60 <i_3880>:
    80003f60:	00300613          	li	a2,3

0000000080003f64 <i_3881>:
    80003f64:	00c4d4b3          	srl	s1,s1,a2

0000000080003f68 <i_3882>:
    80003f68:	a9d48493          	addi	s1,s1,-1379

0000000080003f6c <i_3883>:
    80003f6c:	02810283          	lb	t0,40(sp)

0000000080003f70 <i_3884>:
    80003f70:	0a012503          	lw	a0,160(sp)

0000000080003f74 <i_3885>:
    80003f74:	f6d13023          	sd	a3,-160(sp)

0000000080003f78 <i_3886>:
    80003f78:	40a60533          	sub	a0,a2,a0

0000000080003f7c <i_3887>:
    80003f7c:	1d813603          	ld	a2,472(sp)

0000000080003f80 <i_3888>:
    80003f80:	02800613          	li	a2,40

0000000080003f84 <i_3889>:
    80003f84:	00c59533          	sll	a0,a1,a2

0000000080003f88 <i_3890>:
    80003f88:	83900813          	li	a6,-1991

0000000080003f8c <i_3891>:
    80003f8c:	84700593          	li	a1,-1977

0000000080003f90 <i_3892>:
    80003f90:	0f012b83          	lw	s7,240(sp)

0000000080003f94 <i_3893>:
    80003f94:	03c57263          	bleu	t3,a0,80003fb8 <i_3902>

0000000080003f98 <i_3894>:
    80003f98:	0035199b          	slliw	s3,a0,0x3

0000000080003f9c <i_3895>:
    80003f9c:	02b85463          	ble	a1,a6,80003fc4 <i_3905>

0000000080003fa0 <i_3896>:
    80003fa0:	eb211383          	lh	t2,-334(sp)

0000000080003fa4 <i_3897>:
    80003fa4:	00000013          	nop

0000000080003fa8 <i_3898>:
    80003fa8:	00000013          	nop

0000000080003fac <i_3899>:
    80003fac:	02816d83          	lwu	s11,40(sp)

0000000080003fb0 <i_3900>:
    80003fb0:	00bdf863          	bleu	a1,s11,80003fc0 <i_3904>

0000000080003fb4 <i_3901>:
    80003fb4:	00900e13          	li	t3,9

0000000080003fb8 <i_3902>:
    80003fb8:	01c61dbb          	sllw	s11,a2,t3

0000000080003fbc <i_3903>:
    80003fbc:	00c16603          	lwu	a2,12(sp)

0000000080003fc0 <i_3904>:
    80003fc0:	e3710183          	lb	gp,-457(sp)

0000000080003fc4 <i_3905>:
    80003fc4:	04c11603          	lh	a2,76(sp)

0000000080003fc8 <i_3906>:
    80003fc8:	12210183          	lb	gp,290(sp)

0000000080003fcc <i_3907>:
    80003fcc:	00180813          	addi	a6,a6,1
    80003fd0:	fab84ee3          	blt	a6,a1,80003f8c <i_3891>

0000000080003fd4 <i_3908>:
    80003fd4:	12811383          	lh	t2,296(sp)

0000000080003fd8 <i_3909>:
    80003fd8:	00771c63          	bne	a4,t2,80003ff0 <i_3915>

0000000080003fdc <i_3910>:
    80003fdc:	18614603          	lbu	a2,390(sp)

0000000080003fe0 <i_3911>:
    80003fe0:	0271dabb          	divuw	s5,gp,t2

0000000080003fe4 <i_3912>:
    80003fe4:	403a07b3          	sub	a5,s4,gp

0000000080003fe8 <i_3913>:
    80003fe8:	02c00b93          	li	s7,44

0000000080003fec <i_3914>:
    80003fec:	417ad7b3          	sra	a5,s5,s7

0000000080003ff0 <i_3915>:
    80003ff0:	f2813383          	ld	t2,-216(sp)

0000000080003ff4 <i_3916>:
    80003ff4:	00f7c7b3          	xor	a5,a5,a5

0000000080003ff8 <i_3917>:
    80003ff8:	18f13823          	sd	a5,400(sp)

0000000080003ffc <i_3918>:
    80003ffc:	f1014503          	lbu	a0,-240(sp)

0000000080004000 <i_3919>:
    80004000:	18a10da3          	sb	a0,411(sp)

0000000080004004 <i_3920>:
    80004004:	e2215783          	lhu	a5,-478(sp)

0000000080004008 <i_3921>:
    80004008:	f6016803          	lwu	a6,-160(sp)

000000008000400c <i_3922>:
    8000400c:	00281663          	bne	a6,sp,80004018 <i_3925>

0000000080004010 <i_3923>:
    80004010:	01400513          	li	a0,20

0000000080004014 <i_3924>:
    80004014:	40a8563b          	sraw	a2,a6,a0

0000000080004018 <i_3925>:
    80004018:	02a7d23b          	divuw	tp,a5,a0

000000008000401c <i_3926>:
    8000401c:	00c00613          	li	a2,12

0000000080004020 <i_3927>:
    80004020:	00c2183b          	sllw	a6,tp,a2

0000000080004024 <i_3928>:
    80004024:	fc215303          	lhu	t1,-62(sp)

0000000080004028 <i_3929>:
    80004028:	ff512023          	sw	s5,-32(sp)

000000008000402c <i_3930>:
    8000402c:	f9110c03          	lb	s8,-111(sp)

0000000080004030 <i_3931>:
    80004030:	00c20263          	beq	tp,a2,80004034 <i_3932>

0000000080004034 <i_3932>:
    80004034:	010bd263          	ble	a6,s7,80004038 <i_3933>

0000000080004038 <i_3933>:
    80004038:	017c4263          	blt	s8,s7,8000403c <i_3934>

000000008000403c <i_3934>:
    8000403c:	02214403          	lbu	s0,34(sp)

0000000080004040 <i_3935>:
    80004040:	f3d12c23          	sw	t4,-200(sp)

0000000080004044 <i_3936>:
    80004044:	88600193          	li	gp,-1914

0000000080004048 <i_3937>:
    80004048:	89700c13          	li	s8,-1897

000000008000404c <i_3938>:
    8000404c:	038c7cb3          	remu	s9,s8,s8

0000000080004050 <i_3939>:
    80004050:	00000013          	nop

0000000080004054 <i_3940>:
    80004054:	1c016783          	lwu	a5,448(sp)

0000000080004058 <i_3941>:
    80004058:	081100a3          	sb	ra,129(sp)

000000008000405c <i_3942>:
    8000405c:	eba14483          	lbu	s1,-326(sp)

0000000080004060 <i_3943>:
    80004060:	e9810ea3          	sb	s8,-355(sp)

0000000080004064 <i_3944>:
    80004064:	038cdcbb          	divuw	s9,s9,s8

0000000080004068 <i_3945>:
    80004068:	13711e23          	sh	s7,316(sp)

000000008000406c <i_3946>:
    8000406c:	f7c12b83          	lw	s7,-132(sp)

0000000080004070 <i_3947>:
    80004070:	1d812623          	sw	s8,460(sp)

0000000080004074 <i_3948>:
    80004074:	019269b3          	or	s3,tp,s9

0000000080004078 <i_3949>:
    80004078:	fd311323          	sh	s3,-58(sp)

000000008000407c <i_3950>:
    8000407c:	00118193          	addi	gp,gp,1
    80004080:	fd81e6e3          	bltu	gp,s8,8000404c <i_3938>

0000000080004084 <i_3951>:
    80004084:	40350533          	sub	a0,a0,gp

0000000080004088 <i_3952>:
    80004088:	17415183          	lhu	gp,372(sp)

000000008000408c <i_3953>:
    8000408c:	00215983          	lhu	s3,2(sp)

0000000080004090 <i_3954>:
    80004090:	eea10b83          	lb	s7,-278(sp)

0000000080004094 <i_3955>:
    80004094:	41718533          	sub	a0,gp,s7

0000000080004098 <i_3956>:
    80004098:	84000e13          	li	t3,-1984

000000008000409c <i_3957>:
    8000409c:	84b00813          	li	a6,-1973

00000000800040a0 <i_3958>:
    800040a0:	f6813b83          	ld	s7,-152(sp)

00000000800040a4 <i_3959>:
    800040a4:	03084463          	blt	a6,a6,800040cc <i_3969>

00000000800040a8 <i_3960>:
    800040a8:	10f13023          	sd	a5,256(sp)

00000000800040ac <i_3961>:
    800040ac:	01785a63          	ble	s7,a6,800040c0 <i_3966>

00000000800040b0 <i_3962>:
    800040b0:	00fbec63          	bltu	s7,a5,800040c8 <i_3968>

00000000800040b4 <i_3963>:
    800040b4:	e2f12c23          	sw	a5,-456(sp)

00000000800040b8 <i_3964>:
    800040b8:	0177fe63          	bleu	s7,a5,800040d4 <i_3971>

00000000800040bc <i_3965>:
    800040bc:	00000013          	nop

00000000800040c0 <i_3966>:
    800040c0:	f2811b83          	lh	s7,-216(sp)

00000000800040c4 <i_3967>:
    800040c4:	f6812d83          	lw	s11,-152(sp)

00000000800040c8 <i_3968>:
    800040c8:	f16bbb93          	sltiu	s7,s7,-234

00000000800040cc <i_3969>:
    800040cc:	00000013          	nop

00000000800040d0 <i_3970>:
    800040d0:	0373d3b3          	divu	t2,t2,s7

00000000800040d4 <i_3971>:
    800040d4:	05712623          	sw	s7,76(sp)

00000000800040d8 <i_3972>:
    800040d8:	037df333          	remu	t1,s11,s7

00000000800040dc <i_3973>:
    800040dc:	001e0e13          	addi	t3,t3,1 # 6aa7b001 <main-0x15584fff>
    800040e0:	fd0e10e3          	bne	t3,a6,800040a0 <i_3958>

00000000800040e4 <i_3974>:
    800040e4:	ec414a83          	lbu	s5,-316(sp)

00000000800040e8 <i_3975>:
    800040e8:	035dd0b3          	divu	ra,s11,s5

00000000800040ec <i_3976>:
    800040ec:	02da9063          	bne	s5,a3,8000410c <i_3984>

00000000800040f0 <i_3977>:
    800040f0:	0f011c83          	lh	s9,240(sp)

00000000800040f4 <i_3978>:
    800040f4:	1dc12a83          	lw	s5,476(sp)

00000000800040f8 <i_3979>:
    800040f8:	e9813e03          	ld	t3,-360(sp)

00000000800040fc <i_3980>:
    800040fc:	0bc11223          	sh	t3,164(sp)

0000000080004100 <i_3981>:
    80004100:	fdf10a83          	lb	s5,-33(sp)

0000000080004104 <i_3982>:
    80004104:	0010de63          	ble	ra,ra,80004120 <i_3989>

0000000080004108 <i_3983>:
    80004108:	0c113c23          	sd	ra,216(sp)

000000008000410c <i_3984>:
    8000410c:	05015b83          	lhu	s7,80(sp)

0000000080004110 <i_3985>:
    80004110:	017c00b3          	add	ra,s8,s7

0000000080004114 <i_3986>:
    80004114:	e6811d83          	lh	s11,-408(sp)

0000000080004118 <i_3987>:
    80004118:	5d86fd93          	andi	s11,a3,1496

000000008000411c <i_3988>:
    8000411c:	017e5263          	ble	s7,t3,80004120 <i_3989>

0000000080004120 <i_3989>:
    80004120:	00a00513          	li	a0,10

0000000080004124 <i_3990>:
    80004124:	00a09dbb          	sllw	s11,ra,a0

0000000080004128 <i_3991>:
    80004128:	972b6b97          	auipc	s7,0x972b6

000000008000412c <i_3992>:
    8000412c:	01c16b83          	lwu	s7,28(sp)

0000000080004130 <i_3993>:
    80004130:	02710423          	sb	t2,40(sp)

0000000080004134 <i_3994>:
    80004134:	ede10b83          	lb	s7,-290(sp)

0000000080004138 <i_3995>:
    80004138:	e5215e03          	lhu	t3,-430(sp)

000000008000413c <i_3996>:
    8000413c:	03811b83          	lh	s7,56(sp)

0000000080004140 <i_3997>:
    80004140:	01ce7a63          	bleu	t3,t3,80004154 <i_4002>

0000000080004144 <i_3998>:
    80004144:	037bdbb3          	divu	s7,s7,s7

0000000080004148 <i_3999>:
    80004148:	1b710b23          	sb	s7,438(sp)

000000008000414c <i_4000>:
    8000414c:	00000013          	nop

0000000080004150 <i_4001>:
    80004150:	00000013          	nop

0000000080004154 <i_4002>:
    80004154:	0bfe0b93          	addi	s7,t3,191

0000000080004158 <i_4003>:
    80004158:	19b10523          	sb	s11,394(sp)

000000008000415c <i_4004>:
    8000415c:	8c100e13          	li	t3,-1855

0000000080004160 <i_4005>:
    80004160:	8d300213          	li	tp,-1837

0000000080004164 <i_4006>:
    80004164:	06211d83          	lh	s11,98(sp)

0000000080004168 <i_4007>:
    80004168:	001e0e13          	addi	t3,t3,1
    8000416c:	ffc27ce3          	bleu	t3,tp,80004164 <i_4006>

0000000080004170 <i_4008>:
    80004170:	01bdecb3          	or	s9,s11,s11

0000000080004174 <i_4009>:
    80004174:	05816c83          	lwu	s9,88(sp)

0000000080004178 <i_4010>:
    80004178:	025df063          	bleu	t0,s11,80004198 <i_4018>

000000008000417c <i_4011>:
    8000417c:	e7b10323          	sb	s11,-410(sp)

0000000080004180 <i_4012>:
    80004180:	01b102a3          	sb	s11,5(sp)

0000000080004184 <i_4013>:
    80004184:	00000013          	nop

0000000080004188 <i_4014>:
    80004188:	0392fcbb          	remuw	s9,t0,s9

000000008000418c <i_4015>:
    8000418c:	03b47433          	remu	s0,s0,s11

0000000080004190 <i_4016>:
    80004190:	029d80bb          	mulw	ra,s11,s1

0000000080004194 <i_4017>:
    80004194:	e7c12183          	lw	gp,-388(sp)

0000000080004198 <i_4018>:
    80004198:	6e25d3b7          	lui	t2,0x6e25d

000000008000419c <i_4019>:
    8000419c:	401d80b3          	sub	ra,s11,ra

00000000800041a0 <i_4020>:
    800041a0:	7c000d93          	li	s11,1984

00000000800041a4 <i_4021>:
    800041a4:	7d000293          	li	t0,2000

00000000800041a8 <i_4022>:
    800041a8:	0280c0bb          	divw	ra,ra,s0

00000000800041ac <i_4023>:
    800041ac:	04c15083          	lhu	ra,76(sp)

00000000800041b0 <i_4024>:
    800041b0:	16611083          	lh	ra,358(sp)

00000000800041b4 <i_4025>:
    800041b4:	001d8d93          	addi	s11,s11,1
    800041b8:	ffb2f8e3          	bleu	s11,t0,800041a8 <i_4022>

00000000800041bc <i_4026>:
    800041bc:	037f8bb3          	mul	s7,t6,s7

00000000800041c0 <i_4027>:
    800041c0:	02760633          	mul	a2,a2,t2

00000000800041c4 <i_4028>:
    800041c4:	0a711123          	sh	t2,162(sp)

00000000800041c8 <i_4029>:
    800041c8:	00a603b3          	add	t2,a2,a0

00000000800041cc <i_4030>:
    800041cc:	03abe83b          	remw	a6,s7,s10

00000000800041d0 <i_4031>:
    800041d0:	e9816b83          	lwu	s7,-360(sp)

00000000800041d4 <i_4032>:
    800041d4:	0240d463          	ble	tp,ra,800041fc <i_4042>

00000000800041d8 <i_4033>:
    800041d8:	01c16383          	lwu	t2,28(sp)

00000000800041dc <i_4034>:
    800041dc:	03780263          	beq	a6,s7,80004200 <i_4043>

00000000800041e0 <i_4035>:
    800041e0:	00cbb1b3          	sltu	gp,s7,a2

00000000800041e4 <i_4036>:
    800041e4:	0233d063          	ble	gp,t2,80004204 <i_4044>

00000000800041e8 <i_4037>:
    800041e8:	0a58a513          	slti	a0,a7,165

00000000800041ec <i_4038>:
    800041ec:	ea011e83          	lh	t4,-352(sp)

00000000800041f0 <i_4039>:
    800041f0:	0077abb3          	slt	s7,a5,t2

00000000800041f4 <i_4040>:
    800041f4:	e2c13c23          	sd	a2,-456(sp)

00000000800041f8 <i_4041>:
    800041f8:	ff814583          	lbu	a1,-8(sp)

00000000800041fc <i_4042>:
    800041fc:	01900a13          	li	s4,25

0000000080004200 <i_4043>:
    80004200:	014595bb          	sllw	a1,a1,s4

0000000080004204 <i_4044>:
    80004204:	26c3e593          	ori	a1,t2,620

0000000080004208 <i_4045>:
    80004208:	02b5e9bb          	remw	s3,a1,a1

000000008000420c <i_4046>:
    8000420c:	8c75839b          	addiw	t2,a1,-1849

0000000080004210 <i_4047>:
    80004210:	0e7102a3          	sb	t2,229(sp)

0000000080004214 <i_4048>:
    80004214:	e0710da3          	sb	t2,-485(sp)

0000000080004218 <i_4049>:
    80004218:	ddaf53b7          	lui	t2,0xddaf5

000000008000421c <i_4050>:
    8000421c:	02b9f3bb          	remuw	t2,s3,a1

0000000080004220 <i_4051>:
    80004220:	03f9d063          	ble	t6,s3,80004240 <i_4059>

0000000080004224 <i_4052>:
    80004224:	02b3f43b          	remuw	s0,t2,a1

0000000080004228 <i_4053>:
    80004228:	f054039b          	addiw	t2,s0,-251

000000008000422c <i_4054>:
    8000422c:	028bebbb          	remw	s7,s7,s0

0000000080004230 <i_4055>:
    80004230:	e7c12b83          	lw	s7,-388(sp)

0000000080004234 <i_4056>:
    80004234:	04014a03          	lbu	s4,64(sp)

0000000080004238 <i_4057>:
    80004238:	e4c11803          	lh	a6,-436(sp)

000000008000423c <i_4058>:
    8000423c:	00000013          	nop

0000000080004240 <i_4059>:
    80004240:	12816303          	lwu	t1,296(sp)

0000000080004244 <i_4060>:
    80004244:	0323633b          	remw	t1,t1,s2

0000000080004248 <i_4061>:
    80004248:	8bf00413          	li	s0,-1857

000000008000424c <i_4062>:
    8000424c:	8cc00593          	li	a1,-1844

0000000080004250 <i_4063>:
    80004250:	00000013          	nop

0000000080004254 <i_4064>:
    80004254:	f3413c23          	sd	s4,-200(sp)

0000000080004258 <i_4065>:
    80004258:	80700813          	li	a6,-2041

000000008000425c <i_4066>:
    8000425c:	81a00b93          	li	s7,-2022

0000000080004260 <i_4067>:
    80004260:	00000013          	nop

0000000080004264 <i_4068>:
    80004264:	00000013          	nop

0000000080004268 <i_4069>:
    80004268:	00c32633          	slt	a2,t1,a2

000000008000426c <i_4070>:
    8000426c:	00000013          	nop

0000000080004270 <i_4071>:
    80004270:	98033313          	sltiu	t1,t1,-1664

0000000080004274 <i_4072>:
    80004274:	00180813          	addi	a6,a6,1
    80004278:	ff7864e3          	bltu	a6,s7,80004260 <i_4067>

000000008000427c <i_4073>:
    8000427c:	f06103a3          	sb	t1,-249(sp)

0000000080004280 <i_4074>:
    80004280:	40660333          	sub	t1,a2,t1

0000000080004284 <i_4075>:
    80004284:	00140413          	addi	s0,s0,1
    80004288:	fcb444e3          	blt	s0,a1,80004250 <i_4063>

000000008000428c <i_4076>:
    8000428c:	40930633          	sub	a2,t1,s1

0000000080004290 <i_4077>:
    80004290:	fa611723          	sh	t1,-82(sp)

0000000080004294 <i_4078>:
    80004294:	40435793          	srai	a5,t1,0x4

0000000080004298 <i_4079>:
    80004298:	14710c03          	lb	s8,327(sp)

000000008000429c <i_4080>:
    8000429c:	00637a33          	and	s4,t1,t1

00000000800042a0 <i_4081>:
    800042a0:	01700293          	li	t0,23

00000000800042a4 <i_4082>:
    800042a4:	005312bb          	sllw	t0,t1,t0

00000000800042a8 <i_4083>:
    800042a8:	00c78863          	beq	a5,a2,800042b8 <i_4087>

00000000800042ac <i_4084>:
    800042ac:	e3b12e23          	sw	s11,-452(sp)

00000000800042b0 <i_4085>:
    800042b0:	00265093          	srli	ra,a2,0x2

00000000800042b4 <i_4086>:
    800042b4:	c9dc2a13          	slti	s4,s8,-867

00000000800042b8 <i_4087>:
    800042b8:	0047941b          	slliw	s0,a5,0x4

00000000800042bc <i_4088>:
    800042bc:	00000013          	nop

00000000800042c0 <i_4089>:
    800042c0:	fe812023          	sw	s0,-32(sp)

00000000800042c4 <i_4090>:
    800042c4:	7c900793          	li	a5,1993

00000000800042c8 <i_4091>:
    800042c8:	7d000d93          	li	s11,2000

00000000800042cc <i_4092>:
    800042cc:	15412403          	lw	s0,340(sp)

00000000800042d0 <i_4093>:
    800042d0:	0db10223          	sb	s11,196(sp)

00000000800042d4 <i_4094>:
    800042d4:	01300513          	li	a0,19

00000000800042d8 <i_4095>:
    800042d8:	00abd43b          	srlw	s0,s7,a0

00000000800042dc <i_4096>:
    800042dc:	7a264417          	auipc	s0,0x7a264

00000000800042e0 <i_4097>:
    800042e0:	01a00513          	li	a0,26

00000000800042e4 <i_4098>:
    800042e4:	00abdbb3          	srl	s7,s7,a0

00000000800042e8 <i_4099>:
    800042e8:	00345413          	srli	s0,s0,0x3

00000000800042ec <i_4100>:
    800042ec:	01747463          	bleu	s7,s0,800042f4 <i_4102>

00000000800042f0 <i_4101>:
    800042f0:	025e42bb          	divw	t0,t3,t0

00000000800042f4 <i_4102>:
    800042f4:	01f14503          	lbu	a0,31(sp)

00000000800042f8 <i_4103>:
    800042f8:	12011b83          	lh	s7,288(sp)

00000000800042fc <i_4104>:
    800042fc:	eb713823          	sd	s7,-336(sp)

0000000080004300 <i_4105>:
    80004300:	e8e15583          	lhu	a1,-370(sp)

0000000080004304 <i_4106>:
    80004304:	005e8c63          	beq	t4,t0,8000431c <i_4111>

0000000080004308 <i_4107>:
    80004308:	a4777b97          	auipc	s7,0xa4777

000000008000430c <i_4108>:
    8000430c:	00178793          	addi	a5,a5,1
    80004310:	fbb7eee3          	bltu	a5,s11,800042cc <i_4092>

0000000080004314 <i_4109>:
    80004314:	02ae5c33          	divu	s8,t3,a0

0000000080004318 <i_4110>:
    80004318:	00e00793          	li	a5,14

000000008000431c <i_4111>:
    8000431c:	40fc57b3          	sra	a5,s8,a5

0000000080004320 <i_4112>:
    80004320:	f4f12c23          	sw	a5,-168(sp)

0000000080004324 <i_4113>:
    80004324:	1d713823          	sd	s7,464(sp)

0000000080004328 <i_4114>:
    80004328:	fc813783          	ld	a5,-56(sp)

000000008000432c <i_4115>:
    8000432c:	7ad00593          	li	a1,1965

0000000080004330 <i_4116>:
    80004330:	7b300c13          	li	s8,1971

0000000080004334 <i_4117>:
    80004334:	e8815083          	lhu	ra,-376(sp)

0000000080004338 <i_4118>:
    80004338:	deba8513          	addi	a0,s5,-533

000000008000433c <i_4119>:
    8000433c:	e4412503          	lw	a0,-444(sp)

0000000080004340 <i_4120>:
    80004340:	1aa13c23          	sd	a0,440(sp)

0000000080004344 <i_4121>:
    80004344:	12c14d83          	lbu	s11,300(sp)

0000000080004348 <i_4122>:
    80004348:	00158593          	addi	a1,a1,1
    8000434c:	febc54e3          	ble	a1,s8,80004334 <i_4117>

0000000080004350 <i_4123>:
    80004350:	03b7f263          	bleu	s11,a5,80004374 <i_4132>

0000000080004354 <i_4124>:
    80004354:	002ddd9b          	srliw	s11,s11,0x2

0000000080004358 <i_4125>:
    80004358:	03aabab3          	mulhu	s5,s5,s10

000000008000435c <i_4126>:
    8000435c:	01baaab3          	slt	s5,s5,s11

0000000080004360 <i_4127>:
    80004360:	c5a40413          	addi	s0,s0,-934 # fa267f36 <_end+0x7a257b22>

0000000080004364 <i_4128>:
    80004364:	fec15083          	lhu	ra,-20(sp)

0000000080004368 <i_4129>:
    80004368:	036ad263          	ble	s6,s5,8000438c <i_4138>

000000008000436c <i_4130>:
    8000436c:	021abab3          	mulhu	s5,s5,ra

0000000080004370 <i_4131>:
    80004370:	01344c33          	xor	s8,s0,s3

0000000080004374 <i_4132>:
    80004374:	15a15c03          	lhu	s8,346(sp)

0000000080004378 <i_4133>:
    80004378:	fd210083          	lb	ra,-46(sp)

000000008000437c <i_4134>:
    8000437c:	ff810fa3          	sb	s8,-1(sp)

0000000080004380 <i_4135>:
    80004380:	001c6c33          	or	s8,s8,ra

0000000080004384 <i_4136>:
    80004384:	0180ea63          	bltu	ra,s8,80004398 <i_4141>

0000000080004388 <i_4137>:
    80004388:	ee710c03          	lb	s8,-281(sp)

000000008000438c <i_4138>:
    8000438c:	00000013          	nop

0000000080004390 <i_4139>:
    80004390:	e9813e83          	ld	t4,-360(sp)

0000000080004394 <i_4140>:
    80004394:	e9611c03          	lh	s8,-362(sp)

0000000080004398 <i_4141>:
    80004398:	0ac108a3          	sb	a2,177(sp)

000000008000439c <i_4142>:
    8000439c:	69a9f993          	andi	s3,s3,1690

00000000800043a0 <i_4143>:
    800043a0:	76d00413          	li	s0,1901

00000000800043a4 <i_4144>:
    800043a4:	77f00293          	li	t0,1919

00000000800043a8 <i_4145>:
    800043a8:	01dee863          	bltu	t4,t4,800043b8 <i_4149>

00000000800043ac <i_4146>:
    800043ac:	ffe11583          	lh	a1,-2(sp)

00000000800043b0 <i_4147>:
    800043b0:	03d5ec3b          	remw	s8,a1,t4

00000000800043b4 <i_4148>:
    800043b4:	6fde8093          	addi	ra,t4,1789

00000000800043b8 <i_4149>:
    800043b8:	fd412a83          	lw	s5,-44(sp)

00000000800043bc <i_4150>:
    800043bc:	03808eb3          	mul	t4,ra,s8

00000000800043c0 <i_4151>:
    800043c0:	00140413          	addi	s0,s0,1
    800043c4:	fe82f2e3          	bleu	s0,t0,800043a8 <i_4145>

00000000800043c8 <i_4152>:
    800043c8:	015081b3          	add	gp,ra,s5

00000000800043cc <i_4153>:
    800043cc:	02300593          	li	a1,35

00000000800043d0 <i_4154>:
    800043d0:	40bed5b3          	sra	a1,t4,a1

00000000800043d4 <i_4155>:
    800043d4:	0035e863          	bltu	a1,gp,800043e4 <i_4159>

00000000800043d8 <i_4156>:
    800043d8:	f6312623          	sw	gp,-148(sp)

00000000800043dc <i_4157>:
    800043dc:	fc110403          	lb	s0,-63(sp)

00000000800043e0 <i_4158>:
    800043e0:	02b9c063          	blt	s3,a1,80004400 <i_4166>

00000000800043e4 <i_4159>:
    800043e4:	10a12423          	sw	a0,264(sp)

00000000800043e8 <i_4160>:
    800043e8:	f3811183          	lh	gp,-200(sp)

00000000800043ec <i_4161>:
    800043ec:	f26bf213          	andi	tp,s7,-218

00000000800043f0 <i_4162>:
    800043f0:	0035d993          	srli	s3,a1,0x3

00000000800043f4 <i_4163>:
    800043f4:	02e5c263          	blt	a1,a4,80004418 <i_4172>

00000000800043f8 <i_4164>:
    800043f8:	10b11323          	sh	a1,262(sp)

00000000800043fc <i_4165>:
    800043fc:	18811f23          	sh	s0,414(sp)

0000000080004400 <i_4166>:
    80004400:	16b11723          	sh	a1,366(sp)

0000000080004404 <i_4167>:
    80004404:	f1411923          	sh	s4,-238(sp)

0000000080004408 <i_4168>:
    80004408:	f8312023          	sw	gp,-128(sp)

000000008000440c <i_4169>:
    8000440c:	1ab10923          	sb	a1,434(sp)

0000000080004410 <i_4170>:
    80004410:	e2c15583          	lhu	a1,-468(sp)

0000000080004414 <i_4171>:
    80004414:	00b9bcb3          	sltu	s9,s3,a1

0000000080004418 <i_4172>:
    80004418:	ed215583          	lhu	a1,-302(sp)

000000008000441c <i_4173>:
    8000441c:	01d00c13          	li	s8,29

0000000080004420 <i_4174>:
    80004420:	0185d5bb          	srlw	a1,a1,s8

0000000080004424 <i_4175>:
    80004424:	fc2c3593          	sltiu	a1,s8,-62

0000000080004428 <i_4176>:
    80004428:	0c013483          	ld	s1,192(sp)

000000008000442c <i_4177>:
    8000442c:	ed812a23          	sw	s8,-300(sp)

0000000080004430 <i_4178>:
    80004430:	ebf10e83          	lb	t4,-321(sp)

0000000080004434 <i_4179>:
    80004434:	01dc3c33          	sltu	s8,s8,t4

0000000080004438 <i_4180>:
    80004438:	0b016203          	lwu	tp,176(sp)

000000008000443c <i_4181>:
    8000443c:	0032129b          	slliw	t0,tp,0x3

0000000080004440 <i_4182>:
    80004440:	03dedeb3          	divu	t4,t4,t4

0000000080004444 <i_4183>:
    80004444:	f4510c23          	sb	t0,-168(sp)

0000000080004448 <i_4184>:
    80004448:	15d12e23          	sw	t4,348(sp)

000000008000444c <i_4185>:
    8000444c:	40325413          	srai	s0,tp,0x3

0000000080004450 <i_4186>:
    80004450:	02428063          	beq	t0,tp,80004470 <i_4194>

0000000080004454 <i_4187>:
    80004454:	025eeebb          	remw	t4,t4,t0

0000000080004458 <i_4188>:
    80004458:	10810523          	sb	s0,266(sp)

000000008000445c <i_4189>:
    8000445c:	04812403          	lw	s0,72(sp)

0000000080004460 <i_4190>:
    80004460:	f6812223          	sw	s0,-156(sp)

0000000080004464 <i_4191>:
    80004464:	03957cb3          	remu	s9,a0,s9

0000000080004468 <i_4192>:
    80004468:	18815583          	lhu	a1,392(sp)

000000008000446c <i_4193>:
    8000446c:	00000013          	nop

0000000080004470 <i_4194>:
    80004470:	039f7ebb          	remuw	t4,t5,s9

0000000080004474 <i_4195>:
    80004474:	f8812823          	sw	s0,-112(sp)

0000000080004478 <i_4196>:
    80004478:	86a00513          	li	a0,-1942

000000008000447c <i_4197>:
    8000447c:	87300293          	li	t0,-1933

0000000080004480 <i_4198>:
    80004480:	004c1813          	slli	a6,s8,0x4

0000000080004484 <i_4199>:
    80004484:	001ed393          	srli	t2,t4,0x1

0000000080004488 <i_4200>:
    80004488:	02845663          	ble	s0,s0,800044b4 <i_4210>

000000008000448c <i_4201>:
    8000448c:	f0b13023          	sd	a1,-256(sp)

0000000080004490 <i_4202>:
    80004490:	ca21ec93          	ori	s9,gp,-862

0000000080004494 <i_4203>:
    80004494:	00150513          	addi	a0,a0,1
    80004498:	fea2d4e3          	ble	a0,t0,80004480 <i_4198>

000000008000449c <i_4204>:
    8000449c:	fba10223          	sb	s10,-92(sp)

00000000800044a0 <i_4205>:
    800044a0:	f3314383          	lbu	t2,-205(sp)

00000000800044a4 <i_4206>:
    800044a4:	12016283          	lwu	t0,288(sp)

00000000800044a8 <i_4207>:
    800044a8:	f4416783          	lwu	a5,-188(sp)

00000000800044ac <i_4208>:
    800044ac:	e3010123          	sb	a6,-478(sp)

00000000800044b0 <i_4209>:
    800044b0:	4065053b          	subw	a0,a0,t1

00000000800044b4 <i_4210>:
    800044b4:	f6810383          	lb	t2,-152(sp)

00000000800044b8 <i_4211>:
    800044b8:	03600593          	li	a1,54

00000000800044bc <i_4212>:
    800044bc:	00b85ab3          	srl	s5,a6,a1

00000000800044c0 <i_4213>:
    800044c0:	7a700813          	li	a6,1959

00000000800044c4 <i_4214>:
    800044c4:	7b400293          	li	t0,1972

00000000800044c8 <i_4215>:
    800044c8:	40a080b3          	sub	ra,ra,a0

00000000800044cc <i_4216>:
    800044cc:	89d00313          	li	t1,-1891

00000000800044d0 <i_4217>:
    800044d0:	8a700c93          	li	s9,-1881

00000000800044d4 <i_4218>:
    800044d4:	f8415e03          	lhu	t3,-124(sp)

00000000800044d8 <i_4219>:
    800044d8:	ef813e03          	ld	t3,-264(sp)

00000000800044dc <i_4220>:
    800044dc:	00ae4a33          	xor	s4,t3,a0

00000000800044e0 <i_4221>:
    800044e0:	0bc14a83          	lbu	s5,188(sp)

00000000800044e4 <i_4222>:
    800044e4:	402ade1b          	sraiw	t3,s5,0x2

00000000800044e8 <i_4223>:
    800044e8:	00130313          	addi	t1,t1,1 # ffffffffe123c001 <_end+0xffffffff6122bbed>
    800044ec:	fe6cf4e3          	bleu	t1,s9,800044d4 <i_4218>

00000000800044f0 <i_4224>:
    800044f0:	024a043b          	mulw	s0,s4,tp

00000000800044f4 <i_4225>:
    800044f4:	00180813          	addi	a6,a6,1
    800044f8:	fc5816e3          	bne	a6,t0,800044c4 <i_4214>

00000000800044fc <i_4226>:
    800044fc:	e9c12823          	sw	t3,-368(sp)

0000000080004500 <i_4227>:
    80004500:	035a0063          	beq	s4,s5,80004520 <i_4235>

0000000080004504 <i_4228>:
    80004504:	00858663          	beq	a1,s0,80004510 <i_4231>

0000000080004508 <i_4229>:
    80004508:	07a15403          	lhu	s0,122(sp)

000000008000450c <i_4230>:
    8000450c:	01c46c63          	bltu	s0,t3,80004524 <i_4236>

0000000080004510 <i_4231>:
    80004510:	00846e33          	or	t3,s0,s0

0000000080004514 <i_4232>:
    80004514:	028dedbb          	remw	s11,s11,s0

0000000080004518 <i_4233>:
    80004518:	e4016403          	lwu	s0,-448(sp)

000000008000451c <i_4234>:
    8000451c:	00800213          	li	tp,8

0000000080004520 <i_4235>:
    80004520:	0044543b          	srlw	s0,s0,tp

0000000080004524 <i_4236>:
    80004524:	0b7102a3          	sb	s7,165(sp)

0000000080004528 <i_4237>:
    80004528:	07013403          	ld	s0,112(sp)

000000008000452c <i_4238>:
    8000452c:	00000013          	nop

0000000080004530 <i_4239>:
    80004530:	ead10a03          	lb	s4,-339(sp)

0000000080004534 <i_4240>:
    80004534:	88700513          	li	a0,-1913

0000000080004538 <i_4241>:
    80004538:	89000093          	li	ra,-1904

000000008000453c <i_4242>:
    8000453c:	c4ba8a1b          	addiw	s4,s5,-949

0000000080004540 <i_4243>:
    80004540:	00000013          	nop

0000000080004544 <i_4244>:
    80004544:	ee010c03          	lb	s8,-288(sp)

0000000080004548 <i_4245>:
    80004548:	00150513          	addi	a0,a0,1
    8000454c:	fea0d8e3          	ble	a0,ra,8000453c <i_4242>

0000000080004550 <i_4246>:
    80004550:	401a5813          	srai	a6,s4,0x1

0000000080004554 <i_4247>:
    80004554:	00000013          	nop

0000000080004558 <i_4248>:
    80004558:	77d00b93          	li	s7,1917

000000008000455c <i_4249>:
    8000455c:	78c00193          	li	gp,1932

0000000080004560 <i_4250>:
    80004560:	19415503          	lhu	a0,404(sp)

0000000080004564 <i_4251>:
    80004564:	e8012803          	lw	a6,-384(sp)

0000000080004568 <i_4252>:
    80004568:	e9350993          	addi	s3,a0,-365

000000008000456c <i_4253>:
    8000456c:	1b416483          	lwu	s1,436(sp)

0000000080004570 <i_4254>:
    80004570:	00a4cc63          	blt	s1,a0,80004588 <i_4259>

0000000080004574 <i_4255>:
    80004574:	001b8b93          	addi	s7,s7,1 # 2477b309 <main-0x5b884cf7>
    80004578:	fe3bc4e3          	blt	s7,gp,80004560 <i_4250>

000000008000457c <i_4256>:
    8000457c:	02a4f263          	bleu	a0,s1,800045a0 <i_4265>

0000000080004580 <i_4257>:
    80004580:	0294e463          	bltu	s1,s1,800045a8 <i_4267>

0000000080004584 <i_4258>:
    80004584:	40255613          	srai	a2,a0,0x2

0000000080004588 <i_4259>:
    80004588:	03098cbb          	mulw	s9,s3,a6

000000008000458c <i_4260>:
    8000458c:	019f8cb3          	add	s9,t6,s9

0000000080004590 <i_4261>:
    80004590:	00255993          	srli	s3,a0,0x2

0000000080004594 <i_4262>:
    80004594:	03d9b3b3          	mulhu	t2,s3,t4

0000000080004598 <i_4263>:
    80004598:	0079fa63          	bleu	t2,s3,800045ac <i_4268>

000000008000459c <i_4264>:
    8000459c:	00b3c5b3          	xor	a1,t2,a1

00000000800045a0 <i_4265>:
    800045a0:	f4b13823          	sd	a1,-176(sp)

00000000800045a4 <i_4266>:
    800045a4:	01359663          	bne	a1,s3,800045b0 <i_4269>

00000000800045a8 <i_4267>:
    800045a8:	03200993          	li	s3,50

00000000800045ac <i_4268>:
    800045ac:	01339233          	sll	tp,t2,s3

00000000800045b0 <i_4269>:
    800045b0:	0330f0b3          	remu	ra,ra,s3

00000000800045b4 <i_4270>:
    800045b4:	00f00213          	li	tp,15

00000000800045b8 <i_4271>:
    800045b8:	0040d33b          	srlw	t1,ra,tp

00000000800045bc <i_4272>:
    800045bc:	00000013          	nop

00000000800045c0 <i_4273>:
    800045c0:	15411b23          	sh	s4,342(sp)

00000000800045c4 <i_4274>:
    800045c4:	79300a93          	li	s5,1939

00000000800045c8 <i_4275>:
    800045c8:	79600a13          	li	s4,1942

00000000800045cc <i_4276>:
    800045cc:	04813303          	ld	t1,72(sp)

00000000800045d0 <i_4277>:
    800045d0:	15413823          	sd	s4,336(sp)

00000000800045d4 <i_4278>:
    800045d4:	001ad81b          	srliw	a6,s5,0x1

00000000800045d8 <i_4279>:
    800045d8:	024a023b          	mulw	tp,s4,tp

00000000800045dc <i_4280>:
    800045dc:	02614663          	blt	sp,t1,80004608 <i_4290>

00000000800045e0 <i_4281>:
    800045e0:	0a611203          	lh	tp,166(sp)

00000000800045e4 <i_4282>:
    800045e4:	13416083          	lwu	ra,308(sp)

00000000800045e8 <i_4283>:
    800045e8:	001a0233          	add	tp,s4,ra

00000000800045ec <i_4284>:
    800045ec:	00000013          	nop

00000000800045f0 <i_4285>:
    800045f0:	03000993          	li	s3,48

00000000800045f4 <i_4286>:
    800045f4:	01321433          	sll	s0,tp,s3

00000000800045f8 <i_4287>:
    800045f8:	001a8a93          	addi	s5,s5,1
    800045fc:	fd4ac8e3          	blt	s5,s4,800045cc <i_4276>

0000000080004600 <i_4288>:
    80004600:	e4112223          	sw	ra,-444(sp)

0000000080004604 <i_4289>:
    80004604:	f1411083          	lh	ra,-236(sp)

0000000080004608 <i_4290>:
    80004608:	03300093          	li	ra,51

000000008000460c <i_4291>:
    8000460c:	001a50b3          	srl	ra,s4,ra

0000000080004610 <i_4292>:
    80004610:	88b00a13          	li	s4,-1909

0000000080004614 <i_4293>:
    80004614:	88d00d93          	li	s11,-1907

0000000080004618 <i_4294>:
    80004618:	cf2d8093          	addi	ra,s11,-782

000000008000461c <i_4295>:
    8000461c:	001a0a13          	addi	s4,s4,1 # 695b3001 <main-0x16a4cfff>
    80004620:	ffba1ce3          	bne	s4,s11,80004618 <i_4294>

0000000080004624 <i_4296>:
    80004624:	01f00213          	li	tp,31

0000000080004628 <i_4297>:
    80004628:	0040ddbb          	srlw	s11,ra,tp

000000008000462c <i_4298>:
    8000462c:	01918cb3          	add	s9,gp,s9

0000000080004630 <i_4299>:
    80004630:	06111b23          	sh	ra,118(sp)

0000000080004634 <i_4300>:
    80004634:	039c80bb          	mulw	ra,s9,s9

0000000080004638 <i_4301>:
    80004638:	005cc263          	blt	s9,t0,8000463c <i_4302>

000000008000463c <i_4302>:
    8000463c:	1c412783          	lw	a5,452(sp)

0000000080004640 <i_4303>:
    80004640:	04113c23          	sd	ra,88(sp)

0000000080004644 <i_4304>:
    80004644:	001cf263          	bleu	ra,s9,80004648 <i_4305>

0000000080004648 <i_4305>:
    80004648:	0010e463          	bltu	ra,ra,80004650 <i_4307>

000000008000464c <i_4306>:
    8000464c:	eb913023          	sd	s9,-352(sp)

0000000080004650 <i_4307>:
    80004650:	0a215303          	lhu	t1,162(sp)

0000000080004654 <i_4308>:
    80004654:	00179e9b          	slliw	t4,a5,0x1

0000000080004658 <i_4309>:
    80004658:	01d9e9b3          	or	s3,s3,t4

000000008000465c <i_4310>:
    8000465c:	ebe14203          	lbu	tp,-322(sp)

0000000080004660 <i_4311>:
    80004660:	0ac15e03          	lhu	t3,172(sp)

0000000080004664 <i_4312>:
    80004664:	e3815a03          	lhu	s4,-456(sp)

0000000080004668 <i_4313>:
    80004668:	18611423          	sh	t1,392(sp)

000000008000466c <i_4314>:
    8000466c:	13614583          	lbu	a1,310(sp)

0000000080004670 <i_4315>:
    80004670:	40125393          	srai	t2,tp,0x1

0000000080004674 <i_4316>:
    80004674:	c7c2e213          	ori	tp,t0,-900

0000000080004678 <i_4317>:
    80004678:	1b710383          	lb	t2,439(sp)

000000008000467c <i_4318>:
    8000467c:	ff415d83          	lhu	s11,-12(sp)

0000000080004680 <i_4319>:
    80004680:	f7b10723          	sb	s11,-146(sp)

0000000080004684 <i_4320>:
    80004684:	1bb11b23          	sh	s11,438(sp)

0000000080004688 <i_4321>:
    80004688:	0ac10d23          	sb	a2,186(sp)

000000008000468c <i_4322>:
    8000468c:	08914603          	lbu	a2,137(sp)

0000000080004690 <i_4323>:
    80004690:	02c25333          	divu	t1,tp,a2

0000000080004694 <i_4324>:
    80004694:	ed411383          	lh	t2,-300(sp)

0000000080004698 <i_4325>:
    80004698:	00000013          	nop

000000008000469c <i_4326>:
    8000469c:	e4413023          	sd	tp,-448(sp)

00000000800046a0 <i_4327>:
    800046a0:	8c300213          	li	tp,-1853

00000000800046a4 <i_4328>:
    800046a4:	8d000813          	li	a6,-1840

00000000800046a8 <i_4329>:
    800046a8:	69f6031b          	addiw	t1,a2,1695

00000000800046ac <i_4330>:
    800046ac:	17412d83          	lw	s11,372(sp)

00000000800046b0 <i_4331>:
    800046b0:	efc11283          	lh	t0,-260(sp)

00000000800046b4 <i_4332>:
    800046b4:	00120213          	addi	tp,tp,1 # 1 <main-0x7fffffff>
    800046b8:	fe4878e3          	bleu	tp,a6,800046a8 <i_4329>

00000000800046bc <i_4333>:
    800046bc:	fdb10aa3          	sb	s11,-43(sp)

00000000800046c0 <i_4334>:
    800046c0:	4036541b          	sraiw	s0,a2,0x3

00000000800046c4 <i_4335>:
    800046c4:	83900393          	li	t2,-1991

00000000800046c8 <i_4336>:
    800046c8:	84700d93          	li	s11,-1977

00000000800046cc <i_4337>:
    800046cc:	f7415283          	lhu	t0,-140(sp)

00000000800046d0 <i_4338>:
    800046d0:	00000013          	nop

00000000800046d4 <i_4339>:
    800046d4:	7e100613          	li	a2,2017

00000000800046d8 <i_4340>:
    800046d8:	7f200e93          	li	t4,2034

00000000800046dc <i_4341>:
    800046dc:	00160613          	addi	a2,a2,1
    800046e0:	ffd61ee3          	bne	a2,t4,800046dc <i_4341>

00000000800046e4 <i_4342>:
    800046e4:	fec16603          	lwu	a2,-20(sp)

00000000800046e8 <i_4343>:
    800046e8:	40ce8633          	sub	a2,t4,a2

00000000800046ec <i_4344>:
    800046ec:	00138393          	addi	t2,t2,1 # ffffffffddaf5001 <_end+0xffffffff5dae4bed>
    800046f0:	fdb3eee3          	bltu	t2,s11,800046cc <i_4337>

00000000800046f4 <i_4345>:
    800046f4:	fec11303          	lh	t1,-20(sp)

00000000800046f8 <i_4346>:
    800046f8:	00c34463          	blt	t1,a2,80004700 <i_4348>

00000000800046fc <i_4347>:
    800046fc:	03d12a23          	sw	t4,52(sp)

0000000080004700 <i_4348>:
    80004700:	02c6733b          	remuw	t1,a2,a2

0000000080004704 <i_4349>:
    80004704:	00000013          	nop

0000000080004708 <i_4350>:
    80004708:	e7013483          	ld	s1,-400(sp)

000000008000470c <i_4351>:
    8000470c:	88e00513          	li	a0,-1906

0000000080004710 <i_4352>:
    80004710:	89200593          	li	a1,-1902

0000000080004714 <i_4353>:
    80004714:	02b5d633          	divu	a2,a1,a1

0000000080004718 <i_4354>:
    80004718:	fde10603          	lb	a2,-34(sp)

000000008000471c <i_4355>:
    8000471c:	01012603          	lw	a2,16(sp)

0000000080004720 <i_4356>:
    80004720:	00150513          	addi	a0,a0,1
    80004724:	fea5d8e3          	ble	a0,a1,80004714 <i_4353>

0000000080004728 <i_4357>:
    80004728:	02c60063          	beq	a2,a2,80004748 <i_4365>

000000008000472c <i_4358>:
    8000472c:	02c61633          	mulh	a2,a2,a2

0000000080004730 <i_4359>:
    80004730:	e3011723          	sh	a6,-466(sp)

0000000080004734 <i_4360>:
    80004734:	02c11603          	lh	a2,44(sp)

0000000080004738 <i_4361>:
    80004738:	40227637          	lui	a2,0x40227

000000008000473c <i_4362>:
    8000473c:	00c66a63          	bltu	a2,a2,80004750 <i_4367>

0000000080004740 <i_4363>:
    80004740:	1cc12c23          	sw	a2,472(sp)

0000000080004744 <i_4364>:
    80004744:	3d5acb93          	xori	s7,s5,981

0000000080004748 <i_4365>:
    80004748:	00cee463          	bltu	t4,a2,80004750 <i_4367>

000000008000474c <i_4366>:
    8000474c:	02e60263          	beq	a2,a4,80004770 <i_4375>

0000000080004750 <i_4367>:
    80004750:	00f60a13          	addi	s4,a2,15 # 4022700f <main-0x3fdd8ff1>

0000000080004754 <i_4368>:
    80004754:	0372e2bb          	remw	t0,t0,s7

0000000080004758 <i_4369>:
    80004758:	f6816a03          	lwu	s4,-152(sp)

000000008000475c <i_4370>:
    8000475c:	0f016e03          	lwu	t3,240(sp)

0000000080004760 <i_4371>:
    80004760:	f1aebb93          	sltiu	s7,t4,-230

0000000080004764 <i_4372>:
    80004764:	e1e15b83          	lhu	s7,-482(sp)

0000000080004768 <i_4373>:
    80004768:	ea813183          	ld	gp,-344(sp)

000000008000476c <i_4374>:
    8000476c:	039b9cb3          	mulh	s9,s7,s9

0000000080004770 <i_4375>:
    80004770:	edc13423          	sd	t3,-312(sp)

0000000080004774 <i_4376>:
    80004774:	03ccd063          	ble	t3,s9,80004794 <i_4384>

0000000080004778 <i_4377>:
    80004778:	039be063          	bltu	s7,s9,80004798 <i_4385>

000000008000477c <i_4378>:
    8000477c:	d958e5b7          	lui	a1,0xd958e

0000000080004780 <i_4379>:
    80004780:	0035f663          	bleu	gp,a1,8000478c <i_4382>

0000000080004784 <i_4380>:
    80004784:	01ccf663          	bleu	t3,s9,80004790 <i_4383>

0000000080004788 <i_4381>:
    80004788:	eb611483          	lh	s1,-330(sp)

000000008000478c <i_4382>:
    8000478c:	00210e03          	lb	t3,2(sp)

0000000080004790 <i_4383>:
    80004790:	f3014a03          	lbu	s4,-208(sp)

0000000080004794 <i_4384>:
    80004794:	00d8ce33          	xor	t3,a7,a3

0000000080004798 <i_4385>:
    80004798:	00000013          	nop

000000008000479c <i_4386>:
    8000479c:	40ee0e3b          	subw	t3,t3,a4

00000000800047a0 <i_4387>:
    800047a0:	8b400793          	li	a5,-1868

00000000800047a4 <i_4388>:
    800047a4:	8c700993          	li	s3,-1849

00000000800047a8 <i_4389>:
    800047a8:	f9016c03          	lwu	s8,-112(sp)

00000000800047ac <i_4390>:
    800047ac:	033b033b          	mulw	t1,s6,s3

00000000800047b0 <i_4391>:
    800047b0:	fdc15b83          	lhu	s7,-36(sp)

00000000800047b4 <i_4392>:
    800047b4:	00000013          	nop

00000000800047b8 <i_4393>:
    800047b8:	034e6463          	bltu	t3,s4,800047e0 <i_4402>

00000000800047bc <i_4394>:
    800047bc:	ff412423          	sw	s4,-24(sp)

00000000800047c0 <i_4395>:
    800047c0:	0f416e03          	lwu	t3,244(sp)

00000000800047c4 <i_4396>:
    800047c4:	00178793          	addi	a5,a5,1
    800047c8:	ff3790e3          	bne	a5,s3,800047a8 <i_4389>

00000000800047cc <i_4397>:
    800047cc:	16013c03          	ld	s8,352(sp)

00000000800047d0 <i_4398>:
    800047d0:	006c6e63          	bltu	s8,t1,800047ec <i_4405>

00000000800047d4 <i_4399>:
    800047d4:	0f812303          	lw	t1,248(sp)

00000000800047d8 <i_4400>:
    800047d8:	07215983          	lhu	s3,114(sp)

00000000800047dc <i_4401>:
    800047dc:	00000013          	nop

00000000800047e0 <i_4402>:
    800047e0:	00000013          	nop

00000000800047e4 <i_4403>:
    800047e4:	41c309b3          	sub	s3,t1,t3

00000000800047e8 <i_4404>:
    800047e8:	0bc11983          	lh	s3,188(sp)

00000000800047ec <i_4405>:
    800047ec:	0d3103a3          	sb	s3,199(sp)

00000000800047f0 <i_4406>:
    800047f0:	00000013          	nop

00000000800047f4 <i_4407>:
    800047f4:	7ea00313          	li	t1,2026

00000000800047f8 <i_4408>:
    800047f8:	7f800e13          	li	t3,2040

00000000800047fc <i_4409>:
    800047fc:	413989bb          	subw	s3,s3,s3

0000000080004800 <i_4410>:
    80004800:	00130313          	addi	t1,t1,1
    80004804:	ffc34ce3          	blt	t1,t3,800047fc <i_4409>

0000000080004808 <i_4411>:
    80004808:	00c00793          	li	a5,12

000000008000480c <i_4412>:
    8000480c:	00f9923b          	sllw	tp,s3,a5

0000000080004810 <i_4413>:
    80004810:	1c016c83          	lwu	s9,448(sp)

0000000080004814 <i_4414>:
    80004814:	2b7cc993          	xori	s3,s9,695

0000000080004818 <i_4415>:
    80004818:	019c8233          	add	tp,s9,s9

000000008000481c <i_4416>:
    8000481c:	0339c9b3          	div	s3,s3,s3

0000000080004820 <i_4417>:
    80004820:	01099263          	bne	s3,a6,80004824 <i_4418>

0000000080004824 <i_4418>:
    80004824:	01326463          	bltu	tp,s3,8000482c <i_4420>

0000000080004828 <i_4419>:
    80004828:	f0411203          	lh	tp,-252(sp)

000000008000482c <i_4420>:
    8000482c:	e7412383          	lw	t2,-396(sp)

0000000080004830 <i_4421>:
    80004830:	00120a63          	beq	tp,ra,80004844 <i_4426>

0000000080004834 <i_4422>:
    80004834:	0015509b          	srliw	ra,a0,0x1

0000000080004838 <i_4423>:
    80004838:	0153c533          	xor	a0,t2,s5

000000008000483c <i_4424>:
    8000483c:	09c11303          	lh	t1,156(sp)

0000000080004840 <i_4425>:
    80004840:	00136463          	bltu	t1,ra,80004848 <i_4427>

0000000080004844 <i_4426>:
    80004844:	f3510a83          	lb	s5,-203(sp)

0000000080004848 <i_4427>:
    80004848:	ee012303          	lw	t1,-288(sp)

000000008000484c <i_4428>:
    8000484c:	0139d863          	ble	s3,s3,8000485c <i_4432>

0000000080004850 <i_4429>:
    80004850:	015a8e63          	beq	s5,s5,8000486c <i_4436>

0000000080004854 <i_4430>:
    80004854:	0e611623          	sh	t1,236(sp)

0000000080004858 <i_4431>:
    80004858:	12610e03          	lb	t3,294(sp)

000000008000485c <i_4432>:
    8000485c:	03b00393          	li	t2,59

0000000080004860 <i_4433>:
    80004860:	40735333          	sra	t1,t1,t2

0000000080004864 <i_4434>:
    80004864:	0223733b          	remuw	t1,t1,sp

0000000080004868 <i_4435>:
    80004868:	02800193          	li	gp,40

000000008000486c <i_4436>:
    8000486c:	00335333          	srl	t1,t1,gp

0000000080004870 <i_4437>:
    80004870:	00000013          	nop

0000000080004874 <i_4438>:
    80004874:	8c100993          	li	s3,-1855

0000000080004878 <i_4439>:
    80004878:	8cc00a93          	li	s5,-1844

000000008000487c <i_4440>:
    8000487c:	00000013          	nop

0000000080004880 <i_4441>:
    80004880:	f1813383          	ld	t2,-232(sp)

0000000080004884 <i_4442>:
    80004884:	e4614083          	lbu	ra,-442(sp)

0000000080004888 <i_4443>:
    80004888:	13416303          	lwu	t1,308(sp)

000000008000488c <i_4444>:
    8000488c:	f9611583          	lh	a1,-106(sp)

0000000080004890 <i_4445>:
    80004890:	12c11123          	sh	a2,290(sp)

0000000080004894 <i_4446>:
    80004894:	0d016e83          	lwu	t4,208(sp)

0000000080004898 <i_4447>:
    80004898:	00198993          	addi	s3,s3,1
    8000489c:	ff3af0e3          	bleu	s3,s5,8000487c <i_4440>

00000000800048a0 <i_4448>:
    800048a0:	02bbbe33          	mulhu	t3,s7,a1

00000000800048a4 <i_4449>:
    800048a4:	f2b12c23          	sw	a1,-200(sp)

00000000800048a8 <i_4450>:
    800048a8:	01c49c63          	bne	s1,t3,800048c0 <i_4456>

00000000800048ac <i_4451>:
    800048ac:	03758463          	beq	a1,s7,800048d4 <i_4461>

00000000800048b0 <i_4452>:
    800048b0:	f1611503          	lh	a0,-234(sp)

00000000800048b4 <i_4453>:
    800048b4:	03d58063          	beq	a1,t4,800048d4 <i_4461>

00000000800048b8 <i_4454>:
    800048b8:	03db9063          	bne	s7,t4,800048d8 <i_4462>

00000000800048bc <i_4455>:
    800048bc:	0a416983          	lwu	s3,164(sp)

00000000800048c0 <i_4456>:
    800048c0:	efc12c23          	sw	t3,-264(sp)

00000000800048c4 <i_4457>:
    800048c4:	0335d233          	divu	tp,a1,s3

00000000800048c8 <i_4458>:
    800048c8:	0d815803          	lhu	a6,216(sp)

00000000800048cc <i_4459>:
    800048cc:	01010a23          	sb	a6,20(sp)

00000000800048d0 <i_4460>:
    800048d0:	02420263          	beq	tp,tp,800048f4 <i_4469>

00000000800048d4 <i_4461>:
    800048d4:	18f34eb7          	lui	t4,0x18f34

00000000800048d8 <i_4462>:
    800048d8:	01094863          	blt	s2,a6,800048e8 <i_4466>

00000000800048dc <i_4463>:
    800048dc:	fc615a83          	lhu	s5,-58(sp)

00000000800048e0 <i_4464>:
    800048e0:	03582ab3          	mulhsu	s5,a6,s5

00000000800048e4 <i_4465>:
    800048e4:	01520a63          	beq	tp,s5,800048f8 <i_4470>

00000000800048e8 <i_4466>:
    800048e8:	f8412823          	sw	tp,-112(sp)

00000000800048ec <i_4467>:
    800048ec:	00da9e63          	bne	s5,a3,80004908 <i_4474>

00000000800048f0 <i_4468>:
    800048f0:	0ae14303          	lbu	t1,174(sp)

00000000800048f4 <i_4469>:
    800048f4:	13c16483          	lwu	s1,316(sp)

00000000800048f8 <i_4470>:
    800048f8:	03e00e13          	li	t3,62

00000000800048fc <i_4471>:
    800048fc:	01c85db3          	srl	s11,a6,t3

0000000080004900 <i_4472>:
    80004900:	19511023          	sh	s5,384(sp)

0000000080004904 <i_4473>:
    80004904:	03cb5463          	ble	t3,s6,8000492c <i_4483>

0000000080004908 <i_4474>:
    80004908:	07c16c03          	lwu	s8,124(sp)

000000008000490c <i_4475>:
    8000490c:	00634833          	xor	a6,t1,t1

0000000080004910 <i_4476>:
    80004910:	e9412e23          	sw	s4,-356(sp)

0000000080004914 <i_4477>:
    80004914:	1e214483          	lbu	s1,482(sp)

0000000080004918 <i_4478>:
    80004918:	038d9263          	bne	s11,s8,8000493c <i_4487>

000000008000491c <i_4479>:
    8000491c:	0188ee63          	bltu	a7,s8,80004938 <i_4486>

0000000080004920 <i_4480>:
    80004920:	0094f863          	bleu	s1,s1,80004930 <i_4484>

0000000080004924 <i_4481>:
    80004924:	009be4b3          	or	s1,s7,s1

0000000080004928 <i_4482>:
    80004928:	03910503          	lb	a0,57(sp)

000000008000492c <i_4483>:
    8000492c:	16812503          	lw	a0,360(sp)

0000000080004930 <i_4484>:
    80004930:	00000013          	nop

0000000080004934 <i_4485>:
    80004934:	00000013          	nop

0000000080004938 <i_4486>:
    80004938:	f6a10823          	sb	a0,-144(sp)

000000008000493c <i_4487>:
    8000493c:	f1813503          	ld	a0,-232(sp)

0000000080004940 <i_4488>:
    80004940:	07b11f23          	sh	s11,126(sp)

0000000080004944 <i_4489>:
    80004944:	74c00813          	li	a6,1868

0000000080004948 <i_4490>:
    80004948:	75500e13          	li	t3,1877

000000008000494c <i_4491>:
    8000494c:	00013c03          	ld	s8,0(sp)

0000000080004950 <i_4492>:
    80004950:	01811923          	sh	s8,18(sp)

0000000080004954 <i_4493>:
    80004954:	80a00193          	li	gp,-2038

0000000080004958 <i_4494>:
    80004958:	81400093          	li	ra,-2028

000000008000495c <i_4495>:
    8000495c:	409504bb          	subw	s1,a0,s1

0000000080004960 <i_4496>:
    80004960:	00118193          	addi	gp,gp,1
    80004964:	fe11cce3          	blt	gp,ra,8000495c <i_4495>

0000000080004968 <i_4497>:
    80004968:	02a55063          	ble	a0,a0,80004988 <i_4504>

000000008000496c <i_4498>:
    8000496c:	00180813          	addi	a6,a6,1
    80004970:	fdc81ee3          	bne	a6,t3,8000494c <i_4491>

0000000080004974 <i_4499>:
    80004974:	e9813483          	ld	s1,-360(sp)

0000000080004978 <i_4500>:
    80004978:	009c2c33          	slt	s8,s8,s1

000000008000497c <i_4501>:
    8000497c:	0094e463          	bltu	s1,s1,80004984 <i_4503>

0000000080004980 <i_4502>:
    80004980:	015c2ab3          	slt	s5,s8,s5

0000000080004984 <i_4503>:
    80004984:	038c3ab3          	mulhu	s5,s8,s8

0000000080004988 <i_4504>:
    80004988:	16913c23          	sd	s1,376(sp)

000000008000498c <i_4505>:
    8000498c:	01f57863          	bleu	t6,a0,8000499c <i_4509>

0000000080004990 <i_4506>:
    80004990:	028bc063          	blt	s7,s0,800049b0 <i_4514>

0000000080004994 <i_4507>:
    80004994:	f7610583          	lb	a1,-138(sp)

0000000080004998 <i_4508>:
    80004998:	01549a63          	bne	s1,s5,800049ac <i_4513>

000000008000499c <i_4509>:
    8000499c:	402ad49b          	sraiw	s1,s5,0x2

00000000800049a0 <i_4510>:
    800049a0:	00956433          	or	s0,a0,s1

00000000800049a4 <i_4511>:
    800049a4:	00b10da3          	sb	a1,27(sp)

00000000800049a8 <i_4512>:
    800049a8:	eaa105a3          	sb	a0,-341(sp)

00000000800049ac <i_4513>:
    800049ac:	00858233          	add	tp,a1,s0

00000000800049b0 <i_4514>:
    800049b0:	16a12623          	sw	a0,364(sp)

00000000800049b4 <i_4515>:
    800049b4:	0b012203          	lw	tp,176(sp)

00000000800049b8 <i_4516>:
    800049b8:	00b26e63          	bltu	tp,a1,800049d4 <i_4523>

00000000800049bc <i_4517>:
    800049bc:	03528c33          	mul	s8,t0,s5

00000000800049c0 <i_4518>:
    800049c0:	1d812583          	lw	a1,472(sp)

00000000800049c4 <i_4519>:
    800049c4:	00000013          	nop

00000000800049c8 <i_4520>:
    800049c8:	e2415d83          	lhu	s11,-476(sp)

00000000800049cc <i_4521>:
    800049cc:	7f3dc213          	xori	tp,s11,2035

00000000800049d0 <i_4522>:
    800049d0:	00459e9b          	slliw	t4,a1,0x4

00000000800049d4 <i_4523>:
    800049d4:	07d13c23          	sd	t4,120(sp)

00000000800049d8 <i_4524>:
    800049d8:	04b10323          	sb	a1,70(sp)

00000000800049dc <i_4525>:
    800049dc:	7de00293          	li	t0,2014

00000000800049e0 <i_4526>:
    800049e0:	7e800a13          	li	s4,2024

00000000800049e4 <i_4527>:
    800049e4:	00000013          	nop

00000000800049e8 <i_4528>:
    800049e8:	024e4db3          	div	s11,t3,tp

00000000800049ec <i_4529>:
    800049ec:	0a013983          	ld	s3,160(sp)

00000000800049f0 <i_4530>:
    800049f0:	00000013          	nop

00000000800049f4 <i_4531>:
    800049f4:	00128293          	addi	t0,t0,1
    800049f8:	fe5a76e3          	bleu	t0,s4,800049e4 <i_4527>

00000000800049fc <i_4532>:
    800049fc:	f4413423          	sd	tp,-184(sp)

0000000080004a00 <i_4533>:
    80004a00:	024282bb          	mulw	t0,t0,tp

0000000080004a04 <i_4534>:
    80004a04:	007e8c63          	beq	t4,t2,80004a1c <i_4540>

0000000080004a08 <i_4535>:
    80004a08:	c2a9ce93          	xori	t4,s3,-982

0000000080004a0c <i_4536>:
    80004a0c:	0032fe33          	and	t3,t0,gp

0000000080004a10 <i_4537>:
    80004a10:	324e7293          	andi	t0,t3,804

0000000080004a14 <i_4538>:
    80004a14:	fb311023          	sh	s3,-96(sp)

0000000080004a18 <i_4539>:
    80004a18:	13c16a83          	lwu	s5,316(sp)

0000000080004a1c <i_4540>:
    80004a1c:	018edc63          	ble	s8,t4,80004a34 <i_4546>

0000000080004a20 <i_4541>:
    80004a20:	035e12b3          	mulh	t0,t3,s5

0000000080004a24 <i_4542>:
    80004a24:	0254043b          	mulw	s0,s0,t0

0000000080004a28 <i_4543>:
    80004a28:	03013183          	ld	gp,48(sp)

0000000080004a2c <i_4544>:
    80004a2c:	00599c63          	bne	s3,t0,80004a44 <i_4550>

0000000080004a30 <i_4545>:
    80004a30:	01594e63          	blt	s2,s5,80004a4c <i_4552>

0000000080004a34 <i_4546>:
    80004a34:	ee011a83          	lh	s5,-288(sp)

0000000080004a38 <i_4547>:
    80004a38:	efc11c23          	sh	t3,-264(sp)

0000000080004a3c <i_4548>:
    80004a3c:	025281b3          	mul	gp,t0,t0

0000000080004a40 <i_4549>:
    80004a40:	19510e03          	lb	t3,405(sp)

0000000080004a44 <i_4550>:
    80004a44:	0324643b          	remw	s0,s0,s2

0000000080004a48 <i_4551>:
    80004a48:	14c10a83          	lb	s5,332(sp)

0000000080004a4c <i_4552>:
    80004a4c:	004e7ab3          	and	s5,t3,tp

0000000080004a50 <i_4553>:
    80004a50:	00e00093          	li	ra,14

0000000080004a54 <i_4554>:
    80004a54:	401ad1bb          	sraw	gp,s5,ra

0000000080004a58 <i_4555>:
    80004a58:	89d00413          	li	s0,-1891

0000000080004a5c <i_4556>:
    80004a5c:	8a200513          	li	a0,-1886

0000000080004a60 <i_4557>:
    80004a60:	08013383          	ld	t2,128(sp)

0000000080004a64 <i_4558>:
    80004a64:	fa614383          	lbu	t2,-90(sp)

0000000080004a68 <i_4559>:
    80004a68:	9413b293          	sltiu	t0,t2,-1727

0000000080004a6c <i_4560>:
    80004a6c:	0073ee63          	bltu	t2,t2,80004a88 <i_4566>

0000000080004a70 <i_4561>:
    80004a70:	0273e063          	bltu	t2,t2,80004a90 <i_4568>

0000000080004a74 <i_4562>:
    80004a74:	027ecebb          	divw	t4,t4,t2

0000000080004a78 <i_4563>:
    80004a78:	00140413          	addi	s0,s0,1
    80004a7c:	fe8550e3          	ble	s0,a0,80004a5c <i_4556>

0000000080004a80 <i_4564>:
    80004a80:	01d384b3          	add	s1,t2,t4

0000000080004a84 <i_4565>:
    80004a84:	18e11383          	lh	t2,398(sp)

0000000080004a88 <i_4566>:
    80004a88:	f2615483          	lhu	s1,-218(sp)

0000000080004a8c <i_4567>:
    80004a8c:	027e85bb          	mulw	a1,t4,t2

0000000080004a90 <i_4568>:
    80004a90:	0015d513          	srli	a0,a1,0x1

0000000080004a94 <i_4569>:
    80004a94:	027b5463          	ble	t2,s6,80004abc <i_4579>

0000000080004a98 <i_4570>:
    80004a98:	efd12c23          	sw	t4,-264(sp)

0000000080004a9c <i_4571>:
    80004a9c:	018ede63          	ble	s8,t4,80004ab8 <i_4578>

0000000080004aa0 <i_4572>:
    80004aa0:	02750c3b          	mulw	s8,a0,t2

0000000080004aa4 <i_4573>:
    80004aa4:	f5c12383          	lw	t2,-164(sp)

0000000080004aa8 <i_4574>:
    80004aa8:	003531b3          	sltu	gp,a0,gp

0000000080004aac <i_4575>:
    80004aac:	00800493          	li	s1,8

0000000080004ab0 <i_4576>:
    80004ab0:	00939ebb          	sllw	t4,t2,s1

0000000080004ab4 <i_4577>:
    80004ab4:	00114c83          	lbu	s9,1(sp)

0000000080004ab8 <i_4578>:
    80004ab8:	009e8663          	beq	t4,s1,80004ac4 <i_4581>

0000000080004abc <i_4579>:
    80004abc:	00000013          	nop

0000000080004ac0 <i_4580>:
    80004ac0:	00000013          	nop

0000000080004ac4 <i_4581>:
    80004ac4:	f6a11423          	sh	a0,-152(sp)

0000000080004ac8 <i_4582>:
    80004ac8:	0cf14b83          	lbu	s7,207(sp)

0000000080004acc <i_4583>:
    80004acc:	77700393          	li	t2,1911

0000000080004ad0 <i_4584>:
    80004ad0:	78700493          	li	s1,1927

0000000080004ad4 <i_4585>:
    80004ad4:	ed014603          	lbu	a2,-304(sp)

0000000080004ad8 <i_4586>:
    80004ad8:	e1d10c23          	sb	t4,-488(sp)

0000000080004adc <i_4587>:
    80004adc:	15113423          	sd	a7,328(sp)

0000000080004ae0 <i_4588>:
    80004ae0:	00138393          	addi	t2,t2,1
    80004ae4:	fe74f8e3          	bleu	t2,s1,80004ad4 <i_4585>

0000000080004ae8 <i_4589>:
    80004ae8:	19211383          	lh	t2,402(sp)

0000000080004aec <i_4590>:
    80004aec:	02c52433          	mulhsu	s0,a0,a2

0000000080004af0 <i_4591>:
    80004af0:	0d8ee393          	ori	t2,t4,216

0000000080004af4 <i_4592>:
    80004af4:	1cb14a83          	lbu	s5,459(sp)

0000000080004af8 <i_4593>:
    80004af8:	7ca00e93          	li	t4,1994

0000000080004afc <i_4594>:
    80004afc:	7da00e13          	li	t3,2010

0000000080004b00 <i_4595>:
    80004b00:	1c816603          	lwu	a2,456(sp)

0000000080004b04 <i_4596>:
    80004b04:	ecf10803          	lb	a6,-305(sp)

0000000080004b08 <i_4597>:
    80004b08:	2f04e497          	auipc	s1,0x2f04e

0000000080004b0c <i_4598>:
    80004b0c:	01b462b3          	or	t0,s0,s11

0000000080004b10 <i_4599>:
    80004b10:	fe912223          	sw	s1,-28(sp)

0000000080004b14 <i_4600>:
    80004b14:	03c15483          	lhu	s1,60(sp)

0000000080004b18 <i_4601>:
    80004b18:	02012283          	lw	t0,32(sp)

0000000080004b1c <i_4602>:
    80004b1c:	1a812023          	sw	s0,416(sp)

0000000080004b20 <i_4603>:
    80004b20:	bf94c493          	xori	s1,s1,-1031

0000000080004b24 <i_4604>:
    80004b24:	0d013603          	ld	a2,208(sp)

0000000080004b28 <i_4605>:
    80004b28:	00c4a633          	slt	a2,s1,a2

0000000080004b2c <i_4606>:
    80004b2c:	001e8e93          	addi	t4,t4,1 # 18f34001 <main-0x670cbfff>
    80004b30:	fdde78e3          	bleu	t4,t3,80004b00 <i_4595>

0000000080004b34 <i_4607>:
    80004b34:	0290c0bb          	divw	ra,ra,s1

0000000080004b38 <i_4608>:
    80004b38:	e9914e83          	lbu	t4,-359(sp)

0000000080004b3c <i_4609>:
    80004b3c:	17c10083          	lb	ra,380(sp)

0000000080004b40 <i_4610>:
    80004b40:	edd12823          	sw	t4,-304(sp)

0000000080004b44 <i_4611>:
    80004b44:	e8816083          	lwu	ra,-376(sp)

0000000080004b48 <i_4612>:
    80004b48:	0a110b23          	sb	ra,182(sp)

0000000080004b4c <i_4613>:
    80004b4c:	4040da1b          	sraiw	s4,ra,0x4

0000000080004b50 <i_4614>:
    80004b50:	001f9a9b          	slliw	s5,t6,0x1

0000000080004b54 <i_4615>:
    80004b54:	02109e33          	mulh	t3,ra,ra

0000000080004b58 <i_4616>:
    80004b58:	00bf7863          	bleu	a1,t5,80004b68 <i_4620>

0000000080004b5c <i_4617>:
    80004b5c:	03c0dab3          	divu	s5,ra,t3

0000000080004b60 <i_4618>:
    80004b60:	abe88a9b          	addiw	s5,a7,-1346

0000000080004b64 <i_4619>:
    80004b64:	01554863          	blt	a0,s5,80004b74 <i_4623>

0000000080004b68 <i_4620>:
    80004b68:	03c13823          	sd	t3,48(sp)

0000000080004b6c <i_4621>:
    80004b6c:	00100793          	li	a5,1

0000000080004b70 <i_4622>:
    80004b70:	00fa5a3b          	srlw	s4,s4,a5

0000000080004b74 <i_4623>:
    80004b74:	14c10603          	lb	a2,332(sp)

0000000080004b78 <i_4624>:
    80004b78:	01d28eb3          	add	t4,t0,t4

0000000080004b7c <i_4625>:
    80004b7c:	1cf10483          	lb	s1,463(sp)

0000000080004b80 <i_4626>:
    80004b80:	1cc12623          	sw	a2,460(sp)

0000000080004b84 <i_4627>:
    80004b84:	403fda1b          	sraiw	s4,t6,0x3

0000000080004b88 <i_4628>:
    80004b88:	0c416183          	lwu	gp,196(sp)

0000000080004b8c <i_4629>:
    80004b8c:	19a15483          	lhu	s1,410(sp)

0000000080004b90 <i_4630>:
    80004b90:	f4d14583          	lbu	a1,-179(sp)

0000000080004b94 <i_4631>:
    80004b94:	03becdb3          	div	s11,t4,s11

0000000080004b98 <i_4632>:
    80004b98:	003d9c63          	bne	s11,gp,80004bb0 <i_4638>

0000000080004b9c <i_4633>:
    80004b9c:	08415083          	lhu	ra,132(sp)

0000000080004ba0 <i_4634>:
    80004ba0:	0230c53b          	divw	a0,ra,gp

0000000080004ba4 <i_4635>:
    80004ba4:	4021509b          	sraiw	ra,sp,0x2

0000000080004ba8 <i_4636>:
    80004ba8:	00846a63          	bltu	s0,s0,80004bbc <i_4641>

0000000080004bac <i_4637>:
    80004bac:	0da12423          	sw	s10,200(sp)

0000000080004bb0 <i_4638>:
    80004bb0:	0160b433          	sltu	s0,ra,s6

0000000080004bb4 <i_4639>:
    80004bb4:	e5750413          	addi	s0,a0,-425

0000000080004bb8 <i_4640>:
    80004bb8:	00000013          	nop

0000000080004bbc <i_4641>:
    80004bbc:	01b00413          	li	s0,27

0000000080004bc0 <i_4642>:
    80004bc0:	0084143b          	sllw	s0,s0,s0

0000000080004bc4 <i_4643>:
    80004bc4:	8a100a93          	li	s5,-1887

0000000080004bc8 <i_4644>:
    80004bc8:	8a500513          	li	a0,-1883

0000000080004bcc <i_4645>:
    80004bcc:	015e4663          	blt	t3,s5,80004bd8 <i_4648>

0000000080004bd0 <i_4646>:
    80004bd0:	03b00413          	li	s0,59

0000000080004bd4 <i_4647>:
    80004bd4:	00861633          	sll	a2,a2,s0

0000000080004bd8 <i_4648>:
    80004bd8:	0a816603          	lwu	a2,168(sp)

0000000080004bdc <i_4649>:
    80004bdc:	00000013          	nop

0000000080004be0 <i_4650>:
    80004be0:	75700c93          	li	s9,1879

0000000080004be4 <i_4651>:
    80004be4:	76100213          	li	tp,1889

0000000080004be8 <i_4652>:
    80004be8:	001c8c93          	addi	s9,s9,1
    80004bec:	ff925ee3          	ble	s9,tp,80004be8 <i_4652>

0000000080004bf0 <i_4653>:
    80004bf0:	e4c12623          	sw	a2,-436(sp)

0000000080004bf4 <i_4654>:
    80004bf4:	e2013203          	ld	tp,-480(sp)

0000000080004bf8 <i_4655>:
    80004bf8:	02464663          	blt	a2,tp,80004c24 <i_4665>

0000000080004bfc <i_4656>:
    80004bfc:	001a8a93          	addi	s5,s5,1
    80004c00:	fd5556e3          	ble	s5,a0,80004bcc <i_4645>

0000000080004c04 <i_4657>:
    80004c04:	02424263          	blt	tp,tp,80004c28 <i_4666>

0000000080004c08 <i_4658>:
    80004c08:	95b47a93          	andi	s5,s0,-1701

0000000080004c0c <i_4659>:
    80004c0c:	e4416c03          	lwu	s8,-444(sp)

0000000080004c10 <i_4660>:
    80004c10:	0f110e83          	lb	t4,241(sp)

0000000080004c14 <i_4661>:
    80004c14:	004a9c13          	slli	s8,s5,0x4

0000000080004c18 <i_4662>:
    80004c18:	40b205b3          	sub	a1,tp,a1

0000000080004c1c <i_4663>:
    80004c1c:	00461a1b          	slliw	s4,a2,0x4

0000000080004c20 <i_4664>:
    80004c20:	04a10203          	lb	tp,74(sp)

0000000080004c24 <i_4665>:
    80004c24:	01d59263          	bne	a1,t4,80004c28 <i_4666>

0000000080004c28 <i_4666>:
    80004c28:	01700c13          	li	s8,23

0000000080004c2c <i_4667>:
    80004c2c:	018c1a33          	sll	s4,s8,s8

0000000080004c30 <i_4668>:
    80004c30:	038f8abb          	mulw	s5,t6,s8

0000000080004c34 <i_4669>:
    80004c34:	f1610c03          	lb	s8,-234(sp)

0000000080004c38 <i_4670>:
    80004c38:	f1813c23          	sd	s8,-232(sp)

0000000080004c3c <i_4671>:
    80004c3c:	13410ba3          	sb	s4,311(sp)

0000000080004c40 <i_4672>:
    80004c40:	1c213423          	sd	sp,456(sp)

0000000080004c44 <i_4673>:
    80004c44:	404adc1b          	sraiw	s8,s5,0x4

0000000080004c48 <i_4674>:
    80004c48:	ff410523          	sb	s4,-22(sp)

0000000080004c4c <i_4675>:
    80004c4c:	fc012083          	lw	ra,-64(sp)

0000000080004c50 <i_4676>:
    80004c50:	e8714c83          	lbu	s9,-377(sp)

0000000080004c54 <i_4677>:
    80004c54:	f9412023          	sw	s4,-128(sp)

0000000080004c58 <i_4678>:
    80004c58:	04215983          	lhu	s3,66(sp)

0000000080004c5c <i_4679>:
    80004c5c:	02156463          	bltu	a0,ra,80004c84 <i_4689>

0000000080004c60 <i_4680>:
    80004c60:	f1310583          	lb	a1,-237(sp)

0000000080004c64 <i_4681>:
    80004c64:	0bb14b83          	lbu	s7,187(sp)

0000000080004c68 <i_4682>:
    80004c68:	e2a11a23          	sh	a0,-460(sp)

0000000080004c6c <i_4683>:
    80004c6c:	02b459bb          	divuw	s3,s0,a1

0000000080004c70 <i_4684>:
    80004c70:	fb813423          	sd	s8,-88(sp)

0000000080004c74 <i_4685>:
    80004c74:	002d961b          	slliw	a2,s11,0x2

0000000080004c78 <i_4686>:
    80004c78:	00000013          	nop

0000000080004c7c <i_4687>:
    80004c7c:	19b13423          	sd	s11,392(sp)

0000000080004c80 <i_4688>:
    80004c80:	fd310823          	sb	s3,-48(sp)

0000000080004c84 <i_4689>:
    80004c84:	fac15c03          	lhu	s8,-84(sp)

0000000080004c88 <i_4690>:
    80004c88:	f5c14603          	lbu	a2,-164(sp)

0000000080004c8c <i_4691>:
    80004c8c:	84500513          	li	a0,-1979

0000000080004c90 <i_4692>:
    80004c90:	85300d93          	li	s11,-1965

0000000080004c94 <i_4693>:
    80004c94:	02d10c03          	lb	s8,45(sp)

0000000080004c98 <i_4694>:
    80004c98:	f3813a03          	ld	s4,-200(sp)

0000000080004c9c <i_4695>:
    80004c9c:	e1a15303          	lhu	t1,-486(sp)

0000000080004ca0 <i_4696>:
    80004ca0:	09811523          	sh	s8,138(sp)

0000000080004ca4 <i_4697>:
    80004ca4:	038b9463          	bne	s7,s8,80004ccc <i_4706>

0000000080004ca8 <i_4698>:
    80004ca8:	00150513          	addi	a0,a0,1
    80004cac:	ffb564e3          	bltu	a0,s11,80004c94 <i_4693>

0000000080004cb0 <i_4699>:
    80004cb0:	00800413          	li	s0,8

0000000080004cb4 <i_4700>:
    80004cb4:	408a5bbb          	sraw	s7,s4,s0

0000000080004cb8 <i_4701>:
    80004cb8:	035745bb          	divw	a1,a4,s5

0000000080004cbc <i_4702>:
    80004cbc:	03ca7463          	bleu	t3,s4,80004ce4 <i_4712>

0000000080004cc0 <i_4703>:
    80004cc0:	008aeab3          	or	s5,s5,s0

0000000080004cc4 <i_4704>:
    80004cc4:	003ab333          	sltu	t1,s5,gp

0000000080004cc8 <i_4705>:
    80004cc8:	f5712e23          	sw	s7,-164(sp)

0000000080004ccc <i_4706>:
    80004ccc:	0f012283          	lw	t0,240(sp)

0000000080004cd0 <i_4707>:
    80004cd0:	02841063          	bne	s0,s0,80004cf0 <i_4715>

0000000080004cd4 <i_4708>:
    80004cd4:	028ac263          	blt	s5,s0,80004cf8 <i_4717>

0000000080004cd8 <i_4709>:
    80004cd8:	019a3e33          	sltu	t3,s4,s9

0000000080004cdc <i_4710>:
    80004cdc:	00300313          	li	t1,3

0000000080004ce0 <i_4711>:
    80004ce0:	0062943b          	sllw	s0,t0,t1

0000000080004ce4 <i_4712>:
    80004ce4:	025999b3          	mulh	s3,s3,t0

0000000080004ce8 <i_4713>:
    80004ce8:	03369063          	bne	a3,s3,80004d08 <i_4721>

0000000080004cec <i_4714>:
    80004cec:	f8012b83          	lw	s7,-128(sp)

0000000080004cf0 <i_4715>:
    80004cf0:	02d00193          	li	gp,45

0000000080004cf4 <i_4716>:
    80004cf4:	003995b3          	sll	a1,s3,gp

0000000080004cf8 <i_4717>:
    80004cf8:	12411a83          	lh	s5,292(sp)

0000000080004cfc <i_4718>:
    80004cfc:	00535263          	ble	t0,t1,80004d00 <i_4719>

0000000080004d00 <i_4719>:
    80004d00:	00699e63          	bne	s3,t1,80004d1c <i_4726>

0000000080004d04 <i_4720>:
    80004d04:	01c9c9b3          	xor	s3,s3,t3

0000000080004d08 <i_4721>:
    80004d08:	0f511923          	sh	s5,242(sp)

0000000080004d0c <i_4722>:
    80004d0c:	02311d23          	sh	gp,58(sp)

0000000080004d10 <i_4723>:
    80004d10:	1cb14183          	lbu	gp,459(sp)

0000000080004d14 <i_4724>:
    80004d14:	033abab3          	mulhu	s5,s5,s3

0000000080004d18 <i_4725>:
    80004d18:	eee15983          	lhu	s3,-274(sp)

0000000080004d1c <i_4726>:
    80004d1c:	0139c663          	blt	s3,s3,80004d28 <i_4729>

0000000080004d20 <i_4727>:
    80004d20:	f5015a83          	lhu	s5,-176(sp)

0000000080004d24 <i_4728>:
    80004d24:	2d29e393          	ori	t2,s3,722

0000000080004d28 <i_4729>:
    80004d28:	0072c9b3          	xor	s3,t0,t2

0000000080004d2c <i_4730>:
    80004d2c:	00711d23          	sh	t2,26(sp)

0000000080004d30 <i_4731>:
    80004d30:	18011983          	lh	s3,384(sp)

0000000080004d34 <i_4732>:
    80004d34:	00000013          	nop

0000000080004d38 <i_4733>:
    80004d38:	e4f12423          	sw	a5,-440(sp)

0000000080004d3c <i_4734>:
    80004d3c:	7d400293          	li	t0,2004

0000000080004d40 <i_4735>:
    80004d40:	7da00413          	li	s0,2010

0000000080004d44 <i_4736>:
    80004d44:	00128293          	addi	t0,t0,1
    80004d48:	fe547ee3          	bleu	t0,s0,80004d44 <i_4736>

0000000080004d4c <i_4737>:
    80004d4c:	02a7c2bb          	divw	t0,a5,a0

0000000080004d50 <i_4738>:
    80004d50:	f9013283          	ld	t0,-112(sp)

0000000080004d54 <i_4739>:
    80004d54:	e5f30613          	addi	a2,t1,-417

0000000080004d58 <i_4740>:
    80004d58:	01698e63          	beq	s3,s6,80004d74 <i_4747>

0000000080004d5c <i_4741>:
    80004d5c:	f4012c03          	lw	s8,-192(sp)

0000000080004d60 <i_4742>:
    80004d60:	0333e263          	bltu	t2,s3,80004d84 <i_4751>

0000000080004d64 <i_4743>:
    80004d64:	d5c8881b          	addiw	a6,a7,-676

0000000080004d68 <i_4744>:
    80004d68:	0044599b          	srliw	s3,s0,0x4

0000000080004d6c <i_4745>:
    80004d6c:	013539b3          	sltu	s3,a0,s3

0000000080004d70 <i_4746>:
    80004d70:	03099263          	bne	s3,a6,80004d94 <i_4755>

0000000080004d74 <i_4747>:
    80004d74:	0b016503          	lwu	a0,176(sp)

0000000080004d78 <i_4748>:
    80004d78:	038c8533          	mul	a0,s9,s8

0000000080004d7c <i_4749>:
    80004d7c:	00000013          	nop

0000000080004d80 <i_4750>:
    80004d80:	08a10123          	sb	a0,130(sp)

0000000080004d84 <i_4751>:
    80004d84:	fc011503          	lh	a0,-64(sp)

0000000080004d88 <i_4752>:
    80004d88:	e2c12403          	lw	s0,-468(sp)

0000000080004d8c <i_4753>:
    80004d8c:	01856433          	or	s0,a0,s8

0000000080004d90 <i_4754>:
    80004d90:	19e13423          	sd	t5,392(sp)

0000000080004d94 <i_4755>:
    80004d94:	00846533          	or	a0,s0,s0

0000000080004d98 <i_4756>:
    80004d98:	ef615e83          	lhu	t4,-266(sp)

0000000080004d9c <i_4757>:
    80004d9c:	8b000c13          	li	s8,-1872

0000000080004da0 <i_4758>:
    80004da0:	8bd00c93          	li	s9,-1859

0000000080004da4 <i_4759>:
    80004da4:	001c0c13          	addi	s8,s8,1
    80004da8:	ff8cdee3          	ble	s8,s9,80004da4 <i_4759>

0000000080004dac <i_4760>:
    80004dac:	e8013e03          	ld	t3,-384(sp)

0000000080004db0 <i_4761>:
    80004db0:	01919e63          	bne	gp,s9,80004dcc <i_4768>

0000000080004db4 <i_4762>:
    80004db4:	004cd81b          	srliw	a6,s9,0x4

0000000080004db8 <i_4763>:
    80004db8:	010c8463          	beq	s9,a6,80004dc0 <i_4765>

0000000080004dbc <i_4764>:
    80004dbc:	03cdd263          	ble	t3,s11,80004de0 <i_4773>

0000000080004dc0 <i_4765>:
    80004dc0:	e6812823          	sw	s0,-400(sp)

0000000080004dc4 <i_4766>:
    80004dc4:	02140063          	beq	s0,ra,80004de4 <i_4774>

0000000080004dc8 <i_4767>:
    80004dc8:	f8c12583          	lw	a1,-116(sp)

0000000080004dcc <i_4768>:
    80004dcc:	199106a3          	sb	s9,397(sp)

0000000080004dd0 <i_4769>:
    80004dd0:	02100493          	li	s1,33

0000000080004dd4 <i_4770>:
    80004dd4:	409555b3          	sra	a1,a0,s1

0000000080004dd8 <i_4771>:
    80004dd8:	46ae0cb7          	lui	s9,0x46ae0

0000000080004ddc <i_4772>:
    80004ddc:	01500c93          	li	s9,21

0000000080004de0 <i_4773>:
    80004de0:	419851bb          	sraw	gp,a6,s9

0000000080004de4 <i_4774>:
    80004de4:	f0013803          	ld	a6,-256(sp)

0000000080004de8 <i_4775>:
    80004de8:	ee416e83          	lwu	t4,-284(sp)

0000000080004dec <i_4776>:
    80004dec:	fb311d23          	sh	s3,-70(sp)

0000000080004df0 <i_4777>:
    80004df0:	0db11223          	sh	s11,196(sp)

0000000080004df4 <i_4778>:
    80004df4:	11813483          	ld	s1,280(sp)

0000000080004df8 <i_4779>:
    80004df8:	01b94463          	blt	s2,s11,80004e00 <i_4781>

0000000080004dfc <i_4780>:
    80004dfc:	e7b11e23          	sh	s11,-388(sp)

0000000080004e00 <i_4781>:
    80004e00:	12910ea3          	sb	s1,317(sp)

0000000080004e04 <i_4782>:
    80004e04:	01200a13          	li	s4,18

0000000080004e08 <i_4783>:
    80004e08:	014e9ebb          	sllw	t4,t4,s4

0000000080004e0c <i_4784>:
    80004e0c:	00a49a63          	bne	s1,a0,80004e20 <i_4789>

0000000080004e10 <i_4785>:
    80004e10:	00000013          	nop

0000000080004e14 <i_4786>:
    80004e14:	00500e93          	li	t4,5

0000000080004e18 <i_4787>:
    80004e18:	01d9d9bb          	srlw	s3,s3,t4

0000000080004e1c <i_4788>:
    80004e1c:	17010983          	lb	s3,368(sp)

0000000080004e20 <i_4789>:
    80004e20:	0190a9b3          	slt	s3,ra,s9

0000000080004e24 <i_4790>:
    80004e24:	0ce14283          	lbu	t0,206(sp)

0000000080004e28 <i_4791>:
    80004e28:	76f00513          	li	a0,1903

0000000080004e2c <i_4792>:
    80004e2c:	77600493          	li	s1,1910

0000000080004e30 <i_4793>:
    80004e30:	04a14c03          	lbu	s8,74(sp)

0000000080004e34 <i_4794>:
    80004e34:	e6e11e83          	lh	t4,-402(sp)

0000000080004e38 <i_4795>:
    80004e38:	10017c97          	auipc	s9,0x10017

0000000080004e3c <i_4796>:
    80004e3c:	01811b23          	sh	s8,22(sp)

0000000080004e40 <i_4797>:
    80004e40:	01995863          	ble	s9,s2,80004e50 <i_4801>

0000000080004e44 <i_4798>:
    80004e44:	01d5ca63          	blt	a1,t4,80004e58 <i_4803>

0000000080004e48 <i_4799>:
    80004e48:	fe815983          	lhu	s3,-24(sp)

0000000080004e4c <i_4800>:
    80004e4c:	f9611723          	sh	s6,-114(sp)

0000000080004e50 <i_4801>:
    80004e50:	19b3e813          	ori	a6,t2,411

0000000080004e54 <i_4802>:
    80004e54:	e130ee93          	ori	t4,ra,-493

0000000080004e58 <i_4803>:
    80004e58:	00000013          	nop

0000000080004e5c <i_4804>:
    80004e5c:	0a814083          	lbu	ra,168(sp)

0000000080004e60 <i_4805>:
    80004e60:	00150513          	addi	a0,a0,1
    80004e64:	fc9546e3          	blt	a0,s1,80004e30 <i_4793>

0000000080004e68 <i_4806>:
    80004e68:	00000013          	nop

0000000080004e6c <i_4807>:
    80004e6c:	e5f12a23          	sw	t6,-428(sp)

0000000080004e70 <i_4808>:
    80004e70:	faf14b83          	lbu	s7,-81(sp)

0000000080004e74 <i_4809>:
    80004e74:	f3813403          	ld	s0,-200(sp)

0000000080004e78 <i_4810>:
    80004e78:	03200d93          	li	s11,50

0000000080004e7c <i_4811>:
    80004e7c:	01bb91b3          	sll	gp,s7,s11

0000000080004e80 <i_4812>:
    80004e80:	001eda9b          	srliw	s5,t4,0x1

0000000080004e84 <i_4813>:
    80004e84:	02447433          	remu	s0,s0,tp

0000000080004e88 <i_4814>:
    80004e88:	00874c63          	blt	a4,s0,80004ea0 <i_4820>

0000000080004e8c <i_4815>:
    80004e8c:	008dc863          	blt	s11,s0,80004e9c <i_4819>

0000000080004e90 <i_4816>:
    80004e90:	08a14403          	lbu	s0,138(sp)

0000000080004e94 <i_4817>:
    80004e94:	edb14403          	lbu	s0,-293(sp)

0000000080004e98 <i_4818>:
    80004e98:	0024541b          	srliw	s0,s0,0x2

0000000080004e9c <i_4819>:
    80004e9c:	05014403          	lbu	s0,80(sp)

0000000080004ea0 <i_4820>:
    80004ea0:	e1c12a03          	lw	s4,-484(sp)

0000000080004ea4 <i_4821>:
    80004ea4:	0a211283          	lh	t0,162(sp)

0000000080004ea8 <i_4822>:
    80004ea8:	0dc16e03          	lwu	t3,220(sp)

0000000080004eac <i_4823>:
    80004eac:	16512423          	sw	t0,360(sp)

0000000080004eb0 <i_4824>:
    80004eb0:	00840bb3          	add	s7,s0,s0

0000000080004eb4 <i_4825>:
    80004eb4:	03c44463          	blt	s0,t3,80004edc <i_4835>

0000000080004eb8 <i_4826>:
    80004eb8:	19c13c23          	sd	t3,408(sp)

0000000080004ebc <i_4827>:
    80004ebc:	f4615b83          	lhu	s7,-186(sp)

0000000080004ec0 <i_4828>:
    80004ec0:	ec8107a3          	sb	s0,-305(sp)

0000000080004ec4 <i_4829>:
    80004ec4:	f8415483          	lhu	s1,-124(sp)

0000000080004ec8 <i_4830>:
    80004ec8:	18812823          	sw	s0,400(sp)

0000000080004ecc <i_4831>:
    80004ecc:	01478663          	beq	a5,s4,80004ed8 <i_4834>

0000000080004ed0 <i_4832>:
    80004ed0:	037a2a33          	mulhsu	s4,s4,s7

0000000080004ed4 <i_4833>:
    80004ed4:	05c10283          	lb	t0,92(sp)

0000000080004ed8 <i_4834>:
    80004ed8:	029babb3          	mulhsu	s7,s7,s1

0000000080004edc <i_4835>:
    80004edc:	1c014e83          	lbu	t4,448(sp)

0000000080004ee0 <i_4836>:
    80004ee0:	01800813          	li	a6,24

0000000080004ee4 <i_4837>:
    80004ee4:	010bdeb3          	srl	t4,s7,a6

0000000080004ee8 <i_4838>:
    80004ee8:	fe013e83          	ld	t4,-32(sp)

0000000080004eec <i_4839>:
    80004eec:	1e815503          	lhu	a0,488(sp)

0000000080004ef0 <i_4840>:
    80004ef0:	0142ea63          	bltu	t0,s4,80004f04 <i_4845>

0000000080004ef4 <i_4841>:
    80004ef4:	f3d107a3          	sb	t4,-209(sp)

0000000080004ef8 <i_4842>:
    80004ef8:	009efe63          	bleu	s1,t4,80004f14 <i_4849>

0000000080004efc <i_4843>:
    80004efc:	01d2fc63          	bleu	t4,t0,80004f14 <i_4849>

0000000080004f00 <i_4844>:
    80004f00:	efd13823          	sd	t4,-272(sp)

0000000080004f04 <i_4845>:
    80004f04:	04813b83          	ld	s7,72(sp)

0000000080004f08 <i_4846>:
    80004f08:	41d280bb          	subw	ra,t0,t4

0000000080004f0c <i_4847>:
    80004f0c:	03d55263          	ble	t4,a0,80004f30 <i_4856>

0000000080004f10 <i_4848>:
    80004f10:	fb415183          	lhu	gp,-76(sp)

0000000080004f14 <i_4849>:
    80004f14:	03f0c0b3          	div	ra,ra,t6

0000000080004f18 <i_4850>:
    80004f18:	3d77ba13          	sltiu	s4,a5,983

0000000080004f1c <i_4851>:
    80004f1c:	01409463          	bne	ra,s4,80004f24 <i_4853>

0000000080004f20 <i_4852>:
    80004f20:	19012583          	lw	a1,400(sp)

0000000080004f24 <i_4853>:
    80004f24:	0a112423          	sw	ra,168(sp)

0000000080004f28 <i_4854>:
    80004f28:	00209e1b          	slliw	t3,ra,0x2

0000000080004f2c <i_4855>:
    80004f2c:	00000013          	nop

0000000080004f30 <i_4856>:
    80004f30:	19614e03          	lbu	t3,406(sp)

0000000080004f34 <i_4857>:
    80004f34:	f7015e83          	lhu	t4,-144(sp)

0000000080004f38 <i_4858>:
    80004f38:	76b00a13          	li	s4,1899

0000000080004f3c <i_4859>:
    80004f3c:	77e00093          	li	ra,1918

0000000080004f40 <i_4860>:
    80004f40:	ffe105a3          	sb	t5,-21(sp)

0000000080004f44 <i_4861>:
    80004f44:	001a0a13          	addi	s4,s4,1
    80004f48:	ff40fce3          	bleu	s4,ra,80004f40 <i_4860>

0000000080004f4c <i_4862>:
    80004f4c:	01ce0c63          	beq	t3,t3,80004f64 <i_4868>

0000000080004f50 <i_4863>:
    80004f50:	01de0263          	beq	t3,t4,80004f54 <i_4864>

0000000080004f54 <i_4864>:
    80004f54:	0dd13423          	sd	t4,200(sp)

0000000080004f58 <i_4865>:
    80004f58:	02109463          	bne	ra,ra,80004f80 <i_4875>

0000000080004f5c <i_4866>:
    80004f5c:	ea0e0293          	addi	t0,t3,-352

0000000080004f60 <i_4867>:
    80004f60:	03dc8cbb          	mulw	s9,s9,t4

0000000080004f64 <i_4868>:
    80004f64:	03c16503          	lwu	a0,60(sp)

0000000080004f68 <i_4869>:
    80004f68:	ed013a83          	ld	s5,-304(sp)

0000000080004f6c <i_4870>:
    80004f6c:	01caf463          	bleu	t3,s5,80004f74 <i_4872>

0000000080004f70 <i_4871>:
    80004f70:	021e7e33          	remu	t3,t3,ra

0000000080004f74 <i_4872>:
    80004f74:	f6a11523          	sh	a0,-150(sp)

0000000080004f78 <i_4873>:
    80004f78:	faa12a23          	sw	a0,-76(sp)

0000000080004f7c <i_4874>:
    80004f7c:	0e411a83          	lh	s5,228(sp)

0000000080004f80 <i_4875>:
    80004f80:	0f013e03          	ld	t3,240(sp)

0000000080004f84 <i_4876>:
    80004f84:	03c3bab3          	mulhu	s5,t2,t3

0000000080004f88 <i_4877>:
    80004f88:	78900093          	li	ra,1929

0000000080004f8c <i_4878>:
    80004f8c:	79c00c93          	li	s9,1948

0000000080004f90 <i_4879>:
    80004f90:	f7910b23          	sb	s9,-138(sp)

0000000080004f94 <i_4880>:
    80004f94:	0c211a83          	lh	s5,194(sp)

0000000080004f98 <i_4881>:
    80004f98:	00108093          	addi	ra,ra,1
    80004f9c:	fe1cfae3          	bleu	ra,s9,80004f90 <i_4879>

0000000080004fa0 <i_4882>:
    80004fa0:	40ee0ab3          	sub	s5,t3,a4

0000000080004fa4 <i_4883>:
    80004fa4:	8a4aae13          	slti	t3,s5,-1884

0000000080004fa8 <i_4884>:
    80004fa8:	02e15503          	lhu	a0,46(sp)

0000000080004fac <i_4885>:
    80004fac:	e3c108a3          	sb	t3,-463(sp)

0000000080004fb0 <i_4886>:
    80004fb0:	f2e11d83          	lh	s11,-210(sp)

0000000080004fb4 <i_4887>:
    80004fb4:	019d8a63          	beq	s11,s9,80004fc8 <i_4892>

0000000080004fb8 <i_4888>:
    80004fb8:	01be4663          	blt	t3,s11,80004fc4 <i_4891>

0000000080004fbc <i_4889>:
    80004fbc:	ff615c83          	lhu	s9,-10(sp)

0000000080004fc0 <i_4890>:
    80004fc0:	e7b13423          	sd	s11,-408(sp)

0000000080004fc4 <i_4891>:
    80004fc4:	02eb853b          	mulw	a0,s7,a4

0000000080004fc8 <i_4892>:
    80004fc8:	f5b13823          	sd	s11,-176(sp)

0000000080004fcc <i_4893>:
    80004fcc:	02a55463          	ble	a0,a0,80004ff4 <i_4903>

0000000080004fd0 <i_4894>:
    80004fd0:	fca10523          	sb	a0,-54(sp)

0000000080004fd4 <i_4895>:
    80004fd4:	01e15983          	lhu	s3,30(sp)

0000000080004fd8 <i_4896>:
    80004fd8:	f1110183          	lb	gp,-239(sp)

0000000080004fdc <i_4897>:
    80004fdc:	11113823          	sd	a7,272(sp)

0000000080004fe0 <i_4898>:
    80004fe0:	02a57bb3          	remu	s7,a0,a0

0000000080004fe4 <i_4899>:
    80004fe4:	e9816283          	lwu	t0,-360(sp)

0000000080004fe8 <i_4900>:
    80004fe8:	033aaab3          	mulhsu	s5,s5,s3

0000000080004fec <i_4901>:
    80004fec:	02a59eb3          	mulh	t4,a1,a0

0000000080004ff0 <i_4902>:
    80004ff0:	00000013          	nop

0000000080004ff4 <i_4903>:
    80004ff4:	0301abb3          	mulhsu	s7,gp,a6

0000000080004ff8 <i_4904>:
    80004ff8:	037ea533          	mulhsu	a0,t4,s7

0000000080004ffc <i_4905>:
    80004ffc:	84200d93          	li	s11,-1982

0000000080005000 <i_4906>:
    80005000:	85200593          	li	a1,-1966

0000000080005004 <i_4907>:
    80005004:	05611383          	lh	t2,86(sp)

0000000080005008 <i_4908>:
    80005008:	001d8d93          	addi	s11,s11,1
    8000500c:	ffb5dce3          	ble	s11,a1,80005004 <i_4907>

0000000080005010 <i_4909>:
    80005010:	12615e83          	lhu	t4,294(sp)

0000000080005014 <i_4910>:
    80005014:	314c8413          	addi	s0,s9,788 # 9001c14c <_end+0x1000bd38>

0000000080005018 <i_4911>:
    80005018:	19c16a03          	lwu	s4,412(sp)

000000008000501c <i_4912>:
    8000501c:	0a8a6393          	ori	t2,s4,168

0000000080005020 <i_4913>:
    80005020:	1a214e03          	lbu	t3,418(sp)

0000000080005024 <i_4914>:
    80005024:	f4910403          	lb	s0,-183(sp)

0000000080005028 <i_4915>:
    80005028:	00847263          	bleu	s0,s0,8000502c <i_4916>

000000008000502c <i_4916>:
    8000502c:	06813d83          	ld	s11,104(sp)

0000000080005030 <i_4917>:
    80005030:	0d012383          	lw	t2,208(sp)

0000000080005034 <i_4918>:
    80005034:	01410c63          	beq	sp,s4,8000504c <i_4924>

0000000080005038 <i_4919>:
    80005038:	0011ce63          	blt	gp,ra,80005054 <i_4926>

000000008000503c <i_4920>:
    8000503c:	0083da63          	ble	s0,t2,80005050 <i_4925>

0000000080005040 <i_4921>:
    80005040:	007a4863          	blt	s4,t2,80005050 <i_4925>

0000000080005044 <i_4922>:
    80005044:	e3510a03          	lb	s4,-459(sp)

0000000080005048 <i_4923>:
    80005048:	b9b22213          	slti	tp,tp,-1125

000000008000504c <i_4924>:
    8000504c:	03421263          	bne	tp,s4,80005070 <i_4933>

0000000080005050 <i_4925>:
    80005050:	1c413823          	sd	tp,464(sp)

0000000080005054 <i_4926>:
    80005054:	01b45263          	ble	s11,s0,80005058 <i_4927>

0000000080005058 <i_4927>:
    80005058:	03446433          	rem	s0,s0,s4

000000008000505c <i_4928>:
    8000505c:	00e00a13          	li	s4,14

0000000080005060 <i_4929>:
    80005060:	01441233          	sll	tp,s0,s4

0000000080005064 <i_4930>:
    80005064:	0ba11083          	lh	ra,186(sp)

0000000080005068 <i_4931>:
    80005068:	00447863          	bleu	tp,s0,80005078 <i_4935>

000000008000506c <i_4932>:
    8000506c:	006d9e63          	bne	s11,t1,80005088 <i_4939>

0000000080005070 <i_4933>:
    80005070:	008e9263          	bne	t4,s0,80005074 <i_4934>

0000000080005074 <i_4934>:
    80005074:	0ac12c83          	lw	s9,172(sp)

0000000080005078 <i_4935>:
    80005078:	11210083          	lb	ra,274(sp)

000000008000507c <i_4936>:
    8000507c:	07912023          	sw	s9,96(sp)

0000000080005080 <i_4937>:
    80005080:	0b312823          	sw	s3,176(sp)

0000000080005084 <i_4938>:
    80005084:	0c412c83          	lw	s9,196(sp)

0000000080005088 <i_4939>:
    80005088:	b0a3a393          	slti	t2,t2,-1270

000000008000508c <i_4940>:
    8000508c:	019bf463          	bleu	s9,s7,80005094 <i_4942>

0000000080005090 <i_4941>:
    80005090:	eb912823          	sw	s9,-336(sp)

0000000080005094 <i_4942>:
    80005094:	007cd263          	ble	t2,s9,80005098 <i_4943>

0000000080005098 <i_4943>:
    80005098:	0c013083          	ld	ra,192(sp)

000000008000509c <i_4944>:
    8000509c:	1e8c4c13          	xori	s8,s8,488

00000000800050a0 <i_4945>:
    800050a0:	03839cb3          	mulh	s9,t2,s8

00000000800050a4 <i_4946>:
    800050a4:	0183f263          	bleu	s8,t2,800050a8 <i_4947>

00000000800050a8 <i_4947>:
    800050a8:	e9910fa3          	sb	s9,-353(sp)

00000000800050ac <i_4948>:
    800050ac:	19412383          	lw	t2,404(sp)

00000000800050b0 <i_4949>:
    800050b0:	41908633          	sub	a2,ra,s9

00000000800050b4 <i_4950>:
    800050b4:	f2710c23          	sb	t2,-200(sp)

00000000800050b8 <i_4951>:
    800050b8:	00766463          	bltu	a2,t2,800050c0 <i_4953>

00000000800050bc <i_4952>:
    800050bc:	ed816a83          	lwu	s5,-296(sp)

00000000800050c0 <i_4953>:
    800050c0:	01d00213          	li	tp,29

00000000800050c4 <i_4954>:
    800050c4:	004c59bb          	srlw	s3,s8,tp

00000000800050c8 <i_4955>:
    800050c8:	04d10083          	lb	ra,77(sp)

00000000800050cc <i_4956>:
    800050cc:	01924e63          	blt	tp,s9,800050e8 <i_4963>

00000000800050d0 <i_4957>:
    800050d0:	ed311e23          	sh	s3,-292(sp)

00000000800050d4 <i_4958>:
    800050d4:	09311423          	sh	s3,136(sp)

00000000800050d8 <i_4959>:
    800050d8:	00200413          	li	s0,2

00000000800050dc <i_4960>:
    800050dc:	008992b3          	sll	t0,s3,s0

00000000800050e0 <i_4961>:
    800050e0:	13412583          	lw	a1,308(sp)

00000000800050e4 <i_4962>:
    800050e4:	01ccd663          	ble	t3,s9,800050f0 <i_4965>

00000000800050e8 <i_4963>:
    800050e8:	0279d063          	ble	t2,s3,80005108 <i_4971>

00000000800050ec <i_4964>:
    800050ec:	0bfc8793          	addi	a5,s9,191

00000000800050f0 <i_4965>:
    800050f0:	bf2cf413          	andi	s0,s9,-1038

00000000800050f4 <i_4966>:
    800050f4:	ee615c83          	lhu	s9,-282(sp)

00000000800050f8 <i_4967>:
    800050f8:	039c00bb          	mulw	ra,s8,s9

00000000800050fc <i_4968>:
    800050fc:	419c8cb3          	sub	s9,s9,s9

0000000080005100 <i_4969>:
    80005100:	0190d263          	ble	s9,ra,80005104 <i_4970>

0000000080005104 <i_4970>:
    80005104:	f2913c23          	sd	s1,-200(sp)

0000000080005108 <i_4971>:
    80005108:	e9011c83          	lh	s9,-368(sp)

000000008000510c <i_4972>:
    8000510c:	ea614183          	lbu	gp,-346(sp)

0000000080005110 <i_4973>:
    80005110:	13912023          	sw	s9,288(sp)

0000000080005114 <i_4974>:
    80005114:	0a415c83          	lhu	s9,164(sp)

0000000080005118 <i_4975>:
    80005118:	1c412c83          	lw	s9,452(sp)

000000008000511c <i_4976>:
    8000511c:	099101a3          	sb	s9,131(sp)

0000000080005120 <i_4977>:
    80005120:	f0816e03          	lwu	t3,-248(sp)

0000000080005124 <i_4978>:
    80005124:	e3a15783          	lhu	a5,-454(sp)

0000000080005128 <i_4979>:
    80005128:	00500e93          	li	t4,5

000000008000512c <i_4980>:
    8000512c:	01de1abb          	sllw	s5,t3,t4

0000000080005130 <i_4981>:
    80005130:	00f13c23          	sd	a5,24(sp)

0000000080005134 <i_4982>:
    80005134:	035ac463          	blt	s5,s5,8000515c <i_4992>

0000000080005138 <i_4983>:
    80005138:	ec810503          	lb	a0,-312(sp)

000000008000513c <i_4984>:
    8000513c:	fdd14383          	lbu	t2,-35(sp)

0000000080005140 <i_4985>:
    80005140:	1d013383          	ld	t2,464(sp)

0000000080005144 <i_4986>:
    80005144:	4013d393          	srai	t2,t2,0x1

0000000080005148 <i_4987>:
    80005148:	01d57e63          	bleu	t4,a0,80005164 <i_4994>

000000008000514c <i_4988>:
    8000514c:	010ecab3          	xor	s5,t4,a6

0000000080005150 <i_4989>:
    80005150:	f5416d83          	lwu	s11,-172(sp)

0000000080005154 <i_4990>:
    80005154:	03eebeb3          	mulhu	t4,t4,t5

0000000080005158 <i_4991>:
    80005158:	f1411803          	lh	a6,-236(sp)

000000008000515c <i_4992>:
    8000515c:	00000013          	nop

0000000080005160 <i_4993>:
    80005160:	12a11803          	lh	a6,298(sp)

0000000080005164 <i_4994>:
    80005164:	00000013          	nop

0000000080005168 <i_4995>:
    80005168:	00000013          	nop

000000008000516c <i_4996>:
    8000516c:	86000493          	li	s1,-1952

0000000080005170 <i_4997>:
    80005170:	86c00e93          	li	t4,-1940

0000000080005174 <i_4998>:
    80005174:	e6c16583          	lwu	a1,-404(sp)

0000000080005178 <i_4999>:
    80005178:	0384d5bb          	divuw	a1,s1,s8

000000008000517c <i_5000>:
    8000517c:	03812983          	lw	s3,56(sp)

0000000080005180 <i_5001>:
    80005180:	00000013          	nop

0000000080005184 <i_5002>:
    80005184:	00000013          	nop

0000000080005188 <i_5003>:
    80005188:	03100193          	li	gp,49

000000008000518c <i_5004>:
    8000518c:	4035d5b3          	sra	a1,a1,gp

0000000080005190 <i_5005>:
    80005190:	0d615803          	lhu	a6,214(sp)

0000000080005194 <i_5006>:
    80005194:	00148493          	addi	s1,s1,1 # af052b09 <_end+0x2f0426f5>
    80005198:	fc9efee3          	bleu	s1,t4,80005174 <i_4998>

000000008000519c <i_5007>:
    8000519c:	029ea2b3          	mulhsu	t0,t4,s1

00000000800051a0 <i_5008>:
    800051a0:	0102fe63          	bleu	a6,t0,800051bc <i_5015>

00000000800051a4 <i_5009>:
    800051a4:	f6912623          	sw	s1,-148(sp)

00000000800051a8 <i_5010>:
    800051a8:	029d1463          	bne	s10,s1,800051d0 <i_5020>

00000000800051ac <i_5011>:
    800051ac:	0012da9b          	srliw	s5,t0,0x1

00000000800051b0 <i_5012>:
    800051b0:	009104b3          	add	s1,sp,s1

00000000800051b4 <i_5013>:
    800051b4:	f0511323          	sh	t0,-250(sp)

00000000800051b8 <i_5014>:
    800051b8:	025e5e33          	divu	t3,t3,t0

00000000800051bc <i_5015>:
    800051bc:	fa512423          	sw	t0,-88(sp)

00000000800051c0 <i_5016>:
    800051c0:	ed311023          	sh	s3,-320(sp)

00000000800051c4 <i_5017>:
    800051c4:	04015283          	lhu	t0,64(sp)

00000000800051c8 <i_5018>:
    800051c8:	f7c10b23          	sb	t3,-138(sp)

00000000800051cc <i_5019>:
    800051cc:	03b00e13          	li	t3,59

00000000800051d0 <i_5020>:
    800051d0:	01cc9cb3          	sll	s9,s9,t3

00000000800051d4 <i_5021>:
    800051d4:	01c00c93          	li	s9,28

00000000800051d8 <i_5022>:
    800051d8:	419e5cbb          	sraw	s9,t3,s9

00000000800051dc <i_5023>:
    800051dc:	025cd263          	ble	t0,s9,80005200 <i_5032>

00000000800051e0 <i_5024>:
    800051e0:	fae15503          	lhu	a0,-82(sp)

00000000800051e4 <i_5025>:
    800051e4:	01c92533          	slt	a0,s2,t3

00000000800051e8 <i_5026>:
    800051e8:	00a51463          	bne	a0,a0,800051f0 <i_5028>

00000000800051ec <i_5027>:
    800051ec:	01c51663          	bne	a0,t3,800051f8 <i_5030>

00000000800051f0 <i_5028>:
    800051f0:	e8a12223          	sw	a0,-380(sp)

00000000800051f4 <i_5029>:
    800051f4:	00abc463          	blt	s7,a0,800051fc <i_5031>

00000000800051f8 <i_5030>:
    800051f8:	00c00993          	li	s3,12

00000000800051fc <i_5031>:
    800051fc:	0132123b          	sllw	tp,tp,s3

0000000080005200 <i_5032>:
    80005200:	4ff2b513          	sltiu	a0,t0,1279

0000000080005204 <i_5033>:
    80005204:	00ab9863          	bne	s7,a0,80005214 <i_5037>

0000000080005208 <i_5034>:
    80005208:	ea210203          	lb	tp,-350(sp)

000000008000520c <i_5035>:
    8000520c:	00ae6e63          	bltu	t3,a0,80005228 <i_5042>

0000000080005210 <i_5036>:
    80005210:	ee812e03          	lw	t3,-280(sp)

0000000080005214 <i_5037>:
    80005214:	11412483          	lw	s1,276(sp)

0000000080005218 <i_5038>:
    80005218:	dac419b7          	lui	s3,0xdac41

000000008000521c <i_5039>:
    8000521c:	00013403          	ld	s0,0(sp)

0000000080005220 <i_5040>:
    80005220:	11c11503          	lh	a0,284(sp)

0000000080005224 <i_5041>:
    80005224:	02420233          	mul	tp,tp,tp

0000000080005228 <i_5042>:
    80005228:	01400213          	li	tp,20

000000008000522c <i_5043>:
    8000522c:	00425233          	srl	tp,tp,tp

0000000080005230 <i_5044>:
    80005230:	00411423          	sh	tp,8(sp)

0000000080005234 <i_5045>:
    80005234:	017d6e63          	bltu	s10,s7,80005250 <i_5052>

0000000080005238 <i_5046>:
    80005238:	00720213          	addi	tp,tp,7 # 7 <main-0x7ffffff9>

000000008000523c <i_5047>:
    8000523c:	0ec12803          	lw	a6,236(sp)

0000000080005240 <i_5048>:
    80005240:	01024833          	xor	a6,tp,a6

0000000080005244 <i_5049>:
    80005244:	13a15203          	lhu	tp,314(sp)

0000000080005248 <i_5050>:
    80005248:	01046663          	bltu	s0,a6,80005254 <i_5053>

000000008000524c <i_5051>:
    8000524c:	01921263          	bne	tp,s9,80005250 <i_5052>

0000000080005250 <i_5052>:
    80005250:	e5a15283          	lhu	t0,-422(sp)

0000000080005254 <i_5053>:
    80005254:	0042d463          	ble	tp,t0,8000525c <i_5055>

0000000080005258 <i_5054>:
    80005258:	01020833          	add	a6,tp,a6

000000008000525c <i_5055>:
    8000525c:	00582833          	slt	a6,a6,t0

0000000080005260 <i_5056>:
    80005260:	f3011303          	lh	t1,-208(sp)

0000000080005264 <i_5057>:
    80005264:	00f29263          	bne	t0,a5,80005268 <i_5058>

0000000080005268 <i_5058>:
    80005268:	19d14303          	lbu	t1,413(sp)

000000008000526c <i_5059>:
    8000526c:	e3813a83          	ld	s5,-456(sp)

0000000080005270 <i_5060>:
    80005270:	06013803          	ld	a6,96(sp)

0000000080005274 <i_5061>:
    80005274:	025b0263          	beq	s6,t0,80005298 <i_5070>

0000000080005278 <i_5062>:
    80005278:	00684263          	blt	a6,t1,8000527c <i_5063>

000000008000527c <i_5063>:
    8000527c:	00535263          	ble	t0,t1,80005280 <i_5064>

0000000080005280 <i_5064>:
    80005280:	0038551b          	srliw	a0,a6,0x3

0000000080005284 <i_5065>:
    80005284:	a5037793          	andi	a5,t1,-1456

0000000080005288 <i_5066>:
    80005288:	e9813e83          	ld	t4,-360(sp)

000000008000528c <i_5067>:
    8000528c:	1d811503          	lh	a0,472(sp)

0000000080005290 <i_5068>:
    80005290:	07d11523          	sh	t4,106(sp)

0000000080005294 <i_5069>:
    80005294:	00b14b83          	lbu	s7,11(sp)

0000000080005298 <i_5070>:
    80005298:	f0e11803          	lh	a6,-242(sp)

000000008000529c <i_5071>:
    8000529c:	e6110803          	lb	a6,-415(sp)

00000000800052a0 <i_5072>:
    800052a0:	025a7263          	bleu	t0,s4,800052c4 <i_5081>

00000000800052a4 <i_5073>:
    800052a4:	025ce263          	bltu	s9,t0,800052c8 <i_5082>

00000000800052a8 <i_5074>:
    800052a8:	427f7493          	andi	s1,t5,1063

00000000800052ac <i_5075>:
    800052ac:	1d510623          	sb	s5,460(sp)

00000000800052b0 <i_5076>:
    800052b0:	2247cab7          	lui	s5,0x2247c

00000000800052b4 <i_5077>:
    800052b4:	22da8a9b          	addiw	s5,s5,557

00000000800052b8 <i_5078>:
    800052b8:	f1511923          	sh	s5,-238(sp)

00000000800052bc <i_5079>:
    800052bc:	18e15603          	lhu	a2,398(sp)

00000000800052c0 <i_5080>:
    800052c0:	f5910b83          	lb	s7,-167(sp)

00000000800052c4 <i_5081>:
    800052c4:	16812d83          	lw	s11,360(sp)

00000000800052c8 <i_5082>:
    800052c8:	00000013          	nop

00000000800052cc <i_5083>:
    800052cc:	012dabb3          	slt	s7,s11,s2

00000000800052d0 <i_5084>:
    800052d0:	81300513          	li	a0,-2029

00000000800052d4 <i_5085>:
    800052d4:	82700293          	li	t0,-2009

00000000800052d8 <i_5086>:
    800052d8:	41d78ebb          	subw	t4,a5,t4

00000000800052dc <i_5087>:
    800052dc:	8c1ad797          	auipc	a5,0x8c1ad

00000000800052e0 <i_5088>:
    800052e0:	fc412d83          	lw	s11,-60(sp)

00000000800052e4 <i_5089>:
    800052e4:	002d9e93          	slli	t4,s11,0x2

00000000800052e8 <i_5090>:
    800052e8:	05d12223          	sw	t4,68(sp)

00000000800052ec <i_5091>:
    800052ec:	03ddc463          	blt	s11,t4,80005314 <i_5100>

00000000800052f0 <i_5092>:
    800052f0:	f1d11023          	sh	t4,-256(sp)

00000000800052f4 <i_5093>:
    800052f4:	f8b12023          	sw	a1,-128(sp)

00000000800052f8 <i_5094>:
    800052f8:	03ded43b          	divuw	s0,t4,t4

00000000800052fc <i_5095>:
    800052fc:	ccdd1397          	auipc	t2,0xccdd1

0000000080005300 <i_5096>:
    80005300:	00150513          	addi	a0,a0,1
    80005304:	fc554ae3          	blt	a0,t0,800052d8 <i_5086>

0000000080005308 <i_5097>:
    80005308:	00840433          	add	s0,s0,s0

000000008000530c <i_5098>:
    8000530c:	1a711723          	sh	t2,430(sp)

0000000080005310 <i_5099>:
    80005310:	14016503          	lwu	a0,320(sp)

0000000080005314 <i_5100>:
    80005314:	09c12403          	lw	s0,156(sp)

0000000080005318 <i_5101>:
    80005318:	00a44663          	blt	s0,a0,80005324 <i_5104>

000000008000531c <i_5102>:
    8000531c:	114104a3          	sb	s4,265(sp)

0000000080005320 <i_5103>:
    80005320:	10a12223          	sw	a0,260(sp)

0000000080005324 <i_5104>:
    80005324:	03f3c063          	blt	t2,t6,80005344 <i_5112>

0000000080005328 <i_5105>:
    80005328:	ebd13c23          	sd	t4,-328(sp)

000000008000532c <i_5106>:
    8000532c:	00841e63          	bne	s0,s0,80005348 <i_5113>

0000000080005330 <i_5107>:
    80005330:	008d8db3          	add	s11,s11,s0

0000000080005334 <i_5108>:
    80005334:	00013983          	ld	s3,0(sp)

0000000080005338 <i_5109>:
    80005338:	ed012a83          	lw	s5,-304(sp)

000000008000533c <i_5110>:
    8000533c:	e4411e83          	lh	t4,-444(sp)

0000000080005340 <i_5111>:
    80005340:	01d44a63          	blt	s0,t4,80005354 <i_5116>

0000000080005344 <i_5112>:
    80005344:	0d415303          	lhu	t1,212(sp)

0000000080005348 <i_5113>:
    80005348:	00746a63          	bltu	s0,t2,8000535c <i_5118>

000000008000534c <i_5114>:
    8000534c:	3002a793          	slti	a5,t0,768

0000000080005350 <i_5115>:
    80005350:	f7411283          	lh	t0,-140(sp)

0000000080005354 <i_5116>:
    80005354:	4027db93          	srai	s7,a5,0x2

0000000080005358 <i_5117>:
    80005358:	41db8eb3          	sub	t4,s7,t4

000000008000535c <i_5118>:
    8000535c:	40225e9b          	sraiw	t4,tp,0x2

0000000080005360 <i_5119>:
    80005360:	fb112a23          	sw	a7,-76(sp)

0000000080005364 <i_5120>:
    80005364:	81700313          	li	t1,-2025

0000000080005368 <i_5121>:
    80005368:	82000d93          	li	s11,-2016

000000008000536c <i_5122>:
    8000536c:	01dec663          	blt	t4,t4,80005378 <i_5125>

0000000080005370 <i_5123>:
    80005370:	f4016483          	lwu	s1,-192(sp)

0000000080005374 <i_5124>:
    80005374:	f5712c23          	sw	s7,-168(sp)

0000000080005378 <i_5125>:
    80005378:	00000013          	nop

000000008000537c <i_5126>:
    8000537c:	0a610e23          	sb	t1,188(sp)

0000000080005380 <i_5127>:
    80005380:	06910383          	lb	t2,105(sp)

0000000080005384 <i_5128>:
    80005384:	026e4463          	blt	t3,t1,800053ac <i_5137>

0000000080005388 <i_5129>:
    80005388:	40b305b3          	sub	a1,t1,a1

000000008000538c <i_5130>:
    8000538c:	1c710623          	sb	t2,460(sp)

0000000080005390 <i_5131>:
    80005390:	f2012383          	lw	t2,-224(sp)

0000000080005394 <i_5132>:
    80005394:	00130313          	addi	t1,t1,1
    80005398:	fdb31ae3          	bne	t1,s11,8000536c <i_5122>

000000008000539c <i_5133>:
    8000539c:	17812183          	lw	gp,376(sp)

00000000800053a0 <i_5134>:
    800053a0:	00e57c63          	bleu	a4,a0,800053b8 <i_5140>

00000000800053a4 <i_5135>:
    800053a4:	eee15203          	lhu	tp,-274(sp)

00000000800053a8 <i_5136>:
    800053a8:	19114583          	lbu	a1,401(sp)

00000000800053ac <i_5137>:
    800053ac:	1d412423          	sw	s4,456(sp)

00000000800053b0 <i_5138>:
    800053b0:	0031d463          	ble	gp,gp,800053b8 <i_5140>

00000000800053b4 <i_5139>:
    800053b4:	e9c12303          	lw	t1,-356(sp)

00000000800053b8 <i_5140>:
    800053b8:	02cf463b          	divw	a2,t5,a2

00000000800053bc <i_5141>:
    800053bc:	0073f463          	bleu	t2,t2,800053c4 <i_5143>

00000000800053c0 <i_5142>:
    800053c0:	0031bc33          	sltu	s8,gp,gp

00000000800053c4 <i_5143>:
    800053c4:	1d411383          	lh	t2,468(sp)

00000000800053c8 <i_5144>:
    800053c8:	f2416783          	lwu	a5,-220(sp)

00000000800053cc <i_5145>:
    800053cc:	027c7463          	bleu	t2,s8,800053f4 <i_5155>

00000000800053d0 <i_5146>:
    800053d0:	eec11423          	sh	a2,-280(sp)

00000000800053d4 <i_5147>:
    800053d4:	00cc4663          	blt	s8,a2,800053e0 <i_5150>

00000000800053d8 <i_5148>:
    800053d8:	00cf8633          	add	a2,t6,a2

00000000800053dc <i_5149>:
    800053dc:	03dcfcb3          	remu	s9,s9,t4

00000000800053e0 <i_5150>:
    800053e0:	e2415c03          	lhu	s8,-476(sp)

00000000800053e4 <i_5151>:
    800053e4:	06015283          	lhu	t0,96(sp)

00000000800053e8 <i_5152>:
    800053e8:	0f812c03          	lw	s8,248(sp)

00000000800053ec <i_5153>:
    800053ec:	ed8c6393          	ori	t2,s8,-296

00000000800053f0 <i_5154>:
    800053f0:	fb615183          	lhu	gp,-74(sp)

00000000800053f4 <i_5155>:
    800053f4:	ffc16303          	lwu	t1,-4(sp)

00000000800053f8 <i_5156>:
    800053f8:	0c816c03          	lwu	s8,200(sp)

00000000800053fc <i_5157>:
    800053fc:	ec012783          	lw	a5,-320(sp)

0000000080005400 <i_5158>:
    80005400:	1dc28213          	addi	tp,t0,476

0000000080005404 <i_5159>:
    80005404:	0143aeb3          	slt	t4,t2,s4

0000000080005408 <i_5160>:
    80005408:	02611203          	lh	tp,38(sp)

000000008000540c <i_5161>:
    8000540c:	01820233          	add	tp,tp,s8

0000000080005410 <i_5162>:
    80005410:	db124213          	xori	tp,tp,-591

0000000080005414 <i_5163>:
    80005414:	02422233          	mulhsu	tp,tp,tp

0000000080005418 <i_5164>:
    80005418:	f8015c03          	lhu	s8,-128(sp)

000000008000541c <i_5165>:
    8000541c:	16413c23          	sd	tp,376(sp)

0000000080005420 <i_5166>:
    80005420:	08811183          	lh	gp,136(sp)

0000000080005424 <i_5167>:
    80005424:	e3510203          	lb	tp,-459(sp)

0000000080005428 <i_5168>:
    80005428:	03224063          	blt	tp,s2,80005448 <i_5176>

000000008000542c <i_5169>:
    8000542c:	ef812423          	sw	s8,-280(sp)

0000000080005430 <i_5170>:
    80005430:	02324463          	blt	tp,gp,80005458 <i_5180>

0000000080005434 <i_5171>:
    80005434:	004663b3          	or	t2,a2,tp

0000000080005438 <i_5172>:
    80005438:	027c4833          	div	a6,s8,t2

000000008000543c <i_5173>:
    8000543c:	0c016203          	lwu	tp,192(sp)

0000000080005440 <i_5174>:
    80005440:	6e044413          	xori	s0,s0,1760

0000000080005444 <i_5175>:
    80005444:	ee410723          	sb	tp,-274(sp)

0000000080005448 <i_5176>:
    80005448:	40485a13          	srai	s4,a6,0x4

000000008000544c <i_5177>:
    8000544c:	00000013          	nop

0000000080005450 <i_5178>:
    80005450:	013479b3          	and	s3,s0,s3

0000000080005454 <i_5179>:
    80005454:	00000013          	nop

0000000080005458 <i_5180>:
    80005458:	0f010a03          	lb	s4,240(sp)

000000008000545c <i_5181>:
    8000545c:	027805bb          	mulw	a1,a6,t2

0000000080005460 <i_5182>:
    80005460:	7b300c13          	li	s8,1971

0000000080005464 <i_5183>:
    80005464:	7bb00193          	li	gp,1979

0000000080005468 <i_5184>:
    80005468:	001c0c13          	addi	s8,s8,1
    8000546c:	fe3c1ee3          	bne	s8,gp,80005468 <i_5184>

0000000080005470 <i_5185>:
    80005470:	e2e11a03          	lh	s4,-466(sp)

0000000080005474 <i_5186>:
    80005474:	12b14803          	lbu	a6,299(sp)

0000000080005478 <i_5187>:
    80005478:	010a0863          	beq	s4,a6,80005488 <i_5191>

000000008000547c <i_5188>:
    8000547c:	19e11183          	lh	gp,414(sp)

0000000080005480 <i_5189>:
    80005480:	00f00193          	li	gp,15

0000000080005484 <i_5190>:
    80005484:	0035d5b3          	srl	a1,a1,gp

0000000080005488 <i_5191>:
    80005488:	f0113423          	sd	ra,-248(sp)

000000008000548c <i_5192>:
    8000548c:	f3810e03          	lb	t3,-200(sp)

0000000080005490 <i_5193>:
    80005490:	89300413          	li	s0,-1901

0000000080005494 <i_5194>:
    80005494:	8a300093          	li	ra,-1885

0000000080005498 <i_5195>:
    80005498:	00140413          	addi	s0,s0,1
    8000549c:	fe146ee3          	bltu	s0,ra,80005498 <i_5195>

00000000800054a0 <i_5196>:
    800054a0:	f1016b83          	lwu	s7,-240(sp)

00000000800054a4 <i_5197>:
    800054a4:	00000013          	nop

00000000800054a8 <i_5198>:
    800054a8:	8ba00413          	li	s0,-1862

00000000800054ac <i_5199>:
    800054ac:	8bf00593          	li	a1,-1857

00000000800054b0 <i_5200>:
    800054b0:	008be463          	bltu	s7,s0,800054b8 <i_5202>

00000000800054b4 <i_5201>:
    800054b4:	17614d83          	lbu	s11,374(sp)

00000000800054b8 <i_5202>:
    800054b8:	03635263          	ble	s6,t1,800054dc <i_5211>

00000000800054bc <i_5203>:
    800054bc:	f6b11c23          	sh	a1,-136(sp)

00000000800054c0 <i_5204>:
    800054c0:	0d013c83          	ld	s9,208(sp)

00000000800054c4 <i_5205>:
    800054c4:	f5b11a23          	sh	s11,-172(sp)

00000000800054c8 <i_5206>:
    800054c8:	15b10b23          	sb	s11,342(sp)

00000000800054cc <i_5207>:
    800054cc:	03759bb3          	mulh	s7,a1,s7

00000000800054d0 <i_5208>:
    800054d0:	908ba513          	slti	a0,s7,-1784

00000000800054d4 <i_5209>:
    800054d4:	32542093          	slti	ra,s0,805

00000000800054d8 <i_5210>:
    800054d8:	0170cab3          	xor	s5,ra,s7

00000000800054dc <i_5211>:
    800054dc:	ed510323          	sb	s5,-314(sp)

00000000800054e0 <i_5212>:
    800054e0:	00010a83          	lb	s5,0(sp)

00000000800054e4 <i_5213>:
    800054e4:	00140413          	addi	s0,s0,1
    800054e8:	fcb414e3          	bne	s0,a1,800054b0 <i_5200>

00000000800054ec <i_5214>:
    800054ec:	47eafd93          	andi	s11,s5,1150

00000000800054f0 <i_5215>:
    800054f0:	03b11ab3          	mulh	s5,sp,s11

00000000800054f4 <i_5216>:
    800054f4:	002add9b          	srliw	s11,s5,0x2

00000000800054f8 <i_5217>:
    800054f8:	0b611823          	sh	s6,176(sp)

00000000800054fc <i_5218>:
    800054fc:	035ad463          	ble	s5,s5,80005524 <i_5228>

0000000080005500 <i_5219>:
    80005500:	19114a83          	lbu	s5,401(sp)

0000000080005504 <i_5220>:
    80005504:	015ac863          	blt	s5,s5,80005514 <i_5224>

0000000080005508 <i_5221>:
    80005508:	0d013d83          	ld	s11,208(sp)

000000008000550c <i_5222>:
    8000550c:	1e310d83          	lb	s11,483(sp)

0000000080005510 <i_5223>:
    80005510:	e7012a03          	lw	s4,-400(sp)

0000000080005514 <i_5224>:
    80005514:	e5b13823          	sd	s11,-432(sp)

0000000080005518 <i_5225>:
    80005518:	01e00d93          	li	s11,30

000000008000551c <i_5226>:
    8000551c:	41bed43b          	sraw	s0,t4,s11

0000000080005520 <i_5227>:
    80005520:	08482813          	slti	a6,a6,132

0000000080005524 <i_5228>:
    80005524:	ef411e23          	sh	s4,-260(sp)

0000000080005528 <i_5229>:
    80005528:	fbc11d83          	lh	s11,-68(sp)

000000008000552c <i_5230>:
    8000552c:	83500193          	li	gp,-1995

0000000080005530 <i_5231>:
    80005530:	84800a93          	li	s5,-1976

0000000080005534 <i_5232>:
    80005534:	404a5413          	srai	s0,s4,0x4

0000000080005538 <i_5233>:
    80005538:	00485393          	srli	t2,a6,0x4

000000008000553c <i_5234>:
    8000553c:	010a5863          	ble	a6,s4,8000554c <i_5238>

0000000080005540 <i_5235>:
    80005540:	01087263          	bleu	a6,a6,80005544 <i_5236>

0000000080005544 <i_5236>:
    80005544:	01900593          	li	a1,25

0000000080005548 <i_5237>:
    80005548:	40bed4bb          	sraw	s1,t4,a1

000000008000554c <i_5238>:
    8000554c:	034a4263          	blt	s4,s4,80005570 <i_5246>

0000000080005550 <i_5239>:
    80005550:	03c12d83          	lw	s11,60(sp)

0000000080005554 <i_5240>:
    80005554:	00118193          	addi	gp,gp,1
    80005558:	fc3adee3          	ble	gp,s5,80005534 <i_5232>

000000008000555c <i_5241>:
    8000555c:	00600a13          	li	s4,6

0000000080005560 <i_5242>:
    80005560:	014dddb3          	srl	s11,s11,s4

0000000080005564 <i_5243>:
    80005564:	00012d83          	lw	s11,0(sp)

0000000080005568 <i_5244>:
    80005568:	026dd233          	divu	tp,s11,t1

000000008000556c <i_5245>:
    8000556c:	f5c15803          	lhu	a6,-164(sp)

0000000080005570 <i_5246>:
    80005570:	19a14c03          	lbu	s8,410(sp)

0000000080005574 <i_5247>:
    80005574:	03449263          	bne	s1,s4,80005598 <i_5256>

0000000080005578 <i_5248>:
    80005578:	003c1593          	slli	a1,s8,0x3

000000008000557c <i_5249>:
    8000557c:	01e00a93          	li	s5,30

0000000080005580 <i_5250>:
    80005580:	4155d333          	sra	t1,a1,s5

0000000080005584 <i_5251>:
    80005584:	fa615483          	lhu	s1,-90(sp)

0000000080005588 <i_5252>:
    80005588:	02b58263          	beq	a1,a1,800055ac <i_5261>

000000008000558c <i_5253>:
    8000558c:	03084463          	blt	a6,a6,800055b4 <i_5263>

0000000080005590 <i_5254>:
    80005590:	ff411303          	lh	t1,-12(sp)

0000000080005594 <i_5255>:
    80005594:	00bad863          	ble	a1,s5,800055a4 <i_5259>

0000000080005598 <i_5256>:
    80005598:	e7012083          	lw	ra,-400(sp)

000000008000559c <i_5257>:
    8000559c:	40be0ebb          	subw	t4,t3,a1

00000000800055a0 <i_5258>:
    800055a0:	004ed81b          	srliw	a6,t4,0x4

00000000800055a4 <i_5259>:
    800055a4:	1c186493          	ori	s1,a6,449

00000000800055a8 <i_5260>:
    800055a8:	01058833          	add	a6,a1,a6

00000000800055ac <i_5261>:
    800055ac:	14214983          	lbu	s3,322(sp)

00000000800055b0 <i_5262>:
    800055b0:	41348abb          	subw	s5,s1,s3

00000000800055b4 <i_5263>:
    800055b4:	1d011423          	sh	a6,456(sp)

00000000800055b8 <i_5264>:
    800055b8:	006afc63          	bleu	t1,s5,800055d0 <i_5270>

00000000800055bc <i_5265>:
    800055bc:	01799263          	bne	s3,s7,800055c0 <i_5266>

00000000800055c0 <i_5266>:
    800055c0:	1bc16b83          	lwu	s7,444(sp)

00000000800055c4 <i_5267>:
    800055c4:	03798abb          	mulw	s5,s3,s7

00000000800055c8 <i_5268>:
    800055c8:	ecc16e03          	lwu	t3,-308(sp)

00000000800055cc <i_5269>:
    800055cc:	f6615e03          	lhu	t3,-154(sp)

00000000800055d0 <i_5270>:
    800055d0:	00000013          	nop

00000000800055d4 <i_5271>:
    800055d4:	5ca60837          	lui	a6,0x5ca60

00000000800055d8 <i_5272>:
    800055d8:	76a00993          	li	s3,1898

00000000800055dc <i_5273>:
    800055dc:	76d00b93          	li	s7,1901

00000000800055e0 <i_5274>:
    800055e0:	4e884313          	xori	t1,a6,1256

00000000800055e4 <i_5275>:
    800055e4:	d2e2039b          	addiw	t2,tp,-722

00000000800055e8 <i_5276>:
    800055e8:	84fee813          	ori	a6,t4,-1969

00000000800055ec <i_5277>:
    800055ec:	01d86a63          	bltu	a6,t4,80005600 <i_5282>

00000000800055f0 <i_5278>:
    800055f0:	17016303          	lwu	t1,368(sp)

00000000800055f4 <i_5279>:
    800055f4:	1dc12803          	lw	a6,476(sp)

00000000800055f8 <i_5280>:
    800055f8:	0252a2b3          	mulhsu	t0,t0,t0

00000000800055fc <i_5281>:
    800055fc:	02a00293          	li	t0,42

0000000080005600 <i_5282>:
    80005600:	00581233          	sll	tp,a6,t0

0000000080005604 <i_5283>:
    80005604:	17412283          	lw	t0,372(sp)

0000000080005608 <i_5284>:
    80005608:	ea412823          	sw	tp,-336(sp)

000000008000560c <i_5285>:
    8000560c:	024252b3          	divu	t0,tp,tp

0000000080005610 <i_5286>:
    80005610:	40420633          	sub	a2,tp,tp

0000000080005614 <i_5287>:
    80005614:	00198993          	addi	s3,s3,1 # ffffffffdac41001 <_end+0xffffffff5ac30bed>
    80005618:	fd79e4e3          	bltu	s3,s7,800055e0 <i_5274>

000000008000561c <i_5288>:
    8000561c:	f4513423          	sd	t0,-184(sp)

0000000080005620 <i_5289>:
    80005620:	1b211a23          	sh	s2,436(sp)

0000000080005624 <i_5290>:
    80005624:	00000013          	nop

0000000080005628 <i_5291>:
    80005628:	00000013          	nop

000000008000562c <i_5292>:
    8000562c:	89500c13          	li	s8,-1899

0000000080005630 <i_5293>:
    80005630:	8a300293          	li	t0,-1885

0000000080005634 <i_5294>:
    80005634:	16013603          	ld	a2,352(sp)

0000000080005638 <i_5295>:
    80005638:	1cc13423          	sd	a2,456(sp)

000000008000563c <i_5296>:
    8000563c:	001c0c13          	addi	s8,s8,1
    80005640:	ff82dae3          	ble	s8,t0,80005634 <i_5294>

0000000080005644 <i_5297>:
    80005644:	f6813603          	ld	a2,-152(sp)

0000000080005648 <i_5298>:
    80005648:	11812623          	sw	s8,268(sp)

000000008000564c <i_5299>:
    8000564c:	03c12c83          	lw	s9,60(sp)

0000000080005650 <i_5300>:
    80005650:	e2415c03          	lhu	s8,-476(sp)

0000000080005654 <i_5301>:
    80005654:	fb215483          	lhu	s1,-78(sp)

0000000080005658 <i_5302>:
    80005658:	01926e63          	bltu	tp,s9,80005674 <i_5309>

000000008000565c <i_5303>:
    8000565c:	19d14303          	lbu	t1,413(sp)

0000000080005660 <i_5304>:
    80005660:	e9710203          	lb	tp,-361(sp)

0000000080005664 <i_5305>:
    80005664:	7abc7813          	andi	a6,s8,1963

0000000080005668 <i_5306>:
    80005668:	12f13023          	sd	a5,288(sp)

000000008000566c <i_5307>:
    8000566c:	0343ddbb          	divuw	s11,t2,s4

0000000080005670 <i_5308>:
    80005670:	00600313          	li	t1,6

0000000080005674 <i_5309>:
    80005674:	0064d2b3          	srl	t0,s1,t1

0000000080005678 <i_5310>:
    80005678:	f8713023          	sd	t2,-128(sp)

000000008000567c <i_5311>:
    8000567c:	7a400a13          	li	s4,1956

0000000080005680 <i_5312>:
    80005680:	7b500213          	li	tp,1973

0000000080005684 <i_5313>:
    80005684:	03200813          	li	a6,50

0000000080005688 <i_5314>:
    80005688:	010c5c33          	srl	s8,s8,a6

000000008000568c <i_5315>:
    8000568c:	8c200d93          	li	s11,-1854

0000000080005690 <i_5316>:
    80005690:	8cb00a93          	li	s5,-1845

0000000080005694 <i_5317>:
    80005694:	025082b3          	mul	t0,ra,t0

0000000080005698 <i_5318>:
    80005698:	00000013          	nop

000000008000569c <i_5319>:
    8000569c:	08c12803          	lw	a6,140(sp)

00000000800056a0 <i_5320>:
    800056a0:	ea412c03          	lw	s8,-348(sp)

00000000800056a4 <i_5321>:
    800056a4:	00000013          	nop

00000000800056a8 <i_5322>:
    800056a8:	001d8d93          	addi	s11,s11,1
    800056ac:	ff5dc4e3          	blt	s11,s5,80005694 <i_5317>

00000000800056b0 <i_5323>:
    800056b0:	ef8104a3          	sb	s8,-279(sp)

00000000800056b4 <i_5324>:
    800056b4:	0f812503          	lw	a0,248(sp)

00000000800056b8 <i_5325>:
    800056b8:	001a0a13          	addi	s4,s4,1
    800056bc:	fc4a64e3          	bltu	s4,tp,80005684 <i_5313>

00000000800056c0 <i_5326>:
    800056c0:	ee414503          	lbu	a0,-284(sp)

00000000800056c4 <i_5327>:
    800056c4:	ec013483          	ld	s1,-320(sp)

00000000800056c8 <i_5328>:
    800056c8:	27353a13          	sltiu	s4,a0,627

00000000800056cc <i_5329>:
    800056cc:	ff813183          	ld	gp,-8(sp)

00000000800056d0 <i_5330>:
    800056d0:	13e10203          	lb	tp,318(sp)

00000000800056d4 <i_5331>:
    800056d4:	010804b3          	add	s1,a6,a6

00000000800056d8 <i_5332>:
    800056d8:	fc911823          	sh	s1,-48(sp)

00000000800056dc <i_5333>:
    800056dc:	efc10d83          	lb	s11,-260(sp)

00000000800056e0 <i_5334>:
    800056e0:	8ce00793          	li	a5,-1842

00000000800056e4 <i_5335>:
    800056e4:	8da00c13          	li	s8,-1830

00000000800056e8 <i_5336>:
    800056e8:	03882833          	mulhsu	a6,a6,s8

00000000800056ec <i_5337>:
    800056ec:	01bc6333          	or	t1,s8,s11

00000000800056f0 <i_5338>:
    800056f0:	18432b93          	slti	s7,t1,388

00000000800056f4 <i_5339>:
    800056f4:	0f110e83          	lb	t4,241(sp)

00000000800056f8 <i_5340>:
    800056f8:	feb14e03          	lbu	t3,-21(sp)

00000000800056fc <i_5341>:
    800056fc:	03d37333          	remu	t1,t1,t4

0000000080005700 <i_5342>:
    80005700:	00178793          	addi	a5,a5,1 # c1b22dd <main-0x73e4dd23>
    80005704:	fefc12e3          	bne	s8,a5,800056e8 <i_5336>

0000000080005708 <i_5343>:
    80005708:	03ce4463          	blt	t3,t3,80005730 <i_5353>

000000008000570c <i_5344>:
    8000570c:	f5b10e03          	lb	t3,-165(sp)

0000000080005710 <i_5345>:
    80005710:	10816e03          	lwu	t3,264(sp)

0000000080005714 <i_5346>:
    80005714:	e1a15603          	lhu	a2,-486(sp)

0000000080005718 <i_5347>:
    80005718:	00000013          	nop

000000008000571c <i_5348>:
    8000571c:	017fc4b3          	xor	s1,t6,s7

0000000080005720 <i_5349>:
    80005720:	10011483          	lh	s1,256(sp)

0000000080005724 <i_5350>:
    80005724:	00b00d93          	li	s11,11

0000000080005728 <i_5351>:
    80005728:	01bdd233          	srl	tp,s11,s11

000000008000572c <i_5352>:
    8000572c:	00000013          	nop

0000000080005730 <i_5353>:
    80005730:	1b412183          	lw	gp,436(sp)

0000000080005734 <i_5354>:
    80005734:	7384a4b7          	lui	s1,0x7384a

0000000080005738 <i_5355>:
    80005738:	77000393          	li	t2,1904

000000008000573c <i_5356>:
    8000573c:	77200b93          	li	s7,1906

0000000080005740 <i_5357>:
    80005740:	09c10803          	lb	a6,156(sp)

0000000080005744 <i_5358>:
    80005744:	02013603          	ld	a2,32(sp)

0000000080005748 <i_5359>:
    80005748:	00485e13          	srli	t3,a6,0x4

000000008000574c <i_5360>:
    8000574c:	e5013e03          	ld	t3,-432(sp)

0000000080005750 <i_5361>:
    80005750:	001fde1b          	srliw	t3,t6,0x1

0000000080005754 <i_5362>:
    80005754:	f5c12223          	sw	t3,-188(sp)

0000000080005758 <i_5363>:
    80005758:	00138393          	addi	t2,t2,1 # 4cdd62fd <main-0x33229d03>
    8000575c:	ff7392e3          	bne	t2,s7,80005740 <i_5357>

0000000080005760 <i_5364>:
    80005760:	0034dc63          	ble	gp,s1,80005778 <i_5370>

0000000080005764 <i_5365>:
    80005764:	00960e63          	beq	a2,s1,80005780 <i_5372>

0000000080005768 <i_5366>:
    80005768:	f7816303          	lwu	t1,-136(sp)

000000008000576c <i_5367>:
    8000576c:	00634663          	blt	t1,t1,80005778 <i_5370>

0000000080005770 <i_5368>:
    80005770:	02c6b333          	mulhu	t1,a3,a2

0000000080005774 <i_5369>:
    80005774:	14812a83          	lw	s5,328(sp)

0000000080005778 <i_5370>:
    80005778:	0264e263          	bltu	s1,t1,8000579c <i_5379>

000000008000577c <i_5371>:
    8000577c:	18012303          	lw	t1,384(sp)

0000000080005780 <i_5372>:
    80005780:	05b14183          	lbu	gp,91(sp)

0000000080005784 <i_5373>:
    80005784:	01ce1e63          	bne	t3,t3,800057a0 <i_5380>

0000000080005788 <i_5374>:
    80005788:	e8214e03          	lbu	t3,-382(sp)

000000008000578c <i_5375>:
    8000578c:	17c13c23          	sd	t3,376(sp)

0000000080005790 <i_5376>:
    80005790:	b1ea2e13          	slti	t3,s4,-1250

0000000080005794 <i_5377>:
    80005794:	12810b23          	sb	s0,310(sp)

0000000080005798 <i_5378>:
    80005798:	01ce5663          	ble	t3,t3,800057a4 <i_5381>

000000008000579c <i_5379>:
    8000579c:	ea814383          	lbu	t2,-344(sp)

00000000800057a0 <i_5380>:
    800057a0:	ec815783          	lhu	a5,-312(sp)

00000000800057a4 <i_5381>:
    800057a4:	03c3f463          	bleu	t3,t2,800057cc <i_5391>

00000000800057a8 <i_5382>:
    800057a8:	f0710423          	sb	t2,-248(sp)

00000000800057ac <i_5383>:
    800057ac:	03fe7263          	bleu	t6,t3,800057d0 <i_5392>

00000000800057b0 <i_5384>:
    800057b0:	e9c13c23          	sd	t3,-360(sp)

00000000800057b4 <i_5385>:
    800057b4:	05c10223          	sb	t3,68(sp)

00000000800057b8 <i_5386>:
    800057b8:	01300493          	li	s1,19

00000000800057bc <i_5387>:
    800057bc:	009c553b          	srlw	a0,s8,s1

00000000800057c0 <i_5388>:
    800057c0:	12710303          	lb	t1,295(sp)

00000000800057c4 <i_5389>:
    800057c4:	002a1a13          	slli	s4,s4,0x2

00000000800057c8 <i_5390>:
    800057c8:	0064e463          	bltu	s1,t1,800057d0 <i_5392>

00000000800057cc <i_5391>:
    800057cc:	f0c12a03          	lw	s4,-244(sp)

00000000800057d0 <i_5392>:
    800057d0:	02fa6063          	bltu	s4,a5,800057f0 <i_5400>

00000000800057d4 <i_5393>:
    800057d4:	0047979b          	slliw	a5,a5,0x4

00000000800057d8 <i_5394>:
    800057d8:	01600513          	li	a0,22

00000000800057dc <i_5395>:
    800057dc:	00aa553b          	srlw	a0,s4,a0

00000000800057e0 <i_5396>:
    800057e0:	00f56c63          	bltu	a0,a5,800057f8 <i_5402>

00000000800057e4 <i_5397>:
    800057e4:	00a53533          	sltu	a0,a0,a0

00000000800057e8 <i_5398>:
    800057e8:	f5812503          	lw	a0,-168(sp)

00000000800057ec <i_5399>:
    800057ec:	00f00513          	li	a0,15

00000000800057f0 <i_5400>:
    800057f0:	00a511bb          	sllw	gp,a0,a0

00000000800057f4 <i_5401>:
    800057f4:	e8313423          	sd	gp,-376(sp)

00000000800057f8 <i_5402>:
    800057f8:	00500e93          	li	t4,5

00000000800057fc <i_5403>:
    800057fc:	01d1d9bb          	srlw	s3,gp,t4

0000000080005800 <i_5404>:
    80005800:	00a9d463          	ble	a0,s3,80005808 <i_5406>

0000000080005804 <i_5405>:
    80005804:	6fc9e193          	ori	gp,s3,1788

0000000080005808 <i_5406>:
    80005808:	12314983          	lbu	s3,291(sp)

000000008000580c <i_5407>:
    8000580c:	02f00493          	li	s1,47

0000000080005810 <i_5408>:
    80005810:	409ed1b3          	sra	gp,t4,s1

0000000080005814 <i_5409>:
    80005814:	fbd11223          	sh	t4,-92(sp)

0000000080005818 <i_5410>:
    80005818:	ff813183          	ld	gp,-8(sp)

000000008000581c <i_5411>:
    8000581c:	02949063          	bne	s1,s1,8000583c <i_5419>

0000000080005820 <i_5412>:
    80005820:	1ac15483          	lhu	s1,428(sp)

0000000080005824 <i_5413>:
    80005824:	f0816283          	lwu	t0,-248(sp)

0000000080005828 <i_5414>:
    80005828:	03800293          	li	t0,56

000000008000582c <i_5415>:
    8000582c:	005292b3          	sll	t0,t0,t0

0000000080005830 <i_5416>:
    80005830:	04816283          	lwu	t0,72(sp)

0000000080005834 <i_5417>:
    80005834:	00429a9b          	slliw	s5,t0,0x4

0000000080005838 <i_5418>:
    80005838:	00914463          	blt	sp,s1,80005840 <i_5420>

000000008000583c <i_5419>:
    8000583c:	0e511523          	sh	t0,234(sp)

0000000080005840 <i_5420>:
    80005840:	e8416483          	lwu	s1,-380(sp)

0000000080005844 <i_5421>:
    80005844:	15811d83          	lh	s11,344(sp)

0000000080005848 <i_5422>:
    80005848:	00000013          	nop

000000008000584c <i_5423>:
    8000584c:	8a100193          	li	gp,-1887

0000000080005850 <i_5424>:
    80005850:	8ac00e93          	li	t4,-1876

0000000080005854 <i_5425>:
    80005854:	00118193          	addi	gp,gp,1
    80005858:	fe3efee3          	bleu	gp,t4,80005854 <i_5425>

000000008000585c <i_5426>:
    8000585c:	01bd9463          	bne	s11,s11,80005864 <i_5428>

0000000080005860 <i_5427>:
    80005860:	014dfeb3          	and	t4,s11,s4

0000000080005864 <i_5428>:
    80005864:	f9813d83          	ld	s11,-104(sp)

0000000080005868 <i_5429>:
    80005868:	404dde9b          	sraiw	t4,s11,0x4

000000008000586c <i_5430>:
    8000586c:	07112623          	sw	a7,108(sp)

0000000080005870 <i_5431>:
    80005870:	19310183          	lb	gp,403(sp)

0000000080005874 <i_5432>:
    80005874:	006d9263          	bne	s11,t1,80005878 <i_5433>

0000000080005878 <i_5433>:
    80005878:	11c12d83          	lw	s11,284(sp)

000000008000587c <i_5434>:
    8000587c:	00200293          	li	t0,2

0000000080005880 <i_5435>:
    80005880:	005ed1bb          	srlw	gp,t4,t0

0000000080005884 <i_5436>:
    80005884:	00736333          	or	t1,t1,t2

0000000080005888 <i_5437>:
    80005888:	023cf9b3          	remu	s3,s9,gp

000000008000588c <i_5438>:
    8000588c:	1902c793          	xori	a5,t0,400

0000000080005890 <i_5439>:
    80005890:	07312a23          	sw	s3,116(sp)

0000000080005894 <i_5440>:
    80005894:	013201b3          	add	gp,tp,s3

0000000080005898 <i_5441>:
    80005898:	18918c13          	addi	s8,gp,393

000000008000589c <i_5442>:
    8000589c:	bd53081b          	addiw	a6,t1,-1067

00000000800058a0 <i_5443>:
    800058a0:	fc114283          	lbu	t0,-63(sp)

00000000800058a4 <i_5444>:
    800058a4:	1d012183          	lw	gp,464(sp)

00000000800058a8 <i_5445>:
    800058a8:	19813303          	ld	t1,408(sp)

00000000800058ac <i_5446>:
    800058ac:	670dbc17          	auipc	s8,0x670db

00000000800058b0 <i_5447>:
    800058b0:	004e1663          	bne	t3,tp,800058bc <i_5450>

00000000800058b4 <i_5448>:
    800058b4:	18c15303          	lhu	t1,396(sp)

00000000800058b8 <i_5449>:
    800058b8:	f6215783          	lhu	a5,-158(sp)

00000000800058bc <i_5450>:
    800058bc:	19412c83          	lw	s9,404(sp)

00000000800058c0 <i_5451>:
    800058c0:	4013531b          	sraiw	t1,t1,0x1

00000000800058c4 <i_5452>:
    800058c4:	8ca00393          	li	t2,-1846

00000000800058c8 <i_5453>:
    800058c8:	8de00793          	li	a5,-1826

00000000800058cc <i_5454>:
    800058cc:	00138393          	addi	t2,t2,1
    800058d0:	fef3cee3          	blt	t2,a5,800058cc <i_5454>

00000000800058d4 <i_5455>:
    800058d4:	01200313          	li	t1,18

00000000800058d8 <i_5456>:
    800058d8:	0063ddbb          	srlw	s11,t2,t1

00000000800058dc <i_5457>:
    800058dc:	00f7c263          	blt	a5,a5,800058e0 <i_5458>

00000000800058e0 <i_5458>:
    800058e0:	00200c93          	li	s9,2

00000000800058e4 <i_5459>:
    800058e4:	419dd53b          	sraw	a0,s11,s9

00000000800058e8 <i_5460>:
    800058e8:	fa211183          	lh	gp,-94(sp)

00000000800058ec <i_5461>:
    800058ec:	e9012783          	lw	a5,-368(sp)

00000000800058f0 <i_5462>:
    800058f0:	e7113c23          	sd	a7,-392(sp)

00000000800058f4 <i_5463>:
    800058f4:	0197d863          	ble	s9,a5,80005904 <i_5467>

00000000800058f8 <i_5464>:
    800058f8:	0397d83b          	divuw	a6,a5,s9

00000000800058fc <i_5465>:
    800058fc:	0f314383          	lbu	t2,243(sp)

0000000080005900 <i_5466>:
    80005900:	bbb30393          	addi	t2,t1,-1093

0000000080005904 <i_5467>:
    80005904:	0ae14183          	lbu	gp,174(sp)

0000000080005908 <i_5468>:
    80005908:	f1e15983          	lhu	s3,-226(sp)

000000008000590c <i_5469>:
    8000590c:	04e12e23          	sw	a4,92(sp)

0000000080005910 <i_5470>:
    80005910:	8c900493          	li	s1,-1847

0000000080005914 <i_5471>:
    80005914:	8d500193          	li	gp,-1835

0000000080005918 <i_5472>:
    80005918:	001e1463          	bne	t3,ra,80005920 <i_5474>

000000008000591c <i_5473>:
    8000591c:	07412983          	lw	s3,116(sp)

0000000080005920 <i_5474>:
    80005920:	d3c98c13          	addi	s8,s3,-708

0000000080005924 <i_5475>:
    80005924:	9a7c0c1b          	addiw	s8,s8,-1625

0000000080005928 <i_5476>:
    80005928:	00000013          	nop

000000008000592c <i_5477>:
    8000592c:	4b6c6b93          	ori	s7,s8,1206

0000000080005930 <i_5478>:
    80005930:	01885a63          	ble	s8,a6,80005944 <i_5483>

0000000080005934 <i_5479>:
    80005934:	f9e11e03          	lh	t3,-98(sp)

0000000080005938 <i_5480>:
    80005938:	03bbe463          	bltu	s7,s11,80005960 <i_5489>

000000008000593c <i_5481>:
    8000593c:	117103a3          	sb	s7,263(sp)

0000000080005940 <i_5482>:
    80005940:	f6813c03          	ld	s8,-152(sp)

0000000080005944 <i_5483>:
    80005944:	efa12e23          	sw	s10,-260(sp)

0000000080005948 <i_5484>:
    80005948:	ff412e03          	lw	t3,-12(sp)

000000008000594c <i_5485>:
    8000594c:	00148493          	addi	s1,s1,1 # 7384a001 <main-0xc7b5fff>
    80005950:	fc91f4e3          	bleu	s1,gp,80005918 <i_5472>

0000000080005954 <i_5486>:
    80005954:	038c3bb3          	mulhu	s7,s8,s8

0000000080005958 <i_5487>:
    80005958:	00600213          	li	tp,6

000000008000595c <i_5488>:
    8000595c:	004b9bbb          	sllw	s7,s7,tp

0000000080005960 <i_5489>:
    80005960:	e8416c03          	lwu	s8,-380(sp)

0000000080005964 <i_5490>:
    80005964:	e7813023          	sd	s8,-416(sp)

0000000080005968 <i_5491>:
    80005968:	417b81bb          	subw	gp,s7,s7

000000008000596c <i_5492>:
    8000596c:	1aa13c23          	sd	a0,440(sp)

0000000080005970 <i_5493>:
    80005970:	0c013083          	ld	ra,192(sp)

0000000080005974 <i_5494>:
    80005974:	fe816e03          	lwu	t3,-24(sp)

0000000080005978 <i_5495>:
    80005978:	88573197          	auipc	gp,0x88573

000000008000597c <i_5496>:
    8000597c:	0231d063          	ble	gp,gp,8000599c <i_5504>

0000000080005980 <i_5497>:
    80005980:	1e810d83          	lb	s11,488(sp)

0000000080005984 <i_5498>:
    80005984:	037c7063          	bleu	s7,s8,800059a4 <i_5506>

0000000080005988 <i_5499>:
    80005988:	10510983          	lb	s3,261(sp)

000000008000598c <i_5500>:
    8000598c:	f8c12d83          	lw	s11,-116(sp)

0000000080005990 <i_5501>:
    80005990:	03b96463          	bltu	s2,s11,800059b8 <i_5511>

0000000080005994 <i_5502>:
    80005994:	00000013          	nop

0000000080005998 <i_5503>:
    80005998:	003bdc13          	srli	s8,s7,0x3

000000008000599c <i_5504>:
    8000599c:	297e4a13          	xori	s4,t3,663

00000000800059a0 <i_5505>:
    800059a0:	fce15c83          	lhu	s9,-50(sp)

00000000800059a4 <i_5506>:
    800059a4:	00100e13          	li	t3,1

00000000800059a8 <i_5507>:
    800059a8:	01ca1e3b          	sllw	t3,s4,t3

00000000800059ac <i_5508>:
    800059ac:	e2813c83          	ld	s9,-472(sp)

00000000800059b0 <i_5509>:
    800059b0:	fb813c83          	ld	s9,-72(sp)

00000000800059b4 <i_5510>:
    800059b4:	60d33313          	sltiu	t1,t1,1549

00000000800059b8 <i_5511>:
    800059b8:	0a610ea3          	sb	t1,189(sp)

00000000800059bc <i_5512>:
    800059bc:	17015c83          	lhu	s9,368(sp)

00000000800059c0 <i_5513>:
    800059c0:	89800d93          	li	s11,-1896

00000000800059c4 <i_5514>:
    800059c4:	89e00b93          	li	s7,-1890

00000000800059c8 <i_5515>:
    800059c8:	001d8d93          	addi	s11,s11,1
    800059cc:	ff7d9ee3          	bne	s11,s7,800059c8 <i_5515>

00000000800059d0 <i_5516>:
    800059d0:	00900c93          	li	s9,9

00000000800059d4 <i_5517>:
    800059d4:	419cdabb          	sraw	s5,s9,s9

00000000800059d8 <i_5518>:
    800059d8:	f8712423          	sw	t2,-120(sp)

00000000800059dc <i_5519>:
    800059dc:	019e4863          	blt	t3,s9,800059ec <i_5523>

00000000800059e0 <i_5520>:
    800059e0:	021e00bb          	mulw	ra,t3,ra

00000000800059e4 <i_5521>:
    800059e4:	026ac263          	blt	s5,t1,80005a08 <i_5530>

00000000800059e8 <i_5522>:
    800059e8:	015a05b3          	add	a1,s4,s5

00000000800059ec <i_5523>:
    800059ec:	01b5ea33          	or	s4,a1,s11

00000000800059f0 <i_5524>:
    800059f0:	f3611083          	lh	ra,-202(sp)

00000000800059f4 <i_5525>:
    800059f4:	18016983          	lwu	s3,384(sp)

00000000800059f8 <i_5526>:
    800059f8:	0e610583          	lb	a1,230(sp)

00000000800059fc <i_5527>:
    800059fc:	00bf6e63          	bltu	t5,a1,80005a18 <i_5534>

0000000080005a00 <i_5528>:
    80005a00:	f9416083          	lwu	ra,-108(sp)

0000000080005a04 <i_5529>:
    80005a04:	09013d83          	ld	s11,144(sp)

0000000080005a08 <i_5530>:
    80005a08:	00b0b0b3          	sltu	ra,ra,a1

0000000080005a0c <i_5531>:
    80005a0c:	00900513          	li	a0,9

0000000080005a10 <i_5532>:
    80005a10:	40a9d5bb          	sraw	a1,s3,a0

0000000080005a14 <i_5533>:
    80005a14:	e4415203          	lhu	tp,-444(sp)

0000000080005a18 <i_5534>:
    80005a18:	1d813503          	ld	a0,472(sp)

0000000080005a1c <i_5535>:
    80005a1c:	e2b109a3          	sb	a1,-461(sp)

0000000080005a20 <i_5536>:
    80005a20:	0f310723          	sb	s3,238(sp)

0000000080005a24 <i_5537>:
    80005a24:	e3b12823          	sw	s11,-464(sp)

0000000080005a28 <i_5538>:
    80005a28:	01300a13          	li	s4,19

0000000080005a2c <i_5539>:
    80005a2c:	0149983b          	sllw	a6,s3,s4

0000000080005a30 <i_5540>:
    80005a30:	01a20263          	beq	tp,s10,80005a34 <i_5541>

0000000080005a34 <i_5541>:
    80005a34:	08d14583          	lbu	a1,141(sp)

0000000080005a38 <i_5542>:
    80005a38:	f9416203          	lwu	tp,-108(sp)

0000000080005a3c <i_5543>:
    80005a3c:	0145ec63          	bltu	a1,s4,80005a54 <i_5549>

0000000080005a40 <i_5544>:
    80005a40:	40365793          	srai	a5,a2,0x3

0000000080005a44 <i_5545>:
    80005a44:	001e1b93          	slli	s7,t3,0x1

0000000080005a48 <i_5546>:
    80005a48:	05a10e83          	lb	t4,90(sp)

0000000080005a4c <i_5547>:
    80005a4c:	1b015783          	lhu	a5,432(sp)

0000000080005a50 <i_5548>:
    80005a50:	f8f11223          	sh	a5,-124(sp)

0000000080005a54 <i_5549>:
    80005a54:	f5378093          	addi	ra,a5,-173

0000000080005a58 <i_5550>:
    80005a58:	02af4633          	div	a2,t5,a0

0000000080005a5c <i_5551>:
    80005a5c:	88c00213          	li	tp,-1908

0000000080005a60 <i_5552>:
    80005a60:	89300e13          	li	t3,-1901

0000000080005a64 <i_5553>:
    80005a64:	0a111a23          	sh	ra,180(sp)

0000000080005a68 <i_5554>:
    80005a68:	01900793          	li	a5,25

0000000080005a6c <i_5555>:
    80005a6c:	00f7d3bb          	srlw	t2,a5,a5

0000000080005a70 <i_5556>:
    80005a70:	06013383          	ld	t2,96(sp)

0000000080005a74 <i_5557>:
    80005a74:	00000013          	nop

0000000080005a78 <i_5558>:
    80005a78:	1e8ca3b7          	lui	t2,0x1e8ca

0000000080005a7c <i_5559>:
    80005a7c:	02c10e23          	sb	a2,60(sp)

0000000080005a80 <i_5560>:
    80005a80:	11614603          	lbu	a2,278(sp)

0000000080005a84 <i_5561>:
    80005a84:	1c614783          	lbu	a5,454(sp)

0000000080005a88 <i_5562>:
    80005a88:	f1211a23          	sh	s2,-236(sp)

0000000080005a8c <i_5563>:
    80005a8c:	022b663b          	remw	a2,s6,sp

0000000080005a90 <i_5564>:
    80005a90:	00120213          	addi	tp,tp,1 # 1 <main-0x7fffffff>
    80005a94:	fc4e78e3          	bleu	tp,t3,80005a64 <i_5553>

0000000080005a98 <i_5565>:
    80005a98:	40465c93          	srai	s9,a2,0x4

0000000080005a9c <i_5566>:
    80005a9c:	0af10a23          	sb	a5,180(sp)

0000000080005aa0 <i_5567>:
    80005aa0:	00acccb3          	xor	s9,s9,a0

0000000080005aa4 <i_5568>:
    80005aa4:	07514503          	lbu	a0,117(sp)

0000000080005aa8 <i_5569>:
    80005aa8:	00c5f863          	bleu	a2,a1,80005ab8 <i_5573>

0000000080005aac <i_5570>:
    80005aac:	00c90e63          	beq	s2,a2,80005ac8 <i_5577>

0000000080005ab0 <i_5571>:
    80005ab0:	03d46463          	bltu	s0,t4,80005ad8 <i_5581>

0000000080005ab4 <i_5572>:
    80005ab4:	cb2b8b9b          	addiw	s7,s7,-846

0000000080005ab8 <i_5573>:
    80005ab8:	ee812b83          	lw	s7,-280(sp)

0000000080005abc <i_5574>:
    80005abc:	037bbbb3          	mulhu	s7,s7,s7

0000000080005ac0 <i_5575>:
    80005ac0:	419b033b          	subw	t1,s6,s9

0000000080005ac4 <i_5576>:
    80005ac4:	ff713823          	sd	s7,-16(sp)

0000000080005ac8 <i_5577>:
    80005ac8:	98833c13          	sltiu	s8,t1,-1656

0000000080005acc <i_5578>:
    80005acc:	00000013          	nop

0000000080005ad0 <i_5579>:
    80005ad0:	f1c11a03          	lh	s4,-228(sp)

0000000080005ad4 <i_5580>:
    80005ad4:	00000013          	nop

0000000080005ad8 <i_5581>:
    80005ad8:	f3110e03          	lb	t3,-207(sp)

0000000080005adc <i_5582>:
    80005adc:	003a5a93          	srli	s5,s4,0x3

0000000080005ae0 <i_5583>:
    80005ae0:	8b800413          	li	s0,-1864

0000000080005ae4 <i_5584>:
    80005ae4:	8c800e93          	li	t4,-1848

0000000080005ae8 <i_5585>:
    80005ae8:	00140413          	addi	s0,s0,1
    80005aec:	ffd44ee3          	blt	s0,t4,80005ae8 <i_5585>

0000000080005af0 <i_5586>:
    80005af0:	03731263          	bne	t1,s7,80005b14 <i_5595>

0000000080005af4 <i_5587>:
    80005af4:	c0a94797          	auipc	a5,0xc0a94

0000000080005af8 <i_5588>:
    80005af8:	403bd41b          	sraiw	s0,s7,0x3

0000000080005afc <i_5589>:
    80005afc:	00640333          	add	t1,s0,t1

0000000080005b00 <i_5590>:
    80005b00:	f8610c23          	sb	t1,-104(sp)

0000000080005b04 <i_5591>:
    80005b04:	02d31633          	mulh	a2,t1,a3

0000000080005b08 <i_5592>:
    80005b08:	ee610523          	sb	t1,-278(sp)

0000000080005b0c <i_5593>:
    80005b0c:	08816383          	lwu	t2,136(sp)

0000000080005b10 <i_5594>:
    80005b10:	eba13423          	sd	s10,-344(sp)

0000000080005b14 <i_5595>:
    80005b14:	fe512223          	sw	t0,-28(sp)

0000000080005b18 <i_5596>:
    80005b18:	00000013          	nop

0000000080005b1c <i_5597>:
    80005b1c:	7ce00293          	li	t0,1998

0000000080005b20 <i_5598>:
    80005b20:	7d200313          	li	t1,2002

0000000080005b24 <i_5599>:
    80005b24:	02738463          	beq	t2,t2,80005b4c <i_5608>

0000000080005b28 <i_5600>:
    80005b28:	00128293          	addi	t0,t0,1
    80005b2c:	fe62cce3          	blt	t0,t1,80005b24 <i_5599>

0000000080005b30 <i_5601>:
    80005b30:	f7a102a3          	sb	s10,-155(sp)

0000000080005b34 <i_5602>:
    80005b34:	00760263          	beq	a2,t2,80005b38 <i_5603>

0000000080005b38 <i_5603>:
    80005b38:	0f813c23          	sd	s8,248(sp)

0000000080005b3c <i_5604>:
    80005b3c:	19215803          	lhu	a6,402(sp)

0000000080005b40 <i_5605>:
    80005b40:	ebb14c03          	lbu	s8,-325(sp)

0000000080005b44 <i_5606>:
    80005b44:	19811623          	sh	s8,396(sp)

0000000080005b48 <i_5607>:
    80005b48:	02785263          	ble	t2,a6,80005b6c <i_5616>

0000000080005b4c <i_5608>:
    80005b4c:	fec16383          	lwu	t2,-20(sp)

0000000080005b50 <i_5609>:
    80005b50:	06260817          	auipc	a6,0x6260

0000000080005b54 <i_5610>:
    80005b54:	10611803          	lh	a6,262(sp)

0000000080005b58 <i_5611>:
    80005b58:	0c712423          	sw	t2,200(sp)

0000000080005b5c <i_5612>:
    80005b5c:	03887833          	remu	a6,a6,s8

0000000080005b60 <i_5613>:
    80005b60:	002c1a63          	bne	s8,sp,80005b74 <i_5618>

0000000080005b64 <i_5614>:
    80005b64:	003c5813          	srli	a6,s8,0x3

0000000080005b68 <i_5615>:
    80005b68:	03085063          	ble	a6,a6,80005b88 <i_5623>

0000000080005b6c <i_5616>:
    80005b6c:	00786ab3          	or	s5,a6,t2

0000000080005b70 <i_5617>:
    80005b70:	fc812803          	lw	a6,-56(sp)

0000000080005b74 <i_5618>:
    80005b74:	02c11403          	lh	s0,44(sp)

0000000080005b78 <i_5619>:
    80005b78:	ed513823          	sd	s5,-304(sp)

0000000080005b7c <i_5620>:
    80005b7c:	02845e3b          	divuw	t3,s0,s0

0000000080005b80 <i_5621>:
    80005b80:	01cacab3          	xor	s5,s5,t3

0000000080005b84 <i_5622>:
    80005b84:	03caee3b          	remw	t3,s5,t3

0000000080005b88 <i_5623>:
    80005b88:	16816d83          	lwu	s11,360(sp)

0000000080005b8c <i_5624>:
    80005b8c:	00341e13          	slli	t3,s0,0x3

0000000080005b90 <i_5625>:
    80005b90:	03bf71b3          	remu	gp,t5,s11

0000000080005b94 <i_5626>:
    80005b94:	00341863          	bne	s0,gp,80005ba4 <i_5630>

0000000080005b98 <i_5627>:
    80005b98:	f3c13023          	sd	t3,-224(sp)

0000000080005b9c <i_5628>:
    80005b9c:	34bdae93          	slti	t4,s11,843

0000000080005ba0 <i_5629>:
    80005ba0:	0c813783          	ld	a5,200(sp)

0000000080005ba4 <i_5630>:
    80005ba4:	01ceea63          	bltu	t4,t3,80005bb8 <i_5635>

0000000080005ba8 <i_5631>:
    80005ba8:	018f1863          	bne	t5,s8,80005bb8 <i_5635>

0000000080005bac <i_5632>:
    80005bac:	01ce4663          	blt	t3,t3,80005bb8 <i_5635>

0000000080005bb0 <i_5633>:
    80005bb0:	05411123          	sh	s4,66(sp)

0000000080005bb4 <i_5634>:
    80005bb4:	0f411a03          	lh	s4,244(sp)

0000000080005bb8 <i_5635>:
    80005bb8:	f9816603          	lwu	a2,-104(sp)

0000000080005bbc <i_5636>:
    80005bbc:	f3c13423          	sd	t3,-216(sp)

0000000080005bc0 <i_5637>:
    80005bc0:	e5013d83          	ld	s11,-432(sp)

0000000080005bc4 <i_5638>:
    80005bc4:	01ce4263          	blt	t3,t3,80005bc8 <i_5639>

0000000080005bc8 <i_5639>:
    80005bc8:	00391313          	slli	t1,s2,0x3

0000000080005bcc <i_5640>:
    80005bcc:	e3b10623          	sb	s11,-468(sp)

0000000080005bd0 <i_5641>:
    80005bd0:	f1813e03          	ld	t3,-232(sp)

0000000080005bd4 <i_5642>:
    80005bd4:	5b7a3d93          	sltiu	s11,s4,1463

0000000080005bd8 <i_5643>:
    80005bd8:	01c34663          	blt	t1,t3,80005be4 <i_5646>

0000000080005bdc <i_5644>:
    80005bdc:	01cde263          	bltu	s11,t3,80005be0 <i_5645>

0000000080005be0 <i_5645>:
    80005be0:	eb016d83          	lwu	s11,-336(sp)

0000000080005be4 <i_5646>:
    80005be4:	f4612623          	sw	t1,-180(sp)

0000000080005be8 <i_5647>:
    80005be8:	f5b11f23          	sh	s11,-162(sp)

0000000080005bec <i_5648>:
    80005bec:	026dd23b          	divuw	tp,s11,t1

0000000080005bf0 <i_5649>:
    80005bf0:	16a11b83          	lh	s7,362(sp)

0000000080005bf4 <i_5650>:
    80005bf4:	022bfeb3          	remu	t4,s7,sp

0000000080005bf8 <i_5651>:
    80005bf8:	09c16b83          	lwu	s7,156(sp)

0000000080005bfc <i_5652>:
    80005bfc:	15d10283          	lb	t0,349(sp)

0000000080005c00 <i_5653>:
    80005c00:	08211403          	lh	s0,130(sp)

0000000080005c04 <i_5654>:
    80005c04:	017efc63          	bleu	s7,t4,80005c1c <i_5660>

0000000080005c08 <i_5655>:
    80005c08:	028edebb          	divuw	t4,t4,s0

0000000080005c0c <i_5656>:
    80005c0c:	f5611483          	lh	s1,-170(sp)

0000000080005c10 <i_5657>:
    80005c10:	015ed663          	ble	s5,t4,80005c1c <i_5660>

0000000080005c14 <i_5658>:
    80005c14:	f5510023          	sb	s5,-192(sp)

0000000080005c18 <i_5659>:
    80005c18:	99a2a213          	slti	tp,t0,-1638

0000000080005c1c <i_5660>:
    80005c1c:	01da9e63          	bne	s5,t4,80005c38 <i_5667>

0000000080005c20 <i_5661>:
    80005c20:	005ef663          	bleu	t0,t4,80005c2c <i_5664>

0000000080005c24 <i_5662>:
    80005c24:	00c101a3          	sb	a2,3(sp)

0000000080005c28 <i_5663>:
    80005c28:	41dd0cbb          	subw	s9,s10,t4

0000000080005c2c <i_5664>:
    80005c2c:	e6815e03          	lhu	t3,-408(sp)

0000000080005c30 <i_5665>:
    80005c30:	401a5a13          	srai	s4,s4,0x1

0000000080005c34 <i_5666>:
    80005c34:	03ce1cb3          	mulh	s9,t3,t3

0000000080005c38 <i_5667>:
    80005c38:	01ce2e33          	slt	t3,t3,t3

0000000080005c3c <i_5668>:
    80005c3c:	fcc15d83          	lhu	s11,-52(sp)

0000000080005c40 <i_5669>:
    80005c40:	1b913023          	sd	s9,416(sp)

0000000080005c44 <i_5670>:
    80005c44:	19911a23          	sh	s9,404(sp)

0000000080005c48 <i_5671>:
    80005c48:	01bdfa63          	bleu	s11,s11,80005c5c <i_5676>

0000000080005c4c <i_5672>:
    80005c4c:	ed913823          	sd	s9,-304(sp)

0000000080005c50 <i_5673>:
    80005c50:	e5a11d83          	lh	s11,-422(sp)

0000000080005c54 <i_5674>:
    80005c54:	19b13023          	sd	s11,384(sp)

0000000080005c58 <i_5675>:
    80005c58:	01cd8c63          	beq	s11,t3,80005c70 <i_5681>

0000000080005c5c <i_5676>:
    80005c5c:	01d00c13          	li	s8,29

0000000080005c60 <i_5677>:
    80005c60:	018dddbb          	srlw	s11,s11,s8

0000000080005c64 <i_5678>:
    80005c64:	e2c16083          	lwu	ra,-468(sp)

0000000080005c68 <i_5679>:
    80005c68:	1d310e03          	lb	t3,467(sp)

0000000080005c6c <i_5680>:
    80005c6c:	09210c03          	lb	s8,146(sp)

0000000080005c70 <i_5681>:
    80005c70:	07a14d83          	lbu	s11,122(sp)

0000000080005c74 <i_5682>:
    80005c74:	01cc5663          	ble	t3,s8,80005c80 <i_5685>

0000000080005c78 <i_5683>:
    80005c78:	f7e14e03          	lbu	t3,-130(sp)

0000000080005c7c <i_5684>:
    80005c7c:	0a914c83          	lbu	s9,169(sp)

0000000080005c80 <i_5685>:
    80005c80:	f5813423          	sd	s8,-184(sp)

0000000080005c84 <i_5686>:
    80005c84:	03b10463          	beq	sp,s11,80005cac <i_5696>

0000000080005c88 <i_5687>:
    80005c88:	fb6dc093          	xori	ra,s11,-74

0000000080005c8c <i_5688>:
    80005c8c:	04e11d83          	lh	s11,78(sp)

0000000080005c90 <i_5689>:
    80005c90:	12c16c83          	lwu	s9,300(sp)

0000000080005c94 <i_5690>:
    80005c94:	16816e83          	lwu	t4,360(sp)

0000000080005c98 <i_5691>:
    80005c98:	03d08cbb          	mulw	s9,ra,t4

0000000080005c9c <i_5692>:
    80005c9c:	01809263          	bne	ra,s8,80005ca0 <i_5693>

0000000080005ca0 <i_5693>:
    80005ca0:	00d00e93          	li	t4,13

0000000080005ca4 <i_5694>:
    80005ca4:	01d0d0b3          	srl	ra,ra,t4

0000000080005ca8 <i_5695>:
    80005ca8:	0180f263          	bleu	s8,ra,80005cac <i_5696>

0000000080005cac <i_5696>:
    80005cac:	03d3f063          	bleu	t4,t2,80005ccc <i_5704>

0000000080005cb0 <i_5697>:
    80005cb0:	023ee263          	bltu	t4,gp,80005cd4 <i_5706>

0000000080005cb4 <i_5698>:
    80005cb4:	5e178c93          	addi	s9,a5,1505 # 40a9a0d5 <main-0x3f565f2b>

0000000080005cb8 <i_5699>:
    80005cb8:	018ee263          	bltu	t4,s8,80005cbc <i_5700>

0000000080005cbc <i_5700>:
    80005cbc:	01800d93          	li	s11,24

0000000080005cc0 <i_5701>:
    80005cc0:	01bedebb          	srlw	t4,t4,s11

0000000080005cc4 <i_5702>:
    80005cc4:	01b14583          	lbu	a1,27(sp)

0000000080005cc8 <i_5703>:
    80005cc8:	03bddeb3          	divu	t4,s11,s11

0000000080005ccc <i_5704>:
    80005ccc:	0ab11323          	sh	a1,166(sp)

0000000080005cd0 <i_5705>:
    80005cd0:	1d712223          	sw	s7,452(sp)

0000000080005cd4 <i_5706>:
    80005cd4:	01b5fc63          	bleu	s11,a1,80005cec <i_5712>

0000000080005cd8 <i_5707>:
    80005cd8:	802249b7          	lui	s3,0x80224

0000000080005cdc <i_5708>:
    80005cdc:	0c015283          	lhu	t0,192(sp)

0000000080005ce0 <i_5709>:
    80005ce0:	033ec9b3          	div	s3,t4,s3

0000000080005ce4 <i_5710>:
    80005ce4:	025ec263          	blt	t4,t0,80005d08 <i_5719>

0000000080005ce8 <i_5711>:
    80005ce8:	de569eb7          	lui	t4,0xde569

0000000080005cec <i_5712>:
    80005cec:	00000013          	nop

0000000080005cf0 <i_5713>:
    80005cf0:	ef714483          	lbu	s1,-265(sp)

0000000080005cf4 <i_5714>:
    80005cf4:	a671c593          	xori	a1,gp,-1433

0000000080005cf8 <i_5715>:
    80005cf8:	00000013          	nop

0000000080005cfc <i_5716>:
    80005cfc:	0c416483          	lwu	s1,196(sp)

0000000080005d00 <i_5717>:
    80005d00:	04813c83          	ld	s9,72(sp)

0000000080005d04 <i_5718>:
    80005d04:	f4611483          	lh	s1,-186(sp)

0000000080005d08 <i_5719>:
    80005d08:	f1c12c23          	sw	t3,-232(sp)

0000000080005d0c <i_5720>:
    80005d0c:	f7912623          	sw	s9,-148(sp)

0000000080005d10 <i_5721>:
    80005d10:	75200293          	li	t0,1874

0000000080005d14 <i_5722>:
    80005d14:	75600193          	li	gp,1878

0000000080005d18 <i_5723>:
    80005d18:	00c00393          	li	t2,12

0000000080005d1c <i_5724>:
    80005d1c:	007494bb          	sllw	s1,s1,t2

0000000080005d20 <i_5725>:
    80005d20:	f2c12e03          	lw	t3,-212(sp)

0000000080005d24 <i_5726>:
    80005d24:	ff911823          	sh	s9,-16(sp)

0000000080005d28 <i_5727>:
    80005d28:	00128293          	addi	t0,t0,1
    80005d2c:	fe32e6e3          	bltu	t0,gp,80005d18 <i_5723>

0000000080005d30 <i_5728>:
    80005d30:	0274e463          	bltu	s1,t2,80005d58 <i_5738>

0000000080005d34 <i_5729>:
    80005d34:	03013483          	ld	s1,48(sp)

0000000080005d38 <i_5730>:
    80005d38:	01b00413          	li	s0,27

0000000080005d3c <i_5731>:
    80005d3c:	008393bb          	sllw	t2,t2,s0

0000000080005d40 <i_5732>:
    80005d40:	029d7263          	bleu	s1,s10,80005d64 <i_5741>

0000000080005d44 <i_5733>:
    80005d44:	f5016c83          	lwu	s9,-176(sp)

0000000080005d48 <i_5734>:
    80005d48:	01114383          	lbu	t2,17(sp)

0000000080005d4c <i_5735>:
    80005d4c:	f9912823          	sw	s9,-112(sp)

0000000080005d50 <i_5736>:
    80005d50:	029a7433          	remu	s0,s4,s1

0000000080005d54 <i_5737>:
    80005d54:	4034559b          	sraiw	a1,s0,0x3

0000000080005d58 <i_5738>:
    80005d58:	f0813c23          	sd	s0,-232(sp)

0000000080005d5c <i_5739>:
    80005d5c:	039c45bb          	divw	a1,s8,s9

0000000080005d60 <i_5740>:
    80005d60:	00b68863          	beq	a3,a1,80005d70 <i_5744>

0000000080005d64 <i_5741>:
    80005d64:	02748263          	beq	s1,t2,80005d88 <i_5750>

0000000080005d68 <i_5742>:
    80005d68:	4034d19b          	sraiw	gp,s1,0x3

0000000080005d6c <i_5743>:
    80005d6c:	be243213          	sltiu	tp,s0,-1054

0000000080005d70 <i_5744>:
    80005d70:	fb815183          	lhu	gp,-72(sp)

0000000080005d74 <i_5745>:
    80005d74:	039ce463          	bltu	s9,s9,80005d9c <i_5755>

0000000080005d78 <i_5746>:
    80005d78:	3af47513          	andi	a0,s0,943

0000000080005d7c <i_5747>:
    80005d7c:	02447433          	remu	s0,s0,tp

0000000080005d80 <i_5748>:
    80005d80:	00488e63          	beq	a7,tp,80005d9c <i_5755>

0000000080005d84 <i_5749>:
    80005d84:	4046823b          	subw	tp,a3,tp

0000000080005d88 <i_5750>:
    80005d88:	00221a1b          	slliw	s4,tp,0x2

0000000080005d8c <i_5751>:
    80005d8c:	00446463          	bltu	s0,tp,80005d94 <i_5753>

0000000080005d90 <i_5752>:
    80005d90:	02845263          	ble	s0,s0,80005db4 <i_5761>

0000000080005d94 <i_5753>:
    80005d94:	0a514983          	lbu	s3,165(sp)

0000000080005d98 <i_5754>:
    80005d98:	00498463          	beq	s3,tp,80005da0 <i_5756>

0000000080005d9c <i_5755>:
    80005d9c:	15312823          	sw	s3,336(sp)

0000000080005da0 <i_5756>:
    80005da0:	07413823          	sd	s4,112(sp)

0000000080005da4 <i_5757>:
    80005da4:	07811e23          	sh	s8,124(sp)

0000000080005da8 <i_5758>:
    80005da8:	00742eb3          	slt	t4,s0,t2

0000000080005dac <i_5759>:
    80005dac:	00600a13          	li	s4,6

0000000080005db0 <i_5760>:
    80005db0:	014893b3          	sll	t2,a7,s4

0000000080005db4 <i_5761>:
    80005db4:	f7412c23          	sw	s4,-136(sp)

0000000080005db8 <i_5762>:
    80005db8:	00444db3          	xor	s11,s0,tp

0000000080005dbc <i_5763>:
    80005dbc:	00435a13          	srli	s4,t1,0x4

0000000080005dc0 <i_5764>:
    80005dc0:	e5412423          	sw	s4,-440(sp)

0000000080005dc4 <i_5765>:
    80005dc4:	73d00e93          	li	t4,1853

0000000080005dc8 <i_5766>:
    80005dc8:	74d00313          	li	t1,1869

0000000080005dcc <i_5767>:
    80005dcc:	0b816e03          	lwu	t3,184(sp)

0000000080005dd0 <i_5768>:
    80005dd0:	00000013          	nop

0000000080005dd4 <i_5769>:
    80005dd4:	001e8e93          	addi	t4,t4,1 # ffffffffde569001 <_end+0xffffffff5e558bed>
    80005dd8:	ffd37ae3          	bleu	t4,t1,80005dcc <i_5767>

0000000080005ddc <i_5770>:
    80005ddc:	01437663          	bleu	s4,t1,80005de8 <i_5773>

0000000080005de0 <i_5771>:
    80005de0:	039a7463          	bleu	s9,s4,80005e08 <i_5781>

0000000080005de4 <i_5772>:
    80005de4:	402a5a13          	srai	s4,s4,0x2

0000000080005de8 <i_5773>:
    80005de8:	03ca1a33          	mulh	s4,s4,t3

0000000080005dec <i_5774>:
    80005dec:	01ce2333          	slt	t1,t3,t3

0000000080005df0 <i_5775>:
    80005df0:	02ce59bb          	divuw	s3,t3,a2

0000000080005df4 <i_5776>:
    80005df4:	f0410503          	lb	a0,-252(sp)

0000000080005df8 <i_5777>:
    80005df8:	f3c12e03          	lw	t3,-196(sp)

0000000080005dfc <i_5778>:
    80005dfc:	417d8bbb          	subw	s7,s11,s7

0000000080005e00 <i_5779>:
    80005e00:	14816783          	lwu	a5,328(sp)

0000000080005e04 <i_5780>:
    80005e04:	00000013          	nop

0000000080005e08 <i_5781>:
    80005e08:	02c7f5b3          	remu	a1,a5,a2

0000000080005e0c <i_5782>:
    80005e0c:	00000013          	nop

0000000080005e10 <i_5783>:
    80005e10:	74d00513          	li	a0,1869

0000000080005e14 <i_5784>:
    80005e14:	76100d93          	li	s11,1889

0000000080005e18 <i_5785>:
    80005e18:	03c98263          	beq	s3,t3,80005e3c <i_5793>

0000000080005e1c <i_5786>:
    80005e1c:	037e5c33          	divu	s8,t3,s7

0000000080005e20 <i_5787>:
    80005e20:	05d10283          	lb	t0,93(sp)

0000000080005e24 <i_5788>:
    80005e24:	13816b83          	lwu	s7,312(sp)

0000000080005e28 <i_5789>:
    80005e28:	00150513          	addi	a0,a0,1
    80005e2c:	ffb516e3          	bne	a0,s11,80005e18 <i_5785>

0000000080005e30 <i_5790>:
    80005e30:	ec811803          	lh	a6,-312(sp)

0000000080005e34 <i_5791>:
    80005e34:	fc812c03          	lw	s8,-56(sp)

0000000080005e38 <i_5792>:
    80005e38:	02500b93          	li	s7,37

0000000080005e3c <i_5793>:
    80005e3c:	017815b3          	sll	a1,a6,s7

0000000080005e40 <i_5794>:
    80005e40:	16812c03          	lw	s8,360(sp)

0000000080005e44 <i_5795>:
    80005e44:	00bbac33          	slt	s8,s7,a1

0000000080005e48 <i_5796>:
    80005e48:	0185cbb3          	xor	s7,a1,s8

0000000080005e4c <i_5797>:
    80005e4c:	0d712a23          	sw	s7,212(sp)

0000000080005e50 <i_5798>:
    80005e50:	0c813583          	ld	a1,200(sp)

0000000080005e54 <i_5799>:
    80005e54:	003b961b          	slliw	a2,s7,0x3

0000000080005e58 <i_5800>:
    80005e58:	10816b83          	lwu	s7,264(sp)

0000000080005e5c <i_5801>:
    80005e5c:	28173093          	sltiu	ra,a4,641

0000000080005e60 <i_5802>:
    80005e60:	02b60063          	beq	a2,a1,80005e80 <i_5810>

0000000080005e64 <i_5803>:
    80005e64:	15d14583          	lbu	a1,349(sp)

0000000080005e68 <i_5804>:
    80005e68:	e9614803          	lbu	a6,-362(sp)

0000000080005e6c <i_5805>:
    80005e6c:	f2b13c23          	sd	a1,-200(sp)

0000000080005e70 <i_5806>:
    80005e70:	010b9a63          	bne	s7,a6,80005e84 <i_5811>

0000000080005e74 <i_5807>:
    80005e74:	00c67e63          	bleu	a2,a2,80005e90 <i_5814>

0000000080005e78 <i_5808>:
    80005e78:	f1013a83          	ld	s5,-240(sp)

0000000080005e7c <i_5809>:
    80005e7c:	f1314403          	lbu	s0,-237(sp)

0000000080005e80 <i_5810>:
    80005e80:	f1013303          	ld	t1,-240(sp)

0000000080005e84 <i_5811>:
    80005e84:	402c5c13          	srai	s8,s8,0x2

0000000080005e88 <i_5812>:
    80005e88:	02633bb3          	mulhu	s7,t1,t1

0000000080005e8c <i_5813>:
    80005e8c:	02690bb3          	mul	s7,s2,t1

0000000080005e90 <i_5814>:
    80005e90:	016ce463          	bltu	s9,s6,80005e98 <i_5816>

0000000080005e94 <i_5815>:
    80005e94:	00000013          	nop

0000000080005e98 <i_5816>:
    80005e98:	1d911e23          	sh	s9,476(sp)

0000000080005e9c <i_5817>:
    80005e9c:	00000013          	nop

0000000080005ea0 <i_5818>:
    80005ea0:	89300413          	li	s0,-1901

0000000080005ea4 <i_5819>:
    80005ea4:	89900c93          	li	s9,-1895

0000000080005ea8 <i_5820>:
    80005ea8:	013c8a63          	beq	s9,s3,80005ebc <i_5825>

0000000080005eac <i_5821>:
    80005eac:	1de11b83          	lh	s7,478(sp)

0000000080005eb0 <i_5822>:
    80005eb0:	06013803          	ld	a6,96(sp)

0000000080005eb4 <i_5823>:
    80005eb4:	017a4c63          	blt	s4,s7,80005ecc <i_5829>

0000000080005eb8 <i_5824>:
    80005eb8:	01900b93          	li	s7,25

0000000080005ebc <i_5825>:
    80005ebc:	0173d3bb          	srlw	t2,t2,s7

0000000080005ec0 <i_5826>:
    80005ec0:	eec10583          	lb	a1,-276(sp)

0000000080005ec4 <i_5827>:
    80005ec4:	037ae663          	bltu	s5,s7,80005ef0 <i_5837>

0000000080005ec8 <i_5828>:
    80005ec8:	00000013          	nop

0000000080005ecc <i_5829>:
    80005ecc:	17c15a83          	lhu	s5,380(sp)

0000000080005ed0 <i_5830>:
    80005ed0:	0033d39b          	srliw	t2,t2,0x3

0000000080005ed4 <i_5831>:
    80005ed4:	00140413          	addi	s0,s0,1
    80005ed8:	fc8cf8e3          	bleu	s0,s9,80005ea8 <i_5820>

0000000080005edc <i_5832>:
    80005edc:	ed513423          	sd	s5,-312(sp)

0000000080005ee0 <i_5833>:
    80005ee0:	1e711123          	sh	t2,482(sp)

0000000080005ee4 <i_5834>:
    80005ee4:	415e8ebb          	subw	t4,t4,s5

0000000080005ee8 <i_5835>:
    80005ee8:	00bac263          	blt	s5,a1,80005eec <i_5836>

0000000080005eec <i_5836>:
    80005eec:	00b5ec63          	bltu	a1,a1,80005f04 <i_5842>

0000000080005ef0 <i_5837>:
    80005ef0:	03d13c23          	sd	t4,56(sp)

0000000080005ef4 <i_5838>:
    80005ef4:	402ad79b          	sraiw	a5,s5,0x2

0000000080005ef8 <i_5839>:
    80005ef8:	0d512a23          	sw	s5,212(sp)

0000000080005efc <i_5840>:
    80005efc:	00727e63          	bleu	t2,tp,80005f18 <i_5847>

0000000080005f00 <i_5841>:
    80005f00:	e7513023          	sd	s5,-416(sp)

0000000080005f04 <i_5842>:
    80005f04:	00fac3b3          	xor	t2,s5,a5

0000000080005f08 <i_5843>:
    80005f08:	18f13823          	sd	a5,400(sp)

0000000080005f0c <i_5844>:
    80005f0c:	00e3b0b3          	sltu	ra,t2,a4

0000000080005f10 <i_5845>:
    80005f10:	ec414083          	lbu	ra,-316(sp)

0000000080005f14 <i_5846>:
    80005f14:	e8816e83          	lwu	t4,-376(sp)

0000000080005f18 <i_5847>:
    80005f18:	f7412e83          	lw	t4,-140(sp)

0000000080005f1c <i_5848>:
    80005f1c:	1e416083          	lwu	ra,484(sp)

0000000080005f20 <i_5849>:
    80005f20:	e4110b23          	sb	ra,-426(sp)

0000000080005f24 <i_5850>:
    80005f24:	f4812203          	lw	tp,-184(sp)

0000000080005f28 <i_5851>:
    80005f28:	021ecebb          	divw	t4,t4,ra

0000000080005f2c <i_5852>:
    80005f2c:	00480eb3          	add	t4,a6,tp

0000000080005f30 <i_5853>:
    80005f30:	e9813603          	ld	a2,-360(sp)

0000000080005f34 <i_5854>:
    80005f34:	f7814083          	lbu	ra,-136(sp)

0000000080005f38 <i_5855>:
    80005f38:	00aee463          	bltu	t4,a0,80005f40 <i_5857>

0000000080005f3c <i_5856>:
    80005f3c:	15e10e83          	lb	t4,350(sp)

0000000080005f40 <i_5857>:
    80005f40:	1ac14503          	lbu	a0,428(sp)

0000000080005f44 <i_5858>:
    80005f44:	03013083          	ld	ra,48(sp)

0000000080005f48 <i_5859>:
    80005f48:	f3b13423          	sd	s11,-216(sp)

0000000080005f4c <i_5860>:
    80005f4c:	0010b0b3          	sltu	ra,ra,ra

0000000080005f50 <i_5861>:
    80005f50:	b680c393          	xori	t2,ra,-1176

0000000080005f54 <i_5862>:
    80005f54:	ee111f23          	sh	ra,-258(sp)

0000000080005f58 <i_5863>:
    80005f58:	e8110ca3          	sb	ra,-359(sp)

0000000080005f5c <i_5864>:
    80005f5c:	027d30b3          	mulhu	ra,s10,t2

0000000080005f60 <i_5865>:
    80005f60:	0c314483          	lbu	s1,195(sp)

0000000080005f64 <i_5866>:
    80005f64:	00a00093          	li	ra,10

0000000080005f68 <i_5867>:
    80005f68:	0010d53b          	srlw	a0,ra,ra

0000000080005f6c <i_5868>:
    80005f6c:	f3c11403          	lh	s0,-196(sp)

0000000080005f70 <i_5869>:
    80005f70:	14411483          	lh	s1,324(sp)

0000000080005f74 <i_5870>:
    80005f74:	11013483          	ld	s1,272(sp)

0000000080005f78 <i_5871>:
    80005f78:	efd10283          	lb	t0,-259(sp)

0000000080005f7c <i_5872>:
    80005f7c:	06416083          	lwu	ra,100(sp)

0000000080005f80 <i_5873>:
    80005f80:	4640c213          	xori	tp,ra,1124

0000000080005f84 <i_5874>:
    80005f84:	e4112c23          	sw	ra,-424(sp)

0000000080005f88 <i_5875>:
    80005f88:	88400d93          	li	s11,-1916

0000000080005f8c <i_5876>:
    80005f8c:	88600093          	li	ra,-1914

0000000080005f90 <i_5877>:
    80005f90:	f7910183          	lb	gp,-135(sp)

0000000080005f94 <i_5878>:
    80005f94:	0d273813          	sltiu	a6,a4,210

0000000080005f98 <i_5879>:
    80005f98:	00323cb3          	sltu	s9,tp,gp

0000000080005f9c <i_5880>:
    80005f9c:	4be5de37          	lui	t3,0x4be5d

0000000080005fa0 <i_5881>:
    80005fa0:	0bc15c83          	lhu	s9,188(sp)

0000000080005fa4 <i_5882>:
    80005fa4:	17814203          	lbu	tp,376(sp)

0000000080005fa8 <i_5883>:
    80005fa8:	0340c263          	blt	ra,s4,80005fcc <i_5891>

0000000080005fac <i_5884>:
    80005fac:	001d8d93          	addi	s11,s11,1
    80005fb0:	fe1d90e3          	bne	s11,ra,80005f90 <i_5877>

0000000080005fb4 <i_5885>:
    80005fb4:	00320e63          	beq	tp,gp,80005fd0 <i_5892>

0000000080005fb8 <i_5886>:
    80005fb8:	e1b11f23          	sh	s11,-482(sp)

0000000080005fbc <i_5887>:
    80005fbc:	00309313          	slli	t1,ra,0x3

0000000080005fc0 <i_5888>:
    80005fc0:	f0e14c83          	lbu	s9,-242(sp)

0000000080005fc4 <i_5889>:
    80005fc4:	01bdadb3          	slt	s11,s11,s11

0000000080005fc8 <i_5890>:
    80005fc8:	06012203          	lw	tp,96(sp)

0000000080005fcc <i_5891>:
    80005fcc:	0be10803          	lb	a6,190(sp)

0000000080005fd0 <i_5892>:
    80005fd0:	03085a33          	divu	s4,a6,a6

0000000080005fd4 <i_5893>:
    80005fd4:	02425463          	ble	tp,tp,80005ffc <i_5903>

0000000080005fd8 <i_5894>:
    80005fd8:	f0f14403          	lbu	s0,-241(sp)

0000000080005fdc <i_5895>:
    80005fdc:	031c8cb3          	mul	s9,s9,a7

0000000080005fe0 <i_5896>:
    80005fe0:	f3615a03          	lhu	s4,-202(sp)

0000000080005fe4 <i_5897>:
    80005fe4:	d4d40813          	addi	a6,s0,-691

0000000080005fe8 <i_5898>:
    80005fe8:	00500a13          	li	s4,5

0000000080005fec <i_5899>:
    80005fec:	41445433          	sra	s0,s0,s4

0000000080005ff0 <i_5900>:
    80005ff0:	10813403          	ld	s0,264(sp)

0000000080005ff4 <i_5901>:
    80005ff4:	eb415d83          	lhu	s11,-332(sp)

0000000080005ff8 <i_5902>:
    80005ff8:	ee811323          	sh	s0,-282(sp)

0000000080005ffc <i_5903>:
    80005ffc:	8de86a13          	ori	s4,a6,-1826

0000000080006000 <i_5904>:
    80006000:	ed010983          	lb	s3,-304(sp)

0000000080006004 <i_5905>:
    80006004:	7a200313          	li	t1,1954

0000000080006008 <i_5906>:
    80006008:	7aa00c93          	li	s9,1962

000000008000600c <i_5907>:
    8000600c:	f9410f23          	sb	s4,-98(sp)

0000000080006010 <i_5908>:
    80006010:	00130313          	addi	t1,t1,1
    80006014:	fe6cdce3          	ble	t1,s9,8000600c <i_5907>

0000000080006018 <i_5909>:
    80006018:	014105a3          	sb	s4,11(sp)

000000008000601c <i_5910>:
    8000601c:	f9c12803          	lw	a6,-100(sp)

0000000080006020 <i_5911>:
    80006020:	010a1863          	bne	s4,a6,80006030 <i_5915>

0000000080006024 <i_5912>:
    80006024:	035d8063          	beq	s11,s5,80006044 <i_5920>

0000000080006028 <i_5913>:
    80006028:	18412d83          	lw	s11,388(sp)

000000008000602c <i_5914>:
    8000602c:	008a0a33          	add	s4,s4,s0

0000000080006030 <i_5915>:
    80006030:	fc011e83          	lh	t4,-64(sp)

0000000080006034 <i_5916>:
    80006034:	01447263          	bleu	s4,s0,80006038 <i_5917>

0000000080006038 <i_5917>:
    80006038:	0dc12503          	lw	a0,220(sp)

000000008000603c <i_5918>:
    8000603c:	0136c463          	blt	a3,s3,80006044 <i_5920>

0000000080006040 <i_5919>:
    80006040:	06111c23          	sh	ra,120(sp)

0000000080006044 <i_5920>:
    80006044:	e7413c23          	sd	s4,-392(sp)

0000000080006048 <i_5921>:
    80006048:	43152093          	slti	ra,a0,1073

000000008000604c <i_5922>:
    8000604c:	e5813783          	ld	a5,-424(sp)

0000000080006050 <i_5923>:
    80006050:	014a7663          	bleu	s4,s4,8000605c <i_5926>

0000000080006054 <i_5924>:
    80006054:	e4415183          	lhu	gp,-444(sp)

0000000080006058 <i_5925>:
    80006058:	19416c03          	lwu	s8,404(sp)

000000008000605c <i_5926>:
    8000605c:	00fa0e33          	add	t3,s4,a5

0000000080006060 <i_5927>:
    80006060:	00000013          	nop

0000000080006064 <i_5928>:
    80006064:	0234d53b          	divuw	a0,s1,gp

0000000080006068 <i_5929>:
    80006068:	89500793          	li	a5,-1899

000000008000606c <i_5930>:
    8000606c:	89700493          	li	s1,-1897

0000000080006070 <i_5931>:
    80006070:	0297f0b3          	remu	ra,a5,s1

0000000080006074 <i_5932>:
    80006074:	00178793          	addi	a5,a5,1
    80006078:	fe97ece3          	bltu	a5,s1,80006070 <i_5931>

000000008000607c <i_5933>:
    8000607c:	034f7463          	bleu	s4,t5,800060a4 <i_5943>

0000000080006080 <i_5934>:
    80006080:	0020dc9b          	srliw	s9,ra,0x2

0000000080006084 <i_5935>:
    80006084:	308e4a13          	xori	s4,t3,776

0000000080006088 <i_5936>:
    80006088:	e7dca093          	slti	ra,s9,-387

000000008000608c <i_5937>:
    8000608c:	f4b10503          	lb	a0,-181(sp)

0000000080006090 <i_5938>:
    80006090:	08611583          	lh	a1,134(sp)

0000000080006094 <i_5939>:
    80006094:	06012483          	lw	s1,96(sp)

0000000080006098 <i_5940>:
    80006098:	0045d993          	srli	s3,a1,0x4

000000008000609c <i_5941>:
    8000609c:	fb311723          	sh	s3,-82(sp)

00000000800060a0 <i_5942>:
    800060a0:	ff814503          	lbu	a0,-8(sp)

00000000800060a4 <i_5943>:
    800060a4:	04b10ea3          	sb	a1,93(sp)

00000000800060a8 <i_5944>:
    800060a8:	3f99fb93          	andi	s7,s3,1017

00000000800060ac <i_5945>:
    800060ac:	11713023          	sd	s7,256(sp)

00000000800060b0 <i_5946>:
    800060b0:	00f5f263          	bleu	a5,a1,800060b4 <i_5947>

00000000800060b4 <i_5947>:
    800060b4:	0b813b83          	ld	s7,184(sp)

00000000800060b8 <i_5948>:
    800060b8:	fe211c83          	lh	s9,-30(sp)

00000000800060bc <i_5949>:
    800060bc:	eb911223          	sh	s9,-348(sp)

00000000800060c0 <i_5950>:
    800060c0:	0fc12c83          	lw	s9,252(sp)

00000000800060c4 <i_5951>:
    800060c4:	7aa00793          	li	a5,1962

00000000800060c8 <i_5952>:
    800060c8:	7be00b93          	li	s7,1982

00000000800060cc <i_5953>:
    800060cc:	00178793          	addi	a5,a5,1
    800060d0:	fefbfee3          	bleu	a5,s7,800060cc <i_5953>

00000000800060d4 <i_5954>:
    800060d4:	c9ccbe93          	sltiu	t4,s9,-868

00000000800060d8 <i_5955>:
    800060d8:	021ce83b          	remw	a6,s9,ra

00000000800060dc <i_5956>:
    800060dc:	04f13c23          	sd	a5,88(sp)

00000000800060e0 <i_5957>:
    800060e0:	030ee23b          	remw	tp,t4,a6

00000000800060e4 <i_5958>:
    800060e4:	f1010523          	sb	a6,-246(sp)

00000000800060e8 <i_5959>:
    800060e8:	f5416e03          	lwu	t3,-172(sp)

00000000800060ec <i_5960>:
    800060ec:	ea015c83          	lhu	s9,-352(sp)

00000000800060f0 <i_5961>:
    800060f0:	00500b93          	li	s7,5

00000000800060f4 <i_5962>:
    800060f4:	017e5ebb          	srlw	t4,t3,s7

00000000800060f8 <i_5963>:
    800060f8:	03ccbcb3          	mulhu	s9,s9,t3

00000000800060fc <i_5964>:
    800060fc:	002ede13          	srli	t3,t4,0x2

0000000080006100 <i_5965>:
    80006100:	f7013383          	ld	t2,-144(sp)

0000000080006104 <i_5966>:
    80006104:	01d3d263          	ble	t4,t2,80006108 <i_5967>

0000000080006108 <i_5967>:
    80006108:	03eb83b3          	mul	t2,s7,t5

000000008000610c <i_5968>:
    8000610c:	00c00c93          	li	s9,12

0000000080006110 <i_5969>:
    80006110:	019b9e3b          	sllw	t3,s7,s9

0000000080006114 <i_5970>:
    80006114:	12d12223          	sw	a3,292(sp)

0000000080006118 <i_5971>:
    80006118:	f0214383          	lbu	t2,-254(sp)

000000008000611c <i_5972>:
    8000611c:	e8713023          	sd	t2,-384(sp)

0000000080006120 <i_5973>:
    80006120:	01c3c463          	blt	t2,t3,80006128 <i_5975>

0000000080006124 <i_5974>:
    80006124:	039e3bb3          	mulhu	s7,t3,s9

0000000080006128 <i_5975>:
    80006128:	0f414c03          	lbu	s8,244(sp)

000000008000612c <i_5976>:
    8000612c:	e8410c83          	lb	s9,-380(sp)

0000000080006130 <i_5977>:
    80006130:	12811303          	lh	t1,296(sp)

0000000080006134 <i_5978>:
    80006134:	eb016e03          	lwu	t3,-336(sp)

0000000080006138 <i_5979>:
    80006138:	015c8863          	beq	s9,s5,80006148 <i_5983>

000000008000613c <i_5980>:
    8000613c:	00411c03          	lh	s8,4(sp)

0000000080006140 <i_5981>:
    80006140:	743a8a93          	addi	s5,s5,1859 # 2247c743 <main-0x5db838bd>

0000000080006144 <i_5982>:
    80006144:	07c11e03          	lh	t3,124(sp)

0000000080006148 <i_5983>:
    80006148:	03530463          	beq	t1,s5,80006170 <i_5993>

000000008000614c <i_5984>:
    8000614c:	21aafa93          	andi	s5,s5,538

0000000080006150 <i_5985>:
    80006150:	004e1463          	bne	t3,tp,80006158 <i_5987>

0000000080006154 <i_5986>:
    80006154:	0d816a83          	lwu	s5,216(sp)

0000000080006158 <i_5987>:
    80006158:	10514a83          	lbu	s5,261(sp)

000000008000615c <i_5988>:
    8000615c:	f8013203          	ld	tp,-128(sp)

0000000080006160 <i_5989>:
    80006160:	0d013a83          	ld	s5,208(sp)

0000000080006164 <i_5990>:
    80006164:	035ad063          	ble	s5,s5,80006184 <i_5998>

0000000080006168 <i_5991>:
    80006168:	0353a333          	mulhsu	t1,t2,s5

000000008000616c <i_5992>:
    8000616c:	03531463          	bne	t1,s5,80006194 <i_6002>

0000000080006170 <i_5993>:
    80006170:	402ed393          	srai	t2,t4,0x2

0000000080006174 <i_5994>:
    80006174:	00486833          	or	a6,a6,tp

0000000080006178 <i_5995>:
    80006178:	025809b3          	mul	s3,a6,t0

000000008000617c <i_5996>:
    8000617c:	11012383          	lw	t2,272(sp)

0000000080006180 <i_5997>:
    80006180:	e4710383          	lb	t2,-441(sp)

0000000080006184 <i_5998>:
    80006184:	027bb3b3          	mulhu	t2,s7,t2

0000000080006188 <i_5999>:
    80006188:	2292851b          	addiw	a0,t0,553

000000008000618c <i_6000>:
    8000618c:	025bc433          	div	s0,s7,t0

0000000080006190 <i_6001>:
    80006190:	02a573bb          	remuw	t2,a0,a0

0000000080006194 <i_6002>:
    80006194:	fe011d83          	lh	s11,-32(sp)

0000000080006198 <i_6003>:
    80006198:	17b105a3          	sb	s11,363(sp)

000000008000619c <i_6004>:
    8000619c:	77b00813          	li	a6,1915

00000000800061a0 <i_6005>:
    800061a0:	78f00293          	li	t0,1935

00000000800061a4 <i_6006>:
    800061a4:	0b816183          	lwu	gp,184(sp)

00000000800061a8 <i_6007>:
    800061a8:	01600613          	li	a2,22

00000000800061ac <i_6008>:
    800061ac:	00cdd3bb          	srlw	t2,s11,a2

00000000800061b0 <i_6009>:
    800061b0:	07610303          	lb	t1,118(sp)

00000000800061b4 <i_6010>:
    800061b4:	03334663          	blt	t1,s3,800061e0 <i_6020>

00000000800061b8 <i_6011>:
    800061b8:	4023531b          	sraiw	t1,t1,0x2

00000000800061bc <i_6012>:
    800061bc:	00180813          	addi	a6,a6,1 # 86265b51 <_end+0x625573d>
    800061c0:	fe5862e3          	bltu	a6,t0,800061a4 <i_6006>

00000000800061c4 <i_6013>:
    800061c4:	02660063          	beq	a2,t1,800061e4 <i_6021>

00000000800061c8 <i_6014>:
    800061c8:	00634a63          	blt	t1,t1,800061dc <i_6019>

00000000800061cc <i_6015>:
    800061cc:	15013303          	ld	t1,336(sp)

00000000800061d0 <i_6016>:
    800061d0:	f8416303          	lwu	t1,-124(sp)

00000000800061d4 <i_6017>:
    800061d4:	0263033b          	mulw	t1,t1,t1

00000000800061d8 <i_6018>:
    800061d8:	026301b3          	mul	gp,t1,t1

00000000800061dc <i_6019>:
    800061dc:	0b013583          	ld	a1,176(sp)

00000000800061e0 <i_6020>:
    800061e0:	ea310ba3          	sb	gp,-329(sp)

00000000800061e4 <i_6021>:
    800061e4:	0015d59b          	srliw	a1,a1,0x1

00000000800061e8 <i_6022>:
    800061e8:	4015dc9b          	sraiw	s9,a1,0x1

00000000800061ec <i_6023>:
    800061ec:	004185b3          	add	a1,gp,tp

00000000800061f0 <i_6024>:
    800061f0:	00000013          	nop

00000000800061f4 <i_6025>:
    800061f4:	7d900213          	li	tp,2009

00000000800061f8 <i_6026>:
    800061f8:	7e600193          	li	gp,2022

00000000800061fc <i_6027>:
    800061fc:	0155e5b3          	or	a1,a1,s5

0000000080006200 <i_6028>:
    80006200:	e8b10ea3          	sb	a1,-355(sp)

0000000080006204 <i_6029>:
    80006204:	00b205b3          	add	a1,tp,a1

0000000080006208 <i_6030>:
    80006208:	0225d063          	ble	sp,a1,80006228 <i_6038>

000000008000620c <i_6031>:
    8000620c:	c4cf5a37          	lui	s4,0xc4cf5

0000000080006210 <i_6032>:
    80006210:	004a0c63          	beq	s4,tp,80006228 <i_6038>

0000000080006214 <i_6033>:
    80006214:	00000013          	nop

0000000080006218 <i_6034>:
    80006218:	003c939b          	slliw	t2,s9,0x3

000000008000621c <i_6035>:
    8000621c:	0045c263          	blt	a1,tp,80006220 <i_6036>

0000000080006220 <i_6036>:
    80006220:	00000013          	nop

0000000080006224 <i_6037>:
    80006224:	f7a15583          	lhu	a1,-134(sp)

0000000080006228 <i_6038>:
    80006228:	e8110403          	lb	s0,-383(sp)

000000008000622c <i_6039>:
    8000622c:	19813a03          	ld	s4,408(sp)

0000000080006230 <i_6040>:
    80006230:	00120213          	addi	tp,tp,1 # 1 <main-0x7fffffff>
    80006234:	fc3244e3          	blt	tp,gp,800061fc <i_6027>

0000000080006238 <i_6041>:
    80006238:	00f78663          	beq	a5,a5,80006244 <i_6044>

000000008000623c <i_6042>:
    8000623c:	00b47e63          	bleu	a1,s0,80006258 <i_6049>

0000000080006240 <i_6043>:
    80006240:	18d14783          	lbu	a5,397(sp)

0000000080006244 <i_6044>:
    80006244:	f9013c83          	ld	s9,-112(sp)

0000000080006248 <i_6045>:
    80006248:	4b413313          	sltiu	t1,sp,1204

000000008000624c <i_6046>:
    8000624c:	026c863b          	mulw	a2,s9,t1

0000000080006250 <i_6047>:
    80006250:	f1215403          	lhu	s0,-238(sp)

0000000080006254 <i_6048>:
    80006254:	03e67cbb          	remuw	s9,a2,t5

0000000080006258 <i_6049>:
    80006258:	00c3b633          	sltu	a2,t2,a2

000000008000625c <i_6050>:
    8000625c:	e4c103a3          	sb	a2,-441(sp)

0000000080006260 <i_6051>:
    80006260:	039f5333          	divu	t1,t5,s9

0000000080006264 <i_6052>:
    80006264:	00813023          	sd	s0,0(sp)

0000000080006268 <i_6053>:
    80006268:	00af7533          	and	a0,t5,a0

000000008000626c <i_6054>:
    8000626c:	02c62633          	mulhsu	a2,a2,a2

0000000080006270 <i_6055>:
    80006270:	fb813603          	ld	a2,-72(sp)

0000000080006274 <i_6056>:
    80006274:	2facea13          	ori	s4,s9,762

0000000080006278 <i_6057>:
    80006278:	4036519b          	sraiw	gp,a2,0x3

000000008000627c <i_6058>:
    8000627c:	03e00c13          	li	s8,62

0000000080006280 <i_6059>:
    80006280:	01841533          	sll	a0,s0,s8

0000000080006284 <i_6060>:
    80006284:	02340063          	beq	s0,gp,800062a4 <i_6068>

0000000080006288 <i_6061>:
    80006288:	f0410a03          	lb	s4,-252(sp)

000000008000628c <i_6062>:
    8000628c:	ece11b83          	lh	s7,-306(sp)

0000000080006290 <i_6063>:
    80006290:	e4813423          	sd	s0,-440(sp)

0000000080006294 <i_6064>:
    80006294:	e1c12803          	lw	a6,-484(sp)

0000000080006298 <i_6065>:
    80006298:	ef013a03          	ld	s4,-272(sp)

000000008000629c <i_6066>:
    8000629c:	e5814c83          	lbu	s9,-424(sp)

00000000800062a0 <i_6067>:
    800062a0:	ed2a7313          	andi	t1,s4,-302

00000000800062a4 <i_6068>:
    800062a4:	034c9463          	bne	s9,s4,800062cc <i_6078>

00000000800062a8 <i_6069>:
    800062a8:	14813a83          	ld	s5,328(sp)

00000000800062ac <i_6070>:
    800062ac:	ec610023          	sb	t1,-320(sp)

00000000800062b0 <i_6071>:
    800062b0:	023484b3          	mul	s1,s1,gp

00000000800062b4 <i_6072>:
    800062b4:	ffa15e83          	lhu	t4,-6(sp)

00000000800062b8 <i_6073>:
    800062b8:	eb913423          	sd	s9,-344(sp)

00000000800062bc <i_6074>:
    800062bc:	f5713c23          	sd	s7,-168(sp)

00000000800062c0 <i_6075>:
    800062c0:	ef015a03          	lhu	s4,-272(sp)

00000000800062c4 <i_6076>:
    800062c4:	aeb30413          	addi	s0,t1,-1301

00000000800062c8 <i_6077>:
    800062c8:	8dea2993          	slti	s3,s4,-1826

00000000800062cc <i_6078>:
    800062cc:	00000013          	nop

00000000800062d0 <i_6079>:
    800062d0:	0c816d83          	lwu	s11,200(sp)

00000000800062d4 <i_6080>:
    800062d4:	7d000313          	li	t1,2000

00000000800062d8 <i_6081>:
    800062d8:	7e300793          	li	a5,2019

00000000800062dc <i_6082>:
    800062dc:	00000013          	nop

00000000800062e0 <i_6083>:
    800062e0:	036a5663          	ble	s6,s4,8000630c <i_6093>

00000000800062e4 <i_6084>:
    800062e4:	0d011e03          	lh	t3,208(sp)

00000000800062e8 <i_6085>:
    800062e8:	fc013203          	ld	tp,-64(sp)

00000000800062ec <i_6086>:
    800062ec:	008dec63          	bltu	s11,s0,80006304 <i_6091>

00000000800062f0 <i_6087>:
    800062f0:	00130313          	addi	t1,t1,1
    800062f4:	fef344e3          	blt	t1,a5,800062dc <i_6082>

00000000800062f8 <i_6088>:
    800062f8:	e2414a83          	lbu	s5,-476(sp)

00000000800062fc <i_6089>:
    800062fc:	009e4863          	blt	t3,s1,8000630c <i_6093>

0000000080006300 <i_6090>:
    80006300:	0027dc93          	srli	s9,a5,0x2

0000000080006304 <i_6091>:
    80006304:	010a6c63          	bltu	s4,a6,8000631c <i_6097>

0000000080006308 <i_6092>:
    80006308:	035a6063          	bltu	s4,s5,80006328 <i_6100>

000000008000630c <i_6093>:
    8000630c:	fbe14b83          	lbu	s7,-66(sp)

0000000080006310 <i_6094>:
    80006310:	0cc16783          	lwu	a5,204(sp)

0000000080006314 <i_6095>:
    80006314:	019f7e63          	bleu	s9,t5,80006330 <i_6102>

0000000080006318 <i_6096>:
    80006318:	01981863          	bne	a6,s9,80006328 <i_6100>

000000008000631c <i_6097>:
    8000631c:	025cd263          	ble	t0,s9,80006340 <i_6106>

0000000080006320 <i_6098>:
    80006320:	006a5a63          	ble	t1,s4,80006334 <i_6103>

0000000080006324 <i_6099>:
    80006324:	443cc793          	xori	a5,s9,1091

0000000080006328 <i_6100>:
    80006328:	00fcc263          	blt	s9,a5,8000632c <i_6101>

000000008000632c <i_6101>:
    8000632c:	0197ee63          	bltu	a5,s9,80006348 <i_6108>

0000000080006330 <i_6102>:
    80006330:	001c9793          	slli	a5,s9,0x1

0000000080006334 <i_6103>:
    80006334:	0197f863          	bleu	s9,a5,80006344 <i_6107>

0000000080006338 <i_6104>:
    80006338:	00100c93          	li	s9,1

000000008000633c <i_6105>:
    8000633c:	019457b3          	srl	a5,s0,s9

0000000080006340 <i_6106>:
    80006340:	11512c23          	sw	s5,280(sp)

0000000080006344 <i_6107>:
    80006344:	fce14083          	lbu	ra,-50(sp)

0000000080006348 <i_6108>:
    80006348:	ff913423          	sd	s9,-24(sp)

000000008000634c <i_6109>:
    8000634c:	0023131b          	slliw	t1,t1,0x2

0000000080006350 <i_6110>:
    80006350:	0a812083          	lw	ra,168(sp)

0000000080006354 <i_6111>:
    80006354:	021ca0b3          	mulhsu	ra,s9,ra

0000000080006358 <i_6112>:
    80006358:	1a811783          	lh	a5,424(sp)

000000008000635c <i_6113>:
    8000635c:	b4878e13          	addi	t3,a5,-1208

0000000080006360 <i_6114>:
    80006360:	03912a23          	sw	s9,52(sp)

0000000080006364 <i_6115>:
    80006364:	88000513          	li	a0,-1920

0000000080006368 <i_6116>:
    80006368:	88c00a93          	li	s5,-1908

000000008000636c <i_6117>:
    8000636c:	ee815c83          	lhu	s9,-280(sp)

0000000080006370 <i_6118>:
    80006370:	04013303          	ld	t1,64(sp)

0000000080006374 <i_6119>:
    80006374:	f0c16c83          	lwu	s9,-244(sp)

0000000080006378 <i_6120>:
    80006378:	019e0863          	beq	t3,s9,80006388 <i_6124>

000000008000637c <i_6121>:
    8000637c:	06611a23          	sh	t1,116(sp)

0000000080006380 <i_6122>:
    80006380:	f4211383          	lh	t2,-190(sp)

0000000080006384 <i_6123>:
    80006384:	06c12303          	lw	t1,108(sp)

0000000080006388 <i_6124>:
    80006388:	004cd393          	srli	t2,s9,0x4

000000008000638c <i_6125>:
    8000638c:	0273d463          	ble	t2,t2,800063b4 <i_6134>

0000000080006390 <i_6126>:
    80006390:	00150513          	addi	a0,a0,1
    80006394:	fcaadce3          	ble	a0,s5,8000636c <i_6117>

0000000080006398 <i_6127>:
    80006398:	006c8e63          	beq	s9,t1,800063b4 <i_6134>

000000008000639c <i_6128>:
    8000639c:	00736a63          	bltu	t1,t2,800063b0 <i_6133>

00000000800063a0 <i_6129>:
    800063a0:	f2c10c03          	lb	s8,-212(sp)

00000000800063a4 <i_6130>:
    800063a4:	0c638813          	addi	a6,t2,198 # 1e8ca0c6 <main-0x61735f3a>

00000000800063a8 <i_6131>:
    800063a8:	02641263          	bne	s0,t1,800063cc <i_6140>

00000000800063ac <i_6132>:
    800063ac:	026c2c33          	mulhsu	s8,s8,t1

00000000800063b0 <i_6133>:
    800063b0:	0043979b          	slliw	a5,t2,0x4

00000000800063b4 <i_6134>:
    800063b4:	40335313          	srai	t1,t1,0x3

00000000800063b8 <i_6135>:
    800063b8:	1b812e23          	sw	s8,444(sp)

00000000800063bc <i_6136>:
    800063bc:	0267c263          	blt	a5,t1,800063e0 <i_6145>

00000000800063c0 <i_6137>:
    800063c0:	f0c16a83          	lwu	s5,-244(sp)

00000000800063c4 <i_6138>:
    800063c4:	f3412383          	lw	t2,-204(sp)

00000000800063c8 <i_6139>:
    800063c8:	01100393          	li	t2,17

00000000800063cc <i_6140>:
    800063cc:	4077dab3          	sra	s5,a5,t2

00000000800063d0 <i_6141>:
    800063d0:	01a00993          	li	s3,26

00000000800063d4 <i_6142>:
    800063d4:	0137d5bb          	srlw	a1,a5,s3

00000000800063d8 <i_6143>:
    800063d8:	0155fc63          	bleu	s5,a1,800063f0 <i_6149>

00000000800063dc <i_6144>:
    800063dc:	40b98db3          	sub	s11,s3,a1

00000000800063e0 <i_6145>:
    800063e0:	0c415583          	lhu	a1,196(sp)

00000000800063e4 <i_6146>:
    800063e4:	013ddc63          	ble	s3,s11,800063fc <i_6152>

00000000800063e8 <i_6147>:
    800063e8:	017be5b3          	or	a1,s7,s7

00000000800063ec <i_6148>:
    800063ec:	01a424b3          	slt	s1,s0,s10

00000000800063f0 <i_6149>:
    800063f0:	05615583          	lhu	a1,86(sp)

00000000800063f4 <i_6150>:
    800063f4:	00000013          	nop

00000000800063f8 <i_6151>:
    800063f8:	ff813e03          	ld	t3,-8(sp)

00000000800063fc <i_6152>:
    800063fc:	00000013          	nop

0000000080006400 <i_6153>:
    80006400:	04412483          	lw	s1,68(sp)

0000000080006404 <i_6154>:
    80006404:	8c300b93          	li	s7,-1853

0000000080006408 <i_6155>:
    80006408:	8cd00613          	li	a2,-1843

000000008000640c <i_6156>:
    8000640c:	e9c11e23          	sh	t3,-356(sp)

0000000080006410 <i_6157>:
    80006410:	029d9cb3          	mulh	s9,s11,s1

0000000080006414 <i_6158>:
    80006414:	03bb8063          	beq	s7,s11,80006434 <i_6165>

0000000080006418 <i_6159>:
    80006418:	001b8b93          	addi	s7,s7,1
    8000641c:	fecbc8e3          	blt	s7,a2,8000640c <i_6156>

0000000080006420 <i_6160>:
    80006420:	41c2023b          	subw	tp,tp,t3

0000000080006424 <i_6161>:
    80006424:	edc12483          	lw	s1,-292(sp)

0000000080006428 <i_6162>:
    80006428:	00000013          	nop

000000008000642c <i_6163>:
    8000642c:	f5813983          	ld	s3,-168(sp)

0000000080006430 <i_6164>:
    80006430:	0389cc33          	div	s8,s3,s8

0000000080006434 <i_6165>:
    80006434:	00898533          	add	a0,s3,s0

0000000080006438 <i_6166>:
    80006438:	01500813          	li	a6,21

000000008000643c <i_6167>:
    8000643c:	0103ddbb          	srlw	s11,t2,a6

0000000080006440 <i_6168>:
    80006440:	7cd00e13          	li	t3,1997

0000000080006444 <i_6169>:
    80006444:	7da00593          	li	a1,2010

0000000080006448 <i_6170>:
    80006448:	00000013          	nop

000000008000644c <i_6171>:
    8000644c:	81b00293          	li	t0,-2021

0000000080006450 <i_6172>:
    80006450:	82c00993          	li	s3,-2004

0000000080006454 <i_6173>:
    80006454:	0399b4b3          	mulhu	s1,s3,s9

0000000080006458 <i_6174>:
    80006458:	00128293          	addi	t0,t0,1
    8000645c:	ff32cce3          	blt	t0,s3,80006454 <i_6173>

0000000080006460 <i_6175>:
    80006460:	00000013          	nop

0000000080006464 <i_6176>:
    80006464:	06a13c23          	sd	a0,120(sp)

0000000080006468 <i_6177>:
    80006468:	0308083b          	mulw	a6,a6,a6

000000008000646c <i_6178>:
    8000646c:	001e0e13          	addi	t3,t3,1 # 4be5d001 <main-0x341a2fff>
    80006470:	fdc5fae3          	bleu	t3,a1,80006444 <i_6169>

0000000080006474 <i_6179>:
    80006474:	e7314803          	lbu	a6,-397(sp)

0000000080006478 <i_6180>:
    80006478:	01049a63          	bne	s1,a6,8000648c <i_6185>

000000008000647c <i_6181>:
    8000647c:	03085ebb          	divuw	t4,a6,a6

0000000080006480 <i_6182>:
    80006480:	16013803          	ld	a6,352(sp)

0000000080006484 <i_6183>:
    80006484:	01d80c63          	beq	a6,t4,8000649c <i_6189>

0000000080006488 <i_6184>:
    80006488:	01084e63          	blt	a6,a6,800064a4 <i_6191>

000000008000648c <i_6185>:
    8000648c:	f0e15583          	lhu	a1,-242(sp)

0000000080006490 <i_6186>:
    80006490:	418805b3          	sub	a1,a6,s8

0000000080006494 <i_6187>:
    80006494:	e5013803          	ld	a6,-432(sp)

0000000080006498 <i_6188>:
    80006498:	030ee063          	bltu	t4,a6,800064b8 <i_6196>

000000008000649c <i_6189>:
    8000649c:	00285493          	srli	s1,a6,0x2

00000000800064a0 <i_6190>:
    800064a0:	f7412303          	lw	t1,-140(sp)

00000000800064a4 <i_6191>:
    800064a4:	13a11803          	lh	a6,314(sp)

00000000800064a8 <i_6192>:
    800064a8:	e7615083          	lhu	ra,-394(sp)

00000000800064ac <i_6193>:
    800064ac:	eac16383          	lwu	t2,-340(sp)

00000000800064b0 <i_6194>:
    800064b0:	14215083          	lhu	ra,322(sp)

00000000800064b4 <i_6195>:
    800064b4:	13211803          	lh	a6,306(sp)

00000000800064b8 <i_6196>:
    800064b8:	04013503          	ld	a0,64(sp)

00000000800064bc <i_6197>:
    800064bc:	00613823          	sd	t1,16(sp)

00000000800064c0 <i_6198>:
    800064c0:	e6416283          	lwu	t0,-412(sp)

00000000800064c4 <i_6199>:
    800064c4:	034844b3          	div	s1,a6,s4

00000000800064c8 <i_6200>:
    800064c8:	05814503          	lbu	a0,88(sp)

00000000800064cc <i_6201>:
    800064cc:	f3e11803          	lh	a6,-194(sp)

00000000800064d0 <i_6202>:
    800064d0:	f521b193          	sltiu	gp,gp,-174

00000000800064d4 <i_6203>:
    800064d4:	aad73db7          	lui	s11,0xaad73

00000000800064d8 <i_6204>:
    800064d8:	03757263          	bleu	s7,a0,800064fc <i_6213>

00000000800064dc <i_6205>:
    800064dc:	06d14483          	lbu	s1,109(sp)

00000000800064e0 <i_6206>:
    800064e0:	01b19c63          	bne	gp,s11,800064f8 <i_6212>

00000000800064e4 <i_6207>:
    800064e4:	00a59a63          	bne	a1,a0,800064f8 <i_6212>

00000000800064e8 <i_6208>:
    800064e8:	16813183          	ld	gp,360(sp)

00000000800064ec <i_6209>:
    800064ec:	40be843b          	subw	s0,t4,a1

00000000800064f0 <i_6210>:
    800064f0:	1a913023          	sd	s1,416(sp)

00000000800064f4 <i_6211>:
    800064f4:	0b812b83          	lw	s7,184(sp)

00000000800064f8 <i_6212>:
    800064f8:	00000013          	nop

00000000800064fc <i_6213>:
    800064fc:	03857bb3          	remu	s7,a0,s8

0000000080006500 <i_6214>:
    80006500:	03bc21b3          	mulhsu	gp,s8,s11

0000000080006504 <i_6215>:
    80006504:	76400213          	li	tp,1892

0000000080006508 <i_6216>:
    80006508:	76800c13          	li	s8,1896

000000008000650c <i_6217>:
    8000650c:	017dfa63          	bleu	s7,s11,80006520 <i_6222>

0000000080006510 <i_6218>:
    80006510:	023525b3          	mulhsu	a1,a0,gp

0000000080006514 <i_6219>:
    80006514:	f3710e23          	sb	s7,-196(sp)

0000000080006518 <i_6220>:
    80006518:	fe212823          	sw	sp,-16(sp)

000000008000651c <i_6221>:
    8000651c:	01018e33          	add	t3,gp,a6

0000000080006520 <i_6222>:
    80006520:	82842313          	slti	t1,s0,-2008

0000000080006524 <i_6223>:
    80006524:	1e913423          	sd	s1,488(sp)

0000000080006528 <i_6224>:
    80006528:	03813803          	ld	a6,56(sp)

000000008000652c <i_6225>:
    8000652c:	0026561b          	srliw	a2,a2,0x2

0000000080006530 <i_6226>:
    80006530:	02c0f463          	bleu	a2,ra,80006558 <i_6235>

0000000080006534 <i_6227>:
    80006534:	00686e63          	bltu	a6,t1,80006550 <i_6233>

0000000080006538 <i_6228>:
    80006538:	0f813183          	ld	gp,248(sp)

000000008000653c <i_6229>:
    8000653c:	00120213          	addi	tp,tp,1 # 1 <main-0x7fffffff>
    80006540:	fd8246e3          	blt	tp,s8,8000650c <i_6217>

0000000080006544 <i_6230>:
    80006544:	f3812a83          	lw	s5,-200(sp)

0000000080006548 <i_6231>:
    80006548:	034a45b3          	div	a1,s4,s4

000000008000654c <i_6232>:
    8000654c:	e5412223          	sw	s4,-444(sp)

0000000080006550 <i_6233>:
    80006550:	02ba7ab3          	remu	s5,s4,a1

0000000080006554 <i_6234>:
    80006554:	00000013          	nop

0000000080006558 <i_6235>:
    80006558:	0030949b          	slliw	s1,ra,0x3

000000008000655c <i_6236>:
    8000655c:	00000013          	nop

0000000080006560 <i_6237>:
    80006560:	80e00813          	li	a6,-2034

0000000080006564 <i_6238>:
    80006564:	81000a13          	li	s4,-2032

0000000080006568 <i_6239>:
    80006568:	01015303          	lhu	t1,16(sp)

000000008000656c <i_6240>:
    8000656c:	faa14083          	lbu	ra,-86(sp)

0000000080006570 <i_6241>:
    80006570:	87c00593          	li	a1,-1924

0000000080006574 <i_6242>:
    80006574:	88800d93          	li	s11,-1912

0000000080006578 <i_6243>:
    80006578:	00209493          	slli	s1,ra,0x2

000000008000657c <i_6244>:
    8000657c:	03f08863          	beq	ra,t6,800065ac <i_6254>

0000000080006580 <i_6245>:
    80006580:	1be14203          	lbu	tp,446(sp)

0000000080006584 <i_6246>:
    80006584:	02956663          	bltu	a0,s1,800065b0 <i_6255>

0000000080006588 <i_6247>:
    80006588:	00158593          	addi	a1,a1,1 # ffffffffd958e001 <_end+0xffffffff5957dbed>
    8000658c:	ffb596e3          	bne	a1,s11,80006578 <i_6243>

0000000080006590 <i_6248>:
    80006590:	19c12083          	lw	ra,412(sp)

0000000080006594 <i_6249>:
    80006594:	00180813          	addi	a6,a6,1
    80006598:	fd0a58e3          	ble	a6,s4,80006568 <i_6239>

000000008000659c <i_6250>:
    8000659c:	0a413c23          	sd	tp,184(sp)

00000000800065a0 <i_6251>:
    800065a0:	018c0463          	beq	s8,s8,800065a8 <i_6253>

00000000800065a4 <i_6252>:
    800065a4:	fb013303          	ld	t1,-80(sp)

00000000800065a8 <i_6253>:
    800065a8:	00455a63          	ble	tp,a0,800065bc <i_6258>

00000000800065ac <i_6254>:
    800065ac:	02411823          	sh	tp,48(sp)

00000000800065b0 <i_6255>:
    800065b0:	40a50dbb          	subw	s11,a0,a0

00000000800065b4 <i_6256>:
    800065b4:	02ad8063          	beq	s11,a0,800065d4 <i_6264>

00000000800065b8 <i_6257>:
    800065b8:	02457c3b          	remuw	s8,a0,tp

00000000800065bc <i_6258>:
    800065bc:	11210523          	sb	s2,266(sp)

00000000800065c0 <i_6259>:
    800065c0:	16015803          	lhu	a6,352(sp)

00000000800065c4 <i_6260>:
    800065c4:	00000013          	nop

00000000800065c8 <i_6261>:
    800065c8:	0242663b          	remw	a2,tp,tp

00000000800065cc <i_6262>:
    800065cc:	01d00c13          	li	s8,29

00000000800065d0 <i_6263>:
    800065d0:	41865a33          	sra	s4,a2,s8

00000000800065d4 <i_6264>:
    800065d4:	19f14c03          	lbu	s8,415(sp)

00000000800065d8 <i_6265>:
    800065d8:	038c50b3          	divu	ra,s8,s8

00000000800065dc <i_6266>:
    800065dc:	7a400d93          	li	s11,1956

00000000800065e0 <i_6267>:
    800065e0:	7a700213          	li	tp,1959

00000000800065e4 <i_6268>:
    800065e4:	001c5293          	srli	t0,s8,0x1

00000000800065e8 <i_6269>:
    800065e8:	001d8d93          	addi	s11,s11,1 # ffffffffaad73001 <_end+0xffffffff2ad62bed>
    800065ec:	fe4d9ce3          	bne	s11,tp,800065e4 <i_6268>

00000000800065f0 <i_6270>:
    800065f0:	03811e23          	sh	s8,60(sp)

00000000800065f4 <i_6271>:
    800065f4:	06412c03          	lw	s8,100(sp)

00000000800065f8 <i_6272>:
    800065f8:	03885c3b          	divuw	s8,a6,s8

00000000800065fc <i_6273>:
    800065fc:	7f000d93          	li	s11,2032

0000000080006600 <i_6274>:
    80006600:	7fc00e13          	li	t3,2044

0000000080006604 <i_6275>:
    80006604:	410c083b          	subw	a6,s8,a6

0000000080006608 <i_6276>:
    80006608:	e95a051b          	addiw	a0,s4,-363

000000008000660c <i_6277>:
    8000660c:	02209c33          	mulh	s8,ra,sp

0000000080006610 <i_6278>:
    80006610:	03654633          	div	a2,a0,s6

0000000080006614 <i_6279>:
    80006614:	02351063          	bne	a0,gp,80006634 <i_6287>

0000000080006618 <i_6280>:
    80006618:	f8c13823          	sd	a2,-112(sp)

000000008000661c <i_6281>:
    8000661c:	fee10783          	lb	a5,-18(sp)

0000000080006620 <i_6282>:
    80006620:	d6b7e337          	lui	t1,0xd6b7e

0000000080006624 <i_6283>:
    80006624:	f8613c23          	sd	t1,-104(sp)

0000000080006628 <i_6284>:
    80006628:	02611623          	sh	t1,44(sp)

000000008000662c <i_6285>:
    8000662c:	50323637          	lui	a2,0x50323

0000000080006630 <i_6286>:
    80006630:	f6214783          	lbu	a5,-158(sp)

0000000080006634 <i_6287>:
    80006634:	40f30c3b          	subw	s8,t1,a5

0000000080006638 <i_6288>:
    80006638:	0387d2bb          	divuw	t0,a5,s8

000000008000663c <i_6289>:
    8000663c:	0252e33b          	remw	t1,t0,t0

0000000080006640 <i_6290>:
    80006640:	038511b3          	mulh	gp,a0,s8

0000000080006644 <i_6291>:
    80006644:	001d8d93          	addi	s11,s11,1
    80006648:	fbbe7ee3          	bleu	s11,t3,80006604 <i_6275>

000000008000664c <i_6292>:
    8000664c:	fd813283          	ld	t0,-40(sp)

0000000080006650 <i_6293>:
    80006650:	f7614283          	lbu	t0,-138(sp)

0000000080006654 <i_6294>:
    80006654:	7ca1e293          	ori	t0,gp,1994

0000000080006658 <i_6295>:
    80006658:	e2614783          	lbu	a5,-474(sp)

000000008000665c <i_6296>:
    8000665c:	0042c1b3          	xor	gp,t0,tp

0000000080006660 <i_6297>:
    80006660:	04d28513          	addi	a0,t0,77

0000000080006664 <i_6298>:
    80006664:	f9013783          	ld	a5,-112(sp)

0000000080006668 <i_6299>:
    80006668:	006e0e33          	add	t3,t3,t1

000000008000666c <i_6300>:
    8000666c:	6fab0ab7          	lui	s5,0x6fab0

0000000080006670 <i_6301>:
    80006670:	403c5e9b          	sraiw	t4,s8,0x3

0000000080006674 <i_6302>:
    80006674:	01dee863          	bltu	t4,t4,80006684 <i_6306>

0000000080006678 <i_6303>:
    80006678:	f9610203          	lb	tp,-106(sp)

000000008000667c <i_6304>:
    8000667c:	1a511123          	sh	t0,418(sp)

0000000080006680 <i_6305>:
    80006680:	18416b83          	lwu	s7,388(sp)

0000000080006684 <i_6306>:
    80006684:	01cc4863          	blt	s8,t3,80006694 <i_6310>

0000000080006688 <i_6307>:
    80006688:	03813e83          	ld	t4,56(sp)

000000008000668c <i_6308>:
    8000668c:	03728e33          	mul	t3,t0,s7

0000000080006690 <i_6309>:
    80006690:	004cdb9b          	srliw	s7,s9,0x4

0000000080006694 <i_6310>:
    80006694:	00000013          	nop

0000000080006698 <i_6311>:
    80006698:	14714e03          	lbu	t3,327(sp)

000000008000669c <i_6312>:
    8000669c:	8c200c93          	li	s9,-1854

00000000800066a0 <i_6313>:
    800066a0:	8d200a93          	li	s5,-1838

00000000800066a4 <i_6314>:
    800066a4:	4d2cfe13          	andi	t3,s9,1234

00000000800066a8 <i_6315>:
    800066a8:	003cde1b          	srliw	t3,s9,0x3

00000000800066ac <i_6316>:
    800066ac:	f2b13023          	sd	a1,-224(sp)

00000000800066b0 <i_6317>:
    800066b0:	0dc13823          	sd	t3,208(sp)

00000000800066b4 <i_6318>:
    800066b4:	ef013803          	ld	a6,-272(sp)

00000000800066b8 <i_6319>:
    800066b8:	f3d14803          	lbu	a6,-195(sp)

00000000800066bc <i_6320>:
    800066bc:	0f813083          	ld	ra,248(sp)

00000000800066c0 <i_6321>:
    800066c0:	f1512c23          	sw	s5,-232(sp)

00000000800066c4 <i_6322>:
    800066c4:	01284e33          	xor	t3,a6,s2

00000000800066c8 <i_6323>:
    800066c8:	0012c833          	xor	a6,t0,ra

00000000800066cc <i_6324>:
    800066cc:	001c8c93          	addi	s9,s9,1
    800066d0:	fd9afae3          	bleu	s9,s5,800066a4 <i_6314>

00000000800066d4 <i_6325>:
    800066d4:	404e5493          	srai	s1,t3,0x4

00000000800066d8 <i_6326>:
    800066d8:	00129413          	slli	s0,t0,0x1

00000000800066dc <i_6327>:
    800066dc:	16416c03          	lwu	s8,356(sp)

00000000800066e0 <i_6328>:
    800066e0:	15514483          	lbu	s1,341(sp)

00000000800066e4 <i_6329>:
    800066e4:	04912a23          	sw	s1,84(sp)

00000000800066e8 <i_6330>:
    800066e8:	01215803          	lhu	a6,18(sp)

00000000800066ec <i_6331>:
    800066ec:	17c12c03          	lw	s8,380(sp)

00000000800066f0 <i_6332>:
    800066f0:	e7c16983          	lwu	s3,-388(sp)

00000000800066f4 <i_6333>:
    800066f4:	41848cb3          	sub	s9,s1,s8

00000000800066f8 <i_6334>:
    800066f8:	401c5d9b          	sraiw	s11,s8,0x1

00000000800066fc <i_6335>:
    800066fc:	06c12603          	lw	a2,108(sp)

0000000080006700 <i_6336>:
    80006700:	008dbdb3          	sltu	s11,s11,s0

0000000080006704 <i_6337>:
    80006704:	0db13823          	sd	s11,208(sp)

0000000080006708 <i_6338>:
    80006708:	02965463          	ble	s1,a2,80006730 <i_6348>

000000008000670c <i_6339>:
    8000670c:	0099ce63          	blt	s3,s1,80006728 <i_6346>

0000000080006710 <i_6340>:
    80006710:	f2812a23          	sw	s0,-204(sp)

0000000080006714 <i_6341>:
    80006714:	02890263          	beq	s2,s0,80006738 <i_6350>

0000000080006718 <i_6342>:
    80006718:	0139fe63          	bleu	s3,s3,80006734 <i_6349>

000000008000671c <i_6343>:
    8000671c:	008b2cb3          	slt	s9,s6,s0

0000000080006720 <i_6344>:
    80006720:	1572f637          	lui	a2,0x1572f

0000000080006724 <i_6345>:
    80006724:	18710483          	lb	s1,391(sp)

0000000080006728 <i_6346>:
    80006728:	31ac8c1b          	addiw	s8,s9,794

000000008000672c <i_6347>:
    8000672c:	09514783          	lbu	a5,149(sp)

0000000080006730 <i_6348>:
    80006730:	08415c83          	lhu	s9,132(sp)

0000000080006734 <i_6349>:
    80006734:	02011c83          	lh	s9,32(sp)

0000000080006738 <i_6350>:
    80006738:	00600793          	li	a5,6

000000008000673c <i_6351>:
    8000673c:	00f4d4bb          	srlw	s1,s1,a5

0000000080006740 <i_6352>:
    80006740:	130d4c93          	xori	s9,s10,304

0000000080006744 <i_6353>:
    80006744:	03b23eb3          	mulhu	t4,tp,s11

0000000080006748 <i_6354>:
    80006748:	85600d93          	li	s11,-1962

000000008000674c <i_6355>:
    8000674c:	85900213          	li	tp,-1959

0000000080006750 <i_6356>:
    80006750:	01500393          	li	t2,21

0000000080006754 <i_6357>:
    80006754:	0079163b          	sllw	a2,s2,t2

0000000080006758 <i_6358>:
    80006758:	e9d13823          	sd	t4,-368(sp)

000000008000675c <i_6359>:
    8000675c:	007efe63          	bleu	t2,t4,80006778 <i_6366>

0000000080006760 <i_6360>:
    80006760:	027dae33          	mulhsu	t3,s11,t2

0000000080006764 <i_6361>:
    80006764:	01dbe863          	bltu	s7,t4,80006774 <i_6365>

0000000080006768 <i_6362>:
    80006768:	ff913c23          	sd	s9,-8(sp)

000000008000676c <i_6363>:
    8000676c:	00c27c33          	and	s8,tp,a2

0000000080006770 <i_6364>:
    80006770:	02a10a23          	sb	a0,52(sp)

0000000080006774 <i_6365>:
    80006774:	00712e23          	sw	t2,28(sp)

0000000080006778 <i_6366>:
    80006778:	00000013          	nop

000000008000677c <i_6367>:
    8000677c:	a279e637          	lui	a2,0xa279e

0000000080006780 <i_6368>:
    80006780:	03060663          	beq	a2,a6,800067ac <i_6378>

0000000080006784 <i_6369>:
    80006784:	02cf6663          	bltu	t5,a2,800067b0 <i_6379>

0000000080006788 <i_6370>:
    80006788:	02012603          	lw	a2,32(sp)

000000008000678c <i_6371>:
    8000678c:	e3416a03          	lwu	s4,-460(sp)

0000000080006790 <i_6372>:
    80006790:	001d8d93          	addi	s11,s11,1
    80006794:	fbb27ee3          	bleu	s11,tp,80006750 <i_6356>

0000000080006798 <i_6373>:
    80006798:	17413823          	sd	s4,368(sp)

000000008000679c <i_6374>:
    8000679c:	0cc11023          	sh	a2,192(sp)

00000000800067a0 <i_6375>:
    800067a0:	0040921b          	slliw	tp,ra,0x4

00000000800067a4 <i_6376>:
    800067a4:	16411c03          	lh	s8,356(sp)

00000000800067a8 <i_6377>:
    800067a8:	00c64263          	blt	a2,a2,800067ac <i_6378>

00000000800067ac <i_6378>:
    800067ac:	038277b3          	remu	a5,tp,s8

00000000800067b0 <i_6379>:
    800067b0:	fab10083          	lb	ra,-85(sp)

00000000800067b4 <i_6380>:
    800067b4:	17810ba3          	sb	s8,375(sp)

00000000800067b8 <i_6381>:
    800067b8:	f2510583          	lb	a1,-219(sp)

00000000800067bc <i_6382>:
    800067bc:	02f9b9b3          	mulhu	s3,s3,a5

00000000800067c0 <i_6383>:
    800067c0:	0d813783          	ld	a5,216(sp)

00000000800067c4 <i_6384>:
    800067c4:	fc810c23          	sb	s0,-40(sp)

00000000800067c8 <i_6385>:
    800067c8:	01013983          	ld	s3,16(sp)

00000000800067cc <i_6386>:
    800067cc:	40f989bb          	subw	s3,s3,a5

00000000800067d0 <i_6387>:
    800067d0:	0d610603          	lb	a2,214(sp)

00000000800067d4 <i_6388>:
    800067d4:	02c64063          	blt	a2,a2,800067f4 <i_6396>

00000000800067d8 <i_6389>:
    800067d8:	1d311c23          	sh	s3,472(sp)

00000000800067dc <i_6390>:
    800067dc:	03a11603          	lh	a2,58(sp)

00000000800067e0 <i_6391>:
    800067e0:	4049d793          	srai	a5,s3,0x4

00000000800067e4 <i_6392>:
    800067e4:	00000013          	nop

00000000800067e8 <i_6393>:
    800067e8:	09110e03          	lb	t3,145(sp)

00000000800067ec <i_6394>:
    800067ec:	9d2e4e93          	xori	t4,t3,-1582

00000000800067f0 <i_6395>:
    800067f0:	01e58e33          	add	t3,a1,t5

00000000800067f4 <i_6396>:
    800067f4:	0cc16783          	lwu	a5,204(sp)

00000000800067f8 <i_6397>:
    800067f8:	02be4ebb          	divw	t4,t3,a1

00000000800067fc <i_6398>:
    800067fc:	81800993          	li	s3,-2024

0000000080006800 <i_6399>:
    80006800:	81b00093          	li	ra,-2021

0000000080006804 <i_6400>:
    80006804:	00000013          	nop

0000000080006808 <i_6401>:
    80006808:	00000013          	nop

000000008000680c <i_6402>:
    8000680c:	e489a613          	slti	a2,s3,-440

0000000080006810 <i_6403>:
    80006810:	ee013783          	ld	a5,-288(sp)

0000000080006814 <i_6404>:
    80006814:	00198993          	addi	s3,s3,1 # ffffffff80224001 <_end+0xffffffff00213bed>
    80006818:	fe19c6e3          	blt	s3,ra,80006804 <i_6400>

000000008000681c <i_6405>:
    8000681c:	02f093b3          	mulh	t2,ra,a5

0000000080006820 <i_6406>:
    80006820:	403e539b          	sraiw	t2,t3,0x3

0000000080006824 <i_6407>:
    80006824:	0f311623          	sh	s3,236(sp)

0000000080006828 <i_6408>:
    80006828:	0330e0bb          	remw	ra,ra,s3

000000008000682c <i_6409>:
    8000682c:	0029da93          	srli	s5,s3,0x2

0000000080006830 <i_6410>:
    80006830:	ffa11123          	sh	s10,-30(sp)

0000000080006834 <i_6411>:
    80006834:	0350d63b          	divuw	a2,ra,s5

0000000080006838 <i_6412>:
    80006838:	f2063d93          	sltiu	s11,a2,-224

000000008000683c <i_6413>:
    8000683c:	eae11a03          	lh	s4,-338(sp)

0000000080006840 <i_6414>:
    80006840:	0b214583          	lbu	a1,178(sp)

0000000080006844 <i_6415>:
    80006844:	01899863          	bne	s3,s8,80006854 <i_6419>

0000000080006848 <i_6416>:
    80006848:	013a5263          	ble	s3,s4,8000684c <i_6417>

000000008000684c <i_6417>:
    8000684c:	00c5dc63          	ble	a2,a1,80006864 <i_6423>

0000000080006850 <i_6418>:
    80006850:	00b7d263          	ble	a1,a5,80006854 <i_6419>

0000000080006854 <i_6419>:
    80006854:	8afab313          	sltiu	t1,s5,-1873

0000000080006858 <i_6420>:
    80006858:	eef12823          	sw	a5,-272(sp)

000000008000685c <i_6421>:
    8000685c:	0ba10e03          	lb	t3,186(sp)

0000000080006860 <i_6422>:
    80006860:	eeb13423          	sd	a1,-280(sp)

0000000080006864 <i_6423>:
    80006864:	02e11183          	lh	gp,46(sp)

0000000080006868 <i_6424>:
    80006868:	5bdebe93          	sltiu	t4,t4,1469

000000008000686c <i_6425>:
    8000686c:	7a400313          	li	t1,1956

0000000080006870 <i_6426>:
    80006870:	7ad00593          	li	a1,1965

0000000080006874 <i_6427>:
    80006874:	d943ac93          	slti	s9,t2,-620

0000000080006878 <i_6428>:
    80006878:	f3411423          	sh	s4,-216(sp)

000000008000687c <i_6429>:
    8000687c:	03d3debb          	divuw	t4,t2,t4

0000000080006880 <i_6430>:
    80006880:	0f3cee93          	ori	t4,s9,243

0000000080006884 <i_6431>:
    80006884:	019ef263          	bleu	s9,t4,80006888 <i_6432>

0000000080006888 <i_6432>:
    80006888:	03812383          	lw	t2,56(sp)

000000008000688c <i_6433>:
    8000688c:	00811e83          	lh	t4,8(sp)

0000000080006890 <i_6434>:
    80006890:	00130313          	addi	t1,t1,1 # ffffffffd6b7e001 <_end+0xffffffff56b6dbed>
    80006894:	feb340e3          	blt	t1,a1,80006874 <i_6427>

0000000080006898 <i_6435>:
    80006898:	01dc5c63          	ble	t4,s8,800068b0 <i_6441>

000000008000689c <i_6436>:
    8000689c:	03de9063          	bne	t4,t4,800068bc <i_6444>

00000000800068a0 <i_6437>:
    800068a0:	00000013          	nop

00000000800068a4 <i_6438>:
    800068a4:	00b87833          	and	a6,a6,a1

00000000800068a8 <i_6439>:
    800068a8:	ea013083          	ld	ra,-352(sp)

00000000800068ac <i_6440>:
    800068ac:	10414583          	lbu	a1,260(sp)

00000000800068b0 <i_6441>:
    800068b0:	0045109b          	slliw	ra,a0,0x4

00000000800068b4 <i_6442>:
    800068b4:	021850b3          	divu	ra,a6,ra

00000000800068b8 <i_6443>:
    800068b8:	1d016a83          	lwu	s5,464(sp)

00000000800068bc <i_6444>:
    800068bc:	00000013          	nop

00000000800068c0 <i_6445>:
    800068c0:	00000013          	nop

00000000800068c4 <i_6446>:
    800068c4:	88c00c13          	li	s8,-1908

00000000800068c8 <i_6447>:
    800068c8:	89300e93          	li	t4,-1901

00000000800068cc <i_6448>:
    800068cc:	01300a93          	li	s5,19

00000000800068d0 <i_6449>:
    800068d0:	015999bb          	sllw	s3,s3,s5

00000000800068d4 <i_6450>:
    800068d4:	02bae9b3          	rem	s3,s5,a1

00000000800068d8 <i_6451>:
    800068d8:	f0011a83          	lh	s5,-256(sp)

00000000800068dc <i_6452>:
    800068dc:	ff011783          	lh	a5,-16(sp)

00000000800068e0 <i_6453>:
    800068e0:	402dd59b          	sraiw	a1,s11,0x2

00000000800068e4 <i_6454>:
    800068e4:	1b214603          	lbu	a2,434(sp)

00000000800068e8 <i_6455>:
    800068e8:	01812203          	lw	tp,24(sp)

00000000800068ec <i_6456>:
    800068ec:	e4013383          	ld	t2,-448(sp)

00000000800068f0 <i_6457>:
    800068f0:	001c0c13          	addi	s8,s8,1 # e70e08ad <_end+0x670d0499>
    800068f4:	fd8efce3          	bleu	s8,t4,800068cc <i_6448>

00000000800068f8 <i_6458>:
    800068f8:	fa811803          	lh	a6,-88(sp)

00000000800068fc <i_6459>:
    800068fc:	11511523          	sh	s5,266(sp)

0000000080006900 <i_6460>:
    80006900:	18711723          	sh	t2,398(sp)

0000000080006904 <i_6461>:
    80006904:	06411203          	lh	tp,100(sp)

0000000080006908 <i_6462>:
    80006908:	02727463          	bleu	t2,tp,80006930 <i_6472>

000000008000690c <i_6463>:
    8000690c:	eca15783          	lhu	a5,-310(sp)

0000000080006910 <i_6464>:
    80006910:	9f83839b          	addiw	t2,t2,-1544

0000000080006914 <i_6465>:
    80006914:	ef016083          	lwu	ra,-272(sp)

0000000080006918 <i_6466>:
    80006918:	024783bb          	mulw	t2,a5,tp

000000008000691c <i_6467>:
    8000691c:	ea215083          	lhu	ra,-350(sp)

0000000080006920 <i_6468>:
    80006920:	00f087b3          	add	a5,ra,a5

0000000080006924 <i_6469>:
    80006924:	e6415083          	lhu	ra,-412(sp)

0000000080006928 <i_6470>:
    80006928:	08112a23          	sw	ra,148(sp)

000000008000692c <i_6471>:
    8000692c:	0017e0b3          	or	ra,a5,ra

0000000080006930 <i_6472>:
    80006930:	e7816303          	lwu	t1,-392(sp)

0000000080006934 <i_6473>:
    80006934:	00000013          	nop

0000000080006938 <i_6474>:
    80006938:	00000013          	nop

000000008000693c <i_6475>:
    8000693c:	76c00a13          	li	s4,1900

0000000080006940 <i_6476>:
    80006940:	77700093          	li	ra,1911

0000000080006944 <i_6477>:
    80006944:	026bedbb          	remw	s11,s7,t1

0000000080006948 <i_6478>:
    80006948:	06210803          	lb	a6,98(sp)

000000008000694c <i_6479>:
    8000694c:	73000b93          	li	s7,1840

0000000080006950 <i_6480>:
    80006950:	73b00313          	li	t1,1851

0000000080006954 <i_6481>:
    80006954:	f5413423          	sd	s4,-184(sp)

0000000080006958 <i_6482>:
    80006958:	f9410023          	sb	s4,-128(sp)

000000008000695c <i_6483>:
    8000695c:	28b63a93          	sltiu	s5,a2,651

0000000080006960 <i_6484>:
    80006960:	00000013          	nop

0000000080006964 <i_6485>:
    80006964:	00000013          	nop

0000000080006968 <i_6486>:
    80006968:	2da83413          	sltiu	s0,a6,730

000000008000696c <i_6487>:
    8000696c:	001b8b93          	addi	s7,s7,1
    80006970:	ff7352e3          	ble	s7,t1,80006954 <i_6481>

0000000080006974 <i_6488>:
    80006974:	1d213c23          	sd	s2,472(sp)

0000000080006978 <i_6489>:
    80006978:	02013b83          	ld	s7,32(sp)

000000008000697c <i_6490>:
    8000697c:	001a0a13          	addi	s4,s4,1 # ffffffffc4cf5001 <_end+0xffffffff44ce4bed>
    80006980:	fc1a62e3          	bltu	s4,ra,80006944 <i_6477>

0000000080006984 <i_6491>:
    80006984:	18813803          	ld	a6,392(sp)

0000000080006988 <i_6492>:
    80006988:	008be863          	bltu	s7,s0,80006998 <i_6496>

000000008000698c <i_6493>:
    8000698c:	cce80e9b          	addiw	t4,a6,-818

0000000080006990 <i_6494>:
    80006990:	40485d9b          	sraiw	s11,a6,0x4

0000000080006994 <i_6495>:
    80006994:	410d853b          	subw	a0,s11,a6

0000000080006998 <i_6496>:
    80006998:	00a87c33          	and	s8,a6,a0

000000008000699c <i_6497>:
    8000699c:	08012c03          	lw	s8,128(sp)

00000000800069a0 <i_6498>:
    800069a0:	40495293          	srai	t0,s2,0x4

00000000800069a4 <i_6499>:
    800069a4:	d7d2ad93          	slti	s11,t0,-643

00000000800069a8 <i_6500>:
    800069a8:	01bde2b3          	or	t0,s11,s11

00000000800069ac <i_6501>:
    800069ac:	00000013          	nop

00000000800069b0 <i_6502>:
    800069b0:	7d700d93          	li	s11,2007

00000000800069b4 <i_6503>:
    800069b4:	7dd00213          	li	tp,2013

00000000800069b8 <i_6504>:
    800069b8:	014a2a33          	slt	s4,s4,s4

00000000800069bc <i_6505>:
    800069bc:	00527263          	bleu	t0,tp,800069c0 <i_6506>

00000000800069c0 <i_6506>:
    800069c0:	ec513c23          	sd	t0,-296(sp)

00000000800069c4 <i_6507>:
    800069c4:	00700a93          	li	s5,7

00000000800069c8 <i_6508>:
    800069c8:	415a5a3b          	sraw	s4,s4,s5

00000000800069cc <i_6509>:
    800069cc:	004d9263          	bne	s11,tp,800069d0 <i_6510>

00000000800069d0 <i_6510>:
    800069d0:	b152ab93          	slti	s7,t0,-1259

00000000800069d4 <i_6511>:
    800069d4:	eb412223          	sw	s4,-348(sp)

00000000800069d8 <i_6512>:
    800069d8:	01ba1463          	bne	s4,s11,800069e0 <i_6514>

00000000800069dc <i_6513>:
    800069dc:	18a15e83          	lhu	t4,394(sp)

00000000800069e0 <i_6514>:
    800069e0:	0fc16c03          	lwu	s8,252(sp)

00000000800069e4 <i_6515>:
    800069e4:	7a0aaa93          	slti	s5,s5,1952

00000000800069e8 <i_6516>:
    800069e8:	eb914b83          	lbu	s7,-327(sp)

00000000800069ec <i_6517>:
    800069ec:	0132e9b3          	or	s3,t0,s3

00000000800069f0 <i_6518>:
    800069f0:	001d8d93          	addi	s11,s11,1
    800069f4:	fdb272e3          	bleu	s11,tp,800069b8 <i_6504>

00000000800069f8 <i_6519>:
    800069f8:	fb816583          	lwu	a1,-72(sp)

00000000800069fc <i_6520>:
    800069fc:	00359413          	slli	s0,a1,0x3

0000000080006a00 <i_6521>:
    80006a00:	16410a83          	lb	s5,356(sp)

0000000080006a04 <i_6522>:
    80006a04:	ec013c03          	ld	s8,-320(sp)

0000000080006a08 <i_6523>:
    80006a08:	b40e3b93          	sltiu	s7,t3,-1216

0000000080006a0c <i_6524>:
    80006a0c:	b399e493          	ori	s1,s3,-1223

0000000080006a10 <i_6525>:
    80006a10:	e7a11e03          	lh	t3,-390(sp)

0000000080006a14 <i_6526>:
    80006a14:	0024dc1b          	srliw	s8,s1,0x2

0000000080006a18 <i_6527>:
    80006a18:	0374d063          	ble	s7,s1,80006a38 <i_6535>

0000000080006a1c <i_6528>:
    80006a1c:	9ee78c13          	addi	s8,a5,-1554

0000000080006a20 <i_6529>:
    80006a20:	00fc7a63          	bleu	a5,s8,80006a34 <i_6534>

0000000080006a24 <i_6530>:
    80006a24:	00178663          	beq	a5,ra,80006a30 <i_6533>

0000000080006a28 <i_6531>:
    80006a28:	029c22b3          	mulhsu	t0,s8,s1

0000000080006a2c <i_6532>:
    80006a2c:	fc614803          	lbu	a6,-58(sp)

0000000080006a30 <i_6533>:
    80006a30:	00f7aab3          	slt	s5,a5,a5

0000000080006a34 <i_6534>:
    80006a34:	415c0bb3          	sub	s7,s8,s5

0000000080006a38 <i_6535>:
    80006a38:	16812b83          	lw	s7,360(sp)

0000000080006a3c <i_6536>:
    80006a3c:	02300213          	li	tp,35

0000000080006a40 <i_6537>:
    80006a40:	4047d233          	sra	tp,a5,tp

0000000080006a44 <i_6538>:
    80006a44:	02414183          	lbu	gp,36(sp)

0000000080006a48 <i_6539>:
    80006a48:	0239c9bb          	divw	s3,s3,gp

0000000080006a4c <i_6540>:
    80006a4c:	7cf00c13          	li	s8,1999

0000000080006a50 <i_6541>:
    80006a50:	7dd00613          	li	a2,2013

0000000080006a54 <i_6542>:
    80006a54:	0e014983          	lbu	s3,224(sp)

0000000080006a58 <i_6543>:
    80006a58:	03500e93          	li	t4,53

0000000080006a5c <i_6544>:
    80006a5c:	41d2d7b3          	sra	a5,t0,t4

0000000080006a60 <i_6545>:
    80006a60:	00000013          	nop

0000000080006a64 <i_6546>:
    80006a64:	04314283          	lbu	t0,67(sp)

0000000080006a68 <i_6547>:
    80006a68:	13d13c23          	sd	t4,312(sp)

0000000080006a6c <i_6548>:
    80006a6c:	001c0c13          	addi	s8,s8,1
    80006a70:	ff8652e3          	ble	s8,a2,80006a54 <i_6542>

0000000080006a74 <i_6549>:
    80006a74:	fa816283          	lwu	t0,-88(sp)

0000000080006a78 <i_6550>:
    80006a78:	4022de1b          	sraiw	t3,t0,0x2

0000000080006a7c <i_6551>:
    80006a7c:	f6e15183          	lhu	gp,-146(sp)

0000000080006a80 <i_6552>:
    80006a80:	402ade1b          	sraiw	t3,s5,0x2

0000000080006a84 <i_6553>:
    80006a84:	8b400593          	li	a1,-1868

0000000080006a88 <i_6554>:
    80006a88:	8c600293          	li	t0,-1850

0000000080006a8c <i_6555>:
    80006a8c:	ecb10523          	sb	a1,-310(sp)

0000000080006a90 <i_6556>:
    80006a90:	01c2c663          	blt	t0,t3,80006a9c <i_6559>

0000000080006a94 <i_6557>:
    80006a94:	402e5e1b          	sraiw	t3,t3,0x2

0000000080006a98 <i_6558>:
    80006a98:	e6511723          	sh	t0,-402(sp)

0000000080006a9c <i_6559>:
    80006a9c:	1b811223          	sh	s8,420(sp)

0000000080006aa0 <i_6560>:
    80006aa0:	10416603          	lwu	a2,260(sp)

0000000080006aa4 <i_6561>:
    80006aa4:	fa211603          	lh	a2,-94(sp)

0000000080006aa8 <i_6562>:
    80006aa8:	77200c13          	li	s8,1906

0000000080006aac <i_6563>:
    80006aac:	77400193          	li	gp,1908

0000000080006ab0 <i_6564>:
    80006ab0:	001c0c13          	addi	s8,s8,1
    80006ab4:	fe3c1ee3          	bne	s8,gp,80006ab0 <i_6564>

0000000080006ab8 <i_6565>:
    80006ab8:	018120b3          	slt	ra,sp,s8

0000000080006abc <i_6566>:
    80006abc:	018c0e63          	beq	s8,s8,80006ad8 <i_6572>

0000000080006ac0 <i_6567>:
    80006ac0:	021c5c33          	divu	s8,s8,ra

0000000080006ac4 <i_6568>:
    80006ac4:	00158593          	addi	a1,a1,1
    80006ac8:	fc55e2e3          	bltu	a1,t0,80006a8c <i_6555>

0000000080006acc <i_6569>:
    80006acc:	41ba8db3          	sub	s11,s5,s11

0000000080006ad0 <i_6570>:
    80006ad0:	1bc12223          	sw	t3,420(sp)

0000000080006ad4 <i_6571>:
    80006ad4:	03f595b3          	mulh	a1,a1,t6

0000000080006ad8 <i_6572>:
    80006ad8:	00bd0a63          	beq	s10,a1,80006aec <i_6577>

0000000080006adc <i_6573>:
    80006adc:	018e1863          	bne	t3,s8,80006aec <i_6577>

0000000080006ae0 <i_6574>:
    80006ae0:	01bdcc33          	xor	s8,s11,s11

0000000080006ae4 <i_6575>:
    80006ae4:	f5f14303          	lbu	t1,-161(sp)

0000000080006ae8 <i_6576>:
    80006ae8:	f9014d83          	lbu	s11,-112(sp)

0000000080006aec <i_6577>:
    80006aec:	fa812a03          	lw	s4,-88(sp)

0000000080006af0 <i_6578>:
    80006af0:	ed411503          	lh	a0,-300(sp)

0000000080006af4 <i_6579>:
    80006af4:	e5016d83          	lwu	s11,-432(sp)

0000000080006af8 <i_6580>:
    80006af8:	40ad8dbb          	subw	s11,s11,a0

0000000080006afc <i_6581>:
    80006afc:	fb813303          	ld	t1,-72(sp)

0000000080006b00 <i_6582>:
    80006b00:	05816983          	lwu	s3,88(sp)

0000000080006b04 <i_6583>:
    80006b04:	e6011503          	lh	a0,-416(sp)

0000000080006b08 <i_6584>:
    80006b08:	0a014303          	lbu	t1,160(sp)

0000000080006b0c <i_6585>:
    80006b0c:	03a15403          	lhu	s0,58(sp)

0000000080006b10 <i_6586>:
    80006b10:	0085d463          	ble	s0,a1,80006b18 <i_6588>

0000000080006b14 <i_6587>:
    80006b14:	0069dc63          	ble	t1,s3,80006b2c <i_6593>

0000000080006b18 <i_6588>:
    80006b18:	01400993          	li	s3,20

0000000080006b1c <i_6589>:
    80006b1c:	01345cbb          	srlw	s9,s0,s3

0000000080006b20 <i_6590>:
    80006b20:	013cb2b3          	sltu	t0,s9,s3

0000000080006b24 <i_6591>:
    80006b24:	ea812983          	lw	s3,-344(sp)

0000000080006b28 <i_6592>:
    80006b28:	fa513c23          	sd	t0,-72(sp)

0000000080006b2c <i_6593>:
    80006b2c:	0059f863          	bleu	t0,s3,80006b3c <i_6597>

0000000080006b30 <i_6594>:
    80006b30:	02600293          	li	t0,38

0000000080006b34 <i_6595>:
    80006b34:	005e92b3          	sll	t0,t4,t0

0000000080006b38 <i_6596>:
    80006b38:	06512023          	sw	t0,96(sp)

0000000080006b3c <i_6597>:
    80006b3c:	00528e63          	beq	t0,t0,80006b58 <i_6604>

0000000080006b40 <i_6598>:
    80006b40:	00528463          	beq	t0,t0,80006b48 <i_6600>

0000000080006b44 <i_6599>:
    80006b44:	0252d463          	ble	t0,t0,80006b6c <i_6609>

0000000080006b48 <i_6600>:
    80006b48:	f8016203          	lwu	tp,-128(sp)

0000000080006b4c <i_6601>:
    80006b4c:	0c310e03          	lb	t3,195(sp)

0000000080006b50 <i_6602>:
    80006b50:	003281b3          	add	gp,t0,gp

0000000080006b54 <i_6603>:
    80006b54:	00500493          	li	s1,5

0000000080006b58 <i_6604>:
    80006b58:	00929e33          	sll	t3,t0,s1

0000000080006b5c <i_6605>:
    80006b5c:	41a08cbb          	subw	s9,ra,s10

0000000080006b60 <i_6606>:
    80006b60:	13615e03          	lhu	t3,310(sp)

0000000080006b64 <i_6607>:
    80006b64:	ef470613          	addi	a2,a4,-268

0000000080006b68 <i_6608>:
    80006b68:	00013803          	ld	a6,0(sp)

0000000080006b6c <i_6609>:
    80006b6c:	02c59063          	bne	a1,a2,80006b8c <i_6617>

0000000080006b70 <i_6610>:
    80006b70:	02381e33          	mulh	t3,a6,gp

0000000080006b74 <i_6611>:
    80006b74:	01065663          	ble	a6,a2,80006b80 <i_6614>

0000000080006b78 <i_6612>:
    80006b78:	761ac093          	xori	ra,s5,1889

0000000080006b7c <i_6613>:
    80006b7c:	00159d9b          	slliw	s11,a1,0x1

0000000080006b80 <i_6614>:
    80006b80:	00c4e233          	or	tp,s1,a2

0000000080006b84 <i_6615>:
    80006b84:	00000013          	nop

0000000080006b88 <i_6616>:
    80006b88:	09813583          	ld	a1,152(sp)

0000000080006b8c <i_6617>:
    80006b8c:	02f350b3          	divu	ra,t1,a5

0000000080006b90 <i_6618>:
    80006b90:	e6816383          	lwu	t2,-408(sp)

0000000080006b94 <i_6619>:
    80006b94:	73b00193          	li	gp,1851

0000000080006b98 <i_6620>:
    80006b98:	74d00793          	li	a5,1869

0000000080006b9c <i_6621>:
    80006b9c:	00000013          	nop

0000000080006ba0 <i_6622>:
    80006ba0:	00118193          	addi	gp,gp,1 # 8578979 <main-0x77a87687>
    80006ba4:	fe37fce3          	bleu	gp,a5,80006b9c <i_6621>

0000000080006ba8 <i_6623>:
    80006ba8:	ec712423          	sw	t2,-312(sp)

0000000080006bac <i_6624>:
    80006bac:	03300213          	li	tp,51

0000000080006bb0 <i_6625>:
    80006bb0:	004cdab3          	srl	s5,s9,tp

0000000080006bb4 <i_6626>:
    80006bb4:	0cc10383          	lb	t2,204(sp)

0000000080006bb8 <i_6627>:
    80006bb8:	0271d3bb          	divuw	t2,gp,t2

0000000080006bbc <i_6628>:
    80006bbc:	00760663          	beq	a2,t2,80006bc8 <i_6631>

0000000080006bc0 <i_6629>:
    80006bc0:	01dde863          	bltu	s11,t4,80006bd0 <i_6633>

0000000080006bc4 <i_6630>:
    80006bc4:	46538213          	addi	tp,t2,1125

0000000080006bc8 <i_6631>:
    80006bc8:	1e412603          	lw	a2,484(sp)

0000000080006bcc <i_6632>:
    80006bcc:	f1410223          	sb	s4,-252(sp)

0000000080006bd0 <i_6633>:
    80006bd0:	08512423          	sw	t0,136(sp)

0000000080006bd4 <i_6634>:
    80006bd4:	100a6813          	ori	a6,s4,256

0000000080006bd8 <i_6635>:
    80006bd8:	07013d83          	ld	s11,112(sp)

0000000080006bdc <i_6636>:
    80006bdc:	39882393          	slti	t2,a6,920

0000000080006be0 <i_6637>:
    80006be0:	001f141b          	slliw	s0,t5,0x1

0000000080006be4 <i_6638>:
    80006be4:	eb813803          	ld	a6,-328(sp)

0000000080006be8 <i_6639>:
    80006be8:	0b813a03          	ld	s4,184(sp)

0000000080006bec <i_6640>:
    80006bec:	81e00b93          	li	s7,-2018

0000000080006bf0 <i_6641>:
    80006bf0:	82800293          	li	t0,-2008

0000000080006bf4 <i_6642>:
    80006bf4:	f6c15183          	lhu	gp,-148(sp)

0000000080006bf8 <i_6643>:
    80006bf8:	e8a15d83          	lhu	s11,-374(sp)

0000000080006bfc <i_6644>:
    80006bfc:	03b3e263          	bltu	t2,s11,80006c20 <i_6652>

0000000080006c00 <i_6645>:
    80006c00:	00467263          	bleu	tp,a2,80006c04 <i_6646>

0000000080006c04 <i_6646>:
    80006c04:	19013983          	ld	s3,400(sp)

0000000080006c08 <i_6647>:
    80006c08:	09d10e83          	lb	t4,157(sp)

0000000080006c0c <i_6648>:
    80006c0c:	001b8b93          	addi	s7,s7,1
    80006c10:	ff72d2e3          	ble	s7,t0,80006bf4 <i_6642>

0000000080006c14 <i_6649>:
    80006c14:	e6ee7613          	andi	a2,t3,-402

0000000080006c18 <i_6650>:
    80006c18:	00ce8863          	beq	t4,a2,80006c28 <i_6654>

0000000080006c1c <i_6651>:
    80006c1c:	ca7ad997          	auipc	s3,0xca7ad

0000000080006c20 <i_6652>:
    80006c20:	03367063          	bleu	s3,a2,80006c40 <i_6660>

0000000080006c24 <i_6653>:
    80006c24:	00000013          	nop

0000000080006c28 <i_6654>:
    80006c28:	03de8a3b          	mulw	s4,t4,t4

0000000080006c2c <i_6655>:
    80006c2c:	e5016803          	lwu	a6,-432(sp)

0000000080006c30 <i_6656>:
    80006c30:	e4813483          	ld	s1,-440(sp)

0000000080006c34 <i_6657>:
    80006c34:	4034d41b          	sraiw	s0,s1,0x3

0000000080006c38 <i_6658>:
    80006c38:	fc710a03          	lb	s4,-57(sp)

0000000080006c3c <i_6659>:
    80006c3c:	00000013          	nop

0000000080006c40 <i_6660>:
    80006c40:	e7c16503          	lwu	a0,-388(sp)

0000000080006c44 <i_6661>:
    80006c44:	00000013          	nop

0000000080006c48 <i_6662>:
    80006c48:	85e00993          	li	s3,-1954

0000000080006c4c <i_6663>:
    80006c4c:	86f00613          	li	a2,-1937

0000000080006c50 <i_6664>:
    80006c50:	4034541b          	sraiw	s0,s0,0x3

0000000080006c54 <i_6665>:
    80006c54:	09810d83          	lb	s11,152(sp)

0000000080006c58 <i_6666>:
    80006c58:	18a13423          	sd	a0,392(sp)

0000000080006c5c <i_6667>:
    80006c5c:	00000013          	nop

0000000080006c60 <i_6668>:
    80006c60:	00000013          	nop

0000000080006c64 <i_6669>:
    80006c64:	00198993          	addi	s3,s3,1 # 4a7b3c1d <main-0x3584c3e3>
    80006c68:	ff3654e3          	ble	s3,a2,80006c50 <i_6664>

0000000080006c6c <i_6670>:
    80006c6c:	01bd84b3          	add	s1,s11,s11

0000000080006c70 <i_6671>:
    80006c70:	ee013483          	ld	s1,-288(sp)

0000000080006c74 <i_6672>:
    80006c74:	009e6a63          	bltu	t3,s1,80006c88 <i_6677>

0000000080006c78 <i_6673>:
    80006c78:	13011823          	sh	a6,304(sp)

0000000080006c7c <i_6674>:
    80006c7c:	bc348e13          	addi	t3,s1,-1085

0000000080006c80 <i_6675>:
    80006c80:	e7c12823          	sw	t3,-400(sp)

0000000080006c84 <i_6676>:
    80006c84:	0c110a83          	lb	s5,193(sp)

0000000080006c88 <i_6677>:
    80006c88:	ed812483          	lw	s1,-296(sp)

0000000080006c8c <i_6678>:
    80006c8c:	b765ca93          	xori	s5,a1,-1162

0000000080006c90 <i_6679>:
    80006c90:	02200a93          	li	s5,34

0000000080006c94 <i_6680>:
    80006c94:	01585ab3          	srl	s5,a6,s5

0000000080006c98 <i_6681>:
    80006c98:	ceba8813          	addi	a6,s5,-789 # 6faafceb <main-0x10550315>

0000000080006c9c <i_6682>:
    80006c9c:	18812483          	lw	s1,392(sp)

0000000080006ca0 <i_6683>:
    80006ca0:	015afe63          	bleu	s5,s5,80006cbc <i_6690>

0000000080006ca4 <i_6684>:
    80006ca4:	029ae463          	bltu	s5,s1,80006ccc <i_6694>

0000000080006ca8 <i_6685>:
    80006ca8:	f3c13497          	auipc	s1,0xf3c13

0000000080006cac <i_6686>:
    80006cac:	00000013          	nop

0000000080006cb0 <i_6687>:
    80006cb0:	403eda9b          	sraiw	s5,t4,0x3

0000000080006cb4 <i_6688>:
    80006cb4:	11c12483          	lw	s1,284(sp)

0000000080006cb8 <i_6689>:
    80006cb8:	ff012a83          	lw	s5,-16(sp)

0000000080006cbc <i_6690>:
    80006cbc:	ed215483          	lhu	s1,-302(sp)

0000000080006cc0 <i_6691>:
    80006cc0:	029ea4b3          	mulhsu	s1,t4,s1

0000000080006cc4 <i_6692>:
    80006cc4:	00000013          	nop

0000000080006cc8 <i_6693>:
    80006cc8:	01000313          	li	t1,16

0000000080006ccc <i_6694>:
    80006ccc:	006493bb          	sllw	t2,s1,t1

0000000080006cd0 <i_6695>:
    80006cd0:	00000013          	nop

0000000080006cd4 <i_6696>:
    80006cd4:	80a00813          	li	a6,-2038

0000000080006cd8 <i_6697>:
    80006cd8:	81a00e93          	li	t4,-2022

0000000080006cdc <i_6698>:
    80006cdc:	00612333          	slt	t1,sp,t1

0000000080006ce0 <i_6699>:
    80006ce0:	00180813          	addi	a6,a6,1
    80006ce4:	ffd86ce3          	bltu	a6,t4,80006cdc <i_6698>

0000000080006ce8 <i_6700>:
    80006ce8:	00709c63          	bne	ra,t2,80006d00 <i_6706>

0000000080006cec <i_6701>:
    80006cec:	f8a15383          	lhu	t2,-118(sp)

0000000080006cf0 <i_6702>:
    80006cf0:	54530493          	addi	s1,t1,1349

0000000080006cf4 <i_6703>:
    80006cf4:	1bc12303          	lw	t1,444(sp)

0000000080006cf8 <i_6704>:
    80006cf8:	fd813483          	ld	s1,-40(sp)

0000000080006cfc <i_6705>:
    80006cfc:	0c613c23          	sd	t1,216(sp)

0000000080006d00 <i_6706>:
    80006d00:	02300493          	li	s1,35

0000000080006d04 <i_6707>:
    80006d04:	4094d333          	sra	t1,s1,s1

0000000080006d08 <i_6708>:
    80006d08:	01c48e33          	add	t3,s1,t3

0000000080006d0c <i_6709>:
    80006d0c:	81b4f613          	andi	a2,s1,-2021

0000000080006d10 <i_6710>:
    80006d10:	10612a23          	sw	t1,276(sp)

0000000080006d14 <i_6711>:
    80006d14:	16911323          	sh	s1,358(sp)

0000000080006d18 <i_6712>:
    80006d18:	ff310783          	lb	a5,-13(sp)

0000000080006d1c <i_6713>:
    80006d1c:	e6813483          	ld	s1,-408(sp)

0000000080006d20 <i_6714>:
    80006d20:	026c67bb          	remw	a5,s8,t1

0000000080006d24 <i_6715>:
    80006d24:	009e24b3          	slt	s1,t3,s1

0000000080006d28 <i_6716>:
    80006d28:	00400c93          	li	s9,4

0000000080006d2c <i_6717>:
    80006d2c:	4194d2bb          	sraw	t0,s1,s9

0000000080006d30 <i_6718>:
    80006d30:	82e00413          	li	s0,-2002

0000000080006d34 <i_6719>:
    80006d34:	83200093          	li	ra,-1998

0000000080006d38 <i_6720>:
    80006d38:	00140413          	addi	s0,s0,1
    80006d3c:	fe146ee3          	bltu	s0,ra,80006d38 <i_6720>

0000000080006d40 <i_6721>:
    80006d40:	0017d663          	ble	ra,a5,80006d4c <i_6724>

0000000080006d44 <i_6722>:
    80006d44:	00a14403          	lbu	s0,10(sp)

0000000080006d48 <i_6723>:
    80006d48:	01ce0c63          	beq	t3,t3,80006d60 <i_6729>

0000000080006d4c <i_6724>:
    80006d4c:	0c416e03          	lwu	t3,196(sp)

0000000080006d50 <i_6725>:
    80006d50:	18610203          	lb	tp,390(sp)

0000000080006d54 <i_6726>:
    80006d54:	f0812823          	sw	s0,-240(sp)

0000000080006d58 <i_6727>:
    80006d58:	fb012b83          	lw	s7,-80(sp)

0000000080006d5c <i_6728>:
    80006d5c:	f7412403          	lw	s0,-140(sp)

0000000080006d60 <i_6729>:
    80006d60:	41a20c33          	sub	s8,tp,s10

0000000080006d64 <i_6730>:
    80006d64:	17811123          	sh	s8,354(sp)

0000000080006d68 <i_6731>:
    80006d68:	f5416c03          	lwu	s8,-172(sp)

0000000080006d6c <i_6732>:
    80006d6c:	02840063          	beq	s0,s0,80006d8c <i_6740>

0000000080006d70 <i_6733>:
    80006d70:	018383b3          	add	t2,t2,s8

0000000080006d74 <i_6734>:
    80006d74:	0393c43b          	divw	s0,t2,s9

0000000080006d78 <i_6735>:
    80006d78:	fcc12c03          	lw	s8,-52(sp)

0000000080006d7c <i_6736>:
    80006d7c:	fa416203          	lwu	tp,-92(sp)

0000000080006d80 <i_6737>:
    80006d80:	03226e33          	rem	t3,tp,s2

0000000080006d84 <i_6738>:
    80006d84:	01890a63          	beq	s2,s8,80006d98 <i_6743>

0000000080006d88 <i_6739>:
    80006d88:	f4110783          	lb	a5,-191(sp)

0000000080006d8c <i_6740>:
    80006d8c:	00fe6db3          	or	s11,t3,a5

0000000080006d90 <i_6741>:
    80006d90:	10013783          	ld	a5,256(sp)

0000000080006d94 <i_6742>:
    80006d94:	03bdcdbb          	divw	s11,s11,s11

0000000080006d98 <i_6743>:
    80006d98:	ec110d83          	lb	s11,-319(sp)

0000000080006d9c <i_6744>:
    80006d9c:	17416503          	lwu	a0,372(sp)

0000000080006da0 <i_6745>:
    80006da0:	00f6d863          	ble	a5,a3,80006db0 <i_6749>

0000000080006da4 <i_6746>:
    80006da4:	01b574b3          	and	s1,a0,s11

0000000080006da8 <i_6747>:
    80006da8:	00800993          	li	s3,8

0000000080006dac <i_6748>:
    80006dac:	4137d7bb          	sraw	a5,a5,s3

0000000080006db0 <i_6749>:
    80006db0:	00f4de63          	ble	a5,s1,80006dcc <i_6756>

0000000080006db4 <i_6750>:
    80006db4:	0049931b          	slliw	t1,s3,0x4

0000000080006db8 <i_6751>:
    80006db8:	00679863          	bne	a5,t1,80006dc8 <i_6755>

0000000080006dbc <i_6752>:
    80006dbc:	01816983          	lwu	s3,24(sp)

0000000080006dc0 <i_6753>:
    80006dc0:	0d311723          	sh	s3,206(sp)

0000000080006dc4 <i_6754>:
    80006dc4:	11310da3          	sb	s3,283(sp)

0000000080006dc8 <i_6755>:
    80006dc8:	00000013          	nop

0000000080006dcc <i_6756>:
    80006dcc:	0011d41b          	srliw	s0,gp,0x1

0000000080006dd0 <i_6757>:
    80006dd0:	03344eb3          	div	t4,s0,s3

0000000080006dd4 <i_6758>:
    80006dd4:	78500313          	li	t1,1925

0000000080006dd8 <i_6759>:
    80006dd8:	79500993          	li	s3,1941

0000000080006ddc <i_6760>:
    80006ddc:	00641c63          	bne	s0,t1,80006df4 <i_6766>

0000000080006de0 <i_6761>:
    80006de0:	0139d663          	ble	s3,s3,80006dec <i_6764>

0000000080006de4 <i_6762>:
    80006de4:	01d12023          	sw	t4,0(sp)

0000000080006de8 <i_6763>:
    80006de8:	00000013          	nop

0000000080006dec <i_6764>:
    80006dec:	005ef463          	bleu	t0,t4,80006df4 <i_6766>

0000000080006df0 <i_6765>:
    80006df0:	0139c863          	blt	s3,s3,80006e00 <i_6769>

0000000080006df4 <i_6766>:
    80006df4:	14012c83          	lw	s9,320(sp)

0000000080006df8 <i_6767>:
    80006df8:	02100293          	li	t0,33

0000000080006dfc <i_6768>:
    80006dfc:	005412b3          	sll	t0,s0,t0

0000000080006e00 <i_6769>:
    80006e00:	0282c53b          	divw	a0,t0,s0

0000000080006e04 <i_6770>:
    80006e04:	02a54463          	blt	a0,a0,80006e2c <i_6779>

0000000080006e08 <i_6771>:
    80006e08:	fba12423          	sw	s10,-88(sp)

0000000080006e0c <i_6772>:
    80006e0c:	00130313          	addi	t1,t1,1
    80006e10:	fc69f6e3          	bleu	t1,s3,80006ddc <i_6760>

0000000080006e14 <i_6773>:
    80006e14:	18f10023          	sb	a5,384(sp)

0000000080006e18 <i_6774>:
    80006e18:	06813403          	ld	s0,104(sp)

0000000080006e1c <i_6775>:
    80006e1c:	07614403          	lbu	s0,118(sp)

0000000080006e20 <i_6776>:
    80006e20:	f0714e83          	lbu	t4,-249(sp)

0000000080006e24 <i_6777>:
    80006e24:	00846463          	bltu	s0,s0,80006e2c <i_6779>

0000000080006e28 <i_6778>:
    80006e28:	f7012e03          	lw	t3,-144(sp)

0000000080006e2c <i_6779>:
    80006e2c:	0034151b          	slliw	a0,s0,0x3

0000000080006e30 <i_6780>:
    80006e30:	40340433          	sub	s0,s0,gp

0000000080006e34 <i_6781>:
    80006e34:	83600393          	li	t2,-1994

0000000080006e38 <i_6782>:
    80006e38:	84100613          	li	a2,-1983

0000000080006e3c <i_6783>:
    80006e3c:	00000013          	nop

0000000080006e40 <i_6784>:
    80006e40:	eb514583          	lbu	a1,-331(sp)

0000000080006e44 <i_6785>:
    80006e44:	86b00193          	li	gp,-1941

0000000080006e48 <i_6786>:
    80006e48:	87100b93          	li	s7,-1935

0000000080006e4c <i_6787>:
    80006e4c:	1b013583          	ld	a1,432(sp)

0000000080006e50 <i_6788>:
    80006e50:	fea11403          	lh	s0,-22(sp)

0000000080006e54 <i_6789>:
    80006e54:	e6416283          	lwu	t0,-412(sp)

0000000080006e58 <i_6790>:
    80006e58:	00118193          	addi	gp,gp,1
    80006e5c:	fe3bf8e3          	bleu	gp,s7,80006e4c <i_6787>

0000000080006e60 <i_6791>:
    80006e60:	01f00b93          	li	s7,31

0000000080006e64 <i_6792>:
    80006e64:	017357bb          	srlw	a5,t1,s7

0000000080006e68 <i_6793>:
    80006e68:	00138393          	addi	t2,t2,1
    80006e6c:	fc7678e3          	bleu	t2,a2,80006e3c <i_6783>

0000000080006e70 <i_6794>:
    80006e70:	197101a3          	sb	s7,387(sp)

0000000080006e74 <i_6795>:
    80006e74:	0355eabb          	remw	s5,a1,s5

0000000080006e78 <i_6796>:
    80006e78:	14f105a3          	sb	a5,331(sp)

0000000080006e7c <i_6797>:
    80006e7c:	ec510c03          	lb	s8,-315(sp)

0000000080006e80 <i_6798>:
    80006e80:	035b9ab3          	mulh	s5,s7,s5

0000000080006e84 <i_6799>:
    80006e84:	404ad593          	srai	a1,s5,0x4

0000000080006e88 <i_6800>:
    80006e88:	025e6063          	bltu	t3,t0,80006ea8 <i_6808>

0000000080006e8c <i_6801>:
    80006e8c:	02412e03          	lw	t3,36(sp)

0000000080006e90 <i_6802>:
    80006e90:	17614d83          	lbu	s11,374(sp)

0000000080006e94 <i_6803>:
    80006e94:	0173d263          	ble	s7,t2,80006e98 <i_6804>

0000000080006e98 <i_6804>:
    80006e98:	00bdf663          	bleu	a1,s11,80006ea4 <i_6807>

0000000080006e9c <i_6805>:
    80006e9c:	00f3b3b3          	sltu	t2,t2,a5

0000000080006ea0 <i_6806>:
    80006ea0:	00f467b3          	or	a5,s0,a5

0000000080006ea4 <i_6807>:
    80006ea4:	e8c12183          	lw	gp,-372(sp)

0000000080006ea8 <i_6808>:
    80006ea8:	0ca11783          	lh	a5,202(sp)

0000000080006eac <i_6809>:
    80006eac:	0e810b23          	sb	s0,246(sp)

0000000080006eb0 <i_6810>:
    80006eb0:	75600e13          	li	t3,1878

0000000080006eb4 <i_6811>:
    80006eb4:	75e00413          	li	s0,1886

0000000080006eb8 <i_6812>:
    80006eb8:	f0813783          	ld	a5,-248(sp)

0000000080006ebc <i_6813>:
    80006ebc:	ea016783          	lwu	a5,-352(sp)

0000000080006ec0 <i_6814>:
    80006ec0:	11416303          	lwu	t1,276(sp)

0000000080006ec4 <i_6815>:
    80006ec4:	e2f100a3          	sb	a5,-479(sp)

0000000080006ec8 <i_6816>:
    80006ec8:	00e00993          	li	s3,14

0000000080006ecc <i_6817>:
    80006ecc:	0131963b          	sllw	a2,gp,s3

0000000080006ed0 <i_6818>:
    80006ed0:	02751463          	bne	a0,t2,80006ef8 <i_6827>

0000000080006ed4 <i_6819>:
    80006ed4:	8381b197          	auipc	gp,0x8381b

0000000080006ed8 <i_6820>:
    80006ed8:	00013183          	ld	gp,0(sp)

0000000080006edc <i_6821>:
    80006edc:	01f9f263          	bleu	t6,s3,80006ee0 <i_6822>

0000000080006ee0 <i_6822>:
    80006ee0:	16011803          	lh	a6,352(sp)

0000000080006ee4 <i_6823>:
    80006ee4:	03027463          	bleu	a6,tp,80006f0c <i_6832>

0000000080006ee8 <i_6824>:
    80006ee8:	001e0e13          	addi	t3,t3,1
    80006eec:	fc8e16e3          	bne	t3,s0,80006eb8 <i_6812>

0000000080006ef0 <i_6825>:
    80006ef0:	e3013823          	sd	a6,-464(sp)

0000000080006ef4 <i_6826>:
    80006ef4:	00d64e63          	blt	a2,a3,80006f10 <i_6833>

0000000080006ef8 <i_6827>:
    80006ef8:	02846633          	rem	a2,s0,s0

0000000080006efc <i_6828>:
    80006efc:	02c87063          	bleu	a2,a6,80006f1c <i_6836>

0000000080006f00 <i_6829>:
    80006f00:	01010c63          	beq	sp,a6,80006f18 <i_6835>

0000000080006f04 <i_6830>:
    80006f04:	02861463          	bne	a2,s0,80006f2c <i_6840>

0000000080006f08 <i_6831>:
    80006f08:	0f714d83          	lbu	s11,247(sp)

0000000080006f0c <i_6832>:
    80006f0c:	01040863          	beq	s0,a6,80006f1c <i_6836>

0000000080006f10 <i_6833>:
    80006f10:	018d8463          	beq	s11,s8,80006f18 <i_6835>

0000000080006f14 <i_6834>:
    80006f14:	02b45db3          	divu	s11,s0,a1

0000000080006f18 <i_6835>:
    80006f18:	02012303          	lw	t1,32(sp)

0000000080006f1c <i_6836>:
    80006f1c:	f4271c17          	auipc	s8,0xf4271

0000000080006f20 <i_6837>:
    80006f20:	e4811223          	sh	s0,-444(sp)

0000000080006f24 <i_6838>:
    80006f24:	eac11323          	sh	a2,-346(sp)

0000000080006f28 <i_6839>:
    80006f28:	14612e23          	sw	t1,348(sp)

0000000080006f2c <i_6840>:
    80006f2c:	40f307b3          	sub	a5,t1,a5

0000000080006f30 <i_6841>:
    80006f30:	09813783          	ld	a5,152(sp)

0000000080006f34 <i_6842>:
    80006f34:	84f00413          	li	s0,-1969

0000000080006f38 <i_6843>:
    80006f38:	86300993          	li	s3,-1949

0000000080006f3c <i_6844>:
    80006f3c:	0377c333          	div	t1,a5,s7

0000000080006f40 <i_6845>:
    80006f40:	60637b93          	andi	s7,t1,1542

0000000080006f44 <i_6846>:
    80006f44:	02f7f463          	bleu	a5,a5,80006f6c <i_6855>

0000000080006f48 <i_6847>:
    80006f48:	00414e03          	lbu	t3,4(sp)

0000000080006f4c <i_6848>:
    80006f4c:	037bd463          	ble	s7,s7,80006f74 <i_6857>

0000000080006f50 <i_6849>:
    80006f50:	00100293          	li	t0,1

0000000080006f54 <i_6850>:
    80006f54:	005b953b          	sllw	a0,s7,t0

0000000080006f58 <i_6851>:
    80006f58:	0025559b          	srliw	a1,a0,0x2

0000000080006f5c <i_6852>:
    80006f5c:	00140413          	addi	s0,s0,1
    80006f60:	fd341ee3          	bne	s0,s3,80006f3c <i_6844>

0000000080006f64 <i_6853>:
    80006f64:	03013b83          	ld	s7,48(sp)

0000000080006f68 <i_6854>:
    80006f68:	0372d5b3          	divu	a1,t0,s7

0000000080006f6c <i_6855>:
    80006f6c:	02ba4263          	blt	s4,a1,80006f90 <i_6864>

0000000080006f70 <i_6856>:
    80006f70:	00a5e863          	bltu	a1,a0,80006f80 <i_6860>

0000000080006f74 <i_6857>:
    80006f74:	fab13823          	sd	a1,-80(sp)

0000000080006f78 <i_6858>:
    80006f78:	efc10b83          	lb	s7,-260(sp)

0000000080006f7c <i_6859>:
    80006f7c:	fa050513          	addi	a0,a0,-96

0000000080006f80 <i_6860>:
    80006f80:	01757c63          	bleu	s7,a0,80006f98 <i_6866>

0000000080006f84 <i_6861>:
    80006f84:	e6b14403          	lbu	s0,-405(sp)

0000000080006f88 <i_6862>:
    80006f88:	408e03b3          	sub	t2,t3,s0

0000000080006f8c <i_6863>:
    80006f8c:	ef816403          	lwu	s0,-264(sp)

0000000080006f90 <i_6864>:
    80006f90:	0285d063          	ble	s0,a1,80006fb0 <i_6872>

0000000080006f94 <i_6865>:
    80006f94:	14c56413          	ori	s0,a0,332

0000000080006f98 <i_6866>:
    80006f98:	fc016e03          	lwu	t3,-64(sp)

0000000080006f9c <i_6867>:
    80006f9c:	0083ee63          	bltu	t2,s0,80006fb8 <i_6874>

0000000080006fa0 <i_6868>:
    80006fa0:	03ce45b3          	div	a1,t3,t3

0000000080006fa4 <i_6869>:
    80006fa4:	01ae1e63          	bne	t3,s10,80006fc0 <i_6876>

0000000080006fa8 <i_6870>:
    80006fa8:	f3c10ba3          	sb	t3,-201(sp)

0000000080006fac <i_6871>:
    80006fac:	02838263          	beq	t2,s0,80006fd0 <i_6880>

0000000080006fb0 <i_6872>:
    80006fb0:	01d38e63          	beq	t2,t4,80006fcc <i_6879>

0000000080006fb4 <i_6873>:
    80006fb4:	49338193          	addi	gp,t2,1171

0000000080006fb8 <i_6874>:
    80006fb8:	f9615183          	lhu	gp,-106(sp)

0000000080006fbc <i_6875>:
    80006fbc:	fa711323          	sh	t2,-90(sp)

0000000080006fc0 <i_6876>:
    80006fc0:	f3813583          	ld	a1,-200(sp)

0000000080006fc4 <i_6877>:
    80006fc4:	0e415c83          	lhu	s9,228(sp)

0000000080006fc8 <i_6878>:
    80006fc8:	00000013          	nop

0000000080006fcc <i_6879>:
    80006fcc:	00000013          	nop

0000000080006fd0 <i_6880>:
    80006fd0:	00000013          	nop

0000000080006fd4 <i_6881>:
    80006fd4:	05813403          	ld	s0,88(sp)

0000000080006fd8 <i_6882>:
    80006fd8:	72c00513          	li	a0,1836

0000000080006fdc <i_6883>:
    80006fdc:	73400a93          	li	s5,1844

0000000080006fe0 <i_6884>:
    80006fe0:	e25108a3          	sb	t0,-463(sp)

0000000080006fe4 <i_6885>:
    80006fe4:	01c16403          	lwu	s0,28(sp)

0000000080006fe8 <i_6886>:
    80006fe8:	75e00b93          	li	s7,1886

0000000080006fec <i_6887>:
    80006fec:	77000293          	li	t0,1904

0000000080006ff0 <i_6888>:
    80006ff0:	f6e11323          	sh	a4,-154(sp)

0000000080006ff4 <i_6889>:
    80006ff4:	fdc11583          	lh	a1,-36(sp)

0000000080006ff8 <i_6890>:
    80006ff8:	02b1e1bb          	remw	gp,gp,a1

0000000080006ffc <i_6891>:
    80006ffc:	01500193          	li	gp,21

0000000080007000 <i_6892>:
    80007000:	40345c3b          	sraw	s8,s0,gp

0000000080007004 <i_6893>:
    80007004:	001b8b93          	addi	s7,s7,1
    80007008:	ff72f4e3          	bleu	s7,t0,80006ff0 <i_6888>

000000008000700c <i_6894>:
    8000700c:	0036bc33          	sltu	s8,a3,gp

0000000080007010 <i_6895>:
    80007010:	0281e463          	bltu	gp,s0,80007038 <i_6904>

0000000080007014 <i_6896>:
    80007014:	1dd10403          	lb	s0,477(sp)

0000000080007018 <i_6897>:
    80007018:	00150513          	addi	a0,a0,1
    8000701c:	fd5542e3          	blt	a0,s5,80006fe0 <i_6884>

0000000080007020 <i_6898>:
    80007020:	00000013          	nop

0000000080007024 <i_6899>:
    80007024:	13816203          	lwu	tp,312(sp)

0000000080007028 <i_6900>:
    80007028:	f0b11923          	sh	a1,-238(sp)

000000008000702c <i_6901>:
    8000702c:	0d511c23          	sh	s5,216(sp)

0000000080007030 <i_6902>:
    80007030:	00000013          	nop

0000000080007034 <i_6903>:
    80007034:	035ad23b          	divuw	tp,s5,s5

0000000080007038 <i_6904>:
    80007038:	00321593          	slli	a1,tp,0x3

000000008000703c <i_6905>:
    8000703c:	e7812c83          	lw	s9,-392(sp)

0000000080007040 <i_6906>:
    80007040:	7c100e13          	li	t3,1985

0000000080007044 <i_6907>:
    80007044:	7cb00a93          	li	s5,1995

0000000080007048 <i_6908>:
    80007048:	014afa33          	and	s4,s5,s4

000000008000704c <i_6909>:
    8000704c:	05016d83          	lwu	s11,80(sp)

0000000080007050 <i_6910>:
    80007050:	e9813083          	ld	ra,-360(sp)

0000000080007054 <i_6911>:
    80007054:	021c8cb3          	mul	s9,s9,ra

0000000080007058 <i_6912>:
    80007058:	001e0e13          	addi	t3,t3,1
    8000705c:	ffcaf6e3          	bleu	t3,s5,80007048 <i_6908>

0000000080007060 <i_6913>:
    80007060:	0170e463          	bltu	ra,s7,80007068 <i_6915>

0000000080007064 <i_6914>:
    80007064:	f7bccb93          	xori	s7,s9,-133

0000000080007068 <i_6915>:
    80007068:	02a3433b          	divw	t1,t1,a0

000000008000706c <i_6916>:
    8000706c:	0c613023          	sd	t1,192(sp)

0000000080007070 <i_6917>:
    80007070:	ede15803          	lhu	a6,-290(sp)

0000000080007074 <i_6918>:
    80007074:	ed016783          	lwu	a5,-304(sp)

0000000080007078 <i_6919>:
    80007078:	e9a10d83          	lb	s11,-358(sp)

000000008000707c <i_6920>:
    8000707c:	02630263          	beq	t1,t1,800070a0 <i_6929>

0000000080007080 <i_6921>:
    80007080:	e3013c23          	sd	a6,-456(sp)

0000000080007084 <i_6922>:
    80007084:	03934cbb          	divw	s9,t1,s9

0000000080007088 <i_6923>:
    80007088:	01981c63          	bne	a6,s9,800070a0 <i_6929>

000000008000708c <i_6924>:
    8000708c:	e8612c23          	sw	t1,-360(sp)

0000000080007090 <i_6925>:
    80007090:	010dc263          	blt	s11,a6,80007094 <i_6926>

0000000080007094 <i_6926>:
    80007094:	03b10c83          	lb	s9,59(sp)

0000000080007098 <i_6927>:
    80007098:	05e14203          	lbu	tp,94(sp)

000000008000709c <i_6928>:
    8000709c:	fb310803          	lb	a6,-77(sp)

00000000800070a0 <i_6929>:
    800070a0:	f7410a83          	lb	s5,-140(sp)

00000000800070a4 <i_6930>:
    800070a4:	14c11d83          	lh	s11,332(sp)

00000000800070a8 <i_6931>:
    800070a8:	01bce663          	bltu	s9,s11,800070b4 <i_6934>

00000000800070ac <i_6932>:
    800070ac:	004204b3          	add	s1,tp,tp

00000000800070b0 <i_6933>:
    800070b0:	1ba11803          	lh	a6,442(sp)

00000000800070b4 <i_6934>:
    800070b4:	40285e93          	srai	t4,a6,0x2

00000000800070b8 <i_6935>:
    800070b8:	015afdb3          	and	s11,s5,s5

00000000800070bc <i_6936>:
    800070bc:	83e00093          	li	ra,-1986

00000000800070c0 <i_6937>:
    800070c0:	84e00c13          	li	s8,-1970

00000000800070c4 <i_6938>:
    800070c4:	00000013          	nop

00000000800070c8 <i_6939>:
    800070c8:	9379b413          	sltiu	s0,s3,-1737

00000000800070cc <i_6940>:
    800070cc:	88e00993          	li	s3,-1906

00000000800070d0 <i_6941>:
    800070d0:	8a100b93          	li	s7,-1887

00000000800070d4 <i_6942>:
    800070d4:	419201b3          	sub	gp,tp,s9

00000000800070d8 <i_6943>:
    800070d8:	01d00d93          	li	s11,29

00000000800070dc <i_6944>:
    800070dc:	01bd9cb3          	sll	s9,s11,s11

00000000800070e0 <i_6945>:
    800070e0:	00198993          	addi	s3,s3,1
    800070e4:	ff79c8e3          	blt	s3,s7,800070d4 <i_6942>

00000000800070e8 <i_6946>:
    800070e8:	00108093          	addi	ra,ra,1
    800070ec:	fc1c5ce3          	ble	ra,s8,800070c4 <i_6938>

00000000800070f0 <i_6947>:
    800070f0:	039c8263          	beq	s9,s9,80007114 <i_6956>

00000000800070f4 <i_6948>:
    800070f4:	01bcde63          	ble	s11,s9,80007110 <i_6955>

00000000800070f8 <i_6949>:
    800070f8:	019b9c63          	bne	s7,s9,80007110 <i_6955>

00000000800070fc <i_6950>:
    800070fc:	02011183          	lh	gp,32(sp)

0000000080007100 <i_6951>:
    80007100:	0031c1b3          	xor	gp,gp,gp

0000000080007104 <i_6952>:
    80007104:	f9614183          	lbu	gp,-106(sp)

0000000080007108 <i_6953>:
    80007108:	fe311e23          	sh	gp,-4(sp)

000000008000710c <i_6954>:
    8000710c:	01bd9663          	bne	s11,s11,80007118 <i_6957>

0000000080007110 <i_6955>:
    80007110:	403185bb          	subw	a1,gp,gp

0000000080007114 <i_6956>:
    80007114:	039cf4b3          	remu	s1,s9,s9

0000000080007118 <i_6957>:
    80007118:	03f00c93          	li	s9,63

000000008000711c <i_6958>:
    8000711c:	019cd433          	srl	s0,s9,s9

0000000080007120 <i_6959>:
    80007120:	00dce463          	bltu	s9,a3,80007128 <i_6961>

0000000080007124 <i_6960>:
    80007124:	e8913023          	sd	s1,-384(sp)

0000000080007128 <i_6961>:
    80007128:	029b0063          	beq	s6,s1,80007148 <i_6969>

000000008000712c <i_6962>:
    8000712c:	1aa15c03          	lhu	s8,426(sp)

0000000080007130 <i_6963>:
    80007130:	039c7463          	bleu	s9,s8,80007158 <i_6973>

0000000080007134 <i_6964>:
    80007134:	019cfc33          	and	s8,s9,s9

0000000080007138 <i_6965>:
    80007138:	008c2c33          	slt	s8,s8,s0

000000008000713c <i_6966>:
    8000713c:	f2810fa3          	sb	s0,-193(sp)

0000000080007140 <i_6967>:
    80007140:	028cdeb3          	divu	t4,s9,s0

0000000080007144 <i_6968>:
    80007144:	018e8433          	add	s0,t4,s8

0000000080007148 <i_6969>:
    80007148:	fe812e23          	sw	s0,-4(sp)

000000008000714c <i_6970>:
    8000714c:	02a11223          	sh	a0,36(sp)

0000000080007150 <i_6971>:
    80007150:	effec213          	xori	tp,t4,-257

0000000080007154 <i_6972>:
    80007154:	e4215d83          	lhu	s11,-446(sp)

0000000080007158 <i_6973>:
    80007158:	0b013d83          	ld	s11,176(sp)

000000008000715c <i_6974>:
    8000715c:	f1615603          	lhu	a2,-234(sp)

0000000080007160 <i_6975>:
    80007160:	7a500513          	li	a0,1957

0000000080007164 <i_6976>:
    80007164:	7aa00e93          	li	t4,1962

0000000080007168 <i_6977>:
    80007168:	f7211603          	lh	a2,-142(sp)

000000008000716c <i_6978>:
    8000716c:	403c5c13          	srai	s8,s8,0x3

0000000080007170 <i_6979>:
    80007170:	03b1f663          	bleu	s11,gp,8000719c <i_6989>

0000000080007174 <i_6980>:
    80007174:	06813803          	ld	a6,104(sp)

0000000080007178 <i_6981>:
    80007178:	0d011d83          	lh	s11,208(sp)

000000008000717c <i_6982>:
    8000717c:	02813803          	ld	a6,40(sp)

0000000080007180 <i_6983>:
    80007180:	00150513          	addi	a0,a0,1
    80007184:	ffd542e3          	blt	a0,t4,80007168 <i_6977>

0000000080007188 <i_6984>:
    80007188:	030c5063          	ble	a6,s8,800071a8 <i_6992>

000000008000718c <i_6985>:
    8000718c:	001c129b          	slliw	t0,s8,0x1

0000000080007190 <i_6986>:
    80007190:	fee10823          	sb	a4,-16(sp)

0000000080007194 <i_6987>:
    80007194:	41880c33          	sub	s8,a6,s8

0000000080007198 <i_6988>:
    80007198:	0048181b          	slliw	a6,a6,0x4

000000008000719c <i_6989>:
    8000719c:	0a011503          	lh	a0,160(sp)

00000000800071a0 <i_6990>:
    800071a0:	0a513023          	sd	t0,160(sp)

00000000800071a4 <i_6991>:
    800071a4:	45dd0813          	addi	a6,s10,1117

00000000800071a8 <i_6992>:
    800071a8:	025e1e33          	mulh	t3,t3,t0

00000000800071ac <i_6993>:
    800071ac:	03157063          	bleu	a7,a0,800071cc <i_7001>

00000000800071b0 <i_6994>:
    800071b0:	18a10d23          	sb	a0,410(sp)

00000000800071b4 <i_6995>:
    800071b4:	010b22b3          	slt	t0,s6,a6

00000000800071b8 <i_6996>:
    800071b8:	030cc463          	blt	s9,a6,800071e0 <i_7006>

00000000800071bc <i_6997>:
    800071bc:	e3812223          	sw	s8,-476(sp)

00000000800071c0 <i_6998>:
    800071c0:	005e2e33          	slt	t3,t3,t0

00000000800071c4 <i_6999>:
    800071c4:	14a14603          	lbu	a2,330(sp)

00000000800071c8 <i_7000>:
    800071c8:	030547bb          	divw	a5,a0,a6

00000000800071cc <i_7001>:
    800071cc:	efa14c03          	lbu	s8,-262(sp)

00000000800071d0 <i_7002>:
    800071d0:	0102f533          	and	a0,t0,a6

00000000800071d4 <i_7003>:
    800071d4:	e5810403          	lb	s0,-424(sp)

00000000800071d8 <i_7004>:
    800071d8:	01ce5e63          	ble	t3,t3,800071f4 <i_7011>

00000000800071dc <i_7005>:
    800071dc:	12411803          	lh	a6,292(sp)

00000000800071e0 <i_7006>:
    800071e0:	0c016803          	lwu	a6,192(sp)

00000000800071e4 <i_7007>:
    800071e4:	03ce6e33          	rem	t3,t3,t3

00000000800071e8 <i_7008>:
    800071e8:	0039d61b          	srliw	a2,s3,0x3

00000000800071ec <i_7009>:
    800071ec:	413e09bb          	subw	s3,t3,s3

00000000800071f0 <i_7010>:
    800071f0:	19813603          	ld	a2,408(sp)

00000000800071f4 <i_7011>:
    800071f4:	00ce0c63          	beq	t3,a2,8000720c <i_7017>

00000000800071f8 <i_7012>:
    800071f8:	0b011783          	lh	a5,176(sp)

00000000800071fc <i_7013>:
    800071fc:	0339c263          	blt	s3,s3,80007220 <i_7022>

0000000080007200 <i_7014>:
    80007200:	ee910403          	lb	s0,-279(sp)

0000000080007204 <i_7015>:
    80007204:	01364863          	blt	a2,s3,80007214 <i_7019>

0000000080007208 <i_7016>:
    80007208:	06411c03          	lh	s8,100(sp)

000000008000720c <i_7017>:
    8000720c:	1d013783          	ld	a5,464(sp)

0000000080007210 <i_7018>:
    80007210:	01c00413          	li	s0,28

0000000080007214 <i_7019>:
    80007214:	008c59bb          	srlw	s3,s8,s0

0000000080007218 <i_7020>:
    80007218:	008c1a63          	bne	s8,s0,8000722c <i_7025>

000000008000721c <i_7021>:
    8000721c:	02d43ab3          	mulhu	s5,s0,a3

0000000080007220 <i_7022>:
    80007220:	4047d31b          	sraiw	t1,a5,0x4

0000000080007224 <i_7023>:
    80007224:	bbaab413          	sltiu	s0,s5,-1094

0000000080007228 <i_7024>:
    80007228:	e75104a3          	sb	s5,-407(sp)

000000008000722c <i_7025>:
    8000722c:	00836e63          	bltu	t1,s0,80007248 <i_7032>

0000000080007230 <i_7026>:
    80007230:	01547a63          	bleu	s5,s0,80007244 <i_7031>

0000000080007234 <i_7027>:
    80007234:	f2615a83          	lhu	s5,-218(sp)

0000000080007238 <i_7028>:
    80007238:	f8813283          	ld	t0,-120(sp)

000000008000723c <i_7029>:
    8000723c:	01800a93          	li	s5,24

0000000080007240 <i_7030>:
    80007240:	015c543b          	srlw	s0,s8,s5

0000000080007244 <i_7031>:
    80007244:	f0015303          	lhu	t1,-256(sp)

0000000080007248 <i_7032>:
    80007248:	e8d10303          	lb	t1,-371(sp)

000000008000724c <i_7033>:
    8000724c:	18512e23          	sw	t0,412(sp)

0000000080007250 <i_7034>:
    80007250:	02844063          	blt	s0,s0,80007270 <i_7042>

0000000080007254 <i_7035>:
    80007254:	026afa33          	remu	s4,s5,t1

0000000080007258 <i_7036>:
    80007258:	00b00813          	li	a6,11

000000008000725c <i_7037>:
    8000725c:	010a983b          	sllw	a6,s5,a6

0000000080007260 <i_7038>:
    80007260:	e0d46a93          	ori	s5,s0,-499

0000000080007264 <i_7039>:
    80007264:	10813823          	sd	s0,272(sp)

0000000080007268 <i_7040>:
    80007268:	035a5263          	ble	s5,s4,8000728c <i_7049>

000000008000726c <i_7041>:
    8000726c:	06511523          	sh	t0,106(sp)

0000000080007270 <i_7042>:
    80007270:	f9c16283          	lwu	t0,-100(sp)

0000000080007274 <i_7043>:
    80007274:	0252b2b3          	mulhu	t0,t0,t0

0000000080007278 <i_7044>:
    80007278:	f5811283          	lh	t0,-168(sp)

000000008000727c <i_7045>:
    8000727c:	ff411b83          	lh	s7,-12(sp)

0000000080007280 <i_7046>:
    80007280:	4027dc1b          	sraiw	s8,a5,0x2

0000000080007284 <i_7047>:
    80007284:	f6813283          	ld	t0,-152(sp)

0000000080007288 <i_7048>:
    80007288:	005c1263          	bne	s8,t0,8000728c <i_7049>

000000008000728c <i_7049>:
    8000728c:	018b8c63          	beq	s7,s8,800072a4 <i_7055>

0000000080007290 <i_7050>:
    80007290:	0e910583          	lb	a1,233(sp)

0000000080007294 <i_7051>:
    80007294:	f0013e03          	ld	t3,-256(sp)

0000000080007298 <i_7052>:
    80007298:	005e0863          	beq	t3,t0,800072a8 <i_7056>

000000008000729c <i_7053>:
    8000729c:	1a211183          	lh	gp,418(sp)

00000000800072a0 <i_7054>:
    800072a0:	00429293          	slli	t0,t0,0x4

00000000800072a4 <i_7055>:
    800072a4:	01c1e463          	bltu	gp,t3,800072ac <i_7057>

00000000800072a8 <i_7056>:
    800072a8:	0251d533          	divu	a0,gp,t0

00000000800072ac <i_7057>:
    800072ac:	1c012e03          	lw	t3,448(sp)

00000000800072b0 <i_7058>:
    800072b0:	e7310483          	lb	s1,-397(sp)

00000000800072b4 <i_7059>:
    800072b4:	0e313423          	sd	gp,232(sp)

00000000800072b8 <i_7060>:
    800072b8:	00a1de63          	ble	a0,gp,800072d4 <i_7067>

00000000800072bc <i_7061>:
    800072bc:	0051d663          	ble	t0,gp,800072c8 <i_7064>

00000000800072c0 <i_7062>:
    800072c0:	208f81b7          	lui	gp,0x208f8

00000000800072c4 <i_7063>:
    800072c4:	001ad493          	srli	s1,s5,0x1

00000000800072c8 <i_7064>:
    800072c8:	00a180b3          	add	ra,gp,a0

00000000800072cc <i_7065>:
    800072cc:	00149d93          	slli	s11,s1,0x1

00000000800072d0 <i_7066>:
    800072d0:	1ca15483          	lhu	s1,458(sp)

00000000800072d4 <i_7067>:
    800072d4:	0c816603          	lwu	a2,200(sp)

00000000800072d8 <i_7068>:
    800072d8:	d51c7497          	auipc	s1,0xd51c7

00000000800072dc <i_7069>:
    800072dc:	029604bb          	mulw	s1,a2,s1

00000000800072e0 <i_7070>:
    800072e0:	f4812d83          	lw	s11,-184(sp)

00000000800072e4 <i_7071>:
    800072e4:	00000013          	nop

00000000800072e8 <i_7072>:
    800072e8:	7f900993          	li	s3,2041

00000000800072ec <i_7073>:
    800072ec:	7fb00a93          	li	s5,2043

00000000800072f0 <i_7074>:
    800072f0:	f4c11223          	sh	a2,-188(sp)

00000000800072f4 <i_7075>:
    800072f4:	02c67633          	remu	a2,a2,a2

00000000800072f8 <i_7076>:
    800072f8:	0023d393          	srli	t2,t2,0x2

00000000800072fc <i_7077>:
    800072fc:	00730633          	add	a2,t1,t2

0000000080007300 <i_7078>:
    80007300:	e3511423          	sh	s5,-472(sp)

0000000080007304 <i_7079>:
    80007304:	0a710aa3          	sb	t2,181(sp)

0000000080007308 <i_7080>:
    80007308:	f8c11c23          	sh	a2,-104(sp)

000000008000730c <i_7081>:
    8000730c:	16011b83          	lh	s7,352(sp)

0000000080007310 <i_7082>:
    80007310:	17a10b83          	lb	s7,378(sp)

0000000080007314 <i_7083>:
    80007314:	00000013          	nop

0000000080007318 <i_7084>:
    80007318:	f4415283          	lhu	t0,-188(sp)

000000008000731c <i_7085>:
    8000731c:	00198993          	addi	s3,s3,1
    80007320:	fd59e8e3          	bltu	s3,s5,800072f0 <i_7074>

0000000080007324 <i_7086>:
    80007324:	03f10383          	lb	t2,63(sp)

0000000080007328 <i_7087>:
    80007328:	0053f3b3          	and	t2,t2,t0

000000008000732c <i_7088>:
    8000732c:	3a417393          	andi	t2,sp,932

0000000080007330 <i_7089>:
    80007330:	01b39463          	bne	t2,s11,80007338 <i_7091>

0000000080007334 <i_7090>:
    80007334:	0023981b          	slliw	a6,t2,0x2

0000000080007338 <i_7091>:
    80007338:	19811783          	lh	a5,408(sp)

000000008000733c <i_7092>:
    8000733c:	14713023          	sd	t2,320(sp)

0000000080007340 <i_7093>:
    80007340:	e5c14383          	lbu	t2,-420(sp)

0000000080007344 <i_7094>:
    80007344:	0393c463          	blt	t2,s9,8000736c <i_7104>

0000000080007348 <i_7095>:
    80007348:	02f852bb          	divuw	t0,a6,a5

000000008000734c <i_7096>:
    8000734c:	fe710ca3          	sb	t2,-7(sp)

0000000080007350 <i_7097>:
    80007350:	00f61c63          	bne	a2,a5,80007368 <i_7103>

0000000080007354 <i_7098>:
    80007354:	0f611303          	lh	t1,246(sp)

0000000080007358 <i_7099>:
    80007358:	006d6463          	bltu	s10,t1,80007360 <i_7101>

000000008000735c <i_7100>:
    8000735c:	0217f7bb          	remuw	a5,a5,ra

0000000080007360 <i_7101>:
    80007360:	d2d33493          	sltiu	s1,t1,-723

0000000080007364 <i_7102>:
    80007364:	4017d79b          	sraiw	a5,a5,0x1

0000000080007368 <i_7103>:
    80007368:	f5816783          	lwu	a5,-168(sp)

000000008000736c <i_7104>:
    8000736c:	0297d063          	ble	s1,a5,8000738c <i_7112>

0000000080007370 <i_7105>:
    80007370:	11614803          	lbu	a6,278(sp)

0000000080007374 <i_7106>:
    80007374:	0bc11483          	lh	s1,188(sp)

0000000080007378 <i_7107>:
    80007378:	02924063          	blt	tp,s1,80007398 <i_7115>

000000008000737c <i_7108>:
    8000737c:	02f7d7bb          	divuw	a5,a5,a5

0000000080007380 <i_7109>:
    80007380:	f8f10ca3          	sb	a5,-103(sp)

0000000080007384 <i_7110>:
    80007384:	02f7de3b          	divuw	t3,a5,a5

0000000080007388 <i_7111>:
    80007388:	02f4c463          	blt	s1,a5,800073b0 <i_7121>

000000008000738c <i_7112>:
    8000738c:	02fe77bb          	remuw	a5,t3,a5

0000000080007390 <i_7113>:
    80007390:	07813283          	ld	t0,120(sp)

0000000080007394 <i_7114>:
    80007394:	18710e03          	lb	t3,391(sp)

0000000080007398 <i_7115>:
    80007398:	025a6263          	bltu	s4,t0,800073bc <i_7124>

000000008000739c <i_7116>:
    8000739c:	003a5e63          	ble	gp,s4,800073b8 <i_7123>

00000000800073a0 <i_7117>:
    800073a0:	03c2ca33          	div	s4,t0,t3

00000000800073a4 <i_7118>:
    800073a4:	e6b13c23          	sd	a1,-392(sp)

00000000800073a8 <i_7119>:
    800073a8:	03ce4e33          	div	t3,t3,t3

00000000800073ac <i_7120>:
    800073ac:	004e5d93          	srli	s11,t3,0x4

00000000800073b0 <i_7121>:
    800073b0:	18c11303          	lh	t1,396(sp)

00000000800073b4 <i_7122>:
    800073b4:	f3013183          	ld	gp,-208(sp)

00000000800073b8 <i_7123>:
    800073b8:	17416803          	lwu	a6,372(sp)

00000000800073bc <i_7124>:
    800073bc:	026970b3          	remu	ra,s2,t1

00000000800073c0 <i_7125>:
    800073c0:	02c12d83          	lw	s11,44(sp)

00000000800073c4 <i_7126>:
    800073c4:	01b84663          	blt	a6,s11,800073d0 <i_7129>

00000000800073c8 <i_7127>:
    800073c8:	001d8463          	beq	s11,ra,800073d0 <i_7129>

00000000800073cc <i_7128>:
    800073cc:	e6812803          	lw	a6,-408(sp)

00000000800073d0 <i_7129>:
    800073d0:	01c7cc63          	blt	a5,t3,800073e8 <i_7135>

00000000800073d4 <i_7130>:
    800073d4:	03b1ce33          	div	t3,gp,s11

00000000800073d8 <i_7131>:
    800073d8:	03cc1263          	bne	s8,t3,800073fc <i_7140>

00000000800073dc <i_7132>:
    800073dc:	00316463          	bltu	sp,gp,800073e4 <i_7134>

00000000800073e0 <i_7133>:
    800073e0:	03009063          	bne	ra,a6,80007400 <i_7141>

00000000800073e4 <i_7134>:
    800073e4:	003d9863          	bne	s11,gp,800073f4 <i_7138>

00000000800073e8 <i_7135>:
    800073e8:	0f012083          	lw	ra,240(sp)

00000000800073ec <i_7136>:
    800073ec:	f2215983          	lhu	s3,-222(sp)

00000000800073f0 <i_7137>:
    800073f0:	40db89bb          	subw	s3,s7,a3

00000000800073f4 <i_7138>:
    800073f4:	f8310183          	lb	gp,-125(sp)

00000000800073f8 <i_7139>:
    800073f8:	00000013          	nop

00000000800073fc <i_7140>:
    800073fc:	00000013          	nop

0000000080007400 <i_7141>:
    80007400:	f1013983          	ld	s3,-240(sp)

0000000080007404 <i_7142>:
    80007404:	e4015183          	lhu	gp,-448(sp)

0000000080007408 <i_7143>:
    80007408:	84800e13          	li	t3,-1976

000000008000740c <i_7144>:
    8000740c:	85c00d93          	li	s11,-1956

0000000080007410 <i_7145>:
    80007410:	eea109a3          	sb	a0,-269(sp)

0000000080007414 <i_7146>:
    80007414:	001e0e13          	addi	t3,t3,1
    80007418:	ffbe6ce3          	bltu	t3,s11,80007410 <i_7145>

000000008000741c <i_7147>:
    8000741c:	4029d19b          	sraiw	gp,s3,0x2

0000000080007420 <i_7148>:
    80007420:	02398063          	beq	s3,gp,80007440 <i_7156>

0000000080007424 <i_7149>:
    80007424:	0c311f23          	sh	gp,222(sp)

0000000080007428 <i_7150>:
    80007428:	0339a9b3          	mulhsu	s3,s3,s3

000000008000742c <i_7151>:
    8000742c:	005182b3          	add	t0,gp,t0

0000000080007430 <i_7152>:
    80007430:	f6815583          	lhu	a1,-152(sp)

0000000080007434 <i_7153>:
    80007434:	e8016183          	lwu	gp,-384(sp)

0000000080007438 <i_7154>:
    80007438:	02b4b2b3          	mulhu	t0,s1,a1

000000008000743c <i_7155>:
    8000743c:	f3313423          	sd	s3,-216(sp)

0000000080007440 <i_7156>:
    80007440:	02b36333          	rem	t1,t1,a1

0000000080007444 <i_7157>:
    80007444:	fe012b83          	lw	s7,-32(sp)

0000000080007448 <i_7158>:
    80007448:	20c58593          	addi	a1,a1,524

000000008000744c <i_7159>:
    8000744c:	02b652b3          	divu	t0,a2,a1

0000000080007450 <i_7160>:
    80007450:	00000013          	nop

0000000080007454 <i_7161>:
    80007454:	73000e13          	li	t3,1840

0000000080007458 <i_7162>:
    80007458:	74300313          	li	t1,1859

000000008000745c <i_7163>:
    8000745c:	02384eb3          	div	t4,a6,gp

0000000080007460 <i_7164>:
    80007460:	e5a15383          	lhu	t2,-422(sp)

0000000080007464 <i_7165>:
    80007464:	74800a93          	li	s5,1864

0000000080007468 <i_7166>:
    80007468:	75000593          	li	a1,1872

000000008000746c <i_7167>:
    8000746c:	f5311923          	sh	s3,-174(sp)

0000000080007470 <i_7168>:
    80007470:	025bc3bb          	divw	t2,s7,t0

0000000080007474 <i_7169>:
    80007474:	001a8a93          	addi	s5,s5,1
    80007478:	ff55dae3          	ble	s5,a1,8000746c <i_7167>

000000008000747c <i_7170>:
    8000747c:	02b59663          	bne	a1,a1,800074a8 <i_7180>

0000000080007480 <i_7171>:
    80007480:	001e0e13          	addi	t3,t3,1
    80007484:	fdc35ce3          	ble	t3,t1,8000745c <i_7163>

0000000080007488 <i_7172>:
    80007488:	e5013983          	ld	s3,-432(sp)

000000008000748c <i_7173>:
    8000748c:	02600d93          	li	s11,38

0000000080007490 <i_7174>:
    80007490:	41b9d5b3          	sra	a1,s3,s11

0000000080007494 <i_7175>:
    80007494:	031ffe3b          	remuw	t3,t6,a7

0000000080007498 <i_7176>:
    80007498:	05c13423          	sd	t3,72(sp)

000000008000749c <i_7177>:
    8000749c:	02628263          	beq	t0,t1,800074c0 <i_7186>

00000000800074a0 <i_7178>:
    800074a0:	09811e03          	lh	t3,152(sp)

00000000800074a4 <i_7179>:
    800074a4:	026ff83b          	remuw	a6,t6,t1

00000000800074a8 <i_7180>:
    800074a8:	00741663          	bne	s0,t2,800074b4 <i_7183>

00000000800074ac <i_7181>:
    800074ac:	00000013          	nop

00000000800074b0 <i_7182>:
    800074b0:	15314503          	lbu	a0,339(sp)

00000000800074b4 <i_7183>:
    800074b4:	00000013          	nop

00000000800074b8 <i_7184>:
    800074b8:	4029dc9b          	sraiw	s9,s3,0x2

00000000800074bc <i_7185>:
    800074bc:	02accdb3          	div	s11,s9,a0

00000000800074c0 <i_7186>:
    800074c0:	00000013          	nop

00000000800074c4 <i_7187>:
    800074c4:	efb13023          	sd	s11,-288(sp)

00000000800074c8 <i_7188>:
    800074c8:	87000e93          	li	t4,-1936

00000000800074cc <i_7189>:
    800074cc:	88300493          	li	s1,-1917

00000000800074d0 <i_7190>:
    800074d0:	002c9c9b          	slliw	s9,s9,0x2

00000000800074d4 <i_7191>:
    800074d4:	00a00513          	li	a0,10

00000000800074d8 <i_7192>:
    800074d8:	00ad9cbb          	sllw	s9,s11,a0

00000000800074dc <i_7193>:
    800074dc:	73800993          	li	s3,1848

00000000800074e0 <i_7194>:
    800074e0:	73d00b93          	li	s7,1853

00000000800074e4 <i_7195>:
    800074e4:	00198993          	addi	s3,s3,1
    800074e8:	ff3bdce3          	ble	s3,s7,800074e0 <i_7194>

00000000800074ec <i_7196>:
    800074ec:	00400513          	li	a0,4

00000000800074f0 <i_7197>:
    800074f0:	00acd3bb          	srlw	t2,s9,a0

00000000800074f4 <i_7198>:
    800074f4:	001e8e93          	addi	t4,t4,1
    800074f8:	fdd4dce3          	ble	t4,s1,800074d0 <i_7190>

00000000800074fc <i_7199>:
    800074fc:	1aa10c03          	lb	s8,426(sp)

0000000080007500 <i_7200>:
    80007500:	1a816383          	lwu	t2,424(sp)

0000000080007504 <i_7201>:
    80007504:	1aa11523          	sh	a0,426(sp)

0000000080007508 <i_7202>:
    80007508:	00755263          	ble	t2,a0,8000750c <i_7203>

000000008000750c <i_7203>:
    8000750c:	00757263          	bleu	t2,a0,80007510 <i_7204>

0000000080007510 <i_7204>:
    80007510:	12c11283          	lh	t0,300(sp)

0000000080007514 <i_7205>:
    80007514:	00129e93          	slli	t4,t0,0x1

0000000080007518 <i_7206>:
    80007518:	038c7263          	bleu	s8,s8,8000753c <i_7215>

000000008000751c <i_7207>:
    8000751c:	e1c15c03          	lhu	s8,-484(sp)

0000000080007520 <i_7208>:
    80007520:	01deec63          	bltu	t4,t4,80007538 <i_7214>

0000000080007524 <i_7209>:
    80007524:	f7013283          	ld	t0,-144(sp)

0000000080007528 <i_7210>:
    80007528:	06a11e83          	lh	t4,106(sp)

000000008000752c <i_7211>:
    8000752c:	010c4833          	xor	a6,s8,a6

0000000080007530 <i_7212>:
    80007530:	038b1063          	bne	s6,s8,80007550 <i_7220>

0000000080007534 <i_7213>:
    80007534:	01084c63          	blt	a6,a6,8000754c <i_7219>

0000000080007538 <i_7214>:
    80007538:	00e10c03          	lb	s8,14(sp)

000000008000753c <i_7215>:
    8000753c:	12013c03          	ld	s8,288(sp)

0000000080007540 <i_7216>:
    80007540:	00b00813          	li	a6,11

0000000080007544 <i_7217>:
    80007544:	010c1c3b          	sllw	s8,s8,a6

0000000080007548 <i_7218>:
    80007548:	0024de1b          	srliw	t3,s1,0x2

000000008000754c <i_7219>:
    8000754c:	e9813423          	sd	s8,-376(sp)

0000000080007550 <i_7220>:
    80007550:	05813b83          	ld	s7,88(sp)

0000000080007554 <i_7221>:
    80007554:	09910c83          	lb	s9,153(sp)

0000000080007558 <i_7222>:
    80007558:	537bcb93          	xori	s7,s7,1335

000000008000755c <i_7223>:
    8000755c:	007bd663          	ble	t2,s7,80007568 <i_7226>

0000000080007560 <i_7224>:
    80007560:	037bccbb          	divw	s9,s7,s7

0000000080007564 <i_7225>:
    80007564:	030ba3b3          	mulhsu	t2,s7,a6

0000000080007568 <i_7226>:
    80007568:	401b80bb          	subw	ra,s7,ra

000000008000756c <i_7227>:
    8000756c:	f6211b83          	lh	s7,-158(sp)

0000000080007570 <i_7228>:
    80007570:	00816d83          	lwu	s11,8(sp)

0000000080007574 <i_7229>:
    80007574:	08812303          	lw	t1,136(sp)

0000000080007578 <i_7230>:
    80007578:	87d00293          	li	t0,-1923

000000008000757c <i_7231>:
    8000757c:	89100213          	li	tp,-1903

0000000080007580 <i_7232>:
    80007580:	006080b3          	add	ra,ra,t1

0000000080007584 <i_7233>:
    80007584:	0210f3bb          	remuw	t2,ra,ra

0000000080007588 <i_7234>:
    80007588:	80000a93          	li	s5,-2048

000000008000758c <i_7235>:
    8000758c:	80d00593          	li	a1,-2035

0000000080007590 <i_7236>:
    80007590:	ea611a23          	sh	t1,-332(sp)

0000000080007594 <i_7237>:
    80007594:	00455093          	srli	ra,a0,0x4

0000000080007598 <i_7238>:
    80007598:	011cacb3          	slt	s9,s9,a7

000000008000759c <i_7239>:
    8000759c:	0260d333          	divu	t1,ra,t1

00000000800075a0 <i_7240>:
    800075a0:	8aa900b7          	lui	ra,0x8aa90

00000000800075a4 <i_7241>:
    800075a4:	001a8a93          	addi	s5,s5,1
    800075a8:	ff55d4e3          	ble	s5,a1,80007590 <i_7236>

00000000800075ac <i_7242>:
    800075ac:	021e9663          	bne	t4,ra,800075d8 <i_7252>

00000000800075b0 <i_7243>:
    800075b0:	4033509b          	sraiw	ra,t1,0x3

00000000800075b4 <i_7244>:
    800075b4:	1aa105a3          	sb	a0,427(sp)

00000000800075b8 <i_7245>:
    800075b8:	18113423          	sd	ra,392(sp)

00000000800075bc <i_7246>:
    800075bc:	00128293          	addi	t0,t0,1
    800075c0:	fc42c0e3          	blt	t0,tp,80007580 <i_7232>

00000000800075c4 <i_7247>:
    800075c4:	40660533          	sub	a0,a2,t1

00000000800075c8 <i_7248>:
    800075c8:	0010f263          	bleu	ra,ra,800075cc <i_7249>

00000000800075cc <i_7249>:
    800075cc:	fc313023          	sd	gp,-64(sp)

00000000800075d0 <i_7250>:
    800075d0:	94b30493          	addi	s1,t1,-1717

00000000800075d4 <i_7251>:
    800075d4:	18912e23          	sw	s1,412(sp)

00000000800075d8 <i_7252>:
    800075d8:	cb642413          	slti	s0,s0,-842

00000000800075dc <i_7253>:
    800075dc:	05410c23          	sb	s4,88(sp)

00000000800075e0 <i_7254>:
    800075e0:	0264c333          	div	t1,s1,t1

00000000800075e4 <i_7255>:
    800075e4:	00a31463          	bne	t1,a0,800075ec <i_7257>

00000000800075e8 <i_7256>:
    800075e8:	f4113823          	sd	ra,-176(sp)

00000000800075ec <i_7257>:
    800075ec:	00836263          	bltu	t1,s0,800075f0 <i_7258>

00000000800075f0 <i_7258>:
    800075f0:	e2111a23          	sh	ra,-460(sp)

00000000800075f4 <i_7259>:
    800075f4:	f6813823          	sd	s0,-144(sp)

00000000800075f8 <i_7260>:
    800075f8:	00441093          	slli	ra,s0,0x4

00000000800075fc <i_7261>:
    800075fc:	1a412383          	lw	t2,420(sp)

0000000080007600 <i_7262>:
    80007600:	03f00613          	li	a2,63

0000000080007604 <i_7263>:
    80007604:	40c3d433          	sra	s0,t2,a2

0000000080007608 <i_7264>:
    80007608:	0083fa63          	bleu	s0,t2,8000761c <i_7269>

000000008000760c <i_7265>:
    8000760c:	00860cb3          	add	s9,a2,s0

0000000080007610 <i_7266>:
    80007610:	485ffeb7          	lui	t4,0x485ff

0000000080007614 <i_7267>:
    80007614:	1ba14403          	lbu	s0,442(sp)

0000000080007618 <i_7268>:
    80007618:	04810ea3          	sb	s0,93(sp)

000000008000761c <i_7269>:
    8000761c:	66ec8c9b          	addiw	s9,s9,1646

0000000080007620 <i_7270>:
    80007620:	e6c12d83          	lw	s11,-404(sp)

0000000080007624 <i_7271>:
    80007624:	401ddc9b          	sraiw	s9,s11,0x1

0000000080007628 <i_7272>:
    80007628:	00100d93          	li	s11,1

000000008000762c <i_7273>:
    8000762c:	01bcdcbb          	srlw	s9,s9,s11

0000000080007630 <i_7274>:
    80007630:	0bb11923          	sh	s11,178(sp)

0000000080007634 <i_7275>:
    80007634:	e9910723          	sb	s9,-370(sp)

0000000080007638 <i_7276>:
    80007638:	099103a3          	sb	s9,135(sp)

000000008000763c <i_7277>:
    8000763c:	00199993          	slli	s3,s3,0x1

0000000080007640 <i_7278>:
    80007640:	1c416c83          	lwu	s9,452(sp)

0000000080007644 <i_7279>:
    80007644:	ef816183          	lwu	gp,-264(sp)

0000000080007648 <i_7280>:
    80007648:	002cdc9b          	srliw	s9,s9,0x2

000000008000764c <i_7281>:
    8000764c:	00300a93          	li	s5,3

0000000080007650 <i_7282>:
    80007650:	015cd233          	srl	tp,s9,s5

0000000080007654 <i_7283>:
    80007654:	01d00a93          	li	s5,29

0000000080007658 <i_7284>:
    80007658:	015c9cbb          	sllw	s9,s9,s5

000000008000765c <i_7285>:
    8000765c:	e3911923          	sh	s9,-462(sp)

0000000080007660 <i_7286>:
    80007660:	035cf263          	bleu	s5,s9,80007684 <i_7295>

0000000080007664 <i_7287>:
    80007664:	004cda9b          	srliw	s5,s9,0x4

0000000080007668 <i_7288>:
    80007668:	a7a24a93          	xori	s5,tp,-1414

000000008000766c <i_7289>:
    8000766c:	003a9c9b          	slliw	s9,s5,0x3

0000000080007670 <i_7290>:
    80007670:	0b511123          	sh	s5,162(sp)

0000000080007674 <i_7291>:
    80007674:	079108a3          	sb	s9,113(sp)

0000000080007678 <i_7292>:
    80007678:	eb912c23          	sw	s9,-328(sp)

000000008000767c <i_7293>:
    8000767c:	401cdc9b          	sraiw	s9,s9,0x1

0000000080007680 <i_7294>:
    80007680:	015a9863          	bne	s5,s5,80007690 <i_7298>

0000000080007684 <i_7295>:
    80007684:	015a8db3          	add	s11,s5,s5

0000000080007688 <i_7296>:
    80007688:	01200813          	li	a6,18

000000008000768c <i_7297>:
    8000768c:	410dd63b          	sraw	a2,s11,a6

0000000080007690 <i_7298>:
    80007690:	ec012983          	lw	s3,-320(sp)

0000000080007694 <i_7299>:
    80007694:	00c9f663          	bleu	a2,s3,800076a0 <i_7302>

0000000080007698 <i_7300>:
    80007698:	015dec63          	bltu	s11,s5,800076b0 <i_7306>

000000008000769c <i_7301>:
    8000769c:	fb215603          	lhu	a2,-78(sp)

00000000800076a0 <i_7302>:
    800076a0:	010d8663          	beq	s11,a6,800076ac <i_7305>

00000000800076a4 <i_7303>:
    800076a4:	033ad063          	ble	s3,s5,800076c4 <i_7311>

00000000800076a8 <i_7304>:
    800076a8:	01813403          	ld	s0,24(sp)

00000000800076ac <i_7305>:
    800076ac:	0a013983          	ld	s3,160(sp)

00000000800076b0 <i_7306>:
    800076b0:	02898063          	beq	s3,s0,800076d0 <i_7314>

00000000800076b4 <i_7307>:
    800076b4:	00600c13          	li	s8,6

00000000800076b8 <i_7308>:
    800076b8:	418459b3          	sra	s3,s0,s8

00000000800076bc <i_7309>:
    800076bc:	0c811723          	sh	s0,206(sp)

00000000800076c0 <i_7310>:
    800076c0:	e3710403          	lb	s0,-457(sp)

00000000800076c4 <i_7311>:
    800076c4:	fc811f23          	sh	s0,-34(sp)

00000000800076c8 <i_7312>:
    800076c8:	4048599b          	sraiw	s3,a6,0x4

00000000800076cc <i_7313>:
    800076cc:	17816a03          	lwu	s4,376(sp)

00000000800076d0 <i_7314>:
    800076d0:	488a7413          	andi	s0,s4,1160

00000000800076d4 <i_7315>:
    800076d4:	0149b4b3          	sltu	s1,s3,s4

00000000800076d8 <i_7316>:
    800076d8:	ec911123          	sh	s1,-318(sp)

00000000800076dc <i_7317>:
    800076dc:	05313823          	sd	s3,80(sp)

00000000800076e0 <i_7318>:
    800076e0:	05910483          	lb	s1,89(sp)

00000000800076e4 <i_7319>:
    800076e4:	18912823          	sw	s1,400(sp)

00000000800076e8 <i_7320>:
    800076e8:	00c48463          	beq	s1,a2,800076f0 <i_7322>

00000000800076ec <i_7321>:
    800076ec:	003edc63          	ble	gp,t4,80007704 <i_7327>

00000000800076f0 <i_7322>:
    800076f0:	f5310403          	lb	s0,-173(sp)

00000000800076f4 <i_7323>:
    800076f4:	408401b3          	sub	gp,s0,s0

00000000800076f8 <i_7324>:
    800076f8:	71b43613          	sltiu	a2,s0,1819

00000000800076fc <i_7325>:
    800076fc:	16c16783          	lwu	a5,364(sp)

0000000080007700 <i_7326>:
    80007700:	0e816d83          	lwu	s11,232(sp)

0000000080007704 <i_7327>:
    80007704:	14f10623          	sb	a5,332(sp)

0000000080007708 <i_7328>:
    80007708:	03c4f1b3          	remu	gp,s1,t3

000000008000770c <i_7329>:
    8000770c:	14813823          	sd	s0,336(sp)

0000000080007710 <i_7330>:
    80007710:	0b013a83          	ld	s5,176(sp)

0000000080007714 <i_7331>:
    80007714:	0231f263          	bleu	gp,gp,80007738 <i_7340>

0000000080007718 <i_7332>:
    80007718:	03547263          	bleu	s5,s0,8000773c <i_7341>

000000008000771c <i_7333>:
    8000771c:	eb812603          	lw	a2,-328(sp)

0000000080007720 <i_7334>:
    80007720:	0291debb          	divuw	t4,gp,s1

0000000080007724 <i_7335>:
    80007724:	40f40833          	sub	a6,s0,a5

0000000080007728 <i_7336>:
    80007728:	f2013183          	ld	gp,-224(sp)

000000008000772c <i_7337>:
    8000772c:	01dd5663          	ble	t4,s10,80007738 <i_7340>

0000000080007730 <i_7338>:
    80007730:	f571be93          	sltiu	t4,gp,-169

0000000080007734 <i_7339>:
    80007734:	f5211e83          	lh	t4,-174(sp)

0000000080007738 <i_7340>:
    80007738:	e9f10183          	lb	gp,-353(sp)

000000008000773c <i_7341>:
    8000773c:	401ed19b          	sraiw	gp,t4,0x1

0000000080007740 <i_7342>:
    80007740:	0d412183          	lw	gp,212(sp)

0000000080007744 <i_7343>:
    80007744:	71c2c293          	xori	t0,t0,1820

0000000080007748 <i_7344>:
    80007748:	cb118493          	addi	s1,gp,-847 # 208f7cb1 <main-0x5f70834f>

000000008000774c <i_7345>:
    8000774c:	ec813283          	ld	t0,-312(sp)

0000000080007750 <i_7346>:
    80007750:	0292d5bb          	divuw	a1,t0,s1

0000000080007754 <i_7347>:
    80007754:	00928a63          	beq	t0,s1,80007768 <i_7352>

0000000080007758 <i_7348>:
    80007758:	e3815c03          	lhu	s8,-456(sp)

000000008000775c <i_7349>:
    8000775c:	009284b3          	add	s1,t0,s1

0000000080007760 <i_7350>:
    80007760:	0d810183          	lb	gp,216(sp)

0000000080007764 <i_7351>:
    80007764:	f5011e23          	sh	a6,-164(sp)

0000000080007768 <i_7352>:
    80007768:	14015c03          	lhu	s8,320(sp)

000000008000776c <i_7353>:
    8000776c:	00558433          	add	s0,a1,t0

0000000080007770 <i_7354>:
    80007770:	f1012583          	lw	a1,-240(sp)

0000000080007774 <i_7355>:
    80007774:	e2811b23          	sh	s0,-458(sp)

0000000080007778 <i_7356>:
    80007778:	0044541b          	srliw	s0,s0,0x4

000000008000777c <i_7357>:
    8000777c:	0181f463          	bleu	s8,gp,80007784 <i_7359>

0000000080007780 <i_7358>:
    80007780:	f2c14803          	lbu	a6,-212(sp)

0000000080007784 <i_7359>:
    80007784:	f0c16303          	lwu	t1,-244(sp)

0000000080007788 <i_7360>:
    80007788:	1393e193          	ori	gp,t2,313

000000008000778c <i_7361>:
    8000778c:	87200393          	li	t2,-1934

0000000080007790 <i_7362>:
    80007790:	87c00c13          	li	s8,-1924

0000000080007794 <i_7363>:
    80007794:	0033e863          	bltu	t2,gp,800077a4 <i_7367>

0000000080007798 <i_7364>:
    80007798:	00000013          	nop

000000008000779c <i_7365>:
    8000779c:	e2013e03          	ld	t3,-480(sp)

00000000800077a0 <i_7366>:
    800077a0:	02530433          	mul	s0,t1,t0

00000000800077a4 <i_7367>:
    800077a4:	3f03fd93          	andi	s11,t2,1008

00000000800077a8 <i_7368>:
    800077a8:	03b3c2bb          	divw	t0,t2,s11

00000000800077ac <i_7369>:
    800077ac:	01baedb3          	or	s11,s5,s11

00000000800077b0 <i_7370>:
    800077b0:	97edd517          	auipc	a0,0x97edd

00000000800077b4 <i_7371>:
    800077b4:	00138393          	addi	t2,t2,1
    800077b8:	fd83cee3          	blt	t2,s8,80007794 <i_7363>

00000000800077bc <i_7372>:
    800077bc:	fec12983          	lw	s3,-20(sp)

00000000800077c0 <i_7373>:
    800077c0:	03398063          	beq	s3,s3,800077e0 <i_7381>

00000000800077c4 <i_7374>:
    800077c4:	01bd85b3          	add	a1,s11,s11

00000000800077c8 <i_7375>:
    800077c8:	02b9d063          	ble	a1,s3,800077e8 <i_7383>

00000000800077cc <i_7376>:
    800077cc:	00a9f9b3          	and	s3,s3,a0

00000000800077d0 <i_7377>:
    800077d0:	16b13c23          	sd	a1,376(sp)

00000000800077d4 <i_7378>:
    800077d4:	02b54463          	blt	a0,a1,800077fc <i_7388>

00000000800077d8 <i_7379>:
    800077d8:	02a38e33          	mul	t3,t2,a0

00000000800077dc <i_7380>:
    800077dc:	00000013          	nop

00000000800077e0 <i_7381>:
    800077e0:	f9310f23          	sb	s3,-98(sp)

00000000800077e4 <i_7382>:
    800077e4:	ff310d23          	sb	s3,-6(sp)

00000000800077e8 <i_7383>:
    800077e8:	f8810083          	lb	ra,-120(sp)

00000000800077ec <i_7384>:
    800077ec:	fa713023          	sd	t2,-96(sp)

00000000800077f0 <i_7385>:
    800077f0:	00000013          	nop

00000000800077f4 <i_7386>:
    800077f4:	00000013          	nop

00000000800077f8 <i_7387>:
    800077f8:	00000013          	nop

00000000800077fc <i_7388>:
    800077fc:	ec910e03          	lb	t3,-311(sp)

0000000080007800 <i_7389>:
    80007800:	1b010e03          	lb	t3,432(sp)

0000000080007804 <i_7390>:
    80007804:	73500393          	li	t2,1845

0000000080007808 <i_7391>:
    80007808:	73b00c13          	li	s8,1851

000000008000780c <i_7392>:
    8000780c:	ed011e03          	lh	t3,-304(sp)

0000000080007810 <i_7393>:
    80007810:	f1c11723          	sh	t3,-242(sp)

0000000080007814 <i_7394>:
    80007814:	00000013          	nop

0000000080007818 <i_7395>:
    80007818:	e6412d83          	lw	s11,-412(sp)

000000008000781c <i_7396>:
    8000781c:	03ce4463          	blt	t3,t3,80007844 <i_7405>

0000000080007820 <i_7397>:
    80007820:	e9416e03          	lwu	t3,-364(sp)

0000000080007824 <i_7398>:
    80007824:	01c2fc63          	bleu	t3,t0,8000783c <i_7403>

0000000080007828 <i_7399>:
    80007828:	00138393          	addi	t2,t2,1
    8000782c:	ff8390e3          	bne	t2,s8,8000780c <i_7392>

0000000080007830 <i_7400>:
    80007830:	05015303          	lhu	t1,80(sp)

0000000080007834 <i_7401>:
    80007834:	f3c10ea3          	sb	t3,-195(sp)

0000000080007838 <i_7402>:
    80007838:	f8013603          	ld	a2,-128(sp)

000000008000783c <i_7403>:
    8000783c:	00ce0663          	beq	t3,a2,80007848 <i_7406>

0000000080007840 <i_7404>:
    80007840:	e9c16e03          	lwu	t3,-356(sp)

0000000080007844 <i_7405>:
    80007844:	00000013          	nop

0000000080007848 <i_7406>:
    80007848:	006dcc33          	xor	s8,s11,t1

000000008000784c <i_7407>:
    8000784c:	00700e13          	li	t3,7

0000000080007850 <i_7408>:
    80007850:	01ce1e3b          	sllw	t3,t3,t3

0000000080007854 <i_7409>:
    80007854:	89e00d93          	li	s11,-1890

0000000080007858 <i_7410>:
    80007858:	8ad00593          	li	a1,-1875

000000008000785c <i_7411>:
    8000785c:	026e2cb3          	mulhsu	s9,t3,t1

0000000080007860 <i_7412>:
    80007860:	001d8d93          	addi	s11,s11,1
    80007864:	ffb5dae3          	ble	s11,a1,80007858 <i_7410>

0000000080007868 <i_7413>:
    80007868:	00000013          	nop

000000008000786c <i_7414>:
    8000786c:	0bc12383          	lw	t2,188(sp)

0000000080007870 <i_7415>:
    80007870:	01cdfe63          	bleu	t3,s11,8000788c <i_7422>

0000000080007874 <i_7416>:
    80007874:	f8411323          	sh	tp,-122(sp)

0000000080007878 <i_7417>:
    80007878:	01b67863          	bleu	s11,a2,80007888 <i_7421>

000000008000787c <i_7418>:
    8000787c:	09913423          	sd	s9,136(sp)

0000000080007880 <i_7419>:
    80007880:	00000013          	nop

0000000080007884 <i_7420>:
    80007884:	01c3f193          	andi	gp,t2,28

0000000080007888 <i_7421>:
    80007888:	4036531b          	sraiw	t1,a2,0x3

000000008000788c <i_7422>:
    8000788c:	00000013          	nop

0000000080007890 <i_7423>:
    80007890:	ecc11e23          	sh	a2,-292(sp)

0000000080007894 <i_7424>:
    80007894:	86f00513          	li	a0,-1937

0000000080007898 <i_7425>:
    80007898:	87300613          	li	a2,-1933

000000008000789c <i_7426>:
    8000789c:	ecc11f23          	sh	a2,-290(sp)

00000000800078a0 <i_7427>:
    800078a0:	00c60263          	beq	a2,a2,800078a4 <i_7428>

00000000800078a4 <i_7428>:
    800078a4:	02634e3b          	divw	t3,t1,t1

00000000800078a8 <i_7429>:
    800078a8:	1e210483          	lb	s1,482(sp)

00000000800078ac <i_7430>:
    800078ac:	00150513          	addi	a0,a0,1 # 17ee47b1 <main-0x6811b84f>
    800078b0:	fea656e3          	ble	a0,a2,8000789c <i_7426>

00000000800078b4 <i_7431>:
    800078b4:	00a00613          	li	a2,10

00000000800078b8 <i_7432>:
    800078b8:	00c194b3          	sll	s1,gp,a2

00000000800078bc <i_7433>:
    800078bc:	03600293          	li	t0,54

00000000800078c0 <i_7434>:
    800078c0:	005d12b3          	sll	t0,s10,t0

00000000800078c4 <i_7435>:
    800078c4:	005bfa33          	and	s4,s7,t0

00000000800078c8 <i_7436>:
    800078c8:	0254f4bb          	remuw	s1,s1,t0

00000000800078cc <i_7437>:
    800078cc:	009a7863          	bleu	s1,s4,800078dc <i_7441>

00000000800078d0 <i_7438>:
    800078d0:	034f8a3b          	mulw	s4,t6,s4

00000000800078d4 <i_7439>:
    800078d4:	01a00493          	li	s1,26

00000000800078d8 <i_7440>:
    800078d8:	009a1a3b          	sllw	s4,s4,s1

00000000800078dc <i_7441>:
    800078dc:	40950a3b          	subw	s4,a0,s1

00000000800078e0 <i_7442>:
    800078e0:	11816c83          	lwu	s9,280(sp)

00000000800078e4 <i_7443>:
    800078e4:	03e00c93          	li	s9,62

00000000800078e8 <i_7444>:
    800078e8:	019a1a33          	sll	s4,s4,s9

00000000800078ec <i_7445>:
    800078ec:	087cba93          	sltiu	s5,s9,135

00000000800078f0 <i_7446>:
    800078f0:	002c9c93          	slli	s9,s9,0x2

00000000800078f4 <i_7447>:
    800078f4:	e9912823          	sw	s9,-368(sp)

00000000800078f8 <i_7448>:
    800078f8:	e3512e23          	sw	s5,-452(sp)

00000000800078fc <i_7449>:
    800078fc:	019cf263          	bleu	s9,s9,80007900 <i_7450>

0000000080007900 <i_7450>:
    80007900:	035ac063          	blt	s5,s5,80007920 <i_7458>

0000000080007904 <i_7451>:
    80007904:	0294f463          	bleu	s1,s1,8000792c <i_7461>

0000000080007908 <i_7452>:
    80007908:	016cf263          	bleu	s6,s9,8000790c <i_7453>

000000008000790c <i_7453>:
    8000790c:	0cc16583          	lwu	a1,204(sp)

0000000080007910 <i_7454>:
    80007910:	ba65f593          	andi	a1,a1,-1114

0000000080007914 <i_7455>:
    80007914:	40b90533          	sub	a0,s2,a1

0000000080007918 <i_7456>:
    80007918:	eec15b83          	lhu	s7,-276(sp)

000000008000791c <i_7457>:
    8000791c:	00b59663          	bne	a1,a1,80007928 <i_7460>

0000000080007920 <i_7458>:
    80007920:	40b585b3          	sub	a1,a1,a1

0000000080007924 <i_7459>:
    80007924:	fbb14283          	lbu	t0,-69(sp)

0000000080007928 <i_7460>:
    80007928:	02550063          	beq	a0,t0,80007948 <i_7468>

000000008000792c <i_7461>:
    8000792c:	00429293          	slli	t0,t0,0x4

0000000080007930 <i_7462>:
    80007930:	02c14503          	lbu	a0,44(sp)

0000000080007934 <i_7463>:
    80007934:	02b10d83          	lb	s11,43(sp)

0000000080007938 <i_7464>:
    80007938:	028aeab3          	rem	s5,s5,s0

000000008000793c <i_7465>:
    8000793c:	02adeabb          	remw	s5,s11,a0

0000000080007940 <i_7466>:
    80007940:	0a310403          	lb	s0,163(sp)

0000000080007944 <i_7467>:
    80007944:	f5013303          	ld	t1,-176(sp)

0000000080007948 <i_7468>:
    80007948:	18611223          	sh	t1,388(sp)

000000008000794c <i_7469>:
    8000794c:	0323033b          	mulw	t1,t1,s2

0000000080007950 <i_7470>:
    80007950:	7a600d93          	li	s11,1958

0000000080007954 <i_7471>:
    80007954:	7a900413          	li	s0,1961

0000000080007958 <i_7472>:
    80007958:	0263033b          	mulw	t1,t1,t1

000000008000795c <i_7473>:
    8000795c:	98330313          	addi	t1,t1,-1661

0000000080007960 <i_7474>:
    80007960:	12611c23          	sh	t1,312(sp)

0000000080007964 <i_7475>:
    80007964:	08611e23          	sh	t1,156(sp)

0000000080007968 <i_7476>:
    80007968:	1ac11423          	sh	a2,424(sp)

000000008000796c <i_7477>:
    8000796c:	001d8d93          	addi	s11,s11,1
    80007970:	ffb474e3          	bleu	s11,s0,80007958 <i_7472>

0000000080007974 <i_7478>:
    80007974:	00630333          	add	t1,t1,t1

0000000080007978 <i_7479>:
    80007978:	006301b3          	add	gp,t1,t1

000000008000797c <i_7480>:
    8000797c:	0239fbb3          	remu	s7,s3,gp

0000000080007980 <i_7481>:
    80007980:	02667bb3          	remu	s7,a2,t1

0000000080007984 <i_7482>:
    80007984:	414c8e3b          	subw	t3,s9,s4

0000000080007988 <i_7483>:
    80007988:	f8210b83          	lb	s7,-126(sp)

000000008000798c <i_7484>:
    8000798c:	01031463          	bne	t1,a6,80007994 <i_7486>

0000000080007990 <i_7485>:
    80007990:	037be263          	bltu	s7,s7,800079b4 <i_7494>

0000000080007994 <i_7486>:
    80007994:	017de7b3          	or	a5,s11,s7

0000000080007998 <i_7487>:
    80007998:	00a00293          	li	t0,10

000000008000799c <i_7488>:
    8000799c:	0053553b          	srlw	a0,t1,t0

00000000800079a0 <i_7489>:
    800079a0:	01500993          	li	s3,21

00000000800079a4 <i_7490>:
    800079a4:	4139d9b3          	sra	s3,s3,s3

00000000800079a8 <i_7491>:
    800079a8:	f6011503          	lh	a0,-160(sp)

00000000800079ac <i_7492>:
    800079ac:	04416e03          	lwu	t3,68(sp)

00000000800079b0 <i_7493>:
    800079b0:	f5b9ea13          	ori	s4,s3,-165

00000000800079b4 <i_7494>:
    800079b4:	00000013          	nop

00000000800079b8 <i_7495>:
    800079b8:	00351993          	slli	s3,a0,0x3

00000000800079bc <i_7496>:
    800079bc:	8c700c13          	li	s8,-1849

00000000800079c0 <i_7497>:
    800079c0:	8d600d93          	li	s11,-1834

00000000800079c4 <i_7498>:
    800079c4:	f2c12303          	lw	t1,-212(sp)

00000000800079c8 <i_7499>:
    800079c8:	02815303          	lhu	t1,40(sp)

00000000800079cc <i_7500>:
    800079cc:	01335263          	ble	s3,t1,800079d0 <i_7501>

00000000800079d0 <i_7501>:
    800079d0:	19312023          	sw	s3,384(sp)

00000000800079d4 <i_7502>:
    800079d4:	033ec9b3          	div	s3,t4,s3

00000000800079d8 <i_7503>:
    800079d8:	dd8e0313          	addi	t1,t3,-552

00000000800079dc <i_7504>:
    800079dc:	e4314503          	lbu	a0,-445(sp)

00000000800079e0 <i_7505>:
    800079e0:	001c0c13          	addi	s8,s8,1 # 74277f1d <main-0xbd880e3>
    800079e4:	ff8df0e3          	bleu	s8,s11,800079c4 <i_7498>

00000000800079e8 <i_7506>:
    800079e8:	e9f13023          	sd	t6,-384(sp)

00000000800079ec <i_7507>:
    800079ec:	00385593          	srli	a1,a6,0x3

00000000800079f0 <i_7508>:
    800079f0:	08e14983          	lbu	s3,142(sp)

00000000800079f4 <i_7509>:
    800079f4:	1d211e03          	lh	t3,466(sp)

00000000800079f8 <i_7510>:
    800079f8:	01c9e263          	bltu	s3,t3,800079fc <i_7511>

00000000800079fc <i_7511>:
    800079fc:	08611e23          	sh	t1,156(sp)

0000000080007a00 <i_7512>:
    80007a00:	f0810503          	lb	a0,-248(sp)

0000000080007a04 <i_7513>:
    80007a04:	e2214983          	lbu	s3,-478(sp)

0000000080007a08 <i_7514>:
    80007a08:	01500b93          	li	s7,21

0000000080007a0c <i_7515>:
    80007a0c:	41775c3b          	sraw	s8,a4,s7

0000000080007a10 <i_7516>:
    80007a10:	0385fe33          	remu	t3,a1,s8

0000000080007a14 <i_7517>:
    80007a14:	02354063          	blt	a0,gp,80007a34 <i_7525>

0000000080007a18 <i_7518>:
    80007a18:	01288cb3          	add	s9,a7,s2

0000000080007a1c <i_7519>:
    80007a1c:	02d51063          	bne	a0,a3,80007a3c <i_7527>

0000000080007a20 <i_7520>:
    80007a20:	f8852a37          	lui	s4,0xf8852

0000000080007a24 <i_7521>:
    80007a24:	03034cb3          	div	s9,t1,a6

0000000080007a28 <i_7522>:
    80007a28:	f5310803          	lb	a6,-173(sp)

0000000080007a2c <i_7523>:
    80007a2c:	f4211c83          	lh	s9,-190(sp)

0000000080007a30 <i_7524>:
    80007a30:	001d139b          	slliw	t2,s10,0x1

0000000080007a34 <i_7525>:
    80007a34:	03480263          	beq	a6,s4,80007a58 <i_7534>

0000000080007a38 <i_7526>:
    80007a38:	ea611623          	sh	t1,-340(sp)

0000000080007a3c <i_7527>:
    80007a3c:	0353e063          	bltu	t2,s5,80007a5c <i_7535>

0000000080007a40 <i_7528>:
    80007a40:	007a7a63          	bleu	t2,s4,80007a54 <i_7533>

0000000080007a44 <i_7529>:
    80007a44:	f6a11383          	lh	t2,-150(sp)

0000000080007a48 <i_7530>:
    80007a48:	07f14d83          	lbu	s11,127(sp)

0000000080007a4c <i_7531>:
    80007a4c:	efb13823          	sd	s11,-272(sp)

0000000080007a50 <i_7532>:
    80007a50:	06611023          	sh	t1,96(sp)

0000000080007a54 <i_7533>:
    80007a54:	02a15383          	lhu	t2,42(sp)

0000000080007a58 <i_7534>:
    80007a58:	fe712423          	sw	t2,-24(sp)

0000000080007a5c <i_7535>:
    80007a5c:	00000013          	nop

0000000080007a60 <i_7536>:
    80007a60:	26032e93          	slti	t4,t1,608

0000000080007a64 <i_7537>:
    80007a64:	84e00993          	li	s3,-1970

0000000080007a68 <i_7538>:
    80007a68:	85800d93          	li	s11,-1960

0000000080007a6c <i_7539>:
    80007a6c:	00198993          	addi	s3,s3,1
    80007a70:	ffb9cee3          	blt	s3,s11,80007a6c <i_7539>

0000000080007a74 <i_7540>:
    80007a74:	02b9e3bb          	remw	t2,s3,a1

0000000080007a78 <i_7541>:
    80007a78:	0333c063          	blt	t2,s3,80007a98 <i_7549>

0000000080007a7c <i_7542>:
    80007a7c:	033ae3b3          	rem	t2,s5,s3

0000000080007a80 <i_7543>:
    80007a80:	15016203          	lwu	tp,336(sp)

0000000080007a84 <i_7544>:
    80007a84:	00000013          	nop

0000000080007a88 <i_7545>:
    80007a88:	e4813083          	ld	ra,-440(sp)

0000000080007a8c <i_7546>:
    80007a8c:	0d811403          	lh	s0,216(sp)

0000000080007a90 <i_7547>:
    80007a90:	1b510e03          	lb	t3,437(sp)

0000000080007a94 <i_7548>:
    80007a94:	0210ce3b          	divw	t3,ra,ra

0000000080007a98 <i_7549>:
    80007a98:	0dc11623          	sh	t3,204(sp)

0000000080007a9c <i_7550>:
    80007a9c:	09310083          	lb	ra,147(sp)

0000000080007aa0 <i_7551>:
    80007aa0:	7a200993          	li	s3,1954

0000000080007aa4 <i_7552>:
    80007aa4:	7b600313          	li	t1,1974

0000000080007aa8 <i_7553>:
    80007aa8:	e8813e03          	ld	t3,-376(sp)

0000000080007aac <i_7554>:
    80007aac:	021c5c33          	divu	s8,s8,ra

0000000080007ab0 <i_7555>:
    80007ab0:	00b00493          	li	s1,11

0000000080007ab4 <i_7556>:
    80007ab4:	0090de3b          	srlw	t3,ra,s1

0000000080007ab8 <i_7557>:
    80007ab8:	029e6663          	bltu	t3,s1,80007ae4 <i_7567>

0000000080007abc <i_7558>:
    80007abc:	1e016e03          	lwu	t3,480(sp)

0000000080007ac0 <i_7559>:
    80007ac0:	00000013          	nop

0000000080007ac4 <i_7560>:
    80007ac4:	00900593          	li	a1,9

0000000080007ac8 <i_7561>:
    80007ac8:	00b4d83b          	srlw	a6,s1,a1

0000000080007acc <i_7562>:
    80007acc:	00198993          	addi	s3,s3,1
    80007ad0:	fc69cce3          	blt	s3,t1,80007aa8 <i_7553>

0000000080007ad4 <i_7563>:
    80007ad4:	02f14803          	lbu	a6,47(sp)

0000000080007ad8 <i_7564>:
    80007ad8:	ee013203          	ld	tp,-288(sp)

0000000080007adc <i_7565>:
    80007adc:	00b5ce63          	blt	a1,a1,80007af8 <i_7572>

0000000080007ae0 <i_7566>:
    80007ae0:	21c51597          	auipc	a1,0x21c51

0000000080007ae4 <i_7567>:
    80007ae4:	02b27063          	bleu	a1,tp,80007b04 <i_7575>

0000000080007ae8 <i_7568>:
    80007ae8:	02b5e263          	bltu	a1,a1,80007b0c <i_7577>

0000000080007aec <i_7569>:
    80007aec:	fe412c23          	sw	tp,-8(sp)

0000000080007af0 <i_7570>:
    80007af0:	1dc15803          	lhu	a6,476(sp)

0000000080007af4 <i_7571>:
    80007af4:	00b5c863          	blt	a1,a1,80007b04 <i_7575>

0000000080007af8 <i_7572>:
    80007af8:	01020633          	add	a2,tp,a6

0000000080007afc <i_7573>:
    80007afc:	11416203          	lwu	tp,276(sp)

0000000080007b00 <i_7574>:
    80007b00:	f4814203          	lbu	tp,-184(sp)

0000000080007b04 <i_7575>:
    80007b04:	f0410523          	sb	tp,-246(sp)

0000000080007b08 <i_7576>:
    80007b08:	e9610f23          	sb	s6,-354(sp)

0000000080007b0c <i_7577>:
    80007b0c:	f8c11a23          	sh	a2,-108(sp)

0000000080007b10 <i_7578>:
    80007b10:	00c27863          	bleu	a2,tp,80007b20 <i_7582>

0000000080007b14 <i_7579>:
    80007b14:	55f27213          	andi	tp,tp,1375

0000000080007b18 <i_7580>:
    80007b18:	02427263          	bleu	tp,tp,80007b3c <i_7589>

0000000080007b1c <i_7581>:
    80007b1c:	17711b23          	sh	s7,374(sp)

0000000080007b20 <i_7582>:
    80007b20:	010b8a33          	add	s4,s7,a6

0000000080007b24 <i_7583>:
    80007b24:	03ce1833          	mulh	a6,t3,t3

0000000080007b28 <i_7584>:
    80007b28:	0d114e83          	lbu	t4,209(sp)

0000000080007b2c <i_7585>:
    80007b2c:	00000013          	nop

0000000080007b30 <i_7586>:
    80007b30:	03def2b3          	remu	t0,t4,t4

0000000080007b34 <i_7587>:
    80007b34:	03d2f1bb          	remuw	gp,t0,t4

0000000080007b38 <i_7588>:
    80007b38:	f8816283          	lwu	t0,-120(sp)

0000000080007b3c <i_7589>:
    80007b3c:	74174293          	xori	t0,a4,1857

0000000080007b40 <i_7590>:
    80007b40:	e3114e83          	lbu	t4,-463(sp)

0000000080007b44 <i_7591>:
    80007b44:	88400213          	li	tp,-1916

0000000080007b48 <i_7592>:
    80007b48:	89100b93          	li	s7,-1903

0000000080007b4c <i_7593>:
    80007b4c:	0c013c83          	ld	s9,192(sp)

0000000080007b50 <i_7594>:
    80007b50:	00000013          	nop

0000000080007b54 <i_7595>:
    80007b54:	7c100793          	li	a5,1985

0000000080007b58 <i_7596>:
    80007b58:	7d200e13          	li	t3,2002

0000000080007b5c <i_7597>:
    80007b5c:	00178793          	addi	a5,a5,1
    80007b60:	ffc7eee3          	bltu	a5,t3,80007b5c <i_7597>

0000000080007b64 <i_7598>:
    80007b64:	402cd813          	srai	a6,s9,0x2

0000000080007b68 <i_7599>:
    80007b68:	09211803          	lh	a6,146(sp)

0000000080007b6c <i_7600>:
    80007b6c:	e2c12983          	lw	s3,-468(sp)

0000000080007b70 <i_7601>:
    80007b70:	00120213          	addi	tp,tp,1 # 1 <main-0x7fffffff>
    80007b74:	fd726ce3          	bltu	tp,s7,80007b4c <i_7593>

0000000080007b78 <i_7602>:
    80007b78:	4028561b          	sraiw	a2,a6,0x2

0000000080007b7c <i_7603>:
    80007b7c:	ed911323          	sh	s9,-314(sp)

0000000080007b80 <i_7604>:
    80007b80:	02500c93          	li	s9,37

0000000080007b84 <i_7605>:
    80007b84:	019659b3          	srl	s3,a2,s9

0000000080007b88 <i_7606>:
    80007b88:	00c98633          	add	a2,s3,a2

0000000080007b8c <i_7607>:
    80007b8c:	0249d23b          	divuw	tp,s3,tp

0000000080007b90 <i_7608>:
    80007b90:	40465b93          	srai	s7,a2,0x4

0000000080007b94 <i_7609>:
    80007b94:	02cbd9b3          	divu	s3,s7,a2

0000000080007b98 <i_7610>:
    80007b98:	74900613          	li	a2,1865

0000000080007b9c <i_7611>:
    80007b9c:	75000213          	li	tp,1872

0000000080007ba0 <i_7612>:
    80007ba0:	04e9cb93          	xori	s7,s3,78

0000000080007ba4 <i_7613>:
    80007ba4:	00000013          	nop

0000000080007ba8 <i_7614>:
    80007ba8:	fb310e23          	sb	s3,-68(sp)

0000000080007bac <i_7615>:
    80007bac:	00160613          	addi	a2,a2,1 # ffffffffa279e001 <_end+0xffffffff2278dbed>
    80007bb0:	fec258e3          	ble	a2,tp,80007ba0 <i_7612>

0000000080007bb4 <i_7616>:
    80007bb4:	017b8a63          	beq	s7,s7,80007bc8 <i_7621>

0000000080007bb8 <i_7617>:
    80007bb8:	04813583          	ld	a1,72(sp)

0000000080007bbc <i_7618>:
    80007bbc:	00000013          	nop

0000000080007bc0 <i_7619>:
    80007bc0:	e2c11823          	sh	a2,-464(sp)

0000000080007bc4 <i_7620>:
    80007bc4:	12c13823          	sd	a2,304(sp)

0000000080007bc8 <i_7621>:
    80007bc8:	00000013          	nop

0000000080007bcc <i_7622>:
    80007bcc:	0015dd93          	srli	s11,a1,0x1

0000000080007bd0 <i_7623>:
    80007bd0:	89100613          	li	a2,-1903

0000000080007bd4 <i_7624>:
    80007bd4:	8a000213          	li	tp,-1888

0000000080007bd8 <i_7625>:
    80007bd8:	402bd593          	srai	a1,s7,0x2

0000000080007bdc <i_7626>:
    80007bdc:	12215b83          	lhu	s7,290(sp)

0000000080007be0 <i_7627>:
    80007be0:	02b59ab3          	mulh	s5,a1,a1

0000000080007be4 <i_7628>:
    80007be4:	02cdadb3          	mulhsu	s11,s11,a2

0000000080007be8 <i_7629>:
    80007be8:	00160613          	addi	a2,a2,1
    80007bec:	fec256e3          	ble	a2,tp,80007bd8 <i_7625>

0000000080007bf0 <i_7630>:
    80007bf0:	e2215d83          	lhu	s11,-478(sp)

0000000080007bf4 <i_7631>:
    80007bf4:	f4c11583          	lh	a1,-180(sp)

0000000080007bf8 <i_7632>:
    80007bf8:	18416a83          	lwu	s5,388(sp)

0000000080007bfc <i_7633>:
    80007bfc:	19012e03          	lw	t3,400(sp)

0000000080007c00 <i_7634>:
    80007c00:	05511923          	sh	s5,82(sp)

0000000080007c04 <i_7635>:
    80007c04:	037e0a33          	mul	s4,t3,s7

0000000080007c08 <i_7636>:
    80007c08:	80400d93          	li	s11,-2044

0000000080007c0c <i_7637>:
    80007c0c:	81500293          	li	t0,-2027

0000000080007c10 <i_7638>:
    80007c10:	00000013          	nop

0000000080007c14 <i_7639>:
    80007c14:	025a0eb3          	mul	t4,s4,t0

0000000080007c18 <i_7640>:
    80007c18:	001d8d93          	addi	s11,s11,1
    80007c1c:	fe5deae3          	bltu	s11,t0,80007c10 <i_7638>

0000000080007c20 <i_7641>:
    80007c20:	fe813e03          	ld	t3,-24(sp)

0000000080007c24 <i_7642>:
    80007c24:	014ef3b3          	and	t2,t4,s4

0000000080007c28 <i_7643>:
    80007c28:	f9a15183          	lhu	gp,-102(sp)

0000000080007c2c <i_7644>:
    80007c2c:	fcb10c03          	lb	s8,-53(sp)

0000000080007c30 <i_7645>:
    80007c30:	1ba11283          	lh	t0,442(sp)

0000000080007c34 <i_7646>:
    80007c34:	03d2fa33          	remu	s4,t0,t4

0000000080007c38 <i_7647>:
    80007c38:	f7812023          	sw	s8,-160(sp)

0000000080007c3c <i_7648>:
    80007c3c:	11c11523          	sh	t3,266(sp)

0000000080007c40 <i_7649>:
    80007c40:	034dea33          	rem	s4,s11,s4

0000000080007c44 <i_7650>:
    80007c44:	17b11e23          	sh	s11,380(sp)

0000000080007c48 <i_7651>:
    80007c48:	03c10e3b          	mulw	t3,sp,t3

0000000080007c4c <i_7652>:
    80007c4c:	ff310e03          	lb	t3,-13(sp)

0000000080007c50 <i_7653>:
    80007c50:	0252c633          	div	a2,t0,t0

0000000080007c54 <i_7654>:
    80007c54:	02de0263          	beq	t3,a3,80007c78 <i_7663>

0000000080007c58 <i_7655>:
    80007c58:	01363ab3          	sltu	s5,a2,s3

0000000080007c5c <i_7656>:
    80007c5c:	01444633          	xor	a2,s0,s4

0000000080007c60 <i_7657>:
    80007c60:	0b412623          	sw	s4,172(sp)

0000000080007c64 <i_7658>:
    80007c64:	e9a11983          	lh	s3,-358(sp)

0000000080007c68 <i_7659>:
    80007c68:	01366c63          	bltu	a2,s3,80007c80 <i_7665>

0000000080007c6c <i_7660>:
    80007c6c:	005dbdb3          	sltu	s11,s11,t0

0000000080007c70 <i_7661>:
    80007c70:	1c211c83          	lh	s9,450(sp)

0000000080007c74 <i_7662>:
    80007c74:	03810203          	lb	tp,56(sp)

0000000080007c78 <i_7663>:
    80007c78:	ecc16203          	lwu	tp,-308(sp)

0000000080007c7c <i_7664>:
    80007c7c:	024da9b3          	mulhsu	s3,s11,tp

0000000080007c80 <i_7665>:
    80007c80:	4039d213          	srai	tp,s3,0x3

0000000080007c84 <i_7666>:
    80007c84:	0139fa63          	bleu	s3,s3,80007c98 <i_7671>

0000000080007c88 <i_7667>:
    80007c88:	12011203          	lh	tp,288(sp)

0000000080007c8c <i_7668>:
    80007c8c:	0a013983          	ld	s3,160(sp)

0000000080007c90 <i_7669>:
    80007c90:	b679c193          	xori	gp,s3,-1177

0000000080007c94 <i_7670>:
    80007c94:	4017d21b          	sraiw	tp,a5,0x1

0000000080007c98 <i_7671>:
    80007c98:	18c10203          	lb	tp,396(sp)

0000000080007c9c <i_7672>:
    80007c9c:	00318863          	beq	gp,gp,80007cac <i_7676>

0000000080007ca0 <i_7673>:
    80007ca0:	4841e293          	ori	t0,gp,1156

0000000080007ca4 <i_7674>:
    80007ca4:	0252c1b3          	div	gp,t0,t0

0000000080007ca8 <i_7675>:
    80007ca8:	00b280b3          	add	ra,t0,a1

0000000080007cac <i_7676>:
    80007cac:	0052b9b3          	sltu	s3,t0,t0

0000000080007cb0 <i_7677>:
    80007cb0:	00113023          	sd	ra,0(sp)

0000000080007cb4 <i_7678>:
    80007cb4:	00187bb3          	and	s7,a6,ra

0000000080007cb8 <i_7679>:
    80007cb8:	14d14c03          	lbu	s8,333(sp)

0000000080007cbc <i_7680>:
    80007cbc:	001c1663          	bne	s8,ra,80007cc8 <i_7683>

0000000080007cc0 <i_7681>:
    80007cc0:	01376eb3          	or	t4,a4,s3

0000000080007cc4 <i_7682>:
    80007cc4:	038ed4bb          	divuw	s1,t4,s8

0000000080007cc8 <i_7683>:
    80007cc8:	10215983          	lhu	s3,258(sp)

0000000080007ccc <i_7684>:
    80007ccc:	00000013          	nop

0000000080007cd0 <i_7685>:
    80007cd0:	8c300193          	li	gp,-1853

0000000080007cd4 <i_7686>:
    80007cd4:	8cc00c93          	li	s9,-1844

0000000080007cd8 <i_7687>:
    80007cd8:	4044d993          	srai	s3,s1,0x4

0000000080007cdc <i_7688>:
    80007cdc:	eb414483          	lbu	s1,-332(sp)

0000000080007ce0 <i_7689>:
    80007ce0:	0334aeb3          	mulhsu	t4,s1,s3

0000000080007ce4 <i_7690>:
    80007ce4:	00000013          	nop

0000000080007ce8 <i_7691>:
    80007ce8:	e9812e83          	lw	t4,-360(sp)

0000000080007cec <i_7692>:
    80007cec:	f1011783          	lh	a5,-240(sp)

0000000080007cf0 <i_7693>:
    80007cf0:	03d13c23          	sd	t4,56(sp)

0000000080007cf4 <i_7694>:
    80007cf4:	01349c63          	bne	s1,s3,80007d0c <i_7699>

0000000080007cf8 <i_7695>:
    80007cf8:	02800e93          	li	t4,40

0000000080007cfc <i_7696>:
    80007cfc:	01d7deb3          	srl	t4,a5,t4

0000000080007d00 <i_7697>:
    80007d00:	00118193          	addi	gp,gp,1
    80007d04:	fc3cfae3          	bleu	gp,s9,80007cd8 <i_7687>

0000000080007d08 <i_7698>:
    80007d08:	02fbfbbb          	remuw	s7,s7,a5

0000000080007d0c <i_7699>:
    80007d0c:	41d181bb          	subw	gp,gp,t4

0000000080007d10 <i_7700>:
    80007d10:	0a313c23          	sd	gp,184(sp)

0000000080007d14 <i_7701>:
    80007d14:	eb712423          	sw	s7,-344(sp)

0000000080007d18 <i_7702>:
    80007d18:	87fd6d93          	ori	s11,s10,-1921

0000000080007d1c <i_7703>:
    80007d1c:	06612623          	sw	t1,108(sp)

0000000080007d20 <i_7704>:
    80007d20:	fe811e83          	lh	t4,-24(sp)

0000000080007d24 <i_7705>:
    80007d24:	037e8abb          	mulw	s5,t4,s7

0000000080007d28 <i_7706>:
    80007d28:	e4e14b83          	lbu	s7,-434(sp)

0000000080007d2c <i_7707>:
    80007d2c:	00c63633          	sltu	a2,a2,a2

0000000080007d30 <i_7708>:
    80007d30:	02d41433          	mulh	s0,s0,a3

0000000080007d34 <i_7709>:
    80007d34:	f1614603          	lbu	a2,-234(sp)

0000000080007d38 <i_7710>:
    80007d38:	74c00513          	li	a0,1868

0000000080007d3c <i_7711>:
    80007d3c:	75c00a13          	li	s4,1884

0000000080007d40 <i_7712>:
    80007d40:	eb811303          	lh	t1,-328(sp)

0000000080007d44 <i_7713>:
    80007d44:	f2610e23          	sb	t1,-196(sp)

0000000080007d48 <i_7714>:
    80007d48:	eee34313          	xori	t1,t1,-274

0000000080007d4c <i_7715>:
    80007d4c:	026745b3          	div	a1,a4,t1

0000000080007d50 <i_7716>:
    80007d50:	0035909b          	slliw	ra,a1,0x3

0000000080007d54 <i_7717>:
    80007d54:	02109333          	mulh	t1,ra,ra

0000000080007d58 <i_7718>:
    80007d58:	f5813583          	ld	a1,-168(sp)

0000000080007d5c <i_7719>:
    80007d5c:	00150513          	addi	a0,a0,1
    80007d60:	feaa50e3          	ble	a0,s4,80007d40 <i_7712>

0000000080007d64 <i_7720>:
    80007d64:	12611723          	sh	t1,302(sp)

0000000080007d68 <i_7721>:
    80007d68:	14813283          	ld	t0,328(sp)

0000000080007d6c <i_7722>:
    80007d6c:	1e013583          	ld	a1,480(sp)

0000000080007d70 <i_7723>:
    80007d70:	ea816583          	lwu	a1,-344(sp)

0000000080007d74 <i_7724>:
    80007d74:	025325b3          	mulhsu	a1,t1,t0

0000000080007d78 <i_7725>:
    80007d78:	0ec11083          	lh	ra,236(sp)

0000000080007d7c <i_7726>:
    80007d7c:	d42782b7          	lui	t0,0xd4278

0000000080007d80 <i_7727>:
    80007d80:	f2512623          	sw	t0,-212(sp)

0000000080007d84 <i_7728>:
    80007d84:	15611723          	sh	s6,334(sp)

0000000080007d88 <i_7729>:
    80007d88:	00187c63          	bleu	ra,a6,80007da0 <i_7735>

0000000080007d8c <i_7730>:
    80007d8c:	01029c63          	bne	t0,a6,80007da4 <i_7736>

0000000080007d90 <i_7731>:
    80007d90:	11e15483          	lhu	s1,286(sp)

0000000080007d94 <i_7732>:
    80007d94:	0102ce63          	blt	t0,a6,80007db0 <i_7739>

0000000080007d98 <i_7733>:
    80007d98:	8ab08a1b          	addiw	s4,ra,-1877

0000000080007d9c <i_7734>:
    80007d9c:	0f011f23          	sh	a6,254(sp)

0000000080007da0 <i_7735>:
    80007da0:	001b1663          	bne	s6,ra,80007dac <i_7738>

0000000080007da4 <i_7736>:
    80007da4:	00d48263          	beq	s1,a3,80007da8 <i_7737>

0000000080007da8 <i_7737>:
    80007da8:	0254c1b3          	div	gp,s1,t0

0000000080007dac <i_7738>:
    80007dac:	7bc4e493          	ori	s1,s1,1980

0000000080007db0 <i_7739>:
    80007db0:	0144e663          	bltu	s1,s4,80007dbc <i_7742>

0000000080007db4 <i_7740>:
    80007db4:	0351c83b          	divw	a6,gp,s5

0000000080007db8 <i_7741>:
    80007db8:	030a683b          	remw	a6,s4,a6

0000000080007dbc <i_7742>:
    80007dbc:	003a0c63          	beq	s4,gp,80007dd4 <i_7748>

0000000080007dc0 <i_7743>:
    80007dc0:	2df34a13          	xori	s4,t1,735

0000000080007dc4 <i_7744>:
    80007dc4:	04013a03          	ld	s4,64(sp)

0000000080007dc8 <i_7745>:
    80007dc8:	e4016a03          	lwu	s4,-448(sp)

0000000080007dcc <i_7746>:
    80007dcc:	15011423          	sh	a6,328(sp)

0000000080007dd0 <i_7747>:
    80007dd0:	410a0bb3          	sub	s7,s4,a6

0000000080007dd4 <i_7748>:
    80007dd4:	e8813a03          	ld	s4,-376(sp)

0000000080007dd8 <i_7749>:
    80007dd8:	10010983          	lb	s3,256(sp)

0000000080007ddc <i_7750>:
    80007ddc:	01380a63          	beq	a6,s3,80007df0 <i_7755>

0000000080007de0 <i_7751>:
    80007de0:	6db8b997          	auipc	s3,0x6db8b

0000000080007de4 <i_7752>:
    80007de4:	0b013c83          	ld	s9,176(sp)

0000000080007de8 <i_7753>:
    80007de8:	0cf11323          	sh	a5,198(sp)

0000000080007dec <i_7754>:
    80007dec:	10016783          	lwu	a5,256(sp)

0000000080007df0 <i_7755>:
    80007df0:	90a1cc97          	auipc	s9,0x90a1c

0000000080007df4 <i_7756>:
    80007df4:	003cd793          	srli	a5,s9,0x3

0000000080007df8 <i_7757>:
    80007df8:	73700813          	li	a6,1847

0000000080007dfc <i_7758>:
    80007dfc:	73a00b93          	li	s7,1850

0000000080007e00 <i_7759>:
    80007e00:	00000013          	nop

0000000080007e04 <i_7760>:
    80007e04:	e3912623          	sw	s9,-468(sp)

0000000080007e08 <i_7761>:
    80007e08:	00180813          	addi	a6,a6,1
    80007e0c:	ff0bfae3          	bleu	a6,s7,80007e00 <i_7759>

0000000080007e10 <i_7762>:
    80007e10:	15811e83          	lh	t4,344(sp)

0000000080007e14 <i_7763>:
    80007e14:	ec310e03          	lb	t3,-317(sp)

0000000080007e18 <i_7764>:
    80007e18:	f5615e03          	lhu	t3,-170(sp)

0000000080007e1c <i_7765>:
    80007e1c:	f1615c83          	lhu	s9,-234(sp)

0000000080007e20 <i_7766>:
    80007e20:	f2211823          	sh	sp,-208(sp)

0000000080007e24 <i_7767>:
    80007e24:	0397c263          	blt	a5,s9,80007e48 <i_7776>

0000000080007e28 <i_7768>:
    80007e28:	09c11783          	lh	a5,156(sp)

0000000080007e2c <i_7769>:
    80007e2c:	0190e263          	bltu	ra,s9,80007e30 <i_7770>

0000000080007e30 <i_7770>:
    80007e30:	faf13423          	sd	a5,-88(sp)

0000000080007e34 <i_7771>:
    80007e34:	fae15d83          	lhu	s11,-82(sp)

0000000080007e38 <i_7772>:
    80007e38:	1bb14b83          	lbu	s7,443(sp)

0000000080007e3c <i_7773>:
    80007e3c:	00fc8c63          	beq	s9,a5,80007e54 <i_7779>

0000000080007e40 <i_7774>:
    80007e40:	2d245cb7          	lui	s9,0x2d245

0000000080007e44 <i_7775>:
    80007e44:	badc8c9b          	addiw	s9,s9,-1107

0000000080007e48 <i_7776>:
    80007e48:	01910863          	beq	sp,s9,80007e58 <i_7780>

0000000080007e4c <i_7777>:
    80007e4c:	e2611583          	lh	a1,-474(sp)

0000000080007e50 <i_7778>:
    80007e50:	1dd12a23          	sw	t4,468(sp)

0000000080007e54 <i_7779>:
    80007e54:	bbfb0b9b          	addiw	s7,s6,-1089

0000000080007e58 <i_7780>:
    80007e58:	019ee463          	bltu	t4,s9,80007e60 <i_7782>

0000000080007e5c <i_7781>:
    80007e5c:	0d712e23          	sw	s7,220(sp)

0000000080007e60 <i_7782>:
    80007e60:	0d913823          	sd	s9,208(sp)

0000000080007e64 <i_7783>:
    80007e64:	00fcc663          	blt	s9,a5,80007e70 <i_7786>

0000000080007e68 <i_7784>:
    80007e68:	03ccd063          	ble	t3,s9,80007e88 <i_7792>

0000000080007e6c <i_7785>:
    80007e6c:	15011c83          	lh	s9,336(sp)

0000000080007e70 <i_7786>:
    80007e70:	ce3ca593          	slti	a1,s9,-797

0000000080007e74 <i_7787>:
    80007e74:	03f68063          	beq	a3,t6,80007e94 <i_7795>

0000000080007e78 <i_7788>:
    80007e78:	04310583          	lb	a1,67(sp)

0000000080007e7c <i_7789>:
    80007e7c:	01de5263          	ble	t4,t3,80007e80 <i_7790>

0000000080007e80 <i_7790>:
    80007e80:	00f58863          	beq	a1,a5,80007e90 <i_7794>

0000000080007e84 <i_7791>:
    80007e84:	0a7109a3          	sb	t2,179(sp)

0000000080007e88 <i_7792>:
    80007e88:	eb9105a3          	sb	s9,-341(sp)

0000000080007e8c <i_7793>:
    80007e8c:	ed812c83          	lw	s9,-296(sp)

0000000080007e90 <i_7794>:
    80007e90:	019bc463          	blt	s7,s9,80007e98 <i_7796>

0000000080007e94 <i_7795>:
    80007e94:	e5b12423          	sw	s11,-440(sp)

0000000080007e98 <i_7796>:
    80007e98:	00b7d863          	ble	a1,a5,80007ea8 <i_7800>

0000000080007e9c <i_7797>:
    80007e9c:	f8e10583          	lb	a1,-114(sp)

0000000080007ea0 <i_7798>:
    80007ea0:	04b13023          	sd	a1,64(sp)

0000000080007ea4 <i_7799>:
    80007ea4:	eab13023          	sd	a1,-352(sp)

0000000080007ea8 <i_7800>:
    80007ea8:	00b58263          	beq	a1,a1,80007eac <i_7801>

0000000080007eac <i_7801>:
    80007eac:	40b585bb          	subw	a1,a1,a1

0000000080007eb0 <i_7802>:
    80007eb0:	01100a93          	li	s5,17

0000000080007eb4 <i_7803>:
    80007eb4:	0155d5bb          	srlw	a1,a1,s5

0000000080007eb8 <i_7804>:
    80007eb8:	73e00b93          	li	s7,1854

0000000080007ebc <i_7805>:
    80007ebc:	75200493          	li	s1,1874

0000000080007ec0 <i_7806>:
    80007ec0:	00600793          	li	a5,6

0000000080007ec4 <i_7807>:
    80007ec4:	00fa9dbb          	sllw	s11,s5,a5

0000000080007ec8 <i_7808>:
    80007ec8:	00b74463          	blt	a4,a1,80007ed0 <i_7810>

0000000080007ecc <i_7809>:
    80007ecc:	f3210ba3          	sb	s2,-201(sp)

0000000080007ed0 <i_7810>:
    80007ed0:	7bfd8593          	addi	a1,s11,1983

0000000080007ed4 <i_7811>:
    80007ed4:	41b18633          	sub	a2,gp,s11

0000000080007ed8 <i_7812>:
    80007ed8:	001b8b93          	addi	s7,s7,1
    80007edc:	ff74d2e3          	ble	s7,s1,80007ec0 <i_7806>

0000000080007ee0 <i_7813>:
    80007ee0:	01b62ab3          	slt	s5,a2,s11

0000000080007ee4 <i_7814>:
    80007ee4:	eda15d83          	lhu	s11,-294(sp)

0000000080007ee8 <i_7815>:
    80007ee8:	f7a10183          	lb	gp,-134(sp)

0000000080007eec <i_7816>:
    80007eec:	00367db3          	and	s11,a2,gp

0000000080007ef0 <i_7817>:
    80007ef0:	fb93ed93          	ori	s11,t2,-71

0000000080007ef4 <i_7818>:
    80007ef4:	8a700613          	li	a2,-1881

0000000080007ef8 <i_7819>:
    80007ef8:	8b500193          	li	gp,-1867

0000000080007efc <i_7820>:
    80007efc:	0031f663          	bleu	gp,gp,80007f08 <i_7823>

0000000080007f00 <i_7821>:
    80007f00:	00dde663          	bltu	s11,a3,80007f0c <i_7824>

0000000080007f04 <i_7822>:
    80007f04:	18312423          	sw	gp,392(sp)

0000000080007f08 <i_7823>:
    80007f08:	02c66063          	bltu	a2,a2,80007f28 <i_7831>

0000000080007f0c <i_7824>:
    80007f0c:	02366db3          	rem	s11,a2,gp

0000000080007f10 <i_7825>:
    80007f10:	04313423          	sd	gp,72(sp)

0000000080007f14 <i_7826>:
    80007f14:	35baec97          	auipc	s9,0x35bae

0000000080007f18 <i_7827>:
    80007f18:	05b14e03          	lbu	t3,91(sp)

0000000080007f1c <i_7828>:
    80007f1c:	03a11923          	sh	s10,50(sp)

0000000080007f20 <i_7829>:
    80007f20:	01bdadb3          	slt	s11,s11,s11

0000000080007f24 <i_7830>:
    80007f24:	03cc0e3b          	mulw	t3,s8,t3

0000000080007f28 <i_7831>:
    80007f28:	03812e03          	lw	t3,56(sp)

0000000080007f2c <i_7832>:
    80007f2c:	0b016c83          	lwu	s9,176(sp)

0000000080007f30 <i_7833>:
    80007f30:	00160613          	addi	a2,a2,1
    80007f34:	fc3614e3          	bne	a2,gp,80007efc <i_7820>

0000000080007f38 <i_7834>:
    80007f38:	0e013c03          	ld	s8,224(sp)

0000000080007f3c <i_7835>:
    80007f3c:	f3c109a3          	sb	t3,-205(sp)

0000000080007f40 <i_7836>:
    80007f40:	018e0cb3          	add	s9,t3,s8

0000000080007f44 <i_7837>:
    80007f44:	ed816c83          	lwu	s9,-296(sp)

0000000080007f48 <i_7838>:
    80007f48:	0f615503          	lhu	a0,246(sp)

0000000080007f4c <i_7839>:
    80007f4c:	19813423          	sd	s8,392(sp)

0000000080007f50 <i_7840>:
    80007f50:	018c0533          	add	a0,s8,s8

0000000080007f54 <i_7841>:
    80007f54:	00000013          	nop

0000000080007f58 <i_7842>:
    80007f58:	7d100c13          	li	s8,2001

0000000080007f5c <i_7843>:
    80007f5c:	7e000c93          	li	s9,2016

0000000080007f60 <i_7844>:
    80007f60:	19e10a03          	lb	s4,414(sp)

0000000080007f64 <i_7845>:
    80007f64:	00389a1b          	slliw	s4,a7,0x3

0000000080007f68 <i_7846>:
    80007f68:	13813023          	sd	s8,288(sp)

0000000080007f6c <i_7847>:
    80007f6c:	415181bb          	subw	gp,gp,s5

0000000080007f70 <i_7848>:
    80007f70:	034a71b3          	remu	gp,s4,s4

0000000080007f74 <i_7849>:
    80007f74:	00000013          	nop

0000000080007f78 <i_7850>:
    80007f78:	003c7463          	bleu	gp,s8,80007f80 <i_7852>

0000000080007f7c <i_7851>:
    80007f7c:	00746433          	or	s0,s0,t2

0000000080007f80 <i_7852>:
    80007f80:	0085f263          	bleu	s0,a1,80007f84 <i_7853>

0000000080007f84 <i_7853>:
    80007f84:	00000013          	nop

0000000080007f88 <i_7854>:
    80007f88:	00340263          	beq	s0,gp,80007f8c <i_7855>

0000000080007f8c <i_7855>:
    80007f8c:	004a6c63          	bltu	s4,tp,80007fa4 <i_7860>

0000000080007f90 <i_7856>:
    80007f90:	07f10a03          	lb	s4,127(sp)

0000000080007f94 <i_7857>:
    80007f94:	001c0c13          	addi	s8,s8,1
    80007f98:	fd9c44e3          	blt	s8,s9,80007f60 <i_7844>

0000000080007f9c <i_7858>:
    80007f9c:	028a6263          	bltu	s4,s0,80007fc0 <i_7867>

0000000080007fa0 <i_7859>:
    80007fa0:	0e812403          	lw	s0,232(sp)

0000000080007fa4 <i_7860>:
    80007fa4:	0a710303          	lb	t1,167(sp)

0000000080007fa8 <i_7861>:
    80007fa8:	006baa33          	slt	s4,s7,t1

0000000080007fac <i_7862>:
    80007fac:	e3413823          	sd	s4,-464(sp)

0000000080007fb0 <i_7863>:
    80007fb0:	01000393          	li	t2,16

0000000080007fb4 <i_7864>:
    80007fb4:	007a5a33          	srl	s4,s4,t2

0000000080007fb8 <i_7865>:
    80007fb8:	1b413823          	sd	s4,432(sp)

0000000080007fbc <i_7866>:
    80007fbc:	03200793          	li	a5,50

0000000080007fc0 <i_7867>:
    80007fc0:	00fa5a33          	srl	s4,s4,a5

0000000080007fc4 <i_7868>:
    80007fc4:	00000013          	nop

0000000080007fc8 <i_7869>:
    80007fc8:	73800493          	li	s1,1848

0000000080007fcc <i_7870>:
    80007fcc:	74c00b93          	li	s7,1868

0000000080007fd0 <i_7871>:
    80007fd0:	00000013          	nop

0000000080007fd4 <i_7872>:
    80007fd4:	1ef11223          	sh	a5,484(sp)

0000000080007fd8 <i_7873>:
    80007fd8:	e6a11a03          	lh	s4,-406(sp)

0000000080007fdc <i_7874>:
    80007fdc:	f9413c23          	sd	s4,-104(sp)

0000000080007fe0 <i_7875>:
    80007fe0:	034982b3          	mul	t0,s3,s4

0000000080007fe4 <i_7876>:
    80007fe4:	00148493          	addi	s1,s1,1 # 551ce2d9 <main-0x2ae31d27>
    80007fe8:	fe9bd4e3          	ble	s1,s7,80007fd0 <i_7871>

0000000080007fec <i_7877>:
    80007fec:	01700a13          	li	s4,23

0000000080007ff0 <i_7878>:
    80007ff0:	014a1a3b          	sllw	s4,s4,s4

0000000080007ff4 <i_7879>:
    80007ff4:	0147a9b3          	slt	s3,a5,s4

0000000080007ff8 <i_7880>:
    80007ff8:	18013283          	ld	t0,384(sp)

0000000080007ffc <i_7881>:
    80007ffc:	014a4eb3          	xor	t4,s4,s4

0000000080008000 <i_7882>:
    80008000:	df598e1b          	addiw	t3,s3,-523

0000000080008004 <i_7883>:
    80008004:	01cf8e63          	beq	t6,t3,80008020 <i_7890>

0000000080008008 <i_7884>:
    80008008:	005eec63          	bltu	t4,t0,80008020 <i_7890>

000000008000800c <i_7885>:
    8000800c:	ffd12423          	sw	t4,-24(sp)

0000000080008010 <i_7886>:
    80008010:	e2a11503          	lh	a0,-470(sp)

0000000080008014 <i_7887>:
    80008014:	41c78a33          	sub	s4,a5,t3

0000000080008018 <i_7888>:
    80008018:	01e00d93          	li	s11,30

000000008000801c <i_7889>:
    8000801c:	01ba55bb          	srlw	a1,s4,s11

0000000080008020 <i_7890>:
    80008020:	e4811e03          	lh	t3,-440(sp)

0000000080008024 <i_7891>:
    80008024:	033e8e3b          	mulw	t3,t4,s3

0000000080008028 <i_7892>:
    80008028:	fd310283          	lb	t0,-45(sp)

000000008000802c <i_7893>:
    8000802c:	0fc12823          	sw	t3,240(sp)

0000000080008030 <i_7894>:
    80008030:	8bfeee93          	ori	t4,t4,-1857

0000000080008034 <i_7895>:
    80008034:	c7de0213          	addi	tp,t3,-899

0000000080008038 <i_7896>:
    80008038:	08412403          	lw	s0,132(sp)

000000008000803c <i_7897>:
    8000803c:	03cef23b          	remuw	tp,t4,t3

0000000080008040 <i_7898>:
    80008040:	04812e23          	sw	s0,92(sp)

0000000080008044 <i_7899>:
    80008044:	03510083          	lb	ra,53(sp)

0000000080008048 <i_7900>:
    80008048:	1e810323          	sb	s0,486(sp)

000000008000804c <i_7901>:
    8000804c:	1e215a83          	lhu	s5,482(sp)

0000000080008050 <i_7902>:
    80008050:	0f410083          	lb	ra,244(sp)

0000000080008054 <i_7903>:
    80008054:	05c12623          	sw	t3,76(sp)

0000000080008058 <i_7904>:
    80008058:	f2210083          	lb	ra,-222(sp)

000000008000805c <i_7905>:
    8000805c:	09d12e23          	sw	t4,156(sp)

0000000080008060 <i_7906>:
    80008060:	fe512c23          	sw	t0,-8(sp)

0000000080008064 <i_7907>:
    80008064:	fa816583          	lwu	a1,-88(sp)

0000000080008068 <i_7908>:
    80008068:	86a00413          	li	s0,-1942

000000008000806c <i_7909>:
    8000806c:	87300193          	li	gp,-1933

0000000080008070 <i_7910>:
    80008070:	01c102a3          	sb	t3,5(sp)

0000000080008074 <i_7911>:
    80008074:	3f2e0e13          	addi	t3,t3,1010

0000000080008078 <i_7912>:
    80008078:	0015d79b          	srliw	a5,a1,0x1

000000008000807c <i_7913>:
    8000807c:	03c590b3          	mulh	ra,a1,t3

0000000080008080 <i_7914>:
    80008080:	eeb10e23          	sb	a1,-260(sp)

0000000080008084 <i_7915>:
    80008084:	02be0063          	beq	t3,a1,800080a4 <i_7923>

0000000080008088 <i_7916>:
    80008088:	fab11c23          	sh	a1,-72(sp)

000000008000808c <i_7917>:
    8000808c:	04015983          	lhu	s3,64(sp)

0000000080008090 <i_7918>:
    80008090:	00000013          	nop

0000000080008094 <i_7919>:
    80008094:	033e5e33          	divu	t3,t3,s3

0000000080008098 <i_7920>:
    80008098:	9ad0ec13          	ori	s8,ra,-1619

000000008000809c <i_7921>:
    8000809c:	e5014503          	lbu	a0,-432(sp)

00000000800080a0 <i_7922>:
    800080a0:	f2a13023          	sd	a0,-224(sp)

00000000800080a4 <i_7923>:
    800080a4:	03c54063          	blt	a0,t3,800080c4 <i_7930>

00000000800080a8 <i_7924>:
    800080a8:	e4a11123          	sh	a0,-446(sp)

00000000800080ac <i_7925>:
    800080ac:	f5012383          	lw	t2,-176(sp)

00000000800080b0 <i_7926>:
    800080b0:	00140413          	addi	s0,s0,1
    800080b4:	fa346ee3          	bltu	s0,gp,80008070 <i_7910>

00000000800080b8 <i_7927>:
    800080b8:	00451c13          	slli	s8,a0,0x4

00000000800080bc <i_7928>:
    800080bc:	265dd297          	auipc	t0,0x265dd

00000000800080c0 <i_7929>:
    800080c0:	038e5063          	ble	s8,t3,800080e0 <i_7937>

00000000800080c4 <i_7930>:
    800080c4:	e2a13c23          	sd	a0,-456(sp)

00000000800080c8 <i_7931>:
    800080c8:	00499c63          	bne	s3,tp,800080e0 <i_7937>

00000000800080cc <i_7932>:
    800080cc:	01f00513          	li	a0,31

00000000800080d0 <i_7933>:
    800080d0:	00a29c3b          	sllw	s8,t0,a0

00000000800080d4 <i_7934>:
    800080d4:	00628663          	beq	t0,t1,800080e0 <i_7937>

00000000800080d8 <i_7935>:
    800080d8:	005522b3          	slt	t0,a0,t0

00000000800080dc <i_7936>:
    800080dc:	70a312b7          	lui	t0,0x70a31

00000000800080e0 <i_7937>:
    800080e0:	02c00593          	li	a1,44

00000000800080e4 <i_7938>:
    800080e4:	00b51533          	sll	a0,a0,a1

00000000800080e8 <i_7939>:
    800080e8:	00a5c663          	blt	a1,a0,800080f4 <i_7942>

00000000800080ec <i_7940>:
    800080ec:	08257513          	andi	a0,a0,130

00000000800080f0 <i_7941>:
    800080f0:	15816e83          	lwu	t4,344(sp)

00000000800080f4 <i_7942>:
    800080f4:	ef012483          	lw	s1,-272(sp)

00000000800080f8 <i_7943>:
    800080f8:	01d51263          	bne	a0,t4,800080fc <i_7944>

00000000800080fc <i_7944>:
    800080fc:	cb6e881b          	addiw	a6,t4,-842

0000000080008100 <i_7945>:
    80008100:	02a49533          	mulh	a0,s1,a0

0000000080008104 <i_7946>:
    80008104:	744ab513          	sltiu	a0,s5,1860

0000000080008108 <i_7947>:
    80008108:	0015149b          	slliw	s1,a0,0x1

000000008000810c <i_7948>:
    8000810c:	0304d463          	ble	a6,s1,80008134 <i_7958>

0000000080008110 <i_7949>:
    80008110:	00100e93          	li	t4,1

0000000080008114 <i_7950>:
    80008114:	01d85633          	srl	a2,a6,t4

0000000080008118 <i_7951>:
    80008118:	00455813          	srli	a6,a0,0x4

000000008000811c <i_7952>:
    8000811c:	01600e93          	li	t4,22

0000000080008120 <i_7953>:
    80008120:	01db1cbb          	sllw	s9,s6,t4

0000000080008124 <i_7954>:
    80008124:	00000013          	nop

0000000080008128 <i_7955>:
    80008128:	02cabc33          	mulhu	s8,s5,a2

000000008000812c <i_7956>:
    8000812c:	c7526a97          	auipc	s5,0xc7526

0000000080008130 <i_7957>:
    80008130:	f4410ea3          	sb	tp,-163(sp)

0000000080008134 <i_7958>:
    80008134:	15511e23          	sh	s5,348(sp)

0000000080008138 <i_7959>:
    80008138:	05513423          	sd	s5,72(sp)

000000008000813c <i_7960>:
    8000813c:	83d00613          	li	a2,-1987

0000000080008140 <i_7961>:
    80008140:	84600493          	li	s1,-1978

0000000080008144 <i_7962>:
    80008144:	035c5c33          	divu	s8,s8,s5

0000000080008148 <i_7963>:
    80008148:	ea615c03          	lhu	s8,-346(sp)

000000008000814c <i_7964>:
    8000814c:	00160613          	addi	a2,a2,1
    80008150:	fe961ae3          	bne	a2,s1,80008144 <i_7962>

0000000080008154 <i_7965>:
    80008154:	02012a83          	lw	s5,32(sp)

0000000080008158 <i_7966>:
    80008158:	00a14403          	lbu	s0,10(sp)

000000008000815c <i_7967>:
    8000815c:	e5016a83          	lwu	s5,-432(sp)

0000000080008160 <i_7968>:
    80008160:	7c444e93          	xori	t4,s0,1988

0000000080008164 <i_7969>:
    80008164:	12812783          	lw	a5,296(sp)

0000000080008168 <i_7970>:
    80008168:	00000013          	nop

000000008000816c <i_7971>:
    8000816c:	7e500493          	li	s1,2021

0000000080008170 <i_7972>:
    80008170:	7ef00093          	li	ra,2031

0000000080008174 <i_7973>:
    80008174:	fe816e03          	lwu	t3,-24(sp)

0000000080008178 <i_7974>:
    80008178:	03d7beb3          	mulhu	t4,a5,t4

000000008000817c <i_7975>:
    8000817c:	06e10383          	lb	t2,110(sp)

0000000080008180 <i_7976>:
    80008180:	002c121b          	slliw	tp,s8,0x2

0000000080008184 <i_7977>:
    80008184:	f2012783          	lw	a5,-224(sp)

0000000080008188 <i_7978>:
    80008188:	16f13823          	sd	a5,368(sp)

000000008000818c <i_7979>:
    8000818c:	00000013          	nop

0000000080008190 <i_7980>:
    80008190:	e5816a03          	lwu	s4,-424(sp)

0000000080008194 <i_7981>:
    80008194:	e3510ca3          	sb	s5,-455(sp)

0000000080008198 <i_7982>:
    80008198:	00121613          	slli	a2,tp,0x1

000000008000819c <i_7983>:
    8000819c:	0297f063          	bleu	s1,a5,800081bc <i_7990>

00000000800081a0 <i_7984>:
    800081a0:	f1c13423          	sd	t3,-248(sp)

00000000800081a4 <i_7985>:
    800081a4:	0e813823          	sd	s0,240(sp)

00000000800081a8 <i_7986>:
    800081a8:	00148493          	addi	s1,s1,1
    800081ac:	fc14e4e3          	bltu	s1,ra,80008174 <i_7973>

00000000800081b0 <i_7987>:
    800081b0:	02a00c13          	li	s8,42

00000000800081b4 <i_7988>:
    800081b4:	418c5db3          	sra	s11,s8,s8

00000000800081b8 <i_7989>:
    800081b8:	224260b7          	lui	ra,0x22426

00000000800081bc <i_7990>:
    800081bc:	028c4abb          	divw	s5,s8,s0

00000000800081c0 <i_7991>:
    800081c0:	021107a3          	sb	ra,47(sp)

00000000800081c4 <i_7992>:
    800081c4:	03825463          	ble	s8,tp,800081ec <i_8002>

00000000800081c8 <i_7993>:
    800081c8:	17016403          	lwu	s0,368(sp)

00000000800081cc <i_7994>:
    800081cc:	0087c863          	blt	a5,s0,800081dc <i_7998>

00000000800081d0 <i_7995>:
    800081d0:	e5811223          	sh	s8,-444(sp)

00000000800081d4 <i_7996>:
    800081d4:	f3510f23          	sb	s5,-194(sp)

00000000800081d8 <i_7997>:
    800081d8:	0387c7b3          	div	a5,a5,s8

00000000800081dc <i_7998>:
    800081dc:	00109e63          	bne	ra,ra,800081f8 <i_8005>

00000000800081e0 <i_7999>:
    800081e0:	00200493          	li	s1,2

00000000800081e4 <i_8000>:
    800081e4:	4091d1b3          	sra	gp,gp,s1

00000000800081e8 <i_8001>:
    800081e8:	1ac11803          	lh	a6,428(sp)

00000000800081ec <i_8002>:
    800081ec:	04a14503          	lbu	a0,74(sp)

00000000800081f0 <i_8003>:
    800081f0:	029d55b3          	divu	a1,s10,s1

00000000800081f4 <i_8004>:
    800081f4:	02b46c3b          	remw	s8,s0,a1

00000000800081f8 <i_8005>:
    800081f8:	00000013          	nop

00000000800081fc <i_8006>:
    800081fc:	fa312c23          	sw	gp,-72(sp)

0000000080008200 <i_8007>:
    80008200:	87300413          	li	s0,-1933

0000000080008204 <i_8008>:
    80008204:	88200493          	li	s1,-1918

0000000080008208 <i_8009>:
    80008208:	1b814183          	lbu	gp,440(sp)

000000008000820c <i_8010>:
    8000820c:	0381c0b3          	div	ra,gp,s8

0000000080008210 <i_8011>:
    80008210:	73f00613          	li	a2,1855

0000000080008214 <i_8012>:
    80008214:	74b00c93          	li	s9,1867

0000000080008218 <i_8013>:
    80008218:	00000013          	nop

000000008000821c <i_8014>:
    8000821c:	01013e83          	ld	t4,16(sp)

0000000080008220 <i_8015>:
    80008220:	03dc15b3          	mulh	a1,s8,t4

0000000080008224 <i_8016>:
    80008224:	1bc15783          	lhu	a5,444(sp)

0000000080008228 <i_8017>:
    80008228:	03d78263          	beq	a5,t4,8000824c <i_8024>

000000008000822c <i_8018>:
    8000822c:	00160613          	addi	a2,a2,1
    80008230:	ff9664e3          	bltu	a2,s9,80008218 <i_8013>

0000000080008234 <i_8019>:
    80008234:	f6c10c03          	lb	s8,-148(sp)

0000000080008238 <i_8020>:
    80008238:	00140413          	addi	s0,s0,1
    8000823c:	fc9466e3          	bltu	s0,s1,80008208 <i_8009>

0000000080008240 <i_8021>:
    80008240:	ff710d23          	sb	s7,-6(sp)

0000000080008244 <i_8022>:
    80008244:	f8013303          	ld	t1,-128(sp)

0000000080008248 <i_8023>:
    80008248:	5d68beb7          	lui	t4,0x5d68b

000000008000824c <i_8024>:
    8000824c:	0bd12a23          	sw	t4,180(sp)

0000000080008250 <i_8025>:
    80008250:	00000013          	nop

0000000080008254 <i_8026>:
    80008254:	82c00313          	li	t1,-2004

0000000080008258 <i_8027>:
    80008258:	84000a93          	li	s5,-1984

000000008000825c <i_8028>:
    8000825c:	ec012e83          	lw	t4,-320(sp)

0000000080008260 <i_8029>:
    80008260:	01defe33          	and	t3,t4,t4

0000000080008264 <i_8030>:
    80008264:	7cc00b93          	li	s7,1996

0000000080008268 <i_8031>:
    80008268:	7e000d93          	li	s11,2016

000000008000826c <i_8032>:
    8000826c:	16411e83          	lh	t4,356(sp)

0000000080008270 <i_8033>:
    80008270:	03da9063          	bne	s5,t4,80008290 <i_8040>

0000000080008274 <i_8034>:
    80008274:	f6013603          	ld	a2,-160(sp)

0000000080008278 <i_8035>:
    80008278:	09d11523          	sh	t4,138(sp)

000000008000827c <i_8036>:
    8000827c:	00000013          	nop

0000000080008280 <i_8037>:
    80008280:	001b8b93          	addi	s7,s7,1
    80008284:	ffbb94e3          	bne	s7,s11,8000826c <i_8032>

0000000080008288 <i_8038>:
    80008288:	01011e83          	lh	t4,16(sp)

000000008000828c <i_8039>:
    8000828c:	00000013          	nop

0000000080008290 <i_8040>:
    80008290:	f1211783          	lh	a5,-238(sp)

0000000080008294 <i_8041>:
    80008294:	f9310e83          	lb	t4,-109(sp)

0000000080008298 <i_8042>:
    80008298:	00c78c63          	beq	a5,a2,800082b0 <i_8047>

000000008000829c <i_8043>:
    8000829c:	00130313          	addi	t1,t1,1
    800082a0:	fb531ee3          	bne	t1,s5,8000825c <i_8028>

00000000800082a4 <i_8044>:
    800082a4:	f2530497          	auipc	s1,0xf2530

00000000800082a8 <i_8045>:
    800082a8:	024d0463          	beq	s10,tp,800082d0 <i_8055>

00000000800082ac <i_8046>:
    800082ac:	01c7f463          	bleu	t3,a5,800082b4 <i_8048>

00000000800082b0 <i_8047>:
    800082b0:	01d4f263          	bleu	t4,s1,800082b4 <i_8048>

00000000800082b4 <i_8048>:
    800082b4:	f0c16183          	lwu	gp,-244(sp)

00000000800082b8 <i_8049>:
    800082b8:	01ce3533          	sltu	a0,t3,t3

00000000800082bc <i_8050>:
    800082bc:	02a00093          	li	ra,42

00000000800082c0 <i_8051>:
    800082c0:	001999b3          	sll	s3,s3,ra

00000000800082c4 <i_8052>:
    800082c4:	09a13423          	sd	s10,136(sp)

00000000800082c8 <i_8053>:
    800082c8:	00000013          	nop

00000000800082cc <i_8054>:
    800082cc:	e5c12a23          	sw	t3,-428(sp)

00000000800082d0 <i_8055>:
    800082d0:	f0615203          	lhu	tp,-250(sp)

00000000800082d4 <i_8056>:
    800082d4:	ef014d83          	lbu	s11,-272(sp)

00000000800082d8 <i_8057>:
    800082d8:	8ac00793          	li	a5,-1876

00000000800082dc <i_8058>:
    800082dc:	8b000193          	li	gp,-1872

00000000800082e0 <i_8059>:
    800082e0:	f8114d83          	lbu	s11,-127(sp)

00000000800082e4 <i_8060>:
    800082e4:	14013d83          	ld	s11,320(sp)

00000000800082e8 <i_8061>:
    800082e8:	013dd663          	ble	s3,s11,800082f4 <i_8064>

00000000800082ec <i_8062>:
    800082ec:	01ed8863          	beq	s11,t5,800082fc <i_8066>

00000000800082f0 <i_8063>:
    800082f0:	f0e10983          	lb	s3,-242(sp)

00000000800082f4 <i_8064>:
    800082f4:	19b10fa3          	sb	s11,415(sp)

00000000800082f8 <i_8065>:
    800082f8:	00400d93          	li	s11,4

00000000800082fc <i_8066>:
    800082fc:	01b79a3b          	sllw	s4,a5,s11

0000000080008300 <i_8067>:
    80008300:	15312823          	sw	s3,336(sp)

0000000080008304 <i_8068>:
    80008304:	07113023          	sd	a7,96(sp)

0000000080008308 <i_8069>:
    80008308:	00700093          	li	ra,7

000000008000830c <i_8070>:
    8000830c:	001dda33          	srl	s4,s11,ra

0000000080008310 <i_8071>:
    80008310:	00178793          	addi	a5,a5,1
    80008314:	fcf196e3          	bne	gp,a5,800082e0 <i_8059>

0000000080008318 <i_8072>:
    80008318:	033a5063          	ble	s3,s4,80008338 <i_8080>

000000008000831c <i_8073>:
    8000831c:	02111323          	sh	ra,38(sp)

0000000080008320 <i_8074>:
    80008320:	fb114803          	lbu	a6,-79(sp)

0000000080008324 <i_8075>:
    80008324:	03b9aa33          	mulhsu	s4,s3,s11

0000000080008328 <i_8076>:
    80008328:	0e910d83          	lb	s11,233(sp)

000000008000832c <i_8077>:
    8000832c:	e7016803          	lwu	a6,-400(sp)

0000000080008330 <i_8078>:
    80008330:	033dddb3          	divu	s11,s11,s3

0000000080008334 <i_8079>:
    80008334:	1d413823          	sd	s4,464(sp)

0000000080008338 <i_8080>:
    80008338:	034a6a33          	rem	s4,s4,s4

000000008000833c <i_8081>:
    8000833c:	03080063          	beq	a6,a6,8000835c <i_8089>

0000000080008340 <i_8082>:
    80008340:	15816c03          	lwu	s8,344(sp)

0000000080008344 <i_8083>:
    80008344:	030c0063          	beq	s8,a6,80008364 <i_8091>

0000000080008348 <i_8084>:
    80008348:	033e4263          	blt	t3,s3,8000836c <i_8093>

000000008000834c <i_8085>:
    8000834c:	01dc7463          	bleu	t4,s8,80008354 <i_8087>

0000000080008350 <i_8086>:
    80008350:	01897663          	bleu	s8,s2,8000835c <i_8089>

0000000080008354 <i_8087>:
    80008354:	013a23b3          	slt	t2,s4,s3

0000000080008358 <i_8088>:
    80008358:	037a2bb3          	mulhsu	s7,s4,s7

000000008000835c <i_8089>:
    8000835c:	013a0c33          	add	s8,s4,s3

0000000080008360 <i_8090>:
    80008360:	00738eb3          	add	t4,t2,t2

0000000080008364 <i_8091>:
    80008364:	010e77b3          	and	a5,t3,a6

0000000080008368 <i_8092>:
    80008368:	03ded3bb          	divuw	t2,t4,t4

000000008000836c <i_8093>:
    8000836c:	00f6fa63          	bleu	a5,a3,80008380 <i_8098>

0000000080008370 <i_8094>:
    80008370:	1d215203          	lhu	tp,466(sp)

0000000080008374 <i_8095>:
    80008374:	e8f12823          	sw	a5,-368(sp)

0000000080008378 <i_8096>:
    80008378:	07012203          	lw	tp,112(sp)

000000008000837c <i_8097>:
    8000837c:	03138ebb          	mulw	t4,t2,a7

0000000080008380 <i_8098>:
    80008380:	0039999b          	slliw	s3,s3,0x3

0000000080008384 <i_8099>:
    80008384:	0333e1b3          	rem	gp,t2,s3

0000000080008388 <i_8100>:
    80008388:	05411a83          	lh	s5,84(sp)

000000008000838c <i_8101>:
    8000838c:	8a200393          	li	t2,-1886

0000000080008390 <i_8102>:
    80008390:	8b500a13          	li	s4,-1867

0000000080008394 <i_8103>:
    80008394:	00600d93          	li	s11,6

0000000080008398 <i_8104>:
    80008398:	01b255bb          	srlw	a1,tp,s11

000000008000839c <i_8105>:
    8000839c:	12812483          	lw	s1,296(sp)

00000000800083a0 <i_8106>:
    800083a0:	f5016483          	lwu	s1,-176(sp)

00000000800083a4 <i_8107>:
    800083a4:	e5415283          	lhu	t0,-428(sp)

00000000800083a8 <i_8108>:
    800083a8:	ed013483          	ld	s1,-304(sp)

00000000800083ac <i_8109>:
    800083ac:	029a6663          	bltu	s4,s1,800083d8 <i_8119>

00000000800083b0 <i_8110>:
    800083b0:	00138393          	addi	t2,t2,1
    800083b4:	ff4390e3          	bne	t2,s4,80008394 <i_8103>

00000000800083b8 <i_8111>:
    800083b8:	03b2f463          	bleu	s11,t0,800083e0 <i_8121>

00000000800083bc <i_8112>:
    800083bc:	e2712e23          	sw	t2,-452(sp)

00000000800083c0 <i_8113>:
    800083c0:	00000013          	nop

00000000800083c4 <i_8114>:
    800083c4:	00000013          	nop

00000000800083c8 <i_8115>:
    800083c8:	00000013          	nop

00000000800083cc <i_8116>:
    800083cc:	ea412303          	lw	t1,-348(sp)

00000000800083d0 <i_8117>:
    800083d0:	f5416503          	lwu	a0,-172(sp)

00000000800083d4 <i_8118>:
    800083d4:	0333dc33          	divu	s8,t2,s3

00000000800083d8 <i_8119>:
    800083d8:	07910983          	lb	s3,121(sp)

00000000800083dc <i_8120>:
    800083dc:	fa813a03          	ld	s4,-88(sp)

00000000800083e0 <i_8121>:
    800083e0:	0339d9bb          	divuw	s3,s3,s3

00000000800083e4 <i_8122>:
    800083e4:	074108a3          	sb	s4,113(sp)

00000000800083e8 <i_8123>:
    800083e8:	87a00393          	li	t2,-1926

00000000800083ec <i_8124>:
    800083ec:	88000a93          	li	s5,-1920

00000000800083f0 <i_8125>:
    800083f0:	00138393          	addi	t2,t2,1
    800083f4:	ff539ee3          	bne	t2,s5,800083f0 <i_8125>

00000000800083f8 <i_8126>:
    800083f8:	5f4eeb93          	ori	s7,t4,1524

00000000800083fc <i_8127>:
    800083fc:	07a15983          	lhu	s3,122(sp)

0000000080008400 <i_8128>:
    80008400:	017e6e33          	or	t3,t3,s7

0000000080008404 <i_8129>:
    80008404:	83f00a13          	li	s4,-1985

0000000080008408 <i_8130>:
    80008408:	84700e93          	li	t4,-1977

000000008000840c <i_8131>:
    8000840c:	00000013          	nop

0000000080008410 <i_8132>:
    80008410:	15816a83          	lwu	s5,344(sp)

0000000080008414 <i_8133>:
    80008414:	035e5263          	ble	s5,t3,80008438 <i_8141>

0000000080008418 <i_8134>:
    80008418:	1b611d23          	sh	s6,442(sp)

000000008000841c <i_8135>:
    8000841c:	05015d83          	lhu	s11,80(sp)

0000000080008420 <i_8136>:
    80008420:	035d8663          	beq	s11,s5,8000844c <i_8146>

0000000080008424 <i_8137>:
    80008424:	001a0a13          	addi	s4,s4,1 # fffffffff8852001 <_end+0xffffffff78841bed>
    80008428:	ffda42e3          	blt	s4,t4,8000840c <i_8131>

000000008000842c <i_8138>:
    8000842c:	004d9d93          	slli	s11,s11,0x4

0000000080008430 <i_8139>:
    80008430:	41bd8db3          	sub	s11,s11,s11

0000000080008434 <i_8140>:
    80008434:	e9611603          	lh	a2,-362(sp)

0000000080008438 <i_8141>:
    80008438:	18c15303          	lhu	t1,396(sp)

000000008000843c <i_8142>:
    8000843c:	fc416603          	lwu	a2,-60(sp)

0000000080008440 <i_8143>:
    80008440:	01931463          	bne	t1,s9,80008448 <i_8145>

0000000080008444 <i_8144>:
    80008444:	fbb10723          	sb	s11,-82(sp)

0000000080008448 <i_8145>:
    80008448:	f5f12a23          	sw	t6,-172(sp)

000000008000844c <i_8146>:
    8000844c:	f1b11823          	sh	s11,-240(sp)

0000000080008450 <i_8147>:
    80008450:	09a11183          	lh	gp,154(sp)

0000000080008454 <i_8148>:
    80008454:	003d9e63          	bne	s11,gp,80008470 <i_8155>

0000000080008458 <i_8149>:
    80008458:	17714d83          	lbu	s11,375(sp)

000000008000845c <i_8150>:
    8000845c:	188ded93          	ori	s11,s11,392

0000000080008460 <i_8151>:
    80008460:	0231e0b3          	rem	ra,gp,gp

0000000080008464 <i_8152>:
    80008464:	fe416a83          	lwu	s5,-28(sp)

0000000080008468 <i_8153>:
    80008468:	07c11403          	lh	s0,124(sp)

000000008000846c <i_8154>:
    8000846c:	7084019b          	addiw	gp,s0,1800

0000000080008470 <i_8155>:
    80008470:	00313023          	sd	gp,0(sp)

0000000080008474 <i_8156>:
    80008474:	e4312e23          	sw	gp,-420(sp)

0000000080008478 <i_8157>:
    80008478:	02318063          	beq	gp,gp,80008498 <i_8165>

000000008000847c <i_8158>:
    8000847c:	1d012603          	lw	a2,464(sp)

0000000080008480 <i_8159>:
    80008480:	021450b3          	divu	ra,s0,ra

0000000080008484 <i_8160>:
    80008484:	1a90aa13          	slti	s4,ra,425

0000000080008488 <i_8161>:
    80008488:	02c277bb          	remuw	a5,tp,a2

000000008000848c <i_8162>:
    8000848c:	0347e53b          	remw	a0,a5,s4

0000000080008490 <i_8163>:
    80008490:	ee815403          	lhu	s0,-280(sp)

0000000080008494 <i_8164>:
    80008494:	ecc15c83          	lhu	s9,-308(sp)

0000000080008498 <i_8165>:
    80008498:	9167a417          	auipc	s0,0x9167a

000000008000849c <i_8166>:
    8000849c:	01916e63          	bltu	sp,s9,800084b8 <i_8173>

00000000800084a0 <i_8167>:
    800084a0:	0e410403          	lb	s0,228(sp)

00000000800084a4 <i_8168>:
    800084a4:	01945e63          	ble	s9,s0,800084c0 <i_8175>

00000000800084a8 <i_8169>:
    800084a8:	008a0433          	add	s0,s4,s0

00000000800084ac <i_8170>:
    800084ac:	168108a3          	sb	s0,369(sp)

00000000800084b0 <i_8171>:
    800084b0:	02814463          	blt	sp,s0,800084d8 <i_8181>

00000000800084b4 <i_8172>:
    800084b4:	e4b14e83          	lbu	t4,-437(sp)

00000000800084b8 <i_8173>:
    800084b8:	00846263          	bltu	s0,s0,800084bc <i_8174>

00000000800084bc <i_8174>:
    800084bc:	02145e33          	divu	t3,s0,ra

00000000800084c0 <i_8175>:
    800084c0:	1e416e03          	lwu	t3,484(sp)

00000000800084c4 <i_8176>:
    800084c4:	ea8105a3          	sb	s0,-341(sp)

00000000800084c8 <i_8177>:
    800084c8:	1ac10083          	lb	ra,428(sp)

00000000800084cc <i_8178>:
    800084cc:	404e5c9b          	sraiw	s9,t3,0x4

00000000800084d0 <i_8179>:
    800084d0:	0010ae33          	slt	t3,ra,ra

00000000800084d4 <i_8180>:
    800084d4:	12013803          	ld	a6,288(sp)

00000000800084d8 <i_8181>:
    800084d8:	41e8083b          	subw	a6,a6,t5

00000000800084dc <i_8182>:
    800084dc:	08811803          	lh	a6,136(sp)

00000000800084e0 <i_8183>:
    800084e0:	8a500413          	li	s0,-1883

00000000800084e4 <i_8184>:
    800084e4:	8a800e93          	li	t4,-1880

00000000800084e8 <i_8185>:
    800084e8:	00000013          	nop

00000000800084ec <i_8186>:
    800084ec:	e9013823          	sd	a6,-368(sp)

00000000800084f0 <i_8187>:
    800084f0:	96bc7a13          	andi	s4,s8,-1685

00000000800084f4 <i_8188>:
    800084f4:	00140413          	addi	s0,s0,1 # 11682499 <main-0x6e97db67>
    800084f8:	fe8ed8e3          	ble	s0,t4,800084e8 <i_8185>

00000000800084fc <i_8189>:
    800084fc:	01caea63          	bltu	s5,t3,80008510 <i_8194>

0000000080008500 <i_8190>:
    80008500:	efc13423          	sd	t3,-280(sp)

0000000080008504 <i_8191>:
    80008504:	13416e83          	lwu	t4,308(sp)

0000000080008508 <i_8192>:
    80008508:	00000013          	nop

000000008000850c <i_8193>:
    8000850c:	03deaeb3          	mulhsu	t4,t4,t4

0000000080008510 <i_8194>:
    80008510:	00000013          	nop

0000000080008514 <i_8195>:
    80008514:	00000013          	nop

0000000080008518 <i_8196>:
    80008518:	78100193          	li	gp,1921

000000008000851c <i_8197>:
    8000851c:	78700a93          	li	s5,1927

0000000080008520 <i_8198>:
    80008520:	015eda63          	ble	s5,t4,80008534 <i_8203>

0000000080008524 <i_8199>:
    80008524:	01513c23          	sd	s5,24(sp)

0000000080008528 <i_8200>:
    80008528:	f3813983          	ld	s3,-200(sp)

000000008000852c <i_8201>:
    8000852c:	035ebc33          	mulhu	s8,t4,s5

0000000080008530 <i_8202>:
    80008530:	ff812423          	sw	s8,-24(sp)

0000000080008534 <i_8203>:
    80008534:	034c6c33          	rem	s8,s8,s4

0000000080008538 <i_8204>:
    80008538:	ef812423          	sw	s8,-280(sp)

000000008000853c <i_8205>:
    8000853c:	413e0c33          	sub	s8,t3,s3

0000000080008540 <i_8206>:
    80008540:	00118193          	addi	gp,gp,1
    80008544:	fc3adee3          	ble	gp,s5,80008520 <i_8198>

0000000080008548 <i_8207>:
    80008548:	0339c063          	blt	s3,s3,80008568 <i_8215>

000000008000854c <i_8208>:
    8000854c:	01200e13          	li	t3,18

0000000080008550 <i_8209>:
    80008550:	41c65633          	sra	a2,a2,t3

0000000080008554 <i_8210>:
    80008554:	02c0c063          	blt	ra,a2,80008574 <i_8218>

0000000080008558 <i_8211>:
    80008558:	033c7263          	bleu	s3,s8,8000857c <i_8220>

000000008000855c <i_8212>:
    8000855c:	e1a10c83          	lb	s9,-486(sp)

0000000080008560 <i_8213>:
    80008560:	07812e03          	lw	t3,120(sp)

0000000080008564 <i_8214>:
    80008564:	1ac10403          	lb	s0,428(sp)

0000000080008568 <i_8215>:
    80008568:	73dc0e13          	addi	t3,s8,1853

000000008000856c <i_8216>:
    8000856c:	01c9c263          	blt	s3,t3,80008570 <i_8217>

0000000080008570 <i_8217>:
    80008570:	01b00213          	li	tp,27

0000000080008574 <i_8218>:
    80008574:	004959b3          	srl	s3,s2,tp

0000000080008578 <i_8219>:
    80008578:	ebc14983          	lbu	s3,-324(sp)

000000008000857c <i_8220>:
    8000857c:	028b4463          	blt	s6,s0,800085a4 <i_8230>

0000000080008580 <i_8221>:
    80008580:	01ba3eb3          	sltu	t4,s4,s11

0000000080008584 <i_8222>:
    80008584:	e5312c23          	sw	s3,-424(sp)

0000000080008588 <i_8223>:
    80008588:	03d99063          	bne	s3,t4,800085a8 <i_8231>

000000008000858c <i_8224>:
    8000858c:	1e411583          	lh	a1,484(sp)

0000000080008590 <i_8225>:
    80008590:	1cc71337          	lui	t1,0x1cc71

0000000080008594 <i_8226>:
    80008594:	02b9e9b3          	rem	s3,s3,a1

0000000080008598 <i_8227>:
    80008598:	0069f663          	bleu	t1,s3,800085a4 <i_8230>

000000008000859c <i_8228>:
    8000859c:	16014483          	lbu	s1,352(sp)

00000000800085a0 <i_8229>:
    800085a0:	efa14a03          	lbu	s4,-262(sp)

00000000800085a4 <i_8230>:
    800085a4:	03378cbb          	mulw	s9,a5,s3

00000000800085a8 <i_8231>:
    800085a8:	b1462093          	slti	ra,a2,-1260

00000000800085ac <i_8232>:
    800085ac:	f2015603          	lhu	a2,-224(sp)

00000000800085b0 <i_8233>:
    800085b0:	f8110ea3          	sb	ra,-99(sp)

00000000800085b4 <i_8234>:
    800085b4:	05611503          	lh	a0,86(sp)

00000000800085b8 <i_8235>:
    800085b8:	01b08863          	beq	ra,s11,800085c8 <i_8239>

00000000800085bc <i_8236>:
    800085bc:	02cce0bb          	remw	ra,s9,a2

00000000800085c0 <i_8237>:
    800085c0:	03b0fdb3          	remu	s11,ra,s11

00000000800085c4 <i_8238>:
    800085c4:	c5593d97          	auipc	s11,0xc5593

00000000800085c8 <i_8239>:
    800085c8:	e7b10ba3          	sb	s11,-393(sp)

00000000800085cc <i_8240>:
    800085cc:	00186db3          	or	s11,a6,ra

00000000800085d0 <i_8241>:
    800085d0:	fb016203          	lwu	tp,-80(sp)

00000000800085d4 <i_8242>:
    800085d4:	0da15d83          	lhu	s11,218(sp)

00000000800085d8 <i_8243>:
    800085d8:	e7683813          	sltiu	a6,a6,-394

00000000800085dc <i_8244>:
    800085dc:	03c2d83b          	divuw	a6,t0,t3

00000000800085e0 <i_8245>:
    800085e0:	78b00293          	li	t0,1931

00000000800085e4 <i_8246>:
    800085e4:	79b00213          	li	tp,1947

00000000800085e8 <i_8247>:
    800085e8:	03bc9cb3          	mulh	s9,s9,s11

00000000800085ec <i_8248>:
    800085ec:	003d1e13          	slli	t3,s10,0x3

00000000800085f0 <i_8249>:
    800085f0:	025c8063          	beq	s9,t0,80008610 <i_8256>

00000000800085f4 <i_8250>:
    800085f4:	1b813c83          	ld	s9,440(sp)

00000000800085f8 <i_8251>:
    800085f8:	00128293          	addi	t0,t0,1 # 70a31001 <main-0xf5cefff>
    800085fc:	fe42e6e3          	bltu	t0,tp,800085e8 <i_8247>

0000000080008600 <i_8252>:
    80008600:	1d910a23          	sb	s9,468(sp)

0000000080008604 <i_8253>:
    80008604:	419982b3          	sub	t0,s3,s9

0000000080008608 <i_8254>:
    80008608:	01200c93          	li	s9,18

000000008000860c <i_8255>:
    8000860c:	019e12bb          	sllw	t0,t3,s9

0000000080008610 <i_8256>:
    80008610:	0c812803          	lw	a6,200(sp)

0000000080008614 <i_8257>:
    80008614:	e9611803          	lh	a6,-362(sp)

0000000080008618 <i_8258>:
    80008618:	0c815283          	lhu	t0,200(sp)

000000008000861c <i_8259>:
    8000861c:	ee412023          	sw	tp,-288(sp)

0000000080008620 <i_8260>:
    80008620:	17b14b83          	lbu	s7,379(sp)

0000000080008624 <i_8261>:
    80008624:	02555263          	ble	t0,a0,80008648 <i_8270>

0000000080008628 <i_8262>:
    80008628:	f4b14083          	lbu	ra,-181(sp)

000000008000862c <i_8263>:
    8000862c:	0257c063          	blt	a5,t0,8000864c <i_8271>

0000000080008630 <i_8264>:
    80008630:	01a00213          	li	tp,26

0000000080008634 <i_8265>:
    80008634:	0042d2bb          	srlw	t0,t0,tp

0000000080008638 <i_8266>:
    80008638:	01713023          	sd	s7,0(sp)

000000008000863c <i_8267>:
    8000863c:	0170e863          	bltu	ra,s7,8000864c <i_8271>

0000000080008640 <i_8268>:
    80008640:	9cdb8b93          	addi	s7,s7,-1587

0000000080008644 <i_8269>:
    80008644:	004c87b3          	add	a5,s9,tp

0000000080008648 <i_8270>:
    80008648:	033bdbb3          	divu	s7,s7,s3

000000008000864c <i_8271>:
    8000864c:	039a6333          	rem	t1,s4,s9

0000000080008650 <i_8272>:
    80008650:	de47c637          	lui	a2,0xde47c

0000000080008654 <i_8273>:
    80008654:	89e00213          	li	tp,-1890

0000000080008658 <i_8274>:
    80008658:	8a000c93          	li	s9,-1888

000000008000865c <i_8275>:
    8000865c:	403cd61b          	sraiw	a2,s9,0x3

0000000080008660 <i_8276>:
    80008660:	13e15983          	lhu	s3,318(sp)

0000000080008664 <i_8277>:
    80008664:	11311b23          	sh	s3,278(sp)

0000000080008668 <i_8278>:
    80008668:	00231993          	slli	s3,t1,0x2

000000008000866c <i_8279>:
    8000866c:	0069d263          	ble	t1,s3,80008670 <i_8280>

0000000080008670 <i_8280>:
    80008670:	01900813          	li	a6,25

0000000080008674 <i_8281>:
    80008674:	4109d9bb          	sraw	s3,s3,a6

0000000080008678 <i_8282>:
    80008678:	05013023          	sd	a6,64(sp)

000000008000867c <i_8283>:
    8000867c:	fb310ea3          	sb	s3,-67(sp)

0000000080008680 <i_8284>:
    80008680:	87600993          	li	s3,-1930

0000000080008684 <i_8285>:
    80008684:	88600813          	li	a6,-1914

0000000080008688 <i_8286>:
    80008688:	f2411b83          	lh	s7,-220(sp)

000000008000868c <i_8287>:
    8000868c:	0389ac33          	mulhsu	s8,s3,s8

0000000080008690 <i_8288>:
    80008690:	00198993          	addi	s3,s3,1 # edb92de1 <_end+0x6db829cd>
    80008694:	ff387ae3          	bleu	s3,a6,80008688 <i_8286>

0000000080008698 <i_8289>:
    80008698:	013c1e63          	bne	s8,s3,800086b4 <i_8295>

000000008000869c <i_8290>:
    8000869c:	00120213          	addi	tp,tp,1 # 1 <main-0x7fffffff>
    800086a0:	fa4cfee3          	bleu	tp,s9,8000865c <i_8275>

00000000800086a4 <i_8291>:
    800086a4:	0b412383          	lw	t2,180(sp)

00000000800086a8 <i_8292>:
    800086a8:	013a8a63          	beq	s5,s3,800086bc <i_8297>

00000000800086ac <i_8293>:
    800086ac:	ec510383          	lb	t2,-315(sp)

00000000800086b0 <i_8294>:
    800086b0:	0273d533          	divu	a0,t2,t2

00000000800086b4 <i_8295>:
    800086b4:	10812c03          	lw	s8,264(sp)

00000000800086b8 <i_8296>:
    800086b8:	018c1863          	bne	s8,s8,800086c8 <i_8300>

00000000800086bc <i_8297>:
    800086bc:	05014383          	lbu	t2,80(sp)

00000000800086c0 <i_8298>:
    800086c0:	01300393          	li	t2,19

00000000800086c4 <i_8299>:
    800086c4:	40785833          	sra	a6,a6,t2

00000000800086c8 <i_8300>:
    800086c8:	06812803          	lw	a6,104(sp)

00000000800086cc <i_8301>:
    800086cc:	10713823          	sd	t2,272(sp)

00000000800086d0 <i_8302>:
    800086d0:	15013423          	sd	a6,328(sp)

00000000800086d4 <i_8303>:
    800086d4:	28c8031b          	addiw	t1,a6,652

00000000800086d8 <i_8304>:
    800086d8:	13eb5817          	auipc	a6,0x13eb5

00000000800086dc <i_8305>:
    800086dc:	03215383          	lhu	t2,50(sp)

00000000800086e0 <i_8306>:
    800086e0:	01012983          	lw	s3,16(sp)

00000000800086e4 <i_8307>:
    800086e4:	fda15803          	lhu	a6,-38(sp)

00000000800086e8 <i_8308>:
    800086e8:	e3011a23          	sh	a6,-460(sp)

00000000800086ec <i_8309>:
    800086ec:	023871b3          	remu	gp,a6,gp

00000000800086f0 <i_8310>:
    800086f0:	16312823          	sw	gp,368(sp)

00000000800086f4 <i_8311>:
    800086f4:	004e121b          	slliw	tp,t3,0x4

00000000800086f8 <i_8312>:
    800086f8:	023371b3          	remu	gp,t1,gp

00000000800086fc <i_8313>:
    800086fc:	1d510803          	lb	a6,469(sp)

0000000080008700 <i_8314>:
    80008700:	01019c63          	bne	gp,a6,80008718 <i_8320>

0000000080008704 <i_8315>:
    80008704:	13812183          	lw	gp,312(sp)

0000000080008708 <i_8316>:
    80008708:	fe415a83          	lhu	s5,-28(sp)

000000008000870c <i_8317>:
    8000870c:	02388bbb          	mulw	s7,a7,gp

0000000080008710 <i_8318>:
    80008710:	fd210aa3          	sb	s2,-43(sp)

0000000080008714 <i_8319>:
    80008714:	015be863          	bltu	s7,s5,80008724 <i_8323>

0000000080008718 <i_8320>:
    80008718:	01756a63          	bltu	a0,s7,8000872c <i_8325>

000000008000871c <i_8321>:
    8000871c:	0011d413          	srli	s0,gp,0x1

0000000080008720 <i_8322>:
    80008720:	00000013          	nop

0000000080008724 <i_8323>:
    80008724:	04813c23          	sd	s0,88(sp)

0000000080008728 <i_8324>:
    80008728:	f2611383          	lh	t2,-218(sp)

000000008000872c <i_8325>:
    8000872c:	0233d53b          	divuw	a0,t2,gp

0000000080008730 <i_8326>:
    80008730:	fe311723          	sh	gp,-18(sp)

0000000080008734 <i_8327>:
    80008734:	77400a93          	li	s5,1908

0000000080008738 <i_8328>:
    80008738:	78600c13          	li	s8,1926

000000008000873c <i_8329>:
    8000873c:	00000013          	nop

0000000080008740 <i_8330>:
    80008740:	ec415d83          	lhu	s11,-316(sp)

0000000080008744 <i_8331>:
    80008744:	003bf463          	bleu	gp,s7,8000874c <i_8333>

0000000080008748 <i_8332>:
    80008748:	ee013183          	ld	gp,-288(sp)

000000008000874c <i_8333>:
    8000874c:	8a11e513          	ori	a0,gp,-1887

0000000080008750 <i_8334>:
    80008750:	40a40433          	sub	s0,s0,a0

0000000080008754 <i_8335>:
    80008754:	03e5453b          	divw	a0,a0,t5

0000000080008758 <i_8336>:
    80008758:	001a8a93          	addi	s5,s5,1 # 4752e12d <main-0x38ad1ed3>
    8000875c:	ff8ac0e3          	blt	s5,s8,8000873c <i_8329>

0000000080008760 <i_8337>:
    80008760:	f3b11523          	sh	s11,-214(sp)

0000000080008764 <i_8338>:
    80008764:	f6a11c23          	sh	a0,-136(sp)

0000000080008768 <i_8339>:
    80008768:	08013183          	ld	gp,128(sp)

000000008000876c <i_8340>:
    8000876c:	09114d83          	lbu	s11,145(sp)

0000000080008770 <i_8341>:
    80008770:	0051f2b3          	and	t0,gp,t0

0000000080008774 <i_8342>:
    80008774:	18813a83          	ld	s5,392(sp)

0000000080008778 <i_8343>:
    80008778:	b686adb7          	lui	s11,0xb686a

000000008000877c <i_8344>:
    8000877c:	a6a16c13          	ori	s8,sp,-1430

0000000080008780 <i_8345>:
    80008780:	ee411823          	sh	tp,-272(sp)

0000000080008784 <i_8346>:
    80008784:	038dae33          	mulhsu	t3,s11,s8

0000000080008788 <i_8347>:
    80008788:	018d8863          	beq	s11,s8,80008798 <i_8351>

000000008000878c <i_8348>:
    8000878c:	01caf463          	bleu	t3,s5,80008794 <i_8350>

0000000080008790 <i_8349>:
    80008790:	175101a3          	sb	s5,355(sp)

0000000080008794 <i_8350>:
    80008794:	035dc263          	blt	s11,s5,800087b8 <i_8359>

0000000080008798 <i_8351>:
    80008798:	03baf063          	bleu	s11,s5,800087b8 <i_8359>

000000008000879c <i_8352>:
    8000879c:	fc410d83          	lb	s11,-60(sp)

00000000800087a0 <i_8353>:
    800087a0:	001ada93          	srli	s5,s5,0x1

00000000800087a4 <i_8354>:
    800087a4:	03ce0abb          	mulw	s5,t3,t3

00000000800087a8 <i_8355>:
    800087a8:	f3510e23          	sb	s5,-196(sp)

00000000800087ac <i_8356>:
    800087ac:	0021da1b          	srliw	s4,gp,0x2

00000000800087b0 <i_8357>:
    800087b0:	01300e13          	li	t3,19

00000000800087b4 <i_8358>:
    800087b4:	01cade3b          	srlw	t3,s5,t3

00000000800087b8 <i_8359>:
    800087b8:	ef410da3          	sb	s4,-261(sp)

00000000800087bc <i_8360>:
    800087bc:	09411f23          	sh	s4,158(sp)

00000000800087c0 <i_8361>:
    800087c0:	f3a15e03          	lhu	t3,-198(sp)

00000000800087c4 <i_8362>:
    800087c4:	03ce4063          	blt	t3,t3,800087e4 <i_8370>

00000000800087c8 <i_8363>:
    800087c8:	02830833          	mul	a6,t1,s0

00000000800087cc <i_8364>:
    800087cc:	592f8e13          	addi	t3,t6,1426

00000000800087d0 <i_8365>:
    800087d0:	03011b23          	sh	a6,54(sp)

00000000800087d4 <i_8366>:
    800087d4:	01085863          	ble	a6,a6,800087e4 <i_8370>

00000000800087d8 <i_8367>:
    800087d8:	03c47263          	bleu	t3,s0,800087fc <i_8376>

00000000800087dc <i_8368>:
    800087dc:	17810503          	lb	a0,376(sp)

00000000800087e0 <i_8369>:
    800087e0:	01ce9863          	bne	t4,t3,800087f0 <i_8373>

00000000800087e4 <i_8370>:
    800087e4:	00275e93          	srli	t4,a4,0x2

00000000800087e8 <i_8371>:
    800087e8:	00ae7c63          	bleu	a0,t3,80008800 <i_8377>

00000000800087ec <i_8372>:
    800087ec:	01deca63          	blt	t4,t4,80008800 <i_8377>

00000000800087f0 <i_8373>:
    800087f0:	3b199ab7          	lui	s5,0x3b199

00000000800087f4 <i_8374>:
    800087f4:	03debeb3          	mulhu	t4,t4,t4

00000000800087f8 <i_8375>:
    800087f8:	03d64533          	div	a0,a2,t4

00000000800087fc <i_8376>:
    800087fc:	e23ece13          	xori	t3,t4,-477

0000000080008800 <i_8377>:
    80008800:	e9d11c23          	sh	t4,-360(sp)

0000000080008804 <i_8378>:
    80008804:	02bf65b3          	rem	a1,t5,a1

0000000080008808 <i_8379>:
    80008808:	03dec063          	blt	t4,t4,80008828 <i_8387>

000000008000880c <i_8380>:
    8000880c:	009e84b3          	add	s1,t4,s1

0000000080008810 <i_8381>:
    80008810:	ea611d83          	lh	s11,-346(sp)

0000000080008814 <i_8382>:
    80008814:	fce14483          	lbu	s1,-50(sp)

0000000080008818 <i_8383>:
    80008818:	03813d83          	ld	s11,56(sp)

000000008000881c <i_8384>:
    8000881c:	fdd105a3          	sb	t4,-53(sp)

0000000080008820 <i_8385>:
    80008820:	0ad10783          	lb	a5,173(sp)

0000000080008824 <i_8386>:
    80008824:	40810eb3          	sub	t4,sp,s0

0000000080008828 <i_8387>:
    80008828:	02f10d83          	lb	s11,47(sp)

000000008000882c <i_8388>:
    8000882c:	0182c2b3          	xor	t0,t0,s8

0000000080008830 <i_8389>:
    80008830:	7ae00593          	li	a1,1966

0000000080008834 <i_8390>:
    80008834:	7c100e93          	li	t4,1985

0000000080008838 <i_8391>:
    80008838:	00158593          	addi	a1,a1,1 # a1c58ae1 <_end+0x21c486cd>
    8000883c:	ffd5cee3          	blt	a1,t4,80008838 <i_8391>

0000000080008840 <i_8392>:
    80008840:	7b0ea293          	slti	t0,t4,1968

0000000080008844 <i_8393>:
    80008844:	1ce14e03          	lbu	t3,462(sp)

0000000080008848 <i_8394>:
    80008848:	84b00393          	li	t2,-1973

000000008000884c <i_8395>:
    8000884c:	85300313          	li	t1,-1965

0000000080008850 <i_8396>:
    80008850:	003e1b93          	slli	s7,t3,0x3

0000000080008854 <i_8397>:
    80008854:	00b00a93          	li	s5,11

0000000080008858 <i_8398>:
    80008858:	0158183b          	sllw	a6,a6,s5

000000008000885c <i_8399>:
    8000885c:	7a000e93          	li	t4,1952

0000000080008860 <i_8400>:
    80008860:	7aa00413          	li	s0,1962

0000000080008864 <i_8401>:
    80008864:	03513823          	sd	s5,48(sp)

0000000080008868 <i_8402>:
    80008868:	017acc63          	blt	s5,s7,80008880 <i_8407>

000000008000886c <i_8403>:
    8000886c:	001e8e93          	addi	t4,t4,1 # 5d68b001 <main-0x22974fff>
    80008870:	fe8ec8e3          	blt	t4,s0,80008860 <i_8400>

0000000080008874 <i_8404>:
    80008874:	e1e10503          	lb	a0,-482(sp)

0000000080008878 <i_8405>:
    80008878:	fe512e23          	sw	t0,-4(sp)

000000008000887c <i_8406>:
    8000887c:	00000013          	nop

0000000080008880 <i_8407>:
    80008880:	b5ddc513          	xori	a0,s11,-1187

0000000080008884 <i_8408>:
    80008884:	004e1293          	slli	t0,t3,0x4

0000000080008888 <i_8409>:
    80008888:	035855b3          	divu	a1,a6,s5

000000008000888c <i_8410>:
    8000888c:	00138393          	addi	t2,t2,1
    80008890:	fc7370e3          	bleu	t2,t1,80008850 <i_8396>

0000000080008894 <i_8411>:
    80008894:	00a29663          	bne	t0,a0,800088a0 <i_8414>

0000000080008898 <i_8412>:
    80008898:	e3411303          	lh	t1,-460(sp)

000000008000889c <i_8413>:
    8000889c:	02be9063          	bne	t4,a1,800088bc <i_8421>

00000000800088a0 <i_8414>:
    800088a0:	00ebedb3          	or	s11,s7,a4

00000000800088a4 <i_8415>:
    800088a4:	1d214283          	lbu	t0,466(sp)

00000000800088a8 <i_8416>:
    800088a8:	013489b3          	add	s3,s1,s3

00000000800088ac <i_8417>:
    800088ac:	0339c9bb          	divw	s3,s3,s3

00000000800088b0 <i_8418>:
    800088b0:	05311223          	sh	s3,68(sp)

00000000800088b4 <i_8419>:
    800088b4:	00000013          	nop

00000000800088b8 <i_8420>:
    800088b8:	e9312823          	sw	s3,-368(sp)

00000000800088bc <i_8421>:
    800088bc:	00000013          	nop

00000000800088c0 <i_8422>:
    800088c0:	0339d43b          	divuw	s0,s3,s3

00000000800088c4 <i_8423>:
    800088c4:	81000593          	li	a1,-2032

00000000800088c8 <i_8424>:
    800088c8:	82400b93          	li	s7,-2012

00000000800088cc <i_8425>:
    800088cc:	e3911023          	sh	s9,-480(sp)

00000000800088d0 <i_8426>:
    800088d0:	e3013403          	ld	s0,-464(sp)

00000000800088d4 <i_8427>:
    800088d4:	0e215e83          	lhu	t4,226(sp)

00000000800088d8 <i_8428>:
    800088d8:	00a00993          	li	s3,10

00000000800088dc <i_8429>:
    800088dc:	0139d9b3          	srl	s3,s3,s3

00000000800088e0 <i_8430>:
    800088e0:	038c4c3b          	divw	s8,s8,s8

00000000800088e4 <i_8431>:
    800088e4:	038c3c33          	mulhu	s8,s8,s8

00000000800088e8 <i_8432>:
    800088e8:	0380d463          	ble	s8,ra,80008910 <i_8441>

00000000800088ec <i_8433>:
    800088ec:	038c2c33          	mulhsu	s8,s8,s8

00000000800088f0 <i_8434>:
    800088f0:	00158593          	addi	a1,a1,1
    800088f4:	fd759ce3          	bne	a1,s7,800088cc <i_8425>

00000000800088f8 <i_8435>:
    800088f8:	e5810523          	sb	s8,-438(sp)

00000000800088fc <i_8436>:
    800088fc:	018c7863          	bleu	s8,s8,8000890c <i_8440>

0000000080008900 <i_8437>:
    80008900:	038c0263          	beq	s8,s8,80008924 <i_8446>

0000000080008904 <i_8438>:
    80008904:	0189f463          	bleu	s8,s3,8000890c <i_8440>

0000000080008908 <i_8439>:
    80008908:	003c1313          	slli	t1,s8,0x3

000000008000890c <i_8440>:
    8000890c:	018c6263          	bltu	s8,s8,80008910 <i_8441>

0000000080008910 <i_8441>:
    80008910:	f4d12623          	sw	a3,-180(sp)

0000000080008914 <i_8442>:
    80008914:	f1211c03          	lh	s8,-238(sp)

0000000080008918 <i_8443>:
    80008918:	018c0263          	beq	s8,s8,8000891c <i_8444>

000000008000891c <i_8444>:
    8000891c:	1dd10583          	lb	a1,477(sp)

0000000080008920 <i_8445>:
    80008920:	ef215c03          	lhu	s8,-270(sp)

0000000080008924 <i_8446>:
    80008924:	026c7063          	bleu	t1,s8,80008944 <i_8454>

0000000080008928 <i_8447>:
    80008928:	038c0c3b          	mulw	s8,s8,s8

000000008000892c <i_8448>:
    8000892c:	40bc03b3          	sub	t2,s8,a1

0000000080008930 <i_8449>:
    80008930:	0073fc63          	bleu	t2,t2,80008948 <i_8455>

0000000080008934 <i_8450>:
    80008934:	f9710303          	lb	t1,-105(sp)

0000000080008938 <i_8451>:
    80008938:	0382a2b3          	mulhsu	t0,t0,s8

000000008000893c <i_8452>:
    8000893c:	f7a15283          	lhu	t0,-134(sp)

0000000080008940 <i_8453>:
    80008940:	00ea7e63          	bleu	a4,s4,8000895c <i_8460>

0000000080008944 <i_8454>:
    80008944:	0185d263          	ble	s8,a1,80008948 <i_8455>

0000000080008948 <i_8455>:
    80008948:	17c15c03          	lhu	s8,380(sp)

000000008000894c <i_8456>:
    8000894c:	0182d263          	ble	s8,t0,80008950 <i_8457>

0000000080008950 <i_8457>:
    80008950:	779be413          	ori	s0,s7,1913

0000000080008954 <i_8458>:
    80008954:	005c1663          	bne	s8,t0,80008960 <i_8461>

0000000080008958 <i_8459>:
    80008958:	408409b3          	sub	s3,s0,s0

000000008000895c <i_8460>:
    8000895c:	3b028b9b          	addiw	s7,t0,944

0000000080008960 <i_8461>:
    80008960:	402c5b9b          	sraiw	s7,s8,0x2

0000000080008964 <i_8462>:
    80008964:	003bd193          	srli	gp,s7,0x3

0000000080008968 <i_8463>:
    80008968:	05813c23          	sd	s8,88(sp)

000000008000896c <i_8464>:
    8000896c:	76200413          	li	s0,1890

0000000080008970 <i_8465>:
    80008970:	76900293          	li	t0,1897

0000000080008974 <i_8466>:
    80008974:	1b710183          	lb	gp,439(sp)

0000000080008978 <i_8467>:
    80008978:	12312823          	sw	gp,304(sp)

000000008000897c <i_8468>:
    8000897c:	76d00c13          	li	s8,1901

0000000080008980 <i_8469>:
    80008980:	77400a13          	li	s4,1908

0000000080008984 <i_8470>:
    80008984:	001c0c13          	addi	s8,s8,1
    80008988:	ff4c4ee3          	blt	s8,s4,80008984 <i_8470>

000000008000898c <i_8471>:
    8000898c:	f8210803          	lb	a6,-126(sp)

0000000080008990 <i_8472>:
    80008990:	034100a3          	sb	s4,33(sp)

0000000080008994 <i_8473>:
    80008994:	00140413          	addi	s0,s0,1
    80008998:	fc544ee3          	blt	s0,t0,80008974 <i_8466>

000000008000899c <i_8474>:
    8000899c:	19811023          	sh	s8,384(sp)

00000000800089a0 <i_8475>:
    800089a0:	0301b833          	mulhu	a6,gp,a6

00000000800089a4 <i_8476>:
    800089a4:	01c00193          	li	gp,28

00000000800089a8 <i_8477>:
    800089a8:	40385a3b          	sraw	s4,a6,gp

00000000800089ac <i_8478>:
    800089ac:	0141c1b3          	xor	gp,gp,s4

00000000800089b0 <i_8479>:
    800089b0:	09113423          	sd	a7,136(sp)

00000000800089b4 <i_8480>:
    800089b4:	e1d10403          	lb	s0,-483(sp)

00000000800089b8 <i_8481>:
    800089b8:	014a0833          	add	a6,s4,s4

00000000800089bc <i_8482>:
    800089bc:	023a7063          	bleu	gp,s4,800089dc <i_8490>

00000000800089c0 <i_8483>:
    800089c0:	002a1c13          	slli	s8,s4,0x2

00000000800089c4 <i_8484>:
    800089c4:	ff013183          	ld	gp,-16(sp)

00000000800089c8 <i_8485>:
    800089c8:	fec12c23          	sw	a2,-8(sp)

00000000800089cc <i_8486>:
    800089cc:	16012183          	lw	gp,352(sp)

00000000800089d0 <i_8487>:
    800089d0:	00000013          	nop

00000000800089d4 <i_8488>:
    800089d4:	18911223          	sh	s1,388(sp)

00000000800089d8 <i_8489>:
    800089d8:	00337433          	and	s0,t1,gp

00000000800089dc <i_8490>:
    800089dc:	02d1fcbb          	remuw	s9,gp,a3

00000000800089e0 <i_8491>:
    800089e0:	00000013          	nop

00000000800089e4 <i_8492>:
    800089e4:	8c700613          	li	a2,-1849

00000000800089e8 <i_8493>:
    800089e8:	8d300a13          	li	s4,-1837

00000000800089ec <i_8494>:
    800089ec:	002d9d93          	slli	s11,s11,0x2

00000000800089f0 <i_8495>:
    800089f0:	00000013          	nop

00000000800089f4 <i_8496>:
    800089f4:	012c8533          	add	a0,s9,s2

00000000800089f8 <i_8497>:
    800089f8:	0ec16183          	lwu	gp,236(sp)

00000000800089fc <i_8498>:
    800089fc:	f0013303          	ld	t1,-256(sp)

0000000080008a00 <i_8499>:
    80008a00:	03370463          	beq	a4,s3,80008a28 <i_8508>

0000000080008a04 <i_8500>:
    80008a04:	a1bdc513          	xori	a0,s11,-1509

0000000080008a08 <i_8501>:
    80008a08:	001300b3          	add	ra,t1,ra

0000000080008a0c <i_8502>:
    80008a0c:	05914303          	lbu	t1,89(sp)

0000000080008a10 <i_8503>:
    80008a10:	00160613          	addi	a2,a2,1 # ffffffffde47c001 <_end+0xffffffff5e46bbed>
    80008a14:	fd466ce3          	bltu	a2,s4,800089ec <i_8494>

0000000080008a18 <i_8504>:
    80008a18:	02165ab3          	divu	s5,a2,ra

0000000080008a1c <i_8505>:
    80008a1c:	00656e63          	bltu	a0,t1,80008a38 <i_8512>

0000000080008a20 <i_8506>:
    80008a20:	17513023          	sd	s5,352(sp)

0000000080008a24 <i_8507>:
    80008a24:	f7cfaa97          	auipc	s5,0xf7cfa

0000000080008a28 <i_8508>:
    80008a28:	00000013          	nop

0000000080008a2c <i_8509>:
    80008a2c:	12814a83          	lbu	s5,296(sp)

0000000080008a30 <i_8510>:
    80008a30:	e9814a83          	lbu	s5,-360(sp)

0000000080008a34 <i_8511>:
    80008a34:	e2014603          	lbu	a2,-480(sp)

0000000080008a38 <i_8512>:
    80008a38:	02cafab3          	remu	s5,s5,a2

0000000080008a3c <i_8513>:
    80008a3c:	00000013          	nop

0000000080008a40 <i_8514>:
    80008a40:	80e00313          	li	t1,-2034

0000000080008a44 <i_8515>:
    80008a44:	81800513          	li	a0,-2024

0000000080008a48 <i_8516>:
    80008a48:	01500213          	li	tp,21

0000000080008a4c <i_8517>:
    80008a4c:	404edebb          	sraw	t4,t4,tp

0000000080008a50 <i_8518>:
    80008a50:	00130313          	addi	t1,t1,1 # 1cc71001 <main-0x6338efff>
    80008a54:	fea34ae3          	blt	t1,a0,80008a48 <i_8516>

0000000080008a58 <i_8519>:
    80008a58:	f4c13423          	sd	a2,-184(sp)

0000000080008a5c <i_8520>:
    80008a5c:	eb910b83          	lb	s7,-327(sp)

0000000080008a60 <i_8521>:
    80008a60:	00cbf863          	bleu	a2,s7,80008a70 <i_8525>

0000000080008a64 <i_8522>:
    80008a64:	037ae263          	bltu	s5,s7,80008a88 <i_8531>

0000000080008a68 <i_8523>:
    80008a68:	860f7b93          	andi	s7,t5,-1952

0000000080008a6c <i_8524>:
    80008a6c:	0f478bb7          	lui	s7,0xf478

0000000080008a70 <i_8525>:
    80008a70:	00000013          	nop

0000000080008a74 <i_8526>:
    80008a74:	00000013          	nop

0000000080008a78 <i_8527>:
    80008a78:	0bf14c83          	lbu	s9,191(sp)

0000000080008a7c <i_8528>:
    80008a7c:	13816983          	lwu	s3,312(sp)

0000000080008a80 <i_8529>:
    80008a80:	ed913023          	sd	s9,-320(sp)

0000000080008a84 <i_8530>:
    80008a84:	01012c83          	lw	s9,16(sp)

0000000080008a88 <i_8531>:
    80008a88:	00498833          	add	a6,s3,tp

0000000080008a8c <i_8532>:
    80008a8c:	00000013          	nop

0000000080008a90 <i_8533>:
    80008a90:	80600213          	li	tp,-2042

0000000080008a94 <i_8534>:
    80008a94:	80b00a93          	li	s5,-2037

0000000080008a98 <i_8535>:
    80008a98:	03c16403          	lwu	s0,60(sp)

0000000080008a9c <i_8536>:
    80008a9c:	f39106a3          	sb	s9,-211(sp)

0000000080008aa0 <i_8537>:
    80008aa0:	ecf88b93          	addi	s7,a7,-305

0000000080008aa4 <i_8538>:
    80008aa4:	00000013          	nop

0000000080008aa8 <i_8539>:
    80008aa8:	03d00c93          	li	s9,61

0000000080008aac <i_8540>:
    80008aac:	019cdbb3          	srl	s7,s9,s9

0000000080008ab0 <i_8541>:
    80008ab0:	037bf43b          	remuw	s0,s7,s7

0000000080008ab4 <i_8542>:
    80008ab4:	034bc1b3          	div	gp,s7,s4

0000000080008ab8 <i_8543>:
    80008ab8:	00120213          	addi	tp,tp,1 # 1 <main-0x7fffffff>
    80008abc:	fd526ee3          	bltu	tp,s5,80008a98 <i_8535>

0000000080008ac0 <i_8544>:
    80008ac0:	02847a3b          	remuw	s4,s0,s0

0000000080008ac4 <i_8545>:
    80008ac4:	5081ca13          	xori	s4,gp,1288

0000000080008ac8 <i_8546>:
    80008ac8:	0bd14583          	lbu	a1,189(sp)

0000000080008acc <i_8547>:
    80008acc:	eb411303          	lh	t1,-332(sp)

0000000080008ad0 <i_8548>:
    80008ad0:	031a4063          	blt	s4,a7,80008af0 <i_8556>

0000000080008ad4 <i_8549>:
    80008ad4:	e3710403          	lb	s0,-457(sp)

0000000080008ad8 <i_8550>:
    80008ad8:	17011c23          	sh	a6,376(sp)

0000000080008adc <i_8551>:
    80008adc:	00000013          	nop

0000000080008ae0 <i_8552>:
    80008ae0:	fcc15203          	lhu	tp,-52(sp)

0000000080008ae4 <i_8553>:
    80008ae4:	03412203          	lw	tp,52(sp)

0000000080008ae8 <i_8554>:
    80008ae8:	f5011b23          	sh	a6,-170(sp)

0000000080008aec <i_8555>:
    80008aec:	00000013          	nop

0000000080008af0 <i_8556>:
    80008af0:	0027de9b          	srliw	t4,a5,0x2

0000000080008af4 <i_8557>:
    80008af4:	e2e15e83          	lhu	t4,-466(sp)

0000000080008af8 <i_8558>:
    80008af8:	72d00c13          	li	s8,1837

0000000080008afc <i_8559>:
    80008afc:	73000813          	li	a6,1840

0000000080008b00 <i_8560>:
    80008b00:	00000013          	nop

0000000080008b04 <i_8561>:
    80008b04:	028e8463          	beq	t4,s0,80008b2c <i_8570>

0000000080008b08 <i_8562>:
    80008b08:	038c5263          	ble	s8,s8,80008b2c <i_8570>

0000000080008b0c <i_8563>:
    80008b0c:	08014203          	lbu	tp,128(sp)

0000000080008b10 <i_8564>:
    80008b10:	001c0c13          	addi	s8,s8,1
    80008b14:	ff8856e3          	ble	s8,a6,80008b00 <i_8560>

0000000080008b18 <i_8565>:
    80008b18:	0bd12a23          	sw	t4,180(sp)

0000000080008b1c <i_8566>:
    80008b1c:	029a6233          	rem	tp,s4,s1

0000000080008b20 <i_8567>:
    80008b20:	e2520393          	addi	t2,tp,-475 # fffffffffffffe25 <_end+0xffffffff7ffefa11>

0000000080008b24 <i_8568>:
    80008b24:	01de9e63          	bne	t4,t4,80008b40 <i_8575>

0000000080008b28 <i_8569>:
    80008b28:	0040ac33          	slt	s8,ra,tp

0000000080008b2c <i_8570>:
    80008b2c:	07a15203          	lhu	tp,122(sp)

0000000080008b30 <i_8571>:
    80008b30:	00438e63          	beq	t2,tp,80008b4c <i_8578>

0000000080008b34 <i_8572>:
    80008b34:	e2713823          	sd	t2,-464(sp)

0000000080008b38 <i_8573>:
    80008b38:	41820bb3          	sub	s7,tp,s8

0000000080008b3c <i_8574>:
    80008b3c:	03dbb633          	mulhu	a2,s7,t4

0000000080008b40 <i_8575>:
    80008b40:	16510c03          	lb	s8,357(sp)

0000000080008b44 <i_8576>:
    80008b44:	00a11b83          	lh	s7,10(sp)

0000000080008b48 <i_8577>:
    80008b48:	00016083          	lwu	ra,0(sp)

0000000080008b4c <i_8578>:
    80008b4c:	004b9663          	bne	s7,tp,80008b58 <i_8581>

0000000080008b50 <i_8579>:
    80008b50:	30d34313          	xori	t1,t1,781

0000000080008b54 <i_8580>:
    80008b54:	fc414c03          	lbu	s8,-60(sp)

0000000080008b58 <i_8581>:
    80008b58:	01708bb3          	add	s7,ra,s7

0000000080008b5c <i_8582>:
    80008b5c:	00196c63          	bltu	s2,ra,80008b74 <i_8588>

0000000080008b60 <i_8583>:
    80008b60:	546b8a1b          	addiw	s4,s7,1350

0000000080008b64 <i_8584>:
    80008b64:	031d50b3          	divu	ra,s10,a7

0000000080008b68 <i_8585>:
    80008b68:	0290bbb3          	mulhu	s7,ra,s1

0000000080008b6c <i_8586>:
    80008b6c:	15e11d83          	lh	s11,350(sp)

0000000080008b70 <i_8587>:
    80008b70:	01bbabb3          	slt	s7,s7,s11

0000000080008b74 <i_8588>:
    80008b74:	0d812d83          	lw	s11,216(sp)

0000000080008b78 <i_8589>:
    80008b78:	ea813a83          	ld	s5,-344(sp)

0000000080008b7c <i_8590>:
    80008b7c:	7a600413          	li	s0,1958

0000000080008b80 <i_8591>:
    80008b80:	7a800493          	li	s1,1960

0000000080008b84 <i_8592>:
    80008b84:	01bb8bb3          	add	s7,s7,s11

0000000080008b88 <i_8593>:
    80008b88:	017b83b3          	add	t2,s7,s7

0000000080008b8c <i_8594>:
    80008b8c:	ebb11723          	sh	s11,-338(sp)

0000000080008b90 <i_8595>:
    80008b90:	19012783          	lw	a5,400(sp)

0000000080008b94 <i_8596>:
    80008b94:	00f3a7b3          	slt	a5,t2,a5

0000000080008b98 <i_8597>:
    80008b98:	0017979b          	slliw	a5,a5,0x1

0000000080008b9c <i_8598>:
    80008b9c:	fe611783          	lh	a5,-26(sp)

0000000080008ba0 <i_8599>:
    80008ba0:	0277c3b3          	div	t2,a5,t2

0000000080008ba4 <i_8600>:
    80008ba4:	00000013          	nop

0000000080008ba8 <i_8601>:
    80008ba8:	02fdf263          	bleu	a5,s11,80008bcc <i_8609>

0000000080008bac <i_8602>:
    80008bac:	f9a14603          	lbu	a2,-102(sp)

0000000080008bb0 <i_8603>:
    80008bb0:	00140413          	addi	s0,s0,1
    80008bb4:	fc9468e3          	bltu	s0,s1,80008b84 <i_8592>

0000000080008bb8 <i_8604>:
    80008bb8:	fb615603          	lhu	a2,-74(sp)

0000000080008bbc <i_8605>:
    80008bbc:	11f14e03          	lbu	t3,287(sp)

0000000080008bc0 <i_8606>:
    80008bc0:	06c12823          	sw	a2,112(sp)

0000000080008bc4 <i_8607>:
    80008bc4:	fdc10603          	lb	a2,-36(sp)

0000000080008bc8 <i_8608>:
    80008bc8:	00c76233          	or	tp,a4,a2

0000000080008bcc <i_8609>:
    80008bcc:	08310e03          	lb	t3,131(sp)

0000000080008bd0 <i_8610>:
    80008bd0:	02e00a13          	li	s4,46

0000000080008bd4 <i_8611>:
    80008bd4:	41465633          	sra	a2,a2,s4

0000000080008bd8 <i_8612>:
    80008bd8:	0ca11503          	lh	a0,202(sp)

0000000080008bdc <i_8613>:
    80008bdc:	00421c63          	bne	tp,tp,80008bf4 <i_8619>

0000000080008be0 <i_8614>:
    80008be0:	004f4a63          	blt	t5,tp,80008bf4 <i_8619>

0000000080008be4 <i_8615>:
    80008be4:	00ce60b3          	or	ra,t3,a2

0000000080008be8 <i_8616>:
    80008be8:	e7c12783          	lw	a5,-388(sp)

0000000080008bec <i_8617>:
    80008bec:	fd016203          	lwu	tp,-48(sp)

0000000080008bf0 <i_8618>:
    80008bf0:	02464633          	div	a2,a2,tp

0000000080008bf4 <i_8619>:
    80008bf4:	02426463          	bltu	tp,tp,80008c1c <i_8629>

0000000080008bf8 <i_8620>:
    80008bf8:	00420663          	beq	tp,tp,80008c04 <i_8623>

0000000080008bfc <i_8621>:
    80008bfc:	fe414a83          	lbu	s5,-28(sp)

0000000080008c00 <i_8622>:
    80008c00:	00cafe63          	bleu	a2,s5,80008c1c <i_8629>

0000000080008c04 <i_8623>:
    80008c04:	1b510aa3          	sb	s5,437(sp)

0000000080008c08 <i_8624>:
    80008c08:	0e413823          	sd	tp,240(sp)

0000000080008c0c <i_8625>:
    80008c0c:	f4813a83          	ld	s5,-184(sp)

0000000080008c10 <i_8626>:
    80008c10:	09211203          	lh	tp,146(sp)

0000000080008c14 <i_8627>:
    80008c14:	03521463          	bne	tp,s5,80008c3c <i_8637>

0000000080008c18 <i_8628>:
    80008c18:	0156c663          	blt	a3,s5,80008c24 <i_8631>

0000000080008c1c <i_8629>:
    80008c1c:	001aec63          	bltu	s5,ra,80008c34 <i_8635>

0000000080008c20 <i_8630>:
    80008c20:	ed513023          	sd	s5,-320(sp)

0000000080008c24 <i_8631>:
    80008c24:	1b813e83          	ld	t4,440(sp)

0000000080008c28 <i_8632>:
    80008c28:	ffc16283          	lwu	t0,-4(sp)

0000000080008c2c <i_8633>:
    80008c2c:	03de2eb3          	mulhsu	t4,t3,t4

0000000080008c30 <i_8634>:
    80008c30:	fe411f23          	sh	tp,-2(sp)

0000000080008c34 <i_8635>:
    80008c34:	1a513423          	sd	t0,424(sp)

0000000080008c38 <i_8636>:
    80008c38:	ed114203          	lbu	tp,-303(sp)

0000000080008c3c <i_8637>:
    80008c3c:	015ad463          	ble	s5,s5,80008c44 <i_8639>

0000000080008c40 <i_8638>:
    80008c40:	1d512623          	sw	s5,460(sp)

0000000080008c44 <i_8639>:
    80008c44:	01220a63          	beq	tp,s2,80008c58 <i_8644>

0000000080008c48 <i_8640>:
    80008c48:	e8813603          	ld	a2,-376(sp)

0000000080008c4c <i_8641>:
    80008c4c:	1d512423          	sw	s5,456(sp)

0000000080008c50 <i_8642>:
    80008c50:	ee511a23          	sh	t0,-268(sp)

0000000080008c54 <i_8643>:
    80008c54:	0dc16383          	lwu	t2,220(sp)

0000000080008c58 <i_8644>:
    80008c58:	00f222b3          	slt	t0,tp,a5

0000000080008c5c <i_8645>:
    80008c5c:	01700e93          	li	t4,23

0000000080008c60 <i_8646>:
    80008c60:	01da9ebb          	sllw	t4,s5,t4

0000000080008c64 <i_8647>:
    80008c64:	0023d613          	srli	a2,t2,0x2

0000000080008c68 <i_8648>:
    80008c68:	03d3c063          	blt	t2,t4,80008c88 <i_8656>

0000000080008c6c <i_8649>:
    80008c6c:	1a038597          	auipc	a1,0x1a038

0000000080008c70 <i_8650>:
    80008c70:	02b60463          	beq	a2,a1,80008c98 <i_8660>

0000000080008c74 <i_8651>:
    80008c74:	02c6463b          	divw	a2,a2,a2

0000000080008c78 <i_8652>:
    80008c78:	19414583          	lbu	a1,404(sp)

0000000080008c7c <i_8653>:
    80008c7c:	04813603          	ld	a2,72(sp)

0000000080008c80 <i_8654>:
    80008c80:	02c58cb3          	mul	s9,a1,a2

0000000080008c84 <i_8655>:
    80008c84:	04b11323          	sh	a1,70(sp)

0000000080008c88 <i_8656>:
    80008c88:	1cb11423          	sh	a1,456(sp)

0000000080008c8c <i_8657>:
    80008c8c:	1ac16183          	lwu	gp,428(sp)

0000000080008c90 <i_8658>:
    80008c90:	0831a193          	slti	gp,gp,131

0000000080008c94 <i_8659>:
    80008c94:	1a313c23          	sd	gp,440(sp)

0000000080008c98 <i_8660>:
    80008c98:	edf1fc93          	andi	s9,gp,-289

0000000080008c9c <i_8661>:
    80008c9c:	0191e663          	bltu	gp,s9,80008ca8 <i_8664>

0000000080008ca0 <i_8662>:
    80008ca0:	0e410c83          	lb	s9,228(sp)

0000000080008ca4 <i_8663>:
    80008ca4:	0031a1b3          	slt	gp,gp,gp

0000000080008ca8 <i_8664>:
    80008ca8:	5a8cf193          	andi	gp,s9,1448

0000000080008cac <i_8665>:
    80008cac:	0e313423          	sd	gp,232(sp)

0000000080008cb0 <i_8666>:
    80008cb0:	16611c83          	lh	s9,358(sp)

0000000080008cb4 <i_8667>:
    80008cb4:	00400c93          	li	s9,4

0000000080008cb8 <i_8668>:
    80008cb8:	01919cbb          	sllw	s9,gp,s9

0000000080008cbc <i_8669>:
    80008cbc:	7a900193          	li	gp,1961

0000000080008cc0 <i_8670>:
    80008cc0:	7b700e93          	li	t4,1975

0000000080008cc4 <i_8671>:
    80008cc4:	00118193          	addi	gp,gp,1
    80008cc8:	fe3edce3          	ble	gp,t4,80008cc0 <i_8670>

0000000080008ccc <i_8672>:
    80008ccc:	05c12503          	lw	a0,92(sp)

0000000080008cd0 <i_8673>:
    80008cd0:	f0215e83          	lhu	t4,-254(sp)

0000000080008cd4 <i_8674>:
    80008cd4:	00465b93          	srli	s7,a2,0x4

0000000080008cd8 <i_8675>:
    80008cd8:	03cbce3b          	divw	t3,s7,t3

0000000080008cdc <i_8676>:
    80008cdc:	01bbee63          	bltu	s7,s11,80008cf8 <i_8683>

0000000080008ce0 <i_8677>:
    80008ce0:	01ce6e33          	or	t3,t3,t3

0000000080008ce4 <i_8678>:
    80008ce4:	03d45263          	ble	t4,s0,80008d08 <i_8687>

0000000080008ce8 <i_8679>:
    80008ce8:	e9d14e83          	lbu	t4,-355(sp)

0000000080008cec <i_8680>:
    80008cec:	01cbe663          	bltu	s7,t3,80008cf8 <i_8683>

0000000080008cf0 <i_8681>:
    80008cf0:	e3c11323          	sh	t3,-474(sp)

0000000080008cf4 <i_8682>:
    80008cf4:	01cb8e33          	add	t3,s7,t3

0000000080008cf8 <i_8683>:
    80008cf8:	07c11c03          	lh	s8,124(sp)

0000000080008cfc <i_8684>:
    80008cfc:	02a3c53b          	divw	a0,t2,a0

0000000080008d00 <i_8685>:
    80008d00:	0f016b83          	lwu	s7,240(sp)

0000000080008d04 <i_8686>:
    80008d04:	e6016d83          	lwu	s11,-416(sp)

0000000080008d08 <i_8687>:
    80008d08:	00000013          	nop

0000000080008d0c <i_8688>:
    80008d0c:	03bdf63b          	remuw	a2,s11,s11

0000000080008d10 <i_8689>:
    80008d10:	85500e13          	li	t3,-1963

0000000080008d14 <i_8690>:
    80008d14:	85c00a93          	li	s5,-1956

0000000080008d18 <i_8691>:
    80008d18:	fc413423          	sd	tp,-56(sp)

0000000080008d1c <i_8692>:
    80008d1c:	01bd8263          	beq	s11,s11,80008d20 <i_8693>

0000000080008d20 <i_8693>:
    80008d20:	01bd9e63          	bne	s11,s11,80008d3c <i_8700>

0000000080008d24 <i_8694>:
    80008d24:	00cae663          	bltu	s5,a2,80008d30 <i_8697>

0000000080008d28 <i_8695>:
    80008d28:	00000013          	nop

0000000080008d2c <i_8696>:
    80008d2c:	00000013          	nop

0000000080008d30 <i_8697>:
    80008d30:	f3a15203          	lhu	tp,-198(sp)

0000000080008d34 <i_8698>:
    80008d34:	1db10923          	sb	s11,466(sp)

0000000080008d38 <i_8699>:
    80008d38:	001ad21b          	srliw	tp,s5,0x1

0000000080008d3c <i_8700>:
    80008d3c:	1a111e23          	sh	ra,444(sp)

0000000080008d40 <i_8701>:
    80008d40:	1a813a03          	ld	s4,424(sp)

0000000080008d44 <i_8702>:
    80008d44:	e3c12083          	lw	ra,-452(sp)

0000000080008d48 <i_8703>:
    80008d48:	034a70b3          	remu	ra,s4,s4

0000000080008d4c <i_8704>:
    80008d4c:	001e0e13          	addi	t3,t3,1
    80008d50:	fd5e14e3          	bne	t3,s5,80008d18 <i_8691>

0000000080008d54 <i_8705>:
    80008d54:	16e11a03          	lh	s4,366(sp)

0000000080008d58 <i_8706>:
    80008d58:	03421063          	bne	tp,s4,80008d78 <i_8714>

0000000080008d5c <i_8707>:
    80008d5c:	001a0a63          	beq	s4,ra,80008d70 <i_8712>

0000000080008d60 <i_8708>:
    80008d60:	014a1c63          	bne	s4,s4,80008d78 <i_8714>

0000000080008d64 <i_8709>:
    80008d64:	034a0263          	beq	s4,s4,80008d88 <i_8718>

0000000080008d68 <i_8710>:
    80008d68:	02126263          	bltu	tp,ra,80008d8c <i_8719>

0000000080008d6c <i_8711>:
    80008d6c:	014a1463          	bne	s4,s4,80008d74 <i_8713>

0000000080008d70 <i_8712>:
    80008d70:	ea111723          	sh	ra,-338(sp)

0000000080008d74 <i_8713>:
    80008d74:	024a50bb          	divuw	ra,s4,tp

0000000080008d78 <i_8714>:
    80008d78:	00110863          	beq	sp,ra,80008d88 <i_8718>

0000000080008d7c <i_8715>:
    80008d7c:	eb212623          	sw	s2,-340(sp)

0000000080008d80 <i_8716>:
    80008d80:	15015203          	lhu	tp,336(sp)

0000000080008d84 <i_8717>:
    80008d84:	f0110223          	sb	ra,-252(sp)

0000000080008d88 <i_8718>:
    80008d88:	03ea5263          	ble	t5,s4,80008dac <i_8727>

0000000080008d8c <i_8719>:
    80008d8c:	0340a233          	mulhsu	tp,ra,s4

0000000080008d90 <i_8720>:
    80008d90:	e8111723          	sh	ra,-370(sp)

0000000080008d94 <i_8721>:
    80008d94:	0010c663          	blt	ra,ra,80008da0 <i_8724>

0000000080008d98 <i_8722>:
    80008d98:	03800e13          	li	t3,56

0000000080008d9c <i_8723>:
    80008d9c:	41c250b3          	sra	ra,tp,t3

0000000080008da0 <i_8724>:
    80008da0:	0ed0a093          	slti	ra,ra,237

0000000080008da4 <i_8725>:
    80008da4:	1d011483          	lh	s1,464(sp)

0000000080008da8 <i_8726>:
    80008da8:	024e1063          	bne	t3,tp,80008dc8 <i_8734>

0000000080008dac <i_8727>:
    80008dac:	021c20b3          	mulhsu	ra,s8,ra

0000000080008db0 <i_8728>:
    80008db0:	e62ca397          	auipc	t2,0xe62ca

0000000080008db4 <i_8729>:
    80008db4:	5e8e7613          	andi	a2,t3,1512

0000000080008db8 <i_8730>:
    80008db8:	edd12a23          	sw	t4,-300(sp)

0000000080008dbc <i_8731>:
    80008dbc:	00000013          	nop

0000000080008dc0 <i_8732>:
    80008dc0:	1cc12783          	lw	a5,460(sp)

0000000080008dc4 <i_8733>:
    80008dc4:	1c813e03          	ld	t3,456(sp)

0000000080008dc8 <i_8734>:
    80008dc8:	01900613          	li	a2,25

0000000080008dcc <i_8735>:
    80008dcc:	00c490b3          	sll	ra,s1,a2

0000000080008dd0 <i_8736>:
    80008dd0:	74000a93          	li	s5,1856

0000000080008dd4 <i_8737>:
    80008dd4:	74e00493          	li	s1,1870

0000000080008dd8 <i_8738>:
    80008dd8:	0f813083          	ld	ra,248(sp)

0000000080008ddc <i_8739>:
    80008ddc:	0114d263          	ble	a7,s1,80008de0 <i_8740>

0000000080008de0 <i_8740>:
    80008de0:	00000013          	nop

0000000080008de4 <i_8741>:
    80008de4:	035a80bb          	mulw	ra,s5,s5

0000000080008de8 <i_8742>:
    80008de8:	e1810783          	lb	a5,-488(sp)

0000000080008dec <i_8743>:
    80008dec:	001a8a93          	addi	s5,s5,1 # 77d02a25 <main-0x82fd5db>
    80008df0:	fe9ae4e3          	bltu	s5,s1,80008dd8 <i_8738>

0000000080008df4 <i_8744>:
    80008df4:	00fafab3          	and	s5,s5,a5

0000000080008df8 <i_8745>:
    80008df8:	fb512223          	sw	s5,-92(sp)

0000000080008dfc <i_8746>:
    80008dfc:	00faee63          	bltu	s5,a5,80008e18 <i_8753>

0000000080008e00 <i_8747>:
    80008e00:	00f7fbb3          	and	s7,a5,a5

0000000080008e04 <i_8748>:
    80008e04:	007383b3          	add	t2,t2,t2

0000000080008e08 <i_8749>:
    80008e08:	e5416c83          	lwu	s9,-428(sp)

0000000080008e0c <i_8750>:
    80008e0c:	01aada63          	ble	s10,s5,80008e20 <i_8755>

0000000080008e10 <i_8751>:
    80008e10:	01912e23          	sw	s9,28(sp)

0000000080008e14 <i_8752>:
    80008e14:	faf106a3          	sb	a5,-83(sp)

0000000080008e18 <i_8753>:
    80008e18:	01978a63          	beq	a5,s9,80008e2c <i_8758>

0000000080008e1c <i_8754>:
    80008e1c:	f7c16c03          	lwu	s8,-132(sp)

0000000080008e20 <i_8755>:
    80008e20:	0b313023          	sd	s3,160(sp)

0000000080008e24 <i_8756>:
    80008e24:	00c10ba3          	sb	a2,23(sp)

0000000080008e28 <i_8757>:
    80008e28:	01e40bb3          	add	s7,s0,t5

0000000080008e2c <i_8758>:
    80008e2c:	1ce15203          	lhu	tp,462(sp)

0000000080008e30 <i_8759>:
    80008e30:	0c215403          	lhu	s0,194(sp)

0000000080008e34 <i_8760>:
    80008e34:	01713023          	sd	s7,0(sp)

0000000080008e38 <i_8761>:
    80008e38:	f6e11e23          	sh	a4,-132(sp)

0000000080008e3c <i_8762>:
    80008e3c:	00444463          	blt	s0,tp,80008e44 <i_8764>

0000000080008e40 <i_8763>:
    80008e40:	01811a83          	lh	s5,24(sp)

0000000080008e44 <i_8764>:
    80008e44:	027bcab3          	div	s5,s7,t2

0000000080008e48 <i_8765>:
    80008e48:	ea412423          	sw	tp,-344(sp)

0000000080008e4c <i_8766>:
    80008e4c:	ec015403          	lhu	s0,-320(sp)

0000000080008e50 <i_8767>:
    80008e50:	19511223          	sh	s5,388(sp)

0000000080008e54 <i_8768>:
    80008e54:	01500213          	li	tp,21

0000000080008e58 <i_8769>:
    80008e58:	004a9e3b          	sllw	t3,s5,tp

0000000080008e5c <i_8770>:
    80008e5c:	77b00a93          	li	s5,1915

0000000080008e60 <i_8771>:
    80008e60:	78e00293          	li	t0,1934

0000000080008e64 <i_8772>:
    80008e64:	efe11323          	sh	t5,-282(sp)

0000000080008e68 <i_8773>:
    80008e68:	01c2ae33          	slt	t3,t0,t3

0000000080008e6c <i_8774>:
    80008e6c:	1c813023          	sd	s0,448(sp)

0000000080008e70 <i_8775>:
    80008e70:	f7013783          	ld	a5,-144(sp)

0000000080008e74 <i_8776>:
    80008e74:	e2f13023          	sd	a5,-480(sp)

0000000080008e78 <i_8777>:
    80008e78:	16f13023          	sd	a5,352(sp)

0000000080008e7c <i_8778>:
    80008e7c:	03c00193          	li	gp,60

0000000080008e80 <i_8779>:
    80008e80:	0038d3b3          	srl	t2,a7,gp

0000000080008e84 <i_8780>:
    80008e84:	0e016183          	lwu	gp,224(sp)

0000000080008e88 <i_8781>:
    80008e88:	0352553b          	divuw	a0,tp,s5

0000000080008e8c <i_8782>:
    80008e8c:	f7a11183          	lh	gp,-134(sp)

0000000080008e90 <i_8783>:
    80008e90:	001a8a93          	addi	s5,s5,1
    80008e94:	fc5ae6e3          	bltu	s5,t0,80008e60 <i_8771>

0000000080008e98 <i_8784>:
    80008e98:	eb615983          	lhu	s3,-330(sp)

0000000080008e9c <i_8785>:
    80008e9c:	00a98463          	beq	s3,a0,80008ea4 <i_8787>

0000000080008ea0 <i_8786>:
    80008ea0:	030999b3          	mulh	s3,s3,a6

0000000080008ea4 <i_8787>:
    80008ea4:	0042541b          	srliw	s0,tp,0x4

0000000080008ea8 <i_8788>:
    80008ea8:	03a15203          	lhu	tp,58(sp)

0000000080008eac <i_8789>:
    80008eac:	1c813a83          	ld	s5,456(sp)

0000000080008eb0 <i_8790>:
    80008eb0:	fa416203          	lwu	tp,-92(sp)

0000000080008eb4 <i_8791>:
    80008eb4:	f0010783          	lb	a5,-256(sp)

0000000080008eb8 <i_8792>:
    80008eb8:	04012203          	lw	tp,64(sp)

0000000080008ebc <i_8793>:
    80008ebc:	f4310a83          	lb	s5,-189(sp)

0000000080008ec0 <i_8794>:
    80008ec0:	01f24c63          	blt	tp,t6,80008ed8 <i_8800>

0000000080008ec4 <i_8795>:
    80008ec4:	017af463          	bleu	s7,s5,80008ecc <i_8797>

0000000080008ec8 <i_8796>:
    80008ec8:	fee15783          	lhu	a5,-18(sp)

0000000080008ecc <i_8797>:
    80008ecc:	17914483          	lbu	s1,377(sp)

0000000080008ed0 <i_8798>:
    80008ed0:	0516061b          	addiw	a2,a2,81

0000000080008ed4 <i_8799>:
    80008ed4:	004a8a63          	beq	s5,tp,80008ee8 <i_8804>

0000000080008ed8 <i_8800>:
    80008ed8:	16010303          	lb	t1,352(sp)

0000000080008edc <i_8801>:
    80008edc:	e4016583          	lwu	a1,-448(sp)

0000000080008ee0 <i_8802>:
    80008ee0:	00b5c7b3          	xor	a5,a1,a1

0000000080008ee4 <i_8803>:
    80008ee4:	e4914303          	lbu	t1,-439(sp)

0000000080008ee8 <i_8804>:
    80008ee8:	15816983          	lwu	s3,344(sp)

0000000080008eec <i_8805>:
    80008eec:	00b7e863          	bltu	a5,a1,80008efc <i_8809>

0000000080008ef0 <i_8806>:
    80008ef0:	fe29b593          	sltiu	a1,s3,-30

0000000080008ef4 <i_8807>:
    80008ef4:	02f980bb          	mulw	ra,s3,a5

0000000080008ef8 <i_8808>:
    80008ef8:	033999b3          	mulh	s3,s3,s3

0000000080008efc <i_8809>:
    80008efc:	e8c10203          	lb	tp,-372(sp)

0000000080008f00 <i_8810>:
    80008f00:	02113423          	sd	ra,40(sp)

0000000080008f04 <i_8811>:
    80008f04:	eb611723          	sh	s6,-338(sp)

0000000080008f08 <i_8812>:
    80008f08:	03899c33          	mulh	s8,s3,s8

0000000080008f0c <i_8813>:
    80008f0c:	e5013983          	ld	s3,-432(sp)

0000000080008f10 <i_8814>:
    80008f10:	73900213          	li	tp,1849

0000000080008f14 <i_8815>:
    80008f14:	73f00413          	li	s0,1855

0000000080008f18 <i_8816>:
    80008f18:	00000013          	nop

0000000080008f1c <i_8817>:
    80008f1c:	00000013          	nop

0000000080008f20 <i_8818>:
    80008f20:	77d00593          	li	a1,1917

0000000080008f24 <i_8819>:
    80008f24:	78600093          	li	ra,1926

0000000080008f28 <i_8820>:
    80008f28:	00000013          	nop

0000000080008f2c <i_8821>:
    80008f2c:	eb312623          	sw	s3,-340(sp)

0000000080008f30 <i_8822>:
    80008f30:	00158593          	addi	a1,a1,1 # 9a040c6d <_end+0x1a030859>
    80008f34:	feb0dae3          	ble	a1,ra,80008f28 <i_8820>

0000000080008f38 <i_8823>:
    80008f38:	0219c0bb          	divw	ra,s3,ra

0000000080008f3c <i_8824>:
    80008f3c:	e93109a3          	sb	s3,-365(sp)

0000000080008f40 <i_8825>:
    80008f40:	00000013          	nop

0000000080008f44 <i_8826>:
    80008f44:	034c21b3          	mulhsu	gp,s8,s4

0000000080008f48 <i_8827>:
    80008f48:	00120213          	addi	tp,tp,1 # 1 <main-0x7fffffff>
    80008f4c:	fc8246e3          	blt	tp,s0,80008f18 <i_8816>

0000000080008f50 <i_8828>:
    80008f50:	0131f533          	and	a0,gp,s3

0000000080008f54 <i_8829>:
    80008f54:	fca12223          	sw	a0,-60(sp)

0000000080008f58 <i_8830>:
    80008f58:	1c813a83          	ld	s5,456(sp)

0000000080008f5c <i_8831>:
    80008f5c:	0021cbb3          	xor	s7,gp,sp

0000000080008f60 <i_8832>:
    80008f60:	01752533          	slt	a0,a0,s7

0000000080008f64 <i_8833>:
    80008f64:	015bd463          	ble	s5,s7,80008f6c <i_8835>

0000000080008f68 <i_8834>:
    80008f68:	41720233          	sub	tp,tp,s7

0000000080008f6c <i_8835>:
    80008f6c:	f35106a3          	sb	s5,-211(sp)

0000000080008f70 <i_8836>:
    80008f70:	f3b10503          	lb	a0,-197(sp)

0000000080008f74 <i_8837>:
    80008f74:	31eb4497          	auipc	s1,0x31eb4

0000000080008f78 <i_8838>:
    80008f78:	0378c83b          	divw	a6,a7,s7

0000000080008f7c <i_8839>:
    80008f7c:	f2210a83          	lb	s5,-222(sp)

0000000080008f80 <i_8840>:
    80008f80:	f1512623          	sw	s5,-244(sp)

0000000080008f84 <i_8841>:
    80008f84:	01084ab3          	xor	s5,a6,a6

0000000080008f88 <i_8842>:
    80008f88:	02a15083          	lhu	ra,42(sp)

0000000080008f8c <i_8843>:
    80008f8c:	eb012223          	sw	a6,-348(sp)

0000000080008f90 <i_8844>:
    80008f90:	7a800793          	li	a5,1960

0000000080008f94 <i_8845>:
    80008f94:	7bc00e93          	li	t4,1980

0000000080008f98 <i_8846>:
    80008f98:	0ac12803          	lw	a6,172(sp)

0000000080008f9c <i_8847>:
    80008f9c:	18911f23          	sh	s1,414(sp)

0000000080008fa0 <i_8848>:
    80008fa0:	89f00a13          	li	s4,-1889

0000000080008fa4 <i_8849>:
    80008fa4:	8af00a93          	li	s5,-1873

0000000080008fa8 <i_8850>:
    80008fa8:	7b5e3237          	lui	tp,0x7b5e3

0000000080008fac <i_8851>:
    80008fac:	03d4c663          	blt	s1,t4,80008fd8 <i_8860>

0000000080008fb0 <i_8852>:
    80008fb0:	00000013          	nop

0000000080008fb4 <i_8853>:
    80008fb4:	00000013          	nop

0000000080008fb8 <i_8854>:
    80008fb8:	001a0a13          	addi	s4,s4,1
    80008fbc:	ff4af6e3          	bleu	s4,s5,80008fa8 <i_8850>

0000000080008fc0 <i_8855>:
    80008fc0:	fb513823          	sd	s5,-80(sp)

0000000080008fc4 <i_8856>:
    80008fc4:	00178793          	addi	a5,a5,1
    80008fc8:	fcfef8e3          	bleu	a5,t4,80008f98 <i_8846>

0000000080008fcc <i_8857>:
    80008fcc:	1ab13c23          	sd	a1,440(sp)

0000000080008fd0 <i_8858>:
    80008fd0:	ff413c23          	sd	s4,-8(sp)

0000000080008fd4 <i_8859>:
    80008fd4:	06e15c83          	lhu	s9,110(sp)

0000000080008fd8 <i_8860>:
    80008fd8:	02d4e463          	bltu	s1,a3,80009000 <i_8870>

0000000080008fdc <i_8861>:
    80008fdc:	0010f663          	bleu	ra,ra,80008fe8 <i_8864>

0000000080008fe0 <i_8862>:
    80008fe0:	0c412483          	lw	s1,196(sp)

0000000080008fe4 <i_8863>:
    80008fe4:	eb710583          	lb	a1,-329(sp)

0000000080008fe8 <i_8864>:
    80008fe8:	f8a15a83          	lhu	s5,-118(sp)

0000000080008fec <i_8865>:
    80008fec:	03a204b3          	mul	s1,tp,s10

0000000080008ff0 <i_8866>:
    80008ff0:	fe413c23          	sd	tp,-8(sp)

0000000080008ff4 <i_8867>:
    80008ff4:	e3e13823          	sd	t5,-464(sp)

0000000080008ff8 <i_8868>:
    80008ff8:	00000013          	nop

0000000080008ffc <i_8869>:
    80008ffc:	ee813083          	ld	ra,-280(sp)

0000000080009000 <i_8870>:
    80009000:	f0d13023          	sd	a3,-256(sp)

0000000080009004 <i_8871>:
    80009004:	e8b0819b          	addiw	gp,ra,-373

0000000080009008 <i_8872>:
    80009008:	73800993          	li	s3,1848

000000008000900c <i_8873>:
    8000900c:	74400593          	li	a1,1860

0000000080009010 <i_8874>:
    80009010:	004ede93          	srli	t4,t4,0x4

0000000080009014 <i_8875>:
    80009014:	00479193          	slli	gp,a5,0x4

0000000080009018 <i_8876>:
    80009018:	030a60b3          	rem	ra,s4,a6

000000008000901c <i_8877>:
    8000901c:	1d412183          	lw	gp,468(sp)

0000000080009020 <i_8878>:
    80009020:	06310da3          	sb	gp,123(sp)

0000000080009024 <i_8879>:
    80009024:	0f015783          	lhu	a5,240(sp)

0000000080009028 <i_8880>:
    80009028:	a03aae13          	slti	t3,s5,-1533

000000008000902c <i_8881>:
    8000902c:	00198993          	addi	s3,s3,1
    80009030:	ff35f0e3          	bleu	s3,a1,80009010 <i_8874>

0000000080009034 <i_8882>:
    80009034:	fd911d23          	sh	s9,-38(sp)

0000000080009038 <i_8883>:
    80009038:	0b816183          	lwu	gp,184(sp)

000000008000903c <i_8884>:
    8000903c:	e2813403          	ld	s0,-472(sp)

0000000080009040 <i_8885>:
    80009040:	bc408a93          	addi	s5,ra,-1084 # 22425bc4 <main-0x5dbda43c>

0000000080009044 <i_8886>:
    80009044:	ea214403          	lbu	s0,-350(sp)

0000000080009048 <i_8887>:
    80009048:	00de0433          	add	s0,t3,a3

000000008000904c <i_8888>:
    8000904c:	cef93e17          	auipc	t3,0xcef93

0000000080009050 <i_8889>:
    80009050:	01498c63          	beq	s3,s4,80009068 <i_8895>

0000000080009054 <i_8890>:
    80009054:	02897263          	bleu	s0,s2,80009078 <i_8899>

0000000080009058 <i_8891>:
    80009058:	e8410a03          	lb	s4,-380(sp)

000000008000905c <i_8892>:
    8000905c:	014e6a33          	or	s4,t3,s4

0000000080009060 <i_8893>:
    80009060:	90d9fe13          	andi	t3,s3,-1779

0000000080009064 <i_8894>:
    80009064:	03ca7263          	bleu	t3,s4,80009088 <i_8903>

0000000080009068 <i_8895>:
    80009068:	01ce0863          	beq	t3,t3,80009078 <i_8899>

000000008000906c <i_8896>:
    8000906c:	10310803          	lb	a6,259(sp)

0000000080009070 <i_8897>:
    80009070:	fc815e03          	lhu	t3,-56(sp)

0000000080009074 <i_8898>:
    80009074:	fd416a03          	lwu	s4,-44(sp)

0000000080009078 <i_8899>:
    80009078:	e5e14a03          	lbu	s4,-418(sp)

000000008000907c <i_8900>:
    8000907c:	eaa10e03          	lb	t3,-342(sp)

0000000080009080 <i_8901>:
    80009080:	002a5813          	srli	a6,s4,0x2

0000000080009084 <i_8902>:
    80009084:	41480abb          	subw	s5,a6,s4

0000000080009088 <i_8903>:
    80009088:	e1c15803          	lhu	a6,-484(sp)

000000008000908c <i_8904>:
    8000908c:	026af263          	bleu	t1,s5,800090b0 <i_8913>

0000000080009090 <i_8905>:
    80009090:	ffa15a03          	lhu	s4,-6(sp)

0000000080009094 <i_8906>:
    80009094:	05c16303          	lwu	t1,92(sp)

0000000080009098 <i_8907>:
    80009098:	f7010503          	lb	a0,-144(sp)

000000008000909c <i_8908>:
    8000909c:	00000013          	nop

00000000800090a0 <i_8909>:
    800090a0:	ed814e83          	lbu	t4,-296(sp)

00000000800090a4 <i_8910>:
    800090a4:	1c610183          	lb	gp,454(sp)

00000000800090a8 <i_8911>:
    800090a8:	04812803          	lw	a6,72(sp)

00000000800090ac <i_8912>:
    800090ac:	0ac16803          	lwu	a6,172(sp)

00000000800090b0 <i_8913>:
    800090b0:	00000013          	nop

00000000800090b4 <i_8914>:
    800090b4:	13714803          	lbu	a6,311(sp)

00000000800090b8 <i_8915>:
    800090b8:	73900a13          	li	s4,1849

00000000800090bc <i_8916>:
    800090bc:	74100493          	li	s1,1857

00000000800090c0 <i_8917>:
    800090c0:	03019263          	bne	gp,a6,800090e4 <i_8925>

00000000800090c4 <i_8918>:
    800090c4:	00000013          	nop

00000000800090c8 <i_8919>:
    800090c8:	05c12183          	lw	gp,92(sp)

00000000800090cc <i_8920>:
    800090cc:	11016283          	lwu	t0,272(sp)

00000000800090d0 <i_8921>:
    800090d0:	001a0a13          	addi	s4,s4,1
    800090d4:	ff4496e3          	bne	s1,s4,800090c0 <i_8917>

00000000800090d8 <i_8922>:
    800090d8:	15812c83          	lw	s9,344(sp)

00000000800090dc <i_8923>:
    800090dc:	0102c533          	xor	a0,t0,a6

00000000800090e0 <i_8924>:
    800090e0:	f2013403          	ld	s0,-224(sp)

00000000800090e4 <i_8925>:
    800090e4:	0085ea63          	bltu	a1,s0,800090f8 <i_8930>

00000000800090e8 <i_8926>:
    800090e8:	ab82f597          	auipc	a1,0xab82f

00000000800090ec <i_8927>:
    800090ec:	0e810a23          	sb	s0,244(sp)

00000000800090f0 <i_8928>:
    800090f0:	e8013403          	ld	s0,-384(sp)

00000000800090f4 <i_8929>:
    800090f4:	00000013          	nop

00000000800090f8 <i_8930>:
    800090f8:	f2c12b83          	lw	s7,-212(sp)

00000000800090fc <i_8931>:
    800090fc:	e3514083          	lbu	ra,-459(sp)

0000000080009100 <i_8932>:
    80009100:	82200193          	li	gp,-2014

0000000080009104 <i_8933>:
    80009104:	83600d93          	li	s11,-1994

0000000080009108 <i_8934>:
    80009108:	00118193          	addi	gp,gp,1
    8000910c:	ffb1cee3          	blt	gp,s11,80009108 <i_8934>

0000000080009110 <i_8935>:
    80009110:	18812e23          	sw	s0,412(sp)

0000000080009114 <i_8936>:
    80009114:	00b30c33          	add	s8,t1,a1

0000000080009118 <i_8937>:
    80009118:	63e7c597          	auipc	a1,0x63e7c

000000008000911c <i_8938>:
    8000911c:	10811023          	sh	s0,256(sp)

0000000080009120 <i_8939>:
    80009120:	0cc16c03          	lwu	s8,204(sp)

0000000080009124 <i_8940>:
    80009124:	f1013303          	ld	t1,-240(sp)

0000000080009128 <i_8941>:
    80009128:	0385d263          	ble	s8,a1,8000914c <i_8950>

000000008000912c <i_8942>:
    8000912c:	ed813983          	ld	s3,-296(sp)

0000000080009130 <i_8943>:
    80009130:	00230663          	beq	t1,sp,8000913c <i_8946>

0000000080009134 <i_8944>:
    80009134:	025357b3          	divu	a5,t1,t0

0000000080009138 <i_8945>:
    80009138:	f1714303          	lbu	t1,-233(sp)

000000008000913c <i_8946>:
    8000913c:	e2013c83          	ld	s9,-480(sp)

0000000080009140 <i_8947>:
    80009140:	e3912823          	sw	s9,-464(sp)

0000000080009144 <i_8948>:
    80009144:	019c9263          	bne	s9,s9,80009148 <i_8949>

0000000080009148 <i_8949>:
    80009148:	033c6533          	rem	a0,s8,s3

000000008000914c <i_8950>:
    8000914c:	01812c83          	lw	s9,24(sp)

0000000080009150 <i_8951>:
    80009150:	0196fc63          	bleu	s9,a3,80009168 <i_8957>

0000000080009154 <i_8952>:
    80009154:	15911223          	sh	s9,324(sp)

0000000080009158 <i_8953>:
    80009158:	02a46433          	rem	s0,s0,a0

000000008000915c <i_8954>:
    8000915c:	01700513          	li	a0,23

0000000080009160 <i_8955>:
    80009160:	00a510bb          	sllw	ra,a0,a0

0000000080009164 <i_8956>:
    80009164:	00b00c13          	li	s8,11

0000000080009168 <i_8957>:
    80009168:	418e5e3b          	sraw	t3,t3,s8

000000008000916c <i_8958>:
    8000916c:	01ce2433          	slt	s0,t3,t3

0000000080009170 <i_8959>:
    80009170:	75100b93          	li	s7,1873

0000000080009174 <i_8960>:
    80009174:	76200c93          	li	s9,1890

0000000080009178 <i_8961>:
    80009178:	03cc7e3b          	remuw	t3,s8,t3

000000008000917c <i_8962>:
    8000917c:	033e7263          	bleu	s3,t3,800091a0 <i_8970>

0000000080009180 <i_8963>:
    80009180:	01cc2533          	slt	a0,s8,t3

0000000080009184 <i_8964>:
    80009184:	034e0a3b          	mulw	s4,t3,s4

0000000080009188 <i_8965>:
    80009188:	01cc4a33          	xor	s4,s8,t3

000000008000918c <i_8966>:
    8000918c:	001b8b93          	addi	s7,s7,1 # f478001 <main-0x70b87fff>
    80009190:	ff9be4e3          	bltu	s7,s9,80009178 <i_8961>

0000000080009194 <i_8967>:
    80009194:	018e1863          	bne	t3,s8,800091a4 <i_8971>

0000000080009198 <i_8968>:
    80009198:	e5812423          	sw	s8,-440(sp)

000000008000919c <i_8969>:
    8000919c:	03c57a33          	remu	s4,a0,t3

00000000800091a0 <i_8970>:
    800091a0:	12013b83          	ld	s7,288(sp)

00000000800091a4 <i_8971>:
    800091a4:	e7c16603          	lwu	a2,-388(sp)

00000000800091a8 <i_8972>:
    800091a8:	02a253bb          	divuw	t2,tp,a0

00000000800091ac <i_8973>:
    800091ac:	01c3ce63          	blt	t2,t3,800091c8 <i_8980>

00000000800091b0 <i_8974>:
    800091b0:	e9f10503          	lb	a0,-353(sp)

00000000800091b4 <i_8975>:
    800091b4:	00c00513          	li	a0,12

00000000800091b8 <i_8976>:
    800091b8:	40a65233          	sra	tp,a2,a0

00000000800091bc <i_8977>:
    800091bc:	e5c12983          	lw	s3,-420(sp)

00000000800091c0 <i_8978>:
    800091c0:	00498463          	beq	s3,tp,800091c8 <i_8980>

00000000800091c4 <i_8979>:
    800091c4:	14c11623          	sh	a2,332(sp)

00000000800091c8 <i_8980>:
    800091c8:	f0c11203          	lh	tp,-244(sp)

00000000800091cc <i_8981>:
    800091cc:	f5a15e83          	lhu	t4,-166(sp)

00000000800091d0 <i_8982>:
    800091d0:	8a600793          	li	a5,-1882

00000000800091d4 <i_8983>:
    800091d4:	8ae00313          	li	t1,-1874

00000000800091d8 <i_8984>:
    800091d8:	00f00213          	li	tp,15

00000000800091dc <i_8985>:
    800091dc:	00479a33          	sll	s4,a5,tp

00000000800091e0 <i_8986>:
    800091e0:	00178793          	addi	a5,a5,1
    800091e4:	fef37ae3          	bleu	a5,t1,800091d8 <i_8984>

00000000800091e8 <i_8987>:
    800091e8:	03424e3b          	divw	t3,tp,s4

00000000800091ec <i_8988>:
    800091ec:	024eea33          	rem	s4,t4,tp

00000000800091f0 <i_8989>:
    800091f0:	11813d83          	ld	s11,280(sp)

00000000800091f4 <i_8990>:
    800091f4:	01c50eb3          	add	t4,a0,t3

00000000800091f8 <i_8991>:
    800091f8:	03816a03          	lwu	s4,56(sp)

00000000800091fc <i_8992>:
    800091fc:	004e9663          	bne	t4,tp,80009208 <i_8995>

0000000080009200 <i_8993>:
    80009200:	e2c10583          	lb	a1,-468(sp)

0000000080009204 <i_8994>:
    80009204:	0b911523          	sh	s9,170(sp)

0000000080009208 <i_8995>:
    80009208:	11d10523          	sb	t4,266(sp)

000000008000920c <i_8996>:
    8000920c:	015585b3          	add	a1,a1,s5

0000000080009210 <i_8997>:
    80009210:	02b595b3          	mulh	a1,a1,a1

0000000080009214 <i_8998>:
    80009214:	f1013023          	sd	a6,-256(sp)

0000000080009218 <i_8999>:
    80009218:	0b815803          	lhu	a6,184(sp)

000000008000921c <i_9000>:
    8000921c:	403ada9b          	sraiw	s5,s5,0x3

0000000080009220 <i_9001>:
    80009220:	01f00193          	li	gp,31

0000000080009224 <i_9002>:
    80009224:	003adcbb          	srlw	s9,s5,gp

0000000080009228 <i_9003>:
    80009228:	403181b3          	sub	gp,gp,gp

000000008000922c <i_9004>:
    8000922c:	fa813303          	ld	t1,-88(sp)

0000000080009230 <i_9005>:
    80009230:	2431fa93          	andi	s5,gp,579

0000000080009234 <i_9006>:
    80009234:	ff910283          	lb	t0,-7(sp)

0000000080009238 <i_9007>:
    80009238:	12c10383          	lb	t2,300(sp)

000000008000923c <i_9008>:
    8000923c:	019ae663          	bltu	s5,s9,80009248 <i_9011>

0000000080009240 <i_9009>:
    80009240:	039ae063          	bltu	s5,s9,80009260 <i_9017>

0000000080009244 <i_9010>:
    80009244:	0105a833          	slt	a6,a1,a6

0000000080009248 <i_9011>:
    80009248:	00c81a63          	bne	a6,a2,8000925c <i_9016>

000000008000924c <i_9012>:
    8000924c:	410905bb          	subw	a1,s2,a6

0000000080009250 <i_9013>:
    80009250:	1cb12223          	sw	a1,452(sp)

0000000080009254 <i_9014>:
    80009254:	0d410503          	lb	a0,212(sp)

0000000080009258 <i_9015>:
    80009258:	00a85863          	ble	a0,a6,80009268 <i_9019>

000000008000925c <i_9016>:
    8000925c:	00b81263          	bne	a6,a1,80009260 <i_9017>

0000000080009260 <i_9017>:
    80009260:	ffc12e83          	lw	t4,-4(sp)

0000000080009264 <i_9018>:
    80009264:	01816183          	lwu	gp,24(sp)

0000000080009268 <i_9019>:
    80009268:	f7d12023          	sw	t4,-160(sp)

000000008000926c <i_9020>:
    8000926c:	e8312023          	sw	gp,-384(sp)

0000000080009270 <i_9021>:
    80009270:	88700593          	li	a1,-1913

0000000080009274 <i_9022>:
    80009274:	88b00a93          	li	s5,-1909

0000000080009278 <i_9023>:
    80009278:	00158593          	addi	a1,a1,1 # e3e85119 <_end+0x63e74d05>
    8000927c:	ff55eee3          	bltu	a1,s5,80009278 <i_9023>

0000000080009280 <i_9024>:
    80009280:	0021da93          	srli	s5,gp,0x2

0000000080009284 <i_9025>:
    80009284:	e5215a83          	lhu	s5,-430(sp)

0000000080009288 <i_9026>:
    80009288:	efa11583          	lh	a1,-262(sp)

000000008000928c <i_9027>:
    8000928c:	ffe10ba3          	sb	t5,-9(sp)

0000000080009290 <i_9028>:
    80009290:	1dc15183          	lhu	gp,476(sp)

0000000080009294 <i_9029>:
    80009294:	0d613023          	sd	s6,192(sp)

0000000080009298 <i_9030>:
    80009298:	02b5e263          	bltu	a1,a1,800092bc <i_9039>

000000008000929c <i_9031>:
    8000929c:	0044d793          	srli	a5,s1,0x4

00000000800092a0 <i_9032>:
    800092a0:	00ba8a63          	beq	s5,a1,800092b4 <i_9037>

00000000800092a4 <i_9033>:
    800092a4:	0355d063          	ble	s5,a1,800092c4 <i_9041>

00000000800092a8 <i_9034>:
    800092a8:	19416283          	lwu	t0,404(sp)

00000000800092ac <i_9035>:
    800092ac:	01a00193          	li	gp,26

00000000800092b0 <i_9036>:
    800092b0:	0031d1bb          	srlw	gp,gp,gp

00000000800092b4 <i_9037>:
    800092b4:	00318a63          	beq	gp,gp,800092c8 <i_9042>

00000000800092b8 <i_9038>:
    800092b8:	ee816403          	lwu	s0,-280(sp)

00000000800092bc <i_9039>:
    800092bc:	0e311e23          	sh	gp,252(sp)

00000000800092c0 <i_9040>:
    800092c0:	02740463          	beq	s0,t2,800092e8 <i_9050>

00000000800092c4 <i_9041>:
    800092c4:	0a810aa3          	sb	s0,181(sp)

00000000800092c8 <i_9042>:
    800092c8:	01a00413          	li	s0,26

00000000800092cc <i_9043>:
    800092cc:	4084543b          	sraw	s0,s0,s0

00000000800092d0 <i_9044>:
    800092d0:	1e815403          	lhu	s0,488(sp)

00000000800092d4 <i_9045>:
    800092d4:	fc415483          	lhu	s1,-60(sp)

00000000800092d8 <i_9046>:
    800092d8:	08913c23          	sd	s1,152(sp)

00000000800092dc <i_9047>:
    800092dc:	034f4263          	blt	t5,s4,80009300 <i_9056>

00000000800092e0 <i_9048>:
    800092e0:	0084e863          	bltu	s1,s0,800092f0 <i_9052>

00000000800092e4 <i_9049>:
    800092e4:	00947663          	bleu	s1,s0,800092f0 <i_9052>

00000000800092e8 <i_9050>:
    800092e8:	02812423          	sw	s0,40(sp)

00000000800092ec <i_9051>:
    800092ec:	e6815403          	lhu	s0,-408(sp)

00000000800092f0 <i_9052>:
    800092f0:	eff11423          	sh	t6,-280(sp)

00000000800092f4 <i_9053>:
    800092f4:	f6913c23          	sd	s1,-136(sp)

00000000800092f8 <i_9054>:
    800092f8:	94f40c93          	addi	s9,s0,-1713

00000000800092fc <i_9055>:
    800092fc:	f6013c03          	ld	s8,-160(sp)

0000000080009300 <i_9056>:
    80009300:	028cd333          	divu	t1,s9,s0

0000000080009304 <i_9057>:
    80009304:	74c18193          	addi	gp,gp,1868

0000000080009308 <i_9058>:
    80009308:	7dd00493          	li	s1,2013

000000008000930c <i_9059>:
    8000930c:	7e200413          	li	s0,2018

0000000080009310 <i_9060>:
    80009310:	0281cebb          	divw	t4,gp,s0

0000000080009314 <i_9061>:
    80009314:	e8812a23          	sw	s0,-364(sp)

0000000080009318 <i_9062>:
    80009318:	401c5b9b          	sraiw	s7,s8,0x1

000000008000931c <i_9063>:
    8000931c:	00148493          	addi	s1,s1,1 # b1ebcf75 <_end+0x31eacb61>
    80009320:	fe84c8e3          	blt	s1,s0,80009310 <i_9060>

0000000080009324 <i_9064>:
    80009324:	1fe13023          	sd	t5,480(sp)

0000000080009328 <i_9065>:
    80009328:	40948db3          	sub	s11,s1,s1

000000008000932c <i_9066>:
    8000932c:	02a00b93          	li	s7,42

0000000080009330 <i_9067>:
    80009330:	01749433          	sll	s0,s1,s7

0000000080009334 <i_9068>:
    80009334:	f2412b83          	lw	s7,-220(sp)

0000000080009338 <i_9069>:
    80009338:	00000013          	nop

000000008000933c <i_9070>:
    8000933c:	0e110c03          	lb	s8,225(sp)

0000000080009340 <i_9071>:
    80009340:	86300b93          	li	s7,-1949

0000000080009344 <i_9072>:
    80009344:	86d00e13          	li	t3,-1939

0000000080009348 <i_9073>:
    80009348:	00000013          	nop

000000008000934c <i_9074>:
    8000934c:	001b8b93          	addi	s7,s7,1
    80009350:	ffcbcce3          	blt	s7,t3,80009348 <i_9073>

0000000080009354 <i_9075>:
    80009354:	f6414b83          	lbu	s7,-156(sp)

0000000080009358 <i_9076>:
    80009358:	10012483          	lw	s1,256(sp)

000000008000935c <i_9077>:
    8000935c:	02647463          	bleu	t1,s0,80009384 <i_9087>

0000000080009360 <i_9078>:
    80009360:	e9811303          	lh	t1,-360(sp)

0000000080009364 <i_9079>:
    80009364:	03dbe063          	bltu	s7,t4,80009384 <i_9087>

0000000080009368 <i_9080>:
    80009368:	fb711e23          	sh	s7,-68(sp)

000000008000936c <i_9081>:
    8000936c:	01557ab3          	and	s5,a0,s5

0000000080009370 <i_9082>:
    80009370:	51414a17          	auipc	s4,0x51414

0000000080009374 <i_9083>:
    80009374:	0359f9b3          	remu	s3,s3,s5

0000000080009378 <i_9084>:
    80009378:	402ad99b          	sraiw	s3,s5,0x2

000000008000937c <i_9085>:
    8000937c:	00000013          	nop

0000000080009380 <i_9086>:
    80009380:	013a44b3          	xor	s1,s4,s3

0000000080009384 <i_9087>:
    80009384:	f1c15a03          	lhu	s4,-228(sp)

0000000080009388 <i_9088>:
    80009388:	00000013          	nop

000000008000938c <i_9089>:
    8000938c:	87f00e93          	li	t4,-1921

0000000080009390 <i_9090>:
    80009390:	88a00b93          	li	s7,-1910

0000000080009394 <i_9091>:
    80009394:	0135f1b3          	and	gp,a1,s3

0000000080009398 <i_9092>:
    80009398:	05412623          	sw	s4,76(sp)

000000008000939c <i_9093>:
    8000939c:	88900413          	li	s0,-1911

00000000800093a0 <i_9094>:
    800093a0:	89400313          	li	t1,-1900

00000000800093a4 <i_9095>:
    800093a4:	02412083          	lw	ra,36(sp)

00000000800093a8 <i_9096>:
    800093a8:	00140413          	addi	s0,s0,1
    800093ac:	fe835ce3          	ble	s0,t1,800093a4 <i_9095>

00000000800093b0 <i_9097>:
    800093b0:	04313c23          	sd	gp,88(sp)

00000000800093b4 <i_9098>:
    800093b4:	e4812483          	lw	s1,-440(sp)

00000000800093b8 <i_9099>:
    800093b8:	01408a33          	add	s4,ra,s4

00000000800093bc <i_9100>:
    800093bc:	001e8e93          	addi	t4,t4,1
    800093c0:	fd7eeae3          	bltu	t4,s7,80009394 <i_9091>

00000000800093c4 <i_9101>:
    800093c4:	f5c12a03          	lw	s4,-164(sp)

00000000800093c8 <i_9102>:
    800093c8:	002a199b          	slliw	s3,s4,0x2

00000000800093cc <i_9103>:
    800093cc:	0230e463          	bltu	ra,gp,800093f4 <i_9113>

00000000800093d0 <i_9104>:
    800093d0:	001a1193          	slli	gp,s4,0x1

00000000800093d4 <i_9105>:
    800093d4:	e0310ea3          	sb	gp,-483(sp)

00000000800093d8 <i_9106>:
    800093d8:	fa910c03          	lb	s8,-87(sp)

00000000800093dc <i_9107>:
    800093dc:	021c2433          	mulhsu	s0,s8,ra

00000000800093e0 <i_9108>:
    800093e0:	06614a03          	lbu	s4,102(sp)

00000000800093e4 <i_9109>:
    800093e4:	1dc14c03          	lbu	s8,476(sp)

00000000800093e8 <i_9110>:
    800093e8:	4f7a6093          	ori	ra,s4,1271

00000000800093ec <i_9111>:
    800093ec:	00844263          	blt	s0,s0,800093f0 <i_9112>

00000000800093f0 <i_9112>:
    800093f0:	02816783          	lwu	a5,40(sp)

00000000800093f4 <i_9113>:
    800093f4:	0fc16e83          	lwu	t4,252(sp)

00000000800093f8 <i_9114>:
    800093f8:	dd329a17          	auipc	s4,0xdd329

00000000800093fc <i_9115>:
    800093fc:	75400513          	li	a0,1876

0000000080009400 <i_9116>:
    80009400:	76800413          	li	s0,1896

0000000080009404 <i_9117>:
    80009404:	00000013          	nop

0000000080009408 <i_9118>:
    80009408:	00000013          	nop

000000008000940c <i_9119>:
    8000940c:	85500093          	li	ra,-1963

0000000080009410 <i_9120>:
    80009410:	85b00293          	li	t0,-1957

0000000080009414 <i_9121>:
    80009414:	00000013          	nop

0000000080009418 <i_9122>:
    80009418:	16e15b83          	lhu	s7,366(sp)

000000008000941c <i_9123>:
    8000941c:	00000013          	nop

0000000080009420 <i_9124>:
    80009420:	00108093          	addi	ra,ra,1
    80009424:	fe5098e3          	bne	ra,t0,80009414 <i_9121>

0000000080009428 <i_9125>:
    80009428:	0340f663          	bleu	s4,ra,80009454 <i_9135>

000000008000942c <i_9126>:
    8000942c:	00828a33          	add	s4,t0,s0

0000000080009430 <i_9127>:
    80009430:	41928cb3          	sub	s9,t0,s9

0000000080009434 <i_9128>:
    80009434:	00150513          	addi	a0,a0,1
    80009438:	fca456e3          	ble	a0,s0,80009404 <i_9117>

000000008000943c <i_9129>:
    8000943c:	0392c0b3          	div	ra,t0,s9

0000000080009440 <i_9130>:
    80009440:	30a40c93          	addi	s9,s0,778

0000000080009444 <i_9131>:
    80009444:	05814c03          	lbu	s8,88(sp)

0000000080009448 <i_9132>:
    80009448:	01f00e93          	li	t4,31

000000008000944c <i_9133>:
    8000944c:	01dc12bb          	sllw	t0,s8,t4

0000000080009450 <i_9134>:
    80009450:	0dd13023          	sd	t4,192(sp)

0000000080009454 <i_9135>:
    80009454:	018c6e63          	bltu	s8,s8,80009470 <i_9142>

0000000080009458 <i_9136>:
    80009458:	0186de63          	ble	s8,a3,80009474 <i_9143>

000000008000945c <i_9137>:
    8000945c:	e4513023          	sd	t0,-448(sp)

0000000080009460 <i_9138>:
    80009460:	a31ead93          	slti	s11,t4,-1487

0000000080009464 <i_9139>:
    80009464:	04812e23          	sw	s0,92(sp)

0000000080009468 <i_9140>:
    80009468:	02c287bb          	mulw	a5,t0,a2

000000008000946c <i_9141>:
    8000946c:	eda15e83          	lhu	t4,-294(sp)

0000000080009470 <i_9142>:
    80009470:	16c16283          	lwu	t0,364(sp)

0000000080009474 <i_9143>:
    80009474:	e6b10c83          	lb	s9,-405(sp)

0000000080009478 <i_9144>:
    80009478:	f6412e83          	lw	t4,-156(sp)

000000008000947c <i_9145>:
    8000947c:	77300513          	li	a0,1907

0000000080009480 <i_9146>:
    80009480:	77e00413          	li	s0,1918

0000000080009484 <i_9147>:
    80009484:	20828613          	addi	a2,t0,520

0000000080009488 <i_9148>:
    80009488:	00150513          	addi	a0,a0,1
    8000948c:	fea41ce3          	bne	s0,a0,80009484 <i_9147>

0000000080009490 <i_9149>:
    80009490:	01a00513          	li	a0,26

0000000080009494 <i_9150>:
    80009494:	00aed63b          	srlw	a2,t4,a0

0000000080009498 <i_9151>:
    80009498:	1dd14283          	lbu	t0,477(sp)

000000008000949c <i_9152>:
    8000949c:	ec413c23          	sd	tp,-296(sp)

00000000800094a0 <i_9153>:
    800094a0:	1e410783          	lb	a5,484(sp)

00000000800094a4 <i_9154>:
    800094a4:	02728533          	mul	a0,t0,t2

00000000800094a8 <i_9155>:
    800094a8:	7d300293          	li	t0,2003

00000000800094ac <i_9156>:
    800094ac:	7e300393          	li	t2,2019

00000000800094b0 <i_9157>:
    800094b0:	faa13c23          	sd	a0,-72(sp)

00000000800094b4 <i_9158>:
    800094b4:	ff815783          	lhu	a5,-8(sp)

00000000800094b8 <i_9159>:
    800094b8:	87c00b93          	li	s7,-1924

00000000800094bc <i_9160>:
    800094bc:	88100493          	li	s1,-1919

00000000800094c0 <i_9161>:
    800094c0:	16a15503          	lhu	a0,362(sp)

00000000800094c4 <i_9162>:
    800094c4:	0097c263          	blt	a5,s1,800094c8 <i_9163>

00000000800094c8 <i_9163>:
    800094c8:	00000013          	nop

00000000800094cc <i_9164>:
    800094cc:	069106a3          	sb	s1,109(sp)

00000000800094d0 <i_9165>:
    800094d0:	ffc12503          	lw	a0,-4(sp)

00000000800094d4 <i_9166>:
    800094d4:	001b8b93          	addi	s7,s7,1
    800094d8:	fe9bc4e3          	blt	s7,s1,800094c0 <i_9161>

00000000800094dc <i_9167>:
    800094dc:	4025551b          	sraiw	a0,a0,0x2

00000000800094e0 <i_9168>:
    800094e0:	00128293          	addi	t0,t0,1
    800094e4:	fc7296e3          	bne	t0,t2,800094b0 <i_9157>

00000000800094e8 <i_9169>:
    800094e8:	02f2a7b3          	mulhsu	a5,t0,a5

00000000800094ec <i_9170>:
    800094ec:	f0416e03          	lwu	t3,-252(sp)

00000000800094f0 <i_9171>:
    800094f0:	03764333          	div	t1,a2,s7

00000000800094f4 <i_9172>:
    800094f4:	1c613023          	sd	t1,448(sp)

00000000800094f8 <i_9173>:
    800094f8:	027a5833          	divu	a6,s4,t2

00000000800094fc <i_9174>:
    800094fc:	75b00393          	li	t2,1883

0000000080009500 <i_9175>:
    80009500:	76e00a13          	li	s4,1902

0000000080009504 <i_9176>:
    80009504:	0015d49b          	srliw	s1,a1,0x1

0000000080009508 <i_9177>:
    80009508:	00000013          	nop

000000008000950c <i_9178>:
    8000950c:	00684e63          	blt	a6,t1,80009528 <i_9184>

0000000080009510 <i_9179>:
    80009510:	3fe32a93          	slti	s5,t1,1022

0000000080009514 <i_9180>:
    80009514:	026a4663          	blt	s4,t1,80009540 <i_9190>

0000000080009518 <i_9181>:
    80009518:	00138393          	addi	t2,t2,1 # 662d2db1 <main-0x19d2d24f>
    8000951c:	ff43e4e3          	bltu	t2,s4,80009504 <i_9176>

0000000080009520 <i_9182>:
    80009520:	01a00513          	li	a0,26

0000000080009524 <i_9183>:
    80009524:	40a857bb          	sraw	a5,a6,a0

0000000080009528 <i_9184>:
    80009528:	0094ea63          	bltu	s1,s1,8000953c <i_9189>

000000008000952c <i_9185>:
    8000952c:	e5512e23          	sw	s5,-420(sp)

0000000080009530 <i_9186>:
    80009530:	1154a193          	slti	gp,s1,277

0000000080009534 <i_9187>:
    80009534:	03583ab3          	mulhu	s5,a6,s5

0000000080009538 <i_9188>:
    80009538:	00600293          	li	t0,6

000000008000953c <i_9189>:
    8000953c:	405adab3          	sra	s5,s5,t0

0000000080009540 <i_9190>:
    80009540:	01c1d263          	ble	t3,gp,80009544 <i_9191>

0000000080009544 <i_9191>:
    80009544:	0152e633          	or	a2,t0,s5

0000000080009548 <i_9192>:
    80009548:	0153f463          	bleu	s5,t2,80009550 <i_9194>

000000008000954c <i_9193>:
    8000954c:	0347d0bb          	divuw	ra,a5,s4

0000000080009550 <i_9194>:
    80009550:	ea415a03          	lhu	s4,-348(sp)

0000000080009554 <i_9195>:
    80009554:	021a62b3          	rem	t0,s4,ra

0000000080009558 <i_9196>:
    80009558:	0342d2b3          	divu	t0,t0,s4

000000008000955c <i_9197>:
    8000955c:	76200093          	li	ra,1890

0000000080009560 <i_9198>:
    80009560:	76700a93          	li	s5,1895

0000000080009564 <i_9199>:
    80009564:	00329b9b          	slliw	s7,t0,0x3

0000000080009568 <i_9200>:
    80009568:	00129463          	bne	t0,ra,80009570 <i_9202>

000000008000956c <i_9201>:
    8000956c:	402adb9b          	sraiw	s7,s5,0x2

0000000080009570 <i_9202>:
    80009570:	005bc663          	blt	s7,t0,8000957c <i_9205>

0000000080009574 <i_9203>:
    80009574:	035e4063          	blt	t3,s5,80009594 <i_9211>

0000000080009578 <i_9204>:
    80009578:	b6ff8b97          	auipc	s7,0xb6ff8

000000008000957c <i_9205>:
    8000957c:	f37103a3          	sb	s7,-217(sp)

0000000080009580 <i_9206>:
    80009580:	efa11c83          	lh	s9,-262(sp)

0000000080009584 <i_9207>:
    80009584:	985c6537          	lui	a0,0x985c6

0000000080009588 <i_9208>:
    80009588:	00000013          	nop

000000008000958c <i_9209>:
    8000958c:	0f812283          	lw	t0,248(sp)

0000000080009590 <i_9210>:
    80009590:	e8816283          	lwu	t0,-376(sp)

0000000080009594 <i_9211>:
    80009594:	08513823          	sd	t0,144(sp)

0000000080009598 <i_9212>:
    80009598:	03010283          	lb	t0,48(sp)

000000008000959c <i_9213>:
    8000959c:	40355e93          	srai	t4,a0,0x3

00000000800095a0 <i_9214>:
    800095a0:	01bdedb3          	or	s11,s11,s11

00000000800095a4 <i_9215>:
    800095a4:	00108093          	addi	ra,ra,1
    800095a8:	fb50cee3          	blt	ra,s5,80009564 <i_9199>

00000000800095ac <i_9216>:
    800095ac:	005ed863          	ble	t0,t4,800095bc <i_9220>

00000000800095b0 <i_9217>:
    800095b0:	e9416a83          	lwu	s5,-364(sp)

00000000800095b4 <i_9218>:
    800095b4:	01b28e63          	beq	t0,s11,800095d0 <i_9225>

00000000800095b8 <i_9219>:
    800095b8:	002a929b          	slliw	t0,s5,0x2

00000000800095bc <i_9220>:
    800095bc:	001a9d9b          	slliw	s11,s5,0x1

00000000800095c0 <i_9221>:
    800095c0:	e3013283          	ld	t0,-464(sp)

00000000800095c4 <i_9222>:
    800095c4:	0a415503          	lhu	a0,164(sp)

00000000800095c8 <i_9223>:
    800095c8:	03b53533          	mulhu	a0,a0,s11

00000000800095cc <i_9224>:
    800095cc:	4052863b          	subw	a2,t0,t0

00000000800095d0 <i_9225>:
    800095d0:	f8013303          	ld	t1,-128(sp)

00000000800095d4 <i_9226>:
    800095d4:	f4511123          	sh	t0,-190(sp)

00000000800095d8 <i_9227>:
    800095d8:	efb10723          	sb	s11,-274(sp)

00000000800095dc <i_9228>:
    800095dc:	005d9e63          	bne	s11,t0,800095f8 <i_9235>

00000000800095e0 <i_9229>:
    800095e0:	02c00513          	li	a0,44

00000000800095e4 <i_9230>:
    800095e4:	00a29533          	sll	a0,t0,a0

00000000800095e8 <i_9231>:
    800095e8:	00a30333          	add	t1,t1,a0

00000000800095ec <i_9232>:
    800095ec:	01b00993          	li	s3,27

00000000800095f0 <i_9233>:
    800095f0:	01355c33          	srl	s8,a0,s3

00000000800095f4 <i_9234>:
    800095f4:	0265d5bb          	divuw	a1,a1,t1

00000000800095f8 <i_9235>:
    800095f8:	02a9fc33          	remu	s8,s3,a0

00000000800095fc <i_9236>:
    800095fc:	e9412303          	lw	t1,-364(sp)

0000000080009600 <i_9237>:
    80009600:	00658c63          	beq	a1,t1,80009618 <i_9243>

0000000080009604 <i_9238>:
    80009604:	c5f9a993          	slti	s3,s3,-929

0000000080009608 <i_9239>:
    80009608:	00b30463          	beq	t1,a1,80009610 <i_9241>

000000008000960c <i_9240>:
    8000960c:	1b23081b          	addiw	a6,t1,434

0000000080009610 <i_9241>:
    80009610:	a9c8ab93          	slti	s7,a7,-1380

0000000080009614 <i_9242>:
    80009614:	017b8463          	beq	s7,s7,8000961c <i_9244>

0000000080009618 <i_9243>:
    80009618:	07f14a03          	lbu	s4,127(sp)

000000008000961c <i_9244>:
    8000961c:	12815b83          	lhu	s7,296(sp)

0000000080009620 <i_9245>:
    80009620:	faf10403          	lb	s0,-81(sp)

0000000080009624 <i_9246>:
    80009624:	017a6263          	bltu	s4,s7,80009628 <i_9247>

0000000080009628 <i_9247>:
    80009628:	01600193          	li	gp,22

000000008000962c <i_9248>:
    8000962c:	0032d633          	srl	a2,t0,gp

0000000080009630 <i_9249>:
    80009630:	84400b93          	li	s7,-1980

0000000080009634 <i_9250>:
    80009634:	85000a13          	li	s4,-1968

0000000080009638 <i_9251>:
    80009638:	fec12c83          	lw	s9,-20(sp)

000000008000963c <i_9252>:
    8000963c:	f5016283          	lwu	t0,-176(sp)

0000000080009640 <i_9253>:
    80009640:	13013283          	ld	t0,304(sp)

0000000080009644 <i_9254>:
    80009644:	0252f1b3          	remu	gp,t0,t0

0000000080009648 <i_9255>:
    80009648:	f83105a3          	sb	gp,-117(sp)

000000008000964c <i_9256>:
    8000964c:	02b1f63b          	remuw	a2,gp,a1

0000000080009650 <i_9257>:
    80009650:	02c2f3b3          	remu	t2,t0,a2

0000000080009654 <i_9258>:
    80009654:	0026579b          	srliw	a5,a2,0x2

0000000080009658 <i_9259>:
    80009658:	02366263          	bltu	a2,gp,8000967c <i_9267>

000000008000965c <i_9260>:
    8000965c:	001b8b93          	addi	s7,s7,1 # 37001579 <main-0x48ffea87>
    80009660:	fd4bece3          	bltu	s7,s4,80009638 <i_9251>

0000000080009664 <i_9261>:
    80009664:	003602b3          	add	t0,a2,gp

0000000080009668 <i_9262>:
    80009668:	4033d79b          	sraiw	a5,t2,0x3

000000008000966c <i_9263>:
    8000966c:	b9564313          	xori	t1,a2,-1131

0000000080009670 <i_9264>:
    80009670:	02c1c233          	div	tp,gp,a2

0000000080009674 <i_9265>:
    80009674:	0fc15483          	lhu	s1,252(sp)

0000000080009678 <i_9266>:
    80009678:	f8f10ba3          	sb	a5,-105(sp)

000000008000967c <i_9267>:
    8000967c:	1c114d83          	lbu	s11,449(sp)

0000000080009680 <i_9268>:
    80009680:	e4f12623          	sw	a5,-436(sp)

0000000080009684 <i_9269>:
    80009684:	f2215c83          	lhu	s9,-222(sp)

0000000080009688 <i_9270>:
    80009688:	01c60633          	add	a2,a2,t3

000000008000968c <i_9271>:
    8000968c:	14011c83          	lh	s9,320(sp)

0000000080009690 <i_9272>:
    80009690:	0031f863          	bleu	gp,gp,800096a0 <i_9276>

0000000080009694 <i_9273>:
    80009694:	04c12b83          	lw	s7,76(sp)

0000000080009698 <i_9274>:
    80009698:	04c14e03          	lbu	t3,76(sp)

000000008000969c <i_9275>:
    8000969c:	00200e93          	li	t4,2

00000000800096a0 <i_9276>:
    800096a0:	01da1a3b          	sllw	s4,s4,t4

00000000800096a4 <i_9277>:
    800096a4:	017b9c63          	bne	s7,s7,800096bc <i_9283>

00000000800096a8 <i_9278>:
    800096a8:	ffc11623          	sh	t3,-20(sp)

00000000800096ac <i_9279>:
    800096ac:	03da9333          	mulh	t1,s5,t4

00000000800096b0 <i_9280>:
    800096b0:	1ab10c83          	lb	s9,427(sp)

00000000800096b4 <i_9281>:
    800096b4:	0d813483          	ld	s1,216(sp)

00000000800096b8 <i_9282>:
    800096b8:	01e4b633          	sltu	a2,s1,t5

00000000800096bc <i_9283>:
    800096bc:	00c48c63          	beq	s1,a2,800096d4 <i_9289>

00000000800096c0 <i_9284>:
    800096c0:	f2e15303          	lhu	t1,-210(sp)

00000000800096c4 <i_9285>:
    800096c4:	02675063          	ble	t1,a4,800096e4 <i_9293>

00000000800096c8 <i_9286>:
    800096c8:	00a4e863          	bltu	s1,a0,800096d8 <i_9290>

00000000800096cc <i_9287>:
    800096cc:	02637263          	bleu	t1,t1,800096f0 <i_9296>

00000000800096d0 <i_9288>:
    800096d0:	01436863          	bltu	t1,s4,800096e0 <i_9292>

00000000800096d4 <i_9289>:
    800096d4:	05312e23          	sw	s3,92(sp)

00000000800096d8 <i_9290>:
    800096d8:	00c34c63          	blt	t1,a2,800096f0 <i_9296>

00000000800096dc <i_9291>:
    800096dc:	00ca0a33          	add	s4,s4,a2

00000000800096e0 <i_9292>:
    800096e0:	14410723          	sb	tp,334(sp)

00000000800096e4 <i_9293>:
    800096e4:	e7c16a83          	lwu	s5,-388(sp)

00000000800096e8 <i_9294>:
    800096e8:	03900d93          	li	s11,57

00000000800096ec <i_9295>:
    800096ec:	41b3dc33          	sra	s8,t2,s11

00000000800096f0 <i_9296>:
    800096f0:	10012383          	lw	t2,256(sp)

00000000800096f4 <i_9297>:
    800096f4:	ef813603          	ld	a2,-264(sp)

00000000800096f8 <i_9298>:
    800096f8:	0383d4bb          	divuw	s1,t2,s8

00000000800096fc <i_9299>:
    800096fc:	01b4d263          	ble	s11,s1,80009700 <i_9300>

0000000080009700 <i_9300>:
    80009700:	018d8a63          	beq	s11,s8,80009714 <i_9305>

0000000080009704 <i_9301>:
    80009704:	bf918ab7          	lui	s5,0xbf918

0000000080009708 <i_9302>:
    80009708:	0094beb3          	sltu	t4,s1,s1

000000008000970c <i_9303>:
    8000970c:	fea15e03          	lhu	t3,-22(sp)

0000000080009710 <i_9304>:
    80009710:	0094e263          	bltu	s1,s1,80009714 <i_9305>

0000000080009714 <i_9305>:
    80009714:	01de5263          	ble	t4,t3,80009718 <i_9306>

0000000080009718 <i_9306>:
    80009718:	f6812483          	lw	s1,-152(sp)

000000008000971c <i_9307>:
    8000971c:	19110483          	lb	s1,401(sp)

0000000080009720 <i_9308>:
    80009720:	00479813          	slli	a6,a5,0x4

0000000080009724 <i_9309>:
    80009724:	00886c63          	bltu	a6,s0,8000973c <i_9315>

0000000080009728 <i_9310>:
    80009728:	004c0e63          	beq	s8,tp,80009744 <i_9317>

000000008000972c <i_9311>:
    8000972c:	403e5313          	srai	t1,t3,0x3

0000000080009730 <i_9312>:
    80009730:	027e8bb3          	mul	s7,t4,t2

0000000080009734 <i_9313>:
    80009734:	037be2bb          	remw	t0,s7,s7

0000000080009738 <i_9314>:
    80009738:	00125e1b          	srliw	t3,tp,0x1

000000008000973c <i_9315>:
    8000973c:	fb811803          	lh	a6,-72(sp)

0000000080009740 <i_9316>:
    80009740:	09c15783          	lhu	a5,156(sp)

0000000080009744 <i_9317>:
    80009744:	0b510b23          	sb	s5,182(sp)

0000000080009748 <i_9318>:
    80009748:	00000013          	nop

000000008000974c <i_9319>:
    8000974c:	85700d93          	li	s11,-1961

0000000080009750 <i_9320>:
    80009750:	85c00c13          	li	s8,-1956

0000000080009754 <i_9321>:
    80009754:	9a4cf597          	auipc	a1,0x9a4cf

0000000080009758 <i_9322>:
    80009758:	0de14403          	lbu	s0,222(sp)

000000008000975c <i_9323>:
    8000975c:	14611d23          	sh	t1,346(sp)

0000000080009760 <i_9324>:
    80009760:	030eb5b3          	mulhu	a1,t4,a6

0000000080009764 <i_9325>:
    80009764:	11413823          	sd	s4,272(sp)

0000000080009768 <i_9326>:
    80009768:	001d8d93          	addi	s11,s11,1 # ffffffffb686a001 <_end+0xffffffff36859bed>
    8000976c:	ff8d94e3          	bne	s11,s8,80009754 <i_9321>

0000000080009770 <i_9327>:
    80009770:	025de463          	bltu	s11,t0,80009798 <i_9337>

0000000080009774 <i_9328>:
    80009774:	00c79e63          	bne	a5,a2,80009790 <i_9335>

0000000080009778 <i_9329>:
    80009778:	018e87b3          	add	a5,t4,s8

000000008000977c <i_9330>:
    8000977c:	ec513823          	sd	t0,-304(sp)

0000000080009780 <i_9331>:
    80009780:	02f08063          	beq	ra,a5,800097a0 <i_9339>

0000000080009784 <i_9332>:
    80009784:	18b14d83          	lbu	s11,395(sp)

0000000080009788 <i_9333>:
    80009788:	02fbf263          	bleu	a5,s7,800097ac <i_9342>

000000008000978c <i_9334>:
    8000978c:	00461c9b          	slliw	s9,a2,0x4

0000000080009790 <i_9335>:
    80009790:	00000013          	nop

0000000080009794 <i_9336>:
    80009794:	06312c23          	sw	gp,120(sp)

0000000080009798 <i_9337>:
    80009798:	bcfba637          	lui	a2,0xbcfba

000000008000979c <i_9338>:
    8000979c:	00000013          	nop

00000000800097a0 <i_9339>:
    800097a0:	faf10203          	lb	tp,-81(sp)

00000000800097a4 <i_9340>:
    800097a4:	ef811603          	lh	a2,-264(sp)

00000000800097a8 <i_9341>:
    800097a8:	03e00413          	li	s0,62

00000000800097ac <i_9342>:
    800097ac:	00821233          	sll	tp,tp,s0

00000000800097b0 <i_9343>:
    800097b0:	06e44bb7          	lui	s7,0x6e44

00000000800097b4 <i_9344>:
    800097b4:	89900193          	li	gp,-1895

00000000800097b8 <i_9345>:
    800097b8:	8a100793          	li	a5,-1887

00000000800097bc <i_9346>:
    800097bc:	00118193          	addi	gp,gp,1
    800097c0:	fef19ee3          	bne	gp,a5,800097bc <i_9346>

00000000800097c4 <i_9347>:
    800097c4:	e7011223          	sh	a6,-412(sp)

00000000800097c8 <i_9348>:
    800097c8:	00000013          	nop

00000000800097cc <i_9349>:
    800097cc:	f4813403          	ld	s0,-184(sp)

00000000800097d0 <i_9350>:
    800097d0:	88900193          	li	gp,-1911

00000000800097d4 <i_9351>:
    800097d4:	89200813          	li	a6,-1902

00000000800097d8 <i_9352>:
    800097d8:	00118193          	addi	gp,gp,1
    800097dc:	fe387ee3          	bleu	gp,a6,800097d8 <i_9352>

00000000800097e0 <i_9353>:
    800097e0:	f0311d23          	sh	gp,-230(sp)

00000000800097e4 <i_9354>:
    800097e4:	fcb10b83          	lb	s7,-53(sp)

00000000800097e8 <i_9355>:
    800097e8:	1e415783          	lhu	a5,484(sp)

00000000800097ec <i_9356>:
    800097ec:	7e800813          	li	a6,2024

00000000800097f0 <i_9357>:
    800097f0:	7fa00993          	li	s3,2042

00000000800097f4 <i_9358>:
    800097f4:	e8d14b83          	lbu	s7,-371(sp)

00000000800097f8 <i_9359>:
    800097f8:	1e412603          	lw	a2,484(sp)

00000000800097fc <i_9360>:
    800097fc:	18412d83          	lw	s11,388(sp)

0000000080009800 <i_9361>:
    80009800:	00000013          	nop

0000000080009804 <i_9362>:
    80009804:	f7b102a3          	sb	s11,-155(sp)

0000000080009808 <i_9363>:
    80009808:	00000013          	nop

000000008000980c <i_9364>:
    8000980c:	00180813          	addi	a6,a6,1 # 93ebd6d9 <_end+0x13ead2c5>
    80009810:	ff09f2e3          	bleu	a6,s3,800097f4 <i_9358>

0000000080009814 <i_9365>:
    80009814:	10215e03          	lhu	t3,258(sp)

0000000080009818 <i_9366>:
    80009818:	017dd663          	ble	s7,s11,80009824 <i_9369>

000000008000981c <i_9367>:
    8000981c:	0eb10ca3          	sb	a1,249(sp)

0000000080009820 <i_9368>:
    80009820:	01b10ba3          	sb	s11,23(sp)

0000000080009824 <i_9369>:
    80009824:	03cdc063          	blt	s11,t3,80009844 <i_9377>

0000000080009828 <i_9370>:
    80009828:	07311123          	sh	s3,98(sp)

000000008000982c <i_9371>:
    8000982c:	013e79b3          	and	s3,t3,s3

0000000080009830 <i_9372>:
    80009830:	84fe2493          	slti	s1,t3,-1969

0000000080009834 <i_9373>:
    80009834:	029dbe33          	mulhu	t3,s11,s1

0000000080009838 <i_9374>:
    80009838:	0294c4bb          	divw	s1,s1,s1

000000008000983c <i_9375>:
    8000983c:	189105a3          	sb	s1,395(sp)

0000000080009840 <i_9376>:
    80009840:	029e4263          	blt	t3,s1,80009864 <i_9385>

0000000080009844 <i_9377>:
    80009844:	01c00c13          	li	s8,28

0000000080009848 <i_9378>:
    80009848:	0184d4bb          	srlw	s1,s1,s8

000000008000984c <i_9379>:
    8000984c:	f2410383          	lb	t2,-220(sp)

0000000080009850 <i_9380>:
    80009850:	03d7ec33          	rem	s8,a5,t4

0000000080009854 <i_9381>:
    80009854:	038c54bb          	divuw	s1,s8,s8

0000000080009858 <i_9382>:
    80009858:	01700493          	li	s1,23

000000008000985c <i_9383>:
    8000985c:	00939cb3          	sll	s9,t2,s1

0000000080009860 <i_9384>:
    80009860:	f0310283          	lb	t0,-253(sp)

0000000080009864 <i_9385>:
    80009864:	eec12283          	lw	t0,-276(sp)

0000000080009868 <i_9386>:
    80009868:	00938e33          	add	t3,t2,s1

000000008000986c <i_9387>:
    8000986c:	ea512a23          	sw	t0,-332(sp)

0000000080009870 <i_9388>:
    80009870:	e6511223          	sh	t0,-412(sp)

0000000080009874 <i_9389>:
    80009874:	12913423          	sd	s1,296(sp)

0000000080009878 <i_9390>:
    80009878:	10016183          	lwu	gp,256(sp)

000000008000987c <i_9391>:
    8000987c:	0034d39b          	srliw	t2,s1,0x3

0000000080009880 <i_9392>:
    80009880:	f2012483          	lw	s1,-224(sp)

0000000080009884 <i_9393>:
    80009884:	029e7463          	bleu	s1,t3,800098ac <i_9403>

0000000080009888 <i_9394>:
    80009888:	03f1d063          	ble	t6,gp,800098a8 <i_9402>

000000008000988c <i_9395>:
    8000988c:	409481b3          	sub	gp,s1,s1

0000000080009890 <i_9396>:
    80009890:	0a313423          	sd	gp,168(sp)

0000000080009894 <i_9397>:
    80009894:	00784463          	blt	a6,t2,8000989c <i_9399>

0000000080009898 <i_9398>:
    80009898:	6824e993          	ori	s3,s1,1666

000000008000989c <i_9399>:
    8000989c:	00500313          	li	t1,5

00000000800098a0 <i_9400>:
    800098a0:	0061d3bb          	srlw	t2,gp,t1

00000000800098a4 <i_9401>:
    800098a4:	00748433          	add	s0,s1,t2

00000000800098a8 <i_9402>:
    800098a8:	10514783          	lbu	a5,261(sp)

00000000800098ac <i_9403>:
    800098ac:	0323d3b3          	divu	t2,t2,s2

00000000800098b0 <i_9404>:
    800098b0:	f6815c03          	lhu	s8,-152(sp)

00000000800098b4 <i_9405>:
    800098b4:	05812603          	lw	a2,88(sp)

00000000800098b8 <i_9406>:
    800098b8:	ed013483          	ld	s1,-304(sp)

00000000800098bc <i_9407>:
    800098bc:	1c911423          	sh	s1,456(sp)

00000000800098c0 <i_9408>:
    800098c0:	027461b3          	rem	gp,s0,t2

00000000800098c4 <i_9409>:
    800098c4:	03d00613          	li	a2,61

00000000800098c8 <i_9410>:
    800098c8:	00c4d3b3          	srl	t2,s1,a2

00000000800098cc <i_9411>:
    800098cc:	0383bc33          	mulhu	s8,t2,s8

00000000800098d0 <i_9412>:
    800098d0:	17414603          	lbu	a2,372(sp)

00000000800098d4 <i_9413>:
    800098d4:	f2c12a83          	lw	s5,-212(sp)

00000000800098d8 <i_9414>:
    800098d8:	004c149b          	slliw	s1,s8,0x4

00000000800098dc <i_9415>:
    800098dc:	08c12283          	lw	t0,140(sp)

00000000800098e0 <i_9416>:
    800098e0:	1c9109a3          	sb	s1,467(sp)

00000000800098e4 <i_9417>:
    800098e4:	f6912e23          	sw	s1,-132(sp)

00000000800098e8 <i_9418>:
    800098e8:	0b8101a3          	sb	s8,163(sp)

00000000800098ec <i_9419>:
    800098ec:	f6514283          	lbu	t0,-155(sp)

00000000800098f0 <i_9420>:
    800098f0:	002adc9b          	srliw	s9,s5,0x2

00000000800098f4 <i_9421>:
    800098f4:	89900c13          	li	s8,-1895

00000000800098f8 <i_9422>:
    800098f8:	89b00e13          	li	t3,-1893

00000000800098fc <i_9423>:
    800098fc:	00000013          	nop

0000000080009900 <i_9424>:
    80009900:	00000013          	nop

0000000080009904 <i_9425>:
    80009904:	40c3863b          	subw	a2,t2,a2

0000000080009908 <i_9426>:
    80009908:	006e5263          	ble	t1,t3,8000990c <i_9427>

000000008000990c <i_9427>:
    8000990c:	fbc12a23          	sw	t3,-76(sp)

0000000080009910 <i_9428>:
    80009910:	1d416e83          	lwu	t4,468(sp)

0000000080009914 <i_9429>:
    80009914:	ea911423          	sh	s1,-344(sp)

0000000080009918 <i_9430>:
    80009918:	001c0c13          	addi	s8,s8,1
    8000991c:	ff8e70e3          	bleu	s8,t3,800098fc <i_9423>

0000000080009920 <i_9431>:
    80009920:	06c12823          	sw	a2,112(sp)

0000000080009924 <i_9432>:
    80009924:	05c11a03          	lh	s4,92(sp)

0000000080009928 <i_9433>:
    80009928:	fce14783          	lbu	a5,-50(sp)

000000008000992c <i_9434>:
    8000992c:	00738bb3          	add	s7,t2,t2

0000000080009930 <i_9435>:
    80009930:	f6c78613          	addi	a2,a5,-148

0000000080009934 <i_9436>:
    80009934:	012e8e63          	beq	t4,s2,80009950 <i_9443>

0000000080009938 <i_9437>:
    80009938:	0292e063          	bltu	t0,s1,80009958 <i_9445>

000000008000993c <i_9438>:
    8000993c:	82bbe493          	ori	s1,s7,-2005

0000000080009940 <i_9439>:
    80009940:	0f611483          	lh	s1,246(sp)

0000000080009944 <i_9440>:
    80009944:	40f48ebb          	subw	t4,s1,a5

0000000080009948 <i_9441>:
    80009948:	ebc15d83          	lhu	s11,-324(sp)

000000008000994c <i_9442>:
    8000994c:	017be863          	bltu	s7,s7,8000995c <i_9446>

0000000080009950 <i_9443>:
    80009950:	c3a48a13          	addi	s4,s1,-966

0000000080009954 <i_9444>:
    80009954:	0299ce33          	div	t3,s3,s1

0000000080009958 <i_9445>:
    80009958:	11412483          	lw	s1,276(sp)

000000008000995c <i_9446>:
    8000995c:	11c12e03          	lw	t3,284(sp)

0000000080009960 <i_9447>:
    80009960:	03c4e263          	bltu	s1,t3,80009984 <i_9456>

0000000080009964 <i_9448>:
    80009964:	f9c12e23          	sw	t3,-100(sp)

0000000080009968 <i_9449>:
    80009968:	19511823          	sh	s5,400(sp)

000000008000996c <i_9450>:
    8000996c:	03c4d263          	ble	t3,s1,80009990 <i_9459>

0000000080009970 <i_9451>:
    80009970:	03c55533          	divu	a0,a0,t3

0000000080009974 <i_9452>:
    80009974:	009af863          	bleu	s1,s5,80009984 <i_9456>

0000000080009978 <i_9453>:
    80009978:	e6c16403          	lwu	s0,-404(sp)

000000008000997c <i_9454>:
    8000997c:	00c00e13          	li	t3,12

0000000080009980 <i_9455>:
    80009980:	01cad63b          	srlw	a2,s5,t3

0000000080009984 <i_9456>:
    80009984:	f6c11023          	sh	a2,-160(sp)

0000000080009988 <i_9457>:
    80009988:	0ec12623          	sw	a2,236(sp)

000000008000998c <i_9458>:
    8000998c:	e3e15a83          	lhu	s5,-450(sp)

0000000080009990 <i_9459>:
    80009990:	035e653b          	remw	a0,t3,s5

0000000080009994 <i_9460>:
    80009994:	f6015783          	lhu	a5,-160(sp)

0000000080009998 <i_9461>:
    80009998:	00faa0b3          	slt	ra,s5,a5

000000008000999c <i_9462>:
    8000999c:	00110783          	lb	a5,1(sp)

00000000800099a0 <i_9463>:
    800099a0:	ec912223          	sw	s1,-316(sp)

00000000800099a4 <i_9464>:
    800099a4:	f6111123          	sh	ra,-158(sp)

00000000800099a8 <i_9465>:
    800099a8:	0049d51b          	srliw	a0,s3,0x4

00000000800099ac <i_9466>:
    800099ac:	00c56a63          	bltu	a0,a2,800099c0 <i_9471>

00000000800099b0 <i_9467>:
    800099b0:	00345e93          	srli	t4,s0,0x3

00000000800099b4 <i_9468>:
    800099b4:	0b214a03          	lbu	s4,178(sp)

00000000800099b8 <i_9469>:
    800099b8:	03de4533          	div	a0,t3,t4

00000000800099bc <i_9470>:
    800099bc:	00aeca63          	blt	t4,a0,800099d0 <i_9475>

00000000800099c0 <i_9471>:
    800099c0:	03d6cebb          	divw	t4,a3,t4

00000000800099c4 <i_9472>:
    800099c4:	20b5ce97          	auipc	t4,0x20b5c

00000000800099c8 <i_9473>:
    800099c8:	0aa12023          	sw	a0,160(sp)

00000000800099cc <i_9474>:
    800099cc:	02411403          	lh	s0,36(sp)

00000000800099d0 <i_9475>:
    800099d0:	019c8eb3          	add	t4,s9,s9

00000000800099d4 <i_9476>:
    800099d4:	ee012e83          	lw	t4,-288(sp)

00000000800099d8 <i_9477>:
    800099d8:	7a600793          	li	a5,1958

00000000800099dc <i_9478>:
    800099dc:	7ae00c93          	li	s9,1966

00000000800099e0 <i_9479>:
    800099e0:	003e9493          	slli	s1,t4,0x3

00000000800099e4 <i_9480>:
    800099e4:	01deb233          	sltu	tp,t4,t4

00000000800099e8 <i_9481>:
    800099e8:	01fed463          	ble	t6,t4,800099f0 <i_9483>

00000000800099ec <i_9482>:
    800099ec:	13b10483          	lb	s1,315(sp)

00000000800099f0 <i_9483>:
    800099f0:	0284fbb3          	remu	s7,s1,s0

00000000800099f4 <i_9484>:
    800099f4:	08c16203          	lwu	tp,140(sp)

00000000800099f8 <i_9485>:
    800099f8:	00178793          	addi	a5,a5,1
    800099fc:	ff97c2e3          	blt	a5,s9,800099e0 <i_9479>

0000000080009a00 <i_9486>:
    80009a00:	0172ce63          	blt	t0,s7,80009a1c <i_9493>

0000000080009a04 <i_9487>:
    80009a04:	0a812c83          	lw	s9,168(sp)

0000000080009a08 <i_9488>:
    80009a08:	02941263          	bne	s0,s1,80009a2c <i_9497>

0000000080009a0c <i_9489>:
    80009a0c:	0247d433          	divu	s0,a5,tp

0000000080009a10 <i_9490>:
    80009a10:	ec412a23          	sw	tp,-300(sp)

0000000080009a14 <i_9491>:
    80009a14:	e1a10c03          	lb	s8,-486(sp)

0000000080009a18 <i_9492>:
    80009a18:	e6812383          	lw	t2,-408(sp)

0000000080009a1c <i_9493>:
    80009a1c:	028a4063          	blt	s4,s0,80009a3c <i_9501>

0000000080009a20 <i_9494>:
    80009a20:	02016e83          	lwu	t4,32(sp)

0000000080009a24 <i_9495>:
    80009a24:	07210603          	lb	a2,114(sp)

0000000080009a28 <i_9496>:
    80009a28:	4fee839b          	addiw	t2,t4,1278

0000000080009a2c <i_9497>:
    80009a2c:	005473b3          	and	t2,s0,t0

0000000080009a30 <i_9498>:
    80009a30:	ecb14083          	lbu	ra,-309(sp)

0000000080009a34 <i_9499>:
    80009a34:	007eeeb3          	or	t4,t4,t2

0000000080009a38 <i_9500>:
    80009a38:	00500313          	li	t1,5

0000000080009a3c <i_9501>:
    80009a3c:	406453b3          	sra	t2,s0,t1

0000000080009a40 <i_9502>:
    80009a40:	0b015e83          	lhu	t4,176(sp)

0000000080009a44 <i_9503>:
    80009a44:	75e00413          	li	s0,1886

0000000080009a48 <i_9504>:
    80009a48:	76c00193          	li	gp,1900

0000000080009a4c <i_9505>:
    80009a4c:	00288263          	beq	a7,sp,80009a50 <i_9506>

0000000080009a50 <i_9506>:
    80009a50:	00000013          	nop

0000000080009a54 <i_9507>:
    80009a54:	03d37bb3          	remu	s7,t1,t4

0000000080009a58 <i_9508>:
    80009a58:	01d3b233          	sltu	tp,t2,t4

0000000080009a5c <i_9509>:
    80009a5c:	01d27eb3          	and	t4,tp,t4

0000000080009a60 <i_9510>:
    80009a60:	1c813e83          	ld	t4,456(sp)

0000000080009a64 <i_9511>:
    80009a64:	00500e93          	li	t4,5

0000000080009a68 <i_9512>:
    80009a68:	01d41ebb          	sllw	t4,s0,t4

0000000080009a6c <i_9513>:
    80009a6c:	03d2523b          	divuw	tp,tp,t4

0000000080009a70 <i_9514>:
    80009a70:	f2511423          	sh	t0,-216(sp)

0000000080009a74 <i_9515>:
    80009a74:	fdd13423          	sd	t4,-56(sp)

0000000080009a78 <i_9516>:
    80009a78:	00140413          	addi	s0,s0,1
    80009a7c:	fc3418e3          	bne	s0,gp,80009a4c <i_9505>

0000000080009a80 <i_9517>:
    80009a80:	00000013          	nop

0000000080009a84 <i_9518>:
    80009a84:	00420c63          	beq	tp,tp,80009a9c <i_9524>

0000000080009a88 <i_9519>:
    80009a88:	00000013          	nop

0000000080009a8c <i_9520>:
    80009a8c:	00000013          	nop

0000000080009a90 <i_9521>:
    80009a90:	0a3104a3          	sb	gp,169(sp)

0000000080009a94 <i_9522>:
    80009a94:	02323233          	mulhu	tp,tp,gp

0000000080009a98 <i_9523>:
    80009a98:	00000013          	nop

0000000080009a9c <i_9524>:
    80009a9c:	03d1deb3          	divu	t4,gp,t4

0000000080009aa0 <i_9525>:
    80009aa0:	04812c83          	lw	s9,72(sp)

0000000080009aa4 <i_9526>:
    80009aa4:	81600b93          	li	s7,-2026

0000000080009aa8 <i_9527>:
    80009aa8:	81a00193          	li	gp,-2022

0000000080009aac <i_9528>:
    80009aac:	001b8b93          	addi	s7,s7,1 # 6e44001 <main-0x791bbfff>
    80009ab0:	ff71fee3          	bleu	s7,gp,80009aac <i_9528>

0000000080009ab4 <i_9529>:
    80009ab4:	18911723          	sh	s1,398(sp)

0000000080009ab8 <i_9530>:
    80009ab8:	efa11e83          	lh	t4,-262(sp)

0000000080009abc <i_9531>:
    80009abc:	02900a13          	li	s4,41

0000000080009ac0 <i_9532>:
    80009ac0:	014edcb3          	srl	s9,t4,s4

0000000080009ac4 <i_9533>:
    80009ac4:	019fe4b3          	or	s1,t6,s9

0000000080009ac8 <i_9534>:
    80009ac8:	fa812e83          	lw	t4,-88(sp)

0000000080009acc <i_9535>:
    80009acc:	f9d11023          	sh	t4,-128(sp)

0000000080009ad0 <i_9536>:
    80009ad0:	08ceae93          	slti	t4,t4,140

0000000080009ad4 <i_9537>:
    80009ad4:	08910a83          	lb	s5,137(sp)

0000000080009ad8 <i_9538>:
    80009ad8:	15b14283          	lbu	t0,347(sp)

0000000080009adc <i_9539>:
    80009adc:	005eee63          	bltu	t4,t0,80009af8 <i_9546>

0000000080009ae0 <i_9540>:
    80009ae0:	01400493          	li	s1,20

0000000080009ae4 <i_9541>:
    80009ae4:	00929e33          	sll	t3,t0,s1

0000000080009ae8 <i_9542>:
    80009ae8:	05010a83          	lb	s5,80(sp)

0000000080009aec <i_9543>:
    80009aec:	005e1c63          	bne	t3,t0,80009b04 <i_9549>

0000000080009af0 <i_9544>:
    80009af0:	0ca11283          	lh	t0,202(sp)

0000000080009af4 <i_9545>:
    80009af4:	ac7a2c13          	slti	s8,s4,-1337

0000000080009af8 <i_9546>:
    80009af8:	065108a3          	sb	t0,113(sp)

0000000080009afc <i_9547>:
    80009afc:	f7416503          	lwu	a0,-140(sp)

0000000080009b00 <i_9548>:
    80009b00:	00000013          	nop

0000000080009b04 <i_9549>:
    80009b04:	1ca13823          	sd	a0,464(sp)

0000000080009b08 <i_9550>:
    80009b08:	fceff3b7          	lui	t2,0xfceff

0000000080009b0c <i_9551>:
    80009b0c:	76600a13          	li	s4,1894

0000000080009b10 <i_9552>:
    80009b10:	76a00e13          	li	t3,1898

0000000080009b14 <i_9553>:
    80009b14:	f1411a83          	lh	s5,-236(sp)

0000000080009b18 <i_9554>:
    80009b18:	f9c11203          	lh	tp,-100(sp)

0000000080009b1c <i_9555>:
    80009b1c:	e1e10803          	lb	a6,-482(sp)

0000000080009b20 <i_9556>:
    80009b20:	0122d263          	ble	s2,t0,80009b24 <i_9557>

0000000080009b24 <i_9557>:
    80009b24:	13914503          	lbu	a0,313(sp)

0000000080009b28 <i_9558>:
    80009b28:	00000013          	nop

0000000080009b2c <i_9559>:
    80009b2c:	001a0a13          	addi	s4,s4,1 # 5d3323f9 <main-0x22ccdc07>
    80009b30:	ffca62e3          	bltu	s4,t3,80009b14 <i_9553>

0000000080009b34 <i_9560>:
    80009b34:	024861bb          	remw	gp,a6,tp

0000000080009b38 <i_9561>:
    80009b38:	0086ee63          	bltu	a3,s0,80009b54 <i_9568>

0000000080009b3c <i_9562>:
    80009b3c:	00a13023          	sd	a0,0(sp)

0000000080009b40 <i_9563>:
    80009b40:	00456863          	bltu	a0,tp,80009b50 <i_9567>

0000000080009b44 <i_9564>:
    80009b44:	03b24063          	blt	tp,s11,80009b64 <i_9572>

0000000080009b48 <i_9565>:
    80009b48:	02324463          	blt	tp,gp,80009b70 <i_9575>

0000000080009b4c <i_9566>:
    80009b4c:	00357863          	bleu	gp,a0,80009b5c <i_9570>

0000000080009b50 <i_9567>:
    80009b50:	f1215183          	lhu	gp,-238(sp)

0000000080009b54 <i_9568>:
    80009b54:	03b1f1bb          	remuw	gp,gp,s11

0000000080009b58 <i_9569>:
    80009b58:	0031d663          	ble	gp,gp,80009b64 <i_9572>

0000000080009b5c <i_9570>:
    80009b5c:	1801c193          	xori	gp,gp,384

0000000080009b60 <i_9571>:
    80009b60:	0271cab3          	div	s5,gp,t2

0000000080009b64 <i_9572>:
    80009b64:	01cab1b3          	sltu	gp,s5,t3

0000000080009b68 <i_9573>:
    80009b68:	eea14283          	lbu	t0,-278(sp)

0000000080009b6c <i_9574>:
    80009b6c:	002a9793          	slli	a5,s5,0x2

0000000080009b70 <i_9575>:
    80009b70:	0231e463          	bltu	gp,gp,80009b98 <i_9585>

0000000080009b74 <i_9576>:
    80009b74:	025af9b3          	remu	s3,s5,t0

0000000080009b78 <i_9577>:
    80009b78:	01a00293          	li	t0,26

0000000080009b7c <i_9578>:
    80009b7c:	005194bb          	sllw	s1,gp,t0

0000000080009b80 <i_9579>:
    80009b80:	0094fe63          	bleu	s1,s1,80009b9c <i_9586>

0000000080009b84 <i_9580>:
    80009b84:	e3312623          	sw	s3,-468(sp)

0000000080009b88 <i_9581>:
    80009b88:	0249e233          	rem	tp,s3,tp

0000000080009b8c <i_9582>:
    80009b8c:	08514a03          	lbu	s4,133(sp)

0000000080009b90 <i_9583>:
    80009b90:	03813823          	sd	s8,48(sp)

0000000080009b94 <i_9584>:
    80009b94:	03813483          	ld	s1,56(sp)

0000000080009b98 <i_9585>:
    80009b98:	0164c533          	xor	a0,s1,s6

0000000080009b9c <i_9586>:
    80009b9c:	0144d863          	ble	s4,s1,80009bac <i_9590>

0000000080009ba0 <i_9587>:
    80009ba0:	0349d463          	ble	s4,s3,80009bc8 <i_9597>

0000000080009ba4 <i_9588>:
    80009ba4:	07611a83          	lh	s5,118(sp)

0000000080009ba8 <i_9589>:
    80009ba8:	01500a13          	li	s4,21

0000000080009bac <i_9590>:
    80009bac:	014a1a3b          	sllw	s4,s4,s4

0000000080009bb0 <i_9591>:
    80009bb0:	17c16a83          	lwu	s5,380(sp)

0000000080009bb4 <i_9592>:
    80009bb4:	ef710a83          	lb	s5,-265(sp)

0000000080009bb8 <i_9593>:
    80009bb8:	03215a83          	lhu	s5,50(sp)

0000000080009bbc <i_9594>:
    80009bbc:	0f511523          	sh	s5,234(sp)

0000000080009bc0 <i_9595>:
    80009bc0:	00000013          	nop

0000000080009bc4 <i_9596>:
    80009bc4:	1e011603          	lh	a2,480(sp)

0000000080009bc8 <i_9597>:
    80009bc8:	fd513423          	sd	s5,-56(sp)

0000000080009bcc <i_9598>:
    80009bcc:	001e1e13          	slli	t3,t3,0x1

0000000080009bd0 <i_9599>:
    80009bd0:	86f00c13          	li	s8,-1937

0000000080009bd4 <i_9600>:
    80009bd4:	87800a13          	li	s4,-1928

0000000080009bd8 <i_9601>:
    80009bd8:	00c00e13          	li	t3,12

0000000080009bdc <i_9602>:
    80009bdc:	01cd57bb          	srlw	a5,s10,t3

0000000080009be0 <i_9603>:
    80009be0:	001c0c13          	addi	s8,s8,1
    80009be4:	ff8a7ae3          	bleu	s8,s4,80009bd8 <i_9601>

0000000080009be8 <i_9604>:
    80009be8:	ec816e03          	lwu	t3,-312(sp)

0000000080009bec <i_9605>:
    80009bec:	f3c15a83          	lhu	s5,-196(sp)

0000000080009bf0 <i_9606>:
    80009bf0:	015100a3          	sb	s5,1(sp)

0000000080009bf4 <i_9607>:
    80009bf4:	01ee1263          	bne	t3,t5,80009bf8 <i_9608>

0000000080009bf8 <i_9608>:
    80009bf8:	01caf263          	bleu	t3,s5,80009bfc <i_9609>

0000000080009bfc <i_9609>:
    80009bfc:	f2812c83          	lw	s9,-216(sp)

0000000080009c00 <i_9610>:
    80009c00:	019abcb3          	sltu	s9,s5,s9

0000000080009c04 <i_9611>:
    80009c04:	019a8a63          	beq	s5,s9,80009c18 <i_9616>

0000000080009c08 <i_9612>:
    80009c08:	019e7863          	bleu	s9,t3,80009c18 <i_9616>

0000000080009c0c <i_9613>:
    80009c0c:	e2611e03          	lh	t3,-474(sp)

0000000080009c10 <i_9614>:
    80009c10:	00495a9b          	srliw	s5,s2,0x4

0000000080009c14 <i_9615>:
    80009c14:	0a215803          	lhu	a6,162(sp)

0000000080009c18 <i_9616>:
    80009c18:	f3c10aa3          	sb	t3,-203(sp)

0000000080009c1c <i_9617>:
    80009c1c:	03ce5463          	ble	t3,t3,80009c44 <i_9627>

0000000080009c20 <i_9618>:
    80009c20:	e2210083          	lb	ra,-478(sp)

0000000080009c24 <i_9619>:
    80009c24:	015cea63          	bltu	s9,s5,80009c38 <i_9624>

0000000080009c28 <i_9620>:
    80009c28:	ea812a03          	lw	s4,-344(sp)

0000000080009c2c <i_9621>:
    80009c2c:	f9011123          	sh	a6,-126(sp)

0000000080009c30 <i_9622>:
    80009c30:	fed108a3          	sb	a3,-15(sp)

0000000080009c34 <i_9623>:
    80009c34:	0170ae33          	slt	t3,ra,s7

0000000080009c38 <i_9624>:
    80009c38:	1c013b83          	ld	s7,448(sp)

0000000080009c3c <i_9625>:
    80009c3c:	3b2d8d93          	addi	s11,s11,946

0000000080009c40 <i_9626>:
    80009c40:	004a1263          	bne	s4,tp,80009c44 <i_9627>

0000000080009c44 <i_9627>:
    80009c44:	f3812d83          	lw	s11,-200(sp)

0000000080009c48 <i_9628>:
    80009c48:	fe013803          	ld	a6,-32(sp)

0000000080009c4c <i_9629>:
    80009c4c:	f2813203          	ld	tp,-216(sp)

0000000080009c50 <i_9630>:
    80009c50:	01086233          	or	tp,a6,a6

0000000080009c54 <i_9631>:
    80009c54:	ea010783          	lb	a5,-352(sp)

0000000080009c58 <i_9632>:
    80009c58:	02f83233          	mulhu	tp,a6,a5

0000000080009c5c <i_9633>:
    80009c5c:	0a211783          	lh	a5,162(sp)

0000000080009c60 <i_9634>:
    80009c60:	00000013          	nop

0000000080009c64 <i_9635>:
    80009c64:	77000b93          	li	s7,1904

0000000080009c68 <i_9636>:
    80009c68:	77a00613          	li	a2,1914

0000000080009c6c <i_9637>:
    80009c6c:	59452217          	auipc	tp,0x59452

0000000080009c70 <i_9638>:
    80009c70:	001b8b93          	addi	s7,s7,1
    80009c74:	fecbcce3          	blt	s7,a2,80009c6c <i_9637>

0000000080009c78 <i_9639>:
    80009c78:	00b00b93          	li	s7,11

0000000080009c7c <i_9640>:
    80009c7c:	0174d7b3          	srl	a5,s1,s7

0000000080009c80 <i_9641>:
    80009c80:	0297c4b3          	div	s1,a5,s1

0000000080009c84 <i_9642>:
    80009c84:	06c13823          	sd	a2,112(sp)

0000000080009c88 <i_9643>:
    80009c88:	f7c14c03          	lbu	s8,-132(sp)

0000000080009c8c <i_9644>:
    80009c8c:	1aa14183          	lbu	gp,426(sp)

0000000080009c90 <i_9645>:
    80009c90:	018afab3          	and	s5,s5,s8

0000000080009c94 <i_9646>:
    80009c94:	00000013          	nop

0000000080009c98 <i_9647>:
    80009c98:	e4b12c23          	sw	a1,-424(sp)

0000000080009c9c <i_9648>:
    80009c9c:	87800393          	li	t2,-1928

0000000080009ca0 <i_9649>:
    80009ca0:	88000a93          	li	s5,-1920

0000000080009ca4 <i_9650>:
    80009ca4:	15416283          	lwu	t0,340(sp)

0000000080009ca8 <i_9651>:
    80009ca8:	ed416c83          	lwu	s9,-300(sp)

0000000080009cac <i_9652>:
    80009cac:	34ca8293          	addi	t0,s5,844 # ffffffffbf91834c <_end+0xffffffff3f907f38>

0000000080009cb0 <i_9653>:
    80009cb0:	0b510da3          	sb	s5,187(sp)

0000000080009cb4 <i_9654>:
    80009cb4:	00138393          	addi	t2,t2,1 # fffffffffceff001 <_end+0xffffffff7ceeebed>
    80009cb8:	fe7af6e3          	bleu	t2,s5,80009ca4 <i_9650>

0000000080009cbc <i_9655>:
    80009cbc:	039ad263          	ble	s9,s5,80009ce0 <i_9664>

0000000080009cc0 <i_9656>:
    80009cc0:	015af663          	bleu	s5,s5,80009ccc <i_9659>

0000000080009cc4 <i_9657>:
    80009cc4:	65bbe2b7          	lui	t0,0x65bbe

0000000080009cc8 <i_9658>:
    80009cc8:	11aabc93          	sltiu	s9,s5,282

0000000080009ccc <i_9659>:
    80009ccc:	00500513          	li	a0,5

0000000080009cd0 <i_9660>:
    80009cd0:	00a2de3b          	srlw	t3,t0,a0

0000000080009cd4 <i_9661>:
    80009cd4:	ec815383          	lhu	t2,-312(sp)

0000000080009cd8 <i_9662>:
    80009cd8:	00a8e263          	bltu	a7,a0,80009cdc <i_9663>

0000000080009cdc <i_9663>:
    80009cdc:	0aa14503          	lbu	a0,170(sp)

0000000080009ce0 <i_9664>:
    80009ce0:	01c12303          	lw	t1,28(sp)

0000000080009ce4 <i_9665>:
    80009ce4:	ee910e03          	lb	t3,-279(sp)

0000000080009ce8 <i_9666>:
    80009ce8:	0fe10403          	lb	s0,254(sp)

0000000080009cec <i_9667>:
    80009cec:	5fe43513          	sltiu	a0,s0,1534

0000000080009cf0 <i_9668>:
    80009cf0:	0c712023          	sw	t2,192(sp)

0000000080009cf4 <i_9669>:
    80009cf4:	02143633          	mulhu	a2,s0,ra

0000000080009cf8 <i_9670>:
    80009cf8:	2da37093          	andi	ra,t1,730

0000000080009cfc <i_9671>:
    80009cfc:	09012303          	lw	t1,144(sp)

0000000080009d00 <i_9672>:
    80009d00:	11510303          	lb	t1,277(sp)

0000000080009d04 <i_9673>:
    80009d04:	75300e13          	li	t3,1875

0000000080009d08 <i_9674>:
    80009d08:	76600d93          	li	s11,1894

0000000080009d0c <i_9675>:
    80009d0c:	005e1863          	bne	t3,t0,80009d1c <i_9679>

0000000080009d10 <i_9676>:
    80009d10:	00b5a5b3          	slt	a1,a1,a1

0000000080009d14 <i_9677>:
    80009d14:	00000013          	nop

0000000080009d18 <i_9678>:
    80009d18:	00000013          	nop

0000000080009d1c <i_9679>:
    80009d1c:	00410aa3          	sb	tp,21(sp)

0000000080009d20 <i_9680>:
    80009d20:	00000013          	nop

0000000080009d24 <i_9681>:
    80009d24:	81400213          	li	tp,-2028

0000000080009d28 <i_9682>:
    80009d28:	82300313          	li	t1,-2013

0000000080009d2c <i_9683>:
    80009d2c:	ece14083          	lbu	ra,-306(sp)

0000000080009d30 <i_9684>:
    80009d30:	18b11c23          	sh	a1,408(sp)

0000000080009d34 <i_9685>:
    80009d34:	00120213          	addi	tp,tp,1 # d945bc6d <_end+0x5944b859>
    80009d38:	fe626ae3          	bltu	tp,t1,80009d2c <i_9683>

0000000080009d3c <i_9686>:
    80009d3c:	afd23797          	auipc	a5,0xafd23

0000000080009d40 <i_9687>:
    80009d40:	001e0e13          	addi	t3,t3,1 # 4ef9c04d <main-0x31063fb3>
    80009d44:	fdcd94e3          	bne	s11,t3,80009d0c <i_9675>

0000000080009d48 <i_9688>:
    80009d48:	19c10283          	lb	t0,412(sp)

0000000080009d4c <i_9689>:
    80009d4c:	00412803          	lw	a6,4(sp)

0000000080009d50 <i_9690>:
    80009d50:	e81101a3          	sb	ra,-381(sp)

0000000080009d54 <i_9691>:
    80009d54:	0105f5b3          	and	a1,a1,a6

0000000080009d58 <i_9692>:
    80009d58:	00481193          	slli	gp,a6,0x4

0000000080009d5c <i_9693>:
    80009d5c:	f2114203          	lbu	tp,-223(sp)

0000000080009d60 <i_9694>:
    80009d60:	1c410f23          	sb	tp,478(sp)

0000000080009d64 <i_9695>:
    80009d64:	63b1fc13          	andi	s8,gp,1595

0000000080009d68 <i_9696>:
    80009d68:	f7f20313          	addi	t1,tp,-129 # ffffffffffffff7f <_end+0xffffffff7ffefb6b>

0000000080009d6c <i_9697>:
    80009d6c:	03834063          	blt	t1,s8,80009d8c <i_9705>

0000000080009d70 <i_9698>:
    80009d70:	1e011403          	lh	s0,480(sp)

0000000080009d74 <i_9699>:
    80009d74:	0d012283          	lw	t0,208(sp)

0000000080009d78 <i_9700>:
    80009d78:	f0512823          	sw	t0,-240(sp)

0000000080009d7c <i_9701>:
    80009d7c:	e8611583          	lh	a1,-378(sp)

0000000080009d80 <i_9702>:
    80009d80:	ef012e23          	sw	a6,-260(sp)

0000000080009d84 <i_9703>:
    80009d84:	018c4c63          	blt	s8,s8,80009d9c <i_9709>

0000000080009d88 <i_9704>:
    80009d88:	e8615083          	lhu	ra,-378(sp)

0000000080009d8c <i_9705>:
    80009d8c:	0010fc63          	bleu	ra,ra,80009da4 <i_9711>

0000000080009d90 <i_9706>:
    80009d90:	02614063          	blt	sp,t1,80009db0 <i_9714>

0000000080009d94 <i_9707>:
    80009d94:	53442613          	slti	a2,s0,1332

0000000080009d98 <i_9708>:
    80009d98:	02b26263          	bltu	tp,a1,80009dbc <i_9717>

0000000080009d9c <i_9709>:
    80009d9c:	e7016a03          	lwu	s4,-400(sp)

0000000080009da0 <i_9710>:
    80009da0:	00d00213          	li	tp,13

0000000080009da4 <i_9711>:
    80009da4:	0041d233          	srl	tp,gp,tp

0000000080009da8 <i_9712>:
    80009da8:	19a10283          	lb	t0,410(sp)

0000000080009dac <i_9713>:
    80009dac:	ff413023          	sd	s4,-32(sp)

0000000080009db0 <i_9714>:
    80009db0:	01c837b3          	sltu	a5,a6,t3

0000000080009db4 <i_9715>:
    80009db4:	0361e263          	bltu	gp,s6,80009dd8 <i_9724>

0000000080009db8 <i_9716>:
    80009db8:	4027d59b          	sraiw	a1,a5,0x2

0000000080009dbc <i_9717>:
    80009dbc:	fe113423          	sd	ra,-24(sp)

0000000080009dc0 <i_9718>:
    80009dc0:	0cc12e03          	lw	t3,204(sp)

0000000080009dc4 <i_9719>:
    80009dc4:	f4514483          	lbu	s1,-187(sp)

0000000080009dc8 <i_9720>:
    80009dc8:	e8210403          	lb	s0,-382(sp)

0000000080009dcc <i_9721>:
    80009dcc:	0d013783          	ld	a5,208(sp)

0000000080009dd0 <i_9722>:
    80009dd0:	00913c23          	sd	s1,24(sp)

0000000080009dd4 <i_9723>:
    80009dd4:	01057833          	and	a6,a0,a6

0000000080009dd8 <i_9724>:
    80009dd8:	03700413          	li	s0,55

0000000080009ddc <i_9725>:
    80009ddc:	008c9433          	sll	s0,s9,s0

0000000080009de0 <i_9726>:
    80009de0:	83e00613          	li	a2,-1986

0000000080009de4 <i_9727>:
    80009de4:	85200093          	li	ra,-1966

0000000080009de8 <i_9728>:
    80009de8:	00000013          	nop

0000000080009dec <i_9729>:
    80009dec:	c4708417          	auipc	s0,0xc4708

0000000080009df0 <i_9730>:
    80009df0:	8c800b93          	li	s7,-1848

0000000080009df4 <i_9731>:
    80009df4:	8d000513          	li	a0,-1840

0000000080009df8 <i_9732>:
    80009df8:	001b8b93          	addi	s7,s7,1
    80009dfc:	feab9ee3          	bne	s7,a0,80009df8 <i_9732>

0000000080009e00 <i_9733>:
    80009e00:	03846c3b          	remw	s8,s0,s8

0000000080009e04 <i_9734>:
    80009e04:	e2e15a83          	lhu	s5,-466(sp)

0000000080009e08 <i_9735>:
    80009e08:	008a0db3          	add	s11,s4,s0

0000000080009e0c <i_9736>:
    80009e0c:	15113023          	sd	a7,320(sp)

0000000080009e10 <i_9737>:
    80009e10:	03448463          	beq	s1,s4,80009e38 <i_9746>

0000000080009e14 <i_9738>:
    80009e14:	00160613          	addi	a2,a2,1 # ffffffffbcfba001 <_end+0xffffffff3cfa9bed>
    80009e18:	fc1668e3          	bltu	a2,ra,80009de8 <i_9728>

0000000080009e1c <i_9739>:
    80009e1c:	03beca3b          	divw	s4,t4,s11

0000000080009e20 <i_9740>:
    80009e20:	035d833b          	mulw	t1,s11,s5

0000000080009e24 <i_9741>:
    80009e24:	046104a3          	sb	t1,73(sp)

0000000080009e28 <i_9742>:
    80009e28:	f4812303          	lw	t1,-184(sp)

0000000080009e2c <i_9743>:
    80009e2c:	09811d83          	lh	s11,152(sp)

0000000080009e30 <i_9744>:
    80009e30:	1db10ea3          	sb	s11,477(sp)

0000000080009e34 <i_9745>:
    80009e34:	e2e11303          	lh	t1,-466(sp)

0000000080009e38 <i_9746>:
    80009e38:	41ba0dbb          	subw	s11,s4,s11

0000000080009e3c <i_9747>:
    80009e3c:	01a00313          	li	t1,26

0000000080009e40 <i_9748>:
    80009e40:	006c5333          	srl	t1,s8,t1

0000000080009e44 <i_9749>:
    80009e44:	1c613c23          	sd	t1,472(sp)

0000000080009e48 <i_9750>:
    80009e48:	03bd8abb          	mulw	s5,s11,s11

0000000080009e4c <i_9751>:
    80009e4c:	019df863          	bleu	s9,s11,80009e5c <i_9755>

0000000080009e50 <i_9752>:
    80009e50:	006dc333          	xor	t1,s11,t1

0000000080009e54 <i_9753>:
    80009e54:	03b31463          	bne	t1,s11,80009e7c <i_9763>

0000000080009e58 <i_9754>:
    80009e58:	004ddd9b          	srliw	s11,s11,0x4

0000000080009e5c <i_9755>:
    80009e5c:	01a10603          	lb	a2,26(sp)

0000000080009e60 <i_9756>:
    80009e60:	02200613          	li	a2,34

0000000080009e64 <i_9757>:
    80009e64:	00ccd633          	srl	a2,s9,a2

0000000080009e68 <i_9758>:
    80009e68:	eac12223          	sw	a2,-348(sp)

0000000080009e6c <i_9759>:
    80009e6c:	00c64263          	blt	a2,a2,80009e70 <i_9760>

0000000080009e70 <i_9760>:
    80009e70:	01412983          	lw	s3,20(sp)

0000000080009e74 <i_9761>:
    80009e74:	00000013          	nop

0000000080009e78 <i_9762>:
    80009e78:	17415983          	lhu	s3,372(sp)

0000000080009e7c <i_9763>:
    80009e7c:	e8816203          	lwu	tp,-376(sp)

0000000080009e80 <i_9764>:
    80009e80:	00000013          	nop

0000000080009e84 <i_9765>:
    80009e84:	75200613          	li	a2,1874

0000000080009e88 <i_9766>:
    80009e88:	76500293          	li	t0,1893

0000000080009e8c <i_9767>:
    80009e8c:	fb210203          	lb	tp,-78(sp)

0000000080009e90 <i_9768>:
    80009e90:	00160613          	addi	a2,a2,1
    80009e94:	fec2dce3          	ble	a2,t0,80009e8c <i_9767>

0000000080009e98 <i_9769>:
    80009e98:	0362623b          	remw	tp,tp,s6

0000000080009e9c <i_9770>:
    80009e9c:	04816203          	lwu	tp,72(sp)

0000000080009ea0 <i_9771>:
    80009ea0:	025212b3          	mulh	t0,tp,t0

0000000080009ea4 <i_9772>:
    80009ea4:	03925cbb          	divuw	s9,tp,s9

0000000080009ea8 <i_9773>:
    80009ea8:	005262b3          	or	t0,tp,t0

0000000080009eac <i_9774>:
    80009eac:	18b2f213          	andi	tp,t0,395

0000000080009eb0 <i_9775>:
    80009eb0:	12412823          	sw	tp,304(sp)

0000000080009eb4 <i_9776>:
    80009eb4:	ea510583          	lb	a1,-347(sp)

0000000080009eb8 <i_9777>:
    80009eb8:	02b5d5b3          	divu	a1,a1,a1

0000000080009ebc <i_9778>:
    80009ebc:	01800593          	li	a1,24

0000000080009ec0 <i_9779>:
    80009ec0:	00b41cbb          	sllw	s9,s0,a1

0000000080009ec4 <i_9780>:
    80009ec4:	cdf47413          	andi	s0,s0,-801

0000000080009ec8 <i_9781>:
    80009ec8:	18b10c23          	sb	a1,408(sp)

0000000080009ecc <i_9782>:
    80009ecc:	f2812423          	sw	s0,-216(sp)

0000000080009ed0 <i_9783>:
    80009ed0:	01ecf663          	bleu	t5,s9,80009edc <i_9786>

0000000080009ed4 <i_9784>:
    80009ed4:	9a172517          	auipc	a0,0x9a172

0000000080009ed8 <i_9785>:
    80009ed8:	14b10c23          	sb	a1,344(sp)

0000000080009edc <i_9786>:
    80009edc:	023a8abb          	mulw	s5,s5,gp

0000000080009ee0 <i_9787>:
    80009ee0:	02bad53b          	divuw	a0,s5,a1

0000000080009ee4 <i_9788>:
    80009ee4:	83a00593          	li	a1,-1990

0000000080009ee8 <i_9789>:
    80009ee8:	84b00093          	li	ra,-1973

0000000080009eec <i_9790>:
    80009eec:	0155dc63          	ble	s5,a1,80009f04 <i_9795>

0000000080009ef0 <i_9791>:
    80009ef0:	00158593          	addi	a1,a1,1 # 1a4d8755 <main-0x65b278ab>
    80009ef4:	fe159ce3          	bne	a1,ra,80009eec <i_9790>

0000000080009ef8 <i_9792>:
    80009ef8:	01013583          	ld	a1,16(sp)

0000000080009efc <i_9793>:
    80009efc:	13016e83          	lwu	t4,304(sp)

0000000080009f00 <i_9794>:
    80009f00:	00c00193          	li	gp,12

0000000080009f04 <i_9795>:
    80009f04:	003c90bb          	sllw	ra,s9,gp

0000000080009f08 <i_9796>:
    80009f08:	01040263          	beq	s0,a6,80009f0c <i_9797>

0000000080009f0c <i_9797>:
    80009f0c:	13c12483          	lw	s1,316(sp)

0000000080009f10 <i_9798>:
    80009f10:	003a8e63          	beq	s5,gp,80009f2c <i_9805>

0000000080009f14 <i_9799>:
    80009f14:	03dab433          	mulhu	s0,s5,t4

0000000080009f18 <i_9800>:
    80009f18:	408981b3          	sub	gp,s3,s0

0000000080009f1c <i_9801>:
    80009f1c:	e9014183          	lbu	gp,-368(sp)

0000000080009f20 <i_9802>:
    80009f20:	f6b18093          	addi	ra,gp,-149

0000000080009f24 <i_9803>:
    80009f24:	11615a03          	lhu	s4,278(sp)

0000000080009f28 <i_9804>:
    80009f28:	0234d4b3          	divu	s1,s1,gp

0000000080009f2c <i_9805>:
    80009f2c:	fed13423          	sd	a3,-24(sp)

0000000080009f30 <i_9806>:
    80009f30:	00000013          	nop

0000000080009f34 <i_9807>:
    80009f34:	73700e93          	li	t4,1847

0000000080009f38 <i_9808>:
    80009f38:	74800993          	li	s3,1864

0000000080009f3c <i_9809>:
    80009f3c:	798a6a13          	ori	s4,s4,1944

0000000080009f40 <i_9810>:
    80009f40:	05211303          	lh	t1,82(sp)

0000000080009f44 <i_9811>:
    80009f44:	006a03b3          	add	t2,s4,t1

0000000080009f48 <i_9812>:
    80009f48:	0dc10f23          	sb	t3,222(sp)

0000000080009f4c <i_9813>:
    80009f4c:	f4415083          	lhu	ra,-188(sp)

0000000080009f50 <i_9814>:
    80009f50:	001e8e93          	addi	t4,t4,1 # a0b659c5 <_end+0x20b555b1>
    80009f54:	ffd9d4e3          	ble	t4,s3,80009f3c <i_9809>

0000000080009f58 <i_9815>:
    80009f58:	0230fa33          	remu	s4,ra,gp

0000000080009f5c <i_9816>:
    80009f5c:	0234e063          	bltu	s1,gp,80009f7c <i_9824>

0000000080009f60 <i_9817>:
    80009f60:	06914803          	lbu	a6,105(sp)

0000000080009f64 <i_9818>:
    80009f64:	00000013          	nop

0000000080009f68 <i_9819>:
    80009f68:	f7816403          	lwu	s0,-136(sp)

0000000080009f6c <i_9820>:
    80009f6c:	0ec12403          	lw	s0,236(sp)

0000000080009f70 <i_9821>:
    80009f70:	f9015803          	lhu	a6,-112(sp)

0000000080009f74 <i_9822>:
    80009f74:	f1314383          	lbu	t2,-237(sp)

0000000080009f78 <i_9823>:
    80009f78:	0f813e83          	ld	t4,248(sp)

0000000080009f7c <i_9824>:
    80009f7c:	e3e11e83          	lh	t4,-450(sp)

0000000080009f80 <i_9825>:
    80009f80:	01d24233          	xor	tp,tp,t4

0000000080009f84 <i_9826>:
    80009f84:	80b00e13          	li	t3,-2037

0000000080009f88 <i_9827>:
    80009f88:	81f00193          	li	gp,-2017

0000000080009f8c <i_9828>:
    80009f8c:	00000013          	nop

0000000080009f90 <i_9829>:
    80009f90:	e5111d23          	sh	a7,-422(sp)

0000000080009f94 <i_9830>:
    80009f94:	01900a93          	li	s5,25

0000000080009f98 <i_9831>:
    80009f98:	415b55b3          	sra	a1,s6,s5

0000000080009f9c <i_9832>:
    80009f9c:	f3811603          	lh	a2,-200(sp)

0000000080009fa0 <i_9833>:
    80009fa0:	01534c63          	blt	t1,s5,80009fb8 <i_9838>

0000000080009fa4 <i_9834>:
    80009fa4:	00c5de63          	ble	a2,a1,80009fc0 <i_9840>

0000000080009fa8 <i_9835>:
    80009fa8:	001e0e13          	addi	t3,t3,1
    80009fac:	fe3e40e3          	blt	t3,gp,80009f8c <i_9828>

0000000080009fb0 <i_9836>:
    80009fb0:	00c3d463          	ble	a2,t2,80009fb8 <i_9838>

0000000080009fb4 <i_9837>:
    80009fb4:	03525833          	divu	a6,tp,s5

0000000080009fb8 <i_9838>:
    80009fb8:	004eca63          	blt	t4,tp,80009fcc <i_9843>

0000000080009fbc <i_9839>:
    80009fbc:	027ad83b          	divuw	a6,s5,t2

0000000080009fc0 <i_9840>:
    80009fc0:	02816503          	lwu	a0,40(sp)

0000000080009fc4 <i_9841>:
    80009fc4:	0310a433          	mulhsu	s0,ra,a7

0000000080009fc8 <i_9842>:
    80009fc8:	0303843b          	mulw	s0,t2,a6

0000000080009fcc <i_9843>:
    80009fcc:	00200a13          	li	s4,2

0000000080009fd0 <i_9844>:
    80009fd0:	0143d3bb          	srlw	t2,t2,s4

0000000080009fd4 <i_9845>:
    80009fd4:	404a5d9b          	sraiw	s11,s4,0x4

0000000080009fd8 <i_9846>:
    80009fd8:	024539b3          	mulhu	s3,a0,tp

0000000080009fdc <i_9847>:
    80009fdc:	0073f3b3          	and	t2,t2,t2

0000000080009fe0 <i_9848>:
    80009fe0:	03200193          	li	gp,50

0000000080009fe4 <i_9849>:
    80009fe4:	4033d233          	sra	tp,t2,gp

0000000080009fe8 <i_9850>:
    80009fe8:	4383b393          	sltiu	t2,t2,1080

0000000080009fec <i_9851>:
    80009fec:	f7a11183          	lh	gp,-134(sp)

0000000080009ff0 <i_9852>:
    80009ff0:	00300393          	li	t2,3

0000000080009ff4 <i_9853>:
    80009ff4:	407f5833          	sra	a6,t5,t2

0000000080009ff8 <i_9854>:
    80009ff8:	f8215183          	lhu	gp,-126(sp)

0000000080009ffc <i_9855>:
    80009ffc:	e1c16a03          	lwu	s4,-484(sp)

000000008000a000 <i_9856>:
    8000a000:	e1c15b83          	lhu	s7,-484(sp)

000000008000a004 <i_9857>:
    8000a004:	0e311b23          	sh	gp,246(sp)

000000008000a008 <i_9858>:
    8000a008:	01018c63          	beq	gp,a6,8000a020 <i_9864>

000000008000a00c <i_9859>:
    8000a00c:	fa013303          	ld	t1,-96(sp)

000000008000a010 <i_9860>:
    8000a010:	00fbc663          	blt	s7,a5,8000a01c <i_9863>

000000008000a014 <i_9861>:
    8000a014:	19011223          	sh	a6,388(sp)

000000008000a018 <i_9862>:
    8000a018:	04810123          	sb	s0,66(sp)

000000008000a01c <i_9863>:
    8000a01c:	fe812603          	lw	a2,-24(sp)

000000008000a020 <i_9864>:
    8000a020:	14813a03          	ld	s4,328(sp)

000000008000a024 <i_9865>:
    8000a024:	ee813c23          	sd	s0,-264(sp)

000000008000a028 <i_9866>:
    8000a028:	81c00193          	li	gp,-2020

000000008000a02c <i_9867>:
    8000a02c:	82100413          	li	s0,-2015

000000008000a030 <i_9868>:
    8000a030:	01016283          	lwu	t0,16(sp)

000000008000a034 <i_9869>:
    8000a034:	02b5f2b3          	remu	t0,a1,a1

000000008000a038 <i_9870>:
    8000a038:	00b14a33          	xor	s4,sp,a1

000000008000a03c <i_9871>:
    8000a03c:	025285b3          	mul	a1,t0,t0

000000008000a040 <i_9872>:
    8000a040:	00000013          	nop

000000008000a044 <i_9873>:
    8000a044:	ed412e23          	sw	s4,-292(sp)

000000008000a048 <i_9874>:
    8000a048:	00159813          	slli	a6,a1,0x1

000000008000a04c <i_9875>:
    8000a04c:	fd011a83          	lh	s5,-48(sp)

000000008000a050 <i_9876>:
    8000a050:	fd910a83          	lb	s5,-39(sp)

000000008000a054 <i_9877>:
    8000a054:	0252bc33          	mulhu	s8,t0,t0

000000008000a058 <i_9878>:
    8000a058:	00118193          	addi	gp,gp,1
    8000a05c:	fc345ae3          	ble	gp,s0,8000a030 <i_9868>

000000008000a060 <i_9879>:
    8000a060:	0010d663          	ble	ra,ra,8000a06c <i_9882>

000000008000a064 <i_9880>:
    8000a064:	f5813023          	sd	s8,-192(sp)

000000008000a068 <i_9881>:
    8000a068:	fd814283          	lbu	t0,-40(sp)

000000008000a06c <i_9882>:
    8000a06c:	e8112223          	sw	ra,-380(sp)

000000008000a070 <i_9883>:
    8000a070:	025c8463          	beq	s9,t0,8000a098 <i_9893>

000000008000a074 <i_9884>:
    8000a074:	f4512823          	sw	t0,-176(sp)

000000008000a078 <i_9885>:
    8000a078:	00615603          	lhu	a2,6(sp)

000000008000a07c <i_9886>:
    8000a07c:	018a1463          	bne	s4,s8,8000a084 <i_9888>

000000008000a080 <i_9887>:
    8000a080:	e8813c03          	ld	s8,-376(sp)

000000008000a084 <i_9888>:
    8000a084:	fe511723          	sh	t0,-18(sp)

000000008000a088 <i_9889>:
    8000a088:	019e8c33          	add	s8,t4,s9

000000008000a08c <i_9890>:
    8000a08c:	00561463          	bne	a2,t0,8000a094 <i_9892>

000000008000a090 <i_9891>:
    8000a090:	f5811023          	sh	s8,-192(sp)

000000008000a094 <i_9892>:
    8000a094:	0cc16d83          	lwu	s11,204(sp)

000000008000a098 <i_9893>:
    8000a098:	038c463b          	divw	a2,s8,s8

000000008000a09c <i_9894>:
    8000a09c:	03200293          	li	t0,50

000000008000a0a0 <i_9895>:
    8000a0a0:	005dd1b3          	srl	gp,s11,t0

000000008000a0a4 <i_9896>:
    8000a0a4:	09012283          	lw	t0,144(sp)

000000008000a0a8 <i_9897>:
    8000a0a8:	e9a109a3          	sb	s10,-365(sp)

000000008000a0ac <i_9898>:
    8000a0ac:	d122fa93          	andi	s5,t0,-750

000000008000a0b0 <i_9899>:
    8000a0b0:	07a11203          	lh	tp,122(sp)

000000008000a0b4 <i_9900>:
    8000a0b4:	e5b13423          	sd	s11,-440(sp)

000000008000a0b8 <i_9901>:
    8000a0b8:	fa110983          	lb	s3,-95(sp)

000000008000a0bc <i_9902>:
    8000a0bc:	02551063          	bne	a0,t0,8000a0dc <i_9910>

000000008000a0c0 <i_9903>:
    8000a0c0:	00221d9b          	slliw	s11,tp,0x2

000000008000a0c4 <i_9904>:
    8000a0c4:	e9412303          	lw	t1,-364(sp)

000000008000a0c8 <i_9905>:
    8000a0c8:	07415303          	lhu	t1,116(sp)

000000008000a0cc <i_9906>:
    8000a0cc:	f9c12a83          	lw	s5,-100(sp)

000000008000a0d0 <i_9907>:
    8000a0d0:	00f00193          	li	gp,15

000000008000a0d4 <i_9908>:
    8000a0d4:	0033133b          	sllw	t1,t1,gp

000000008000a0d8 <i_9909>:
    8000a0d8:	06816283          	lwu	t0,104(sp)

000000008000a0dc <i_9910>:
    8000a0dc:	00000013          	nop

000000008000a0e0 <i_9911>:
    8000a0e0:	015ac5b3          	xor	a1,s5,s5

000000008000a0e4 <i_9912>:
    8000a0e4:	7ef00d93          	li	s11,2031

000000008000a0e8 <i_9913>:
    8000a0e8:	7f600a13          	li	s4,2038

000000008000a0ec <i_9914>:
    8000a0ec:	f3a15183          	lhu	gp,-198(sp)

000000008000a0f0 <i_9915>:
    8000a0f0:	001d8d93          	addi	s11,s11,1
    8000a0f4:	ff4dece3          	bltu	s11,s4,8000a0ec <i_9914>

000000008000a0f8 <i_9916>:
    8000a0f8:	026a9533          	mulh	a0,s5,t1

000000008000a0fc <i_9917>:
    8000a0fc:	0230f263          	bleu	gp,ra,8000a120 <i_9926>

000000008000a100 <i_9918>:
    8000a100:	4021d21b          	sraiw	tp,gp,0x2

000000008000a104 <i_9919>:
    8000a104:	003b4663          	blt	s6,gp,8000a110 <i_9922>

000000008000a108 <i_9920>:
    8000a108:	03529463          	bne	t0,s5,8000a130 <i_9930>

000000008000a10c <i_9921>:
    8000a10c:	02a1d263          	ble	a0,gp,8000a130 <i_9930>

000000008000a110 <i_9922>:
    8000a110:	e8411c83          	lh	s9,-380(sp)

000000008000a114 <i_9923>:
    8000a114:	0e612823          	sw	t1,240(sp)

000000008000a118 <i_9924>:
    8000a118:	06a11d23          	sh	a0,122(sp)

000000008000a11c <i_9925>:
    8000a11c:	4c823a93          	sltiu	s5,tp,1224

000000008000a120 <i_9926>:
    8000a120:	f5211483          	lh	s1,-174(sp)

000000008000a124 <i_9927>:
    8000a124:	40430233          	sub	tp,t1,tp

000000008000a128 <i_9928>:
    8000a128:	00850c63          	beq	a0,s0,8000a140 <i_9934>

000000008000a12c <i_9929>:
    8000a12c:	17816a03          	lwu	s4,376(sp)

000000008000a130 <i_9930>:
    8000a130:	fc411a23          	sh	tp,-44(sp)

000000008000a134 <i_9931>:
    8000a134:	f0b52613          	slti	a2,a0,-245

000000008000a138 <i_9932>:
    8000a138:	0b013c03          	ld	s8,176(sp)

000000008000a13c <i_9933>:
    8000a13c:	f8512e23          	sw	t0,-100(sp)

000000008000a140 <i_9934>:
    8000a140:	0e410183          	lb	gp,228(sp)

000000008000a144 <i_9935>:
    8000a144:	11310383          	lb	t2,275(sp)

000000008000a148 <i_9936>:
    8000a148:	02b24c33          	div	s8,tp,a1

000000008000a14c <i_9937>:
    8000a14c:	01957463          	bleu	s9,a0,8000a154 <i_9939>

000000008000a150 <i_9938>:
    8000a150:	f6912e23          	sw	s1,-132(sp)

000000008000a154 <i_9939>:
    8000a154:	009a8863          	beq	s5,s1,8000a164 <i_9943>

000000008000a158 <i_9940>:
    8000a158:	0d912423          	sw	s9,200(sp)

000000008000a15c <i_9941>:
    8000a15c:	1d011a83          	lh	s5,464(sp)

000000008000a160 <i_9942>:
    8000a160:	0355ae33          	mulhsu	t3,a1,s5

000000008000a164 <i_9943>:
    8000a164:	00965463          	ble	s1,a2,8000a16c <i_9945>

000000008000a168 <i_9944>:
    8000a168:	f7013823          	sd	a6,-144(sp)

000000008000a16c <i_9945>:
    8000a16c:	00000013          	nop

000000008000a170 <i_9946>:
    8000a170:	02400093          	li	ra,36

000000008000a174 <i_9947>:
    8000a174:	401e5e33          	sra	t3,t3,ra

000000008000a178 <i_9948>:
    8000a178:	74300593          	li	a1,1859

000000008000a17c <i_9949>:
    8000a17c:	75200493          	li	s1,1874

000000008000a180 <i_9950>:
    8000a180:	00158593          	addi	a1,a1,1
    8000a184:	feb4fce3          	bleu	a1,s1,8000a17c <i_9949>

000000008000a188 <i_9951>:
    8000a188:	0214de3b          	divuw	t3,s1,ra

000000008000a18c <i_9952>:
    8000a18c:	e3c10723          	sb	t3,-466(sp)

000000008000a190 <i_9953>:
    8000a190:	029e2c33          	mulhsu	s8,t3,s1

000000008000a194 <i_9954>:
    8000a194:	01416303          	lwu	t1,20(sp)

000000008000a198 <i_9955>:
    8000a198:	02c00a13          	li	s4,44

000000008000a19c <i_9956>:
    8000a19c:	014c1a33          	sll	s4,s8,s4

000000008000a1a0 <i_9957>:
    8000a1a0:	03ce0463          	beq	t3,t3,8000a1c8 <i_9967>

000000008000a1a4 <i_9958>:
    8000a1a4:	faa10583          	lb	a1,-86(sp)

000000008000a1a8 <i_9959>:
    8000a1a8:	0264f063          	bleu	t1,s1,8000a1c8 <i_9967>

000000008000a1ac <i_9960>:
    8000a1ac:	0345d5bb          	divuw	a1,a1,s4

000000008000a1b0 <i_9961>:
    8000a1b0:	00f5c263          	blt	a1,a5,8000a1b4 <i_9962>

000000008000a1b4 <i_9962>:
    8000a1b4:	0145f863          	bleu	s4,a1,8000a1c4 <i_9966>

000000008000a1b8 <i_9963>:
    8000a1b8:	0042d49b          	srliw	s1,t0,0x4

000000008000a1bc <i_9964>:
    8000a1bc:	0cc16583          	lwu	a1,204(sp)

000000008000a1c0 <i_9965>:
    8000a1c0:	02750ebb          	mulw	t4,a0,t2

000000008000a1c4 <i_9966>:
    8000a1c4:	0144c863          	blt	s1,s4,8000a1d4 <i_9970>

000000008000a1c8 <i_9967>:
    8000a1c8:	01959e63          	bne	a1,s9,8000a1e4 <i_9974>

000000008000a1cc <i_9968>:
    8000a1cc:	16813583          	ld	a1,360(sp)

000000008000a1d0 <i_9969>:
    8000a1d0:	00b285b3          	add	a1,t0,a1

000000008000a1d4 <i_9970>:
    8000a1d4:	ec011503          	lh	a0,-320(sp)

000000008000a1d8 <i_9971>:
    8000a1d8:	04a11c23          	sh	a0,88(sp)

000000008000a1dc <i_9972>:
    8000a1dc:	00000013          	nop

000000008000a1e0 <i_9973>:
    8000a1e0:	00d00e93          	li	t4,13

000000008000a1e4 <i_9974>:
    8000a1e4:	41d2ddbb          	sraw	s11,t0,t4

000000008000a1e8 <i_9975>:
    8000a1e8:	eab11823          	sh	a1,-336(sp)

000000008000a1ec <i_9976>:
    8000a1ec:	74100213          	li	tp,1857

000000008000a1f0 <i_9977>:
    8000a1f0:	74300c13          	li	s8,1859

000000008000a1f4 <i_9978>:
    8000a1f4:	02b855bb          	divuw	a1,a6,a1

000000008000a1f8 <i_9979>:
    8000a1f8:	33b6c093          	xori	ra,a3,827

000000008000a1fc <i_9980>:
    8000a1fc:	00120213          	addi	tp,tp,1 # 1 <main-0x7fffffff>
    8000a200:	fe4c5ae3          	ble	tp,s8,8000a1f4 <i_9978>

000000008000a204 <i_9981>:
    8000a204:	0092feb3          	and	t4,t0,s1

000000008000a208 <i_9982>:
    8000a208:	f2910b83          	lb	s7,-215(sp)

000000008000a20c <i_9983>:
    8000a20c:	04910aa3          	sb	s1,85(sp)

000000008000a210 <i_9984>:
    8000a210:	81c00793          	li	a5,-2020

000000008000a214 <i_9985>:
    8000a214:	82300213          	li	tp,-2013

000000008000a218 <i_9986>:
    8000a218:	04013583          	ld	a1,64(sp)

000000008000a21c <i_9987>:
    8000a21c:	02433333          	mulhu	t1,t1,tp

000000008000a220 <i_9988>:
    8000a220:	02720263          	beq	tp,t2,8000a244 <i_9997>

000000008000a224 <i_9989>:
    8000a224:	00489e93          	slli	t4,a7,0x4

000000008000a228 <i_9990>:
    8000a228:	eaa11383          	lh	t2,-342(sp)

000000008000a22c <i_9991>:
    8000a22c:	00000013          	nop

000000008000a230 <i_9992>:
    8000a230:	01dfa9b3          	slt	s3,t6,t4

000000008000a234 <i_9993>:
    8000a234:	407389bb          	subw	s3,t2,t2

000000008000a238 <i_9994>:
    8000a238:	08813303          	ld	t1,136(sp)

000000008000a23c <i_9995>:
    8000a23c:	e9016803          	lwu	a6,-368(sp)

000000008000a240 <i_9996>:
    8000a240:	fdd10583          	lb	a1,-35(sp)

000000008000a244 <i_9997>:
    8000a244:	fab13023          	sd	a1,-96(sp)

000000008000a248 <i_9998>:
    8000a248:	ca75c193          	xori	gp,a1,-857

000000008000a24c <i_9999>:
    8000a24c:	01080433          	add	s0,a6,a6

000000008000a250 <i_10000>:
    8000a250:	02b26663          	bltu	tp,a1,8000a27c <i_10010>

000000008000a254 <i_10001>:
    8000a254:	00178793          	addi	a5,a5,1 # 2fd2cd3d <main-0x502d32c3>
    8000a258:	fcf250e3          	ble	a5,tp,8000a218 <i_9986>

000000008000a25c <i_10002>:
    8000a25c:	14812423          	sw	s0,328(sp)

000000008000a260 <i_10003>:
    8000a260:	feb13c23          	sd	a1,-8(sp)

000000008000a264 <i_10004>:
    8000a264:	f7013423          	sd	a6,-152(sp)

000000008000a268 <i_10005>:
    8000a268:	01019463          	bne	gp,a6,8000a270 <i_10007>

000000008000a26c <i_10006>:
    8000a26c:	0263633b          	remw	t1,t1,t1

000000008000a270 <i_10007>:
    8000a270:	0ef10583          	lb	a1,239(sp)

000000008000a274 <i_10008>:
    8000a274:	02b5d263          	ble	a1,a1,8000a298 <i_10017>

000000008000a278 <i_10009>:
    8000a278:	4018529b          	sraiw	t0,a6,0x1

000000008000a27c <i_10010>:
    8000a27c:	00000013          	nop

000000008000a280 <i_10011>:
    8000a280:	0f510a03          	lb	s4,245(sp)

000000008000a284 <i_10012>:
    8000a284:	a2328293          	addi	t0,t0,-1501 # 65bbda23 <main-0x1a4425dd>

000000008000a288 <i_10013>:
    8000a288:	18812823          	sw	s0,400(sp)

000000008000a28c <i_10014>:
    8000a28c:	03400293          	li	t0,52

000000008000a290 <i_10015>:
    8000a290:	0055dc33          	srl	s8,a1,t0

000000008000a294 <i_10016>:
    8000a294:	02512823          	sw	t0,48(sp)

000000008000a298 <i_10017>:
    8000a298:	0d813c03          	ld	s8,216(sp)

000000008000a29c <i_10018>:
    8000a29c:	18512a23          	sw	t0,404(sp)

000000008000a2a0 <i_10019>:
    8000a2a0:	82300313          	li	t1,-2013

000000008000a2a4 <i_10020>:
    8000a2a4:	82b00e13          	li	t3,-2005

000000008000a2a8 <i_10021>:
    8000a2a8:	17812223          	sw	s8,356(sp)

000000008000a2ac <i_10022>:
    8000a2ac:	010e3c33          	sltu	s8,t3,a6

000000008000a2b0 <i_10023>:
    8000a2b0:	f8c14c03          	lbu	s8,-116(sp)

000000008000a2b4 <i_10024>:
    8000a2b4:	fb813023          	sd	s8,-96(sp)

000000008000a2b8 <i_10025>:
    8000a2b8:	e7811923          	sh	s8,-398(sp)

000000008000a2bc <i_10026>:
    8000a2bc:	1d811a23          	sh	s8,468(sp)

000000008000a2c0 <i_10027>:
    8000a2c0:	038c5663          	ble	s8,s8,8000a2ec <i_10037>

000000008000a2c4 <i_10028>:
    8000a2c4:	09013c03          	ld	s8,144(sp)

000000008000a2c8 <i_10029>:
    8000a2c8:	0185feb3          	and	t4,a1,s8

000000008000a2cc <i_10030>:
    8000a2cc:	00130313          	addi	t1,t1,1
    8000a2d0:	fdc34ce3          	blt	t1,t3,8000a2a8 <i_10021>

000000008000a2d4 <i_10031>:
    8000a2d4:	04013c03          	ld	s8,64(sp)

000000008000a2d8 <i_10032>:
    8000a2d8:	00700593          	li	a1,7

000000008000a2dc <i_10033>:
    8000a2dc:	40bed83b          	sraw	a6,t4,a1

000000008000a2e0 <i_10034>:
    8000a2e0:	038c5463          	ble	s8,s8,8000a308 <i_10044>

000000008000a2e4 <i_10035>:
    8000a2e4:	01887c63          	bleu	s8,a6,8000a2fc <i_10041>

000000008000a2e8 <i_10036>:
    8000a2e8:	01082833          	slt	a6,a6,a6

000000008000a2ec <i_10037>:
    8000a2ec:	f7610583          	lb	a1,-138(sp)

000000008000a2f0 <i_10038>:
    8000a2f0:	ef0103a3          	sb	a6,-281(sp)

000000008000a2f4 <i_10039>:
    8000a2f4:	02c5cc33          	div	s8,a1,a2

000000008000a2f8 <i_10040>:
    8000a2f8:	10812c03          	lw	s8,264(sp)

000000008000a2fc <i_10041>:
    8000a2fc:	00f00413          	li	s0,15

000000008000a300 <i_10042>:
    8000a300:	0089d9bb          	srlw	s3,s3,s0

000000008000a304 <i_10043>:
    8000a304:	03881263          	bne	a6,s8,8000a328 <i_10052>

000000008000a308 <i_10044>:
    8000a308:	4045d81b          	sraiw	a6,a1,0x4

000000008000a30c <i_10045>:
    8000a30c:	03858333          	mul	t1,a1,s8

000000008000a310 <i_10046>:
    8000a310:	02b7c83b          	divw	a6,a5,a1

000000008000a314 <i_10047>:
    8000a314:	efc11803          	lh	a6,-260(sp)

000000008000a318 <i_10048>:
    8000a318:	e3810823          	sb	s8,-464(sp)

000000008000a31c <i_10049>:
    8000a31c:	41058833          	sub	a6,a1,a6

000000008000a320 <i_10050>:
    8000a320:	f1016583          	lwu	a1,-240(sp)

000000008000a324 <i_10051>:
    8000a324:	02b58c33          	mul	s8,a1,a1

000000008000a328 <i_10052>:
    8000a328:	e9a11a83          	lh	s5,-358(sp)

000000008000a32c <i_10053>:
    8000a32c:	02828463          	beq	t0,s0,8000a354 <i_10063>

000000008000a330 <i_10054>:
    8000a330:	00836463          	bltu	t1,s0,8000a338 <i_10056>

000000008000a334 <i_10055>:
    8000a334:	018c1e63          	bne	s8,s8,8000a350 <i_10062>

000000008000a338 <i_10056>:
    8000a338:	7415b793          	sltiu	a5,a1,1857

000000008000a33c <i_10057>:
    8000a33c:	e2313c23          	sd	gp,-456(sp)

000000008000a340 <i_10058>:
    8000a340:	0018599b          	srliw	s3,a6,0x1

000000008000a344 <i_10059>:
    8000a344:	018c6c63          	bltu	s8,s8,8000a35c <i_10065>

000000008000a348 <i_10060>:
    8000a348:	015c5463          	ble	s5,s8,8000a350 <i_10062>

000000008000a34c <i_10061>:
    8000a34c:	eac11303          	lh	t1,-340(sp)

000000008000a350 <i_10062>:
    8000a350:	1c612e23          	sw	t1,476(sp)

000000008000a354 <i_10063>:
    8000a354:	19013403          	ld	s0,400(sp)

000000008000a358 <i_10064>:
    8000a358:	e5314083          	lbu	ra,-429(sp)

000000008000a35c <i_10065>:
    8000a35c:	fc013783          	ld	a5,-64(sp)

000000008000a360 <i_10066>:
    8000a360:	e0f11f23          	sh	a5,-482(sp)

000000008000a364 <i_10067>:
    8000a364:	84800993          	li	s3,-1976

000000008000a368 <i_10068>:
    8000a368:	85300d93          	li	s11,-1965

000000008000a36c <i_10069>:
    8000a36c:	f4615783          	lhu	a5,-186(sp)

000000008000a370 <i_10070>:
    8000a370:	1cf12823          	sw	a5,464(sp)

000000008000a374 <i_10071>:
    8000a374:	00409c1b          	slliw	s8,ra,0x4

000000008000a378 <i_10072>:
    8000a378:	af64c493          	xori	s1,s1,-1290

000000008000a37c <i_10073>:
    8000a37c:	71e7a313          	slti	t1,a5,1822

000000008000a380 <i_10074>:
    8000a380:	fe411a83          	lh	s5,-28(sp)

000000008000a384 <i_10075>:
    8000a384:	00198993          	addi	s3,s3,1
    8000a388:	ffb9e2e3          	bltu	s3,s11,8000a36c <i_10069>

000000008000a38c <i_10076>:
    8000a38c:	00012303          	lw	t1,0(sp)

000000008000a390 <i_10077>:
    8000a390:	ef016783          	lwu	a5,-272(sp)

000000008000a394 <i_10078>:
    8000a394:	01530663          	beq	t1,s5,8000a3a0 <i_10081>

000000008000a398 <i_10079>:
    8000a398:	ea012983          	lw	s3,-352(sp)

000000008000a39c <i_10080>:
    8000a39c:	0bc16203          	lwu	tp,188(sp)

000000008000a3a0 <i_10081>:
    8000a3a0:	00000013          	nop

000000008000a3a4 <i_10082>:
    8000a3a4:	17110503          	lb	a0,369(sp)

000000008000a3a8 <i_10083>:
    8000a3a8:	8b100c93          	li	s9,-1871

000000008000a3ac <i_10084>:
    8000a3ac:	8c200493          	li	s1,-1854

000000008000a3b0 <i_10085>:
    8000a3b0:	001c8c93          	addi	s9,s9,1 # b5bb5f15 <_end+0x35ba5b01>
    8000a3b4:	fe9c9ee3          	bne	s9,s1,8000a3b0 <i_10085>

000000008000a3b8 <i_10086>:
    8000a3b8:	024529b3          	mulhsu	s3,a0,tp

000000008000a3bc <i_10087>:
    8000a3bc:	0a812983          	lw	s3,168(sp)

000000008000a3c0 <i_10088>:
    8000a3c0:	ec810603          	lb	a2,-312(sp)

000000008000a3c4 <i_10089>:
    8000a3c4:	004df863          	bleu	tp,s11,8000a3d4 <i_10093>

000000008000a3c8 <i_10090>:
    8000a3c8:	00e00593          	li	a1,14

000000008000a3cc <i_10091>:
    8000a3cc:	00b19bbb          	sllw	s7,gp,a1

000000008000a3d0 <i_10092>:
    8000a3d0:	97f5a593          	slti	a1,a1,-1665

000000008000a3d4 <i_10093>:
    8000a3d4:	00b2c863          	blt	t0,a1,8000a3e4 <i_10097>

000000008000a3d8 <i_10094>:
    8000a3d8:	00a00293          	li	t0,10

000000008000a3dc <i_10095>:
    8000a3dc:	005192bb          	sllw	t0,gp,t0

000000008000a3e0 <i_10096>:
    8000a3e0:	405582bb          	subw	t0,a1,t0

000000008000a3e4 <i_10097>:
    8000a3e4:	ec11a193          	slti	gp,gp,-319

000000008000a3e8 <i_10098>:
    8000a3e8:	fb416283          	lwu	t0,-76(sp)

000000008000a3ec <i_10099>:
    8000a3ec:	02b9c263          	blt	s3,a1,8000a410 <i_10108>

000000008000a3f0 <i_10100>:
    8000a3f0:	00529863          	bne	t0,t0,8000a400 <i_10104>

000000008000a3f4 <i_10101>:
    8000a3f4:	0231a233          	mulhsu	tp,gp,gp

000000008000a3f8 <i_10102>:
    8000a3f8:	fc010183          	lb	gp,-64(sp)

000000008000a3fc <i_10103>:
    8000a3fc:	0052ce63          	blt	t0,t0,8000a418 <i_10110>

000000008000a400 <i_10104>:
    8000a400:	08412303          	lw	t1,132(sp)

000000008000a404 <i_10105>:
    8000a404:	0265b9b3          	mulhu	s3,a1,t1

000000008000a408 <i_10106>:
    8000a408:	ea412e83          	lw	t4,-348(sp)

000000008000a40c <i_10107>:
    8000a40c:	e6b11023          	sh	a1,-416(sp)

000000008000a410 <i_10108>:
    8000a410:	00b2fc63          	bleu	a1,t0,8000a428 <i_10114>

000000008000a414 <i_10109>:
    8000a414:	0e311723          	sh	gp,238(sp)

000000008000a418 <i_10110>:
    8000a418:	01d30ab3          	add	s5,t1,t4

000000008000a41c <i_10111>:
    8000a41c:	00500c13          	li	s8,5

000000008000a420 <i_10112>:
    8000a420:	0189933b          	sllw	t1,s3,s8

000000008000a424 <i_10113>:
    8000a424:	ec211e83          	lh	t4,-318(sp)

000000008000a428 <i_10114>:
    8000a428:	1b010303          	lb	t1,432(sp)

000000008000a42c <i_10115>:
    8000a42c:	01535663          	ble	s5,t1,8000a438 <i_10118>

000000008000a430 <i_10116>:
    8000a430:	03a15c03          	lhu	s8,58(sp)

000000008000a434 <i_10117>:
    8000a434:	01d87e63          	bleu	t4,a6,8000a450 <i_10124>

000000008000a438 <i_10118>:
    8000a438:	b95e8a13          	addi	s4,t4,-1131

000000008000a43c <i_10119>:
    8000a43c:	01300a93          	li	s5,19

000000008000a440 <i_10120>:
    8000a440:	415ad63b          	sraw	a2,s5,s5

000000008000a444 <i_10121>:
    8000a444:	f81e8a93          	addi	s5,t4,-127

000000008000a448 <i_10122>:
    8000a448:	0d411a83          	lh	s5,212(sp)

000000008000a44c <i_10123>:
    8000a44c:	05512223          	sw	s5,68(sp)

000000008000a450 <i_10124>:
    8000a450:	0d5aca93          	xori	s5,s5,213

000000008000a454 <i_10125>:
    8000a454:	02c65ab3          	divu	s5,a2,a2

000000008000a458 <i_10126>:
    8000a458:	75700e93          	li	t4,1879

000000008000a45c <i_10127>:
    8000a45c:	76100993          	li	s3,1889

000000008000a460 <i_10128>:
    8000a460:	0d414a83          	lbu	s5,212(sp)

000000008000a464 <i_10129>:
    8000a464:	001e8e93          	addi	t4,t4,1
    8000a468:	ffd99ce3          	bne	s3,t4,8000a460 <i_10128>

000000008000a46c <i_10130>:
    8000a46c:	1a012983          	lw	s3,416(sp)

000000008000a470 <i_10131>:
    8000a470:	e9013983          	ld	s3,-368(sp)

000000008000a474 <i_10132>:
    8000a474:	ce486a93          	ori	s5,a6,-796

000000008000a478 <i_10133>:
    8000a478:	01521263          	bne	tp,s5,8000a47c <i_10134>

000000008000a47c <i_10134>:
    8000a47c:	0029921b          	slliw	tp,s3,0x2

000000008000a480 <i_10135>:
    8000a480:	004ecc63          	blt	t4,tp,8000a498 <i_10141>

000000008000a484 <i_10136>:
    8000a484:	f3c10983          	lb	s3,-196(sp)

000000008000a488 <i_10137>:
    8000a488:	04415503          	lhu	a0,68(sp)

000000008000a48c <i_10138>:
    8000a48c:	004afa63          	bleu	tp,s5,8000a4a0 <i_10143>

000000008000a490 <i_10139>:
    8000a490:	e9a15c83          	lhu	s9,-358(sp)

000000008000a494 <i_10140>:
    8000a494:	01555e63          	ble	s5,a0,8000a4b0 <i_10147>

000000008000a498 <i_10141>:
    8000a498:	13913c23          	sd	s9,312(sp)

000000008000a49c <i_10142>:
    8000a49c:	edc16e83          	lwu	t4,-292(sp)

000000008000a4a0 <i_10143>:
    8000a4a0:	74726e93          	ori	t4,tp,1863

000000008000a4a4 <i_10144>:
    8000a4a4:	1c413c23          	sd	tp,472(sp)

000000008000a4a8 <i_10145>:
    8000a4a8:	03d21063          	bne	tp,t4,8000a4c8 <i_10153>

000000008000a4ac <i_10146>:
    8000a4ac:	eca14303          	lbu	t1,-310(sp)

000000008000a4b0 <i_10147>:
    8000a4b0:	01defc63          	bleu	t4,t4,8000a4c8 <i_10153>

000000008000a4b4 <i_10148>:
    8000a4b4:	03d30ab3          	mul	s5,t1,t4

000000008000a4b8 <i_10149>:
    8000a4b8:	035acabb          	divw	s5,s5,s5

000000008000a4bc <i_10150>:
    8000a4bc:	f9d14a83          	lbu	s5,-99(sp)

000000008000a4c0 <i_10151>:
    8000a4c0:	0339f9b3          	remu	s3,s3,s3

000000008000a4c4 <i_10152>:
    8000a4c4:	13d13823          	sd	t4,304(sp)

000000008000a4c8 <i_10153>:
    8000a4c8:	17816283          	lwu	t0,376(sp)

000000008000a4cc <i_10154>:
    8000a4cc:	03598abb          	mulw	s5,s3,s5

000000008000a4d0 <i_10155>:
    8000a4d0:	82000593          	li	a1,-2016

000000008000a4d4 <i_10156>:
    8000a4d4:	82b00e93          	li	t4,-2005

000000008000a4d8 <i_10157>:
    8000a4d8:	0352cabb          	divw	s5,t0,s5

000000008000a4dc <i_10158>:
    8000a4dc:	0059b9b3          	sltu	s3,s3,t0

000000008000a4e0 <i_10159>:
    8000a4e0:	f3813a83          	ld	s5,-200(sp)

000000008000a4e4 <i_10160>:
    8000a4e4:	18812983          	lw	s3,392(sp)

000000008000a4e8 <i_10161>:
    8000a4e8:	0d5107a3          	sb	s5,207(sp)

000000008000a4ec <i_10162>:
    8000a4ec:	00158593          	addi	a1,a1,1
    8000a4f0:	febef4e3          	bleu	a1,t4,8000a4d8 <i_10157>

000000008000a4f4 <i_10163>:
    8000a4f4:	f7012a83          	lw	s5,-144(sp)

000000008000a4f8 <i_10164>:
    8000a4f8:	ed514e83          	lbu	t4,-299(sp)

000000008000a4fc <i_10165>:
    8000a4fc:	e2011983          	lh	s3,-480(sp)

000000008000a500 <i_10166>:
    8000a500:	74c00493          	li	s1,1868

000000008000a504 <i_10167>:
    8000a504:	75400d93          	li	s11,1876

000000008000a508 <i_10168>:
    8000a508:	01f00513          	li	a0,31

000000008000a50c <i_10169>:
    8000a50c:	00ae9abb          	sllw	s5,t4,a0

000000008000a510 <i_10170>:
    8000a510:	00a00613          	li	a2,10

000000008000a514 <i_10171>:
    8000a514:	00c55ab3          	srl	s5,a0,a2

000000008000a518 <i_10172>:
    8000a518:	00c61c63          	bne	a2,a2,8000a530 <i_10178>

000000008000a51c <i_10173>:
    8000a51c:	ffa11803          	lh	a6,-6(sp)

000000008000a520 <i_10174>:
    8000a520:	f5511923          	sh	s5,-174(sp)

000000008000a524 <i_10175>:
    8000a524:	f4812203          	lw	tp,-184(sp)

000000008000a528 <i_10176>:
    8000a528:	11c12583          	lw	a1,284(sp)

000000008000a52c <i_10177>:
    8000a52c:	00200293          	li	t0,2

000000008000a530 <i_10178>:
    8000a530:	4052d2bb          	sraw	t0,t0,t0

000000008000a534 <i_10179>:
    8000a534:	04c11023          	sh	a2,64(sp)

000000008000a538 <i_10180>:
    8000a538:	02b67463          	bleu	a1,a2,8000a560 <i_10189>

000000008000a53c <i_10181>:
    8000a53c:	02c64333          	div	t1,a2,a2

000000008000a540 <i_10182>:
    8000a540:	0ae11c83          	lh	s9,174(sp)

000000008000a544 <i_10183>:
    8000a544:	f2b13423          	sd	a1,-216(sp)

000000008000a548 <i_10184>:
    8000a548:	00148493          	addi	s1,s1,1
    8000a54c:	fa9dfee3          	bleu	s1,s11,8000a508 <i_10168>

000000008000a550 <i_10185>:
    8000a550:	03714c03          	lbu	s8,55(sp)

000000008000a554 <i_10186>:
    8000a554:	40460ebb          	subw	t4,a2,tp

000000008000a558 <i_10187>:
    8000a558:	0e412503          	lw	a0,228(sp)

000000008000a55c <i_10188>:
    8000a55c:	0f013483          	ld	s1,240(sp)

000000008000a560 <i_10189>:
    8000a560:	03d4f463          	bleu	t4,s1,8000a588 <i_10199>

000000008000a564 <i_10190>:
    8000a564:	01de8c63          	beq	t4,t4,8000a57c <i_10196>

000000008000a568 <i_10191>:
    8000a568:	cde4ab93          	slti	s7,s1,-802

000000008000a56c <i_10192>:
    8000a56c:	086fd7b7          	lui	a5,0x86fd

000000008000a570 <i_10193>:
    8000a570:	00000013          	nop

000000008000a574 <i_10194>:
    8000a574:	01100793          	li	a5,17

000000008000a578 <i_10195>:
    8000a578:	00f4dc3b          	srlw	s8,s1,a5

000000008000a57c <i_10196>:
    8000a57c:	038c77bb          	remuw	a5,s8,s8

000000008000a580 <i_10197>:
    8000a580:	00000013          	nop

000000008000a584 <i_10198>:
    8000a584:	40f28e3b          	subw	t3,t0,a5

000000008000a588 <i_10199>:
    8000a588:	03ce17b3          	mulh	a5,t3,t3

000000008000a58c <i_10200>:
    8000a58c:	00000013          	nop

000000008000a590 <i_10201>:
    8000a590:	8ba00e93          	li	t4,-1862

000000008000a594 <i_10202>:
    8000a594:	8c800493          	li	s1,-1848

000000008000a598 <i_10203>:
    8000a598:	001d1e13          	slli	t3,s10,0x1

000000008000a59c <i_10204>:
    8000a59c:	09812023          	sw	s8,128(sp)

000000008000a5a0 <i_10205>:
    8000a5a0:	82300513          	li	a0,-2013

000000008000a5a4 <i_10206>:
    8000a5a4:	82700b93          	li	s7,-2009

000000008000a5a8 <i_10207>:
    8000a5a8:	ee7a7213          	andi	tp,s4,-281

000000008000a5ac <i_10208>:
    8000a5ac:	00150513          	addi	a0,a0,1 # 1a17bed5 <main-0x65e8412b>
    8000a5b0:	ff756ce3          	bltu	a0,s7,8000a5a8 <i_10207>

000000008000a5b4 <i_10209>:
    8000a5b4:	f0c10a03          	lb	s4,-244(sp)

000000008000a5b8 <i_10210>:
    8000a5b8:	001e8e93          	addi	t4,t4,1
    8000a5bc:	fdd4dee3          	ble	t4,s1,8000a598 <i_10203>

000000008000a5c0 <i_10211>:
    8000a5c0:	017eabb3          	slt	s7,t4,s7

000000008000a5c4 <i_10212>:
    8000a5c4:	00f5e863          	bltu	a1,a5,8000a5d4 <i_10216>

000000008000a5c8 <i_10213>:
    8000a5c8:	f1610203          	lb	tp,-234(sp)

000000008000a5cc <i_10214>:
    8000a5cc:	0385ec3b          	remw	s8,a1,s8

000000008000a5d0 <i_10215>:
    8000a5d0:	002e09b3          	add	s3,t3,sp

000000008000a5d4 <i_10216>:
    8000a5d4:	01c7f663          	bleu	t3,a5,8000a5e0 <i_10219>

000000008000a5d8 <i_10217>:
    8000a5d8:	03cfd7b3          	divu	a5,t6,t3

000000008000a5dc <i_10218>:
    8000a5dc:	4039d793          	srai	a5,s3,0x3

000000008000a5e0 <i_10219>:
    8000a5e0:	fcf10723          	sb	a5,-50(sp)

000000008000a5e4 <i_10220>:
    8000a5e4:	e1c12983          	lw	s3,-484(sp)

000000008000a5e8 <i_10221>:
    8000a5e8:	00100793          	li	a5,1

000000008000a5ec <i_10222>:
    8000a5ec:	00f997bb          	sllw	a5,s3,a5

000000008000a5f0 <i_10223>:
    8000a5f0:	0c016c03          	lwu	s8,192(sp)

000000008000a5f4 <i_10224>:
    8000a5f4:	01dc5863          	ble	t4,s8,8000a604 <i_10228>

000000008000a5f8 <i_10225>:
    8000a5f8:	00f7bbb3          	sltu	s7,a5,a5

000000008000a5fc <i_10226>:
    8000a5fc:	fe510e83          	lb	t4,-27(sp)

000000008000a600 <i_10227>:
    8000a600:	035b1063          	bne	s6,s5,8000a620 <i_10235>

000000008000a604 <i_10228>:
    8000a604:	f7713823          	sd	s7,-144(sp)

000000008000a608 <i_10229>:
    8000a608:	f3016c03          	lwu	s8,-208(sp)

000000008000a60c <i_10230>:
    8000a60c:	018bac33          	slt	s8,s7,s8

000000008000a610 <i_10231>:
    8000a610:	7096ac37          	lui	s8,0x7096a

000000008000a614 <i_10232>:
    8000a614:	038c4db3          	div	s11,s8,s8

000000008000a618 <i_10233>:
    8000a618:	f8a14603          	lbu	a2,-118(sp)

000000008000a61c <i_10234>:
    8000a61c:	00200193          	li	gp,2

000000008000a620 <i_10235>:
    8000a620:	003ddcbb          	srlw	s9,s11,gp

000000008000a624 <i_10236>:
    8000a624:	05811423          	sh	s8,72(sp)

000000008000a628 <i_10237>:
    8000a628:	fa816b83          	lwu	s7,-88(sp)

000000008000a62c <i_10238>:
    8000a62c:	c3fdae93          	slti	t4,s11,-961

000000008000a630 <i_10239>:
    8000a630:	00000013          	nop

000000008000a634 <i_10240>:
    8000a634:	01c00b93          	li	s7,28

000000008000a638 <i_10241>:
    8000a638:	417ed1bb          	sraw	gp,t4,s7

000000008000a63c <i_10242>:
    8000a63c:	7bc00d93          	li	s11,1980

000000008000a640 <i_10243>:
    8000a640:	7ca00c93          	li	s9,1994

000000008000a644 <i_10244>:
    8000a644:	41db8c3b          	subw	s8,s7,t4

000000008000a648 <i_10245>:
    8000a648:	0d010c03          	lb	s8,208(sp)

000000008000a64c <i_10246>:
    8000a64c:	001d8d93          	addi	s11,s11,1
    8000a650:	ff9d98e3          	bne	s11,s9,8000a640 <i_10243>

000000008000a654 <i_10247>:
    8000a654:	00000013          	nop

000000008000a658 <i_10248>:
    8000a658:	00000013          	nop

000000008000a65c <i_10249>:
    8000a65c:	76600b93          	li	s7,1894

000000008000a660 <i_10250>:
    8000a660:	76c00293          	li	t0,1900

000000008000a664 <i_10251>:
    8000a664:	0382c463          	blt	t0,s8,8000a68c <i_10260>

000000008000a668 <i_10252>:
    8000a668:	b9be6e13          	ori	t3,t3,-1125

000000008000a66c <i_10253>:
    8000a66c:	03bdbeb3          	mulhu	t4,s11,s11

000000008000a670 <i_10254>:
    8000a670:	001b8b93          	addi	s7,s7,1
    8000a674:	ff72d8e3          	ble	s7,t0,8000a664 <i_10251>

000000008000a678 <i_10255>:
    8000a678:	018df663          	bleu	s8,s11,8000a684 <i_10258>

000000008000a67c <i_10256>:
    8000a67c:	eb310b83          	lb	s7,-333(sp)

000000008000a680 <i_10257>:
    8000a680:	017d85b3          	add	a1,s11,s7

000000008000a684 <i_10258>:
    8000a684:	0e411183          	lh	gp,228(sp)

000000008000a688 <i_10259>:
    8000a688:	ed710c23          	sb	s7,-296(sp)

000000008000a68c <i_10260>:
    8000a68c:	02b1fdb3          	remu	s11,gp,a1

000000008000a690 <i_10261>:
    8000a690:	b9b370b7          	lui	ra,0xb9b37

000000008000a694 <i_10262>:
    8000a694:	001ddc63          	ble	ra,s11,8000a6ac <i_10268>

000000008000a698 <i_10263>:
    8000a698:	0010ca63          	blt	ra,ra,8000a6ac <i_10268>

000000008000a69c <i_10264>:
    8000a69c:	0073f3b3          	and	t2,t2,t2

000000008000a6a0 <i_10265>:
    8000a6a0:	02139263          	bne	t2,ra,8000a6c4 <i_10274>

000000008000a6a4 <i_10266>:
    8000a6a4:	e8111c23          	sh	ra,-360(sp)

000000008000a6a8 <i_10267>:
    8000a6a8:	0045d413          	srli	s0,a1,0x4

000000008000a6ac <i_10268>:
    8000a6ac:	0270fbbb          	remuw	s7,ra,t2

000000008000a6b0 <i_10269>:
    8000a6b0:	0a011383          	lh	t2,160(sp)

000000008000a6b4 <i_10270>:
    8000a6b4:	f6b11f23          	sh	a1,-130(sp)

000000008000a6b8 <i_10271>:
    8000a6b8:	0c310523          	sb	gp,202(sp)

000000008000a6bc <i_10272>:
    8000a6bc:	ea711223          	sh	t2,-348(sp)

000000008000a6c0 <i_10273>:
    8000a6c0:	f4016583          	lwu	a1,-192(sp)

000000008000a6c4 <i_10274>:
    8000a6c4:	07410c03          	lb	s8,116(sp)

000000008000a6c8 <i_10275>:
    8000a6c8:	3c73e513          	ori	a0,t2,967

000000008000a6cc <i_10276>:
    8000a6cc:	00112e23          	sw	ra,28(sp)

000000008000a6d0 <i_10277>:
    8000a6d0:	02b5d263          	ble	a1,a1,8000a6f4 <i_10286>

000000008000a6d4 <i_10278>:
    8000a6d4:	658d851b          	addiw	a0,s11,1624

000000008000a6d8 <i_10279>:
    8000a6d8:	01c14283          	lbu	t0,28(sp)

000000008000a6dc <i_10280>:
    8000a6dc:	15f10fa3          	sb	t6,351(sp)

000000008000a6e0 <i_10281>:
    8000a6e0:	f2811803          	lh	a6,-216(sp)

000000008000a6e4 <i_10282>:
    8000a6e4:	0015da63          	ble	ra,a1,8000a6f8 <i_10287>

000000008000a6e8 <i_10283>:
    8000a6e8:	e6614083          	lbu	ra,-410(sp)

000000008000a6ec <i_10284>:
    8000a6ec:	f8914303          	lbu	t1,-119(sp)

000000008000a6f0 <i_10285>:
    8000a6f0:	f3c10083          	lb	ra,-196(sp)

000000008000a6f4 <i_10286>:
    8000a6f4:	fa213023          	sd	sp,-96(sp)

000000008000a6f8 <i_10287>:
    8000a6f8:	7f70b793          	sltiu	a5,ra,2039

000000008000a6fc <i_10288>:
    8000a6fc:	11a14783          	lbu	a5,282(sp)

000000008000a700 <i_10289>:
    8000a700:	ea113823          	sd	ra,-336(sp)

000000008000a704 <i_10290>:
    8000a704:	01579863          	bne	a5,s5,8000a714 <i_10294>

000000008000a708 <i_10291>:
    8000a708:	fcb14583          	lbu	a1,-53(sp)

000000008000a70c <i_10292>:
    8000a70c:	03e00813          	li	a6,62

000000008000a710 <i_10293>:
    8000a710:	0100deb3          	srl	t4,ra,a6

000000008000a714 <i_10294>:
    8000a714:	02fef463          	bleu	a5,t4,8000a73c <i_10304>

000000008000a718 <i_10295>:
    8000a718:	01d31863          	bne	t1,t4,8000a728 <i_10299>

000000008000a71c <i_10296>:
    8000a71c:	09910e03          	lb	t3,153(sp)

000000008000a720 <i_10297>:
    8000a720:	07010ca3          	sb	a6,121(sp)

000000008000a724 <i_10298>:
    8000a724:	7d40f293          	andi	t0,ra,2004

000000008000a728 <i_10299>:
    8000a728:	02b0d063          	ble	a1,ra,8000a748 <i_10307>

000000008000a72c <i_10300>:
    8000a72c:	04b12823          	sw	a1,80(sp)

000000008000a730 <i_10301>:
    8000a730:	01400813          	li	a6,20

000000008000a734 <i_10302>:
    8000a734:	0107d33b          	srlw	t1,a5,a6

000000008000a738 <i_10303>:
    8000a738:	0a111123          	sh	ra,162(sp)

000000008000a73c <i_10304>:
    8000a73c:	f2816083          	lwu	ra,-216(sp)

000000008000a740 <i_10305>:
    8000a740:	00714303          	lbu	t1,7(sp)

000000008000a744 <i_10306>:
    8000a744:	15614a83          	lbu	s5,342(sp)

000000008000a748 <i_10307>:
    8000a748:	0cc15403          	lhu	s0,204(sp)

000000008000a74c <i_10308>:
    8000a74c:	0081c833          	xor	a6,gp,s0

000000008000a750 <i_10309>:
    8000a750:	79a00193          	li	gp,1946

000000008000a754 <i_10310>:
    8000a754:	7ab00793          	li	a5,1963

000000008000a758 <i_10311>:
    8000a758:	15813083          	ld	ra,344(sp)

000000008000a75c <i_10312>:
    8000a75c:	00000013          	nop

000000008000a760 <i_10313>:
    8000a760:	e8c16603          	lwu	a2,-372(sp)

000000008000a764 <i_10314>:
    8000a764:	16c12403          	lw	s0,364(sp)

000000008000a768 <i_10315>:
    8000a768:	f7215c83          	lhu	s9,-142(sp)

000000008000a76c <i_10316>:
    8000a76c:	00000013          	nop

000000008000a770 <i_10317>:
    8000a770:	40f3043b          	subw	s0,t1,a5

000000008000a774 <i_10318>:
    8000a774:	f5815303          	lhu	t1,-168(sp)

000000008000a778 <i_10319>:
    8000a778:	00118193          	addi	gp,gp,1
    8000a77c:	fc37fee3          	bleu	gp,a5,8000a758 <i_10311>

000000008000a780 <i_10320>:
    8000a780:	028341b3          	div	gp,t1,s0

000000008000a784 <i_10321>:
    8000a784:	f6c11583          	lh	a1,-148(sp)

000000008000a788 <i_10322>:
    8000a788:	10311c23          	sh	gp,280(sp)

000000008000a78c <i_10323>:
    8000a78c:	fe312c23          	sw	gp,-8(sp)

000000008000a790 <i_10324>:
    8000a790:	e6b12023          	sw	a1,-416(sp)

000000008000a794 <i_10325>:
    8000a794:	ee913c23          	sd	s1,-264(sp)

000000008000a798 <i_10326>:
    8000a798:	0fb10483          	lb	s1,251(sp)

000000008000a79c <i_10327>:
    8000a79c:	7ba00593          	li	a1,1978

000000008000a7a0 <i_10328>:
    8000a7a0:	7be00a93          	li	s5,1982

000000008000a7a4 <i_10329>:
    8000a7a4:	f8014483          	lbu	s1,-128(sp)

000000008000a7a8 <i_10330>:
    8000a7a8:	0355d9bb          	divuw	s3,a1,s5

000000008000a7ac <i_10331>:
    8000a7ac:	e7d14983          	lbu	s3,-387(sp)

000000008000a7b0 <i_10332>:
    8000a7b0:	00000013          	nop

000000008000a7b4 <i_10333>:
    8000a7b4:	02758663          	beq	a1,t2,8000a7e0 <i_10343>

000000008000a7b8 <i_10334>:
    8000a7b8:	00000013          	nop

000000008000a7bc <i_10335>:
    8000a7bc:	b4d2c293          	xori	t0,t0,-1203

000000008000a7c0 <i_10336>:
    8000a7c0:	06114483          	lbu	s1,97(sp)

000000008000a7c4 <i_10337>:
    8000a7c4:	ee611c23          	sh	t1,-264(sp)

000000008000a7c8 <i_10338>:
    8000a7c8:	12412283          	lw	t0,292(sp)

000000008000a7cc <i_10339>:
    8000a7cc:	0a714303          	lbu	t1,167(sp)

000000008000a7d0 <i_10340>:
    8000a7d0:	00158593          	addi	a1,a1,1
    8000a7d4:	fcbad8e3          	ble	a1,s5,8000a7a4 <i_10329>

000000008000a7d8 <i_10341>:
    8000a7d8:	ff016303          	lwu	t1,-16(sp)

000000008000a7dc <i_10342>:
    8000a7dc:	0790a4b7          	lui	s1,0x790a

000000008000a7e0 <i_10343>:
    8000a7e0:	4016581b          	sraiw	a6,a2,0x1

000000008000a7e4 <i_10344>:
    8000a7e4:	0094f463          	bleu	s1,s1,8000a7ec <i_10346>

000000008000a7e8 <i_10345>:
    8000a7e8:	030864bb          	remw	s1,a6,a6

000000008000a7ec <i_10346>:
    8000a7ec:	010b8bb3          	add	s7,s7,a6

000000008000a7f0 <i_10347>:
    8000a7f0:	029b9eb3          	mulh	t4,s7,s1

000000008000a7f4 <i_10348>:
    8000a7f4:	e2412583          	lw	a1,-476(sp)

000000008000a7f8 <i_10349>:
    8000a7f8:	eb410803          	lb	a6,-332(sp)

000000008000a7fc <i_10350>:
    8000a7fc:	13816c83          	lwu	s9,312(sp)

000000008000a800 <i_10351>:
    8000a800:	34178497          	auipc	s1,0x34178

000000008000a804 <i_10352>:
    8000a804:	0294ecbb          	remw	s9,s1,s1

000000008000a808 <i_10353>:
    8000a808:	1d910fa3          	sb	s9,479(sp)

000000008000a80c <i_10354>:
    8000a80c:	034cdc3b          	divuw	s8,s9,s4

000000008000a810 <i_10355>:
    8000a810:	0f5c8c9b          	addiw	s9,s9,245

000000008000a814 <i_10356>:
    8000a814:	15414c03          	lbu	s8,340(sp)

000000008000a818 <i_10357>:
    8000a818:	01ace7b3          	or	a5,s9,s10

000000008000a81c <i_10358>:
    8000a81c:	18710c83          	lb	s9,391(sp)

000000008000a820 <i_10359>:
    8000a820:	00b78263          	beq	a5,a1,8000a824 <i_10360>

000000008000a824 <i_10360>:
    8000a824:	fe012c83          	lw	s9,-32(sp)

000000008000a828 <i_10361>:
    8000a828:	fba10083          	lb	ra,-70(sp)

000000008000a82c <i_10362>:
    8000a82c:	004cd09b          	srliw	ra,s9,0x4

000000008000a830 <i_10363>:
    8000a830:	e3d14c03          	lbu	s8,-451(sp)

000000008000a834 <i_10364>:
    8000a834:	00f1a833          	slt	a6,gp,a5

000000008000a838 <i_10365>:
    8000a838:	0180c7b3          	xor	a5,ra,s8

000000008000a83c <i_10366>:
    8000a83c:	fcc10a03          	lb	s4,-52(sp)

000000008000a840 <i_10367>:
    8000a840:	00f84863          	blt	a6,a5,8000a850 <i_10371>

000000008000a844 <i_10368>:
    8000a844:	e4112623          	sw	ra,-436(sp)

000000008000a848 <i_10369>:
    8000a848:	f8812803          	lw	a6,-120(sp)

000000008000a84c <i_10370>:
    8000a84c:	04415503          	lhu	a0,68(sp)

000000008000a850 <i_10371>:
    8000a850:	e9211323          	sh	s2,-378(sp)

000000008000a854 <i_10372>:
    8000a854:	3d966a93          	ori	s5,a2,985

000000008000a858 <i_10373>:
    8000a858:	efc16503          	lwu	a0,-260(sp)

000000008000a85c <i_10374>:
    8000a85c:	01057863          	bleu	a6,a0,8000a86c <i_10378>

000000008000a860 <i_10375>:
    8000a860:	03055cb3          	divu	s9,a0,a6

000000008000a864 <i_10376>:
    8000a864:	0bd10c83          	lb	s9,189(sp)

000000008000a868 <i_10377>:
    8000a868:	1c211583          	lh	a1,450(sp)

000000008000a86c <i_10378>:
    8000a86c:	019afc63          	bleu	s9,s5,8000a884 <i_10384>

000000008000a870 <i_10379>:
    8000a870:	00a86a63          	bltu	a6,a0,8000a884 <i_10384>

000000008000a874 <i_10380>:
    8000a874:	0398b3b3          	mulhu	t2,a7,s9

000000008000a878 <i_10381>:
    8000a878:	1ca13c23          	sd	a0,472(sp)

000000008000a87c <i_10382>:
    8000a87c:	02a3d533          	divu	a0,t2,a0

000000008000a880 <i_10383>:
    8000a880:	02313023          	sd	gp,32(sp)

000000008000a884 <i_10384>:
    8000a884:	02bb6063          	bltu	s6,a1,8000a8a4 <i_10392>

000000008000a888 <i_10385>:
    8000a888:	0a711a23          	sh	t2,180(sp)

000000008000a88c <i_10386>:
    8000a88c:	02a904b3          	mul	s1,s2,a0

000000008000a890 <i_10387>:
    8000a890:	00000013          	nop

000000008000a894 <i_10388>:
    8000a894:	1894839b          	addiw	t2,s1,393

000000008000a898 <i_10389>:
    8000a898:	01a4b633          	sltu	a2,s1,s10

000000008000a89c <i_10390>:
    8000a89c:	eb410ba3          	sb	s4,-329(sp)

000000008000a8a0 <i_10391>:
    8000a8a0:	00fa0a33          	add	s4,s4,a5

000000008000a8a4 <i_10392>:
    8000a8a4:	00000013          	nop

000000008000a8a8 <i_10393>:
    8000a8a8:	034633b3          	mulhu	t2,a2,s4

000000008000a8ac <i_10394>:
    8000a8ac:	79700593          	li	a1,1943

000000008000a8b0 <i_10395>:
    8000a8b0:	7a900513          	li	a0,1961

000000008000a8b4 <i_10396>:
    8000a8b4:	00000013          	nop

000000008000a8b8 <i_10397>:
    8000a8b8:	00000013          	nop

000000008000a8bc <i_10398>:
    8000a8bc:	7b500e13          	li	t3,1973

000000008000a8c0 <i_10399>:
    8000a8c0:	7b900493          	li	s1,1977

000000008000a8c4 <i_10400>:
    8000a8c4:	00000013          	nop

000000008000a8c8 <i_10401>:
    8000a8c8:	07914a03          	lbu	s4,121(sp)

000000008000a8cc <i_10402>:
    8000a8cc:	001e0e13          	addi	t3,t3,1
    8000a8d0:	fe9e4ae3          	blt	t3,s1,8000a8c4 <i_10400>

000000008000a8d4 <i_10403>:
    8000a8d4:	fe7109a3          	sb	t2,-13(sp)

000000008000a8d8 <i_10404>:
    8000a8d8:	00100493          	li	s1,1

000000008000a8dc <i_10405>:
    8000a8dc:	009194b3          	sll	s1,gp,s1

000000008000a8e0 <i_10406>:
    8000a8e0:	00158593          	addi	a1,a1,1
    8000a8e4:	fcb578e3          	bleu	a1,a0,8000a8b4 <i_10396>

000000008000a8e8 <i_10407>:
    8000a8e8:	0294e3bb          	remw	t2,s1,s1

000000008000a8ec <i_10408>:
    8000a8ec:	f0412023          	sw	tp,-256(sp)

000000008000a8f0 <i_10409>:
    8000a8f0:	4023da1b          	sraiw	s4,t2,0x2

000000008000a8f4 <i_10410>:
    8000a8f4:	41e2023b          	subw	tp,tp,t5

000000008000a8f8 <i_10411>:
    8000a8f8:	f0215483          	lhu	s1,-254(sp)

000000008000a8fc <i_10412>:
    8000a8fc:	0093d863          	ble	s1,t2,8000a90c <i_10416>

000000008000a900 <i_10413>:
    8000a900:	024204b3          	mul	s1,tp,tp

000000008000a904 <i_10414>:
    8000a904:	06412023          	sw	tp,96(sp)

000000008000a908 <i_10415>:
    8000a908:	0244b0b3          	mulhu	ra,s1,tp

000000008000a90c <i_10416>:
    8000a90c:	18712823          	sw	t2,400(sp)

000000008000a910 <i_10417>:
    8000a910:	04e11203          	lh	tp,78(sp)

000000008000a914 <i_10418>:
    8000a914:	f8412223          	sw	tp,-124(sp)

000000008000a918 <i_10419>:
    8000a918:	029085b3          	mul	a1,ra,s1

000000008000a91c <i_10420>:
    8000a91c:	fc415483          	lhu	s1,-60(sp)

000000008000a920 <i_10421>:
    8000a920:	4015d593          	srai	a1,a1,0x1

000000008000a924 <i_10422>:
    8000a924:	02925063          	ble	s1,tp,8000a944 <i_10430>

000000008000a928 <i_10423>:
    8000a928:	18913c23          	sd	s1,408(sp)

000000008000a92c <i_10424>:
    8000a92c:	00909a63          	bne	ra,s1,8000a940 <i_10429>

000000008000a930 <i_10425>:
    8000a930:	b853859b          	addiw	a1,t2,-1147

000000008000a934 <i_10426>:
    8000a934:	fc713c23          	sd	t2,-40(sp)

000000008000a938 <i_10427>:
    8000a938:	007080b3          	add	ra,ra,t2

000000008000a93c <i_10428>:
    8000a93c:	029090b3          	mulh	ra,ra,s1

000000008000a940 <i_10429>:
    8000a940:	0f710c83          	lb	s9,247(sp)

000000008000a944 <i_10430>:
    8000a944:	ff714083          	lbu	ra,-9(sp)

000000008000a948 <i_10431>:
    8000a948:	ec111223          	sh	ra,-316(sp)

000000008000a94c <i_10432>:
    8000a94c:	8d500493          	li	s1,-1835

000000008000a950 <i_10433>:
    8000a950:	8e300393          	li	t2,-1821

000000008000a954 <i_10434>:
    8000a954:	ef411083          	lh	ra,-268(sp)

000000008000a958 <i_10435>:
    8000a958:	e8111723          	sh	ra,-370(sp)

000000008000a95c <i_10436>:
    8000a95c:	00148493          	addi	s1,s1,1 # b4182801 <_end+0x341723ed>
    8000a960:	fe749ae3          	bne	s1,t2,8000a954 <i_10434>

000000008000a964 <i_10437>:
    8000a964:	05816083          	lwu	ra,88(sp)

000000008000a968 <i_10438>:
    8000a968:	ed016083          	lwu	ra,-304(sp)

000000008000a96c <i_10439>:
    8000a96c:	022470bb          	remuw	ra,s0,sp

000000008000a970 <i_10440>:
    8000a970:	e1814583          	lbu	a1,-488(sp)

000000008000a974 <i_10441>:
    8000a974:	00b860b3          	or	ra,a6,a1

000000008000a978 <i_10442>:
    8000a978:	00158463          	beq	a1,ra,8000a980 <i_10444>

000000008000a97c <i_10443>:
    8000a97c:	0010f463          	bleu	ra,ra,8000a984 <i_10445>

000000008000a980 <i_10444>:
    8000a980:	e3813083          	ld	ra,-456(sp)

000000008000a984 <i_10445>:
    8000a984:	01209e63          	bne	ra,s2,8000a9a0 <i_10452>

000000008000a988 <i_10446>:
    8000a988:	eb014583          	lbu	a1,-336(sp)

000000008000a98c <i_10447>:
    8000a98c:	0dc16083          	lwu	ra,220(sp)

000000008000a990 <i_10448>:
    8000a990:	00000013          	nop

000000008000a994 <i_10449>:
    8000a994:	1c138e37          	lui	t3,0x1c138

000000008000a998 <i_10450>:
    8000a998:	00000013          	nop

000000008000a99c <i_10451>:
    8000a99c:	00000013          	nop

000000008000a9a0 <i_10452>:
    8000a9a0:	0294c2b3          	div	t0,s1,s1

000000008000a9a4 <i_10453>:
    8000a9a4:	5650c293          	xori	t0,ra,1381

000000008000a9a8 <i_10454>:
    8000a9a8:	80800393          	li	t2,-2040

000000008000a9ac <i_10455>:
    8000a9ac:	81700493          	li	s1,-2025

000000008000a9b0 <i_10456>:
    8000a9b0:	c142809b          	addiw	ra,t0,-1004

000000008000a9b4 <i_10457>:
    8000a9b4:	00000013          	nop

000000008000a9b8 <i_10458>:
    8000a9b8:	001e5e63          	ble	ra,t3,8000a9d4 <i_10464>

000000008000a9bc <i_10459>:
    8000a9bc:	00138393          	addi	t2,t2,1
    8000a9c0:	fe9398e3          	bne	t2,s1,8000a9b0 <i_10456>

000000008000a9c4 <i_10460>:
    8000a9c4:	ee113823          	sd	ra,-272(sp)

000000008000a9c8 <i_10461>:
    8000a9c8:	01c31863          	bne	t1,t3,8000a9d8 <i_10465>

000000008000a9cc <i_10462>:
    8000a9cc:	1d612e23          	sw	s6,476(sp)

000000008000a9d0 <i_10463>:
    8000a9d0:	0042941b          	slliw	s0,t0,0x4

000000008000a9d4 <i_10464>:
    8000a9d4:	03c0c463          	blt	ra,t3,8000a9fc <i_10474>

000000008000a9d8 <i_10465>:
    8000a9d8:	e9415403          	lhu	s0,-364(sp)

000000008000a9dc <i_10466>:
    8000a9dc:	0080e863          	bltu	ra,s0,8000a9ec <i_10470>

000000008000a9e0 <i_10467>:
    8000a9e0:	4042da13          	srai	s4,t0,0x4

000000008000a9e4 <i_10468>:
    8000a9e4:	00541e63          	bne	s0,t0,8000aa00 <i_10475>

000000008000a9e8 <i_10469>:
    8000a9e8:	2c818b97          	auipc	s7,0x2c818

000000008000a9ec <i_10470>:
    8000a9ec:	035be433          	rem	s0,s7,s5

000000008000a9f0 <i_10471>:
    8000a9f0:	00b00293          	li	t0,11

000000008000a9f4 <i_10472>:
    8000a9f4:	405455b3          	sra	a1,s0,t0

000000008000a9f8 <i_10473>:
    8000a9f8:	f7413023          	sd	s4,-160(sp)

000000008000a9fc <i_10474>:
    8000a9fc:	f8215203          	lhu	tp,-126(sp)

000000008000aa00 <i_10475>:
    8000aa00:	03813c83          	ld	s9,56(sp)

000000008000aa04 <i_10476>:
    8000aa04:	017c8c63          	beq	s9,s7,8000aa1c <i_10482>

000000008000aa08 <i_10477>:
    8000aa08:	002edb9b          	srliw	s7,t4,0x2

000000008000aa0c <i_10478>:
    8000aa0c:	02f0d7b3          	divu	a5,ra,a5

000000008000aa10 <i_10479>:
    8000aa10:	14411c23          	sh	tp,344(sp)

000000008000aa14 <i_10480>:
    8000aa14:	0b415e83          	lhu	t4,180(sp)

000000008000aa18 <i_10481>:
    8000aa18:	0020d79b          	srliw	a5,ra,0x2

000000008000aa1c <i_10482>:
    8000aa1c:	1a013083          	ld	ra,416(sp)

000000008000aa20 <i_10483>:
    8000aa20:	81adcd93          	xori	s11,s11,-2022

000000008000aa24 <i_10484>:
    8000aa24:	03813d83          	ld	s11,56(sp)

000000008000aa28 <i_10485>:
    8000aa28:	02fe8063          	beq	t4,a5,8000aa48 <i_10493>

000000008000aa2c <i_10486>:
    8000aa2c:	65b22613          	slti	a2,tp,1627

000000008000aa30 <i_10487>:
    8000aa30:	f6659e97          	auipc	t4,0xf6659

000000008000aa34 <i_10488>:
    8000aa34:	07e14c83          	lbu	s9,126(sp)

000000008000aa38 <i_10489>:
    8000aa38:	f1014783          	lbu	a5,-240(sp)

000000008000aa3c <i_10490>:
    8000aa3c:	f3911123          	sh	s9,-222(sp)

000000008000aa40 <i_10491>:
    8000aa40:	0397d063          	ble	s9,a5,8000aa60 <i_10499>

000000008000aa44 <i_10492>:
    8000aa44:	0395d463          	ble	s9,a1,8000aa6c <i_10502>

000000008000aa48 <i_10493>:
    8000aa48:	00b00313          	li	t1,11

000000008000aa4c <i_10494>:
    8000aa4c:	006cdc3b          	srlw	s8,s9,t1

000000008000aa50 <i_10495>:
    8000aa50:	f6013d83          	ld	s11,-160(sp)

000000008000aa54 <i_10496>:
    8000aa54:	021ec7bb          	divw	a5,t4,ra

000000008000aa58 <i_10497>:
    8000aa58:	01416c83          	lwu	s9,20(sp)

000000008000aa5c <i_10498>:
    8000aa5c:	6ca9cc93          	xori	s9,s3,1738

000000008000aa60 <i_10499>:
    8000aa60:	03bdbeb3          	mulhu	t4,s11,s11

000000008000aa64 <i_10500>:
    8000aa64:	00325213          	srli	tp,tp,0x3

000000008000aa68 <i_10501>:
    8000aa68:	efe14303          	lbu	t1,-258(sp)

000000008000aa6c <i_10502>:
    8000aa6c:	f5813983          	ld	s3,-168(sp)

000000008000aa70 <i_10503>:
    8000aa70:	193101a3          	sb	s3,387(sp)

000000008000aa74 <i_10504>:
    8000aa74:	01000493          	li	s1,16

000000008000aa78 <i_10505>:
    8000aa78:	409bda33          	sra	s4,s7,s1

000000008000aa7c <i_10506>:
    8000aa7c:	01b34e63          	blt	t1,s11,8000aa98 <i_10513>

000000008000aa80 <i_10507>:
    8000aa80:	08c12583          	lw	a1,140(sp)

000000008000aa84 <i_10508>:
    8000aa84:	eb410323          	sb	s4,-346(sp)

000000008000aa88 <i_10509>:
    8000aa88:	01c4ee63          	bltu	s1,t3,8000aaa4 <i_10516>

000000008000aa8c <i_10510>:
    8000aa8c:	02b5f4b3          	remu	s1,a1,a1

000000008000aa90 <i_10511>:
    8000aa90:	f2b12e23          	sw	a1,-196(sp)

000000008000aa94 <i_10512>:
    8000aa94:	02959463          	bne	a1,s1,8000aabc <i_10522>

000000008000aa98 <i_10513>:
    8000aa98:	00b5c663          	blt	a1,a1,8000aaa4 <i_10516>

000000008000aa9c <i_10514>:
    8000aa9c:	fbe125b7          	lui	a1,0xfbe12

000000008000aaa0 <i_10515>:
    8000aaa0:	eb215a83          	lhu	s5,-334(sp)

000000008000aaa4 <i_10516>:
    8000aaa4:	f9416a03          	lwu	s4,-108(sp)

000000008000aaa8 <i_10517>:
    8000aaa8:	f1e14783          	lbu	a5,-226(sp)

000000008000aaac <i_10518>:
    8000aaac:	e2614283          	lbu	t0,-474(sp)

000000008000aab0 <i_10519>:
    8000aab0:	025a72bb          	remuw	t0,s4,t0

000000008000aab4 <i_10520>:
    8000aab4:	e3012e83          	lw	t4,-464(sp)

000000008000aab8 <i_10521>:
    8000aab8:	01c14303          	lbu	t1,28(sp)

000000008000aabc <i_10522>:
    8000aabc:	16510a03          	lb	s4,357(sp)

000000008000aac0 <i_10523>:
    8000aac0:	00000013          	nop

000000008000aac4 <i_10524>:
    8000aac4:	7a600093          	li	ra,1958

000000008000aac8 <i_10525>:
    8000aac8:	7b900593          	li	a1,1977

000000008000aacc <i_10526>:
    8000aacc:	00813e83          	ld	t4,8(sp)

000000008000aad0 <i_10527>:
    8000aad0:	00000013          	nop

000000008000aad4 <i_10528>:
    8000aad4:	ec211a03          	lh	s4,-318(sp)

000000008000aad8 <i_10529>:
    8000aad8:	10613023          	sd	t1,256(sp)

000000008000aadc <i_10530>:
    8000aadc:	0bd11223          	sh	t4,164(sp)

000000008000aae0 <i_10531>:
    8000aae0:	0033979b          	slliw	a5,t2,0x3

000000008000aae4 <i_10532>:
    8000aae4:	026a4333          	div	t1,s4,t1

000000008000aae8 <i_10533>:
    8000aae8:	04536313          	ori	t1,t1,69

000000008000aaec <i_10534>:
    8000aaec:	00000013          	nop

000000008000aaf0 <i_10535>:
    8000aaf0:	00108093          	addi	ra,ra,1 # ffffffffb9b37001 <_end+0xffffffff39b26bed>
    8000aaf4:	fcb09ce3          	bne	ra,a1,8000aacc <i_10526>

000000008000aaf8 <i_10536>:
    8000aaf8:	f7d12623          	sw	t4,-148(sp)

000000008000aafc <i_10537>:
    8000aafc:	01d30c63          	beq	t1,t4,8000ab14 <i_10543>

000000008000ab00 <i_10538>:
    8000ab00:	02678ebb          	mulw	t4,a5,t1

000000008000ab04 <i_10539>:
    8000ab04:	05c11983          	lh	s3,92(sp)

000000008000ab08 <i_10540>:
    8000ab08:	004a531b          	srliw	t1,s4,0x4

000000008000ab0c <i_10541>:
    8000ab0c:	02f9c263          	blt	s3,a5,8000ab30 <i_10550>

000000008000ab10 <i_10542>:
    8000ab10:	00ffd463          	ble	a5,t6,8000ab18 <i_10544>

000000008000ab14 <i_10543>:
    8000ab14:	f0611783          	lh	a5,-250(sp)

000000008000ab18 <i_10544>:
    8000ab18:	093106a3          	sb	s3,141(sp)

000000008000ab1c <i_10545>:
    8000ab1c:	0339e7bb          	remw	a5,s3,s3

000000008000ab20 <i_10546>:
    8000ab20:	e3410583          	lb	a1,-460(sp)

000000008000ab24 <i_10547>:
    8000ab24:	0015dc13          	srli	s8,a1,0x1

000000008000ab28 <i_10548>:
    8000ab28:	40fc07b3          	sub	a5,s8,a5

000000008000ab2c <i_10549>:
    8000ab2c:	0379dbbb          	divuw	s7,s3,s7

000000008000ab30 <i_10550>:
    8000ab30:	01800b93          	li	s7,24

000000008000ab34 <i_10551>:
    8000ab34:	4175d7bb          	sraw	a5,a1,s7

000000008000ab38 <i_10552>:
    8000ab38:	03d00293          	li	t0,61

000000008000ab3c <i_10553>:
    8000ab3c:	005c5433          	srl	s0,s8,t0

000000008000ab40 <i_10554>:
    8000ab40:	eb813c03          	ld	s8,-328(sp)

000000008000ab44 <i_10555>:
    8000ab44:	16512023          	sw	t0,352(sp)

000000008000ab48 <i_10556>:
    8000ab48:	11412083          	lw	ra,276(sp)

000000008000ab4c <i_10557>:
    8000ab4c:	e6615e03          	lhu	t3,-410(sp)

000000008000ab50 <i_10558>:
    8000ab50:	1e810123          	sb	s0,482(sp)

000000008000ab54 <i_10559>:
    8000ab54:	005e7463          	bleu	t0,t3,8000ab5c <i_10561>

000000008000ab58 <i_10560>:
    8000ab58:	0d813303          	ld	t1,216(sp)

000000008000ab5c <i_10561>:
    8000ab5c:	03ce0263          	beq	t3,t3,8000ab80 <i_10570>

000000008000ab60 <i_10562>:
    8000ab60:	fc611b23          	sh	t1,-42(sp)

000000008000ab64 <i_10563>:
    8000ab64:	11910ca3          	sb	s9,281(sp)

000000008000ab68 <i_10564>:
    8000ab68:	e2112823          	sw	ra,-464(sp)

000000008000ab6c <i_10565>:
    8000ab6c:	00529463          	bne	t0,t0,8000ab74 <i_10567>

000000008000ab70 <i_10566>:
    8000ab70:	15c11a83          	lh	s5,348(sp)

000000008000ab74 <i_10567>:
    8000ab74:	03c16303          	lwu	t1,60(sp)

000000008000ab78 <i_10568>:
    8000ab78:	12511423          	sh	t0,296(sp)

000000008000ab7c <i_10569>:
    8000ab7c:	0d813283          	ld	t0,216(sp)

000000008000ab80 <i_10570>:
    8000ab80:	0d215283          	lhu	t0,210(sp)

000000008000ab84 <i_10571>:
    8000ab84:	ed510ca3          	sb	s5,-295(sp)

000000008000ab88 <i_10572>:
    8000ab88:	fc812283          	lw	t0,-56(sp)

000000008000ab8c <i_10573>:
    8000ab8c:	0252d263          	ble	t0,t0,8000abb0 <i_10582>

000000008000ab90 <i_10574>:
    8000ab90:	029df23b          	remuw	tp,s11,s1

000000008000ab94 <i_10575>:
    8000ab94:	0142aa33          	slt	s4,t0,s4

000000008000ab98 <i_10576>:
    8000ab98:	19416a03          	lwu	s4,404(sp)

000000008000ab9c <i_10577>:
    8000ab9c:	e3413423          	sd	s4,-472(sp)

000000008000aba0 <i_10578>:
    8000aba0:	fd815403          	lhu	s0,-40(sp)

000000008000aba4 <i_10579>:
    8000aba4:	008575b3          	and	a1,a0,s0

000000008000aba8 <i_10580>:
    8000aba8:	f3413023          	sd	s4,-224(sp)

000000008000abac <i_10581>:
    8000abac:	1c415d83          	lhu	s11,452(sp)

000000008000abb0 <i_10582>:
    8000abb0:	e7e12023          	sw	t5,-416(sp)

000000008000abb4 <i_10583>:
    8000abb4:	00000013          	nop

000000008000abb8 <i_10584>:
    8000abb8:	7b300293          	li	t0,1971

000000008000abbc <i_10585>:
    8000abbc:	7c700213          	li	tp,1991

000000008000abc0 <i_10586>:
    8000abc0:	01000413          	li	s0,16

000000008000abc4 <i_10587>:
    8000abc4:	008a10b3          	sll	ra,s4,s0

000000008000abc8 <i_10588>:
    8000abc8:	f9a10023          	sb	s10,-128(sp)

000000008000abcc <i_10589>:
    8000abcc:	028444b3          	div	s1,s0,s0

000000008000abd0 <i_10590>:
    8000abd0:	00128293          	addi	t0,t0,1
    8000abd4:	fe5276e3          	bleu	t0,tp,8000abc0 <i_10586>

000000008000abd8 <i_10591>:
    8000abd8:	01b00c13          	li	s8,27

000000008000abdc <i_10592>:
    8000abdc:	01841c3b          	sllw	s8,s0,s8

000000008000abe0 <i_10593>:
    8000abe0:	07015983          	lhu	s3,112(sp)

000000008000abe4 <i_10594>:
    8000abe4:	01898a63          	beq	s3,s8,8000abf8 <i_10599>

000000008000abe8 <i_10595>:
    8000abe8:	04211c03          	lh	s8,66(sp)

000000008000abec <i_10596>:
    8000abec:	013c7663          	bleu	s3,s8,8000abf8 <i_10599>

000000008000abf0 <i_10597>:
    8000abf0:	1b813c03          	ld	s8,440(sp)

000000008000abf4 <i_10598>:
    8000abf4:	f3813983          	ld	s3,-200(sp)

000000008000abf8 <i_10599>:
    8000abf8:	018c7e63          	bleu	s8,s8,8000ac14 <i_10606>

000000008000abfc <i_10600>:
    8000abfc:	01871263          	bne	a4,s8,8000ac00 <i_10601>

000000008000ac00 <i_10601>:
    8000ac00:	f8a10083          	lb	ra,-118(sp)

000000008000ac04 <i_10602>:
    8000ac04:	018c1a63          	bne	s8,s8,8000ac18 <i_10607>

000000008000ac08 <i_10603>:
    8000ac08:	401c5e13          	srai	t3,s8,0x1

000000008000ac0c <i_10604>:
    8000ac0c:	018c4cb3          	xor	s9,s8,s8

000000008000ac10 <i_10605>:
    8000ac10:	e9812023          	sw	s8,-384(sp)

000000008000ac14 <i_10606>:
    8000ac14:	001c6663          	bltu	s8,ra,8000ac20 <i_10609>

000000008000ac18 <i_10607>:
    8000ac18:	f3211383          	lh	t2,-206(sp)

000000008000ac1c <i_10608>:
    8000ac1c:	fe011603          	lh	a2,-32(sp)

000000008000ac20 <i_10609>:
    8000ac20:	0a713023          	sd	t2,160(sp)

000000008000ac24 <i_10610>:
    8000ac24:	1d215c83          	lhu	s9,466(sp)

000000008000ac28 <i_10611>:
    8000ac28:	1b815383          	lhu	t2,440(sp)

000000008000ac2c <i_10612>:
    8000ac2c:	0013f263          	bleu	ra,t2,8000ac30 <i_10613>

000000008000ac30 <i_10613>:
    8000ac30:	02900b93          	li	s7,41

000000008000ac34 <i_10614>:
    8000ac34:	0170d433          	srl	s0,ra,s7

000000008000ac38 <i_10615>:
    8000ac38:	87400a93          	li	s5,-1932

000000008000ac3c <i_10616>:
    8000ac3c:	88400093          	li	ra,-1916

000000008000ac40 <i_10617>:
    8000ac40:	00241e1b          	slliw	t3,s0,0x2

000000008000ac44 <i_10618>:
    8000ac44:	1c811023          	sh	s0,448(sp)

000000008000ac48 <i_10619>:
    8000ac48:	001a8a93          	addi	s5,s5,1
    8000ac4c:	fe1aeae3          	bltu	s5,ra,8000ac40 <i_10617>

000000008000ac50 <i_10620>:
    8000ac50:	76a66b97          	auipc	s7,0x76a66

000000008000ac54 <i_10621>:
    8000ac54:	1fc12023          	sw	t3,480(sp)

000000008000ac58 <i_10622>:
    8000ac58:	0e013203          	ld	tp,224(sp)

000000008000ac5c <i_10623>:
    8000ac5c:	004e3db3          	sltu	s11,t3,tp

000000008000ac60 <i_10624>:
    8000ac60:	00419193          	slli	gp,gp,0x4

000000008000ac64 <i_10625>:
    8000ac64:	12414783          	lbu	a5,292(sp)

000000008000ac68 <i_10626>:
    8000ac68:	95420313          	addi	t1,tp,-1708 # fffffffffffff954 <_end+0xffffffff7ffef540>

000000008000ac6c <i_10627>:
    8000ac6c:	00bab0b3          	sltu	ra,s5,a1

000000008000ac70 <i_10628>:
    8000ac70:	e8f11323          	sh	a5,-378(sp)

000000008000ac74 <i_10629>:
    8000ac74:	001300b3          	add	ra,t1,ra

000000008000ac78 <i_10630>:
    8000ac78:	15b0879b          	addiw	a5,ra,347

000000008000ac7c <i_10631>:
    8000ac7c:	08f104a3          	sb	a5,137(sp)

000000008000ac80 <i_10632>:
    8000ac80:	01a00413          	li	s0,26

000000008000ac84 <i_10633>:
    8000ac84:	40845433          	sra	s0,s0,s0

000000008000ac88 <i_10634>:
    8000ac88:	00840e63          	beq	s0,s0,8000aca4 <i_10641>

000000008000ac8c <i_10635>:
    8000ac8c:	e5013583          	ld	a1,-432(sp)

000000008000ac90 <i_10636>:
    8000ac90:	07016403          	lwu	s0,112(sp)

000000008000ac94 <i_10637>:
    8000ac94:	14714303          	lbu	t1,327(sp)

000000008000ac98 <i_10638>:
    8000ac98:	34438b97          	auipc	s7,0x34438

000000008000ac9c <i_10639>:
    8000ac9c:	f3710503          	lb	a0,-201(sp)

000000008000aca0 <i_10640>:
    8000aca0:	00600313          	li	t1,6

000000008000aca4 <i_10641>:
    8000aca4:	00679bbb          	sllw	s7,a5,t1

000000008000aca8 <i_10642>:
    8000aca8:	03737463          	bleu	s7,t1,8000acd0 <i_10652>

000000008000acac <i_10643>:
    8000acac:	e6815c83          	lhu	s9,-408(sp)

000000008000acb0 <i_10644>:
    8000acb0:	0aec7097          	auipc	ra,0xaec7

000000008000acb4 <i_10645>:
    8000acb4:	00a5d663          	ble	a0,a1,8000acc0 <i_10648>

000000008000acb8 <i_10646>:
    8000acb8:	f2812b83          	lw	s7,-216(sp)

000000008000acbc <i_10647>:
    8000acbc:	028b9063          	bne	s7,s0,8000acdc <i_10655>

000000008000acc0 <i_10648>:
    8000acc0:	00b405b3          	add	a1,s0,a1

000000008000acc4 <i_10649>:
    8000acc4:	f7816b83          	lwu	s7,-136(sp)

000000008000acc8 <i_10650>:
    8000acc8:	16a13023          	sd	a0,352(sp)

000000008000accc <i_10651>:
    8000accc:	017b81b3          	add	gp,s7,s7

000000008000acd0 <i_10652>:
    8000acd0:	e8a11b83          	lh	s7,-374(sp)

000000008000acd4 <i_10653>:
    8000acd4:	03754063          	blt	a0,s7,8000acf4 <i_10661>

000000008000acd8 <i_10654>:
    8000acd8:	01800193          	li	gp,24

000000008000acdc <i_10655>:
    8000acdc:	0031dbbb          	srlw	s7,gp,gp

000000008000ace0 <i_10656>:
    8000ace0:	01400e13          	li	t3,20

000000008000ace4 <i_10657>:
    8000ace4:	41cbd53b          	sraw	a0,s7,t3

000000008000ace8 <i_10658>:
    8000ace8:	6a3a8817          	auipc	a6,0x6a3a8

000000008000acec <i_10659>:
    8000acec:	03766063          	bltu	a2,s7,8000ad0c <i_10667>

000000008000acf0 <i_10660>:
    8000acf0:	f8a10323          	sb	a0,-122(sp)

000000008000acf4 <i_10661>:
    8000acf4:	ec412383          	lw	t2,-316(sp)

000000008000acf8 <i_10662>:
    8000acf8:	001b5b9b          	srliw	s7,s6,0x1

000000008000acfc <i_10663>:
    8000acfc:	4023dd93          	srai	s11,t2,0x2

000000008000ad00 <i_10664>:
    8000ad00:	f5013823          	sd	a6,-176(sp)

000000008000ad04 <i_10665>:
    8000ad04:	00e00393          	li	t2,14

000000008000ad08 <i_10666>:
    8000ad08:	007393bb          	sllw	t2,t2,t2

000000008000ad0c <i_10667>:
    8000ad0c:	fd33ba13          	sltiu	s4,t2,-45

000000008000ad10 <i_10668>:
    8000ad10:	01b1d863          	ble	s11,gp,8000ad20 <i_10672>

000000008000ad14 <i_10669>:
    8000ad14:	0c813803          	ld	a6,200(sp)

000000008000ad18 <i_10670>:
    8000ad18:	06510303          	lb	t1,101(sp)

000000008000ad1c <i_10671>:
    8000ad1c:	81056513          	ori	a0,a0,-2032

000000008000ad20 <i_10672>:
    8000ad20:	bfe36813          	ori	a6,t1,-1026

000000008000ad24 <i_10673>:
    8000ad24:	5faa881b          	addiw	a6,s5,1530

000000008000ad28 <i_10674>:
    8000ad28:	00fa5263          	ble	a5,s4,8000ad2c <i_10675>

000000008000ad2c <i_10675>:
    8000ad2c:	ea210803          	lb	a6,-350(sp)

000000008000ad30 <i_10676>:
    8000ad30:	01080a63          	beq	a6,a6,8000ad44 <i_10681>

000000008000ad34 <i_10677>:
    8000ad34:	ec016c03          	lwu	s8,-320(sp)

000000008000ad38 <i_10678>:
    8000ad38:	030c7263          	bleu	a6,s8,8000ad5c <i_10687>

000000008000ad3c <i_10679>:
    8000ad3c:	0343553b          	divuw	a0,t1,s4

000000008000ad40 <i_10680>:
    8000ad40:	004c5813          	srli	a6,s8,0x4

000000008000ad44 <i_10681>:
    8000ad44:	01051863          	bne	a0,a6,8000ad54 <i_10685>

000000008000ad48 <i_10682>:
    8000ad48:	0e110c03          	lb	s8,225(sp)

000000008000ad4c <i_10683>:
    8000ad4c:	17011723          	sh	a6,366(sp)

000000008000ad50 <i_10684>:
    8000ad50:	2fc53c13          	sltiu	s8,a0,764

000000008000ad54 <i_10685>:
    8000ad54:	0b012623          	sw	a6,172(sp)

000000008000ad58 <i_10686>:
    8000ad58:	010c5263          	ble	a6,s8,8000ad5c <i_10687>

000000008000ad5c <i_10687>:
    8000ad5c:	e1a11d23          	sh	s10,-486(sp)

000000008000ad60 <i_10688>:
    8000ad60:	1d812e23          	sw	s8,476(sp)

000000008000ad64 <i_10689>:
    8000ad64:	15811803          	lh	a6,344(sp)

000000008000ad68 <i_10690>:
    8000ad68:	0b011123          	sh	a6,162(sp)

000000008000ad6c <i_10691>:
    8000ad6c:	ef611803          	lh	a6,-266(sp)

000000008000ad70 <i_10692>:
    8000ad70:	010570b3          	and	ra,a0,a6

000000008000ad74 <i_10693>:
    8000ad74:	f6810483          	lb	s1,-152(sp)

000000008000ad78 <i_10694>:
    8000ad78:	030950b3          	divu	ra,s2,a6

000000008000ad7c <i_10695>:
    8000ad7c:	4034d81b          	sraiw	a6,s1,0x3

000000008000ad80 <i_10696>:
    8000ad80:	01e11c03          	lh	s8,30(sp)

000000008000ad84 <i_10697>:
    8000ad84:	eec12603          	lw	a2,-276(sp)

000000008000ad88 <i_10698>:
    8000ad88:	fe510c03          	lb	s8,-27(sp)

000000008000ad8c <i_10699>:
    8000ad8c:	f9c16303          	lwu	t1,-100(sp)

000000008000ad90 <i_10700>:
    8000ad90:	6aad50b7          	lui	ra,0x6aad5

000000008000ad94 <i_10701>:
    8000ad94:	eb615c03          	lhu	s8,-330(sp)

000000008000ad98 <i_10702>:
    8000ad98:	0033119b          	slliw	gp,t1,0x3

000000008000ad9c <i_10703>:
    8000ad9c:	00631a63          	bne	t1,t1,8000adb0 <i_10708>

000000008000ada0 <i_10704>:
    8000ada0:	14a11503          	lh	a0,330(sp)

000000008000ada4 <i_10705>:
    8000ada4:	021c40b3          	div	ra,s8,ra

000000008000ada8 <i_10706>:
    8000ada8:	405282b3          	sub	t0,t0,t0

000000008000adac <i_10707>:
    8000adac:	e4113023          	sd	ra,-448(sp)

000000008000adb0 <i_10708>:
    8000adb0:	f1211b83          	lh	s7,-238(sp)

000000008000adb4 <i_10709>:
    8000adb4:	0c013983          	ld	s3,192(sp)

000000008000adb8 <i_10710>:
    8000adb8:	ff313823          	sd	s3,-16(sp)

000000008000adbc <i_10711>:
    8000adbc:	0051d263          	ble	t0,gp,8000adc0 <i_10712>

000000008000adc0 <i_10712>:
    8000adc0:	026c0263          	beq	s8,t1,8000ade4 <i_10721>

000000008000adc4 <i_10713>:
    8000adc4:	023f89b3          	mul	s3,t6,gp

000000008000adc8 <i_10714>:
    8000adc8:	01e00993          	li	s3,30

000000008000adcc <i_10715>:
    8000adcc:	01399c3b          	sllw	s8,s3,s3

000000008000add0 <i_10716>:
    8000add0:	00f10983          	lb	s3,15(sp)

000000008000add4 <i_10717>:
    8000add4:	033c7c3b          	remuw	s8,s8,s3

000000008000add8 <i_10718>:
    8000add8:	0ec12e03          	lw	t3,236(sp)

000000008000addc <i_10719>:
    8000addc:	0130a0b3          	slt	ra,ra,s3

000000008000ade0 <i_10720>:
    8000ade0:	e7c12023          	sw	t3,-416(sp)

000000008000ade4 <i_10721>:
    8000ade4:	e5c16a03          	lwu	s4,-420(sp)

000000008000ade8 <i_10722>:
    8000ade8:	001a2a33          	slt	s4,s4,ra

000000008000adec <i_10723>:
    8000adec:	828a3c13          	sltiu	s8,s4,-2008

000000008000adf0 <i_10724>:
    8000adf0:	03cc7833          	remu	a6,s8,t3

000000008000adf4 <i_10725>:
    8000adf4:	e34107a3          	sb	s4,-465(sp)

000000008000adf8 <i_10726>:
    8000adf8:	0100a0b3          	slt	ra,ra,a6

000000008000adfc <i_10727>:
    8000adfc:	03ce4063          	blt	t3,t3,8000ae1c <i_10735>

000000008000ae00 <i_10728>:
    8000ae00:	0290e0bb          	remw	ra,ra,s1

000000008000ae04 <i_10729>:
    8000ae04:	05313c23          	sd	s3,88(sp)

000000008000ae08 <i_10730>:
    8000ae08:	ea1102a3          	sb	ra,-347(sp)

000000008000ae0c <i_10731>:
    8000ae0c:	00000013          	nop

000000008000ae10 <i_10732>:
    8000ae10:	1c411983          	lh	s3,452(sp)

000000008000ae14 <i_10733>:
    8000ae14:	1b413023          	sd	s4,416(sp)

000000008000ae18 <i_10734>:
    8000ae18:	03fb8bbb          	mulw	s7,s7,t6

000000008000ae1c <i_10735>:
    8000ae1c:	00000013          	nop

000000008000ae20 <i_10736>:
    8000ae20:	00000013          	nop

000000008000ae24 <i_10737>:
    8000ae24:	7ce00a13          	li	s4,1998

000000008000ae28 <i_10738>:
    8000ae28:	7d200793          	li	a5,2002

000000008000ae2c <i_10739>:
    8000ae2c:	ed011c23          	sh	a6,-296(sp)

000000008000ae30 <i_10740>:
    8000ae30:	4020d993          	srai	s3,ra,0x2

000000008000ae34 <i_10741>:
    8000ae34:	00000013          	nop

000000008000ae38 <i_10742>:
    8000ae38:	0210d463          	ble	ra,ra,8000ae60 <i_10751>

000000008000ae3c <i_10743>:
    8000ae3c:	001a0a13          	addi	s4,s4,1
    8000ae40:	ff4796e3          	bne	a5,s4,8000ae2c <i_10739>

000000008000ae44 <i_10744>:
    8000ae44:	f7412183          	lw	gp,-140(sp)

000000008000ae48 <i_10745>:
    8000ae48:	e9311323          	sh	s3,-378(sp)

000000008000ae4c <i_10746>:
    8000ae4c:	01899463          	bne	s3,s8,8000ae54 <i_10748>

000000008000ae50 <i_10747>:
    8000ae50:	00a00493          	li	s1,10

000000008000ae54 <i_10748>:
    8000ae54:	00909633          	sll	a2,ra,s1

000000008000ae58 <i_10749>:
    8000ae58:	00ca5863          	ble	a2,s4,8000ae68 <i_10753>

000000008000ae5c <i_10750>:
    8000ae5c:	08c16303          	lwu	t1,140(sp)

000000008000ae60 <i_10751>:
    8000ae60:	1c611783          	lh	a5,454(sp)

000000008000ae64 <i_10752>:
    8000ae64:	013bcc63          	blt	s7,s3,8000ae7c <i_10758>

000000008000ae68 <i_10753>:
    8000ae68:	023c31b3          	mulhu	gp,s8,gp

000000008000ae6c <i_10754>:
    8000ae6c:	de37c513          	xori	a0,a5,-541

000000008000ae70 <i_10755>:
    8000ae70:	e9210303          	lb	t1,-366(sp)

000000008000ae74 <i_10756>:
    8000ae74:	ca263b93          	sltiu	s7,a2,-862

000000008000ae78 <i_10757>:
    8000ae78:	00000013          	nop

000000008000ae7c <i_10758>:
    8000ae7c:	00c13c23          	sd	a2,24(sp)

000000008000ae80 <i_10759>:
    8000ae80:	aa6c0517          	auipc	a0,0xaa6c0

000000008000ae84 <i_10760>:
    8000ae84:	7d100193          	li	gp,2001

000000008000ae88 <i_10761>:
    8000ae88:	7df00a13          	li	s4,2015

000000008000ae8c <i_10762>:
    8000ae8c:	ef412503          	lw	a0,-268(sp)

000000008000ae90 <i_10763>:
    8000ae90:	00650263          	beq	a0,t1,8000ae94 <i_10764>

000000008000ae94 <i_10764>:
    8000ae94:	02b54c3b          	divw	s8,a0,a1

000000008000ae98 <i_10765>:
    8000ae98:	10a12823          	sw	a0,272(sp)

000000008000ae9c <i_10766>:
    8000ae9c:	e8910303          	lb	t1,-375(sp)

000000008000aea0 <i_10767>:
    8000aea0:	4033551b          	sraiw	a0,t1,0x3

000000008000aea4 <i_10768>:
    8000aea4:	06a11e23          	sh	a0,124(sp)

000000008000aea8 <i_10769>:
    8000aea8:	01812a83          	lw	s5,24(sp)

000000008000aeac <i_10770>:
    8000aeac:	00118193          	addi	gp,gp,1
    8000aeb0:	fc3a5ee3          	ble	gp,s4,8000ae8c <i_10762>

000000008000aeb4 <i_10771>:
    8000aeb4:	00930533          	add	a0,t1,s1

000000008000aeb8 <i_10772>:
    8000aeb8:	fb811303          	lh	t1,-72(sp)

000000008000aebc <i_10773>:
    8000aebc:	1aa15983          	lhu	s3,426(sp)

000000008000aec0 <i_10774>:
    8000aec0:	00016603          	lwu	a2,0(sp)

000000008000aec4 <i_10775>:
    8000aec4:	01536a63          	bltu	t1,s5,8000aed8 <i_10780>

000000008000aec8 <i_10776>:
    8000aec8:	10812e03          	lw	t3,264(sp)

000000008000aecc <i_10777>:
    8000aecc:	12412303          	lw	t1,292(sp)

000000008000aed0 <i_10778>:
    8000aed0:	1a310e03          	lb	t3,419(sp)

000000008000aed4 <i_10779>:
    8000aed4:	fc810b83          	lb	s7,-56(sp)

000000008000aed8 <i_10780>:
    8000aed8:	fd014e03          	lbu	t3,-48(sp)

000000008000aedc <i_10781>:
    8000aedc:	0bb04a97          	auipc	s5,0xbb04

000000008000aee0 <i_10782>:
    8000aee0:	07d12823          	sw	t4,112(sp)

000000008000aee4 <i_10783>:
    8000aee4:	f0e10e03          	lb	t3,-242(sp)

000000008000aee8 <i_10784>:
    8000aee8:	87f00e93          	li	t4,-1921

000000008000aeec <i_10785>:
    8000aeec:	88d00213          	li	tp,-1907

000000008000aef0 <i_10786>:
    8000aef0:	402e5293          	srai	t0,t3,0x2

000000008000aef4 <i_10787>:
    8000aef4:	1dc13c23          	sd	t3,472(sp)

000000008000aef8 <i_10788>:
    8000aef8:	00000013          	nop

000000008000aefc <i_10789>:
    8000aefc:	76d00193          	li	gp,1901

000000008000af00 <i_10790>:
    8000af00:	78000613          	li	a2,1920

000000008000af04 <i_10791>:
    8000af04:	e84be313          	ori	t1,s7,-380

000000008000af08 <i_10792>:
    8000af08:	40c30e33          	sub	t3,t1,a2

000000008000af0c <i_10793>:
    8000af0c:	00000013          	nop

000000008000af10 <i_10794>:
    8000af10:	f5816983          	lwu	s3,-168(sp)

000000008000af14 <i_10795>:
    8000af14:	40698333          	sub	t1,s3,t1

000000008000af18 <i_10796>:
    8000af18:	033e5cbb          	divuw	s9,t3,s3

000000008000af1c <i_10797>:
    8000af1c:	ea814083          	lbu	ra,-344(sp)

000000008000af20 <i_10798>:
    8000af20:	00118193          	addi	gp,gp,1
    8000af24:	fec1c0e3          	blt	gp,a2,8000af04 <i_10791>

000000008000af28 <i_10799>:
    8000af28:	b2f0b313          	sltiu	t1,ra,-1233

000000008000af2c <i_10800>:
    8000af2c:	00d12423          	sw	a3,8(sp)

000000008000af30 <i_10801>:
    8000af30:	001e8e93          	addi	t4,t4,1 # 76663a31 <main-0x999c5cf>
    8000af34:	fbd21ee3          	bne	tp,t4,8000aef0 <i_10786>

000000008000af38 <i_10802>:
    8000af38:	1c114a83          	lbu	s5,449(sp)

000000008000af3c <i_10803>:
    8000af3c:	02130263          	beq	t1,ra,8000af60 <i_10812>

000000008000af40 <i_10804>:
    8000af40:	015aaab3          	slt	s5,s5,s5

000000008000af44 <i_10805>:
    8000af44:	4335e593          	ori	a1,a1,1075

000000008000af48 <i_10806>:
    8000af48:	02411623          	sh	tp,44(sp)

000000008000af4c <i_10807>:
    8000af4c:	40da85b3          	sub	a1,s5,a3

000000008000af50 <i_10808>:
    8000af50:	e662e293          	ori	t0,t0,-410

000000008000af54 <i_10809>:
    8000af54:	0015d59b          	srliw	a1,a1,0x1

000000008000af58 <i_10810>:
    8000af58:	07512423          	sw	s5,104(sp)

000000008000af5c <i_10811>:
    8000af5c:	02b5a2b3          	mulhsu	t0,a1,a1

000000008000af60 <i_10812>:
    8000af60:	16513023          	sd	t0,352(sp)

000000008000af64 <i_10813>:
    8000af64:	1c513c23          	sd	t0,472(sp)

000000008000af68 <i_10814>:
    8000af68:	7d200a93          	li	s5,2002

000000008000af6c <i_10815>:
    8000af6c:	7e600313          	li	t1,2022

000000008000af70 <i_10816>:
    8000af70:	0a510e23          	sb	t0,188(sp)

000000008000af74 <i_10817>:
    8000af74:	001a8a93          	addi	s5,s5,1 # 8bb0eedd <_end+0xbafeac9>
    8000af78:	ff531ce3          	bne	t1,s5,8000af70 <i_10816>

000000008000af7c <i_10818>:
    8000af7c:	00b2e5b3          	or	a1,t0,a1

000000008000af80 <i_10819>:
    8000af80:	0042981b          	slliw	a6,t0,0x4

000000008000af84 <i_10820>:
    8000af84:	025291b3          	mulh	gp,t0,t0

000000008000af88 <i_10821>:
    8000af88:	0101ec63          	bltu	gp,a6,8000afa0 <i_10827>

000000008000af8c <i_10822>:
    8000af8c:	0102ea63          	bltu	t0,a6,8000afa0 <i_10827>

000000008000af90 <i_10823>:
    8000af90:	5166acb7          	lui	s9,0x5166a

000000008000af94 <i_10824>:
    8000af94:	0038521b          	srliw	tp,a6,0x3

000000008000af98 <i_10825>:
    8000af98:	0042c663          	blt	t0,tp,8000afa4 <i_10828>

000000008000af9c <i_10826>:
    8000af9c:	02a15983          	lhu	s3,42(sp)

000000008000afa0 <i_10827>:
    8000afa0:	01700393          	li	t2,23

000000008000afa4 <i_10828>:
    8000afa4:	0073983b          	sllw	a6,t2,t2

000000008000afa8 <i_10829>:
    8000afa8:	10012383          	lw	t2,256(sp)

000000008000afac <i_10830>:
    8000afac:	8c400093          	li	ra,-1852

000000008000afb0 <i_10831>:
    8000afb0:	8cd00193          	li	gp,-1843

000000008000afb4 <i_10832>:
    8000afb4:	410383bb          	subw	t2,t2,a6

000000008000afb8 <i_10833>:
    8000afb8:	02d00b93          	li	s7,45

000000008000afbc <i_10834>:
    8000afbc:	4173d2b3          	sra	t0,t2,s7

000000008000afc0 <i_10835>:
    8000afc0:	fe313423          	sd	gp,-24(sp)

000000008000afc4 <i_10836>:
    8000afc4:	00108093          	addi	ra,ra,1 # 6aad5001 <main-0x1552afff>
    8000afc8:	fe30c6e3          	blt	ra,gp,8000afb4 <i_10832>

000000008000afcc <i_10837>:
    8000afcc:	1b110803          	lb	a6,433(sp)

000000008000afd0 <i_10838>:
    8000afd0:	0bb10183          	lb	gp,187(sp)

000000008000afd4 <i_10839>:
    8000afd4:	417809b3          	sub	s3,a6,s7

000000008000afd8 <i_10840>:
    8000afd8:	00411183          	lh	gp,4(sp)

000000008000afdc <i_10841>:
    8000afdc:	0621b193          	sltiu	gp,gp,98

000000008000afe0 <i_10842>:
    8000afe0:	11314983          	lbu	s3,275(sp)

000000008000afe4 <i_10843>:
    8000afe4:	003ada93          	srli	s5,s5,0x3

000000008000afe8 <i_10844>:
    8000afe8:	19213423          	sd	s2,392(sp)

000000008000afec <i_10845>:
    8000afec:	00b00e93          	li	t4,11

000000008000aff0 <i_10846>:
    8000aff0:	01da923b          	sllw	tp,s5,t4

000000008000aff4 <i_10847>:
    8000aff4:	ec710283          	lb	t0,-313(sp)

000000008000aff8 <i_10848>:
    8000aff8:	01bdb9b3          	sltu	s3,s11,s11

000000008000affc <i_10849>:
    8000affc:	02e797b3          	mulh	a5,a5,a4

000000008000b000 <i_10850>:
    8000b000:	73800213          	li	tp,1848

000000008000b004 <i_10851>:
    8000b004:	74100d93          	li	s11,1857

000000008000b008 <i_10852>:
    8000b008:	2e29b393          	sltiu	t2,s3,738

000000008000b00c <i_10853>:
    8000b00c:	1d110c23          	sb	a7,472(sp)

000000008000b010 <i_10854>:
    8000b010:	0277f7bb          	remuw	a5,a5,t2

000000008000b014 <i_10855>:
    8000b014:	00120213          	addi	tp,tp,1 # 1 <main-0x7fffffff>
    8000b018:	ffb268e3          	bltu	tp,s11,8000b008 <i_10852>

000000008000b01c <i_10856>:
    8000b01c:	02f7c463          	blt	a5,a5,8000b044 <i_10866>

000000008000b020 <i_10857>:
    8000b020:	0031579b          	srliw	a5,sp,0x3

000000008000b024 <i_10858>:
    8000b024:	ffd14c83          	lbu	s9,-3(sp)

000000008000b028 <i_10859>:
    8000b028:	aefcac93          	slti	s9,s9,-1297

000000008000b02c <i_10860>:
    8000b02c:	f0f11723          	sh	a5,-242(sp)

000000008000b030 <i_10861>:
    8000b030:	10f10323          	sb	a5,262(sp)

000000008000b034 <i_10862>:
    8000b034:	f7912623          	sw	s9,-148(sp)

000000008000b038 <i_10863>:
    8000b038:	0087c633          	xor	a2,a5,s0

000000008000b03c <i_10864>:
    8000b03c:	08314183          	lbu	gp,131(sp)

000000008000b040 <i_10865>:
    8000b040:	13510823          	sb	s5,304(sp)

000000008000b044 <i_10866>:
    8000b044:	f8813e83          	ld	t4,-120(sp)

000000008000b048 <i_10867>:
    8000b048:	00000013          	nop

000000008000b04c <i_10868>:
    8000b04c:	74500393          	li	t2,1861

000000008000b050 <i_10869>:
    8000b050:	74f00793          	li	a5,1871

000000008000b054 <i_10870>:
    8000b054:	03919cb3          	mulh	s9,gp,s9

000000008000b058 <i_10871>:
    8000b058:	e0f10e23          	sb	a5,-484(sp)

000000008000b05c <i_10872>:
    8000b05c:	02fc8663          	beq	s9,a5,8000b088 <i_10882>

000000008000b060 <i_10873>:
    8000b060:	e8c12023          	sw	a2,-384(sp)

000000008000b064 <i_10874>:
    8000b064:	03d7dc33          	divu	s8,a5,t4

000000008000b068 <i_10875>:
    8000b068:	fb816c03          	lwu	s8,-72(sp)

000000008000b06c <i_10876>:
    8000b06c:	03978263          	beq	a5,s9,8000b090 <i_10884>

000000008000b070 <i_10877>:
    8000b070:	00138393          	addi	t2,t2,1
    8000b074:	fe77d0e3          	ble	t2,a5,8000b054 <i_10870>

000000008000b078 <i_10878>:
    8000b078:	6b686c93          	ori	s9,a6,1718

000000008000b07c <i_10879>:
    8000b07c:	01812a23          	sw	s8,20(sp)

000000008000b080 <i_10880>:
    8000b080:	00800813          	li	a6,8

000000008000b084 <i_10881>:
    8000b084:	010c9cb3          	sll	s9,s9,a6

000000008000b088 <i_10882>:
    8000b088:	03084063          	blt	a6,a6,8000b0a8 <i_10890>

000000008000b08c <i_10883>:
    8000b08c:	fc211803          	lh	a6,-62(sp)

000000008000b090 <i_10884>:
    8000b090:	07012223          	sw	a6,100(sp)

000000008000b094 <i_10885>:
    8000b094:	039cdeb3          	divu	t4,s9,s9

000000008000b098 <i_10886>:
    8000b098:	f5252cb7          	lui	s9,0xf5252

000000008000b09c <i_10887>:
    8000b09c:	f9d10023          	sb	t4,-128(sp)

000000008000b0a0 <i_10888>:
    8000b0a0:	eaa15c83          	lhu	s9,-342(sp)

000000008000b0a4 <i_10889>:
    8000b0a4:	01086863          	bltu	a6,a6,8000b0b4 <i_10893>

000000008000b0a8 <i_10890>:
    8000b0a8:	f0013a03          	ld	s4,-256(sp)

000000008000b0ac <i_10891>:
    8000b0ac:	034e5e3b          	divuw	t3,t3,s4

000000008000b0b0 <i_10892>:
    8000b0b0:	01c84e63          	blt	a6,t3,8000b0cc <i_10899>

000000008000b0b4 <i_10893>:
    8000b0b4:	ed412e23          	sw	s4,-292(sp)

000000008000b0b8 <i_10894>:
    8000b0b8:	fab14c83          	lbu	s9,-85(sp)

000000008000b0bc <i_10895>:
    8000b0bc:	014cf463          	bleu	s4,s9,8000b0c4 <i_10897>

000000008000b0c0 <i_10896>:
    8000b0c0:	11911823          	sh	s9,272(sp)

000000008000b0c4 <i_10897>:
    8000b0c4:	039e4e33          	div	t3,t3,s9

000000008000b0c8 <i_10898>:
    8000b0c8:	6c8e809b          	addiw	ra,t4,1736

000000008000b0cc <i_10899>:
    8000b0cc:	f0910083          	lb	ra,-247(sp)

000000008000b0d0 <i_10900>:
    8000b0d0:	0a811e03          	lh	t3,168(sp)

000000008000b0d4 <i_10901>:
    8000b0d4:	01969263          	bne	a3,s9,8000b0d8 <i_10902>

000000008000b0d8 <i_10902>:
    8000b0d8:	0fe10383          	lb	t2,254(sp)

000000008000b0dc <i_10903>:
    8000b0dc:	007989b3          	add	s3,s3,t2

000000008000b0e0 <i_10904>:
    8000b0e0:	0300be33          	mulhu	t3,ra,a6

000000008000b0e4 <i_10905>:
    8000b0e4:	15013023          	sd	a6,320(sp)

000000008000b0e8 <i_10906>:
    8000b0e8:	08a15083          	lhu	ra,138(sp)

000000008000b0ec <i_10907>:
    8000b0ec:	e8711a23          	sh	t2,-364(sp)

000000008000b0f0 <i_10908>:
    8000b0f0:	0d012a23          	sw	a6,212(sp)

000000008000b0f4 <i_10909>:
    8000b0f4:	e9015983          	lhu	s3,-368(sp)

000000008000b0f8 <i_10910>:
    8000b0f8:	14a12423          	sw	a0,328(sp)

000000008000b0fc <i_10911>:
    8000b0fc:	033a4463          	blt	s4,s3,8000b124 <i_10921>

000000008000b100 <i_10912>:
    8000b100:	03416783          	lwu	a5,52(sp)

000000008000b104 <i_10913>:
    8000b104:	e9311223          	sh	s3,-380(sp)

000000008000b108 <i_10914>:
    8000b108:	17a14783          	lbu	a5,378(sp)

000000008000b10c <i_10915>:
    8000b10c:	013c79b3          	and	s3,s8,s3

000000008000b110 <i_10916>:
    8000b110:	1af12e23          	sw	a5,444(sp)

000000008000b114 <i_10917>:
    8000b114:	e2e12823          	sw	a4,-464(sp)

000000008000b118 <i_10918>:
    8000b118:	00000013          	nop

000000008000b11c <i_10919>:
    8000b11c:	19813503          	ld	a0,408(sp)

000000008000b120 <i_10920>:
    8000b120:	11615503          	lhu	a0,278(sp)

000000008000b124 <i_10921>:
    8000b124:	14f13023          	sd	a5,320(sp)

000000008000b128 <i_10922>:
    8000b128:	00000013          	nop

000000008000b12c <i_10923>:
    8000b12c:	77000093          	li	ra,1904

000000008000b130 <i_10924>:
    8000b130:	77c00a13          	li	s4,1916

000000008000b134 <i_10925>:
    8000b134:	07814503          	lbu	a0,120(sp)

000000008000b138 <i_10926>:
    8000b138:	00108093          	addi	ra,ra,1
    8000b13c:	ff40cce3          	blt	ra,s4,8000b134 <i_10925>

000000008000b140 <i_10927>:
    8000b140:	00a76533          	or	a0,a4,a0

000000008000b144 <i_10928>:
    8000b144:	0265553b          	divuw	a0,a0,t1

000000008000b148 <i_10929>:
    8000b148:	fca11803          	lh	a6,-54(sp)

000000008000b14c <i_10930>:
    8000b14c:	002ddd9b          	srliw	s11,s11,0x2

000000008000b150 <i_10931>:
    8000b150:	eaa11923          	sh	a0,-334(sp)

000000008000b154 <i_10932>:
    8000b154:	0013d51b          	srliw	a0,t2,0x1

000000008000b158 <i_10933>:
    8000b158:	ff012823          	sw	a6,-16(sp)

000000008000b15c <i_10934>:
    8000b15c:	00ade463          	bltu	s11,a0,8000b164 <i_10936>

000000008000b160 <i_10935>:
    8000b160:	02a1c463          	blt	gp,a0,8000b188 <i_10945>

000000008000b164 <i_10936>:
    8000b164:	11b101a3          	sb	s11,259(sp)

000000008000b168 <i_10937>:
    8000b168:	01253eb3          	sltu	t4,a0,s2

000000008000b16c <i_10938>:
    8000b16c:	09013023          	sd	a6,128(sp)

000000008000b170 <i_10939>:
    8000b170:	ed714e83          	lbu	t4,-297(sp)

000000008000b174 <i_10940>:
    8000b174:	08214303          	lbu	t1,130(sp)

000000008000b178 <i_10941>:
    8000b178:	12911123          	sh	s1,290(sp)

000000008000b17c <i_10942>:
    8000b17c:	ffc12e83          	lw	t4,-4(sp)

000000008000b180 <i_10943>:
    8000b180:	00436233          	or	tp,t1,tp

000000008000b184 <i_10944>:
    8000b184:	00800213          	li	tp,8

000000008000b188 <i_10945>:
    8000b188:	004ed33b          	srlw	t1,t4,tp

000000008000b18c <i_10946>:
    8000b18c:	fe410f23          	sb	tp,-2(sp)

000000008000b190 <i_10947>:
    8000b190:	f0816e83          	lwu	t4,-248(sp)

000000008000b194 <i_10948>:
    8000b194:	02600593          	li	a1,38

000000008000b198 <i_10949>:
    8000b198:	00b5d5b3          	srl	a1,a1,a1

000000008000b19c <i_10950>:
    8000b19c:	00bce663          	bltu	s9,a1,8000b1a8 <i_10953>

000000008000b1a0 <i_10951>:
    8000b1a0:	02b21063          	bne	tp,a1,8000b1c0 <i_10959>

000000008000b1a4 <i_10952>:
    8000b1a4:	02b0d3bb          	divuw	t2,ra,a1

000000008000b1a8 <i_10953>:
    8000b1a8:	1dc12e03          	lw	t3,476(sp)

000000008000b1ac <i_10954>:
    8000b1ac:	007e65b3          	or	a1,t3,t2

000000008000b1b0 <i_10955>:
    8000b1b0:	03a3d263          	ble	s10,t2,8000b1d4 <i_10964>

000000008000b1b4 <i_10956>:
    8000b1b4:	01cdfe63          	bleu	t3,s11,8000b1d0 <i_10963>

000000008000b1b8 <i_10957>:
    8000b1b8:	18b12c23          	sw	a1,408(sp)

000000008000b1bc <i_10958>:
    8000b1bc:	03cc9263          	bne	s9,t3,8000b1e0 <i_10967>

000000008000b1c0 <i_10959>:
    8000b1c0:	2bf3cc93          	xori	s9,t2,703

000000008000b1c4 <i_10960>:
    8000b1c4:	00000013          	nop

000000008000b1c8 <i_10961>:
    8000b1c8:	f67107a3          	sb	t2,-145(sp)

000000008000b1cc <i_10962>:
    8000b1cc:	00000013          	nop

000000008000b1d0 <i_10963>:
    8000b1d0:	ecb11823          	sh	a1,-304(sp)

000000008000b1d4 <i_10964>:
    8000b1d4:	bc85ee13          	ori	t3,a1,-1080

000000008000b1d8 <i_10965>:
    8000b1d8:	00000013          	nop

000000008000b1dc <i_10966>:
    8000b1dc:	1f013023          	sd	a6,480(sp)

000000008000b1e0 <i_10967>:
    8000b1e0:	1f012023          	sw	a6,480(sp)

000000008000b1e4 <i_10968>:
    8000b1e4:	01d00593          	li	a1,29

000000008000b1e8 <i_10969>:
    8000b1e8:	00b855bb          	srlw	a1,a6,a1

000000008000b1ec <i_10970>:
    8000b1ec:	75800093          	li	ra,1880

000000008000b1f0 <i_10971>:
    8000b1f0:	76800813          	li	a6,1896

000000008000b1f4 <i_10972>:
    8000b1f4:	0b015383          	lhu	t2,176(sp)

000000008000b1f8 <i_10973>:
    8000b1f8:	19011523          	sh	a6,394(sp)

000000008000b1fc <i_10974>:
    8000b1fc:	00259a93          	slli	s5,a1,0x2

000000008000b200 <i_10975>:
    8000b200:	bb53839b          	addiw	t2,t2,-1099

000000008000b204 <i_10976>:
    8000b204:	add0ed93          	ori	s11,ra,-1315

000000008000b208 <i_10977>:
    8000b208:	f4112023          	sw	ra,-192(sp)

000000008000b20c <i_10978>:
    8000b20c:	1cc14283          	lbu	t0,460(sp)

000000008000b210 <i_10979>:
    8000b210:	04b13423          	sd	a1,72(sp)

000000008000b214 <i_10980>:
    8000b214:	00108093          	addi	ra,ra,1
    8000b218:	fc181ce3          	bne	a6,ra,8000b1f0 <i_10971>

000000008000b21c <i_10981>:
    8000b21c:	03b28dbb          	mulw	s11,t0,s11

000000008000b220 <i_10982>:
    8000b220:	015a8cb3          	add	s9,s5,s5

000000008000b224 <i_10983>:
    8000b224:	404dda13          	srai	s4,s11,0x4

000000008000b228 <i_10984>:
    8000b228:	06810983          	lb	s3,104(sp)

000000008000b22c <i_10985>:
    8000b22c:	0213553b          	divuw	a0,t1,ra

000000008000b230 <i_10986>:
    8000b230:	01600313          	li	t1,22

000000008000b234 <i_10987>:
    8000b234:	006f93bb          	sllw	t2,t6,t1

000000008000b238 <i_10988>:
    8000b238:	e6816303          	lwu	t1,-408(sp)

000000008000b23c <i_10989>:
    8000b23c:	01200e93          	li	t4,18

000000008000b240 <i_10990>:
    8000b240:	01d3d3b3          	srl	t2,t2,t4

000000008000b244 <i_10991>:
    8000b244:	7ea00793          	li	a5,2026

000000008000b248 <i_10992>:
    8000b248:	7f500193          	li	gp,2037

000000008000b24c <i_10993>:
    8000b24c:	14814c83          	lbu	s9,328(sp)

000000008000b250 <i_10994>:
    8000b250:	fcf11623          	sh	a5,-52(sp)

000000008000b254 <i_10995>:
    8000b254:	01a00c13          	li	s8,26

000000008000b258 <i_10996>:
    8000b258:	01831233          	sll	tp,t1,s8

000000008000b25c <i_10997>:
    8000b25c:	1c513423          	sd	t0,456(sp)

000000008000b260 <i_10998>:
    8000b260:	00000013          	nop

000000008000b264 <i_10999>:
    8000b264:	00178793          	addi	a5,a5,1 # 86fd001 <main-0x77902fff>
    8000b268:	fef1d2e3          	ble	a5,gp,8000b24c <i_10993>

000000008000b26c <i_11000>:
    8000b26c:	1c710ca3          	sb	t2,473(sp)

000000008000b270 <i_11001>:
    8000b270:	02f205bb          	mulw	a1,tp,a5

000000008000b274 <i_11002>:
    8000b274:	03d39463          	bne	t2,t4,8000b29c <i_11012>

000000008000b278 <i_11003>:
    8000b278:	03d00e93          	li	t4,61

000000008000b27c <i_11004>:
    8000b27c:	01d3d5b3          	srl	a1,t2,t4

000000008000b280 <i_11005>:
    8000b280:	03d5eebb          	remw	t4,a1,t4

000000008000b284 <i_11006>:
    8000b284:	1da11c23          	sh	s10,472(sp)

000000008000b288 <i_11007>:
    8000b288:	fb015b83          	lhu	s7,-80(sp)

000000008000b28c <i_11008>:
    8000b28c:	6dae8093          	addi	ra,t4,1754

000000008000b290 <i_11009>:
    8000b290:	00d5e263          	bltu	a1,a3,8000b294 <i_11010>

000000008000b294 <i_11010>:
    8000b294:	f8e10c03          	lb	s8,-114(sp)

000000008000b298 <i_11011>:
    8000b298:	10111f23          	sh	ra,286(sp)

000000008000b29c <i_11012>:
    8000b29c:	00124a63          	blt	tp,ra,8000b2b0 <i_11017>

000000008000b2a0 <i_11013>:
    8000b2a0:	0370f5bb          	remuw	a1,ra,s7

000000008000b2a4 <i_11014>:
    8000b2a4:	02400193          	li	gp,36

000000008000b2a8 <i_11015>:
    8000b2a8:	00321633          	sll	a2,tp,gp

000000008000b2ac <i_11016>:
    8000b2ac:	19813023          	sd	s8,384(sp)

000000008000b2b0 <i_11017>:
    8000b2b0:	0ece899b          	addiw	s3,t4,236

000000008000b2b4 <i_11018>:
    8000b2b4:	e0410c23          	sb	tp,-488(sp)

000000008000b2b8 <i_11019>:
    8000b2b8:	11611603          	lh	a2,278(sp)

000000008000b2bc <i_11020>:
    8000b2bc:	0f412e83          	lw	t4,244(sp)

000000008000b2c0 <i_11021>:
    8000b2c0:	0331853b          	mulw	a0,gp,s3

000000008000b2c4 <i_11022>:
    8000b2c4:	013e9863          	bne	t4,s3,8000b2d4 <i_11026>

000000008000b2c8 <i_11023>:
    8000b2c8:	f4d14983          	lbu	s3,-179(sp)

000000008000b2cc <i_11024>:
    8000b2cc:	413a8ebb          	subw	t4,s5,s3

000000008000b2d0 <i_11025>:
    8000b2d0:	00811e83          	lh	t4,8(sp)

000000008000b2d4 <i_11026>:
    8000b2d4:	40a383b3          	sub	t2,t2,a0

000000008000b2d8 <i_11027>:
    8000b2d8:	01356463          	bltu	a0,s3,8000b2e0 <i_11029>

000000008000b2dc <i_11028>:
    8000b2dc:	f1611503          	lh	a0,-234(sp)

000000008000b2e0 <i_11029>:
    8000b2e0:	40a080b3          	sub	ra,ra,a0

000000008000b2e4 <i_11030>:
    8000b2e4:	00c00613          	li	a2,12

000000008000b2e8 <i_11031>:
    8000b2e8:	00c0d53b          	srlw	a0,ra,a2

000000008000b2ec <i_11032>:
    8000b2ec:	f6454093          	xori	ra,a0,-156

000000008000b2f0 <i_11033>:
    8000b2f0:	eaa12423          	sw	a0,-344(sp)

000000008000b2f4 <i_11034>:
    8000b2f4:	00a585b3          	add	a1,a1,a0

000000008000b2f8 <i_11035>:
    8000b2f8:	0020d613          	srli	a2,ra,0x2

000000008000b2fc <i_11036>:
    8000b2fc:	00000013          	nop

000000008000b300 <i_11037>:
    8000b300:	021590b3          	mulh	ra,a1,ra

000000008000b304 <i_11038>:
    8000b304:	75200793          	li	a5,1874

000000008000b308 <i_11039>:
    8000b308:	75f00613          	li	a2,1887

000000008000b30c <i_11040>:
    8000b30c:	18013083          	ld	ra,384(sp)

000000008000b310 <i_11041>:
    8000b310:	021afab3          	remu	s5,s5,ra

000000008000b314 <i_11042>:
    8000b314:	00000013          	nop

000000008000b318 <i_11043>:
    8000b318:	001ada93          	srli	s5,s5,0x1

000000008000b31c <i_11044>:
    8000b31c:	0150fe63          	bleu	s5,ra,8000b338 <i_11050>

000000008000b320 <i_11045>:
    8000b320:	03535263          	ble	s5,t1,8000b344 <i_11053>

000000008000b324 <i_11046>:
    8000b324:	00178793          	addi	a5,a5,1
    8000b328:	fef612e3          	bne	a2,a5,8000b30c <i_11040>

000000008000b32c <i_11047>:
    8000b32c:	001fe663          	bltu	t6,ra,8000b338 <i_11050>

000000008000b330 <i_11048>:
    8000b330:	02f79063          	bne	a5,a5,8000b350 <i_11056>

000000008000b334 <i_11049>:
    8000b334:	01b00493          	li	s1,27

000000008000b338 <i_11050>:
    8000b338:	009a9bbb          	sllw	s7,s5,s1

000000008000b33c <i_11051>:
    8000b33c:	eb011d23          	sh	a6,-326(sp)

000000008000b340 <i_11052>:
    8000b340:	03b85833          	divu	a6,a6,s11

000000008000b344 <i_11053>:
    8000b344:	03812803          	lw	a6,56(sp)

000000008000b348 <i_11054>:
    8000b348:	00000013          	nop

000000008000b34c <i_11055>:
    8000b34c:	36648493          	addi	s1,s1,870

000000008000b350 <i_11056>:
    8000b350:	f4c10283          	lb	t0,-180(sp)

000000008000b354 <i_11057>:
    8000b354:	19813283          	ld	t0,408(sp)

000000008000b358 <i_11058>:
    8000b358:	74e00093          	li	ra,1870

000000008000b35c <i_11059>:
    8000b35c:	75100a93          	li	s5,1873

000000008000b360 <i_11060>:
    8000b360:	018c0c33          	add	s8,s8,s8

000000008000b364 <i_11061>:
    8000b364:	05011483          	lh	s1,80(sp)

000000008000b368 <i_11062>:
    8000b368:	005787b3          	add	a5,a5,t0

000000008000b36c <i_11063>:
    8000b36c:	00108093          	addi	ra,ra,1
    8000b370:	ff50c8e3          	blt	ra,s5,8000b360 <i_11060>

000000008000b374 <i_11064>:
    8000b374:	025a5263          	ble	t0,s4,8000b398 <i_11073>

000000008000b378 <i_11065>:
    8000b378:	eca11583          	lh	a1,-310(sp)

000000008000b37c <i_11066>:
    8000b37c:	eb011c03          	lh	s8,-336(sp)

000000008000b380 <i_11067>:
    8000b380:	005c7a63          	bleu	t0,s8,8000b394 <i_11072>

000000008000b384 <i_11068>:
    8000b384:	10a11a03          	lh	s4,266(sp)

000000008000b388 <i_11069>:
    8000b388:	00f29c63          	bne	t0,a5,8000b3a0 <i_11075>

000000008000b38c <i_11070>:
    8000b38c:	13813603          	ld	a2,312(sp)

000000008000b390 <i_11071>:
    8000b390:	02957063          	bleu	s1,a0,8000b3b0 <i_11079>

000000008000b394 <i_11072>:
    8000b394:	02f797b3          	mulh	a5,a5,a5

000000008000b398 <i_11073>:
    8000b398:	00478263          	beq	a5,tp,8000b39c <i_11074>

000000008000b39c <i_11074>:
    8000b39c:	00461c9b          	slliw	s9,a2,0x4

000000008000b3a0 <i_11075>:
    8000b3a0:	f5c16483          	lwu	s1,-164(sp)

000000008000b3a4 <i_11076>:
    8000b3a4:	003a6663          	bltu	s4,gp,8000b3b0 <i_11079>

000000008000b3a8 <i_11077>:
    8000b3a8:	1ec10123          	sb	a2,482(sp)

000000008000b3ac <i_11078>:
    8000b3ac:	009c8c63          	beq	s9,s1,8000b3c4 <i_11084>

000000008000b3b0 <i_11079>:
    8000b3b0:	fe310483          	lb	s1,-29(sp)

000000008000b3b4 <i_11080>:
    8000b3b4:	0294b4b3          	mulhu	s1,s1,s1

000000008000b3b8 <i_11081>:
    8000b3b8:	0294d063          	ble	s1,s1,8000b3d8 <i_11089>

000000008000b3bc <i_11082>:
    8000b3bc:	0d813483          	ld	s1,216(sp)

000000008000b3c0 <i_11083>:
    8000b3c0:	02c4b633          	mulhu	a2,s1,a2

000000008000b3c4 <i_11084>:
    8000b3c4:	17e4cd93          	xori	s11,s1,382

000000008000b3c8 <i_11085>:
    8000b3c8:	00300093          	li	ra,3

000000008000b3cc <i_11086>:
    8000b3cc:	4018d53b          	sraw	a0,a7,ra

000000008000b3d0 <i_11087>:
    8000b3d0:	00a95a63          	ble	a0,s2,8000b3e4 <i_11092>

000000008000b3d4 <i_11088>:
    8000b3d4:	001d5513          	srli	a0,s10,0x1

000000008000b3d8 <i_11089>:
    8000b3d8:	00a16333          	or	t1,sp,a0

000000008000b3dc <i_11090>:
    8000b3dc:	03400a13          	li	s4,52

000000008000b3e0 <i_11091>:
    8000b3e0:	414555b3          	sra	a1,a0,s4

000000008000b3e4 <i_11092>:
    8000b3e4:	00b09263          	bne	ra,a1,8000b3e8 <i_11093>

000000008000b3e8 <i_11093>:
    8000b3e8:	00800e13          	li	t3,8

000000008000b3ec <i_11094>:
    8000b3ec:	01c255b3          	srl	a1,tp,t3

000000008000b3f0 <i_11095>:
    8000b3f0:	40455213          	srai	tp,a0,0x4

000000008000b3f4 <i_11096>:
    8000b3f4:	f2a11223          	sh	a0,-220(sp)

000000008000b3f8 <i_11097>:
    8000b3f8:	75300e13          	li	t3,1875

000000008000b3fc <i_11098>:
    8000b3fc:	75700493          	li	s1,1879

000000008000b400 <i_11099>:
    8000b400:	08c15e83          	lhu	t4,140(sp)

000000008000b404 <i_11100>:
    8000b404:	03d58263          	beq	a1,t4,8000b428 <i_11108>

000000008000b408 <i_11101>:
    8000b408:	00000013          	nop

000000008000b40c <i_11102>:
    8000b40c:	fd411423          	sh	s4,-56(sp)

000000008000b410 <i_11103>:
    8000b410:	001e0e13          	addi	t3,t3,1 # 1c138001 <main-0x63ec7fff>
    8000b414:	fe9e46e3          	blt	t3,s1,8000b400 <i_11099>

000000008000b418 <i_11104>:
    8000b418:	f3211803          	lh	a6,-206(sp)

000000008000b41c <i_11105>:
    8000b41c:	e5c11a03          	lh	s4,-420(sp)

000000008000b420 <i_11106>:
    8000b420:	03d85463          	ble	t4,a6,8000b448 <i_11116>

000000008000b424 <i_11107>:
    8000b424:	fc812e83          	lw	t4,-56(sp)

000000008000b428 <i_11108>:
    8000b428:	02add53b          	divuw	a0,s11,a0

000000008000b42c <i_11109>:
    8000b42c:	ea016503          	lwu	a0,-352(sp)

000000008000b430 <i_11110>:
    8000b430:	ff412c03          	lw	s8,-12(sp)

000000008000b434 <i_11111>:
    8000b434:	00aa5463          	ble	a0,s4,8000b43c <i_11113>

000000008000b438 <i_11112>:
    8000b438:	01854e63          	blt	a0,s8,8000b454 <i_11119>

000000008000b43c <i_11113>:
    8000b43c:	018dec63          	bltu	s11,s8,8000b454 <i_11119>

000000008000b440 <i_11114>:
    8000b440:	00f00093          	li	ra,15

000000008000b444 <i_11115>:
    8000b444:	401a5cb3          	sra	s9,s4,ra

000000008000b448 <i_11116>:
    8000b448:	00b00293          	li	t0,11

000000008000b44c <i_11117>:
    8000b44c:	00509833          	sll	a6,ra,t0

000000008000b450 <i_11118>:
    8000b450:	fe813c83          	ld	s9,-24(sp)

000000008000b454 <i_11119>:
    8000b454:	01986863          	bltu	a6,s9,8000b464 <i_11123>

000000008000b458 <i_11120>:
    8000b458:	03be6e3b          	remw	t3,t3,s11

000000008000b45c <i_11121>:
    8000b45c:	e5911e23          	sh	s9,-420(sp)

000000008000b460 <i_11122>:
    8000b460:	010e7463          	bleu	a6,t3,8000b468 <i_11124>

000000008000b464 <i_11123>:
    8000b464:	019eaeb3          	slt	t4,t4,s9

000000008000b468 <i_11124>:
    8000b468:	41de083b          	subw	a6,t3,t4

000000008000b46c <i_11125>:
    8000b46c:	f3415e03          	lhu	t3,-204(sp)

000000008000b470 <i_11126>:
    8000b470:	017e7cb3          	and	s9,t3,s7

000000008000b474 <i_11127>:
    8000b474:	01086e63          	bltu	a6,a6,8000b490 <i_11134>

000000008000b478 <i_11128>:
    8000b478:	d2580313          	addi	t1,a6,-731 # ea3b2a0d <_end+0x6a3a25f9>

000000008000b47c <i_11129>:
    8000b47c:	0101ea63          	bltu	gp,a6,8000b490 <i_11134>

000000008000b480 <i_11130>:
    8000b480:	026c9463          	bne	s9,t1,8000b4a8 <i_11140>

000000008000b484 <i_11131>:
    8000b484:	9edeec13          	ori	s8,t4,-1555

000000008000b488 <i_11132>:
    8000b488:	0fd11423          	sh	t4,232(sp)

000000008000b48c <i_11133>:
    8000b48c:	01de6e63          	bltu	t3,t4,8000b4a8 <i_11140>

000000008000b490 <i_11134>:
    8000b490:	f4612223          	sw	t1,-188(sp)

000000008000b494 <i_11135>:
    8000b494:	03ccceb3          	div	t4,s9,t3

000000008000b498 <i_11136>:
    8000b498:	00000013          	nop

000000008000b49c <i_11137>:
    8000b49c:	13c11823          	sh	t3,304(sp)

000000008000b4a0 <i_11138>:
    8000b4a0:	f9d12a23          	sw	t4,-108(sp)

000000008000b4a4 <i_11139>:
    8000b4a4:	003e1c93          	slli	s9,t3,0x3

000000008000b4a8 <i_11140>:
    8000b4a8:	00000013          	nop

000000008000b4ac <i_11141>:
    8000b4ac:	f5c13423          	sd	t3,-184(sp)

000000008000b4b0 <i_11142>:
    8000b4b0:	7b000593          	li	a1,1968

000000008000b4b4 <i_11143>:
    8000b4b4:	7b600e13          	li	t3,1974

000000008000b4b8 <i_11144>:
    8000b4b8:	019cbcb3          	sltu	s9,s9,s9

000000008000b4bc <i_11145>:
    8000b4bc:	e3815c83          	lhu	s9,-456(sp)

000000008000b4c0 <i_11146>:
    8000b4c0:	00000013          	nop

000000008000b4c4 <i_11147>:
    8000b4c4:	025cd263          	ble	t0,s9,8000b4e8 <i_11155>

000000008000b4c8 <i_11148>:
    8000b4c8:	416c8533          	sub	a0,s9,s6

000000008000b4cc <i_11149>:
    8000b4cc:	e2a12023          	sw	a0,-480(sp)

000000008000b4d0 <i_11150>:
    8000b4d0:	f0a15c83          	lhu	s9,-246(sp)

000000008000b4d4 <i_11151>:
    8000b4d4:	00158593          	addi	a1,a1,1 # fffffffffbe12001 <_end+0xffffffff7be01bed>
    8000b4d8:	ffc590e3          	bne	a1,t3,8000b4b8 <i_11144>

000000008000b4dc <i_11152>:
    8000b4dc:	039cf463          	bleu	s9,s9,8000b504 <i_11162>

000000008000b4e0 <i_11153>:
    8000b4e0:	00a52533          	slt	a0,a0,a0

000000008000b4e4 <i_11154>:
    8000b4e4:	08ac6a13          	ori	s4,s8,138

000000008000b4e8 <i_11155>:
    8000b4e8:	02d00093          	li	ra,45

000000008000b4ec <i_11156>:
    8000b4ec:	00151533          	sll	a0,a0,ra

000000008000b4f0 <i_11157>:
    8000b4f0:	00a2ce63          	blt	t0,a0,8000b50c <i_11164>

000000008000b4f4 <i_11158>:
    8000b4f4:	00a0ec63          	bltu	ra,a0,8000b50c <i_11164>

000000008000b4f8 <i_11159>:
    8000b4f8:	00451513          	slli	a0,a0,0x4

000000008000b4fc <i_11160>:
    8000b4fc:	019a0463          	beq	s4,s9,8000b504 <i_11162>

000000008000b500 <i_11161>:
    8000b500:	09a11503          	lh	a0,154(sp)

000000008000b504 <i_11162>:
    8000b504:	00000013          	nop

000000008000b508 <i_11163>:
    8000b508:	e3816503          	lwu	a0,-456(sp)

000000008000b50c <i_11164>:
    8000b50c:	e5413823          	sd	s4,-432(sp)

000000008000b510 <i_11165>:
    8000b510:	04613023          	sd	t1,64(sp)

000000008000b514 <i_11166>:
    8000b514:	7c100c13          	li	s8,1985

000000008000b518 <i_11167>:
    8000b518:	7c600493          	li	s1,1990

000000008000b51c <i_11168>:
    8000b51c:	4025551b          	sraiw	a0,a0,0x2

000000008000b520 <i_11169>:
    8000b520:	0015109b          	slliw	ra,a0,0x1

000000008000b524 <i_11170>:
    8000b524:	00a3de63          	ble	a0,t2,8000b540 <i_11176>

000000008000b528 <i_11171>:
    8000b528:	13016503          	lwu	a0,304(sp)

000000008000b52c <i_11172>:
    8000b52c:	001c0c13          	addi	s8,s8,1 # 7096a001 <main-0xf695fff>
    8000b530:	fe9c46e3          	blt	s8,s1,8000b51c <i_11168>

000000008000b534 <i_11173>:
    8000b534:	033349bb          	divw	s3,t1,s3

000000008000b538 <i_11174>:
    8000b538:	fc613423          	sd	t1,-56(sp)

000000008000b53c <i_11175>:
    8000b53c:	0019d993          	srli	s3,s3,0x1

000000008000b540 <i_11176>:
    8000b540:	02c16303          	lwu	t1,44(sp)

000000008000b544 <i_11177>:
    8000b544:	4109883b          	subw	a6,s3,a6

000000008000b548 <i_11178>:
    8000b548:	e9813403          	ld	s0,-360(sp)

000000008000b54c <i_11179>:
    8000b54c:	16710b23          	sb	t2,374(sp)

000000008000b550 <i_11180>:
    8000b550:	02845463          	ble	s0,s0,8000b578 <i_11190>

000000008000b554 <i_11181>:
    8000b554:	0c811a23          	sh	s0,212(sp)

000000008000b558 <i_11182>:
    8000b558:	00a00413          	li	s0,10

000000008000b55c <i_11183>:
    8000b55c:	4084543b          	sraw	s0,s0,s0

000000008000b560 <i_11184>:
    8000b560:	00846c33          	or	s8,s0,s0

000000008000b564 <i_11185>:
    8000b564:	f9c16803          	lwu	a6,-100(sp)

000000008000b568 <i_11186>:
    8000b568:	00000013          	nop

000000008000b56c <i_11187>:
    8000b56c:	4b5cdb97          	auipc	s7,0x4b5cd

000000008000b570 <i_11188>:
    8000b570:	03dc733b          	remuw	t1,s8,t4

000000008000b574 <i_11189>:
    8000b574:	0b813a83          	ld	s5,184(sp)

000000008000b578 <i_11190>:
    8000b578:	027a7e3b          	remuw	t3,s4,t2

000000008000b57c <i_11191>:
    8000b57c:	4024519b          	sraiw	gp,s0,0x2

000000008000b580 <i_11192>:
    8000b580:	84b00393          	li	t2,-1973

000000008000b584 <i_11193>:
    8000b584:	85400e93          	li	t4,-1964

000000008000b588 <i_11194>:
    8000b588:	19513423          	sd	s5,392(sp)

000000008000b58c <i_11195>:
    8000b58c:	f1215403          	lhu	s0,-238(sp)

000000008000b590 <i_11196>:
    8000b590:	8801c813          	xori	a6,gp,-1920

000000008000b594 <i_11197>:
    8000b594:	00000013          	nop

000000008000b598 <i_11198>:
    8000b598:	f3012483          	lw	s1,-208(sp)

000000008000b59c <i_11199>:
    8000b59c:	00000013          	nop

000000008000b5a0 <i_11200>:
    8000b5a0:	00138393          	addi	t2,t2,1
    8000b5a4:	ffd392e3          	bne	t2,t4,8000b588 <i_11194>

000000008000b5a8 <i_11201>:
    8000b5a8:	0c816e83          	lwu	t4,200(sp)

000000008000b5ac <i_11202>:
    8000b5ac:	01d19263          	bne	gp,t4,8000b5b0 <i_11203>

000000008000b5b0 <i_11203>:
    8000b5b0:	05412183          	lw	gp,84(sp)

000000008000b5b4 <i_11204>:
    8000b5b4:	02dc11b3          	mulh	gp,s8,a3

000000008000b5b8 <i_11205>:
    8000b5b8:	003282b3          	add	t0,t0,gp

000000008000b5bc <i_11206>:
    8000b5bc:	01f00c93          	li	s9,31

000000008000b5c0 <i_11207>:
    8000b5c0:	4191d33b          	sraw	t1,gp,s9

000000008000b5c4 <i_11208>:
    8000b5c4:	1c71c613          	xori	a2,gp,455

000000008000b5c8 <i_11209>:
    8000b5c8:	02c18e3b          	mulw	t3,gp,a2

000000008000b5cc <i_11210>:
    8000b5cc:	8b200993          	li	s3,-1870

000000008000b5d0 <i_11211>:
    8000b5d0:	8be00193          	li	gp,-1858

000000008000b5d4 <i_11212>:
    8000b5d4:	02c66463          	bltu	a2,a2,8000b5fc <i_11222>

000000008000b5d8 <i_11213>:
    8000b5d8:	f8111d23          	sh	ra,-102(sp)

000000008000b5dc <i_11214>:
    8000b5dc:	02cb5633          	divu	a2,s6,a2

000000008000b5e0 <i_11215>:
    8000b5e0:	fdfa0613          	addi	a2,s4,-33

000000008000b5e4 <i_11216>:
    8000b5e4:	02760263          	beq	a2,t2,8000b608 <i_11225>

000000008000b5e8 <i_11217>:
    8000b5e8:	08416203          	lwu	tp,132(sp)

000000008000b5ec <i_11218>:
    8000b5ec:	00c27863          	bleu	a2,tp,8000b5fc <i_11222>

000000008000b5f0 <i_11219>:
    8000b5f0:	03e11383          	lh	t2,62(sp)

000000008000b5f4 <i_11220>:
    8000b5f4:	08016583          	lwu	a1,128(sp)

000000008000b5f8 <i_11221>:
    8000b5f8:	0067d263          	ble	t1,a5,8000b5fc <i_11222>

000000008000b5fc <i_11222>:
    8000b5fc:	f0816c03          	lwu	s8,-248(sp)

000000008000b600 <i_11223>:
    8000b600:	c6f66393          	ori	t2,a2,-913

000000008000b604 <i_11224>:
    8000b604:	007c4bb3          	xor	s7,s8,t2

000000008000b608 <i_11225>:
    8000b608:	40720433          	sub	s0,tp,t2

000000008000b60c <i_11226>:
    8000b60c:	d055809b          	addiw	ra,a1,-763

000000008000b610 <i_11227>:
    8000b610:	00198993          	addi	s3,s3,1
    8000b614:	fd31f0e3          	bleu	s3,gp,8000b5d4 <i_11212>

000000008000b618 <i_11228>:
    8000b618:	ee816603          	lwu	a2,-280(sp)

000000008000b61c <i_11229>:
    8000b61c:	02bc5063          	ble	a1,s8,8000b63c <i_11237>

000000008000b620 <i_11230>:
    8000b620:	02443333          	mulhu	t1,s0,tp

000000008000b624 <i_11231>:
    8000b624:	02741333          	mulh	t1,s0,t2

000000008000b628 <i_11232>:
    8000b628:	008373b3          	and	t2,t1,s0

000000008000b62c <i_11233>:
    8000b62c:	132102a3          	sb	s2,293(sp)

000000008000b630 <i_11234>:
    8000b630:	0a713c23          	sd	t2,184(sp)

000000008000b634 <i_11235>:
    8000b634:	15a15a03          	lhu	s4,346(sp)

000000008000b638 <i_11236>:
    8000b638:	fa612423          	sw	t1,-88(sp)

000000008000b63c <i_11237>:
    8000b63c:	004a5d9b          	srliw	s11,s4,0x4

000000008000b640 <i_11238>:
    8000b640:	04013c83          	ld	s9,64(sp)

000000008000b644 <i_11239>:
    8000b644:	7f800413          	li	s0,2040

000000008000b648 <i_11240>:
    8000b648:	7ff00613          	li	a2,2047

000000008000b64c <i_11241>:
    8000b64c:	00140413          	addi	s0,s0,1 # 44711ded <main-0x3b8ee213>
    8000b650:	fec46ee3          	bltu	s0,a2,8000b64c <i_11241>

000000008000b654 <i_11242>:
    8000b654:	00636463          	bltu	t1,t1,8000b65c <i_11244>

000000008000b658 <i_11243>:
    8000b658:	56333a93          	sltiu	s5,t1,1379

000000008000b65c <i_11244>:
    8000b65c:	033989b3          	mul	s3,s3,s3

000000008000b660 <i_11245>:
    8000b660:	0349f233          	remu	tp,s3,s4

000000008000b664 <i_11246>:
    8000b664:	fa816983          	lwu	s3,-88(sp)

000000008000b668 <i_11247>:
    8000b668:	013989b3          	add	s3,s3,s3

000000008000b66c <i_11248>:
    8000b66c:	413989bb          	subw	s3,s3,s3

000000008000b670 <i_11249>:
    8000b670:	0139c263          	blt	s3,s3,8000b674 <i_11250>

000000008000b674 <i_11250>:
    8000b674:	19215983          	lhu	s3,402(sp)

000000008000b678 <i_11251>:
    8000b678:	f5610823          	sb	s6,-176(sp)

000000008000b67c <i_11252>:
    8000b67c:	00226c63          	bltu	tp,sp,8000b694 <i_11258>

000000008000b680 <i_11253>:
    8000b680:	eb312223          	sw	s3,-348(sp)

000000008000b684 <i_11254>:
    8000b684:	03d14983          	lbu	s3,61(sp)

000000008000b688 <i_11255>:
    8000b688:	004d0e63          	beq	s10,tp,8000b6a4 <i_11262>

000000008000b68c <i_11256>:
    8000b68c:	00800813          	li	a6,8

000000008000b690 <i_11257>:
    8000b690:	010257bb          	srlw	a5,tp,a6

000000008000b694 <i_11258>:
    8000b694:	0332583b          	divuw	a6,tp,s3

000000008000b698 <i_11259>:
    8000b698:	c0470837          	lui	a6,0xc0470

000000008000b69c <i_11260>:
    8000b69c:	00000013          	nop

000000008000b6a0 <i_11261>:
    8000b6a0:	01311623          	sh	s3,12(sp)

000000008000b6a4 <i_11262>:
    8000b6a4:	05311723          	sh	s3,78(sp)

000000008000b6a8 <i_11263>:
    8000b6a8:	0ba15203          	lhu	tp,186(sp)

000000008000b6ac <i_11264>:
    8000b6ac:	88e00813          	li	a6,-1906

000000008000b6b0 <i_11265>:
    8000b6b0:	8a100793          	li	a5,-1887

000000008000b6b4 <i_11266>:
    8000b6b4:	02f7c3bb          	divw	t2,a5,a5

000000008000b6b8 <i_11267>:
    8000b6b8:	f8711523          	sh	t2,-118(sp)

000000008000b6bc <i_11268>:
    8000b6bc:	1c410823          	sb	tp,464(sp)

000000008000b6c0 <i_11269>:
    8000b6c0:	1be11183          	lh	gp,446(sp)

000000008000b6c4 <i_11270>:
    8000b6c4:	00180813          	addi	a6,a6,1 # ffffffffc0470001 <_end+0xffffffff4045fbed>
    8000b6c8:	ff07d6e3          	ble	a6,a5,8000b6b4 <i_11266>

000000008000b6cc <i_11271>:
    8000b6cc:	fa012303          	lw	t1,-96(sp)

000000008000b6d0 <i_11272>:
    8000b6d0:	05210723          	sb	s2,78(sp)

000000008000b6d4 <i_11273>:
    8000b6d4:	40c309bb          	subw	s3,t1,a2

000000008000b6d8 <i_11274>:
    8000b6d8:	05c15803          	lhu	a6,92(sp)

000000008000b6dc <i_11275>:
    8000b6dc:	0f013c23          	sd	a6,248(sp)

000000008000b6e0 <i_11276>:
    8000b6e0:	03318333          	mul	t1,gp,s3

000000008000b6e4 <i_11277>:
    8000b6e4:	07012383          	lw	t2,112(sp)

000000008000b6e8 <i_11278>:
    8000b6e8:	029844bb          	divw	s1,a6,s1

000000008000b6ec <i_11279>:
    8000b6ec:	05011823          	sh	a6,80(sp)

000000008000b6f0 <i_11280>:
    8000b6f0:	82900393          	li	t2,-2007

000000008000b6f4 <i_11281>:
    8000b6f4:	83400313          	li	t1,-1996

000000008000b6f8 <i_11282>:
    8000b6f8:	03049263          	bne	s1,a6,8000b71c <i_11290>

000000008000b6fc <i_11283>:
    8000b6fc:	05d10583          	lb	a1,93(sp)

000000008000b700 <i_11284>:
    8000b700:	03085463          	ble	a6,a6,8000b728 <i_11293>

000000008000b704 <i_11285>:
    8000b704:	00138393          	addi	t2,t2,1
    8000b708:	fe6398e3          	bne	t2,t1,8000b6f8 <i_11282>

000000008000b70c <i_11286>:
    8000b70c:	ee9105a3          	sb	s1,-277(sp)

000000008000b710 <i_11287>:
    8000b710:	00000013          	nop

000000008000b714 <i_11288>:
    8000b714:	09b10d83          	lb	s11,155(sp)

000000008000b718 <i_11289>:
    8000b718:	e5815383          	lhu	t2,-424(sp)

000000008000b71c <i_11290>:
    8000b71c:	f2a15383          	lhu	t2,-214(sp)

000000008000b720 <i_11291>:
    8000b720:	e7012383          	lw	t2,-400(sp)

000000008000b724 <i_11292>:
    8000b724:	00000013          	nop

000000008000b728 <i_11293>:
    8000b728:	03b323b3          	mulhsu	t2,t1,s11

000000008000b72c <i_11294>:
    8000b72c:	ff615d83          	lhu	s11,-10(sp)

000000008000b730 <i_11295>:
    8000b730:	7cc00813          	li	a6,1996

000000008000b734 <i_11296>:
    8000b734:	7d000493          	li	s1,2000

000000008000b738 <i_11297>:
    8000b738:	2be80e13          	addi	t3,a6,702

000000008000b73c <i_11298>:
    8000b73c:	03036c33          	rem	s8,t1,a6

000000008000b740 <i_11299>:
    8000b740:	17e11d83          	lh	s11,382(sp)

000000008000b744 <i_11300>:
    8000b744:	0298d9b3          	divu	s3,a7,s1

000000008000b748 <i_11301>:
    8000b748:	ee012e03          	lw	t3,-288(sp)

000000008000b74c <i_11302>:
    8000b74c:	02730463          	beq	t1,t2,8000b774 <i_11311>

000000008000b750 <i_11303>:
    8000b750:	00000013          	nop

000000008000b754 <i_11304>:
    8000b754:	038dfc3b          	remuw	s8,s11,s8

000000008000b758 <i_11305>:
    8000b758:	f2c10383          	lb	t2,-212(sp)

000000008000b75c <i_11306>:
    8000b75c:	00180813          	addi	a6,a6,1
    8000b760:	fc984ce3          	blt	a6,s1,8000b738 <i_11297>

000000008000b764 <i_11307>:
    8000b764:	fbc10203          	lb	tp,-68(sp)

000000008000b768 <i_11308>:
    8000b768:	f9a11483          	lh	s1,-102(sp)

000000008000b76c <i_11309>:
    8000b76c:	01ce5663          	ble	t3,t3,8000b778 <i_11312>

000000008000b770 <i_11310>:
    8000b770:	e4712c23          	sw	t2,-424(sp)

000000008000b774 <i_11311>:
    8000b774:	03d5b5b3          	mulhu	a1,a1,t4

000000008000b778 <i_11312>:
    8000b778:	f0913823          	sd	s1,-240(sp)

000000008000b77c <i_11313>:
    8000b77c:	0293de3b          	divuw	t3,t2,s1

000000008000b780 <i_11314>:
    8000b780:	82100313          	li	t1,-2015

000000008000b784 <i_11315>:
    8000b784:	83300e93          	li	t4,-1997

000000008000b788 <i_11316>:
    8000b788:	1d415583          	lhu	a1,468(sp)

000000008000b78c <i_11317>:
    8000b78c:	0025581b          	srliw	a6,a0,0x2

000000008000b790 <i_11318>:
    8000b790:	10f10983          	lb	s3,271(sp)

000000008000b794 <i_11319>:
    8000b794:	e3310ea3          	sb	s3,-451(sp)

000000008000b798 <i_11320>:
    8000b798:	03386a3b          	remw	s4,a6,s3

000000008000b79c <i_11321>:
    8000b79c:	02013a03          	ld	s4,32(sp)

000000008000b7a0 <i_11322>:
    8000b7a0:	fa812023          	sw	s0,-96(sp)

000000008000b7a4 <i_11323>:
    8000b7a4:	0a416a83          	lwu	s5,164(sp)

000000008000b7a8 <i_11324>:
    8000b7a8:	0e110483          	lb	s1,225(sp)

000000008000b7ac <i_11325>:
    8000b7ac:	1e0aba13          	sltiu	s4,s5,480

000000008000b7b0 <i_11326>:
    8000b7b0:	4022da13          	srai	s4,t0,0x2

000000008000b7b4 <i_11327>:
    8000b7b4:	02913023          	sd	s1,32(sp)

000000008000b7b8 <i_11328>:
    8000b7b8:	409282b3          	sub	t0,t0,s1

000000008000b7bc <i_11329>:
    8000b7bc:	0242e2b3          	rem	t0,t0,tp

000000008000b7c0 <i_11330>:
    8000b7c0:	05a11203          	lh	tp,90(sp)

000000008000b7c4 <i_11331>:
    8000b7c4:	00130313          	addi	t1,t1,1
    8000b7c8:	fdd360e3          	bltu	t1,t4,8000b788 <i_11316>

000000008000b7cc <i_11332>:
    8000b7cc:	e67a6193          	ori	gp,s4,-409

000000008000b7d0 <i_11333>:
    8000b7d0:	0d414083          	lbu	ra,212(sp)

000000008000b7d4 <i_11334>:
    8000b7d4:	10a11a03          	lh	s4,266(sp)

000000008000b7d8 <i_11335>:
    8000b7d8:	00000013          	nop

000000008000b7dc <i_11336>:
    8000b7dc:	79500293          	li	t0,1941

000000008000b7e0 <i_11337>:
    8000b7e0:	7a600213          	li	tp,1958

000000008000b7e4 <i_11338>:
    8000b7e4:	f85109a3          	sb	t0,-109(sp)

000000008000b7e8 <i_11339>:
    8000b7e8:	00000013          	nop

000000008000b7ec <i_11340>:
    8000b7ec:	00000013          	nop

000000008000b7f0 <i_11341>:
    8000b7f0:	76200313          	li	t1,1890

000000008000b7f4 <i_11342>:
    8000b7f4:	76500413          	li	s0,1893

000000008000b7f8 <i_11343>:
    8000b7f8:	00000013          	nop

000000008000b7fc <i_11344>:
    8000b7fc:	00130313          	addi	t1,t1,1
    8000b800:	fe831ce3          	bne	t1,s0,8000b7f8 <i_11343>

000000008000b804 <i_11345>:
    8000b804:	00000013          	nop

000000008000b808 <i_11346>:
    8000b808:	efa14503          	lbu	a0,-262(sp)

000000008000b80c <i_11347>:
    8000b80c:	00128293          	addi	t0,t0,1
    8000b810:	fc42eae3          	bltu	t0,tp,8000b7e4 <i_11338>

000000008000b814 <i_11348>:
    8000b814:	0267f2bb          	remuw	t0,a5,t1

000000008000b818 <i_11349>:
    8000b818:	0257e0bb          	remw	ra,a5,t0

000000008000b81c <i_11350>:
    8000b81c:	89000793          	li	a5,-1904

000000008000b820 <i_11351>:
    8000b820:	89a00193          	li	gp,-1894

000000008000b824 <i_11352>:
    8000b824:	f5c12403          	lw	s0,-164(sp)

000000008000b828 <i_11353>:
    8000b828:	02328063          	beq	t0,gp,8000b848 <i_11361>

000000008000b82c <i_11354>:
    8000b82c:	ff210383          	lb	t2,-14(sp)

000000008000b830 <i_11355>:
    8000b830:	e3e12c23          	sw	t5,-456(sp)

000000008000b834 <i_11356>:
    8000b834:	0237e233          	rem	tp,a5,gp

000000008000b838 <i_11357>:
    8000b838:	00000013          	nop

000000008000b83c <i_11358>:
    8000b83c:	08612223          	sw	t1,132(sp)

000000008000b840 <i_11359>:
    8000b840:	49c4ce37          	lui	t3,0x49c4c

000000008000b844 <i_11360>:
    8000b844:	1bc15483          	lhu	s1,444(sp)

000000008000b848 <i_11361>:
    8000b848:	05214583          	lbu	a1,82(sp)

000000008000b84c <i_11362>:
    8000b84c:	19910203          	lb	tp,409(sp)

000000008000b850 <i_11363>:
    8000b850:	4f90881b          	addiw	a6,ra,1273

000000008000b854 <i_11364>:
    8000b854:	00178793          	addi	a5,a5,1
    8000b858:	fcf1f6e3          	bleu	a5,gp,8000b824 <i_11352>

000000008000b85c <i_11365>:
    8000b85c:	f3012e03          	lw	t3,-208(sp)

000000008000b860 <i_11366>:
    8000b860:	06813d83          	ld	s11,104(sp)

000000008000b864 <i_11367>:
    8000b864:	f6914d83          	lbu	s11,-151(sp)

000000008000b868 <i_11368>:
    8000b868:	f0e15403          	lhu	s0,-242(sp)

000000008000b86c <i_11369>:
    8000b86c:	e4415783          	lhu	a5,-444(sp)

000000008000b870 <i_11370>:
    8000b870:	07015783          	lhu	a5,112(sp)

000000008000b874 <i_11371>:
    8000b874:	0087fe63          	bleu	s0,a5,8000b890 <i_11378>

000000008000b878 <i_11372>:
    8000b878:	02845463          	ble	s0,s0,8000b8a0 <i_11382>

000000008000b87c <i_11373>:
    8000b87c:	0f411503          	lh	a0,244(sp)

000000008000b880 <i_11374>:
    8000b880:	05a14503          	lbu	a0,90(sp)

000000008000b884 <i_11375>:
    8000b884:	04a10723          	sb	a0,78(sp)

000000008000b888 <i_11376>:
    8000b888:	f2c15c03          	lhu	s8,-212(sp)

000000008000b88c <i_11377>:
    8000b88c:	e2f13023          	sd	a5,-480(sp)

000000008000b890 <i_11378>:
    8000b890:	4185053b          	subw	a0,a0,s8

000000008000b894 <i_11379>:
    8000b894:	02a35063          	ble	a0,t1,8000b8b4 <i_11387>

000000008000b898 <i_11380>:
    8000b898:	038c0c33          	mul	s8,s8,s8

000000008000b89c <i_11381>:
    8000b89c:	00a54e63          	blt	a0,a0,8000b8b8 <i_11388>

000000008000b8a0 <i_11382>:
    8000b8a0:	4025519b          	sraiw	gp,a0,0x2

000000008000b8a4 <i_11383>:
    8000b8a4:	e8811c03          	lh	s8,-376(sp)

000000008000b8a8 <i_11384>:
    8000b8a8:	08a15c03          	lhu	s8,138(sp)

000000008000b8ac <i_11385>:
    8000b8ac:	00297e63          	bleu	sp,s2,8000b8c8 <i_11392>

000000008000b8b0 <i_11386>:
    8000b8b0:	02a50463          	beq	a0,a0,8000b8d8 <i_11396>

000000008000b8b4 <i_11387>:
    8000b8b4:	18a12c23          	sw	a0,408(sp)

000000008000b8b8 <i_11388>:
    8000b8b8:	02a2653b          	remw	a0,tp,a0

000000008000b8bc <i_11389>:
    8000b8bc:	ede15803          	lhu	a6,-290(sp)

000000008000b8c0 <i_11390>:
    8000b8c0:	fa913c23          	sd	s1,-72(sp)

000000008000b8c4 <i_11391>:
    8000b8c4:	fac11e23          	sh	a2,-68(sp)

000000008000b8c8 <i_11392>:
    8000b8c8:	0238553b          	divuw	a0,a6,gp

000000008000b8cc <i_11393>:
    8000b8cc:	0276d3b3          	divu	t2,a3,t2

000000008000b8d0 <i_11394>:
    8000b8d0:	02ae9533          	mulh	a0,t4,a0

000000008000b8d4 <i_11395>:
    8000b8d4:	010ff863          	bleu	a6,t6,8000b8e4 <i_11399>

000000008000b8d8 <i_11396>:
    8000b8d8:	25c48c93          	addi	s9,s1,604

000000008000b8dc <i_11397>:
    8000b8dc:	1e815e83          	lhu	t4,488(sp)

000000008000b8e0 <i_11398>:
    8000b8e0:	17013023          	sd	a6,352(sp)

000000008000b8e4 <i_11399>:
    8000b8e4:	00a51863          	bne	a0,a0,8000b8f4 <i_11403>

000000008000b8e8 <i_11400>:
    8000b8e8:	15012503          	lw	a0,336(sp)

000000008000b8ec <i_11401>:
    8000b8ec:	00a57e63          	bleu	a0,a0,8000b908 <i_11408>

000000008000b8f0 <i_11402>:
    8000b8f0:	001d9d93          	slli	s11,s11,0x1

000000008000b8f4 <i_11403>:
    8000b8f4:	07614d83          	lbu	s11,118(sp)

000000008000b8f8 <i_11404>:
    8000b8f8:	01f44233          	xor	tp,s0,t6

000000008000b8fc <i_11405>:
    8000b8fc:	f9810083          	lb	ra,-104(sp)

000000008000b900 <i_11406>:
    8000b900:	ec013083          	ld	ra,-320(sp)

000000008000b904 <i_11407>:
    8000b904:	004f6463          	bltu	t5,tp,8000b90c <i_11409>

000000008000b908 <i_11408>:
    8000b908:	0030d093          	srli	ra,ra,0x3

000000008000b90c <i_11409>:
    8000b90c:	024c7263          	bleu	tp,s8,8000b930 <i_11418>

000000008000b910 <i_11410>:
    8000b910:	0045959b          	slliw	a1,a1,0x4

000000008000b914 <i_11411>:
    8000b914:	00010083          	lb	ra,0(sp)

000000008000b918 <i_11412>:
    8000b918:	0011d263          	ble	ra,gp,8000b91c <i_11413>

000000008000b91c <i_11413>:
    8000b91c:	16414803          	lbu	a6,356(sp)

000000008000b920 <i_11414>:
    8000b920:	ed615a03          	lhu	s4,-298(sp)

000000008000b924 <i_11415>:
    8000b924:	01037a33          	and	s4,t1,a6

000000008000b928 <i_11416>:
    8000b928:	00000013          	nop

000000008000b92c <i_11417>:
    8000b92c:	f4c12403          	lw	s0,-180(sp)

000000008000b930 <i_11418>:
    8000b930:	03482833          	mulhsu	a6,a6,s4

000000008000b934 <i_11419>:
    8000b934:	12710803          	lb	a6,295(sp)

000000008000b938 <i_11420>:
    8000b938:	7dd00193          	li	gp,2013

000000008000b93c <i_11421>:
    8000b93c:	7e900093          	li	ra,2025

000000008000b940 <i_11422>:
    8000b940:	fa811c23          	sh	s0,-72(sp)

000000008000b944 <i_11423>:
    8000b944:	00118193          	addi	gp,gp,1
    8000b948:	fe30dce3          	ble	gp,ra,8000b940 <i_11422>

000000008000b94c <i_11424>:
    8000b94c:	e9412223          	sw	s4,-380(sp)

000000008000b950 <i_11425>:
    8000b950:	e3816a03          	lwu	s4,-456(sp)

000000008000b954 <i_11426>:
    8000b954:	f9411523          	sh	s4,-118(sp)

000000008000b958 <i_11427>:
    8000b958:	6cb8081b          	addiw	a6,a6,1739

000000008000b95c <i_11428>:
    8000b95c:	01100c93          	li	s9,17

000000008000b960 <i_11429>:
    8000b960:	019fde3b          	srlw	t3,t6,s9

000000008000b964 <i_11430>:
    8000b964:	019e5463          	ble	s9,t3,8000b96c <i_11432>

000000008000b968 <i_11431>:
    8000b968:	030823b3          	mulhsu	t2,a6,a6

000000008000b96c <i_11432>:
    8000b96c:	019ce833          	or	a6,s9,s9

000000008000b970 <i_11433>:
    8000b970:	015f4463          	blt	t5,s5,8000b978 <i_11435>

000000008000b974 <i_11434>:
    8000b974:	11012803          	lw	a6,272(sp)

000000008000b978 <i_11435>:
    8000b978:	001273b3          	and	t2,tp,ra

000000008000b97c <i_11436>:
    8000b97c:	615b7213          	andi	tp,s6,1557

000000008000b980 <i_11437>:
    8000b980:	a910861b          	addiw	a2,ra,-1391

000000008000b984 <i_11438>:
    8000b984:	12415603          	lhu	a2,292(sp)

000000008000b988 <i_11439>:
    8000b988:	7a300093          	li	ra,1955

000000008000b98c <i_11440>:
    8000b98c:	7b500c93          	li	s9,1973

000000008000b990 <i_11441>:
    8000b990:	00000013          	nop

000000008000b994 <i_11442>:
    8000b994:	f2113423          	sd	ra,-216(sp)

000000008000b998 <i_11443>:
    8000b998:	80200213          	li	tp,-2046

000000008000b99c <i_11444>:
    8000b99c:	80400993          	li	s3,-2044

000000008000b9a0 <i_11445>:
    8000b9a0:	0e011303          	lh	t1,224(sp)

000000008000b9a4 <i_11446>:
    8000b9a4:	00120213          	addi	tp,tp,1 # 1 <main-0x7fffffff>
    8000b9a8:	fe49dce3          	ble	tp,s3,8000b9a0 <i_11445>

000000008000b9ac <i_11447>:
    8000b9ac:	01d243b3          	xor	t2,tp,t4

000000008000b9b0 <i_11448>:
    8000b9b0:	0f012983          	lw	s3,240(sp)

000000008000b9b4 <i_11449>:
    8000b9b4:	00108093          	addi	ra,ra,1
    8000b9b8:	fd90cce3          	blt	ra,s9,8000b990 <i_11441>

000000008000b9bc <i_11450>:
    8000b9bc:	6403e313          	ori	t1,t2,1600

000000008000b9c0 <i_11451>:
    8000b9c0:	1ac12383          	lw	t2,428(sp)

000000008000b9c4 <i_11452>:
    8000b9c4:	01f00a93          	li	s5,31

000000008000b9c8 <i_11453>:
    8000b9c8:	415cd3bb          	sraw	t2,s9,s5

000000008000b9cc <i_11454>:
    8000b9cc:	76e00c93          	li	s9,1902

000000008000b9d0 <i_11455>:
    8000b9d0:	77b00993          	li	s3,1915

000000008000b9d4 <i_11456>:
    8000b9d4:	17016a83          	lwu	s5,368(sp)

000000008000b9d8 <i_11457>:
    8000b9d8:	00000013          	nop

000000008000b9dc <i_11458>:
    8000b9dc:	03998463          	beq	s3,s9,8000ba04 <i_11467>

000000008000b9e0 <i_11459>:
    8000b9e0:	69fcb613          	sltiu	a2,s9,1695

000000008000b9e4 <i_11460>:
    8000b9e4:	e2416203          	lwu	tp,-476(sp)

000000008000b9e8 <i_11461>:
    8000b9e8:	001c8c93          	addi	s9,s9,1 # fffffffff5252001 <_end+0xffffffff75241bed>
    8000b9ec:	ff99f4e3          	bleu	s9,s3,8000b9d4 <i_11456>

000000008000b9f0 <i_11462>:
    8000b9f0:	0139d863          	ble	s3,s3,8000ba00 <i_11466>

000000008000b9f4 <i_11463>:
    8000b9f4:	404c83b3          	sub	t2,s9,tp

000000008000b9f8 <i_11464>:
    8000b9f8:	01500213          	li	tp,21

000000008000b9fc <i_11465>:
    8000b9fc:	0049d9b3          	srl	s3,s3,tp

000000008000ba00 <i_11466>:
    8000ba00:	ee713c23          	sd	t2,-264(sp)

000000008000ba04 <i_11467>:
    8000ba04:	f1114e03          	lbu	t3,-239(sp)

000000008000ba08 <i_11468>:
    8000ba08:	01ce0db3          	add	s11,t3,t3

000000008000ba0c <i_11469>:
    8000ba0c:	7b100c93          	li	s9,1969

000000008000ba10 <i_11470>:
    8000ba10:	7be00613          	li	a2,1982

000000008000ba14 <i_11471>:
    8000ba14:	00000013          	nop

000000008000ba18 <i_11472>:
    8000ba18:	02dd8e33          	mul	t3,s11,a3

000000008000ba1c <i_11473>:
    8000ba1c:	00000013          	nop

000000008000ba20 <i_11474>:
    8000ba20:	02545e3b          	divuw	t3,s0,t0

000000008000ba24 <i_11475>:
    8000ba24:	00000013          	nop

000000008000ba28 <i_11476>:
    8000ba28:	001e1e13          	slli	t3,t3,0x1

000000008000ba2c <i_11477>:
    8000ba2c:	001c8c93          	addi	s9,s9,1
    8000ba30:	ff9672e3          	bleu	s9,a2,8000ba14 <i_11471>

000000008000ba34 <i_11478>:
    8000ba34:	e1e11a83          	lh	s5,-482(sp)

000000008000ba38 <i_11479>:
    8000ba38:	88facd93          	xori	s11,s5,-1905

000000008000ba3c <i_11480>:
    8000ba3c:	01be0e63          	beq	t3,s11,8000ba58 <i_11487>

000000008000ba40 <i_11481>:
    8000ba40:	005e5e63          	ble	t0,t3,8000ba5c <i_11488>

000000008000ba44 <i_11482>:
    8000ba44:	00000013          	nop

000000008000ba48 <i_11483>:
    8000ba48:	00f42db3          	slt	s11,s0,a5

000000008000ba4c <i_11484>:
    8000ba4c:	16d14a03          	lbu	s4,365(sp)

000000008000ba50 <i_11485>:
    8000ba50:	09914d83          	lbu	s11,153(sp)

000000008000ba54 <i_11486>:
    8000ba54:	f9b12823          	sw	s11,-112(sp)

000000008000ba58 <i_11487>:
    8000ba58:	02e00d93          	li	s11,46

000000008000ba5c <i_11488>:
    8000ba5c:	41b259b3          	sra	s3,tp,s11

000000008000ba60 <i_11489>:
    8000ba60:	e3013c83          	ld	s9,-464(sp)

000000008000ba64 <i_11490>:
    8000ba64:	85d00793          	li	a5,-1955

000000008000ba68 <i_11491>:
    8000ba68:	87000293          	li	t0,-1936

000000008000ba6c <i_11492>:
    8000ba6c:	013e3a33          	sltu	s4,t3,s3

000000008000ba70 <i_11493>:
    8000ba70:	00178793          	addi	a5,a5,1
    8000ba74:	fef2dce3          	ble	a5,t0,8000ba6c <i_11492>

000000008000ba78 <i_11494>:
    8000ba78:	015849b3          	xor	s3,a6,s5

000000008000ba7c <i_11495>:
    8000ba7c:	15611c83          	lh	s9,342(sp)

000000008000ba80 <i_11496>:
    8000ba80:	1b914983          	lbu	s3,441(sp)

000000008000ba84 <i_11497>:
    8000ba84:	023dc1bb          	divw	gp,s11,gp

000000008000ba88 <i_11498>:
    8000ba88:	00d9d863          	ble	a3,s3,8000ba98 <i_11502>

000000008000ba8c <i_11499>:
    8000ba8c:	40245a93          	srai	s5,s0,0x2

000000008000ba90 <i_11500>:
    8000ba90:	00000013          	nop

000000008000ba94 <i_11501>:
    8000ba94:	123102a3          	sb	gp,293(sp)

000000008000ba98 <i_11502>:
    8000ba98:	b32daa93          	slti	s5,s11,-1230

000000008000ba9c <i_11503>:
    8000ba9c:	04016c83          	lwu	s9,64(sp)

000000008000baa0 <i_11504>:
    8000baa0:	7c800e13          	li	t3,1992

000000008000baa4 <i_11505>:
    8000baa4:	7d300413          	li	s0,2003

000000008000baa8 <i_11506>:
    8000baa8:	1c211d83          	lh	s11,450(sp)

000000008000baac <i_11507>:
    8000baac:	00013c83          	ld	s9,0(sp)

000000008000bab0 <i_11508>:
    8000bab0:	00000013          	nop

000000008000bab4 <i_11509>:
    8000bab4:	ef615983          	lhu	s3,-266(sp)

000000008000bab8 <i_11510>:
    8000bab8:	f5615383          	lhu	t2,-170(sp)

000000008000babc <i_11511>:
    8000babc:	d7e3e393          	ori	t2,t2,-642

000000008000bac0 <i_11512>:
    8000bac0:	0133d463          	ble	s3,t2,8000bac8 <i_11514>

000000008000bac4 <i_11513>:
    8000bac4:	04c10483          	lb	s1,76(sp)

000000008000bac8 <i_11514>:
    8000bac8:	00799263          	bne	s3,t2,8000bacc <i_11515>

000000008000bacc <i_11515>:
    8000bacc:	03200593          	li	a1,50

000000008000bad0 <i_11516>:
    8000bad0:	40b5d5b3          	sra	a1,a1,a1

000000008000bad4 <i_11517>:
    8000bad4:	001e0e13          	addi	t3,t3,1 # 49c4c001 <main-0x363b3fff>
    8000bad8:	fdc478e3          	bleu	t3,s0,8000baa8 <i_11506>

000000008000badc <i_11518>:
    8000badc:	f5415483          	lhu	s1,-172(sp)

000000008000bae0 <i_11519>:
    8000bae0:	ec814603          	lbu	a2,-312(sp)

000000008000bae4 <i_11520>:
    8000bae4:	02b5ac33          	mulhsu	s8,a1,a1

000000008000bae8 <i_11521>:
    8000bae8:	1a412a03          	lw	s4,420(sp)

000000008000baec <i_11522>:
    8000baec:	e2b108a3          	sb	a1,-463(sp)

000000008000baf0 <i_11523>:
    8000baf0:	15411c03          	lh	s8,340(sp)

000000008000baf4 <i_11524>:
    8000baf4:	fb510403          	lb	s0,-75(sp)

000000008000baf8 <i_11525>:
    8000baf8:	02865063          	ble	s0,a2,8000bb18 <i_11533>

000000008000bafc <i_11526>:
    8000bafc:	1cb10e03          	lb	t3,459(sp)

000000008000bb00 <i_11527>:
    8000bb00:	002e5c93          	srli	s9,t3,0x2

000000008000bb04 <i_11528>:
    8000bb04:	03c6563b          	divuw	a2,a2,t3

000000008000bb08 <i_11529>:
    8000bb08:	fbc11123          	sh	t3,-94(sp)

000000008000bb0c <i_11530>:
    8000bb0c:	1b912223          	sw	s9,420(sp)

000000008000bb10 <i_11531>:
    8000bb10:	16c11c23          	sh	a2,376(sp)

000000008000bb14 <i_11532>:
    8000bb14:	ebc11b23          	sh	t3,-330(sp)

000000008000bb18 <i_11533>:
    8000bb18:	f7e10e03          	lb	t3,-130(sp)

000000008000bb1c <i_11534>:
    8000bb1c:	c6f66d93          	ori	s11,a2,-913

000000008000bb20 <i_11535>:
    8000bb20:	1d514403          	lbu	s0,469(sp)

000000008000bb24 <i_11536>:
    8000bb24:	f8c13423          	sd	a2,-120(sp)

000000008000bb28 <i_11537>:
    8000bb28:	0b813503          	ld	a0,184(sp)

000000008000bb2c <i_11538>:
    8000bb2c:	f6013e03          	ld	t3,-160(sp)

000000008000bb30 <i_11539>:
    8000bb30:	02a00a13          	li	s4,42

000000008000bb34 <i_11540>:
    8000bb34:	014e17b3          	sll	a5,t3,s4

000000008000bb38 <i_11541>:
    8000bb38:	02545433          	divu	s0,s0,t0

000000008000bb3c <i_11542>:
    8000bb3c:	014e4a63          	blt	t3,s4,8000bb50 <i_11547>

000000008000bb40 <i_11543>:
    8000bb40:	e8415a83          	lhu	s5,-380(sp)

000000008000bb44 <i_11544>:
    8000bb44:	40fc0c3b          	subw	s8,s8,a5

000000008000bb48 <i_11545>:
    8000bb48:	0fb10383          	lb	t2,251(sp)

000000008000bb4c <i_11546>:
    8000bb4c:	03554ab3          	div	s5,a0,s5

000000008000bb50 <i_11547>:
    8000bb50:	01e55463          	ble	t5,a0,8000bb58 <i_11549>

000000008000bb54 <i_11548>:
    8000bb54:	01200313          	li	t1,18

000000008000bb58 <i_11549>:
    8000bb58:	006c1cbb          	sllw	s9,s8,t1

000000008000bb5c <i_11550>:
    8000bb5c:	1faa2c13          	slti	s8,s4,506

000000008000bb60 <i_11551>:
    8000bb60:	08612c23          	sw	t1,152(sp)

000000008000bb64 <i_11552>:
    8000bb64:	e6813303          	ld	t1,-408(sp)

000000008000bb68 <i_11553>:
    8000bb68:	fa812e83          	lw	t4,-88(sp)

000000008000bb6c <i_11554>:
    8000bb6c:	f1013b83          	ld	s7,-240(sp)

000000008000bb70 <i_11555>:
    8000bb70:	4014529b          	sraiw	t0,s0,0x1

000000008000bb74 <i_11556>:
    8000bb74:	fc613c23          	sd	t1,-40(sp)

000000008000bb78 <i_11557>:
    8000bb78:	035c033b          	mulw	t1,s8,s5

000000008000bb7c <i_11558>:
    8000bb7c:	304c4413          	xori	s0,s8,772

000000008000bb80 <i_11559>:
    8000bb80:	0a710d23          	sb	t2,186(sp)

000000008000bb84 <i_11560>:
    8000bb84:	92fe7593          	andi	a1,t3,-1745

000000008000bb88 <i_11561>:
    8000bb88:	001a961b          	slliw	a2,s5,0x1

000000008000bb8c <i_11562>:
    8000bb8c:	11d13023          	sd	t4,256(sp)

000000008000bb90 <i_11563>:
    8000bb90:	07811223          	sh	s8,100(sp)

000000008000bb94 <i_11564>:
    8000bb94:	667ec593          	xori	a1,t4,1639

000000008000bb98 <i_11565>:
    8000bb98:	02bce43b          	remw	s0,s9,a1

000000008000bb9c <i_11566>:
    8000bb9c:	40145a1b          	sraiw	s4,s0,0x1

000000008000bba0 <i_11567>:
    8000bba0:	0b013483          	ld	s1,176(sp)

000000008000bba4 <i_11568>:
    8000bba4:	40355c13          	srai	s8,a0,0x3

000000008000bba8 <i_11569>:
    8000bba8:	07412383          	lw	t2,116(sp)

000000008000bbac <i_11570>:
    8000bbac:	00cc5e63          	ble	a2,s8,8000bbc8 <i_11577>

000000008000bbb0 <i_11571>:
    8000bbb0:	efe15c03          	lhu	s8,-258(sp)

000000008000bbb4 <i_11572>:
    8000bbb4:	1cb10c03          	lb	s8,459(sp)

000000008000bbb8 <i_11573>:
    8000bbb8:	efa14783          	lbu	a5,-262(sp)

000000008000bbbc <i_11574>:
    8000bbbc:	0f812c03          	lw	s8,248(sp)

000000008000bbc0 <i_11575>:
    8000bbc0:	02eb22b3          	mulhsu	t0,s6,a4

000000008000bbc4 <i_11576>:
    8000bbc4:	01200c13          	li	s8,18

000000008000bbc8 <i_11577>:
    8000bbc8:	4187dc33          	sra	s8,a5,s8

000000008000bbcc <i_11578>:
    8000bbcc:	005b9463          	bne	s7,t0,8000bbd4 <i_11580>

000000008000bbd0 <i_11579>:
    8000bbd0:	11011483          	lh	s1,272(sp)

000000008000bbd4 <i_11580>:
    8000bbd4:	01878463          	beq	a5,s8,8000bbdc <i_11582>

000000008000bbd8 <i_11581>:
    8000bbd8:	e9816403          	lwu	s0,-360(sp)

000000008000bbdc <i_11582>:
    8000bbdc:	07e12c23          	sw	t5,120(sp)

000000008000bbe0 <i_11583>:
    8000bbe0:	a2dc0c1b          	addiw	s8,s8,-1491

000000008000bbe4 <i_11584>:
    8000bbe4:	0288c2b3          	div	t0,a7,s0

000000008000bbe8 <i_11585>:
    8000bbe8:	0072de63          	ble	t2,t0,8000bc04 <i_11592>

000000008000bbec <i_11586>:
    8000bbec:	00b48233          	add	tp,s1,a1

000000008000bbf0 <i_11587>:
    8000bbf0:	0057ea63          	bltu	a5,t0,8000bc04 <i_11592>

000000008000bbf4 <i_11588>:
    8000bbf4:	01ac1e63          	bne	s8,s10,8000bc10 <i_11595>

000000008000bbf8 <i_11589>:
    8000bbf8:	00000013          	nop

000000008000bbfc <i_11590>:
    8000bbfc:	01410923          	sb	s4,18(sp)

000000008000bc00 <i_11591>:
    8000bc00:	1a016303          	lwu	t1,416(sp)

000000008000bc04 <i_11592>:
    8000bc04:	00f73533          	sltu	a0,a4,a5

000000008000bc08 <i_11593>:
    8000bc08:	06211483          	lh	s1,98(sp)

000000008000bc0c <i_11594>:
    8000bc0c:	ee0a8e97          	auipc	t4,0xee0a8

000000008000bc10 <i_11595>:
    8000bc10:	4bdac617          	auipc	a2,0x4bdac

000000008000bc14 <i_11596>:
    8000bc14:	34d2bc13          	sltiu	s8,t0,845

000000008000bc18 <i_11597>:
    8000bc18:	75400a13          	li	s4,1876

000000008000bc1c <i_11598>:
    8000bc1c:	75e00213          	li	tp,1886

000000008000bc20 <i_11599>:
    8000bc20:	01b00d93          	li	s11,27

000000008000bc24 <i_11600>:
    8000bc24:	01bc5333          	srl	t1,s8,s11

000000008000bc28 <i_11601>:
    8000bc28:	001a0a13          	addi	s4,s4,1
    8000bc2c:	ff427ae3          	bleu	s4,tp,8000bc20 <i_11599>

000000008000bc30 <i_11602>:
    8000bc30:	01935c63          	ble	s9,t1,8000bc48 <i_11608>

000000008000bc34 <i_11603>:
    8000bc34:	00c15c63          	ble	a2,sp,8000bc4c <i_11609>

000000008000bc38 <i_11604>:
    8000bc38:	0c812c83          	lw	s9,200(sp)

000000008000bc3c <i_11605>:
    8000bc3c:	05816c83          	lwu	s9,88(sp)

000000008000bc40 <i_11606>:
    8000bc40:	fd910823          	sb	s9,-48(sp)

000000008000bc44 <i_11607>:
    8000bc44:	18813603          	ld	a2,392(sp)

000000008000bc48 <i_11608>:
    8000bc48:	01a66463          	bltu	a2,s10,8000bc50 <i_11610>

000000008000bc4c <i_11609>:
    8000bc4c:	e4013c83          	ld	s9,-448(sp)

000000008000bc50 <i_11610>:
    8000bc50:	00cc8263          	beq	s9,a2,8000bc54 <i_11611>

000000008000bc54 <i_11611>:
    8000bc54:	e3910c23          	sb	s9,-456(sp)

000000008000bc58 <i_11612>:
    8000bc58:	03c5e5bb          	remw	a1,a1,t3

000000008000bc5c <i_11613>:
    8000bc5c:	03c12e03          	lw	t3,60(sp)

000000008000bc60 <i_11614>:
    8000bc60:	76900613          	li	a2,1897

000000008000bc64 <i_11615>:
    8000bc64:	77800993          	li	s3,1912

000000008000bc68 <i_11616>:
    8000bc68:	00b13023          	sd	a1,0(sp)

000000008000bc6c <i_11617>:
    8000bc6c:	155e3d93          	sltiu	s11,t3,341

000000008000bc70 <i_11618>:
    8000bc70:	ec416e03          	lwu	t3,-316(sp)

000000008000bc74 <i_11619>:
    8000bc74:	10012403          	lw	s0,256(sp)

000000008000bc78 <i_11620>:
    8000bc78:	02210e03          	lb	t3,34(sp)

000000008000bc7c <i_11621>:
    8000bc7c:	e7013403          	ld	s0,-400(sp)

000000008000bc80 <i_11622>:
    8000bc80:	00841e63          	bne	s0,s0,8000bc9c <i_11629>

000000008000bc84 <i_11623>:
    8000bc84:	e9812823          	sw	s8,-368(sp)

000000008000bc88 <i_11624>:
    8000bc88:	008e0e33          	add	t3,t3,s0

000000008000bc8c <i_11625>:
    8000bc8c:	e7816383          	lwu	t2,-392(sp)

000000008000bc90 <i_11626>:
    8000bc90:	ffa11723          	sh	s10,-18(sp)

000000008000bc94 <i_11627>:
    8000bc94:	00840a33          	add	s4,s0,s0

000000008000bc98 <i_11628>:
    8000bc98:	fa110783          	lb	a5,-95(sp)

000000008000bc9c <i_11629>:
    8000bc9c:	02fe1463          	bne	t3,a5,8000bcc4 <i_11638>

000000008000bca0 <i_11630>:
    8000bca0:	03b7f533          	remu	a0,a5,s11

000000008000bca4 <i_11631>:
    8000bca4:	00160613          	addi	a2,a2,1 # cbdb7c11 <_end+0x4bda77fd>
    8000bca8:	fd3640e3          	blt	a2,s3,8000bc68 <i_11616>

000000008000bcac <i_11632>:
    8000bcac:	fa911123          	sh	s1,-94(sp)

000000008000bcb0 <i_11633>:
    8000bcb0:	ffc11723          	sh	t3,-18(sp)

000000008000bcb4 <i_11634>:
    8000bcb4:	037783b3          	mul	t2,a5,s7

000000008000bcb8 <i_11635>:
    8000bcb8:	007e6e63          	bltu	t3,t2,8000bcd4 <i_11642>

000000008000bcbc <i_11636>:
    8000bcbc:	00f00393          	li	t2,15

000000008000bcc0 <i_11637>:
    8000bcc0:	407a50bb          	sraw	ra,s4,t2

000000008000bcc4 <i_11638>:
    8000bcc4:	009504b3          	add	s1,a0,s1

000000008000bcc8 <i_11639>:
    8000bcc8:	03700813          	li	a6,55

000000008000bccc <i_11640>:
    8000bccc:	4104d0b3          	sra	ra,s1,a6

000000008000bcd0 <i_11641>:
    8000bcd0:	09510823          	sb	s5,144(sp)

000000008000bcd4 <i_11642>:
    8000bcd4:	14f14483          	lbu	s1,335(sp)

000000008000bcd8 <i_11643>:
    8000bcd8:	f4911123          	sh	s1,-190(sp)

000000008000bcdc <i_11644>:
    8000bcdc:	ab94ab93          	slti	s7,s1,-1351

000000008000bce0 <i_11645>:
    8000bce0:	00682333          	slt	t1,a6,t1

000000008000bce4 <i_11646>:
    8000bce4:	02e00313          	li	t1,46

000000008000bce8 <i_11647>:
    8000bce8:	0064de33          	srl	t3,s1,t1

000000008000bcec <i_11648>:
    8000bcec:	00000013          	nop

000000008000bcf0 <i_11649>:
    8000bcf0:	22c7a593          	slti	a1,a5,556

000000008000bcf4 <i_11650>:
    8000bcf4:	72d00493          	li	s1,1837

000000008000bcf8 <i_11651>:
    8000bcf8:	73b00e13          	li	t3,1851

000000008000bcfc <i_11652>:
    8000bcfc:	0aa11b83          	lh	s7,170(sp)

000000008000bd00 <i_11653>:
    8000bd00:	f8816083          	lwu	ra,-120(sp)

000000008000bd04 <i_11654>:
    8000bd04:	e7029797          	auipc	a5,0xe7029

000000008000bd08 <i_11655>:
    8000bd08:	00148493          	addi	s1,s1,1
    8000bd0c:	ffc4c8e3          	blt	s1,t3,8000bcfc <i_11652>

000000008000bd10 <i_11656>:
    8000bd10:	0010ce63          	blt	ra,ra,8000bd2c <i_11663>

000000008000bd14 <i_11657>:
    8000bd14:	00479b9b          	slliw	s7,a5,0x4

000000008000bd18 <i_11658>:
    8000bd18:	00309493          	slli	s1,ra,0x3

000000008000bd1c <i_11659>:
    8000bd1c:	00000013          	nop

000000008000bd20 <i_11660>:
    8000bd20:	0210a0b3          	mulhsu	ra,ra,ra

000000008000bd24 <i_11661>:
    8000bd24:	41bd8a33          	sub	s4,s11,s11

000000008000bd28 <i_11662>:
    8000bd28:	00000013          	nop

000000008000bd2c <i_11663>:
    8000bd2c:	e3412e23          	sw	s4,-452(sp)

000000008000bd30 <i_11664>:
    8000bd30:	0f412a83          	lw	s5,244(sp)

000000008000bd34 <i_11665>:
    8000bd34:	7f200293          	li	t0,2034

000000008000bd38 <i_11666>:
    8000bd38:	7fe00213          	li	tp,2046

000000008000bd3c <i_11667>:
    8000bd3c:	1740a193          	slti	gp,ra,372

000000008000bd40 <i_11668>:
    8000bd40:	fd310e83          	lb	t4,-45(sp)

000000008000bd44 <i_11669>:
    8000bd44:	00128293          	addi	t0,t0,1
    8000bd48:	fe527ae3          	bleu	t0,tp,8000bd3c <i_11667>

000000008000bd4c <i_11670>:
    8000bd4c:	06812083          	lw	ra,104(sp)

000000008000bd50 <i_11671>:
    8000bd50:	eae11083          	lh	ra,-338(sp)

000000008000bd54 <i_11672>:
    8000bd54:	f6dafb93          	andi	s7,s5,-147

000000008000bd58 <i_11673>:
    8000bd58:	00400193          	li	gp,4

000000008000bd5c <i_11674>:
    8000bd5c:	003810bb          	sllw	ra,a6,gp

000000008000bd60 <i_11675>:
    8000bd60:	f5813a03          	ld	s4,-168(sp)

000000008000bd64 <i_11676>:
    8000bd64:	08013c03          	ld	s8,128(sp)

000000008000bd68 <i_11677>:
    8000bd68:	1b416203          	lwu	tp,436(sp)

000000008000bd6c <i_11678>:
    8000bd6c:	1b013603          	ld	a2,432(sp)

000000008000bd70 <i_11679>:
    8000bd70:	0f812a23          	sw	s8,244(sp)

000000008000bd74 <i_11680>:
    8000bd74:	034b8c33          	mul	s8,s7,s4

000000008000bd78 <i_11681>:
    8000bd78:	e8c14d83          	lbu	s11,-372(sp)

000000008000bd7c <i_11682>:
    8000bd7c:	e8c12603          	lw	a2,-372(sp)

000000008000bd80 <i_11683>:
    8000bd80:	03b66dbb          	remw	s11,a2,s11

000000008000bd84 <i_11684>:
    8000bd84:	00e94663          	blt	s2,a4,8000bd90 <i_11687>

000000008000bd88 <i_11685>:
    8000bd88:	ec614a83          	lbu	s5,-314(sp)

000000008000bd8c <i_11686>:
    8000bd8c:	f9b12e23          	sw	s11,-100(sp)

000000008000bd90 <i_11687>:
    8000bd90:	eeb13423          	sd	a1,-280(sp)

000000008000bd94 <i_11688>:
    8000bd94:	fbb13823          	sd	s11,-80(sp)

000000008000bd98 <i_11689>:
    8000bd98:	02120a3b          	mulw	s4,tp,ra

000000008000bd9c <i_11690>:
    8000bd9c:	ec414083          	lbu	ra,-316(sp)

000000008000bda0 <i_11691>:
    8000bda0:	0e714203          	lbu	tp,231(sp)

000000008000bda4 <i_11692>:
    8000bda4:	01527863          	bleu	s5,tp,8000bdb4 <i_11696>

000000008000bda8 <i_11693>:
    8000bda8:	004a8e63          	beq	s5,tp,8000bdc4 <i_11700>

000000008000bdac <i_11694>:
    8000bdac:	eb510423          	sb	s5,-344(sp)

000000008000bdb0 <i_11695>:
    8000bdb0:	024a8263          	beq	s5,tp,8000bdd4 <i_11704>

000000008000bdb4 <i_11696>:
    8000bdb4:	ea111f23          	sh	ra,-322(sp)

000000008000bdb8 <i_11697>:
    8000bdb8:	eae15a83          	lhu	s5,-338(sp)

000000008000bdbc <i_11698>:
    8000bdbc:	004082b3          	add	t0,ra,tp

000000008000bdc0 <i_11699>:
    8000bdc0:	00518663          	beq	gp,t0,8000bdcc <i_11702>

000000008000bdc4 <i_11700>:
    8000bdc4:	14510da3          	sb	t0,347(sp)

000000008000bdc8 <i_11701>:
    8000bdc8:	fa4106a3          	sb	tp,-83(sp)

000000008000bdcc <i_11702>:
    8000bdcc:	03300c93          	li	s9,51

000000008000bdd0 <i_11703>:
    8000bdd0:	019ad1b3          	srl	gp,s5,s9

000000008000bdd4 <i_11704>:
    8000bdd4:	00500213          	li	tp,5

000000008000bdd8 <i_11705>:
    8000bdd8:	0042dbbb          	srlw	s7,t0,tp

000000008000bddc <i_11706>:
    8000bddc:	f8812583          	lw	a1,-120(sp)

000000008000bde0 <i_11707>:
    8000bde0:	015bf1b3          	and	gp,s7,s5

000000008000bde4 <i_11708>:
    8000bde4:	02420463          	beq	tp,tp,8000be0c <i_11718>

000000008000bde8 <i_11709>:
    8000bde8:	e9710823          	sb	s7,-368(sp)

000000008000bdec <i_11710>:
    8000bdec:	6880ca13          	xori	s4,ra,1672

000000008000bdf0 <i_11711>:
    8000bdf0:	004d9d93          	slli	s11,s11,0x4

000000008000bdf4 <i_11712>:
    8000bdf4:	038a543b          	divuw	s0,s4,s8

000000008000bdf8 <i_11713>:
    8000bdf8:	03bc4c33          	div	s8,s8,s11

000000008000bdfc <i_11714>:
    8000bdfc:	f4414c03          	lbu	s8,-188(sp)

000000008000be00 <i_11715>:
    8000be00:	896c0d9b          	addiw	s11,s8,-1898

000000008000be04 <i_11716>:
    8000be04:	03810823          	sb	s8,48(sp)

000000008000be08 <i_11717>:
    8000be08:	038c0c3b          	mulw	s8,s8,s8

000000008000be0c <i_11718>:
    8000be0c:	00a94433          	xor	s0,s2,a0

000000008000be10 <i_11719>:
    8000be10:	0f812e23          	sw	s8,252(sp)

000000008000be14 <i_11720>:
    8000be14:	7a100193          	li	gp,1953

000000008000be18 <i_11721>:
    8000be18:	7a800a13          	li	s4,1960

000000008000be1c <i_11722>:
    8000be1c:	00118193          	addi	gp,gp,1
    8000be20:	ff41cee3          	blt	gp,s4,8000be1c <i_11722>

000000008000be24 <i_11723>:
    8000be24:	06813083          	ld	ra,104(sp)

000000008000be28 <i_11724>:
    8000be28:	eb415383          	lhu	t2,-332(sp)

000000008000be2c <i_11725>:
    8000be2c:	01500393          	li	t2,21

000000008000be30 <i_11726>:
    8000be30:	007dd43b          	srlw	s0,s11,t2

000000008000be34 <i_11727>:
    8000be34:	f6813203          	ld	tp,-152(sp)

000000008000be38 <i_11728>:
    8000be38:	eb816983          	lwu	s3,-328(sp)

000000008000be3c <i_11729>:
    8000be3c:	8209a993          	slti	s3,s3,-2016

000000008000be40 <i_11730>:
    8000be40:	0276d063          	ble	t2,a3,8000be60 <i_11738>

000000008000be44 <i_11731>:
    8000be44:	15a15203          	lhu	tp,346(sp)

000000008000be48 <i_11732>:
    8000be48:	00119193          	slli	gp,gp,0x1

000000008000be4c <i_11733>:
    8000be4c:	403181bb          	subw	gp,gp,gp

000000008000be50 <i_11734>:
    8000be50:	1e814203          	lbu	tp,488(sp)

000000008000be54 <i_11735>:
    8000be54:	07510a83          	lb	s5,117(sp)

000000008000be58 <i_11736>:
    8000be58:	015d4863          	blt	s10,s5,8000be68 <i_11740>

000000008000be5c <i_11737>:
    8000be5c:	e2313423          	sd	gp,-472(sp)

000000008000be60 <i_11738>:
    8000be60:	00319a9b          	slliw	s5,gp,0x3

000000008000be64 <i_11739>:
    8000be64:	1e710e83          	lb	t4,487(sp)

000000008000be68 <i_11740>:
    8000be68:	fac11a83          	lh	s5,-84(sp)

000000008000be6c <i_11741>:
    8000be6c:	0151eab3          	or	s5,gp,s5

000000008000be70 <i_11742>:
    8000be70:	f5412303          	lw	t1,-172(sp)

000000008000be74 <i_11743>:
    8000be74:	1fe30193          	addi	gp,t1,510

000000008000be78 <i_11744>:
    8000be78:	06113c23          	sd	ra,120(sp)

000000008000be7c <i_11745>:
    8000be7c:	0241fa93          	andi	s5,gp,36

000000008000be80 <i_11746>:
    8000be80:	75200093          	li	ra,1874

000000008000be84 <i_11747>:
    8000be84:	75500193          	li	gp,1877

000000008000be88 <i_11748>:
    8000be88:	0236d333          	divu	t1,a3,gp

000000008000be8c <i_11749>:
    8000be8c:	15513423          	sd	s5,328(sp)

000000008000be90 <i_11750>:
    8000be90:	11e14303          	lbu	t1,286(sp)

000000008000be94 <i_11751>:
    8000be94:	0031cc63          	blt	gp,gp,8000beac <i_11757>

000000008000be98 <i_11752>:
    8000be98:	1b510303          	lb	t1,437(sp)

000000008000be9c <i_11753>:
    8000be9c:	5be2d337          	lui	t1,0x5be2d

000000008000bea0 <i_11754>:
    8000bea0:	00331e13          	slli	t3,t1,0x3

000000008000bea4 <i_11755>:
    8000bea4:	06611323          	sh	t1,102(sp)

000000008000bea8 <i_11756>:
    8000bea8:	026e5463          	ble	t1,t3,8000bed0 <i_11765>

000000008000beac <i_11757>:
    8000beac:	e7813803          	ld	a6,-392(sp)

000000008000beb0 <i_11758>:
    8000beb0:	0e411303          	lh	t1,228(sp)

000000008000beb4 <i_11759>:
    8000beb4:	019d0263          	beq	s10,s9,8000beb8 <i_11760>

000000008000beb8 <i_11760>:
    8000beb8:	01b00a13          	li	s4,27

000000008000bebc <i_11761>:
    8000bebc:	01461633          	sll	a2,a2,s4

000000008000bec0 <i_11762>:
    8000bec0:	00108093          	addi	ra,ra,1
    8000bec4:	fc11f2e3          	bleu	ra,gp,8000be88 <i_11748>

000000008000bec8 <i_11763>:
    8000bec8:	002c159b          	slliw	a1,s8,0x2

000000008000becc <i_11764>:
    8000becc:	01600593          	li	a1,22

000000008000bed0 <i_11765>:
    8000bed0:	00b352b3          	srl	t0,t1,a1

000000008000bed4 <i_11766>:
    8000bed4:	00628333          	add	t1,t0,t1

000000008000bed8 <i_11767>:
    8000bed8:	00537ab3          	and	s5,t1,t0

000000008000bedc <i_11768>:
    8000bedc:	031ae463          	bltu	s5,a7,8000bf04 <i_11778>

000000008000bee0 <i_11769>:
    8000bee0:	00528663          	beq	t0,t0,8000beec <i_11772>

000000008000bee4 <i_11770>:
    8000bee4:	015a8ab3          	add	s5,s5,s5

000000008000bee8 <i_11771>:
    8000bee8:	015abab3          	sltu	s5,s5,s5

000000008000beec <i_11772>:
    8000beec:	0b413023          	sd	s4,160(sp)

000000008000bef0 <i_11773>:
    8000bef0:	f6412e03          	lw	t3,-156(sp)

000000008000bef4 <i_11774>:
    8000bef4:	07710a83          	lb	s5,119(sp)

000000008000bef8 <i_11775>:
    8000bef8:	1d412383          	lw	t2,468(sp)

000000008000befc <i_11776>:
    8000befc:	e5615e03          	lhu	t3,-426(sp)

000000008000bf00 <i_11777>:
    8000bf00:	01ce5c63          	ble	t3,t3,8000bf18 <i_11783>

000000008000bf04 <i_11778>:
    8000bf04:	03c38e3b          	mulw	t3,t2,t3

000000008000bf08 <i_11779>:
    8000bf08:	14312a23          	sw	gp,340(sp)

000000008000bf0c <i_11780>:
    8000bf0c:	4ce1f393          	andi	t2,gp,1230

000000008000bf10 <i_11781>:
    8000bf10:	1ac12383          	lw	t2,428(sp)

000000008000bf14 <i_11782>:
    8000bf14:	06813a83          	ld	s5,104(sp)

000000008000bf18 <i_11783>:
    8000bf18:	00000013          	nop

000000008000bf1c <i_11784>:
    8000bf1c:	027a2a13          	slti	s4,s4,39

000000008000bf20 <i_11785>:
    8000bf20:	8bc00193          	li	gp,-1860

000000008000bf24 <i_11786>:
    8000bf24:	8c200e13          	li	t3,-1854

000000008000bf28 <i_11787>:
    8000bf28:	09510123          	sb	s5,130(sp)

000000008000bf2c <i_11788>:
    8000bf2c:	00118193          	addi	gp,gp,1
    8000bf30:	fe3e5ce3          	ble	gp,t3,8000bf28 <i_11787>

000000008000bf34 <i_11789>:
    8000bf34:	f8712c23          	sw	t2,-104(sp)

000000008000bf38 <i_11790>:
    8000bf38:	014a49b3          	xor	s3,s4,s4

000000008000bf3c <i_11791>:
    8000bf3c:	e5a10603          	lb	a2,-422(sp)

000000008000bf40 <i_11792>:
    8000bf40:	02865a3b          	divuw	s4,a2,s0

000000008000bf44 <i_11793>:
    8000bf44:	03462633          	mulhsu	a2,a2,s4

000000008000bf48 <i_11794>:
    8000bf48:	1c412c83          	lw	s9,452(sp)

000000008000bf4c <i_11795>:
    8000bf4c:	40265313          	srai	t1,a2,0x2

000000008000bf50 <i_11796>:
    8000bf50:	03af443b          	divw	s0,t5,s10

000000008000bf54 <i_11797>:
    8000bf54:	07412983          	lw	s3,116(sp)

000000008000bf58 <i_11798>:
    8000bf58:	0509b613          	sltiu	a2,s3,80

000000008000bf5c <i_11799>:
    8000bf5c:	f1814303          	lbu	t1,-232(sp)

000000008000bf60 <i_11800>:
    8000bf60:	0139e463          	bltu	s3,s3,8000bf68 <i_11802>

000000008000bf64 <i_11801>:
    8000bf64:	0030d09b          	srliw	ra,ra,0x3

000000008000bf68 <i_11802>:
    8000bf68:	0330f4b3          	remu	s1,ra,s3

000000008000bf6c <i_11803>:
    8000bf6c:	e3c15303          	lhu	t1,-452(sp)

000000008000bf70 <i_11804>:
    8000bf70:	fcc102a3          	sb	a2,-59(sp)

000000008000bf74 <i_11805>:
    8000bf74:	0f416d83          	lwu	s11,244(sp)

000000008000bf78 <i_11806>:
    8000bf78:	0da5a617          	auipc	a2,0xda5a

000000008000bf7c <i_11807>:
    8000bf7c:	0134cc63          	blt	s1,s3,8000bf94 <i_11813>

000000008000bf80 <i_11808>:
    8000bf80:	fa610303          	lb	t1,-90(sp)

000000008000bf84 <i_11809>:
    8000bf84:	01c0c663          	blt	ra,t3,8000bf90 <i_11812>

000000008000bf88 <i_11810>:
    8000bf88:	00c0fc63          	bleu	a2,ra,8000bfa0 <i_11816>

000000008000bf8c <i_11811>:
    8000bf8c:	fa233093          	sltiu	ra,t1,-94

000000008000bf90 <i_11812>:
    8000bf90:	15313c23          	sd	s3,344(sp)

000000008000bf94 <i_11813>:
    8000bf94:	00c41463          	bne	s0,a2,8000bf9c <i_11815>

000000008000bf98 <i_11814>:
    8000bf98:	00331313          	slli	t1,t1,0x3

000000008000bf9c <i_11815>:
    8000bf9c:	0d411a83          	lh	s5,212(sp)

000000008000bfa0 <i_11816>:
    8000bfa0:	0300883b          	mulw	a6,ra,a6

000000008000bfa4 <i_11817>:
    8000bfa4:	03beabb3          	mulhsu	s7,t4,s11

000000008000bfa8 <i_11818>:
    8000bfa8:	e3611d83          	lh	s11,-458(sp)

000000008000bfac <i_11819>:
    8000bfac:	139bed93          	ori	s11,s7,313

000000008000bfb0 <i_11820>:
    8000bfb0:	05b10da3          	sb	s11,91(sp)

000000008000bfb4 <i_11821>:
    8000bfb4:	00375d9b          	srliw	s11,a4,0x3

000000008000bfb8 <i_11822>:
    8000bfb8:	02211d83          	lh	s11,34(sp)

000000008000bfbc <i_11823>:
    8000bfbc:	fae10603          	lb	a2,-82(sp)

000000008000bfc0 <i_11824>:
    8000bfc0:	01bdec63          	bltu	s11,s11,8000bfd8 <i_11830>

000000008000bfc4 <i_11825>:
    8000bfc4:	1ac12423          	sw	a2,424(sp)

000000008000bfc8 <i_11826>:
    8000bfc8:	e8016203          	lwu	tp,-384(sp)

000000008000bfcc <i_11827>:
    8000bfcc:	01c27db3          	and	s11,tp,t3

000000008000bfd0 <i_11828>:
    8000bfd0:	00427cb3          	and	s9,tp,tp

000000008000bfd4 <i_11829>:
    8000bfd4:	039c8233          	mul	tp,s9,s9

000000008000bfd8 <i_11830>:
    8000bfd8:	02e00d93          	li	s11,46

000000008000bfdc <i_11831>:
    8000bfdc:	41bdd833          	sra	a6,s11,s11

000000008000bfe0 <i_11832>:
    8000bfe0:	030cfcbb          	remuw	s9,s9,a6

000000008000bfe4 <i_11833>:
    8000bfe4:	dec80213          	addi	tp,a6,-532

000000008000bfe8 <i_11834>:
    8000bfe8:	0241c233          	div	tp,gp,tp

000000008000bfec <i_11835>:
    8000bfec:	e5312a23          	sw	s3,-428(sp)

000000008000bff0 <i_11836>:
    8000bff0:	03400c93          	li	s9,52

000000008000bff4 <i_11837>:
    8000bff4:	019191b3          	sll	gp,gp,s9

000000008000bff8 <i_11838>:
    8000bff8:	404e8eb3          	sub	t4,t4,tp

000000008000bffc <i_11839>:
    8000bffc:	023cd263          	ble	gp,s9,8000c020 <i_11848>

000000008000c000 <i_11840>:
    8000c000:	e3816a03          	lwu	s4,-456(sp)

000000008000c004 <i_11841>:
    8000c004:	024d4a33          	div	s4,s10,tp

000000008000c008 <i_11842>:
    8000c008:	004a0233          	add	tp,s4,tp

000000008000c00c <i_11843>:
    8000c00c:	edc15403          	lhu	s0,-292(sp)

000000008000c010 <i_11844>:
    8000c010:	00845663          	ble	s0,s0,8000c01c <i_11847>

000000008000c014 <i_11845>:
    8000c014:	f4213423          	sd	sp,-184(sp)

000000008000c018 <i_11846>:
    8000c018:	0244043b          	mulw	s0,s0,tp

000000008000c01c <i_11847>:
    8000c01c:	f8412023          	sw	tp,-128(sp)

000000008000c020 <i_11848>:
    8000c020:	00440233          	add	tp,s0,tp

000000008000c024 <i_11849>:
    8000c024:	e8415483          	lhu	s1,-380(sp)

000000008000c028 <i_11850>:
    8000c028:	85805337          	lui	t1,0x85805

000000008000c02c <i_11851>:
    8000c02c:	02600213          	li	tp,38

000000008000c030 <i_11852>:
    8000c030:	00491bb3          	sll	s7,s2,tp

000000008000c034 <i_11853>:
    8000c034:	0d812303          	lw	t1,216(sp)

000000008000c038 <i_11854>:
    8000c038:	01d00413          	li	s0,29

000000008000c03c <i_11855>:
    8000c03c:	408954b3          	sra	s1,s2,s0

000000008000c040 <i_11856>:
    8000c040:	026e7263          	bleu	t1,t3,8000c064 <i_11865>

000000008000c044 <i_11857>:
    8000c044:	02e11603          	lh	a2,46(sp)

000000008000c048 <i_11858>:
    8000c048:	dfc6041b          	addiw	s0,a2,-516

000000008000c04c <i_11859>:
    8000c04c:	009403b3          	add	t2,s0,s1

000000008000c050 <i_11860>:
    8000c050:	01826a63          	bltu	tp,s8,8000c064 <i_11865>

000000008000c054 <i_11861>:
    8000c054:	08413423          	sd	tp,136(sp)

000000008000c058 <i_11862>:
    8000c058:	02c27eb3          	remu	t4,tp,a2

000000008000c05c <i_11863>:
    8000c05c:	00824863          	blt	tp,s0,8000c06c <i_11867>

000000008000c060 <i_11864>:
    8000c060:	14615603          	lhu	a2,326(sp)

000000008000c064 <i_11865>:
    8000c064:	0287f633          	remu	a2,a5,s0

000000008000c068 <i_11866>:
    8000c068:	f8914783          	lbu	a5,-119(sp)

000000008000c06c <i_11867>:
    8000c06c:	02c79463          	bne	a5,a2,8000c094 <i_11877>

000000008000c070 <i_11868>:
    8000c070:	00fe8263          	beq	t4,a5,8000c074 <i_11869>

000000008000c074 <i_11869>:
    8000c074:	03c15783          	lhu	a5,60(sp)

000000008000c078 <i_11870>:
    8000c078:	00000013          	nop

000000008000c07c <i_11871>:
    8000c07c:	00000013          	nop

000000008000c080 <i_11872>:
    8000c080:	00f660b3          	or	ra,a2,a5

000000008000c084 <i_11873>:
    8000c084:	00cf0633          	add	a2,t5,a2

000000008000c088 <i_11874>:
    8000c088:	021607bb          	mulw	a5,a2,ra

000000008000c08c <i_11875>:
    8000c08c:	0017d793          	srli	a5,a5,0x1

000000008000c090 <i_11876>:
    8000c090:	6b2e2797          	auipc	a5,0x6b2e2

000000008000c094 <i_11877>:
    8000c094:	02163ab3          	mulhu	s5,a2,ra

000000008000c098 <i_11878>:
    8000c098:	0350c2bb          	divw	t0,ra,s5

000000008000c09c <i_11879>:
    8000c09c:	7d000993          	li	s3,2000

000000008000c0a0 <i_11880>:
    8000c0a0:	7df00413          	li	s0,2015

000000008000c0a4 <i_11881>:
    8000c0a4:	1c215d83          	lhu	s11,450(sp)

000000008000c0a8 <i_11882>:
    8000c0a8:	f8013a83          	ld	s5,-128(sp)

000000008000c0ac <i_11883>:
    8000c0ac:	02800093          	li	ra,40

000000008000c0b0 <i_11884>:
    8000c0b0:	0012dab3          	srl	s5,t0,ra

000000008000c0b4 <i_11885>:
    8000c0b4:	19511a23          	sh	s5,404(sp)

000000008000c0b8 <i_11886>:
    8000c0b8:	00198993          	addi	s3,s3,1
    8000c0bc:	fe89c4e3          	blt	s3,s0,8000c0a4 <i_11881>

000000008000c0c0 <i_11887>:
    8000c0c0:	01e49663          	bne	s1,t5,8000c0cc <i_11890>

000000008000c0c4 <i_11888>:
    8000c0c4:	01b00a13          	li	s4,27

000000008000c0c8 <i_11889>:
    8000c0c8:	414adabb          	sraw	s5,s5,s4

000000008000c0cc <i_11890>:
    8000c0cc:	039fccb3          	div	s9,t6,s9

000000008000c0d0 <i_11891>:
    8000c0d0:	034a1463          	bne	s4,s4,8000c0f8 <i_11901>

000000008000c0d4 <i_11892>:
    8000c0d4:	f2c11503          	lh	a0,-212(sp)

000000008000c0d8 <i_11893>:
    8000c0d8:	0150ee63          	bltu	ra,s5,8000c0f4 <i_11900>

000000008000c0dc <i_11894>:
    8000c0dc:	007ad463          	ble	t2,s5,8000c0e4 <i_11896>

000000008000c0e0 <i_11895>:
    8000c0e0:	e7512823          	sw	s5,-400(sp)

000000008000c0e4 <i_11896>:
    8000c0e4:	002a9a93          	slli	s5,s5,0x2

000000008000c0e8 <i_11897>:
    8000c0e8:	00ac9a63          	bne	s9,a0,8000c0fc <i_11902>

000000008000c0ec <i_11898>:
    8000c0ec:	1d814083          	lbu	ra,472(sp)

000000008000c0f0 <i_11899>:
    8000c0f0:	fd912e23          	sw	s9,-36(sp)

000000008000c0f4 <i_11900>:
    8000c0f4:	021ac463          	blt	s5,ra,8000c11c <i_11910>

000000008000c0f8 <i_11901>:
    8000c0f8:	014a8ab3          	add	s5,s5,s4

000000008000c0fc <i_11902>:
    8000c0fc:	02aac063          	blt	s5,a0,8000c11c <i_11910>

000000008000c100 <i_11903>:
    8000c100:	01545663          	ble	s5,s0,8000c10c <i_11906>

000000008000c104 <i_11904>:
    8000c104:	e9510e23          	sb	s5,-356(sp)

000000008000c108 <i_11905>:
    8000c108:	e6813a83          	ld	s5,-408(sp)

000000008000c10c <i_11906>:
    8000c10c:	e390b093          	sltiu	ra,ra,-455

000000008000c110 <i_11907>:
    8000c110:	fd511a23          	sh	s5,-44(sp)

000000008000c114 <i_11908>:
    8000c114:	015aee63          	bltu	s5,s5,8000c130 <i_11915>

000000008000c118 <i_11909>:
    8000c118:	030f7abb          	remuw	s5,t5,a6

000000008000c11c <i_11910>:
    8000c11c:	ec412803          	lw	a6,-316(sp)

000000008000c120 <i_11911>:
    8000c120:	00177263          	bleu	ra,a4,8000c124 <i_11912>

000000008000c124 <i_11912>:
    8000c124:	fb510123          	sb	s5,-94(sp)

000000008000c128 <i_11913>:
    8000c128:	0030d313          	srli	t1,ra,0x3

000000008000c12c <i_11914>:
    8000c12c:	18736093          	ori	ra,t1,391

000000008000c130 <i_11915>:
    8000c130:	f9412383          	lw	t2,-108(sp)

000000008000c134 <i_11916>:
    8000c134:	00781863          	bne	a6,t2,8000c144 <i_11920>

000000008000c138 <i_11917>:
    8000c138:	1d010ca3          	sb	a6,473(sp)

000000008000c13c <i_11918>:
    8000c13c:	030e5063          	ble	a6,t3,8000c15c <i_11926>

000000008000c140 <i_11919>:
    8000c140:	00787833          	and	a6,a6,t2

000000008000c144 <i_11920>:
    8000c144:	01753bb3          	sltu	s7,a0,s7

000000008000c148 <i_11921>:
    8000c148:	06014083          	lbu	ra,96(sp)

000000008000c14c <i_11922>:
    8000c14c:	00700b93          	li	s7,7

000000008000c150 <i_11923>:
    8000c150:	01735abb          	srlw	s5,t1,s7

000000008000c154 <i_11924>:
    8000c154:	e3016a03          	lwu	s4,-464(sp)

000000008000c158 <i_11925>:
    8000c158:	00147263          	bleu	ra,s0,8000c15c <i_11926>

000000008000c15c <i_11926>:
    8000c15c:	03185063          	ble	a7,a6,8000c17c <i_11934>

000000008000c160 <i_11927>:
    8000c160:	00108863          	beq	ra,ra,8000c170 <i_11931>

000000008000c164 <i_11928>:
    8000c164:	001ff863          	bleu	ra,t6,8000c174 <i_11932>

000000008000c168 <i_11929>:
    8000c168:	001b1463          	bne	s6,ra,8000c170 <i_11931>

000000008000c16c <i_11930>:
    8000c16c:	46197313          	andi	t1,s2,1121

000000008000c170 <i_11931>:
    8000c170:	01408a33          	add	s4,ra,s4

000000008000c174 <i_11932>:
    8000c174:	0343f263          	bleu	s4,t2,8000c198 <i_11941>

000000008000c178 <i_11933>:
    8000c178:	0340fa33          	remu	s4,ra,s4

000000008000c17c <i_11934>:
    8000c17c:	ffc12a03          	lw	s4,-4(sp)

000000008000c180 <i_11935>:
    8000c180:	11810503          	lb	a0,280(sp)

000000008000c184 <i_11936>:
    8000c184:	14110b23          	sb	ra,342(sp)

000000008000c188 <i_11937>:
    8000c188:	1a813083          	ld	ra,424(sp)

000000008000c18c <i_11938>:
    8000c18c:	08111223          	sh	ra,132(sp)

000000008000c190 <i_11939>:
    8000c190:	53a8ec13          	ori	s8,a7,1338

000000008000c194 <i_11940>:
    8000c194:	00ab5e63          	ble	a0,s6,8000c1b0 <i_11947>

000000008000c198 <i_11941>:
    8000c198:	ed013503          	ld	a0,-304(sp)

000000008000c19c <i_11942>:
    8000c19c:	004c1c1b          	slliw	s8,s8,0x4

000000008000c1a0 <i_11943>:
    8000c1a0:	038175b3          	remu	a1,sp,s8

000000008000c1a4 <i_11944>:
    8000c1a4:	001c0e63          	beq	s8,ra,8000c1c0 <i_11951>

000000008000c1a8 <i_11945>:
    8000c1a8:	00b10523          	sb	a1,10(sp)

000000008000c1ac <i_11946>:
    8000c1ac:	04615503          	lhu	a0,70(sp)

000000008000c1b0 <i_11947>:
    8000c1b0:	eb815a03          	lhu	s4,-328(sp)

000000008000c1b4 <i_11948>:
    8000c1b4:	1de15983          	lhu	s3,478(sp)

000000008000c1b8 <i_11949>:
    8000c1b8:	00000013          	nop

000000008000c1bc <i_11950>:
    8000c1bc:	11413023          	sd	s4,256(sp)

000000008000c1c0 <i_11951>:
    8000c1c0:	13013203          	ld	tp,304(sp)

000000008000c1c4 <i_11952>:
    8000c1c4:	038cf63b          	remuw	a2,s9,s8

000000008000c1c8 <i_11953>:
    8000c1c8:	77900513          	li	a0,1913

000000008000c1cc <i_11954>:
    8000c1cc:	77e00c13          	li	s8,1918

000000008000c1d0 <i_11955>:
    8000c1d0:	00000013          	nop

000000008000c1d4 <i_11956>:
    8000c1d4:	09f14603          	lbu	a2,159(sp)

000000008000c1d8 <i_11957>:
    8000c1d8:	78200493          	li	s1,1922

000000008000c1dc <i_11958>:
    8000c1dc:	79400c93          	li	s9,1940

000000008000c1e0 <i_11959>:
    8000c1e0:	02c16583          	lwu	a1,44(sp)

000000008000c1e4 <i_11960>:
    8000c1e4:	16e15803          	lhu	a6,366(sp)

000000008000c1e8 <i_11961>:
    8000c1e8:	d81f0217          	auipc	tp,0xd81f0

000000008000c1ec <i_11962>:
    8000c1ec:	025982b3          	mul	t0,s3,t0

000000008000c1f0 <i_11963>:
    8000c1f0:	00148493          	addi	s1,s1,1
    8000c1f4:	fe9cf6e3          	bleu	s1,s9,8000c1e0 <i_11959>

000000008000c1f8 <i_11964>:
    8000c1f8:	02435463          	ble	tp,t1,8000c220 <i_11973>

000000008000c1fc <i_11965>:
    8000c1fc:	00000013          	nop

000000008000c200 <i_11966>:
    8000c200:	00150513          	addi	a0,a0,1 # 2a6cae81 <main-0x5593517f>
    8000c204:	fcac76e3          	bleu	a0,s8,8000c1d0 <i_11955>

000000008000c208 <i_11967>:
    8000c208:	023807b3          	mul	a5,a6,gp

000000008000c20c <i_11968>:
    8000c20c:	f5413023          	sd	s4,-192(sp)

000000008000c210 <i_11969>:
    8000c210:	fbc11483          	lh	s1,-68(sp)

000000008000c214 <i_11970>:
    8000c214:	fac12503          	lw	a0,-84(sp)

000000008000c218 <i_11971>:
    8000c218:	41b20c33          	sub	s8,tp,s11

000000008000c21c <i_11972>:
    8000c21c:	00900c13          	li	s8,9

000000008000c220 <i_11973>:
    8000c220:	018391bb          	sllw	gp,t2,s8

000000008000c224 <i_11974>:
    8000c224:	00000013          	nop

000000008000c228 <i_11975>:
    8000c228:	7a000a93          	li	s5,1952

000000008000c22c <i_11976>:
    8000c22c:	7a400613          	li	a2,1956

000000008000c230 <i_11977>:
    8000c230:	001a8a93          	addi	s5,s5,1
    8000c234:	ff567ee3          	bleu	s5,a2,8000c230 <i_11977>

000000008000c238 <i_11978>:
    8000c238:	018c4db3          	xor	s11,s8,s8

000000008000c23c <i_11979>:
    8000c23c:	f4415303          	lhu	t1,-188(sp)

000000008000c240 <i_11980>:
    8000c240:	e7a15183          	lhu	gp,-390(sp)

000000008000c244 <i_11981>:
    8000c244:	01837c63          	bleu	s8,t1,8000c25c <i_11987>

000000008000c248 <i_11982>:
    8000c248:	03bc6263          	bltu	s8,s11,8000c26c <i_11991>

000000008000c24c <i_11983>:
    8000c24c:	01836663          	bltu	t1,s8,8000c258 <i_11986>

000000008000c250 <i_11984>:
    8000c250:	026c1c33          	mulh	s8,s8,t1

000000008000c254 <i_11985>:
    8000c254:	ed611083          	lh	ra,-298(sp)

000000008000c258 <i_11986>:
    8000c258:	02d1f063          	bleu	a3,gp,8000c278 <i_11994>

000000008000c25c <i_11987>:
    8000c25c:	04c16783          	lwu	a5,76(sp)

000000008000c260 <i_11988>:
    8000c260:	00400813          	li	a6,4

000000008000c264 <i_11989>:
    8000c264:	0101d833          	srl	a6,gp,a6

000000008000c268 <i_11990>:
    8000c268:	09813823          	sd	s8,144(sp)

000000008000c26c <i_11991>:
    8000c26c:	fdb14e03          	lbu	t3,-37(sp)

000000008000c270 <i_11992>:
    8000c270:	12812383          	lw	t2,296(sp)

000000008000c274 <i_11993>:
    8000c274:	017847b3          	xor	a5,a6,s7

000000008000c278 <i_11994>:
    8000c278:	0263d463          	ble	t1,t2,8000c2a0 <i_12004>

000000008000c27c <i_11995>:
    8000c27c:	18c14183          	lbu	gp,396(sp)

000000008000c280 <i_11996>:
    8000c280:	e3e15c03          	lhu	s8,-450(sp)

000000008000c284 <i_11997>:
    8000c284:	418809bb          	subw	s3,a6,s8

000000008000c288 <i_11998>:
    8000c288:	110d841b          	addiw	s0,s11,272

000000008000c28c <i_11999>:
    8000c28c:	ff211e03          	lh	t3,-14(sp)

000000008000c290 <i_12000>:
    8000c290:	00000013          	nop

000000008000c294 <i_12001>:
    8000c294:	00000013          	nop

000000008000c298 <i_12002>:
    8000c298:	00000013          	nop

000000008000c29c <i_12003>:
    8000c29c:	00000013          	nop

000000008000c2a0 <i_12004>:
    8000c2a0:	00000013          	nop

000000008000c2a4 <i_12005>:
    8000c2a4:	00000013          	nop

000000008000c2a8 <i_12006>:
    8000c2a8:	00000013          	nop

000000008000c2ac <i_12007>:
    8000c2ac:	00000013          	nop

000000008000c2b0 <i_12008>:
    8000c2b0:	00000013          	nop

000000008000c2b4 <i_12009>:
    8000c2b4:	00000013          	nop
    8000c2b8:	0040006f          	j	8000c2bc <tohost_exit>

000000008000c2bc <tohost_exit>:
    8000c2bc:	00100113          	li	sp,1
    8000c2c0:	01f11113          	slli	sp,sp,0x1f
    8000c2c4:	000101b7          	lui	gp,0x10
    8000c2c8:	00310133          	add	sp,sp,gp
    8000c2cc:	00100713          	li	a4,1
    8000c2d0:	40e12023          	sw	a4,1024(sp)

000000008000c2d4 <loop>:
    8000c2d4:	0000006f          	j	8000c2d4 <loop>
	...

Disassembly of section .data:

0000000080010000 <data>:
    80010000:	9dfe664f          	0x9dfe664f
    80010004:	256a                	fld	fa0,152(sp)
    80010006:	fa5d                	bnez	a2,8000ffbc <loop+0x3ce8>
    80010008:	cb3c                	sw	a5,80(a4)
    8001000a:	22b1                	addiw	t0,t0,12
    8001000c:	6776                	ld	a4,344(sp)
    8001000e:	3141                	addiw	sp,sp,-16
    80010010:	7c994c1b          	0x7c994c1b
    80010014:	e300                	sd	s0,0(a4)
    80010016:	a8ec                	fsd	fa1,208(s1)
    80010018:	c7bc224b          	fnmsub.q	ft4,fs8,fs11,fs8,rdn
    8001001c:	c0a36ef7          	0xc0a36ef7
    80010020:	7a61                	lui	s4,0xffff8
    80010022:	327c                	fld	fa5,224(a2)
    80010024:	f7c704db          	0xf7c704db
    80010028:	e6ef89ab          	0xe6ef89ab
    8001002c:	a542                	fsd	fa6,136(sp)
    8001002e:	5dbea897          	auipc	a7,0x5dbea
    80010032:	7051                	c.lui	zero,0xffff4
    80010034:	6021                	c.lui	zero,0x8
    80010036:	aed0                	fsd	fa2,152(a3)
    80010038:	cec5                	beqz	a3,800100f0 <data+0xf0>
    8001003a:	df9f 47bf e140      	0xe14047bfdf9f
    80010040:	9d08                	0x9d08
    80010042:	30374383          	lbu	t2,771(a4)
    80010046:	3fe1                	addiw	t6,t6,-8
    80010048:	669c                	ld	a5,8(a3)
    8001004a:	417a                	lw	sp,156(sp)
    8001004c:	cd5c3997          	auipc	s3,0xcd5c3
    80010050:	cc8e0113          	addi	sp,t3,-824
    80010054:	a9b8                	fsd	fa4,80(a1)
    80010056:	a3bc                	fsd	fa5,64(a5)
    80010058:	d312                	sw	tp,164(sp)
    8001005a:	f83d                	bnez	s0,8000ffd0 <loop+0x3cfc>
    8001005c:	f44d                	bnez	s0,80010006 <data+0x6>
    8001005e:	4b0c                	lw	a1,16(a4)
    80010060:	5686                	lw	a3,96(sp)
    80010062:	6d4ced43          	0x6d4ced43
    80010066:	2584                	fld	fs1,8(a1)
    80010068:	7b3d                	lui	s6,0xfffef
    8001006a:	b679                	j	8000fbf8 <loop+0x3924>
    8001006c:	1a51                	addi	s4,s4,-12
    8001006e:	4834                	lw	a3,80(s0)
    80010070:	807dfca7          	0x807dfca7
    80010074:	d54c                	sw	a1,44(a0)
    80010076:	0a2c                	addi	a1,sp,280
    80010078:	6721                	lui	a4,0x8
    8001007a:	7e89229b          	0x7e89229b
    8001007e:	0510                	addi	a2,sp,640
    80010080:	d3b2                	sw	a2,228(sp)
    80010082:	c776                	sw	t4,140(sp)
    80010084:	0685b13f 3202f164 	0x3202f1640685b13f
    8001008c:	2008e94b          	fnmsub.s	fs2,fa7,ft0,ft4,unknown
    80010090:	4806                	lw	a6,64(sp)
    80010092:	7926                	ld	s2,104(sp)
    80010094:	ede4                	sd	s1,216(a1)
    80010096:	9e0e                	add	t3,t3,gp
    80010098:	3fc9                	addiw	t6,t6,-14
    8001009a:	a5a87343          	0xa5a87343
    8001009e:	e0fdd1d3          	0xe0fdd1d3
    800100a2:	c3b2                	sw	a2,196(sp)
    800100a4:	5cd5                	li	s9,-11
    800100a6:	84cd                	srai	s1,s1,0x13
    800100a8:	fd48                	sd	a0,184(a0)
    800100aa:	37da                	fld	fa5,432(sp)
    800100ac:	5414                	lw	a3,40(s0)
    800100ae:	5be6                	lw	s7,120(sp)
    800100b0:	5795                	li	a5,-27
    800100b2:	62e6e1b3          	0x62e6e1b3
    800100b6:	b990                	fsd	fa2,48(a1)
    800100b8:	35a6                	fld	fa1,104(sp)
    800100ba:	38d2                	fld	fa7,304(sp)
    800100bc:	a8f2                	fsd	ft8,80(sp)
    800100be:	3274f2e7          	0x3274f2e7
    800100c2:	d724                	sw	s1,104(a4)
    800100c4:	7288                	ld	a0,32(a3)
    800100c6:	c93f6c77          	0xc93f6c77
    800100ca:	4839                	li	a6,14
    800100cc:	26dd                	addiw	a3,a3,23
    800100ce:	321c                	fld	fa5,32(a2)
    800100d0:	5e1f df98 8fc2      	0x8fc2df985e1f
    800100d6:	1794                	addi	a3,sp,992
    800100d8:	0584b88f          	0x584b88f
    800100dc:	1bfa                	slli	s7,s7,0x3e
    800100de:	4c8d                	li	s9,3
    800100e0:	2d96                	fld	fs11,320(sp)
    800100e2:	2dbd                	addiw	s11,s11,15
    800100e4:	90dc                	0x90dc
    800100e6:	6ed0                	ld	a2,152(a3)
    800100e8:	e201                	bnez	a2,800100e8 <data+0xe8>
    800100ea:	73f5                	lui	t2,0xffffd
    800100ec:	8f95c8bb          	0x8f95c8bb
    800100f0:	20ba                	fld	ft1,392(sp)
    800100f2:	9efe                	add	t4,t4,t6
    800100f4:	26817e0f          	0x26817e0f
    800100f8:	7a48                	ld	a0,176(a2)
    800100fa:	3f7a                	fld	ft10,440(sp)
    800100fc:	33e6                	fld	ft7,120(sp)
    800100fe:	f19cea0f          	0xf19cea0f
    80010102:	5a24                	lw	s1,112(a2)
    80010104:	db60                	sw	s0,116(a4)
    80010106:	d3087c9b          	0xd3087c9b
    8001010a:	3e58                	fld	fa4,184(a2)
    8001010c:	4488                	lw	a0,8(s1)
    8001010e:	50ed                	li	ra,-5
    80010110:	b986                	fsd	ft1,240(sp)
    80010112:	69de                	ld	s3,464(sp)
    80010114:	90a0                	0x90a0
    80010116:	2d7e                	fld	fs10,472(sp)
    80010118:	6264                	ld	s1,192(a2)
    8001011a:	782acc53          	0x782acc53
    8001011e:	175e                	slli	a4,a4,0x37
    80010120:	594c                	lw	a1,52(a0)
    80010122:	df86                	sw	ra,252(sp)
    80010124:	4e38                	lw	a4,88(a2)
    80010126:	6146                	ld	sp,80(sp)
    80010128:	dd12                	sw	tp,184(sp)
    8001012a:	2ed0                	fld	fa2,152(a3)
    8001012c:	cdd1                	beqz	a1,800101c8 <data+0x1c8>
    8001012e:	5275                	li	tp,-3
    80010130:	369c                	fld	fa5,40(a3)
    80010132:	bdae                	fsd	fa1,248(sp)
    80010134:	f0f2                	sd	t3,96(sp)
    80010136:	9a69                	andi	a2,a2,-6
    80010138:	3c20                	fld	fs0,120(s0)
    8001013a:	5a48                	lw	a0,52(a2)
    8001013c:	18b6                	slli	a7,a7,0x2d
    8001013e:	a6d0                	fsd	fa2,136(a3)
    80010140:	0708                	addi	a0,sp,896
    80010142:	2175                	addiw	sp,sp,29
    80010144:	f813314f          	fnmadd.s	ft2,ft6,ft1,ft11,rup
    80010148:	32e8                	fld	fa0,224(a3)
    8001014a:	1c4c                	addi	a1,sp,564
    8001014c:	43f97263          	bleu	t6,s2,80010570 <_end+0x15c>
    80010150:	6a22                	ld	s4,8(sp)
    80010152:	d592                	sw	tp,232(sp)
    80010154:	865c                	0x865c
    80010156:	d6be                	sw	a5,108(sp)
    80010158:	16a8                	addi	a0,sp,872
    8001015a:	5b66                	lw	s6,120(sp)
    8001015c:	e480b4cf          	0xe480b4cf
    80010160:	3105                	addiw	sp,sp,-31
    80010162:	fe6e                	sd	s11,312(sp)
    80010164:	a7b0                	fsd	fa2,72(a5)
    80010166:	c505                	beqz	a0,8001018e <data+0x18e>
    80010168:	11f5                	addi	gp,gp,-3
    8001016a:	97de                	add	a5,a5,s7
    8001016c:	02c2                	slli	t0,t0,0x10
    8001016e:	f249                	bnez	a2,800100f0 <data+0xf0>
    80010170:	089b0e87          	0x89b0e87
    80010174:	81ba                	mv	gp,a4
    80010176:	53da                	lw	t2,180(sp)
    80010178:	b49a                	fsd	ft6,104(sp)
    8001017a:	4b1d                	li	s6,7
    8001017c:	f13aedd7          	0xf13aedd7
    80010180:	489a                	lw	a7,132(sp)
    80010182:	7701                	lui	a4,0xfffe0
    80010184:	e9d8                	sd	a4,144(a1)
    80010186:	1032                	c.slli	zero,0x2c
    80010188:	8592                	mv	a1,tp
    8001018a:	5c64                	lw	s1,124(s0)
    8001018c:	aa0a                	fsd	ft2,272(sp)
    8001018e:	6e88                	ld	a0,24(a3)
    80010190:	64d2                	ld	s1,272(sp)
    80010192:	056e                	slli	a0,a0,0x1b
    80010194:	6214                	ld	a3,0(a2)
    80010196:	37ea                	fld	fa5,184(sp)
    80010198:	7e52                	ld	t3,304(sp)
    8001019a:	10ea                	slli	ra,ra,0x3a
    8001019c:	5674                	lw	a3,108(a2)
    8001019e:	896c                	0x896c
    800101a0:	bc8c                	fsd	fa1,56(s1)
    800101a2:	20266a03          	lwu	s4,514(a2) # 8da6617a <_end+0xda55d66>
    800101a6:	3151                	addiw	sp,sp,-12
    800101a8:	99a6                	add	s3,s3,s1
    800101aa:	6f08                	ld	a0,24(a4)
    800101ac:	dbb1                	beqz	a5,80010100 <data+0x100>
    800101ae:	6804                	ld	s1,16(s0)
    800101b0:	b7a0                	fsd	fs0,104(a5)
    800101b2:	3e2a                	fld	ft8,168(sp)
    800101b4:	57e1                	li	a5,-8
    800101b6:	02c5                	addi	t0,t0,17
    800101b8:	8a06                	mv	s4,ra
    800101ba:	999e976f          	jal	a4,7fff9b52 <main-0x64ae>
    800101be:	991d                	andi	a0,a0,-25
    800101c0:	39c5                	addiw	s3,s3,-15
    800101c2:	3d6d                	addiw	s10,s10,-5
    800101c4:	df54                	sw	a3,60(a4)
    800101c6:	fcf34e8f          	0xfcf34e8f
    800101ca:	bd01f50f          	0xbd01f50f
    800101ce:	b188                	fsd	fa0,32(a1)
    800101d0:	6f31                	lui	t5,0xc
    800101d2:	9ca2                	add	s9,s9,s0
    800101d4:	f0e1                	bnez	s1,80010194 <data+0x194>
    800101d6:	50dd                	li	ra,-9
    800101d8:	6d8e                	ld	s11,192(sp)
    800101da:	73b8f943          	fmadd.d	fs2,fa7,fs11,fa4
    800101de:	2219                	addiw	tp,tp,6
    800101e0:	65d2                	ld	a1,272(sp)
    800101e2:	d162df6f          	jal	t5,7ff3d6f8 <main-0xc2908>
    800101e6:	ee31                	bnez	a2,80010242 <data+0x242>
    800101e8:	7e0ed23f d47e47dc 	0xd47e47dc7e0ed23f
    800101f0:	d626                	sw	s1,44(sp)
    800101f2:	f2a9                	bnez	a3,80010134 <data+0x134>
    800101f4:	b49dc6b3          	0xb49dc6b3
    800101f8:	d8cc1abf ae0aea22 	0xae0aea22d8cc1abf
    80010200:	29e2                	fld	fs3,24(sp)
    80010202:	86e9                	srai	a3,a3,0x1a
    80010204:	2a09                	addiw	s4,s4,2
    80010206:	fb6e                	sd	s11,432(sp)
    80010208:	a7ff                	0xa7ff
    8001020a:	a9f7298b          	0xa9f7298b
    8001020e:	a9f5d3cb          	fnmsub.s	ft7,fa1,ft11,fs5,unknown
    80010212:	a1643ec3          	fmadd.s	ft9,fs0,fs6,fs4,rup
    80010216:	c8fd                	beqz	s1,8001030c <data+0x30c>
    80010218:	bb7c95a7          	0xbb7c95a7
    8001021c:	2c57c323          	0x2c57c323
    80010220:	cf7f                	0xcf7f
    80010222:	97f83d1b          	0x97f83d1b
    80010226:	8caa                	mv	s9,a0
    80010228:	618c                	ld	a1,0(a1)
    8001022a:	48fa                	lw	a7,156(sp)
    8001022c:	b6b0                	fsd	fa2,104(a3)
    8001022e:	50a6ce47          	fmsub.s	ft8,fa3,fa0,fa0,rmm
    80010232:	a3bd                	j	800107a0 <_end+0x38c>
    80010234:	9ae9                	andi	a3,a3,-6
    80010236:	0799bcd7          	0x799bcd7
    8001023a:	2720                	fld	fs0,72(a4)
    8001023c:	1348                	addi	a0,sp,420
    8001023e:	0dad                	addi	s11,s11,11
    80010240:	4ff5                	li	t6,29
    80010242:	e504                	sd	s1,8(a0)
    80010244:	9611                	srai	a2,a2,0x24
    80010246:	6215                	lui	tp,0x5
    80010248:	794a                	ld	s2,176(sp)
    8001024a:	33dac1f7          	0x33dac1f7
    8001024e:	57c1                	li	a5,-16
    80010250:	0be5                	addi	s7,s7,25
    80010252:	eb0a                	sd	sp,400(sp)
    80010254:	96aa                	add	a3,a3,a0
    80010256:	739a6b43          	fmadd.d	fs6,fs4,fs9,fa4,unknown
    8001025a:	5b9e                	lw	s7,228(sp)
    8001025c:	64ad                	lui	s1,0xb
    8001025e:	259e                	fld	fa1,448(sp)
    80010260:	401a                	0x401a
    80010262:	de0d                	beqz	a2,8001019c <data+0x19c>
    80010264:	2726                	fld	fa4,72(sp)
    80010266:	00dd                	addi	ra,ra,23
    80010268:	e655                	bnez	a2,80010314 <data+0x314>
    8001026a:	d030                	sw	a2,96(s0)
    8001026c:	c5ee                	sw	s11,200(sp)
    8001026e:	da29                	beqz	a2,800101c0 <data+0x1c0>
    80010270:	fb7f                	0xfb7f
    80010272:	4bb0                	lw	a2,80(a5)
    80010274:	77c6d9bf 62cb250d 	0x62cb250d77c6d9bf
    8001027c:	fe9c                	sd	a5,56(a3)
    8001027e:	b4f8                	fsd	fa4,232(s1)
    80010280:	78f9                	lui	a7,0xffffe
    80010282:	65e2                	ld	a1,24(sp)
    80010284:	e45cb863          	0xe45cb863
    80010288:	0f98                	addi	a4,sp,976
    8001028a:	cd34                	sw	a3,88(a0)
    8001028c:	65c4                	ld	s1,136(a1)
    8001028e:	c64a                	sw	s2,12(sp)
    80010290:	ad12                	fsd	ft4,152(sp)
    80010292:	ef61                	bnez	a4,8001036a <data+0x36a>
    80010294:	ee1ecacf          	fnmadd.q	fs5,ft9,ft1,ft9,rmm
    80010298:	937d                	srli	a4,a4,0x3f
    8001029a:	d9ee                	sw	s11,240(sp)
    8001029c:	ce3d                	beqz	a2,8001031a <data+0x31a>
    8001029e:	9e4ddb4f          	fnmadd.q	fs6,fs11,ft4,fs3,unknown
    800102a2:	6dbe                	ld	s11,456(sp)
    800102a4:	f5a6                	sd	s1,232(sp)
    800102a6:	0a02                	slli	s4,s4,0x0
    800102a8:	427a                	lw	tp,156(sp)
    800102aa:	8174                	0x8174
    800102ac:	c595                	beqz	a1,800102d8 <data+0x2d8>
    800102ae:	8ce4                	0x8ce4
    800102b0:	90c9                	srli	s1,s1,0x32
    800102b2:	3688                	fld	fa0,40(a3)
    800102b4:	5db1                	li	s11,-20
    800102b6:	0e45                	addi	t3,t3,17
    800102b8:	eeb8                	sd	a4,88(a3)
    800102ba:	3ed38637          	lui	a2,0x3ed38
    800102be:	474d3253          	0x474d3253
    800102c2:	c3a6                	sw	s1,196(sp)
    800102c4:	1305                	addi	t1,t1,-31
    800102c6:	8249                	srli	a2,a2,0x12
    800102c8:	abff                	0xabff
    800102ca:	00d5b157          	0xd5b157
    800102ce:	3f2e                	fld	ft10,232(sp)
    800102d0:	fd00                	sd	s0,56(a0)
    800102d2:	f449                	bnez	s0,8001025c <data+0x25c>
    800102d4:	6c3d                	lui	s8,0xf
    800102d6:	de62854f          	fnmadd.q	fa0,ft5,ft6,fs11,rne
    800102da:	1c81                	addi	s9,s9,-32
    800102dc:	aaa5df43          	fmadd.d	ft10,fa1,fa0,fs5,unknown
    800102e0:	7c12                	ld	s8,288(sp)
    800102e2:	c92c                	sw	a1,80(a0)
    800102e4:	f90a3737          	lui	a4,0xf90a3
    800102e8:	e2ce                	sd	s3,320(sp)
    800102ea:	8ba65f4f          	fnmadd.d	ft10,fa2,fs10,fa7,unknown
    800102ee:	018fc423          	0x18fc423
    800102f2:	0f9f 9d7e 5bb5      	0x5bb59d7e0f9f
    800102f8:	46f6                	lw	a3,92(sp)
    800102fa:	442f1da7          	0x442f1da7
    800102fe:	3b48                	fld	fa0,176(a4)
    80010300:	3809                	addiw	a6,a6,-30
    80010302:	d4df f1e9 6691      	0x6691f1e9d4df
    80010308:	aca9                	j	80010562 <_end+0x14e>
    8001030a:	2689                	addiw	a3,a3,2
    8001030c:	d9d1                	beqz	a1,800102a0 <data+0x2a0>
    8001030e:	876e                	mv	a4,s11
    80010310:	0186                	slli	gp,gp,0x1
    80010312:	f95d                	bnez	a0,800102c8 <data+0x2c8>
    80010314:	3f69                	addiw	t5,t5,-6
    80010316:	d3b65f83          	lhu	t6,-709(a2) # 3ed37d3b <main-0x412c82c5>
    8001031a:	c16d8597          	auipc	a1,0xc16d8
    8001031e:	17c6f6d3          	fmul.q	fa3,fa3,ft8
    80010322:	6f4a                	ld	t5,144(sp)
    80010324:	4f26                	lw	t5,72(sp)
    80010326:	4ba12d73          	csrrs	s10,0x4ba,sp
    8001032a:	5508                	lw	a0,40(a0)
    8001032c:	3c9415cf          	0x3c9415cf
    80010330:	b65e                	fsd	fs7,296(sp)
    80010332:	98e4                	0x98e4
    80010334:	c9ea                	sw	s10,208(sp)
    80010336:	78b5                	lui	a7,0xfffed
    80010338:	795f 26b9 1f9f      	0x1f9f26b9795f
    8001033e:	1370                	addi	a2,sp,428
    80010340:	c19f 0161 3a7f      	0x3a7f0161c19f
    80010346:	cf90                	sw	a2,24(a5)
    80010348:	bd4e                	fsd	fs3,184(sp)
    8001034a:	f406                	sd	ra,40(sp)
    8001034c:	4016                	0x4016
    8001034e:	de765b33          	0xde765b33
    80010352:	e4d6                	sd	s5,72(sp)
    80010354:	7212                	ld	tp,288(sp)
    80010356:	05e96893          	ori	a7,s2,94
    8001035a:	b8f9                	j	8000fc38 <loop+0x3964>
    8001035c:	4f78                	lw	a4,92(a4)
    8001035e:	4dfc                	lw	a5,92(a1)
    80010360:	6f58                	ld	a4,152(a4)
    80010362:	b2b6                	fsd	fa3,352(sp)
    80010364:	9085                	srli	s1,s1,0x21
    80010366:	df5d0abb          	0xdf5d0abb
    8001036a:	8946                	mv	s2,a7
    8001036c:	a129                	j	80010776 <_end+0x362>
    8001036e:	1abd                	addi	s5,s5,-17
    80010370:	73b9                	lui	t2,0xfffee
    80010372:	1b5d                	addi	s6,s6,-9
    80010374:	29a9                	addiw	s3,s3,10
    80010376:	b68c154b          	fnmsub.q	fa0,fs8,fs0,fs6,rtz
    8001037a:	4105                	li	sp,1
    8001037c:	f701                	bnez	a4,80010284 <data+0x284>
    8001037e:	876d                	srai	a4,a4,0x1b
    80010380:	9fde                	add	t6,t6,s7
    80010382:	033ef4d3          	fadd.d	fs1,ft9,fs3
    80010386:	53e5                	li	t2,-7
    80010388:	444d                	li	s0,19
    8001038a:	5a82                	lw	s5,32(sp)
    8001038c:	4955                	li	s2,21
    8001038e:	b1c4                	fsd	fs1,160(a1)
    80010390:	c5c6                	sw	a7,200(sp)
    80010392:	65a1                	lui	a1,0x8
    80010394:	36f1                	addiw	a3,a3,-4
    80010396:	5694                	lw	a3,40(a3)
    80010398:	a1c6                	fsd	fa7,192(sp)
    8001039a:	373e                	fld	fa4,488(sp)
    8001039c:	854c                	0x854c
    8001039e:	3e519d67          	0x3e519d67
    800103a2:	dec9                	beqz	a3,8001033c <data+0x33c>
    800103a4:	8ac2                	mv	s5,a6
    800103a6:	9400                	0x9400
    800103a8:	9aa8                	0x9aa8
    800103aa:	ea9c                	sd	a5,16(a3)
    800103ac:	a1f6ff63          	bleu	t6,a3,8000f5ca <loop+0x32f6>
    800103b0:	1b6e                	slli	s6,s6,0x3b
    800103b2:	7c75                	lui	s8,0xffffd
    800103b4:	024d                	addi	tp,tp,19
    800103b6:	38b6                	fld	fa7,360(sp)
    800103b8:	af14                	fsd	fa3,24(a4)
    800103ba:	32be                	fld	ft5,488(sp)
    800103bc:	e698                	sd	a4,8(a3)
    800103be:	d0350357          	0xd0350357
    800103c2:	16e9                	addi	a3,a3,-6
    800103c4:	3f20                	fld	fs0,120(a4)
    800103c6:	c292                	sw	tp,68(sp)
    800103c8:	49045e17          	auipc	t3,0x49045
    800103cc:	4245                	li	tp,17
    800103ce:	21c6                	fld	ft3,80(sp)
    800103d0:	e4d719b3          	0xe4d719b3
    800103d4:	4b51                	li	s6,20
    800103d6:	2f3e                	fld	ft10,456(sp)
    800103d8:	ae99                	j	8001072e <_end+0x31a>
    800103da:	b3ee                	fsd	fs11,480(sp)
    800103dc:	3442                	fld	fs0,48(sp)
    800103de:	d083d743          	fmadd.s	fa4,ft7,fs0,fs10,unknown
    800103e2:	e945                	bnez	a0,80010492 <_end+0x7e>
    800103e4:	fa04                	sd	s1,48(a2)
    800103e6:	b6a9                	j	8000ff30 <loop+0x3c5c>
    800103e8:	c12a                	sw	a0,128(sp)
    800103ea:	4dc5                	li	s11,17
    800103ec:	d49e                	sw	t2,104(sp)
    800103ee:	390a                	fld	fs2,160(sp)
    800103f0:	b186                	fsd	ft1,224(sp)
    800103f2:	c502                	sw	zero,136(sp)
    800103f4:	e9d9                	bnez	a1,8001048a <_end+0x76>
    800103f6:	70dc                	ld	a5,160(s1)
    800103f8:	2372                	fld	ft6,280(sp)
    800103fa:	0662c723          	0x662c723
    800103fe:	3d2c                	fld	fa1,120(a0)

Disassembly of section .tohost:

0000000080010400 <tohost>:
	...

0000000080010410 <fromhost>:
    80010410:	0000                	unimp
	...
