
./rv64ud-p-fadd:     file format elf64-littleriscv


Disassembly of section .text.init:

0000000080000000 <_start>:
    80000000:	04c0006f          	j	8000004c <reset_vector>

0000000080000004 <trap_vector>:
    80000004:	34202f73          	csrr	t5,mcause
    80000008:	00800f93          	li	t6,8
    8000000c:	03ff0a63          	beq	t5,t6,80000040 <write_tohost>
    80000010:	00900f93          	li	t6,9
    80000014:	03ff0663          	beq	t5,t6,80000040 <write_tohost>
    80000018:	00b00f93          	li	t6,11
    8000001c:	03ff0263          	beq	t5,t6,80000040 <write_tohost>
    80000020:	80000f17          	auipc	t5,0x80000
    80000024:	fe0f0f13          	addi	t5,t5,-32 # 0 <_start-0x80000000>
    80000028:	000f0463          	beqz	t5,80000030 <trap_vector+0x2c>
    8000002c:	000f0067          	jr	t5
    80000030:	34202f73          	csrr	t5,mcause
    80000034:	000f5463          	bgez	t5,8000003c <handle_exception>
    80000038:	0040006f          	j	8000003c <handle_exception>

000000008000003c <handle_exception>:
    8000003c:	5391e193          	ori	gp,gp,1337

0000000080000040 <write_tohost>:
    80000040:	00001f17          	auipc	t5,0x1
    80000044:	fc3f2023          	sw	gp,-64(t5) # 80001000 <tohost>
    80000048:	ff9ff06f          	j	80000040 <write_tohost>

000000008000004c <reset_vector>:
    8000004c:	f1402573          	csrr	a0,mhartid
    80000050:	00051063          	bnez	a0,80000050 <reset_vector+0x4>
    80000054:	00000297          	auipc	t0,0x0
    80000058:	01028293          	addi	t0,t0,16 # 80000064 <reset_vector+0x18>
    8000005c:	30529073          	csrw	mtvec,t0
    80000060:	18005073          	csrwi	satp,0
    80000064:	00000193          	li	gp,0
    80000068:	00000297          	auipc	t0,0x0
    8000006c:	f9c28293          	addi	t0,t0,-100 # 80000004 <trap_vector>
    80000070:	30529073          	csrw	mtvec,t0
    80000074:	00100513          	li	a0,1
    80000078:	01f51513          	slli	a0,a0,0x1f
    8000007c:	00055863          	bgez	a0,8000008c <reset_vector+0x40>
    80000080:	0ff0000f          	fence
    80000084:	00100193          	li	gp,1
    80000088:	fb9ff06f          	j	80000040 <write_tohost>
    8000008c:	00002537          	lui	a0,0x2
    80000090:	30052073          	csrs	mstatus,a0
    80000094:	00305073          	csrwi	fcsr,0
    80000098:	00000297          	auipc	t0,0x0
    8000009c:	01428293          	addi	t0,t0,20 # 800000ac <test_2>
    800000a0:	34129073          	csrw	mepc,t0
    800000a4:	f1402573          	csrr	a0,mhartid
    800000a8:	00028067          	jr	t0

00000000800000ac <test_2>:
    800000ac:	00200193          	li	gp,2
    800000b0:	00002517          	auipc	a0,0x2
    800000b4:	f5050513          	addi	a0,a0,-176 # 80002000 <test_2_data>
    800000b8:	00053007          	fld	ft0,0(a0)
    800000bc:	00853087          	fld	ft1,8(a0)
    800000c0:	01053107          	fld	ft2,16(a0)
    800000c4:	01853683          	ld	a3,24(a0)
    800000c8:	021071d3          	fadd.d	ft3,ft0,ft1
    800000cc:	e2018553          	fmv.x.d	a0,ft3
    800000d0:	001015f3          	fsflags	a1,zero
    800000d4:	00000613          	li	a2,0
    800000d8:	1ed51063          	bne	a0,a3,800002b8 <fail>
    800000dc:	1cc59e63          	bne	a1,a2,800002b8 <fail>

00000000800000e0 <test_3>:
    800000e0:	00300193          	li	gp,3
    800000e4:	00002517          	auipc	a0,0x2
    800000e8:	f3c50513          	addi	a0,a0,-196 # 80002020 <test_3_data>
    800000ec:	00053007          	fld	ft0,0(a0)
    800000f0:	00853087          	fld	ft1,8(a0)
    800000f4:	01053107          	fld	ft2,16(a0)
    800000f8:	01853683          	ld	a3,24(a0)
    800000fc:	021071d3          	fadd.d	ft3,ft0,ft1
    80000100:	e2018553          	fmv.x.d	a0,ft3
    80000104:	001015f3          	fsflags	a1,zero
    80000108:	00100613          	li	a2,1
    8000010c:	1ad51663          	bne	a0,a3,800002b8 <fail>
    80000110:	1ac59463          	bne	a1,a2,800002b8 <fail>

0000000080000114 <test_4>:
    80000114:	00400193          	li	gp,4
    80000118:	00002517          	auipc	a0,0x2
    8000011c:	f2850513          	addi	a0,a0,-216 # 80002040 <test_4_data>
    80000120:	00053007          	fld	ft0,0(a0)
    80000124:	00853087          	fld	ft1,8(a0)
    80000128:	01053107          	fld	ft2,16(a0)
    8000012c:	01853683          	ld	a3,24(a0)
    80000130:	021071d3          	fadd.d	ft3,ft0,ft1
    80000134:	e2018553          	fmv.x.d	a0,ft3
    80000138:	001015f3          	fsflags	a1,zero
    8000013c:	00100613          	li	a2,1
    80000140:	16d51c63          	bne	a0,a3,800002b8 <fail>
    80000144:	16c59a63          	bne	a1,a2,800002b8 <fail>

0000000080000148 <test_5>:
    80000148:	00500193          	li	gp,5
    8000014c:	00002517          	auipc	a0,0x2
    80000150:	f1450513          	addi	a0,a0,-236 # 80002060 <test_5_data>
    80000154:	00053007          	fld	ft0,0(a0)
    80000158:	00853087          	fld	ft1,8(a0)
    8000015c:	01053107          	fld	ft2,16(a0)
    80000160:	01853683          	ld	a3,24(a0)
    80000164:	0a1071d3          	fsub.d	ft3,ft0,ft1
    80000168:	e2018553          	fmv.x.d	a0,ft3
    8000016c:	001015f3          	fsflags	a1,zero
    80000170:	00000613          	li	a2,0
    80000174:	14d51263          	bne	a0,a3,800002b8 <fail>
    80000178:	14c59063          	bne	a1,a2,800002b8 <fail>

000000008000017c <test_6>:
    8000017c:	00600193          	li	gp,6
    80000180:	00002517          	auipc	a0,0x2
    80000184:	f0050513          	addi	a0,a0,-256 # 80002080 <test_6_data>
    80000188:	00053007          	fld	ft0,0(a0)
    8000018c:	00853087          	fld	ft1,8(a0)
    80000190:	01053107          	fld	ft2,16(a0)
    80000194:	01853683          	ld	a3,24(a0)
    80000198:	0a1071d3          	fsub.d	ft3,ft0,ft1
    8000019c:	e2018553          	fmv.x.d	a0,ft3
    800001a0:	001015f3          	fsflags	a1,zero
    800001a4:	00100613          	li	a2,1
    800001a8:	10d51863          	bne	a0,a3,800002b8 <fail>
    800001ac:	10c59663          	bne	a1,a2,800002b8 <fail>

00000000800001b0 <test_7>:
    800001b0:	00700193          	li	gp,7
    800001b4:	00002517          	auipc	a0,0x2
    800001b8:	eec50513          	addi	a0,a0,-276 # 800020a0 <test_7_data>
    800001bc:	00053007          	fld	ft0,0(a0)
    800001c0:	00853087          	fld	ft1,8(a0)
    800001c4:	01053107          	fld	ft2,16(a0)
    800001c8:	01853683          	ld	a3,24(a0)
    800001cc:	0a1071d3          	fsub.d	ft3,ft0,ft1
    800001d0:	e2018553          	fmv.x.d	a0,ft3
    800001d4:	001015f3          	fsflags	a1,zero
    800001d8:	00100613          	li	a2,1
    800001dc:	0cd51e63          	bne	a0,a3,800002b8 <fail>
    800001e0:	0cc59c63          	bne	a1,a2,800002b8 <fail>

00000000800001e4 <test_8>:
    800001e4:	00800193          	li	gp,8
    800001e8:	00002517          	auipc	a0,0x2
    800001ec:	ed850513          	addi	a0,a0,-296 # 800020c0 <test_8_data>
    800001f0:	00053007          	fld	ft0,0(a0)
    800001f4:	00853087          	fld	ft1,8(a0)
    800001f8:	01053107          	fld	ft2,16(a0)
    800001fc:	01853683          	ld	a3,24(a0)
    80000200:	121071d3          	fmul.d	ft3,ft0,ft1
    80000204:	e2018553          	fmv.x.d	a0,ft3
    80000208:	001015f3          	fsflags	a1,zero
    8000020c:	00000613          	li	a2,0
    80000210:	0ad51463          	bne	a0,a3,800002b8 <fail>
    80000214:	0ac59263          	bne	a1,a2,800002b8 <fail>

0000000080000218 <test_9>:
    80000218:	00900193          	li	gp,9
    8000021c:	00002517          	auipc	a0,0x2
    80000220:	ec450513          	addi	a0,a0,-316 # 800020e0 <test_9_data>
    80000224:	00053007          	fld	ft0,0(a0)
    80000228:	00853087          	fld	ft1,8(a0)
    8000022c:	01053107          	fld	ft2,16(a0)
    80000230:	01853683          	ld	a3,24(a0)
    80000234:	121071d3          	fmul.d	ft3,ft0,ft1
    80000238:	e2018553          	fmv.x.d	a0,ft3
    8000023c:	001015f3          	fsflags	a1,zero
    80000240:	00100613          	li	a2,1
    80000244:	06d51a63          	bne	a0,a3,800002b8 <fail>
    80000248:	06c59863          	bne	a1,a2,800002b8 <fail>

000000008000024c <test_10>:
    8000024c:	00a00193          	li	gp,10
    80000250:	00002517          	auipc	a0,0x2
    80000254:	eb050513          	addi	a0,a0,-336 # 80002100 <test_10_data>
    80000258:	00053007          	fld	ft0,0(a0)
    8000025c:	00853087          	fld	ft1,8(a0)
    80000260:	01053107          	fld	ft2,16(a0)
    80000264:	01853683          	ld	a3,24(a0)
    80000268:	121071d3          	fmul.d	ft3,ft0,ft1
    8000026c:	e2018553          	fmv.x.d	a0,ft3
    80000270:	001015f3          	fsflags	a1,zero
    80000274:	00100613          	li	a2,1
    80000278:	04d51063          	bne	a0,a3,800002b8 <fail>
    8000027c:	02c59e63          	bne	a1,a2,800002b8 <fail>

0000000080000280 <test_11>:
    80000280:	00b00193          	li	gp,11
    80000284:	00002517          	auipc	a0,0x2
    80000288:	e9c50513          	addi	a0,a0,-356 # 80002120 <test_11_data>
    8000028c:	00053007          	fld	ft0,0(a0)
    80000290:	00853087          	fld	ft1,8(a0)
    80000294:	01053107          	fld	ft2,16(a0)
    80000298:	01853683          	ld	a3,24(a0)
    8000029c:	0a1071d3          	fsub.d	ft3,ft0,ft1
    800002a0:	e2018553          	fmv.x.d	a0,ft3
    800002a4:	001015f3          	fsflags	a1,zero
    800002a8:	01000613          	li	a2,16
    800002ac:	00d51663          	bne	a0,a3,800002b8 <fail>
    800002b0:	00c59463          	bne	a1,a2,800002b8 <fail>
    800002b4:	00301c63          	bne	zero,gp,800002cc <pass>

00000000800002b8 <fail>:
    800002b8:	0ff0000f          	fence
    800002bc:	00018063          	beqz	gp,800002bc <fail+0x4>
    800002c0:	00119193          	slli	gp,gp,0x1
    800002c4:	0011e193          	ori	gp,gp,1
    800002c8:	d79ff06f          	j	80000040 <write_tohost>

00000000800002cc <pass>:
    800002cc:	0ff0000f          	fence
    800002d0:	00100193          	li	gp,1
    800002d4:	d6dff06f          	j	80000040 <write_tohost>
    800002d8:	c0001073          	unimp
	...

./rv64ud-p-fclass:     file format elf64-littleriscv


Disassembly of section .text.init:

0000000080000000 <_start>:
    80000000:	04c0006f          	j	8000004c <reset_vector>

0000000080000004 <trap_vector>:
    80000004:	34202f73          	csrr	t5,mcause
    80000008:	00800f93          	li	t6,8
    8000000c:	03ff0a63          	beq	t5,t6,80000040 <write_tohost>
    80000010:	00900f93          	li	t6,9
    80000014:	03ff0663          	beq	t5,t6,80000040 <write_tohost>
    80000018:	00b00f93          	li	t6,11
    8000001c:	03ff0263          	beq	t5,t6,80000040 <write_tohost>
    80000020:	80000f17          	auipc	t5,0x80000
    80000024:	fe0f0f13          	addi	t5,t5,-32 # 0 <_start-0x80000000>
    80000028:	000f0463          	beqz	t5,80000030 <trap_vector+0x2c>
    8000002c:	000f0067          	jr	t5
    80000030:	34202f73          	csrr	t5,mcause
    80000034:	000f5463          	bgez	t5,8000003c <handle_exception>
    80000038:	0040006f          	j	8000003c <handle_exception>

000000008000003c <handle_exception>:
    8000003c:	5391e193          	ori	gp,gp,1337

0000000080000040 <write_tohost>:
    80000040:	00001f17          	auipc	t5,0x1
    80000044:	fc3f2023          	sw	gp,-64(t5) # 80001000 <tohost>
    80000048:	ff9ff06f          	j	80000040 <write_tohost>

000000008000004c <reset_vector>:
    8000004c:	f1402573          	csrr	a0,mhartid
    80000050:	00051063          	bnez	a0,80000050 <reset_vector+0x4>
    80000054:	00000297          	auipc	t0,0x0
    80000058:	01028293          	addi	t0,t0,16 # 80000064 <reset_vector+0x18>
    8000005c:	30529073          	csrw	mtvec,t0
    80000060:	18005073          	csrwi	satp,0
    80000064:	00000193          	li	gp,0
    80000068:	00000297          	auipc	t0,0x0
    8000006c:	f9c28293          	addi	t0,t0,-100 # 80000004 <trap_vector>
    80000070:	30529073          	csrw	mtvec,t0
    80000074:	00100513          	li	a0,1
    80000078:	01f51513          	slli	a0,a0,0x1f
    8000007c:	00055863          	bgez	a0,8000008c <reset_vector+0x40>
    80000080:	0ff0000f          	fence
    80000084:	00100193          	li	gp,1
    80000088:	fb9ff06f          	j	80000040 <write_tohost>
    8000008c:	00002537          	lui	a0,0x2
    80000090:	30052073          	csrs	mstatus,a0
    80000094:	00305073          	csrwi	fcsr,0
    80000098:	00000297          	auipc	t0,0x0
    8000009c:	01428293          	addi	t0,t0,20 # 800000ac <test_2>
    800000a0:	34129073          	csrw	mepc,t0
    800000a4:	f1402573          	csrr	a0,mhartid
    800000a8:	00028067          	jr	t0

00000000800000ac <test_2>:
    800000ac:	fff0051b          	addiw	a0,zero,-1
    800000b0:	03451513          	slli	a0,a0,0x34
    800000b4:	f2050553          	fmv.d.x	fa0,a0
    800000b8:	e2051553          	fclass.d	a0,fa0
    800000bc:	00100e93          	li	t4,1
    800000c0:	00200193          	li	gp,2
    800000c4:	11d51863          	bne	a0,t4,800001d4 <fail>

00000000800000c8 <test_3>:
    800000c8:	bff0051b          	addiw	a0,zero,-1025
    800000cc:	03451513          	slli	a0,a0,0x34
    800000d0:	f2050553          	fmv.d.x	fa0,a0
    800000d4:	e2051553          	fclass.d	a0,fa0
    800000d8:	00200e93          	li	t4,2
    800000dc:	00300193          	li	gp,3
    800000e0:	0fd51a63          	bne	a0,t4,800001d4 <fail>

00000000800000e4 <test_4>:
    800000e4:	8010051b          	addiw	a0,zero,-2047
    800000e8:	03451513          	slli	a0,a0,0x34
    800000ec:	fff50513          	addi	a0,a0,-1 # 1fff <_start-0x7fffe001>
    800000f0:	f2050553          	fmv.d.x	fa0,a0
    800000f4:	e2051553          	fclass.d	a0,fa0
    800000f8:	00400e93          	li	t4,4
    800000fc:	00400193          	li	gp,4
    80000100:	0dd51a63          	bne	a0,t4,800001d4 <fail>

0000000080000104 <test_5>:
    80000104:	fff0051b          	addiw	a0,zero,-1
    80000108:	03f51513          	slli	a0,a0,0x3f
    8000010c:	f2050553          	fmv.d.x	fa0,a0
    80000110:	e2051553          	fclass.d	a0,fa0
    80000114:	00800e93          	li	t4,8
    80000118:	00500193          	li	gp,5
    8000011c:	0bd51c63          	bne	a0,t4,800001d4 <fail>

0000000080000120 <test_6>:
    80000120:	00000513          	li	a0,0
    80000124:	f2050553          	fmv.d.x	fa0,a0
    80000128:	e2051553          	fclass.d	a0,fa0
    8000012c:	01000e93          	li	t4,16
    80000130:	00600193          	li	gp,6
    80000134:	0bd51063          	bne	a0,t4,800001d4 <fail>

0000000080000138 <test_7>:
    80000138:	0010051b          	addiw	a0,zero,1
    8000013c:	03451513          	slli	a0,a0,0x34
    80000140:	fff50513          	addi	a0,a0,-1
    80000144:	f2050553          	fmv.d.x	fa0,a0
    80000148:	e2051553          	fclass.d	a0,fa0
    8000014c:	02000e93          	li	t4,32
    80000150:	00700193          	li	gp,7
    80000154:	09d51063          	bne	a0,t4,800001d4 <fail>

0000000080000158 <test_8>:
    80000158:	3ff0051b          	addiw	a0,zero,1023
    8000015c:	03451513          	slli	a0,a0,0x34
    80000160:	f2050553          	fmv.d.x	fa0,a0
    80000164:	e2051553          	fclass.d	a0,fa0
    80000168:	04000e93          	li	t4,64
    8000016c:	00800193          	li	gp,8
    80000170:	07d51263          	bne	a0,t4,800001d4 <fail>

0000000080000174 <test_9>:
    80000174:	7ff0051b          	addiw	a0,zero,2047
    80000178:	03451513          	slli	a0,a0,0x34
    8000017c:	f2050553          	fmv.d.x	fa0,a0
    80000180:	e2051553          	fclass.d	a0,fa0
    80000184:	08000e93          	li	t4,128
    80000188:	00900193          	li	gp,9
    8000018c:	05d51463          	bne	a0,t4,800001d4 <fail>

0000000080000190 <test_10>:
    80000190:	7ff0051b          	addiw	a0,zero,2047
    80000194:	03451513          	slli	a0,a0,0x34
    80000198:	00150513          	addi	a0,a0,1
    8000019c:	f2050553          	fmv.d.x	fa0,a0
    800001a0:	e2051553          	fclass.d	a0,fa0
    800001a4:	10000e93          	li	t4,256
    800001a8:	00a00193          	li	gp,10
    800001ac:	03d51463          	bne	a0,t4,800001d4 <fail>

00000000800001b0 <test_11>:
    800001b0:	00001537          	lui	a0,0x1
    800001b4:	fff5051b          	addiw	a0,a0,-1
    800001b8:	03351513          	slli	a0,a0,0x33
    800001bc:	f2050553          	fmv.d.x	fa0,a0
    800001c0:	e2051553          	fclass.d	a0,fa0
    800001c4:	20000e93          	li	t4,512
    800001c8:	00b00193          	li	gp,11
    800001cc:	01d51463          	bne	a0,t4,800001d4 <fail>
    800001d0:	00301c63          	bne	zero,gp,800001e8 <pass>

00000000800001d4 <fail>:
    800001d4:	0ff0000f          	fence
    800001d8:	00018063          	beqz	gp,800001d8 <fail+0x4>
    800001dc:	00119193          	slli	gp,gp,0x1
    800001e0:	0011e193          	ori	gp,gp,1
    800001e4:	e5dff06f          	j	80000040 <write_tohost>

00000000800001e8 <pass>:
    800001e8:	0ff0000f          	fence
    800001ec:	00100193          	li	gp,1
    800001f0:	e51ff06f          	j	80000040 <write_tohost>
    800001f4:	c0001073          	unimp
	...

./rv64ud-p-fcmp:     file format elf64-littleriscv


Disassembly of section .text.init:

0000000080000000 <_start>:
    80000000:	04c0006f          	j	8000004c <reset_vector>

0000000080000004 <trap_vector>:
    80000004:	34202f73          	csrr	t5,mcause
    80000008:	00800f93          	li	t6,8
    8000000c:	03ff0a63          	beq	t5,t6,80000040 <write_tohost>
    80000010:	00900f93          	li	t6,9
    80000014:	03ff0663          	beq	t5,t6,80000040 <write_tohost>
    80000018:	00b00f93          	li	t6,11
    8000001c:	03ff0263          	beq	t5,t6,80000040 <write_tohost>
    80000020:	80000f17          	auipc	t5,0x80000
    80000024:	fe0f0f13          	addi	t5,t5,-32 # 0 <_start-0x80000000>
    80000028:	000f0463          	beqz	t5,80000030 <trap_vector+0x2c>
    8000002c:	000f0067          	jr	t5
    80000030:	34202f73          	csrr	t5,mcause
    80000034:	000f5463          	bgez	t5,8000003c <handle_exception>
    80000038:	0040006f          	j	8000003c <handle_exception>

000000008000003c <handle_exception>:
    8000003c:	5391e193          	ori	gp,gp,1337

0000000080000040 <write_tohost>:
    80000040:	00001f17          	auipc	t5,0x1
    80000044:	fc3f2023          	sw	gp,-64(t5) # 80001000 <tohost>
    80000048:	ff9ff06f          	j	80000040 <write_tohost>

000000008000004c <reset_vector>:
    8000004c:	f1402573          	csrr	a0,mhartid
    80000050:	00051063          	bnez	a0,80000050 <reset_vector+0x4>
    80000054:	00000297          	auipc	t0,0x0
    80000058:	01028293          	addi	t0,t0,16 # 80000064 <reset_vector+0x18>
    8000005c:	30529073          	csrw	mtvec,t0
    80000060:	18005073          	csrwi	satp,0
    80000064:	00000193          	li	gp,0
    80000068:	00000297          	auipc	t0,0x0
    8000006c:	f9c28293          	addi	t0,t0,-100 # 80000004 <trap_vector>
    80000070:	30529073          	csrw	mtvec,t0
    80000074:	00100513          	li	a0,1
    80000078:	01f51513          	slli	a0,a0,0x1f
    8000007c:	00055863          	bgez	a0,8000008c <reset_vector+0x40>
    80000080:	0ff0000f          	fence
    80000084:	00100193          	li	gp,1
    80000088:	fb9ff06f          	j	80000040 <write_tohost>
    8000008c:	00002537          	lui	a0,0x2
    80000090:	30052073          	csrs	mstatus,a0
    80000094:	00305073          	csrwi	fcsr,0
    80000098:	00000297          	auipc	t0,0x0
    8000009c:	01428293          	addi	t0,t0,20 # 800000ac <test_2>
    800000a0:	34129073          	csrw	mepc,t0
    800000a4:	f1402573          	csrr	a0,mhartid
    800000a8:	00028067          	jr	t0

00000000800000ac <test_2>:
    800000ac:	00200193          	li	gp,2
    800000b0:	00002517          	auipc	a0,0x2
    800000b4:	f5050513          	addi	a0,a0,-176 # 80002000 <test_2_data>
    800000b8:	00053007          	fld	ft0,0(a0)
    800000bc:	00853087          	fld	ft1,8(a0)
    800000c0:	01053107          	fld	ft2,16(a0)
    800000c4:	01853683          	ld	a3,24(a0)
    800000c8:	a2102553          	feq.d	a0,ft0,ft1
    800000cc:	001015f3          	fsflags	a1,zero
    800000d0:	00000613          	li	a2,0
    800000d4:	2ad51663          	bne	a0,a3,80000380 <fail>
    800000d8:	2ac59463          	bne	a1,a2,80000380 <fail>

00000000800000dc <test_3>:
    800000dc:	00300193          	li	gp,3
    800000e0:	00002517          	auipc	a0,0x2
    800000e4:	f4050513          	addi	a0,a0,-192 # 80002020 <test_3_data>
    800000e8:	00053007          	fld	ft0,0(a0)
    800000ec:	00853087          	fld	ft1,8(a0)
    800000f0:	01053107          	fld	ft2,16(a0)
    800000f4:	01853683          	ld	a3,24(a0)
    800000f8:	a2100553          	fle.d	a0,ft0,ft1
    800000fc:	001015f3          	fsflags	a1,zero
    80000100:	00000613          	li	a2,0
    80000104:	26d51e63          	bne	a0,a3,80000380 <fail>
    80000108:	26c59c63          	bne	a1,a2,80000380 <fail>

000000008000010c <test_4>:
    8000010c:	00400193          	li	gp,4
    80000110:	00002517          	auipc	a0,0x2
    80000114:	f3050513          	addi	a0,a0,-208 # 80002040 <test_4_data>
    80000118:	00053007          	fld	ft0,0(a0)
    8000011c:	00853087          	fld	ft1,8(a0)
    80000120:	01053107          	fld	ft2,16(a0)
    80000124:	01853683          	ld	a3,24(a0)
    80000128:	a2101553          	flt.d	a0,ft0,ft1
    8000012c:	001015f3          	fsflags	a1,zero
    80000130:	00000613          	li	a2,0
    80000134:	24d51663          	bne	a0,a3,80000380 <fail>
    80000138:	24c59463          	bne	a1,a2,80000380 <fail>

000000008000013c <test_5>:
    8000013c:	00500193          	li	gp,5
    80000140:	00002517          	auipc	a0,0x2
    80000144:	f2050513          	addi	a0,a0,-224 # 80002060 <test_5_data>
    80000148:	00053007          	fld	ft0,0(a0)
    8000014c:	00853087          	fld	ft1,8(a0)
    80000150:	01053107          	fld	ft2,16(a0)
    80000154:	01853683          	ld	a3,24(a0)
    80000158:	a2102553          	feq.d	a0,ft0,ft1
    8000015c:	001015f3          	fsflags	a1,zero
    80000160:	00000613          	li	a2,0
    80000164:	20d51e63          	bne	a0,a3,80000380 <fail>
    80000168:	20c59c63          	bne	a1,a2,80000380 <fail>

000000008000016c <test_6>:
    8000016c:	00600193          	li	gp,6
    80000170:	00002517          	auipc	a0,0x2
    80000174:	f1050513          	addi	a0,a0,-240 # 80002080 <test_6_data>
    80000178:	00053007          	fld	ft0,0(a0)
    8000017c:	00853087          	fld	ft1,8(a0)
    80000180:	01053107          	fld	ft2,16(a0)
    80000184:	01853683          	ld	a3,24(a0)
    80000188:	a2100553          	fle.d	a0,ft0,ft1
    8000018c:	001015f3          	fsflags	a1,zero
    80000190:	00000613          	li	a2,0
    80000194:	1ed51663          	bne	a0,a3,80000380 <fail>
    80000198:	1ec59463          	bne	a1,a2,80000380 <fail>

000000008000019c <test_7>:
    8000019c:	00700193          	li	gp,7
    800001a0:	00002517          	auipc	a0,0x2
    800001a4:	f0050513          	addi	a0,a0,-256 # 800020a0 <test_7_data>
    800001a8:	00053007          	fld	ft0,0(a0)
    800001ac:	00853087          	fld	ft1,8(a0)
    800001b0:	01053107          	fld	ft2,16(a0)
    800001b4:	01853683          	ld	a3,24(a0)
    800001b8:	a2101553          	flt.d	a0,ft0,ft1
    800001bc:	001015f3          	fsflags	a1,zero
    800001c0:	00000613          	li	a2,0
    800001c4:	1ad51e63          	bne	a0,a3,80000380 <fail>
    800001c8:	1ac59c63          	bne	a1,a2,80000380 <fail>

00000000800001cc <test_8>:
    800001cc:	00800193          	li	gp,8
    800001d0:	00002517          	auipc	a0,0x2
    800001d4:	ef050513          	addi	a0,a0,-272 # 800020c0 <test_8_data>
    800001d8:	00053007          	fld	ft0,0(a0)
    800001dc:	00853087          	fld	ft1,8(a0)
    800001e0:	01053107          	fld	ft2,16(a0)
    800001e4:	01853683          	ld	a3,24(a0)
    800001e8:	a2102553          	feq.d	a0,ft0,ft1
    800001ec:	001015f3          	fsflags	a1,zero
    800001f0:	00000613          	li	a2,0
    800001f4:	18d51663          	bne	a0,a3,80000380 <fail>
    800001f8:	18c59463          	bne	a1,a2,80000380 <fail>

00000000800001fc <test_9>:
    800001fc:	00900193          	li	gp,9
    80000200:	00002517          	auipc	a0,0x2
    80000204:	ee050513          	addi	a0,a0,-288 # 800020e0 <test_9_data>
    80000208:	00053007          	fld	ft0,0(a0)
    8000020c:	00853087          	fld	ft1,8(a0)
    80000210:	01053107          	fld	ft2,16(a0)
    80000214:	01853683          	ld	a3,24(a0)
    80000218:	a2102553          	feq.d	a0,ft0,ft1
    8000021c:	001015f3          	fsflags	a1,zero
    80000220:	00000613          	li	a2,0
    80000224:	14d51e63          	bne	a0,a3,80000380 <fail>
    80000228:	14c59c63          	bne	a1,a2,80000380 <fail>

000000008000022c <test_10>:
    8000022c:	00a00193          	li	gp,10
    80000230:	00002517          	auipc	a0,0x2
    80000234:	ed050513          	addi	a0,a0,-304 # 80002100 <test_10_data>
    80000238:	00053007          	fld	ft0,0(a0)
    8000023c:	00853087          	fld	ft1,8(a0)
    80000240:	01053107          	fld	ft2,16(a0)
    80000244:	01853683          	ld	a3,24(a0)
    80000248:	a2102553          	feq.d	a0,ft0,ft1
    8000024c:	001015f3          	fsflags	a1,zero
    80000250:	01000613          	li	a2,16
    80000254:	12d51663          	bne	a0,a3,80000380 <fail>
    80000258:	12c59463          	bne	a1,a2,80000380 <fail>

000000008000025c <test_11>:
    8000025c:	00b00193          	li	gp,11
    80000260:	00002517          	auipc	a0,0x2
    80000264:	ec050513          	addi	a0,a0,-320 # 80002120 <test_11_data>
    80000268:	00053007          	fld	ft0,0(a0)
    8000026c:	00853087          	fld	ft1,8(a0)
    80000270:	01053107          	fld	ft2,16(a0)
    80000274:	01853683          	ld	a3,24(a0)
    80000278:	a2101553          	flt.d	a0,ft0,ft1
    8000027c:	001015f3          	fsflags	a1,zero
    80000280:	01000613          	li	a2,16
    80000284:	0ed51e63          	bne	a0,a3,80000380 <fail>
    80000288:	0ec59c63          	bne	a1,a2,80000380 <fail>

000000008000028c <test_12>:
    8000028c:	00c00193          	li	gp,12
    80000290:	00002517          	auipc	a0,0x2
    80000294:	eb050513          	addi	a0,a0,-336 # 80002140 <test_12_data>
    80000298:	00053007          	fld	ft0,0(a0)
    8000029c:	00853087          	fld	ft1,8(a0)
    800002a0:	01053107          	fld	ft2,16(a0)
    800002a4:	01853683          	ld	a3,24(a0)
    800002a8:	a2101553          	flt.d	a0,ft0,ft1
    800002ac:	001015f3          	fsflags	a1,zero
    800002b0:	01000613          	li	a2,16
    800002b4:	0cd51663          	bne	a0,a3,80000380 <fail>
    800002b8:	0cc59463          	bne	a1,a2,80000380 <fail>

00000000800002bc <test_13>:
    800002bc:	00d00193          	li	gp,13
    800002c0:	00002517          	auipc	a0,0x2
    800002c4:	ea050513          	addi	a0,a0,-352 # 80002160 <test_13_data>
    800002c8:	00053007          	fld	ft0,0(a0)
    800002cc:	00853087          	fld	ft1,8(a0)
    800002d0:	01053107          	fld	ft2,16(a0)
    800002d4:	01853683          	ld	a3,24(a0)
    800002d8:	a2101553          	flt.d	a0,ft0,ft1
    800002dc:	001015f3          	fsflags	a1,zero
    800002e0:	01000613          	li	a2,16
    800002e4:	08d51e63          	bne	a0,a3,80000380 <fail>
    800002e8:	08c59c63          	bne	a1,a2,80000380 <fail>

00000000800002ec <test_14>:
    800002ec:	00e00193          	li	gp,14
    800002f0:	00002517          	auipc	a0,0x2
    800002f4:	e9050513          	addi	a0,a0,-368 # 80002180 <test_14_data>
    800002f8:	00053007          	fld	ft0,0(a0)
    800002fc:	00853087          	fld	ft1,8(a0)
    80000300:	01053107          	fld	ft2,16(a0)
    80000304:	01853683          	ld	a3,24(a0)
    80000308:	a2100553          	fle.d	a0,ft0,ft1
    8000030c:	001015f3          	fsflags	a1,zero
    80000310:	01000613          	li	a2,16
    80000314:	06d51663          	bne	a0,a3,80000380 <fail>
    80000318:	06c59463          	bne	a1,a2,80000380 <fail>

000000008000031c <test_15>:
    8000031c:	00f00193          	li	gp,15
    80000320:	00002517          	auipc	a0,0x2
    80000324:	e8050513          	addi	a0,a0,-384 # 800021a0 <test_15_data>
    80000328:	00053007          	fld	ft0,0(a0)
    8000032c:	00853087          	fld	ft1,8(a0)
    80000330:	01053107          	fld	ft2,16(a0)
    80000334:	01853683          	ld	a3,24(a0)
    80000338:	a2100553          	fle.d	a0,ft0,ft1
    8000033c:	001015f3          	fsflags	a1,zero
    80000340:	01000613          	li	a2,16
    80000344:	02d51e63          	bne	a0,a3,80000380 <fail>
    80000348:	02c59c63          	bne	a1,a2,80000380 <fail>

000000008000034c <test_16>:
    8000034c:	01000193          	li	gp,16
    80000350:	00002517          	auipc	a0,0x2
    80000354:	e7050513          	addi	a0,a0,-400 # 800021c0 <test_16_data>
    80000358:	00053007          	fld	ft0,0(a0)
    8000035c:	00853087          	fld	ft1,8(a0)
    80000360:	01053107          	fld	ft2,16(a0)
    80000364:	01853683          	ld	a3,24(a0)
    80000368:	a2100553          	fle.d	a0,ft0,ft1
    8000036c:	001015f3          	fsflags	a1,zero
    80000370:	01000613          	li	a2,16
    80000374:	00d51663          	bne	a0,a3,80000380 <fail>
    80000378:	00c59463          	bne	a1,a2,80000380 <fail>
    8000037c:	00301c63          	bne	zero,gp,80000394 <pass>

0000000080000380 <fail>:
    80000380:	0ff0000f          	fence
    80000384:	00018063          	beqz	gp,80000384 <fail+0x4>
    80000388:	00119193          	slli	gp,gp,0x1
    8000038c:	0011e193          	ori	gp,gp,1
    80000390:	cb1ff06f          	j	80000040 <write_tohost>

0000000080000394 <pass>:
    80000394:	0ff0000f          	fence
    80000398:	00100193          	li	gp,1
    8000039c:	ca5ff06f          	j	80000040 <write_tohost>
    800003a0:	c0001073          	unimp
	...

./rv64ud-p-fcvt:     file format elf64-littleriscv


Disassembly of section .text.init:

0000000080000000 <_start>:
    80000000:	04c0006f          	j	8000004c <reset_vector>

0000000080000004 <trap_vector>:
    80000004:	34202f73          	csrr	t5,mcause
    80000008:	00800f93          	li	t6,8
    8000000c:	03ff0a63          	beq	t5,t6,80000040 <write_tohost>
    80000010:	00900f93          	li	t6,9
    80000014:	03ff0663          	beq	t5,t6,80000040 <write_tohost>
    80000018:	00b00f93          	li	t6,11
    8000001c:	03ff0263          	beq	t5,t6,80000040 <write_tohost>
    80000020:	80000f17          	auipc	t5,0x80000
    80000024:	fe0f0f13          	addi	t5,t5,-32 # 0 <_start-0x80000000>
    80000028:	000f0463          	beqz	t5,80000030 <trap_vector+0x2c>
    8000002c:	000f0067          	jr	t5
    80000030:	34202f73          	csrr	t5,mcause
    80000034:	000f5463          	bgez	t5,8000003c <handle_exception>
    80000038:	0040006f          	j	8000003c <handle_exception>

000000008000003c <handle_exception>:
    8000003c:	5391e193          	ori	gp,gp,1337

0000000080000040 <write_tohost>:
    80000040:	00001f17          	auipc	t5,0x1
    80000044:	fc3f2023          	sw	gp,-64(t5) # 80001000 <tohost>
    80000048:	ff9ff06f          	j	80000040 <write_tohost>

000000008000004c <reset_vector>:
    8000004c:	f1402573          	csrr	a0,mhartid
    80000050:	00051063          	bnez	a0,80000050 <reset_vector+0x4>
    80000054:	00000297          	auipc	t0,0x0
    80000058:	01028293          	addi	t0,t0,16 # 80000064 <reset_vector+0x18>
    8000005c:	30529073          	csrw	mtvec,t0
    80000060:	18005073          	csrwi	satp,0
    80000064:	00000193          	li	gp,0
    80000068:	00000297          	auipc	t0,0x0
    8000006c:	f9c28293          	addi	t0,t0,-100 # 80000004 <trap_vector>
    80000070:	30529073          	csrw	mtvec,t0
    80000074:	00100513          	li	a0,1
    80000078:	01f51513          	slli	a0,a0,0x1f
    8000007c:	00055863          	bgez	a0,8000008c <reset_vector+0x40>
    80000080:	0ff0000f          	fence
    80000084:	00100193          	li	gp,1
    80000088:	fb9ff06f          	j	80000040 <write_tohost>
    8000008c:	00002537          	lui	a0,0x2
    80000090:	30052073          	csrs	mstatus,a0
    80000094:	00305073          	csrwi	fcsr,0
    80000098:	00000297          	auipc	t0,0x0
    8000009c:	01428293          	addi	t0,t0,20 # 800000ac <test_2>
    800000a0:	34129073          	csrw	mepc,t0
    800000a4:	f1402573          	csrr	a0,mhartid
    800000a8:	00028067          	jr	t0

00000000800000ac <test_2>:
    800000ac:	00200193          	li	gp,2
    800000b0:	00002517          	auipc	a0,0x2
    800000b4:	f5050513          	addi	a0,a0,-176 # 80002000 <test_2_data>
    800000b8:	00053683          	ld	a3,0(a0)
    800000bc:	00200513          	li	a0,2
    800000c0:	d2050053          	fcvt.d.w	ft0,a0
    800000c4:	00101073          	fsflags	zero
    800000c8:	e2000553          	fmv.x.d	a0,ft0
    800000cc:	1ad51263          	bne	a0,a3,80000270 <fail>

00000000800000d0 <test_3>:
    800000d0:	00300193          	li	gp,3
    800000d4:	00002517          	auipc	a0,0x2
    800000d8:	f3450513          	addi	a0,a0,-204 # 80002008 <test_3_data>
    800000dc:	00053683          	ld	a3,0(a0)
    800000e0:	ffe00513          	li	a0,-2
    800000e4:	d2050053          	fcvt.d.w	ft0,a0
    800000e8:	00101073          	fsflags	zero
    800000ec:	e2000553          	fmv.x.d	a0,ft0
    800000f0:	18d51063          	bne	a0,a3,80000270 <fail>

00000000800000f4 <test_4>:
    800000f4:	00400193          	li	gp,4
    800000f8:	00002517          	auipc	a0,0x2
    800000fc:	f1850513          	addi	a0,a0,-232 # 80002010 <test_4_data>
    80000100:	00053683          	ld	a3,0(a0)
    80000104:	00200513          	li	a0,2
    80000108:	d2150053          	fcvt.d.wu	ft0,a0
    8000010c:	00101073          	fsflags	zero
    80000110:	e2000553          	fmv.x.d	a0,ft0
    80000114:	14d51e63          	bne	a0,a3,80000270 <fail>

0000000080000118 <test_5>:
    80000118:	00500193          	li	gp,5
    8000011c:	00002517          	auipc	a0,0x2
    80000120:	efc50513          	addi	a0,a0,-260 # 80002018 <test_5_data>
    80000124:	00053683          	ld	a3,0(a0)
    80000128:	ffe00513          	li	a0,-2
    8000012c:	d2150053          	fcvt.d.wu	ft0,a0
    80000130:	00101073          	fsflags	zero
    80000134:	e2000553          	fmv.x.d	a0,ft0
    80000138:	12d51c63          	bne	a0,a3,80000270 <fail>

000000008000013c <test_6>:
    8000013c:	00600193          	li	gp,6
    80000140:	00002517          	auipc	a0,0x2
    80000144:	ee050513          	addi	a0,a0,-288 # 80002020 <test_6_data>
    80000148:	00053683          	ld	a3,0(a0)
    8000014c:	00200513          	li	a0,2
    80000150:	d2257053          	fcvt.d.l	ft0,a0
    80000154:	00101073          	fsflags	zero
    80000158:	e2000553          	fmv.x.d	a0,ft0
    8000015c:	10d51a63          	bne	a0,a3,80000270 <fail>

0000000080000160 <test_7>:
    80000160:	00700193          	li	gp,7
    80000164:	00002517          	auipc	a0,0x2
    80000168:	ec450513          	addi	a0,a0,-316 # 80002028 <test_7_data>
    8000016c:	00053683          	ld	a3,0(a0)
    80000170:	ffe00513          	li	a0,-2
    80000174:	d2257053          	fcvt.d.l	ft0,a0
    80000178:	00101073          	fsflags	zero
    8000017c:	e2000553          	fmv.x.d	a0,ft0
    80000180:	0ed51863          	bne	a0,a3,80000270 <fail>

0000000080000184 <test_8>:
    80000184:	00800193          	li	gp,8
    80000188:	00002517          	auipc	a0,0x2
    8000018c:	ea850513          	addi	a0,a0,-344 # 80002030 <test_8_data>
    80000190:	00053683          	ld	a3,0(a0)
    80000194:	00200513          	li	a0,2
    80000198:	d2357053          	fcvt.d.lu	ft0,a0
    8000019c:	00101073          	fsflags	zero
    800001a0:	e2000553          	fmv.x.d	a0,ft0
    800001a4:	0cd51663          	bne	a0,a3,80000270 <fail>

00000000800001a8 <test_9>:
    800001a8:	00900193          	li	gp,9
    800001ac:	00002517          	auipc	a0,0x2
    800001b0:	e8c50513          	addi	a0,a0,-372 # 80002038 <test_9_data>
    800001b4:	00053683          	ld	a3,0(a0)
    800001b8:	ffe00513          	li	a0,-2
    800001bc:	d2357053          	fcvt.d.lu	ft0,a0
    800001c0:	00101073          	fsflags	zero
    800001c4:	e2000553          	fmv.x.d	a0,ft0
    800001c8:	0ad51463          	bne	a0,a3,80000270 <fail>

00000000800001cc <test_10>:
    800001cc:	00a00193          	li	gp,10
    800001d0:	00002517          	auipc	a0,0x2
    800001d4:	e7050513          	addi	a0,a0,-400 # 80002040 <test_10_data>
    800001d8:	00053007          	fld	ft0,0(a0)
    800001dc:	00853087          	fld	ft1,8(a0)
    800001e0:	01053107          	fld	ft2,16(a0)
    800001e4:	01853683          	ld	a3,24(a0)
    800001e8:	401071d3          	fcvt.s.d	ft3,ft0
    800001ec:	420181d3          	fcvt.d.s	ft3,ft3
    800001f0:	e2018553          	fmv.x.d	a0,ft3
    800001f4:	001015f3          	fsflags	a1,zero
    800001f8:	00000613          	li	a2,0
    800001fc:	06d51a63          	bne	a0,a3,80000270 <fail>
    80000200:	06c59863          	bne	a1,a2,80000270 <fail>

0000000080000204 <test_11>:
    80000204:	00b00193          	li	gp,11
    80000208:	00002517          	auipc	a0,0x2
    8000020c:	e5850513          	addi	a0,a0,-424 # 80002060 <test_11_data>
    80000210:	00052007          	flw	ft0,0(a0)
    80000214:	00452087          	flw	ft1,4(a0)
    80000218:	00852107          	flw	ft2,8(a0)
    8000021c:	00c52683          	lw	a3,12(a0)
    80000220:	420001d3          	fcvt.d.s	ft3,ft0
    80000224:	4011f1d3          	fcvt.s.d	ft3,ft3
    80000228:	e0018553          	fmv.x.w	a0,ft3
    8000022c:	001015f3          	fsflags	a1,zero
    80000230:	00000613          	li	a2,0
    80000234:	02d51e63          	bne	a0,a3,80000270 <fail>
    80000238:	02c59c63          	bne	a1,a2,80000270 <fail>

000000008000023c <test_12>:
    8000023c:	00002597          	auipc	a1,0x2
    80000240:	e3458593          	addi	a1,a1,-460 # 80002070 <begin_signature>
    80000244:	0005b603          	ld	a2,0(a1)
    80000248:	f2060153          	fmv.d.x	ft2,a2
    8000024c:	40117153          	fcvt.s.d	ft2,ft2
    80000250:	42010153          	fcvt.d.s	ft2,ft2
    80000254:	e2010553          	fmv.x.d	a0,ft2
    80000258:	00001eb7          	lui	t4,0x1
    8000025c:	fffe8e9b          	addiw	t4,t4,-1
    80000260:	033e9e93          	slli	t4,t4,0x33
    80000264:	00c00193          	li	gp,12
    80000268:	01d51463          	bne	a0,t4,80000270 <fail>
    8000026c:	00301c63          	bne	zero,gp,80000284 <pass>

0000000080000270 <fail>:
    80000270:	0ff0000f          	fence
    80000274:	00018063          	beqz	gp,80000274 <fail+0x4>
    80000278:	00119193          	slli	gp,gp,0x1
    8000027c:	0011e193          	ori	gp,gp,1
    80000280:	dc1ff06f          	j	80000040 <write_tohost>

0000000080000284 <pass>:
    80000284:	0ff0000f          	fence
    80000288:	00100193          	li	gp,1
    8000028c:	db5ff06f          	j	80000040 <write_tohost>
    80000290:	c0001073          	unimp
	...

./rv64ud-p-fcvt_w:     file format elf64-littleriscv


Disassembly of section .text.init:

0000000080000000 <_start>:
    80000000:	04c0006f          	j	8000004c <reset_vector>

0000000080000004 <trap_vector>:
    80000004:	34202f73          	csrr	t5,mcause
    80000008:	00800f93          	li	t6,8
    8000000c:	03ff0a63          	beq	t5,t6,80000040 <write_tohost>
    80000010:	00900f93          	li	t6,9
    80000014:	03ff0663          	beq	t5,t6,80000040 <write_tohost>
    80000018:	00b00f93          	li	t6,11
    8000001c:	03ff0263          	beq	t5,t6,80000040 <write_tohost>
    80000020:	80000f17          	auipc	t5,0x80000
    80000024:	fe0f0f13          	addi	t5,t5,-32 # 0 <_start-0x80000000>
    80000028:	000f0463          	beqz	t5,80000030 <trap_vector+0x2c>
    8000002c:	000f0067          	jr	t5
    80000030:	34202f73          	csrr	t5,mcause
    80000034:	000f5463          	bgez	t5,8000003c <handle_exception>
    80000038:	0040006f          	j	8000003c <handle_exception>

000000008000003c <handle_exception>:
    8000003c:	5391e193          	ori	gp,gp,1337

0000000080000040 <write_tohost>:
    80000040:	00001f17          	auipc	t5,0x1
    80000044:	fc3f2023          	sw	gp,-64(t5) # 80001000 <tohost>
    80000048:	ff9ff06f          	j	80000040 <write_tohost>

000000008000004c <reset_vector>:
    8000004c:	f1402573          	csrr	a0,mhartid
    80000050:	00051063          	bnez	a0,80000050 <reset_vector+0x4>
    80000054:	00000297          	auipc	t0,0x0
    80000058:	01028293          	addi	t0,t0,16 # 80000064 <reset_vector+0x18>
    8000005c:	30529073          	csrw	mtvec,t0
    80000060:	18005073          	csrwi	satp,0
    80000064:	00000193          	li	gp,0
    80000068:	00000297          	auipc	t0,0x0
    8000006c:	f9c28293          	addi	t0,t0,-100 # 80000004 <trap_vector>
    80000070:	30529073          	csrw	mtvec,t0
    80000074:	00100513          	li	a0,1
    80000078:	01f51513          	slli	a0,a0,0x1f
    8000007c:	00055863          	bgez	a0,8000008c <reset_vector+0x40>
    80000080:	0ff0000f          	fence
    80000084:	00100193          	li	gp,1
    80000088:	fb9ff06f          	j	80000040 <write_tohost>
    8000008c:	00002537          	lui	a0,0x2
    80000090:	30052073          	csrs	mstatus,a0
    80000094:	00305073          	csrwi	fcsr,0
    80000098:	00000297          	auipc	t0,0x0
    8000009c:	01428293          	addi	t0,t0,20 # 800000ac <test_2>
    800000a0:	34129073          	csrw	mepc,t0
    800000a4:	f1402573          	csrr	a0,mhartid
    800000a8:	00028067          	jr	t0

00000000800000ac <test_2>:
    800000ac:	00200193          	li	gp,2
    800000b0:	00002517          	auipc	a0,0x2
    800000b4:	f5050513          	addi	a0,a0,-176 # 80002000 <test_2_data>
    800000b8:	00053007          	fld	ft0,0(a0)
    800000bc:	00853087          	fld	ft1,8(a0)
    800000c0:	01053107          	fld	ft2,16(a0)
    800000c4:	01853683          	ld	a3,24(a0)
    800000c8:	c2001553          	fcvt.w.d	a0,ft0,rtz
    800000cc:	001015f3          	fsflags	a1,zero
    800000d0:	00100613          	li	a2,1
    800000d4:	02d512e3          	bne	a0,a3,800008f8 <fail>
    800000d8:	02c590e3          	bne	a1,a2,800008f8 <fail>

00000000800000dc <test_3>:
    800000dc:	00300193          	li	gp,3
    800000e0:	00002517          	auipc	a0,0x2
    800000e4:	f4050513          	addi	a0,a0,-192 # 80002020 <test_3_data>
    800000e8:	00053007          	fld	ft0,0(a0)
    800000ec:	00853087          	fld	ft1,8(a0)
    800000f0:	01053107          	fld	ft2,16(a0)
    800000f4:	01853683          	ld	a3,24(a0)
    800000f8:	c2001553          	fcvt.w.d	a0,ft0,rtz
    800000fc:	001015f3          	fsflags	a1,zero
    80000100:	00000613          	li	a2,0
    80000104:	7ed51a63          	bne	a0,a3,800008f8 <fail>
    80000108:	7ec59863          	bne	a1,a2,800008f8 <fail>

000000008000010c <test_4>:
    8000010c:	00400193          	li	gp,4
    80000110:	00002517          	auipc	a0,0x2
    80000114:	f3050513          	addi	a0,a0,-208 # 80002040 <test_4_data>
    80000118:	00053007          	fld	ft0,0(a0)
    8000011c:	00853087          	fld	ft1,8(a0)
    80000120:	01053107          	fld	ft2,16(a0)
    80000124:	01853683          	ld	a3,24(a0)
    80000128:	c2001553          	fcvt.w.d	a0,ft0,rtz
    8000012c:	001015f3          	fsflags	a1,zero
    80000130:	00100613          	li	a2,1
    80000134:	7cd51263          	bne	a0,a3,800008f8 <fail>
    80000138:	7cc59063          	bne	a1,a2,800008f8 <fail>

000000008000013c <test_5>:
    8000013c:	00500193          	li	gp,5
    80000140:	00002517          	auipc	a0,0x2
    80000144:	f2050513          	addi	a0,a0,-224 # 80002060 <test_5_data>
    80000148:	00053007          	fld	ft0,0(a0)
    8000014c:	00853087          	fld	ft1,8(a0)
    80000150:	01053107          	fld	ft2,16(a0)
    80000154:	01853683          	ld	a3,24(a0)
    80000158:	c2001553          	fcvt.w.d	a0,ft0,rtz
    8000015c:	001015f3          	fsflags	a1,zero
    80000160:	00100613          	li	a2,1
    80000164:	78d51a63          	bne	a0,a3,800008f8 <fail>
    80000168:	78c59863          	bne	a1,a2,800008f8 <fail>

000000008000016c <test_6>:
    8000016c:	00600193          	li	gp,6
    80000170:	00002517          	auipc	a0,0x2
    80000174:	f1050513          	addi	a0,a0,-240 # 80002080 <test_6_data>
    80000178:	00053007          	fld	ft0,0(a0)
    8000017c:	00853087          	fld	ft1,8(a0)
    80000180:	01053107          	fld	ft2,16(a0)
    80000184:	01853683          	ld	a3,24(a0)
    80000188:	c2001553          	fcvt.w.d	a0,ft0,rtz
    8000018c:	001015f3          	fsflags	a1,zero
    80000190:	00000613          	li	a2,0
    80000194:	76d51263          	bne	a0,a3,800008f8 <fail>
    80000198:	76c59063          	bne	a1,a2,800008f8 <fail>

000000008000019c <test_7>:
    8000019c:	00700193          	li	gp,7
    800001a0:	00002517          	auipc	a0,0x2
    800001a4:	f0050513          	addi	a0,a0,-256 # 800020a0 <test_7_data>
    800001a8:	00053007          	fld	ft0,0(a0)
    800001ac:	00853087          	fld	ft1,8(a0)
    800001b0:	01053107          	fld	ft2,16(a0)
    800001b4:	01853683          	ld	a3,24(a0)
    800001b8:	c2001553          	fcvt.w.d	a0,ft0,rtz
    800001bc:	001015f3          	fsflags	a1,zero
    800001c0:	00100613          	li	a2,1
    800001c4:	72d51a63          	bne	a0,a3,800008f8 <fail>
    800001c8:	72c59863          	bne	a1,a2,800008f8 <fail>

00000000800001cc <test_8>:
    800001cc:	00800193          	li	gp,8
    800001d0:	00002517          	auipc	a0,0x2
    800001d4:	ef050513          	addi	a0,a0,-272 # 800020c0 <test_8_data>
    800001d8:	00053007          	fld	ft0,0(a0)
    800001dc:	00853087          	fld	ft1,8(a0)
    800001e0:	01053107          	fld	ft2,16(a0)
    800001e4:	01853683          	ld	a3,24(a0)
    800001e8:	c2001553          	fcvt.w.d	a0,ft0,rtz
    800001ec:	001015f3          	fsflags	a1,zero
    800001f0:	01000613          	li	a2,16
    800001f4:	70d51263          	bne	a0,a3,800008f8 <fail>
    800001f8:	70c59063          	bne	a1,a2,800008f8 <fail>

00000000800001fc <test_9>:
    800001fc:	00900193          	li	gp,9
    80000200:	00002517          	auipc	a0,0x2
    80000204:	ee050513          	addi	a0,a0,-288 # 800020e0 <test_9_data>
    80000208:	00053007          	fld	ft0,0(a0)
    8000020c:	00853087          	fld	ft1,8(a0)
    80000210:	01053107          	fld	ft2,16(a0)
    80000214:	01853683          	ld	a3,24(a0)
    80000218:	c2001553          	fcvt.w.d	a0,ft0,rtz
    8000021c:	001015f3          	fsflags	a1,zero
    80000220:	01000613          	li	a2,16
    80000224:	6cd51a63          	bne	a0,a3,800008f8 <fail>
    80000228:	6cc59863          	bne	a1,a2,800008f8 <fail>

000000008000022c <test_12>:
    8000022c:	00c00193          	li	gp,12
    80000230:	00002517          	auipc	a0,0x2
    80000234:	ed050513          	addi	a0,a0,-304 # 80002100 <test_12_data>
    80000238:	00053007          	fld	ft0,0(a0)
    8000023c:	00853087          	fld	ft1,8(a0)
    80000240:	01053107          	fld	ft2,16(a0)
    80000244:	01853683          	ld	a3,24(a0)
    80000248:	c2101553          	fcvt.wu.d	a0,ft0,rtz
    8000024c:	001015f3          	fsflags	a1,zero
    80000250:	01000613          	li	a2,16
    80000254:	6ad51263          	bne	a0,a3,800008f8 <fail>
    80000258:	6ac59063          	bne	a1,a2,800008f8 <fail>

000000008000025c <test_13>:
    8000025c:	00d00193          	li	gp,13
    80000260:	00002517          	auipc	a0,0x2
    80000264:	ec050513          	addi	a0,a0,-320 # 80002120 <test_13_data>
    80000268:	00053007          	fld	ft0,0(a0)
    8000026c:	00853087          	fld	ft1,8(a0)
    80000270:	01053107          	fld	ft2,16(a0)
    80000274:	01853683          	ld	a3,24(a0)
    80000278:	c2101553          	fcvt.wu.d	a0,ft0,rtz
    8000027c:	001015f3          	fsflags	a1,zero
    80000280:	01000613          	li	a2,16
    80000284:	66d51a63          	bne	a0,a3,800008f8 <fail>
    80000288:	66c59863          	bne	a1,a2,800008f8 <fail>

000000008000028c <test_14>:
    8000028c:	00e00193          	li	gp,14
    80000290:	00002517          	auipc	a0,0x2
    80000294:	eb050513          	addi	a0,a0,-336 # 80002140 <test_14_data>
    80000298:	00053007          	fld	ft0,0(a0)
    8000029c:	00853087          	fld	ft1,8(a0)
    800002a0:	01053107          	fld	ft2,16(a0)
    800002a4:	01853683          	ld	a3,24(a0)
    800002a8:	c2101553          	fcvt.wu.d	a0,ft0,rtz
    800002ac:	001015f3          	fsflags	a1,zero
    800002b0:	00100613          	li	a2,1
    800002b4:	64d51263          	bne	a0,a3,800008f8 <fail>
    800002b8:	64c59063          	bne	a1,a2,800008f8 <fail>

00000000800002bc <test_15>:
    800002bc:	00f00193          	li	gp,15
    800002c0:	00002517          	auipc	a0,0x2
    800002c4:	ea050513          	addi	a0,a0,-352 # 80002160 <test_15_data>
    800002c8:	00053007          	fld	ft0,0(a0)
    800002cc:	00853087          	fld	ft1,8(a0)
    800002d0:	01053107          	fld	ft2,16(a0)
    800002d4:	01853683          	ld	a3,24(a0)
    800002d8:	c2101553          	fcvt.wu.d	a0,ft0,rtz
    800002dc:	001015f3          	fsflags	a1,zero
    800002e0:	00100613          	li	a2,1
    800002e4:	60d51a63          	bne	a0,a3,800008f8 <fail>
    800002e8:	60c59863          	bne	a1,a2,800008f8 <fail>

00000000800002ec <test_16>:
    800002ec:	01000193          	li	gp,16
    800002f0:	00002517          	auipc	a0,0x2
    800002f4:	e9050513          	addi	a0,a0,-368 # 80002180 <test_16_data>
    800002f8:	00053007          	fld	ft0,0(a0)
    800002fc:	00853087          	fld	ft1,8(a0)
    80000300:	01053107          	fld	ft2,16(a0)
    80000304:	01853683          	ld	a3,24(a0)
    80000308:	c2101553          	fcvt.wu.d	a0,ft0,rtz
    8000030c:	001015f3          	fsflags	a1,zero
    80000310:	00000613          	li	a2,0
    80000314:	5ed51263          	bne	a0,a3,800008f8 <fail>
    80000318:	5ec59063          	bne	a1,a2,800008f8 <fail>

000000008000031c <test_17>:
    8000031c:	01100193          	li	gp,17
    80000320:	00002517          	auipc	a0,0x2
    80000324:	e8050513          	addi	a0,a0,-384 # 800021a0 <test_17_data>
    80000328:	00053007          	fld	ft0,0(a0)
    8000032c:	00853087          	fld	ft1,8(a0)
    80000330:	01053107          	fld	ft2,16(a0)
    80000334:	01853683          	ld	a3,24(a0)
    80000338:	c2101553          	fcvt.wu.d	a0,ft0,rtz
    8000033c:	001015f3          	fsflags	a1,zero
    80000340:	00100613          	li	a2,1
    80000344:	5ad51a63          	bne	a0,a3,800008f8 <fail>
    80000348:	5ac59863          	bne	a1,a2,800008f8 <fail>

000000008000034c <test_18>:
    8000034c:	01200193          	li	gp,18
    80000350:	00002517          	auipc	a0,0x2
    80000354:	e7050513          	addi	a0,a0,-400 # 800021c0 <test_18_data>
    80000358:	00053007          	fld	ft0,0(a0)
    8000035c:	00853087          	fld	ft1,8(a0)
    80000360:	01053107          	fld	ft2,16(a0)
    80000364:	01853683          	ld	a3,24(a0)
    80000368:	c2101553          	fcvt.wu.d	a0,ft0,rtz
    8000036c:	001015f3          	fsflags	a1,zero
    80000370:	01000613          	li	a2,16
    80000374:	58d51263          	bne	a0,a3,800008f8 <fail>
    80000378:	58c59063          	bne	a1,a2,800008f8 <fail>

000000008000037c <test_19>:
    8000037c:	01300193          	li	gp,19
    80000380:	00002517          	auipc	a0,0x2
    80000384:	e6050513          	addi	a0,a0,-416 # 800021e0 <test_19_data>
    80000388:	00053007          	fld	ft0,0(a0)
    8000038c:	00853087          	fld	ft1,8(a0)
    80000390:	01053107          	fld	ft2,16(a0)
    80000394:	01853683          	ld	a3,24(a0)
    80000398:	c2101553          	fcvt.wu.d	a0,ft0,rtz
    8000039c:	001015f3          	fsflags	a1,zero
    800003a0:	00000613          	li	a2,0
    800003a4:	54d51a63          	bne	a0,a3,800008f8 <fail>
    800003a8:	54c59863          	bne	a1,a2,800008f8 <fail>

00000000800003ac <test_22>:
    800003ac:	01600193          	li	gp,22
    800003b0:	00002517          	auipc	a0,0x2
    800003b4:	e5050513          	addi	a0,a0,-432 # 80002200 <test_22_data>
    800003b8:	00053007          	fld	ft0,0(a0)
    800003bc:	00853087          	fld	ft1,8(a0)
    800003c0:	01053107          	fld	ft2,16(a0)
    800003c4:	01853683          	ld	a3,24(a0)
    800003c8:	c2201553          	fcvt.l.d	a0,ft0,rtz
    800003cc:	001015f3          	fsflags	a1,zero
    800003d0:	00100613          	li	a2,1
    800003d4:	52d51263          	bne	a0,a3,800008f8 <fail>
    800003d8:	52c59063          	bne	a1,a2,800008f8 <fail>

00000000800003dc <test_23>:
    800003dc:	01700193          	li	gp,23
    800003e0:	00002517          	auipc	a0,0x2
    800003e4:	e4050513          	addi	a0,a0,-448 # 80002220 <test_23_data>
    800003e8:	00053007          	fld	ft0,0(a0)
    800003ec:	00853087          	fld	ft1,8(a0)
    800003f0:	01053107          	fld	ft2,16(a0)
    800003f4:	01853683          	ld	a3,24(a0)
    800003f8:	c2201553          	fcvt.l.d	a0,ft0,rtz
    800003fc:	001015f3          	fsflags	a1,zero
    80000400:	00000613          	li	a2,0
    80000404:	4ed51a63          	bne	a0,a3,800008f8 <fail>
    80000408:	4ec59863          	bne	a1,a2,800008f8 <fail>

000000008000040c <test_24>:
    8000040c:	01800193          	li	gp,24
    80000410:	00002517          	auipc	a0,0x2
    80000414:	e3050513          	addi	a0,a0,-464 # 80002240 <test_24_data>
    80000418:	00053007          	fld	ft0,0(a0)
    8000041c:	00853087          	fld	ft1,8(a0)
    80000420:	01053107          	fld	ft2,16(a0)
    80000424:	01853683          	ld	a3,24(a0)
    80000428:	c2201553          	fcvt.l.d	a0,ft0,rtz
    8000042c:	001015f3          	fsflags	a1,zero
    80000430:	00100613          	li	a2,1
    80000434:	4cd51263          	bne	a0,a3,800008f8 <fail>
    80000438:	4cc59063          	bne	a1,a2,800008f8 <fail>

000000008000043c <test_25>:
    8000043c:	01900193          	li	gp,25
    80000440:	00002517          	auipc	a0,0x2
    80000444:	e2050513          	addi	a0,a0,-480 # 80002260 <test_25_data>
    80000448:	00053007          	fld	ft0,0(a0)
    8000044c:	00853087          	fld	ft1,8(a0)
    80000450:	01053107          	fld	ft2,16(a0)
    80000454:	01853683          	ld	a3,24(a0)
    80000458:	c2201553          	fcvt.l.d	a0,ft0,rtz
    8000045c:	001015f3          	fsflags	a1,zero
    80000460:	00100613          	li	a2,1
    80000464:	48d51a63          	bne	a0,a3,800008f8 <fail>
    80000468:	48c59863          	bne	a1,a2,800008f8 <fail>

000000008000046c <test_26>:
    8000046c:	01a00193          	li	gp,26
    80000470:	00002517          	auipc	a0,0x2
    80000474:	e1050513          	addi	a0,a0,-496 # 80002280 <test_26_data>
    80000478:	00053007          	fld	ft0,0(a0)
    8000047c:	00853087          	fld	ft1,8(a0)
    80000480:	01053107          	fld	ft2,16(a0)
    80000484:	01853683          	ld	a3,24(a0)
    80000488:	c2201553          	fcvt.l.d	a0,ft0,rtz
    8000048c:	001015f3          	fsflags	a1,zero
    80000490:	00000613          	li	a2,0
    80000494:	46d51263          	bne	a0,a3,800008f8 <fail>
    80000498:	46c59063          	bne	a1,a2,800008f8 <fail>

000000008000049c <test_27>:
    8000049c:	01b00193          	li	gp,27
    800004a0:	00002517          	auipc	a0,0x2
    800004a4:	e0050513          	addi	a0,a0,-512 # 800022a0 <test_27_data>
    800004a8:	00053007          	fld	ft0,0(a0)
    800004ac:	00853087          	fld	ft1,8(a0)
    800004b0:	01053107          	fld	ft2,16(a0)
    800004b4:	01853683          	ld	a3,24(a0)
    800004b8:	c2201553          	fcvt.l.d	a0,ft0,rtz
    800004bc:	001015f3          	fsflags	a1,zero
    800004c0:	00100613          	li	a2,1
    800004c4:	42d51a63          	bne	a0,a3,800008f8 <fail>
    800004c8:	42c59863          	bne	a1,a2,800008f8 <fail>

00000000800004cc <test_28>:
    800004cc:	01c00193          	li	gp,28
    800004d0:	00002517          	auipc	a0,0x2
    800004d4:	df050513          	addi	a0,a0,-528 # 800022c0 <test_28_data>
    800004d8:	00053007          	fld	ft0,0(a0)
    800004dc:	00853087          	fld	ft1,8(a0)
    800004e0:	01053107          	fld	ft2,16(a0)
    800004e4:	01853683          	ld	a3,24(a0)
    800004e8:	c2201553          	fcvt.l.d	a0,ft0,rtz
    800004ec:	001015f3          	fsflags	a1,zero
    800004f0:	00000613          	li	a2,0
    800004f4:	40d51263          	bne	a0,a3,800008f8 <fail>
    800004f8:	40c59063          	bne	a1,a2,800008f8 <fail>

00000000800004fc <test_29>:
    800004fc:	01d00193          	li	gp,29
    80000500:	00002517          	auipc	a0,0x2
    80000504:	de050513          	addi	a0,a0,-544 # 800022e0 <test_29_data>
    80000508:	00053007          	fld	ft0,0(a0)
    8000050c:	00853087          	fld	ft1,8(a0)
    80000510:	01053107          	fld	ft2,16(a0)
    80000514:	01853683          	ld	a3,24(a0)
    80000518:	c2201553          	fcvt.l.d	a0,ft0,rtz
    8000051c:	001015f3          	fsflags	a1,zero
    80000520:	00000613          	li	a2,0
    80000524:	3cd51a63          	bne	a0,a3,800008f8 <fail>
    80000528:	3cc59863          	bne	a1,a2,800008f8 <fail>

000000008000052c <test_20>:
    8000052c:	01400193          	li	gp,20
    80000530:	00002517          	auipc	a0,0x2
    80000534:	dd050513          	addi	a0,a0,-560 # 80002300 <test_20_data>
    80000538:	00053007          	fld	ft0,0(a0)
    8000053c:	00853087          	fld	ft1,8(a0)
    80000540:	01053107          	fld	ft2,16(a0)
    80000544:	01853683          	ld	a3,24(a0)
    80000548:	c2201553          	fcvt.l.d	a0,ft0,rtz
    8000054c:	001015f3          	fsflags	a1,zero
    80000550:	01000613          	li	a2,16
    80000554:	3ad51263          	bne	a0,a3,800008f8 <fail>
    80000558:	3ac59063          	bne	a1,a2,800008f8 <fail>

000000008000055c <test_21>:
    8000055c:	01500193          	li	gp,21
    80000560:	00002517          	auipc	a0,0x2
    80000564:	dc050513          	addi	a0,a0,-576 # 80002320 <test_21_data>
    80000568:	00053007          	fld	ft0,0(a0)
    8000056c:	00853087          	fld	ft1,8(a0)
    80000570:	01053107          	fld	ft2,16(a0)
    80000574:	01853683          	ld	a3,24(a0)
    80000578:	c2201553          	fcvt.l.d	a0,ft0,rtz
    8000057c:	001015f3          	fsflags	a1,zero
    80000580:	01000613          	li	a2,16
    80000584:	36d51a63          	bne	a0,a3,800008f8 <fail>
    80000588:	36c59863          	bne	a1,a2,800008f8 <fail>

000000008000058c <test_32>:
    8000058c:	02000193          	li	gp,32
    80000590:	00002517          	auipc	a0,0x2
    80000594:	db050513          	addi	a0,a0,-592 # 80002340 <test_32_data>
    80000598:	00053007          	fld	ft0,0(a0)
    8000059c:	00853087          	fld	ft1,8(a0)
    800005a0:	01053107          	fld	ft2,16(a0)
    800005a4:	01853683          	ld	a3,24(a0)
    800005a8:	c2301553          	fcvt.lu.d	a0,ft0,rtz
    800005ac:	001015f3          	fsflags	a1,zero
    800005b0:	01000613          	li	a2,16
    800005b4:	34d51263          	bne	a0,a3,800008f8 <fail>
    800005b8:	34c59063          	bne	a1,a2,800008f8 <fail>

00000000800005bc <test_33>:
    800005bc:	02100193          	li	gp,33
    800005c0:	00002517          	auipc	a0,0x2
    800005c4:	da050513          	addi	a0,a0,-608 # 80002360 <test_33_data>
    800005c8:	00053007          	fld	ft0,0(a0)
    800005cc:	00853087          	fld	ft1,8(a0)
    800005d0:	01053107          	fld	ft2,16(a0)
    800005d4:	01853683          	ld	a3,24(a0)
    800005d8:	c2301553          	fcvt.lu.d	a0,ft0,rtz
    800005dc:	001015f3          	fsflags	a1,zero
    800005e0:	01000613          	li	a2,16
    800005e4:	30d51a63          	bne	a0,a3,800008f8 <fail>
    800005e8:	30c59863          	bne	a1,a2,800008f8 <fail>

00000000800005ec <test_34>:
    800005ec:	02200193          	li	gp,34
    800005f0:	00002517          	auipc	a0,0x2
    800005f4:	d9050513          	addi	a0,a0,-624 # 80002380 <test_34_data>
    800005f8:	00053007          	fld	ft0,0(a0)
    800005fc:	00853087          	fld	ft1,8(a0)
    80000600:	01053107          	fld	ft2,16(a0)
    80000604:	01853683          	ld	a3,24(a0)
    80000608:	c2301553          	fcvt.lu.d	a0,ft0,rtz
    8000060c:	001015f3          	fsflags	a1,zero
    80000610:	00100613          	li	a2,1
    80000614:	2ed51263          	bne	a0,a3,800008f8 <fail>
    80000618:	2ec59063          	bne	a1,a2,800008f8 <fail>

000000008000061c <test_35>:
    8000061c:	02300193          	li	gp,35
    80000620:	00002517          	auipc	a0,0x2
    80000624:	d8050513          	addi	a0,a0,-640 # 800023a0 <test_35_data>
    80000628:	00053007          	fld	ft0,0(a0)
    8000062c:	00853087          	fld	ft1,8(a0)
    80000630:	01053107          	fld	ft2,16(a0)
    80000634:	01853683          	ld	a3,24(a0)
    80000638:	c2301553          	fcvt.lu.d	a0,ft0,rtz
    8000063c:	001015f3          	fsflags	a1,zero
    80000640:	00100613          	li	a2,1
    80000644:	2ad51a63          	bne	a0,a3,800008f8 <fail>
    80000648:	2ac59863          	bne	a1,a2,800008f8 <fail>

000000008000064c <test_36>:
    8000064c:	02400193          	li	gp,36
    80000650:	00002517          	auipc	a0,0x2
    80000654:	d7050513          	addi	a0,a0,-656 # 800023c0 <test_36_data>
    80000658:	00053007          	fld	ft0,0(a0)
    8000065c:	00853087          	fld	ft1,8(a0)
    80000660:	01053107          	fld	ft2,16(a0)
    80000664:	01853683          	ld	a3,24(a0)
    80000668:	c2301553          	fcvt.lu.d	a0,ft0,rtz
    8000066c:	001015f3          	fsflags	a1,zero
    80000670:	00000613          	li	a2,0
    80000674:	28d51263          	bne	a0,a3,800008f8 <fail>
    80000678:	28c59063          	bne	a1,a2,800008f8 <fail>

000000008000067c <test_37>:
    8000067c:	02500193          	li	gp,37
    80000680:	00002517          	auipc	a0,0x2
    80000684:	d6050513          	addi	a0,a0,-672 # 800023e0 <test_37_data>
    80000688:	00053007          	fld	ft0,0(a0)
    8000068c:	00853087          	fld	ft1,8(a0)
    80000690:	01053107          	fld	ft2,16(a0)
    80000694:	01853683          	ld	a3,24(a0)
    80000698:	c2301553          	fcvt.lu.d	a0,ft0,rtz
    8000069c:	001015f3          	fsflags	a1,zero
    800006a0:	00100613          	li	a2,1
    800006a4:	24d51a63          	bne	a0,a3,800008f8 <fail>
    800006a8:	24c59863          	bne	a1,a2,800008f8 <fail>

00000000800006ac <test_38>:
    800006ac:	02600193          	li	gp,38
    800006b0:	00002517          	auipc	a0,0x2
    800006b4:	d5050513          	addi	a0,a0,-688 # 80002400 <test_38_data>
    800006b8:	00053007          	fld	ft0,0(a0)
    800006bc:	00853087          	fld	ft1,8(a0)
    800006c0:	01053107          	fld	ft2,16(a0)
    800006c4:	01853683          	ld	a3,24(a0)
    800006c8:	c2301553          	fcvt.lu.d	a0,ft0,rtz
    800006cc:	001015f3          	fsflags	a1,zero
    800006d0:	01000613          	li	a2,16
    800006d4:	22d51263          	bne	a0,a3,800008f8 <fail>
    800006d8:	22c59063          	bne	a1,a2,800008f8 <fail>

00000000800006dc <test_39>:
    800006dc:	02700193          	li	gp,39
    800006e0:	00002517          	auipc	a0,0x2
    800006e4:	d4050513          	addi	a0,a0,-704 # 80002420 <test_39_data>
    800006e8:	00053007          	fld	ft0,0(a0)
    800006ec:	00853087          	fld	ft1,8(a0)
    800006f0:	01053107          	fld	ft2,16(a0)
    800006f4:	01853683          	ld	a3,24(a0)
    800006f8:	c2301553          	fcvt.lu.d	a0,ft0,rtz
    800006fc:	001015f3          	fsflags	a1,zero
    80000700:	00000613          	li	a2,0
    80000704:	1ed51a63          	bne	a0,a3,800008f8 <fail>
    80000708:	1ec59863          	bne	a1,a2,800008f8 <fail>

000000008000070c <test_42>:
    8000070c:	00002097          	auipc	ra,0x2
    80000710:	d4408093          	addi	ra,ra,-700 # 80002450 <tdat_d>
    80000714:	0000b087          	fld	ft1,0(ra)
    80000718:	c200f0d3          	fcvt.w.d	ra,ft1
    8000071c:	80000eb7          	lui	t4,0x80000
    80000720:	fffe8e9b          	addiw	t4,t4,-1
    80000724:	02a00193          	li	gp,42
    80000728:	1dd09863          	bne	ra,t4,800008f8 <fail>

000000008000072c <test_43>:
    8000072c:	00002097          	auipc	ra,0x2
    80000730:	d2408093          	addi	ra,ra,-732 # 80002450 <tdat_d>
    80000734:	0000b087          	fld	ft1,0(ra)
    80000738:	c220f0d3          	fcvt.l.d	ra,ft1
    8000073c:	fff00e9b          	addiw	t4,zero,-1
    80000740:	03fe9e93          	slli	t4,t4,0x3f
    80000744:	fffe8e93          	addi	t4,t4,-1 # ffffffff7fffffff <_end+0xfffffffeffffdb8f>
    80000748:	02b00193          	li	gp,43
    8000074c:	1bd09663          	bne	ra,t4,800008f8 <fail>

0000000080000750 <test_44>:
    80000750:	00002097          	auipc	ra,0x2
    80000754:	d0008093          	addi	ra,ra,-768 # 80002450 <tdat_d>
    80000758:	0100b087          	fld	ft1,16(ra)
    8000075c:	c200f0d3          	fcvt.w.d	ra,ft1
    80000760:	80000eb7          	lui	t4,0x80000
    80000764:	02c00193          	li	gp,44
    80000768:	19d09863          	bne	ra,t4,800008f8 <fail>

000000008000076c <test_45>:
    8000076c:	00002097          	auipc	ra,0x2
    80000770:	ce408093          	addi	ra,ra,-796 # 80002450 <tdat_d>
    80000774:	0100b087          	fld	ft1,16(ra)
    80000778:	c220f0d3          	fcvt.l.d	ra,ft1
    8000077c:	fff00e9b          	addiw	t4,zero,-1
    80000780:	03fe9e93          	slli	t4,t4,0x3f
    80000784:	02d00193          	li	gp,45
    80000788:	17d09863          	bne	ra,t4,800008f8 <fail>

000000008000078c <test_52>:
    8000078c:	00002097          	auipc	ra,0x2
    80000790:	cc408093          	addi	ra,ra,-828 # 80002450 <tdat_d>
    80000794:	0080b087          	fld	ft1,8(ra)
    80000798:	c200f0d3          	fcvt.w.d	ra,ft1
    8000079c:	80000eb7          	lui	t4,0x80000
    800007a0:	fffe8e9b          	addiw	t4,t4,-1
    800007a4:	03400193          	li	gp,52
    800007a8:	15d09863          	bne	ra,t4,800008f8 <fail>

00000000800007ac <test_53>:
    800007ac:	00002097          	auipc	ra,0x2
    800007b0:	ca408093          	addi	ra,ra,-860 # 80002450 <tdat_d>
    800007b4:	0080b087          	fld	ft1,8(ra)
    800007b8:	c220f0d3          	fcvt.l.d	ra,ft1
    800007bc:	fff00e9b          	addiw	t4,zero,-1
    800007c0:	03fe9e93          	slli	t4,t4,0x3f
    800007c4:	fffe8e93          	addi	t4,t4,-1 # ffffffff7fffffff <_end+0xfffffffeffffdb8f>
    800007c8:	03500193          	li	gp,53
    800007cc:	13d09663          	bne	ra,t4,800008f8 <fail>

00000000800007d0 <test_54>:
    800007d0:	00002097          	auipc	ra,0x2
    800007d4:	c8008093          	addi	ra,ra,-896 # 80002450 <tdat_d>
    800007d8:	0180b087          	fld	ft1,24(ra)
    800007dc:	c200f0d3          	fcvt.w.d	ra,ft1
    800007e0:	80000eb7          	lui	t4,0x80000
    800007e4:	fffe8e9b          	addiw	t4,t4,-1
    800007e8:	03600193          	li	gp,54
    800007ec:	11d09663          	bne	ra,t4,800008f8 <fail>

00000000800007f0 <test_55>:
    800007f0:	00002097          	auipc	ra,0x2
    800007f4:	c6008093          	addi	ra,ra,-928 # 80002450 <tdat_d>
    800007f8:	0180b087          	fld	ft1,24(ra)
    800007fc:	c220f0d3          	fcvt.l.d	ra,ft1
    80000800:	fff00e9b          	addiw	t4,zero,-1
    80000804:	03fe9e93          	slli	t4,t4,0x3f
    80000808:	fffe8e93          	addi	t4,t4,-1 # ffffffff7fffffff <_end+0xfffffffeffffdb8f>
    8000080c:	03700193          	li	gp,55
    80000810:	0fd09463          	bne	ra,t4,800008f8 <fail>

0000000080000814 <test_62>:
    80000814:	00002097          	auipc	ra,0x2
    80000818:	c3c08093          	addi	ra,ra,-964 # 80002450 <tdat_d>
    8000081c:	0000b087          	fld	ft1,0(ra)
    80000820:	c210f0d3          	fcvt.wu.d	ra,ft1
    80000824:	fff00e93          	li	t4,-1
    80000828:	03e00193          	li	gp,62
    8000082c:	0dd09663          	bne	ra,t4,800008f8 <fail>

0000000080000830 <test_63>:
    80000830:	00002097          	auipc	ra,0x2
    80000834:	c2008093          	addi	ra,ra,-992 # 80002450 <tdat_d>
    80000838:	0080b087          	fld	ft1,8(ra)
    8000083c:	c210f0d3          	fcvt.wu.d	ra,ft1
    80000840:	fff00e93          	li	t4,-1
    80000844:	03f00193          	li	gp,63
    80000848:	0bd09863          	bne	ra,t4,800008f8 <fail>

000000008000084c <test_64>:
    8000084c:	00002097          	auipc	ra,0x2
    80000850:	c0408093          	addi	ra,ra,-1020 # 80002450 <tdat_d>
    80000854:	0100b087          	fld	ft1,16(ra)
    80000858:	c210f0d3          	fcvt.wu.d	ra,ft1
    8000085c:	00000e93          	li	t4,0
    80000860:	04000193          	li	gp,64
    80000864:	09d09a63          	bne	ra,t4,800008f8 <fail>

0000000080000868 <test_65>:
    80000868:	00002097          	auipc	ra,0x2
    8000086c:	be808093          	addi	ra,ra,-1048 # 80002450 <tdat_d>
    80000870:	0180b087          	fld	ft1,24(ra)
    80000874:	c210f0d3          	fcvt.wu.d	ra,ft1
    80000878:	fff00e93          	li	t4,-1
    8000087c:	04100193          	li	gp,65
    80000880:	07d09c63          	bne	ra,t4,800008f8 <fail>

0000000080000884 <test_66>:
    80000884:	00002097          	auipc	ra,0x2
    80000888:	bcc08093          	addi	ra,ra,-1076 # 80002450 <tdat_d>
    8000088c:	0000b087          	fld	ft1,0(ra)
    80000890:	c230f0d3          	fcvt.lu.d	ra,ft1
    80000894:	fff00e93          	li	t4,-1
    80000898:	04200193          	li	gp,66
    8000089c:	05d09e63          	bne	ra,t4,800008f8 <fail>

00000000800008a0 <test_67>:
    800008a0:	00002097          	auipc	ra,0x2
    800008a4:	bb008093          	addi	ra,ra,-1104 # 80002450 <tdat_d>
    800008a8:	0080b087          	fld	ft1,8(ra)
    800008ac:	c230f0d3          	fcvt.lu.d	ra,ft1
    800008b0:	fff00e93          	li	t4,-1
    800008b4:	04300193          	li	gp,67
    800008b8:	05d09063          	bne	ra,t4,800008f8 <fail>

00000000800008bc <test_68>:
    800008bc:	00002097          	auipc	ra,0x2
    800008c0:	b9408093          	addi	ra,ra,-1132 # 80002450 <tdat_d>
    800008c4:	0100b087          	fld	ft1,16(ra)
    800008c8:	c230f0d3          	fcvt.lu.d	ra,ft1
    800008cc:	00000e93          	li	t4,0
    800008d0:	04400193          	li	gp,68
    800008d4:	03d09263          	bne	ra,t4,800008f8 <fail>

00000000800008d8 <test_69>:
    800008d8:	00002097          	auipc	ra,0x2
    800008dc:	b7808093          	addi	ra,ra,-1160 # 80002450 <tdat_d>
    800008e0:	0180b087          	fld	ft1,24(ra)
    800008e4:	c230f0d3          	fcvt.lu.d	ra,ft1
    800008e8:	fff00e93          	li	t4,-1
    800008ec:	04500193          	li	gp,69
    800008f0:	01d09463          	bne	ra,t4,800008f8 <fail>
    800008f4:	00301c63          	bne	zero,gp,8000090c <pass>

00000000800008f8 <fail>:
    800008f8:	0ff0000f          	fence
    800008fc:	00018063          	beqz	gp,800008fc <fail+0x4>
    80000900:	00119193          	slli	gp,gp,0x1
    80000904:	0011e193          	ori	gp,gp,1
    80000908:	f38ff06f          	j	80000040 <write_tohost>

000000008000090c <pass>:
    8000090c:	0ff0000f          	fence
    80000910:	00100193          	li	gp,1
    80000914:	f2cff06f          	j	80000040 <write_tohost>
    80000918:	c0001073          	unimp
	...

./rv64ud-p-fdiv:     file format elf64-littleriscv


Disassembly of section .text.init:

0000000080000000 <_start>:
    80000000:	04c0006f          	j	8000004c <reset_vector>

0000000080000004 <trap_vector>:
    80000004:	34202f73          	csrr	t5,mcause
    80000008:	00800f93          	li	t6,8
    8000000c:	03ff0a63          	beq	t5,t6,80000040 <write_tohost>
    80000010:	00900f93          	li	t6,9
    80000014:	03ff0663          	beq	t5,t6,80000040 <write_tohost>
    80000018:	00b00f93          	li	t6,11
    8000001c:	03ff0263          	beq	t5,t6,80000040 <write_tohost>
    80000020:	80000f17          	auipc	t5,0x80000
    80000024:	fe0f0f13          	addi	t5,t5,-32 # 0 <_start-0x80000000>
    80000028:	000f0463          	beqz	t5,80000030 <trap_vector+0x2c>
    8000002c:	000f0067          	jr	t5
    80000030:	34202f73          	csrr	t5,mcause
    80000034:	000f5463          	bgez	t5,8000003c <handle_exception>
    80000038:	0040006f          	j	8000003c <handle_exception>

000000008000003c <handle_exception>:
    8000003c:	5391e193          	ori	gp,gp,1337

0000000080000040 <write_tohost>:
    80000040:	00001f17          	auipc	t5,0x1
    80000044:	fc3f2023          	sw	gp,-64(t5) # 80001000 <tohost>
    80000048:	ff9ff06f          	j	80000040 <write_tohost>

000000008000004c <reset_vector>:
    8000004c:	f1402573          	csrr	a0,mhartid
    80000050:	00051063          	bnez	a0,80000050 <reset_vector+0x4>
    80000054:	00000297          	auipc	t0,0x0
    80000058:	01028293          	addi	t0,t0,16 # 80000064 <reset_vector+0x18>
    8000005c:	30529073          	csrw	mtvec,t0
    80000060:	18005073          	csrwi	satp,0
    80000064:	00000193          	li	gp,0
    80000068:	00000297          	auipc	t0,0x0
    8000006c:	f9c28293          	addi	t0,t0,-100 # 80000004 <trap_vector>
    80000070:	30529073          	csrw	mtvec,t0
    80000074:	00100513          	li	a0,1
    80000078:	01f51513          	slli	a0,a0,0x1f
    8000007c:	00055863          	bgez	a0,8000008c <reset_vector+0x40>
    80000080:	0ff0000f          	fence
    80000084:	00100193          	li	gp,1
    80000088:	fb9ff06f          	j	80000040 <write_tohost>
    8000008c:	00002537          	lui	a0,0x2
    80000090:	30052073          	csrs	mstatus,a0
    80000094:	00305073          	csrwi	fcsr,0
    80000098:	00000297          	auipc	t0,0x0
    8000009c:	01428293          	addi	t0,t0,20 # 800000ac <test_2>
    800000a0:	34129073          	csrw	mepc,t0
    800000a4:	f1402573          	csrr	a0,mhartid
    800000a8:	00028067          	jr	t0

00000000800000ac <test_2>:
    800000ac:	00200193          	li	gp,2
    800000b0:	00002517          	auipc	a0,0x2
    800000b4:	f5050513          	addi	a0,a0,-176 # 80002000 <test_2_data>
    800000b8:	00053007          	fld	ft0,0(a0)
    800000bc:	00853087          	fld	ft1,8(a0)
    800000c0:	01053107          	fld	ft2,16(a0)
    800000c4:	01853683          	ld	a3,24(a0)
    800000c8:	1a1071d3          	fdiv.d	ft3,ft0,ft1
    800000cc:	e2018553          	fmv.x.d	a0,ft3
    800000d0:	001015f3          	fsflags	a1,zero
    800000d4:	00100613          	li	a2,1
    800000d8:	16d51c63          	bne	a0,a3,80000250 <fail>
    800000dc:	16c59a63          	bne	a1,a2,80000250 <fail>

00000000800000e0 <test_3>:
    800000e0:	00300193          	li	gp,3
    800000e4:	00002517          	auipc	a0,0x2
    800000e8:	f3c50513          	addi	a0,a0,-196 # 80002020 <test_3_data>
    800000ec:	00053007          	fld	ft0,0(a0)
    800000f0:	00853087          	fld	ft1,8(a0)
    800000f4:	01053107          	fld	ft2,16(a0)
    800000f8:	01853683          	ld	a3,24(a0)
    800000fc:	1a1071d3          	fdiv.d	ft3,ft0,ft1
    80000100:	e2018553          	fmv.x.d	a0,ft3
    80000104:	001015f3          	fsflags	a1,zero
    80000108:	00100613          	li	a2,1
    8000010c:	14d51263          	bne	a0,a3,80000250 <fail>
    80000110:	14c59063          	bne	a1,a2,80000250 <fail>

0000000080000114 <test_4>:
    80000114:	00400193          	li	gp,4
    80000118:	00002517          	auipc	a0,0x2
    8000011c:	f2850513          	addi	a0,a0,-216 # 80002040 <test_4_data>
    80000120:	00053007          	fld	ft0,0(a0)
    80000124:	00853087          	fld	ft1,8(a0)
    80000128:	01053107          	fld	ft2,16(a0)
    8000012c:	01853683          	ld	a3,24(a0)
    80000130:	1a1071d3          	fdiv.d	ft3,ft0,ft1
    80000134:	e2018553          	fmv.x.d	a0,ft3
    80000138:	001015f3          	fsflags	a1,zero
    8000013c:	00000613          	li	a2,0
    80000140:	10d51863          	bne	a0,a3,80000250 <fail>
    80000144:	10c59663          	bne	a1,a2,80000250 <fail>

0000000080000148 <test_5>:
    80000148:	00500193          	li	gp,5
    8000014c:	00002517          	auipc	a0,0x2
    80000150:	f1450513          	addi	a0,a0,-236 # 80002060 <test_5_data>
    80000154:	00053007          	fld	ft0,0(a0)
    80000158:	00853087          	fld	ft1,8(a0)
    8000015c:	01053107          	fld	ft2,16(a0)
    80000160:	01853683          	ld	a3,24(a0)
    80000164:	5a0071d3          	fsqrt.d	ft3,ft0
    80000168:	e2018553          	fmv.x.d	a0,ft3
    8000016c:	001015f3          	fsflags	a1,zero
    80000170:	00100613          	li	a2,1
    80000174:	0cd51e63          	bne	a0,a3,80000250 <fail>
    80000178:	0cc59c63          	bne	a1,a2,80000250 <fail>

000000008000017c <test_6>:
    8000017c:	00600193          	li	gp,6
    80000180:	00002517          	auipc	a0,0x2
    80000184:	f0050513          	addi	a0,a0,-256 # 80002080 <test_6_data>
    80000188:	00053007          	fld	ft0,0(a0)
    8000018c:	00853087          	fld	ft1,8(a0)
    80000190:	01053107          	fld	ft2,16(a0)
    80000194:	01853683          	ld	a3,24(a0)
    80000198:	5a0071d3          	fsqrt.d	ft3,ft0
    8000019c:	e2018553          	fmv.x.d	a0,ft3
    800001a0:	001015f3          	fsflags	a1,zero
    800001a4:	00000613          	li	a2,0
    800001a8:	0ad51463          	bne	a0,a3,80000250 <fail>
    800001ac:	0ac59263          	bne	a1,a2,80000250 <fail>

00000000800001b0 <test_16>:
    800001b0:	01000193          	li	gp,16
    800001b4:	00002517          	auipc	a0,0x2
    800001b8:	eec50513          	addi	a0,a0,-276 # 800020a0 <test_16_data>
    800001bc:	00053007          	fld	ft0,0(a0)
    800001c0:	00853087          	fld	ft1,8(a0)
    800001c4:	01053107          	fld	ft2,16(a0)
    800001c8:	01853683          	ld	a3,24(a0)
    800001cc:	5a0071d3          	fsqrt.d	ft3,ft0
    800001d0:	e2018553          	fmv.x.d	a0,ft3
    800001d4:	001015f3          	fsflags	a1,zero
    800001d8:	01000613          	li	a2,16
    800001dc:	06d51a63          	bne	a0,a3,80000250 <fail>
    800001e0:	06c59863          	bne	a1,a2,80000250 <fail>

00000000800001e4 <test_7>:
    800001e4:	00700193          	li	gp,7
    800001e8:	00002517          	auipc	a0,0x2
    800001ec:	ed850513          	addi	a0,a0,-296 # 800020c0 <test_7_data>
    800001f0:	00053007          	fld	ft0,0(a0)
    800001f4:	00853087          	fld	ft1,8(a0)
    800001f8:	01053107          	fld	ft2,16(a0)
    800001fc:	01853683          	ld	a3,24(a0)
    80000200:	5a0071d3          	fsqrt.d	ft3,ft0
    80000204:	e2018553          	fmv.x.d	a0,ft3
    80000208:	001015f3          	fsflags	a1,zero
    8000020c:	00100613          	li	a2,1
    80000210:	04d51063          	bne	a0,a3,80000250 <fail>
    80000214:	02c59e63          	bne	a1,a2,80000250 <fail>

0000000080000218 <test_8>:
    80000218:	00800193          	li	gp,8
    8000021c:	00002517          	auipc	a0,0x2
    80000220:	ec450513          	addi	a0,a0,-316 # 800020e0 <test_8_data>
    80000224:	00053007          	fld	ft0,0(a0)
    80000228:	00853087          	fld	ft1,8(a0)
    8000022c:	01053107          	fld	ft2,16(a0)
    80000230:	01853683          	ld	a3,24(a0)
    80000234:	5a0071d3          	fsqrt.d	ft3,ft0
    80000238:	e2018553          	fmv.x.d	a0,ft3
    8000023c:	001015f3          	fsflags	a1,zero
    80000240:	00100613          	li	a2,1
    80000244:	00d51663          	bne	a0,a3,80000250 <fail>
    80000248:	00c59463          	bne	a1,a2,80000250 <fail>
    8000024c:	00301c63          	bne	zero,gp,80000264 <pass>

0000000080000250 <fail>:
    80000250:	0ff0000f          	fence
    80000254:	00018063          	beqz	gp,80000254 <fail+0x4>
    80000258:	00119193          	slli	gp,gp,0x1
    8000025c:	0011e193          	ori	gp,gp,1
    80000260:	de1ff06f          	j	80000040 <write_tohost>

0000000080000264 <pass>:
    80000264:	0ff0000f          	fence
    80000268:	00100193          	li	gp,1
    8000026c:	dd5ff06f          	j	80000040 <write_tohost>
    80000270:	c0001073          	unimp
	...

./rv64ud-p-fmadd:     file format elf64-littleriscv


Disassembly of section .text.init:

0000000080000000 <_start>:
    80000000:	04c0006f          	j	8000004c <reset_vector>

0000000080000004 <trap_vector>:
    80000004:	34202f73          	csrr	t5,mcause
    80000008:	00800f93          	li	t6,8
    8000000c:	03ff0a63          	beq	t5,t6,80000040 <write_tohost>
    80000010:	00900f93          	li	t6,9
    80000014:	03ff0663          	beq	t5,t6,80000040 <write_tohost>
    80000018:	00b00f93          	li	t6,11
    8000001c:	03ff0263          	beq	t5,t6,80000040 <write_tohost>
    80000020:	80000f17          	auipc	t5,0x80000
    80000024:	fe0f0f13          	addi	t5,t5,-32 # 0 <_start-0x80000000>
    80000028:	000f0463          	beqz	t5,80000030 <trap_vector+0x2c>
    8000002c:	000f0067          	jr	t5
    80000030:	34202f73          	csrr	t5,mcause
    80000034:	000f5463          	bgez	t5,8000003c <handle_exception>
    80000038:	0040006f          	j	8000003c <handle_exception>

000000008000003c <handle_exception>:
    8000003c:	5391e193          	ori	gp,gp,1337

0000000080000040 <write_tohost>:
    80000040:	00001f17          	auipc	t5,0x1
    80000044:	fc3f2023          	sw	gp,-64(t5) # 80001000 <tohost>
    80000048:	ff9ff06f          	j	80000040 <write_tohost>

000000008000004c <reset_vector>:
    8000004c:	f1402573          	csrr	a0,mhartid
    80000050:	00051063          	bnez	a0,80000050 <reset_vector+0x4>
    80000054:	00000297          	auipc	t0,0x0
    80000058:	01028293          	addi	t0,t0,16 # 80000064 <reset_vector+0x18>
    8000005c:	30529073          	csrw	mtvec,t0
    80000060:	18005073          	csrwi	satp,0
    80000064:	00000193          	li	gp,0
    80000068:	00000297          	auipc	t0,0x0
    8000006c:	f9c28293          	addi	t0,t0,-100 # 80000004 <trap_vector>
    80000070:	30529073          	csrw	mtvec,t0
    80000074:	00100513          	li	a0,1
    80000078:	01f51513          	slli	a0,a0,0x1f
    8000007c:	00055863          	bgez	a0,8000008c <reset_vector+0x40>
    80000080:	0ff0000f          	fence
    80000084:	00100193          	li	gp,1
    80000088:	fb9ff06f          	j	80000040 <write_tohost>
    8000008c:	00002537          	lui	a0,0x2
    80000090:	30052073          	csrs	mstatus,a0
    80000094:	00305073          	csrwi	fcsr,0
    80000098:	00000297          	auipc	t0,0x0
    8000009c:	01428293          	addi	t0,t0,20 # 800000ac <test_2>
    800000a0:	34129073          	csrw	mepc,t0
    800000a4:	f1402573          	csrr	a0,mhartid
    800000a8:	00028067          	jr	t0

00000000800000ac <test_2>:
    800000ac:	00200193          	li	gp,2
    800000b0:	00002517          	auipc	a0,0x2
    800000b4:	f5050513          	addi	a0,a0,-176 # 80002000 <test_2_data>
    800000b8:	00053007          	fld	ft0,0(a0)
    800000bc:	00853087          	fld	ft1,8(a0)
    800000c0:	01053107          	fld	ft2,16(a0)
    800000c4:	01853683          	ld	a3,24(a0)
    800000c8:	121071c3          	fmadd.d	ft3,ft0,ft1,ft2
    800000cc:	e2018553          	fmv.x.d	a0,ft3
    800000d0:	001015f3          	fsflags	a1,zero
    800000d4:	00000613          	li	a2,0
    800000d8:	24d51463          	bne	a0,a3,80000320 <fail>
    800000dc:	24c59263          	bne	a1,a2,80000320 <fail>

00000000800000e0 <test_3>:
    800000e0:	00300193          	li	gp,3
    800000e4:	00002517          	auipc	a0,0x2
    800000e8:	f3c50513          	addi	a0,a0,-196 # 80002020 <test_3_data>
    800000ec:	00053007          	fld	ft0,0(a0)
    800000f0:	00853087          	fld	ft1,8(a0)
    800000f4:	01053107          	fld	ft2,16(a0)
    800000f8:	01853683          	ld	a3,24(a0)
    800000fc:	121071c3          	fmadd.d	ft3,ft0,ft1,ft2
    80000100:	e2018553          	fmv.x.d	a0,ft3
    80000104:	001015f3          	fsflags	a1,zero
    80000108:	00100613          	li	a2,1
    8000010c:	20d51a63          	bne	a0,a3,80000320 <fail>
    80000110:	20c59863          	bne	a1,a2,80000320 <fail>

0000000080000114 <test_4>:
    80000114:	00400193          	li	gp,4
    80000118:	00002517          	auipc	a0,0x2
    8000011c:	f2850513          	addi	a0,a0,-216 # 80002040 <test_4_data>
    80000120:	00053007          	fld	ft0,0(a0)
    80000124:	00853087          	fld	ft1,8(a0)
    80000128:	01053107          	fld	ft2,16(a0)
    8000012c:	01853683          	ld	a3,24(a0)
    80000130:	121071c3          	fmadd.d	ft3,ft0,ft1,ft2
    80000134:	e2018553          	fmv.x.d	a0,ft3
    80000138:	001015f3          	fsflags	a1,zero
    8000013c:	00000613          	li	a2,0
    80000140:	1ed51063          	bne	a0,a3,80000320 <fail>
    80000144:	1cc59e63          	bne	a1,a2,80000320 <fail>

0000000080000148 <test_5>:
    80000148:	00500193          	li	gp,5
    8000014c:	00002517          	auipc	a0,0x2
    80000150:	f1450513          	addi	a0,a0,-236 # 80002060 <test_5_data>
    80000154:	00053007          	fld	ft0,0(a0)
    80000158:	00853087          	fld	ft1,8(a0)
    8000015c:	01053107          	fld	ft2,16(a0)
    80000160:	01853683          	ld	a3,24(a0)
    80000164:	121071cf          	fnmadd.d	ft3,ft0,ft1,ft2
    80000168:	e2018553          	fmv.x.d	a0,ft3
    8000016c:	001015f3          	fsflags	a1,zero
    80000170:	00000613          	li	a2,0
    80000174:	1ad51663          	bne	a0,a3,80000320 <fail>
    80000178:	1ac59463          	bne	a1,a2,80000320 <fail>

000000008000017c <test_6>:
    8000017c:	00600193          	li	gp,6
    80000180:	00002517          	auipc	a0,0x2
    80000184:	f0050513          	addi	a0,a0,-256 # 80002080 <test_6_data>
    80000188:	00053007          	fld	ft0,0(a0)
    8000018c:	00853087          	fld	ft1,8(a0)
    80000190:	01053107          	fld	ft2,16(a0)
    80000194:	01853683          	ld	a3,24(a0)
    80000198:	121071cf          	fnmadd.d	ft3,ft0,ft1,ft2
    8000019c:	e2018553          	fmv.x.d	a0,ft3
    800001a0:	001015f3          	fsflags	a1,zero
    800001a4:	00100613          	li	a2,1
    800001a8:	16d51c63          	bne	a0,a3,80000320 <fail>
    800001ac:	16c59a63          	bne	a1,a2,80000320 <fail>

00000000800001b0 <test_7>:
    800001b0:	00700193          	li	gp,7
    800001b4:	00002517          	auipc	a0,0x2
    800001b8:	eec50513          	addi	a0,a0,-276 # 800020a0 <test_7_data>
    800001bc:	00053007          	fld	ft0,0(a0)
    800001c0:	00853087          	fld	ft1,8(a0)
    800001c4:	01053107          	fld	ft2,16(a0)
    800001c8:	01853683          	ld	a3,24(a0)
    800001cc:	121071cf          	fnmadd.d	ft3,ft0,ft1,ft2
    800001d0:	e2018553          	fmv.x.d	a0,ft3
    800001d4:	001015f3          	fsflags	a1,zero
    800001d8:	00000613          	li	a2,0
    800001dc:	14d51263          	bne	a0,a3,80000320 <fail>
    800001e0:	14c59063          	bne	a1,a2,80000320 <fail>

00000000800001e4 <test_8>:
    800001e4:	00800193          	li	gp,8
    800001e8:	00002517          	auipc	a0,0x2
    800001ec:	ed850513          	addi	a0,a0,-296 # 800020c0 <test_8_data>
    800001f0:	00053007          	fld	ft0,0(a0)
    800001f4:	00853087          	fld	ft1,8(a0)
    800001f8:	01053107          	fld	ft2,16(a0)
    800001fc:	01853683          	ld	a3,24(a0)
    80000200:	121071c7          	fmsub.d	ft3,ft0,ft1,ft2
    80000204:	e2018553          	fmv.x.d	a0,ft3
    80000208:	001015f3          	fsflags	a1,zero
    8000020c:	00000613          	li	a2,0
    80000210:	10d51863          	bne	a0,a3,80000320 <fail>
    80000214:	10c59663          	bne	a1,a2,80000320 <fail>

0000000080000218 <test_9>:
    80000218:	00900193          	li	gp,9
    8000021c:	00002517          	auipc	a0,0x2
    80000220:	ec450513          	addi	a0,a0,-316 # 800020e0 <test_9_data>
    80000224:	00053007          	fld	ft0,0(a0)
    80000228:	00853087          	fld	ft1,8(a0)
    8000022c:	01053107          	fld	ft2,16(a0)
    80000230:	01853683          	ld	a3,24(a0)
    80000234:	121071c7          	fmsub.d	ft3,ft0,ft1,ft2
    80000238:	e2018553          	fmv.x.d	a0,ft3
    8000023c:	001015f3          	fsflags	a1,zero
    80000240:	00100613          	li	a2,1
    80000244:	0cd51e63          	bne	a0,a3,80000320 <fail>
    80000248:	0cc59c63          	bne	a1,a2,80000320 <fail>

000000008000024c <test_10>:
    8000024c:	00a00193          	li	gp,10
    80000250:	00002517          	auipc	a0,0x2
    80000254:	eb050513          	addi	a0,a0,-336 # 80002100 <test_10_data>
    80000258:	00053007          	fld	ft0,0(a0)
    8000025c:	00853087          	fld	ft1,8(a0)
    80000260:	01053107          	fld	ft2,16(a0)
    80000264:	01853683          	ld	a3,24(a0)
    80000268:	121071c7          	fmsub.d	ft3,ft0,ft1,ft2
    8000026c:	e2018553          	fmv.x.d	a0,ft3
    80000270:	001015f3          	fsflags	a1,zero
    80000274:	00000613          	li	a2,0
    80000278:	0ad51463          	bne	a0,a3,80000320 <fail>
    8000027c:	0ac59263          	bne	a1,a2,80000320 <fail>

0000000080000280 <test_11>:
    80000280:	00b00193          	li	gp,11
    80000284:	00002517          	auipc	a0,0x2
    80000288:	e9c50513          	addi	a0,a0,-356 # 80002120 <test_11_data>
    8000028c:	00053007          	fld	ft0,0(a0)
    80000290:	00853087          	fld	ft1,8(a0)
    80000294:	01053107          	fld	ft2,16(a0)
    80000298:	01853683          	ld	a3,24(a0)
    8000029c:	121071cb          	fnmsub.d	ft3,ft0,ft1,ft2
    800002a0:	e2018553          	fmv.x.d	a0,ft3
    800002a4:	001015f3          	fsflags	a1,zero
    800002a8:	00000613          	li	a2,0
    800002ac:	06d51a63          	bne	a0,a3,80000320 <fail>
    800002b0:	06c59863          	bne	a1,a2,80000320 <fail>

00000000800002b4 <test_12>:
    800002b4:	00c00193          	li	gp,12
    800002b8:	00002517          	auipc	a0,0x2
    800002bc:	e8850513          	addi	a0,a0,-376 # 80002140 <test_12_data>
    800002c0:	00053007          	fld	ft0,0(a0)
    800002c4:	00853087          	fld	ft1,8(a0)
    800002c8:	01053107          	fld	ft2,16(a0)
    800002cc:	01853683          	ld	a3,24(a0)
    800002d0:	121071cb          	fnmsub.d	ft3,ft0,ft1,ft2
    800002d4:	e2018553          	fmv.x.d	a0,ft3
    800002d8:	001015f3          	fsflags	a1,zero
    800002dc:	00100613          	li	a2,1
    800002e0:	04d51063          	bne	a0,a3,80000320 <fail>
    800002e4:	02c59e63          	bne	a1,a2,80000320 <fail>

00000000800002e8 <test_13>:
    800002e8:	00d00193          	li	gp,13
    800002ec:	00002517          	auipc	a0,0x2
    800002f0:	e7450513          	addi	a0,a0,-396 # 80002160 <test_13_data>
    800002f4:	00053007          	fld	ft0,0(a0)
    800002f8:	00853087          	fld	ft1,8(a0)
    800002fc:	01053107          	fld	ft2,16(a0)
    80000300:	01853683          	ld	a3,24(a0)
    80000304:	121071cb          	fnmsub.d	ft3,ft0,ft1,ft2
    80000308:	e2018553          	fmv.x.d	a0,ft3
    8000030c:	001015f3          	fsflags	a1,zero
    80000310:	00000613          	li	a2,0
    80000314:	00d51663          	bne	a0,a3,80000320 <fail>
    80000318:	00c59463          	bne	a1,a2,80000320 <fail>
    8000031c:	00301c63          	bne	zero,gp,80000334 <pass>

0000000080000320 <fail>:
    80000320:	0ff0000f          	fence
    80000324:	00018063          	beqz	gp,80000324 <fail+0x4>
    80000328:	00119193          	slli	gp,gp,0x1
    8000032c:	0011e193          	ori	gp,gp,1
    80000330:	d11ff06f          	j	80000040 <write_tohost>

0000000080000334 <pass>:
    80000334:	0ff0000f          	fence
    80000338:	00100193          	li	gp,1
    8000033c:	d05ff06f          	j	80000040 <write_tohost>
    80000340:	c0001073          	unimp

./rv64ud-p-fmin:     file format elf64-littleriscv


Disassembly of section .text.init:

0000000080000000 <_start>:
    80000000:	04c0006f          	j	8000004c <reset_vector>

0000000080000004 <trap_vector>:
    80000004:	34202f73          	csrr	t5,mcause
    80000008:	00800f93          	li	t6,8
    8000000c:	03ff0a63          	beq	t5,t6,80000040 <write_tohost>
    80000010:	00900f93          	li	t6,9
    80000014:	03ff0663          	beq	t5,t6,80000040 <write_tohost>
    80000018:	00b00f93          	li	t6,11
    8000001c:	03ff0263          	beq	t5,t6,80000040 <write_tohost>
    80000020:	80000f17          	auipc	t5,0x80000
    80000024:	fe0f0f13          	addi	t5,t5,-32 # 0 <_start-0x80000000>
    80000028:	000f0463          	beqz	t5,80000030 <trap_vector+0x2c>
    8000002c:	000f0067          	jr	t5
    80000030:	34202f73          	csrr	t5,mcause
    80000034:	000f5463          	bgez	t5,8000003c <handle_exception>
    80000038:	0040006f          	j	8000003c <handle_exception>

000000008000003c <handle_exception>:
    8000003c:	5391e193          	ori	gp,gp,1337

0000000080000040 <write_tohost>:
    80000040:	00001f17          	auipc	t5,0x1
    80000044:	fc3f2023          	sw	gp,-64(t5) # 80001000 <tohost>
    80000048:	ff9ff06f          	j	80000040 <write_tohost>

000000008000004c <reset_vector>:
    8000004c:	f1402573          	csrr	a0,mhartid
    80000050:	00051063          	bnez	a0,80000050 <reset_vector+0x4>
    80000054:	00000297          	auipc	t0,0x0
    80000058:	01028293          	addi	t0,t0,16 # 80000064 <reset_vector+0x18>
    8000005c:	30529073          	csrw	mtvec,t0
    80000060:	18005073          	csrwi	satp,0
    80000064:	00000193          	li	gp,0
    80000068:	00000297          	auipc	t0,0x0
    8000006c:	f9c28293          	addi	t0,t0,-100 # 80000004 <trap_vector>
    80000070:	30529073          	csrw	mtvec,t0
    80000074:	00100513          	li	a0,1
    80000078:	01f51513          	slli	a0,a0,0x1f
    8000007c:	00055863          	bgez	a0,8000008c <reset_vector+0x40>
    80000080:	0ff0000f          	fence
    80000084:	00100193          	li	gp,1
    80000088:	fb9ff06f          	j	80000040 <write_tohost>
    8000008c:	00002537          	lui	a0,0x2
    80000090:	30052073          	csrs	mstatus,a0
    80000094:	00305073          	csrwi	fcsr,0
    80000098:	00000297          	auipc	t0,0x0
    8000009c:	01428293          	addi	t0,t0,20 # 800000ac <test_2>
    800000a0:	34129073          	csrw	mepc,t0
    800000a4:	f1402573          	csrr	a0,mhartid
    800000a8:	00028067          	jr	t0

00000000800000ac <test_2>:
    800000ac:	00200193          	li	gp,2
    800000b0:	00002517          	auipc	a0,0x2
    800000b4:	f5050513          	addi	a0,a0,-176 # 80002000 <test_2_data>
    800000b8:	00053007          	fld	ft0,0(a0)
    800000bc:	00853087          	fld	ft1,8(a0)
    800000c0:	01053107          	fld	ft2,16(a0)
    800000c4:	01853683          	ld	a3,24(a0)
    800000c8:	2a1001d3          	fmin.d	ft3,ft0,ft1
    800000cc:	e2018553          	fmv.x.d	a0,ft3
    800000d0:	001015f3          	fsflags	a1,zero
    800000d4:	00000613          	li	a2,0
    800000d8:	38d51063          	bne	a0,a3,80000458 <fail>
    800000dc:	36c59e63          	bne	a1,a2,80000458 <fail>

00000000800000e0 <test_3>:
    800000e0:	00300193          	li	gp,3
    800000e4:	00002517          	auipc	a0,0x2
    800000e8:	f3c50513          	addi	a0,a0,-196 # 80002020 <test_3_data>
    800000ec:	00053007          	fld	ft0,0(a0)
    800000f0:	00853087          	fld	ft1,8(a0)
    800000f4:	01053107          	fld	ft2,16(a0)
    800000f8:	01853683          	ld	a3,24(a0)
    800000fc:	2a1001d3          	fmin.d	ft3,ft0,ft1
    80000100:	e2018553          	fmv.x.d	a0,ft3
    80000104:	001015f3          	fsflags	a1,zero
    80000108:	00000613          	li	a2,0
    8000010c:	34d51663          	bne	a0,a3,80000458 <fail>
    80000110:	34c59463          	bne	a1,a2,80000458 <fail>

0000000080000114 <test_4>:
    80000114:	00400193          	li	gp,4
    80000118:	00002517          	auipc	a0,0x2
    8000011c:	f2850513          	addi	a0,a0,-216 # 80002040 <test_4_data>
    80000120:	00053007          	fld	ft0,0(a0)
    80000124:	00853087          	fld	ft1,8(a0)
    80000128:	01053107          	fld	ft2,16(a0)
    8000012c:	01853683          	ld	a3,24(a0)
    80000130:	2a1001d3          	fmin.d	ft3,ft0,ft1
    80000134:	e2018553          	fmv.x.d	a0,ft3
    80000138:	001015f3          	fsflags	a1,zero
    8000013c:	00000613          	li	a2,0
    80000140:	30d51c63          	bne	a0,a3,80000458 <fail>
    80000144:	30c59a63          	bne	a1,a2,80000458 <fail>

0000000080000148 <test_5>:
    80000148:	00500193          	li	gp,5
    8000014c:	00002517          	auipc	a0,0x2
    80000150:	f1450513          	addi	a0,a0,-236 # 80002060 <test_5_data>
    80000154:	00053007          	fld	ft0,0(a0)
    80000158:	00853087          	fld	ft1,8(a0)
    8000015c:	01053107          	fld	ft2,16(a0)
    80000160:	01853683          	ld	a3,24(a0)
    80000164:	2a1001d3          	fmin.d	ft3,ft0,ft1
    80000168:	e2018553          	fmv.x.d	a0,ft3
    8000016c:	001015f3          	fsflags	a1,zero
    80000170:	00000613          	li	a2,0
    80000174:	2ed51263          	bne	a0,a3,80000458 <fail>
    80000178:	2ec59063          	bne	a1,a2,80000458 <fail>

000000008000017c <test_6>:
    8000017c:	00600193          	li	gp,6
    80000180:	00002517          	auipc	a0,0x2
    80000184:	f0050513          	addi	a0,a0,-256 # 80002080 <test_6_data>
    80000188:	00053007          	fld	ft0,0(a0)
    8000018c:	00853087          	fld	ft1,8(a0)
    80000190:	01053107          	fld	ft2,16(a0)
    80000194:	01853683          	ld	a3,24(a0)
    80000198:	2a1001d3          	fmin.d	ft3,ft0,ft1
    8000019c:	e2018553          	fmv.x.d	a0,ft3
    800001a0:	001015f3          	fsflags	a1,zero
    800001a4:	00000613          	li	a2,0
    800001a8:	2ad51863          	bne	a0,a3,80000458 <fail>
    800001ac:	2ac59663          	bne	a1,a2,80000458 <fail>

00000000800001b0 <test_7>:
    800001b0:	00700193          	li	gp,7
    800001b4:	00002517          	auipc	a0,0x2
    800001b8:	eec50513          	addi	a0,a0,-276 # 800020a0 <test_7_data>
    800001bc:	00053007          	fld	ft0,0(a0)
    800001c0:	00853087          	fld	ft1,8(a0)
    800001c4:	01053107          	fld	ft2,16(a0)
    800001c8:	01853683          	ld	a3,24(a0)
    800001cc:	2a1001d3          	fmin.d	ft3,ft0,ft1
    800001d0:	e2018553          	fmv.x.d	a0,ft3
    800001d4:	001015f3          	fsflags	a1,zero
    800001d8:	00000613          	li	a2,0
    800001dc:	26d51e63          	bne	a0,a3,80000458 <fail>
    800001e0:	26c59c63          	bne	a1,a2,80000458 <fail>

00000000800001e4 <test_12>:
    800001e4:	00c00193          	li	gp,12
    800001e8:	00002517          	auipc	a0,0x2
    800001ec:	ed850513          	addi	a0,a0,-296 # 800020c0 <test_12_data>
    800001f0:	00053007          	fld	ft0,0(a0)
    800001f4:	00853087          	fld	ft1,8(a0)
    800001f8:	01053107          	fld	ft2,16(a0)
    800001fc:	01853683          	ld	a3,24(a0)
    80000200:	2a1011d3          	fmax.d	ft3,ft0,ft1
    80000204:	e2018553          	fmv.x.d	a0,ft3
    80000208:	001015f3          	fsflags	a1,zero
    8000020c:	00000613          	li	a2,0
    80000210:	24d51463          	bne	a0,a3,80000458 <fail>
    80000214:	24c59263          	bne	a1,a2,80000458 <fail>

0000000080000218 <test_13>:
    80000218:	00d00193          	li	gp,13
    8000021c:	00002517          	auipc	a0,0x2
    80000220:	ec450513          	addi	a0,a0,-316 # 800020e0 <test_13_data>
    80000224:	00053007          	fld	ft0,0(a0)
    80000228:	00853087          	fld	ft1,8(a0)
    8000022c:	01053107          	fld	ft2,16(a0)
    80000230:	01853683          	ld	a3,24(a0)
    80000234:	2a1011d3          	fmax.d	ft3,ft0,ft1
    80000238:	e2018553          	fmv.x.d	a0,ft3
    8000023c:	001015f3          	fsflags	a1,zero
    80000240:	00000613          	li	a2,0
    80000244:	20d51a63          	bne	a0,a3,80000458 <fail>
    80000248:	20c59863          	bne	a1,a2,80000458 <fail>

000000008000024c <test_14>:
    8000024c:	00e00193          	li	gp,14
    80000250:	00002517          	auipc	a0,0x2
    80000254:	eb050513          	addi	a0,a0,-336 # 80002100 <test_14_data>
    80000258:	00053007          	fld	ft0,0(a0)
    8000025c:	00853087          	fld	ft1,8(a0)
    80000260:	01053107          	fld	ft2,16(a0)
    80000264:	01853683          	ld	a3,24(a0)
    80000268:	2a1011d3          	fmax.d	ft3,ft0,ft1
    8000026c:	e2018553          	fmv.x.d	a0,ft3
    80000270:	001015f3          	fsflags	a1,zero
    80000274:	00000613          	li	a2,0
    80000278:	1ed51063          	bne	a0,a3,80000458 <fail>
    8000027c:	1cc59e63          	bne	a1,a2,80000458 <fail>

0000000080000280 <test_15>:
    80000280:	00f00193          	li	gp,15
    80000284:	00002517          	auipc	a0,0x2
    80000288:	e9c50513          	addi	a0,a0,-356 # 80002120 <test_15_data>
    8000028c:	00053007          	fld	ft0,0(a0)
    80000290:	00853087          	fld	ft1,8(a0)
    80000294:	01053107          	fld	ft2,16(a0)
    80000298:	01853683          	ld	a3,24(a0)
    8000029c:	2a1011d3          	fmax.d	ft3,ft0,ft1
    800002a0:	e2018553          	fmv.x.d	a0,ft3
    800002a4:	001015f3          	fsflags	a1,zero
    800002a8:	00000613          	li	a2,0
    800002ac:	1ad51663          	bne	a0,a3,80000458 <fail>
    800002b0:	1ac59463          	bne	a1,a2,80000458 <fail>

00000000800002b4 <test_16>:
    800002b4:	01000193          	li	gp,16
    800002b8:	00002517          	auipc	a0,0x2
    800002bc:	e8850513          	addi	a0,a0,-376 # 80002140 <test_16_data>
    800002c0:	00053007          	fld	ft0,0(a0)
    800002c4:	00853087          	fld	ft1,8(a0)
    800002c8:	01053107          	fld	ft2,16(a0)
    800002cc:	01853683          	ld	a3,24(a0)
    800002d0:	2a1011d3          	fmax.d	ft3,ft0,ft1
    800002d4:	e2018553          	fmv.x.d	a0,ft3
    800002d8:	001015f3          	fsflags	a1,zero
    800002dc:	00000613          	li	a2,0
    800002e0:	16d51c63          	bne	a0,a3,80000458 <fail>
    800002e4:	16c59a63          	bne	a1,a2,80000458 <fail>

00000000800002e8 <test_17>:
    800002e8:	01100193          	li	gp,17
    800002ec:	00002517          	auipc	a0,0x2
    800002f0:	e7450513          	addi	a0,a0,-396 # 80002160 <test_17_data>
    800002f4:	00053007          	fld	ft0,0(a0)
    800002f8:	00853087          	fld	ft1,8(a0)
    800002fc:	01053107          	fld	ft2,16(a0)
    80000300:	01853683          	ld	a3,24(a0)
    80000304:	2a1011d3          	fmax.d	ft3,ft0,ft1
    80000308:	e2018553          	fmv.x.d	a0,ft3
    8000030c:	001015f3          	fsflags	a1,zero
    80000310:	00000613          	li	a2,0
    80000314:	14d51263          	bne	a0,a3,80000458 <fail>
    80000318:	14c59063          	bne	a1,a2,80000458 <fail>

000000008000031c <test_20>:
    8000031c:	01400193          	li	gp,20
    80000320:	00002517          	auipc	a0,0x2
    80000324:	e6050513          	addi	a0,a0,-416 # 80002180 <test_20_data>
    80000328:	00053007          	fld	ft0,0(a0)
    8000032c:	00853087          	fld	ft1,8(a0)
    80000330:	01053107          	fld	ft2,16(a0)
    80000334:	01853683          	ld	a3,24(a0)
    80000338:	2a1011d3          	fmax.d	ft3,ft0,ft1
    8000033c:	e2018553          	fmv.x.d	a0,ft3
    80000340:	001015f3          	fsflags	a1,zero
    80000344:	01000613          	li	a2,16
    80000348:	10d51863          	bne	a0,a3,80000458 <fail>
    8000034c:	10c59663          	bne	a1,a2,80000458 <fail>

0000000080000350 <test_21>:
    80000350:	01500193          	li	gp,21
    80000354:	00002517          	auipc	a0,0x2
    80000358:	e4c50513          	addi	a0,a0,-436 # 800021a0 <test_21_data>
    8000035c:	00053007          	fld	ft0,0(a0)
    80000360:	00853087          	fld	ft1,8(a0)
    80000364:	01053107          	fld	ft2,16(a0)
    80000368:	01853683          	ld	a3,24(a0)
    8000036c:	2a1011d3          	fmax.d	ft3,ft0,ft1
    80000370:	e2018553          	fmv.x.d	a0,ft3
    80000374:	001015f3          	fsflags	a1,zero
    80000378:	00000613          	li	a2,0
    8000037c:	0cd51e63          	bne	a0,a3,80000458 <fail>
    80000380:	0cc59c63          	bne	a1,a2,80000458 <fail>

0000000080000384 <test_30>:
    80000384:	01e00193          	li	gp,30
    80000388:	00002517          	auipc	a0,0x2
    8000038c:	e3850513          	addi	a0,a0,-456 # 800021c0 <test_30_data>
    80000390:	00053007          	fld	ft0,0(a0)
    80000394:	00853087          	fld	ft1,8(a0)
    80000398:	01053107          	fld	ft2,16(a0)
    8000039c:	01853683          	ld	a3,24(a0)
    800003a0:	2a1001d3          	fmin.d	ft3,ft0,ft1
    800003a4:	e2018553          	fmv.x.d	a0,ft3
    800003a8:	001015f3          	fsflags	a1,zero
    800003ac:	00000613          	li	a2,0
    800003b0:	0ad51463          	bne	a0,a3,80000458 <fail>
    800003b4:	0ac59263          	bne	a1,a2,80000458 <fail>

00000000800003b8 <test_31>:
    800003b8:	01f00193          	li	gp,31
    800003bc:	00002517          	auipc	a0,0x2
    800003c0:	e2450513          	addi	a0,a0,-476 # 800021e0 <test_31_data>
    800003c4:	00053007          	fld	ft0,0(a0)
    800003c8:	00853087          	fld	ft1,8(a0)
    800003cc:	01053107          	fld	ft2,16(a0)
    800003d0:	01853683          	ld	a3,24(a0)
    800003d4:	2a1001d3          	fmin.d	ft3,ft0,ft1
    800003d8:	e2018553          	fmv.x.d	a0,ft3
    800003dc:	001015f3          	fsflags	a1,zero
    800003e0:	00000613          	li	a2,0
    800003e4:	06d51a63          	bne	a0,a3,80000458 <fail>
    800003e8:	06c59863          	bne	a1,a2,80000458 <fail>

00000000800003ec <test_32>:
    800003ec:	02000193          	li	gp,32
    800003f0:	00002517          	auipc	a0,0x2
    800003f4:	e1050513          	addi	a0,a0,-496 # 80002200 <test_32_data>
    800003f8:	00053007          	fld	ft0,0(a0)
    800003fc:	00853087          	fld	ft1,8(a0)
    80000400:	01053107          	fld	ft2,16(a0)
    80000404:	01853683          	ld	a3,24(a0)
    80000408:	2a1011d3          	fmax.d	ft3,ft0,ft1
    8000040c:	e2018553          	fmv.x.d	a0,ft3
    80000410:	001015f3          	fsflags	a1,zero
    80000414:	00000613          	li	a2,0
    80000418:	04d51063          	bne	a0,a3,80000458 <fail>
    8000041c:	02c59e63          	bne	a1,a2,80000458 <fail>

0000000080000420 <test_33>:
    80000420:	02100193          	li	gp,33
    80000424:	00002517          	auipc	a0,0x2
    80000428:	dfc50513          	addi	a0,a0,-516 # 80002220 <test_33_data>
    8000042c:	00053007          	fld	ft0,0(a0)
    80000430:	00853087          	fld	ft1,8(a0)
    80000434:	01053107          	fld	ft2,16(a0)
    80000438:	01853683          	ld	a3,24(a0)
    8000043c:	2a1011d3          	fmax.d	ft3,ft0,ft1
    80000440:	e2018553          	fmv.x.d	a0,ft3
    80000444:	001015f3          	fsflags	a1,zero
    80000448:	00000613          	li	a2,0
    8000044c:	00d51663          	bne	a0,a3,80000458 <fail>
    80000450:	00c59463          	bne	a1,a2,80000458 <fail>
    80000454:	00301c63          	bne	zero,gp,8000046c <pass>

0000000080000458 <fail>:
    80000458:	0ff0000f          	fence
    8000045c:	00018063          	beqz	gp,8000045c <fail+0x4>
    80000460:	00119193          	slli	gp,gp,0x1
    80000464:	0011e193          	ori	gp,gp,1
    80000468:	bd9ff06f          	j	80000040 <write_tohost>

000000008000046c <pass>:
    8000046c:	0ff0000f          	fence
    80000470:	00100193          	li	gp,1
    80000474:	bcdff06f          	j	80000040 <write_tohost>
    80000478:	c0001073          	unimp
	...

./rv64ud-p-ldst:     file format elf64-littleriscv


Disassembly of section .text.init:

0000000080000000 <_start>:
    80000000:	04c0006f          	j	8000004c <reset_vector>

0000000080000004 <trap_vector>:
    80000004:	34202f73          	csrr	t5,mcause
    80000008:	00800f93          	li	t6,8
    8000000c:	03ff0a63          	beq	t5,t6,80000040 <write_tohost>
    80000010:	00900f93          	li	t6,9
    80000014:	03ff0663          	beq	t5,t6,80000040 <write_tohost>
    80000018:	00b00f93          	li	t6,11
    8000001c:	03ff0263          	beq	t5,t6,80000040 <write_tohost>
    80000020:	80000f17          	auipc	t5,0x80000
    80000024:	fe0f0f13          	addi	t5,t5,-32 # 0 <_start-0x80000000>
    80000028:	000f0463          	beqz	t5,80000030 <trap_vector+0x2c>
    8000002c:	000f0067          	jr	t5
    80000030:	34202f73          	csrr	t5,mcause
    80000034:	000f5463          	bgez	t5,8000003c <handle_exception>
    80000038:	0040006f          	j	8000003c <handle_exception>

000000008000003c <handle_exception>:
    8000003c:	5391e193          	ori	gp,gp,1337

0000000080000040 <write_tohost>:
    80000040:	00001f17          	auipc	t5,0x1
    80000044:	fc3f2023          	sw	gp,-64(t5) # 80001000 <tohost>
    80000048:	ff9ff06f          	j	80000040 <write_tohost>

000000008000004c <reset_vector>:
    8000004c:	f1402573          	csrr	a0,mhartid
    80000050:	00051063          	bnez	a0,80000050 <reset_vector+0x4>
    80000054:	00000297          	auipc	t0,0x0
    80000058:	01028293          	addi	t0,t0,16 # 80000064 <reset_vector+0x18>
    8000005c:	30529073          	csrw	mtvec,t0
    80000060:	18005073          	csrwi	satp,0
    80000064:	00000193          	li	gp,0
    80000068:	00000297          	auipc	t0,0x0
    8000006c:	f9c28293          	addi	t0,t0,-100 # 80000004 <trap_vector>
    80000070:	30529073          	csrw	mtvec,t0
    80000074:	00100513          	li	a0,1
    80000078:	01f51513          	slli	a0,a0,0x1f
    8000007c:	00055863          	bgez	a0,8000008c <reset_vector+0x40>
    80000080:	0ff0000f          	fence
    80000084:	00100193          	li	gp,1
    80000088:	fb9ff06f          	j	80000040 <write_tohost>
    8000008c:	00002537          	lui	a0,0x2
    80000090:	30052073          	csrs	mstatus,a0
    80000094:	00305073          	csrwi	fcsr,0
    80000098:	00000297          	auipc	t0,0x0
    8000009c:	01428293          	addi	t0,t0,20 # 800000ac <reset_vector+0x60>
    800000a0:	34129073          	csrw	mepc,t0
    800000a4:	f1402573          	csrr	a0,mhartid
    800000a8:	00028067          	jr	t0
    800000ac:	00002417          	auipc	s0,0x2
    800000b0:	f5440413          	addi	s0,s0,-172 # 80002000 <begin_signature>

00000000800000b4 <test_2>:
    800000b4:	00043107          	fld	ft2,0(s0)
    800000b8:	00243827          	fsd	ft2,16(s0)
    800000bc:	01043503          	ld	a0,16(s0)
    800000c0:	00100e9b          	addiw	t4,zero,1
    800000c4:	027e9e93          	slli	t4,t4,0x27
    800000c8:	17fe8e93          	addi	t4,t4,383
    800000cc:	017e9e93          	slli	t4,t4,0x17
    800000d0:	00200193          	li	gp,2
    800000d4:	09d51863          	bne	a0,t4,80000164 <fail>

00000000800000d8 <test_3>:
    800000d8:	00043107          	fld	ft2,0(s0)
    800000dc:	00242827          	fsw	ft2,16(s0)
    800000e0:	01043503          	ld	a0,16(s0)
    800000e4:	00100e9b          	addiw	t4,zero,1
    800000e8:	027e9e93          	slli	t4,t4,0x27
    800000ec:	17fe8e93          	addi	t4,t4,383
    800000f0:	017e9e93          	slli	t4,t4,0x17
    800000f4:	00300193          	li	gp,3
    800000f8:	07d51663          	bne	a0,t4,80000164 <fail>

00000000800000fc <test_4>:
    800000fc:	00042107          	flw	ft2,0(s0)
    80000100:	00242827          	fsw	ft2,16(s0)
    80000104:	01043503          	ld	a0,16(s0)
    80000108:	00100e9b          	addiw	t4,zero,1
    8000010c:	027e9e93          	slli	t4,t4,0x27
    80000110:	17fe8e93          	addi	t4,t4,383
    80000114:	017e9e93          	slli	t4,t4,0x17
    80000118:	00400193          	li	gp,4
    8000011c:	05d51463          	bne	a0,t4,80000164 <fail>

0000000080000120 <test_5>:
    80000120:	00843107          	fld	ft2,8(s0)
    80000124:	00243827          	fsd	ft2,16(s0)
    80000128:	01043503          	ld	a0,16(s0)
    8000012c:	f8100e9b          	addiw	t4,zero,-127
    80000130:	021e9e93          	slli	t4,t4,0x21
    80000134:	101e8e93          	addi	t4,t4,257
    80000138:	016e9e93          	slli	t4,t4,0x16
    8000013c:	00500193          	li	gp,5
    80000140:	03d51263          	bne	a0,t4,80000164 <fail>

0000000080000144 <test_6>:
    80000144:	00842107          	flw	ft2,8(s0)
    80000148:	00243827          	fsd	ft2,16(s0)
    8000014c:	01043503          	ld	a0,16(s0)
    80000150:	d0100e9b          	addiw	t4,zero,-767
    80000154:	016e9e93          	slli	t4,t4,0x16
    80000158:	00600193          	li	gp,6
    8000015c:	01d51463          	bne	a0,t4,80000164 <fail>
    80000160:	00301c63          	bne	zero,gp,80000178 <pass>

0000000080000164 <fail>:
    80000164:	0ff0000f          	fence
    80000168:	00018063          	beqz	gp,80000168 <fail+0x4>
    8000016c:	00119193          	slli	gp,gp,0x1
    80000170:	0011e193          	ori	gp,gp,1
    80000174:	ecdff06f          	j	80000040 <write_tohost>

0000000080000178 <pass>:
    80000178:	0ff0000f          	fence
    8000017c:	00100193          	li	gp,1
    80000180:	ec1ff06f          	j	80000040 <write_tohost>
    80000184:	c0001073          	unimp
	...

./rv64ud-p-move:     file format elf64-littleriscv


Disassembly of section .text.init:

0000000080000000 <_start>:
    80000000:	04c0006f          	j	8000004c <reset_vector>

0000000080000004 <trap_vector>:
    80000004:	34202f73          	csrr	t5,mcause
    80000008:	00800f93          	li	t6,8
    8000000c:	03ff0a63          	beq	t5,t6,80000040 <write_tohost>
    80000010:	00900f93          	li	t6,9
    80000014:	03ff0663          	beq	t5,t6,80000040 <write_tohost>
    80000018:	00b00f93          	li	t6,11
    8000001c:	03ff0263          	beq	t5,t6,80000040 <write_tohost>
    80000020:	80000f17          	auipc	t5,0x80000
    80000024:	fe0f0f13          	addi	t5,t5,-32 # 0 <_start-0x80000000>
    80000028:	000f0463          	beqz	t5,80000030 <trap_vector+0x2c>
    8000002c:	000f0067          	jr	t5
    80000030:	34202f73          	csrr	t5,mcause
    80000034:	000f5463          	bgez	t5,8000003c <handle_exception>
    80000038:	0040006f          	j	8000003c <handle_exception>

000000008000003c <handle_exception>:
    8000003c:	5391e193          	ori	gp,gp,1337

0000000080000040 <write_tohost>:
    80000040:	00001f17          	auipc	t5,0x1
    80000044:	fc3f2023          	sw	gp,-64(t5) # 80001000 <tohost>
    80000048:	ff9ff06f          	j	80000040 <write_tohost>

000000008000004c <reset_vector>:
    8000004c:	f1402573          	csrr	a0,mhartid
    80000050:	00051063          	bnez	a0,80000050 <reset_vector+0x4>
    80000054:	00000297          	auipc	t0,0x0
    80000058:	01028293          	addi	t0,t0,16 # 80000064 <reset_vector+0x18>
    8000005c:	30529073          	csrw	mtvec,t0
    80000060:	18005073          	csrwi	satp,0
    80000064:	00000193          	li	gp,0
    80000068:	00000297          	auipc	t0,0x0
    8000006c:	f9c28293          	addi	t0,t0,-100 # 80000004 <trap_vector>
    80000070:	30529073          	csrw	mtvec,t0
    80000074:	00100513          	li	a0,1
    80000078:	01f51513          	slli	a0,a0,0x1f
    8000007c:	00055863          	bgez	a0,8000008c <reset_vector+0x40>
    80000080:	0ff0000f          	fence
    80000084:	00100193          	li	gp,1
    80000088:	fb9ff06f          	j	80000040 <write_tohost>
    8000008c:	00002537          	lui	a0,0x2
    80000090:	30052073          	csrs	mstatus,a0
    80000094:	00305073          	csrwi	fcsr,0
    80000098:	00000297          	auipc	t0,0x0
    8000009c:	01428293          	addi	t0,t0,20 # 800000ac <test_10>
    800000a0:	34129073          	csrw	mepc,t0
    800000a4:	f1402573          	csrr	a0,mhartid
    800000a8:	00028067          	jr	t0

00000000800000ac <test_10>:
    800000ac:	002475b7          	lui	a1,0x247
    800000b0:	8ad5859b          	addiw	a1,a1,-1875
    800000b4:	00e59593          	slli	a1,a1,0xe
    800000b8:	c4d58593          	addi	a1,a1,-947 # 246c4d <_start-0x7fdb93b3>
    800000bc:	00c59593          	slli	a1,a1,0xc
    800000c0:	5e758593          	addi	a1,a1,1511
    800000c4:	00d59593          	slli	a1,a1,0xd
    800000c8:	ef058593          	addi	a1,a1,-272
    800000cc:	00000613          	li	a2,0
    800000d0:	f20580d3          	fmv.d.x	ft1,a1
    800000d4:	f2060153          	fmv.d.x	ft2,a2
    800000d8:	22208053          	fsgnj.d	ft0,ft1,ft2
    800000dc:	e2000553          	fmv.x.d	a0,ft0
    800000e0:	00247eb7          	lui	t4,0x247
    800000e4:	8ade8e9b          	addiw	t4,t4,-1875
    800000e8:	00ee9e93          	slli	t4,t4,0xe
    800000ec:	c4de8e93          	addi	t4,t4,-947 # 246c4d <_start-0x7fdb93b3>
    800000f0:	00ce9e93          	slli	t4,t4,0xc
    800000f4:	5e7e8e93          	addi	t4,t4,1511
    800000f8:	00de9e93          	slli	t4,t4,0xd
    800000fc:	ef0e8e93          	addi	t4,t4,-272
    80000100:	00a00193          	li	gp,10
    80000104:	69d512e3          	bne	a0,t4,80000f88 <fail>

0000000080000108 <test_11>:
    80000108:	002475b7          	lui	a1,0x247
    8000010c:	8ad5859b          	addiw	a1,a1,-1875
    80000110:	00e59593          	slli	a1,a1,0xe
    80000114:	c4d58593          	addi	a1,a1,-947 # 246c4d <_start-0x7fdb93b3>
    80000118:	00c59593          	slli	a1,a1,0xc
    8000011c:	5e758593          	addi	a1,a1,1511
    80000120:	00d59593          	slli	a1,a1,0xd
    80000124:	ef058593          	addi	a1,a1,-272
    80000128:	fff00613          	li	a2,-1
    8000012c:	f20580d3          	fmv.d.x	ft1,a1
    80000130:	f2060153          	fmv.d.x	ft2,a2
    80000134:	22208053          	fsgnj.d	ft0,ft1,ft2
    80000138:	e2000553          	fmv.x.d	a0,ft0
    8000013c:	ff247eb7          	lui	t4,0xff247
    80000140:	8ade8e9b          	addiw	t4,t4,-1875
    80000144:	00ee9e93          	slli	t4,t4,0xe
    80000148:	c4de8e93          	addi	t4,t4,-947 # ffffffffff246c4d <_end+0xffffffff7f244c4d>
    8000014c:	00ce9e93          	slli	t4,t4,0xc
    80000150:	5e7e8e93          	addi	t4,t4,1511
    80000154:	00de9e93          	slli	t4,t4,0xd
    80000158:	ef0e8e93          	addi	t4,t4,-272
    8000015c:	00b00193          	li	gp,11
    80000160:	63d514e3          	bne	a0,t4,80000f88 <fail>

0000000080000164 <test_12>:
    80000164:	ff2475b7          	lui	a1,0xff247
    80000168:	8ad5859b          	addiw	a1,a1,-1875
    8000016c:	00e59593          	slli	a1,a1,0xe
    80000170:	c4d58593          	addi	a1,a1,-947 # ffffffffff246c4d <_end+0xffffffff7f244c4d>
    80000174:	00c59593          	slli	a1,a1,0xc
    80000178:	5e758593          	addi	a1,a1,1511
    8000017c:	00d59593          	slli	a1,a1,0xd
    80000180:	ef058593          	addi	a1,a1,-272
    80000184:	00000613          	li	a2,0
    80000188:	f20580d3          	fmv.d.x	ft1,a1
    8000018c:	f2060153          	fmv.d.x	ft2,a2
    80000190:	22208053          	fsgnj.d	ft0,ft1,ft2
    80000194:	e2000553          	fmv.x.d	a0,ft0
    80000198:	00247eb7          	lui	t4,0x247
    8000019c:	8ade8e9b          	addiw	t4,t4,-1875
    800001a0:	00ee9e93          	slli	t4,t4,0xe
    800001a4:	c4de8e93          	addi	t4,t4,-947 # 246c4d <_start-0x7fdb93b3>
    800001a8:	00ce9e93          	slli	t4,t4,0xc
    800001ac:	5e7e8e93          	addi	t4,t4,1511
    800001b0:	00de9e93          	slli	t4,t4,0xd
    800001b4:	ef0e8e93          	addi	t4,t4,-272
    800001b8:	00c00193          	li	gp,12
    800001bc:	5dd516e3          	bne	a0,t4,80000f88 <fail>

00000000800001c0 <test_13>:
    800001c0:	ff2475b7          	lui	a1,0xff247
    800001c4:	8ad5859b          	addiw	a1,a1,-1875
    800001c8:	00e59593          	slli	a1,a1,0xe
    800001cc:	c4d58593          	addi	a1,a1,-947 # ffffffffff246c4d <_end+0xffffffff7f244c4d>
    800001d0:	00c59593          	slli	a1,a1,0xc
    800001d4:	5e758593          	addi	a1,a1,1511
    800001d8:	00d59593          	slli	a1,a1,0xd
    800001dc:	ef058593          	addi	a1,a1,-272
    800001e0:	fff00613          	li	a2,-1
    800001e4:	f20580d3          	fmv.d.x	ft1,a1
    800001e8:	f2060153          	fmv.d.x	ft2,a2
    800001ec:	22208053          	fsgnj.d	ft0,ft1,ft2
    800001f0:	e2000553          	fmv.x.d	a0,ft0
    800001f4:	ff247eb7          	lui	t4,0xff247
    800001f8:	8ade8e9b          	addiw	t4,t4,-1875
    800001fc:	00ee9e93          	slli	t4,t4,0xe
    80000200:	c4de8e93          	addi	t4,t4,-947 # ffffffffff246c4d <_end+0xffffffff7f244c4d>
    80000204:	00ce9e93          	slli	t4,t4,0xc
    80000208:	5e7e8e93          	addi	t4,t4,1511
    8000020c:	00de9e93          	slli	t4,t4,0xd
    80000210:	ef0e8e93          	addi	t4,t4,-272
    80000214:	00d00193          	li	gp,13
    80000218:	57d518e3          	bne	a0,t4,80000f88 <fail>

000000008000021c <test_20>:
    8000021c:	002475b7          	lui	a1,0x247
    80000220:	8ad5859b          	addiw	a1,a1,-1875
    80000224:	00e59593          	slli	a1,a1,0xe
    80000228:	c4d58593          	addi	a1,a1,-947 # 246c4d <_start-0x7fdb93b3>
    8000022c:	00c59593          	slli	a1,a1,0xc
    80000230:	5e758593          	addi	a1,a1,1511
    80000234:	00d59593          	slli	a1,a1,0xd
    80000238:	ef058593          	addi	a1,a1,-272
    8000023c:	00000613          	li	a2,0
    80000240:	f20580d3          	fmv.d.x	ft1,a1
    80000244:	f2060153          	fmv.d.x	ft2,a2
    80000248:	22209053          	fsgnjn.d	ft0,ft1,ft2
    8000024c:	e2000553          	fmv.x.d	a0,ft0
    80000250:	ff247eb7          	lui	t4,0xff247
    80000254:	8ade8e9b          	addiw	t4,t4,-1875
    80000258:	00ee9e93          	slli	t4,t4,0xe
    8000025c:	c4de8e93          	addi	t4,t4,-947 # ffffffffff246c4d <_end+0xffffffff7f244c4d>
    80000260:	00ce9e93          	slli	t4,t4,0xc
    80000264:	5e7e8e93          	addi	t4,t4,1511
    80000268:	00de9e93          	slli	t4,t4,0xd
    8000026c:	ef0e8e93          	addi	t4,t4,-272
    80000270:	01400193          	li	gp,20
    80000274:	51d51ae3          	bne	a0,t4,80000f88 <fail>

0000000080000278 <test_21>:
    80000278:	002475b7          	lui	a1,0x247
    8000027c:	8ad5859b          	addiw	a1,a1,-1875
    80000280:	00e59593          	slli	a1,a1,0xe
    80000284:	c4d58593          	addi	a1,a1,-947 # 246c4d <_start-0x7fdb93b3>
    80000288:	00c59593          	slli	a1,a1,0xc
    8000028c:	5e758593          	addi	a1,a1,1511
    80000290:	00d59593          	slli	a1,a1,0xd
    80000294:	ef058593          	addi	a1,a1,-272
    80000298:	fff00613          	li	a2,-1
    8000029c:	f20580d3          	fmv.d.x	ft1,a1
    800002a0:	f2060153          	fmv.d.x	ft2,a2
    800002a4:	22209053          	fsgnjn.d	ft0,ft1,ft2
    800002a8:	e2000553          	fmv.x.d	a0,ft0
    800002ac:	00247eb7          	lui	t4,0x247
    800002b0:	8ade8e9b          	addiw	t4,t4,-1875
    800002b4:	00ee9e93          	slli	t4,t4,0xe
    800002b8:	c4de8e93          	addi	t4,t4,-947 # 246c4d <_start-0x7fdb93b3>
    800002bc:	00ce9e93          	slli	t4,t4,0xc
    800002c0:	5e7e8e93          	addi	t4,t4,1511
    800002c4:	00de9e93          	slli	t4,t4,0xd
    800002c8:	ef0e8e93          	addi	t4,t4,-272
    800002cc:	01500193          	li	gp,21
    800002d0:	4bd51ce3          	bne	a0,t4,80000f88 <fail>

00000000800002d4 <test_22>:
    800002d4:	ff2475b7          	lui	a1,0xff247
    800002d8:	8ad5859b          	addiw	a1,a1,-1875
    800002dc:	00e59593          	slli	a1,a1,0xe
    800002e0:	c4d58593          	addi	a1,a1,-947 # ffffffffff246c4d <_end+0xffffffff7f244c4d>
    800002e4:	00c59593          	slli	a1,a1,0xc
    800002e8:	5e758593          	addi	a1,a1,1511
    800002ec:	00d59593          	slli	a1,a1,0xd
    800002f0:	ef058593          	addi	a1,a1,-272
    800002f4:	00000613          	li	a2,0
    800002f8:	f20580d3          	fmv.d.x	ft1,a1
    800002fc:	f2060153          	fmv.d.x	ft2,a2
    80000300:	22209053          	fsgnjn.d	ft0,ft1,ft2
    80000304:	e2000553          	fmv.x.d	a0,ft0
    80000308:	ff247eb7          	lui	t4,0xff247
    8000030c:	8ade8e9b          	addiw	t4,t4,-1875
    80000310:	00ee9e93          	slli	t4,t4,0xe
    80000314:	c4de8e93          	addi	t4,t4,-947 # ffffffffff246c4d <_end+0xffffffff7f244c4d>
    80000318:	00ce9e93          	slli	t4,t4,0xc
    8000031c:	5e7e8e93          	addi	t4,t4,1511
    80000320:	00de9e93          	slli	t4,t4,0xd
    80000324:	ef0e8e93          	addi	t4,t4,-272
    80000328:	01600193          	li	gp,22
    8000032c:	45d51ee3          	bne	a0,t4,80000f88 <fail>

0000000080000330 <test_23>:
    80000330:	ff2475b7          	lui	a1,0xff247
    80000334:	8ad5859b          	addiw	a1,a1,-1875
    80000338:	00e59593          	slli	a1,a1,0xe
    8000033c:	c4d58593          	addi	a1,a1,-947 # ffffffffff246c4d <_end+0xffffffff7f244c4d>
    80000340:	00c59593          	slli	a1,a1,0xc
    80000344:	5e758593          	addi	a1,a1,1511
    80000348:	00d59593          	slli	a1,a1,0xd
    8000034c:	ef058593          	addi	a1,a1,-272
    80000350:	fff00613          	li	a2,-1
    80000354:	f20580d3          	fmv.d.x	ft1,a1
    80000358:	f2060153          	fmv.d.x	ft2,a2
    8000035c:	22209053          	fsgnjn.d	ft0,ft1,ft2
    80000360:	e2000553          	fmv.x.d	a0,ft0
    80000364:	00247eb7          	lui	t4,0x247
    80000368:	8ade8e9b          	addiw	t4,t4,-1875
    8000036c:	00ee9e93          	slli	t4,t4,0xe
    80000370:	c4de8e93          	addi	t4,t4,-947 # 246c4d <_start-0x7fdb93b3>
    80000374:	00ce9e93          	slli	t4,t4,0xc
    80000378:	5e7e8e93          	addi	t4,t4,1511
    8000037c:	00de9e93          	slli	t4,t4,0xd
    80000380:	ef0e8e93          	addi	t4,t4,-272
    80000384:	01700193          	li	gp,23
    80000388:	41d510e3          	bne	a0,t4,80000f88 <fail>

000000008000038c <test_30>:
    8000038c:	002475b7          	lui	a1,0x247
    80000390:	8ad5859b          	addiw	a1,a1,-1875
    80000394:	00e59593          	slli	a1,a1,0xe
    80000398:	c4d58593          	addi	a1,a1,-947 # 246c4d <_start-0x7fdb93b3>
    8000039c:	00c59593          	slli	a1,a1,0xc
    800003a0:	5e758593          	addi	a1,a1,1511
    800003a4:	00d59593          	slli	a1,a1,0xd
    800003a8:	ef058593          	addi	a1,a1,-272
    800003ac:	00000613          	li	a2,0
    800003b0:	f20580d3          	fmv.d.x	ft1,a1
    800003b4:	f2060153          	fmv.d.x	ft2,a2
    800003b8:	2220a053          	fsgnjx.d	ft0,ft1,ft2
    800003bc:	e2000553          	fmv.x.d	a0,ft0
    800003c0:	00247eb7          	lui	t4,0x247
    800003c4:	8ade8e9b          	addiw	t4,t4,-1875
    800003c8:	00ee9e93          	slli	t4,t4,0xe
    800003cc:	c4de8e93          	addi	t4,t4,-947 # 246c4d <_start-0x7fdb93b3>
    800003d0:	00ce9e93          	slli	t4,t4,0xc
    800003d4:	5e7e8e93          	addi	t4,t4,1511
    800003d8:	00de9e93          	slli	t4,t4,0xd
    800003dc:	ef0e8e93          	addi	t4,t4,-272
    800003e0:	01e00193          	li	gp,30
    800003e4:	3bd512e3          	bne	a0,t4,80000f88 <fail>

00000000800003e8 <test_31>:
    800003e8:	002475b7          	lui	a1,0x247
    800003ec:	8ad5859b          	addiw	a1,a1,-1875
    800003f0:	00e59593          	slli	a1,a1,0xe
    800003f4:	c4d58593          	addi	a1,a1,-947 # 246c4d <_start-0x7fdb93b3>
    800003f8:	00c59593          	slli	a1,a1,0xc
    800003fc:	5e758593          	addi	a1,a1,1511
    80000400:	00d59593          	slli	a1,a1,0xd
    80000404:	ef058593          	addi	a1,a1,-272
    80000408:	fff00613          	li	a2,-1
    8000040c:	f20580d3          	fmv.d.x	ft1,a1
    80000410:	f2060153          	fmv.d.x	ft2,a2
    80000414:	2220a053          	fsgnjx.d	ft0,ft1,ft2
    80000418:	e2000553          	fmv.x.d	a0,ft0
    8000041c:	ff247eb7          	lui	t4,0xff247
    80000420:	8ade8e9b          	addiw	t4,t4,-1875
    80000424:	00ee9e93          	slli	t4,t4,0xe
    80000428:	c4de8e93          	addi	t4,t4,-947 # ffffffffff246c4d <_end+0xffffffff7f244c4d>
    8000042c:	00ce9e93          	slli	t4,t4,0xc
    80000430:	5e7e8e93          	addi	t4,t4,1511
    80000434:	00de9e93          	slli	t4,t4,0xd
    80000438:	ef0e8e93          	addi	t4,t4,-272
    8000043c:	01f00193          	li	gp,31
    80000440:	35d514e3          	bne	a0,t4,80000f88 <fail>

0000000080000444 <test_32>:
    80000444:	ff2475b7          	lui	a1,0xff247
    80000448:	8ad5859b          	addiw	a1,a1,-1875
    8000044c:	00e59593          	slli	a1,a1,0xe
    80000450:	c4d58593          	addi	a1,a1,-947 # ffffffffff246c4d <_end+0xffffffff7f244c4d>
    80000454:	00c59593          	slli	a1,a1,0xc
    80000458:	5e758593          	addi	a1,a1,1511
    8000045c:	00d59593          	slli	a1,a1,0xd
    80000460:	ef058593          	addi	a1,a1,-272
    80000464:	00000613          	li	a2,0
    80000468:	f20580d3          	fmv.d.x	ft1,a1
    8000046c:	f2060153          	fmv.d.x	ft2,a2
    80000470:	2220a053          	fsgnjx.d	ft0,ft1,ft2
    80000474:	e2000553          	fmv.x.d	a0,ft0
    80000478:	ff247eb7          	lui	t4,0xff247
    8000047c:	8ade8e9b          	addiw	t4,t4,-1875
    80000480:	00ee9e93          	slli	t4,t4,0xe
    80000484:	c4de8e93          	addi	t4,t4,-947 # ffffffffff246c4d <_end+0xffffffff7f244c4d>
    80000488:	00ce9e93          	slli	t4,t4,0xc
    8000048c:	5e7e8e93          	addi	t4,t4,1511
    80000490:	00de9e93          	slli	t4,t4,0xd
    80000494:	ef0e8e93          	addi	t4,t4,-272
    80000498:	02000193          	li	gp,32
    8000049c:	2fd516e3          	bne	a0,t4,80000f88 <fail>

00000000800004a0 <test_33>:
    800004a0:	ff2475b7          	lui	a1,0xff247
    800004a4:	8ad5859b          	addiw	a1,a1,-1875
    800004a8:	00e59593          	slli	a1,a1,0xe
    800004ac:	c4d58593          	addi	a1,a1,-947 # ffffffffff246c4d <_end+0xffffffff7f244c4d>
    800004b0:	00c59593          	slli	a1,a1,0xc
    800004b4:	5e758593          	addi	a1,a1,1511
    800004b8:	00d59593          	slli	a1,a1,0xd
    800004bc:	ef058593          	addi	a1,a1,-272
    800004c0:	fff00613          	li	a2,-1
    800004c4:	f20580d3          	fmv.d.x	ft1,a1
    800004c8:	f2060153          	fmv.d.x	ft2,a2
    800004cc:	2220a053          	fsgnjx.d	ft0,ft1,ft2
    800004d0:	e2000553          	fmv.x.d	a0,ft0
    800004d4:	00247eb7          	lui	t4,0x247
    800004d8:	8ade8e9b          	addiw	t4,t4,-1875
    800004dc:	00ee9e93          	slli	t4,t4,0xe
    800004e0:	c4de8e93          	addi	t4,t4,-947 # 246c4d <_start-0x7fdb93b3>
    800004e4:	00ce9e93          	slli	t4,t4,0xc
    800004e8:	5e7e8e93          	addi	t4,t4,1511
    800004ec:	00de9e93          	slli	t4,t4,0xd
    800004f0:	ef0e8e93          	addi	t4,t4,-272
    800004f4:	02100193          	li	gp,33
    800004f8:	29d518e3          	bne	a0,t4,80000f88 <fail>

00000000800004fc <test_40>:
    800004fc:	0010059b          	addiw	a1,zero,1
    80000500:	02659593          	slli	a1,a1,0x26
    80000504:	f0958593          	addi	a1,a1,-247
    80000508:	00d59593          	slli	a1,a1,0xd
    8000050c:	34558593          	addi	a1,a1,837
    80000510:	00c59593          	slli	a1,a1,0xc
    80000514:	67858593          	addi	a1,a1,1656
    80000518:	00000613          	li	a2,0
    8000051c:	f20580d3          	fmv.d.x	ft1,a1
    80000520:	f2060153          	fmv.d.x	ft2,a2
    80000524:	20208053          	fsgnj.s	ft0,ft1,ft2
    80000528:	e0000553          	fmv.x.w	a0,ft0
    8000052c:	7fc00eb7          	lui	t4,0x7fc00
    80000530:	02800193          	li	gp,40
    80000534:	25d51ae3          	bne	a0,t4,80000f88 <fail>

0000000080000538 <test_140>:
    80000538:	0010059b          	addiw	a1,zero,1
    8000053c:	02659593          	slli	a1,a1,0x26
    80000540:	f0958593          	addi	a1,a1,-247
    80000544:	00d59593          	slli	a1,a1,0xd
    80000548:	34558593          	addi	a1,a1,837
    8000054c:	00c59593          	slli	a1,a1,0xc
    80000550:	67858593          	addi	a1,a1,1656
    80000554:	00000613          	li	a2,0
    80000558:	f20580d3          	fmv.d.x	ft1,a1
    8000055c:	f2060153          	fmv.d.x	ft2,a2
    80000560:	20208053          	fsgnj.s	ft0,ft1,ft2
    80000564:	e2000553          	fmv.x.d	a0,ft0
    80000568:	dff00e9b          	addiw	t4,zero,-513
    8000056c:	016e9e93          	slli	t4,t4,0x16
    80000570:	08c00193          	li	gp,140
    80000574:	21d51ae3          	bne	a0,t4,80000f88 <fail>

0000000080000578 <test_41>:
    80000578:	ffe125b7          	lui	a1,0xffe12
    8000057c:	3455859b          	addiw	a1,a1,837
    80000580:	00c59593          	slli	a1,a1,0xc
    80000584:	67858593          	addi	a1,a1,1656 # ffffffffffe12678 <_end+0xffffffff7fe10678>
    80000588:	00000613          	li	a2,0
    8000058c:	f20580d3          	fmv.d.x	ft1,a1
    80000590:	f2060153          	fmv.d.x	ft2,a2
    80000594:	20208053          	fsgnj.s	ft0,ft1,ft2
    80000598:	e0000553          	fmv.x.w	a0,ft0
    8000059c:	7fc00eb7          	lui	t4,0x7fc00
    800005a0:	02900193          	li	gp,41
    800005a4:	1fd512e3          	bne	a0,t4,80000f88 <fail>

00000000800005a8 <test_141>:
    800005a8:	ffe125b7          	lui	a1,0xffe12
    800005ac:	3455859b          	addiw	a1,a1,837
    800005b0:	00c59593          	slli	a1,a1,0xc
    800005b4:	67858593          	addi	a1,a1,1656 # ffffffffffe12678 <_end+0xffffffff7fe10678>
    800005b8:	00000613          	li	a2,0
    800005bc:	f20580d3          	fmv.d.x	ft1,a1
    800005c0:	f2060153          	fmv.d.x	ft2,a2
    800005c4:	20208053          	fsgnj.s	ft0,ft1,ft2
    800005c8:	e2000553          	fmv.x.d	a0,ft0
    800005cc:	dff00e9b          	addiw	t4,zero,-513
    800005d0:	016e9e93          	slli	t4,t4,0x16
    800005d4:	08d00193          	li	gp,141
    800005d8:	1bd518e3          	bne	a0,t4,80000f88 <fail>

00000000800005dc <test_42>:
    800005dc:	0010059b          	addiw	a1,zero,1
    800005e0:	02659593          	slli	a1,a1,0x26
    800005e4:	f8958593          	addi	a1,a1,-119
    800005e8:	00d59593          	slli	a1,a1,0xd
    800005ec:	34558593          	addi	a1,a1,837
    800005f0:	00c59593          	slli	a1,a1,0xc
    800005f4:	67858593          	addi	a1,a1,1656
    800005f8:	00000613          	li	a2,0
    800005fc:	f20580d3          	fmv.d.x	ft1,a1
    80000600:	f2060153          	fmv.d.x	ft2,a2
    80000604:	20208053          	fsgnj.s	ft0,ft1,ft2
    80000608:	e0000553          	fmv.x.w	a0,ft0
    8000060c:	7fc00eb7          	lui	t4,0x7fc00
    80000610:	02a00193          	li	gp,42
    80000614:	17d51ae3          	bne	a0,t4,80000f88 <fail>

0000000080000618 <test_142>:
    80000618:	0010059b          	addiw	a1,zero,1
    8000061c:	02659593          	slli	a1,a1,0x26
    80000620:	f8958593          	addi	a1,a1,-119
    80000624:	00d59593          	slli	a1,a1,0xd
    80000628:	34558593          	addi	a1,a1,837
    8000062c:	00c59593          	slli	a1,a1,0xc
    80000630:	67858593          	addi	a1,a1,1656
    80000634:	00000613          	li	a2,0
    80000638:	f20580d3          	fmv.d.x	ft1,a1
    8000063c:	f2060153          	fmv.d.x	ft2,a2
    80000640:	20208053          	fsgnj.s	ft0,ft1,ft2
    80000644:	e2000553          	fmv.x.d	a0,ft0
    80000648:	dff00e9b          	addiw	t4,zero,-513
    8000064c:	016e9e93          	slli	t4,t4,0x16
    80000650:	08e00193          	li	gp,142
    80000654:	13d51ae3          	bne	a0,t4,80000f88 <fail>

0000000080000658 <test_43>:
    80000658:	fff125b7          	lui	a1,0xfff12
    8000065c:	3455859b          	addiw	a1,a1,837
    80000660:	00c59593          	slli	a1,a1,0xc
    80000664:	67858593          	addi	a1,a1,1656 # fffffffffff12678 <_end+0xffffffff7ff10678>
    80000668:	00000613          	li	a2,0
    8000066c:	f20580d3          	fmv.d.x	ft1,a1
    80000670:	f2060153          	fmv.d.x	ft2,a2
    80000674:	20208053          	fsgnj.s	ft0,ft1,ft2
    80000678:	e0000553          	fmv.x.w	a0,ft0
    8000067c:	12345eb7          	lui	t4,0x12345
    80000680:	678e8e9b          	addiw	t4,t4,1656
    80000684:	02b00193          	li	gp,43
    80000688:	11d510e3          	bne	a0,t4,80000f88 <fail>

000000008000068c <test_143>:
    8000068c:	fff125b7          	lui	a1,0xfff12
    80000690:	3455859b          	addiw	a1,a1,837
    80000694:	00c59593          	slli	a1,a1,0xc
    80000698:	67858593          	addi	a1,a1,1656 # fffffffffff12678 <_end+0xffffffff7ff10678>
    8000069c:	00000613          	li	a2,0
    800006a0:	f20580d3          	fmv.d.x	ft1,a1
    800006a4:	f2060153          	fmv.d.x	ft2,a2
    800006a8:	20208053          	fsgnj.s	ft0,ft1,ft2
    800006ac:	e2000553          	fmv.x.d	a0,ft0
    800006b0:	fff12eb7          	lui	t4,0xfff12
    800006b4:	345e8e9b          	addiw	t4,t4,837
    800006b8:	00ce9e93          	slli	t4,t4,0xc
    800006bc:	678e8e93          	addi	t4,t4,1656 # fffffffffff12678 <_end+0xffffffff7ff10678>
    800006c0:	08f00193          	li	gp,143
    800006c4:	0dd512e3          	bne	a0,t4,80000f88 <fail>

00000000800006c8 <test_50>:
    800006c8:	0010059b          	addiw	a1,zero,1
    800006cc:	02659593          	slli	a1,a1,0x26
    800006d0:	f0958593          	addi	a1,a1,-247
    800006d4:	00d59593          	slli	a1,a1,0xd
    800006d8:	34558593          	addi	a1,a1,837
    800006dc:	00c59593          	slli	a1,a1,0xc
    800006e0:	67858593          	addi	a1,a1,1656
    800006e4:	0010061b          	addiw	a2,zero,1
    800006e8:	01f61613          	slli	a2,a2,0x1f
    800006ec:	f20580d3          	fmv.d.x	ft1,a1
    800006f0:	f2060153          	fmv.d.x	ft2,a2
    800006f4:	20208053          	fsgnj.s	ft0,ft1,ft2
    800006f8:	e0000553          	fmv.x.w	a0,ft0
    800006fc:	7fc00eb7          	lui	t4,0x7fc00
    80000700:	03200193          	li	gp,50
    80000704:	09d512e3          	bne	a0,t4,80000f88 <fail>

0000000080000708 <test_150>:
    80000708:	0010059b          	addiw	a1,zero,1
    8000070c:	02659593          	slli	a1,a1,0x26
    80000710:	f0958593          	addi	a1,a1,-247
    80000714:	00d59593          	slli	a1,a1,0xd
    80000718:	34558593          	addi	a1,a1,837
    8000071c:	00c59593          	slli	a1,a1,0xc
    80000720:	67858593          	addi	a1,a1,1656
    80000724:	0010061b          	addiw	a2,zero,1
    80000728:	01f61613          	slli	a2,a2,0x1f
    8000072c:	f20580d3          	fmv.d.x	ft1,a1
    80000730:	f2060153          	fmv.d.x	ft2,a2
    80000734:	20208053          	fsgnj.s	ft0,ft1,ft2
    80000738:	e2000553          	fmv.x.d	a0,ft0
    8000073c:	dff00e9b          	addiw	t4,zero,-513
    80000740:	016e9e93          	slli	t4,t4,0x16
    80000744:	09600193          	li	gp,150
    80000748:	05d510e3          	bne	a0,t4,80000f88 <fail>

000000008000074c <test_51>:
    8000074c:	ffe125b7          	lui	a1,0xffe12
    80000750:	3455859b          	addiw	a1,a1,837
    80000754:	00c59593          	slli	a1,a1,0xc
    80000758:	67858593          	addi	a1,a1,1656 # ffffffffffe12678 <_end+0xffffffff7fe10678>
    8000075c:	0010061b          	addiw	a2,zero,1
    80000760:	01f61613          	slli	a2,a2,0x1f
    80000764:	f20580d3          	fmv.d.x	ft1,a1
    80000768:	f2060153          	fmv.d.x	ft2,a2
    8000076c:	20208053          	fsgnj.s	ft0,ft1,ft2
    80000770:	e0000553          	fmv.x.w	a0,ft0
    80000774:	7fc00eb7          	lui	t4,0x7fc00
    80000778:	03300193          	li	gp,51
    8000077c:	01d516e3          	bne	a0,t4,80000f88 <fail>

0000000080000780 <test_151>:
    80000780:	ffe125b7          	lui	a1,0xffe12
    80000784:	3455859b          	addiw	a1,a1,837
    80000788:	00c59593          	slli	a1,a1,0xc
    8000078c:	67858593          	addi	a1,a1,1656 # ffffffffffe12678 <_end+0xffffffff7fe10678>
    80000790:	0010061b          	addiw	a2,zero,1
    80000794:	01f61613          	slli	a2,a2,0x1f
    80000798:	f20580d3          	fmv.d.x	ft1,a1
    8000079c:	f2060153          	fmv.d.x	ft2,a2
    800007a0:	20208053          	fsgnj.s	ft0,ft1,ft2
    800007a4:	e2000553          	fmv.x.d	a0,ft0
    800007a8:	dff00e9b          	addiw	t4,zero,-513
    800007ac:	016e9e93          	slli	t4,t4,0x16
    800007b0:	09700193          	li	gp,151
    800007b4:	7dd51a63          	bne	a0,t4,80000f88 <fail>

00000000800007b8 <test_52>:
    800007b8:	0010059b          	addiw	a1,zero,1
    800007bc:	02659593          	slli	a1,a1,0x26
    800007c0:	f8958593          	addi	a1,a1,-119
    800007c4:	00d59593          	slli	a1,a1,0xd
    800007c8:	34558593          	addi	a1,a1,837
    800007cc:	00c59593          	slli	a1,a1,0xc
    800007d0:	67858593          	addi	a1,a1,1656
    800007d4:	0010061b          	addiw	a2,zero,1
    800007d8:	01f61613          	slli	a2,a2,0x1f
    800007dc:	f20580d3          	fmv.d.x	ft1,a1
    800007e0:	f2060153          	fmv.d.x	ft2,a2
    800007e4:	20208053          	fsgnj.s	ft0,ft1,ft2
    800007e8:	e0000553          	fmv.x.w	a0,ft0
    800007ec:	7fc00eb7          	lui	t4,0x7fc00
    800007f0:	03400193          	li	gp,52
    800007f4:	79d51a63          	bne	a0,t4,80000f88 <fail>

00000000800007f8 <test_152>:
    800007f8:	0010059b          	addiw	a1,zero,1
    800007fc:	02659593          	slli	a1,a1,0x26
    80000800:	f8958593          	addi	a1,a1,-119
    80000804:	00d59593          	slli	a1,a1,0xd
    80000808:	34558593          	addi	a1,a1,837
    8000080c:	00c59593          	slli	a1,a1,0xc
    80000810:	67858593          	addi	a1,a1,1656
    80000814:	0010061b          	addiw	a2,zero,1
    80000818:	01f61613          	slli	a2,a2,0x1f
    8000081c:	f20580d3          	fmv.d.x	ft1,a1
    80000820:	f2060153          	fmv.d.x	ft2,a2
    80000824:	20208053          	fsgnj.s	ft0,ft1,ft2
    80000828:	e2000553          	fmv.x.d	a0,ft0
    8000082c:	dff00e9b          	addiw	t4,zero,-513
    80000830:	016e9e93          	slli	t4,t4,0x16
    80000834:	09800193          	li	gp,152
    80000838:	75d51863          	bne	a0,t4,80000f88 <fail>

000000008000083c <test_53>:
    8000083c:	fff125b7          	lui	a1,0xfff12
    80000840:	3455859b          	addiw	a1,a1,837
    80000844:	00c59593          	slli	a1,a1,0xc
    80000848:	67858593          	addi	a1,a1,1656 # fffffffffff12678 <_end+0xffffffff7ff10678>
    8000084c:	0010061b          	addiw	a2,zero,1
    80000850:	01f61613          	slli	a2,a2,0x1f
    80000854:	f20580d3          	fmv.d.x	ft1,a1
    80000858:	f2060153          	fmv.d.x	ft2,a2
    8000085c:	20208053          	fsgnj.s	ft0,ft1,ft2
    80000860:	e0000553          	fmv.x.w	a0,ft0
    80000864:	12345eb7          	lui	t4,0x12345
    80000868:	678e8e9b          	addiw	t4,t4,1656
    8000086c:	03500193          	li	gp,53
    80000870:	71d51c63          	bne	a0,t4,80000f88 <fail>

0000000080000874 <test_153>:
    80000874:	fff125b7          	lui	a1,0xfff12
    80000878:	3455859b          	addiw	a1,a1,837
    8000087c:	00c59593          	slli	a1,a1,0xc
    80000880:	67858593          	addi	a1,a1,1656 # fffffffffff12678 <_end+0xffffffff7ff10678>
    80000884:	0010061b          	addiw	a2,zero,1
    80000888:	01f61613          	slli	a2,a2,0x1f
    8000088c:	f20580d3          	fmv.d.x	ft1,a1
    80000890:	f2060153          	fmv.d.x	ft2,a2
    80000894:	20208053          	fsgnj.s	ft0,ft1,ft2
    80000898:	e2000553          	fmv.x.d	a0,ft0
    8000089c:	fff12eb7          	lui	t4,0xfff12
    800008a0:	345e8e9b          	addiw	t4,t4,837
    800008a4:	00ce9e93          	slli	t4,t4,0xc
    800008a8:	678e8e93          	addi	t4,t4,1656 # fffffffffff12678 <_end+0xffffffff7ff10678>
    800008ac:	09900193          	li	gp,153
    800008b0:	6dd51c63          	bne	a0,t4,80000f88 <fail>

00000000800008b4 <test_60>:
    800008b4:	0010059b          	addiw	a1,zero,1
    800008b8:	02659593          	slli	a1,a1,0x26
    800008bc:	f0958593          	addi	a1,a1,-247
    800008c0:	00d59593          	slli	a1,a1,0xd
    800008c4:	34558593          	addi	a1,a1,837
    800008c8:	00c59593          	slli	a1,a1,0xc
    800008cc:	67858593          	addi	a1,a1,1656
    800008d0:	80000637          	lui	a2,0x80000
    800008d4:	f20580d3          	fmv.d.x	ft1,a1
    800008d8:	f2060153          	fmv.d.x	ft2,a2
    800008dc:	20208053          	fsgnj.s	ft0,ft1,ft2
    800008e0:	e0000553          	fmv.x.w	a0,ft0
    800008e4:	ffc00eb7          	lui	t4,0xffc00
    800008e8:	03c00193          	li	gp,60
    800008ec:	69d51e63          	bne	a0,t4,80000f88 <fail>

00000000800008f0 <test_160>:
    800008f0:	0010059b          	addiw	a1,zero,1
    800008f4:	02659593          	slli	a1,a1,0x26
    800008f8:	f0958593          	addi	a1,a1,-247
    800008fc:	00d59593          	slli	a1,a1,0xd
    80000900:	34558593          	addi	a1,a1,837
    80000904:	00c59593          	slli	a1,a1,0xc
    80000908:	67858593          	addi	a1,a1,1656
    8000090c:	80000637          	lui	a2,0x80000
    80000910:	f20580d3          	fmv.d.x	ft1,a1
    80000914:	f2060153          	fmv.d.x	ft2,a2
    80000918:	20208053          	fsgnj.s	ft0,ft1,ft2
    8000091c:	e2000553          	fmv.x.d	a0,ft0
    80000920:	ffc00eb7          	lui	t4,0xffc00
    80000924:	0a000193          	li	gp,160
    80000928:	67d51063          	bne	a0,t4,80000f88 <fail>

000000008000092c <test_61>:
    8000092c:	ffe125b7          	lui	a1,0xffe12
    80000930:	3455859b          	addiw	a1,a1,837
    80000934:	00c59593          	slli	a1,a1,0xc
    80000938:	67858593          	addi	a1,a1,1656 # ffffffffffe12678 <_end+0xffffffff7fe10678>
    8000093c:	80000637          	lui	a2,0x80000
    80000940:	f20580d3          	fmv.d.x	ft1,a1
    80000944:	f2060153          	fmv.d.x	ft2,a2
    80000948:	20208053          	fsgnj.s	ft0,ft1,ft2
    8000094c:	e0000553          	fmv.x.w	a0,ft0
    80000950:	ffc00eb7          	lui	t4,0xffc00
    80000954:	03d00193          	li	gp,61
    80000958:	63d51863          	bne	a0,t4,80000f88 <fail>

000000008000095c <test_161>:
    8000095c:	ffe125b7          	lui	a1,0xffe12
    80000960:	3455859b          	addiw	a1,a1,837
    80000964:	00c59593          	slli	a1,a1,0xc
    80000968:	67858593          	addi	a1,a1,1656 # ffffffffffe12678 <_end+0xffffffff7fe10678>
    8000096c:	80000637          	lui	a2,0x80000
    80000970:	f20580d3          	fmv.d.x	ft1,a1
    80000974:	f2060153          	fmv.d.x	ft2,a2
    80000978:	20208053          	fsgnj.s	ft0,ft1,ft2
    8000097c:	e2000553          	fmv.x.d	a0,ft0
    80000980:	ffc00eb7          	lui	t4,0xffc00
    80000984:	0a100193          	li	gp,161
    80000988:	61d51063          	bne	a0,t4,80000f88 <fail>

000000008000098c <test_62>:
    8000098c:	fff125b7          	lui	a1,0xfff12
    80000990:	3455859b          	addiw	a1,a1,837
    80000994:	00c59593          	slli	a1,a1,0xc
    80000998:	67858593          	addi	a1,a1,1656 # fffffffffff12678 <_end+0xffffffff7ff10678>
    8000099c:	80000637          	lui	a2,0x80000
    800009a0:	f20580d3          	fmv.d.x	ft1,a1
    800009a4:	f2060153          	fmv.d.x	ft2,a2
    800009a8:	20208053          	fsgnj.s	ft0,ft1,ft2
    800009ac:	e0000553          	fmv.x.w	a0,ft0
    800009b0:	92345eb7          	lui	t4,0x92345
    800009b4:	678e8e9b          	addiw	t4,t4,1656
    800009b8:	03e00193          	li	gp,62
    800009bc:	5dd51663          	bne	a0,t4,80000f88 <fail>

00000000800009c0 <test_162>:
    800009c0:	fff125b7          	lui	a1,0xfff12
    800009c4:	3455859b          	addiw	a1,a1,837
    800009c8:	00c59593          	slli	a1,a1,0xc
    800009cc:	67858593          	addi	a1,a1,1656 # fffffffffff12678 <_end+0xffffffff7ff10678>
    800009d0:	80000637          	lui	a2,0x80000
    800009d4:	f20580d3          	fmv.d.x	ft1,a1
    800009d8:	f2060153          	fmv.d.x	ft2,a2
    800009dc:	20208053          	fsgnj.s	ft0,ft1,ft2
    800009e0:	e2000553          	fmv.x.d	a0,ft0
    800009e4:	92345eb7          	lui	t4,0x92345
    800009e8:	678e8e9b          	addiw	t4,t4,1656
    800009ec:	0a200193          	li	gp,162
    800009f0:	59d51c63          	bne	a0,t4,80000f88 <fail>

00000000800009f4 <test_63>:
    800009f4:	fff125b7          	lui	a1,0xfff12
    800009f8:	3455859b          	addiw	a1,a1,837
    800009fc:	00c59593          	slli	a1,a1,0xc
    80000a00:	67858593          	addi	a1,a1,1656 # fffffffffff12678 <_end+0xffffffff7ff10678>
    80000a04:	0010061b          	addiw	a2,zero,1
    80000a08:	02061613          	slli	a2,a2,0x20
    80000a0c:	fff60613          	addi	a2,a2,-1 # ffffffff7fffffff <_end+0xfffffffeffffdfff>
    80000a10:	01f61613          	slli	a2,a2,0x1f
    80000a14:	f20580d3          	fmv.d.x	ft1,a1
    80000a18:	f2060153          	fmv.d.x	ft2,a2
    80000a1c:	20208053          	fsgnj.s	ft0,ft1,ft2
    80000a20:	e0000553          	fmv.x.w	a0,ft0
    80000a24:	12345eb7          	lui	t4,0x12345
    80000a28:	678e8e9b          	addiw	t4,t4,1656
    80000a2c:	03f00193          	li	gp,63
    80000a30:	55d51c63          	bne	a0,t4,80000f88 <fail>

0000000080000a34 <test_163>:
    80000a34:	fff125b7          	lui	a1,0xfff12
    80000a38:	3455859b          	addiw	a1,a1,837
    80000a3c:	00c59593          	slli	a1,a1,0xc
    80000a40:	67858593          	addi	a1,a1,1656 # fffffffffff12678 <_end+0xffffffff7ff10678>
    80000a44:	0010061b          	addiw	a2,zero,1
    80000a48:	02061613          	slli	a2,a2,0x20
    80000a4c:	fff60613          	addi	a2,a2,-1
    80000a50:	01f61613          	slli	a2,a2,0x1f
    80000a54:	f20580d3          	fmv.d.x	ft1,a1
    80000a58:	f2060153          	fmv.d.x	ft2,a2
    80000a5c:	20208053          	fsgnj.s	ft0,ft1,ft2
    80000a60:	e2000553          	fmv.x.d	a0,ft0
    80000a64:	fff12eb7          	lui	t4,0xfff12
    80000a68:	345e8e9b          	addiw	t4,t4,837
    80000a6c:	00ce9e93          	slli	t4,t4,0xc
    80000a70:	678e8e93          	addi	t4,t4,1656 # fffffffffff12678 <_end+0xffffffff7ff10678>
    80000a74:	0a300193          	li	gp,163
    80000a78:	51d51863          	bne	a0,t4,80000f88 <fail>

0000000080000a7c <test_70>:
    80000a7c:	fff115b7          	lui	a1,0xfff11
    80000a80:	1115859b          	addiw	a1,a1,273
    80000a84:	00c59593          	slli	a1,a1,0xc
    80000a88:	11158593          	addi	a1,a1,273 # fffffffffff11111 <_end+0xffffffff7ff0f111>
    80000a8c:	fff11637          	lui	a2,0xfff11
    80000a90:	1116061b          	addiw	a2,a2,273
    80000a94:	00c61613          	slli	a2,a2,0xc
    80000a98:	11160613          	addi	a2,a2,273 # fffffffffff11111 <_end+0xffffffff7ff0f111>
    80000a9c:	f20580d3          	fmv.d.x	ft1,a1
    80000aa0:	f2060153          	fmv.d.x	ft2,a2
    80000aa4:	22208053          	fsgnj.d	ft0,ft1,ft2
    80000aa8:	a0002553          	feq.s	a0,ft0,ft0
    80000aac:	fff50513          	addi	a0,a0,-1 # 1fff <_start-0x7fffe001>
    80000ab0:	00051463          	bnez	a0,80000ab8 <test_70+0x3c>
    80000ab4:	e0000553          	fmv.x.w	a0,ft0
    80000ab8:	11111eb7          	lui	t4,0x11111
    80000abc:	111e8e9b          	addiw	t4,t4,273
    80000ac0:	04600193          	li	gp,70
    80000ac4:	4dd51263          	bne	a0,t4,80000f88 <fail>

0000000080000ac8 <test_170>:
    80000ac8:	fff115b7          	lui	a1,0xfff11
    80000acc:	1115859b          	addiw	a1,a1,273
    80000ad0:	00c59593          	slli	a1,a1,0xc
    80000ad4:	11158593          	addi	a1,a1,273 # fffffffffff11111 <_end+0xffffffff7ff0f111>
    80000ad8:	fff11637          	lui	a2,0xfff11
    80000adc:	1116061b          	addiw	a2,a2,273
    80000ae0:	00c61613          	slli	a2,a2,0xc
    80000ae4:	11160613          	addi	a2,a2,273 # fffffffffff11111 <_end+0xffffffff7ff0f111>
    80000ae8:	f20580d3          	fmv.d.x	ft1,a1
    80000aec:	f2060153          	fmv.d.x	ft2,a2
    80000af0:	22208053          	fsgnj.d	ft0,ft1,ft2
    80000af4:	e2000553          	fmv.x.d	a0,ft0
    80000af8:	fff11eb7          	lui	t4,0xfff11
    80000afc:	111e8e9b          	addiw	t4,t4,273
    80000b00:	00ce9e93          	slli	t4,t4,0xc
    80000b04:	111e8e93          	addi	t4,t4,273 # fffffffffff11111 <_end+0xffffffff7ff0f111>
    80000b08:	0aa00193          	li	gp,170
    80000b0c:	47d51e63          	bne	a0,t4,80000f88 <fail>

0000000080000b10 <test_71>:
    80000b10:	fff115b7          	lui	a1,0xfff11
    80000b14:	1115859b          	addiw	a1,a1,273
    80000b18:	00c59593          	slli	a1,a1,0xc
    80000b1c:	11158593          	addi	a1,a1,273 # fffffffffff11111 <_end+0xffffffff7ff0f111>
    80000b20:	0010061b          	addiw	a2,zero,1
    80000b24:	02761613          	slli	a2,a2,0x27
    80000b28:	f1160613          	addi	a2,a2,-239
    80000b2c:	00c61613          	slli	a2,a2,0xc
    80000b30:	11160613          	addi	a2,a2,273
    80000b34:	00c61613          	slli	a2,a2,0xc
    80000b38:	11160613          	addi	a2,a2,273
    80000b3c:	f20580d3          	fmv.d.x	ft1,a1
    80000b40:	f2060153          	fmv.d.x	ft2,a2
    80000b44:	22208053          	fsgnj.d	ft0,ft1,ft2
    80000b48:	a0002553          	feq.s	a0,ft0,ft0
    80000b4c:	00050513          	mv	a0,a0
    80000b50:	00051463          	bnez	a0,80000b58 <test_71+0x48>
    80000b54:	e0000553          	fmv.x.w	a0,ft0
    80000b58:	11111eb7          	lui	t4,0x11111
    80000b5c:	111e8e9b          	addiw	t4,t4,273
    80000b60:	04700193          	li	gp,71
    80000b64:	43d51263          	bne	a0,t4,80000f88 <fail>

0000000080000b68 <test_171>:
    80000b68:	fff115b7          	lui	a1,0xfff11
    80000b6c:	1115859b          	addiw	a1,a1,273
    80000b70:	00c59593          	slli	a1,a1,0xc
    80000b74:	11158593          	addi	a1,a1,273 # fffffffffff11111 <_end+0xffffffff7ff0f111>
    80000b78:	0010061b          	addiw	a2,zero,1
    80000b7c:	02761613          	slli	a2,a2,0x27
    80000b80:	f1160613          	addi	a2,a2,-239
    80000b84:	00c61613          	slli	a2,a2,0xc
    80000b88:	11160613          	addi	a2,a2,273
    80000b8c:	00c61613          	slli	a2,a2,0xc
    80000b90:	11160613          	addi	a2,a2,273
    80000b94:	f20580d3          	fmv.d.x	ft1,a1
    80000b98:	f2060153          	fmv.d.x	ft2,a2
    80000b9c:	22208053          	fsgnj.d	ft0,ft1,ft2
    80000ba0:	e2000553          	fmv.x.d	a0,ft0
    80000ba4:	00100e9b          	addiw	t4,zero,1
    80000ba8:	027e9e93          	slli	t4,t4,0x27
    80000bac:	f11e8e93          	addi	t4,t4,-239 # 11110f11 <_start-0x6eeef0ef>
    80000bb0:	00ce9e93          	slli	t4,t4,0xc
    80000bb4:	111e8e93          	addi	t4,t4,273
    80000bb8:	00ce9e93          	slli	t4,t4,0xc
    80000bbc:	111e8e93          	addi	t4,t4,273
    80000bc0:	0ab00193          	li	gp,171
    80000bc4:	3dd51263          	bne	a0,t4,80000f88 <fail>

0000000080000bc8 <test_72>:
    80000bc8:	fff115b7          	lui	a1,0xfff11
    80000bcc:	1115859b          	addiw	a1,a1,273
    80000bd0:	00c59593          	slli	a1,a1,0xc
    80000bd4:	11158593          	addi	a1,a1,273 # fffffffffff11111 <_end+0xffffffff7ff0f111>
    80000bd8:	91111637          	lui	a2,0x91111
    80000bdc:	1116061b          	addiw	a2,a2,273
    80000be0:	f20580d3          	fmv.d.x	ft1,a1
    80000be4:	f2060153          	fmv.d.x	ft2,a2
    80000be8:	22208053          	fsgnj.d	ft0,ft1,ft2
    80000bec:	a0002553          	feq.s	a0,ft0,ft0
    80000bf0:	fff50513          	addi	a0,a0,-1
    80000bf4:	00051463          	bnez	a0,80000bfc <test_72+0x34>
    80000bf8:	e0000553          	fmv.x.w	a0,ft0
    80000bfc:	11111eb7          	lui	t4,0x11111
    80000c00:	111e8e9b          	addiw	t4,t4,273
    80000c04:	04800193          	li	gp,72
    80000c08:	39d51063          	bne	a0,t4,80000f88 <fail>

0000000080000c0c <test_172>:
    80000c0c:	fff115b7          	lui	a1,0xfff11
    80000c10:	1115859b          	addiw	a1,a1,273
    80000c14:	00c59593          	slli	a1,a1,0xc
    80000c18:	11158593          	addi	a1,a1,273 # fffffffffff11111 <_end+0xffffffff7ff0f111>
    80000c1c:	91111637          	lui	a2,0x91111
    80000c20:	1116061b          	addiw	a2,a2,273
    80000c24:	f20580d3          	fmv.d.x	ft1,a1
    80000c28:	f2060153          	fmv.d.x	ft2,a2
    80000c2c:	22208053          	fsgnj.d	ft0,ft1,ft2
    80000c30:	e2000553          	fmv.x.d	a0,ft0
    80000c34:	fff11eb7          	lui	t4,0xfff11
    80000c38:	111e8e9b          	addiw	t4,t4,273
    80000c3c:	00ce9e93          	slli	t4,t4,0xc
    80000c40:	111e8e93          	addi	t4,t4,273 # fffffffffff11111 <_end+0xffffffff7ff0f111>
    80000c44:	0ac00193          	li	gp,172
    80000c48:	35d51063          	bne	a0,t4,80000f88 <fail>

0000000080000c4c <test_73>:
    80000c4c:	fff115b7          	lui	a1,0xfff11
    80000c50:	1115859b          	addiw	a1,a1,273
    80000c54:	00c59593          	slli	a1,a1,0xc
    80000c58:	11158593          	addi	a1,a1,273 # fffffffffff11111 <_end+0xffffffff7ff0f111>
    80000c5c:	fff0061b          	addiw	a2,zero,-1
    80000c60:	03f61613          	slli	a2,a2,0x3f
    80000c64:	f20580d3          	fmv.d.x	ft1,a1
    80000c68:	f2060153          	fmv.d.x	ft2,a2
    80000c6c:	22208053          	fsgnj.d	ft0,ft1,ft2
    80000c70:	a0002553          	feq.s	a0,ft0,ft0
    80000c74:	fff50513          	addi	a0,a0,-1
    80000c78:	00051463          	bnez	a0,80000c80 <test_73+0x34>
    80000c7c:	e0000553          	fmv.x.w	a0,ft0
    80000c80:	11111eb7          	lui	t4,0x11111
    80000c84:	111e8e9b          	addiw	t4,t4,273
    80000c88:	04900193          	li	gp,73
    80000c8c:	2fd51e63          	bne	a0,t4,80000f88 <fail>

0000000080000c90 <test_173>:
    80000c90:	fff115b7          	lui	a1,0xfff11
    80000c94:	1115859b          	addiw	a1,a1,273
    80000c98:	00c59593          	slli	a1,a1,0xc
    80000c9c:	11158593          	addi	a1,a1,273 # fffffffffff11111 <_end+0xffffffff7ff0f111>
    80000ca0:	fff0061b          	addiw	a2,zero,-1
    80000ca4:	03f61613          	slli	a2,a2,0x3f
    80000ca8:	f20580d3          	fmv.d.x	ft1,a1
    80000cac:	f2060153          	fmv.d.x	ft2,a2
    80000cb0:	22208053          	fsgnj.d	ft0,ft1,ft2
    80000cb4:	e2000553          	fmv.x.d	a0,ft0
    80000cb8:	fff11eb7          	lui	t4,0xfff11
    80000cbc:	111e8e9b          	addiw	t4,t4,273
    80000cc0:	00ce9e93          	slli	t4,t4,0xc
    80000cc4:	111e8e93          	addi	t4,t4,273 # fffffffffff11111 <_end+0xffffffff7ff0f111>
    80000cc8:	0ad00193          	li	gp,173
    80000ccc:	2bd51e63          	bne	a0,t4,80000f88 <fail>

0000000080000cd0 <test_74>:
    80000cd0:	0010059b          	addiw	a1,zero,1
    80000cd4:	02759593          	slli	a1,a1,0x27
    80000cd8:	f1158593          	addi	a1,a1,-239
    80000cdc:	00c59593          	slli	a1,a1,0xc
    80000ce0:	11158593          	addi	a1,a1,273
    80000ce4:	00c59593          	slli	a1,a1,0xc
    80000ce8:	11158593          	addi	a1,a1,273
    80000cec:	fff11637          	lui	a2,0xfff11
    80000cf0:	1116061b          	addiw	a2,a2,273
    80000cf4:	00c61613          	slli	a2,a2,0xc
    80000cf8:	11160613          	addi	a2,a2,273 # fffffffffff11111 <_end+0xffffffff7ff0f111>
    80000cfc:	f20580d3          	fmv.d.x	ft1,a1
    80000d00:	f2060153          	fmv.d.x	ft2,a2
    80000d04:	22208053          	fsgnj.d	ft0,ft1,ft2
    80000d08:	a0002553          	feq.s	a0,ft0,ft0
    80000d0c:	fff50513          	addi	a0,a0,-1
    80000d10:	00051463          	bnez	a0,80000d18 <test_74+0x48>
    80000d14:	e0000553          	fmv.x.w	a0,ft0
    80000d18:	11111eb7          	lui	t4,0x11111
    80000d1c:	111e8e9b          	addiw	t4,t4,273
    80000d20:	04a00193          	li	gp,74
    80000d24:	27d51263          	bne	a0,t4,80000f88 <fail>

0000000080000d28 <test_174>:
    80000d28:	0010059b          	addiw	a1,zero,1
    80000d2c:	02759593          	slli	a1,a1,0x27
    80000d30:	f1158593          	addi	a1,a1,-239
    80000d34:	00c59593          	slli	a1,a1,0xc
    80000d38:	11158593          	addi	a1,a1,273
    80000d3c:	00c59593          	slli	a1,a1,0xc
    80000d40:	11158593          	addi	a1,a1,273
    80000d44:	fff11637          	lui	a2,0xfff11
    80000d48:	1116061b          	addiw	a2,a2,273
    80000d4c:	00c61613          	slli	a2,a2,0xc
    80000d50:	11160613          	addi	a2,a2,273 # fffffffffff11111 <_end+0xffffffff7ff0f111>
    80000d54:	f20580d3          	fmv.d.x	ft1,a1
    80000d58:	f2060153          	fmv.d.x	ft2,a2
    80000d5c:	22208053          	fsgnj.d	ft0,ft1,ft2
    80000d60:	e2000553          	fmv.x.d	a0,ft0
    80000d64:	fff11eb7          	lui	t4,0xfff11
    80000d68:	111e8e9b          	addiw	t4,t4,273
    80000d6c:	00ce9e93          	slli	t4,t4,0xc
    80000d70:	111e8e93          	addi	t4,t4,273 # fffffffffff11111 <_end+0xffffffff7ff0f111>
    80000d74:	0ae00193          	li	gp,174
    80000d78:	21d51863          	bne	a0,t4,80000f88 <fail>

0000000080000d7c <test_75>:
    80000d7c:	0010059b          	addiw	a1,zero,1
    80000d80:	02759593          	slli	a1,a1,0x27
    80000d84:	f1158593          	addi	a1,a1,-239
    80000d88:	00c59593          	slli	a1,a1,0xc
    80000d8c:	11158593          	addi	a1,a1,273
    80000d90:	00c59593          	slli	a1,a1,0xc
    80000d94:	11158593          	addi	a1,a1,273
    80000d98:	0010061b          	addiw	a2,zero,1
    80000d9c:	02761613          	slli	a2,a2,0x27
    80000da0:	f1160613          	addi	a2,a2,-239
    80000da4:	00c61613          	slli	a2,a2,0xc
    80000da8:	11160613          	addi	a2,a2,273
    80000dac:	00c61613          	slli	a2,a2,0xc
    80000db0:	11160613          	addi	a2,a2,273
    80000db4:	f20580d3          	fmv.d.x	ft1,a1
    80000db8:	f2060153          	fmv.d.x	ft2,a2
    80000dbc:	22208053          	fsgnj.d	ft0,ft1,ft2
    80000dc0:	a0002553          	feq.s	a0,ft0,ft0
    80000dc4:	00050513          	mv	a0,a0
    80000dc8:	00051463          	bnez	a0,80000dd0 <test_75+0x54>
    80000dcc:	e0000553          	fmv.x.w	a0,ft0
    80000dd0:	11111eb7          	lui	t4,0x11111
    80000dd4:	111e8e9b          	addiw	t4,t4,273
    80000dd8:	04b00193          	li	gp,75
    80000ddc:	1bd51663          	bne	a0,t4,80000f88 <fail>

0000000080000de0 <test_175>:
    80000de0:	0010059b          	addiw	a1,zero,1
    80000de4:	02759593          	slli	a1,a1,0x27
    80000de8:	f1158593          	addi	a1,a1,-239
    80000dec:	00c59593          	slli	a1,a1,0xc
    80000df0:	11158593          	addi	a1,a1,273
    80000df4:	00c59593          	slli	a1,a1,0xc
    80000df8:	11158593          	addi	a1,a1,273
    80000dfc:	0010061b          	addiw	a2,zero,1
    80000e00:	02761613          	slli	a2,a2,0x27
    80000e04:	f1160613          	addi	a2,a2,-239
    80000e08:	00c61613          	slli	a2,a2,0xc
    80000e0c:	11160613          	addi	a2,a2,273
    80000e10:	00c61613          	slli	a2,a2,0xc
    80000e14:	11160613          	addi	a2,a2,273
    80000e18:	f20580d3          	fmv.d.x	ft1,a1
    80000e1c:	f2060153          	fmv.d.x	ft2,a2
    80000e20:	22208053          	fsgnj.d	ft0,ft1,ft2
    80000e24:	e2000553          	fmv.x.d	a0,ft0
    80000e28:	00100e9b          	addiw	t4,zero,1
    80000e2c:	027e9e93          	slli	t4,t4,0x27
    80000e30:	f11e8e93          	addi	t4,t4,-239 # 11110f11 <_start-0x6eeef0ef>
    80000e34:	00ce9e93          	slli	t4,t4,0xc
    80000e38:	111e8e93          	addi	t4,t4,273
    80000e3c:	00ce9e93          	slli	t4,t4,0xc
    80000e40:	111e8e93          	addi	t4,t4,273
    80000e44:	0af00193          	li	gp,175
    80000e48:	15d51063          	bne	a0,t4,80000f88 <fail>

0000000080000e4c <test_76>:
    80000e4c:	0010059b          	addiw	a1,zero,1
    80000e50:	02759593          	slli	a1,a1,0x27
    80000e54:	f1158593          	addi	a1,a1,-239
    80000e58:	00c59593          	slli	a1,a1,0xc
    80000e5c:	11158593          	addi	a1,a1,273
    80000e60:	00c59593          	slli	a1,a1,0xc
    80000e64:	11158593          	addi	a1,a1,273
    80000e68:	91111637          	lui	a2,0x91111
    80000e6c:	1116061b          	addiw	a2,a2,273
    80000e70:	f20580d3          	fmv.d.x	ft1,a1
    80000e74:	f2060153          	fmv.d.x	ft2,a2
    80000e78:	22208053          	fsgnj.d	ft0,ft1,ft2
    80000e7c:	a0002553          	feq.s	a0,ft0,ft0
    80000e80:	fff50513          	addi	a0,a0,-1
    80000e84:	00051463          	bnez	a0,80000e8c <test_76+0x40>
    80000e88:	e0000553          	fmv.x.w	a0,ft0
    80000e8c:	11111eb7          	lui	t4,0x11111
    80000e90:	111e8e9b          	addiw	t4,t4,273
    80000e94:	04c00193          	li	gp,76
    80000e98:	0fd51863          	bne	a0,t4,80000f88 <fail>

0000000080000e9c <test_176>:
    80000e9c:	0010059b          	addiw	a1,zero,1
    80000ea0:	02759593          	slli	a1,a1,0x27
    80000ea4:	f1158593          	addi	a1,a1,-239
    80000ea8:	00c59593          	slli	a1,a1,0xc
    80000eac:	11158593          	addi	a1,a1,273
    80000eb0:	00c59593          	slli	a1,a1,0xc
    80000eb4:	11158593          	addi	a1,a1,273
    80000eb8:	91111637          	lui	a2,0x91111
    80000ebc:	1116061b          	addiw	a2,a2,273
    80000ec0:	f20580d3          	fmv.d.x	ft1,a1
    80000ec4:	f2060153          	fmv.d.x	ft2,a2
    80000ec8:	22208053          	fsgnj.d	ft0,ft1,ft2
    80000ecc:	e2000553          	fmv.x.d	a0,ft0
    80000ed0:	fff11eb7          	lui	t4,0xfff11
    80000ed4:	111e8e9b          	addiw	t4,t4,273
    80000ed8:	00ce9e93          	slli	t4,t4,0xc
    80000edc:	111e8e93          	addi	t4,t4,273 # fffffffffff11111 <_end+0xffffffff7ff0f111>
    80000ee0:	0b000193          	li	gp,176
    80000ee4:	0bd51263          	bne	a0,t4,80000f88 <fail>

0000000080000ee8 <test_77>:
    80000ee8:	0010059b          	addiw	a1,zero,1
    80000eec:	02759593          	slli	a1,a1,0x27
    80000ef0:	f1158593          	addi	a1,a1,-239
    80000ef4:	00c59593          	slli	a1,a1,0xc
    80000ef8:	11158593          	addi	a1,a1,273
    80000efc:	00c59593          	slli	a1,a1,0xc
    80000f00:	11158593          	addi	a1,a1,273
    80000f04:	fff0061b          	addiw	a2,zero,-1
    80000f08:	03f61613          	slli	a2,a2,0x3f
    80000f0c:	f20580d3          	fmv.d.x	ft1,a1
    80000f10:	f2060153          	fmv.d.x	ft2,a2
    80000f14:	22208053          	fsgnj.d	ft0,ft1,ft2
    80000f18:	a0002553          	feq.s	a0,ft0,ft0
    80000f1c:	fff50513          	addi	a0,a0,-1
    80000f20:	00051463          	bnez	a0,80000f28 <test_77+0x40>
    80000f24:	e0000553          	fmv.x.w	a0,ft0
    80000f28:	11111eb7          	lui	t4,0x11111
    80000f2c:	111e8e9b          	addiw	t4,t4,273
    80000f30:	04d00193          	li	gp,77
    80000f34:	05d51a63          	bne	a0,t4,80000f88 <fail>

0000000080000f38 <test_177>:
    80000f38:	0010059b          	addiw	a1,zero,1
    80000f3c:	02759593          	slli	a1,a1,0x27
    80000f40:	f1158593          	addi	a1,a1,-239
    80000f44:	00c59593          	slli	a1,a1,0xc
    80000f48:	11158593          	addi	a1,a1,273
    80000f4c:	00c59593          	slli	a1,a1,0xc
    80000f50:	11158593          	addi	a1,a1,273
    80000f54:	fff0061b          	addiw	a2,zero,-1
    80000f58:	03f61613          	slli	a2,a2,0x3f
    80000f5c:	f20580d3          	fmv.d.x	ft1,a1
    80000f60:	f2060153          	fmv.d.x	ft2,a2
    80000f64:	22208053          	fsgnj.d	ft0,ft1,ft2
    80000f68:	e2000553          	fmv.x.d	a0,ft0
    80000f6c:	fff11eb7          	lui	t4,0xfff11
    80000f70:	111e8e9b          	addiw	t4,t4,273
    80000f74:	00ce9e93          	slli	t4,t4,0xc
    80000f78:	111e8e93          	addi	t4,t4,273 # fffffffffff11111 <_end+0xffffffff7ff0f111>
    80000f7c:	0b100193          	li	gp,177
    80000f80:	01d51463          	bne	a0,t4,80000f88 <fail>
    80000f84:	00301c63          	bne	zero,gp,80000f9c <pass>

0000000080000f88 <fail>:
    80000f88:	0ff0000f          	fence
    80000f8c:	00018063          	beqz	gp,80000f8c <fail+0x4>
    80000f90:	00119193          	slli	gp,gp,0x1
    80000f94:	0011e193          	ori	gp,gp,1
    80000f98:	8a8ff06f          	j	80000040 <write_tohost>

0000000080000f9c <pass>:
    80000f9c:	0ff0000f          	fence
    80000fa0:	00100193          	li	gp,1
    80000fa4:	89cff06f          	j	80000040 <write_tohost>
    80000fa8:	c0001073          	unimp
	...

./rv64ud-p-recoding:     file format elf64-littleriscv


Disassembly of section .text.init:

0000000080000000 <_start>:
    80000000:	04c0006f          	j	8000004c <reset_vector>

0000000080000004 <trap_vector>:
    80000004:	34202f73          	csrr	t5,mcause
    80000008:	00800f93          	li	t6,8
    8000000c:	03ff0a63          	beq	t5,t6,80000040 <write_tohost>
    80000010:	00900f93          	li	t6,9
    80000014:	03ff0663          	beq	t5,t6,80000040 <write_tohost>
    80000018:	00b00f93          	li	t6,11
    8000001c:	03ff0263          	beq	t5,t6,80000040 <write_tohost>
    80000020:	80000f17          	auipc	t5,0x80000
    80000024:	fe0f0f13          	addi	t5,t5,-32 # 0 <_start-0x80000000>
    80000028:	000f0463          	beqz	t5,80000030 <trap_vector+0x2c>
    8000002c:	000f0067          	jr	t5
    80000030:	34202f73          	csrr	t5,mcause
    80000034:	000f5463          	bgez	t5,8000003c <handle_exception>
    80000038:	0040006f          	j	8000003c <handle_exception>

000000008000003c <handle_exception>:
    8000003c:	5391e193          	ori	gp,gp,1337

0000000080000040 <write_tohost>:
    80000040:	00001f17          	auipc	t5,0x1
    80000044:	fc3f2023          	sw	gp,-64(t5) # 80001000 <tohost>
    80000048:	ff9ff06f          	j	80000040 <write_tohost>

000000008000004c <reset_vector>:
    8000004c:	f1402573          	csrr	a0,mhartid
    80000050:	00051063          	bnez	a0,80000050 <reset_vector+0x4>
    80000054:	00000297          	auipc	t0,0x0
    80000058:	01028293          	addi	t0,t0,16 # 80000064 <reset_vector+0x18>
    8000005c:	30529073          	csrw	mtvec,t0
    80000060:	18005073          	csrwi	satp,0
    80000064:	00000193          	li	gp,0
    80000068:	00000297          	auipc	t0,0x0
    8000006c:	f9c28293          	addi	t0,t0,-100 # 80000004 <trap_vector>
    80000070:	30529073          	csrw	mtvec,t0
    80000074:	00100513          	li	a0,1
    80000078:	01f51513          	slli	a0,a0,0x1f
    8000007c:	00055863          	bgez	a0,8000008c <reset_vector+0x40>
    80000080:	0ff0000f          	fence
    80000084:	00100193          	li	gp,1
    80000088:	fb9ff06f          	j	80000040 <write_tohost>
    8000008c:	00002537          	lui	a0,0x2
    80000090:	30052073          	csrs	mstatus,a0
    80000094:	00305073          	csrwi	fcsr,0
    80000098:	00000297          	auipc	t0,0x0
    8000009c:	01428293          	addi	t0,t0,20 # 800000ac <reset_vector+0x60>
    800000a0:	34129073          	csrw	mepc,t0
    800000a4:	f1402573          	csrr	a0,mhartid
    800000a8:	00028067          	jr	t0
    800000ac:	00002517          	auipc	a0,0x2
    800000b0:	f5453007          	fld	ft0,-172(a0) # 80002000 <begin_signature>
    800000b4:	00002517          	auipc	a0,0x2
    800000b8:	f5453087          	fld	ft1,-172(a0) # 80002008 <three>
    800000bc:	1200f0d3          	fmul.d	ft1,ft1,ft0

00000000800000c0 <test_2>:
    800000c0:	a2102553          	feq.d	a0,ft0,ft1
    800000c4:	00100e93          	li	t4,1
    800000c8:	00200193          	li	gp,2
    800000cc:	0dd51663          	bne	a0,t4,80000198 <fail>

00000000800000d0 <test_3>:
    800000d0:	a2100553          	fle.d	a0,ft0,ft1
    800000d4:	00100e93          	li	t4,1
    800000d8:	00300193          	li	gp,3
    800000dc:	0bd51e63          	bne	a0,t4,80000198 <fail>

00000000800000e0 <test_4>:
    800000e0:	a2101553          	flt.d	a0,ft0,ft1
    800000e4:	00000e93          	li	t4,0
    800000e8:	00400193          	li	gp,4
    800000ec:	0bd51663          	bne	a0,t4,80000198 <fail>
    800000f0:	d2000053          	fcvt.d.w	ft0,zero
    800000f4:	00100513          	li	a0,1
    800000f8:	d20500d3          	fcvt.d.w	ft1,a0
    800000fc:	1200f0d3          	fmul.d	ft1,ft1,ft0

0000000080000100 <test_5>:
    80000100:	a2102553          	feq.d	a0,ft0,ft1
    80000104:	00100e93          	li	t4,1
    80000108:	00500193          	li	gp,5
    8000010c:	09d51663          	bne	a0,t4,80000198 <fail>

0000000080000110 <test_6>:
    80000110:	a2100553          	fle.d	a0,ft0,ft1
    80000114:	00100e93          	li	t4,1
    80000118:	00600193          	li	gp,6
    8000011c:	07d51e63          	bne	a0,t4,80000198 <fail>

0000000080000120 <test_7>:
    80000120:	a2101553          	flt.d	a0,ft0,ft1
    80000124:	00000e93          	li	t4,0
    80000128:	00700193          	li	gp,7
    8000012c:	07d51663          	bne	a0,t4,80000198 <fail>
    80000130:	00002517          	auipc	a0,0x2
    80000134:	ee052007          	flw	ft0,-288(a0) # 80002010 <big>
    80000138:	00002517          	auipc	a0,0x2
    8000013c:	ee053087          	fld	ft1,-288(a0) # 80002018 <tiny>
    80000140:	4010f0d3          	fcvt.s.d	ft1,ft1
    80000144:	10107053          	fmul.s	ft0,ft0,ft1
    80000148:	e0000553          	fmv.x.w	a0,ft0
    8000014c:	00002597          	auipc	a1,0x2
    80000150:	ec85a583          	lw	a1,-312(a1) # 80002014 <small>

0000000080000154 <test_10>:
    80000154:	40b50533          	sub	a0,a0,a1
    80000158:	00000e93          	li	t4,0
    8000015c:	00a00193          	li	gp,10
    80000160:	03d51c63          	bne	a0,t4,80000198 <fail>
    80000164:	00002517          	auipc	a0,0x2
    80000168:	ea452007          	flw	ft0,-348(a0) # 80002008 <three>
    8000016c:	000070d3          	fadd.s	ft1,ft0,ft0
    80000170:	00007053          	fadd.s	ft0,ft0,ft0
    80000174:	00002517          	auipc	a0,0x2
    80000178:	ea053227          	fsd	ft0,-348(a0) # 80002018 <tiny>
    8000017c:	00002517          	auipc	a0,0x2
    80000180:	e9c53007          	fld	ft0,-356(a0) # 80002018 <tiny>

0000000080000184 <test_20>:
    80000184:	a0102553          	feq.s	a0,ft0,ft1
    80000188:	00100e93          	li	t4,1
    8000018c:	01400193          	li	gp,20
    80000190:	01d51463          	bne	a0,t4,80000198 <fail>
    80000194:	00301c63          	bne	zero,gp,800001ac <pass>

0000000080000198 <fail>:
    80000198:	0ff0000f          	fence
    8000019c:	00018063          	beqz	gp,8000019c <fail+0x4>
    800001a0:	00119193          	slli	gp,gp,0x1
    800001a4:	0011e193          	ori	gp,gp,1
    800001a8:	e99ff06f          	j	80000040 <write_tohost>

00000000800001ac <pass>:
    800001ac:	0ff0000f          	fence
    800001b0:	00100193          	li	gp,1
    800001b4:	e8dff06f          	j	80000040 <write_tohost>
    800001b8:	c0001073          	unimp
	...

./rv64ud-p-structural:     file format elf64-littleriscv


Disassembly of section .text.init:

0000000080000000 <_start>:
    80000000:	04c0006f          	j	8000004c <reset_vector>

0000000080000004 <trap_vector>:
    80000004:	34202f73          	csrr	t5,mcause
    80000008:	00800f93          	li	t6,8
    8000000c:	03ff0a63          	beq	t5,t6,80000040 <write_tohost>
    80000010:	00900f93          	li	t6,9
    80000014:	03ff0663          	beq	t5,t6,80000040 <write_tohost>
    80000018:	00b00f93          	li	t6,11
    8000001c:	03ff0263          	beq	t5,t6,80000040 <write_tohost>
    80000020:	80000f17          	auipc	t5,0x80000
    80000024:	fe0f0f13          	addi	t5,t5,-32 # 0 <_start-0x80000000>
    80000028:	000f0463          	beqz	t5,80000030 <trap_vector+0x2c>
    8000002c:	000f0067          	jr	t5
    80000030:	34202f73          	csrr	t5,mcause
    80000034:	000f5463          	bgez	t5,8000003c <handle_exception>
    80000038:	0040006f          	j	8000003c <handle_exception>

000000008000003c <handle_exception>:
    8000003c:	5391e193          	ori	gp,gp,1337

0000000080000040 <write_tohost>:
    80000040:	00001f17          	auipc	t5,0x1
    80000044:	fc3f2023          	sw	gp,-64(t5) # 80001000 <tohost>
    80000048:	ff9ff06f          	j	80000040 <write_tohost>

000000008000004c <reset_vector>:
    8000004c:	f1402573          	csrr	a0,mhartid
    80000050:	00051063          	bnez	a0,80000050 <reset_vector+0x4>
    80000054:	00000297          	auipc	t0,0x0
    80000058:	01028293          	addi	t0,t0,16 # 80000064 <reset_vector+0x18>
    8000005c:	30529073          	csrw	mtvec,t0
    80000060:	18005073          	csrwi	satp,0
    80000064:	00000193          	li	gp,0
    80000068:	00000297          	auipc	t0,0x0
    8000006c:	f9c28293          	addi	t0,t0,-100 # 80000004 <trap_vector>
    80000070:	30529073          	csrw	mtvec,t0
    80000074:	00100513          	li	a0,1
    80000078:	01f51513          	slli	a0,a0,0x1f
    8000007c:	00055863          	bgez	a0,8000008c <reset_vector+0x40>
    80000080:	0ff0000f          	fence
    80000084:	00100193          	li	gp,1
    80000088:	fb9ff06f          	j	80000040 <write_tohost>
    8000008c:	00002537          	lui	a0,0x2
    80000090:	30052073          	csrs	mstatus,a0
    80000094:	00305073          	csrwi	fcsr,0
    80000098:	00000297          	auipc	t0,0x0
    8000009c:	01428293          	addi	t0,t0,20 # 800000ac <reset_vector+0x60>
    800000a0:	34129073          	csrw	mepc,t0
    800000a4:	f1402573          	csrr	a0,mhartid
    800000a8:	00028067          	jr	t0
    800000ac:	00100c93          	li	s9,1
    800000b0:	3ff0011b          	addiw	sp,zero,1023
    800000b4:	03411113          	slli	sp,sp,0x34
    800000b8:	3f8000b7          	lui	ra,0x3f800
    800000bc:	f2000253          	fmv.d.x	ft4,zero
    800000c0:	f00001d3          	fmv.w.x	ft3,zero
    800000c4:	f2010153          	fmv.d.x	ft2,sp
    800000c8:	f00080d3          	fmv.w.x	ft1,ra
    800000cc:	0140006f          	j	800000e0 <reset_vector+0x94>
    800000d0:	00000013          	nop
    800000d4:	00000013          	nop
    800000d8:	00000013          	nop
    800000dc:	00000013          	nop
    800000e0:	12217253          	fmul.d	ft4,ft2,ft2
    800000e4:	201081d3          	fmv.s	ft3,ft1
    800000e8:	e2020253          	fmv.x.d	tp,ft4
    800000ec:	e00182d3          	fmv.x.w	t0,ft3
    800000f0:	00508c63          	beq	ra,t0,80000108 <reset_vector+0xbc>
    800000f4:	0ff0000f          	fence
    800000f8:	00018063          	beqz	gp,800000f8 <reset_vector+0xac>
    800000fc:	00119193          	slli	gp,gp,0x1
    80000100:	0011e193          	ori	gp,gp,1
    80000104:	f3dff06f          	j	80000040 <write_tohost>
    80000108:	00410c63          	beq	sp,tp,80000120 <reset_vector+0xd4>
    8000010c:	0ff0000f          	fence
    80000110:	00018063          	beqz	gp,80000110 <reset_vector+0xc4>
    80000114:	00119193          	slli	gp,gp,0x1
    80000118:	0011e193          	ori	gp,gp,1
    8000011c:	f25ff06f          	j	80000040 <write_tohost>
    80000120:	f2000153          	fmv.d.x	ft2,zero
    80000124:	f00000d3          	fmv.w.x	ft1,zero
    80000128:	f2000253          	fmv.d.x	ft4,zero
    8000012c:	f00001d3          	fmv.w.x	ft3,zero
    80000130:	f2010153          	fmv.d.x	ft2,sp
    80000134:	f00080d3          	fmv.w.x	ft1,ra
    80000138:	0080006f          	j	80000140 <reset_vector+0xf4>
    8000013c:	00000013          	nop
    80000140:	12217253          	fmul.d	ft4,ft2,ft2
    80000144:	00000013          	nop
    80000148:	201081d3          	fmv.s	ft3,ft1
    8000014c:	e2020253          	fmv.x.d	tp,ft4
    80000150:	e00182d3          	fmv.x.w	t0,ft3
    80000154:	00508c63          	beq	ra,t0,8000016c <reset_vector+0x120>
    80000158:	0ff0000f          	fence
    8000015c:	00018063          	beqz	gp,8000015c <reset_vector+0x110>
    80000160:	00119193          	slli	gp,gp,0x1
    80000164:	0011e193          	ori	gp,gp,1
    80000168:	ed9ff06f          	j	80000040 <write_tohost>
    8000016c:	00410c63          	beq	sp,tp,80000184 <reset_vector+0x138>
    80000170:	0ff0000f          	fence
    80000174:	00018063          	beqz	gp,80000174 <reset_vector+0x128>
    80000178:	00119193          	slli	gp,gp,0x1
    8000017c:	0011e193          	ori	gp,gp,1
    80000180:	ec1ff06f          	j	80000040 <write_tohost>
    80000184:	f2000153          	fmv.d.x	ft2,zero
    80000188:	f00000d3          	fmv.w.x	ft1,zero
    8000018c:	f2000253          	fmv.d.x	ft4,zero
    80000190:	f00001d3          	fmv.w.x	ft3,zero
    80000194:	f2010153          	fmv.d.x	ft2,sp
    80000198:	f00080d3          	fmv.w.x	ft1,ra
    8000019c:	0040006f          	j	800001a0 <reset_vector+0x154>
    800001a0:	12217253          	fmul.d	ft4,ft2,ft2
    800001a4:	00000013          	nop
    800001a8:	00000013          	nop
    800001ac:	201081d3          	fmv.s	ft3,ft1
    800001b0:	e2020253          	fmv.x.d	tp,ft4
    800001b4:	e00182d3          	fmv.x.w	t0,ft3
    800001b8:	00508c63          	beq	ra,t0,800001d0 <reset_vector+0x184>
    800001bc:	0ff0000f          	fence
    800001c0:	00018063          	beqz	gp,800001c0 <reset_vector+0x174>
    800001c4:	00119193          	slli	gp,gp,0x1
    800001c8:	0011e193          	ori	gp,gp,1
    800001cc:	e75ff06f          	j	80000040 <write_tohost>
    800001d0:	00410c63          	beq	sp,tp,800001e8 <reset_vector+0x19c>
    800001d4:	0ff0000f          	fence
    800001d8:	00018063          	beqz	gp,800001d8 <reset_vector+0x18c>
    800001dc:	00119193          	slli	gp,gp,0x1
    800001e0:	0011e193          	ori	gp,gp,1
    800001e4:	e5dff06f          	j	80000040 <write_tohost>
    800001e8:	f2000153          	fmv.d.x	ft2,zero
    800001ec:	f00000d3          	fmv.w.x	ft1,zero
    800001f0:	f2000253          	fmv.d.x	ft4,zero
    800001f4:	f00001d3          	fmv.w.x	ft3,zero
    800001f8:	f2010153          	fmv.d.x	ft2,sp
    800001fc:	f00080d3          	fmv.w.x	ft1,ra
    80000200:	0200006f          	j	80000220 <reset_vector+0x1d4>
    80000204:	00000013          	nop
    80000208:	00000013          	nop
    8000020c:	00000013          	nop
    80000210:	00000013          	nop
    80000214:	00000013          	nop
    80000218:	00000013          	nop
    8000021c:	00000013          	nop
    80000220:	12217253          	fmul.d	ft4,ft2,ft2
    80000224:	00000013          	nop
    80000228:	00000013          	nop
    8000022c:	00000013          	nop
    80000230:	201081d3          	fmv.s	ft3,ft1
    80000234:	e2020253          	fmv.x.d	tp,ft4
    80000238:	e00182d3          	fmv.x.w	t0,ft3
    8000023c:	00508c63          	beq	ra,t0,80000254 <reset_vector+0x208>
    80000240:	0ff0000f          	fence
    80000244:	00018063          	beqz	gp,80000244 <reset_vector+0x1f8>
    80000248:	00119193          	slli	gp,gp,0x1
    8000024c:	0011e193          	ori	gp,gp,1
    80000250:	df1ff06f          	j	80000040 <write_tohost>
    80000254:	00410c63          	beq	sp,tp,8000026c <reset_vector+0x220>
    80000258:	0ff0000f          	fence
    8000025c:	00018063          	beqz	gp,8000025c <reset_vector+0x210>
    80000260:	00119193          	slli	gp,gp,0x1
    80000264:	0011e193          	ori	gp,gp,1
    80000268:	dd9ff06f          	j	80000040 <write_tohost>
    8000026c:	f2000153          	fmv.d.x	ft2,zero
    80000270:	f00000d3          	fmv.w.x	ft1,zero
    80000274:	f2000253          	fmv.d.x	ft4,zero
    80000278:	f00001d3          	fmv.w.x	ft3,zero
    8000027c:	f2010153          	fmv.d.x	ft2,sp
    80000280:	f00080d3          	fmv.w.x	ft1,ra
    80000284:	01c0006f          	j	800002a0 <reset_vector+0x254>
    80000288:	00000013          	nop
    8000028c:	00000013          	nop
    80000290:	00000013          	nop
    80000294:	00000013          	nop
    80000298:	00000013          	nop
    8000029c:	00000013          	nop
    800002a0:	12217253          	fmul.d	ft4,ft2,ft2
    800002a4:	00000013          	nop
    800002a8:	00000013          	nop
    800002ac:	00000013          	nop
    800002b0:	00000013          	nop
    800002b4:	201081d3          	fmv.s	ft3,ft1
    800002b8:	e2020253          	fmv.x.d	tp,ft4
    800002bc:	e00182d3          	fmv.x.w	t0,ft3
    800002c0:	00508c63          	beq	ra,t0,800002d8 <reset_vector+0x28c>
    800002c4:	0ff0000f          	fence
    800002c8:	00018063          	beqz	gp,800002c8 <reset_vector+0x27c>
    800002cc:	00119193          	slli	gp,gp,0x1
    800002d0:	0011e193          	ori	gp,gp,1
    800002d4:	d6dff06f          	j	80000040 <write_tohost>
    800002d8:	00410c63          	beq	sp,tp,800002f0 <reset_vector+0x2a4>
    800002dc:	0ff0000f          	fence
    800002e0:	00018063          	beqz	gp,800002e0 <reset_vector+0x294>
    800002e4:	00119193          	slli	gp,gp,0x1
    800002e8:	0011e193          	ori	gp,gp,1
    800002ec:	d55ff06f          	j	80000040 <write_tohost>
    800002f0:	f2000153          	fmv.d.x	ft2,zero
    800002f4:	f00000d3          	fmv.w.x	ft1,zero
    800002f8:	f2000253          	fmv.d.x	ft4,zero
    800002fc:	f00001d3          	fmv.w.x	ft3,zero
    80000300:	f2010153          	fmv.d.x	ft2,sp
    80000304:	f00080d3          	fmv.w.x	ft1,ra
    80000308:	0180006f          	j	80000320 <reset_vector+0x2d4>
    8000030c:	00000013          	nop
    80000310:	00000013          	nop
    80000314:	00000013          	nop
    80000318:	00000013          	nop
    8000031c:	00000013          	nop
    80000320:	12217253          	fmul.d	ft4,ft2,ft2
    80000324:	00000013          	nop
    80000328:	00000013          	nop
    8000032c:	00000013          	nop
    80000330:	00000013          	nop
    80000334:	00000013          	nop
    80000338:	201081d3          	fmv.s	ft3,ft1
    8000033c:	e2020253          	fmv.x.d	tp,ft4
    80000340:	e00182d3          	fmv.x.w	t0,ft3
    80000344:	00508c63          	beq	ra,t0,8000035c <reset_vector+0x310>
    80000348:	0ff0000f          	fence
    8000034c:	00018063          	beqz	gp,8000034c <reset_vector+0x300>
    80000350:	00119193          	slli	gp,gp,0x1
    80000354:	0011e193          	ori	gp,gp,1
    80000358:	ce9ff06f          	j	80000040 <write_tohost>
    8000035c:	00410c63          	beq	sp,tp,80000374 <reset_vector+0x328>
    80000360:	0ff0000f          	fence
    80000364:	00018063          	beqz	gp,80000364 <reset_vector+0x318>
    80000368:	00119193          	slli	gp,gp,0x1
    8000036c:	0011e193          	ori	gp,gp,1
    80000370:	cd1ff06f          	j	80000040 <write_tohost>
    80000374:	f2000153          	fmv.d.x	ft2,zero
    80000378:	f00000d3          	fmv.w.x	ft1,zero
    8000037c:	f2000253          	fmv.d.x	ft4,zero
    80000380:	f00001d3          	fmv.w.x	ft3,zero
    80000384:	f2010153          	fmv.d.x	ft2,sp
    80000388:	f00080d3          	fmv.w.x	ft1,ra
    8000038c:	0140006f          	j	800003a0 <reset_vector+0x354>
    80000390:	00000013          	nop
    80000394:	00000013          	nop
    80000398:	00000013          	nop
    8000039c:	00000013          	nop
    800003a0:	12217253          	fmul.d	ft4,ft2,ft2
    800003a4:	00000013          	nop
    800003a8:	00000013          	nop
    800003ac:	00000013          	nop
    800003b0:	00000013          	nop
    800003b4:	00000013          	nop
    800003b8:	00000013          	nop
    800003bc:	201081d3          	fmv.s	ft3,ft1
    800003c0:	e2020253          	fmv.x.d	tp,ft4
    800003c4:	e00182d3          	fmv.x.w	t0,ft3
    800003c8:	00508c63          	beq	ra,t0,800003e0 <reset_vector+0x394>
    800003cc:	0ff0000f          	fence
    800003d0:	00018063          	beqz	gp,800003d0 <reset_vector+0x384>
    800003d4:	00119193          	slli	gp,gp,0x1
    800003d8:	0011e193          	ori	gp,gp,1
    800003dc:	c65ff06f          	j	80000040 <write_tohost>
    800003e0:	00410c63          	beq	sp,tp,800003f8 <reset_vector+0x3ac>
    800003e4:	0ff0000f          	fence
    800003e8:	00018063          	beqz	gp,800003e8 <reset_vector+0x39c>
    800003ec:	00119193          	slli	gp,gp,0x1
    800003f0:	0011e193          	ori	gp,gp,1
    800003f4:	c4dff06f          	j	80000040 <write_tohost>
    800003f8:	f2000153          	fmv.d.x	ft2,zero
    800003fc:	f00000d3          	fmv.w.x	ft1,zero
    80000400:	0ff0000f          	fence
    80000404:	00100193          	li	gp,1
    80000408:	c39ff06f          	j	80000040 <write_tohost>
    8000040c:	c0001073          	unimp
	...

./rv64uf-p-fadd:     file format elf64-littleriscv


Disassembly of section .text.init:

0000000080000000 <_start>:
    80000000:	04c0006f          	j	8000004c <reset_vector>

0000000080000004 <trap_vector>:
    80000004:	34202f73          	csrr	t5,mcause
    80000008:	00800f93          	li	t6,8
    8000000c:	03ff0a63          	beq	t5,t6,80000040 <write_tohost>
    80000010:	00900f93          	li	t6,9
    80000014:	03ff0663          	beq	t5,t6,80000040 <write_tohost>
    80000018:	00b00f93          	li	t6,11
    8000001c:	03ff0263          	beq	t5,t6,80000040 <write_tohost>
    80000020:	80000f17          	auipc	t5,0x80000
    80000024:	fe0f0f13          	addi	t5,t5,-32 # 0 <_start-0x80000000>
    80000028:	000f0463          	beqz	t5,80000030 <trap_vector+0x2c>
    8000002c:	000f0067          	jr	t5
    80000030:	34202f73          	csrr	t5,mcause
    80000034:	000f5463          	bgez	t5,8000003c <handle_exception>
    80000038:	0040006f          	j	8000003c <handle_exception>

000000008000003c <handle_exception>:
    8000003c:	5391e193          	ori	gp,gp,1337

0000000080000040 <write_tohost>:
    80000040:	00001f17          	auipc	t5,0x1
    80000044:	fc3f2023          	sw	gp,-64(t5) # 80001000 <tohost>
    80000048:	ff9ff06f          	j	80000040 <write_tohost>

000000008000004c <reset_vector>:
    8000004c:	f1402573          	csrr	a0,mhartid
    80000050:	00051063          	bnez	a0,80000050 <reset_vector+0x4>
    80000054:	00000297          	auipc	t0,0x0
    80000058:	01028293          	addi	t0,t0,16 # 80000064 <reset_vector+0x18>
    8000005c:	30529073          	csrw	mtvec,t0
    80000060:	18005073          	csrwi	satp,0
    80000064:	00000193          	li	gp,0
    80000068:	00000297          	auipc	t0,0x0
    8000006c:	f9c28293          	addi	t0,t0,-100 # 80000004 <trap_vector>
    80000070:	30529073          	csrw	mtvec,t0
    80000074:	00100513          	li	a0,1
    80000078:	01f51513          	slli	a0,a0,0x1f
    8000007c:	00055863          	bgez	a0,8000008c <reset_vector+0x40>
    80000080:	0ff0000f          	fence
    80000084:	00100193          	li	gp,1
    80000088:	fb9ff06f          	j	80000040 <write_tohost>
    8000008c:	00002537          	lui	a0,0x2
    80000090:	30052073          	csrs	mstatus,a0
    80000094:	00305073          	csrwi	fcsr,0
    80000098:	00000297          	auipc	t0,0x0
    8000009c:	01428293          	addi	t0,t0,20 # 800000ac <test_2>
    800000a0:	34129073          	csrw	mepc,t0
    800000a4:	f1402573          	csrr	a0,mhartid
    800000a8:	00028067          	jr	t0

00000000800000ac <test_2>:
    800000ac:	00200193          	li	gp,2
    800000b0:	00002517          	auipc	a0,0x2
    800000b4:	f5050513          	addi	a0,a0,-176 # 80002000 <test_2_data>
    800000b8:	00052007          	flw	ft0,0(a0)
    800000bc:	00452087          	flw	ft1,4(a0)
    800000c0:	00852107          	flw	ft2,8(a0)
    800000c4:	00c52683          	lw	a3,12(a0)
    800000c8:	001071d3          	fadd.s	ft3,ft0,ft1
    800000cc:	e0018553          	fmv.x.w	a0,ft3
    800000d0:	001015f3          	fsflags	a1,zero
    800000d4:	00000613          	li	a2,0
    800000d8:	1ed51063          	bne	a0,a3,800002b8 <fail>
    800000dc:	1cc59e63          	bne	a1,a2,800002b8 <fail>

00000000800000e0 <test_3>:
    800000e0:	00300193          	li	gp,3
    800000e4:	00002517          	auipc	a0,0x2
    800000e8:	f2c50513          	addi	a0,a0,-212 # 80002010 <test_3_data>
    800000ec:	00052007          	flw	ft0,0(a0)
    800000f0:	00452087          	flw	ft1,4(a0)
    800000f4:	00852107          	flw	ft2,8(a0)
    800000f8:	00c52683          	lw	a3,12(a0)
    800000fc:	001071d3          	fadd.s	ft3,ft0,ft1
    80000100:	e0018553          	fmv.x.w	a0,ft3
    80000104:	001015f3          	fsflags	a1,zero
    80000108:	00100613          	li	a2,1
    8000010c:	1ad51663          	bne	a0,a3,800002b8 <fail>
    80000110:	1ac59463          	bne	a1,a2,800002b8 <fail>

0000000080000114 <test_4>:
    80000114:	00400193          	li	gp,4
    80000118:	00002517          	auipc	a0,0x2
    8000011c:	f0850513          	addi	a0,a0,-248 # 80002020 <test_4_data>
    80000120:	00052007          	flw	ft0,0(a0)
    80000124:	00452087          	flw	ft1,4(a0)
    80000128:	00852107          	flw	ft2,8(a0)
    8000012c:	00c52683          	lw	a3,12(a0)
    80000130:	001071d3          	fadd.s	ft3,ft0,ft1
    80000134:	e0018553          	fmv.x.w	a0,ft3
    80000138:	001015f3          	fsflags	a1,zero
    8000013c:	00100613          	li	a2,1
    80000140:	16d51c63          	bne	a0,a3,800002b8 <fail>
    80000144:	16c59a63          	bne	a1,a2,800002b8 <fail>

0000000080000148 <test_5>:
    80000148:	00500193          	li	gp,5
    8000014c:	00002517          	auipc	a0,0x2
    80000150:	ee450513          	addi	a0,a0,-284 # 80002030 <test_5_data>
    80000154:	00052007          	flw	ft0,0(a0)
    80000158:	00452087          	flw	ft1,4(a0)
    8000015c:	00852107          	flw	ft2,8(a0)
    80000160:	00c52683          	lw	a3,12(a0)
    80000164:	081071d3          	fsub.s	ft3,ft0,ft1
    80000168:	e0018553          	fmv.x.w	a0,ft3
    8000016c:	001015f3          	fsflags	a1,zero
    80000170:	00000613          	li	a2,0
    80000174:	14d51263          	bne	a0,a3,800002b8 <fail>
    80000178:	14c59063          	bne	a1,a2,800002b8 <fail>

000000008000017c <test_6>:
    8000017c:	00600193          	li	gp,6
    80000180:	00002517          	auipc	a0,0x2
    80000184:	ec050513          	addi	a0,a0,-320 # 80002040 <test_6_data>
    80000188:	00052007          	flw	ft0,0(a0)
    8000018c:	00452087          	flw	ft1,4(a0)
    80000190:	00852107          	flw	ft2,8(a0)
    80000194:	00c52683          	lw	a3,12(a0)
    80000198:	081071d3          	fsub.s	ft3,ft0,ft1
    8000019c:	e0018553          	fmv.x.w	a0,ft3
    800001a0:	001015f3          	fsflags	a1,zero
    800001a4:	00100613          	li	a2,1
    800001a8:	10d51863          	bne	a0,a3,800002b8 <fail>
    800001ac:	10c59663          	bne	a1,a2,800002b8 <fail>

00000000800001b0 <test_7>:
    800001b0:	00700193          	li	gp,7
    800001b4:	00002517          	auipc	a0,0x2
    800001b8:	e9c50513          	addi	a0,a0,-356 # 80002050 <test_7_data>
    800001bc:	00052007          	flw	ft0,0(a0)
    800001c0:	00452087          	flw	ft1,4(a0)
    800001c4:	00852107          	flw	ft2,8(a0)
    800001c8:	00c52683          	lw	a3,12(a0)
    800001cc:	081071d3          	fsub.s	ft3,ft0,ft1
    800001d0:	e0018553          	fmv.x.w	a0,ft3
    800001d4:	001015f3          	fsflags	a1,zero
    800001d8:	00100613          	li	a2,1
    800001dc:	0cd51e63          	bne	a0,a3,800002b8 <fail>
    800001e0:	0cc59c63          	bne	a1,a2,800002b8 <fail>

00000000800001e4 <test_8>:
    800001e4:	00800193          	li	gp,8
    800001e8:	00002517          	auipc	a0,0x2
    800001ec:	e7850513          	addi	a0,a0,-392 # 80002060 <test_8_data>
    800001f0:	00052007          	flw	ft0,0(a0)
    800001f4:	00452087          	flw	ft1,4(a0)
    800001f8:	00852107          	flw	ft2,8(a0)
    800001fc:	00c52683          	lw	a3,12(a0)
    80000200:	101071d3          	fmul.s	ft3,ft0,ft1
    80000204:	e0018553          	fmv.x.w	a0,ft3
    80000208:	001015f3          	fsflags	a1,zero
    8000020c:	00000613          	li	a2,0
    80000210:	0ad51463          	bne	a0,a3,800002b8 <fail>
    80000214:	0ac59263          	bne	a1,a2,800002b8 <fail>

0000000080000218 <test_9>:
    80000218:	00900193          	li	gp,9
    8000021c:	00002517          	auipc	a0,0x2
    80000220:	e5450513          	addi	a0,a0,-428 # 80002070 <test_9_data>
    80000224:	00052007          	flw	ft0,0(a0)
    80000228:	00452087          	flw	ft1,4(a0)
    8000022c:	00852107          	flw	ft2,8(a0)
    80000230:	00c52683          	lw	a3,12(a0)
    80000234:	101071d3          	fmul.s	ft3,ft0,ft1
    80000238:	e0018553          	fmv.x.w	a0,ft3
    8000023c:	001015f3          	fsflags	a1,zero
    80000240:	00100613          	li	a2,1
    80000244:	06d51a63          	bne	a0,a3,800002b8 <fail>
    80000248:	06c59863          	bne	a1,a2,800002b8 <fail>

000000008000024c <test_10>:
    8000024c:	00a00193          	li	gp,10
    80000250:	00002517          	auipc	a0,0x2
    80000254:	e3050513          	addi	a0,a0,-464 # 80002080 <test_10_data>
    80000258:	00052007          	flw	ft0,0(a0)
    8000025c:	00452087          	flw	ft1,4(a0)
    80000260:	00852107          	flw	ft2,8(a0)
    80000264:	00c52683          	lw	a3,12(a0)
    80000268:	101071d3          	fmul.s	ft3,ft0,ft1
    8000026c:	e0018553          	fmv.x.w	a0,ft3
    80000270:	001015f3          	fsflags	a1,zero
    80000274:	00100613          	li	a2,1
    80000278:	04d51063          	bne	a0,a3,800002b8 <fail>
    8000027c:	02c59e63          	bne	a1,a2,800002b8 <fail>

0000000080000280 <test_11>:
    80000280:	00b00193          	li	gp,11
    80000284:	00002517          	auipc	a0,0x2
    80000288:	e0c50513          	addi	a0,a0,-500 # 80002090 <test_11_data>
    8000028c:	00052007          	flw	ft0,0(a0)
    80000290:	00452087          	flw	ft1,4(a0)
    80000294:	00852107          	flw	ft2,8(a0)
    80000298:	00c52683          	lw	a3,12(a0)
    8000029c:	081071d3          	fsub.s	ft3,ft0,ft1
    800002a0:	e0018553          	fmv.x.w	a0,ft3
    800002a4:	001015f3          	fsflags	a1,zero
    800002a8:	01000613          	li	a2,16
    800002ac:	00d51663          	bne	a0,a3,800002b8 <fail>
    800002b0:	00c59463          	bne	a1,a2,800002b8 <fail>
    800002b4:	00301c63          	bne	zero,gp,800002cc <pass>

00000000800002b8 <fail>:
    800002b8:	0ff0000f          	fence
    800002bc:	00018063          	beqz	gp,800002bc <fail+0x4>
    800002c0:	00119193          	slli	gp,gp,0x1
    800002c4:	0011e193          	ori	gp,gp,1
    800002c8:	d79ff06f          	j	80000040 <write_tohost>

00000000800002cc <pass>:
    800002cc:	0ff0000f          	fence
    800002d0:	00100193          	li	gp,1
    800002d4:	d6dff06f          	j	80000040 <write_tohost>
    800002d8:	c0001073          	unimp
	...

./rv64uf-p-fclass:     file format elf64-littleriscv


Disassembly of section .text.init:

0000000080000000 <_start>:
    80000000:	04c0006f          	j	8000004c <reset_vector>

0000000080000004 <trap_vector>:
    80000004:	34202f73          	csrr	t5,mcause
    80000008:	00800f93          	li	t6,8
    8000000c:	03ff0a63          	beq	t5,t6,80000040 <write_tohost>
    80000010:	00900f93          	li	t6,9
    80000014:	03ff0663          	beq	t5,t6,80000040 <write_tohost>
    80000018:	00b00f93          	li	t6,11
    8000001c:	03ff0263          	beq	t5,t6,80000040 <write_tohost>
    80000020:	80000f17          	auipc	t5,0x80000
    80000024:	fe0f0f13          	addi	t5,t5,-32 # 0 <_start-0x80000000>
    80000028:	000f0463          	beqz	t5,80000030 <trap_vector+0x2c>
    8000002c:	000f0067          	jr	t5
    80000030:	34202f73          	csrr	t5,mcause
    80000034:	000f5463          	bgez	t5,8000003c <handle_exception>
    80000038:	0040006f          	j	8000003c <handle_exception>

000000008000003c <handle_exception>:
    8000003c:	5391e193          	ori	gp,gp,1337

0000000080000040 <write_tohost>:
    80000040:	00001f17          	auipc	t5,0x1
    80000044:	fc3f2023          	sw	gp,-64(t5) # 80001000 <tohost>
    80000048:	ff9ff06f          	j	80000040 <write_tohost>

000000008000004c <reset_vector>:
    8000004c:	f1402573          	csrr	a0,mhartid
    80000050:	00051063          	bnez	a0,80000050 <reset_vector+0x4>
    80000054:	00000297          	auipc	t0,0x0
    80000058:	01028293          	addi	t0,t0,16 # 80000064 <reset_vector+0x18>
    8000005c:	30529073          	csrw	mtvec,t0
    80000060:	18005073          	csrwi	satp,0
    80000064:	00000193          	li	gp,0
    80000068:	00000297          	auipc	t0,0x0
    8000006c:	f9c28293          	addi	t0,t0,-100 # 80000004 <trap_vector>
    80000070:	30529073          	csrw	mtvec,t0
    80000074:	00100513          	li	a0,1
    80000078:	01f51513          	slli	a0,a0,0x1f
    8000007c:	00055863          	bgez	a0,8000008c <reset_vector+0x40>
    80000080:	0ff0000f          	fence
    80000084:	00100193          	li	gp,1
    80000088:	fb9ff06f          	j	80000040 <write_tohost>
    8000008c:	00002537          	lui	a0,0x2
    80000090:	30052073          	csrs	mstatus,a0
    80000094:	00305073          	csrwi	fcsr,0
    80000098:	00000297          	auipc	t0,0x0
    8000009c:	01428293          	addi	t0,t0,20 # 800000ac <test_2>
    800000a0:	34129073          	csrw	mepc,t0
    800000a4:	f1402573          	csrr	a0,mhartid
    800000a8:	00028067          	jr	t0

00000000800000ac <test_2>:
    800000ac:	1ff0051b          	addiw	a0,zero,511
    800000b0:	01751513          	slli	a0,a0,0x17
    800000b4:	f0050553          	fmv.w.x	fa0,a0
    800000b8:	e0051553          	fclass.s	a0,fa0
    800000bc:	00100e93          	li	t4,1
    800000c0:	00200193          	li	gp,2
    800000c4:	0fd51c63          	bne	a0,t4,800001bc <fail>

00000000800000c8 <test_3>:
    800000c8:	17f0051b          	addiw	a0,zero,383
    800000cc:	01751513          	slli	a0,a0,0x17
    800000d0:	f0050553          	fmv.w.x	fa0,a0
    800000d4:	e0051553          	fclass.s	a0,fa0
    800000d8:	00200e93          	li	t4,2
    800000dc:	00300193          	li	gp,3
    800000e0:	0dd51e63          	bne	a0,t4,800001bc <fail>

00000000800000e4 <test_4>:
    800000e4:	1010051b          	addiw	a0,zero,257
    800000e8:	01751513          	slli	a0,a0,0x17
    800000ec:	fff50513          	addi	a0,a0,-1 # 1fff <_start-0x7fffe001>
    800000f0:	f0050553          	fmv.w.x	fa0,a0
    800000f4:	e0051553          	fclass.s	a0,fa0
    800000f8:	00400e93          	li	t4,4
    800000fc:	00400193          	li	gp,4
    80000100:	0bd51e63          	bne	a0,t4,800001bc <fail>

0000000080000104 <test_5>:
    80000104:	0010051b          	addiw	a0,zero,1
    80000108:	01f51513          	slli	a0,a0,0x1f
    8000010c:	f0050553          	fmv.w.x	fa0,a0
    80000110:	e0051553          	fclass.s	a0,fa0
    80000114:	00800e93          	li	t4,8
    80000118:	00500193          	li	gp,5
    8000011c:	0bd51063          	bne	a0,t4,800001bc <fail>

0000000080000120 <test_6>:
    80000120:	00000513          	li	a0,0
    80000124:	f0050553          	fmv.w.x	fa0,a0
    80000128:	e0051553          	fclass.s	a0,fa0
    8000012c:	01000e93          	li	t4,16
    80000130:	00600193          	li	gp,6
    80000134:	09d51463          	bne	a0,t4,800001bc <fail>

0000000080000138 <test_7>:
    80000138:	00800537          	lui	a0,0x800
    8000013c:	fff5051b          	addiw	a0,a0,-1
    80000140:	f0050553          	fmv.w.x	fa0,a0
    80000144:	e0051553          	fclass.s	a0,fa0
    80000148:	02000e93          	li	t4,32
    8000014c:	00700193          	li	gp,7
    80000150:	07d51663          	bne	a0,t4,800001bc <fail>

0000000080000154 <test_8>:
    80000154:	3f800537          	lui	a0,0x3f800
    80000158:	f0050553          	fmv.w.x	fa0,a0
    8000015c:	e0051553          	fclass.s	a0,fa0
    80000160:	04000e93          	li	t4,64
    80000164:	00800193          	li	gp,8
    80000168:	05d51a63          	bne	a0,t4,800001bc <fail>

000000008000016c <test_9>:
    8000016c:	7f800537          	lui	a0,0x7f800
    80000170:	f0050553          	fmv.w.x	fa0,a0
    80000174:	e0051553          	fclass.s	a0,fa0
    80000178:	08000e93          	li	t4,128
    8000017c:	00900193          	li	gp,9
    80000180:	03d51e63          	bne	a0,t4,800001bc <fail>

0000000080000184 <test_10>:
    80000184:	7f800537          	lui	a0,0x7f800
    80000188:	0015051b          	addiw	a0,a0,1
    8000018c:	f0050553          	fmv.w.x	fa0,a0
    80000190:	e0051553          	fclass.s	a0,fa0
    80000194:	10000e93          	li	t4,256
    80000198:	00a00193          	li	gp,10
    8000019c:	03d51063          	bne	a0,t4,800001bc <fail>

00000000800001a0 <test_11>:
    800001a0:	7fc00537          	lui	a0,0x7fc00
    800001a4:	f0050553          	fmv.w.x	fa0,a0
    800001a8:	e0051553          	fclass.s	a0,fa0
    800001ac:	20000e93          	li	t4,512
    800001b0:	00b00193          	li	gp,11
    800001b4:	01d51463          	bne	a0,t4,800001bc <fail>
    800001b8:	00301c63          	bne	zero,gp,800001d0 <pass>

00000000800001bc <fail>:
    800001bc:	0ff0000f          	fence
    800001c0:	00018063          	beqz	gp,800001c0 <fail+0x4>
    800001c4:	00119193          	slli	gp,gp,0x1
    800001c8:	0011e193          	ori	gp,gp,1
    800001cc:	e75ff06f          	j	80000040 <write_tohost>

00000000800001d0 <pass>:
    800001d0:	0ff0000f          	fence
    800001d4:	00100193          	li	gp,1
    800001d8:	e69ff06f          	j	80000040 <write_tohost>
    800001dc:	c0001073          	unimp
	...

./rv64uf-p-fcmp:     file format elf64-littleriscv


Disassembly of section .text.init:

0000000080000000 <_start>:
    80000000:	04c0006f          	j	8000004c <reset_vector>

0000000080000004 <trap_vector>:
    80000004:	34202f73          	csrr	t5,mcause
    80000008:	00800f93          	li	t6,8
    8000000c:	03ff0a63          	beq	t5,t6,80000040 <write_tohost>
    80000010:	00900f93          	li	t6,9
    80000014:	03ff0663          	beq	t5,t6,80000040 <write_tohost>
    80000018:	00b00f93          	li	t6,11
    8000001c:	03ff0263          	beq	t5,t6,80000040 <write_tohost>
    80000020:	80000f17          	auipc	t5,0x80000
    80000024:	fe0f0f13          	addi	t5,t5,-32 # 0 <_start-0x80000000>
    80000028:	000f0463          	beqz	t5,80000030 <trap_vector+0x2c>
    8000002c:	000f0067          	jr	t5
    80000030:	34202f73          	csrr	t5,mcause
    80000034:	000f5463          	bgez	t5,8000003c <handle_exception>
    80000038:	0040006f          	j	8000003c <handle_exception>

000000008000003c <handle_exception>:
    8000003c:	5391e193          	ori	gp,gp,1337

0000000080000040 <write_tohost>:
    80000040:	00001f17          	auipc	t5,0x1
    80000044:	fc3f2023          	sw	gp,-64(t5) # 80001000 <tohost>
    80000048:	ff9ff06f          	j	80000040 <write_tohost>

000000008000004c <reset_vector>:
    8000004c:	f1402573          	csrr	a0,mhartid
    80000050:	00051063          	bnez	a0,80000050 <reset_vector+0x4>
    80000054:	00000297          	auipc	t0,0x0
    80000058:	01028293          	addi	t0,t0,16 # 80000064 <reset_vector+0x18>
    8000005c:	30529073          	csrw	mtvec,t0
    80000060:	18005073          	csrwi	satp,0
    80000064:	00000193          	li	gp,0
    80000068:	00000297          	auipc	t0,0x0
    8000006c:	f9c28293          	addi	t0,t0,-100 # 80000004 <trap_vector>
    80000070:	30529073          	csrw	mtvec,t0
    80000074:	00100513          	li	a0,1
    80000078:	01f51513          	slli	a0,a0,0x1f
    8000007c:	00055863          	bgez	a0,8000008c <reset_vector+0x40>
    80000080:	0ff0000f          	fence
    80000084:	00100193          	li	gp,1
    80000088:	fb9ff06f          	j	80000040 <write_tohost>
    8000008c:	00002537          	lui	a0,0x2
    80000090:	30052073          	csrs	mstatus,a0
    80000094:	00305073          	csrwi	fcsr,0
    80000098:	00000297          	auipc	t0,0x0
    8000009c:	01428293          	addi	t0,t0,20 # 800000ac <test_2>
    800000a0:	34129073          	csrw	mepc,t0
    800000a4:	f1402573          	csrr	a0,mhartid
    800000a8:	00028067          	jr	t0

00000000800000ac <test_2>:
    800000ac:	00200193          	li	gp,2
    800000b0:	00002517          	auipc	a0,0x2
    800000b4:	f5050513          	addi	a0,a0,-176 # 80002000 <test_2_data>
    800000b8:	00052007          	flw	ft0,0(a0)
    800000bc:	00452087          	flw	ft1,4(a0)
    800000c0:	00852107          	flw	ft2,8(a0)
    800000c4:	00c52683          	lw	a3,12(a0)
    800000c8:	a0102553          	feq.s	a0,ft0,ft1
    800000cc:	001015f3          	fsflags	a1,zero
    800000d0:	00000613          	li	a2,0
    800000d4:	2ad51663          	bne	a0,a3,80000380 <fail>
    800000d8:	2ac59463          	bne	a1,a2,80000380 <fail>

00000000800000dc <test_3>:
    800000dc:	00300193          	li	gp,3
    800000e0:	00002517          	auipc	a0,0x2
    800000e4:	f3050513          	addi	a0,a0,-208 # 80002010 <test_3_data>
    800000e8:	00052007          	flw	ft0,0(a0)
    800000ec:	00452087          	flw	ft1,4(a0)
    800000f0:	00852107          	flw	ft2,8(a0)
    800000f4:	00c52683          	lw	a3,12(a0)
    800000f8:	a0100553          	fle.s	a0,ft0,ft1
    800000fc:	001015f3          	fsflags	a1,zero
    80000100:	00000613          	li	a2,0
    80000104:	26d51e63          	bne	a0,a3,80000380 <fail>
    80000108:	26c59c63          	bne	a1,a2,80000380 <fail>

000000008000010c <test_4>:
    8000010c:	00400193          	li	gp,4
    80000110:	00002517          	auipc	a0,0x2
    80000114:	f1050513          	addi	a0,a0,-240 # 80002020 <test_4_data>
    80000118:	00052007          	flw	ft0,0(a0)
    8000011c:	00452087          	flw	ft1,4(a0)
    80000120:	00852107          	flw	ft2,8(a0)
    80000124:	00c52683          	lw	a3,12(a0)
    80000128:	a0101553          	flt.s	a0,ft0,ft1
    8000012c:	001015f3          	fsflags	a1,zero
    80000130:	00000613          	li	a2,0
    80000134:	24d51663          	bne	a0,a3,80000380 <fail>
    80000138:	24c59463          	bne	a1,a2,80000380 <fail>

000000008000013c <test_5>:
    8000013c:	00500193          	li	gp,5
    80000140:	00002517          	auipc	a0,0x2
    80000144:	ef050513          	addi	a0,a0,-272 # 80002030 <test_5_data>
    80000148:	00052007          	flw	ft0,0(a0)
    8000014c:	00452087          	flw	ft1,4(a0)
    80000150:	00852107          	flw	ft2,8(a0)
    80000154:	00c52683          	lw	a3,12(a0)
    80000158:	a0102553          	feq.s	a0,ft0,ft1
    8000015c:	001015f3          	fsflags	a1,zero
    80000160:	00000613          	li	a2,0
    80000164:	20d51e63          	bne	a0,a3,80000380 <fail>
    80000168:	20c59c63          	bne	a1,a2,80000380 <fail>

000000008000016c <test_6>:
    8000016c:	00600193          	li	gp,6
    80000170:	00002517          	auipc	a0,0x2
    80000174:	ed050513          	addi	a0,a0,-304 # 80002040 <test_6_data>
    80000178:	00052007          	flw	ft0,0(a0)
    8000017c:	00452087          	flw	ft1,4(a0)
    80000180:	00852107          	flw	ft2,8(a0)
    80000184:	00c52683          	lw	a3,12(a0)
    80000188:	a0100553          	fle.s	a0,ft0,ft1
    8000018c:	001015f3          	fsflags	a1,zero
    80000190:	00000613          	li	a2,0
    80000194:	1ed51663          	bne	a0,a3,80000380 <fail>
    80000198:	1ec59463          	bne	a1,a2,80000380 <fail>

000000008000019c <test_7>:
    8000019c:	00700193          	li	gp,7
    800001a0:	00002517          	auipc	a0,0x2
    800001a4:	eb050513          	addi	a0,a0,-336 # 80002050 <test_7_data>
    800001a8:	00052007          	flw	ft0,0(a0)
    800001ac:	00452087          	flw	ft1,4(a0)
    800001b0:	00852107          	flw	ft2,8(a0)
    800001b4:	00c52683          	lw	a3,12(a0)
    800001b8:	a0101553          	flt.s	a0,ft0,ft1
    800001bc:	001015f3          	fsflags	a1,zero
    800001c0:	00000613          	li	a2,0
    800001c4:	1ad51e63          	bne	a0,a3,80000380 <fail>
    800001c8:	1ac59c63          	bne	a1,a2,80000380 <fail>

00000000800001cc <test_8>:
    800001cc:	00800193          	li	gp,8
    800001d0:	00002517          	auipc	a0,0x2
    800001d4:	e9050513          	addi	a0,a0,-368 # 80002060 <test_8_data>
    800001d8:	00052007          	flw	ft0,0(a0)
    800001dc:	00452087          	flw	ft1,4(a0)
    800001e0:	00852107          	flw	ft2,8(a0)
    800001e4:	00c52683          	lw	a3,12(a0)
    800001e8:	a0102553          	feq.s	a0,ft0,ft1
    800001ec:	001015f3          	fsflags	a1,zero
    800001f0:	00000613          	li	a2,0
    800001f4:	18d51663          	bne	a0,a3,80000380 <fail>
    800001f8:	18c59463          	bne	a1,a2,80000380 <fail>

00000000800001fc <test_9>:
    800001fc:	00900193          	li	gp,9
    80000200:	00002517          	auipc	a0,0x2
    80000204:	e7050513          	addi	a0,a0,-400 # 80002070 <test_9_data>
    80000208:	00052007          	flw	ft0,0(a0)
    8000020c:	00452087          	flw	ft1,4(a0)
    80000210:	00852107          	flw	ft2,8(a0)
    80000214:	00c52683          	lw	a3,12(a0)
    80000218:	a0102553          	feq.s	a0,ft0,ft1
    8000021c:	001015f3          	fsflags	a1,zero
    80000220:	00000613          	li	a2,0
    80000224:	14d51e63          	bne	a0,a3,80000380 <fail>
    80000228:	14c59c63          	bne	a1,a2,80000380 <fail>

000000008000022c <test_10>:
    8000022c:	00a00193          	li	gp,10
    80000230:	00002517          	auipc	a0,0x2
    80000234:	e5050513          	addi	a0,a0,-432 # 80002080 <test_10_data>
    80000238:	00052007          	flw	ft0,0(a0)
    8000023c:	00452087          	flw	ft1,4(a0)
    80000240:	00852107          	flw	ft2,8(a0)
    80000244:	00c52683          	lw	a3,12(a0)
    80000248:	a0102553          	feq.s	a0,ft0,ft1
    8000024c:	001015f3          	fsflags	a1,zero
    80000250:	01000613          	li	a2,16
    80000254:	12d51663          	bne	a0,a3,80000380 <fail>
    80000258:	12c59463          	bne	a1,a2,80000380 <fail>

000000008000025c <test_11>:
    8000025c:	00b00193          	li	gp,11
    80000260:	00002517          	auipc	a0,0x2
    80000264:	e3050513          	addi	a0,a0,-464 # 80002090 <test_11_data>
    80000268:	00052007          	flw	ft0,0(a0)
    8000026c:	00452087          	flw	ft1,4(a0)
    80000270:	00852107          	flw	ft2,8(a0)
    80000274:	00c52683          	lw	a3,12(a0)
    80000278:	a0101553          	flt.s	a0,ft0,ft1
    8000027c:	001015f3          	fsflags	a1,zero
    80000280:	01000613          	li	a2,16
    80000284:	0ed51e63          	bne	a0,a3,80000380 <fail>
    80000288:	0ec59c63          	bne	a1,a2,80000380 <fail>

000000008000028c <test_12>:
    8000028c:	00c00193          	li	gp,12
    80000290:	00002517          	auipc	a0,0x2
    80000294:	e1050513          	addi	a0,a0,-496 # 800020a0 <test_12_data>
    80000298:	00052007          	flw	ft0,0(a0)
    8000029c:	00452087          	flw	ft1,4(a0)
    800002a0:	00852107          	flw	ft2,8(a0)
    800002a4:	00c52683          	lw	a3,12(a0)
    800002a8:	a0101553          	flt.s	a0,ft0,ft1
    800002ac:	001015f3          	fsflags	a1,zero
    800002b0:	01000613          	li	a2,16
    800002b4:	0cd51663          	bne	a0,a3,80000380 <fail>
    800002b8:	0cc59463          	bne	a1,a2,80000380 <fail>

00000000800002bc <test_13>:
    800002bc:	00d00193          	li	gp,13
    800002c0:	00002517          	auipc	a0,0x2
    800002c4:	df050513          	addi	a0,a0,-528 # 800020b0 <test_13_data>
    800002c8:	00052007          	flw	ft0,0(a0)
    800002cc:	00452087          	flw	ft1,4(a0)
    800002d0:	00852107          	flw	ft2,8(a0)
    800002d4:	00c52683          	lw	a3,12(a0)
    800002d8:	a0101553          	flt.s	a0,ft0,ft1
    800002dc:	001015f3          	fsflags	a1,zero
    800002e0:	01000613          	li	a2,16
    800002e4:	08d51e63          	bne	a0,a3,80000380 <fail>
    800002e8:	08c59c63          	bne	a1,a2,80000380 <fail>

00000000800002ec <test_14>:
    800002ec:	00e00193          	li	gp,14
    800002f0:	00002517          	auipc	a0,0x2
    800002f4:	dd050513          	addi	a0,a0,-560 # 800020c0 <test_14_data>
    800002f8:	00052007          	flw	ft0,0(a0)
    800002fc:	00452087          	flw	ft1,4(a0)
    80000300:	00852107          	flw	ft2,8(a0)
    80000304:	00c52683          	lw	a3,12(a0)
    80000308:	a0100553          	fle.s	a0,ft0,ft1
    8000030c:	001015f3          	fsflags	a1,zero
    80000310:	01000613          	li	a2,16
    80000314:	06d51663          	bne	a0,a3,80000380 <fail>
    80000318:	06c59463          	bne	a1,a2,80000380 <fail>

000000008000031c <test_15>:
    8000031c:	00f00193          	li	gp,15
    80000320:	00002517          	auipc	a0,0x2
    80000324:	db050513          	addi	a0,a0,-592 # 800020d0 <test_15_data>
    80000328:	00052007          	flw	ft0,0(a0)
    8000032c:	00452087          	flw	ft1,4(a0)
    80000330:	00852107          	flw	ft2,8(a0)
    80000334:	00c52683          	lw	a3,12(a0)
    80000338:	a0100553          	fle.s	a0,ft0,ft1
    8000033c:	001015f3          	fsflags	a1,zero
    80000340:	01000613          	li	a2,16
    80000344:	02d51e63          	bne	a0,a3,80000380 <fail>
    80000348:	02c59c63          	bne	a1,a2,80000380 <fail>

000000008000034c <test_16>:
    8000034c:	01000193          	li	gp,16
    80000350:	00002517          	auipc	a0,0x2
    80000354:	d9050513          	addi	a0,a0,-624 # 800020e0 <test_16_data>
    80000358:	00052007          	flw	ft0,0(a0)
    8000035c:	00452087          	flw	ft1,4(a0)
    80000360:	00852107          	flw	ft2,8(a0)
    80000364:	00c52683          	lw	a3,12(a0)
    80000368:	a0100553          	fle.s	a0,ft0,ft1
    8000036c:	001015f3          	fsflags	a1,zero
    80000370:	01000613          	li	a2,16
    80000374:	00d51663          	bne	a0,a3,80000380 <fail>
    80000378:	00c59463          	bne	a1,a2,80000380 <fail>
    8000037c:	00301c63          	bne	zero,gp,80000394 <pass>

0000000080000380 <fail>:
    80000380:	0ff0000f          	fence
    80000384:	00018063          	beqz	gp,80000384 <fail+0x4>
    80000388:	00119193          	slli	gp,gp,0x1
    8000038c:	0011e193          	ori	gp,gp,1
    80000390:	cb1ff06f          	j	80000040 <write_tohost>

0000000080000394 <pass>:
    80000394:	0ff0000f          	fence
    80000398:	00100193          	li	gp,1
    8000039c:	ca5ff06f          	j	80000040 <write_tohost>
    800003a0:	c0001073          	unimp
	...

./rv64uf-p-fcvt:     file format elf64-littleriscv


Disassembly of section .text.init:

0000000080000000 <_start>:
    80000000:	04c0006f          	j	8000004c <reset_vector>

0000000080000004 <trap_vector>:
    80000004:	34202f73          	csrr	t5,mcause
    80000008:	00800f93          	li	t6,8
    8000000c:	03ff0a63          	beq	t5,t6,80000040 <write_tohost>
    80000010:	00900f93          	li	t6,9
    80000014:	03ff0663          	beq	t5,t6,80000040 <write_tohost>
    80000018:	00b00f93          	li	t6,11
    8000001c:	03ff0263          	beq	t5,t6,80000040 <write_tohost>
    80000020:	80000f17          	auipc	t5,0x80000
    80000024:	fe0f0f13          	addi	t5,t5,-32 # 0 <_start-0x80000000>
    80000028:	000f0463          	beqz	t5,80000030 <trap_vector+0x2c>
    8000002c:	000f0067          	jr	t5
    80000030:	34202f73          	csrr	t5,mcause
    80000034:	000f5463          	bgez	t5,8000003c <handle_exception>
    80000038:	0040006f          	j	8000003c <handle_exception>

000000008000003c <handle_exception>:
    8000003c:	5391e193          	ori	gp,gp,1337

0000000080000040 <write_tohost>:
    80000040:	00001f17          	auipc	t5,0x1
    80000044:	fc3f2023          	sw	gp,-64(t5) # 80001000 <tohost>
    80000048:	ff9ff06f          	j	80000040 <write_tohost>

000000008000004c <reset_vector>:
    8000004c:	f1402573          	csrr	a0,mhartid
    80000050:	00051063          	bnez	a0,80000050 <reset_vector+0x4>
    80000054:	00000297          	auipc	t0,0x0
    80000058:	01028293          	addi	t0,t0,16 # 80000064 <reset_vector+0x18>
    8000005c:	30529073          	csrw	mtvec,t0
    80000060:	18005073          	csrwi	satp,0
    80000064:	00000193          	li	gp,0
    80000068:	00000297          	auipc	t0,0x0
    8000006c:	f9c28293          	addi	t0,t0,-100 # 80000004 <trap_vector>
    80000070:	30529073          	csrw	mtvec,t0
    80000074:	00100513          	li	a0,1
    80000078:	01f51513          	slli	a0,a0,0x1f
    8000007c:	00055863          	bgez	a0,8000008c <reset_vector+0x40>
    80000080:	0ff0000f          	fence
    80000084:	00100193          	li	gp,1
    80000088:	fb9ff06f          	j	80000040 <write_tohost>
    8000008c:	00002537          	lui	a0,0x2
    80000090:	30052073          	csrs	mstatus,a0
    80000094:	00305073          	csrwi	fcsr,0
    80000098:	00000297          	auipc	t0,0x0
    8000009c:	01428293          	addi	t0,t0,20 # 800000ac <test_2>
    800000a0:	34129073          	csrw	mepc,t0
    800000a4:	f1402573          	csrr	a0,mhartid
    800000a8:	00028067          	jr	t0

00000000800000ac <test_2>:
    800000ac:	00200193          	li	gp,2
    800000b0:	00002517          	auipc	a0,0x2
    800000b4:	f5050513          	addi	a0,a0,-176 # 80002000 <test_2_data>
    800000b8:	00052683          	lw	a3,0(a0)
    800000bc:	00200513          	li	a0,2
    800000c0:	d0057053          	fcvt.s.w	ft0,a0
    800000c4:	00101073          	fsflags	zero
    800000c8:	e0000553          	fmv.x.w	a0,ft0
    800000cc:	10d51263          	bne	a0,a3,800001d0 <fail>

00000000800000d0 <test_3>:
    800000d0:	00300193          	li	gp,3
    800000d4:	00002517          	auipc	a0,0x2
    800000d8:	f3050513          	addi	a0,a0,-208 # 80002004 <test_3_data>
    800000dc:	00052683          	lw	a3,0(a0)
    800000e0:	ffe00513          	li	a0,-2
    800000e4:	d0057053          	fcvt.s.w	ft0,a0
    800000e8:	00101073          	fsflags	zero
    800000ec:	e0000553          	fmv.x.w	a0,ft0
    800000f0:	0ed51063          	bne	a0,a3,800001d0 <fail>

00000000800000f4 <test_4>:
    800000f4:	00400193          	li	gp,4
    800000f8:	00002517          	auipc	a0,0x2
    800000fc:	f1050513          	addi	a0,a0,-240 # 80002008 <test_4_data>
    80000100:	00052683          	lw	a3,0(a0)
    80000104:	00200513          	li	a0,2
    80000108:	d0157053          	fcvt.s.wu	ft0,a0
    8000010c:	00101073          	fsflags	zero
    80000110:	e0000553          	fmv.x.w	a0,ft0
    80000114:	0ad51e63          	bne	a0,a3,800001d0 <fail>

0000000080000118 <test_5>:
    80000118:	00500193          	li	gp,5
    8000011c:	00002517          	auipc	a0,0x2
    80000120:	ef050513          	addi	a0,a0,-272 # 8000200c <test_5_data>
    80000124:	00052683          	lw	a3,0(a0)
    80000128:	ffe00513          	li	a0,-2
    8000012c:	d0157053          	fcvt.s.wu	ft0,a0
    80000130:	00101073          	fsflags	zero
    80000134:	e0000553          	fmv.x.w	a0,ft0
    80000138:	08d51c63          	bne	a0,a3,800001d0 <fail>

000000008000013c <test_6>:
    8000013c:	00600193          	li	gp,6
    80000140:	00002517          	auipc	a0,0x2
    80000144:	ed050513          	addi	a0,a0,-304 # 80002010 <test_6_data>
    80000148:	00052683          	lw	a3,0(a0)
    8000014c:	00200513          	li	a0,2
    80000150:	d0257053          	fcvt.s.l	ft0,a0
    80000154:	00101073          	fsflags	zero
    80000158:	e0000553          	fmv.x.w	a0,ft0
    8000015c:	06d51a63          	bne	a0,a3,800001d0 <fail>

0000000080000160 <test_7>:
    80000160:	00700193          	li	gp,7
    80000164:	00002517          	auipc	a0,0x2
    80000168:	eb050513          	addi	a0,a0,-336 # 80002014 <test_7_data>
    8000016c:	00052683          	lw	a3,0(a0)
    80000170:	ffe00513          	li	a0,-2
    80000174:	d0257053          	fcvt.s.l	ft0,a0
    80000178:	00101073          	fsflags	zero
    8000017c:	e0000553          	fmv.x.w	a0,ft0
    80000180:	04d51863          	bne	a0,a3,800001d0 <fail>

0000000080000184 <test_8>:
    80000184:	00800193          	li	gp,8
    80000188:	00002517          	auipc	a0,0x2
    8000018c:	e9050513          	addi	a0,a0,-368 # 80002018 <test_8_data>
    80000190:	00052683          	lw	a3,0(a0)
    80000194:	00200513          	li	a0,2
    80000198:	d0357053          	fcvt.s.lu	ft0,a0
    8000019c:	00101073          	fsflags	zero
    800001a0:	e0000553          	fmv.x.w	a0,ft0
    800001a4:	02d51663          	bne	a0,a3,800001d0 <fail>

00000000800001a8 <test_9>:
    800001a8:	00900193          	li	gp,9
    800001ac:	00002517          	auipc	a0,0x2
    800001b0:	e7050513          	addi	a0,a0,-400 # 8000201c <test_9_data>
    800001b4:	00052683          	lw	a3,0(a0)
    800001b8:	ffe00513          	li	a0,-2
    800001bc:	d0357053          	fcvt.s.lu	ft0,a0
    800001c0:	00101073          	fsflags	zero
    800001c4:	e0000553          	fmv.x.w	a0,ft0
    800001c8:	00d51463          	bne	a0,a3,800001d0 <fail>
    800001cc:	00301c63          	bne	zero,gp,800001e4 <pass>

00000000800001d0 <fail>:
    800001d0:	0ff0000f          	fence
    800001d4:	00018063          	beqz	gp,800001d4 <fail+0x4>
    800001d8:	00119193          	slli	gp,gp,0x1
    800001dc:	0011e193          	ori	gp,gp,1
    800001e0:	e61ff06f          	j	80000040 <write_tohost>

00000000800001e4 <pass>:
    800001e4:	0ff0000f          	fence
    800001e8:	00100193          	li	gp,1
    800001ec:	e55ff06f          	j	80000040 <write_tohost>
    800001f0:	c0001073          	unimp
	...

./rv64uf-p-fcvt_w:     file format elf64-littleriscv


Disassembly of section .text.init:

0000000080000000 <_start>:
    80000000:	04c0006f          	j	8000004c <reset_vector>

0000000080000004 <trap_vector>:
    80000004:	34202f73          	csrr	t5,mcause
    80000008:	00800f93          	li	t6,8
    8000000c:	03ff0a63          	beq	t5,t6,80000040 <write_tohost>
    80000010:	00900f93          	li	t6,9
    80000014:	03ff0663          	beq	t5,t6,80000040 <write_tohost>
    80000018:	00b00f93          	li	t6,11
    8000001c:	03ff0263          	beq	t5,t6,80000040 <write_tohost>
    80000020:	80000f17          	auipc	t5,0x80000
    80000024:	fe0f0f13          	addi	t5,t5,-32 # 0 <_start-0x80000000>
    80000028:	000f0463          	beqz	t5,80000030 <trap_vector+0x2c>
    8000002c:	000f0067          	jr	t5
    80000030:	34202f73          	csrr	t5,mcause
    80000034:	000f5463          	bgez	t5,8000003c <handle_exception>
    80000038:	0040006f          	j	8000003c <handle_exception>

000000008000003c <handle_exception>:
    8000003c:	5391e193          	ori	gp,gp,1337

0000000080000040 <write_tohost>:
    80000040:	00001f17          	auipc	t5,0x1
    80000044:	fc3f2023          	sw	gp,-64(t5) # 80001000 <tohost>
    80000048:	ff9ff06f          	j	80000040 <write_tohost>

000000008000004c <reset_vector>:
    8000004c:	f1402573          	csrr	a0,mhartid
    80000050:	00051063          	bnez	a0,80000050 <reset_vector+0x4>
    80000054:	00000297          	auipc	t0,0x0
    80000058:	01028293          	addi	t0,t0,16 # 80000064 <reset_vector+0x18>
    8000005c:	30529073          	csrw	mtvec,t0
    80000060:	18005073          	csrwi	satp,0
    80000064:	00000193          	li	gp,0
    80000068:	00000297          	auipc	t0,0x0
    8000006c:	f9c28293          	addi	t0,t0,-100 # 80000004 <trap_vector>
    80000070:	30529073          	csrw	mtvec,t0
    80000074:	00100513          	li	a0,1
    80000078:	01f51513          	slli	a0,a0,0x1f
    8000007c:	00055863          	bgez	a0,8000008c <reset_vector+0x40>
    80000080:	0ff0000f          	fence
    80000084:	00100193          	li	gp,1
    80000088:	fb9ff06f          	j	80000040 <write_tohost>
    8000008c:	00002537          	lui	a0,0x2
    80000090:	30052073          	csrs	mstatus,a0
    80000094:	00305073          	csrwi	fcsr,0
    80000098:	00000297          	auipc	t0,0x0
    8000009c:	01428293          	addi	t0,t0,20 # 800000ac <test_2>
    800000a0:	34129073          	csrw	mepc,t0
    800000a4:	f1402573          	csrr	a0,mhartid
    800000a8:	00028067          	jr	t0

00000000800000ac <test_2>:
    800000ac:	00200193          	li	gp,2
    800000b0:	00002517          	auipc	a0,0x2
    800000b4:	f5050513          	addi	a0,a0,-176 # 80002000 <test_2_data>
    800000b8:	00052007          	flw	ft0,0(a0)
    800000bc:	00452087          	flw	ft1,4(a0)
    800000c0:	00852107          	flw	ft2,8(a0)
    800000c4:	00c52683          	lw	a3,12(a0)
    800000c8:	c0001553          	fcvt.w.s	a0,ft0,rtz
    800000cc:	001015f3          	fsflags	a1,zero
    800000d0:	00100613          	li	a2,1
    800000d4:	72d51a63          	bne	a0,a3,80000808 <fail>
    800000d8:	72c59863          	bne	a1,a2,80000808 <fail>

00000000800000dc <test_3>:
    800000dc:	00300193          	li	gp,3
    800000e0:	00002517          	auipc	a0,0x2
    800000e4:	f3050513          	addi	a0,a0,-208 # 80002010 <test_3_data>
    800000e8:	00052007          	flw	ft0,0(a0)
    800000ec:	00452087          	flw	ft1,4(a0)
    800000f0:	00852107          	flw	ft2,8(a0)
    800000f4:	00c52683          	lw	a3,12(a0)
    800000f8:	c0001553          	fcvt.w.s	a0,ft0,rtz
    800000fc:	001015f3          	fsflags	a1,zero
    80000100:	00000613          	li	a2,0
    80000104:	70d51263          	bne	a0,a3,80000808 <fail>
    80000108:	70c59063          	bne	a1,a2,80000808 <fail>

000000008000010c <test_4>:
    8000010c:	00400193          	li	gp,4
    80000110:	00002517          	auipc	a0,0x2
    80000114:	f1050513          	addi	a0,a0,-240 # 80002020 <test_4_data>
    80000118:	00052007          	flw	ft0,0(a0)
    8000011c:	00452087          	flw	ft1,4(a0)
    80000120:	00852107          	flw	ft2,8(a0)
    80000124:	00c52683          	lw	a3,12(a0)
    80000128:	c0001553          	fcvt.w.s	a0,ft0,rtz
    8000012c:	001015f3          	fsflags	a1,zero
    80000130:	00100613          	li	a2,1
    80000134:	6cd51a63          	bne	a0,a3,80000808 <fail>
    80000138:	6cc59863          	bne	a1,a2,80000808 <fail>

000000008000013c <test_5>:
    8000013c:	00500193          	li	gp,5
    80000140:	00002517          	auipc	a0,0x2
    80000144:	ef050513          	addi	a0,a0,-272 # 80002030 <test_5_data>
    80000148:	00052007          	flw	ft0,0(a0)
    8000014c:	00452087          	flw	ft1,4(a0)
    80000150:	00852107          	flw	ft2,8(a0)
    80000154:	00c52683          	lw	a3,12(a0)
    80000158:	c0001553          	fcvt.w.s	a0,ft0,rtz
    8000015c:	001015f3          	fsflags	a1,zero
    80000160:	00100613          	li	a2,1
    80000164:	6ad51263          	bne	a0,a3,80000808 <fail>
    80000168:	6ac59063          	bne	a1,a2,80000808 <fail>

000000008000016c <test_6>:
    8000016c:	00600193          	li	gp,6
    80000170:	00002517          	auipc	a0,0x2
    80000174:	ed050513          	addi	a0,a0,-304 # 80002040 <test_6_data>
    80000178:	00052007          	flw	ft0,0(a0)
    8000017c:	00452087          	flw	ft1,4(a0)
    80000180:	00852107          	flw	ft2,8(a0)
    80000184:	00c52683          	lw	a3,12(a0)
    80000188:	c0001553          	fcvt.w.s	a0,ft0,rtz
    8000018c:	001015f3          	fsflags	a1,zero
    80000190:	00000613          	li	a2,0
    80000194:	66d51a63          	bne	a0,a3,80000808 <fail>
    80000198:	66c59863          	bne	a1,a2,80000808 <fail>

000000008000019c <test_7>:
    8000019c:	00700193          	li	gp,7
    800001a0:	00002517          	auipc	a0,0x2
    800001a4:	eb050513          	addi	a0,a0,-336 # 80002050 <test_7_data>
    800001a8:	00052007          	flw	ft0,0(a0)
    800001ac:	00452087          	flw	ft1,4(a0)
    800001b0:	00852107          	flw	ft2,8(a0)
    800001b4:	00c52683          	lw	a3,12(a0)
    800001b8:	c0001553          	fcvt.w.s	a0,ft0,rtz
    800001bc:	001015f3          	fsflags	a1,zero
    800001c0:	00100613          	li	a2,1
    800001c4:	64d51263          	bne	a0,a3,80000808 <fail>
    800001c8:	64c59063          	bne	a1,a2,80000808 <fail>

00000000800001cc <test_8>:
    800001cc:	00800193          	li	gp,8
    800001d0:	00002517          	auipc	a0,0x2
    800001d4:	e9050513          	addi	a0,a0,-368 # 80002060 <test_8_data>
    800001d8:	00052007          	flw	ft0,0(a0)
    800001dc:	00452087          	flw	ft1,4(a0)
    800001e0:	00852107          	flw	ft2,8(a0)
    800001e4:	00c52683          	lw	a3,12(a0)
    800001e8:	c0001553          	fcvt.w.s	a0,ft0,rtz
    800001ec:	001015f3          	fsflags	a1,zero
    800001f0:	01000613          	li	a2,16
    800001f4:	60d51a63          	bne	a0,a3,80000808 <fail>
    800001f8:	60c59863          	bne	a1,a2,80000808 <fail>

00000000800001fc <test_9>:
    800001fc:	00900193          	li	gp,9
    80000200:	00002517          	auipc	a0,0x2
    80000204:	e7050513          	addi	a0,a0,-400 # 80002070 <test_9_data>
    80000208:	00052007          	flw	ft0,0(a0)
    8000020c:	00452087          	flw	ft1,4(a0)
    80000210:	00852107          	flw	ft2,8(a0)
    80000214:	00c52683          	lw	a3,12(a0)
    80000218:	c0001553          	fcvt.w.s	a0,ft0,rtz
    8000021c:	001015f3          	fsflags	a1,zero
    80000220:	01000613          	li	a2,16
    80000224:	5ed51263          	bne	a0,a3,80000808 <fail>
    80000228:	5ec59063          	bne	a1,a2,80000808 <fail>

000000008000022c <test_12>:
    8000022c:	00c00193          	li	gp,12
    80000230:	00002517          	auipc	a0,0x2
    80000234:	e5050513          	addi	a0,a0,-432 # 80002080 <test_12_data>
    80000238:	00052007          	flw	ft0,0(a0)
    8000023c:	00452087          	flw	ft1,4(a0)
    80000240:	00852107          	flw	ft2,8(a0)
    80000244:	00c52683          	lw	a3,12(a0)
    80000248:	c0101553          	fcvt.wu.s	a0,ft0,rtz
    8000024c:	001015f3          	fsflags	a1,zero
    80000250:	01000613          	li	a2,16
    80000254:	5ad51a63          	bne	a0,a3,80000808 <fail>
    80000258:	5ac59863          	bne	a1,a2,80000808 <fail>

000000008000025c <test_13>:
    8000025c:	00d00193          	li	gp,13
    80000260:	00002517          	auipc	a0,0x2
    80000264:	e3050513          	addi	a0,a0,-464 # 80002090 <test_13_data>
    80000268:	00052007          	flw	ft0,0(a0)
    8000026c:	00452087          	flw	ft1,4(a0)
    80000270:	00852107          	flw	ft2,8(a0)
    80000274:	00c52683          	lw	a3,12(a0)
    80000278:	c0101553          	fcvt.wu.s	a0,ft0,rtz
    8000027c:	001015f3          	fsflags	a1,zero
    80000280:	01000613          	li	a2,16
    80000284:	58d51263          	bne	a0,a3,80000808 <fail>
    80000288:	58c59063          	bne	a1,a2,80000808 <fail>

000000008000028c <test_14>:
    8000028c:	00e00193          	li	gp,14
    80000290:	00002517          	auipc	a0,0x2
    80000294:	e1050513          	addi	a0,a0,-496 # 800020a0 <test_14_data>
    80000298:	00052007          	flw	ft0,0(a0)
    8000029c:	00452087          	flw	ft1,4(a0)
    800002a0:	00852107          	flw	ft2,8(a0)
    800002a4:	00c52683          	lw	a3,12(a0)
    800002a8:	c0101553          	fcvt.wu.s	a0,ft0,rtz
    800002ac:	001015f3          	fsflags	a1,zero
    800002b0:	00100613          	li	a2,1
    800002b4:	54d51a63          	bne	a0,a3,80000808 <fail>
    800002b8:	54c59863          	bne	a1,a2,80000808 <fail>

00000000800002bc <test_15>:
    800002bc:	00f00193          	li	gp,15
    800002c0:	00002517          	auipc	a0,0x2
    800002c4:	df050513          	addi	a0,a0,-528 # 800020b0 <test_15_data>
    800002c8:	00052007          	flw	ft0,0(a0)
    800002cc:	00452087          	flw	ft1,4(a0)
    800002d0:	00852107          	flw	ft2,8(a0)
    800002d4:	00c52683          	lw	a3,12(a0)
    800002d8:	c0101553          	fcvt.wu.s	a0,ft0,rtz
    800002dc:	001015f3          	fsflags	a1,zero
    800002e0:	00100613          	li	a2,1
    800002e4:	52d51263          	bne	a0,a3,80000808 <fail>
    800002e8:	52c59063          	bne	a1,a2,80000808 <fail>

00000000800002ec <test_16>:
    800002ec:	01000193          	li	gp,16
    800002f0:	00002517          	auipc	a0,0x2
    800002f4:	dd050513          	addi	a0,a0,-560 # 800020c0 <test_16_data>
    800002f8:	00052007          	flw	ft0,0(a0)
    800002fc:	00452087          	flw	ft1,4(a0)
    80000300:	00852107          	flw	ft2,8(a0)
    80000304:	00c52683          	lw	a3,12(a0)
    80000308:	c0101553          	fcvt.wu.s	a0,ft0,rtz
    8000030c:	001015f3          	fsflags	a1,zero
    80000310:	00000613          	li	a2,0
    80000314:	4ed51a63          	bne	a0,a3,80000808 <fail>
    80000318:	4ec59863          	bne	a1,a2,80000808 <fail>

000000008000031c <test_17>:
    8000031c:	01100193          	li	gp,17
    80000320:	00002517          	auipc	a0,0x2
    80000324:	db050513          	addi	a0,a0,-592 # 800020d0 <test_17_data>
    80000328:	00052007          	flw	ft0,0(a0)
    8000032c:	00452087          	flw	ft1,4(a0)
    80000330:	00852107          	flw	ft2,8(a0)
    80000334:	00c52683          	lw	a3,12(a0)
    80000338:	c0101553          	fcvt.wu.s	a0,ft0,rtz
    8000033c:	001015f3          	fsflags	a1,zero
    80000340:	00100613          	li	a2,1
    80000344:	4cd51263          	bne	a0,a3,80000808 <fail>
    80000348:	4cc59063          	bne	a1,a2,80000808 <fail>

000000008000034c <test_18>:
    8000034c:	01200193          	li	gp,18
    80000350:	00002517          	auipc	a0,0x2
    80000354:	d9050513          	addi	a0,a0,-624 # 800020e0 <test_18_data>
    80000358:	00052007          	flw	ft0,0(a0)
    8000035c:	00452087          	flw	ft1,4(a0)
    80000360:	00852107          	flw	ft2,8(a0)
    80000364:	00c52683          	lw	a3,12(a0)
    80000368:	c0101553          	fcvt.wu.s	a0,ft0,rtz
    8000036c:	001015f3          	fsflags	a1,zero
    80000370:	01000613          	li	a2,16
    80000374:	48d51a63          	bne	a0,a3,80000808 <fail>
    80000378:	48c59863          	bne	a1,a2,80000808 <fail>

000000008000037c <test_19>:
    8000037c:	01300193          	li	gp,19
    80000380:	00002517          	auipc	a0,0x2
    80000384:	d7050513          	addi	a0,a0,-656 # 800020f0 <test_19_data>
    80000388:	00052007          	flw	ft0,0(a0)
    8000038c:	00452087          	flw	ft1,4(a0)
    80000390:	00852107          	flw	ft2,8(a0)
    80000394:	00c52683          	lw	a3,12(a0)
    80000398:	c0101553          	fcvt.wu.s	a0,ft0,rtz
    8000039c:	001015f3          	fsflags	a1,zero
    800003a0:	00000613          	li	a2,0
    800003a4:	46d51263          	bne	a0,a3,80000808 <fail>
    800003a8:	46c59063          	bne	a1,a2,80000808 <fail>

00000000800003ac <test_22>:
    800003ac:	01600193          	li	gp,22
    800003b0:	00002517          	auipc	a0,0x2
    800003b4:	d5050513          	addi	a0,a0,-688 # 80002100 <test_22_data>
    800003b8:	00052007          	flw	ft0,0(a0)
    800003bc:	00452087          	flw	ft1,4(a0)
    800003c0:	00852107          	flw	ft2,8(a0)
    800003c4:	00c52683          	lw	a3,12(a0)
    800003c8:	c0201553          	fcvt.l.s	a0,ft0,rtz
    800003cc:	001015f3          	fsflags	a1,zero
    800003d0:	00100613          	li	a2,1
    800003d4:	42d51a63          	bne	a0,a3,80000808 <fail>
    800003d8:	42c59863          	bne	a1,a2,80000808 <fail>

00000000800003dc <test_23>:
    800003dc:	01700193          	li	gp,23
    800003e0:	00002517          	auipc	a0,0x2
    800003e4:	d3050513          	addi	a0,a0,-720 # 80002110 <test_23_data>
    800003e8:	00052007          	flw	ft0,0(a0)
    800003ec:	00452087          	flw	ft1,4(a0)
    800003f0:	00852107          	flw	ft2,8(a0)
    800003f4:	00c52683          	lw	a3,12(a0)
    800003f8:	c0201553          	fcvt.l.s	a0,ft0,rtz
    800003fc:	001015f3          	fsflags	a1,zero
    80000400:	00000613          	li	a2,0
    80000404:	40d51263          	bne	a0,a3,80000808 <fail>
    80000408:	40c59063          	bne	a1,a2,80000808 <fail>

000000008000040c <test_24>:
    8000040c:	01800193          	li	gp,24
    80000410:	00002517          	auipc	a0,0x2
    80000414:	d1050513          	addi	a0,a0,-752 # 80002120 <test_24_data>
    80000418:	00052007          	flw	ft0,0(a0)
    8000041c:	00452087          	flw	ft1,4(a0)
    80000420:	00852107          	flw	ft2,8(a0)
    80000424:	00c52683          	lw	a3,12(a0)
    80000428:	c0201553          	fcvt.l.s	a0,ft0,rtz
    8000042c:	001015f3          	fsflags	a1,zero
    80000430:	00100613          	li	a2,1
    80000434:	3cd51a63          	bne	a0,a3,80000808 <fail>
    80000438:	3cc59863          	bne	a1,a2,80000808 <fail>

000000008000043c <test_25>:
    8000043c:	01900193          	li	gp,25
    80000440:	00002517          	auipc	a0,0x2
    80000444:	cf050513          	addi	a0,a0,-784 # 80002130 <test_25_data>
    80000448:	00052007          	flw	ft0,0(a0)
    8000044c:	00452087          	flw	ft1,4(a0)
    80000450:	00852107          	flw	ft2,8(a0)
    80000454:	00c52683          	lw	a3,12(a0)
    80000458:	c0201553          	fcvt.l.s	a0,ft0,rtz
    8000045c:	001015f3          	fsflags	a1,zero
    80000460:	00100613          	li	a2,1
    80000464:	3ad51263          	bne	a0,a3,80000808 <fail>
    80000468:	3ac59063          	bne	a1,a2,80000808 <fail>

000000008000046c <test_26>:
    8000046c:	01a00193          	li	gp,26
    80000470:	00002517          	auipc	a0,0x2
    80000474:	cd050513          	addi	a0,a0,-816 # 80002140 <test_26_data>
    80000478:	00052007          	flw	ft0,0(a0)
    8000047c:	00452087          	flw	ft1,4(a0)
    80000480:	00852107          	flw	ft2,8(a0)
    80000484:	00c52683          	lw	a3,12(a0)
    80000488:	c0201553          	fcvt.l.s	a0,ft0,rtz
    8000048c:	001015f3          	fsflags	a1,zero
    80000490:	00000613          	li	a2,0
    80000494:	36d51a63          	bne	a0,a3,80000808 <fail>
    80000498:	36c59863          	bne	a1,a2,80000808 <fail>

000000008000049c <test_27>:
    8000049c:	01b00193          	li	gp,27
    800004a0:	00002517          	auipc	a0,0x2
    800004a4:	cb050513          	addi	a0,a0,-848 # 80002150 <test_27_data>
    800004a8:	00052007          	flw	ft0,0(a0)
    800004ac:	00452087          	flw	ft1,4(a0)
    800004b0:	00852107          	flw	ft2,8(a0)
    800004b4:	00c52683          	lw	a3,12(a0)
    800004b8:	c0201553          	fcvt.l.s	a0,ft0,rtz
    800004bc:	001015f3          	fsflags	a1,zero
    800004c0:	00100613          	li	a2,1
    800004c4:	34d51263          	bne	a0,a3,80000808 <fail>
    800004c8:	34c59063          	bne	a1,a2,80000808 <fail>

00000000800004cc <test_32>:
    800004cc:	02000193          	li	gp,32
    800004d0:	00002517          	auipc	a0,0x2
    800004d4:	c9050513          	addi	a0,a0,-880 # 80002160 <test_32_data>
    800004d8:	00052007          	flw	ft0,0(a0)
    800004dc:	00452087          	flw	ft1,4(a0)
    800004e0:	00852107          	flw	ft2,8(a0)
    800004e4:	00c52683          	lw	a3,12(a0)
    800004e8:	c0301553          	fcvt.lu.s	a0,ft0,rtz
    800004ec:	001015f3          	fsflags	a1,zero
    800004f0:	01000613          	li	a2,16
    800004f4:	30d51a63          	bne	a0,a3,80000808 <fail>
    800004f8:	30c59863          	bne	a1,a2,80000808 <fail>

00000000800004fc <test_33>:
    800004fc:	02100193          	li	gp,33
    80000500:	00002517          	auipc	a0,0x2
    80000504:	c7050513          	addi	a0,a0,-912 # 80002170 <test_33_data>
    80000508:	00052007          	flw	ft0,0(a0)
    8000050c:	00452087          	flw	ft1,4(a0)
    80000510:	00852107          	flw	ft2,8(a0)
    80000514:	00c52683          	lw	a3,12(a0)
    80000518:	c0301553          	fcvt.lu.s	a0,ft0,rtz
    8000051c:	001015f3          	fsflags	a1,zero
    80000520:	01000613          	li	a2,16
    80000524:	2ed51263          	bne	a0,a3,80000808 <fail>
    80000528:	2ec59063          	bne	a1,a2,80000808 <fail>

000000008000052c <test_34>:
    8000052c:	02200193          	li	gp,34
    80000530:	00002517          	auipc	a0,0x2
    80000534:	c5050513          	addi	a0,a0,-944 # 80002180 <test_34_data>
    80000538:	00052007          	flw	ft0,0(a0)
    8000053c:	00452087          	flw	ft1,4(a0)
    80000540:	00852107          	flw	ft2,8(a0)
    80000544:	00c52683          	lw	a3,12(a0)
    80000548:	c0301553          	fcvt.lu.s	a0,ft0,rtz
    8000054c:	001015f3          	fsflags	a1,zero
    80000550:	00100613          	li	a2,1
    80000554:	2ad51a63          	bne	a0,a3,80000808 <fail>
    80000558:	2ac59863          	bne	a1,a2,80000808 <fail>

000000008000055c <test_35>:
    8000055c:	02300193          	li	gp,35
    80000560:	00002517          	auipc	a0,0x2
    80000564:	c3050513          	addi	a0,a0,-976 # 80002190 <test_35_data>
    80000568:	00052007          	flw	ft0,0(a0)
    8000056c:	00452087          	flw	ft1,4(a0)
    80000570:	00852107          	flw	ft2,8(a0)
    80000574:	00c52683          	lw	a3,12(a0)
    80000578:	c0301553          	fcvt.lu.s	a0,ft0,rtz
    8000057c:	001015f3          	fsflags	a1,zero
    80000580:	00100613          	li	a2,1
    80000584:	28d51263          	bne	a0,a3,80000808 <fail>
    80000588:	28c59063          	bne	a1,a2,80000808 <fail>

000000008000058c <test_36>:
    8000058c:	02400193          	li	gp,36
    80000590:	00002517          	auipc	a0,0x2
    80000594:	c1050513          	addi	a0,a0,-1008 # 800021a0 <test_36_data>
    80000598:	00052007          	flw	ft0,0(a0)
    8000059c:	00452087          	flw	ft1,4(a0)
    800005a0:	00852107          	flw	ft2,8(a0)
    800005a4:	00c52683          	lw	a3,12(a0)
    800005a8:	c0301553          	fcvt.lu.s	a0,ft0,rtz
    800005ac:	001015f3          	fsflags	a1,zero
    800005b0:	00000613          	li	a2,0
    800005b4:	24d51a63          	bne	a0,a3,80000808 <fail>
    800005b8:	24c59863          	bne	a1,a2,80000808 <fail>

00000000800005bc <test_37>:
    800005bc:	02500193          	li	gp,37
    800005c0:	00002517          	auipc	a0,0x2
    800005c4:	bf050513          	addi	a0,a0,-1040 # 800021b0 <test_37_data>
    800005c8:	00052007          	flw	ft0,0(a0)
    800005cc:	00452087          	flw	ft1,4(a0)
    800005d0:	00852107          	flw	ft2,8(a0)
    800005d4:	00c52683          	lw	a3,12(a0)
    800005d8:	c0301553          	fcvt.lu.s	a0,ft0,rtz
    800005dc:	001015f3          	fsflags	a1,zero
    800005e0:	00100613          	li	a2,1
    800005e4:	22d51263          	bne	a0,a3,80000808 <fail>
    800005e8:	22c59063          	bne	a1,a2,80000808 <fail>

00000000800005ec <test_38>:
    800005ec:	02600193          	li	gp,38
    800005f0:	00002517          	auipc	a0,0x2
    800005f4:	bd050513          	addi	a0,a0,-1072 # 800021c0 <test_38_data>
    800005f8:	00052007          	flw	ft0,0(a0)
    800005fc:	00452087          	flw	ft1,4(a0)
    80000600:	00852107          	flw	ft2,8(a0)
    80000604:	00c52683          	lw	a3,12(a0)
    80000608:	c0301553          	fcvt.lu.s	a0,ft0,rtz
    8000060c:	001015f3          	fsflags	a1,zero
    80000610:	01000613          	li	a2,16
    80000614:	1ed51a63          	bne	a0,a3,80000808 <fail>
    80000618:	1ec59863          	bne	a1,a2,80000808 <fail>

000000008000061c <test_42>:
    8000061c:	00002097          	auipc	ra,0x2
    80000620:	bb408093          	addi	ra,ra,-1100 # 800021d0 <begin_signature>
    80000624:	0000a087          	flw	ft1,0(ra)
    80000628:	c000f0d3          	fcvt.w.s	ra,ft1
    8000062c:	80000eb7          	lui	t4,0x80000
    80000630:	fffe8e9b          	addiw	t4,t4,-1
    80000634:	02a00193          	li	gp,42
    80000638:	1dd09863          	bne	ra,t4,80000808 <fail>

000000008000063c <test_44>:
    8000063c:	00002097          	auipc	ra,0x2
    80000640:	b9408093          	addi	ra,ra,-1132 # 800021d0 <begin_signature>
    80000644:	0080a087          	flw	ft1,8(ra)
    80000648:	c000f0d3          	fcvt.w.s	ra,ft1
    8000064c:	80000eb7          	lui	t4,0x80000
    80000650:	02c00193          	li	gp,44
    80000654:	1bd09a63          	bne	ra,t4,80000808 <fail>

0000000080000658 <test_43>:
    80000658:	00002097          	auipc	ra,0x2
    8000065c:	b7808093          	addi	ra,ra,-1160 # 800021d0 <begin_signature>
    80000660:	0000a087          	flw	ft1,0(ra)
    80000664:	c020f0d3          	fcvt.l.s	ra,ft1
    80000668:	fff00e9b          	addiw	t4,zero,-1
    8000066c:	03fe9e93          	slli	t4,t4,0x3f
    80000670:	fffe8e93          	addi	t4,t4,-1 # ffffffff7fffffff <_end+0xfffffffeffffddff>
    80000674:	02b00193          	li	gp,43
    80000678:	19d09863          	bne	ra,t4,80000808 <fail>

000000008000067c <test_45>:
    8000067c:	00002097          	auipc	ra,0x2
    80000680:	b5408093          	addi	ra,ra,-1196 # 800021d0 <begin_signature>
    80000684:	0080a087          	flw	ft1,8(ra)
    80000688:	c020f0d3          	fcvt.l.s	ra,ft1
    8000068c:	fff00e9b          	addiw	t4,zero,-1
    80000690:	03fe9e93          	slli	t4,t4,0x3f
    80000694:	02d00193          	li	gp,45
    80000698:	17d09863          	bne	ra,t4,80000808 <fail>

000000008000069c <test_52>:
    8000069c:	00002097          	auipc	ra,0x2
    800006a0:	b3408093          	addi	ra,ra,-1228 # 800021d0 <begin_signature>
    800006a4:	0040a087          	flw	ft1,4(ra)
    800006a8:	c000f0d3          	fcvt.w.s	ra,ft1
    800006ac:	80000eb7          	lui	t4,0x80000
    800006b0:	fffe8e9b          	addiw	t4,t4,-1
    800006b4:	03400193          	li	gp,52
    800006b8:	15d09863          	bne	ra,t4,80000808 <fail>

00000000800006bc <test_54>:
    800006bc:	00002097          	auipc	ra,0x2
    800006c0:	b1408093          	addi	ra,ra,-1260 # 800021d0 <begin_signature>
    800006c4:	00c0a087          	flw	ft1,12(ra)
    800006c8:	c000f0d3          	fcvt.w.s	ra,ft1
    800006cc:	80000eb7          	lui	t4,0x80000
    800006d0:	fffe8e9b          	addiw	t4,t4,-1
    800006d4:	03600193          	li	gp,54
    800006d8:	13d09863          	bne	ra,t4,80000808 <fail>

00000000800006dc <test_53>:
    800006dc:	00002097          	auipc	ra,0x2
    800006e0:	af408093          	addi	ra,ra,-1292 # 800021d0 <begin_signature>
    800006e4:	0040a087          	flw	ft1,4(ra)
    800006e8:	c020f0d3          	fcvt.l.s	ra,ft1
    800006ec:	fff00e9b          	addiw	t4,zero,-1
    800006f0:	03fe9e93          	slli	t4,t4,0x3f
    800006f4:	fffe8e93          	addi	t4,t4,-1 # ffffffff7fffffff <_end+0xfffffffeffffddff>
    800006f8:	03500193          	li	gp,53
    800006fc:	11d09663          	bne	ra,t4,80000808 <fail>

0000000080000700 <test_55>:
    80000700:	00002097          	auipc	ra,0x2
    80000704:	ad008093          	addi	ra,ra,-1328 # 800021d0 <begin_signature>
    80000708:	00c0a087          	flw	ft1,12(ra)
    8000070c:	c020f0d3          	fcvt.l.s	ra,ft1
    80000710:	fff00e9b          	addiw	t4,zero,-1
    80000714:	03fe9e93          	slli	t4,t4,0x3f
    80000718:	fffe8e93          	addi	t4,t4,-1
    8000071c:	03700193          	li	gp,55
    80000720:	0fd09463          	bne	ra,t4,80000808 <fail>

0000000080000724 <test_62>:
    80000724:	00002097          	auipc	ra,0x2
    80000728:	aac08093          	addi	ra,ra,-1364 # 800021d0 <begin_signature>
    8000072c:	0000a087          	flw	ft1,0(ra)
    80000730:	c010f0d3          	fcvt.wu.s	ra,ft1
    80000734:	fff00e93          	li	t4,-1
    80000738:	03e00193          	li	gp,62
    8000073c:	0dd09663          	bne	ra,t4,80000808 <fail>

0000000080000740 <test_63>:
    80000740:	00002097          	auipc	ra,0x2
    80000744:	a9008093          	addi	ra,ra,-1392 # 800021d0 <begin_signature>
    80000748:	0040a087          	flw	ft1,4(ra)
    8000074c:	c010f0d3          	fcvt.wu.s	ra,ft1
    80000750:	fff00e93          	li	t4,-1
    80000754:	03f00193          	li	gp,63
    80000758:	0bd09863          	bne	ra,t4,80000808 <fail>

000000008000075c <test_64>:
    8000075c:	00002097          	auipc	ra,0x2
    80000760:	a7408093          	addi	ra,ra,-1420 # 800021d0 <begin_signature>
    80000764:	0080a087          	flw	ft1,8(ra)
    80000768:	c010f0d3          	fcvt.wu.s	ra,ft1
    8000076c:	00000e93          	li	t4,0
    80000770:	04000193          	li	gp,64
    80000774:	09d09a63          	bne	ra,t4,80000808 <fail>

0000000080000778 <test_65>:
    80000778:	00002097          	auipc	ra,0x2
    8000077c:	a5808093          	addi	ra,ra,-1448 # 800021d0 <begin_signature>
    80000780:	00c0a087          	flw	ft1,12(ra)
    80000784:	c010f0d3          	fcvt.wu.s	ra,ft1
    80000788:	fff00e93          	li	t4,-1
    8000078c:	04100193          	li	gp,65
    80000790:	07d09c63          	bne	ra,t4,80000808 <fail>

0000000080000794 <test_66>:
    80000794:	00002097          	auipc	ra,0x2
    80000798:	a3c08093          	addi	ra,ra,-1476 # 800021d0 <begin_signature>
    8000079c:	0000a087          	flw	ft1,0(ra)
    800007a0:	c030f0d3          	fcvt.lu.s	ra,ft1
    800007a4:	fff00e93          	li	t4,-1
    800007a8:	04200193          	li	gp,66
    800007ac:	05d09e63          	bne	ra,t4,80000808 <fail>

00000000800007b0 <test_67>:
    800007b0:	00002097          	auipc	ra,0x2
    800007b4:	a2008093          	addi	ra,ra,-1504 # 800021d0 <begin_signature>
    800007b8:	0040a087          	flw	ft1,4(ra)
    800007bc:	c030f0d3          	fcvt.lu.s	ra,ft1
    800007c0:	fff00e93          	li	t4,-1
    800007c4:	04300193          	li	gp,67
    800007c8:	05d09063          	bne	ra,t4,80000808 <fail>

00000000800007cc <test_68>:
    800007cc:	00002097          	auipc	ra,0x2
    800007d0:	a0408093          	addi	ra,ra,-1532 # 800021d0 <begin_signature>
    800007d4:	0080a087          	flw	ft1,8(ra)
    800007d8:	c030f0d3          	fcvt.lu.s	ra,ft1
    800007dc:	00000e93          	li	t4,0
    800007e0:	04400193          	li	gp,68
    800007e4:	03d09263          	bne	ra,t4,80000808 <fail>

00000000800007e8 <test_69>:
    800007e8:	00002097          	auipc	ra,0x2
    800007ec:	9e808093          	addi	ra,ra,-1560 # 800021d0 <begin_signature>
    800007f0:	00c0a087          	flw	ft1,12(ra)
    800007f4:	c030f0d3          	fcvt.lu.s	ra,ft1
    800007f8:	fff00e93          	li	t4,-1
    800007fc:	04500193          	li	gp,69
    80000800:	01d09463          	bne	ra,t4,80000808 <fail>
    80000804:	00301c63          	bne	zero,gp,8000081c <pass>

0000000080000808 <fail>:
    80000808:	0ff0000f          	fence
    8000080c:	00018063          	beqz	gp,8000080c <fail+0x4>
    80000810:	00119193          	slli	gp,gp,0x1
    80000814:	0011e193          	ori	gp,gp,1
    80000818:	829ff06f          	j	80000040 <write_tohost>

000000008000081c <pass>:
    8000081c:	0ff0000f          	fence
    80000820:	00100193          	li	gp,1
    80000824:	81dff06f          	j	80000040 <write_tohost>
    80000828:	c0001073          	unimp
	...

./rv64uf-p-fdiv:     file format elf64-littleriscv


Disassembly of section .text.init:

0000000080000000 <_start>:
    80000000:	04c0006f          	j	8000004c <reset_vector>

0000000080000004 <trap_vector>:
    80000004:	34202f73          	csrr	t5,mcause
    80000008:	00800f93          	li	t6,8
    8000000c:	03ff0a63          	beq	t5,t6,80000040 <write_tohost>
    80000010:	00900f93          	li	t6,9
    80000014:	03ff0663          	beq	t5,t6,80000040 <write_tohost>
    80000018:	00b00f93          	li	t6,11
    8000001c:	03ff0263          	beq	t5,t6,80000040 <write_tohost>
    80000020:	80000f17          	auipc	t5,0x80000
    80000024:	fe0f0f13          	addi	t5,t5,-32 # 0 <_start-0x80000000>
    80000028:	000f0463          	beqz	t5,80000030 <trap_vector+0x2c>
    8000002c:	000f0067          	jr	t5
    80000030:	34202f73          	csrr	t5,mcause
