
output.riscv:     file format elf64-littleriscv


Disassembly of section .text:

0000000080000000 <main>:
    80000000:	40000137          	lui	sp,0x40000
    80000004:	00111113          	slli	sp,sp,0x1
    80000008:	000101b7          	lui	gp,0x10
    8000000c:	00310133          	add	sp,sp,gp
    80000010:	000032b7          	lui	t0,0x3
    80000014:	3002a073          	csrs	mstatus,t0
    80000018:	09f00293          	li	t0,159
    8000001c:	0032a073          	csrs	fcsr,t0
    80000020:	00813083          	ld	ra,8(sp) # 40000008 <main-0x3ffffff8>
    80000024:	01813183          	ld	gp,24(sp)
    80000028:	02013203          	ld	tp,32(sp)
    8000002c:	02813283          	ld	t0,40(sp)
    80000030:	03013303          	ld	t1,48(sp)
    80000034:	03813383          	ld	t2,56(sp)
    80000038:	04013403          	ld	s0,64(sp)
    8000003c:	04813483          	ld	s1,72(sp)
    80000040:	05013503          	ld	a0,80(sp)
    80000044:	05813583          	ld	a1,88(sp)
    80000048:	06013603          	ld	a2,96(sp)
    8000004c:	06813683          	ld	a3,104(sp)
    80000050:	07013703          	ld	a4,112(sp)
    80000054:	07813783          	ld	a5,120(sp)
    80000058:	08013803          	ld	a6,128(sp)
    8000005c:	08813883          	ld	a7,136(sp)
    80000060:	09013903          	ld	s2,144(sp)
    80000064:	09813983          	ld	s3,152(sp)
    80000068:	0a013a03          	ld	s4,160(sp)
    8000006c:	0a813a83          	ld	s5,168(sp)
    80000070:	0b013b03          	ld	s6,176(sp)
    80000074:	0b813b83          	ld	s7,184(sp)
    80000078:	0c013c03          	ld	s8,192(sp)
    8000007c:	0c813c83          	ld	s9,200(sp)
    80000080:	0d013d03          	ld	s10,208(sp)
    80000084:	0d813d83          	ld	s11,216(sp)
    80000088:	0e013e03          	ld	t3,224(sp)
    8000008c:	0e813e83          	ld	t4,232(sp)
    80000090:	0f013f03          	ld	t5,240(sp)
    80000094:	0f813f83          	ld	t6,248(sp)

0000000080000098 <i_0>:
    80000098:	f1f13c23          	sd	t6,-232(sp)

000000008000009c <i_1>:
    8000009c:	027ff463          	bleu	t2,t6,800000c4 <i_11>

00000000800000a0 <i_2>:
    800000a0:	0113abb3          	slt	s7,t2,a7

00000000800000a4 <i_3>:
    800000a4:	ed311223          	sh	s3,-316(sp)

00000000800000a8 <i_4>:
    800000a8:	007f8263          	beq	t6,t2,800000ac <i_5>

00000000800000ac <i_5>:
    800000ac:	c3ddbd93          	sltiu	s11,s11,-963

00000000800000b0 <i_6>:
    800000b0:	1d611983          	lh	s3,470(sp)

00000000800000b4 <i_7>:
    800000b4:	03f384bb          	mulw	s1,t2,t6

00000000800000b8 <i_8>:
    800000b8:	eec12d83          	lw	s11,-276(sp)

00000000800000bc <i_9>:
    800000bc:	ee015d03          	lhu	s10,-288(sp)

00000000800000c0 <i_10>:
    800000c0:	03300593          	li	a1,51

00000000800000c4 <i_11>:
    800000c4:	40bd54b3          	sra	s1,s10,a1

00000000800000c8 <i_12>:
    800000c8:	01f00593          	li	a1,31

00000000800000cc <i_13>:
    800000cc:	00b7d4bb          	srlw	s1,a5,a1

00000000800000d0 <i_14>:
    800000d0:	7a400313          	li	t1,1956

00000000800000d4 <i_15>:
    800000d4:	7a600513          	li	a0,1958

00000000800000d8 <i_16>:
    800000d8:	03d5ef33          	rem	t5,a1,t4

00000000800000dc <i_17>:
    800000dc:	8a200d13          	li	s10,-1886

00000000800000e0 <i_18>:
    800000e0:	8a800793          	li	a5,-1880

00000000800000e4 <i_19>:
    800000e4:	00500b93          	li	s7,5

00000000800000e8 <i_20>:
    800000e8:	4175d4b3          	sra	s1,a1,s7

00000000800000ec <i_21>:
    800000ec:	17611583          	lh	a1,374(sp)

00000000800000f0 <i_22>:
    800000f0:	001d0d13          	addi	s10,s10,1
    800000f4:	fefd18e3          	bne	s10,a5,800000e4 <i_19>

00000000800000f8 <i_23>:
    800000f8:	0fc11b83          	lh	s7,252(sp)

00000000800000fc <i_24>:
    800000fc:	00130313          	addi	t1,t1,1
    80000100:	fca36ae3          	bltu	t1,a0,800000d4 <i_15>

0000000080000104 <i_25>:
    80000104:	1ab14f03          	lbu	t5,427(sp)

0000000080000108 <i_26>:
    80000108:	e3713823          	sd	s7,-464(sp)

000000008000010c <i_27>:
    8000010c:	4c038b9b          	addiw	s7,t2,1216

0000000080000110 <i_28>:
    80000110:	f2016b03          	lwu	s6,-224(sp)

0000000080000114 <i_29>:
    80000114:	13613023          	sd	s6,288(sp)

0000000080000118 <i_30>:
    80000118:	73a00e13          	li	t3,1850

000000008000011c <i_31>:
    8000011c:	74700f13          	li	t5,1863

0000000080000120 <i_32>:
    80000120:	03300b13          	li	s6,51

0000000080000124 <i_33>:
    80000124:	41685833          	sra	a6,a6,s6

0000000080000128 <i_34>:
    80000128:	030b0b3b          	mulw	s6,s6,a6

000000008000012c <i_35>:
    8000012c:	07b12a23          	sw	s11,116(sp)

0000000080000130 <i_36>:
    80000130:	14016c03          	lwu	s8,320(sp)

0000000080000134 <i_37>:
    80000134:	001e0e13          	addi	t3,t3,1
    80000138:	ffcf74e3          	bleu	t3,t5,80000120 <i_32>

000000008000013c <i_38>:
    8000013c:	41880833          	sub	a6,a6,s8

0000000080000140 <i_39>:
    80000140:	f7812b03          	lw	s6,-136(sp)

0000000080000144 <i_40>:
    80000144:	015c6c63          	bltu	s8,s5,8000015c <i_46>

0000000080000148 <i_41>:
    80000148:	15813823          	sd	s8,336(sp)

000000008000014c <i_42>:
    8000014c:	409c0d33          	sub	s10,s8,s1

0000000080000150 <i_43>:
    80000150:	e7012183          	lw	gp,-400(sp)

0000000080000154 <i_44>:
    80000154:	03a7d4bb          	divuw	s1,a5,s10

0000000080000158 <i_45>:
    80000158:	0239c463          	blt	s3,gp,80000180 <i_55>

000000008000015c <i_46>:
    8000015c:	1a015183          	lhu	gp,416(sp)

0000000080000160 <i_47>:
    80000160:	17e14483          	lbu	s1,382(sp)

0000000080000164 <i_48>:
    80000164:	fef10183          	lb	gp,-17(sp)

0000000080000168 <i_49>:
    80000168:	0024df1b          	srliw	t5,s1,0x2

000000008000016c <i_50>:
    8000016c:	18c12203          	lw	tp,396(sp)

0000000080000170 <i_51>:
    80000170:	e6a11f03          	lh	t5,-406(sp)

0000000080000174 <i_52>:
    80000174:	00320e63          	beq	tp,gp,80000190 <i_59>

0000000080000178 <i_53>:
    80000178:	01c4fc63          	bleu	t3,s1,80000190 <i_59>

000000008000017c <i_54>:
    8000017c:	e4015f03          	lhu	t5,-448(sp)

0000000080000180 <i_55>:
    80000180:	029254b3          	divu	s1,tp,s1

0000000080000184 <i_56>:
    80000184:	fac11e03          	lh	t3,-84(sp)

0000000080000188 <i_57>:
    80000188:	00448a33          	add	s4,s1,tp

000000008000018c <i_58>:
    8000018c:	01c26463          	bltu	tp,t3,80000194 <i_60>

0000000080000190 <i_59>:
    80000190:	024e25b3          	mulhsu	a1,t3,tp

0000000080000194 <i_60>:
    80000194:	e8c12183          	lw	gp,-372(sp)

0000000080000198 <i_61>:
    80000198:	15611403          	lh	s0,342(sp)

000000008000019c <i_62>:
    8000019c:	02c1cc33          	div	s8,gp,a2

00000000800001a0 <i_63>:
    800001a0:	7e100213          	li	tp,2017

00000000800001a4 <i_64>:
    800001a4:	7e300593          	li	a1,2019

00000000800001a8 <i_65>:
    800001a8:	0cc15183          	lhu	gp,204(sp)

00000000800001ac <i_66>:
    800001ac:	ed412303          	lw	t1,-300(sp)

00000000800001b0 <i_67>:
    800001b0:	03100c13          	li	s8,49

00000000800001b4 <i_68>:
    800001b4:	018d9833          	sll	a6,s11,s8

00000000800001b8 <i_69>:
    800001b8:	1dc15483          	lhu	s1,476(sp)

00000000800001bc <i_70>:
    800001bc:	00120213          	addi	tp,tp,1 # 1 <main-0x7fffffff>
    800001c0:	fe45d4e3          	ble	tp,a1,800001a8 <i_65>

00000000800001c4 <i_71>:
    800001c4:	023f5db3          	divu	s11,t5,gp

00000000800001c8 <i_72>:
    800001c8:	e8816283          	lwu	t0,-376(sp)

00000000800001cc <i_73>:
    800001cc:	00600d93          	li	s11,6

00000000800001d0 <i_74>:
    800001d0:	01bd9633          	sll	a2,s11,s11

00000000800001d4 <i_75>:
    800001d4:	7f500e13          	li	t3,2037

00000000800001d8 <i_76>:
    800001d8:	7fc00393          	li	t2,2044

00000000800001dc <i_77>:
    800001dc:	00935463          	ble	s1,t1,800001e4 <i_79>

00000000800001e0 <i_78>:
    800001e0:	00ce0f33          	add	t5,t3,a2

00000000800001e4 <i_79>:
    800001e4:	01600793          	li	a5,22

00000000800001e8 <i_80>:
    800001e8:	40fdd63b          	sraw	a2,s11,a5

00000000800001ec <i_81>:
    800001ec:	f4811583          	lh	a1,-184(sp)

00000000800001f0 <i_82>:
    800001f0:	00fd9663          	bne	s11,a5,800001fc <i_85>

00000000800001f4 <i_83>:
    800001f4:	e6913823          	sd	s1,-400(sp)

00000000800001f8 <i_84>:
    800001f8:	03e5b5b3          	mulhu	a1,a1,t5

00000000800001fc <i_85>:
    800001fc:	00000013          	nop

0000000080000200 <i_86>:
    80000200:	f3a15d03          	lhu	s10,-198(sp)

0000000080000204 <i_87>:
    80000204:	15e10ea3          	sb	t5,349(sp)

0000000080000208 <i_88>:
    80000208:	001e0e13          	addi	t3,t3,1
    8000020c:	fdc3f6e3          	bleu	t3,t2,800001d8 <i_76>

0000000080000210 <i_89>:
    80000210:	f9813d03          	ld	s10,-104(sp)

0000000080000214 <i_90>:
    80000214:	00c00c13          	li	s8,12

0000000080000218 <i_91>:
    80000218:	4186d5bb          	sraw	a1,a3,s8

000000008000021c <i_92>:
    8000021c:	14812803          	lw	a6,328(sp)

0000000080000220 <i_93>:
    80000220:	014a4e63          	blt	s4,s4,8000023c <i_100>

0000000080000224 <i_94>:
    80000224:	fd812c03          	lw	s8,-40(sp)

0000000080000228 <i_95>:
    80000228:	02b0d063          	ble	a1,ra,80000248 <i_103>

000000008000022c <i_96>:
    8000022c:	e6b11a23          	sh	a1,-396(sp)

0000000080000230 <i_97>:
    80000230:	f1011e23          	sh	a6,-228(sp)

0000000080000234 <i_98>:
    80000234:	04c11f23          	sh	a2,94(sp)

0000000080000238 <i_99>:
    80000238:	00000013          	nop

000000008000023c <i_100>:
    8000023c:	00000013          	nop

0000000080000240 <i_101>:
    80000240:	0100a833          	slt	a6,ra,a6

0000000080000244 <i_102>:
    80000244:	03d3633b          	remw	t1,t1,t4

0000000080000248 <i_103>:
    80000248:	eb813083          	ld	ra,-328(sp)

000000008000024c <i_104>:
    8000024c:	04412303          	lw	t1,68(sp)

0000000080000250 <i_105>:
    80000250:	7a900c13          	li	s8,1961

0000000080000254 <i_106>:
    80000254:	7b600d13          	li	s10,1974

0000000080000258 <i_107>:
    80000258:	001c0c13          	addi	s8,s8,1
    8000025c:	ff8d5ee3          	ble	s8,s10,80000258 <i_107>

0000000080000260 <i_108>:
    80000260:	f4416783          	lwu	a5,-188(sp)

0000000080000264 <i_109>:
    80000264:	001dfe63          	bleu	ra,s11,80000280 <i_116>

0000000080000268 <i_110>:
    80000268:	00f64a63          	blt	a2,a5,8000027c <i_115>

000000008000026c <i_111>:
    8000026c:	0067ca63          	blt	a5,t1,80000280 <i_116>

0000000080000270 <i_112>:
    80000270:	13211203          	lh	tp,306(sp)

0000000080000274 <i_113>:
    80000274:	40225813          	srai	a6,tp,0x2

0000000080000278 <i_114>:
    80000278:	00187663          	bleu	ra,a6,80000284 <i_117>

000000008000027c <i_115>:
    8000027c:	0c416803          	lwu	a6,196(sp)

0000000080000280 <i_116>:
    80000280:	fe411723          	sh	tp,-18(sp)

0000000080000284 <i_117>:
    80000284:	02484063          	blt	a6,tp,800002a4 <i_125>

0000000080000288 <i_118>:
    80000288:	fa724413          	xori	s0,tp,-89

000000008000028c <i_119>:
    8000028c:	01d00513          	li	a0,29

0000000080000290 <i_120>:
    80000290:	00a8523b          	srlw	tp,a6,a0

0000000080000294 <i_121>:
    80000294:	f7012223          	sw	a6,-156(sp)

0000000080000298 <i_122>:
    80000298:	0242723b          	remuw	tp,tp,tp

000000008000029c <i_123>:
    8000029c:	02a64633          	div	a2,a2,a0

00000000800002a0 <i_124>:
    800002a0:	02c57533          	remu	a0,a0,a2

00000000800002a4 <i_125>:
    800002a4:	68264213          	xori	tp,a2,1666

00000000800002a8 <i_126>:
    800002a8:	f4c10c23          	sb	a2,-168(sp)

00000000800002ac <i_127>:
    800002ac:	fe813603          	ld	a2,-24(sp)

00000000800002b0 <i_128>:
    800002b0:	00561663          	bne	a2,t0,800002bc <i_131>

00000000800002b4 <i_129>:
    800002b4:	02c60263          	beq	a2,a2,800002d8 <i_138>

00000000800002b8 <i_130>:
    800002b8:	00c20263          	beq	tp,a2,800002bc <i_131>

00000000800002bc <i_131>:
    800002bc:	02c26abb          	remw	s5,tp,a2

00000000800002c0 <i_132>:
    800002c0:	40d604b3          	sub	s1,a2,a3

00000000800002c4 <i_133>:
    800002c4:	003ad59b          	srliw	a1,s5,0x3

00000000800002c8 <i_134>:
    800002c8:	5d6c4d13          	xori	s10,s8,1494

00000000800002cc <i_135>:
    800002cc:	15310383          	lb	t2,339(sp)

00000000800002d0 <i_136>:
    800002d0:	f2b12a23          	sw	a1,-204(sp)

00000000800002d4 <i_137>:
    800002d4:	01adadb3          	slt	s11,s11,s10

00000000800002d8 <i_138>:
    800002d8:	e6c12083          	lw	ra,-404(sp)

00000000800002dc <i_139>:
    800002dc:	ff7a7a93          	andi	s5,s4,-9

00000000800002e0 <i_140>:
    800002e0:	77d00a13          	li	s4,1917

00000000800002e4 <i_141>:
    800002e4:	78100793          	li	a5,1921

00000000800002e8 <i_142>:
    800002e8:	00000013          	nop

00000000800002ec <i_143>:
    800002ec:	9a5a8613          	addi	a2,s5,-1627

00000000800002f0 <i_144>:
    800002f0:	81a00b93          	li	s7,-2022

00000000800002f4 <i_145>:
    800002f4:	82a00d13          	li	s10,-2006

00000000800002f8 <i_146>:
    800002f8:	00000013          	nop

00000000800002fc <i_147>:
    800002fc:	00200393          	li	t2,2

0000000080000300 <i_148>:
    80000300:	00721e3b          	sllw	t3,tp,t2

0000000080000304 <i_149>:
    80000304:	00000013          	nop

0000000080000308 <i_150>:
    80000308:	03460eb3          	mul	t4,a2,s4

000000008000030c <i_151>:
    8000030c:	12d10e83          	lb	t4,301(sp)

0000000080000310 <i_152>:
    80000310:	03413c23          	sd	s4,56(sp)

0000000080000314 <i_153>:
    80000314:	001b8b93          	addi	s7,s7,1
    80000318:	ffab90e3          	bne	s7,s10,800002f8 <i_146>

000000008000031c <i_154>:
    8000031c:	e77100a3          	sb	s7,-415(sp)

0000000080000320 <i_155>:
    80000320:	001a0a13          	addi	s4,s4,1
    80000324:	fd4792e3          	bne	a5,s4,800002e8 <i_142>

0000000080000328 <i_156>:
    80000328:	01a49663          	bne	s1,s10,80000334 <i_159>

000000008000032c <i_157>:
    8000032c:	a9500637          	lui	a2,0xa9500

0000000080000330 <i_158>:
    80000330:	014d5463          	ble	s4,s10,80000338 <i_160>

0000000080000334 <i_159>:
    80000334:	15711123          	sh	s7,322(sp)

0000000080000338 <i_160>:
    80000338:	9d6ead13          	slti	s10,t4,-1578

000000008000033c <i_161>:
    8000033c:	01eef863          	bleu	t5,t4,8000034c <i_165>

0000000080000340 <i_162>:
    80000340:	00c61263          	bne	a2,a2,80000344 <i_163>

0000000080000344 <i_163>:
    80000344:	0d411083          	lh	ra,212(sp)

0000000080000348 <i_164>:
    80000348:	f7a106a3          	sb	s10,-147(sp)

000000008000034c <i_165>:
    8000034c:	01c00d13          	li	s10,28

0000000080000350 <i_166>:
    80000350:	01a69c33          	sll	s8,a3,s10

0000000080000354 <i_167>:
    80000354:	00109463          	bne	ra,ra,8000035c <i_169>

0000000080000358 <i_168>:
    80000358:	038d23b3          	mulhsu	t2,s10,s8

000000008000035c <i_169>:
    8000035c:	038c6063          	bltu	s8,s8,8000037c <i_177>

0000000080000360 <i_170>:
    80000360:	f3013e03          	ld	t3,-208(sp)

0000000080000364 <i_171>:
    80000364:	013d4a63          	blt	s10,s3,80000378 <i_176>

0000000080000368 <i_172>:
    80000368:	418f8b3b          	subw	s6,t6,s8

000000008000036c <i_173>:
    8000036c:	0b813c03          	ld	s8,184(sp)

0000000080000370 <i_174>:
    80000370:	fc012c03          	lw	s8,-64(sp)

0000000080000374 <i_175>:
    80000374:	01b11023          	sh	s11,0(sp)

0000000080000378 <i_176>:
    80000378:	0c412e23          	sw	tp,220(sp)

000000008000037c <i_177>:
    8000037c:	0d612623          	sw	s6,204(sp)

0000000080000380 <i_178>:
    80000380:	0b813c03          	ld	s8,184(sp)

0000000080000384 <i_179>:
    80000384:	038c3c33          	mulhu	s8,s8,s8

0000000080000388 <i_180>:
    80000388:	036c5463          	ble	s6,s8,800003b0 <i_190>

000000008000038c <i_181>:
    8000038c:	01810fa3          	sb	s8,31(sp)

0000000080000390 <i_182>:
    80000390:	018c5e63          	ble	s8,s8,800003ac <i_189>

0000000080000394 <i_183>:
    80000394:	018c7663          	bleu	s8,s8,800003a0 <i_186>

0000000080000398 <i_184>:
    80000398:	001c1c13          	slli	s8,s8,0x1

000000008000039c <i_185>:
    8000039c:	036b5463          	ble	s6,s6,800003c4 <i_195>

00000000800003a0 <i_186>:
    800003a0:	f5613c23          	sd	s6,-168(sp)

00000000800003a4 <i_187>:
    800003a4:	07613c23          	sd	s6,120(sp)

00000000800003a8 <i_188>:
    800003a8:	fac15383          	lhu	t2,-84(sp)

00000000800003ac <i_189>:
    800003ac:	01012b03          	lw	s6,16(sp)

00000000800003b0 <i_190>:
    800003b0:	03a103bb          	mulw	t2,sp,s10

00000000800003b4 <i_191>:
    800003b4:	02757b33          	remu	s6,a0,t2

00000000800003b8 <i_192>:
    800003b8:	0383ca33          	div	s4,t2,s8

00000000800003bc <i_193>:
    800003bc:	e5816483          	lwu	s1,-424(sp)

00000000800003c0 <i_194>:
    800003c0:	027a6463          	bltu	s4,t2,800003e8 <i_204>

00000000800003c4 <i_195>:
    800003c4:	018c5663          	ble	s8,s8,800003d0 <i_198>

00000000800003c8 <i_196>:
    800003c8:	e1b10b83          	lb	s7,-485(sp)

00000000800003cc <i_197>:
    800003cc:	00cb8633          	add	a2,s7,a2

00000000800003d0 <i_198>:
    800003d0:	f9815e03          	lhu	t3,-104(sp)

00000000800003d4 <i_199>:
    800003d4:	ed613423          	sd	s6,-312(sp)

00000000800003d8 <i_200>:
    800003d8:	009d4463          	blt	s10,s1,800003e0 <i_202>

00000000800003dc <i_201>:
    800003dc:	02747463          	bleu	t2,s0,80000404 <i_211>

00000000800003e0 <i_202>:
    800003e0:	02ce5d33          	divu	s10,t3,a2

00000000800003e4 <i_203>:
    800003e4:	efa12e23          	sw	s10,-260(sp)

00000000800003e8 <i_204>:
    800003e8:	01cbee63          	bltu	s7,t3,80000404 <i_211>

00000000800003ec <i_205>:
    800003ec:	013d49b3          	xor	s3,s10,s3

00000000800003f0 <i_206>:
    800003f0:	41ad02bb          	subw	t0,s10,s10

00000000800003f4 <i_207>:
    800003f4:	0332e3bb          	remw	t2,t0,s3

00000000800003f8 <i_208>:
    800003f8:	ef016283          	lwu	t0,-272(sp)

00000000800003fc <i_209>:
    800003fc:	11898e13          	addi	t3,s3,280

0000000080000400 <i_210>:
    80000400:	f4210203          	lb	tp,-190(sp)

0000000080000404 <i_211>:
    80000404:	03328cb3          	mul	s9,t0,s3

0000000080000408 <i_212>:
    80000408:	f9910f23          	sb	s9,-98(sp)

000000008000040c <i_213>:
    8000040c:	0042e463          	bltu	t0,tp,80000414 <i_215>

0000000080000410 <i_214>:
    80000410:	14213c23          	sd	sp,344(sp)

0000000080000414 <i_215>:
    80000414:	ea510803          	lb	a6,-347(sp)

0000000080000418 <i_216>:
    80000418:	025e0e33          	mul	t3,t3,t0

000000008000041c <i_217>:
    8000041c:	003d129b          	slliw	t0,s10,0x3

0000000080000420 <i_218>:
    80000420:	a3632d13          	slti	s10,t1,-1482

0000000080000424 <i_219>:
    80000424:	e4513823          	sd	t0,-432(sp)

0000000080000428 <i_220>:
    80000428:	7ad00213          	li	tp,1965

000000008000042c <i_221>:
    8000042c:	7b400293          	li	t0,1972

0000000080000430 <i_222>:
    80000430:	f7813403          	ld	s0,-136(sp)

0000000080000434 <i_223>:
    80000434:	01a8cd33          	xor	s10,a7,s10

0000000080000438 <i_224>:
    80000438:	01ad3633          	sltu	a2,s10,s10

000000008000043c <i_225>:
    8000043c:	03a61263          	bne	a2,s10,80000460 <i_233>

0000000080000440 <i_226>:
    80000440:	00120213          	addi	tp,tp,1 # 1 <main-0x7fffffff>
    80000444:	fe42d6e3          	ble	tp,t0,80000430 <i_222>

0000000080000448 <i_227>:
    80000448:	e6810e23          	sb	s0,-388(sp)

000000008000044c <i_228>:
    8000044c:	05a13023          	sd	s10,64(sp)

0000000080000450 <i_229>:
    80000450:	f2013603          	ld	a2,-224(sp)

0000000080000454 <i_230>:
    80000454:	f0612423          	sw	t1,-248(sp)

0000000080000458 <i_231>:
    80000458:	03ad6463          	bltu	s10,s10,80000480 <i_241>

000000008000045c <i_232>:
    8000045c:	03a60263          	beq	a2,s10,80000480 <i_241>

0000000080000460 <i_233>:
    80000460:	00c45a63          	ble	a2,s0,80000474 <i_238>

0000000080000464 <i_234>:
    80000464:	77b30697          	auipc	a3,0x77b30

0000000080000468 <i_235>:
    80000468:	1b611d03          	lh	s10,438(sp)

000000008000046c <i_236>:
    8000046c:	03a694b3          	mulh	s1,a3,s10

0000000080000470 <i_237>:
    80000470:	008d1863          	bne	s10,s0,80000480 <i_241>

0000000080000474 <i_238>:
    80000474:	0294e4bb          	remw	s1,s1,s1

0000000080000478 <i_239>:
    80000478:	f7011f03          	lh	t5,-144(sp)

000000008000047c <i_240>:
    8000047c:	f1e12223          	sw	t5,-252(sp)

0000000080000480 <i_241>:
    80000480:	a1d4879b          	addiw	a5,s1,-1507

0000000080000484 <i_242>:
    80000484:	404f5f1b          	sraiw	t5,t5,0x4

0000000080000488 <i_243>:
    80000488:	00a7d663          	ble	a0,a5,80000494 <i_246>

000000008000048c <i_244>:
    8000048c:	bbbf4837          	lui	a6,0xbbbf4

0000000080000490 <i_245>:
    80000490:	02f817b3          	mulh	a5,a6,a5

0000000080000494 <i_246>:
    80000494:	e7015783          	lhu	a5,-400(sp)

0000000080000498 <i_247>:
    80000498:	030f0263          	beq	t5,a6,800004bc <i_256>

000000008000049c <i_248>:
    8000049c:	01e83633          	sltu	a2,a6,t5

00000000800004a0 <i_249>:
    800004a0:	03e60b3b          	mulw	s6,a2,t5

00000000800004a4 <i_250>:
    800004a4:	1c710a23          	sb	t2,468(sp)

00000000800004a8 <i_251>:
    800004a8:	03e79263          	bne	a5,t5,800004cc <i_260>

00000000800004ac <i_252>:
    800004ac:	e5812683          	lw	a3,-424(sp)

00000000800004b0 <i_253>:
    800004b0:	010f6863          	bltu	t5,a6,800004c0 <i_257>

00000000800004b4 <i_254>:
    800004b4:	6a3f4993          	xori	s3,t5,1699

00000000800004b8 <i_255>:
    800004b8:	fdc12603          	lw	a2,-36(sp)

00000000800004bc <i_256>:
    800004bc:	00200613          	li	a2,2

00000000800004c0 <i_257>:
    800004c0:	40cd56b3          	sra	a3,s10,a2

00000000800004c4 <i_258>:
    800004c4:	00c9dc63          	ble	a2,s3,800004dc <i_264>

00000000800004c8 <i_259>:
    800004c8:	0036561b          	srliw	a2,a2,0x3

00000000800004cc <i_260>:
    800004cc:	02b635b3          	mulhu	a1,a2,a1

00000000800004d0 <i_261>:
    800004d0:	00d00593          	li	a1,13

00000000800004d4 <i_262>:
    800004d4:	40bed633          	sra	a2,t4,a1

00000000800004d8 <i_263>:
    800004d8:	f9610b23          	sb	s6,-106(sp)

00000000800004dc <i_264>:
    800004dc:	0135cc63          	blt	a1,s3,800004f4 <i_270>

00000000800004e0 <i_265>:
    800004e0:	03b00493          	li	s1,59

00000000800004e4 <i_266>:
    800004e4:	009c9cb3          	sll	s9,s9,s1

00000000800004e8 <i_267>:
    800004e8:	01d9f663          	bleu	t4,s3,800004f4 <i_270>

00000000800004ec <i_268>:
    800004ec:	f6c12223          	sw	a2,-156(sp)

00000000800004f0 <i_269>:
    800004f0:	04c16603          	lwu	a2,76(sp)

00000000800004f4 <i_270>:
    800004f4:	02c13823          	sd	a2,48(sp)

00000000800004f8 <i_271>:
    800004f8:	00928c63          	beq	t0,s1,80000510 <i_277>

00000000800004fc <i_272>:
    800004fc:	f0416983          	lwu	s3,-252(sp)

0000000080000500 <i_273>:
    80000500:	f4013f03          	ld	t5,-192(sp)

0000000080000504 <i_274>:
    80000504:	007a23b3          	slt	t2,s4,t2

0000000080000508 <i_275>:
    80000508:	00400393          	li	t2,4

000000008000050c <i_276>:
    8000050c:	0073d63b          	srlw	a2,t2,t2

0000000080000510 <i_277>:
    80000510:	10013383          	ld	t2,256(sp)

0000000080000514 <i_278>:
    80000514:	00738263          	beq	t2,t2,80000518 <i_279>

0000000080000518 <i_279>:
    80000518:	0e712223          	sw	t2,228(sp)

000000008000051c <i_280>:
    8000051c:	027773b3          	remu	t2,a4,t2

0000000080000520 <i_281>:
    80000520:	0273e63b          	remw	a2,t2,t2

0000000080000524 <i_282>:
    80000524:	00738863          	beq	t2,t2,80000534 <i_286>

0000000080000528 <i_283>:
    80000528:	66c3839b          	addiw	t2,t2,1644

000000008000052c <i_284>:
    8000052c:	edc16a83          	lwu	s5,-292(sp)

0000000080000530 <i_285>:
    80000530:	fb813383          	ld	t2,-72(sp)

0000000080000534 <i_286>:
    80000534:	00100a93          	li	s5,1

0000000080000538 <i_287>:
    80000538:	015ad3bb          	srlw	t2,s5,s5

000000008000053c <i_288>:
    8000053c:	f6a12823          	sw	a0,-144(sp)

0000000080000540 <i_289>:
    80000540:	0273c463          	blt	t2,t2,80000568 <i_299>

0000000080000544 <i_290>:
    80000544:	0072fe63          	bleu	t2,t0,80000560 <i_297>

0000000080000548 <i_291>:
    80000548:	f8712823          	sw	t2,-112(sp)

000000008000054c <i_292>:
    8000054c:	12713823          	sd	t2,304(sp)

0000000080000550 <i_293>:
    80000550:	16611a83          	lh	s5,358(sp)

0000000080000554 <i_294>:
    80000554:	f1512423          	sw	s5,-248(sp)

0000000080000558 <i_295>:
    80000558:	0273d463          	ble	t2,t2,80000580 <i_305>

000000008000055c <i_296>:
    8000055c:	12712c23          	sw	t2,312(sp)

0000000080000560 <i_297>:
    80000560:	1ed3bf13          	sltiu	t5,t2,493

0000000080000564 <i_298>:
    80000564:	1e0ab3b7          	lui	t2,0x1e0ab

0000000080000568 <i_299>:
    80000568:	00800393          	li	t2,8

000000008000056c <i_300>:
    8000056c:	007a9233          	sll	tp,s5,t2

0000000080000570 <i_301>:
    80000570:	004bda63          	ble	tp,s7,80000584 <i_306>

0000000080000574 <i_302>:
    80000574:	ed813a83          	ld	s5,-296(sp)

0000000080000578 <i_303>:
    80000578:	18511a23          	sh	t0,404(sp)

000000008000057c <i_304>:
    8000057c:	fe816203          	lwu	tp,-24(sp)

0000000080000580 <i_305>:
    80000580:	ec711f23          	sh	t2,-290(sp)

0000000080000584 <i_306>:
    80000584:	eec12803          	lw	a6,-276(sp)

0000000080000588 <i_307>:
    80000588:	007ace63          	blt	s5,t2,800005a4 <i_314>

000000008000058c <i_308>:
    8000058c:	024230b3          	mulhu	ra,tp,tp

0000000080000590 <i_309>:
    80000590:	1e214203          	lbu	tp,482(sp)

0000000080000594 <i_310>:
    80000594:	00483db3          	sltu	s11,a6,tp

0000000080000598 <i_311>:
    80000598:	03900813          	li	a6,57

000000008000059c <i_312>:
    8000059c:	01021633          	sll	a2,tp,a6

00000000800005a0 <i_313>:
    800005a0:	02b27f33          	remu	t5,tp,a1

00000000800005a4 <i_314>:
    800005a4:	004d8a63          	beq	s11,tp,800005b8 <i_319>

00000000800005a8 <i_315>:
    800005a8:	ed016383          	lwu	t2,-304(sp)

00000000800005ac <i_316>:
    800005ac:	01d00313          	li	t1,29

00000000800005b0 <i_317>:
    800005b0:	00685833          	srl	a6,a6,t1

00000000800005b4 <i_318>:
    800005b4:	fe411803          	lh	a6,-28(sp)

00000000800005b8 <i_319>:
    800005b8:	02f827b3          	mulhsu	a5,a6,a5

00000000800005bc <i_320>:
    800005bc:	1e013e03          	ld	t3,480(sp)

00000000800005c0 <i_321>:
    800005c0:	02300313          	li	t1,35

00000000800005c4 <i_322>:
    800005c4:	006653b3          	srl	t2,a2,t1

00000000800005c8 <i_323>:
    800005c8:	e2215e03          	lhu	t3,-478(sp)

00000000800005cc <i_324>:
    800005cc:	00e00b13          	li	s6,14

00000000800005d0 <i_325>:
    800005d0:	0163d43b          	srlw	s0,t2,s6

00000000800005d4 <i_326>:
    800005d4:	f5613423          	sd	s6,-184(sp)

00000000800005d8 <i_327>:
    800005d8:	007e7e63          	bleu	t2,t3,800005f4 <i_334>

00000000800005dc <i_328>:
    800005dc:	016b3b33          	sltu	s6,s6,s6

00000000800005e0 <i_329>:
    800005e0:	0a710b03          	lb	s6,167(sp)

00000000800005e4 <i_330>:
    800005e4:	03afb633          	mulhu	a2,t6,s10

00000000800005e8 <i_331>:
    800005e8:	19613423          	sd	s6,392(sp)

00000000800005ec <i_332>:
    800005ec:	01f00793          	li	a5,31

00000000800005f0 <i_333>:
    800005f0:	40f4d4b3          	sra	s1,s1,a5

00000000800005f4 <i_334>:
    800005f4:	4024dd1b          	sraiw	s10,s1,0x2

00000000800005f8 <i_335>:
    800005f8:	02987833          	remu	a6,a6,s1

00000000800005fc <i_336>:
    800005fc:	f8416b03          	lwu	s6,-124(sp)

0000000080000600 <i_337>:
    80000600:	f1914203          	lbu	tp,-231(sp)

0000000080000604 <i_338>:
    80000604:	fcc12583          	lw	a1,-52(sp)

0000000080000608 <i_339>:
    80000608:	fe412d03          	lw	s10,-28(sp)

000000008000060c <i_340>:
    8000060c:	08412c23          	sw	tp,152(sp)

0000000080000610 <i_341>:
    80000610:	f3a13c23          	sd	s10,-200(sp)

0000000080000614 <i_342>:
    80000614:	1a710da3          	sb	t2,443(sp)

0000000080000618 <i_343>:
    80000618:	02b12823          	sw	a1,48(sp)

000000008000061c <i_344>:
    8000061c:	00b0f463          	bleu	a1,ra,80000624 <i_346>

0000000080000620 <i_345>:
    80000620:	09012583          	lw	a1,144(sp)

0000000080000624 <i_346>:
    80000624:	016d6633          	or	a2,s10,s6

0000000080000628 <i_347>:
    80000628:	11a104a3          	sb	s10,265(sp)

000000008000062c <i_348>:
    8000062c:	01a4f463          	bleu	s10,s1,80000634 <i_350>

0000000080000630 <i_349>:
    80000630:	028d5233          	divu	tp,s10,s0

0000000080000634 <i_350>:
    80000634:	00bd2d33          	slt	s10,s10,a1

0000000080000638 <i_351>:
    80000638:	024254b3          	divu	s1,tp,tp

000000008000063c <i_352>:
    8000063c:	88300613          	li	a2,-1917

0000000080000640 <i_353>:
    80000640:	88c00593          	li	a1,-1908

0000000080000644 <i_354>:
    80000644:	00c5d263          	ble	a2,a1,80000648 <i_355>

0000000080000648 <i_355>:
    80000648:	00265193          	srli	gp,a2,0x2

000000008000064c <i_356>:
    8000064c:	12016203          	lwu	tp,288(sp)

0000000080000650 <i_357>:
    80000650:	00160613          	addi	a2,a2,1 # ffffffffa9500001 <_end+0xffffffff294efbed>
    80000654:	feb618e3          	bne	a2,a1,80000644 <i_354>

0000000080000658 <i_358>:
    80000658:	12813283          	ld	t0,296(sp)

000000008000065c <i_359>:
    8000065c:	f1913023          	sd	s9,-256(sp)

0000000080000660 <i_360>:
    80000660:	03f67263          	bleu	t6,a2,80000684 <i_369>

0000000080000664 <i_361>:
    80000664:	15412783          	lw	a5,340(sp)

0000000080000668 <i_362>:
    80000668:	01700793          	li	a5,23

000000008000066c <i_363>:
    8000066c:	40f9d9bb          	sraw	s3,s3,a5

0000000080000670 <i_364>:
    80000670:	fef11c23          	sh	a5,-8(sp)

0000000080000674 <i_365>:
    80000674:	16811383          	lh	t2,360(sp)

0000000080000678 <i_366>:
    80000678:	ee813403          	ld	s0,-280(sp)

000000008000067c <i_367>:
    8000067c:	12811d23          	sh	s0,314(sp)

0000000080000680 <i_368>:
    80000680:	eac10f23          	sb	a2,-322(sp)

0000000080000684 <i_369>:
    80000684:	0087e263          	bltu	a5,s0,80000688 <i_370>

0000000080000688 <i_370>:
    80000688:	00747433          	and	s0,s0,t2

000000008000068c <i_371>:
    8000068c:	40345d9b          	sraiw	s11,s0,0x3

0000000080000690 <i_372>:
    80000690:	e8712a23          	sw	t2,-364(sp)

0000000080000694 <i_373>:
    80000694:	00000013          	nop

0000000080000698 <i_374>:
    80000698:	77600793          	li	a5,1910

000000008000069c <i_375>:
    8000069c:	78100813          	li	a6,1921

00000000800006a0 <i_376>:
    800006a0:	e2215283          	lhu	t0,-478(sp)

00000000800006a4 <i_377>:
    800006a4:	12013183          	ld	gp,288(sp)

00000000800006a8 <i_378>:
    800006a8:	018e4263          	blt	t3,s8,800006ac <i_379>

00000000800006ac <i_379>:
    800006ac:	02839d33          	mulh	s10,t2,s0

00000000800006b0 <i_380>:
    800006b0:	18e11d83          	lh	s11,398(sp)

00000000800006b4 <i_381>:
    800006b4:	00178793          	addi	a5,a5,1
    800006b8:	fef854e3          	ble	a5,a6,800006a0 <i_376>

00000000800006bc <i_382>:
    800006bc:	02012803          	lw	a6,32(sp)

00000000800006c0 <i_383>:
    800006c0:	f6a87193          	andi	gp,a6,-150

00000000800006c4 <i_384>:
    800006c4:	fd015d03          	lhu	s10,-48(sp)

00000000800006c8 <i_385>:
    800006c8:	09910ba3          	sb	s9,151(sp)

00000000800006cc <i_386>:
    800006cc:	00b00f13          	li	t5,11

00000000800006d0 <i_387>:
    800006d0:	01e457bb          	srlw	a5,s0,t5

00000000800006d4 <i_388>:
    800006d4:	f8114083          	lbu	ra,-127(sp)

00000000800006d8 <i_389>:
    800006d8:	e4412783          	lw	a5,-444(sp)

00000000800006dc <i_390>:
    800006dc:	0237e263          	bltu	a5,gp,80000700 <i_399>

00000000800006e0 <i_391>:
    800006e0:	00013783          	ld	a5,0(sp)

00000000800006e4 <i_392>:
    800006e4:	fd514d03          	lbu	s10,-43(sp)

00000000800006e8 <i_393>:
    800006e8:	00b0bd33          	sltu	s10,ra,a1

00000000800006ec <i_394>:
    800006ec:	ed714e03          	lbu	t3,-297(sp)

00000000800006f0 <i_395>:
    800006f0:	09813583          	ld	a1,152(sp)

00000000800006f4 <i_396>:
    800006f4:	f503059b          	addiw	a1,t1,-176

00000000800006f8 <i_397>:
    800006f8:	00159c93          	slli	s9,a1,0x1

00000000800006fc <i_398>:
    800006fc:	00000013          	nop

0000000080000700 <i_399>:
    80000700:	f7c12a23          	sw	t3,-140(sp)

0000000080000704 <i_400>:
    80000704:	bb8f2f13          	slti	t5,t5,-1096

0000000080000708 <i_401>:
    80000708:	83800693          	li	a3,-1992

000000008000070c <i_402>:
    8000070c:	84300313          	li	t1,-1981

0000000080000710 <i_403>:
    80000710:	019f0f33          	add	t5,t5,s9

0000000080000714 <i_404>:
    80000714:	00000013          	nop

0000000080000718 <i_405>:
    80000718:	e9810983          	lb	s3,-360(sp)

000000008000071c <i_406>:
    8000071c:	f6812c83          	lw	s9,-152(sp)

0000000080000720 <i_407>:
    80000720:	e4211e83          	lh	t4,-446(sp)

0000000080000724 <i_408>:
    80000724:	02d98263          	beq	s3,a3,80000748 <i_416>

0000000080000728 <i_409>:
    80000728:	03ee8f33          	mul	t5,t4,t5

000000008000072c <i_410>:
    8000072c:	00168693          	addi	a3,a3,1 # f7b30465 <_end+0x77b20051>
    80000730:	fed350e3          	ble	a3,t1,80000710 <i_403>

0000000080000734 <i_411>:
    80000734:	16514e83          	lbu	t4,357(sp)

0000000080000738 <i_412>:
    80000738:	03300513          	li	a0,51

000000008000073c <i_413>:
    8000073c:	00a59833          	sll	a6,a1,a0

0000000080000740 <i_414>:
    80000740:	e4016983          	lwu	s3,-448(sp)

0000000080000744 <i_415>:
    80000744:	e9c16e83          	lwu	t4,-356(sp)

0000000080000748 <i_416>:
    80000748:	01ee9463          	bne	t4,t5,80000750 <i_418>

000000008000074c <i_417>:
    8000074c:	01d7e1b3          	or	gp,a5,t4

0000000080000750 <i_418>:
    80000750:	03d1c263          	blt	gp,t4,80000774 <i_427>

0000000080000754 <i_419>:
    80000754:	f5e10783          	lb	a5,-162(sp)

0000000080000758 <i_420>:
    80000758:	0237a9b3          	mulhsu	s3,a5,gp

000000008000075c <i_421>:
    8000075c:	f1311d23          	sh	s3,-230(sp)

0000000080000760 <i_422>:
    80000760:	09414a83          	lbu	s5,148(sp)

0000000080000764 <i_423>:
    80000764:	00700a93          	li	s5,7

0000000080000768 <i_424>:
    80000768:	0151d53b          	srlw	a0,gp,s5

000000008000076c <i_425>:
    8000076c:	01614503          	lbu	a0,22(sp)

0000000080000770 <i_426>:
    80000770:	f3912a23          	sw	s9,-204(sp)

0000000080000774 <i_427>:
    80000774:	faa12423          	sw	a0,-88(sp)

0000000080000778 <i_428>:
    80000778:	00aa9463          	bne	s5,a0,80000780 <i_430>

000000008000077c <i_429>:
    8000077c:	01512a23          	sw	s5,20(sp)

0000000080000780 <i_430>:
    80000780:	d54a8f1b          	addiw	t5,s5,-684

0000000080000784 <i_431>:
    80000784:	029f2c13          	slti	s8,t5,41

0000000080000788 <i_432>:
    80000788:	09811623          	sh	s8,140(sp)

000000008000078c <i_433>:
    8000078c:	74900a93          	li	s5,1865

0000000080000790 <i_434>:
    80000790:	74b00513          	li	a0,1867

0000000080000794 <i_435>:
    80000794:	07aaa813          	slti	a6,s5,122

0000000080000798 <i_436>:
    80000798:	0de11803          	lh	a6,222(sp)

000000008000079c <i_437>:
    8000079c:	00281813          	slli	a6,a6,0x2

00000000800007a0 <i_438>:
    800007a0:	77c00f13          	li	t5,1916

00000000800007a4 <i_439>:
    800007a4:	78100c13          	li	s8,1921

00000000800007a8 <i_440>:
    800007a8:	40475a1b          	sraiw	s4,a4,0x4

00000000800007ac <i_441>:
    800007ac:	00000013          	nop

00000000800007b0 <i_442>:
    800007b0:	0d811f23          	sh	s8,222(sp)

00000000800007b4 <i_443>:
    800007b4:	001f0f13          	addi	t5,t5,1
    800007b8:	ffec18e3          	bne	s8,t5,800007a8 <i_440>

00000000800007bc <i_444>:
    800007bc:	01ead863          	ble	t5,s5,800007cc <i_448>

00000000800007c0 <i_445>:
    800007c0:	03880663          	beq	a6,s8,800007ec <i_455>

00000000800007c4 <i_446>:
    800007c4:	e5e84d13          	xori	s10,a6,-418

00000000800007c8 <i_447>:
    800007c8:	aaed3613          	sltiu	a2,s10,-1362

00000000800007cc <i_448>:
    800007cc:	eacd0a1b          	addiw	s4,s10,-340

00000000800007d0 <i_449>:
    800007d0:	1be13c23          	sd	t5,440(sp)

00000000800007d4 <i_450>:
    800007d4:	001a8a93          	addi	s5,s5,1
    800007d8:	fb555ee3          	ble	s5,a0,80000794 <i_435>

00000000800007dc <i_451>:
    800007dc:	01b00d13          	li	s10,27

00000000800007e0 <i_452>:
    800007e0:	01a81e3b          	sllw	t3,a6,s10

00000000800007e4 <i_453>:
    800007e4:	403e549b          	sraiw	s1,t3,0x3

00000000800007e8 <i_454>:
    800007e8:	00e11c23          	sh	a4,24(sp)

00000000800007ec <i_455>:
    800007ec:	01491863          	bne	s2,s4,800007fc <i_459>

00000000800007f0 <i_456>:
    800007f0:	e3b10a03          	lb	s4,-453(sp)

00000000800007f4 <i_457>:
    800007f4:	15811483          	lh	s1,344(sp)

00000000800007f8 <i_458>:
    800007f8:	e6e15503          	lhu	a0,-402(sp)

00000000800007fc <i_459>:
    800007fc:	00000013          	nop

0000000080000800 <i_460>:
    80000800:	00000013          	nop

0000000080000804 <i_461>:
    80000804:	81c00493          	li	s1,-2020

0000000080000808 <i_462>:
    80000808:	82700993          	li	s3,-2009

000000008000080c <i_463>:
    8000080c:	03412583          	lw	a1,52(sp)

0000000080000810 <i_464>:
    80000810:	02600f13          	li	t5,38

0000000080000814 <i_465>:
    80000814:	01e99e33          	sll	t3,s3,t5

0000000080000818 <i_466>:
    80000818:	03000693          	li	a3,48

000000008000081c <i_467>:
    8000081c:	40d6d6b3          	sra	a3,a3,a3

0000000080000820 <i_468>:
    80000820:	00148493          	addi	s1,s1,1
    80000824:	ff34c4e3          	blt	s1,s3,8000080c <i_463>

0000000080000828 <i_469>:
    80000828:	02d6ff33          	remu	t5,a3,a3

000000008000082c <i_470>:
    8000082c:	00dbda63          	ble	a3,s7,80000840 <i_475>

0000000080000830 <i_471>:
    80000830:	14d11623          	sh	a3,332(sp)

0000000080000834 <i_472>:
    80000834:	fed11723          	sh	a3,-18(sp)

0000000080000838 <i_473>:
    80000838:	03e6f063          	bleu	t5,a3,80000858 <i_481>

000000008000083c <i_474>:
    8000083c:	02d6d6b3          	divu	a3,a3,a3

0000000080000840 <i_475>:
    80000840:	03ef56bb          	divuw	a3,t5,t5

0000000080000844 <i_476>:
    80000844:	02d6c463          	blt	a3,a3,8000086c <i_486>

0000000080000848 <i_477>:
    80000848:	07e13823          	sd	t5,112(sp)

000000008000084c <i_478>:
    8000084c:	02e68463          	beq	a3,a4,80000874 <i_488>

0000000080000850 <i_479>:
    80000850:	02d6c463          	blt	a3,a3,80000878 <i_489>

0000000080000854 <i_480>:
    80000854:	14df0d93          	addi	s11,t5,333

0000000080000858 <i_481>:
    80000858:	ad3f6593          	ori	a1,t5,-1325

000000008000085c <i_482>:
    8000085c:	fba11303          	lh	t1,-70(sp)

0000000080000860 <i_483>:
    80000860:	00b68663          	beq	a3,a1,8000086c <i_486>

0000000080000864 <i_484>:
    80000864:	12610123          	sb	t1,290(sp)

0000000080000868 <i_485>:
    80000868:	00600813          	li	a6,6

000000008000086c <i_486>:
    8000086c:	410dd4bb          	sraw	s1,s11,a6

0000000080000870 <i_487>:
    80000870:	f4d100a3          	sb	a3,-191(sp)

0000000080000874 <i_488>:
    80000874:	02d12223          	sw	a3,36(sp)

0000000080000878 <i_489>:
    80000878:	efc11b83          	lh	s7,-260(sp)

000000008000087c <i_490>:
    8000087c:	05c15d83          	lhu	s11,92(sp)

0000000080000880 <i_491>:
    80000880:	01000e93          	li	t4,16

0000000080000884 <i_492>:
    80000884:	41d75cb3          	sra	s9,a4,t4

0000000080000888 <i_493>:
    80000888:	ed812383          	lw	t2,-296(sp)

000000008000088c <i_494>:
    8000088c:	e8911323          	sh	s1,-378(sp)

0000000080000890 <i_495>:
    80000890:	f9911923          	sh	s9,-110(sp)

0000000080000894 <i_496>:
    80000894:	02100c93          	li	s9,33

0000000080000898 <i_497>:
    80000898:	01981f33          	sll	t5,a6,s9

000000008000089c <i_498>:
    8000089c:	007636b3          	sltu	a3,a2,t2

00000000800008a0 <i_499>:
    800008a0:	02def833          	remu	a6,t4,a3

00000000800008a4 <i_500>:
    800008a4:	0d912c23          	sw	s9,216(sp)

00000000800008a8 <i_501>:
    800008a8:	01100513          	li	a0,17

00000000800008ac <i_502>:
    800008ac:	00ae9c3b          	sllw	s8,t4,a0

00000000800008b0 <i_503>:
    800008b0:	03ac2eb3          	mulhsu	t4,s8,s10

00000000800008b4 <i_504>:
    800008b4:	1bd11b23          	sh	t4,438(sp)

00000000800008b8 <i_505>:
    800008b8:	02ac5263          	ble	a0,s8,800008dc <i_514>

00000000800008bc <i_506>:
    800008bc:	e4a11c23          	sh	a0,-424(sp)

00000000800008c0 <i_507>:
    800008c0:	14812783          	lw	a5,328(sp)

00000000800008c4 <i_508>:
    800008c4:	02f7feb3          	remu	t4,a5,a5

00000000800008c8 <i_509>:
    800008c8:	038e9eb3          	mulh	t4,t4,s8

00000000800008cc <i_510>:
    800008cc:	e2813803          	ld	a6,-472(sp)

00000000800008d0 <i_511>:
    800008d0:	18812583          	lw	a1,392(sp)

00000000800008d4 <i_512>:
    800008d4:	0105ce33          	xor	t3,a1,a6

00000000800008d8 <i_513>:
    800008d8:	08e13823          	sd	a4,144(sp)

00000000800008dc <i_514>:
    800008dc:	0bc16183          	lwu	gp,188(sp)

00000000800008e0 <i_515>:
    800008e0:	0037da1b          	srliw	s4,a5,0x3

00000000800008e4 <i_516>:
    800008e4:	79e00513          	li	a0,1950

00000000800008e8 <i_517>:
    800008e8:	7a900c13          	li	s8,1961

00000000800008ec <i_518>:
    800008ec:	07811783          	lh	a5,120(sp)

00000000800008f0 <i_519>:
    800008f0:	10412203          	lw	tp,260(sp)

00000000800008f4 <i_520>:
    800008f4:	00150513          	addi	a0,a0,1
    800008f8:	feac5ae3          	ble	a0,s8,800008ec <i_518>

00000000800008fc <i_521>:
    800008fc:	03c7f263          	bleu	t3,a5,80000920 <i_530>

0000000080000900 <i_522>:
    80000900:	f2f12623          	sw	a5,-212(sp)

0000000080000904 <i_523>:
    80000904:	e6310203          	lb	tp,-413(sp)

0000000080000908 <i_524>:
    80000908:	0b611183          	lh	gp,182(sp)

000000008000090c <i_525>:
    8000090c:	00fe4193          	xori	gp,t3,15

0000000080000910 <i_526>:
    80000910:	003e2e33          	slt	t3,t3,gp

0000000080000914 <i_527>:
    80000914:	00000013          	nop

0000000080000918 <i_528>:
    80000918:	e9410603          	lb	a2,-364(sp)

000000008000091c <i_529>:
    8000091c:	4047d49b          	sraiw	s1,a5,0x4

0000000080000920 <i_530>:
    80000920:	1c310ba3          	sb	gp,471(sp)

0000000080000924 <i_531>:
    80000924:	004e131b          	slliw	t1,t3,0x4

0000000080000928 <i_532>:
    80000928:	89600e93          	li	t4,-1898

000000008000092c <i_533>:
    8000092c:	89d00193          	li	gp,-1891

0000000080000930 <i_534>:
    80000930:	01918433          	add	s0,gp,s9

0000000080000934 <i_535>:
    80000934:	e4310123          	sb	gp,-446(sp)

0000000080000938 <i_536>:
    80000938:	234f4cb7          	lui	s9,0x234f4

000000008000093c <i_537>:
    8000093c:	e5912423          	sw	s9,-440(sp)

0000000080000940 <i_538>:
    80000940:	74500693          	li	a3,1861

0000000080000944 <i_539>:
    80000944:	74800e13          	li	t3,1864

0000000080000948 <i_540>:
    80000948:	01913823          	sd	s9,16(sp)

000000008000094c <i_541>:
    8000094c:	ec011d83          	lh	s11,-320(sp)

0000000080000950 <i_542>:
    80000950:	00168693          	addi	a3,a3,1
    80000954:	ffc6eae3          	bltu	a3,t3,80000948 <i_540>

0000000080000958 <i_543>:
    80000958:	13a15303          	lhu	t1,314(sp)

000000008000095c <i_544>:
    8000095c:	02637cb3          	remu	s9,t1,t1

0000000080000960 <i_545>:
    80000960:	001e8e93          	addi	t4,t4,1
    80000964:	fc3e96e3          	bne	t4,gp,80000930 <i_534>

0000000080000968 <i_546>:
    80000968:	02fcf7bb          	remuw	a5,s9,a5

000000008000096c <i_547>:
    8000096c:	e7811303          	lh	t1,-392(sp)

0000000080000970 <i_548>:
    80000970:	026787bb          	mulw	a5,a5,t1

0000000080000974 <i_549>:
    80000974:	00f3f3b3          	and	t2,t2,a5

0000000080000978 <i_550>:
    80000978:	16f107a3          	sb	a5,367(sp)

000000008000097c <i_551>:
    8000097c:	004c5b9b          	srliw	s7,s8,0x4

0000000080000980 <i_552>:
    80000980:	03113023          	sd	a7,32(sp)

0000000080000984 <i_553>:
    80000984:	7209cd97          	auipc	s11,0x7209c

0000000080000988 <i_554>:
    80000988:	001d8333          	add	t1,s11,ra

000000008000098c <i_555>:
    8000098c:	17611783          	lh	a5,374(sp)

0000000080000990 <i_556>:
    80000990:	01438263          	beq	t2,s4,80000994 <i_557>

0000000080000994 <i_557>:
    80000994:	00d00d13          	li	s10,13

0000000080000998 <i_558>:
    80000998:	01a317b3          	sll	a5,t1,s10

000000008000099c <i_559>:
    8000099c:	006d4863          	blt	s10,t1,800009ac <i_563>

00000000800009a0 <i_560>:
    800009a0:	00678c63          	beq	a5,t1,800009b8 <i_566>

00000000800009a4 <i_561>:
    800009a4:	00000013          	nop

00000000800009a8 <i_562>:
    800009a8:	fcf11b23          	sh	a5,-42(sp)

00000000800009ac <i_563>:
    800009ac:	00500793          	li	a5,5

00000000800009b0 <i_564>:
    800009b0:	40f95333          	sra	t1,s2,a5

00000000800009b4 <i_565>:
    800009b4:	19611783          	lh	a5,406(sp)

00000000800009b8 <i_566>:
    800009b8:	00300213          	li	tp,3

00000000800009bc <i_567>:
    800009bc:	0041d23b          	srlw	tp,gp,tp

00000000800009c0 <i_568>:
    800009c0:	85d00193          	li	gp,-1955

00000000800009c4 <i_569>:
    800009c4:	86600093          	li	ra,-1946

00000000800009c8 <i_570>:
    800009c8:	00000013          	nop

00000000800009cc <i_571>:
    800009cc:	02379463          	bne	a5,gp,800009f4 <i_580>

00000000800009d0 <i_572>:
    800009d0:	e9011203          	lh	tp,-368(sp)

00000000800009d4 <i_573>:
    800009d4:	00000013          	nop

00000000800009d8 <i_574>:
    800009d8:	0a411c83          	lh	s9,164(sp)

00000000800009dc <i_575>:
    800009dc:	fcf11b23          	sh	a5,-42(sp)

00000000800009e0 <i_576>:
    800009e0:	00118193          	addi	gp,gp,1 # 10001 <main-0x7ffeffff>
    800009e4:	fe30f2e3          	bleu	gp,ra,800009c8 <i_570>

00000000800009e8 <i_577>:
    800009e8:	02478463          	beq	a5,tp,80000a10 <i_587>

00000000800009ec <i_578>:
    800009ec:	019d7a63          	bleu	s9,s10,80000a00 <i_583>

00000000800009f0 <i_579>:
    800009f0:	00fc8863          	beq	s9,a5,80000a00 <i_583>

00000000800009f4 <i_580>:
    800009f4:	40420233          	sub	tp,tp,tp

00000000800009f8 <i_581>:
    800009f8:	02100d93          	li	s11,33

00000000800009fc <i_582>:
    800009fc:	01b110b3          	sll	ra,sp,s11

0000000080000a00 <i_583>:
    80000a00:	02109233          	mulh	tp,ra,ra

0000000080000a04 <i_584>:
    80000a04:	00f08663          	beq	ra,a5,80000a10 <i_587>

0000000080000a08 <i_585>:
    80000a08:	01b7c663          	blt	a5,s11,80000a14 <i_588>

0000000080000a0c <i_586>:
    80000a0c:	f5114303          	lbu	t1,-175(sp)

0000000080000a10 <i_587>:
    80000a10:	f4111123          	sh	ra,-190(sp)

0000000080000a14 <i_588>:
    80000a14:	00000013          	nop

0000000080000a18 <i_589>:
    80000a18:	0c812503          	lw	a0,200(sp)

0000000080000a1c <i_590>:
    80000a1c:	86100293          	li	t0,-1951

0000000080000a20 <i_591>:
    80000a20:	86900d93          	li	s11,-1943

0000000080000a24 <i_592>:
    80000a24:	004f8463          	beq	t6,tp,80000a2c <i_594>

0000000080000a28 <i_593>:
    80000a28:	001085b3          	add	a1,ra,ra

0000000080000a2c <i_594>:
    80000a2c:	f3914303          	lbu	t1,-199(sp)

0000000080000a30 <i_595>:
    80000a30:	00000013          	nop

0000000080000a34 <i_596>:
    80000a34:	00128293          	addi	t0,t0,1 # 3001 <main-0x7fffcfff>
    80000a38:	fe5df6e3          	bleu	t0,s11,80000a24 <i_592>

0000000080000a3c <i_597>:
    80000a3c:	00e00093          	li	ra,14

0000000080000a40 <i_598>:
    80000a40:	401dd6bb          	sraw	a3,s11,ra

0000000080000a44 <i_599>:
    80000a44:	02d10aa3          	sb	a3,53(sp)

0000000080000a48 <i_600>:
    80000a48:	00de0c63          	beq	t3,a3,80000a60 <i_606>

0000000080000a4c <i_601>:
    80000a4c:	4013d693          	srai	a3,t2,0x1

0000000080000a50 <i_602>:
    80000a50:	e7815383          	lhu	t2,-392(sp)

0000000080000a54 <i_603>:
    80000a54:	f6711823          	sh	t2,-144(sp)

0000000080000a58 <i_604>:
    80000a58:	0073a3b3          	slt	t2,t2,t2

0000000080000a5c <i_605>:
    80000a5c:	f5d12423          	sw	t4,-184(sp)

0000000080000a60 <i_606>:
    80000a60:	17013383          	ld	t2,368(sp)

0000000080000a64 <i_607>:
    80000a64:	e8012403          	lw	s0,-384(sp)

0000000080000a68 <i_608>:
    80000a68:	13b10983          	lb	s3,315(sp)

0000000080000a6c <i_609>:
    80000a6c:	0039969b          	slliw	a3,s3,0x3

0000000080000a70 <i_610>:
    80000a70:	0a415383          	lhu	t2,164(sp)

0000000080000a74 <i_611>:
    80000a74:	84c00993          	li	s3,-1972

0000000080000a78 <i_612>:
    80000a78:	85500593          	li	a1,-1963

0000000080000a7c <i_613>:
    80000a7c:	15514283          	lbu	t0,341(sp)

0000000080000a80 <i_614>:
    80000a80:	0253e2b3          	rem	t0,t2,t0

0000000080000a84 <i_615>:
    80000a84:	00000013          	nop

0000000080000a88 <i_616>:
    80000a88:	09710ca3          	sb	s7,153(sp)

0000000080000a8c <i_617>:
    80000a8c:	02529663          	bne	t0,t0,80000ab8 <i_627>

0000000080000a90 <i_618>:
    80000a90:	0bc12d83          	lw	s11,188(sp)

0000000080000a94 <i_619>:
    80000a94:	025d8263          	beq	s11,t0,80000ab8 <i_627>

0000000080000a98 <i_620>:
    80000a98:	004d909b          	slliw	ra,s11,0x4

0000000080000a9c <i_621>:
    80000a9c:	00000013          	nop

0000000080000aa0 <i_622>:
    80000aa0:	00f00c13          	li	s8,15

0000000080000aa4 <i_623>:
    80000aa4:	4187d0b3          	sra	ra,a5,s8

0000000080000aa8 <i_624>:
    80000aa8:	00198993          	addi	s3,s3,1
    80000aac:	fd3598e3          	bne	a1,s3,80000a7c <i_613>

0000000080000ab0 <i_625>:
    80000ab0:	f9a11603          	lh	a2,-102(sp)

0000000080000ab4 <i_626>:
    80000ab4:	10016083          	lwu	ra,256(sp)

0000000080000ab8 <i_627>:
    80000ab8:	02f00193          	li	gp,47

0000000080000abc <i_628>:
    80000abc:	003bd0b3          	srl	ra,s7,gp

0000000080000ac0 <i_629>:
    80000ac0:	018c4e63          	blt	s8,s8,80000adc <i_636>

0000000080000ac4 <i_630>:
    80000ac4:	07a10303          	lb	t1,122(sp)

0000000080000ac8 <i_631>:
    80000ac8:	0c111a23          	sh	ra,212(sp)

0000000080000acc <i_632>:
    80000acc:	eea14183          	lbu	gp,-278(sp)

0000000080000ad0 <i_633>:
    80000ad0:	0151c663          	blt	gp,s5,80000adc <i_636>

0000000080000ad4 <i_634>:
    80000ad4:	00cc5663          	ble	a2,s8,80000ae0 <i_637>

0000000080000ad8 <i_635>:
    80000ad8:	00618863          	beq	gp,t1,80000ae8 <i_639>

0000000080000adc <i_636>:
    80000adc:	001d3d33          	sltu	s10,s10,ra

0000000080000ae0 <i_637>:
    80000ae0:	0036119b          	slliw	gp,a2,0x3

0000000080000ae4 <i_638>:
    80000ae4:	e4311e23          	sh	gp,-420(sp)

0000000080000ae8 <i_639>:
    80000ae8:	0a310a23          	sb	gp,180(sp)

0000000080000aec <i_640>:
    80000aec:	0231c633          	div	a2,gp,gp

0000000080000af0 <i_641>:
    80000af0:	05e10083          	lb	ra,94(sp)

0000000080000af4 <i_642>:
    80000af4:	f9013183          	ld	gp,-112(sp)

0000000080000af8 <i_643>:
    80000af8:	de4fd397          	auipc	t2,0xde4fd

0000000080000afc <i_644>:
    80000afc:	054c0c1b          	addiw	s8,s8,84

0000000080000b00 <i_645>:
    80000b00:	e2511e23          	sh	t0,-452(sp)

0000000080000b04 <i_646>:
    80000b04:	89a00193          	li	gp,-1894

0000000080000b08 <i_647>:
    80000b08:	8ab00393          	li	t2,-1877

0000000080000b0c <i_648>:
    80000b0c:	ed611e03          	lh	t3,-298(sp)

0000000080000b10 <i_649>:
    80000b10:	00000013          	nop

0000000080000b14 <i_650>:
    80000b14:	013e0433          	add	s0,t3,s3

0000000080000b18 <i_651>:
    80000b18:	e2813c23          	sd	s0,-456(sp)

0000000080000b1c <i_652>:
    80000b1c:	00118193          	addi	gp,gp,1
    80000b20:	fe71c6e3          	blt	gp,t2,80000b0c <i_648>

0000000080000b24 <i_653>:
    80000b24:	01b980b3          	add	ra,s3,s11

0000000080000b28 <i_654>:
    80000b28:	004f9093          	slli	ra,t6,0x4

0000000080000b2c <i_655>:
    80000b2c:	0019c263          	blt	s3,ra,80000b30 <i_656>

0000000080000b30 <i_656>:
    80000b30:	2860809b          	addiw	ra,ra,646

0000000080000b34 <i_657>:
    80000b34:	06013983          	ld	s3,96(sp)

0000000080000b38 <i_658>:
    80000b38:	f85106a3          	sb	t0,-115(sp)

0000000080000b3c <i_659>:
    80000b3c:	12113423          	sd	ra,296(sp)

0000000080000b40 <i_660>:
    80000b40:	e9812383          	lw	t2,-360(sp)

0000000080000b44 <i_661>:
    80000b44:	16816283          	lwu	t0,360(sp)

0000000080000b48 <i_662>:
    80000b48:	03b3adb3          	mulhsu	s11,t2,s11

0000000080000b4c <i_663>:
    80000b4c:	0072e663          	bltu	t0,t2,80000b58 <i_666>

0000000080000b50 <i_664>:
    80000b50:	03bdedbb          	remw	s11,s11,s11

0000000080000b54 <i_665>:
    80000b54:	024a4e3b          	divw	t3,s4,tp

0000000080000b58 <i_666>:
    80000b58:	0073d863          	ble	t2,t2,80000b68 <i_670>

0000000080000b5c <i_667>:
    80000b5c:	f3a10383          	lb	t2,-198(sp)

0000000080000b60 <i_668>:
    80000b60:	021df0b3          	remu	ra,s11,ra

0000000080000b64 <i_669>:
    80000b64:	0042d59b          	srliw	a1,t0,0x4

0000000080000b68 <i_670>:
    80000b68:	ec8103a3          	sb	s0,-313(sp)

0000000080000b6c <i_671>:
    80000b6c:	00000013          	nop

0000000080000b70 <i_672>:
    80000b70:	7bf00f13          	li	t5,1983

0000000080000b74 <i_673>:
    80000b74:	7cb00293          	li	t0,1995

0000000080000b78 <i_674>:
    80000b78:	19e12c23          	sw	t5,408(sp)

0000000080000b7c <i_675>:
    80000b7c:	005f6e63          	bltu	t5,t0,80000b98 <i_682>

0000000080000b80 <i_676>:
    80000b80:	0058c663          	blt	a7,t0,80000b8c <i_679>

0000000080000b84 <i_677>:
    80000b84:	1a012683          	lw	a3,416(sp)

0000000080000b88 <i_678>:
    80000b88:	027953b3          	divu	t2,s2,t2

0000000080000b8c <i_679>:
    80000b8c:	4043d39b          	sraiw	t2,t2,0x4

0000000080000b90 <i_680>:
    80000b90:	f0711123          	sh	t2,-254(sp)

0000000080000b94 <i_681>:
    80000b94:	0af10803          	lb	a6,175(sp)

0000000080000b98 <i_682>:
    80000b98:	e4c15603          	lhu	a2,-436(sp)

0000000080000b9c <i_683>:
    80000b9c:	4046d693          	srai	a3,a3,0x4

0000000080000ba0 <i_684>:
    80000ba0:	12c16383          	lwu	t2,300(sp)

0000000080000ba4 <i_685>:
    80000ba4:	015acab3          	xor	s5,s5,s5

0000000080000ba8 <i_686>:
    80000ba8:	015beab3          	or	s5,s7,s5

0000000080000bac <i_687>:
    80000bac:	001f0f13          	addi	t5,t5,1
    80000bb0:	fc5f64e3          	bltu	t5,t0,80000b78 <i_674>

0000000080000bb4 <i_688>:
    80000bb4:	ff513423          	sd	s5,-24(sp)

0000000080000bb8 <i_689>:
    80000bb8:	e6712623          	sw	t2,-404(sp)

0000000080000bbc <i_690>:
    80000bbc:	035ad0bb          	divuw	ra,s5,s5

0000000080000bc0 <i_691>:
    80000bc0:	e5513c23          	sd	s5,-424(sp)

0000000080000bc4 <i_692>:
    80000bc4:	f9e14283          	lbu	t0,-98(sp)

0000000080000bc8 <i_693>:
    80000bc8:	0d512e23          	sw	s5,220(sp)

0000000080000bcc <i_694>:
    80000bcc:	16615c03          	lhu	s8,358(sp)

0000000080000bd0 <i_695>:
    80000bd0:	01eadc63          	ble	t5,s5,80000be8 <i_701>

0000000080000bd4 <i_696>:
    80000bd4:	e5513823          	sd	s5,-432(sp)

0000000080000bd8 <i_697>:
    80000bd8:	0183c463          	blt	t2,s8,80000be0 <i_699>

0000000080000bdc <i_698>:
    80000bdc:	f7813a83          	ld	s5,-136(sp)

0000000080000be0 <i_699>:
    80000be0:	07511e23          	sh	s5,124(sp)

0000000080000be4 <i_700>:
    80000be4:	0d811d23          	sh	s8,218(sp)

0000000080000be8 <i_701>:
    80000be8:	f5511723          	sh	s5,-178(sp)

0000000080000bec <i_702>:
    80000bec:	f3013a83          	ld	s5,-208(sp)

0000000080000bf0 <i_703>:
    80000bf0:	001ccc33          	xor	s8,s9,ra

0000000080000bf4 <i_704>:
    80000bf4:	f1510523          	sb	s5,-246(sp)

0000000080000bf8 <i_705>:
    80000bf8:	1c016083          	lwu	ra,448(sp)

0000000080000bfc <i_706>:
    80000bfc:	00000013          	nop

0000000080000c00 <i_707>:
    80000c00:	83900a93          	li	s5,-1991

0000000080000c04 <i_708>:
    80000c04:	84600393          	li	t2,-1978

0000000080000c08 <i_709>:
    80000c08:	8bba6617          	auipc	a2,0x8bba6

0000000080000c0c <i_710>:
    80000c0c:	1e112023          	sw	ra,480(sp)

0000000080000c10 <i_711>:
    80000c10:	82f00c93          	li	s9,-2001

0000000080000c14 <i_712>:
    80000c14:	83400493          	li	s1,-1996

0000000080000c18 <i_713>:
    80000c18:	01500093          	li	ra,21

0000000080000c1c <i_714>:
    80000c1c:	001090b3          	sll	ra,ra,ra

0000000080000c20 <i_715>:
    80000c20:	02c16d83          	lwu	s11,44(sp)

0000000080000c24 <i_716>:
    80000c24:	ef611083          	lh	ra,-266(sp)

0000000080000c28 <i_717>:
    80000c28:	15d10183          	lb	gp,349(sp)

0000000080000c2c <i_718>:
    80000c2c:	001c8c93          	addi	s9,s9,1 # 234f4001 <main-0x5cb0bfff>
    80000c30:	ff94f4e3          	bleu	s9,s1,80000c18 <i_713>

0000000080000c34 <i_719>:
    80000c34:	02345263          	ble	gp,s0,80000c58 <i_727>

0000000080000c38 <i_720>:
    80000c38:	001a8a93          	addi	s5,s5,1
    80000c3c:	fc7a96e3          	bne	s5,t2,80000c08 <i_709>

0000000080000c40 <i_721>:
    80000c40:	03bdb5b3          	mulhu	a1,s11,s11

0000000080000c44 <i_722>:
    80000c44:	0ca14083          	lbu	ra,202(sp)

0000000080000c48 <i_723>:
    80000c48:	1ac12d83          	lw	s11,428(sp)

0000000080000c4c <i_724>:
    80000c4c:	924dad17          	auipc	s10,0x924da

0000000080000c50 <i_725>:
    80000c50:	03416d83          	lwu	s11,52(sp)

0000000080000c54 <i_726>:
    80000c54:	e2810123          	sb	s0,-478(sp)

0000000080000c58 <i_727>:
    80000c58:	ffa104a3          	sb	s10,-23(sp)

0000000080000c5c <i_728>:
    80000c5c:	0bc11b03          	lh	s6,188(sp)

0000000080000c60 <i_729>:
    80000c60:	009d24b3          	slt	s1,s10,s1

0000000080000c64 <i_730>:
    80000c64:	036366bb          	remw	a3,t1,s6

0000000080000c68 <i_731>:
    80000c68:	6fad0d13          	addi	s10,s10,1786 # 124db346 <main-0x6db24cba>

0000000080000c6c <i_732>:
    80000c6c:	01636b33          	or	s6,t1,s6

0000000080000c70 <i_733>:
    80000c70:	029d1063          	bne	s10,s1,80000c90 <i_741>

0000000080000c74 <i_734>:
    80000c74:	00249f1b          	slliw	t5,s1,0x2

0000000080000c78 <i_735>:
    80000c78:	62240d97          	auipc	s11,0x62240

0000000080000c7c <i_736>:
    80000c7c:	ec812d03          	lw	s10,-312(sp)

0000000080000c80 <i_737>:
    80000c80:	11a10c23          	sb	s10,280(sp)

0000000080000c84 <i_738>:
    80000c84:	009424b3          	slt	s1,s0,s1

0000000080000c88 <i_739>:
    80000c88:	001ad093          	srli	ra,s5,0x1

0000000080000c8c <i_740>:
    80000c8c:	00000013          	nop

0000000080000c90 <i_741>:
    80000c90:	0314cebb          	divw	t4,s1,a7

0000000080000c94 <i_742>:
    80000c94:	1c113823          	sd	ra,464(sp)

0000000080000c98 <i_743>:
    80000c98:	87000d13          	li	s10,-1936

0000000080000c9c <i_744>:
    80000c9c:	87a00413          	li	s0,-1926

0000000080000ca0 <i_745>:
    80000ca0:	001d0d13          	addi	s10,s10,1
    80000ca4:	fe8d6ee3          	bltu	s10,s0,80000ca0 <i_745>

0000000080000ca8 <i_746>:
    80000ca8:	11012a83          	lw	s5,272(sp)

0000000080000cac <i_747>:
    80000cac:	00145863          	ble	ra,s0,80000cbc <i_751>

0000000080000cb0 <i_748>:
    80000cb0:	03d494b3          	mulh	s1,s1,t4

0000000080000cb4 <i_749>:
    80000cb4:	0234e463          	bltu	s1,gp,80000cdc <i_759>

0000000080000cb8 <i_750>:
    80000cb8:	004a9a93          	slli	s5,s5,0x4

0000000080000cbc <i_751>:
    80000cbc:	005a85b3          	add	a1,s5,t0

0000000080000cc0 <i_752>:
    80000cc0:	f7d11c23          	sh	t4,-136(sp)

0000000080000cc4 <i_753>:
    80000cc4:	ed416683          	lwu	a3,-300(sp)

0000000080000cc8 <i_754>:
    80000cc8:	fad11d23          	sh	a3,-70(sp)

0000000080000ccc <i_755>:
    80000ccc:	00000013          	nop

0000000080000cd0 <i_756>:
    80000cd0:	1dd11023          	sh	t4,448(sp)

0000000080000cd4 <i_757>:
    80000cd4:	0ef12823          	sw	a5,240(sp)

0000000080000cd8 <i_758>:
    80000cd8:	c8840693          	addi	a3,s0,-888

0000000080000cdc <i_759>:
    80000cdc:	fcc12403          	lw	s0,-52(sp)

0000000080000ce0 <i_760>:
    80000ce0:	40d4023b          	subw	tp,s0,a3

0000000080000ce4 <i_761>:
    80000ce4:	85100a93          	li	s5,-1967

0000000080000ce8 <i_762>:
    80000ce8:	85300793          	li	a5,-1965

0000000080000cec <i_763>:
    80000cec:	00d44263          	blt	s0,a3,80000cf0 <i_764>

0000000080000cf0 <i_764>:
    80000cf0:	e9c11203          	lh	tp,-356(sp)

0000000080000cf4 <i_765>:
    80000cf4:	01c1fe33          	and	t3,gp,t3

0000000080000cf8 <i_766>:
    80000cf8:	fc812423          	sw	s0,-56(sp)

0000000080000cfc <i_767>:
    80000cfc:	ef712a23          	sw	s7,-268(sp)

0000000080000d00 <i_768>:
    80000d00:	02013683          	ld	a3,32(sp)

0000000080000d04 <i_769>:
    80000d04:	001a8a93          	addi	s5,s5,1
    80000d08:	fefac2e3          	blt	s5,a5,80000cec <i_763>

0000000080000d0c <i_770>:
    80000d0c:	1b012a03          	lw	s4,432(sp)

0000000080000d10 <i_771>:
    80000d10:	03200413          	li	s0,50

0000000080000d14 <i_772>:
    80000d14:	008b5a33          	srl	s4,s6,s0

0000000080000d18 <i_773>:
    80000d18:	7ab00e13          	li	t3,1963

0000000080000d1c <i_774>:
    80000d1c:	7bc00793          	li	a5,1980

0000000080000d20 <i_775>:
    80000d20:	00e00a13          	li	s4,14

0000000080000d24 <i_776>:
    80000d24:	0144543b          	srlw	s0,s0,s4

0000000080000d28 <i_777>:
    80000d28:	028a1cb3          	mulh	s9,s4,s0

0000000080000d2c <i_778>:
    80000d2c:	001e0e13          	addi	t3,t3,1
    80000d30:	fefe48e3          	blt	t3,a5,80000d20 <i_775>

0000000080000d34 <i_779>:
    80000d34:	40840a33          	sub	s4,s0,s0

0000000080000d38 <i_780>:
    80000d38:	0dc15c03          	lhu	s8,220(sp)

0000000080000d3c <i_781>:
    80000d3c:	039b9263          	bne	s7,s9,80000d60 <i_790>

0000000080000d40 <i_782>:
    80000d40:	18215a03          	lhu	s4,386(sp)

0000000080000d44 <i_783>:
    80000d44:	00941c63          	bne	s0,s1,80000d5c <i_789>

0000000080000d48 <i_784>:
    80000d48:	03e00c13          	li	s8,62

0000000080000d4c <i_785>:
    80000d4c:	018c16b3          	sll	a3,s8,s8

0000000080000d50 <i_786>:
    80000d50:	038a4463          	blt	s4,s8,80000d78 <i_796>

0000000080000d54 <i_787>:
    80000d54:	02814c03          	lbu	s8,40(sp)

0000000080000d58 <i_788>:
    80000d58:	00da6663          	bltu	s4,a3,80000d64 <i_791>

0000000080000d5c <i_789>:
    80000d5c:	00800793          	li	a5,8

0000000080000d60 <i_790>:
    80000d60:	00fa1633          	sll	a2,s4,a5

0000000080000d64 <i_791>:
    80000d64:	ea012d83          	lw	s11,-352(sp)

0000000080000d68 <i_792>:
    80000d68:	002a0263          	beq	s4,sp,80000d6c <i_793>

0000000080000d6c <i_793>:
    80000d6c:	712dc513          	xori	a0,s11,1810

0000000080000d70 <i_794>:
    80000d70:	02813303          	ld	t1,40(sp)

0000000080000d74 <i_795>:
    80000d74:	00000013          	nop

0000000080000d78 <i_796>:
    80000d78:	00612423          	sw	t1,8(sp)

0000000080000d7c <i_797>:
    80000d7c:	0e615303          	lhu	t1,230(sp)

0000000080000d80 <i_798>:
    80000d80:	72f00493          	li	s1,1839

0000000080000d84 <i_799>:
    80000d84:	73600693          	li	a3,1846

0000000080000d88 <i_800>:
    80000d88:	038c0263          	beq	s8,s8,80000dac <i_808>

0000000080000d8c <i_801>:
    80000d8c:	f5012c23          	sw	a6,-168(sp)

0000000080000d90 <i_802>:
    80000d90:	ec612623          	sw	t1,-308(sp)

0000000080000d94 <i_803>:
    80000d94:	02a36c33          	rem	s8,t1,a0

0000000080000d98 <i_804>:
    80000d98:	0a613c23          	sd	t1,184(sp)

0000000080000d9c <i_805>:
    80000d9c:	00148493          	addi	s1,s1,1
    80000da0:	fe96d4e3          	ble	s1,a3,80000d88 <i_800>

0000000080000da4 <i_806>:
    80000da4:	002fd31b          	srliw	t1,t6,0x2

0000000080000da8 <i_807>:
    80000da8:	12012c03          	lw	s8,288(sp)

0000000080000dac <i_808>:
    80000dac:	17c12303          	lw	t1,380(sp)

0000000080000db0 <i_809>:
    80000db0:	40335c13          	srai	s8,t1,0x3

0000000080000db4 <i_810>:
    80000db4:	018c6c63          	bltu	s8,s8,80000dcc <i_816>

0000000080000db8 <i_811>:
    80000db8:	00630633          	add	a2,t1,t1

0000000080000dbc <i_812>:
    80000dbc:	efe15303          	lhu	t1,-258(sp)

0000000080000dc0 <i_813>:
    80000dc0:	10412c83          	lw	s9,260(sp)

0000000080000dc4 <i_814>:
    80000dc4:	0f813303          	ld	t1,248(sp)

0000000080000dc8 <i_815>:
    80000dc8:	0394c3b3          	div	t2,s1,s9

0000000080000dcc <i_816>:
    80000dcc:	1a911323          	sh	s1,422(sp)

0000000080000dd0 <i_817>:
    80000dd0:	00000013          	nop

0000000080000dd4 <i_818>:
    80000dd4:	89700d13          	li	s10,-1897

0000000080000dd8 <i_819>:
    80000dd8:	8a100493          	li	s1,-1887

0000000080000ddc <i_820>:
    80000ddc:	fdc16083          	lwu	ra,-36(sp)

0000000080000de0 <i_821>:
    80000de0:	00400313          	li	t1,4

0000000080000de4 <i_822>:
    80000de4:	406f56b3          	sra	a3,t5,t1

0000000080000de8 <i_823>:
    80000de8:	fd615983          	lhu	s3,-42(sp)

0000000080000dec <i_824>:
    80000dec:	00400993          	li	s3,4

0000000080000df0 <i_825>:
    80000df0:	0134d1b3          	srl	gp,s1,s3

0000000080000df4 <i_826>:
    80000df4:	00000013          	nop

0000000080000df8 <i_827>:
    80000df8:	00000013          	nop

0000000080000dfc <i_828>:
    80000dfc:	16e11183          	lh	gp,366(sp)

0000000080000e00 <i_829>:
    80000e00:	05a14183          	lbu	gp,90(sp)

0000000080000e04 <i_830>:
    80000e04:	11a15283          	lhu	t0,282(sp)

0000000080000e08 <i_831>:
    80000e08:	001d0d13          	addi	s10,s10,1
    80000e0c:	fc9d48e3          	blt	s10,s1,80000ddc <i_820>

0000000080000e10 <i_832>:
    80000e10:	1ac10283          	lb	t0,428(sp)

0000000080000e14 <i_833>:
    80000e14:	01f18263          	beq	gp,t6,80000e18 <i_834>

0000000080000e18 <i_834>:
    80000e18:	fe312223          	sw	gp,-28(sp)

0000000080000e1c <i_835>:
    80000e1c:	4011d293          	srai	t0,gp,0x1

0000000080000e20 <i_836>:
    80000e20:	06312823          	sw	gp,112(sp)

0000000080000e24 <i_837>:
    80000e24:	f6511d23          	sh	t0,-134(sp)

0000000080000e28 <i_838>:
    80000e28:	023cb2b3          	mulhu	t0,s9,gp

0000000080000e2c <i_839>:
    80000e2c:	025281b3          	mul	gp,t0,t0

0000000080000e30 <i_840>:
    80000e30:	17e15e83          	lhu	t4,382(sp)

0000000080000e34 <i_841>:
    80000e34:	035e81b3          	mul	gp,t4,s5

0000000080000e38 <i_842>:
    80000e38:	00328c63          	beq	t0,gp,80000e50 <i_848>

0000000080000e3c <i_843>:
    80000e3c:	0052ea63          	bltu	t0,t0,80000e50 <i_848>

0000000080000e40 <i_844>:
    80000e40:	0ac12b83          	lw	s7,172(sp)

0000000080000e44 <i_845>:
    80000e44:	03f08463          	beq	ra,t6,80000e6c <i_855>

0000000080000e48 <i_846>:
    80000e48:	003bda63          	ble	gp,s7,80000e5c <i_851>

0000000080000e4c <i_847>:
    80000e4c:	0292d463          	ble	s1,t0,80000e74 <i_857>

0000000080000e50 <i_848>:
    80000e50:	037edd3b          	divuw	s10,t4,s7

0000000080000e54 <i_849>:
    80000e54:	0031fa63          	bleu	gp,gp,80000e68 <i_854>

0000000080000e58 <i_850>:
    80000e58:	403d5b93          	srai	s7,s10,0x3

0000000080000e5c <i_851>:
    80000e5c:	f3615183          	lhu	gp,-202(sp)

0000000080000e60 <i_852>:
    80000e60:	025ef263          	bleu	t0,t4,80000e84 <i_861>

0000000080000e64 <i_853>:
    80000e64:	f2314d03          	lbu	s10,-221(sp)

0000000080000e68 <i_854>:
    80000e68:	01ad6533          	or	a0,s10,s10

0000000080000e6c <i_855>:
    80000e6c:	01a57a63          	bleu	s10,a0,80000e80 <i_860>

0000000080000e70 <i_856>:
    80000e70:	004d5d1b          	srliw	s10,s10,0x4

0000000080000e74 <i_857>:
    80000e74:	00279d1b          	slliw	s10,a5,0x2

0000000080000e78 <i_858>:
    80000e78:	01a12423          	sw	s10,8(sp)

0000000080000e7c <i_859>:
    80000e7c:	02a54d33          	div	s10,a0,a0

0000000080000e80 <i_860>:
    80000e80:	00a11f23          	sh	a0,30(sp)

0000000080000e84 <i_861>:
    80000e84:	1ce85e97          	auipc	t4,0x1ce85

0000000080000e88 <i_862>:
    80000e88:	e9d105a3          	sb	t4,-373(sp)

0000000080000e8c <i_863>:
    80000e8c:	1ba15283          	lhu	t0,442(sp)

0000000080000e90 <i_864>:
    80000e90:	f6a13823          	sd	a0,-144(sp)

0000000080000e94 <i_865>:
    80000e94:	f1f11b23          	sh	t6,-234(sp)

0000000080000e98 <i_866>:
    80000e98:	16c11d03          	lh	s10,364(sp)

0000000080000e9c <i_867>:
    80000e9c:	03a2e263          	bltu	t0,s10,80000ec0 <i_876>

0000000080000ea0 <i_868>:
    80000ea0:	19813d03          	ld	s10,408(sp)

0000000080000ea4 <i_869>:
    80000ea4:	f8513c23          	sd	t0,-104(sp)

0000000080000ea8 <i_870>:
    80000ea8:	01e00993          	li	s3,30

0000000080000eac <i_871>:
    80000eac:	013496bb          	sllw	a3,s1,s3

0000000080000eb0 <i_872>:
    80000eb0:	013c7c63          	bleu	s3,s8,80000ec8 <i_878>

0000000080000eb4 <i_873>:
    80000eb4:	02d21233          	mulh	tp,tp,a3

0000000080000eb8 <i_874>:
    80000eb8:	06c12983          	lw	s3,108(sp)

0000000080000ebc <i_875>:
    80000ebc:	0242f2bb          	remuw	t0,t0,tp

0000000080000ec0 <i_876>:
    80000ec0:	00421e63          	bne	tp,tp,80000edc <i_883>

0000000080000ec4 <i_877>:
    80000ec4:	21069697          	auipc	a3,0x21069

0000000080000ec8 <i_878>:
    80000ec8:	1a013203          	ld	tp,416(sp)

0000000080000ecc <i_879>:
    80000ecc:	80353793          	sltiu	a5,a0,-2045

0000000080000ed0 <i_880>:
    80000ed0:	0107da63          	ble	a6,a5,80000ee4 <i_885>

0000000080000ed4 <i_881>:
    80000ed4:	4042d213          	srai	tp,t0,0x4

0000000080000ed8 <i_882>:
    80000ed8:	0d016283          	lwu	t0,208(sp)

0000000080000edc <i_883>:
    80000edc:	0c010803          	lb	a6,192(sp)

0000000080000ee0 <i_884>:
    80000ee0:	007c6c33          	or	s8,s8,t2

0000000080000ee4 <i_885>:
    80000ee4:	0187f663          	bleu	s8,a5,80000ef0 <i_888>

0000000080000ee8 <i_886>:
    80000ee8:	17816303          	lwu	t1,376(sp)

0000000080000eec <i_887>:
    80000eec:	eba14803          	lbu	a6,-326(sp)

0000000080000ef0 <i_888>:
    80000ef0:	01c31e63          	bne	t1,t3,80000f0c <i_895>

0000000080000ef4 <i_889>:
    80000ef4:	00f34863          	blt	t1,a5,80000f04 <i_893>

0000000080000ef8 <i_890>:
    80000ef8:	e6410c23          	sb	tp,-392(sp)

0000000080000efc <i_891>:
    80000efc:	d517e813          	ori	a6,a5,-687

0000000080000f00 <i_892>:
    80000f00:	03422a33          	mulhsu	s4,tp,s4

0000000080000f04 <i_893>:
    80000f04:	e3611603          	lh	a2,-458(sp)

0000000080000f08 <i_894>:
    80000f08:	e6615803          	lhu	a6,-410(sp)

0000000080000f0c <i_895>:
    80000f0c:	030dcdb3          	div	s11,s11,a6

0000000080000f10 <i_896>:
    80000f10:	fec16483          	lwu	s1,-20(sp)

0000000080000f14 <i_897>:
    80000f14:	3737a613          	slti	a2,a5,883

0000000080000f18 <i_898>:
    80000f18:	84f00693          	li	a3,-1969

0000000080000f1c <i_899>:
    80000f1c:	85100a13          	li	s4,-1967

0000000080000f20 <i_900>:
    80000f20:	05e15783          	lhu	a5,94(sp)

0000000080000f24 <i_901>:
    80000f24:	04610b83          	lb	s7,70(sp)

0000000080000f28 <i_902>:
    80000f28:	029595b3          	mulh	a1,a1,s1

0000000080000f2c <i_903>:
    80000f2c:	01a5ca63          	blt	a1,s10,80000f40 <i_907>

0000000080000f30 <i_904>:
    80000f30:	00168693          	addi	a3,a3,1 # a1069ec5 <_end+0x21059ab1>
    80000f34:	ff46c6e3          	blt	a3,s4,80000f20 <i_900>

0000000080000f38 <i_905>:
    80000f38:	0175ea63          	bltu	a1,s7,80000f4c <i_910>

0000000080000f3c <i_906>:
    80000f3c:	17416b83          	lwu	s7,372(sp)

0000000080000f40 <i_907>:
    80000f40:	19416583          	lwu	a1,404(sp)

0000000080000f44 <i_908>:
    80000f44:	0175de63          	ble	s7,a1,80000f60 <i_915>

0000000080000f48 <i_909>:
    80000f48:	03758bbb          	mulw	s7,a1,s7

0000000080000f4c <i_910>:
    80000f4c:	00b97c63          	bleu	a1,s2,80000f64 <i_916>

0000000080000f50 <i_911>:
    80000f50:	00b5d663          	ble	a1,a1,80000f5c <i_914>

0000000080000f54 <i_912>:
    80000f54:	01300213          	li	tp,19

0000000080000f58 <i_913>:
    80000f58:	004bd5bb          	srlw	a1,s7,tp

0000000080000f5c <i_914>:
    80000f5c:	00b26a63          	bltu	tp,a1,80000f70 <i_919>

0000000080000f60 <i_915>:
    80000f60:	e2b13423          	sd	a1,-472(sp)

0000000080000f64 <i_916>:
    80000f64:	f5214783          	lbu	a5,-174(sp)

0000000080000f68 <i_917>:
    80000f68:	1dc12b03          	lw	s6,476(sp)

0000000080000f6c <i_918>:
    80000f6c:	00f5ee63          	bltu	a1,a5,80000f88 <i_925>

0000000080000f70 <i_919>:
    80000f70:	f4e14283          	lbu	t0,-178(sp)

0000000080000f74 <i_920>:
    80000f74:	02b29263          	bne	t0,a1,80000f98 <i_929>

0000000080000f78 <i_921>:
    80000f78:	e7f14e83          	lbu	t4,-385(sp)

0000000080000f7c <i_922>:
    80000f7c:	04812283          	lw	t0,72(sp)

0000000080000f80 <i_923>:
    80000f80:	72b93297          	auipc	t0,0x72b93

0000000080000f84 <i_924>:
    80000f84:	a142f293          	andi	t0,t0,-1516

0000000080000f88 <i_925>:
    80000f88:	01d1c263          	blt	gp,t4,80000f8c <i_926>

0000000080000f8c <i_926>:
    80000f8c:	0c215083          	lhu	ra,194(sp)

0000000080000f90 <i_927>:
    80000f90:	d14efe93          	andi	t4,t4,-748

0000000080000f94 <i_928>:
    80000f94:	0018da63          	ble	ra,a7,80000fa8 <i_933>

0000000080000f98 <i_929>:
    80000f98:	13412c03          	lw	s8,308(sp)

0000000080000f9c <i_930>:
    80000f9c:	00e0ea63          	bltu	ra,a4,80000fb0 <i_935>

0000000080000fa0 <i_931>:
    80000fa0:	03dddeb3          	divu	t4,s11,t4

0000000080000fa4 <i_932>:
    80000fa4:	f5d13c23          	sd	t4,-168(sp)

0000000080000fa8 <i_933>:
    80000fa8:	01defa63          	bleu	t4,t4,80000fbc <i_938>

0000000080000fac <i_934>:
    80000fac:	f9d10423          	sb	t4,-120(sp)

0000000080000fb0 <i_935>:
    80000fb0:	00000013          	nop

0000000080000fb4 <i_936>:
    80000fb4:	1a013383          	ld	t2,416(sp)

0000000080000fb8 <i_937>:
    80000fb8:	fb015e03          	lhu	t3,-80(sp)

0000000080000fbc <i_938>:
    80000fbc:	9c133813          	sltiu	a6,t1,-1599

0000000080000fc0 <i_939>:
    80000fc0:	edd10323          	sb	t4,-314(sp)

0000000080000fc4 <i_940>:
    80000fc4:	88b00e93          	li	t4,-1909

0000000080000fc8 <i_941>:
    80000fc8:	89600c13          	li	s8,-1898

0000000080000fcc <i_942>:
    80000fcc:	018c5263          	ble	s8,s8,80000fd0 <i_943>

0000000080000fd0 <i_943>:
    80000fd0:	01d37463          	bleu	t4,t1,80000fd8 <i_945>

0000000080000fd4 <i_944>:
    80000fd4:	feb14303          	lbu	t1,-21(sp)

0000000080000fd8 <i_945>:
    80000fd8:	00e14383          	lbu	t2,14(sp)

0000000080000fdc <i_946>:
    80000fdc:	03c27463          	bleu	t3,tp,80001004 <i_955>

0000000080000fe0 <i_947>:
    80000fe0:	f6814a03          	lbu	s4,-152(sp)

0000000080000fe4 <i_948>:
    80000fe4:	039a6663          	bltu	s4,s9,80001010 <i_958>

0000000080000fe8 <i_949>:
    80000fe8:	001e8e93          	addi	t4,t4,1 # 9ce85e85 <_end+0x1ce75a71>
    80000fec:	ff8ee0e3          	bltu	t4,s8,80000fcc <i_942>

0000000080000ff0 <i_950>:
    80000ff0:	d1f50db7          	lui	s11,0xd1f50

0000000080000ff4 <i_951>:
    80000ff4:	010dbf33          	sltu	t5,s11,a6

0000000080000ff8 <i_952>:
    80000ff8:	007e7c33          	and	s8,t3,t2

0000000080000ffc <i_953>:
    80000ffc:	41ba0233          	sub	tp,s4,s11

0000000080001000 <i_954>:
    80001000:	007f7f33          	and	t5,t5,t2

0000000080001004 <i_955>:
    80001004:	004f0863          	beq	t5,tp,80001014 <i_959>

0000000080001008 <i_956>:
    80001008:	15416183          	lwu	gp,340(sp)

000000008000100c <i_957>:
    8000100c:	03061263          	bne	a2,a6,80001030 <i_966>

0000000080001010 <i_958>:
    80001010:	00000013          	nop

0000000080001014 <i_959>:
    80001014:	00000013          	nop

0000000080001018 <i_960>:
    80001018:	f4313823          	sd	gp,-176(sp)

000000008000101c <i_961>:
    8000101c:	e4813b83          	ld	s7,-440(sp)

0000000080001020 <i_962>:
    80001020:	00000013          	nop

0000000080001024 <i_963>:
    80001024:	003b3b33          	sltu	s6,s6,gp

0000000080001028 <i_964>:
    80001028:	0011d993          	srli	s3,gp,0x1

000000008000102c <i_965>:
    8000102c:	0b380513          	addi	a0,a6,179 # ffffffffbbbf40b3 <_end+0xffffffff3bbe3c9f>

0000000080001030 <i_966>:
    80001030:	03357dbb          	remuw	s11,a0,s3

0000000080001034 <i_967>:
    80001034:	0dd57993          	andi	s3,a0,221

0000000080001038 <i_968>:
    80001038:	85900193          	li	gp,-1959

000000008000103c <i_969>:
    8000103c:	86200813          	li	a6,-1950

0000000080001040 <i_970>:
    80001040:	04a10fa3          	sb	a0,95(sp)

0000000080001044 <i_971>:
    80001044:	4049d093          	srai	ra,s3,0x4

0000000080001048 <i_972>:
    80001048:	e69dc513          	xori	a0,s11,-407

000000008000104c <i_973>:
    8000104c:	00118193          	addi	gp,gp,1
    80001050:	fe3858e3          	ble	gp,a6,80001040 <i_970>

0000000080001054 <i_974>:
    80001054:	ff412203          	lw	tp,-12(sp)

0000000080001058 <i_975>:
    80001058:	0a214283          	lbu	t0,162(sp)

000000008000105c <i_976>:
    8000105c:	06411823          	sh	tp,112(sp)

0000000080001060 <i_977>:
    80001060:	004d82b3          	add	t0,s11,tp

0000000080001064 <i_978>:
    80001064:	8ad00d93          	li	s11,-1875

0000000080001068 <i_979>:
    80001068:	8b500213          	li	tp,-1867

000000008000106c <i_980>:
    8000106c:	004de463          	bltu	s11,tp,80001074 <i_982>

0000000080001070 <i_981>:
    80001070:	00900e13          	li	t3,9

0000000080001074 <i_982>:
    80001074:	01c35333          	srl	t1,t1,t3

0000000080001078 <i_983>:
    80001078:	03c98333          	mul	t1,s3,t3

000000008000107c <i_984>:
    8000107c:	00000013          	nop

0000000080001080 <i_985>:
    80001080:	01900493          	li	s1,25

0000000080001084 <i_986>:
    80001084:	0098d7b3          	srl	a5,a7,s1

0000000080001088 <i_987>:
    80001088:	001d8d93          	addi	s11,s11,1 # ffffffffd1f50001 <_end+0xffffffff51f3fbed>
    8000108c:	ffb250e3          	ble	s11,tp,8000106c <i_980>

0000000080001090 <i_988>:
    80001090:	00000013          	nop

0000000080001094 <i_989>:
    80001094:	02fd9263          	bne	s11,a5,800010b8 <i_998>

0000000080001098 <i_990>:
    80001098:	01bdc863          	blt	s11,s11,800010a8 <i_994>

000000008000109c <i_991>:
    8000109c:	00fd8a63          	beq	s11,a5,800010b0 <i_996>

00000000800010a0 <i_992>:
    800010a0:	03b4d263          	ble	s11,s1,800010c4 <i_1001>

00000000800010a4 <i_993>:
    800010a4:	18910c23          	sb	s1,408(sp)

00000000800010a8 <i_994>:
    800010a8:	00f38b33          	add	s6,t2,a5

00000000800010ac <i_995>:
    800010ac:	0cf11123          	sh	a5,194(sp)

00000000800010b0 <i_996>:
    800010b0:	01611823          	sh	s6,16(sp)

00000000800010b4 <i_997>:
    800010b4:	0364c263          	blt	s1,s6,800010d8 <i_1006>

00000000800010b8 <i_998>:
    800010b8:	00000013          	nop

00000000800010bc <i_999>:
    800010bc:	ed611923          	sh	s6,-302(sp)

00000000800010c0 <i_1000>:
    800010c0:	ebd11d23          	sh	t4,-326(sp)

00000000800010c4 <i_1001>:
    800010c4:	0034d793          	srli	a5,s1,0x3

00000000800010c8 <i_1002>:
    800010c8:	14911f23          	sh	s1,350(sp)

00000000800010cc <i_1003>:
    800010cc:	19815c03          	lhu	s8,408(sp)

00000000800010d0 <i_1004>:
    800010d0:	93bb4b37          	lui	s6,0x93bb4

00000000800010d4 <i_1005>:
    800010d4:	15114b03          	lbu	s6,337(sp)

00000000800010d8 <i_1006>:
    800010d8:	f1deab37          	lui	s6,0xf1dea

00000000800010dc <i_1007>:
    800010dc:	f5810523          	sb	s8,-182(sp)

00000000800010e0 <i_1008>:
    800010e0:	8a800e93          	li	t4,-1880

00000000800010e4 <i_1009>:
    800010e4:	8b100293          	li	t0,-1871

00000000800010e8 <i_1010>:
    800010e8:	8223cb13          	xori	s6,t2,-2014

00000000800010ec <i_1011>:
    800010ec:	018c0b33          	add	s6,s8,s8

00000000800010f0 <i_1012>:
    800010f0:	e5412c03          	lw	s8,-428(sp)

00000000800010f4 <i_1013>:
    800010f4:	fd510083          	lb	ra,-43(sp)

00000000800010f8 <i_1014>:
    800010f8:	0360b0b3          	mulhu	ra,ra,s6

00000000800010fc <i_1015>:
    800010fc:	038c7263          	bleu	s8,s8,80001120 <i_1023>

0000000080001100 <i_1016>:
    80001100:	001e8e93          	addi	t4,t4,1
    80001104:	ffd2d2e3          	ble	t4,t0,800010e8 <i_1010>

0000000080001108 <i_1017>:
    80001108:	0010fc63          	bleu	ra,ra,80001120 <i_1023>

000000008000110c <i_1018>:
    8000110c:	f4a11203          	lh	tp,-182(sp)

0000000080001110 <i_1019>:
    80001110:	e3612423          	sw	s6,-472(sp)

0000000080001114 <i_1020>:
    80001114:	93b25837          	lui	a6,0x93b25

0000000080001118 <i_1021>:
    80001118:	1ab10b83          	lb	s7,427(sp)

000000008000111c <i_1022>:
    8000111c:	f3a11723          	sh	s10,-210(sp)

0000000080001120 <i_1023>:
    80001120:	410b0b33          	sub	s6,s6,a6

0000000080001124 <i_1024>:
    80001124:	016bf3b3          	and	t2,s7,s6

0000000080001128 <i_1025>:
    80001128:	84200213          	li	tp,-1982

000000008000112c <i_1026>:
    8000112c:	85000293          	li	t0,-1968

0000000080001130 <i_1027>:
    80001130:	19712223          	sw	s7,388(sp)

0000000080001134 <i_1028>:
    80001134:	037b0263          	beq	s6,s7,80001158 <i_1036>

0000000080001138 <i_1029>:
    80001138:	00000013          	nop

000000008000113c <i_1030>:
    8000113c:	ea813b03          	ld	s6,-344(sp)

0000000080001140 <i_1031>:
    80001140:	1a815403          	lhu	s0,424(sp)

0000000080001144 <i_1032>:
    80001144:	037baeb3          	mulhsu	t4,s7,s7

0000000080001148 <i_1033>:
    80001148:	00120213          	addi	tp,tp,1 # 1 <main-0x7fffffff>
    8000114c:	fe5262e3          	bltu	tp,t0,80001130 <i_1027>

0000000080001150 <i_1034>:
    80001150:	007b6663          	bltu	s6,t2,8000115c <i_1037>

0000000080001154 <i_1035>:
    80001154:	1c713023          	sd	t2,448(sp)

0000000080001158 <i_1036>:
    80001158:	f6712a23          	sw	t2,-140(sp)

000000008000115c <i_1037>:
    8000115c:	b49b2e93          	slti	t4,s6,-1207

0000000080001160 <i_1038>:
    80001160:	01d57863          	bleu	t4,a0,80001170 <i_1042>

0000000080001164 <i_1039>:
    80001164:	01300513          	li	a0,19

0000000080001168 <i_1040>:
    80001168:	00a1db3b          	srlw	s6,gp,a0

000000008000116c <i_1041>:
    8000116c:	e2016983          	lwu	s3,-480(sp)

0000000080001170 <i_1042>:
    80001170:	08c14c83          	lbu	s9,140(sp)

0000000080001174 <i_1043>:
    80001174:	f8416c83          	lwu	s9,-124(sp)

0000000080001178 <i_1044>:
    80001178:	019c8e63          	beq	s9,s9,80001194 <i_1051>

000000008000117c <i_1045>:
    8000117c:	07613023          	sd	s6,96(sp)

0000000080001180 <i_1046>:
    80001180:	beda3b13          	sltiu	s6,s4,-1043

0000000080001184 <i_1047>:
    80001184:	0379cbb3          	div	s7,s3,s7

0000000080001188 <i_1048>:
    80001188:	1d611723          	sh	s6,462(sp)

000000008000118c <i_1049>:
    8000118c:	04c15b83          	lhu	s7,76(sp)

0000000080001190 <i_1050>:
    80001190:	fba10ca3          	sb	s10,-71(sp)

0000000080001194 <i_1051>:
    80001194:	e7611023          	sh	s6,-416(sp)

0000000080001198 <i_1052>:
    80001198:	ff310183          	lb	gp,-13(sp)

000000008000119c <i_1053>:
    8000119c:	78900b13          	li	s6,1929

00000000800011a0 <i_1054>:
    800011a0:	79400993          	li	s3,1940

00000000800011a4 <i_1055>:
    800011a4:	e8011403          	lh	s0,-384(sp)

00000000800011a8 <i_1056>:
    800011a8:	fba15f03          	lhu	t5,-70(sp)

00000000800011ac <i_1057>:
    800011ac:	001b0b13          	addi	s6,s6,1 # fffffffff1dea001 <_end+0xffffffff71dd9bed>
    800011b0:	ff3b4ae3          	blt	s6,s3,800011a4 <i_1055>

00000000800011b4 <i_1058>:
    800011b4:	05713023          	sd	s7,64(sp)

00000000800011b8 <i_1059>:
    800011b8:	10013983          	ld	s3,256(sp)

00000000800011bc <i_1060>:
    800011bc:	f1016983          	lwu	s3,-240(sp)

00000000800011c0 <i_1061>:
    800011c0:	1bd41c97          	auipc	s9,0x1bd41

00000000800011c4 <i_1062>:
    800011c4:	ef615583          	lhu	a1,-266(sp)

00000000800011c8 <i_1063>:
    800011c8:	eeb10683          	lb	a3,-277(sp)

00000000800011cc <i_1064>:
    800011cc:	03ef1f33          	mulh	t5,t5,t5

00000000800011d0 <i_1065>:
    800011d0:	00000013          	nop

00000000800011d4 <i_1066>:
    800011d4:	7e100993          	li	s3,2017

00000000800011d8 <i_1067>:
    800011d8:	7ed00693          	li	a3,2029

00000000800011dc <i_1068>:
    800011dc:	f7812f03          	lw	t5,-136(sp)

00000000800011e0 <i_1069>:
    800011e0:	08e11f03          	lh	t5,142(sp)

00000000800011e4 <i_1070>:
    800011e4:	001f551b          	srliw	a0,t5,0x1

00000000800011e8 <i_1071>:
    800011e8:	02856063          	bltu	a0,s0,80001208 <i_1079>

00000000800011ec <i_1072>:
    800011ec:	03610083          	lb	ra,54(sp)

00000000800011f0 <i_1073>:
    800011f0:	e9912623          	sw	s9,-372(sp)

00000000800011f4 <i_1074>:
    800011f4:	00a8fc63          	bleu	a0,a7,8000120c <i_1080>

00000000800011f8 <i_1075>:
    800011f8:	e5012303          	lw	t1,-432(sp)

00000000800011fc <i_1076>:
    800011fc:	01e0ea63          	bltu	ra,t5,80001210 <i_1081>

0000000080001200 <i_1077>:
    80001200:	eb913823          	sd	s9,-336(sp)

0000000080001204 <i_1078>:
    80001204:	04411303          	lh	t1,68(sp)

0000000080001208 <i_1079>:
    80001208:	e9c16b83          	lwu	s7,-356(sp)

000000008000120c <i_1080>:
    8000120c:	01d00813          	li	a6,29

0000000080001210 <i_1081>:
    80001210:	010ddc33          	srl	s8,s11,a6

0000000080001214 <i_1082>:
    80001214:	038c6263          	bltu	s8,s8,80001238 <i_1090>

0000000080001218 <i_1083>:
    80001218:	02abf663          	bleu	a0,s7,80001244 <i_1093>

000000008000121c <i_1084>:
    8000121c:	00198993          	addi	s3,s3,1
    80001220:	fad9cee3          	blt	s3,a3,800011dc <i_1068>

0000000080001224 <i_1085>:
    80001224:	0ef10a83          	lb	s5,239(sp)

0000000080001228 <i_1086>:
    80001228:	03a08463          	beq	ra,s10,80001250 <i_1096>

000000008000122c <i_1087>:
    8000122c:	00134a63          	blt	t1,ra,80001240 <i_1092>

0000000080001230 <i_1088>:
    80001230:	030199b3          	mulh	s3,gp,a6

0000000080001234 <i_1089>:
    80001234:	01ef1863          	bne	t5,t5,80001244 <i_1093>

0000000080001238 <i_1090>:
    80001238:	f8110d23          	sb	ra,-102(sp)

000000008000123c <i_1091>:
    8000123c:	e5013483          	ld	s1,-432(sp)

0000000080001240 <i_1092>:
    80001240:	029f6333          	rem	t1,t5,s1

0000000080001244 <i_1093>:
    80001244:	fa811583          	lh	a1,-88(sp)

0000000080001248 <i_1094>:
    80001248:	039bc463          	blt	s7,s9,80001270 <i_1104>

000000008000124c <i_1095>:
    8000124c:	029c9cb3          	mulh	s9,s9,s1

0000000080001250 <i_1096>:
    80001250:	02b48263          	beq	s1,a1,80001274 <i_1105>

0000000080001254 <i_1097>:
    80001254:	0294c5b3          	div	a1,s1,s1

0000000080001258 <i_1098>:
    80001258:	00000013          	nop

000000008000125c <i_1099>:
    8000125c:	1c911723          	sh	s1,462(sp)

0000000080001260 <i_1100>:
    80001260:	0295d5bb          	divuw	a1,a1,s1

0000000080001264 <i_1101>:
    80001264:	f1416983          	lwu	s3,-236(sp)

0000000080001268 <i_1102>:
    80001268:	12b11523          	sh	a1,298(sp)

000000008000126c <i_1103>:
    8000126c:	0a314083          	lbu	ra,163(sp)

0000000080001270 <i_1104>:
    80001270:	fa810583          	lb	a1,-88(sp)

0000000080001274 <i_1105>:
    80001274:	00000013          	nop

0000000080001278 <i_1106>:
    80001278:	1e215403          	lhu	s0,482(sp)

000000008000127c <i_1107>:
    8000127c:	79400193          	li	gp,1940

0000000080001280 <i_1108>:
    80001280:	79e00493          	li	s1,1950

0000000080001284 <i_1109>:
    80001284:	00000013          	nop

0000000080001288 <i_1110>:
    80001288:	00000013          	nop

000000008000128c <i_1111>:
    8000128c:	f5813a83          	ld	s5,-168(sp)

0000000080001290 <i_1112>:
    80001290:	05712c23          	sw	s7,88(sp)

0000000080001294 <i_1113>:
    80001294:	e5013403          	ld	s0,-432(sp)

0000000080001298 <i_1114>:
    80001298:	00000013          	nop

000000008000129c <i_1115>:
    8000129c:	ea812823          	sw	s0,-336(sp)

00000000800012a0 <i_1116>:
    800012a0:	00118193          	addi	gp,gp,1
    800012a4:	fe9190e3          	bne	gp,s1,80001284 <i_1109>

00000000800012a8 <i_1117>:
    800012a8:	1d510e23          	sb	s5,476(sp)

00000000800012ac <i_1118>:
    800012ac:	417b8433          	sub	s0,s7,s7

00000000800012b0 <i_1119>:
    800012b0:	0ec10183          	lb	gp,236(sp)

00000000800012b4 <i_1120>:
    800012b4:	0c340b9b          	addiw	s7,s0,195

00000000800012b8 <i_1121>:
    800012b8:	00011183          	lh	gp,0(sp)

00000000800012bc <i_1122>:
    800012bc:	00110403          	lb	s0,1(sp)

00000000800012c0 <i_1123>:
    800012c0:	001f1313          	slli	t1,t5,0x1

00000000800012c4 <i_1124>:
    800012c4:	01700d93          	li	s11,23

00000000800012c8 <i_1125>:
    800012c8:	01b453b3          	srl	t2,s0,s11

00000000800012cc <i_1126>:
    800012cc:	017b8bb3          	add	s7,s7,s7

00000000800012d0 <i_1127>:
    800012d0:	003a959b          	slliw	a1,s5,0x3

00000000800012d4 <i_1128>:
    800012d4:	00bb8463          	beq	s7,a1,800012dc <i_1130>

00000000800012d8 <i_1129>:
    800012d8:	03300a13          	li	s4,51

00000000800012dc <i_1130>:
    800012dc:	01461ab3          	sll	s5,a2,s4

00000000800012e0 <i_1131>:
    800012e0:	f3413423          	sd	s4,-216(sp)

00000000800012e4 <i_1132>:
    800012e4:	19813983          	ld	s3,408(sp)

00000000800012e8 <i_1133>:
    800012e8:	00b1e663          	bltu	gp,a1,800012f4 <i_1136>

00000000800012ec <i_1134>:
    800012ec:	fcc15403          	lhu	s0,-52(sp)

00000000800012f0 <i_1135>:
    800012f0:	00000013          	nop

00000000800012f4 <i_1136>:
    800012f4:	f8015383          	lhu	t2,-128(sp)

00000000800012f8 <i_1137>:
    800012f8:	e4611983          	lh	s3,-442(sp)

00000000800012fc <i_1138>:
    800012fc:	86e00593          	li	a1,-1938

0000000080001300 <i_1139>:
    80001300:	87200093          	li	ra,-1934

0000000080001304 <i_1140>:
    80001304:	15c12a83          	lw	s5,348(sp)

0000000080001308 <i_1141>:
    80001308:	1d512423          	sw	s5,456(sp)

000000008000130c <i_1142>:
    8000130c:	00c66263          	bltu	a2,a2,80001310 <i_1143>

0000000080001310 <i_1143>:
    80001310:	17414a83          	lbu	s5,372(sp)

0000000080001314 <i_1144>:
    80001314:	00000013          	nop

0000000080001318 <i_1145>:
    80001318:	f6215783          	lhu	a5,-158(sp)

000000008000131c <i_1146>:
    8000131c:	f4615a83          	lhu	s5,-186(sp)

0000000080001320 <i_1147>:
    80001320:	8a600613          	li	a2,-1882

0000000080001324 <i_1148>:
    80001324:	8ba00993          	li	s3,-1862

0000000080001328 <i_1149>:
    80001328:	014d8a33          	add	s4,s11,s4

000000008000132c <i_1150>:
    8000132c:	00160613          	addi	a2,a2,1 # bba6c09 <main-0x744593f7>
    80001330:	ff366ce3          	bltu	a2,s3,80001328 <i_1149>

0000000080001334 <i_1151>:
    80001334:	1af11b23          	sh	a5,438(sp)

0000000080001338 <i_1152>:
    80001338:	034a5063          	ble	s4,s4,80001358 <i_1159>

000000008000133c <i_1153>:
    8000133c:	003a9a13          	slli	s4,s5,0x3

0000000080001340 <i_1154>:
    80001340:	00158593          	addi	a1,a1,1
    80001344:	fcb0f0e3          	bleu	a1,ra,80001304 <i_1140>

0000000080001348 <i_1155>:
    80001348:	035a21b3          	mulhsu	gp,s4,s5

000000008000134c <i_1156>:
    8000134c:	1b615a03          	lhu	s4,438(sp)

0000000080001350 <i_1157>:
    80001350:	0031e263          	bltu	gp,gp,80001354 <i_1158>

0000000080001354 <i_1158>:
    80001354:	1e710283          	lb	t0,487(sp)

0000000080001358 <i_1159>:
    80001358:	09558593          	addi	a1,a1,149

000000008000135c <i_1160>:
    8000135c:	02359463          	bne	a1,gp,80001384 <i_1170>

0000000080001360 <i_1161>:
    80001360:	eeb11e23          	sh	a1,-260(sp)

0000000080001364 <i_1162>:
    80001364:	07816a83          	lwu	s5,120(sp)

0000000080001368 <i_1163>:
    80001368:	e9615583          	lhu	a1,-362(sp)

000000008000136c <i_1164>:
    8000136c:	0c016283          	lwu	t0,192(sp)

0000000080001370 <i_1165>:
    80001370:	0155ea63          	bltu	a1,s5,80001384 <i_1170>

0000000080001374 <i_1166>:
    80001374:	e7512423          	sw	s5,-408(sp)

0000000080001378 <i_1167>:
    80001378:	0255b5b3          	mulhu	a1,a1,t0

000000008000137c <i_1168>:
    8000137c:	0355a4b3          	mulhsu	s1,a1,s5

0000000080001380 <i_1169>:
    80001380:	a3a5f593          	andi	a1,a1,-1478

0000000080001384 <i_1170>:
    80001384:	0234b1b3          	mulhu	gp,s1,gp

0000000080001388 <i_1171>:
    80001388:	e6913023          	sd	s1,-416(sp)

000000008000138c <i_1172>:
    8000138c:	149106a3          	sb	s1,333(sp)

0000000080001390 <i_1173>:
    80001390:	009a7263          	bleu	s1,s4,80001394 <i_1174>

0000000080001394 <i_1174>:
    80001394:	0234c4b3          	div	s1,s1,gp

0000000080001398 <i_1175>:
    80001398:	14a12e23          	sw	a0,348(sp)

000000008000139c <i_1176>:
    8000139c:	00b5e863          	bltu	a1,a1,800013ac <i_1180>

00000000800013a0 <i_1177>:
    800013a0:	0e310a23          	sb	gp,244(sp)

00000000800013a4 <i_1178>:
    800013a4:	1c913023          	sd	s1,448(sp)

00000000800013a8 <i_1179>:
    800013a8:	fa911b23          	sh	s1,-74(sp)

00000000800013ac <i_1180>:
    800013ac:	88d69617          	auipc	a2,0x88d69

00000000800013b0 <i_1181>:
    800013b0:	409c0c33          	sub	s8,s8,s1

00000000800013b4 <i_1182>:
    800013b4:	e0160493          	addi	s1,a2,-511 # 8d6a1ad <main-0x77295e53>

00000000800013b8 <i_1183>:
    800013b8:	418c0e3b          	subw	t3,s8,s8

00000000800013bc <i_1184>:
    800013bc:	f594ae13          	slti	t3,s1,-167

00000000800013c0 <i_1185>:
    800013c0:	401e5c13          	srai	s8,t3,0x1

00000000800013c4 <i_1186>:
    800013c4:	efa15383          	lhu	t2,-262(sp)

00000000800013c8 <i_1187>:
    800013c8:	001a1b1b          	slliw	s6,s4,0x1

00000000800013cc <i_1188>:
    800013cc:	016b1463          	bne	s6,s6,800013d4 <i_1190>

00000000800013d0 <i_1189>:
    800013d0:	036e2db3          	mulhsu	s11,t3,s6

00000000800013d4 <i_1190>:
    800013d4:	fb611d23          	sh	s6,-70(sp)

00000000800013d8 <i_1191>:
    800013d8:	eb611223          	sh	s6,-348(sp)

00000000800013dc <i_1192>:
    800013dc:	ff03eb93          	ori	s7,t2,-16

00000000800013e0 <i_1193>:
    800013e0:	05611983          	lh	s3,86(sp)

00000000800013e4 <i_1194>:
    800013e4:	f0016283          	lwu	t0,-256(sp)

00000000800013e8 <i_1195>:
    800013e8:	038c7263          	bleu	s8,s8,8000140c <i_1204>

00000000800013ec <i_1196>:
    800013ec:	14611283          	lh	t0,326(sp)

00000000800013f0 <i_1197>:
    800013f0:	40395e9b          	sraiw	t4,s2,0x3

00000000800013f4 <i_1198>:
    800013f4:	0169ce63          	blt	s3,s6,80001410 <i_1205>

00000000800013f8 <i_1199>:
    800013f8:	415b8c9b          	addiw	s9,s7,1045

00000000800013fc <i_1200>:
    800013fc:	025b5833          	divu	a6,s6,t0

0000000080001400 <i_1201>:
    80001400:	1ce11383          	lh	t2,462(sp)

0000000080001404 <i_1202>:
    80001404:	eb214e03          	lbu	t3,-334(sp)

0000000080001408 <i_1203>:
    80001408:	0212e433          	rem	s0,t0,ra

000000008000140c <i_1204>:
    8000140c:	027e6633          	rem	a2,t3,t2

0000000080001410 <i_1205>:
    80001410:	01400e13          	li	t3,20

0000000080001414 <i_1206>:
    80001414:	01cd5abb          	srlw	s5,s10,t3

0000000080001418 <i_1207>:
    80001418:	12012e03          	lw	t3,288(sp)

000000008000141c <i_1208>:
    8000141c:	00ce0c63          	beq	t3,a2,80001434 <i_1214>

0000000080001420 <i_1209>:
    80001420:	019acc63          	blt	s5,s9,80001438 <i_1215>

0000000080001424 <i_1210>:
    80001424:	01f00a13          	li	s4,31

0000000080001428 <i_1211>:
    80001428:	014e1ab3          	sll	s5,t3,s4

000000008000142c <i_1212>:
    8000142c:	03ce0e33          	mul	t3,t3,t3

0000000080001430 <i_1213>:
    80001430:	17c13023          	sd	t3,352(sp)

0000000080001434 <i_1214>:
    80001434:	01cade63          	ble	t3,s5,80001450 <i_1221>

0000000080001438 <i_1215>:
    80001438:	00013e03          	ld	t3,0(sp)

000000008000143c <i_1216>:
    8000143c:	01ca7ab3          	and	s5,s4,t3

0000000080001440 <i_1217>:
    80001440:	e1a11f03          	lh	t5,-486(sp)

0000000080001444 <i_1218>:
    80001444:	eb215083          	lhu	ra,-334(sp)

0000000080001448 <i_1219>:
    80001448:	86aa7793          	andi	a5,s4,-1942

000000008000144c <i_1220>:
    8000144c:	e3c10a23          	sb	t3,-460(sp)

0000000080001450 <i_1221>:
    80001450:	efc13823          	sd	t3,-272(sp)

0000000080001454 <i_1222>:
    80001454:	00000013          	nop

0000000080001458 <i_1223>:
    80001458:	002ada93          	srli	s5,s5,0x2

000000008000145c <i_1224>:
    8000145c:	89500093          	li	ra,-1899

0000000080001460 <i_1225>:
    80001460:	8a200793          	li	a5,-1886

0000000080001464 <i_1226>:
    80001464:	00000013          	nop

0000000080001468 <i_1227>:
    80001468:	00f00d93          	li	s11,15

000000008000146c <i_1228>:
    8000146c:	41bad9b3          	sra	s3,s5,s11

0000000080001470 <i_1229>:
    80001470:	035a463b          	divw	a2,s4,s5

0000000080001474 <i_1230>:
    80001474:	ee013a03          	ld	s4,-288(sp)

0000000080001478 <i_1231>:
    80001478:	00000013          	nop

000000008000147c <i_1232>:
    8000147c:	01badc63          	ble	s11,s5,80001494 <i_1237>

0000000080001480 <i_1233>:
    80001480:	00108093          	addi	ra,ra,1
    80001484:	fef090e3          	bne	ra,a5,80001464 <i_1226>

0000000080001488 <i_1234>:
    80001488:	03c9da3b          	divuw	s4,s3,t3

000000008000148c <i_1235>:
    8000148c:	f5511523          	sh	s5,-182(sp)

0000000080001490 <i_1236>:
    80001490:	402dda13          	srai	s4,s11,0x2

0000000080001494 <i_1237>:
    80001494:	01566863          	bltu	a2,s5,800014a4 <i_1241>

0000000080001498 <i_1238>:
    80001498:	0047d79b          	srliw	a5,a5,0x4

000000008000149c <i_1239>:
    8000149c:	f7410823          	sb	s4,-144(sp)

00000000800014a0 <i_1240>:
    800014a0:	0d412503          	lw	a0,212(sp)

00000000800014a4 <i_1241>:
    800014a4:	004d1793          	slli	a5,s10,0x4

00000000800014a8 <i_1242>:
    800014a8:	11815783          	lhu	a5,280(sp)

00000000800014ac <i_1243>:
    800014ac:	00fd5463          	ble	a5,s10,800014b4 <i_1245>

00000000800014b0 <i_1244>:
    800014b0:	0041d093          	srli	ra,gp,0x4

00000000800014b4 <i_1245>:
    800014b4:	023501bb          	mulw	gp,a0,gp

00000000800014b8 <i_1246>:
    800014b8:	02ae0263          	beq	t3,a0,800014dc <i_1255>

00000000800014bc <i_1247>:
    800014bc:	00fe0a63          	beq	t3,a5,800014d0 <i_1252>

00000000800014c0 <i_1248>:
    800014c0:	e4a11123          	sh	a0,-446(sp)

00000000800014c4 <i_1249>:
    800014c4:	fb614d03          	lbu	s10,-74(sp)

00000000800014c8 <i_1250>:
    800014c8:	0fa10423          	sb	s10,232(sp)

00000000800014cc <i_1251>:
    800014cc:	1e815d03          	lhu	s10,488(sp)

00000000800014d0 <i_1252>:
    800014d0:	07a12823          	sw	s10,112(sp)

00000000800014d4 <i_1253>:
    800014d4:	07610303          	lb	t1,118(sp)

00000000800014d8 <i_1254>:
    800014d8:	0da13023          	sd	s10,192(sp)

00000000800014dc <i_1255>:
    800014dc:	01a32eb3          	slt	t4,t1,s10

00000000800014e0 <i_1256>:
    800014e0:	16310c03          	lb	s8,355(sp)

00000000800014e4 <i_1257>:
    800014e4:	03aedd3b          	divuw	s10,t4,s10

00000000800014e8 <i_1258>:
    800014e8:	ea412d03          	lw	s10,-348(sp)

00000000800014ec <i_1259>:
    800014ec:	03ad4ebb          	divw	t4,s10,s10

00000000800014f0 <i_1260>:
    800014f0:	03aeca3b          	divw	s4,t4,s10

00000000800014f4 <i_1261>:
    800014f4:	014e9863          	bne	t4,s4,80001504 <i_1265>

00000000800014f8 <i_1262>:
    800014f8:	eec11723          	sh	a2,-274(sp)

00000000800014fc <i_1263>:
    800014fc:	0e013d03          	ld	s10,224(sp)

0000000080001500 <i_1264>:
    80001500:	01800493          	li	s1,24

0000000080001504 <i_1265>:
    80001504:	409b5d33          	sra	s10,s6,s1

0000000080001508 <i_1266>:
    80001508:	ee913023          	sd	s1,-288(sp)

000000008000150c <i_1267>:
    8000150c:	0d0a3e93          	sltiu	t4,s4,208

0000000080001510 <i_1268>:
    80001510:	72e00a13          	li	s4,1838

0000000080001514 <i_1269>:
    80001514:	73700493          	li	s1,1847

0000000080001518 <i_1270>:
    80001518:	fa015b03          	lhu	s6,-96(sp)

000000008000151c <i_1271>:
    8000151c:	19611923          	sh	s6,402(sp)

0000000080001520 <i_1272>:
    80001520:	16c10b03          	lb	s6,364(sp)

0000000080001524 <i_1273>:
    80001524:	14914b03          	lbu	s6,329(sp)

0000000080001528 <i_1274>:
    80001528:	f1612e23          	sw	s6,-228(sp)

000000008000152c <i_1275>:
    8000152c:	001b6b33          	or	s6,s6,ra

0000000080001530 <i_1276>:
    80001530:	03b7d633          	divu	a2,a5,s11

0000000080001534 <i_1277>:
    80001534:	fa013e83          	ld	t4,-96(sp)

0000000080001538 <i_1278>:
    80001538:	02f95663          	ble	a5,s2,80001564 <i_1288>

000000008000153c <i_1279>:
    8000153c:	cc8ef793          	andi	a5,t4,-824

0000000080001540 <i_1280>:
    80001540:	001a0a13          	addi	s4,s4,1
    80001544:	fd44fae3          	bleu	s4,s1,80001518 <i_1270>

0000000080001548 <i_1281>:
    80001548:	01e00793          	li	a5,30

000000008000154c <i_1282>:
    8000154c:	00fa97bb          	sllw	a5,s5,a5

0000000080001550 <i_1283>:
    80001550:	fe211783          	lh	a5,-30(sp)

0000000080001554 <i_1284>:
    80001554:	fcf103a3          	sb	a5,-57(sp)

0000000080001558 <i_1285>:
    80001558:	00b00813          	li	a6,11

000000008000155c <i_1286>:
    8000155c:	0108183b          	sllw	a6,a6,a6

0000000080001560 <i_1287>:
    80001560:	04c16803          	lwu	a6,76(sp)

0000000080001564 <i_1288>:
    80001564:	00000013          	nop

0000000080001568 <i_1289>:
    80001568:	00e83833          	sltu	a6,a6,a4

000000008000156c <i_1290>:
    8000156c:	73800b93          	li	s7,1848

0000000080001570 <i_1291>:
    80001570:	74400793          	li	a5,1860

0000000080001574 <i_1292>:
    80001574:	0301483b          	divw	a6,sp,a6

0000000080001578 <i_1293>:
    80001578:	eb712e23          	sw	s7,-324(sp)

000000008000157c <i_1294>:
    8000157c:	f7013823          	sd	a6,-144(sp)

0000000080001580 <i_1295>:
    80001580:	03082833          	mulhsu	a6,a6,a6

0000000080001584 <i_1296>:
    80001584:	ec815803          	lhu	a6,-312(sp)

0000000080001588 <i_1297>:
    80001588:	00000013          	nop

000000008000158c <i_1298>:
    8000158c:	40880433          	sub	s0,a6,s0

0000000080001590 <i_1299>:
    80001590:	0fc11f23          	sh	t3,254(sp)

0000000080001594 <i_1300>:
    80001594:	fb813283          	ld	t0,-72(sp)

0000000080001598 <i_1301>:
    80001598:	001b8b93          	addi	s7,s7,1
    8000159c:	fcfb9ce3          	bne	s7,a5,80001574 <i_1292>

00000000800015a0 <i_1302>:
    800015a0:	02845463          	ble	s0,s0,800015c8 <i_1312>

00000000800015a4 <i_1303>:
    800015a4:	e2727e13          	andi	t3,tp,-473

00000000800015a8 <i_1304>:
    800015a8:	e9c10fa3          	sb	t3,-353(sp)

00000000800015ac <i_1305>:
    800015ac:	00513c23          	sd	t0,24(sp)

00000000800015b0 <i_1306>:
    800015b0:	03a2e463          	bltu	t0,s10,800015d8 <i_1316>

00000000800015b4 <i_1307>:
    800015b4:	06a10583          	lb	a1,106(sp)

00000000800015b8 <i_1308>:
    800015b8:	ef014203          	lbu	tp,-272(sp)

00000000800015bc <i_1309>:
    800015bc:	e2410fa3          	sb	tp,-449(sp)

00000000800015c0 <i_1310>:
    800015c0:	008475b3          	and	a1,s0,s0

00000000800015c4 <i_1311>:
    800015c4:	e8211923          	sh	sp,-366(sp)

00000000800015c8 <i_1312>:
    800015c8:	01000213          	li	tp,16

00000000800015cc <i_1313>:
    800015cc:	0042123b          	sllw	tp,tp,tp

00000000800015d0 <i_1314>:
    800015d0:	1c416a83          	lwu	s5,452(sp)

00000000800015d4 <i_1315>:
    800015d4:	e6611203          	lh	tp,-410(sp)

00000000800015d8 <i_1316>:
    800015d8:	024acf33          	div	t5,s5,tp

00000000800015dc <i_1317>:
    800015dc:	f8813203          	ld	tp,-120(sp)

00000000800015e0 <i_1318>:
    800015e0:	fadef3b7          	lui	t2,0xfadef

00000000800015e4 <i_1319>:
    800015e4:	00bf25b3          	slt	a1,t5,a1

00000000800015e8 <i_1320>:
    800015e8:	eb814f03          	lbu	t5,-328(sp)

00000000800015ec <i_1321>:
    800015ec:	01900293          	li	t0,25

00000000800015f0 <i_1322>:
    800015f0:	005f1f3b          	sllw	t5,t5,t0

00000000800015f4 <i_1323>:
    800015f4:	fd015583          	lhu	a1,-48(sp)

00000000800015f8 <i_1324>:
    800015f8:	01586863          	bltu	a6,s5,80001608 <i_1328>

00000000800015fc <i_1325>:
    800015fc:	e02f4f13          	xori	t5,t5,-510

0000000080001600 <i_1326>:
    80001600:	01e2c863          	blt	t0,t5,80001610 <i_1330>

0000000080001604 <i_1327>:
    80001604:	f1e10b23          	sb	t5,-234(sp)

0000000080001608 <i_1328>:
    80001608:	00be6c63          	bltu	t3,a1,80001620 <i_1334>

000000008000160c <i_1329>:
    8000160c:	10512e23          	sw	t0,284(sp)

0000000080001610 <i_1330>:
    80001610:	01ee6863          	bltu	t3,t5,80001620 <i_1334>

0000000080001614 <i_1331>:
    80001614:	07013583          	ld	a1,112(sp)

0000000080001618 <i_1332>:
    80001618:	005f7263          	bleu	t0,t5,8000161c <i_1333>

000000008000161c <i_1333>:
    8000161c:	09e109a3          	sb	t5,147(sp)

0000000080001620 <i_1334>:
    80001620:	e5e11123          	sh	t5,-446(sp)

0000000080001624 <i_1335>:
    80001624:	03e2c063          	blt	t0,t5,80001644 <i_1343>

0000000080001628 <i_1336>:
    80001628:	0dc10f03          	lb	t5,220(sp)

000000008000162c <i_1337>:
    8000162c:	19e12423          	sw	t5,392(sp)

0000000080001630 <i_1338>:
    80001630:	00459e9b          	slliw	t4,a1,0x4

0000000080001634 <i_1339>:
    80001634:	01df5663          	ble	t4,t5,80001640 <i_1342>

0000000080001638 <i_1340>:
    80001638:	ff410583          	lb	a1,-12(sp)

000000008000163c <i_1341>:
    8000163c:	004f5a63          	ble	tp,t5,80001650 <i_1346>

0000000080001640 <i_1342>:
    80001640:	01e11623          	sh	t5,12(sp)

0000000080001644 <i_1343>:
    80001644:	03af1263          	bne	t5,s10,80001668 <i_1352>

0000000080001648 <i_1344>:
    80001648:	f9d105a3          	sb	t4,-117(sp)

000000008000164c <i_1345>:
    8000164c:	03016e83          	lwu	t4,48(sp)

0000000080001650 <i_1346>:
    80001650:	11d58f13          	addi	t5,a1,285

0000000080001654 <i_1347>:
    80001654:	fbe11b23          	sh	t5,-74(sp)

0000000080001658 <i_1348>:
    80001658:	01d5ceb3          	xor	t4,a1,t4

000000008000165c <i_1349>:
    8000165c:	4025d59b          	sraiw	a1,a1,0x2

0000000080001660 <i_1350>:
    80001660:	01400f13          	li	t5,20

0000000080001664 <i_1351>:
    80001664:	01ef5ebb          	srlw	t4,t5,t5

0000000080001668 <i_1352>:
    80001668:	03d5d463          	ble	t4,a1,80001690 <i_1362>

000000008000166c <i_1353>:
    8000166c:	17615783          	lhu	a5,374(sp)

0000000080001670 <i_1354>:
    80001670:	15013783          	ld	a5,336(sp)

0000000080001674 <i_1355>:
    80001674:	4024541b          	sraiw	s0,s0,0x2

0000000080001678 <i_1356>:
    80001678:	00000013          	nop

000000008000167c <i_1357>:
    8000167c:	ff410c03          	lb	s8,-12(sp)

0000000080001680 <i_1358>:
    80001680:	00500c13          	li	s8,5

0000000080001684 <i_1359>:
    80001684:	018c17bb          	sllw	a5,s8,s8

0000000080001688 <i_1360>:
    80001688:	00000013          	nop

000000008000168c <i_1361>:
    8000168c:	07812c23          	sw	s8,120(sp)

0000000080001690 <i_1362>:
    80001690:	018c6c33          	or	s8,s8,s8

0000000080001694 <i_1363>:
    80001694:	eb811c23          	sh	s8,-328(sp)

0000000080001698 <i_1364>:
    80001698:	7e700f13          	li	t5,2023

000000008000169c <i_1365>:
    8000169c:	7f000593          	li	a1,2032

00000000800016a0 <i_1366>:
    800016a0:	0387ceb3          	div	t4,a5,s8

00000000800016a4 <i_1367>:
    800016a4:	001f0f13          	addi	t5,t5,1
    800016a8:	febf6ce3          	bltu	t5,a1,800016a0 <i_1366>

00000000800016ac <i_1368>:
    800016ac:	12c16983          	lwu	s3,300(sp)

00000000800016b0 <i_1369>:
    800016b0:	f7811323          	sh	s8,-154(sp)

00000000800016b4 <i_1370>:
    800016b4:	404f5f13          	srai	t5,t5,0x4

00000000800016b8 <i_1371>:
    800016b8:	05e15383          	lhu	t2,94(sp)

00000000800016bc <i_1372>:
    800016bc:	00479a9b          	slliw	s5,a5,0x4

00000000800016c0 <i_1373>:
    800016c0:	e7815a03          	lhu	s4,-392(sp)

00000000800016c4 <i_1374>:
    800016c4:	01b30333          	add	t1,t1,s11

00000000800016c8 <i_1375>:
    800016c8:	00000013          	nop

00000000800016cc <i_1376>:
    800016cc:	86500293          	li	t0,-1947

00000000800016d0 <i_1377>:
    800016d0:	87000993          	li	s3,-1936

00000000800016d4 <i_1378>:
    800016d4:	0052e663          	bltu	t0,t0,800016e0 <i_1381>

00000000800016d8 <i_1379>:
    800016d8:	0332cebb          	divw	t4,t0,s3

00000000800016dc <i_1380>:
    800016dc:	01c16e83          	lwu	t4,28(sp)

00000000800016e0 <i_1381>:
    800016e0:	40640833          	sub	a6,s0,t1

00000000800016e4 <i_1382>:
    800016e4:	01300813          	li	a6,19

00000000800016e8 <i_1383>:
    800016e8:	010e1ebb          	sllw	t4,t3,a6

00000000800016ec <i_1384>:
    800016ec:	010eec63          	bltu	t4,a6,80001704 <i_1389>

00000000800016f0 <i_1385>:
    800016f0:	f8a11523          	sh	a0,-118(sp)

00000000800016f4 <i_1386>:
    800016f4:	00128293          	addi	t0,t0,1 # f2b93f81 <_end+0x72b83b6d>
    800016f8:	fc59dee3          	ble	t0,s3,800016d4 <i_1378>

00000000800016fc <i_1387>:
    800016fc:	ff011323          	sh	a6,-26(sp)

0000000080001700 <i_1388>:
    80001700:	110107a3          	sb	a6,271(sp)

0000000080001704 <i_1389>:
    80001704:	9f127397          	auipc	t2,0x9f127

0000000080001708 <i_1390>:
    80001708:	01084a63          	blt	a6,a6,8000171c <i_1395>

000000008000170c <i_1391>:
    8000170c:	00000013          	nop

0000000080001710 <i_1392>:
    80001710:	10813403          	ld	s0,264(sp)

0000000080001714 <i_1393>:
    80001714:	b5b43513          	sltiu	a0,s0,-1189

0000000080001718 <i_1394>:
    80001718:	00000013          	nop

000000008000171c <i_1395>:
    8000171c:	1980a5b7          	lui	a1,0x1980a

0000000080001720 <i_1396>:
    80001720:	019cc533          	xor	a0,s9,s9

0000000080001724 <i_1397>:
    80001724:	8c000813          	li	a6,-1856

0000000080001728 <i_1398>:
    80001728:	8cb00c93          	li	s9,-1845

000000008000172c <i_1399>:
    8000172c:	12615203          	lhu	tp,294(sp)

0000000080001730 <i_1400>:
    80001730:	e5c14b83          	lbu	s7,-420(sp)

0000000080001734 <i_1401>:
    80001734:	037d61b3          	rem	gp,s10,s7

0000000080001738 <i_1402>:
    80001738:	00cc9463          	bne	s9,a2,80001740 <i_1404>

000000008000173c <i_1403>:
    8000173c:	00000013          	nop

0000000080001740 <i_1404>:
    80001740:	f4e11c03          	lh	s8,-178(sp)

0000000080001744 <i_1405>:
    80001744:	ee812b83          	lw	s7,-280(sp)

0000000080001748 <i_1406>:
    80001748:	edf10a03          	lb	s4,-289(sp)

000000008000174c <i_1407>:
    8000174c:	033249b3          	div	s3,tp,s3

0000000080001750 <i_1408>:
    80001750:	00180813          	addi	a6,a6,1 # ffffffff93b25001 <_end+0xffffffff13b14bed>
    80001754:	fd0cfce3          	bleu	a6,s9,8000172c <i_1399>

0000000080001758 <i_1409>:
    80001758:	e294c213          	xori	tp,s1,-471

000000008000175c <i_1410>:
    8000175c:	14c11e83          	lh	t4,332(sp)

0000000080001760 <i_1411>:
    80001760:	83720993          	addi	s3,tp,-1993 # fffffffffffff837 <_end+0xffffffff7ffef423>

0000000080001764 <i_1412>:
    80001764:	8c700793          	li	a5,-1849

0000000080001768 <i_1413>:
    80001768:	8d000213          	li	tp,-1840

000000008000176c <i_1414>:
    8000176c:	01725c63          	ble	s7,tp,80001784 <i_1419>

0000000080001770 <i_1415>:
    80001770:	00178793          	addi	a5,a5,1
    80001774:	fe479ce3          	bne	a5,tp,8000176c <i_1414>

0000000080001778 <i_1416>:
    80001778:	4048599b          	sraiw	s3,a6,0x4

000000008000177c <i_1417>:
    8000177c:	15615a83          	lhu	s5,342(sp)

0000000080001780 <i_1418>:
    80001780:	09e11803          	lh	a6,158(sp)

0000000080001784 <i_1419>:
    80001784:	e3e15a83          	lhu	s5,-450(sp)

0000000080001788 <i_1420>:
    80001788:	c2c3081b          	addiw	a6,t1,-980

000000008000178c <i_1421>:
    8000178c:	1d813803          	ld	a6,472(sp)

0000000080001790 <i_1422>:
    80001790:	035a8e3b          	mulw	t3,s5,s5

0000000080001794 <i_1423>:
    80001794:	12d14a83          	lbu	s5,301(sp)

0000000080001798 <i_1424>:
    80001798:	05c15503          	lhu	a0,92(sp)

000000008000179c <i_1425>:
    8000179c:	faa10da3          	sb	a0,-69(sp)

00000000800017a0 <i_1426>:
    800017a0:	74300a93          	li	s5,1859

00000000800017a4 <i_1427>:
    800017a4:	75400813          	li	a6,1876

00000000800017a8 <i_1428>:
    800017a8:	a041fd37          	lui	s10,0xa041f

00000000800017ac <i_1429>:
    800017ac:	01cd7c63          	bleu	t3,s10,800017c4 <i_1435>

00000000800017b0 <i_1430>:
    800017b0:	02a562bb          	remw	t0,a0,a0

00000000800017b4 <i_1431>:
    800017b4:	18e11c83          	lh	s9,398(sp)

00000000800017b8 <i_1432>:
    800017b8:	01aad263          	ble	s10,s5,800017bc <i_1433>

00000000800017bc <i_1433>:
    800017bc:	03ad0463          	beq	s10,s10,800017e4 <i_1442>

00000000800017c0 <i_1434>:
    800017c0:	0aa11823          	sh	a0,176(sp)

00000000800017c4 <i_1435>:
    800017c4:	03016c83          	lwu	s9,48(sp)

00000000800017c8 <i_1436>:
    800017c8:	02a56463          	bltu	a0,a0,800017f0 <i_1445>

00000000800017cc <i_1437>:
    800017cc:	001a8a93          	addi	s5,s5,1
    800017d0:	fd585ce3          	ble	s5,a6,800017a8 <i_1428>

00000000800017d4 <i_1438>:
    800017d4:	07c12423          	sw	t3,104(sp)

00000000800017d8 <i_1439>:
    800017d8:	f0813503          	ld	a0,-248(sp)

00000000800017dc <i_1440>:
    800017dc:	f1c16783          	lwu	a5,-228(sp)

00000000800017e0 <i_1441>:
    800017e0:	01516c63          	bltu	sp,s5,800017f8 <i_1447>

00000000800017e4 <i_1442>:
    800017e4:	01a2ce63          	blt	t0,s10,80001800 <i_1449>

00000000800017e8 <i_1443>:
    800017e8:	88250b93          	addi	s7,a0,-1918

00000000800017ec <i_1444>:
    800017ec:	e3012a03          	lw	s4,-464(sp)

00000000800017f0 <i_1445>:
    800017f0:	002a109b          	slliw	ra,s4,0x2

00000000800017f4 <i_1446>:
    800017f4:	f0410403          	lb	s0,-252(sp)

00000000800017f8 <i_1447>:
    800017f8:	ff412023          	sw	s4,-32(sp)

00000000800017fc <i_1448>:
    800017fc:	00000013          	nop

0000000080001800 <i_1449>:
    80001800:	003bdd13          	srli	s10,s7,0x3

0000000080001804 <i_1450>:
    80001804:	00000013          	nop

0000000080001808 <i_1451>:
    80001808:	7b400b93          	li	s7,1972

000000008000180c <i_1452>:
    8000180c:	7c100513          	li	a0,1985

0000000080001810 <i_1453>:
    80001810:	00313423          	sd	gp,8(sp)

0000000080001814 <i_1454>:
    80001814:	00893833          	sltu	a6,s2,s0

0000000080001818 <i_1455>:
    80001818:	40345d93          	srai	s11,s0,0x3

000000008000181c <i_1456>:
    8000181c:	0048141b          	slliw	s0,a6,0x4

0000000080001820 <i_1457>:
    80001820:	02883833          	mulhu	a6,a6,s0

0000000080001824 <i_1458>:
    80001824:	12c11d83          	lh	s11,300(sp)

0000000080001828 <i_1459>:
    80001828:	017d8833          	add	a6,s11,s7

000000008000182c <i_1460>:
    8000182c:	00b5e5b3          	or	a1,a1,a1

0000000080001830 <i_1461>:
    80001830:	001b8b93          	addi	s7,s7,1
    80001834:	fd757ee3          	bleu	s7,a0,80001810 <i_1453>

0000000080001838 <i_1462>:
    80001838:	00345f1b          	srliw	t5,s0,0x3

000000008000183c <i_1463>:
    8000183c:	fbd14a03          	lbu	s4,-67(sp)

0000000080001840 <i_1464>:
    80001840:	55cf7f13          	andi	t5,t5,1372

0000000080001844 <i_1465>:
    80001844:	01ba7db3          	and	s11,s4,s11

0000000080001848 <i_1466>:
    80001848:	10c16a03          	lwu	s4,268(sp)

000000008000184c <i_1467>:
    8000184c:	01bdedb3          	or	s11,s11,s11

0000000080001850 <i_1468>:
    80001850:	f6211f03          	lh	t5,-158(sp)

0000000080001854 <i_1469>:
    80001854:	0fb11023          	sh	s11,224(sp)

0000000080001858 <i_1470>:
    80001858:	01eb6863          	bltu	s6,t5,80001868 <i_1474>

000000008000185c <i_1471>:
    8000185c:	0e813d83          	ld	s11,232(sp)

0000000080001860 <i_1472>:
    80001860:	018d8e63          	beq	s11,s8,8000187c <i_1479>

0000000080001864 <i_1473>:
    80001864:	13b12623          	sw	s11,300(sp)

0000000080001868 <i_1474>:
    80001868:	0078cdb3          	xor	s11,a7,t2

000000008000186c <i_1475>:
    8000186c:	01bf0a63          	beq	t5,s11,80001880 <i_1480>

0000000080001870 <i_1476>:
    80001870:	0bc11d83          	lh	s11,188(sp)

0000000080001874 <i_1477>:
    80001874:	03015b03          	lhu	s6,48(sp)

0000000080001878 <i_1478>:
    80001878:	18e10403          	lb	s0,398(sp)

000000008000187c <i_1479>:
    8000187c:	022d8063          	beq	s11,sp,8000189c <i_1487>

0000000080001880 <i_1480>:
    80001880:	007df863          	bleu	t2,s11,80001890 <i_1484>

0000000080001884 <i_1481>:
    80001884:	01bdf863          	bleu	s11,s11,80001894 <i_1485>

0000000080001888 <i_1482>:
    80001888:	016dd263          	ble	s6,s11,8000188c <i_1483>

000000008000188c <i_1483>:
    8000188c:	01bdee63          	bltu	s11,s11,800018a8 <i_1490>

0000000080001890 <i_1484>:
    80001890:	08810a83          	lb	s5,136(sp)

0000000080001894 <i_1485>:
    80001894:	00000013          	nop

0000000080001898 <i_1486>:
    80001898:	00000013          	nop

000000008000189c <i_1487>:
    8000189c:	016b0cb3          	add	s9,s6,s6

00000000800018a0 <i_1488>:
    800018a0:	0f610fa3          	sb	s6,255(sp)

00000000800018a4 <i_1489>:
    800018a4:	c5142a13          	slti	s4,s0,-943

00000000800018a8 <i_1490>:
    800018a8:	07c16a83          	lwu	s5,124(sp)

00000000800018ac <i_1491>:
    800018ac:	01200c93          	li	s9,18

00000000800018b0 <i_1492>:
    800018b0:	019cde3b          	srlw	t3,s9,s9

00000000800018b4 <i_1493>:
    800018b4:	88f00d13          	li	s10,-1905

00000000800018b8 <i_1494>:
    800018b8:	89c00413          	li	s0,-1892

00000000800018bc <i_1495>:
    800018bc:	fb348d97          	auipc	s11,0xfb348

00000000800018c0 <i_1496>:
    800018c0:	04c14a83          	lbu	s5,76(sp)

00000000800018c4 <i_1497>:
    800018c4:	13910623          	sb	s9,300(sp)

00000000800018c8 <i_1498>:
    800018c8:	e5c12a23          	sw	t3,-428(sp)

00000000800018cc <i_1499>:
    800018cc:	f5b11a23          	sh	s11,-172(sp)

00000000800018d0 <i_1500>:
    800018d0:	01bab633          	sltu	a2,s5,s11

00000000800018d4 <i_1501>:
    800018d4:	00000013          	nop

00000000800018d8 <i_1502>:
    800018d8:	03cc8ab3          	mul	s5,s9,t3

00000000800018dc <i_1503>:
    800018dc:	fd8102a3          	sb	s8,-59(sp)

00000000800018e0 <i_1504>:
    800018e0:	19012023          	sw	a6,384(sp)

00000000800018e4 <i_1505>:
    800018e4:	001d0d13          	addi	s10,s10,1 # ffffffffa041f001 <_end+0xffffffff2040ebed>
    800018e8:	fc8d18e3          	bne	s10,s0,800018b8 <i_1494>

00000000800018ec <i_1506>:
    800018ec:	06e10a83          	lb	s5,110(sp)

00000000800018f0 <i_1507>:
    800018f0:	015cf463          	bleu	s5,s9,800018f8 <i_1509>

00000000800018f4 <i_1508>:
    800018f4:	00ce1a63          	bne	t3,a2,80001908 <i_1513>

00000000800018f8 <i_1509>:
    800018f8:	04013203          	ld	tp,64(sp)

00000000800018fc <i_1510>:
    800018fc:	60b24a13          	xori	s4,tp,1547

0000000080001900 <i_1511>:
    80001900:	002cdb13          	srli	s6,s9,0x2

0000000080001904 <i_1512>:
    80001904:	01500a93          	li	s5,21

0000000080001908 <i_1513>:
    80001908:	415adcb3          	sra	s9,s5,s5

000000008000190c <i_1514>:
    8000190c:	03566633          	rem	a2,a2,s5

0000000080001910 <i_1515>:
    80001910:	1aaaca93          	xori	s5,s5,426

0000000080001914 <i_1516>:
    80001914:	f5412a83          	lw	s5,-172(sp)

0000000080001918 <i_1517>:
    80001918:	00465c9b          	srliw	s9,a2,0x4

000000008000191c <i_1518>:
    8000191c:	02c10123          	sb	a2,34(sp)

0000000080001920 <i_1519>:
    80001920:	03c60063          	beq	a2,t3,80001940 <i_1527>

0000000080001924 <i_1520>:
    80001924:	03513023          	sd	s5,32(sp)

0000000080001928 <i_1521>:
    80001928:	e7011403          	lh	s0,-400(sp)

000000008000192c <i_1522>:
    8000192c:	03e00a13          	li	s4,62

0000000080001930 <i_1523>:
    80001930:	014e1833          	sll	a6,t3,s4

0000000080001934 <i_1524>:
    80001934:	010abab3          	sltu	s5,s5,a6

0000000080001938 <i_1525>:
    80001938:	00000013          	nop

000000008000193c <i_1526>:
    8000193c:	07010ea3          	sb	a6,125(sp)

0000000080001940 <i_1527>:
    80001940:	fdaa6613          	ori	a2,s4,-38

0000000080001944 <i_1528>:
    80001944:	002a5a13          	srli	s4,s4,0x2

0000000080001948 <i_1529>:
    80001948:	7c900993          	li	s3,1993

000000008000194c <i_1530>:
    8000194c:	7d900313          	li	t1,2009

0000000080001950 <i_1531>:
    80001950:	e5413423          	sd	s4,-440(sp)

0000000080001954 <i_1532>:
    80001954:	19816a03          	lwu	s4,408(sp)

0000000080001958 <i_1533>:
    80001958:	00000013          	nop

000000008000195c <i_1534>:
    8000195c:	0a614a03          	lbu	s4,166(sp)

0000000080001960 <i_1535>:
    80001960:	034a31b3          	mulhu	gp,s4,s4

0000000080001964 <i_1536>:
    80001964:	fb013583          	ld	a1,-80(sp)

0000000080001968 <i_1537>:
    80001968:	03495063          	ble	s4,s2,80001988 <i_1544>

000000008000196c <i_1538>:
    8000196c:	ea810ea3          	sb	s0,-323(sp)

0000000080001970 <i_1539>:
    80001970:	00198993          	addi	s3,s3,1
    80001974:	fc69eee3          	bltu	s3,t1,80001950 <i_1531>

0000000080001978 <i_1540>:
    80001978:	f7415a83          	lhu	s5,-140(sp)

000000008000197c <i_1541>:
    8000197c:	04013a03          	ld	s4,64(sp)

0000000080001980 <i_1542>:
    80001980:	02400493          	li	s1,36

0000000080001984 <i_1543>:
    80001984:	4098dab3          	sra	s5,a7,s1

0000000080001988 <i_1544>:
    80001988:	e9412483          	lw	s1,-364(sp)

000000008000198c <i_1545>:
    8000198c:	0c913423          	sd	s1,200(sp)

0000000080001990 <i_1546>:
    80001990:	ea416a83          	lwu	s5,-348(sp)

0000000080001994 <i_1547>:
    80001994:	01b11823          	sh	s11,16(sp)

0000000080001998 <i_1548>:
    80001998:	015ae463          	bltu	s5,s5,800019a0 <i_1550>

000000008000199c <i_1549>:
    8000199c:	015a9863          	bne	s5,s5,800019ac <i_1553>

00000000800019a0 <i_1550>:
    800019a0:	f1a10183          	lb	gp,-230(sp)

00000000800019a4 <i_1551>:
    800019a4:	0151f533          	and	a0,gp,s5

00000000800019a8 <i_1552>:
    800019a8:	fb815783          	lhu	a5,-72(sp)

00000000800019ac <i_1553>:
    800019ac:	01facd33          	xor	s10,s5,t6

00000000800019b0 <i_1554>:
    800019b0:	00000013          	nop

00000000800019b4 <i_1555>:
    800019b4:	82100093          	li	ra,-2015

00000000800019b8 <i_1556>:
    800019b8:	82a00e93          	li	t4,-2006

00000000800019bc <i_1557>:
    800019bc:	0c911d23          	sh	s1,218(sp)

00000000800019c0 <i_1558>:
    800019c0:	15016503          	lwu	a0,336(sp)

00000000800019c4 <i_1559>:
    800019c4:	cf4d7413          	andi	s0,s10,-780

00000000800019c8 <i_1560>:
    800019c8:	01def863          	bleu	t4,t4,800019d8 <i_1564>

00000000800019cc <i_1561>:
    800019cc:	f1411a03          	lh	s4,-236(sp)

00000000800019d0 <i_1562>:
    800019d0:	6457d497          	auipc	s1,0x6457d

00000000800019d4 <i_1563>:
    800019d4:	f6d14d03          	lbu	s10,-147(sp)

00000000800019d8 <i_1564>:
    800019d8:	06a13c23          	sd	a0,120(sp)

00000000800019dc <i_1565>:
    800019dc:	fbd11b23          	sh	t4,-74(sp)

00000000800019e0 <i_1566>:
    800019e0:	00108093          	addi	ra,ra,1
    800019e4:	fc1e9ce3          	bne	t4,ra,800019bc <i_1557>

00000000800019e8 <i_1567>:
    800019e8:	1b816e03          	lwu	t3,440(sp)

00000000800019ec <i_1568>:
    800019ec:	ec012503          	lw	a0,-320(sp)

00000000800019f0 <i_1569>:
    800019f0:	02a56533          	rem	a0,a0,a0

00000000800019f4 <i_1570>:
    800019f4:	f1c12a23          	sw	t3,-236(sp)

00000000800019f8 <i_1571>:
    800019f8:	ffe11803          	lh	a6,-2(sp)

00000000800019fc <i_1572>:
    800019fc:	bde56e13          	ori	t3,a0,-1058

0000000080001a00 <i_1573>:
    80001a00:	01085263          	ble	a6,a6,80001a04 <i_1574>

0000000080001a04 <i_1574>:
    80001a04:	f2412803          	lw	a6,-220(sp)

0000000080001a08 <i_1575>:
    80001a08:	9e560f13          	addi	t5,a2,-1563

0000000080001a0c <i_1576>:
    80001a0c:	05c15f03          	lhu	t5,92(sp)

0000000080001a10 <i_1577>:
    80001a10:	78700613          	li	a2,1927

0000000080001a14 <i_1578>:
    80001a14:	79900c93          	li	s9,1945

0000000080001a18 <i_1579>:
    80001a18:	e4013b03          	ld	s6,-448(sp)

0000000080001a1c <i_1580>:
    80001a1c:	01415283          	lhu	t0,20(sp)

0000000080001a20 <i_1581>:
    80001a20:	039f55bb          	divuw	a1,t5,s9

0000000080001a24 <i_1582>:
    80001a24:	09013f03          	ld	t5,144(sp)

0000000080001a28 <i_1583>:
    80001a28:	00bf5463          	ble	a1,t5,80001a30 <i_1585>

0000000080001a2c <i_1584>:
    80001a2c:	06512423          	sw	t0,104(sp)

0000000080001a30 <i_1585>:
    80001a30:	0059e2b3          	or	t0,s3,t0

0000000080001a34 <i_1586>:
    80001a34:	02c00993          	li	s3,44

0000000080001a38 <i_1587>:
    80001a38:	0132d9b3          	srl	s3,t0,s3

0000000080001a3c <i_1588>:
    80001a3c:	41780bb3          	sub	s7,a6,s7

0000000080001a40 <i_1589>:
    80001a40:	17712e23          	sw	s7,380(sp)

0000000080001a44 <i_1590>:
    80001a44:	00160613          	addi	a2,a2,1
    80001a48:	fd9618e3          	bne	a2,s9,80001a18 <i_1579>

0000000080001a4c <i_1591>:
    80001a4c:	0372f063          	bleu	s7,t0,80001a6c <i_1599>

0000000080001a50 <i_1592>:
    80001a50:	0172e263          	bltu	t0,s7,80001a54 <i_1593>

0000000080001a54 <i_1593>:
    80001a54:	00311813          	slli	a6,sp,0x3

0000000080001a58 <i_1594>:
    80001a58:	e5416383          	lwu	t2,-428(sp)

0000000080001a5c <i_1595>:
    80001a5c:	02c384bb          	mulw	s1,t2,a2

0000000080001a60 <i_1596>:
    80001a60:	04011e03          	lh	t3,64(sp)

0000000080001a64 <i_1597>:
    80001a64:	00000013          	nop

0000000080001a68 <i_1598>:
    80001a68:	00000013          	nop

0000000080001a6c <i_1599>:
    80001a6c:	1e812023          	sw	s0,480(sp)

0000000080001a70 <i_1600>:
    80001a70:	00000013          	nop

0000000080001a74 <i_1601>:
    80001a74:	7e900d93          	li	s11,2025

0000000080001a78 <i_1602>:
    80001a78:	7fa00b93          	li	s7,2042

0000000080001a7c <i_1603>:
    80001a7c:	1d713823          	sd	s7,464(sp)

0000000080001a80 <i_1604>:
    80001a80:	09b10ea3          	sb	s11,157(sp)

0000000080001a84 <i_1605>:
    80001a84:	72d00c13          	li	s8,1837

0000000080001a88 <i_1606>:
    80001a88:	73200313          	li	t1,1842

0000000080001a8c <i_1607>:
    80001a8c:	001c0c13          	addi	s8,s8,1
    80001a90:	ff835ee3          	ble	s8,t1,80001a8c <i_1607>

0000000080001a94 <i_1608>:
    80001a94:	01000393          	li	t2,16

0000000080001a98 <i_1609>:
    80001a98:	407e5c3b          	sraw	s8,t3,t2

0000000080001a9c <i_1610>:
    80001a9c:	001d8d93          	addi	s11,s11,1 # 7b3498bd <main-0x4cb6743>
    80001aa0:	fd7d9ee3          	bne	s11,s7,80001a7c <i_1603>

0000000080001aa4 <i_1611>:
    80001aa4:	10c11c03          	lh	s8,268(sp)

0000000080001aa8 <i_1612>:
    80001aa8:	ee311723          	sh	gp,-274(sp)

0000000080001aac <i_1613>:
    80001aac:	027c6c33          	rem	s8,s8,t2

0000000080001ab0 <i_1614>:
    80001ab0:	00a38463          	beq	t2,a0,80001ab8 <i_1616>

0000000080001ab4 <i_1615>:
    80001ab4:	018c42b3          	xor	t0,s8,s8

0000000080001ab8 <i_1616>:
    80001ab8:	f1414383          	lbu	t2,-236(sp)

0000000080001abc <i_1617>:
    80001abc:	018c1863          	bne	s8,s8,80001acc <i_1621>

0000000080001ac0 <i_1618>:
    80001ac0:	e1a15c83          	lhu	s9,-486(sp)

0000000080001ac4 <i_1619>:
    80001ac4:	018ce663          	bltu	s9,s8,80001ad0 <i_1622>

0000000080001ac8 <i_1620>:
    80001ac8:	15313423          	sd	s3,328(sp)

0000000080001acc <i_1621>:
    80001acc:	418c03bb          	subw	t2,s8,s8

0000000080001ad0 <i_1622>:
    80001ad0:	00aec663          	blt	t4,a0,80001adc <i_1625>

0000000080001ad4 <i_1623>:
    80001ad4:	11012a03          	lw	s4,272(sp)

0000000080001ad8 <i_1624>:
    80001ad8:	0143dc63          	ble	s4,t2,80001af0 <i_1630>

0000000080001adc <i_1625>:
    80001adc:	1c510623          	sb	t0,460(sp)

0000000080001ae0 <i_1626>:
    80001ae0:	17412823          	sw	s4,368(sp)

0000000080001ae4 <i_1627>:
    80001ae4:	06513823          	sd	t0,112(sp)

0000000080001ae8 <i_1628>:
    80001ae8:	005a7c63          	bleu	t0,s4,80001b00 <i_1634>

0000000080001aec <i_1629>:
    80001aec:	17911a23          	sh	s9,372(sp)

0000000080001af0 <i_1630>:
    80001af0:	12714483          	lbu	s1,295(sp)

0000000080001af4 <i_1631>:
    80001af4:	e7811523          	sh	s8,-406(sp)

0000000080001af8 <i_1632>:
    80001af8:	f7911c23          	sh	s9,-136(sp)

0000000080001afc <i_1633>:
    80001afc:	06911123          	sh	s1,98(sp)

0000000080001b00 <i_1634>:
    80001b00:	9bfd3a93          	sltiu	s5,s10,-1601

0000000080001b04 <i_1635>:
    80001b04:	ee510a03          	lb	s4,-283(sp)

0000000080001b08 <i_1636>:
    80001b08:	f6110183          	lb	gp,-159(sp)

0000000080001b0c <i_1637>:
    80001b0c:	0242c2bb          	divw	t0,t0,tp

0000000080001b10 <i_1638>:
    80001b10:	78c00c93          	li	s9,1932

0000000080001b14 <i_1639>:
    80001b14:	7a000213          	li	tp,1952

0000000080001b18 <i_1640>:
    80001b18:	ed412683          	lw	a3,-300(sp)

0000000080001b1c <i_1641>:
    80001b1c:	02b1e663          	bltu	gp,a1,80001b48 <i_1651>

0000000080001b20 <i_1642>:
    80001b20:	f9a11183          	lh	gp,-102(sp)

0000000080001b24 <i_1643>:
    80001b24:	40d689b3          	sub	s3,a3,a3

0000000080001b28 <i_1644>:
    80001b28:	75afb313          	sltiu	t1,t6,1882

0000000080001b2c <i_1645>:
    80001b2c:	40f30bbb          	subw	s7,t1,a5

0000000080001b30 <i_1646>:
    80001b30:	00000013          	nop

0000000080001b34 <i_1647>:
    80001b34:	037babb3          	mulhsu	s7,s7,s7

0000000080001b38 <i_1648>:
    80001b38:	001c8c93          	addi	s9,s9,1 # 9bd421c1 <_end+0x1bd31dad>
    80001b3c:	fc4ceee3          	bltu	s9,tp,80001b18 <i_1640>

0000000080001b40 <i_1649>:
    80001b40:	03736063          	bltu	t1,s7,80001b60 <i_1657>

0000000080001b44 <i_1650>:
    80001b44:	404bdb93          	srai	s7,s7,0x4

0000000080001b48 <i_1651>:
    80001b48:	032be833          	rem	a6,s7,s2

0000000080001b4c <i_1652>:
    80001b4c:	017bd463          	ble	s7,s7,80001b54 <i_1654>

0000000080001b50 <i_1653>:
    80001b50:	0171fc63          	bleu	s7,gp,80001b68 <i_1659>

0000000080001b54 <i_1654>:
    80001b54:	40425213          	srai	tp,tp,0x4

0000000080001b58 <i_1655>:
    80001b58:	e9a11603          	lh	a2,-358(sp)

0000000080001b5c <i_1656>:
    80001b5c:	00c00b93          	li	s7,12

0000000080001b60 <i_1657>:
    80001b60:	017b943b          	sllw	s0,s7,s7

0000000080001b64 <i_1658>:
    80001b64:	0a412583          	lw	a1,164(sp)

0000000080001b68 <i_1659>:
    80001b68:	f7713823          	sd	s7,-144(sp)

0000000080001b6c <i_1660>:
    80001b6c:	14b103a3          	sb	a1,327(sp)

0000000080001b70 <i_1661>:
    80001b70:	00c10ba3          	sb	a2,23(sp)

0000000080001b74 <i_1662>:
    80001b74:	03764833          	div	a6,a2,s7

0000000080001b78 <i_1663>:
    80001b78:	f4813683          	ld	a3,-184(sp)

0000000080001b7c <i_1664>:
    80001b7c:	1dc15083          	lhu	ra,476(sp)

0000000080001b80 <i_1665>:
    80001b80:	03086dbb          	remw	s11,a6,a6

0000000080001b84 <i_1666>:
    80001b84:	006ba2b3          	slt	t0,s7,t1

0000000080001b88 <i_1667>:
    80001b88:	01047263          	bleu	a6,s0,80001b8c <i_1668>

0000000080001b8c <i_1668>:
    80001b8c:	01766c63          	bltu	a2,s7,80001ba4 <i_1674>

0000000080001b90 <i_1669>:
    80001b90:	01767463          	bleu	s7,a2,80001b98 <i_1671>

0000000080001b94 <i_1670>:
    80001b94:	01750863          	beq	a0,s7,80001ba4 <i_1674>

0000000080001b98 <i_1671>:
    80001b98:	0178c463          	blt	a7,s7,80001ba0 <i_1673>

0000000080001b9c <i_1672>:
    80001b9c:	024bdcb3          	divu	s9,s7,tp

0000000080001ba0 <i_1673>:
    80001ba0:	01b65463          	ble	s11,a2,80001ba8 <i_1675>

0000000080001ba4 <i_1674>:
    80001ba4:	039be5b3          	rem	a1,s7,s9

0000000080001ba8 <i_1675>:
    80001ba8:	025cdcbb          	divuw	s9,s9,t0

0000000080001bac <i_1676>:
    80001bac:	039c8463          	beq	s9,s9,80001bd4 <i_1686>

0000000080001bb0 <i_1677>:
    80001bb0:	16d10283          	lb	t0,365(sp)

0000000080001bb4 <i_1678>:
    80001bb4:	12815283          	lhu	t0,296(sp)

0000000080001bb8 <i_1679>:
    80001bb8:	13913823          	sd	s9,304(sp)

0000000080001bbc <i_1680>:
    80001bbc:	404cda93          	srai	s5,s9,0x4

0000000080001bc0 <i_1681>:
    80001bc0:	fd513023          	sd	s5,-64(sp)

0000000080001bc4 <i_1682>:
    80001bc4:	d2bc8593          	addi	a1,s9,-725

0000000080001bc8 <i_1683>:
    80001bc8:	1b816c83          	lwu	s9,440(sp)

0000000080001bcc <i_1684>:
    80001bcc:	014a9263          	bne	s5,s4,80001bd0 <i_1685>

0000000080001bd0 <i_1685>:
    80001bd0:	02bb8bbb          	mulw	s7,s7,a1

0000000080001bd4 <i_1686>:
    80001bd4:	06e11023          	sh	a4,96(sp)

0000000080001bd8 <i_1687>:
    80001bd8:	035be263          	bltu	s7,s5,80001bfc <i_1696>

0000000080001bdc <i_1688>:
    80001bdc:	fb512e23          	sw	s5,-68(sp)

0000000080001be0 <i_1689>:
    80001be0:	019ae263          	bltu	s5,s9,80001be4 <i_1690>

0000000080001be4 <i_1690>:
    80001be4:	0e211a83          	lh	s5,226(sp)

0000000080001be8 <i_1691>:
    80001be8:	037cbab3          	mulhu	s5,s9,s7

0000000080001bec <i_1692>:
    80001bec:	1b913023          	sd	s9,416(sp)

0000000080001bf0 <i_1693>:
    80001bf0:	e8013b03          	ld	s6,-384(sp)

0000000080001bf4 <i_1694>:
    80001bf4:	036bc063          	blt	s7,s6,80001c14 <i_1702>

0000000080001bf8 <i_1695>:
    80001bf8:	019cf533          	and	a0,s9,s9

0000000080001bfc <i_1696>:
    80001bfc:	012b4663          	blt	s6,s2,80001c08 <i_1699>

0000000080001c00 <i_1697>:
    80001c00:	05612223          	sw	s6,68(sp)

0000000080001c04 <i_1698>:
    80001c04:	07910d23          	sb	s9,122(sp)

0000000080001c08 <i_1699>:
    80001c08:	f9613423          	sd	s6,-120(sp)

0000000080001c0c <i_1700>:
    80001c0c:	17013783          	ld	a5,368(sp)

0000000080001c10 <i_1701>:
    80001c10:	00000013          	nop

0000000080001c14 <i_1702>:
    80001c14:	f9910ba3          	sb	s9,-105(sp)

0000000080001c18 <i_1703>:
    80001c18:	035ac5bb          	divw	a1,s5,s5

0000000080001c1c <i_1704>:
    80001c1c:	72e00d13          	li	s10,1838

0000000080001c20 <i_1705>:
    80001c20:	73b00093          	li	ra,1851

0000000080001c24 <i_1706>:
    80001c24:	02f5ea3b          	remw	s4,a1,a5

0000000080001c28 <i_1707>:
    80001c28:	001d0d13          	addi	s10,s10,1
    80001c2c:	ffa0dce3          	ble	s10,ra,80001c24 <i_1706>

0000000080001c30 <i_1708>:
    80001c30:	f6b10323          	sb	a1,-154(sp)

0000000080001c34 <i_1709>:
    80001c34:	ff211403          	lh	s0,-14(sp)

0000000080001c38 <i_1710>:
    80001c38:	00809a63          	bne	ra,s0,80001c4c <i_1715>

0000000080001c3c <i_1711>:
    80001c3c:	00f00513          	li	a0,15

0000000080001c40 <i_1712>:
    80001c40:	00a0d0b3          	srl	ra,ra,a0

0000000080001c44 <i_1713>:
    80001c44:	0cc12403          	lw	s0,204(sp)

0000000080001c48 <i_1714>:
    80001c48:	02a461bb          	remw	gp,s0,a0

0000000080001c4c <i_1715>:
    80001c4c:	02d19063          	bne	gp,a3,80001c6c <i_1723>

0000000080001c50 <i_1716>:
    80001c50:	ecc53f13          	sltiu	t5,a0,-308

0000000080001c54 <i_1717>:
    80001c54:	00a08433          	add	s0,ra,a0

0000000080001c58 <i_1718>:
    80001c58:	f6813c23          	sd	s0,-136(sp)

0000000080001c5c <i_1719>:
    80001c5c:	8208c817          	auipc	a6,0x8208c

0000000080001c60 <i_1720>:
    80001c60:	0210c463          	blt	ra,ra,80001c88 <i_1730>

0000000080001c64 <i_1721>:
    80001c64:	40a80f33          	sub	t5,a6,a0

0000000080001c68 <i_1722>:
    80001c68:	f9011603          	lh	a2,-112(sp)

0000000080001c6c <i_1723>:
    80001c6c:	16a12a23          	sw	a0,372(sp)

0000000080001c70 <i_1724>:
    80001c70:	011f4463          	blt	t5,a7,80001c78 <i_1726>

0000000080001c74 <i_1725>:
    80001c74:	00af4463          	blt	t5,a0,80001c7c <i_1727>

0000000080001c78 <i_1726>:
    80001c78:	f6816a83          	lwu	s5,-152(sp)

0000000080001c7c <i_1727>:
    80001c7c:	01f66833          	or	a6,a2,t6

0000000080001c80 <i_1728>:
    80001c80:	00300d13          	li	s10,3

0000000080001c84 <i_1729>:
    80001c84:	41a35a3b          	sraw	s4,t1,s10

0000000080001c88 <i_1730>:
    80001c88:	f3a12423          	sw	s10,-216(sp)

0000000080001c8c <i_1731>:
    80001c8c:	1b113023          	sd	a7,416(sp)

0000000080001c90 <i_1732>:
    80001c90:	00000013          	nop

0000000080001c94 <i_1733>:
    80001c94:	7c300313          	li	t1,1987

0000000080001c98 <i_1734>:
    80001c98:	7cb00d13          	li	s10,1995

0000000080001c9c <i_1735>:
    80001c9c:	5c9e009b          	addiw	ra,t3,1481

0000000080001ca0 <i_1736>:
    80001ca0:	02de30b3          	mulhu	ra,t3,a3

0000000080001ca4 <i_1737>:
    80001ca4:	88b00e13          	li	t3,-1909

0000000080001ca8 <i_1738>:
    80001ca8:	89100513          	li	a0,-1903

0000000080001cac <i_1739>:
    80001cac:	0be15083          	lhu	ra,190(sp)

0000000080001cb0 <i_1740>:
    80001cb0:	e9215083          	lhu	ra,-366(sp)

0000000080001cb4 <i_1741>:
    80001cb4:	001e0e13          	addi	t3,t3,1
    80001cb8:	feae6ae3          	bltu	t3,a0,80001cac <i_1739>

0000000080001cbc <i_1742>:
    80001cbc:	e6111b23          	sh	ra,-394(sp)

0000000080001cc0 <i_1743>:
    80001cc0:	03700b13          	li	s6,55

0000000080001cc4 <i_1744>:
    80001cc4:	016352b3          	srl	t0,t1,s6

0000000080001cc8 <i_1745>:
    80001cc8:	00130313          	addi	t1,t1,1
    80001ccc:	fc6d58e3          	ble	t1,s10,80001c9c <i_1735>

0000000080001cd0 <i_1746>:
    80001cd0:	f8110c23          	sb	ra,-104(sp)

0000000080001cd4 <i_1747>:
    80001cd4:	be52e293          	ori	t0,t0,-1051

0000000080001cd8 <i_1748>:
    80001cd8:	e2813303          	ld	t1,-472(sp)

0000000080001cdc <i_1749>:
    80001cdc:	e2813b03          	ld	s6,-472(sp)

0000000080001ce0 <i_1750>:
    80001ce0:	0052fe63          	bleu	t0,t0,80001cfc <i_1757>

0000000080001ce4 <i_1751>:
    80001ce4:	01633e33          	sltu	t3,t1,s6

0000000080001ce8 <i_1752>:
    80001ce8:	0f114e03          	lbu	t3,241(sp)

0000000080001cec <i_1753>:
    80001cec:	0043531b          	srliw	t1,t1,0x4

0000000080001cf0 <i_1754>:
    80001cf0:	034e6063          	bltu	t3,s4,80001d10 <i_1762>

0000000080001cf4 <i_1755>:
    80001cf4:	1c614b03          	lbu	s6,454(sp)

0000000080001cf8 <i_1756>:
    80001cf8:	00131a1b          	slliw	s4,t1,0x1

0000000080001cfc <i_1757>:
    80001cfc:	010a1a63          	bne	s4,a6,80001d10 <i_1762>

0000000080001d00 <i_1758>:
    80001d00:	001b5313          	srli	t1,s6,0x1

0000000080001d04 <i_1759>:
    80001d04:	0f215b03          	lhu	s6,242(sp)

0000000080001d08 <i_1760>:
    80001d08:	eb514b03          	lbu	s6,-331(sp)

0000000080001d0c <i_1761>:
    80001d0c:	1da15e03          	lhu	t3,474(sp)

0000000080001d10 <i_1762>:
    80001d10:	e7812c03          	lw	s8,-392(sp)

0000000080001d14 <i_1763>:
    80001d14:	01f00393          	li	t2,31

0000000080001d18 <i_1764>:
    80001d18:	40775b3b          	sraw	s6,a4,t2

0000000080001d1c <i_1765>:
    80001d1c:	e6412603          	lw	a2,-412(sp)

0000000080001d20 <i_1766>:
    80001d20:	027f7433          	remu	s0,t5,t2

0000000080001d24 <i_1767>:
    80001d24:	fc911923          	sh	s1,-46(sp)

0000000080001d28 <i_1768>:
    80001d28:	e8016283          	lwu	t0,-384(sp)

0000000080001d2c <i_1769>:
    80001d2c:	413c09bb          	subw	s3,s8,s3

0000000080001d30 <i_1770>:
    80001d30:	788e4d93          	xori	s11,t3,1928

0000000080001d34 <i_1771>:
    80001d34:	0109d663          	ble	a6,s3,80001d40 <i_1774>

0000000080001d38 <i_1772>:
    80001d38:	01b109b3          	add	s3,sp,s11

0000000080001d3c <i_1773>:
    80001d3c:	02899533          	mulh	a0,s3,s0

0000000080001d40 <i_1774>:
    80001d40:	00000013          	nop

0000000080001d44 <i_1775>:
    80001d44:	01000c13          	li	s8,16

0000000080001d48 <i_1776>:
    80001d48:	01845433          	srl	s0,s0,s8

0000000080001d4c <i_1777>:
    80001d4c:	7cf00393          	li	t2,1999

0000000080001d50 <i_1778>:
    80001d50:	7e100b13          	li	s6,2017

0000000080001d54 <i_1779>:
    80001d54:	038c0463          	beq	s8,s8,80001d7c <i_1788>

0000000080001d58 <i_1780>:
    80001d58:	00138393          	addi	t2,t2,1 # 1f128705 <main-0x60ed78fb>
    80001d5c:	ff63cae3          	blt	t2,s6,80001d50 <i_1778>

0000000080001d60 <i_1781>:
    80001d60:	05811f23          	sh	s8,94(sp)

0000000080001d64 <i_1782>:
    80001d64:	00a9f863          	bleu	a0,s3,80001d74 <i_1786>

0000000080001d68 <i_1783>:
    80001d68:	028c453b          	divw	a0,s8,s0

0000000080001d6c <i_1784>:
    80001d6c:	01312823          	sw	s3,16(sp)

0000000080001d70 <i_1785>:
    80001d70:	00a56233          	or	tp,a0,a0

0000000080001d74 <i_1786>:
    80001d74:	ed812b03          	lw	s6,-296(sp)

0000000080001d78 <i_1787>:
    80001d78:	00a51863          	bne	a0,a0,80001d88 <i_1791>

0000000080001d7c <i_1788>:
    80001d7c:	023c5263          	ble	gp,s8,80001da0 <i_1797>

0000000080001d80 <i_1789>:
    80001d80:	00000013          	nop

0000000080001d84 <i_1790>:
    80001d84:	fc816683          	lwu	a3,-56(sp)

0000000080001d88 <i_1791>:
    80001d88:	00000013          	nop

0000000080001d8c <i_1792>:
    80001d8c:	0bb10683          	lb	a3,187(sp)

0000000080001d90 <i_1793>:
    80001d90:	001c1313          	slli	t1,s8,0x1

0000000080001d94 <i_1794>:
    80001d94:	02313c23          	sd	gp,56(sp)

0000000080001d98 <i_1795>:
    80001d98:	09816b03          	lwu	s6,152(sp)

0000000080001d9c <i_1796>:
    80001d9c:	e7816203          	lwu	tp,-392(sp)

0000000080001da0 <i_1797>:
    80001da0:	f0f10b03          	lb	s6,-241(sp)

0000000080001da4 <i_1798>:
    80001da4:	00000013          	nop

0000000080001da8 <i_1799>:
    80001da8:	86300c13          	li	s8,-1949

0000000080001dac <i_1800>:
    80001dac:	87200193          	li	gp,-1934

0000000080001db0 <i_1801>:
    80001db0:	16012203          	lw	tp,352(sp)

0000000080001db4 <i_1802>:
    80001db4:	e8314203          	lbu	tp,-381(sp)

0000000080001db8 <i_1803>:
    80001db8:	0e013203          	ld	tp,224(sp)

0000000080001dbc <i_1804>:
    80001dbc:	0d416b83          	lwu	s7,212(sp)

0000000080001dc0 <i_1805>:
    80001dc0:	02412223          	sw	tp,36(sp)

0000000080001dc4 <i_1806>:
    80001dc4:	0e412203          	lw	tp,228(sp)

0000000080001dc8 <i_1807>:
    80001dc8:	001c0c13          	addi	s8,s8,1
    80001dcc:	ff81f2e3          	bleu	s8,gp,80001db0 <i_1801>

0000000080001dd0 <i_1808>:
    80001dd0:	03b00a13          	li	s4,59

0000000080001dd4 <i_1809>:
    80001dd4:	01421233          	sll	tp,tp,s4

0000000080001dd8 <i_1810>:
    80001dd8:	00420c33          	add	s8,tp,tp

0000000080001ddc <i_1811>:
    80001ddc:	017bd463          	ble	s7,s7,80001de4 <i_1813>

0000000080001de0 <i_1812>:
    80001de0:	414c023b          	subw	tp,s8,s4

0000000080001de4 <i_1813>:
    80001de4:	1b415c03          	lhu	s8,436(sp)

0000000080001de8 <i_1814>:
    80001de8:	17811623          	sh	s8,364(sp)

0000000080001dec <i_1815>:
    80001dec:	e6410ba3          	sb	tp,-393(sp)

0000000080001df0 <i_1816>:
    80001df0:	1c411a23          	sh	tp,468(sp)

0000000080001df4 <i_1817>:
    80001df4:	73600493          	li	s1,1846

0000000080001df8 <i_1818>:
    80001df8:	74700213          	li	tp,1863

0000000080001dfc <i_1819>:
    80001dfc:	03500b13          	li	s6,53

0000000080001e00 <i_1820>:
    80001e00:	0164dab3          	srl	s5,s1,s6

0000000080001e04 <i_1821>:
    80001e04:	10c15503          	lhu	a0,268(sp)

0000000080001e08 <i_1822>:
    80001e08:	036b2b33          	mulhsu	s6,s6,s6

0000000080001e0c <i_1823>:
    80001e0c:	15a15d03          	lhu	s10,346(sp)

0000000080001e10 <i_1824>:
    80001e10:	01a00a93          	li	s5,26

0000000080001e14 <i_1825>:
    80001e14:	015096b3          	sll	a3,ra,s5

0000000080001e18 <i_1826>:
    80001e18:	7c200b13          	li	s6,1986

0000000080001e1c <i_1827>:
    80001e1c:	7cf00993          	li	s3,1999

0000000080001e20 <i_1828>:
    80001e20:	eda15c03          	lhu	s8,-294(sp)

0000000080001e24 <i_1829>:
    80001e24:	001b0b13          	addi	s6,s6,1
    80001e28:	ff69fae3          	bleu	s6,s3,80001e1c <i_1827>

0000000080001e2c <i_1830>:
    80001e2c:	f3013d03          	ld	s10,-208(sp)

0000000080001e30 <i_1831>:
    80001e30:	fc013c03          	ld	s8,-64(sp)

0000000080001e34 <i_1832>:
    80001e34:	037a8abb          	mulw	s5,s5,s7

0000000080001e38 <i_1833>:
    80001e38:	00500c13          	li	s8,5

0000000080001e3c <i_1834>:
    80001e3c:	018adc3b          	srlw	s8,s5,s8

0000000080001e40 <i_1835>:
    80001e40:	00148493          	addi	s1,s1,1 # e457e9d1 <_end+0x6456e5bd>
    80001e44:	fa925ce3          	ble	s1,tp,80001dfc <i_1819>

0000000080001e48 <i_1836>:
    80001e48:	0018dd9b          	srliw	s11,a7,0x1

0000000080001e4c <i_1837>:
    80001e4c:	415c03bb          	subw	t2,s8,s5

0000000080001e50 <i_1838>:
    80001e50:	018a9663          	bne	s5,s8,80001e5c <i_1841>

0000000080001e54 <i_1839>:
    80001e54:	fdb13c23          	sd	s11,-40(sp)

0000000080001e58 <i_1840>:
    80001e58:	027c0263          	beq	s8,t2,80001e7c <i_1849>

0000000080001e5c <i_1841>:
    80001e5c:	eb816d83          	lwu	s11,-328(sp)

0000000080001e60 <i_1842>:
    80001e60:	ede10203          	lb	tp,-290(sp)

0000000080001e64 <i_1843>:
    80001e64:	01600413          	li	s0,22

0000000080001e68 <i_1844>:
    80001e68:	008d1d3b          	sllw	s10,s10,s0

0000000080001e6c <i_1845>:
    80001e6c:	f4614d03          	lbu	s10,-186(sp)

0000000080001e70 <i_1846>:
    80001e70:	f91106a3          	sb	a7,-115(sp)

0000000080001e74 <i_1847>:
    80001e74:	82bdfa93          	andi	s5,s11,-2005

0000000080001e78 <i_1848>:
    80001e78:	f5712223          	sw	s7,-188(sp)

0000000080001e7c <i_1849>:
    80001e7c:	01bdfdb3          	and	s11,s11,s11

0000000080001e80 <i_1850>:
    80001e80:	0e011483          	lh	s1,224(sp)

0000000080001e84 <i_1851>:
    80001e84:	7c100b93          	li	s7,1985

0000000080001e88 <i_1852>:
    80001e88:	7d300513          	li	a0,2003

0000000080001e8c <i_1853>:
    80001e8c:	3c2dfd93          	andi	s11,s11,962

0000000080001e90 <i_1854>:
    80001e90:	e9614283          	lbu	t0,-362(sp)

0000000080001e94 <i_1855>:
    80001e94:	00a28c63          	beq	t0,a0,80001eac <i_1860>

0000000080001e98 <i_1856>:
    80001e98:	f9014d83          	lbu	s11,-112(sp)

0000000080001e9c <i_1857>:
    80001e9c:	001b8b93          	addi	s7,s7,1
    80001ea0:	feabe6e3          	bltu	s7,a0,80001e8c <i_1853>

0000000080001ea4 <i_1858>:
    80001ea4:	fc013983          	ld	s3,-64(sp)

0000000080001ea8 <i_1859>:
    80001ea8:	49b2899b          	addiw	s3,t0,1179

0000000080001eac <i_1860>:
    80001eac:	005282b3          	add	t0,t0,t0

0000000080001eb0 <i_1861>:
    80001eb0:	01bdabb3          	slt	s7,s11,s11

0000000080001eb4 <i_1862>:
    80001eb4:	ed015d03          	lhu	s10,-304(sp)

0000000080001eb8 <i_1863>:
    80001eb8:	07816d83          	lwu	s11,120(sp)

0000000080001ebc <i_1864>:
    80001ebc:	f7012c23          	sw	a6,-136(sp)

0000000080001ec0 <i_1865>:
    80001ec0:	0c613423          	sd	t1,200(sp)

0000000080001ec4 <i_1866>:
    80001ec4:	5f9d3313          	sltiu	t1,s10,1529

0000000080001ec8 <i_1867>:
    80001ec8:	40688333          	sub	t1,a7,t1

0000000080001ecc <i_1868>:
    80001ecc:	0a414a83          	lbu	s5,164(sp)

0000000080001ed0 <i_1869>:
    80001ed0:	0c514c83          	lbu	s9,197(sp)

0000000080001ed4 <i_1870>:
    80001ed4:	fd811d83          	lh	s11,-40(sp)

0000000080001ed8 <i_1871>:
    80001ed8:	035d8263          	beq	s11,s5,80001efc <i_1880>

0000000080001edc <i_1872>:
    80001edc:	41ba8db3          	sub	s11,s5,s11

0000000080001ee0 <i_1873>:
    80001ee0:	079101a3          	sb	s9,99(sp)

0000000080001ee4 <i_1874>:
    80001ee4:	19a14d83          	lbu	s11,410(sp)

0000000080001ee8 <i_1875>:
    80001ee8:	fe813c83          	ld	s9,-24(sp)

0000000080001eec <i_1876>:
    80001eec:	01b30463          	beq	t1,s11,80001ef4 <i_1878>

0000000080001ef0 <i_1877>:
    80001ef0:	03bdedbb          	remw	s11,s11,s11

0000000080001ef4 <i_1878>:
    80001ef4:	01600313          	li	t1,22

0000000080001ef8 <i_1879>:
    80001ef8:	006d9b3b          	sllw	s6,s11,t1

0000000080001efc <i_1880>:
    80001efc:	0fc16b83          	lwu	s7,252(sp)

0000000080001f00 <i_1881>:
    80001f00:	e2411803          	lh	a6,-476(sp)

0000000080001f04 <i_1882>:
    80001f04:	e9c12183          	lw	gp,-356(sp)

0000000080001f08 <i_1883>:
    80001f08:	e5016483          	lwu	s1,-432(sp)

0000000080001f0c <i_1884>:
    80001f0c:	f9b10ca3          	sb	s11,-103(sp)

0000000080001f10 <i_1885>:
    80001f10:	07012c83          	lw	s9,112(sp)

0000000080001f14 <i_1886>:
    80001f14:	019c9e63          	bne	s9,s9,80001f30 <i_1893>

0000000080001f18 <i_1887>:
    80001f18:	f9016183          	lwu	gp,-112(sp)

0000000080001f1c <i_1888>:
    80001f1c:	e9f12223          	sw	t6,-380(sp)

0000000080001f20 <i_1889>:
    80001f20:	f3b10c83          	lb	s9,-197(sp)

0000000080001f24 <i_1890>:
    80001f24:	03e00c93          	li	s9,62

0000000080001f28 <i_1891>:
    80001f28:	4194d4b3          	sra	s1,s1,s9

0000000080001f2c <i_1892>:
    80001f2c:	01e00393          	li	t2,30

0000000080001f30 <i_1893>:
    80001f30:	007393bb          	sllw	t2,t2,t2

0000000080001f34 <i_1894>:
    80001f34:	007cbcb3          	sltu	s9,s9,t2

0000000080001f38 <i_1895>:
    80001f38:	01939a63          	bne	t2,s9,80001f4c <i_1900>

0000000080001f3c <i_1896>:
    80001f3c:	10713c23          	sd	t2,280(sp)

0000000080001f40 <i_1897>:
    80001f40:	01939663          	bne	t2,s9,80001f4c <i_1900>

0000000080001f44 <i_1898>:
    80001f44:	ef411383          	lh	t2,-268(sp)

0000000080001f48 <i_1899>:
    80001f48:	0df10c83          	lb	s9,223(sp)

0000000080001f4c <i_1900>:
    80001f4c:	087107a3          	sb	t2,143(sp)

0000000080001f50 <i_1901>:
    80001f50:	0313feb3          	remu	t4,t2,a7

0000000080001f54 <i_1902>:
    80001f54:	04914983          	lbu	s3,73(sp)

0000000080001f58 <i_1903>:
    80001f58:	019cee63          	bltu	s9,s9,80001f74 <i_1910>

0000000080001f5c <i_1904>:
    80001f5c:	0079dc63          	ble	t2,s3,80001f74 <i_1910>

0000000080001f60 <i_1905>:
    80001f60:	1a312e23          	sw	gp,444(sp)

0000000080001f64 <i_1906>:
    80001f64:	1e211c03          	lh	s8,482(sp)

0000000080001f68 <i_1907>:
    80001f68:	0e013483          	ld	s1,224(sp)

0000000080001f6c <i_1908>:
    80001f6c:	16c16483          	lwu	s1,364(sp)

0000000080001f70 <i_1909>:
    80001f70:	f0415383          	lhu	t2,-252(sp)

0000000080001f74 <i_1910>:
    80001f74:	15013803          	ld	a6,336(sp)

0000000080001f78 <i_1911>:
    80001f78:	0184f663          	bleu	s8,s1,80001f84 <i_1914>

0000000080001f7c <i_1912>:
    80001f7c:	01384a63          	blt	a6,s3,80001f90 <i_1917>

0000000080001f80 <i_1913>:
    80001f80:	0323d263          	ble	s2,t2,80001fa4 <i_1922>

0000000080001f84 <i_1914>:
    80001f84:	01100993          	li	s3,17

0000000080001f88 <i_1915>:
    80001f88:	413c55b3          	sra	a1,s8,s3

0000000080001f8c <i_1916>:
    80001f8c:	0183e863          	bltu	t2,s8,80001f9c <i_1920>

0000000080001f90 <i_1917>:
    80001f90:	1b012223          	sw	a6,420(sp)

0000000080001f94 <i_1918>:
    80001f94:	02cc1f33          	mulh	t5,s8,a2

0000000080001f98 <i_1919>:
    80001f98:	02a9fa3b          	remuw	s4,s3,a0

0000000080001f9c <i_1920>:
    80001f9c:	402a5c1b          	sraiw	s8,s4,0x2

0000000080001fa0 <i_1921>:
    80001fa0:	0339d533          	divu	a0,s3,s3

0000000080001fa4 <i_1922>:
    80001fa4:	03010923          	sb	a6,50(sp)

0000000080001fa8 <i_1923>:
    80001fa8:	08415a03          	lhu	s4,132(sp)

0000000080001fac <i_1924>:
    80001fac:	033a1cb3          	mulh	s9,s4,s3

0000000080001fb0 <i_1925>:
    80001fb0:	ff114b83          	lbu	s7,-15(sp)

0000000080001fb4 <i_1926>:
    80001fb4:	ffd11223          	sh	t4,-28(sp)

0000000080001fb8 <i_1927>:
    80001fb8:	038c6063          	bltu	s8,s8,80001fd8 <i_1935>

0000000080001fbc <i_1928>:
    80001fbc:	e4210483          	lb	s1,-446(sp)

0000000080001fc0 <i_1929>:
    80001fc0:	01813f03          	ld	t5,24(sp)

0000000080001fc4 <i_1930>:
    80001fc4:	0bc11603          	lh	a2,188(sp)

0000000080001fc8 <i_1931>:
    80001fc8:	0f412e03          	lw	t3,244(sp)

0000000080001fcc <i_1932>:
    80001fcc:	ff813783          	ld	a5,-8(sp)

0000000080001fd0 <i_1933>:
    80001fd0:	dcda3493          	sltiu	s1,s4,-563

0000000080001fd4 <i_1934>:
    80001fd4:	0cc12f03          	lw	t5,204(sp)

0000000080001fd8 <i_1935>:
    80001fd8:	e8910803          	lb	a6,-375(sp)

0000000080001fdc <i_1936>:
    80001fdc:	403f5d93          	srai	s11,t5,0x3

0000000080001fe0 <i_1937>:
    80001fe0:	01bdda63          	ble	s11,s11,80001ff4 <i_1942>

0000000080001fe4 <i_1938>:
    80001fe4:	030dedbb          	remw	s11,s11,a6

0000000080001fe8 <i_1939>:
    80001fe8:	01cdcdb3          	xor	s11,s11,t3

0000000080001fec <i_1940>:
    80001fec:	01b88a63          	beq	a7,s11,80002000 <i_1945>

0000000080001ff0 <i_1941>:
    80001ff0:	01bd9e63          	bne	s11,s11,8000200c <i_1948>

0000000080001ff4 <i_1942>:
    80001ff4:	05811b23          	sh	s8,86(sp)

0000000080001ff8 <i_1943>:
    80001ff8:	03bde4b3          	rem	s1,s11,s11

0000000080001ffc <i_1944>:
    80001ffc:	14a14a83          	lbu	s5,330(sp)

0000000080002000 <i_1945>:
    80002000:	01794e63          	blt	s2,s7,8000201c <i_1952>

0000000080002004 <i_1946>:
    80002004:	e6913023          	sd	s1,-416(sp)

0000000080002008 <i_1947>:
    80002008:	01bdee33          	or	t3,s11,s11

000000008000200c <i_1948>:
    8000200c:	03cd9db3          	mulh	s11,s11,t3

0000000080002010 <i_1949>:
    80002010:	0c013083          	ld	ra,192(sp)

0000000080002014 <i_1950>:
    80002014:	41de8eb3          	sub	t4,t4,t4

0000000080002018 <i_1951>:
    80002018:	01d84663          	blt	a6,t4,80002024 <i_1954>

000000008000201c <i_1952>:
    8000201c:	03513823          	sd	s5,48(sp)

0000000080002020 <i_1953>:
    80002020:	12114383          	lbu	t2,289(sp)

0000000080002024 <i_1954>:
    80002024:	f8615c03          	lhu	s8,-122(sp)

0000000080002028 <i_1955>:
    80002028:	0e414a83          	lbu	s5,228(sp)

000000008000202c <i_1956>:
    8000202c:	038080bb          	mulw	ra,ra,s8

0000000080002030 <i_1957>:
    80002030:	ec816e03          	lwu	t3,-312(sp)

0000000080002034 <i_1958>:
    80002034:	1ac12083          	lw	ra,428(sp)

0000000080002038 <i_1959>:
    80002038:	fb012403          	lw	s0,-80(sp)

000000008000203c <i_1960>:
    8000203c:	03b46463          	bltu	s0,s11,80002064 <i_1970>

0000000080002040 <i_1961>:
    80002040:	015af4b3          	and	s1,s5,s5

0000000080002044 <i_1962>:
    80002044:	021efc33          	remu	s8,t4,ra

0000000080002048 <i_1963>:
    80002048:	0a610783          	lb	a5,166(sp)

000000008000204c <i_1964>:
    8000204c:	02000993          	li	s3,32

0000000080002050 <i_1965>:
    80002050:	013e10b3          	sll	ra,t3,s3

0000000080002054 <i_1966>:
    80002054:	40f98ab3          	sub	s5,s3,a5

0000000080002058 <i_1967>:
    80002058:	00000013          	nop

000000008000205c <i_1968>:
    8000205c:	f3412a03          	lw	s4,-204(sp)

0000000080002060 <i_1969>:
    80002060:	ff415c03          	lhu	s8,-12(sp)

0000000080002064 <i_1970>:
    80002064:	00000013          	nop

0000000080002068 <i_1971>:
    80002068:	0a011983          	lh	s3,160(sp)

000000008000206c <i_1972>:
    8000206c:	77d00f13          	li	t5,1917

0000000080002070 <i_1973>:
    80002070:	78000793          	li	a5,1920

0000000080002074 <i_1974>:
    80002074:	00335c1b          	srliw	s8,t1,0x3

0000000080002078 <i_1975>:
    80002078:	08012a83          	lw	s5,128(sp)

000000008000207c <i_1976>:
    8000207c:	021efdbb          	remuw	s11,t4,ra

0000000080002080 <i_1977>:
    80002080:	16f12c23          	sw	a5,376(sp)

0000000080002084 <i_1978>:
    80002084:	ef510ea3          	sb	s5,-259(sp)

0000000080002088 <i_1979>:
    80002088:	1dc10523          	sb	t3,458(sp)

000000008000208c <i_1980>:
    8000208c:	001f0f13          	addi	t5,t5,1
    80002090:	ffe7f2e3          	bleu	t5,a5,80002074 <i_1974>

0000000080002094 <i_1981>:
    80002094:	401d883b          	subw	a6,s11,ra

0000000080002098 <i_1982>:
    80002098:	004ea3b3          	slt	t2,t4,tp

000000008000209c <i_1983>:
    8000209c:	ec013083          	ld	ra,-320(sp)

00000000800020a0 <i_1984>:
    800020a0:	00256263          	bltu	a0,sp,800020a4 <i_1985>

00000000800020a4 <i_1985>:
    800020a4:	09f4cbb7          	lui	s7,0x9f4c

00000000800020a8 <i_1986>:
    800020a8:	0d012b83          	lw	s7,208(sp)

00000000800020ac <i_1987>:
    800020ac:	0170e663          	bltu	ra,s7,800020b8 <i_1990>

00000000800020b0 <i_1988>:
    800020b0:	037bf063          	bleu	s7,s7,800020d0 <i_1996>

00000000800020b4 <i_1989>:
    800020b4:	ea112023          	sw	ra,-352(sp)

00000000800020b8 <i_1990>:
    800020b8:	037d4263          	blt	s10,s7,800020dc <i_1999>

00000000800020bc <i_1991>:
    800020bc:	e6e10e03          	lb	t3,-402(sp)

00000000800020c0 <i_1992>:
    800020c0:	00684e63          	blt	a6,t1,800020dc <i_1999>

00000000800020c4 <i_1993>:
    800020c4:	017e5463          	ble	s7,t3,800020cc <i_1995>

00000000800020c8 <i_1994>:
    800020c8:	e9410e03          	lb	t3,-364(sp)

00000000800020cc <i_1995>:
    800020cc:	03ce443b          	divw	s0,t3,t3

00000000800020d0 <i_1996>:
    800020d0:	03cbde3b          	divuw	t3,s7,t3

00000000800020d4 <i_1997>:
    800020d4:	01ccd463          	ble	t3,s9,800020dc <i_1999>

00000000800020d8 <i_1998>:
    800020d8:	401e519b          	sraiw	gp,t3,0x1

00000000800020dc <i_1999>:
    800020dc:	41318cbb          	subw	s9,gp,s3

00000000800020e0 <i_2000>:
    800020e0:	41ca0533          	sub	a0,s4,t3

00000000800020e4 <i_2001>:
    800020e4:	7cf00e93          	li	t4,1999

00000000800020e8 <i_2002>:
    800020e8:	7d700993          	li	s3,2007

00000000800020ec <i_2003>:
    800020ec:	09c12e03          	lw	t3,156(sp)

00000000800020f0 <i_2004>:
    800020f0:	02dce53b          	remw	a0,s9,a3

00000000800020f4 <i_2005>:
    800020f4:	04614203          	lbu	tp,70(sp)

00000000800020f8 <i_2006>:
    800020f8:	f5013c83          	ld	s9,-176(sp)

00000000800020fc <i_2007>:
    800020fc:	ac623313          	sltiu	t1,tp,-1338

0000000080002100 <i_2008>:
    80002100:	285cb693          	sltiu	a3,s9,645

0000000080002104 <i_2009>:
    80002104:	16010203          	lb	tp,352(sp)

0000000080002108 <i_2010>:
    80002108:	06612c23          	sw	t1,120(sp)

000000008000210c <i_2011>:
    8000210c:	001e8e93          	addi	t4,t4,1
    80002110:	fd3e9ee3          	bne	t4,s3,800020ec <i_2003>

0000000080002114 <i_2012>:
    80002114:	13c15183          	lhu	gp,316(sp)

0000000080002118 <i_2013>:
    80002118:	0037a7b3          	slt	a5,a5,gp

000000008000211c <i_2014>:
    8000211c:	04e12c23          	sw	a4,88(sp)

0000000080002120 <i_2015>:
    80002120:	00179313          	slli	t1,a5,0x1

0000000080002124 <i_2016>:
    80002124:	e4813983          	ld	s3,-440(sp)

0000000080002128 <i_2017>:
    80002128:	49736313          	ori	t1,t1,1175

000000008000212c <i_2018>:
    8000212c:	08c15783          	lhu	a5,140(sp)

0000000080002130 <i_2019>:
    80002130:	e8110803          	lb	a6,-383(sp)

0000000080002134 <i_2020>:
    80002134:	e5013403          	ld	s0,-432(sp)

0000000080002138 <i_2021>:
    80002138:	fb016a03          	lwu	s4,-80(sp)

000000008000213c <i_2022>:
    8000213c:	04910783          	lb	a5,73(sp)

0000000080002140 <i_2023>:
    80002140:	1b814403          	lbu	s0,440(sp)

0000000080002144 <i_2024>:
    80002144:	fac12403          	lw	s0,-84(sp)

0000000080002148 <i_2025>:
    80002148:	0307c2b3          	div	t0,a5,a6

000000008000214c <i_2026>:
    8000214c:	f1b13023          	sd	s11,-256(sp)

0000000080002150 <i_2027>:
    80002150:	f9b105a3          	sb	s11,-117(sp)

0000000080002154 <i_2028>:
    80002154:	78400493          	li	s1,1924

0000000080002158 <i_2029>:
    80002158:	78600e93          	li	t4,1926

000000008000215c <i_2030>:
    8000215c:	026a1d33          	mulh	s10,s4,t1

0000000080002160 <i_2031>:
    80002160:	1c512e23          	sw	t0,476(sp)

0000000080002164 <i_2032>:
    80002164:	0335553b          	divuw	a0,a0,s3

0000000080002168 <i_2033>:
    80002168:	0c813023          	sd	s0,192(sp)

000000008000216c <i_2034>:
    8000216c:	e7a11503          	lh	a0,-390(sp)

0000000080002170 <i_2035>:
    80002170:	03d1d463          	ble	t4,gp,80002198 <i_2044>

0000000080002174 <i_2036>:
    80002174:	00148493          	addi	s1,s1,1
    80002178:	fe9ed2e3          	ble	s1,t4,8000215c <i_2030>

000000008000217c <i_2037>:
    8000217c:	00f82eb3          	slt	t4,a6,a5

0000000080002180 <i_2038>:
    80002180:	0014d413          	srli	s0,s1,0x1

0000000080002184 <i_2039>:
    80002184:	40245313          	srai	t1,s0,0x2

0000000080002188 <i_2040>:
    80002188:	03b00493          	li	s1,59

000000008000218c <i_2041>:
    8000218c:	0097d7b3          	srl	a5,a5,s1

0000000080002190 <i_2042>:
    80002190:	03df9463          	bne	t6,t4,800021b8 <i_2052>

0000000080002194 <i_2043>:
    80002194:	00fe8663          	beq	t4,a5,800021a0 <i_2046>

0000000080002198 <i_2044>:
    80002198:	fe811b03          	lh	s6,-24(sp)

000000008000219c <i_2045>:
    8000219c:	f5411503          	lh	a0,-172(sp)

00000000800021a0 <i_2046>:
    800021a0:	01db6cb3          	or	s9,s6,t4

00000000800021a4 <i_2047>:
    800021a4:	00000013          	nop

00000000800021a8 <i_2048>:
    800021a8:	e7611d23          	sh	s6,-390(sp)

00000000800021ac <i_2049>:
    800021ac:	00000013          	nop

00000000800021b0 <i_2050>:
    800021b0:	fec12c83          	lw	s9,-20(sp)

00000000800021b4 <i_2051>:
    800021b4:	0f912023          	sw	s9,224(sp)

00000000800021b8 <i_2052>:
    800021b8:	001e9513          	slli	a0,t4,0x1

00000000800021bc <i_2053>:
    800021bc:	025c84bb          	mulw	s1,s9,t0

00000000800021c0 <i_2054>:
    800021c0:	76700e93          	li	t4,1895

00000000800021c4 <i_2055>:
    800021c4:	77500793          	li	a5,1909

00000000800021c8 <i_2056>:
    800021c8:	00000013          	nop

00000000800021cc <i_2057>:
    800021cc:	00151c9b          	slliw	s9,a0,0x1

00000000800021d0 <i_2058>:
    800021d0:	001e8e93          	addi	t4,t4,1
    800021d4:	ffd7dae3          	ble	t4,a5,800021c8 <i_2056>

00000000800021d8 <i_2059>:
    800021d8:	ff210783          	lb	a5,-14(sp)

00000000800021dc <i_2060>:
    800021dc:	18416983          	lwu	s3,388(sp)

00000000800021e0 <i_2061>:
    800021e0:	1cb14c83          	lbu	s9,459(sp)

00000000800021e4 <i_2062>:
    800021e4:	006c8663          	beq	s9,t1,800021f0 <i_2065>

00000000800021e8 <i_2063>:
    800021e8:	16c16c83          	lwu	s9,364(sp)

00000000800021ec <i_2064>:
    800021ec:	01f37a63          	bleu	t6,t1,80002200 <i_2069>

00000000800021f0 <i_2065>:
    800021f0:	80b54997          	auipc	s3,0x80b54

00000000800021f4 <i_2066>:
    800021f4:	06a15b83          	lhu	s7,106(sp)

00000000800021f8 <i_2067>:
    800021f8:	e7913823          	sd	s9,-400(sp)

00000000800021fc <i_2068>:
    800021fc:	01e00f13          	li	t5,30

0000000080002200 <i_2069>:
    80002200:	01e51bbb          	sllw	s7,a0,t5

0000000080002204 <i_2070>:
    80002204:	0c013683          	ld	a3,192(sp)

0000000080002208 <i_2071>:
    80002208:	74cf7b93          	andi	s7,t5,1868

000000008000220c <i_2072>:
    8000220c:	ec815b83          	lhu	s7,-312(sp)

0000000080002210 <i_2073>:
    80002210:	07010b83          	lb	s7,112(sp)

0000000080002214 <i_2074>:
    80002214:	e9414c83          	lbu	s9,-364(sp)

0000000080002218 <i_2075>:
    80002218:	0f912a23          	sw	s9,244(sp)

000000008000221c <i_2076>:
    8000221c:	01200513          	li	a0,18

0000000080002220 <i_2077>:
    80002220:	00abddbb          	srlw	s11,s7,a0

0000000080002224 <i_2078>:
    80002224:	00109093          	slli	ra,ra,0x1

0000000080002228 <i_2079>:
    80002228:	006bec63          	bltu	s7,t1,80002240 <i_2085>

000000008000222c <i_2080>:
    8000222c:	0010fa63          	bleu	ra,ra,80002240 <i_2085>

0000000080002230 <i_2081>:
    80002230:	008babb3          	slt	s7,s7,s0

0000000080002234 <i_2082>:
    80002234:	03979533          	mulh	a0,a5,s9

0000000080002238 <i_2083>:
    80002238:	04f12023          	sw	a5,64(sp)

000000008000223c <i_2084>:
    8000223c:	e4212e23          	sw	sp,-420(sp)

0000000080002240 <i_2085>:
    80002240:	00abb6b3          	sltu	a3,s7,a0

0000000080002244 <i_2086>:
    80002244:	1e013503          	ld	a0,480(sp)

0000000080002248 <i_2087>:
    80002248:	7ac00793          	li	a5,1964

000000008000224c <i_2088>:
    8000224c:	7b300413          	li	s0,1971

0000000080002250 <i_2089>:
    80002250:	eb711623          	sh	s7,-340(sp)

0000000080002254 <i_2090>:
    80002254:	00178793          	addi	a5,a5,1
    80002258:	fe879ce3          	bne	a5,s0,80002250 <i_2089>

000000008000225c <i_2091>:
    8000225c:	00000013          	nop

0000000080002260 <i_2092>:
    80002260:	1b711823          	sh	s7,432(sp)

0000000080002264 <i_2093>:
    80002264:	73700413          	li	s0,1847

0000000080002268 <i_2094>:
    80002268:	74300293          	li	t0,1859

000000008000226c <i_2095>:
    8000226c:	00000013          	nop

0000000080002270 <i_2096>:
    80002270:	03200613          	li	a2,50

0000000080002274 <i_2097>:
    80002274:	00c7db33          	srl	s6,a5,a2

0000000080002278 <i_2098>:
    80002278:	7ba00693          	li	a3,1978

000000008000227c <i_2099>:
    8000227c:	7c600b93          	li	s7,1990

0000000080002280 <i_2100>:
    80002280:	00000013          	nop

0000000080002284 <i_2101>:
    80002284:	fa011603          	lh	a2,-96(sp)

0000000080002288 <i_2102>:
    80002288:	00168693          	addi	a3,a3,1
    8000228c:	fedbd8e3          	ble	a3,s7,8000227c <i_2099>

0000000080002290 <i_2103>:
    80002290:	fcf13c23          	sd	a5,-40(sp)

0000000080002294 <i_2104>:
    80002294:	e5015b03          	lhu	s6,-432(sp)

0000000080002298 <i_2105>:
    80002298:	00000013          	nop

000000008000229c <i_2106>:
    8000229c:	00fb6c63          	bltu	s6,a5,800022b4 <i_2111>

00000000800022a0 <i_2107>:
    800022a0:	00140413          	addi	s0,s0,1
    800022a4:	fc5444e3          	blt	s0,t0,8000226c <i_2095>

00000000800022a8 <i_2108>:
    800022a8:	01633b33          	sltu	s6,t1,s6

00000000800022ac <i_2109>:
    800022ac:	f6c15a83          	lhu	s5,-148(sp)

00000000800022b0 <i_2110>:
    800022b0:	10c11b23          	sh	a2,278(sp)

00000000800022b4 <i_2111>:
    800022b4:	036babb3          	mulhsu	s7,s7,s6

00000000800022b8 <i_2112>:
    800022b8:	ef816603          	lwu	a2,-264(sp)

00000000800022bc <i_2113>:
    800022bc:	e3e10403          	lb	s0,-450(sp)

00000000800022c0 <i_2114>:
    800022c0:	e4411d03          	lh	s10,-444(sp)

00000000800022c4 <i_2115>:
    800022c4:	015b0863          	beq	s6,s5,800022d4 <i_2119>

00000000800022c8 <i_2116>:
    800022c8:	0d215e03          	lhu	t3,210(sp)

00000000800022cc <i_2117>:
    800022cc:	13414b83          	lbu	s7,308(sp)

00000000800022d0 <i_2118>:
    800022d0:	07c11323          	sh	t3,102(sp)

00000000800022d4 <i_2119>:
    800022d4:	07a13023          	sd	s10,96(sp)

00000000800022d8 <i_2120>:
    800022d8:	ed013203          	ld	tp,-304(sp)

00000000800022dc <i_2121>:
    800022dc:	00200b13          	li	s6,2

00000000800022e0 <i_2122>:
    800022e0:	016250bb          	srlw	ra,tp,s6

00000000800022e4 <i_2123>:
    800022e4:	01e00f13          	li	t5,30

00000000800022e8 <i_2124>:
    800022e8:	41ebdf3b          	sraw	t5,s7,t5

00000000800022ec <i_2125>:
    800022ec:	00264a63          	blt	a2,sp,80002300 <i_2130>

00000000800022f0 <i_2126>:
    800022f0:	00000013          	nop

00000000800022f4 <i_2127>:
    800022f4:	0220d2bb          	divuw	t0,ra,sp

00000000800022f8 <i_2128>:
    800022f8:	004b5a9b          	srliw	s5,s6,0x4

00000000800022fc <i_2129>:
    800022fc:	19412483          	lw	s1,404(sp)

0000000080002300 <i_2130>:
    80002300:	00000013          	nop

0000000080002304 <i_2131>:
    80002304:	1a012e83          	lw	t4,416(sp)

0000000080002308 <i_2132>:
    80002308:	74300593          	li	a1,1859

000000008000230c <i_2133>:
    8000230c:	75100b13          	li	s6,1873

0000000080002310 <i_2134>:
    80002310:	f3813683          	ld	a3,-200(sp)

0000000080002314 <i_2135>:
    80002314:	00000013          	nop

0000000080002318 <i_2136>:
    80002318:	18813823          	sd	s0,400(sp)

000000008000231c <i_2137>:
    8000231c:	00158593          	addi	a1,a1,1 # 1980a001 <main-0x667f5fff>
    80002320:	febb58e3          	ble	a1,s6,80002310 <i_2134>

0000000080002324 <i_2138>:
    80002324:	024b8eb3          	mul	t4,s7,tp

0000000080002328 <i_2139>:
    80002328:	36df6b93          	ori	s7,t5,877

000000008000232c <i_2140>:
    8000232c:	19013c03          	ld	s8,400(sp)

0000000080002330 <i_2141>:
    80002330:	ee310923          	sb	gp,-270(sp)

0000000080002334 <i_2142>:
    80002334:	f3013d83          	ld	s11,-208(sp)

0000000080002338 <i_2143>:
    80002338:	00271c1b          	slliw	s8,a4,0x2

000000008000233c <i_2144>:
    8000233c:	008c2db3          	slt	s11,s8,s0

0000000080002340 <i_2145>:
    80002340:	026e8333          	mul	t1,t4,t1

0000000080002344 <i_2146>:
    80002344:	02cdc33b          	divw	t1,s11,a2

0000000080002348 <i_2147>:
    80002348:	14a12423          	sw	a0,328(sp)

000000008000234c <i_2148>:
    8000234c:	1e114603          	lbu	a2,481(sp)

0000000080002350 <i_2149>:
    80002350:	00c66263          	bltu	a2,a2,80002354 <i_2150>

0000000080002354 <i_2150>:
    80002354:	f5013d03          	ld	s10,-176(sp)

0000000080002358 <i_2151>:
    80002358:	ee816603          	lwu	a2,-280(sp)

000000008000235c <i_2152>:
    8000235c:	01ac8633          	add	a2,s9,s10

0000000080002360 <i_2153>:
    80002360:	8b100d13          	li	s10,-1871

0000000080002364 <i_2154>:
    80002364:	8b700c93          	li	s9,-1865

0000000080002368 <i_2155>:
    80002368:	ebe15303          	lhu	t1,-322(sp)

000000008000236c <i_2156>:
    8000236c:	001d0d13          	addi	s10,s10,1
    80002370:	ffacdce3          	ble	s10,s9,80002368 <i_2155>

0000000080002374 <i_2157>:
    80002374:	f8010483          	lb	s1,-128(sp)

0000000080002378 <i_2158>:
    80002378:	00300593          	li	a1,3

000000008000237c <i_2159>:
    8000237c:	00bc91bb          	sllw	gp,s9,a1

0000000080002380 <i_2160>:
    80002380:	eb211283          	lh	t0,-334(sp)

0000000080002384 <i_2161>:
    80002384:	03ad3c33          	mulhu	s8,s10,s10

0000000080002388 <i_2162>:
    80002388:	ee210b83          	lb	s7,-286(sp)

000000008000238c <i_2163>:
    8000238c:	e3811923          	sh	s8,-462(sp)

0000000080002390 <i_2164>:
    80002390:	038d7463          	bleu	s8,s10,800023b8 <i_2174>

0000000080002394 <i_2165>:
    80002394:	f54f2c37          	lui	s8,0xf54f2

0000000080002398 <i_2166>:
    80002398:	0ec11f03          	lh	t5,236(sp)

000000008000239c <i_2167>:
    8000239c:	fba15f03          	lhu	t5,-70(sp)

00000000800023a0 <i_2168>:
    800023a0:	018bca63          	blt	s7,s8,800023b4 <i_2173>

00000000800023a4 <i_2169>:
    800023a4:	feb12223          	sw	a1,-28(sp)

00000000800023a8 <i_2170>:
    800023a8:	01700393          	li	t2,23

00000000800023ac <i_2171>:
    800023ac:	00739c3b          	sllw	s8,t2,t2

00000000800023b0 <i_2172>:
    800023b0:	03821063          	bne	tp,s8,800023d0 <i_2180>

00000000800023b4 <i_2173>:
    800023b4:	038c5c33          	divu	s8,s8,s8

00000000800023b8 <i_2174>:
    800023b8:	10011283          	lh	t0,256(sp)

00000000800023bc <i_2175>:
    800023bc:	1b7102a3          	sb	s7,421(sp)

00000000800023c0 <i_2176>:
    800023c0:	1d811403          	lh	s0,472(sp)

00000000800023c4 <i_2177>:
    800023c4:	5fcc0a93          	addi	s5,s8,1532 # fffffffff54f25fc <_end+0xffffffff754e21e8>

00000000800023c8 <i_2178>:
    800023c8:	f3215683          	lhu	a3,-206(sp)

00000000800023cc <i_2179>:
    800023cc:	14713023          	sd	t2,320(sp)

00000000800023d0 <i_2180>:
    800023d0:	ea511f23          	sh	t0,-322(sp)

00000000800023d4 <i_2181>:
    800023d4:	1d013b03          	ld	s6,464(sp)

00000000800023d8 <i_2182>:
    800023d8:	05012183          	lw	gp,80(sp)

00000000800023dc <i_2183>:
    800023dc:	03d00f13          	li	t5,61

00000000800023e0 <i_2184>:
    800023e0:	01e1d2b3          	srl	t0,gp,t5

00000000800023e4 <i_2185>:
    800023e4:	08910683          	lb	a3,137(sp)

00000000800023e8 <i_2186>:
    800023e8:	e9e108a3          	sb	t5,-367(sp)

00000000800023ec <i_2187>:
    800023ec:	018f4a63          	blt	t5,s8,80002400 <i_2192>

00000000800023f0 <i_2188>:
    800023f0:	03ef6f3b          	remw	t5,t5,t5

00000000800023f4 <i_2189>:
    800023f4:	fe311623          	sh	gp,-20(sp)

00000000800023f8 <i_2190>:
    800023f8:	001f1263          	bne	t5,ra,800023fc <i_2191>

00000000800023fc <i_2191>:
    800023fc:	18010283          	lb	t0,384(sp)

0000000080002400 <i_2192>:
    80002400:	12412283          	lw	t0,292(sp)

0000000080002404 <i_2193>:
    80002404:	6a8bfb93          	andi	s7,s7,1704

0000000080002408 <i_2194>:
    80002408:	f2e10183          	lb	gp,-210(sp)

000000008000240c <i_2195>:
    8000240c:	025762bb          	remw	t0,a4,t0

0000000080002410 <i_2196>:
    80002410:	f7713423          	sd	s7,-152(sp)

0000000080002414 <i_2197>:
    80002414:	03d00a13          	li	s4,61

0000000080002418 <i_2198>:
    80002418:	01469eb3          	sll	t4,a3,s4

000000008000241c <i_2199>:
    8000241c:	1e013d83          	ld	s11,480(sp)

0000000080002420 <i_2200>:
    80002420:	00000013          	nop

0000000080002424 <i_2201>:
    80002424:	86300393          	li	t2,-1949

0000000080002428 <i_2202>:
    80002428:	87400193          	li	gp,-1932

000000008000242c <i_2203>:
    8000242c:	03468a33          	mul	s4,a3,s4

0000000080002430 <i_2204>:
    80002430:	e6414583          	lbu	a1,-412(sp)

0000000080002434 <i_2205>:
    80002434:	00138393          	addi	t2,t2,1
    80002438:	fe33eae3          	bltu	t2,gp,8000242c <i_2203>

000000008000243c <i_2206>:
    8000243c:	05910a03          	lb	s4,89(sp)

0000000080002440 <i_2207>:
    80002440:	11e14503          	lbu	a0,286(sp)

0000000080002444 <i_2208>:
    80002444:	04a11f23          	sh	a0,94(sp)

0000000080002448 <i_2209>:
    80002448:	0d816a03          	lwu	s4,216(sp)

000000008000244c <i_2210>:
    8000244c:	1b416583          	lwu	a1,436(sp)

0000000080002450 <i_2211>:
    80002450:	00b56a63          	bltu	a0,a1,80002464 <i_2216>

0000000080002454 <i_2212>:
    80002454:	034644b3          	div	s1,a2,s4

0000000080002458 <i_2213>:
    80002458:	02aa6a3b          	remw	s4,s4,a0

000000008000245c <i_2214>:
    8000245c:	03bfc463          	blt	t6,s11,80002484 <i_2224>

0000000080002460 <i_2215>:
    80002460:	02ca6063          	bltu	s4,a2,80002480 <i_2223>

0000000080002464 <i_2216>:
    80002464:	0d413023          	sd	s4,192(sp)

0000000080002468 <i_2217>:
    80002468:	ff811483          	lh	s1,-8(sp)

000000008000246c <i_2218>:
    8000246c:	00c61a63          	bne	a2,a2,80002480 <i_2223>

0000000080002470 <i_2219>:
    80002470:	00c49463          	bne	s1,a2,80002478 <i_2221>

0000000080002474 <i_2220>:
    80002474:	04c11723          	sh	a2,78(sp)

0000000080002478 <i_2221>:
    80002478:	d24f4193          	xori	gp,t5,-732

000000008000247c <i_2222>:
    8000247c:	ea215483          	lhu	s1,-350(sp)

0000000080002480 <i_2223>:
    80002480:	0094f863          	bleu	s1,s1,80002490 <i_2227>

0000000080002484 <i_2224>:
    80002484:	00919863          	bne	gp,s1,80002494 <i_2228>

0000000080002488 <i_2225>:
    80002488:	0e913823          	sd	s1,240(sp)

000000008000248c <i_2226>:
    8000248c:	00910823          	sb	s1,16(sp)

0000000080002490 <i_2227>:
    80002490:	ec810483          	lb	s1,-312(sp)

0000000080002494 <i_2228>:
    80002494:	20d4c513          	xori	a0,s1,525

0000000080002498 <i_2229>:
    80002498:	08011d03          	lh	s10,128(sp)

000000008000249c <i_2230>:
    8000249c:	ff04851b          	addiw	a0,s1,-16

00000000800024a0 <i_2231>:
    800024a0:	b7a1b093          	sltiu	ra,gp,-1158

00000000800024a4 <i_2232>:
    800024a4:	e8411a23          	sh	tp,-364(sp)

00000000800024a8 <i_2233>:
    800024a8:	0ac16d03          	lwu	s10,172(sp)

00000000800024ac <i_2234>:
    800024ac:	fc913423          	sd	s1,-56(sp)

00000000800024b0 <i_2235>:
    800024b0:	01a10983          	lb	s3,26(sp)

00000000800024b4 <i_2236>:
    800024b4:	02954063          	blt	a0,s1,800024d4 <i_2244>

00000000800024b8 <i_2237>:
    800024b8:	ec412283          	lw	t0,-316(sp)

00000000800024bc <i_2238>:
    800024bc:	0d814503          	lbu	a0,216(sp)

00000000800024c0 <i_2239>:
    800024c0:	e7812283          	lw	t0,-392(sp)

00000000800024c4 <i_2240>:
    800024c4:	00354863          	blt	a0,gp,800024d4 <i_2244>

00000000800024c8 <i_2241>:
    800024c8:	0359cabb          	divw	s5,s3,s5

00000000800024cc <i_2242>:
    800024cc:	07311423          	sh	s3,104(sp)

00000000800024d0 <i_2243>:
    800024d0:	00940263          	beq	s0,s1,800024d4 <i_2244>

00000000800024d4 <i_2244>:
    800024d4:	0b816403          	lwu	s0,184(sp)

00000000800024d8 <i_2245>:
    800024d8:	01011823          	sh	a6,16(sp)

00000000800024dc <i_2246>:
    800024dc:	0d013603          	ld	a2,208(sp)

00000000800024e0 <i_2247>:
    800024e0:	e3714603          	lbu	a2,-457(sp)

00000000800024e4 <i_2248>:
    800024e4:	02cd4a3b          	divw	s4,s10,a2

00000000800024e8 <i_2249>:
    800024e8:	ea510723          	sb	t0,-338(sp)

00000000800024ec <i_2250>:
    800024ec:	03aac463          	blt	s5,s10,80002514 <i_2260>

00000000800024f0 <i_2251>:
    800024f0:	f1013023          	sd	a6,-256(sp)

00000000800024f4 <i_2252>:
    800024f4:	00863633          	sltu	a2,a2,s0

00000000800024f8 <i_2253>:
    800024f8:	f4415a83          	lhu	s5,-188(sp)

00000000800024fc <i_2254>:
    800024fc:	02c84833          	div	a6,a6,a2

0000000080002500 <i_2255>:
    80002500:	028a9463          	bne	s5,s0,80002528 <i_2265>

0000000080002504 <i_2256>:
    80002504:	01066663          	bltu	a2,a6,80002510 <i_2259>

0000000080002508 <i_2257>:
    80002508:	fc813803          	ld	a6,-56(sp)

000000008000250c <i_2258>:
    8000250c:	f0416603          	lwu	a2,-252(sp)

0000000080002510 <i_2259>:
    80002510:	10b10603          	lb	a2,267(sp)

0000000080002514 <i_2260>:
    80002514:	405c87b3          	sub	a5,s9,t0

0000000080002518 <i_2261>:
    80002518:	00461c1b          	slliw	s8,a2,0x4

000000008000251c <i_2262>:
    8000251c:	035c55bb          	divuw	a1,s8,s5

0000000080002520 <i_2263>:
    80002520:	e6813a83          	ld	s5,-408(sp)

0000000080002524 <i_2264>:
    80002524:	402adc1b          	sraiw	s8,s5,0x2

0000000080002528 <i_2265>:
    80002528:	0d811623          	sh	s8,204(sp)

000000008000252c <i_2266>:
    8000252c:	ed811523          	sh	s8,-310(sp)

0000000080002530 <i_2267>:
    80002530:	40b585bb          	subw	a1,a1,a1

0000000080002534 <i_2268>:
    80002534:	0c013c03          	ld	s8,192(sp)

0000000080002538 <i_2269>:
    80002538:	a3a18a97          	auipc	s5,0xa3a18

000000008000253c <i_2270>:
    8000253c:	fd211b03          	lh	s6,-46(sp)

0000000080002540 <i_2271>:
    80002540:	00000013          	nop

0000000080002544 <i_2272>:
    80002544:	fae10603          	lb	a2,-82(sp)

0000000080002548 <i_2273>:
    80002548:	76b00393          	li	t2,1899

000000008000254c <i_2274>:
    8000254c:	76d00993          	li	s3,1901

0000000080002550 <i_2275>:
    80002550:	f5411d03          	lh	s10,-172(sp)

0000000080002554 <i_2276>:
    80002554:	00000013          	nop

0000000080002558 <i_2277>:
    80002558:	80600c13          	li	s8,-2042

000000008000255c <i_2278>:
    8000255c:	81000193          	li	gp,-2032

0000000080002560 <i_2279>:
    80002560:	fda13823          	sd	s10,-48(sp)

0000000080002564 <i_2280>:
    80002564:	fb712823          	sw	s7,-80(sp)

0000000080002568 <i_2281>:
    80002568:	0d813423          	sd	s8,200(sp)

000000008000256c <i_2282>:
    8000256c:	fc015483          	lhu	s1,-64(sp)

0000000080002570 <i_2283>:
    80002570:	037a8bbb          	mulw	s7,s5,s7

0000000080002574 <i_2284>:
    80002574:	001c0c13          	addi	s8,s8,1
    80002578:	fe3c64e3          	bltu	s8,gp,80002560 <i_2279>

000000008000257c <i_2285>:
    8000257c:	fba10823          	sb	s10,-80(sp)

0000000080002580 <i_2286>:
    80002580:	03ad1263          	bne	s10,s10,800025a4 <i_2294>

0000000080002584 <i_2287>:
    80002584:	00138393          	addi	t2,t2,1
    80002588:	fc79f4e3          	bleu	t2,s3,80002550 <i_2275>

000000008000258c <i_2288>:
    8000258c:	f7a12023          	sw	s10,-160(sp)

0000000080002590 <i_2289>:
    80002590:	09a13823          	sd	s10,144(sp)

0000000080002594 <i_2290>:
    80002594:	a044829b          	addiw	t0,s1,-1532

0000000080002598 <i_2291>:
    80002598:	00b14803          	lbu	a6,11(sp)

000000008000259c <i_2292>:
    8000259c:	1a012083          	lw	ra,416(sp)

00000000800025a0 <i_2293>:
    800025a0:	06111723          	sh	ra,110(sp)

00000000800025a4 <i_2294>:
    800025a4:	00500d93          	li	s11,5

00000000800025a8 <i_2295>:
    800025a8:	41bbdbb3          	sra	s7,s7,s11

00000000800025ac <i_2296>:
    800025ac:	1db12a23          	sw	s11,468(sp)

00000000800025b0 <i_2297>:
    800025b0:	017bbbb3          	sltu	s7,s7,s7

00000000800025b4 <i_2298>:
    800025b4:	ef815503          	lhu	a0,-264(sp)

00000000800025b8 <i_2299>:
    800025b8:	f6015403          	lhu	s0,-160(sp)

00000000800025bc <i_2300>:
    800025bc:	01a00513          	li	a0,26

00000000800025c0 <i_2301>:
    800025c0:	00a55bbb          	srlw	s7,a0,a0

00000000800025c4 <i_2302>:
    800025c4:	11e15403          	lhu	s0,286(sp)

00000000800025c8 <i_2303>:
    800025c8:	ee811f23          	sh	s0,-258(sp)

00000000800025cc <i_2304>:
    800025cc:	00344663          	blt	s0,gp,800025d8 <i_2307>

00000000800025d0 <i_2305>:
    800025d0:	fa813023          	sd	s0,-96(sp)

00000000800025d4 <i_2306>:
    800025d4:	02872533          	mulhsu	a0,a4,s0

00000000800025d8 <i_2307>:
    800025d8:	07813403          	ld	s0,120(sp)

00000000800025dc <i_2308>:
    800025dc:	02855463          	ble	s0,a0,80002604 <i_2318>

00000000800025e0 <i_2309>:
    800025e0:	00a11423          	sh	a0,8(sp)

00000000800025e4 <i_2310>:
    800025e4:	40a082bb          	subw	t0,ra,a0

00000000800025e8 <i_2311>:
    800025e8:	fd813f03          	ld	t5,-40(sp)

00000000800025ec <i_2312>:
    800025ec:	0282d463          	ble	s0,t0,80002614 <i_2322>

00000000800025f0 <i_2313>:
    800025f0:	003f4863          	blt	t5,gp,80002600 <i_2317>

00000000800025f4 <i_2314>:
    800025f4:	f2013503          	ld	a0,-224(sp)

00000000800025f8 <i_2315>:
    800025f8:	41e50e33          	sub	t3,a0,t5

00000000800025fc <i_2316>:
    800025fc:	f0a13c23          	sd	a0,-232(sp)

0000000080002600 <i_2317>:
    80002600:	fc357513          	andi	a0,a0,-61

0000000080002604 <i_2318>:
    80002604:	f0615603          	lhu	a2,-250(sp)

0000000080002608 <i_2319>:
    80002608:	ebc11523          	sh	t3,-342(sp)

000000008000260c <i_2320>:
    8000260c:	0365043b          	mulw	s0,a0,s6

0000000080002610 <i_2321>:
    80002610:	01d41a63          	bne	s0,t4,80002624 <i_2326>

0000000080002614 <i_2322>:
    80002614:	04813683          	ld	a3,72(sp)

0000000080002618 <i_2323>:
    80002618:	00000013          	nop

000000008000261c <i_2324>:
    8000261c:	1e015b83          	lhu	s7,480(sp)

0000000080002620 <i_2325>:
    80002620:	f6812503          	lw	a0,-152(sp)

0000000080002624 <i_2326>:
    80002624:	00000013          	nop

0000000080002628 <i_2327>:
    80002628:	00000013          	nop

000000008000262c <i_2328>:
    8000262c:	8bf00a93          	li	s5,-1857

0000000080002630 <i_2329>:
    80002630:	8d300413          	li	s0,-1837

0000000080002634 <i_2330>:
    80002634:	f3710a23          	sb	s7,-204(sp)

0000000080002638 <i_2331>:
    80002638:	0216a0b3          	mulhsu	ra,a3,ra

000000008000263c <i_2332>:
    8000263c:	008d0e33          	add	t3,s10,s0

0000000080002640 <i_2333>:
    80002640:	001a8a93          	addi	s5,s5,1 # 23a1a539 <main-0x5c5e5ac7>
    80002644:	ff5478e3          	bleu	s5,s0,80002634 <i_2330>

0000000080002648 <i_2334>:
    80002648:	17310a83          	lb	s5,371(sp)

000000008000264c <i_2335>:
    8000264c:	00141b9b          	slliw	s7,s0,0x1

0000000080002650 <i_2336>:
    80002650:	02827063          	bleu	s0,tp,80002670 <i_2344>

0000000080002654 <i_2337>:
    80002654:	67f03eb7          	lui	t4,0x67f03

0000000080002658 <i_2338>:
    80002658:	dc26af13          	slti	t5,a3,-574

000000008000265c <i_2339>:
    8000265c:	ef816683          	lwu	a3,-264(sp)

0000000080002660 <i_2340>:
    80002660:	02499e33          	mulh	t3,s3,tp

0000000080002664 <i_2341>:
    80002664:	03eecdbb          	divw	s11,t4,t5

0000000080002668 <i_2342>:
    80002668:	00000013          	nop

000000008000266c <i_2343>:
    8000266c:	0bc12823          	sw	t3,176(sp)

0000000080002670 <i_2344>:
    80002670:	00000013          	nop

0000000080002674 <i_2345>:
    80002674:	00000013          	nop

0000000080002678 <i_2346>:
    80002678:	8c300e93          	li	t4,-1853

000000008000267c <i_2347>:
    8000267c:	8d700213          	li	tp,-1833

0000000080002680 <i_2348>:
    80002680:	fea15d83          	lhu	s11,-22(sp)

0000000080002684 <i_2349>:
    80002684:	021dfdbb          	remuw	s11,s11,ra

0000000080002688 <i_2350>:
    80002688:	82e00b13          	li	s6,-2002

000000008000268c <i_2351>:
    8000268c:	83600f13          	li	t5,-1994

0000000080002690 <i_2352>:
    80002690:	04a11083          	lh	ra,74(sp)

0000000080002694 <i_2353>:
    80002694:	021dd463          	ble	ra,s11,800026bc <i_2361>

0000000080002698 <i_2354>:
    80002698:	001b0b13          	addi	s6,s6,1
    8000269c:	ffeb4ae3          	blt	s6,t5,80002690 <i_2352>

00000000800026a0 <i_2355>:
    800026a0:	01bdcdb3          	xor	s11,s11,s11

00000000800026a4 <i_2356>:
    800026a4:	af28aa97          	auipc	s5,0xaf28a

00000000800026a8 <i_2357>:
    800026a8:	001e8e93          	addi	t4,t4,1 # 67f03001 <main-0x180fcfff>
    800026ac:	fdd21ae3          	bne	tp,t4,80002680 <i_2348>

00000000800026b0 <i_2358>:
    800026b0:	035dc463          	blt	s11,s5,800026d8 <i_2368>

00000000800026b4 <i_2359>:
    800026b4:	01baf3b3          	and	t2,s5,s11

00000000800026b8 <i_2360>:
    800026b8:	0010f263          	bleu	ra,ra,800026bc <i_2361>

00000000800026bc <i_2361>:
    800026bc:	03bafcb3          	remu	s9,s5,s11

00000000800026c0 <i_2362>:
    800026c0:	e4411a83          	lh	s5,-444(sp)

00000000800026c4 <i_2363>:
    800026c4:	03500d93          	li	s11,53

00000000800026c8 <i_2364>:
    800026c8:	41b5d1b3          	sra	gp,a1,s11

00000000800026cc <i_2365>:
    800026cc:	01200d93          	li	s11,18

00000000800026d0 <i_2366>:
    800026d0:	41bdddb3          	sra	s11,s11,s11

00000000800026d4 <i_2367>:
    800026d4:	03bdc4bb          	divw	s1,s11,s11

00000000800026d8 <i_2368>:
    800026d8:	01bddc63          	ble	s11,s11,800026f0 <i_2374>

00000000800026dc <i_2369>:
    800026dc:	11412783          	lw	a5,276(sp)

00000000800026e0 <i_2370>:
    800026e0:	e3211583          	lh	a1,-462(sp)

00000000800026e4 <i_2371>:
    800026e4:	0c211583          	lh	a1,194(sp)

00000000800026e8 <i_2372>:
    800026e8:	e7b11f23          	sh	s11,-386(sp)

00000000800026ec <i_2373>:
    800026ec:	e7e10b23          	sb	t5,-394(sp)

00000000800026f0 <i_2374>:
    800026f0:	0f015483          	lhu	s1,240(sp)

00000000800026f4 <i_2375>:
    800026f4:	0033531b          	srliw	t1,t1,0x3

00000000800026f8 <i_2376>:
    800026f8:	00f48663          	beq	s1,a5,80002704 <i_2379>

00000000800026fc <i_2377>:
    800026fc:	03b5b7b3          	mulhu	a5,a1,s11

0000000080002700 <i_2378>:
    80002700:	03a5a5b3          	mulhsu	a1,a1,s10

0000000080002704 <i_2379>:
    80002704:	00949c63          	bne	s1,s1,8000271c <i_2385>

0000000080002708 <i_2380>:
    80002708:	0265e33b          	remw	t1,a1,t1

000000008000270c <i_2381>:
    8000270c:	e5615383          	lhu	t2,-426(sp)

0000000080002710 <i_2382>:
    80002710:	02610d23          	sb	t1,58(sp)

0000000080002714 <i_2383>:
    80002714:	f9615303          	lhu	t1,-106(sp)

0000000080002718 <i_2384>:
    80002718:	fab12023          	sw	a1,-96(sp)

000000008000271c <i_2385>:
    8000271c:	03516593          	ori	a1,sp,53

0000000080002720 <i_2386>:
    80002720:	f7411583          	lh	a1,-140(sp)

0000000080002724 <i_2387>:
    80002724:	f0613c23          	sd	t1,-232(sp)

0000000080002728 <i_2388>:
    80002728:	41c300bb          	subw	ra,t1,t3

000000008000272c <i_2389>:
    8000272c:	f0b105a3          	sb	a1,-245(sp)

0000000080002730 <i_2390>:
    80002730:	f31108a3          	sb	a7,-207(sp)

0000000080002734 <i_2391>:
    80002734:	021b95b3          	mulh	a1,s7,ra

0000000080002738 <i_2392>:
    80002738:	11016b83          	lwu	s7,272(sp)

000000008000273c <i_2393>:
    8000273c:	f2812483          	lw	s1,-216(sp)

0000000080002740 <i_2394>:
    80002740:	17f12a23          	sw	t6,372(sp)

0000000080002744 <i_2395>:
    80002744:	039cdbbb          	divuw	s7,s9,s9

0000000080002748 <i_2396>:
    80002748:	017ce263          	bltu	s9,s7,8000274c <i_2397>

000000008000274c <i_2397>:
    8000274c:	e9811b83          	lh	s7,-360(sp)

0000000080002750 <i_2398>:
    80002750:	10214983          	lbu	s3,258(sp)

0000000080002754 <i_2399>:
    80002754:	f7815483          	lhu	s1,-136(sp)

0000000080002758 <i_2400>:
    80002758:	1a911423          	sh	s1,424(sp)

000000008000275c <i_2401>:
    8000275c:	029ebeb3          	mulhu	t4,t4,s1

0000000080002760 <i_2402>:
    80002760:	fb816b83          	lwu	s7,-72(sp)

0000000080002764 <i_2403>:
    80002764:	01748463          	beq	s1,s7,8000276c <i_2405>

0000000080002768 <i_2404>:
    80002768:	017fc263          	blt	t6,s7,8000276c <i_2405>

000000008000276c <i_2405>:
    8000276c:	ec812c83          	lw	s9,-312(sp)

0000000080002770 <i_2406>:
    80002770:	eb813603          	ld	a2,-328(sp)

0000000080002774 <i_2407>:
    80002774:	1d412483          	lw	s1,468(sp)

0000000080002778 <i_2408>:
    80002778:	7b800513          	li	a0,1976

000000008000277c <i_2409>:
    8000277c:	7c100b93          	li	s7,1985

0000000080002780 <i_2410>:
    80002780:	1e412603          	lw	a2,484(sp)

0000000080002784 <i_2411>:
    80002784:	f32ec497          	auipc	s1,0xf32ec

0000000080002788 <i_2412>:
    80002788:	00000013          	nop

000000008000278c <i_2413>:
    8000278c:	00949a63          	bne	s1,s1,800027a0 <i_2418>

0000000080002790 <i_2414>:
    80002790:	00000013          	nop

0000000080002794 <i_2415>:
    80002794:	5292b497          	auipc	s1,0x5292b

0000000080002798 <i_2416>:
    80002798:	00000013          	nop

000000008000279c <i_2417>:
    8000279c:	0292423b          	divw	tp,tp,s1

00000000800027a0 <i_2418>:
    800027a0:	10912423          	sw	s1,264(sp)

00000000800027a4 <i_2419>:
    800027a4:	18410d23          	sb	tp,410(sp)

00000000800027a8 <i_2420>:
    800027a8:	00000013          	nop

00000000800027ac <i_2421>:
    800027ac:	00150513          	addi	a0,a0,1
    800027b0:	fd7548e3          	blt	a0,s7,80002780 <i_2410>

00000000800027b4 <i_2422>:
    800027b4:	17816483          	lwu	s1,376(sp)

00000000800027b8 <i_2423>:
    800027b8:	09013a83          	ld	s5,144(sp)

00000000800027bc <i_2424>:
    800027bc:	f4215603          	lhu	a2,-190(sp)

00000000800027c0 <i_2425>:
    800027c0:	8af00493          	li	s1,-1873

00000000800027c4 <i_2426>:
    800027c4:	8b300e93          	li	t4,-1869

00000000800027c8 <i_2427>:
    800027c8:	fe413023          	sd	tp,-32(sp)

00000000800027cc <i_2428>:
    800027cc:	0e912223          	sw	s1,228(sp)

00000000800027d0 <i_2429>:
    800027d0:	0e911f23          	sh	s1,254(sp)

00000000800027d4 <i_2430>:
    800027d4:	14415f03          	lhu	t5,324(sp)

00000000800027d8 <i_2431>:
    800027d8:	18813203          	ld	tp,392(sp)

00000000800027dc <i_2432>:
    800027dc:	18a15a83          	lhu	s5,394(sp)

00000000800027e0 <i_2433>:
    800027e0:	eb813803          	ld	a6,-328(sp)

00000000800027e4 <i_2434>:
    800027e4:	1c413c23          	sd	tp,472(sp)

00000000800027e8 <i_2435>:
    800027e8:	00148493          	addi	s1,s1,1 # d292d795 <_end+0x5291d381>
    800027ec:	fc9efee3          	bleu	s1,t4,800027c8 <i_2427>

00000000800027f0 <i_2436>:
    800027f0:	01100493          	li	s1,17

00000000800027f4 <i_2437>:
    800027f4:	4091deb3          	sra	t4,gp,s1

00000000800027f8 <i_2438>:
    800027f8:	16611b03          	lh	s6,358(sp)

00000000800027fc <i_2439>:
    800027fc:	024ec63b          	divw	a2,t4,tp

0000000080002800 <i_2440>:
    80002800:	001a1a13          	slli	s4,s4,0x1

0000000080002804 <i_2441>:
    80002804:	f27b8eb7          	lui	t4,0xf27b8

0000000080002808 <i_2442>:
    80002808:	01f00313          	li	t1,31

000000008000280c <i_2443>:
    8000280c:	006a5e3b          	srlw	t3,s4,t1

0000000080002810 <i_2444>:
    80002810:	00012303          	lw	t1,0(sp)

0000000080002814 <i_2445>:
    80002814:	e5812d03          	lw	s10,-424(sp)

0000000080002818 <i_2446>:
    80002818:	1fa13023          	sd	s10,480(sp)

000000008000281c <i_2447>:
    8000281c:	ed812383          	lw	t2,-296(sp)

0000000080002820 <i_2448>:
    80002820:	e9412223          	sw	s4,-380(sp)

0000000080002824 <i_2449>:
    80002824:	03b00193          	li	gp,59

0000000080002828 <i_2450>:
    80002828:	003315b3          	sll	a1,t1,gp

000000008000282c <i_2451>:
    8000282c:	1ab13423          	sd	a1,424(sp)

0000000080002830 <i_2452>:
    80002830:	02c00513          	li	a0,44

0000000080002834 <i_2453>:
    80002834:	00ae53b3          	srl	t2,t3,a0

0000000080002838 <i_2454>:
    80002838:	0f410aa3          	sb	s4,245(sp)

000000008000283c <i_2455>:
    8000283c:	e4613c23          	sd	t1,-424(sp)

0000000080002840 <i_2456>:
    80002840:	01818e33          	add	t3,gp,s8

0000000080002844 <i_2457>:
    80002844:	f7c12623          	sw	t3,-148(sp)

0000000080002848 <i_2458>:
    80002848:	003dca63          	blt	s11,gp,8000285c <i_2463>

000000008000284c <i_2459>:
    8000284c:	01956cb3          	or	s9,a0,s9

0000000080002850 <i_2460>:
    80002850:	03c64063          	blt	a2,t3,80002870 <i_2468>

0000000080002854 <i_2461>:
    80002854:	fb210603          	lb	a2,-78(sp)

0000000080002858 <i_2462>:
    80002858:	08c10c03          	lb	s8,140(sp)

000000008000285c <i_2463>:
    8000285c:	ea215603          	lhu	a2,-350(sp)

0000000080002860 <i_2464>:
    80002860:	07812623          	sw	s8,108(sp)

0000000080002864 <i_2465>:
    80002864:	40c882bb          	subw	t0,a7,a2

0000000080002868 <i_2466>:
    80002868:	b792b293          	sltiu	t0,t0,-1159

000000008000286c <i_2467>:
    8000286c:	1b013683          	ld	a3,432(sp)

0000000080002870 <i_2468>:
    80002870:	00211b83          	lh	s7,2(sp)

0000000080002874 <i_2469>:
    80002874:	01c0e263          	bltu	ra,t3,80002878 <i_2470>

0000000080002878 <i_2470>:
    80002878:	a1507c17          	auipc	s8,0xa1507

000000008000287c <i_2471>:
    8000287c:	03868263          	beq	a3,s8,800028a0 <i_2480>

0000000080002880 <i_2472>:
    80002880:	0dc12023          	sw	t3,192(sp)

0000000080002884 <i_2473>:
    80002884:	01c10423          	sb	t3,8(sp)

0000000080002888 <i_2474>:
    80002888:	e9f13c23          	sd	t6,-360(sp)

000000008000288c <i_2475>:
    8000288c:	f7810223          	sb	s8,-156(sp)

0000000080002890 <i_2476>:
    80002890:	10d10f23          	sb	a3,286(sp)

0000000080002894 <i_2477>:
    80002894:	40d686b3          	sub	a3,a3,a3

0000000080002898 <i_2478>:
    80002898:	03768263          	beq	a3,s7,800028bc <i_2487>

000000008000289c <i_2479>:
    8000289c:	07812023          	sw	s8,96(sp)

00000000800028a0 <i_2480>:
    800028a0:	038d32b3          	mulhu	t0,s10,s8

00000000800028a4 <i_2481>:
    800028a4:	01a2da63          	ble	s10,t0,800028b8 <i_2486>

00000000800028a8 <i_2482>:
    800028a8:	18d13423          	sd	a3,392(sp)

00000000800028ac <i_2483>:
    800028ac:	02d222b3          	mulhsu	t0,tp,a3

00000000800028b0 <i_2484>:
    800028b0:	f7011023          	sh	a6,-160(sp)

00000000800028b4 <i_2485>:
    800028b4:	00000013          	nop

00000000800028b8 <i_2486>:
    800028b8:	ff714803          	lbu	a6,-9(sp)

00000000800028bc <i_2487>:
    800028bc:	0bc16803          	lwu	a6,188(sp)

00000000800028c0 <i_2488>:
    800028c0:	004a1a13          	slli	s4,s4,0x4

00000000800028c4 <i_2489>:
    800028c4:	7bf00413          	li	s0,1983

00000000800028c8 <i_2490>:
    800028c8:	7cd00293          	li	t0,1997

00000000800028cc <i_2491>:
    800028cc:	03080063          	beq	a6,a6,800028ec <i_2498>

00000000800028d0 <i_2492>:
    800028d0:	fd412803          	lw	a6,-44(sp)

00000000800028d4 <i_2493>:
    800028d4:	00c00313          	li	t1,12

00000000800028d8 <i_2494>:
    800028d8:	40685a3b          	sraw	s4,a6,t1

00000000800028dc <i_2495>:
    800028dc:	00140413          	addi	s0,s0,1
    800028e0:	fe82d6e3          	ble	s0,t0,800028cc <i_2491>

00000000800028e4 <i_2496>:
    800028e4:	026a5263          	ble	t1,s4,80002908 <i_2505>

00000000800028e8 <i_2497>:
    800028e8:	036a5063          	ble	s6,s4,80002908 <i_2505>

00000000800028ec <i_2498>:
    800028ec:	1b012e23          	sw	a6,444(sp)

00000000800028f0 <i_2499>:
    800028f0:	01ba1e63          	bne	s4,s11,8000290c <i_2506>

00000000800028f4 <i_2500>:
    800028f4:	0f012023          	sw	a6,224(sp)

00000000800028f8 <i_2501>:
    800028f8:	eb012623          	sw	a6,-340(sp)

00000000800028fc <i_2502>:
    800028fc:	006a6a63          	bltu	s4,t1,80002910 <i_2507>

0000000080002900 <i_2503>:
    80002900:	00680863          	beq	a6,t1,80002910 <i_2507>

0000000080002904 <i_2504>:
    80002904:	e6013383          	ld	t2,-416(sp)

0000000080002908 <i_2505>:
    80002908:	e5215e03          	lhu	t3,-430(sp)

000000008000290c <i_2506>:
    8000290c:	fe213023          	sd	sp,-32(sp)

0000000080002910 <i_2507>:
    80002910:	f7c12423          	sw	t3,-152(sp)

0000000080002914 <i_2508>:
    80002914:	e74109a3          	sb	s4,-397(sp)

0000000080002918 <i_2509>:
    80002918:	8d500313          	li	t1,-1835

000000008000291c <i_2510>:
    8000291c:	8e200a13          	li	s4,-1822

0000000080002920 <i_2511>:
    80002920:	fc612223          	sw	t1,-60(sp)

0000000080002924 <i_2512>:
    80002924:	e6612023          	sw	t1,-416(sp)

0000000080002928 <i_2513>:
    80002928:	00000013          	nop

000000008000292c <i_2514>:
    8000292c:	01410223          	sb	s4,4(sp)

0000000080002930 <i_2515>:
    80002930:	0f413423          	sd	s4,232(sp)

0000000080002934 <i_2516>:
    80002934:	00000013          	nop

0000000080002938 <i_2517>:
    80002938:	03ca0c3b          	mulw	s8,s4,t3

000000008000293c <i_2518>:
    8000293c:	fbe11a83          	lh	s5,-66(sp)

0000000080002940 <i_2519>:
    80002940:	016e5263          	ble	s6,t3,80002944 <i_2520>

0000000080002944 <i_2520>:
    80002944:	15410623          	sb	s4,332(sp)

0000000080002948 <i_2521>:
    80002948:	038c6063          	bltu	s8,s8,80002968 <i_2528>

000000008000294c <i_2522>:
    8000294c:	00130313          	addi	t1,t1,1
    80002950:	fd4318e3          	bne	t1,s4,80002920 <i_2511>

0000000080002954 <i_2523>:
    80002954:	f8013303          	ld	t1,-128(sp)

0000000080002958 <i_2524>:
    80002958:	f6611c03          	lh	s8,-154(sp)

000000008000295c <i_2525>:
    8000295c:	00000013          	nop

0000000080002960 <i_2526>:
    80002960:	08c14d03          	lbu	s10,140(sp)

0000000080002964 <i_2527>:
    80002964:	09510783          	lb	a5,149(sp)

0000000080002968 <i_2528>:
    80002968:	ecd12823          	sw	a3,-304(sp)

000000008000296c <i_2529>:
    8000296c:	0ba15d03          	lhu	s10,186(sp)

0000000080002970 <i_2530>:
    80002970:	86100693          	li	a3,-1951

0000000080002974 <i_2531>:
    80002974:	86800413          	li	s0,-1944

0000000080002978 <i_2532>:
    80002978:	02d00e13          	li	t3,45

000000008000297c <i_2533>:
    8000297c:	01c7dab3          	srl	s5,a5,t3

0000000080002980 <i_2534>:
    80002980:	02278ab3          	mul	s5,a5,sp

0000000080002984 <i_2535>:
    80002984:	00168693          	addi	a3,a3,1
    80002988:	fe86e8e3          	bltu	a3,s0,80002978 <i_2532>

000000008000298c <i_2536>:
    8000298c:	1bf73417          	auipc	s0,0x1bf73

0000000080002990 <i_2537>:
    80002990:	01ad4e63          	blt	s10,s10,800029ac <i_2544>

0000000080002994 <i_2538>:
    80002994:	05415783          	lhu	a5,84(sp)

0000000080002998 <i_2539>:
    80002998:	fc812c23          	sw	s0,-40(sp)

000000008000299c <i_2540>:
    8000299c:	00400213          	li	tp,4

00000000800029a0 <i_2541>:
    800029a0:	404e53bb          	sraw	t2,t3,tp

00000000800029a4 <i_2542>:
    800029a4:	14411b23          	sh	tp,342(sp)

00000000800029a8 <i_2543>:
    800029a8:	03a27d3b          	remuw	s10,tp,s10

00000000800029ac <i_2544>:
    800029ac:	40225413          	srai	s0,tp,0x2

00000000800029b0 <i_2545>:
    800029b0:	410d0233          	sub	tp,s10,a6

00000000800029b4 <i_2546>:
    800029b4:	1d510203          	lb	tp,469(sp)

00000000800029b8 <i_2547>:
    800029b8:	0249c233          	div	tp,s3,tp

00000000800029bc <i_2548>:
    800029bc:	ef615403          	lhu	s0,-266(sp)

00000000800029c0 <i_2549>:
    800029c0:	19811b03          	lh	s6,408(sp)

00000000800029c4 <i_2550>:
    800029c4:	00700213          	li	tp,7

00000000800029c8 <i_2551>:
    800029c8:	00425b33          	srl	s6,tp,tp

00000000800029cc <i_2552>:
    800029cc:	01300d13          	li	s10,19

00000000800029d0 <i_2553>:
    800029d0:	01ad57bb          	srlw	a5,s10,s10

00000000800029d4 <i_2554>:
    800029d4:	e7a13423          	sd	s10,-408(sp)

00000000800029d8 <i_2555>:
    800029d8:	95ee83b7          	lui	t2,0x95ee8

00000000800029dc <i_2556>:
    800029dc:	01300393          	li	t2,19

00000000800029e0 <i_2557>:
    800029e0:	007b153b          	sllw	a0,s6,t2

00000000800029e4 <i_2558>:
    800029e4:	f2415d03          	lhu	s10,-220(sp)

00000000800029e8 <i_2559>:
    800029e8:	05412503          	lw	a0,84(sp)

00000000800029ec <i_2560>:
    800029ec:	03a00513          	li	a0,58

00000000800029f0 <i_2561>:
    800029f0:	00a51d33          	sll	s10,a0,a0

00000000800029f4 <i_2562>:
    800029f4:	00ad1a63          	bne	s10,a0,80002a08 <i_2567>

00000000800029f8 <i_2563>:
    800029f8:	03a55533          	divu	a0,a0,s10

00000000800029fc <i_2564>:
    800029fc:	efa11623          	sh	s10,-276(sp)

0000000080002a00 <i_2565>:
    80002a00:	00a11423          	sh	a0,8(sp)

0000000080002a04 <i_2566>:
    80002a04:	f7012503          	lw	a0,-144(sp)

0000000080002a08 <i_2567>:
    80002a08:	ee611503          	lh	a0,-282(sp)

0000000080002a0c <i_2568>:
    80002a0c:	00a3f263          	bleu	a0,t2,80002a10 <i_2569>

0000000080002a10 <i_2569>:
    80002a10:	4c045537          	lui	a0,0x4c045

0000000080002a14 <i_2570>:
    80002a14:	f5813e83          	ld	t4,-168(sp)

0000000080002a18 <i_2571>:
    80002a18:	eec103a3          	sb	a2,-281(sp)

0000000080002a1c <i_2572>:
    80002a1c:	11314083          	lbu	ra,275(sp)

0000000080002a20 <i_2573>:
    80002a20:	86300e93          	li	t4,-1949

0000000080002a24 <i_2574>:
    80002a24:	86f00613          	li	a2,-1937

0000000080002a28 <i_2575>:
    80002a28:	16812503          	lw	a0,360(sp)

0000000080002a2c <i_2576>:
    80002a2c:	0170d263          	ble	s7,ra,80002a30 <i_2577>

0000000080002a30 <i_2577>:
    80002a30:	00000013          	nop

0000000080002a34 <i_2578>:
    80002a34:	017f4bb3          	xor	s7,t5,s7

0000000080002a38 <i_2579>:
    80002a38:	e2a11523          	sh	a0,-470(sp)

0000000080002a3c <i_2580>:
    80002a3c:	001e8e93          	addi	t4,t4,1 # fffffffff27b8001 <_end+0xffffffff727a7bed>
    80002a40:	fecec4e3          	blt	t4,a2,80002a28 <i_2575>

0000000080002a44 <i_2581>:
    80002a44:	01ec7e33          	and	t3,s8,t5

0000000080002a48 <i_2582>:
    80002a48:	00a78663          	beq	a5,a0,80002a54 <i_2585>

0000000080002a4c <i_2583>:
    80002a4c:	037e2f33          	mulhsu	t5,t3,s7

0000000080002a50 <i_2584>:
    80002a50:	f1215e03          	lhu	t3,-238(sp)

0000000080002a54 <i_2585>:
    80002a54:	0f816183          	lwu	gp,248(sp)

0000000080002a58 <i_2586>:
    80002a58:	03c1e1b3          	rem	gp,gp,t3

0000000080002a5c <i_2587>:
    80002a5c:	7d000213          	li	tp,2000

0000000080002a60 <i_2588>:
    80002a60:	7d500f13          	li	t5,2005

0000000080002a64 <i_2589>:
    80002a64:	15c12c23          	sw	t3,344(sp)

0000000080002a68 <i_2590>:
    80002a68:	fcc12503          	lw	a0,-52(sp)

0000000080002a6c <i_2591>:
    80002a6c:	01b00493          	li	s1,27

0000000080002a70 <i_2592>:
    80002a70:	4091d1bb          	sraw	gp,gp,s1

0000000080002a74 <i_2593>:
    80002a74:	e7e15183          	lhu	gp,-386(sp)

0000000080002a78 <i_2594>:
    80002a78:	00000013          	nop

0000000080002a7c <i_2595>:
    80002a7c:	0b215c83          	lhu	s9,178(sp)

0000000080002a80 <i_2596>:
    80002a80:	a3a98993          	addi	s3,s3,-1478 # b55c2a <main-0x7f4aa3d6>

0000000080002a84 <i_2597>:
    80002a84:	f5012e03          	lw	t3,-176(sp)

0000000080002a88 <i_2598>:
    80002a88:	f1413023          	sd	s4,-256(sp)

0000000080002a8c <i_2599>:
    80002a8c:	e8810c83          	lb	s9,-376(sp)

0000000080002a90 <i_2600>:
    80002a90:	123100a3          	sb	gp,289(sp)

0000000080002a94 <i_2601>:
    80002a94:	00700c93          	li	s9,7

0000000080002a98 <i_2602>:
    80002a98:	0199d9bb          	srlw	s3,s3,s9

0000000080002a9c <i_2603>:
    80002a9c:	00120213          	addi	tp,tp,1 # 1 <main-0x7fffffff>
    80002aa0:	fc4f52e3          	ble	tp,t5,80002a64 <i_2589>

0000000080002aa4 <i_2604>:
    80002aa4:	fd013403          	ld	s0,-48(sp)

0000000080002aa8 <i_2605>:
    80002aa8:	f6c12503          	lw	a0,-148(sp)

0000000080002aac <i_2606>:
    80002aac:	edc10d23          	sb	t3,-294(sp)

0000000080002ab0 <i_2607>:
    80002ab0:	f4813023          	sd	s0,-192(sp)

0000000080002ab4 <i_2608>:
    80002ab4:	e4311a23          	sh	gp,-428(sp)

0000000080002ab8 <i_2609>:
    80002ab8:	033cc53b          	divw	a0,s9,s3

0000000080002abc <i_2610>:
    80002abc:	00a1d263          	ble	a0,gp,80002ac0 <i_2611>

0000000080002ac0 <i_2611>:
    80002ac0:	02d00193          	li	gp,45

0000000080002ac4 <i_2612>:
    80002ac4:	003f5433          	srl	s0,t5,gp

0000000080002ac8 <i_2613>:
    80002ac8:	028c8c33          	mul	s8,s9,s0

0000000080002acc <i_2614>:
    80002acc:	039c27b3          	mulhsu	a5,s8,s9

0000000080002ad0 <i_2615>:
    80002ad0:	e4815c03          	lhu	s8,-440(sp)

0000000080002ad4 <i_2616>:
    80002ad4:	04f13023          	sd	a5,64(sp)

0000000080002ad8 <i_2617>:
    80002ad8:	04c16c03          	lwu	s8,76(sp)

0000000080002adc <i_2618>:
    80002adc:	15013303          	ld	t1,336(sp)

0000000080002ae0 <i_2619>:
    80002ae0:	00680e63          	beq	a6,t1,80002afc <i_2626>

0000000080002ae4 <i_2620>:
    80002ae4:	0081d463          	ble	s0,gp,80002aec <i_2622>

0000000080002ae8 <i_2621>:
    80002ae8:	faf12223          	sw	a5,-92(sp)

0000000080002aec <i_2622>:
    80002aec:	00f31e63          	bne	t1,a5,80002b08 <i_2629>

0000000080002af0 <i_2623>:
    80002af0:	011cf7b3          	and	a5,s9,a7

0000000080002af4 <i_2624>:
    80002af4:	028c51bb          	divuw	gp,s8,s0

0000000080002af8 <i_2625>:
    80002af8:	07911023          	sh	s9,96(sp)

0000000080002afc <i_2626>:
    80002afc:	02f4743b          	remuw	s0,s0,a5

0000000080002b00 <i_2627>:
    80002b00:	eec16183          	lwu	gp,-276(sp)

0000000080002b04 <i_2628>:
    80002b04:	02a19c33          	mulh	s8,gp,a0

0000000080002b08 <i_2629>:
    80002b08:	0c311d23          	sh	gp,218(sp)

0000000080002b0c <i_2630>:
    80002b0c:	023977bb          	remuw	a5,s2,gp

0000000080002b10 <i_2631>:
    80002b10:	13112023          	sw	a7,288(sp)

0000000080002b14 <i_2632>:
    80002b14:	0af10523          	sb	a5,170(sp)

0000000080002b18 <i_2633>:
    80002b18:	03d10a83          	lb	s5,61(sp)

0000000080002b1c <i_2634>:
    80002b1c:	08813c23          	sd	s0,152(sp)

0000000080002b20 <i_2635>:
    80002b20:	f5813e83          	ld	t4,-168(sp)

0000000080002b24 <i_2636>:
    80002b24:	06813503          	ld	a0,104(sp)

0000000080002b28 <i_2637>:
    80002b28:	01854c63          	blt	a0,s8,80002b40 <i_2643>

0000000080002b2c <i_2638>:
    80002b2c:	01555863          	ble	s5,a0,80002b3c <i_2642>

0000000080002b30 <i_2639>:
    80002b30:	1b511523          	sh	s5,426(sp)

0000000080002b34 <i_2640>:
    80002b34:	e3011283          	lh	t0,-464(sp)

0000000080002b38 <i_2641>:
    80002b38:	e4a11323          	sh	a0,-442(sp)

0000000080002b3c <i_2642>:
    80002b3c:	01d19c63          	bne	gp,t4,80002b54 <i_2648>

0000000080002b40 <i_2643>:
    80002b40:	f4f12a23          	sw	a5,-172(sp)

0000000080002b44 <i_2644>:
    80002b44:	0086da63          	ble	s0,a3,80002b58 <i_2649>

0000000080002b48 <i_2645>:
    80002b48:	01b786b3          	add	a3,a5,s11

0000000080002b4c <i_2646>:
    80002b4c:	02f79263          	bne	a5,a5,80002b70 <i_2655>

0000000080002b50 <i_2647>:
    80002b50:	ea313423          	sd	gp,-344(sp)

0000000080002b54 <i_2648>:
    80002b54:	ed312223          	sw	s3,-316(sp)

0000000080002b58 <i_2649>:
    80002b58:	00000013          	nop

0000000080002b5c <i_2650>:
    80002b5c:	02d696b3          	mulh	a3,a3,a3

0000000080002b60 <i_2651>:
    80002b60:	02d686b3          	mul	a3,a3,a3

0000000080002b64 <i_2652>:
    80002b64:	10010683          	lb	a3,256(sp)

0000000080002b68 <i_2653>:
    80002b68:	00000013          	nop

0000000080002b6c <i_2654>:
    80002b6c:	00000013          	nop

0000000080002b70 <i_2655>:
    80002b70:	00000013          	nop

0000000080002b74 <i_2656>:
    80002b74:	03bdaab3          	mulhsu	s5,s11,s11

0000000080002b78 <i_2657>:
    80002b78:	7ed00413          	li	s0,2029

0000000080002b7c <i_2658>:
    80002b7c:	7f600d93          	li	s11,2038

0000000080002b80 <i_2659>:
    80002b80:	16a15c03          	lhu	s8,362(sp)

0000000080002b84 <i_2660>:
    80002b84:	1bb13823          	sd	s11,432(sp)

0000000080002b88 <i_2661>:
    80002b88:	00000013          	nop

0000000080002b8c <i_2662>:
    80002b8c:	f7812423          	sw	s8,-152(sp)

0000000080002b90 <i_2663>:
    80002b90:	1ae11c03          	lh	s8,430(sp)

0000000080002b94 <i_2664>:
    80002b94:	00a94e63          	blt	s2,a0,80002bb0 <i_2670>

0000000080002b98 <i_2665>:
    80002b98:	ed215a83          	lhu	s5,-302(sp)

0000000080002b9c <i_2666>:
    80002b9c:	00140413          	addi	s0,s0,1 # 9bf7598d <_end+0x1bf65579>
    80002ba0:	fe8d90e3          	bne	s11,s0,80002b80 <i_2659>

0000000080002ba4 <i_2667>:
    80002ba4:	032c36b3          	mulhu	a3,s8,s2

0000000080002ba8 <i_2668>:
    80002ba8:	035b0263          	beq	s6,s5,80002bcc <i_2677>

0000000080002bac <i_2669>:
    80002bac:	016af863          	bleu	s6,s5,80002bbc <i_2673>

0000000080002bb0 <i_2670>:
    80002bb0:	fb610823          	sb	s6,-80(sp)

0000000080002bb4 <i_2671>:
    80002bb4:	e9513423          	sd	s5,-376(sp)

0000000080002bb8 <i_2672>:
    80002bb8:	50fe4593          	xori	a1,t3,1295

0000000080002bbc <i_2673>:
    80002bbc:	015b0ab3          	add	s5,s6,s5

0000000080002bc0 <i_2674>:
    80002bc0:	02d10523          	sb	a3,42(sp)

0000000080002bc4 <i_2675>:
    80002bc4:	004c1e1b          	slliw	t3,s8,0x4

0000000080002bc8 <i_2676>:
    80002bc8:	05810223          	sb	s8,68(sp)

0000000080002bcc <i_2677>:
    80002bcc:	00800693          	li	a3,8

0000000080002bd0 <i_2678>:
    80002bd0:	00d5923b          	sllw	tp,a1,a3

0000000080002bd4 <i_2679>:
    80002bd4:	f9856a97          	auipc	s5,0xf9856

0000000080002bd8 <i_2680>:
    80002bd8:	05215e83          	lhu	t4,82(sp)

0000000080002bdc <i_2681>:
    80002bdc:	00000013          	nop

0000000080002be0 <i_2682>:
    80002be0:	00000013          	nop

0000000080002be4 <i_2683>:
    80002be4:	76400213          	li	tp,1892

0000000080002be8 <i_2684>:
    80002be8:	76900a93          	li	s5,1897

0000000080002bec <i_2685>:
    80002bec:	fdd10e83          	lb	t4,-35(sp)

0000000080002bf0 <i_2686>:
    80002bf0:	02b915b3          	mulh	a1,s2,a1

0000000080002bf4 <i_2687>:
    80002bf4:	023ef463          	bleu	gp,t4,80002c1c <i_2696>

0000000080002bf8 <i_2688>:
    80002bf8:	00459e9b          	slliw	t4,a1,0x4

0000000080002bfc <i_2689>:
    80002bfc:	00120213          	addi	tp,tp,1 # 1 <main-0x7fffffff>
    80002c00:	fe4ad6e3          	ble	tp,s5,80002bec <i_2685>

0000000080002c04 <i_2690>:
    80002c04:	12810583          	lb	a1,296(sp)

0000000080002c08 <i_2691>:
    80002c08:	19813803          	ld	a6,408(sp)

0000000080002c0c <i_2692>:
    80002c0c:	40485e9b          	sraiw	t4,a6,0x4

0000000080002c10 <i_2693>:
    80002c10:	402ad31b          	sraiw	t1,s5,0x2

0000000080002c14 <i_2694>:
    80002c14:	03534063          	blt	t1,s5,80002c34 <i_2702>

0000000080002c18 <i_2695>:
    80002c18:	f5412a83          	lw	s5,-172(sp)

0000000080002c1c <i_2696>:
    80002c1c:	02d10a83          	lb	s5,45(sp)

0000000080002c20 <i_2697>:
    80002c20:	0224d5b3          	divu	a1,s1,sp

0000000080002c24 <i_2698>:
    80002c24:	16f10583          	lb	a1,367(sp)

0000000080002c28 <i_2699>:
    80002c28:	0fc15583          	lhu	a1,252(sp)

0000000080002c2c <i_2700>:
    80002c2c:	02b44d3b          	divw	s10,s0,a1

0000000080002c30 <i_2701>:
    80002c30:	01558e63          	beq	a1,s5,80002c4c <i_2708>

0000000080002c34 <i_2702>:
    80002c34:	40b585bb          	subw	a1,a1,a1

0000000080002c38 <i_2703>:
    80002c38:	0045dd1b          	srliw	s10,a1,0x4

0000000080002c3c <i_2704>:
    80002c3c:	13510583          	lb	a1,309(sp)

0000000080002c40 <i_2705>:
    80002c40:	02b5ad33          	mulhsu	s10,a1,a1

0000000080002c44 <i_2706>:
    80002c44:	01a5da63          	ble	s10,a1,80002c58 <i_2711>

0000000080002c48 <i_2707>:
    80002c48:	401d5d13          	srai	s10,s10,0x1

0000000080002c4c <i_2708>:
    80002c4c:	03afe23b          	remw	tp,t6,s10

0000000080002c50 <i_2709>:
    80002c50:	00beda63          	ble	a1,t4,80002c64 <i_2714>

0000000080002c54 <i_2710>:
    80002c54:	05a14183          	lbu	gp,90(sp)

0000000080002c58 <i_2711>:
    80002c58:	02a00193          	li	gp,42

0000000080002c5c <i_2712>:
    80002c5c:	003211b3          	sll	gp,tp,gp

0000000080002c60 <i_2713>:
    80002c60:	edc15783          	lhu	a5,-292(sp)

0000000080002c64 <i_2714>:
    80002c64:	00318233          	add	tp,gp,gp

0000000080002c68 <i_2715>:
    80002c68:	0317863b          	mulw	a2,a5,a7

0000000080002c6c <i_2716>:
    80002c6c:	00344e63          	blt	s0,gp,80002c88 <i_2723>

0000000080002c70 <i_2717>:
    80002c70:	11416b03          	lwu	s6,276(sp)

0000000080002c74 <i_2718>:
    80002c74:	0d013983          	ld	s3,208(sp)

0000000080002c78 <i_2719>:
    80002c78:	e2215403          	lhu	s0,-478(sp)

0000000080002c7c <i_2720>:
    80002c7c:	00400413          	li	s0,4

0000000080002c80 <i_2721>:
    80002c80:	4084563b          	sraw	a2,s0,s0

0000000080002c84 <i_2722>:
    80002c84:	03345abb          	divuw	s5,s0,s3

0000000080002c88 <i_2723>:
    80002c88:	1b612023          	sw	s6,416(sp)

0000000080002c8c <i_2724>:
    80002c8c:	0e012a83          	lw	s5,224(sp)

0000000080002c90 <i_2725>:
    80002c90:	0339a6b3          	mulhsu	a3,s3,s3

0000000080002c94 <i_2726>:
    80002c94:	e6c13c23          	sd	a2,-392(sp)

0000000080002c98 <i_2727>:
    80002c98:	fb816983          	lwu	s3,-72(sp)

0000000080002c9c <i_2728>:
    80002c9c:	00d2e663          	bltu	t0,a3,80002ca8 <i_2731>

0000000080002ca0 <i_2729>:
    80002ca0:	0b311423          	sh	s3,168(sp)

0000000080002ca4 <i_2730>:
    80002ca4:	1f313023          	sd	s3,480(sp)

0000000080002ca8 <i_2731>:
    80002ca8:	0052dc63          	ble	t0,t0,80002cc0 <i_2737>

0000000080002cac <i_2732>:
    80002cac:	0086d863          	ble	s0,a3,80002cbc <i_2736>

0000000080002cb0 <i_2733>:
    80002cb0:	01569c63          	bne	a3,s5,80002cc8 <i_2739>

0000000080002cb4 <i_2734>:
    80002cb4:	00812423          	sw	s0,8(sp)

0000000080002cb8 <i_2735>:
    80002cb8:	02813823          	sd	s0,48(sp)

0000000080002cbc <i_2736>:
    80002cbc:	0152dc63          	ble	s5,t0,80002cd4 <i_2742>

0000000080002cc0 <i_2737>:
    80002cc0:	1eb37313          	andi	t1,t1,491

0000000080002cc4 <i_2738>:
    80002cc4:	ec816d83          	lwu	s11,-312(sp)

0000000080002cc8 <i_2739>:
    80002cc8:	eb3109a3          	sb	s3,-333(sp)

0000000080002ccc <i_2740>:
    80002ccc:	0336a9b3          	mulhsu	s3,a3,s3

0000000080002cd0 <i_2741>:
    80002cd0:	00847e33          	and	t3,s0,s0

0000000080002cd4 <i_2742>:
    80002cd4:	031a0333          	mul	t1,s4,a7

0000000080002cd8 <i_2743>:
    80002cd8:	00dbfe63          	bleu	a3,s7,80002cf4 <i_2750>

0000000080002cdc <i_2744>:
    80002cdc:	008d9263          	bne	s11,s0,80002ce0 <i_2745>

0000000080002ce0 <i_2745>:
    80002ce0:	4047d413          	srai	s0,a5,0x4

0000000080002ce4 <i_2746>:
    80002ce4:	03c58263          	beq	a1,t3,80002d08 <i_2755>

0000000080002ce8 <i_2747>:
    80002ce8:	0261ce33          	div	t3,gp,t1

0000000080002cec <i_2748>:
    80002cec:	03c242bb          	divw	t0,tp,t3

0000000080002cf0 <i_2749>:
    80002cf0:	e2611123          	sh	t1,-478(sp)

0000000080002cf4 <i_2750>:
    80002cf4:	00538a63          	beq	t2,t0,80002d08 <i_2755>

0000000080002cf8 <i_2751>:
    80002cf8:	ec811b23          	sh	s0,-298(sp)

0000000080002cfc <i_2752>:
    80002cfc:	03432b33          	mulhsu	s6,t1,s4

0000000080002d00 <i_2753>:
    80002d00:	00545c63          	ble	t0,s0,80002d18 <i_2759>

0000000080002d04 <i_2754>:
    80002d04:	1dc12e03          	lw	t3,476(sp)

0000000080002d08 <i_2755>:
    80002d08:	ec411723          	sh	tp,-306(sp)

0000000080002d0c <i_2756>:
    80002d0c:	f7615403          	lhu	s0,-138(sp)

0000000080002d10 <i_2757>:
    80002d10:	ed013a83          	ld	s5,-304(sp)

0000000080002d14 <i_2758>:
    80002d14:	03cabb33          	mulhu	s6,s5,t3

0000000080002d18 <i_2759>:
    80002d18:	ecf9ac17          	auipc	s8,0xecf9a

0000000080002d1c <i_2760>:
    80002d1c:	03c13c23          	sd	t3,56(sp)

0000000080002d20 <i_2761>:
    80002d20:	76900e13          	li	t3,1897

0000000080002d24 <i_2762>:
    80002d24:	77100293          	li	t0,1905

0000000080002d28 <i_2763>:
    80002d28:	001e0e13          	addi	t3,t3,1
    80002d2c:	ffc2fee3          	bleu	t3,t0,80002d28 <i_2763>

0000000080002d30 <i_2764>:
    80002d30:	13510da3          	sb	s5,315(sp)

0000000080002d34 <i_2765>:
    80002d34:	e8eb0c97          	auipc	s9,0xe8eb0

0000000080002d38 <i_2766>:
    80002d38:	ea011483          	lh	s1,-352(sp)

0000000080002d3c <i_2767>:
    80002d3c:	0128c663          	blt	a7,s2,80002d48 <i_2770>

0000000080002d40 <i_2768>:
    80002d40:	e3512e23          	sw	s5,-452(sp)

0000000080002d44 <i_2769>:
    80002d44:	f4912023          	sw	s1,-192(sp)

0000000080002d48 <i_2770>:
    80002d48:	01ce1863          	bne	t3,t3,80002d58 <i_2774>

0000000080002d4c <i_2771>:
    80002d4c:	f1f14483          	lbu	s1,-225(sp)

0000000080002d50 <i_2772>:
    80002d50:	f9012a83          	lw	s5,-112(sp)

0000000080002d54 <i_2773>:
    80002d54:	0e813b83          	ld	s7,232(sp)

0000000080002d58 <i_2774>:
    80002d58:	01100a93          	li	s5,17

0000000080002d5c <i_2775>:
    80002d5c:	4152523b          	sraw	tp,tp,s5

0000000080002d60 <i_2776>:
    80002d60:	8b900493          	li	s1,-1863

0000000080002d64 <i_2777>:
    80002d64:	8be00093          	li	ra,-1858

0000000080002d68 <i_2778>:
    80002d68:	009b8663          	beq	s7,s1,80002d74 <i_2781>

0000000080002d6c <i_2779>:
    80002d6c:	002c9c93          	slli	s9,s9,0x2

0000000080002d70 <i_2780>:
    80002d70:	0394b9b3          	mulhu	s3,s1,s9

0000000080002d74 <i_2781>:
    80002d74:	7270e213          	ori	tp,ra,1831

0000000080002d78 <i_2782>:
    80002d78:	f9014d83          	lbu	s11,-112(sp)

0000000080002d7c <i_2783>:
    80002d7c:	15313023          	sd	s3,320(sp)

0000000080002d80 <i_2784>:
    80002d80:	4020d693          	srai	a3,ra,0x2

0000000080002d84 <i_2785>:
    80002d84:	0e913423          	sd	s1,232(sp)

0000000080002d88 <i_2786>:
    80002d88:	ed512623          	sw	s5,-308(sp)

0000000080002d8c <i_2787>:
    80002d8c:	00000013          	nop

0000000080002d90 <i_2788>:
    80002d90:	f7910b23          	sb	s9,-138(sp)

0000000080002d94 <i_2789>:
    80002d94:	01b24ab3          	xor	s5,tp,s11

0000000080002d98 <i_2790>:
    80002d98:	16e11c83          	lh	s9,366(sp)

0000000080002d9c <i_2791>:
    80002d9c:	02d56433          	rem	s0,a0,a3

0000000080002da0 <i_2792>:
    80002da0:	00148493          	addi	s1,s1,1
    80002da4:	fc14c2e3          	blt	s1,ra,80002d68 <i_2778>

0000000080002da8 <i_2793>:
    80002da8:	e6810da3          	sb	s0,-389(sp)

0000000080002dac <i_2794>:
    80002dac:	00000013          	nop

0000000080002db0 <i_2795>:
    80002db0:	7ca00c93          	li	s9,1994

0000000080002db4 <i_2796>:
    80002db4:	7d800b13          	li	s6,2008

0000000080002db8 <i_2797>:
    80002db8:	053103a3          	sb	s3,71(sp)

0000000080002dbc <i_2798>:
    80002dbc:	05a15983          	lhu	s3,90(sp)

0000000080002dc0 <i_2799>:
    80002dc0:	02b9e5bb          	remw	a1,s3,a1

0000000080002dc4 <i_2800>:
    80002dc4:	ecc12a23          	sw	a2,-300(sp)

0000000080002dc8 <i_2801>:
    80002dc8:	001c8c93          	addi	s9,s9,1 # 68eb2d35 <main-0x1714d2cb>
    80002dcc:	ff6c96e3          	bne	s9,s6,80002db8 <i_2797>

0000000080002dd0 <i_2802>:
    80002dd0:	14813a03          	ld	s4,328(sp)

0000000080002dd4 <i_2803>:
    80002dd4:	01458663          	beq	a1,s4,80002de0 <i_2806>

0000000080002dd8 <i_2804>:
    80002dd8:	feb11323          	sh	a1,-26(sp)

0000000080002ddc <i_2805>:
    80002ddc:	17611583          	lh	a1,374(sp)

0000000080002de0 <i_2806>:
    80002de0:	e5816583          	lwu	a1,-424(sp)

0000000080002de4 <i_2807>:
    80002de4:	f6811e23          	sh	s0,-132(sp)

0000000080002de8 <i_2808>:
    80002de8:	0ad14303          	lbu	t1,173(sp)

0000000080002dec <i_2809>:
    80002dec:	be55ca13          	xori	s4,a1,-1051

0000000080002df0 <i_2810>:
    80002df0:	0d110483          	lb	s1,209(sp)

0000000080002df4 <i_2811>:
    80002df4:	e6016083          	lwu	ra,-416(sp)

0000000080002df8 <i_2812>:
    80002df8:	404a5a13          	srai	s4,s4,0x4

0000000080002dfc <i_2813>:
    80002dfc:	00ba6c63          	bltu	s4,a1,80002e14 <i_2819>

0000000080002e00 <i_2814>:
    80002e00:	014100a3          	sb	s4,1(sp)

0000000080002e04 <i_2815>:
    80002e04:	e1d10c83          	lb	s9,-483(sp)

0000000080002e08 <i_2816>:
    80002e08:	01600593          	li	a1,22

0000000080002e0c <i_2817>:
    80002e0c:	00ba55bb          	srlw	a1,s4,a1

0000000080002e10 <i_2818>:
    80002e10:	ed410a23          	sb	s4,-300(sp)

0000000080002e14 <i_2819>:
    80002e14:	0c610583          	lb	a1,198(sp)

0000000080002e18 <i_2820>:
    80002e18:	00b1d863          	ble	a1,gp,80002e28 <i_2824>

0000000080002e1c <i_2821>:
    80002e1c:	f0a11683          	lh	a3,-246(sp)

0000000080002e20 <i_2822>:
    80002e20:	00f00c93          	li	s9,15

0000000080002e24 <i_2823>:
    80002e24:	019696b3          	sll	a3,a3,s9

0000000080002e28 <i_2824>:
    80002e28:	00000013          	nop

0000000080002e2c <i_2825>:
    80002e2c:	00000013          	nop

0000000080002e30 <i_2826>:
    80002e30:	77f00393          	li	t2,1919

0000000080002e34 <i_2827>:
    80002e34:	78d00a13          	li	s4,1933

0000000080002e38 <i_2828>:
    80002e38:	0280b6b3          	mulhu	a3,ra,s0

0000000080002e3c <i_2829>:
    80002e3c:	fa113423          	sd	ra,-88(sp)

0000000080002e40 <i_2830>:
    80002e40:	75100593          	li	a1,1873

0000000080002e44 <i_2831>:
    80002e44:	75c00093          	li	ra,1884

0000000080002e48 <i_2832>:
    80002e48:	00843433          	sltu	s0,s0,s0

0000000080002e4c <i_2833>:
    80002e4c:	00158593          	addi	a1,a1,1
    80002e50:	fe159ce3          	bne	a1,ra,80002e48 <i_2832>

0000000080002e54 <i_2834>:
    80002e54:	00000013          	nop

0000000080002e58 <i_2835>:
    80002e58:	00d69c63          	bne	a3,a3,80002e70 <i_2840>

0000000080002e5c <i_2836>:
    80002e5c:	e2710403          	lb	s0,-473(sp)

0000000080002e60 <i_2837>:
    80002e60:	00138393          	addi	t2,t2,1 # ffffffff95ee8001 <_end+0xffffffff15ed7bed>
    80002e64:	fd43cae3          	blt	t2,s4,80002e38 <i_2828>

0000000080002e68 <i_2838>:
    80002e68:	14d13423          	sd	a3,328(sp)

0000000080002e6c <i_2839>:
    80002e6c:	10c12f03          	lw	t5,268(sp)

0000000080002e70 <i_2840>:
    80002e70:	02d440bb          	divw	ra,s0,a3

0000000080002e74 <i_2841>:
    80002e74:	03e0f263          	bleu	t5,ra,80002e98 <i_2850>

0000000080002e78 <i_2842>:
    80002e78:	f3e13023          	sd	t5,-224(sp)

0000000080002e7c <i_2843>:
    80002e7c:	fad12a23          	sw	a3,-76(sp)

0000000080002e80 <i_2844>:
    80002e80:	e7816f03          	lwu	t5,-392(sp)

0000000080002e84 <i_2845>:
    80002e84:	f0013f03          	ld	t5,-256(sp)

0000000080002e88 <i_2846>:
    80002e88:	01ef1463          	bne	t5,t5,80002e90 <i_2848>

0000000080002e8c <i_2847>:
    80002e8c:	e6013803          	ld	a6,-416(sp)

0000000080002e90 <i_2848>:
    80002e90:	12814803          	lbu	a6,296(sp)

0000000080002e94 <i_2849>:
    80002e94:	03e0d463          	ble	t5,ra,80002ebc <i_2859>

0000000080002e98 <i_2850>:
    80002e98:	083b8b93          	addi	s7,s7,131 # 9f4c083 <main-0x760b3f7d>

0000000080002e9c <i_2851>:
    80002e9c:	037f4063          	blt	t5,s7,80002ebc <i_2859>

0000000080002ea0 <i_2852>:
    80002ea0:	026f433b          	divw	t1,t5,t1

0000000080002ea4 <i_2853>:
    80002ea4:	01081c63          	bne	a6,a6,80002ebc <i_2859>

0000000080002ea8 <i_2854>:
    80002ea8:	04016683          	lwu	a3,64(sp)

0000000080002eac <i_2855>:
    80002eac:	01c12403          	lw	s0,28(sp)

0000000080002eb0 <i_2856>:
    80002eb0:	01e65863          	ble	t5,a2,80002ec0 <i_2860>

0000000080002eb4 <i_2857>:
    80002eb4:	004bda93          	srli	s5,s7,0x4

0000000080002eb8 <i_2858>:
    80002eb8:	00816b03          	lwu	s6,8(sp)

0000000080002ebc <i_2859>:
    80002ebc:	0066ff33          	and	t5,a3,t1

0000000080002ec0 <i_2860>:
    80002ec0:	e1711f23          	sh	s7,-482(sp)

0000000080002ec4 <i_2861>:
    80002ec4:	17013e03          	ld	t3,368(sp)

0000000080002ec8 <i_2862>:
    80002ec8:	03568063          	beq	a3,s5,80002ee8 <i_2870>

0000000080002ecc <i_2863>:
    80002ecc:	00c11f03          	lh	t5,12(sp)

0000000080002ed0 <i_2864>:
    80002ed0:	0085c5b3          	xor	a1,a1,s0

0000000080002ed4 <i_2865>:
    80002ed4:	00b17263          	bleu	a1,sp,80002ed8 <i_2866>

0000000080002ed8 <i_2866>:
    80002ed8:	404ad493          	srai	s1,s5,0x4

0000000080002edc <i_2867>:
    80002edc:	f4912c23          	sw	s1,-168(sp)

0000000080002ee0 <i_2868>:
    80002ee0:	009404b3          	add	s1,s0,s1

0000000080002ee4 <i_2869>:
    80002ee4:	01300693          	li	a3,19

0000000080002ee8 <i_2870>:
    80002ee8:	00d35333          	srl	t1,t1,a3

0000000080002eec <i_2871>:
    80002eec:	0ad11123          	sh	a3,162(sp)

0000000080002ef0 <i_2872>:
    80002ef0:	8cd00393          	li	t2,-1843

0000000080002ef4 <i_2873>:
    80002ef4:	8cf00413          	li	s0,-1841

0000000080002ef8 <i_2874>:
    80002ef8:	00634333          	xor	t1,t1,t1

0000000080002efc <i_2875>:
    80002efc:	00138393          	addi	t2,t2,1
    80002f00:	fe83cce3          	blt	t2,s0,80002ef8 <i_2874>

0000000080002f04 <i_2876>:
    80002f04:	fae11803          	lh	a6,-82(sp)

0000000080002f08 <i_2877>:
    80002f08:	00412223          	sw	tp,4(sp)

0000000080002f0c <i_2878>:
    80002f0c:	54237613          	andi	a2,t1,1346

0000000080002f10 <i_2879>:
    80002f10:	00866433          	or	s0,a2,s0

0000000080002f14 <i_2880>:
    80002f14:	0ec13023          	sd	a2,224(sp)

0000000080002f18 <i_2881>:
    80002f18:	00d61263          	bne	a2,a3,80002f1c <i_2882>

0000000080002f1c <i_2882>:
    80002f1c:	02631263          	bne	t1,t1,80002f40 <i_2891>

0000000080002f20 <i_2883>:
    80002f20:	01084e63          	blt	a6,a6,80002f3c <i_2890>

0000000080002f24 <i_2884>:
    80002f24:	0c810ca3          	sb	s0,217(sp)

0000000080002f28 <i_2885>:
    80002f28:	01000613          	li	a2,16

0000000080002f2c <i_2886>:
    80002f2c:	40c3d33b          	sraw	t1,t2,a2

0000000080002f30 <i_2887>:
    80002f30:	00884263          	blt	a6,s0,80002f34 <i_2888>

0000000080002f34 <i_2888>:
    80002f34:	03045063          	ble	a6,s0,80002f54 <i_2896>

0000000080002f38 <i_2889>:
    80002f38:	00c85463          	ble	a2,a6,80002f40 <i_2891>

0000000080002f3c <i_2890>:
    80002f3c:	f7512223          	sw	s5,-156(sp)

0000000080002f40 <i_2891>:
    80002f40:	00835c63          	ble	s0,t1,80002f58 <i_2897>

0000000080002f44 <i_2892>:
    80002f44:	02630063          	beq	t1,t1,80002f64 <i_2900>

0000000080002f48 <i_2893>:
    80002f48:	19c12d03          	lw	s10,412(sp)

0000000080002f4c <i_2894>:
    80002f4c:	1cc12423          	sw	a2,456(sp)

0000000080002f50 <i_2895>:
    80002f50:	e7710823          	sb	s7,-400(sp)

0000000080002f54 <i_2896>:
    80002f54:	0037de9b          	srliw	t4,a5,0x3

0000000080002f58 <i_2897>:
    80002f58:	00461f13          	slli	t5,a2,0x4

0000000080002f5c <i_2898>:
    80002f5c:	03e45e33          	divu	t3,s0,t5

0000000080002f60 <i_2899>:
    80002f60:	e4812c23          	sw	s0,-424(sp)

0000000080002f64 <i_2900>:
    80002f64:	c46d7e13          	andi	t3,s10,-954

0000000080002f68 <i_2901>:
    80002f68:	f4c10423          	sb	a2,-184(sp)

0000000080002f6c <i_2902>:
    80002f6c:	03af763b          	remuw	a2,t5,s10

0000000080002f70 <i_2903>:
    80002f70:	e9816b03          	lwu	s6,-360(sp)

0000000080002f74 <i_2904>:
    80002f74:	e2a11603          	lh	a2,-470(sp)

0000000080002f78 <i_2905>:
    80002f78:	06c16603          	lwu	a2,108(sp)

0000000080002f7c <i_2906>:
    80002f7c:	07510183          	lb	gp,117(sp)

0000000080002f80 <i_2907>:
    80002f80:	02d1b633          	mulhu	a2,gp,a3

0000000080002f84 <i_2908>:
    80002f84:	0161e263          	bltu	gp,s6,80002f88 <i_2909>

0000000080002f88 <i_2909>:
    80002f88:	0fc12183          	lw	gp,252(sp)

0000000080002f8c <i_2910>:
    80002f8c:	16313c23          	sd	gp,376(sp)

0000000080002f90 <i_2911>:
    80002f90:	00566c63          	bltu	a2,t0,80002fa8 <i_2917>

0000000080002f94 <i_2912>:
    80002f94:	0332c263          	blt	t0,s3,80002fb8 <i_2921>

0000000080002f98 <i_2913>:
    80002f98:	007b0863          	beq	s6,t2,80002fa8 <i_2917>

0000000080002f9c <i_2914>:
    80002f9c:	bc2c33b7          	lui	t2,0xbc2c3

0000000080002fa0 <i_2915>:
    80002fa0:	efc15403          	lhu	s0,-260(sp)

0000000080002fa4 <i_2916>:
    80002fa4:	00435393          	srli	t2,t1,0x4

0000000080002fa8 <i_2917>:
    80002fa8:	10c12a23          	sw	a2,276(sp)

0000000080002fac <i_2918>:
    80002fac:	92e4039b          	addiw	t2,s0,-1746

0000000080002fb0 <i_2919>:
    80002fb0:	f6712023          	sw	t2,-160(sp)

0000000080002fb4 <i_2920>:
    80002fb4:	10813c23          	sd	s0,280(sp)

0000000080002fb8 <i_2921>:
    80002fb8:	08712a23          	sw	t2,148(sp)

0000000080002fbc <i_2922>:
    80002fbc:	1c8f7f13          	andi	t5,t5,456

0000000080002fc0 <i_2923>:
    80002fc0:	40738cb3          	sub	s9,t2,t2

0000000080002fc4 <i_2924>:
    80002fc4:	f87103a3          	sb	t2,-121(sp)

0000000080002fc8 <i_2925>:
    80002fc8:	01e39663          	bne	t2,t5,80002fd4 <i_2928>

0000000080002fcc <i_2926>:
    80002fcc:	01ef5863          	ble	t5,t5,80002fdc <i_2930>

0000000080002fd0 <i_2927>:
    80002fd0:	01ecfe63          	bleu	t5,s9,80002fec <i_2934>

0000000080002fd4 <i_2928>:
    80002fd4:	40445393          	srai	t2,s0,0x4

0000000080002fd8 <i_2929>:
    80002fd8:	03d00f13          	li	t5,61

0000000080002fdc <i_2930>:
    80002fdc:	41ef5433          	sra	s0,t5,t5

0000000080002fe0 <i_2931>:
    80002fe0:	e4a10c83          	lb	s9,-438(sp)

0000000080002fe4 <i_2932>:
    80002fe4:	01500d13          	li	s10,21

0000000080002fe8 <i_2933>:
    80002fe8:	01a4543b          	srlw	s0,s0,s10

0000000080002fec <i_2934>:
    80002fec:	f4811683          	lh	a3,-184(sp)

0000000080002ff0 <i_2935>:
    80002ff0:	0bf58693          	addi	a3,a1,191

0000000080002ff4 <i_2936>:
    80002ff4:	7f300f13          	li	t5,2035

0000000080002ff8 <i_2937>:
    80002ff8:	7f800593          	li	a1,2040

0000000080002ffc <i_2938>:
    80002ffc:	07712223          	sw	s7,100(sp)

0000000080003000 <i_2939>:
    80003000:	f0b10c83          	lb	s9,-245(sp)

0000000080003004 <i_2940>:
    80003004:	ec613023          	sd	t1,-320(sp)

0000000080003008 <i_2941>:
    80003008:	03e00d13          	li	s10,62

000000008000300c <i_2942>:
    8000300c:	41a45cb3          	sra	s9,s0,s10

0000000080003010 <i_2943>:
    80003010:	edc7fe13          	andi	t3,a5,-292

0000000080003014 <i_2944>:
    80003014:	17412403          	lw	s0,372(sp)

0000000080003018 <i_2945>:
    80003018:	03a472bb          	remuw	t0,s0,s10

000000008000301c <i_2946>:
    8000301c:	eec12483          	lw	s1,-276(sp)

0000000080003020 <i_2947>:
    80003020:	05013283          	ld	t0,80(sp)

0000000080003024 <i_2948>:
    80003024:	fdd10803          	lb	a6,-35(sp)

0000000080003028 <i_2949>:
    80003028:	03815d03          	lhu	s10,56(sp)

000000008000302c <i_2950>:
    8000302c:	db77ee37          	lui	t3,0xdb77e

0000000080003030 <i_2951>:
    80003030:	00f00e13          	li	t3,15

0000000080003034 <i_2952>:
    80003034:	41cd5d33          	sra	s10,s10,t3

0000000080003038 <i_2953>:
    80003038:	001f0f13          	addi	t5,t5,1
    8000303c:	fcbf60e3          	bltu	t5,a1,80002ffc <i_2938>

0000000080003040 <i_2954>:
    80003040:	09a12c23          	sw	s10,152(sp)

0000000080003044 <i_2955>:
    80003044:	03a4d4bb          	divuw	s1,s1,s10

0000000080003048 <i_2956>:
    80003048:	03c0d0b3          	divu	ra,ra,t3

000000008000304c <i_2957>:
    8000304c:	03ad6bbb          	remw	s7,s10,s10

0000000080003050 <i_2958>:
    80003050:	c37e0d1b          	addiw	s10,t3,-969

0000000080003054 <i_2959>:
    80003054:	0014f863          	bleu	ra,s1,80003064 <i_2963>

0000000080003058 <i_2960>:
    80003058:	09a13023          	sd	s10,128(sp)

000000008000305c <i_2961>:
    8000305c:	01a15a63          	ble	s10,sp,80003070 <i_2966>

0000000080003060 <i_2962>:
    80003060:	0213ca3b          	divw	s4,t2,ra

0000000080003064 <i_2963>:
    80003064:	19816603          	lwu	a2,408(sp)

0000000080003068 <i_2964>:
    80003068:	03cec1b3          	div	gp,t4,t3

000000008000306c <i_2965>:
    8000306c:	f1d11623          	sh	t4,-244(sp)

0000000080003070 <i_2966>:
    80003070:	004a531b          	srliw	t1,s4,0x4

0000000080003074 <i_2967>:
    80003074:	41a30e33          	sub	t3,t1,s10

0000000080003078 <i_2968>:
    80003078:	86400093          	li	ra,-1948

000000008000307c <i_2969>:
    8000307c:	87800993          	li	s3,-1928

0000000080003080 <i_2970>:
    80003080:	00108093          	addi	ra,ra,1
    80003084:	ff30cee3          	blt	ra,s3,80003080 <i_2970>

0000000080003088 <i_2971>:
    80003088:	eab13823          	sd	a1,-336(sp)

000000008000308c <i_2972>:
    8000308c:	414c8cbb          	subw	s9,s9,s4

0000000080003090 <i_2973>:
    80003090:	0b313823          	sd	s3,176(sp)

0000000080003094 <i_2974>:
    80003094:	01700193          	li	gp,23

0000000080003098 <i_2975>:
    80003098:	0036583b          	srlw	a6,a2,gp

000000008000309c <i_2976>:
    8000309c:	f5013823          	sd	a6,-176(sp)

00000000800030a0 <i_2977>:
    800030a0:	02b00613          	li	a2,43

00000000800030a4 <i_2978>:
    800030a4:	40c3db33          	sra	s6,t2,a2

00000000800030a8 <i_2979>:
    800030a8:	02695263          	ble	t1,s2,800030cc <i_2988>

00000000800030ac <i_2980>:
    800030ac:	f2016083          	lwu	ra,-224(sp)

00000000800030b0 <i_2981>:
    800030b0:	e38a6b13          	ori	s6,s4,-456

00000000800030b4 <i_2982>:
    800030b4:	01936263          	bltu	t1,s9,800030b8 <i_2983>

00000000800030b8 <i_2983>:
    800030b8:	01a126b3          	slt	a3,sp,s10

00000000800030bc <i_2984>:
    800030bc:	0033561b          	srliw	a2,t1,0x3

00000000800030c0 <i_2985>:
    800030c0:	02ccd063          	ble	a2,s9,800030e0 <i_2993>

00000000800030c4 <i_2986>:
    800030c4:	14b14603          	lbu	a2,331(sp)

00000000800030c8 <i_2987>:
    800030c8:	40335693          	srai	a3,t1,0x3

00000000800030cc <i_2988>:
    800030cc:	02611623          	sh	t1,44(sp)

00000000800030d0 <i_2989>:
    800030d0:	01b00213          	li	tp,27

00000000800030d4 <i_2990>:
    800030d4:	404dddbb          	sraw	s11,s11,tp

00000000800030d8 <i_2991>:
    800030d8:	e5714303          	lbu	t1,-425(sp)

00000000800030dc <i_2992>:
    800030dc:	15b11f23          	sh	s11,350(sp)

00000000800030e0 <i_2993>:
    800030e0:	02f36463          	bltu	t1,a5,80003108 <i_3003>

00000000800030e4 <i_2994>:
    800030e4:	e7914d83          	lbu	s11,-391(sp)

00000000800030e8 <i_2995>:
    800030e8:	01800d13          	li	s10,24

00000000800030ec <i_2996>:
    800030ec:	01a35dbb          	srlw	s11,t1,s10

00000000800030f0 <i_2997>:
    800030f0:	ef813d83          	ld	s11,-264(sp)

00000000800030f4 <i_2998>:
    800030f4:	ee816483          	lwu	s1,-280(sp)

00000000800030f8 <i_2999>:
    800030f8:	1dd14d83          	lbu	s11,477(sp)

00000000800030fc <i_3000>:
    800030fc:	02b4e513          	ori	a0,s1,43

0000000080003100 <i_3001>:
    80003100:	017cebb3          	or	s7,s9,s7

0000000080003104 <i_3002>:
    80003104:	1c816503          	lwu	a0,456(sp)

0000000080003108 <i_3003>:
    80003108:	01bdb633          	sltu	a2,s11,s11

000000008000310c <i_3004>:
    8000310c:	ee012603          	lw	a2,-288(sp)

0000000080003110 <i_3005>:
    80003110:	f6a11083          	lh	ra,-150(sp)

0000000080003114 <i_3006>:
    80003114:	0ca10223          	sb	a0,196(sp)

0000000080003118 <i_3007>:
    80003118:	e2e0b693          	sltiu	a3,ra,-466

000000008000311c <i_3008>:
    8000311c:	f6c12503          	lw	a0,-148(sp)

0000000080003120 <i_3009>:
    80003120:	00e69e63          	bne	a3,a4,8000313c <i_3016>

0000000080003124 <i_3010>:
    80003124:	f3214283          	lbu	t0,-206(sp)

0000000080003128 <i_3011>:
    80003128:	02fd4263          	blt	s10,a5,8000314c <i_3020>

000000008000312c <i_3012>:
    8000312c:	13813083          	ld	ra,312(sp)

0000000080003130 <i_3013>:
    80003130:	fd416083          	lwu	ra,-44(sp)

0000000080003134 <i_3014>:
    80003134:	4041d19b          	sraiw	gp,gp,0x4

0000000080003138 <i_3015>:
    80003138:	4016d213          	srai	tp,a3,0x1

000000008000313c <i_3016>:
    8000313c:	fe812d83          	lw	s11,-24(sp)

0000000080003140 <i_3017>:
    80003140:	09c16283          	lwu	t0,156(sp)

0000000080003144 <i_3018>:
    80003144:	eb910e23          	sb	s9,-324(sp)

0000000080003148 <i_3019>:
    80003148:	fc510283          	lb	t0,-59(sp)

000000008000314c <i_3020>:
    8000314c:	04012283          	lw	t0,64(sp)

0000000080003150 <i_3021>:
    80003150:	01400c13          	li	s8,20

0000000080003154 <i_3022>:
    80003154:	01829f3b          	sllw	t5,t0,s8

0000000080003158 <i_3023>:
    80003158:	01e2b4b3          	sltu	s1,t0,t5

000000008000315c <i_3024>:
    8000315c:	17510c03          	lb	s8,373(sp)

0000000080003160 <i_3025>:
    80003160:	11813f03          	ld	t5,280(sp)

0000000080003164 <i_3026>:
    80003164:	01ec2c33          	slt	s8,s8,t5

0000000080003168 <i_3027>:
    80003168:	fb113823          	sd	a7,-80(sp)

000000008000316c <i_3028>:
    8000316c:	04214c03          	lbu	s8,66(sp)

0000000080003170 <i_3029>:
    80003170:	03ef4f3b          	divw	t5,t5,t5

0000000080003174 <i_3030>:
    80003174:	017f4f33          	xor	t5,t5,s7

0000000080003178 <i_3031>:
    80003178:	00a15e03          	lhu	t3,10(sp)

000000008000317c <i_3032>:
    8000317c:	7f0c3f13          	sltiu	t5,s8,2032

0000000080003180 <i_3033>:
    80003180:	07816e83          	lwu	t4,120(sp)

0000000080003184 <i_3034>:
    80003184:	14a10b03          	lb	s6,330(sp)

0000000080003188 <i_3035>:
    80003188:	02c15a83          	lhu	s5,44(sp)

000000008000318c <i_3036>:
    8000318c:	ebd14403          	lbu	s0,-323(sp)

0000000080003190 <i_3037>:
    80003190:	004f6a63          	bltu	t5,tp,800031a4 <i_3042>

0000000080003194 <i_3038>:
    80003194:	028accb3          	div	s9,s5,s0

0000000080003198 <i_3039>:
    80003198:	0f912623          	sw	s9,236(sp)

000000008000319c <i_3040>:
    8000319c:	28b46237          	lui	tp,0x28b46

00000000800031a0 <i_3041>:
    800031a0:	0d811523          	sh	s8,202(sp)

00000000800031a4 <i_3042>:
    800031a4:	05810ba3          	sb	s8,87(sp)

00000000800031a8 <i_3043>:
    800031a8:	00000013          	nop

00000000800031ac <i_3044>:
    800031ac:	fd513023          	sd	s5,-64(sp)

00000000800031b0 <i_3045>:
    800031b0:	7d200c13          	li	s8,2002

00000000800031b4 <i_3046>:
    800031b4:	7e000e93          	li	t4,2016

00000000800031b8 <i_3047>:
    800031b8:	00ece663          	bltu	s9,a4,800031c4 <i_3050>

00000000800031bc <i_3048>:
    800031bc:	f3610023          	sb	s6,-224(sp)

00000000800031c0 <i_3049>:
    800031c0:	0bd12a23          	sw	t4,180(sp)

00000000800031c4 <i_3050>:
    800031c4:	ec510803          	lb	a6,-315(sp)

00000000800031c8 <i_3051>:
    800031c8:	01400b13          	li	s6,20

00000000800031cc <i_3052>:
    800031cc:	016ddb33          	srl	s6,s11,s6

00000000800031d0 <i_3053>:
    800031d0:	1e013d83          	ld	s11,480(sp)

00000000800031d4 <i_3054>:
    800031d4:	004c1813          	slli	a6,s8,0x4

00000000800031d8 <i_3055>:
    800031d8:	f6c12303          	lw	t1,-148(sp)

00000000800031dc <i_3056>:
    800031dc:	1be15583          	lhu	a1,446(sp)

00000000800031e0 <i_3057>:
    800031e0:	018c0ab3          	add	s5,s8,s8

00000000800031e4 <i_3058>:
    800031e4:	95536193          	ori	gp,t1,-1707

00000000800031e8 <i_3059>:
    800031e8:	00000013          	nop

00000000800031ec <i_3060>:
    800031ec:	001c0c13          	addi	s8,s8,1 # 6cf9cd19 <main-0x130632e7>
    800031f0:	fd8ed4e3          	ble	s8,t4,800031b8 <i_3047>

00000000800031f4 <i_3061>:
    800031f4:	e5611803          	lh	a6,-426(sp)

00000000800031f8 <i_3062>:
    800031f8:	01051e63          	bne	a0,a6,80003214 <i_3069>

00000000800031fc <i_3063>:
    800031fc:	02386463          	bltu	a6,gp,80003224 <i_3073>

0000000080003200 <i_3064>:
    80003200:	15812803          	lw	a6,344(sp)

0000000080003204 <i_3065>:
    80003204:	e6c16583          	lwu	a1,-404(sp)

0000000080003208 <i_3066>:
    80003208:	03a5c5bb          	divw	a1,a1,s10

000000008000320c <i_3067>:
    8000320c:	03b00d13          	li	s10,59

0000000080003210 <i_3068>:
    80003210:	01ad5d33          	srl	s10,s10,s10

0000000080003214 <i_3069>:
    80003214:	15a12623          	sw	s10,332(sp)

0000000080003218 <i_3070>:
    80003218:	6a281e97          	auipc	t4,0x6a281

000000008000321c <i_3071>:
    8000321c:	03ad5833          	divu	a6,s10,s10

0000000080003220 <i_3072>:
    80003220:	00000013          	nop

0000000080003224 <i_3073>:
    80003224:	00000013          	nop

0000000080003228 <i_3074>:
    80003228:	0dcd0e9b          	addiw	t4,s10,220

000000008000322c <i_3075>:
    8000322c:	76c00193          	li	gp,1900

0000000080003230 <i_3076>:
    80003230:	77c00a93          	li	s5,1916

0000000080003234 <i_3077>:
    80003234:	09110e83          	lb	t4,145(sp)

0000000080003238 <i_3078>:
    80003238:	eec10e83          	lb	t4,-276(sp)

000000008000323c <i_3079>:
    8000323c:	03de5e33          	divu	t3,t3,t4

0000000080003240 <i_3080>:
    80003240:	03c87263          	bleu	t3,a6,80003264 <i_3088>

0000000080003244 <i_3081>:
    80003244:	03c83333          	mulhu	t1,a6,t3

0000000080003248 <i_3082>:
    80003248:	00841c63          	bne	s0,s0,80003260 <i_3087>

000000008000324c <i_3083>:
    8000324c:	00118193          	addi	gp,gp,1
    80003250:	ff51c2e3          	blt	gp,s5,80003234 <i_3077>

0000000080003254 <i_3084>:
    80003254:	f5c105a3          	sb	t3,-181(sp)

0000000080003258 <i_3085>:
    80003258:	03de2633          	mulhsu	a2,t3,t4

000000008000325c <i_3086>:
    8000325c:	01de1e63          	bne	t3,t4,80003278 <i_3093>

0000000080003260 <i_3087>:
    80003260:	01d13023          	sd	t4,0(sp)

0000000080003264 <i_3088>:
    80003264:	16313c23          	sd	gp,376(sp)

0000000080003268 <i_3089>:
    80003268:	01c66a63          	bltu	a2,t3,8000327c <i_3094>

000000008000326c <i_3090>:
    8000326c:	01c31263          	bne	t1,t3,80003270 <i_3091>

0000000080003270 <i_3091>:
    80003270:	00400993          	li	s3,4

0000000080003274 <i_3092>:
    80003274:	413e52b3          	sra	t0,t3,s3

0000000080003278 <i_3093>:
    80003278:	01ce8e63          	beq	t4,t3,80003294 <i_3100>

000000008000327c <i_3094>:
    8000327c:	008fd463          	ble	s0,t6,80003284 <i_3096>

0000000080003280 <i_3095>:
    80003280:	00571263          	bne	a4,t0,80003284 <i_3096>

0000000080003284 <i_3096>:
    80003284:	fdc10d23          	sb	t3,-38(sp)

0000000080003288 <i_3097>:
    80003288:	e2c10aa3          	sb	a2,-459(sp)

000000008000328c <i_3098>:
    8000328c:	5b542e13          	slti	t3,s0,1461

0000000080003290 <i_3099>:
    80003290:	02400e13          	li	t3,36

0000000080003294 <i_3100>:
    80003294:	01c99a33          	sll	s4,s3,t3

0000000080003298 <i_3101>:
    80003298:	f7013483          	ld	s1,-144(sp)

000000008000329c <i_3102>:
    8000329c:	011e6863          	bltu	t3,a7,800032ac <i_3106>

00000000800032a0 <i_3103>:
    800032a0:	01c91a63          	bne	s2,t3,800032b4 <i_3108>

00000000800032a4 <i_3104>:
    800032a4:	f7a10683          	lb	a3,-134(sp)

00000000800032a8 <i_3105>:
    800032a8:	03ce0263          	beq	t3,t3,800032cc <i_3114>

00000000800032ac <i_3106>:
    800032ac:	18813a83          	ld	s5,392(sp)

00000000800032b0 <i_3107>:
    800032b0:	0154a6b3          	slt	a3,s1,s5

00000000800032b4 <i_3108>:
    800032b4:	02c12a83          	lw	s5,44(sp)

00000000800032b8 <i_3109>:
    800032b8:	01da8eb3          	add	t4,s5,t4

00000000800032bc <i_3110>:
    800032bc:	0dd11f23          	sh	t4,222(sp)

00000000800032c0 <i_3111>:
    800032c0:	1b511423          	sh	s5,424(sp)

00000000800032c4 <i_3112>:
    800032c4:	015e8d33          	add	s10,t4,s5

00000000800032c8 <i_3113>:
    800032c8:	e8910ea3          	sb	s1,-355(sp)

00000000800032cc <i_3114>:
    800032cc:	02eb6db3          	rem	s11,s6,a4

00000000800032d0 <i_3115>:
    800032d0:	15c12d03          	lw	s10,348(sp)

00000000800032d4 <i_3116>:
    800032d4:	03becebb          	divw	t4,t4,s11

00000000800032d8 <i_3117>:
    800032d8:	007cfa63          	bleu	t2,s9,800032ec <i_3122>

00000000800032dc <i_3118>:
    800032dc:	f8215c83          	lhu	s9,-126(sp)

00000000800032e0 <i_3119>:
    800032e0:	971c8e93          	addi	t4,s9,-1679

00000000800032e4 <i_3120>:
    800032e4:	ebe10c83          	lb	s9,-322(sp)

00000000800032e8 <i_3121>:
    800032e8:	019ee663          	bltu	t4,s9,800032f4 <i_3124>

00000000800032ec <i_3122>:
    800032ec:	034ed463          	ble	s4,t4,80003314 <i_3132>

00000000800032f0 <i_3123>:
    800032f0:	01154c63          	blt	a0,a7,80003308 <i_3129>

00000000800032f4 <i_3124>:
    800032f4:	0ac14e83          	lbu	t4,172(sp)

00000000800032f8 <i_3125>:
    800032f8:	039e6a3b          	remw	s4,t3,s9

00000000800032fc <i_3126>:
    800032fc:	e7e15c83          	lhu	s9,-386(sp)

0000000080003300 <i_3127>:
    80003300:	2a267613          	andi	a2,a2,674

0000000080003304 <i_3128>:
    80003304:	00200813          	li	a6,2

0000000080003308 <i_3129>:
    80003308:	010a1c3b          	sllw	s8,s4,a6

000000008000330c <i_3130>:
    8000330c:	01000493          	li	s1,16

0000000080003310 <i_3131>:
    80003310:	009c9db3          	sll	s11,s9,s1

0000000080003314 <i_3132>:
    80003314:	f7911423          	sh	s9,-152(sp)

0000000080003318 <i_3133>:
    80003318:	edd14603          	lbu	a2,-291(sp)

000000008000331c <i_3134>:
    8000331c:	f1415603          	lhu	a2,-236(sp)

0000000080003320 <i_3135>:
    80003320:	e5013983          	ld	s3,-432(sp)

0000000080003324 <i_3136>:
    80003324:	010cc663          	blt	s9,a6,80003330 <i_3139>

0000000080003328 <i_3137>:
    80003328:	4106083b          	subw	a6,a2,a6

000000008000332c <i_3138>:
    8000332c:	e8615783          	lhu	a5,-378(sp)

0000000080003330 <i_3139>:
    80003330:	00f67c63          	bleu	a5,a2,80003348 <i_3145>

0000000080003334 <i_3140>:
    80003334:	e8013e03          	ld	t3,-384(sp)

0000000080003338 <i_3141>:
    80003338:	03064833          	div	a6,a2,a6

000000008000333c <i_3142>:
    8000333c:	f3284813          	xori	a6,a6,-206

0000000080003340 <i_3143>:
    80003340:	41ce09b3          	sub	s3,t3,t3

0000000080003344 <i_3144>:
    80003344:	03c64063          	blt	a2,t3,80003364 <i_3152>

0000000080003348 <i_3145>:
    80003348:	05c11c23          	sh	t3,88(sp)

000000008000334c <i_3146>:
    8000334c:	e4e109a3          	sb	a4,-429(sp)

0000000080003350 <i_3147>:
    80003350:	01c104a3          	sb	t3,9(sp)

0000000080003354 <i_3148>:
    80003354:	db98b237          	lui	tp,0xdb98b

0000000080003358 <i_3149>:
    80003358:	18b11023          	sh	a1,384(sp)

000000008000335c <i_3150>:
    8000335c:	00000013          	nop

0000000080003360 <i_3151>:
    80003360:	0fc11623          	sh	t3,236(sp)

0000000080003364 <i_3152>:
    80003364:	04410fa3          	sb	tp,95(sp)

0000000080003368 <i_3153>:
    80003368:	fe912023          	sw	s1,-32(sp)

000000008000336c <i_3154>:
    8000336c:	74900e13          	li	t3,1865

0000000080003370 <i_3155>:
    80003370:	74d00793          	li	a5,1869

0000000080003374 <i_3156>:
    80003374:	0244d4bb          	divuw	s1,s1,tp

0000000080003378 <i_3157>:
    80003378:	00000013          	nop

000000008000337c <i_3158>:
    8000337c:	0b615483          	lhu	s1,182(sp)

0000000080003380 <i_3159>:
    80003380:	01013083          	ld	ra,16(sp)

0000000080003384 <i_3160>:
    80003384:	0e513423          	sd	t0,232(sp)

0000000080003388 <i_3161>:
    80003388:	03949cb3          	mulh	s9,s1,s9

000000008000338c <i_3162>:
    8000338c:	0094de63          	ble	s1,s1,800033a8 <i_3168>

0000000080003390 <i_3163>:
    80003390:	0c912a23          	sw	s1,212(sp)

0000000080003394 <i_3164>:
    80003394:	03000593          	li	a1,48

0000000080003398 <i_3165>:
    80003398:	40b4d4b3          	sra	s1,s1,a1

000000008000339c <i_3166>:
    8000339c:	001e0e13          	addi	t3,t3,1 # ffffffffdb77e001 <_end+0xffffffff5b76dbed>
    800033a0:	fcfe6ae3          	bltu	t3,a5,80003374 <i_3156>

00000000800033a4 <i_3167>:
    800033a4:	00b10ea3          	sb	a1,29(sp)

00000000800033a8 <i_3168>:
    800033a8:	ee913823          	sd	s1,-272(sp)

00000000800033ac <i_3169>:
    800033ac:	03e15e03          	lhu	t3,62(sp)

00000000800033b0 <i_3170>:
    800033b0:	ed811a83          	lh	s5,-296(sp)

00000000800033b4 <i_3171>:
    800033b4:	1f511423          	sh	s5,488(sp)

00000000800033b8 <i_3172>:
    800033b8:	409e04bb          	subw	s1,t3,s1

00000000800033bc <i_3173>:
    800033bc:	ee912423          	sw	s1,-280(sp)

00000000800033c0 <i_3174>:
    800033c0:	18013e03          	ld	t3,384(sp)

00000000800033c4 <i_3175>:
    800033c4:	01caee63          	bltu	s5,t3,800033e0 <i_3182>

00000000800033c8 <i_3176>:
    800033c8:	f0411523          	sh	tp,-246(sp)

00000000800033cc <i_3177>:
    800033cc:	03ce2e33          	mulhsu	t3,t3,t3

00000000800033d0 <i_3178>:
    800033d0:	03ce44bb          	divw	s1,t3,t3

00000000800033d4 <i_3179>:
    800033d4:	01100e13          	li	t3,17

00000000800033d8 <i_3180>:
    800033d8:	41ce5e3b          	sraw	t3,t3,t3

00000000800033dc <i_3181>:
    800033dc:	009e6263          	bltu	t3,s1,800033e0 <i_3182>

00000000800033e0 <i_3182>:
    800033e0:	0024d813          	srli	a6,s1,0x2

00000000800033e4 <i_3183>:
    800033e4:	110109a3          	sb	a6,275(sp)

00000000800033e8 <i_3184>:
    800033e8:	11211a83          	lh	s5,274(sp)

00000000800033ec <i_3185>:
    800033ec:	01afee33          	or	t3,t6,s10

00000000800033f0 <i_3186>:
    800033f0:	03be54b3          	divu	s1,t3,s11

00000000800033f4 <i_3187>:
    800033f4:	03cddd33          	divu	s10,s11,t3

00000000800033f8 <i_3188>:
    800033f8:	f6416d03          	lwu	s10,-156(sp)

00000000800033fc <i_3189>:
    800033fc:	09a11023          	sh	s10,128(sp)

0000000080003400 <i_3190>:
    80003400:	edc13423          	sd	t3,-312(sp)

0000000080003404 <i_3191>:
    80003404:	ffc16683          	lwu	a3,-4(sp)

0000000080003408 <i_3192>:
    80003408:	4b1f4f13          	xori	t5,t5,1201

000000008000340c <i_3193>:
    8000340c:	f0914403          	lbu	s0,-247(sp)

0000000080003410 <i_3194>:
    80003410:	0c911b23          	sh	s1,214(sp)

0000000080003414 <i_3195>:
    80003414:	01a68463          	beq	a3,s10,8000341c <i_3197>

0000000080003418 <i_3196>:
    80003418:	aa8a44b7          	lui	s1,0xaa8a4

000000008000341c <i_3197>:
    8000341c:	029ce533          	rem	a0,s9,s1

0000000080003420 <i_3198>:
    80003420:	e5d11a23          	sh	t4,-428(sp)

0000000080003424 <i_3199>:
    80003424:	00855663          	ble	s0,a0,80003430 <i_3202>

0000000080003428 <i_3200>:
    80003428:	00000013          	nop

000000008000342c <i_3201>:
    8000342c:	00000013          	nop

0000000080003430 <i_3202>:
    80003430:	00000013          	nop

0000000080003434 <i_3203>:
    80003434:	01ce6e33          	or	t3,t3,t3

0000000080003438 <i_3204>:
    80003438:	8be00593          	li	a1,-1858

000000008000343c <i_3205>:
    8000343c:	8c200413          	li	s0,-1854

0000000080003440 <i_3206>:
    80003440:	01c40c63          	beq	s0,t3,80003458 <i_3212>

0000000080003444 <i_3207>:
    80003444:	02845e33          	divu	t3,s0,s0

0000000080003448 <i_3208>:
    80003448:	014686b3          	add	a3,a3,s4

000000008000344c <i_3209>:
    8000344c:	00969463          	bne	a3,s1,80003454 <i_3211>

0000000080003450 <i_3210>:
    80003450:	f7314a03          	lbu	s4,-141(sp)

0000000080003454 <i_3211>:
    80003454:	00d11523          	sh	a3,10(sp)

0000000080003458 <i_3212>:
    80003458:	fad13c23          	sd	a3,-72(sp)

000000008000345c <i_3213>:
    8000345c:	e2c12683          	lw	a3,-468(sp)

0000000080003460 <i_3214>:
    80003460:	00158593          	addi	a1,a1,1
    80003464:	fcb47ee3          	bleu	a1,s0,80003440 <i_3206>

0000000080003468 <i_3215>:
    80003468:	00000013          	nop

000000008000346c <i_3216>:
    8000346c:	fad13c23          	sd	a3,-72(sp)

0000000080003470 <i_3217>:
    80003470:	7fa00813          	li	a6,2042

0000000080003474 <i_3218>:
    80003474:	7fd00693          	li	a3,2045

0000000080003478 <i_3219>:
    80003478:	4046da1b          	sraiw	s4,a3,0x4

000000008000347c <i_3220>:
    8000347c:	eb812283          	lw	t0,-328(sp)

0000000080003480 <i_3221>:
    80003480:	17013a03          	ld	s4,368(sp)

0000000080003484 <i_3222>:
    80003484:	00000013          	nop

0000000080003488 <i_3223>:
    80003488:	08611283          	lh	t0,134(sp)

000000008000348c <i_3224>:
    8000348c:	07411e23          	sh	s4,124(sp)

0000000080003490 <i_3225>:
    80003490:	0f813e83          	ld	t4,248(sp)

0000000080003494 <i_3226>:
    80003494:	00180813          	addi	a6,a6,1 # 208dc5d <main-0x7df723a3>
    80003498:	ff06d0e3          	ble	a6,a3,80003478 <i_3219>

000000008000349c <i_3227>:
    8000349c:	7a237297          	auipc	t0,0x7a237

00000000800034a0 <i_3228>:
    800034a0:	e3d13023          	sd	t4,-480(sp)

00000000800034a4 <i_3229>:
    800034a4:	03211b83          	lh	s7,50(sp)

00000000800034a8 <i_3230>:
    800034a8:	01dbc663          	blt	s7,t4,800034b4 <i_3233>

00000000800034ac <i_3231>:
    800034ac:	17713023          	sd	s7,352(sp)

00000000800034b0 <i_3232>:
    800034b0:	f3410023          	sb	s4,-224(sp)

00000000800034b4 <i_3233>:
    800034b4:	e5416383          	lwu	t2,-428(sp)

00000000800034b8 <i_3234>:
    800034b8:	404c5e9b          	sraiw	t4,s8,0x4

00000000800034bc <i_3235>:
    800034bc:	7aa00f13          	li	t5,1962

00000000800034c0 <i_3236>:
    800034c0:	7bc00b93          	li	s7,1980

00000000800034c4 <i_3237>:
    800034c4:	00000013          	nop

00000000800034c8 <i_3238>:
    800034c8:	00600793          	li	a5,6

00000000800034cc <i_3239>:
    800034cc:	00f15dbb          	srlw	s11,sp,a5

00000000800034d0 <i_3240>:
    800034d0:	78600a93          	li	s5,1926

00000000800034d4 <i_3241>:
    800034d4:	79200c13          	li	s8,1938

00000000800034d8 <i_3242>:
    800034d8:	001a8a93          	addi	s5,s5,1 # 79858bd5 <main-0x67a742b>
    800034dc:	ff5c5ce3          	ble	s5,s8,800034d4 <i_3241>

00000000800034e0 <i_3243>:
    800034e0:	fb511923          	sh	s5,-78(sp)

00000000800034e4 <i_3244>:
    800034e4:	001f0f13          	addi	t5,t5,1
    800034e8:	fdebfee3          	bleu	t5,s7,800034c4 <i_3237>

00000000800034ec <i_3245>:
    800034ec:	fdd12823          	sw	t4,-48(sp)

00000000800034f0 <i_3246>:
    800034f0:	03dc1263          	bne	s8,t4,80003514 <i_3255>

00000000800034f4 <i_3247>:
    800034f4:	03d3e263          	bltu	t2,t4,80003518 <i_3256>

00000000800034f8 <i_3248>:
    800034f8:	4013d39b          	sraiw	t2,t2,0x1

00000000800034fc <i_3249>:
    800034fc:	0e814803          	lbu	a6,232(sp)

0000000080003500 <i_3250>:
    80003500:	f8013383          	ld	t2,-128(sp)

0000000080003504 <i_3251>:
    80003504:	03e11503          	lh	a0,62(sp)

0000000080003508 <i_3252>:
    80003508:	0163e533          	or	a0,t2,s6

000000008000350c <i_3253>:
    8000350c:	0b013603          	ld	a2,176(sp)

0000000080003510 <i_3254>:
    80003510:	03f155bb          	divuw	a1,sp,t6

0000000080003514 <i_3255>:
    80003514:	0041d21b          	srliw	tp,gp,0x4

0000000080003518 <i_3256>:
    80003518:	ea615d83          	lhu	s11,-346(sp)

000000008000351c <i_3257>:
    8000351c:	01b86263          	bltu	a6,s11,80003520 <i_3258>

0000000080003520 <i_3258>:
    80003520:	0275fe33          	remu	t3,a1,t2

0000000080003524 <i_3259>:
    80003524:	01c4ca63          	blt	s1,t3,80003538 <i_3264>

0000000080003528 <i_3260>:
    80003528:	007e4263          	blt	t3,t2,8000352c <i_3261>

000000008000352c <i_3261>:
    8000352c:	fe712023          	sw	t2,-32(sp)

0000000080003530 <i_3262>:
    80003530:	02c3c263          	blt	t2,a2,80003554 <i_3271>

0000000080003534 <i_3263>:
    80003534:	ebb10603          	lb	a2,-325(sp)

0000000080003538 <i_3264>:
    80003538:	157107a3          	sb	s7,335(sp)

000000008000353c <i_3265>:
    8000353c:	10c13023          	sd	a2,256(sp)

0000000080003540 <i_3266>:
    80003540:	e2c12e03          	lw	t3,-468(sp)

0000000080003544 <i_3267>:
    80003544:	12813b83          	ld	s7,296(sp)

0000000080003548 <i_3268>:
    80003548:	00ecfc63          	bleu	a4,s9,80003560 <i_3274>

000000008000354c <i_3269>:
    8000354c:	03914383          	lbu	t2,57(sp)

0000000080003550 <i_3270>:
    80003550:	03a8ca3b          	divw	s4,a7,s10

0000000080003554 <i_3271>:
    80003554:	16813a03          	ld	s4,360(sp)

0000000080003558 <i_3272>:
    80003558:	f2314d03          	lbu	s10,-221(sp)

000000008000355c <i_3273>:
    8000355c:	004d1a13          	slli	s4,s10,0x4

0000000080003560 <i_3274>:
    80003560:	03a5d9b3          	divu	s3,a1,s10

0000000080003564 <i_3275>:
    80003564:	00000013          	nop

0000000080003568 <i_3276>:
    80003568:	8c600813          	li	a6,-1850

000000008000356c <i_3277>:
    8000356c:	8d300a93          	li	s5,-1837

0000000080003570 <i_3278>:
    80003570:	415a8d3b          	subw	s10,s5,s5

0000000080003574 <i_3279>:
    80003574:	03ab7463          	bleu	s10,s6,8000359c <i_3289>

0000000080003578 <i_3280>:
    80003578:	01811d03          	lh	s10,24(sp)

000000008000357c <i_3281>:
    8000357c:	02c15d03          	lhu	s10,44(sp)

0000000080003580 <i_3282>:
    80003580:	e86d7d13          	andi	s10,s10,-378

0000000080003584 <i_3283>:
    80003584:	01a57463          	bleu	s10,a0,8000358c <i_3285>

0000000080003588 <i_3284>:
    80003588:	01a5e663          	bltu	a1,s10,80003594 <i_3287>

000000008000358c <i_3285>:
    8000358c:	ffa12623          	sw	s10,-20(sp)

0000000080003590 <i_3286>:
    80003590:	f8c15083          	lhu	ra,-116(sp)

0000000080003594 <i_3287>:
    80003594:	f1a12823          	sw	s10,-240(sp)

0000000080003598 <i_3288>:
    80003598:	895d061b          	addiw	a2,s10,-1899

000000008000359c <i_3289>:
    8000359c:	401d0e3b          	subw	t3,s10,ra

00000000800035a0 <i_3290>:
    800035a0:	02cdc663          	blt	s11,a2,800035cc <i_3300>

00000000800035a4 <i_3291>:
    800035a4:	00000013          	nop

00000000800035a8 <i_3292>:
    800035a8:	03c1e263          	bltu	gp,t3,800035cc <i_3300>

00000000800035ac <i_3293>:
    800035ac:	02c60d33          	mul	s10,a2,a2

00000000800035b0 <i_3294>:
    800035b0:	00180813          	addi	a6,a6,1
    800035b4:	fb586ee3          	bltu	a6,s5,80003570 <i_3278>

00000000800035b8 <i_3295>:
    800035b8:	1ec11123          	sh	a2,482(sp)

00000000800035bc <i_3296>:
    800035bc:	fd013b83          	ld	s7,-48(sp)

00000000800035c0 <i_3297>:
    800035c0:	628c3637          	lui	a2,0x628c3

00000000800035c4 <i_3298>:
    800035c4:	00200793          	li	a5,2

00000000800035c8 <i_3299>:
    800035c8:	00f6563b          	srlw	a2,a2,a5

00000000800035cc <i_3300>:
    800035cc:	09712423          	sw	s7,136(sp)

00000000800035d0 <i_3301>:
    800035d0:	02c66463          	bltu	a2,a2,800035f8 <i_3311>

00000000800035d4 <i_3302>:
    800035d4:	02fbf463          	bleu	a5,s7,800035fc <i_3312>

00000000800035d8 <i_3303>:
    800035d8:	c9f60e93          	addi	t4,a2,-865 # 628c2c9f <main-0x1d73d361>

00000000800035dc <i_3304>:
    800035dc:	12354a17          	auipc	s4,0x12354

00000000800035e0 <i_3305>:
    800035e0:	03412423          	sw	s4,40(sp)

00000000800035e4 <i_3306>:
    800035e4:	1cf12823          	sw	a5,464(sp)

00000000800035e8 <i_3307>:
    800035e8:	01400413          	li	s0,20

00000000800035ec <i_3308>:
    800035ec:	4086563b          	sraw	a2,a2,s0

00000000800035f0 <i_3309>:
    800035f0:	797ab2b7          	lui	t0,0x797ab

00000000800035f4 <i_3310>:
    800035f4:	03766063          	bltu	a2,s7,80003614 <i_3318>

00000000800035f8 <i_3311>:
    800035f8:	5782e293          	ori	t0,t0,1400

00000000800035fc <i_3312>:
    800035fc:	fdc16603          	lwu	a2,-36(sp)

0000000080003600 <i_3313>:
    80003600:	e5b10603          	lb	a2,-421(sp)

0000000080003604 <i_3314>:
    80003604:	f8c10a23          	sb	a2,-108(sp)

0000000080003608 <i_3315>:
    80003608:	0c813c03          	ld	s8,200(sp)

000000008000360c <i_3316>:
    8000360c:	15013783          	ld	a5,336(sp)

0000000080003610 <i_3317>:
    80003610:	1cc11723          	sh	a2,462(sp)

0000000080003614 <i_3318>:
    80003614:	03878263          	beq	a5,s8,80003638 <i_3327>

0000000080003618 <i_3319>:
    80003618:	0302c833          	div	a6,t0,a6

000000008000361c <i_3320>:
    8000361c:	00000013          	nop

0000000080003620 <i_3321>:
    80003620:	07814283          	lbu	t0,120(sp)

0000000080003624 <i_3322>:
    80003624:	f0016b83          	lwu	s7,-256(sp)

0000000080003628 <i_3323>:
    80003628:	00000013          	nop

000000008000362c <i_3324>:
    8000362c:	01011823          	sh	a6,16(sp)

0000000080003630 <i_3325>:
    80003630:	018786b3          	add	a3,a5,s8

0000000080003634 <i_3326>:
    80003634:	00000013          	nop

0000000080003638 <i_3327>:
    80003638:	e7816403          	lwu	s0,-392(sp)

000000008000363c <i_3328>:
    8000363c:	4087883b          	subw	a6,a5,s0

0000000080003640 <i_3329>:
    80003640:	81700e13          	li	t3,-2025

0000000080003644 <i_3330>:
    80003644:	82100c93          	li	s9,-2015

0000000080003648 <i_3331>:
    80003648:	fe412603          	lw	a2,-28(sp)

000000008000364c <i_3332>:
    8000364c:	02dbc263          	blt	s7,a3,80003670 <i_3340>

0000000080003650 <i_3333>:
    80003650:	4026d313          	srai	t1,a3,0x2

0000000080003654 <i_3334>:
    80003654:	faa14403          	lbu	s0,-86(sp)

0000000080003658 <i_3335>:
    80003658:	001e0e13          	addi	t3,t3,1
    8000365c:	ffccf6e3          	bleu	t3,s9,80003648 <i_3331>

0000000080003660 <i_3336>:
    80003660:	0ef12023          	sw	a5,224(sp)

0000000080003664 <i_3337>:
    80003664:	14013683          	ld	a3,320(sp)

0000000080003668 <i_3338>:
    80003668:	e6c11b23          	sh	a2,-394(sp)

000000008000366c <i_3339>:
    8000366c:	02c6b633          	mulhu	a2,a3,a2

0000000080003670 <i_3340>:
    80003670:	4aba831b          	addiw	t1,s5,1195

0000000080003674 <i_3341>:
    80003674:	e5813583          	ld	a1,-424(sp)

0000000080003678 <i_3342>:
    80003678:	f4013f03          	ld	t5,-192(sp)

000000008000367c <i_3343>:
    8000367c:	40cf853b          	subw	a0,t6,a2

0000000080003680 <i_3344>:
    80003680:	00d80a63          	beq	a6,a3,80003694 <i_3349>

0000000080003684 <i_3345>:
    80003684:	00c30263          	beq	t1,a2,80003688 <i_3346>

0000000080003688 <i_3346>:
    80003688:	0cb50693          	addi	a3,a0,203 # 4c0450cb <main-0x33fbaf35>

000000008000368c <i_3347>:
    8000368c:	00af4263          	blt	t5,a0,80003690 <i_3348>

0000000080003690 <i_3348>:
    80003690:	01ecf663          	bleu	t5,s9,8000369c <i_3351>

0000000080003694 <i_3349>:
    80003694:	f0816683          	lwu	a3,-248(sp)

0000000080003698 <i_3350>:
    80003698:	00af5e63          	ble	a0,t5,800036b4 <i_3357>

000000008000369c <i_3351>:
    8000369c:	01700213          	li	tp,23

00000000800036a0 <i_3352>:
    800036a0:	00451f3b          	sllw	t5,a0,tp

00000000800036a4 <i_3353>:
    800036a4:	fe412223          	sw	tp,-28(sp)

00000000800036a8 <i_3354>:
    800036a8:	0e215c83          	lhu	s9,226(sp)

00000000800036ac <i_3355>:
    800036ac:	09114503          	lbu	a0,145(sp)

00000000800036b0 <i_3356>:
    800036b0:	00000013          	nop

00000000800036b4 <i_3357>:
    800036b4:	00000013          	nop

00000000800036b8 <i_3358>:
    800036b8:	00000013          	nop

00000000800036bc <i_3359>:
    800036bc:	84700793          	li	a5,-1977

00000000800036c0 <i_3360>:
    800036c0:	85900f13          	li	t5,-1959

00000000800036c4 <i_3361>:
    800036c4:	0260e53b          	remw	a0,ra,t1

00000000800036c8 <i_3362>:
    800036c8:	00000013          	nop

00000000800036cc <i_3363>:
    800036cc:	86400313          	li	t1,-1948

00000000800036d0 <i_3364>:
    800036d0:	86900093          	li	ra,-1943

00000000800036d4 <i_3365>:
    800036d4:	00000013          	nop

00000000800036d8 <i_3366>:
    800036d8:	00130313          	addi	t1,t1,1
    800036dc:	fe60dce3          	ble	t1,ra,800036d4 <i_3365>

00000000800036e0 <i_3367>:
    800036e0:	f0a11323          	sh	a0,-250(sp)

00000000800036e4 <i_3368>:
    800036e4:	cb408313          	addi	t1,ra,-844

00000000800036e8 <i_3369>:
    800036e8:	00636b33          	or	s6,t1,t1

00000000800036ec <i_3370>:
    800036ec:	021b7063          	bleu	ra,s6,8000370c <i_3377>

00000000800036f0 <i_3371>:
    800036f0:	e6110b83          	lb	s7,-415(sp)

00000000800036f4 <i_3372>:
    800036f4:	00178793          	addi	a5,a5,1
    800036f8:	fde7e6e3          	bltu	a5,t5,800036c4 <i_3361>

00000000800036fc <i_3373>:
    800036fc:	e75b6093          	ori	ra,s6,-395

0000000080003700 <i_3374>:
    80003700:	181106a3          	sb	ra,397(sp)

0000000080003704 <i_3375>:
    80003704:	00000013          	nop

0000000080003708 <i_3376>:
    80003708:	19416083          	lwu	ra,404(sp)

000000008000370c <i_3377>:
    8000370c:	0e114a03          	lbu	s4,225(sp)

0000000080003710 <i_3378>:
    80003710:	402bda1b          	sraiw	s4,s7,0x2

0000000080003714 <i_3379>:
    80003714:	7b000d93          	li	s11,1968

0000000080003718 <i_3380>:
    80003718:	7c300b13          	li	s6,1987

000000008000371c <i_3381>:
    8000371c:	00000013          	nop

0000000080003720 <i_3382>:
    80003720:	11413823          	sd	s4,272(sp)

0000000080003724 <i_3383>:
    80003724:	74600093          	li	ra,1862

0000000080003728 <i_3384>:
    80003728:	75300b93          	li	s7,1875

000000008000372c <i_3385>:
    8000372c:	e2a11a83          	lh	s5,-470(sp)

0000000080003730 <i_3386>:
    80003730:	00108093          	addi	ra,ra,1
    80003734:	ff709ce3          	bne	ra,s7,8000372c <i_3385>

0000000080003738 <i_3387>:
    80003738:	00b00313          	li	t1,11

000000008000373c <i_3388>:
    8000373c:	00655533          	srl	a0,a0,t1

0000000080003740 <i_3389>:
    80003740:	001d8d93          	addi	s11,s11,1
    80003744:	fdbb5ce3          	ble	s11,s6,8000371c <i_3381>

0000000080003748 <i_3390>:
    80003748:	faa11123          	sh	a0,-94(sp)

000000008000374c <i_3391>:
    8000374c:	001b8263          	beq	s7,ra,80003750 <i_3392>

0000000080003750 <i_3392>:
    80003750:	12a13423          	sd	a0,296(sp)

0000000080003754 <i_3393>:
    80003754:	f6012e03          	lw	t3,-160(sp)

0000000080003758 <i_3394>:
    80003758:	03cbe063          	bltu	s7,t3,80003778 <i_3402>

000000008000375c <i_3395>:
    8000375c:	037df0bb          	remuw	ra,s11,s7

0000000080003760 <i_3396>:
    80003760:	00adec63          	bltu	s11,a0,80003778 <i_3402>

0000000080003764 <i_3397>:
    80003764:	0033109b          	slliw	ra,t1,0x3

0000000080003768 <i_3398>:
    80003768:	1d35e593          	ori	a1,a1,467

000000008000376c <i_3399>:
    8000376c:	0245a5b3          	mulhsu	a1,a1,tp

0000000080003770 <i_3400>:
    80003770:	00000013          	nop

0000000080003774 <i_3401>:
    80003774:	021269bb          	remw	s3,tp,ra

0000000080003778 <i_3402>:
    80003778:	0f412b83          	lw	s7,244(sp)

000000008000377c <i_3403>:
    8000377c:	00000013          	nop

0000000080003780 <i_3404>:
    80003780:	84e00313          	li	t1,-1970

0000000080003784 <i_3405>:
    80003784:	85d00513          	li	a0,-1955

0000000080003788 <i_3406>:
    80003788:	03712823          	sw	s7,48(sp)

000000008000378c <i_3407>:
    8000378c:	017080b3          	add	ra,ra,s7

0000000080003790 <i_3408>:
    80003790:	00130313          	addi	t1,t1,1
    80003794:	fea34ae3          	blt	t1,a0,80003788 <i_3406>

0000000080003798 <i_3409>:
    80003798:	fb313c23          	sd	s3,-72(sp)

000000008000379c <i_3410>:
    8000379c:	17c11a03          	lh	s4,380(sp)

00000000800037a0 <i_3411>:
    800037a0:	e4813503          	ld	a0,-440(sp)

00000000800037a4 <i_3412>:
    800037a4:	00000013          	nop

00000000800037a8 <i_3413>:
    800037a8:	402c5493          	srai	s1,s8,0x2

00000000800037ac <i_3414>:
    800037ac:	74800993          	li	s3,1864

00000000800037b0 <i_3415>:
    800037b0:	75b00a13          	li	s4,1883

00000000800037b4 <i_3416>:
    800037b4:	01449e63          	bne	s1,s4,800037d0 <i_3423>

00000000800037b8 <i_3417>:
    800037b8:	fe912623          	sw	s1,-20(sp)

00000000800037bc <i_3418>:
    800037bc:	01100813          	li	a6,17

00000000800037c0 <i_3419>:
    800037c0:	410451bb          	sraw	gp,s0,a6

00000000800037c4 <i_3420>:
    800037c4:	00800593          	li	a1,8

00000000800037c8 <i_3421>:
    800037c8:	40b1dd33          	sra	s10,gp,a1

00000000800037cc <i_3422>:
    800037cc:	4033569b          	sraiw	a3,t1,0x3

00000000800037d0 <i_3423>:
    800037d0:	14b11b23          	sh	a1,342(sp)

00000000800037d4 <i_3424>:
    800037d4:	1bc12503          	lw	a0,444(sp)

00000000800037d8 <i_3425>:
    800037d8:	7c200613          	li	a2,1986

00000000800037dc <i_3426>:
    800037dc:	7d100413          	li	s0,2001

00000000800037e0 <i_3427>:
    800037e0:	1c810283          	lb	t0,456(sp)

00000000800037e4 <i_3428>:
    800037e4:	00160613          	addi	a2,a2,1
    800037e8:	fec45ce3          	ble	a2,s0,800037e0 <i_3427>

00000000800037ec <i_3429>:
    800037ec:	40195693          	srai	a3,s2,0x1

00000000800037f0 <i_3430>:
    800037f0:	12012183          	lw	gp,288(sp)

00000000800037f4 <i_3431>:
    800037f4:	00198993          	addi	s3,s3,1
    800037f8:	fb3a5ee3          	ble	s3,s4,800037b4 <i_3416>

00000000800037fc <i_3432>:
    800037fc:	04310f23          	sb	gp,94(sp)

0000000080003800 <i_3433>:
    80003800:	ed012e03          	lw	t3,-304(sp)

0000000080003804 <i_3434>:
    80003804:	14811c83          	lh	s9,328(sp)

0000000080003808 <i_3435>:
    80003808:	00540833          	add	a6,s0,t0

000000008000380c <i_3436>:
    8000380c:	fb015403          	lhu	s0,-80(sp)

0000000080003810 <i_3437>:
    80003810:	0c811d23          	sh	s0,218(sp)

0000000080003814 <i_3438>:
    80003814:	00b00613          	li	a2,11

0000000080003818 <i_3439>:
    80003818:	00c656bb          	srlw	a3,a2,a2

000000008000381c <i_3440>:
    8000381c:	fec11c23          	sh	a2,-8(sp)

0000000080003820 <i_3441>:
    80003820:	09f14d03          	lbu	s10,159(sp)

0000000080003824 <i_3442>:
    80003824:	03a66633          	rem	a2,a2,s10

0000000080003828 <i_3443>:
    80003828:	01661e63          	bne	a2,s6,80003844 <i_3450>

000000008000382c <i_3444>:
    8000382c:	02c60063          	beq	a2,a2,8000384c <i_3452>

0000000080003830 <i_3445>:
    80003830:	014d4263          	blt	s10,s4,80003834 <i_3446>

0000000080003834 <i_3446>:
    80003834:	00c67263          	bleu	a2,a2,80003838 <i_3447>

0000000080003838 <i_3447>:
    80003838:	00500a13          	li	s4,5

000000008000383c <i_3448>:
    8000383c:	014d1a3b          	sllw	s4,s10,s4

0000000080003840 <i_3449>:
    80003840:	f5214d03          	lbu	s10,-174(sp)

0000000080003844 <i_3450>:
    80003844:	f0e11f03          	lh	t5,-242(sp)

0000000080003848 <i_3451>:
    80003848:	f1812f03          	lw	t5,-232(sp)

000000008000384c <i_3452>:
    8000384c:	034a29b3          	mulhsu	s3,s4,s4

0000000080003850 <i_3453>:
    80003850:	033a6463          	bltu	s4,s3,80003878 <i_3463>

0000000080003854 <i_3454>:
    80003854:	008f7e63          	bleu	s0,t5,80003870 <i_3461>

0000000080003858 <i_3455>:
    80003858:	16914b03          	lbu	s6,361(sp)

000000008000385c <i_3456>:
    8000385c:	01ef6463          	bltu	t5,t5,80003864 <i_3458>

0000000080003860 <i_3457>:
    80003860:	1d314f03          	lbu	t5,467(sp)

0000000080003864 <i_3458>:
    80003864:	e3311023          	sh	s3,-480(sp)

0000000080003868 <i_3459>:
    80003868:	02a00593          	li	a1,42

000000008000386c <i_3460>:
    8000386c:	00b314b3          	sll	s1,t1,a1

0000000080003870 <i_3461>:
    80003870:	00000013          	nop

0000000080003874 <i_3462>:
    80003874:	16615d03          	lhu	s10,358(sp)

0000000080003878 <i_3463>:
    80003878:	01636f33          	or	t5,t1,s6

000000008000387c <i_3464>:
    8000387c:	00000013          	nop

0000000080003880 <i_3465>:
    80003880:	75300313          	li	t1,1875

0000000080003884 <i_3466>:
    80003884:	75900993          	li	s3,1881

0000000080003888 <i_3467>:
    80003888:	01700813          	li	a6,23

000000008000388c <i_3468>:
    8000388c:	0108583b          	srlw	a6,a6,a6

0000000080003890 <i_3469>:
    80003890:	f7a107a3          	sb	s10,-145(sp)

0000000080003894 <i_3470>:
    80003894:	15011e23          	sh	a6,348(sp)

0000000080003898 <i_3471>:
    80003898:	03384663          	blt	a6,s3,800038c4 <i_3481>

000000008000389c <i_3472>:
    8000389c:	00000013          	nop

00000000800038a0 <i_3473>:
    800038a0:	0252d2bb          	divuw	t0,t0,t0

00000000800038a4 <i_3474>:
    800038a4:	ed813f03          	ld	t5,-296(sp)

00000000800038a8 <i_3475>:
    800038a8:	03025633          	divu	a2,tp,a6

00000000800038ac <i_3476>:
    800038ac:	1f011423          	sh	a6,488(sp)

00000000800038b0 <i_3477>:
    800038b0:	09010a23          	sb	a6,148(sp)

00000000800038b4 <i_3478>:
    800038b4:	00130313          	addi	t1,t1,1
    800038b8:	fc69d8e3          	ble	t1,s3,80003888 <i_3467>

00000000800038bc <i_3479>:
    800038bc:	01048833          	add	a6,s1,a6

00000000800038c0 <i_3480>:
    800038c0:	03381463          	bne	a6,s3,800038e8 <i_3490>

00000000800038c4 <i_3481>:
    800038c4:	00279493          	slli	s1,a5,0x2

00000000800038c8 <i_3482>:
    800038c8:	0e015d03          	lhu	s10,224(sp)

00000000800038cc <i_3483>:
    800038cc:	1a912e23          	sw	s1,444(sp)

00000000800038d0 <i_3484>:
    800038d0:	01086863          	bltu	a6,a6,800038e0 <i_3488>

00000000800038d4 <i_3485>:
    800038d4:	02918263          	beq	gp,s1,800038f8 <i_3494>

00000000800038d8 <i_3486>:
    800038d8:	e7312823          	sw	s3,-400(sp)

00000000800038dc <i_3487>:
    800038dc:	00984e63          	blt	a6,s1,800038f8 <i_3494>

00000000800038e0 <i_3488>:
    800038e0:	d554eb13          	ori	s6,s1,-683

00000000800038e4 <i_3489>:
    800038e4:	e2910aa3          	sb	s1,-459(sp)

00000000800038e8 <i_3490>:
    800038e8:	13c15a03          	lhu	s4,316(sp)

00000000800038ec <i_3491>:
    800038ec:	47a4ef13          	ori	t5,s1,1146

00000000800038f0 <i_3492>:
    800038f0:	0f614983          	lbu	s3,246(sp)

00000000800038f4 <i_3493>:
    800038f4:	f6812783          	lw	a5,-152(sp)

00000000800038f8 <i_3494>:
    800038f8:	19012483          	lw	s1,400(sp)

00000000800038fc <i_3495>:
    800038fc:	01100793          	li	a5,17

0000000080003900 <i_3496>:
    80003900:	00f71e3b          	sllw	t3,a4,a5

0000000080003904 <i_3497>:
    80003904:	01c9ee63          	bltu	s3,t3,80003920 <i_3504>

0000000080003908 <i_3498>:
    80003908:	00c00093          	li	ra,12

000000008000390c <i_3499>:
    8000390c:	001a5a3b          	srlw	s4,s4,ra

0000000080003910 <i_3500>:
    80003910:	0297d0b3          	divu	ra,a5,s1

0000000080003914 <i_3501>:
    80003914:	f8411a03          	lh	s4,-124(sp)

0000000080003918 <i_3502>:
    80003918:	037484bb          	mulw	s1,s1,s7

000000008000391c <i_3503>:
    8000391c:	51c4bc13          	sltiu	s8,s1,1308

0000000080003920 <i_3504>:
    80003920:	11314983          	lbu	s3,275(sp)

0000000080003924 <i_3505>:
    80003924:	4d09e493          	ori	s1,s3,1232

0000000080003928 <i_3506>:
    80003928:	7f200e13          	li	t3,2034

000000008000392c <i_3507>:
    8000392c:	7f600513          	li	a0,2038

0000000080003930 <i_3508>:
    80003930:	02948063          	beq	s1,s1,80003950 <i_3516>

0000000080003934 <i_3509>:
    80003934:	0297cc3b          	divw	s8,a5,s1

0000000080003938 <i_3510>:
    80003938:	e5a10c03          	lb	s8,-422(sp)

000000008000393c <i_3511>:
    8000393c:	fb310aa3          	sb	s3,-75(sp)

0000000080003940 <i_3512>:
    80003940:	0294e9b3          	rem	s3,s1,s1

0000000080003944 <i_3513>:
    80003944:	0096d263          	ble	s1,a3,80003948 <i_3514>

0000000080003948 <i_3514>:
    80003948:	f6710203          	lb	tp,-153(sp)

000000008000394c <i_3515>:
    8000394c:	0049d21b          	srliw	tp,s3,0x4

0000000080003950 <i_3516>:
    80003950:	033734b3          	mulhu	s1,a4,s3

0000000080003954 <i_3517>:
    80003954:	fa411423          	sh	tp,-88(sp)

0000000080003958 <i_3518>:
    80003958:	03320063          	beq	tp,s3,80003978 <i_3525>

000000008000395c <i_3519>:
    8000395c:	7de9099b          	addiw	s3,s2,2014

0000000080003960 <i_3520>:
    80003960:	001e0e13          	addi	t3,t3,1
    80003964:	fcae46e3          	blt	t3,a0,80003930 <i_3508>

0000000080003968 <i_3521>:
    80003968:	00013583          	ld	a1,0(sp)

000000008000396c <i_3522>:
    8000396c:	14b13823          	sd	a1,336(sp)

0000000080003970 <i_3523>:
    80003970:	02815203          	lhu	tp,40(sp)

0000000080003974 <i_3524>:
    80003974:	04c16583          	lwu	a1,76(sp)

0000000080003978 <i_3525>:
    80003978:	00b58e63          	beq	a1,a1,80003994 <i_3532>

000000008000397c <i_3526>:
    8000397c:	13816583          	lwu	a1,312(sp)

0000000080003980 <i_3527>:
    80003980:	e8013303          	ld	t1,-384(sp)

0000000080003984 <i_3528>:
    80003984:	18011d83          	lh	s11,384(sp)

0000000080003988 <i_3529>:
    80003988:	1c612023          	sw	t1,448(sp)

000000008000398c <i_3530>:
    8000398c:	02000093          	li	ra,32

0000000080003990 <i_3531>:
    80003990:	00125233          	srl	tp,tp,ra

0000000080003994 <i_3532>:
    80003994:	03b11463          	bne	sp,s11,800039bc <i_3542>

0000000080003998 <i_3533>:
    80003998:	ebc14e83          	lbu	t4,-324(sp)

000000008000399c <i_3534>:
    8000399c:	0022121b          	slliw	tp,tp,0x2

00000000800039a0 <i_3535>:
    800039a0:	0210c0bb          	divw	ra,ra,ra

00000000800039a4 <i_3536>:
    800039a4:	01412b03          	lw	s6,20(sp)

00000000800039a8 <i_3537>:
    800039a8:	00000013          	nop

00000000800039ac <i_3538>:
    800039ac:	12110083          	lb	ra,289(sp)

00000000800039b0 <i_3539>:
    800039b0:	04c12303          	lw	t1,76(sp)

00000000800039b4 <i_3540>:
    800039b4:	02200793          	li	a5,34

00000000800039b8 <i_3541>:
    800039b8:	00fe9eb3          	sll	t4,t4,a5

00000000800039bc <i_3542>:
    800039bc:	0013159b          	slliw	a1,t1,0x1

00000000800039c0 <i_3543>:
    800039c0:	f3813303          	ld	t1,-200(sp)

00000000800039c4 <i_3544>:
    800039c4:	7bc00d93          	li	s11,1980

00000000800039c8 <i_3545>:
    800039c8:	7c800a93          	li	s5,1992

00000000800039cc <i_3546>:
    800039cc:	1e611583          	lh	a1,486(sp)

00000000800039d0 <i_3547>:
    800039d0:	026706bb          	mulw	a3,a4,t1

00000000800039d4 <i_3548>:
    800039d4:	0043559b          	srliw	a1,t1,0x4

00000000800039d8 <i_3549>:
    800039d8:	02b6c463          	blt	a3,a1,80003a00 <i_3558>

00000000800039dc <i_3550>:
    800039dc:	02b79063          	bne	a5,a1,800039fc <i_3557>

00000000800039e0 <i_3551>:
    800039e0:	001d8d93          	addi	s11,s11,1
    800039e4:	ffbaf4e3          	bleu	s11,s5,800039cc <i_3546>

00000000800039e8 <i_3552>:
    800039e8:	02f5a7b3          	mulhsu	a5,a1,a5

00000000800039ec <i_3553>:
    800039ec:	82978d1b          	addiw	s10,a5,-2007

00000000800039f0 <i_3554>:
    800039f0:	e4711c23          	sh	t2,-424(sp)

00000000800039f4 <i_3555>:
    800039f4:	e0f10d23          	sb	a5,-486(sp)

00000000800039f8 <i_3556>:
    800039f8:	02f5c463          	blt	a1,a5,80003a20 <i_3566>

00000000800039fc <i_3557>:
    800039fc:	9de36213          	ori	tp,t1,-1570

0000000080003a00 <i_3558>:
    80003a00:	eab14d03          	lbu	s10,-341(sp)

0000000080003a04 <i_3559>:
    80003a04:	02b127b3          	mulhsu	a5,sp,a1

0000000080003a08 <i_3560>:
    80003a08:	001d1793          	slli	a5,s10,0x1

0000000080003a0c <i_3561>:
    80003a0c:	bc9b9637          	lui	a2,0xbc9b9

0000000080003a10 <i_3562>:
    80003a10:	41ad0d3b          	subw	s10,s10,s10

0000000080003a14 <i_3563>:
    80003a14:	0f610a83          	lb	s5,246(sp)

0000000080003a18 <i_3564>:
    80003a18:	00000013          	nop

0000000080003a1c <i_3565>:
    80003a1c:	00000013          	nop

0000000080003a20 <i_3566>:
    80003a20:	00000013          	nop

0000000080003a24 <i_3567>:
    80003a24:	62f2081b          	addiw	a6,tp,1583

0000000080003a28 <i_3568>:
    80003a28:	8c900513          	li	a0,-1847

0000000080003a2c <i_3569>:
    80003a2c:	8d500593          	li	a1,-1835

0000000080003a30 <i_3570>:
    80003a30:	00000013          	nop

0000000080003a34 <i_3571>:
    80003a34:	53a76d13          	ori	s10,a4,1338

0000000080003a38 <i_3572>:
    80003a38:	00480463          	beq	a6,tp,80003a40 <i_3574>

0000000080003a3c <i_3573>:
    80003a3c:	03586263          	bltu	a6,s5,80003a60 <i_3581>

0000000080003a40 <i_3574>:
    80003a40:	01a66c63          	bltu	a2,s10,80003a58 <i_3579>

0000000080003a44 <i_3575>:
    80003a44:	00000013          	nop

0000000080003a48 <i_3576>:
    80003a48:	00150513          	addi	a0,a0,1
    80003a4c:	feb542e3          	blt	a0,a1,80003a30 <i_3570>

0000000080003a50 <i_3577>:
    80003a50:	05710803          	lb	a6,87(sp)

0000000080003a54 <i_3578>:
    80003a54:	42764613          	xori	a2,a2,1063

0000000080003a58 <i_3579>:
    80003a58:	40385a13          	srai	s4,a6,0x3

0000000080003a5c <i_3580>:
    80003a5c:	02c844b3          	div	s1,a6,a2

0000000080003a60 <i_3581>:
    80003a60:	f6114a83          	lbu	s5,-159(sp)

0000000080003a64 <i_3582>:
    80003a64:	00c12623          	sw	a2,12(sp)

0000000080003a68 <i_3583>:
    80003a68:	8a300693          	li	a3,-1885

0000000080003a6c <i_3584>:
    80003a6c:	8b300213          	li	tp,-1869

0000000080003a70 <i_3585>:
    80003a70:	00145b9b          	srliw	s7,s0,0x1

0000000080003a74 <i_3586>:
    80003a74:	002cd093          	srli	ra,s9,0x2

0000000080003a78 <i_3587>:
    80003a78:	81b00e93          	li	t4,-2021

0000000080003a7c <i_3588>:
    80003a7c:	82c00d13          	li	s10,-2004

0000000080003a80 <i_3589>:
    80003a80:	0094a4b3          	slt	s1,s1,s1

0000000080003a84 <i_3590>:
    80003a84:	4013d793          	srai	a5,t2,0x1

0000000080003a88 <i_3591>:
    80003a88:	001e8e93          	addi	t4,t4,1 # ea284219 <_end+0x6a273e05>
    80003a8c:	ffaecae3          	blt	t4,s10,80003a80 <i_3589>

0000000080003a90 <i_3592>:
    80003a90:	029ed663          	ble	s1,t4,80003abc <i_3602>

0000000080003a94 <i_3593>:
    80003a94:	00000013          	nop

0000000080003a98 <i_3594>:
    80003a98:	10016483          	lwu	s1,256(sp)

0000000080003a9c <i_3595>:
    80003a9c:	00fe6e33          	or	t3,t3,a5

0000000080003aa0 <i_3596>:
    80003aa0:	00168693          	addi	a3,a3,1
    80003aa4:	fcd276e3          	bleu	a3,tp,80003a70 <i_3585>

0000000080003aa8 <i_3597>:
    80003aa8:	17611e03          	lh	t3,374(sp)

0000000080003aac <i_3598>:
    80003aac:	19c15783          	lhu	a5,412(sp)

0000000080003ab0 <i_3599>:
    80003ab0:	02fe0e3b          	mulw	t3,t3,a5

0000000080003ab4 <i_3600>:
    80003ab4:	022e1e33          	mulh	t3,t3,sp

0000000080003ab8 <i_3601>:
    80003ab8:	03cc4e33          	div	t3,s8,t3

0000000080003abc <i_3602>:
    80003abc:	018e5c63          	ble	s8,t3,80003ad4 <i_3608>

0000000080003ac0 <i_3603>:
    80003ac0:	03ce1463          	bne	t3,t3,80003ae8 <i_3613>

0000000080003ac4 <i_3604>:
    80003ac4:	00f21463          	bne	tp,a5,80003acc <i_3606>

0000000080003ac8 <i_3605>:
    80003ac8:	00fe6863          	bltu	t3,a5,80003ad8 <i_3609>

0000000080003acc <i_3606>:
    80003acc:	fd012483          	lw	s1,-48(sp)

0000000080003ad0 <i_3607>:
    80003ad0:	17013e03          	ld	t3,368(sp)

0000000080003ad4 <i_3608>:
    80003ad4:	01816e03          	lwu	t3,24(sp)

0000000080003ad8 <i_3609>:
    80003ad8:	ee816783          	lwu	a5,-280(sp)

0000000080003adc <i_3610>:
    80003adc:	00f4d263          	ble	a5,s1,80003ae0 <i_3611>

0000000080003ae0 <i_3611>:
    80003ae0:	f4013e03          	ld	t3,-192(sp)

0000000080003ae4 <i_3612>:
    80003ae4:	00948e33          	add	t3,s1,s1

0000000080003ae8 <i_3613>:
    80003ae8:	efc11923          	sh	t3,-270(sp)

0000000080003aec <i_3614>:
    80003aec:	02fc5263          	ble	a5,s8,80003b10 <i_3623>

0000000080003af0 <i_3615>:
    80003af0:	f6714c83          	lbu	s9,-153(sp)

0000000080003af4 <i_3616>:
    80003af4:	a7778793          	addi	a5,a5,-1417

0000000080003af8 <i_3617>:
    80003af8:	03996263          	bltu	s2,s9,80003b1c <i_3626>

0000000080003afc <i_3618>:
    80003afc:	00c7cab3          	xor	s5,a5,a2

0000000080003b00 <i_3619>:
    80003b00:	f1411a83          	lh	s5,-236(sp)

0000000080003b04 <i_3620>:
    80003b04:	c8bc8c9b          	addiw	s9,s9,-885

0000000080003b08 <i_3621>:
    80003b08:	03579bb3          	mulh	s7,a5,s5

0000000080003b0c <i_3622>:
    80003b0c:	02c00a13          	li	s4,44

0000000080003b10 <i_3623>:
    80003b10:	4142d0b3          	sra	ra,t0,s4

0000000080003b14 <i_3624>:
    80003b14:	f9412e23          	sw	s4,-100(sp)

0000000080003b18 <i_3625>:
    80003b18:	e7510a03          	lb	s4,-395(sp)

0000000080003b1c <i_3626>:
    80003b1c:	e6e15a03          	lhu	s4,-402(sp)

0000000080003b20 <i_3627>:
    80003b20:	00000013          	nop

0000000080003b24 <i_3628>:
    80003b24:	7ee00793          	li	a5,2030

0000000080003b28 <i_3629>:
    80003b28:	7f500e13          	li	t3,2037

0000000080003b2c <i_3630>:
    80003b2c:	161106a3          	sb	ra,365(sp)

0000000080003b30 <i_3631>:
    80003b30:	03415083          	lhu	ra,52(sp)

0000000080003b34 <i_3632>:
    80003b34:	eb415a03          	lhu	s4,-332(sp)

0000000080003b38 <i_3633>:
    80003b38:	014a44b3          	xor	s1,s4,s4

0000000080003b3c <i_3634>:
    80003b3c:	1ec13023          	sd	a2,480(sp)

0000000080003b40 <i_3635>:
    80003b40:	f9714a03          	lbu	s4,-105(sp)

0000000080003b44 <i_3636>:
    80003b44:	0144ca33          	xor	s4,s1,s4

0000000080003b48 <i_3637>:
    80003b48:	00178793          	addi	a5,a5,1
    80003b4c:	ffc7e0e3          	bltu	a5,t3,80003b2c <i_3630>

0000000080003b50 <i_3638>:
    80003b50:	034c9cb3          	mulh	s9,s9,s4

0000000080003b54 <i_3639>:
    80003b54:	014cf663          	bleu	s4,s9,80003b60 <i_3642>

0000000080003b58 <i_3640>:
    80003b58:	03908a3b          	mulw	s4,ra,s9

0000000080003b5c <i_3641>:
    80003b5c:	fa015a03          	lhu	s4,-96(sp)

0000000080003b60 <i_3642>:
    80003b60:	04211403          	lh	s0,66(sp)

0000000080003b64 <i_3643>:
    80003b64:	ef412623          	sw	s4,-276(sp)

0000000080003b68 <i_3644>:
    80003b68:	88800c93          	li	s9,-1912

0000000080003b6c <i_3645>:
    80003b6c:	89a00093          	li	ra,-1894

0000000080003b70 <i_3646>:
    80003b70:	e2110a03          	lb	s4,-479(sp)

0000000080003b74 <i_3647>:
    80003b74:	01609463          	bne	ra,s6,80003b7c <i_3649>

0000000080003b78 <i_3648>:
    80003b78:	18813b03          	ld	s6,392(sp)

0000000080003b7c <i_3649>:
    80003b7c:	0166c6b3          	xor	a3,a3,s6

0000000080003b80 <i_3650>:
    80003b80:	04110803          	lb	a6,65(sp)

0000000080003b84 <i_3651>:
    80003b84:	02a41663          	bne	s0,a0,80003bb0 <i_3661>

0000000080003b88 <i_3652>:
    80003b88:	1d713823          	sd	s7,464(sp)

0000000080003b8c <i_3653>:
    80003b8c:	00000013          	nop

0000000080003b90 <i_3654>:
    80003b90:	fb412503          	lw	a0,-76(sp)

0000000080003b94 <i_3655>:
    80003b94:	02d6d263          	ble	a3,a3,80003bb8 <i_3663>

0000000080003b98 <i_3656>:
    80003b98:	001c8c93          	addi	s9,s9,1
    80003b9c:	fc1ccae3          	blt	s9,ra,80003b70 <i_3646>

0000000080003ba0 <i_3657>:
    80003ba0:	00a801b3          	add	gp,a6,a0

0000000080003ba4 <i_3658>:
    80003ba4:	40350233          	sub	tp,a0,gp

0000000080003ba8 <i_3659>:
    80003ba8:	e5914503          	lbu	a0,-423(sp)

0000000080003bac <i_3660>:
    80003bac:	00000013          	nop

0000000080003bb0 <i_3661>:
    80003bb0:	08410483          	lb	s1,132(sp)

0000000080003bb4 <i_3662>:
    80003bb4:	00385d9b          	srliw	s11,a6,0x3

0000000080003bb8 <i_3663>:
    80003bb8:	eaa13423          	sd	a0,-344(sp)

0000000080003bbc <i_3664>:
    80003bbc:	03d00d93          	li	s11,61

0000000080003bc0 <i_3665>:
    80003bc0:	01be5233          	srl	tp,t3,s11

0000000080003bc4 <i_3666>:
    80003bc4:	87b00813          	li	a6,-1925

0000000080003bc8 <i_3667>:
    80003bc8:	88900693          	li	a3,-1911

0000000080003bcc <i_3668>:
    80003bcc:	00180813          	addi	a6,a6,1
    80003bd0:	fed81ce3          	bne	a6,a3,80003bc8 <i_3667>

0000000080003bd4 <i_3669>:
    80003bd4:	0231c063          	blt	gp,gp,80003bf4 <i_3677>

0000000080003bd8 <i_3670>:
    80003bd8:	02dd86bb          	mulw	a3,s11,a3

0000000080003bdc <i_3671>:
    80003bdc:	03bd85b3          	mul	a1,s11,s11

0000000080003be0 <i_3672>:
    80003be0:	eec16503          	lwu	a0,-276(sp)

0000000080003be4 <i_3673>:
    80003be4:	e2411423          	sh	tp,-472(sp)

0000000080003be8 <i_3674>:
    80003be8:	f9e11d03          	lh	s10,-98(sp)

0000000080003bec <i_3675>:
    80003bec:	00ad4233          	xor	tp,s10,a0

0000000080003bf0 <i_3676>:
    80003bf0:	00000013          	nop

0000000080003bf4 <i_3677>:
    80003bf4:	00000013          	nop

0000000080003bf8 <i_3678>:
    80003bf8:	03ad3d33          	mulhu	s10,s10,s10

0000000080003bfc <i_3679>:
    80003bfc:	8c800293          	li	t0,-1848

0000000080003c00 <i_3680>:
    80003c00:	8d600c93          	li	s9,-1834

0000000080003c04 <i_3681>:
    80003c04:	806d7e13          	andi	t3,s10,-2042

0000000080003c08 <i_3682>:
    80003c08:	00000013          	nop

0000000080003c0c <i_3683>:
    80003c0c:	024d6263          	bltu	s10,tp,80003c30 <i_3691>

0000000080003c10 <i_3684>:
    80003c10:	00128293          	addi	t0,t0,1 # 797ab001 <main-0x6854fff>
    80003c14:	ff92e8e3          	bltu	t0,s9,80003c04 <i_3681>

0000000080003c18 <i_3685>:
    80003c18:	ea812683          	lw	a3,-344(sp)

0000000080003c1c <i_3686>:
    80003c1c:	ffc10123          	sb	t3,-30(sp)

0000000080003c20 <i_3687>:
    80003c20:	f8011683          	lh	a3,-128(sp)

0000000080003c24 <i_3688>:
    80003c24:	f2b14c83          	lbu	s9,-213(sp)

0000000080003c28 <i_3689>:
    80003c28:	10c16683          	lwu	a3,268(sp)

0000000080003c2c <i_3690>:
    80003c2c:	00d11923          	sh	a3,18(sp)

0000000080003c30 <i_3691>:
    80003c30:	017cbbb3          	sltu	s7,s9,s7

0000000080003c34 <i_3692>:
    80003c34:	05410f03          	lb	t5,84(sp)

0000000080003c38 <i_3693>:
    80003c38:	037f05b3          	mul	a1,t5,s7

0000000080003c3c <i_3694>:
    80003c3c:	fa011b83          	lh	s7,-96(sp)

0000000080003c40 <i_3695>:
    80003c40:	f7e11923          	sh	t5,-142(sp)

0000000080003c44 <i_3696>:
    80003c44:	85c00793          	li	a5,-1956

0000000080003c48 <i_3697>:
    80003c48:	86000f13          	li	t5,-1952

0000000080003c4c <i_3698>:
    80003c4c:	00000013          	nop

0000000080003c50 <i_3699>:
    80003c50:	41eb8333          	sub	t1,s7,t5

0000000080003c54 <i_3700>:
    80003c54:	12c12803          	lw	a6,300(sp)

0000000080003c58 <i_3701>:
    80003c58:	f4114e03          	lbu	t3,-191(sp)

0000000080003c5c <i_3702>:
    80003c5c:	00178793          	addi	a5,a5,1
    80003c60:	feff56e3          	ble	a5,t5,80003c4c <i_3698>

0000000080003c64 <i_3703>:
    80003c64:	1b816b83          	lwu	s7,440(sp)

0000000080003c68 <i_3704>:
    80003c68:	ea313423          	sd	gp,-344(sp)

0000000080003c6c <i_3705>:
    80003c6c:	0c613023          	sd	t1,192(sp)

0000000080003c70 <i_3706>:
    80003c70:	eac15a03          	lhu	s4,-340(sp)

0000000080003c74 <i_3707>:
    80003c74:	08813e03          	ld	t3,136(sp)

0000000080003c78 <i_3708>:
    80003c78:	00000013          	nop

0000000080003c7c <i_3709>:
    80003c7c:	15413023          	sd	s4,320(sp)

0000000080003c80 <i_3710>:
    80003c80:	79600313          	li	t1,1942

0000000080003c84 <i_3711>:
    80003c84:	79d00393          	li	t2,1949

0000000080003c88 <i_3712>:
    80003c88:	00130313          	addi	t1,t1,1
    80003c8c:	fe63dee3          	ble	t1,t2,80003c88 <i_3712>

0000000080003c90 <i_3713>:
    80003c90:	0fc11523          	sh	t3,234(sp)

0000000080003c94 <i_3714>:
    80003c94:	0143fe63          	bleu	s4,t2,80003cb0 <i_3721>

0000000080003c98 <i_3715>:
    80003c98:	1ca15183          	lhu	gp,458(sp)

0000000080003c9c <i_3716>:
    80003c9c:	00e00393          	li	t2,14

0000000080003ca0 <i_3717>:
    80003ca0:	0073d3bb          	srlw	t2,t2,t2

0000000080003ca4 <i_3718>:
    80003ca4:	14310523          	sb	gp,330(sp)

0000000080003ca8 <i_3719>:
    80003ca8:	ef812b83          	lw	s7,-264(sp)

0000000080003cac <i_3720>:
    80003cac:	e5816b83          	lwu	s7,-424(sp)

0000000080003cb0 <i_3721>:
    80003cb0:	0aa10203          	lb	tp,170(sp)

0000000080003cb4 <i_3722>:
    80003cb4:	e7514a03          	lbu	s4,-395(sp)

0000000080003cb8 <i_3723>:
    80003cb8:	0f211783          	lh	a5,242(sp)

0000000080003cbc <i_3724>:
    80003cbc:	fba14403          	lbu	s0,-70(sp)

0000000080003cc0 <i_3725>:
    80003cc0:	f3415b83          	lhu	s7,-204(sp)

0000000080003cc4 <i_3726>:
    80003cc4:	0c010283          	lb	t0,192(sp)

0000000080003cc8 <i_3727>:
    80003cc8:	f0412a03          	lw	s4,-252(sp)

0000000080003ccc <i_3728>:
    80003ccc:	f9712223          	sw	s7,-124(sp)

0000000080003cd0 <i_3729>:
    80003cd0:	005337b3          	sltu	a5,t1,t0

0000000080003cd4 <i_3730>:
    80003cd4:	0192dc63          	ble	s9,t0,80003cec <i_3736>

0000000080003cd8 <i_3731>:
    80003cd8:	00191293          	slli	t0,s2,0x1

0000000080003cdc <i_3732>:
    80003cdc:	13c13823          	sd	t3,304(sp)

0000000080003ce0 <i_3733>:
    80003ce0:	0257f063          	bleu	t0,a5,80003d00 <i_3741>

0000000080003ce4 <i_3734>:
    80003ce4:	f0016783          	lwu	a5,-256(sp)

0000000080003ce8 <i_3735>:
    80003ce8:	02f7e2b3          	rem	t0,a5,a5

0000000080003cec <i_3736>:
    80003cec:	1d10f093          	andi	ra,ra,465

0000000080003cf0 <i_3737>:
    80003cf0:	40528b33          	sub	s6,t0,t0

0000000080003cf4 <i_3738>:
    80003cf4:	5ca7bf13          	sltiu	t5,a5,1482

0000000080003cf8 <i_3739>:
    80003cf8:	1be14603          	lbu	a2,446(sp)

0000000080003cfc <i_3740>:
    80003cfc:	07a12823          	sw	s10,112(sp)

0000000080003d00 <i_3741>:
    80003d00:	18411e03          	lh	t3,388(sp)

0000000080003d04 <i_3742>:
    80003d04:	0047931b          	slliw	t1,a5,0x4

0000000080003d08 <i_3743>:
    80003d08:	8bd00793          	li	a5,-1859

0000000080003d0c <i_3744>:
    80003d0c:	8bf00493          	li	s1,-1857

0000000080003d10 <i_3745>:
    80003d10:	006e7d33          	and	s10,t3,t1

0000000080003d14 <i_3746>:
    80003d14:	19d14403          	lbu	s0,413(sp)

0000000080003d18 <i_3747>:
    80003d18:	01ad4c63          	blt	s10,s10,80003d30 <i_3752>

0000000080003d1c <i_3748>:
    80003d1c:	00178793          	addi	a5,a5,1
    80003d20:	fef4f8e3          	bleu	a5,s1,80003d10 <i_3745>

0000000080003d24 <i_3749>:
    80003d24:	e5c11a83          	lh	s5,-420(sp)

0000000080003d28 <i_3750>:
    80003d28:	fca14d03          	lbu	s10,-54(sp)

0000000080003d2c <i_3751>:
    80003d2c:	035ad463          	ble	s5,s5,80003d54 <i_3761>

0000000080003d30 <i_3752>:
    80003d30:	190e3e13          	sltiu	t3,t3,400

0000000080003d34 <i_3753>:
    80003d34:	11c10823          	sb	t3,272(sp)

0000000080003d38 <i_3754>:
    80003d38:	0fa13423          	sd	s10,232(sp)

0000000080003d3c <i_3755>:
    80003d3c:	03caaab3          	mulhsu	s5,s5,t3

0000000080003d40 <i_3756>:
    80003d40:	efb14a83          	lbu	s5,-261(sp)

0000000080003d44 <i_3757>:
    80003d44:	01ad5263          	ble	s10,s10,80003d48 <i_3758>

0000000080003d48 <i_3758>:
    80003d48:	0f211d03          	lh	s10,242(sp)

0000000080003d4c <i_3759>:
    80003d4c:	015e8ab3          	add	s5,t4,s5

0000000080003d50 <i_3760>:
    80003d50:	ff210b03          	lb	s6,-14(sp)

0000000080003d54 <i_3761>:
    80003d54:	ed512623          	sw	s5,-308(sp)

0000000080003d58 <i_3762>:
    80003d58:	03c00a93          	li	s5,60

0000000080003d5c <i_3763>:
    80003d5c:	015a9ab3          	sll	s5,s5,s5

0000000080003d60 <i_3764>:
    80003d60:	00d3f863          	bleu	a3,t2,80003d70 <i_3768>

0000000080003d64 <i_3765>:
    80003d64:	ba824213          	xori	tp,tp,-1112

0000000080003d68 <i_3766>:
    80003d68:	f6813a83          	ld	s5,-152(sp)

0000000080003d6c <i_3767>:
    80003d6c:	035aaab3          	mulhsu	s5,s5,s5

0000000080003d70 <i_3768>:
    80003d70:	00b25663          	ble	a1,tp,80003d7c <i_3771>

0000000080003d74 <i_3769>:
    80003d74:	02eadcbb          	divuw	s9,s5,a4

0000000080003d78 <i_3770>:
    80003d78:	ee811d83          	lh	s11,-280(sp)

0000000080003d7c <i_3771>:
    80003d7c:	e6e10a03          	lb	s4,-402(sp)

0000000080003d80 <i_3772>:
    80003d80:	fc110223          	sb	ra,-60(sp)

0000000080003d84 <i_3773>:
    80003d84:	414d84bb          	subw	s1,s11,s4

0000000080003d88 <i_3774>:
    80003d88:	e8910123          	sb	s1,-382(sp)

0000000080003d8c <i_3775>:
    80003d8c:	08414d83          	lbu	s11,132(sp)

0000000080003d90 <i_3776>:
    80003d90:	0294fcb3          	remu	s9,s1,s1

0000000080003d94 <i_3777>:
    80003d94:	00000013          	nop

0000000080003d98 <i_3778>:
    80003d98:	00000013          	nop

0000000080003d9c <i_3779>:
    80003d9c:	80b00493          	li	s1,-2037

0000000080003da0 <i_3780>:
    80003da0:	80f00993          	li	s3,-2033

0000000080003da4 <i_3781>:
    80003da4:	00949a63          	bne	s1,s1,80003db8 <i_3786>

0000000080003da8 <i_3782>:
    80003da8:	00948863          	beq	s1,s1,80003db8 <i_3786>

0000000080003dac <i_3783>:
    80003dac:	1b911923          	sh	s9,434(sp)

0000000080003db0 <i_3784>:
    80003db0:	4d18fc93          	andi	s9,a7,1233

0000000080003db4 <i_3785>:
    80003db4:	10710a23          	sb	t2,276(sp)

0000000080003db8 <i_3786>:
    80003db8:	7279e793          	ori	a5,s3,1831

0000000080003dbc <i_3787>:
    80003dbc:	0394c263          	blt	s1,s9,80003de0 <i_3795>

0000000080003dc0 <i_3788>:
    80003dc0:	02e00a13          	li	s4,46

0000000080003dc4 <i_3789>:
    80003dc4:	0147db33          	srl	s6,a5,s4

0000000080003dc8 <i_3790>:
    80003dc8:	029cab33          	mulhsu	s6,s9,s1

0000000080003dcc <i_3791>:
    80003dcc:	00148493          	addi	s1,s1,1 # ffffffffaa8a4001 <_end+0xffffffff2a893bed>
    80003dd0:	fc99fae3          	bleu	s1,s3,80003da4 <i_3781>

0000000080003dd4 <i_3792>:
    80003dd4:	5cc7fd13          	andi	s10,a5,1484

0000000080003dd8 <i_3793>:
    80003dd8:	9eedd417          	auipc	s0,0x9eedd

0000000080003ddc <i_3794>:
    80003ddc:	fb215283          	lhu	t0,-78(sp)

0000000080003de0 <i_3795>:
    80003de0:	f0511123          	sh	t0,-254(sp)

0000000080003de4 <i_3796>:
    80003de4:	01a47863          	bleu	s10,s0,80003df4 <i_3800>

0000000080003de8 <i_3797>:
    80003de8:	fec15f03          	lhu	t5,-20(sp)

0000000080003dec <i_3798>:
    80003dec:	0039df1b          	srliw	t5,s3,0x3

0000000080003df0 <i_3799>:
    80003df0:	039a7263          	bleu	s9,s4,80003e14 <i_3808>

0000000080003df4 <i_3800>:
    80003df4:	01ed1a63          	bne	s10,t5,80003e08 <i_3805>

0000000080003df8 <i_3801>:
    80003df8:	f2813023          	sd	s0,-224(sp)

0000000080003dfc <i_3802>:
    80003dfc:	016d6f33          	or	t5,s10,s6

0000000080003e00 <i_3803>:
    80003e00:	016f01b3          	add	gp,t5,s6

0000000080003e04 <i_3804>:
    80003e04:	f2215583          	lhu	a1,-222(sp)

0000000080003e08 <i_3805>:
    80003e08:	03c48063          	beq	s1,t3,80003e28 <i_3813>

0000000080003e0c <i_3806>:
    80003e0c:	03997633          	remu	a2,s2,s9

0000000080003e10 <i_3807>:
    80003e10:	fde13c23          	sd	t5,-40(sp)

0000000080003e14 <i_3808>:
    80003e14:	e8412f03          	lw	t5,-380(sp)

0000000080003e18 <i_3809>:
    80003e18:	06a15c83          	lhu	s9,106(sp)

0000000080003e1c <i_3810>:
    80003e1c:	004c9c93          	slli	s9,s9,0x4

0000000080003e20 <i_3811>:
    80003e20:	00000013          	nop

0000000080003e24 <i_3812>:
    80003e24:	00000013          	nop

0000000080003e28 <i_3813>:
    80003e28:	0f110a03          	lb	s4,241(sp)

0000000080003e2c <i_3814>:
    80003e2c:	0196b6b3          	sltu	a3,a3,s9

0000000080003e30 <i_3815>:
    80003e30:	82100193          	li	gp,-2015

0000000080003e34 <i_3816>:
    80003e34:	82400313          	li	t1,-2012

0000000080003e38 <i_3817>:
    80003e38:	039be7bb          	remw	a5,s7,s9

0000000080003e3c <i_3818>:
    80003e3c:	ec813683          	ld	a3,-312(sp)

0000000080003e40 <i_3819>:
    80003e40:	4876c693          	xori	a3,a3,1159

0000000080003e44 <i_3820>:
    80003e44:	00118193          	addi	gp,gp,1
    80003e48:	fe3378e3          	bleu	gp,t1,80003e38 <i_3817>

0000000080003e4c <i_3821>:
    80003e4c:	00221213          	slli	tp,tp,0x2

0000000080003e50 <i_3822>:
    80003e50:	ef215683          	lhu	a3,-270(sp)

0000000080003e54 <i_3823>:
    80003e54:	e8c11683          	lh	a3,-372(sp)

0000000080003e58 <i_3824>:
    80003e58:	04d13c23          	sd	a3,88(sp)

0000000080003e5c <i_3825>:
    80003e5c:	0029dc13          	srli	s8,s3,0x2

0000000080003e60 <i_3826>:
    80003e60:	ee215c03          	lhu	s8,-286(sp)

0000000080003e64 <i_3827>:
    80003e64:	01900e13          	li	t3,25

0000000080003e68 <i_3828>:
    80003e68:	01c690bb          	sllw	ra,a3,t3

0000000080003e6c <i_3829>:
    80003e6c:	83e00693          	li	a3,-1986

0000000080003e70 <i_3830>:
    80003e70:	85000393          	li	t2,-1968

0000000080003e74 <i_3831>:
    80003e74:	12d108a3          	sb	a3,305(sp)

0000000080003e78 <i_3832>:
    80003e78:	7ea00413          	li	s0,2026

0000000080003e7c <i_3833>:
    80003e7c:	7fe00213          	li	tp,2046

0000000080003e80 <i_3834>:
    80003e80:	e6f14c03          	lbu	s8,-401(sp)

0000000080003e84 <i_3835>:
    80003e84:	00140413          	addi	s0,s0,1 # 1eee0dd9 <main-0x6111f227>
    80003e88:	fe446ce3          	bltu	s0,tp,80003e80 <i_3834>

0000000080003e8c <i_3836>:
    80003e8c:	f4a10723          	sb	a0,-178(sp)

0000000080003e90 <i_3837>:
    80003e90:	1ad13023          	sd	a3,416(sp)

0000000080003e94 <i_3838>:
    80003e94:	00168693          	addi	a3,a3,1
    80003e98:	fcd3dce3          	ble	a3,t2,80003e70 <i_3830>

0000000080003e9c <i_3839>:
    80003e9c:	f5011c03          	lh	s8,-176(sp)

0000000080003ea0 <i_3840>:
    80003ea0:	01e00093          	li	ra,30

0000000080003ea4 <i_3841>:
    80003ea4:	0010d23b          	srlw	tp,ra,ra

0000000080003ea8 <i_3842>:
    80003ea8:	02211c83          	lh	s9,34(sp)

0000000080003eac <i_3843>:
    80003eac:	019c0e63          	beq	s8,s9,80003ec8 <i_3850>

0000000080003eb0 <i_3844>:
    80003eb0:	fe514c83          	lbu	s9,-27(sp)

0000000080003eb4 <i_3845>:
    80003eb4:	024c9063          	bne	s9,tp,80003ed4 <i_3853>

0000000080003eb8 <i_3846>:
    80003eb8:	01f00c13          	li	s8,31

0000000080003ebc <i_3847>:
    80003ebc:	418c5c33          	sra	s8,s8,s8

0000000080003ec0 <i_3848>:
    80003ec0:	019cf333          	and	t1,s9,s9

0000000080003ec4 <i_3849>:
    80003ec4:	00000013          	nop

0000000080003ec8 <i_3850>:
    80003ec8:	07711023          	sh	s7,96(sp)

0000000080003ecc <i_3851>:
    80003ecc:	03dc5eb3          	divu	t4,s8,t4

0000000080003ed0 <i_3852>:
    80003ed0:	015d8db3          	add	s11,s11,s5

0000000080003ed4 <i_3853>:
    80003ed4:	ed813b03          	ld	s6,-296(sp)

0000000080003ed8 <i_3854>:
    80003ed8:	1c613423          	sd	t1,456(sp)

0000000080003edc <i_3855>:
    80003edc:	74800213          	li	tp,1864

0000000080003ee0 <i_3856>:
    80003ee0:	75c00c93          	li	s9,1884

0000000080003ee4 <i_3857>:
    80003ee4:	01bcdc63          	ble	s11,s9,80003efc <i_3863>

0000000080003ee8 <i_3858>:
    80003ee8:	01bdfdb3          	and	s11,s11,s11

0000000080003eec <i_3859>:
    80003eec:	0d613023          	sd	s6,192(sp)

0000000080003ef0 <i_3860>:
    80003ef0:	00000013          	nop

0000000080003ef4 <i_3861>:
    80003ef4:	f07aedb7          	lui	s11,0xf07ae

0000000080003ef8 <i_3862>:
    80003ef8:	00000013          	nop

0000000080003efc <i_3863>:
    80003efc:	e9611c23          	sh	s6,-360(sp)

0000000080003f00 <i_3864>:
    80003f00:	0bb11423          	sh	s11,168(sp)

0000000080003f04 <i_3865>:
    80003f04:	00120213          	addi	tp,tp,1 # ffffffffdb98b001 <_end+0xffffffff5b97abed>
    80003f08:	fd926ee3          	bltu	tp,s9,80003ee4 <i_3857>

0000000080003f0c <i_3866>:
    80003f0c:	f7611a03          	lh	s4,-138(sp)

0000000080003f10 <i_3867>:
    80003f10:	004dfc63          	bleu	tp,s11,80003f28 <i_3873>

0000000080003f14 <i_3868>:
    80003f14:	023b6463          	bltu	s6,gp,80003f3c <i_3878>

0000000080003f18 <i_3869>:
    80003f18:	ed416303          	lwu	t1,-300(sp)

0000000080003f1c <i_3870>:
    80003f1c:	03636063          	bltu	t1,s6,80003f3c <i_3878>

0000000080003f20 <i_3871>:
    80003f20:	021df0bb          	remuw	ra,s11,ra

0000000080003f24 <i_3872>:
    80003f24:	00635863          	ble	t1,t1,80003f34 <i_3876>

0000000080003f28 <i_3873>:
    80003f28:	00110e23          	sb	ra,28(sp)

0000000080003f2c <i_3874>:
    80003f2c:	00c36633          	or	a2,t1,a2

0000000080003f30 <i_3875>:
    80003f30:	1c013303          	ld	t1,448(sp)

0000000080003f34 <i_3876>:
    80003f34:	edc10d83          	lb	s11,-292(sp)

0000000080003f38 <i_3877>:
    80003f38:	f0e11a03          	lh	s4,-242(sp)

0000000080003f3c <i_3878>:
    80003f3c:	0a415383          	lhu	t2,164(sp)

0000000080003f40 <i_3879>:
    80003f40:	01470263          	beq	a4,s4,80003f44 <i_3880>

0000000080003f44 <i_3880>:
    80003f44:	e9b12023          	sw	s11,-384(sp)

0000000080003f48 <i_3881>:
    80003f48:	036385bb          	mulw	a1,t2,s6

0000000080003f4c <i_3882>:
    80003f4c:	0b013583          	ld	a1,176(sp)

0000000080003f50 <i_3883>:
    80003f50:	00b00613          	li	a2,11

0000000080003f54 <i_3884>:
    80003f54:	00c193bb          	sllw	t2,gp,a2

0000000080003f58 <i_3885>:
    80003f58:	0145dc63          	ble	s4,a1,80003f70 <i_3891>

0000000080003f5c <i_3886>:
    80003f5c:	01464e63          	blt	a2,s4,80003f78 <i_3893>

0000000080003f60 <i_3887>:
    80003f60:	13415583          	lhu	a1,308(sp)

0000000080003f64 <i_3888>:
    80003f64:	014383b3          	add	t2,t2,s4

0000000080003f68 <i_3889>:
    80003f68:	02b5e3b3          	rem	t2,a1,a1

0000000080003f6c <i_3890>:
    80003f6c:	f0013183          	ld	gp,-256(sp)

0000000080003f70 <i_3891>:
    80003f70:	00000013          	nop

0000000080003f74 <i_3892>:
    80003f74:	85c3b193          	sltiu	gp,t2,-1956

0000000080003f78 <i_3893>:
    80003f78:	fc114583          	lbu	a1,-63(sp)

0000000080003f7c <i_3894>:
    80003f7c:	e7e5859b          	addiw	a1,a1,-386

0000000080003f80 <i_3895>:
    80003f80:	7a900d93          	li	s11,1961

0000000080003f84 <i_3896>:
    80003f84:	7b000813          	li	a6,1968

0000000080003f88 <i_3897>:
    80003f88:	0035d613          	srli	a2,a1,0x3

0000000080003f8c <i_3898>:
    80003f8c:	00b5b9b3          	sltu	s3,a1,a1

0000000080003f90 <i_3899>:
    80003f90:	f9d103a3          	sb	t4,-121(sp)

0000000080003f94 <i_3900>:
    80003f94:	09310423          	sb	s3,136(sp)

0000000080003f98 <i_3901>:
    80003f98:	24767413          	andi	s0,a2,583

0000000080003f9c <i_3902>:
    80003f9c:	00c5d263          	ble	a2,a1,80003fa0 <i_3903>

0000000080003fa0 <i_3903>:
    80003fa0:	fa010603          	lb	a2,-96(sp)

0000000080003fa4 <i_3904>:
    80003fa4:	013b5c63          	ble	s3,s6,80003fbc <i_3909>

0000000080003fa8 <i_3905>:
    80003fa8:	001d8d93          	addi	s11,s11,1 # fffffffff07ae001 <_end+0xffffffff7079dbed>
    80003fac:	fd0d9ee3          	bne	s11,a6,80003f88 <i_3897>

0000000080003fb0 <i_3906>:
    80003fb0:	0139ca63          	blt	s3,s3,80003fc4 <i_3911>

0000000080003fb4 <i_3907>:
    80003fb4:	eb013803          	ld	a6,-336(sp)

0000000080003fb8 <i_3908>:
    80003fb8:	f0c13c23          	sd	a2,-232(sp)

0000000080003fbc <i_3909>:
    80003fbc:	00865c63          	ble	s0,a2,80003fd4 <i_3915>

0000000080003fc0 <i_3910>:
    80003fc0:	ef311b23          	sh	s3,-266(sp)

0000000080003fc4 <i_3911>:
    80003fc4:	033419b3          	mulh	s3,s0,s3

0000000080003fc8 <i_3912>:
    80003fc8:	12812303          	lw	t1,296(sp)

0000000080003fcc <i_3913>:
    80003fcc:	17313023          	sd	s3,352(sp)

0000000080003fd0 <i_3914>:
    80003fd0:	f1416983          	lwu	s3,-236(sp)

0000000080003fd4 <i_3915>:
    80003fd4:	0139b333          	sltu	t1,s3,s3

0000000080003fd8 <i_3916>:
    80003fd8:	033359b3          	divu	s3,t1,s3

0000000080003fdc <i_3917>:
    80003fdc:	01398463          	beq	s3,s3,80003fe4 <i_3919>

0000000080003fe0 <i_3918>:
    80003fe0:	0339e23b          	remw	tp,s3,s3

0000000080003fe4 <i_3919>:
    80003fe4:	0069d863          	ble	t1,s3,80003ff4 <i_3923>

0000000080003fe8 <i_3920>:
    80003fe8:	11012303          	lw	t1,272(sp)

0000000080003fec <i_3921>:
    80003fec:	10d10303          	lb	t1,269(sp)

0000000080003ff0 <i_3922>:
    80003ff0:	00c30263          	beq	t1,a2,80003ff4 <i_3923>

0000000080003ff4 <i_3923>:
    80003ff4:	02460063          	beq	a2,tp,80004014 <i_3931>

0000000080003ff8 <i_3924>:
    80003ff8:	04613823          	sd	t1,80(sp)

0000000080003ffc <i_3925>:
    80003ffc:	0047c463          	blt	a5,tp,80004004 <i_3927>

0000000080004000 <i_3926>:
    80004000:	14013603          	ld	a2,320(sp)

0000000080004004 <i_3927>:
    80004004:	404602bb          	subw	t0,a2,tp

0000000080004008 <i_3928>:
    80004008:	01228c63          	beq	t0,s2,80004020 <i_3934>

000000008000400c <i_3929>:
    8000400c:	40560abb          	subw	s5,a2,t0

0000000080004010 <i_3930>:
    80004010:	02caf063          	bleu	a2,s5,80004030 <i_3938>

0000000080004014 <i_3931>:
    80004014:	1a110303          	lb	t1,417(sp)

0000000080004018 <i_3932>:
    80004018:	0244be33          	mulhu	t3,s1,tp

000000008000401c <i_3933>:
    8000401c:	0262a533          	mulhsu	a0,t0,t1

0000000080004020 <i_3934>:
    80004020:	00536c63          	bltu	t1,t0,80004038 <i_3940>

0000000080004024 <i_3935>:
    80004024:	00f36a63          	bltu	t1,a5,80004038 <i_3940>

0000000080004028 <i_3936>:
    80004028:	06a11503          	lh	a0,106(sp)

000000008000402c <i_3937>:
    8000402c:	18c15503          	lhu	a0,396(sp)

0000000080004030 <i_3938>:
    80004030:	0107c533          	xor	a0,a5,a6

0000000080004034 <i_3939>:
    80004034:	1d416183          	lwu	gp,468(sp)

0000000080004038 <i_3940>:
    80004038:	003f0f33          	add	t5,t5,gp

000000008000403c <i_3941>:
    8000403c:	02f862b3          	rem	t0,a6,a5

0000000080004040 <i_3942>:
    80004040:	7ea00813          	li	a6,2026

0000000080004044 <i_3943>:
    80004044:	7fb00793          	li	a5,2043

0000000080004048 <i_3944>:
    80004048:	00000013          	nop

000000008000404c <i_3945>:
    8000404c:	03ef3d33          	mulhu	s10,t5,t5

0000000080004050 <i_3946>:
    80004050:	0cb11823          	sh	a1,208(sp)

0000000080004054 <i_3947>:
    80004054:	01025263          	ble	a6,tp,80004058 <i_3948>

0000000080004058 <i_3948>:
    80004058:	3350cf37          	lui	t5,0x3350c

000000008000405c <i_3949>:
    8000405c:	02bd75b3          	remu	a1,s10,a1

0000000080004060 <i_3950>:
    80004060:	00000013          	nop

0000000080004064 <i_3951>:
    80004064:	00000013          	nop

0000000080004068 <i_3952>:
    80004068:	00180813          	addi	a6,a6,1
    8000406c:	fcf84ee3          	blt	a6,a5,80004048 <i_3944>

0000000080004070 <i_3953>:
    80004070:	0dc14583          	lbu	a1,220(sp)

0000000080004074 <i_3954>:
    80004074:	12235437          	lui	s0,0x12235

0000000080004078 <i_3955>:
    80004078:	01300e13          	li	t3,19

000000008000407c <i_3956>:
    8000407c:	41c45d3b          	sraw	s10,s0,t3

0000000080004080 <i_3957>:
    80004080:	008e40b3          	xor	ra,t3,s0

0000000080004084 <i_3958>:
    80004084:	eb816c83          	lwu	s9,-328(sp)

0000000080004088 <i_3959>:
    80004088:	00000013          	nop

000000008000408c <i_3960>:
    8000408c:	75800093          	li	ra,1880

0000000080004090 <i_3961>:
    80004090:	75e00d93          	li	s11,1886

0000000080004094 <i_3962>:
    80004094:	003d9c9b          	slliw	s9,s11,0x3

0000000080004098 <i_3963>:
    80004098:	00d00e13          	li	t3,13

000000008000409c <i_3964>:
    8000409c:	41c0d5b3          	sra	a1,ra,t3

00000000800040a0 <i_3965>:
    800040a0:	417585b3          	sub	a1,a1,s7

00000000800040a4 <i_3966>:
    800040a4:	00a00a13          	li	s4,10

00000000800040a8 <i_3967>:
    800040a8:	014e1a3b          	sllw	s4,t3,s4

00000000800040ac <i_3968>:
    800040ac:	00108093          	addi	ra,ra,1
    800040b0:	ffb0e2e3          	bltu	ra,s11,80004094 <i_3962>

00000000800040b4 <i_3969>:
    800040b4:	002e5e13          	srli	t3,t3,0x2

00000000800040b8 <i_3970>:
    800040b8:	0b412423          	sw	s4,168(sp)

00000000800040bc <i_3971>:
    800040bc:	014e6463          	bltu	t3,s4,800040c4 <i_3973>

00000000800040c0 <i_3972>:
    800040c0:	00a00993          	li	s3,10

00000000800040c4 <i_3973>:
    800040c4:	013e5e3b          	srlw	t3,t3,s3

00000000800040c8 <i_3974>:
    800040c8:	14f10483          	lb	s1,335(sp)

00000000800040cc <i_3975>:
    800040cc:	401e5993          	srai	s3,t3,0x1

00000000800040d0 <i_3976>:
    800040d0:	edc103a3          	sb	t3,-313(sp)

00000000800040d4 <i_3977>:
    800040d4:	01c48e33          	add	t3,s1,t3

00000000800040d8 <i_3978>:
    800040d8:	eb611603          	lh	a2,-330(sp)

00000000800040dc <i_3979>:
    800040dc:	03c4e4b3          	rem	s1,s1,t3

00000000800040e0 <i_3980>:
    800040e0:	403bd313          	srai	t1,s7,0x3

00000000800040e4 <i_3981>:
    800040e4:	19816583          	lwu	a1,408(sp)

00000000800040e8 <i_3982>:
    800040e8:	0063bcb3          	sltu	s9,t2,t1

00000000800040ec <i_3983>:
    800040ec:	00b30f33          	add	t5,t1,a1

00000000800040f0 <i_3984>:
    800040f0:	0f012203          	lw	tp,240(sp)

00000000800040f4 <i_3985>:
    800040f4:	08c12023          	sw	a2,128(sp)

00000000800040f8 <i_3986>:
    800040f8:	fce10e03          	lb	t3,-50(sp)

00000000800040fc <i_3987>:
    800040fc:	00000013          	nop

0000000080004100 <i_3988>:
    80004100:	00000013          	nop

0000000080004104 <i_3989>:
    80004104:	82e00493          	li	s1,-2002

0000000080004108 <i_3990>:
    80004108:	83f00093          	li	ra,-1985

000000008000410c <i_3991>:
    8000410c:	11412e03          	lw	t3,276(sp)

0000000080004110 <i_3992>:
    80004110:	40108333          	sub	t1,ra,ra

0000000080004114 <i_3993>:
    80004114:	19212823          	sw	s2,400(sp)

0000000080004118 <i_3994>:
    80004118:	1a613c23          	sd	t1,440(sp)

000000008000411c <i_3995>:
    8000411c:	51c32293          	slti	t0,t1,1308

0000000080004120 <i_3996>:
    80004120:	10610983          	lb	s3,262(sp)

0000000080004124 <i_3997>:
    80004124:	006eaeb3          	slt	t4,t4,t1

0000000080004128 <i_3998>:
    80004128:	009ec463          	blt	t4,s1,80004130 <i_4000>

000000008000412c <i_3999>:
    8000412c:	0219d9b3          	divu	s3,s3,ra

0000000080004130 <i_4000>:
    80004130:	80b2e593          	ori	a1,t0,-2037

0000000080004134 <i_4001>:
    80004134:	1a013d83          	ld	s11,416(sp)

0000000080004138 <i_4002>:
    80004138:	001ddb13          	srli	s6,s11,0x1

000000008000413c <i_4003>:
    8000413c:	00148493          	addi	s1,s1,1
    80004140:	fc90d6e3          	ble	s1,ra,8000410c <i_3991>

0000000080004144 <i_4004>:
    80004144:	1b913c23          	sd	s9,440(sp)

0000000080004148 <i_4005>:
    80004148:	e4b13c23          	sd	a1,-424(sp)

000000008000414c <i_4006>:
    8000414c:	039a6a3b          	remw	s4,s4,s9

0000000080004150 <i_4007>:
    80004150:	588cd537          	lui	a0,0x588cd

0000000080004154 <i_4008>:
    80004154:	02cb0063          	beq	s6,a2,80004174 <i_4016>

0000000080004158 <i_4009>:
    80004158:	02f00393          	li	t2,47

000000008000415c <i_4010>:
    8000415c:	007a1533          	sll	a0,s4,t2

0000000080004160 <i_4011>:
    80004160:	fb614a03          	lbu	s4,-74(sp)

0000000080004164 <i_4012>:
    80004164:	08a13823          	sd	a0,144(sp)

0000000080004168 <i_4013>:
    80004168:	007d4a33          	xor	s4,s10,t2

000000008000416c <i_4014>:
    8000416c:	0c711323          	sh	t2,198(sp)

0000000080004170 <i_4015>:
    80004170:	01100493          	li	s1,17

0000000080004174 <i_4016>:
    80004174:	4093da3b          	sraw	s4,t2,s1

0000000080004178 <i_4017>:
    80004178:	31779f17          	auipc	t5,0x31779

000000008000417c <i_4018>:
    8000417c:	0143c1b3          	xor	gp,t2,s4

0000000080004180 <i_4019>:
    80004180:	01c00393          	li	t2,28

0000000080004184 <i_4020>:
    80004184:	0071d3bb          	srlw	t2,gp,t2

0000000080004188 <i_4021>:
    80004188:	ebf11423          	sh	t6,-344(sp)

000000008000418c <i_4022>:
    8000418c:	e9e15203          	lhu	tp,-354(sp)

0000000080004190 <i_4023>:
    80004190:	1a713c23          	sd	t2,440(sp)

0000000080004194 <i_4024>:
    80004194:	0ce15e03          	lhu	t3,206(sp)

0000000080004198 <i_4025>:
    80004198:	efd14e83          	lbu	t4,-259(sp)

000000008000419c <i_4026>:
    8000419c:	e9816983          	lwu	s3,-360(sp)

00000000800041a0 <i_4027>:
    800041a0:	03dd1eb3          	mulh	t4,s10,t4

00000000800041a4 <i_4028>:
    800041a4:	e4c14183          	lbu	gp,-436(sp)

00000000800041a8 <i_4029>:
    800041a8:	01d97863          	bleu	t4,s2,800041b8 <i_4033>

00000000800041ac <i_4030>:
    800041ac:	17d11123          	sh	t4,354(sp)

00000000800041b0 <i_4031>:
    800041b0:	0241e263          	bltu	gp,tp,800041d4 <i_4040>

00000000800041b4 <i_4032>:
    800041b4:	0237b6b3          	mulhu	a3,a5,gp

00000000800041b8 <i_4033>:
    800041b8:	16a11783          	lh	a5,362(sp)

00000000800041bc <i_4034>:
    800041bc:	02368063          	beq	a3,gp,800041dc <i_4042>

00000000800041c0 <i_4035>:
    800041c0:	f2411683          	lh	a3,-220(sp)

00000000800041c4 <i_4036>:
    800041c4:	0256c43b          	divw	s0,a3,t0

00000000800041c8 <i_4037>:
    800041c8:	ea811423          	sh	s0,-344(sp)

00000000800041cc <i_4038>:
    800041cc:	00dfd863          	ble	a3,t6,800041dc <i_4042>

00000000800041d0 <i_4039>:
    800041d0:	07c12303          	lw	t1,124(sp)

00000000800041d4 <i_4040>:
    800041d4:	00f78533          	add	a0,a5,a5

00000000800041d8 <i_4041>:
    800041d8:	02f6d063          	ble	a5,a3,800041f8 <i_4049>

00000000800041dc <i_4042>:
    800041dc:	0cf11323          	sh	a5,198(sp)

00000000800041e0 <i_4043>:
    800041e0:	10813783          	ld	a5,264(sp)

00000000800041e4 <i_4044>:
    800041e4:	02f7f83b          	remuw	a6,a5,a5

00000000800041e8 <i_4045>:
    800041e8:	01fa3a33          	sltu	s4,s4,t6

00000000800041ec <i_4046>:
    800041ec:	b357ad13          	slti	s10,a5,-1227

00000000800041f0 <i_4047>:
    800041f0:	8157f793          	andi	a5,a5,-2027

00000000800041f4 <i_4048>:
    800041f4:	0147bd33          	sltu	s10,a5,s4

00000000800041f8 <i_4049>:
    800041f8:	17b13423          	sd	s11,360(sp)

00000000800041fc <i_4050>:
    800041fc:	00fa6e63          	bltu	s4,a5,80004218 <i_4057>

0000000080004200 <i_4051>:
    80004200:	e7c12e03          	lw	t3,-388(sp)

0000000080004204 <i_4052>:
    80004204:	00279a1b          	slliw	s4,a5,0x2

0000000080004208 <i_4053>:
    80004208:	f8114b03          	lbu	s6,-127(sp)

000000008000420c <i_4054>:
    8000420c:	c7da6e13          	ori	t3,s4,-899

0000000080004210 <i_4055>:
    80004210:	016e1e63          	bne	t3,s6,8000422c <i_4062>

0000000080004214 <i_4056>:
    80004214:	e2015e03          	lhu	t3,-480(sp)

0000000080004218 <i_4057>:
    80004218:	00a00693          	li	a3,10

000000008000421c <i_4058>:
    8000421c:	40dadabb          	sraw	s5,s5,a3

0000000080004220 <i_4059>:
    80004220:	911bb393          	sltiu	t2,s7,-1775

0000000080004224 <i_4060>:
    80004224:	02d3f463          	bleu	a3,t2,8000424c <i_4070>

0000000080004228 <i_4061>:
    80004228:	0043d393          	srli	t2,t2,0x4

000000008000422c <i_4062>:
    8000422c:	e8813423          	sd	s0,-376(sp)

0000000080004230 <i_4063>:
    80004230:	02d57b33          	remu	s6,a0,a3

0000000080004234 <i_4064>:
    80004234:	f7610123          	sb	s6,-158(sp)

0000000080004238 <i_4065>:
    80004238:	03100993          	li	s3,49

000000008000423c <i_4066>:
    8000423c:	0136d6b3          	srl	a3,a3,s3

0000000080004240 <i_4067>:
    80004240:	6ece8cb7          	lui	s9,0x6ece8

0000000080004244 <i_4068>:
    80004244:	0076e463          	bltu	a3,t2,8000424c <i_4070>

0000000080004248 <i_4069>:
    80004248:	f5611c23          	sh	s6,-168(sp)

000000008000424c <i_4070>:
    8000424c:	00500e13          	li	t3,5

0000000080004250 <i_4071>:
    80004250:	01cc9dbb          	sllw	s11,s9,t3

0000000080004254 <i_4072>:
    80004254:	00100993          	li	s3,1

0000000080004258 <i_4073>:
    80004258:	013593b3          	sll	t2,a1,s3

000000008000425c <i_4074>:
    8000425c:	41698bb3          	sub	s7,s3,s6

0000000080004260 <i_4075>:
    80004260:	05416d83          	lwu	s11,84(sp)

0000000080004264 <i_4076>:
    80004264:	037dc0b3          	div	ra,s11,s7

0000000080004268 <i_4077>:
    80004268:	021ce063          	bltu	s9,ra,80004288 <i_4085>

000000008000426c <i_4078>:
    8000426c:	0170ec63          	bltu	ra,s7,80004284 <i_4084>

0000000080004270 <i_4079>:
    80004270:	e3711423          	sh	s7,-472(sp)

0000000080004274 <i_4080>:
    80004274:	ed813383          	ld	t2,-296(sp)

0000000080004278 <i_4081>:
    80004278:	e4c16b83          	lwu	s7,-436(sp)

000000008000427c <i_4082>:
    8000427c:	00cd8db3          	add	s11,s11,a2

0000000080004280 <i_4083>:
    80004280:	0b712a23          	sw	s7,180(sp)

0000000080004284 <i_4084>:
    80004284:	10112823          	sw	ra,272(sp)

0000000080004288 <i_4085>:
    80004288:	00844433          	xor	s0,s0,s0

000000008000428c <i_4086>:
    8000428c:	037db7b3          	mulhu	a5,s11,s7

0000000080004290 <i_4087>:
    80004290:	77900613          	li	a2,1913

0000000080004294 <i_4088>:
    80004294:	78300093          	li	ra,1923

0000000080004298 <i_4089>:
    80004298:	01710723          	sb	s7,14(sp)

000000008000429c <i_4090>:
    8000429c:	fa310783          	lb	a5,-93(sp)

00000000800042a0 <i_4091>:
    800042a0:	89c00d93          	li	s11,-1892

00000000800042a4 <i_4092>:
    800042a4:	89f00b93          	li	s7,-1889

00000000800042a8 <i_4093>:
    800042a8:	0010dc93          	srli	s9,ra,0x1

00000000800042ac <i_4094>:
    800042ac:	00000013          	nop

00000000800042b0 <i_4095>:
    800042b0:	02f94cbb          	divw	s9,s2,a5

00000000800042b4 <i_4096>:
    800042b4:	001d8d93          	addi	s11,s11,1
    800042b8:	ff7dc8e3          	blt	s11,s7,800042a8 <i_4093>

00000000800042bc <i_4097>:
    800042bc:	0190c4b3          	xor	s1,ra,s9

00000000800042c0 <i_4098>:
    800042c0:	f5015203          	lhu	tp,-176(sp)

00000000800042c4 <i_4099>:
    800042c4:	0ab12423          	sw	a1,168(sp)

00000000800042c8 <i_4100>:
    800042c8:	e9913823          	sd	s9,-368(sp)

00000000800042cc <i_4101>:
    800042cc:	00160613          	addi	a2,a2,1 # ffffffffbc9b9001 <_end+0xffffffff3c9a8bed>
    800042d0:	fc1664e3          	bltu	a2,ra,80004298 <i_4089>

00000000800042d4 <i_4102>:
    800042d4:	e2f13823          	sd	a5,-464(sp)

00000000800042d8 <i_4103>:
    800042d8:	079109a3          	sb	s9,115(sp)

00000000800042dc <i_4104>:
    800042dc:	00800193          	li	gp,8

00000000800042e0 <i_4105>:
    800042e0:	003d1d33          	sll	s10,s10,gp

00000000800042e4 <i_4106>:
    800042e4:	82400493          	li	s1,-2012

00000000800042e8 <i_4107>:
    800042e8:	83300793          	li	a5,-1997

00000000800042ec <i_4108>:
    800042ec:	0c413c23          	sd	tp,216(sp)

00000000800042f0 <i_4109>:
    800042f0:	e6911a23          	sh	s1,-396(sp)

00000000800042f4 <i_4110>:
    800042f4:	d311f213          	andi	tp,gp,-719

00000000800042f8 <i_4111>:
    800042f8:	f3110403          	lb	s0,-207(sp)

00000000800042fc <i_4112>:
    800042fc:	0b015d03          	lhu	s10,176(sp)

0000000080004300 <i_4113>:
    80004300:	08211683          	lh	a3,130(sp)

0000000080004304 <i_4114>:
    80004304:	02d696b3          	mulh	a3,a3,a3

0000000080004308 <i_4115>:
    80004308:	00000013          	nop

000000008000430c <i_4116>:
    8000430c:	0276d6bb          	divuw	a3,a3,t2

0000000080004310 <i_4117>:
    80004310:	0c537313          	andi	t1,t1,197

0000000080004314 <i_4118>:
    80004314:	00500293          	li	t0,5

0000000080004318 <i_4119>:
    80004318:	005b9bb3          	sll	s7,s7,t0

000000008000431c <i_4120>:
    8000431c:	00148493          	addi	s1,s1,1
    80004320:	fc97d6e3          	ble	s1,a5,800042ec <i_4108>

0000000080004324 <i_4121>:
    80004324:	0d314b83          	lbu	s7,211(sp)

0000000080004328 <i_4122>:
    80004328:	2952f313          	andi	t1,t0,661

000000008000432c <i_4123>:
    8000432c:	01f00e93          	li	t4,31

0000000080004330 <i_4124>:
    80004330:	41d2d0bb          	sraw	ra,t0,t4

0000000080004334 <i_4125>:
    80004334:	01b08463          	beq	ra,s11,8000433c <i_4127>

0000000080004338 <i_4126>:
    80004338:	15412083          	lw	ra,340(sp)

000000008000433c <i_4127>:
    8000433c:	11c11b83          	lh	s7,284(sp)

0000000080004340 <i_4128>:
    80004340:	0250ef33          	rem	t5,ra,t0

0000000080004344 <i_4129>:
    80004344:	01416083          	lwu	ra,20(sp)

0000000080004348 <i_4130>:
    80004348:	17914283          	lbu	t0,377(sp)

000000008000434c <i_4131>:
    8000434c:	038f37b3          	mulhu	a5,t5,s8

0000000080004350 <i_4132>:
    80004350:	efd60613          	addi	a2,a2,-259

0000000080004354 <i_4133>:
    80004354:	7c500f13          	li	t5,1989

0000000080004358 <i_4134>:
    80004358:	7d600293          	li	t0,2006

000000008000435c <i_4135>:
    8000435c:	17415203          	lhu	tp,372(sp)

0000000080004360 <i_4136>:
    80004360:	fa510603          	lb	a2,-91(sp)

0000000080004364 <i_4137>:
    80004364:	0387e463          	bltu	a5,s8,8000438c <i_4147>

0000000080004368 <i_4138>:
    80004368:	c2d60793          	addi	a5,a2,-979

000000008000436c <i_4139>:
    8000436c:	ff811c23          	sh	s8,-8(sp)

0000000080004370 <i_4140>:
    80004370:	5ff64613          	xori	a2,a2,1535

0000000080004374 <i_4141>:
    80004374:	0f812a03          	lw	s4,248(sp)

0000000080004378 <i_4142>:
    80004378:	00c60463          	beq	a2,a2,80004380 <i_4144>

000000008000437c <i_4143>:
    8000437c:	00000013          	nop

0000000080004380 <i_4144>:
    80004380:	19015503          	lhu	a0,400(sp)

0000000080004384 <i_4145>:
    80004384:	16e11b83          	lh	s7,366(sp)

0000000080004388 <i_4146>:
    80004388:	00000013          	nop

000000008000438c <i_4147>:
    8000438c:	00000013          	nop

0000000080004390 <i_4148>:
    80004390:	02c60633          	mul	a2,a2,a2

0000000080004394 <i_4149>:
    80004394:	001f0f13          	addi	t5,t5,1 # b177d179 <_end+0x3176cd65>
    80004398:	fc5f42e3          	blt	t5,t0,8000435c <i_4135>

000000008000439c <i_4150>:
    8000439c:	ed813203          	ld	tp,-296(sp)

00000000800043a0 <i_4151>:
    800043a0:	00c00093          	li	ra,12

00000000800043a4 <i_4152>:
    800043a4:	0016153b          	sllw	a0,a2,ra

00000000800043a8 <i_4153>:
    800043a8:	02124433          	div	s0,tp,ra

00000000800043ac <i_4154>:
    800043ac:	03309233          	mulh	tp,ra,s3

00000000800043b0 <i_4155>:
    800043b0:	f7e15083          	lhu	ra,-130(sp)

00000000800043b4 <i_4156>:
    800043b4:	02427063          	bleu	tp,tp,800043d4 <i_4164>

00000000800043b8 <i_4157>:
    800043b8:	00847e63          	bleu	s0,s0,800043d4 <i_4164>

00000000800043bc <i_4158>:
    800043bc:	00445263          	ble	tp,s0,800043c0 <i_4159>

00000000800043c0 <i_4159>:
    800043c0:	f2c108a3          	sb	a2,-207(sp)

00000000800043c4 <i_4160>:
    800043c4:	02113423          	sd	ra,40(sp)

00000000800043c8 <i_4161>:
    800043c8:	0c411423          	sh	tp,200(sp)

00000000800043cc <i_4162>:
    800043cc:	00184463          	blt	a6,ra,800043d4 <i_4164>

00000000800043d0 <i_4163>:
    800043d0:	02ca65b3          	rem	a1,s4,a2

00000000800043d4 <i_4164>:
    800043d4:	e8c13c23          	sd	a2,-360(sp)

00000000800043d8 <i_4165>:
    800043d8:	ef013603          	ld	a2,-272(sp)

00000000800043dc <i_4166>:
    800043dc:	00d61e63          	bne	a2,a3,800043f8 <i_4173>

00000000800043e0 <i_4167>:
    800043e0:	11813583          	ld	a1,280(sp)

00000000800043e4 <i_4168>:
    800043e4:	00c65263          	ble	a2,a2,800043e8 <i_4169>

00000000800043e8 <i_4169>:
    800043e8:	02400a93          	li	s5,36

00000000800043ec <i_4170>:
    800043ec:	015f5f33          	srl	t5,t5,s5

00000000800043f0 <i_4171>:
    800043f0:	0ab12023          	sw	a1,160(sp)

00000000800043f4 <i_4172>:
    800043f4:	00b64e63          	blt	a2,a1,80004410 <i_4179>

00000000800043f8 <i_4173>:
    800043f8:	02ff7463          	bleu	a5,t5,80004420 <i_4183>

00000000800043fc <i_4174>:
    800043fc:	00b59463          	bne	a1,a1,80004404 <i_4176>

0000000080004400 <i_4175>:
    80004400:	02c60463          	beq	a2,a2,80004428 <i_4185>

0000000080004404 <i_4176>:
    80004404:	00c79663          	bne	a5,a2,80004410 <i_4179>

0000000080004408 <i_4177>:
    80004408:	01000493          	li	s1,16

000000008000440c <i_4178>:
    8000440c:	409ad4b3          	sra	s1,s5,s1

0000000080004410 <i_4179>:
    80004410:	02c6883b          	mulw	a6,a3,a2

0000000080004414 <i_4180>:
    80004414:	00c48a63          	beq	s1,a2,80004428 <i_4185>

0000000080004418 <i_4181>:
    80004418:	02c5d063          	ble	a2,a1,80004438 <i_4189>

000000008000441c <i_4182>:
    8000441c:	e4813603          	ld	a2,-440(sp)

0000000080004420 <i_4183>:
    80004420:	01daf463          	bleu	t4,s5,80004428 <i_4185>

0000000080004424 <i_4184>:
    80004424:	02ce66bb          	remw	a3,t3,a2

0000000080004428 <i_4185>:
    80004428:	16914f03          	lbu	t5,361(sp)

000000008000442c <i_4186>:
    8000442c:	0095e263          	bltu	a1,s1,80004430 <i_4187>

0000000080004430 <i_4187>:
    80004430:	1ab12a23          	sw	a1,436(sp)

0000000080004434 <i_4188>:
    80004434:	efb10683          	lb	a3,-261(sp)

0000000080004438 <i_4189>:
    80004438:	00013483          	ld	s1,0(sp)

000000008000443c <i_4190>:
    8000443c:	e6416583          	lwu	a1,-412(sp)

0000000080004440 <i_4191>:
    80004440:	7cf5bf13          	sltiu	t5,a1,1999

0000000080004444 <i_4192>:
    80004444:	f5e11223          	sh	t5,-188(sp)

0000000080004448 <i_4193>:
    80004448:	41e48f3b          	subw	t5,s1,t5

000000008000444c <i_4194>:
    8000444c:	03ef6633          	rem	a2,t5,t5

0000000080004450 <i_4195>:
    80004450:	fd510483          	lb	s1,-43(sp)

0000000080004454 <i_4196>:
    80004454:	00964e63          	blt	a2,s1,80004470 <i_4203>

0000000080004458 <i_4197>:
    80004458:	01615683          	lhu	a3,22(sp)

000000008000445c <i_4198>:
    8000445c:	40cf0e33          	sub	t3,t5,a2

0000000080004460 <i_4199>:
    80004460:	00349513          	slli	a0,s1,0x3

0000000080004464 <i_4200>:
    80004464:	18013583          	ld	a1,384(sp)

0000000080004468 <i_4201>:
    80004468:	01e9ff33          	and	t5,s3,t5

000000008000446c <i_4202>:
    8000446c:	010ad863          	ble	a6,s5,8000447c <i_4206>

0000000080004470 <i_4203>:
    80004470:	9373b497          	auipc	s1,0x9373b

0000000080004474 <i_4204>:
    80004474:	06c11803          	lh	a6,108(sp)

0000000080004478 <i_4205>:
    80004478:	03e48063          	beq	s1,t5,80004498 <i_4213>

000000008000447c <i_4206>:
    8000447c:	0294c463          	blt	s1,s1,800044a4 <i_4216>

0000000080004480 <i_4207>:
    80004480:	01100493          	li	s1,17

0000000080004484 <i_4208>:
    80004484:	00985db3          	srl	s11,a6,s1

0000000080004488 <i_4209>:
    80004488:	03281263          	bne	a6,s2,800044ac <i_4218>

000000008000448c <i_4210>:
    8000448c:	08912c23          	sw	s1,152(sp)

0000000080004490 <i_4211>:
    80004490:	8ac69437          	lui	s0,0x8ac69

0000000080004494 <i_4212>:
    80004494:	e5a15d83          	lhu	s11,-422(sp)

0000000080004498 <i_4213>:
    80004498:	0e815203          	lhu	tp,232(sp)

000000008000449c <i_4214>:
    8000449c:	05b11323          	sh	s11,70(sp)

00000000800044a0 <i_4215>:
    800044a0:	00445213          	srli	tp,s0,0x4

00000000800044a4 <i_4216>:
    800044a4:	7e148e9b          	addiw	t4,s1,2017

00000000800044a8 <i_4217>:
    800044a8:	11010ea3          	sb	a6,285(sp)

00000000800044ac <i_4218>:
    800044ac:	f6816803          	lwu	a6,-152(sp)

00000000800044b0 <i_4219>:
    800044b0:	02710403          	lb	s0,39(sp)

00000000800044b4 <i_4220>:
    800044b4:	00986263          	bltu	a6,s1,800044b8 <i_4221>

00000000800044b8 <i_4221>:
    800044b8:	79e26213          	ori	tp,tp,1950

00000000800044bc <i_4222>:
    800044bc:	03b24463          	blt	tp,s11,800044e4 <i_4232>

00000000800044c0 <i_4223>:
    800044c0:	05c15d83          	lhu	s11,92(sp)

00000000800044c4 <i_4224>:
    800044c4:	01bdc463          	blt	s11,s11,800044cc <i_4226>

00000000800044c8 <i_4225>:
    800044c8:	e2c12c83          	lw	s9,-468(sp)

00000000800044cc <i_4226>:
    800044cc:	18710d83          	lb	s11,391(sp)

00000000800044d0 <i_4227>:
    800044d0:	fe313023          	sd	gp,-32(sp)

00000000800044d4 <i_4228>:
    800044d4:	f8b14403          	lbu	s0,-117(sp)

00000000800044d8 <i_4229>:
    800044d8:	f1816303          	lwu	t1,-232(sp)

00000000800044dc <i_4230>:
    800044dc:	00000013          	nop

00000000800044e0 <i_4231>:
    800044e0:	026a8abb          	mulw	s5,s5,t1

00000000800044e4 <i_4232>:
    800044e4:	02ba8abb          	mulw	s5,s5,a1

00000000800044e8 <i_4233>:
    800044e8:	00000013          	nop

00000000800044ec <i_4234>:
    800044ec:	8cb00193          	li	gp,-1845

00000000800044f0 <i_4235>:
    800044f0:	8d900593          	li	a1,-1831

00000000800044f4 <i_4236>:
    800044f4:	8a586797          	auipc	a5,0x8a586

00000000800044f8 <i_4237>:
    800044f8:	f0e12023          	sw	a4,-256(sp)

00000000800044fc <i_4238>:
    800044fc:	11513c23          	sd	s5,280(sp)

0000000080004500 <i_4239>:
    80004500:	02f5e063          	bltu	a1,a5,80004520 <i_4246>

0000000080004504 <i_4240>:
    80004504:	00118193          	addi	gp,gp,1
    80004508:	fe35f6e3          	bleu	gp,a1,800044f4 <i_4236>

000000008000450c <i_4241>:
    8000450c:	e6f10723          	sb	a5,-402(sp)

0000000080004510 <i_4242>:
    80004510:	fcb12e23          	sw	a1,-36(sp)

0000000080004514 <i_4243>:
    80004514:	47d8a597          	auipc	a1,0x47d8a

0000000080004518 <i_4244>:
    80004518:	00000013          	nop

000000008000451c <i_4245>:
    8000451c:	40f4043b          	subw	s0,s0,a5

0000000080004520 <i_4246>:
    80004520:	0087cb33          	xor	s6,a5,s0

0000000080004524 <i_4247>:
    80004524:	1af13423          	sd	a5,424(sp)

0000000080004528 <i_4248>:
    80004528:	7a300d93          	li	s11,1955

000000008000452c <i_4249>:
    8000452c:	7b000a93          	li	s5,1968

0000000080004530 <i_4250>:
    80004530:	faf12a23          	sw	a5,-76(sp)

0000000080004534 <i_4251>:
    80004534:	0363b3b3          	mulhu	t2,t2,s6

0000000080004538 <i_4252>:
    80004538:	06412803          	lw	a6,100(sp)

000000008000453c <i_4253>:
    8000453c:	03486833          	rem	a6,a6,s4

0000000080004540 <i_4254>:
    80004540:	00000013          	nop

0000000080004544 <i_4255>:
    80004544:	032d6663          	bltu	s10,s2,80004570 <i_4265>

0000000080004548 <i_4256>:
    80004548:	001d8d93          	addi	s11,s11,1
    8000454c:	ffba92e3          	bne	s5,s11,80004530 <i_4250>

0000000080004550 <i_4257>:
    80004550:	08f12c23          	sw	a5,152(sp)

0000000080004554 <i_4258>:
    80004554:	007b2533          	slt	a0,s6,t2

0000000080004558 <i_4259>:
    80004558:	ff415b03          	lhu	s6,-12(sp)

000000008000455c <i_4260>:
    8000455c:	11510b03          	lb	s6,277(sp)

0000000080004560 <i_4261>:
    80004560:	01b00393          	li	t2,27

0000000080004564 <i_4262>:
    80004564:	407b53bb          	sraw	t2,s6,t2

0000000080004568 <i_4263>:
    80004568:	fd613023          	sd	s6,-64(sp)

000000008000456c <i_4264>:
    8000456c:	016b1c63          	bne	s6,s6,80004584 <i_4270>

0000000080004570 <i_4265>:
    80004570:	0d6102a3          	sb	s6,197(sp)

0000000080004574 <i_4266>:
    80004574:	f4310ba3          	sb	gp,-169(sp)

0000000080004578 <i_4267>:
    80004578:	01055863          	ble	a6,a0,80004588 <i_4271>

000000008000457c <i_4268>:
    8000457c:	036b5063          	ble	s6,s6,8000459c <i_4276>

0000000080004580 <i_4269>:
    80004580:	007c4463          	blt	s8,t2,80004588 <i_4271>

0000000080004584 <i_4270>:
    80004584:	027b0263          	beq	s6,t2,800045a8 <i_4279>

0000000080004588 <i_4271>:
    80004588:	f6813d83          	ld	s11,-152(sp)

000000008000458c <i_4272>:
    8000458c:	00000013          	nop

0000000080004590 <i_4273>:
    80004590:	eb812403          	lw	s0,-328(sp)

0000000080004594 <i_4274>:
    80004594:	02a00e13          	li	t3,42

0000000080004598 <i_4275>:
    80004598:	41c85433          	sra	s0,a6,t3

000000008000459c <i_4276>:
    8000459c:	1e412e83          	lw	t4,484(sp)

00000000800045a0 <i_4277>:
    800045a0:	001ed41b          	srliw	s0,t4,0x1

00000000800045a4 <i_4278>:
    800045a4:	00c00193          	li	gp,12

00000000800045a8 <i_4279>:
    800045a8:	003e943b          	sllw	s0,t4,gp

00000000800045ac <i_4280>:
    800045ac:	fbd11823          	sh	t4,-80(sp)

00000000800045b0 <i_4281>:
    800045b0:	85c00393          	li	t2,-1956

00000000800045b4 <i_4282>:
    800045b4:	85f00b13          	li	s6,-1953

00000000800045b8 <i_4283>:
    800045b8:	e2812023          	sw	s0,-480(sp)

00000000800045bc <i_4284>:
    800045bc:	02840433          	mul	s0,s0,s0

00000000800045c0 <i_4285>:
    800045c0:	78100993          	li	s3,1921

00000000800045c4 <i_4286>:
    800045c4:	78f00813          	li	a6,1935

00000000800045c8 <i_4287>:
    800045c8:	00000013          	nop

00000000800045cc <i_4288>:
    800045cc:	e6812783          	lw	a5,-408(sp)

00000000800045d0 <i_4289>:
    800045d0:	00198993          	addi	s3,s3,1
    800045d4:	ff099ae3          	bne	s3,a6,800045c8 <i_4287>

00000000800045d8 <i_4290>:
    800045d8:	1d414f03          	lbu	t5,468(sp)

00000000800045dc <i_4291>:
    800045dc:	00138393          	addi	t2,t2,1 # ffffffffbc2c3001 <_end+0xffffffff3c2b2bed>
    800045e0:	fd63cce3          	blt	t2,s6,800045b8 <i_4283>

00000000800045e4 <i_4292>:
    800045e4:	00000013          	nop

00000000800045e8 <i_4293>:
    800045e8:	7825de97          	auipc	t4,0x7825d

00000000800045ec <i_4294>:
    800045ec:	01b00793          	li	a5,27

00000000800045f0 <i_4295>:
    800045f0:	40fed33b          	sraw	t1,t4,a5

00000000800045f4 <i_4296>:
    800045f4:	027343b3          	div	t2,t1,t2

00000000800045f8 <i_4297>:
    800045f8:	025f433b          	divw	t1,t5,t0

00000000800045fc <i_4298>:
    800045fc:	026362bb          	remw	t0,t1,t1

0000000080004600 <i_4299>:
    80004600:	0042d29b          	srliw	t0,t0,0x4

0000000080004604 <i_4300>:
    80004604:	01e00293          	li	t0,30

0000000080004608 <i_4301>:
    80004608:	005292bb          	sllw	t0,t0,t0

000000008000460c <i_4302>:
    8000460c:	01100313          	li	t1,17

0000000080004610 <i_4303>:
    80004610:	4062d333          	sra	t1,t0,t1

0000000080004614 <i_4304>:
    80004614:	08513823          	sd	t0,144(sp)

0000000080004618 <i_4305>:
    80004618:	005efeb3          	and	t4,t4,t0

000000008000461c <i_4306>:
    8000461c:	e7816303          	lwu	t1,-392(sp)

0000000080004620 <i_4307>:
    80004620:	eb814283          	lbu	t0,-328(sp)

0000000080004624 <i_4308>:
    80004624:	f6816303          	lwu	t1,-152(sp)

0000000080004628 <i_4309>:
    80004628:	0252e063          	bltu	t0,t0,80004648 <i_4317>

000000008000462c <i_4310>:
    8000462c:	006a4a33          	xor	s4,s4,t1

0000000080004630 <i_4311>:
    80004630:	fe013983          	ld	s3,-32(sp)

0000000080004634 <i_4312>:
    80004634:	033c0c3b          	mulw	s8,s8,s3

0000000080004638 <i_4313>:
    80004638:	f3012c03          	lw	s8,-208(sp)

000000008000463c <i_4314>:
    8000463c:	7adc2093          	slti	ra,s8,1965

0000000080004640 <i_4315>:
    80004640:	0380e9b3          	rem	s3,ra,s8

0000000080004644 <i_4316>:
    80004644:	00108a63          	beq	ra,ra,80004658 <i_4321>

0000000080004648 <i_4317>:
    80004648:	401080bb          	subw	ra,ra,ra

000000008000464c <i_4318>:
    8000464c:	1e412083          	lw	ra,484(sp)

0000000080004650 <i_4319>:
    80004650:	007083b3          	add	t2,ra,t2

0000000080004654 <i_4320>:
    80004654:	0270c063          	blt	ra,t2,80004674 <i_4328>

0000000080004658 <i_4321>:
    80004658:	02a0f53b          	remuw	a0,ra,a0

000000008000465c <i_4322>:
    8000465c:	014530b3          	sltu	ra,a0,s4

0000000080004660 <i_4323>:
    80004660:	00a084b3          	add	s1,ra,a0

0000000080004664 <i_4324>:
    80004664:	e9411603          	lh	a2,-364(sp)

0000000080004668 <i_4325>:
    80004668:	10012203          	lw	tp,256(sp)

000000008000466c <i_4326>:
    8000466c:	40c08bb3          	sub	s7,ra,a2

0000000080004670 <i_4327>:
    80004670:	13016d03          	lwu	s10,304(sp)

0000000080004674 <i_4328>:
    80004674:	ec013983          	ld	s3,-320(sp)

0000000080004678 <i_4329>:
    80004678:	0040cdb3          	xor	s11,ra,tp

000000008000467c <i_4330>:
    8000467c:	fc012983          	lw	s3,-64(sp)

0000000080004680 <i_4331>:
    80004680:	09b13023          	sd	s11,128(sp)

0000000080004684 <i_4332>:
    80004684:	024d623b          	remw	tp,s10,tp

0000000080004688 <i_4333>:
    80004688:	00499263          	bne	s3,tp,8000468c <i_4334>

000000008000468c <i_4334>:
    8000468c:	e8016383          	lwu	t2,-384(sp)

0000000080004690 <i_4335>:
    80004690:	0c410e23          	sb	tp,220(sp)

0000000080004694 <i_4336>:
    80004694:	fe713423          	sd	t2,-24(sp)

0000000080004698 <i_4337>:
    80004698:	f1c12203          	lw	tp,-228(sp)

000000008000469c <i_4338>:
    8000469c:	f2016d03          	lwu	s10,-224(sp)

00000000800046a0 <i_4339>:
    800046a0:	1b911e23          	sh	s9,444(sp)

00000000800046a4 <i_4340>:
    800046a4:	b5fd7d13          	andi	s10,s10,-1185

00000000800046a8 <i_4341>:
    800046a8:	faf14d03          	lbu	s10,-81(sp)

00000000800046ac <i_4342>:
    800046ac:	05a13c23          	sd	s10,88(sp)

00000000800046b0 <i_4343>:
    800046b0:	004c8cb3          	add	s9,s9,tp

00000000800046b4 <i_4344>:
    800046b4:	039d4633          	div	a2,s10,s9

00000000800046b8 <i_4345>:
    800046b8:	60026a93          	ori	s5,tp,1536

00000000800046bc <i_4346>:
    800046bc:	f7a12023          	sw	s10,-160(sp)

00000000800046c0 <i_4347>:
    800046c0:	41a202b3          	sub	t0,tp,s10

00000000800046c4 <i_4348>:
    800046c4:	e8a11d03          	lh	s10,-374(sp)

00000000800046c8 <i_4349>:
    800046c8:	005d1863          	bne	s10,t0,800046d8 <i_4353>

00000000800046cc <i_4350>:
    800046cc:	01a2ce63          	blt	t0,s10,800046e8 <i_4357>

00000000800046d0 <i_4351>:
    800046d0:	013d0c63          	beq	s10,s3,800046e8 <i_4357>

00000000800046d4 <i_4352>:
    800046d4:	0352f263          	bleu	s5,t0,800046f8 <i_4361>

00000000800046d8 <i_4353>:
    800046d8:	0d512023          	sw	s5,192(sp)

00000000800046dc <i_4354>:
    800046dc:	0252c633          	div	a2,t0,t0

00000000800046e0 <i_4355>:
    800046e0:	13c16b03          	lwu	s6,316(sp)

00000000800046e4 <i_4356>:
    800046e4:	16c12a23          	sw	a2,372(sp)

00000000800046e8 <i_4357>:
    800046e8:	03c2ee33          	rem	t3,t0,t3

00000000800046ec <i_4358>:
    800046ec:	022a9e33          	mulh	t3,s5,sp

00000000800046f0 <i_4359>:
    800046f0:	fd511223          	sh	s5,-60(sp)

00000000800046f4 <i_4360>:
    800046f4:	9272ba93          	sltiu	s5,t0,-1753

00000000800046f8 <i_4361>:
    800046f8:	00564a63          	blt	a2,t0,8000470c <i_4366>

00000000800046fc <i_4362>:
    800046fc:	41560c33          	sub	s8,a2,s5

0000000080004700 <i_4363>:
    80004700:	15415d03          	lhu	s10,340(sp)

0000000080004704 <i_4364>:
    80004704:	01ae5263          	ble	s10,t3,80004708 <i_4365>

0000000080004708 <i_4365>:
    80004708:	ffa13c23          	sd	s10,-8(sp)

000000008000470c <i_4366>:
    8000470c:	e6c15d03          	lhu	s10,-404(sp)

0000000080004710 <i_4367>:
    80004710:	00000013          	nop

0000000080004714 <i_4368>:
    80004714:	75700213          	li	tp,1879

0000000080004718 <i_4369>:
    80004718:	76500a93          	li	s5,1893

000000008000471c <i_4370>:
    8000471c:	eea11b03          	lh	s6,-278(sp)

0000000080004720 <i_4371>:
    80004720:	00120213          	addi	tp,tp,1 # 1 <main-0x7fffffff>
    80004724:	ff524ce3          	blt	tp,s5,8000471c <i_4370>

0000000080004728 <i_4372>:
    80004728:	00411223          	sh	tp,4(sp)

000000008000472c <i_4373>:
    8000472c:	fe412c03          	lw	s8,-28(sp)

0000000080004730 <i_4374>:
    80004730:	01ed6bb3          	or	s7,s10,t5

0000000080004734 <i_4375>:
    80004734:	401b5b13          	srai	s6,s6,0x1

0000000080004738 <i_4376>:
    80004738:	07813c23          	sd	s8,120(sp)

000000008000473c <i_4377>:
    8000473c:	fd914603          	lbu	a2,-39(sp)

0000000080004740 <i_4378>:
    80004740:	00cc6c63          	bltu	s8,a2,80004758 <i_4384>

0000000080004744 <i_4379>:
    80004744:	09a10c03          	lb	s8,154(sp)

0000000080004748 <i_4380>:
    80004748:	f4010603          	lb	a2,-192(sp)

000000008000474c <i_4381>:
    8000474c:	f8c11b03          	lh	s6,-116(sp)

0000000080004750 <i_4382>:
    80004750:	0011d613          	srli	a2,gp,0x1

0000000080004754 <i_4383>:
    80004754:	00ad8463          	beq	s11,a0,8000475c <i_4385>

0000000080004758 <i_4384>:
    80004758:	03e61633          	mulh	a2,a2,t5

000000008000475c <i_4385>:
    8000475c:	02c62633          	mulhsu	a2,a2,a2

0000000080004760 <i_4386>:
    80004760:	00161613          	slli	a2,a2,0x1

0000000080004764 <i_4387>:
    80004764:	2546c637          	lui	a2,0x2546c

0000000080004768 <i_4388>:
    80004768:	5cf62613          	slti	a2,a2,1487

000000008000476c <i_4389>:
    8000476c:	02cc3233          	mulhu	tp,s8,a2

0000000080004770 <i_4390>:
    80004770:	f04100a3          	sb	tp,-255(sp)

0000000080004774 <i_4391>:
    80004774:	ee615383          	lhu	t2,-282(sp)

0000000080004778 <i_4392>:
    80004778:	40465b13          	srai	s6,a2,0x4

000000008000477c <i_4393>:
    8000477c:	0b014b83          	lbu	s7,176(sp)

0000000080004780 <i_4394>:
    80004780:	02c99633          	mulh	a2,s3,a2

0000000080004784 <i_4395>:
    80004784:	00465263          	ble	tp,a2,80004788 <i_4396>

0000000080004788 <i_4396>:
    80004788:	02c6563b          	divuw	a2,a2,a2

000000008000478c <i_4397>:
    8000478c:	02a39463          	bne	t2,a0,800047b4 <i_4407>

0000000080004790 <i_4398>:
    80004790:	00c209b3          	add	s3,tp,a2

0000000080004794 <i_4399>:
    80004794:	4029559b          	sraiw	a1,s2,0x2

0000000080004798 <i_4400>:
    80004798:	00d00a93          	li	s5,13

000000008000479c <i_4401>:
    8000479c:	415bdcbb          	sraw	s9,s7,s5

00000000800047a0 <i_4402>:
    800047a0:	ee412c03          	lw	s8,-284(sp)

00000000800047a4 <i_4403>:
    800047a4:	f5812c23          	sw	s8,-168(sp)

00000000800047a8 <i_4404>:
    800047a8:	f4712a23          	sw	t2,-172(sp)

00000000800047ac <i_4405>:
    800047ac:	1cc11623          	sh	a2,460(sp)

00000000800047b0 <i_4406>:
    800047b0:	19813203          	ld	tp,408(sp)

00000000800047b4 <i_4407>:
    800047b4:	0cc11383          	lh	t2,204(sp)

00000000800047b8 <i_4408>:
    800047b8:	16e14603          	lbu	a2,366(sp)

00000000800047bc <i_4409>:
    800047bc:	18c12423          	sw	a2,392(sp)

00000000800047c0 <i_4410>:
    800047c0:	001c1c1b          	slliw	s8,s8,0x1

00000000800047c4 <i_4411>:
    800047c4:	00100a93          	li	s5,1

00000000800047c8 <i_4412>:
    800047c8:	015c123b          	sllw	tp,s8,s5

00000000800047cc <i_4413>:
    800047cc:	038af063          	bleu	s8,s5,800047ec <i_4421>

00000000800047d0 <i_4414>:
    800047d0:	018c6ab3          	or	s5,s8,s8

00000000800047d4 <i_4415>:
    800047d4:	1a413c23          	sd	tp,440(sp)

00000000800047d8 <i_4416>:
    800047d8:	015a8663          	beq	s5,s5,800047e4 <i_4419>

00000000800047dc <i_4417>:
    800047dc:	02a15303          	lhu	t1,42(sp)

00000000800047e0 <i_4418>:
    800047e0:	035aaab3          	mulhsu	s5,s5,s5

00000000800047e4 <i_4419>:
    800047e4:	0098bab3          	sltu	s5,a7,s1

00000000800047e8 <i_4420>:
    800047e8:	fe613c23          	sd	t1,-8(sp)

00000000800047ec <i_4421>:
    800047ec:	015ad263          	ble	s5,s5,800047f0 <i_4422>

00000000800047f0 <i_4422>:
    800047f0:	4c6acb93          	xori	s7,s5,1222

00000000800047f4 <i_4423>:
    800047f4:	07c11523          	sh	t3,106(sp)

00000000800047f8 <i_4424>:
    800047f8:	7cb00e13          	li	t3,1995

00000000800047fc <i_4425>:
    800047fc:	7d200293          	li	t0,2002

0000000080004800 <i_4426>:
    80004800:	01700a13          	li	s4,23

0000000080004804 <i_4427>:
    80004804:	0143533b          	srlw	t1,t1,s4

0000000080004808 <i_4428>:
    80004808:	0354d4b3          	divu	s1,s1,s5

000000008000480c <i_4429>:
    8000480c:	00972eb3          	slt	t4,a4,s1

0000000080004810 <i_4430>:
    80004810:	0097f863          	bleu	s1,a5,80004820 <i_4434>

0000000080004814 <i_4431>:
    80004814:	12c16483          	lwu	s1,300(sp)

0000000080004818 <i_4432>:
    80004818:	01d4a4b3          	slt	s1,s1,t4

000000008000481c <i_4433>:
    8000481c:	13815e83          	lhu	t4,312(sp)

0000000080004820 <i_4434>:
    80004820:	84c03c37          	lui	s8,0x84c03

0000000080004824 <i_4435>:
    80004824:	01eec3b3          	xor	t2,t4,t5

0000000080004828 <i_4436>:
    80004828:	0bc10503          	lb	a0,188(sp)

000000008000482c <i_4437>:
    8000482c:	1bd13823          	sd	t4,432(sp)

0000000080004830 <i_4438>:
    80004830:	09014203          	lbu	tp,144(sp)

0000000080004834 <i_4439>:
    80004834:	f3412803          	lw	a6,-204(sp)

0000000080004838 <i_4440>:
    80004838:	001e0e13          	addi	t3,t3,1
    8000483c:	fdc2d2e3          	ble	t3,t0,80004800 <i_4426>

0000000080004840 <i_4441>:
    80004840:	02781463          	bne	a6,t2,80004868 <i_4451>

0000000080004844 <i_4442>:
    80004844:	01d4c463          	blt	s1,t4,8000484c <i_4444>

0000000080004848 <i_4443>:
    80004848:	01600513          	li	a0,22

000000008000484c <i_4444>:
    8000484c:	00a814bb          	sllw	s1,a6,a0

0000000080004850 <i_4445>:
    80004850:	1a210c83          	lb	s9,418(sp)

0000000080004854 <i_4446>:
    80004854:	01400813          	li	a6,20

0000000080004858 <i_4447>:
    80004858:	010adabb          	srlw	s5,s5,a6

000000008000485c <i_4448>:
    8000485c:	1b610483          	lb	s1,438(sp)

0000000080004860 <i_4449>:
    80004860:	e2a12e23          	sw	a0,-452(sp)

0000000080004864 <i_4450>:
    80004864:	f4b14e83          	lbu	t4,-181(sp)

0000000080004868 <i_4451>:
    80004868:	14913823          	sd	s1,336(sp)

000000008000486c <i_4452>:
    8000486c:	039cb4b3          	mulhu	s1,s9,s9

0000000080004870 <i_4453>:
    80004870:	06016e83          	lwu	t4,96(sp)

0000000080004874 <i_4454>:
    80004874:	7e6ee493          	ori	s1,t4,2022

0000000080004878 <i_4455>:
    80004878:	03800493          	li	s1,56

000000008000487c <i_4456>:
    8000487c:	409f54b3          	sra	s1,t5,s1

0000000080004880 <i_4457>:
    80004880:	03dec43b          	divw	s0,t4,t4

0000000080004884 <i_4458>:
    80004884:	f0c16f03          	lwu	t5,-244(sp)

0000000080004888 <i_4459>:
    80004888:	108105a3          	sb	s0,267(sp)

000000008000488c <i_4460>:
    8000488c:	f1013803          	ld	a6,-240(sp)

0000000080004890 <i_4461>:
    80004890:	0104e263          	bltu	s1,a6,80004894 <i_4462>

0000000080004894 <i_4462>:
    80004894:	01615483          	lhu	s1,22(sp)

0000000080004898 <i_4463>:
    80004898:	14813b03          	ld	s6,328(sp)

000000008000489c <i_4464>:
    8000489c:	00481e9b          	slliw	t4,a6,0x4

00000000800048a0 <i_4465>:
    800048a0:	02986463          	bltu	a6,s1,800048c8 <i_4475>

00000000800048a4 <i_4466>:
    800048a4:	01a14483          	lbu	s1,26(sp)

00000000800048a8 <i_4467>:
    800048a8:	08411e83          	lh	t4,132(sp)

00000000800048ac <i_4468>:
    800048ac:	f9011b03          	lh	s6,-112(sp)

00000000800048b0 <i_4469>:
    800048b0:	003b5e93          	srli	t4,s6,0x3

00000000800048b4 <i_4470>:
    800048b4:	f5c11683          	lh	a3,-164(sp)

00000000800048b8 <i_4471>:
    800048b8:	00deceb3          	xor	t4,t4,a3

00000000800048bc <i_4472>:
    800048bc:	1bc12e83          	lw	t4,444(sp)

00000000800048c0 <i_4473>:
    800048c0:	04314383          	lbu	t2,67(sp)

00000000800048c4 <i_4474>:
    800048c4:	04013183          	ld	gp,64(sp)

00000000800048c8 <i_4475>:
    800048c8:	e4c12683          	lw	a3,-436(sp)

00000000800048cc <i_4476>:
    800048cc:	06d10aa3          	sb	a3,117(sp)

00000000800048d0 <i_4477>:
    800048d0:	0233d063          	ble	gp,t2,800048f0 <i_4485>

00000000800048d4 <i_4478>:
    800048d4:	03e14203          	lbu	tp,62(sp)

00000000800048d8 <i_4479>:
    800048d8:	4046d313          	srai	t1,a3,0x4

00000000800048dc <i_4480>:
    800048dc:	02339063          	bne	t2,gp,800048fc <i_4488>

00000000800048e0 <i_4481>:
    800048e0:	02d00393          	li	t2,45

00000000800048e4 <i_4482>:
    800048e4:	40745eb3          	sra	t4,s0,t2

00000000800048e8 <i_4483>:
    800048e8:	001d5d1b          	srliw	s10,s10,0x1

00000000800048ec <i_4484>:
    800048ec:	00000013          	nop

00000000800048f0 <i_4485>:
    800048f0:	03a1bd33          	mulhu	s10,gp,s10

00000000800048f4 <i_4486>:
    800048f4:	40b18a3b          	subw	s4,gp,a1

00000000800048f8 <i_4487>:
    800048f8:	4011d29b          	sraiw	t0,gp,0x1

00000000800048fc <i_4488>:
    800048fc:	e2e10283          	lb	t0,-466(sp)

0000000080004900 <i_4489>:
    80004900:	0052f2b3          	and	t0,t0,t0

0000000080004904 <i_4490>:
    80004904:	81700993          	li	s3,-2025

0000000080004908 <i_4491>:
    80004908:	82600193          	li	gp,-2010

000000008000490c <i_4492>:
    8000490c:	f4211e83          	lh	t4,-190(sp)

0000000080004910 <i_4493>:
    80004910:	00198993          	addi	s3,s3,1
    80004914:	fe39cce3          	blt	s3,gp,8000490c <i_4492>

0000000080004918 <i_4494>:
    80004918:	00012d83          	lw	s11,0(sp)

000000008000491c <i_4495>:
    8000491c:	004d5d9b          	srliw	s11,s10,0x4

0000000080004920 <i_4496>:
    80004920:	ffd12e23          	sw	t4,-4(sp)

0000000080004924 <i_4497>:
    80004924:	025e4ebb          	divw	t4,t3,t0

0000000080004928 <i_4498>:
    80004928:	04512c23          	sw	t0,88(sp)

000000008000492c <i_4499>:
    8000492c:	41428633          	sub	a2,t0,s4

0000000080004930 <i_4500>:
    80004930:	0025ca63          	blt	a1,sp,80004944 <i_4505>

0000000080004934 <i_4501>:
    80004934:	10914583          	lbu	a1,265(sp)

0000000080004938 <i_4502>:
    80004938:	41260533          	sub	a0,a2,s2

000000008000493c <i_4503>:
    8000493c:	030de833          	rem	a6,s11,a6

0000000080004940 <i_4504>:
    80004940:	00b5fe63          	bleu	a1,a1,8000495c <i_4511>

0000000080004944 <i_4505>:
    80004944:	1b816d83          	lwu	s11,440(sp)

0000000080004948 <i_4506>:
    80004948:	01900393          	li	t2,25

000000008000494c <i_4507>:
    8000494c:	407dddb3          	sra	s11,s11,t2

0000000080004950 <i_4508>:
    80004950:	3c2cdd97          	auipc	s11,0x3c2cd

0000000080004954 <i_4509>:
    80004954:	54ce6d97          	auipc	s11,0x54ce6

0000000080004958 <i_4510>:
    80004958:	fbc12583          	lw	a1,-68(sp)

000000008000495c <i_4511>:
    8000495c:	02758233          	mul	tp,a1,t2

0000000080004960 <i_4512>:
    80004960:	03b82ab3          	mulhsu	s5,a6,s11

0000000080004964 <i_4513>:
    80004964:	00000013          	nop

0000000080004968 <i_4514>:
    80004968:	fbb12c23          	sw	s11,-72(sp)

000000008000496c <i_4515>:
    8000496c:	86700d93          	li	s11,-1945

0000000080004970 <i_4516>:
    80004970:	87100813          	li	a6,-1935

0000000080004974 <i_4517>:
    80004974:	03bd9063          	bne	s11,s11,80004994 <i_4525>

0000000080004978 <i_4518>:
    80004978:	01531c63          	bne	t1,s5,80004990 <i_4524>

000000008000497c <i_4519>:
    8000497c:	0e013a83          	ld	s5,224(sp)

0000000080004980 <i_4520>:
    80004980:	f3114a83          	lbu	s5,-207(sp)

0000000080004984 <i_4521>:
    80004984:	035ac063          	blt	s5,s5,800049a4 <i_4529>

0000000080004988 <i_4522>:
    80004988:	ed5109a3          	sb	s5,-301(sp)

000000008000498c <i_4523>:
    8000498c:	01085c63          	ble	a6,a6,800049a4 <i_4529>

0000000080004990 <i_4524>:
    80004990:	12b12423          	sw	a1,296(sp)

0000000080004994 <i_4525>:
    80004994:	f6813583          	ld	a1,-152(sp)

0000000080004998 <i_4526>:
    80004998:	ec615583          	lhu	a1,-314(sp)

000000008000499c <i_4527>:
    8000499c:	00b5c663          	blt	a1,a1,800049a8 <i_4530>

00000000800049a0 <i_4528>:
    800049a0:	00000013          	nop

00000000800049a4 <i_4529>:
    800049a4:	02aed063          	ble	a0,t4,800049c4 <i_4536>

00000000800049a8 <i_4530>:
    800049a8:	035acab3          	div	s5,s5,s5

00000000800049ac <i_4531>:
    800049ac:	f6815203          	lhu	tp,-152(sp)

00000000800049b0 <i_4532>:
    800049b0:	01526333          	or	t1,tp,s5

00000000800049b4 <i_4533>:
    800049b4:	001d8d93          	addi	s11,s11,1 # d4cea955 <_end+0x54cda541>
    800049b8:	fb0dcee3          	blt	s11,a6,80004974 <i_4517>

00000000800049bc <i_4534>:
    800049bc:	1c612623          	sw	t1,460(sp)

00000000800049c0 <i_4535>:
    800049c0:	00400213          	li	tp,4

00000000800049c4 <i_4536>:
    800049c4:	0042533b          	srlw	t1,tp,tp

00000000800049c8 <i_4537>:
    800049c8:	e1c11683          	lh	a3,-484(sp)

00000000800049cc <i_4538>:
    800049cc:	02d00993          	li	s3,45

00000000800049d0 <i_4539>:
    800049d0:	013219b3          	sll	s3,tp,s3

00000000800049d4 <i_4540>:
    800049d4:	01312823          	sw	s3,16(sp)

00000000800049d8 <i_4541>:
    800049d8:	02d6e063          	bltu	a3,a3,800049f8 <i_4549>

00000000800049dc <i_4542>:
    800049dc:	013989b3          	add	s3,s3,s3

00000000800049e0 <i_4543>:
    800049e0:	00499a13          	slli	s4,s3,0x4

00000000800049e4 <i_4544>:
    800049e4:	14d11723          	sh	a3,334(sp)

00000000800049e8 <i_4545>:
    800049e8:	f0813683          	ld	a3,-248(sp)

00000000800049ec <i_4546>:
    800049ec:	eb3107a3          	sb	s3,-337(sp)

00000000800049f0 <i_4547>:
    800049f0:	00000013          	nop

00000000800049f4 <i_4548>:
    800049f4:	0d34ac13          	slti	s8,s1,211

00000000800049f8 <i_4549>:
    800049f8:	f4211683          	lh	a3,-190(sp)

00000000800049fc <i_4550>:
    800049fc:	00000013          	nop

0000000080004a00 <i_4551>:
    80004a00:	83f00b93          	li	s7,-1985

0000000080004a04 <i_4552>:
    80004a04:	84300b13          	li	s6,-1981

0000000080004a08 <i_4553>:
    80004a08:	fb610123          	sb	s6,-94(sp)

0000000080004a0c <i_4554>:
    80004a0c:	00e00693          	li	a3,14

0000000080004a10 <i_4555>:
    80004a10:	00d695bb          	sllw	a1,a3,a3

0000000080004a14 <i_4556>:
    80004a14:	01010303          	lb	t1,16(sp)

0000000080004a18 <i_4557>:
    80004a18:	001b8b93          	addi	s7,s7,1
    80004a1c:	ff6be6e3          	bltu	s7,s6,80004a08 <i_4553>

0000000080004a20 <i_4558>:
    80004a20:	e8a15603          	lhu	a2,-374(sp)

0000000080004a24 <i_4559>:
    80004a24:	0aa11303          	lh	t1,170(sp)

0000000080004a28 <i_4560>:
    80004a28:	01550533          	add	a0,a0,s5

0000000080004a2c <i_4561>:
    80004a2c:	02a51063          	bne	a0,a0,80004a4c <i_4569>

0000000080004a30 <i_4562>:
    80004a30:	12a11a23          	sh	a0,308(sp)

0000000080004a34 <i_4563>:
    80004a34:	e4614383          	lbu	t2,-442(sp)

0000000080004a38 <i_4564>:
    80004a38:	0a612623          	sw	t1,172(sp)

0000000080004a3c <i_4565>:
    80004a3c:	edb14f03          	lbu	t5,-293(sp)

0000000080004a40 <i_4566>:
    80004a40:	006e0863          	beq	t3,t1,80004a50 <i_4570>

0000000080004a44 <i_4567>:
    80004a44:	0273d463          	ble	t2,t2,80004a6c <i_4577>

0000000080004a48 <i_4568>:
    80004a48:	00a33633          	sltu	a2,t1,a0

0000000080004a4c <i_4569>:
    80004a4c:	023327b3          	mulhsu	a5,t1,gp

0000000080004a50 <i_4570>:
    80004a50:	0015121b          	slliw	tp,a0,0x1

0000000080004a54 <i_4571>:
    80004a54:	03e577b3          	remu	a5,a0,t5

0000000080004a58 <i_4572>:
    80004a58:	10811a83          	lh	s5,264(sp)

0000000080004a5c <i_4573>:
    80004a5c:	035a8263          	beq	s5,s5,80004a80 <i_4582>

0000000080004a60 <i_4574>:
    80004a60:	de186d93          	ori	s11,a6,-543

0000000080004a64 <i_4575>:
    80004a64:	f4a13823          	sd	a0,-176(sp)

0000000080004a68 <i_4576>:
    80004a68:	0d812503          	lw	a0,216(sp)

0000000080004a6c <i_4577>:
    80004a6c:	fb514c83          	lbu	s9,-75(sp)

0000000080004a70 <i_4578>:
    80004a70:	e1811583          	lh	a1,-488(sp)

0000000080004a74 <i_4579>:
    80004a74:	11813583          	ld	a1,280(sp)

0000000080004a78 <i_4580>:
    80004a78:	1b911823          	sh	s9,432(sp)

0000000080004a7c <i_4581>:
    80004a7c:	1a016d03          	lwu	s10,416(sp)

0000000080004a80 <i_4582>:
    80004a80:	00000013          	nop

0000000080004a84 <i_4583>:
    80004a84:	ef812483          	lw	s1,-264(sp)

0000000080004a88 <i_4584>:
    80004a88:	80900c93          	li	s9,-2039

0000000080004a8c <i_4585>:
    80004a8c:	80b00b13          	li	s6,-2037

0000000080004a90 <i_4586>:
    80004a90:	e9a103a3          	sb	s10,-377(sp)

0000000080004a94 <i_4587>:
    80004a94:	01d00493          	li	s1,29

0000000080004a98 <i_4588>:
    80004a98:	009594bb          	sllw	s1,a1,s1

0000000080004a9c <i_4589>:
    80004a9c:	01a59263          	bne	a1,s10,80004aa0 <i_4590>

0000000080004aa0 <i_4590>:
    80004aa0:	03ade7bb          	remw	a5,s11,s10

0000000080004aa4 <i_4591>:
    80004aa4:	9d976d37          	lui	s10,0x9d976

0000000080004aa8 <i_4592>:
    80004aa8:	00813d03          	ld	s10,8(sp)

0000000080004aac <i_4593>:
    80004aac:	022fc9bb          	divw	s3,t6,sp

0000000080004ab0 <i_4594>:
    80004ab0:	ede10e83          	lb	t4,-290(sp)

0000000080004ab4 <i_4595>:
    80004ab4:	13011783          	lh	a5,304(sp)

0000000080004ab8 <i_4596>:
    80004ab8:	ec411e83          	lh	t4,-316(sp)

0000000080004abc <i_4597>:
    80004abc:	03d7a833          	mulhsu	a6,a5,t4

0000000080004ac0 <i_4598>:
    80004ac0:	03685ab3          	divu	s5,a6,s6

0000000080004ac4 <i_4599>:
    80004ac4:	ed012e23          	sw	a6,-292(sp)

0000000080004ac8 <i_4600>:
    80004ac8:	001c8c93          	addi	s9,s9,1 # 6ece8001 <main-0x11317fff>
    80004acc:	fd6ce2e3          	bltu	s9,s6,80004a90 <i_4586>

0000000080004ad0 <i_4601>:
    80004ad0:	03d35ebb          	divuw	t4,t1,t4

0000000080004ad4 <i_4602>:
    80004ad4:	03d76063          	bltu	a4,t4,80004af4 <i_4610>

0000000080004ad8 <i_4603>:
    80004ad8:	16615d03          	lhu	s10,358(sp)

0000000080004adc <i_4604>:
    80004adc:	00f84463          	blt	a6,a5,80004ae4 <i_4606>

0000000080004ae0 <i_4605>:
    80004ae0:	0038121b          	slliw	tp,a6,0x3

0000000080004ae4 <i_4606>:
    80004ae4:	010a9463          	bne	s5,a6,80004aec <i_4608>

0000000080004ae8 <i_4607>:
    80004ae8:	ee415e83          	lhu	t4,-284(sp)

0000000080004aec <i_4608>:
    80004aec:	05013203          	ld	tp,80(sp)

0000000080004af0 <i_4609>:
    80004af0:	0e813803          	ld	a6,232(sp)

0000000080004af4 <i_4610>:
    80004af4:	eb111323          	sh	a7,-346(sp)

0000000080004af8 <i_4611>:
    80004af8:	12836d13          	ori	s10,t1,296

0000000080004afc <i_4612>:
    80004afc:	fb812d03          	lw	s10,-72(sp)

0000000080004b00 <i_4613>:
    80004b00:	030d5eb3          	divu	t4,s10,a6

0000000080004b04 <i_4614>:
    80004b04:	00682833          	slt	a6,a6,t1

0000000080004b08 <i_4615>:
    80004b08:	9f0a4237          	lui	tp,0x9f0a4

0000000080004b0c <i_4616>:
    80004b0c:	0266d6bb          	divuw	a3,a3,t1

0000000080004b10 <i_4617>:
    80004b10:	01d6fa63          	bleu	t4,a3,80004b24 <i_4622>

0000000080004b14 <i_4618>:
    80004b14:	0032531b          	srliw	t1,tp,0x3

0000000080004b18 <i_4619>:
    80004b18:	4061883b          	subw	a6,gp,t1

0000000080004b1c <i_4620>:
    80004b1c:	02636463          	bltu	t1,t1,80004b44 <i_4630>

0000000080004b20 <i_4621>:
    80004b20:	03d30263          	beq	t1,t4,80004b44 <i_4630>

0000000080004b24 <i_4622>:
    80004b24:	ec412303          	lw	t1,-316(sp)

0000000080004b28 <i_4623>:
    80004b28:	033359bb          	divuw	s3,t1,s3

0000000080004b2c <i_4624>:
    80004b2c:	f6d13c23          	sd	a3,-136(sp)

0000000080004b30 <i_4625>:
    80004b30:	0e914583          	lbu	a1,233(sp)

0000000080004b34 <i_4626>:
    80004b34:	f1411303          	lh	t1,-236(sp)

0000000080004b38 <i_4627>:
    80004b38:	0065e433          	or	s0,a1,t1

0000000080004b3c <i_4628>:
    80004b3c:	40b803b3          	sub	t2,a6,a1

0000000080004b40 <i_4629>:
    80004b40:	e6012683          	lw	a3,-416(sp)

0000000080004b44 <i_4630>:
    80004b44:	fa712a23          	sw	t2,-76(sp)

0000000080004b48 <i_4631>:
    80004b48:	027590b3          	mulh	ra,a1,t2

0000000080004b4c <i_4632>:
    80004b4c:	77700813          	li	a6,1911

0000000080004b50 <i_4633>:
    80004b50:	78800593          	li	a1,1928

0000000080004b54 <i_4634>:
    80004b54:	e2d11723          	sh	a3,-466(sp)

0000000080004b58 <i_4635>:
    80004b58:	12811d03          	lh	s10,296(sp)

0000000080004b5c <i_4636>:
    80004b5c:	00139263          	bne	t2,ra,80004b60 <i_4637>

0000000080004b60 <i_4637>:
    80004b60:	03dd1263          	bne	s10,t4,80004b84 <i_4645>

0000000080004b64 <i_4638>:
    80004b64:	0025dc9b          	srliw	s9,a1,0x2

0000000080004b68 <i_4639>:
    80004b68:	0275d263          	ble	t2,a1,80004b8c <i_4647>

0000000080004b6c <i_4640>:
    80004b6c:	12215a03          	lhu	s4,290(sp)

0000000080004b70 <i_4641>:
    80004b70:	fbc12083          	lw	ra,-68(sp)

0000000080004b74 <i_4642>:
    80004b74:	00180813          	addi	a6,a6,1
    80004b78:	fd05fee3          	bleu	a6,a1,80004b54 <i_4634>

0000000080004b7c <i_4643>:
    80004b7c:	0340d3b3          	divu	t2,ra,s4

0000000080004b80 <i_4644>:
    80004b80:	03da3d33          	mulhu	s10,s4,t4

0000000080004b84 <i_4645>:
    80004b84:	021a9263          	bne	s5,ra,80004ba8 <i_4654>

0000000080004b88 <i_4646>:
    80004b88:	05813a03          	ld	s4,88(sp)

0000000080004b8c <i_4647>:
    80004b8c:	03415b03          	lhu	s6,52(sp)

0000000080004b90 <i_4648>:
    80004b90:	01608463          	beq	ra,s6,80004b98 <i_4650>

0000000080004b94 <i_4649>:
    80004b94:	1a812783          	lw	a5,424(sp)

0000000080004b98 <i_4650>:
    80004b98:	0b415483          	lhu	s1,180(sp)

0000000080004b9c <i_4651>:
    80004b9c:	09411623          	sh	s4,140(sp)

0000000080004ba0 <i_4652>:
    80004ba0:	f1215983          	lhu	s3,-238(sp)

0000000080004ba4 <i_4653>:
    80004ba4:	002b5e1b          	srliw	t3,s6,0x2

0000000080004ba8 <i_4654>:
    80004ba8:	e9812583          	lw	a1,-360(sp)

0000000080004bac <i_4655>:
    80004bac:	009e1663          	bne	t3,s1,80004bb8 <i_4658>

0000000080004bb0 <i_4656>:
    80004bb0:	00816383          	lwu	t2,8(sp)

0000000080004bb4 <i_4657>:
    80004bb4:	03c59e33          	mulh	t3,a1,t3

0000000080004bb8 <i_4658>:
    80004bb8:	e8b13423          	sd	a1,-376(sp)

0000000080004bbc <i_4659>:
    80004bbc:	01c59e63          	bne	a1,t3,80004bd8 <i_4666>

0000000080004bc0 <i_4660>:
    80004bc0:	02be2e33          	mulhsu	t3,t3,a1

0000000080004bc4 <i_4661>:
    80004bc4:	02b7853b          	mulw	a0,a5,a1

0000000080004bc8 <i_4662>:
    80004bc8:	18f12c23          	sw	a5,408(sp)

0000000080004bcc <i_4663>:
    80004bcc:	f4016e03          	lwu	t3,-192(sp)

0000000080004bd0 <i_4664>:
    80004bd0:	e4b11f23          	sh	a1,-418(sp)

0000000080004bd4 <i_4665>:
    80004bd4:	02000313          	li	t1,32

0000000080004bd8 <i_4666>:
    80004bd8:	00659833          	sll	a6,a1,t1

0000000080004bdc <i_4667>:
    80004bdc:	04412c83          	lw	s9,68(sp)

0000000080004be0 <i_4668>:
    80004be0:	87500193          	li	gp,-1931

0000000080004be4 <i_4669>:
    80004be4:	87800793          	li	a5,-1928

0000000080004be8 <i_4670>:
    80004be8:	03d00a13          	li	s4,61

0000000080004bec <i_4671>:
    80004bec:	414e53b3          	sra	t2,t3,s4

0000000080004bf0 <i_4672>:
    80004bf0:	ea816203          	lwu	tp,-344(sp)

0000000080004bf4 <i_4673>:
    80004bf4:	f4a14483          	lbu	s1,-182(sp)

0000000080004bf8 <i_4674>:
    80004bf8:	12011203          	lh	tp,288(sp)

0000000080004bfc <i_4675>:
    80004bfc:	00000013          	nop

0000000080004c00 <i_4676>:
    80004c00:	fac16483          	lwu	s1,-84(sp)

0000000080004c04 <i_4677>:
    80004c04:	00b00e93          	li	t4,11

0000000080004c08 <i_4678>:
    80004c08:	01dbd83b          	srlw	a6,s7,t4

0000000080004c0c <i_4679>:
    80004c0c:	e9d10ba3          	sb	t4,-361(sp)

0000000080004c10 <i_4680>:
    80004c10:	fe913823          	sd	s1,-16(sp)

0000000080004c14 <i_4681>:
    80004c14:	00118193          	addi	gp,gp,1
    80004c18:	fcf1c8e3          	blt	gp,a5,80004be8 <i_4670>

0000000080004c1c <i_4682>:
    80004c1c:	1a015803          	lhu	a6,416(sp)

0000000080004c20 <i_4683>:
    80004c20:	404ed49b          	sraiw	s1,t4,0x4

0000000080004c24 <i_4684>:
    80004c24:	f6912823          	sw	s1,-144(sp)

0000000080004c28 <i_4685>:
    80004c28:	1a411383          	lh	t2,420(sp)

0000000080004c2c <i_4686>:
    80004c2c:	0f314a83          	lbu	s5,243(sp)

0000000080004c30 <i_4687>:
    80004c30:	01d943b3          	xor	t2,s2,t4

0000000080004c34 <i_4688>:
    80004c34:	e6b14503          	lbu	a0,-405(sp)

0000000080004c38 <i_4689>:
    80004c38:	00800e93          	li	t4,8

0000000080004c3c <i_4690>:
    80004c3c:	01da983b          	sllw	a6,s5,t4

0000000080004c40 <i_4691>:
    80004c40:	ef110a03          	lb	s4,-271(sp)

0000000080004c44 <i_4692>:
    80004c44:	01c15503          	lhu	a0,28(sp)

0000000080004c48 <i_4693>:
    80004c48:	0a813203          	ld	tp,168(sp)

0000000080004c4c <i_4694>:
    80004c4c:	f2a11b23          	sh	a0,-202(sp)

0000000080004c50 <i_4695>:
    80004c50:	de386693          	ori	a3,a6,-541

0000000080004c54 <i_4696>:
    80004c54:	02a56463          	bltu	a0,a0,80004c7c <i_4706>

0000000080004c58 <i_4697>:
    80004c58:	f9a11c83          	lh	s9,-102(sp)

0000000080004c5c <i_4698>:
    80004c5c:	19816203          	lwu	tp,408(sp)

0000000080004c60 <i_4699>:
    80004c60:	00000013          	nop

0000000080004c64 <i_4700>:
    80004c64:	40dc03b3          	sub	t2,s8,a3

0000000080004c68 <i_4701>:
    80004c68:	fa013a83          	ld	s5,-96(sp)

0000000080004c6c <i_4702>:
    80004c6c:	00000013          	nop

0000000080004c70 <i_4703>:
    80004c70:	e3015f03          	lhu	t5,-464(sp)

0000000080004c74 <i_4704>:
    80004c74:	00000013          	nop

0000000080004c78 <i_4705>:
    80004c78:	41968e3b          	subw	t3,a3,s9

0000000080004c7c <i_4706>:
    80004c7c:	0e313c23          	sd	gp,248(sp)

0000000080004c80 <i_4707>:
    80004c80:	00000013          	nop

0000000080004c84 <i_4708>:
    80004c84:	83200513          	li	a0,-1998

0000000080004c88 <i_4709>:
    80004c88:	83f00193          	li	gp,-1985

0000000080004c8c <i_4710>:
    80004c8c:	ef911e23          	sh	s9,-260(sp)

0000000080004c90 <i_4711>:
    80004c90:	12416383          	lwu	t2,292(sp)

0000000080004c94 <i_4712>:
    80004c94:	00000013          	nop

0000000080004c98 <i_4713>:
    80004c98:	10d14b83          	lbu	s7,269(sp)

0000000080004c9c <i_4714>:
    80004c9c:	00150513          	addi	a0,a0,1 # 588cd001 <main-0x27732fff>
    80004ca0:	fea1f6e3          	bleu	a0,gp,80004c8c <i_4710>

0000000080004ca4 <i_4715>:
    80004ca4:	19f10183          	lb	gp,415(sp)

0000000080004ca8 <i_4716>:
    80004ca8:	1be11323          	sh	t5,422(sp)

0000000080004cac <i_4717>:
    80004cac:	1bc12023          	sw	t3,416(sp)

0000000080004cb0 <i_4718>:
    80004cb0:	41790e33          	sub	t3,s2,s7

0000000080004cb4 <i_4719>:
    80004cb4:	00d1a6b3          	slt	a3,gp,a3

0000000080004cb8 <i_4720>:
    80004cb8:	eac16683          	lwu	a3,-340(sp)

0000000080004cbc <i_4721>:
    80004cbc:	8d400d13          	li	s10,-1836

0000000080004cc0 <i_4722>:
    80004cc0:	8dd00193          	li	gp,-1827

0000000080004cc4 <i_4723>:
    80004cc4:	07a11123          	sh	s10,98(sp)

0000000080004cc8 <i_4724>:
    80004cc8:	00de7433          	and	s0,t3,a3

0000000080004ccc <i_4725>:
    80004ccc:	7b800b93          	li	s7,1976

0000000080004cd0 <i_4726>:
    80004cd0:	7c000313          	li	t1,1984

0000000080004cd4 <i_4727>:
    80004cd4:	00000013          	nop

0000000080004cd8 <i_4728>:
    80004cd8:	06e14b03          	lbu	s6,110(sp)

0000000080004cdc <i_4729>:
    80004cdc:	02d6cb33          	div	s6,a3,a3

0000000080004ce0 <i_4730>:
    80004ce0:	001b8b93          	addi	s7,s7,1
    80004ce4:	ff7358e3          	ble	s7,t1,80004cd4 <i_4727>

0000000080004ce8 <i_4731>:
    80004ce8:	00500313          	li	t1,5

0000000080004cec <i_4732>:
    80004cec:	006b543b          	srlw	s0,s6,t1

0000000080004cf0 <i_4733>:
    80004cf0:	001d0d13          	addi	s10,s10,1 # ffffffff9d976001 <_end+0xffffffff1d965bed>
    80004cf4:	fda1d8e3          	ble	s10,gp,80004cc4 <i_4723>

0000000080004cf8 <i_4734>:
    80004cf8:	e6214683          	lbu	a3,-414(sp)

0000000080004cfc <i_4735>:
    80004cfc:	02d6e063          	bltu	a3,a3,80004d1c <i_4743>

0000000080004d00 <i_4736>:
    80004d00:	0023141b          	slliw	s0,t1,0x2

0000000080004d04 <i_4737>:
    80004d04:	03700313          	li	t1,55

0000000080004d08 <i_4738>:
    80004d08:	006d5d33          	srl	s10,s10,t1

0000000080004d0c <i_4739>:
    80004d0c:	f1210303          	lb	t1,-238(sp)

0000000080004d10 <i_4740>:
    80004d10:	16813583          	ld	a1,360(sp)

0000000080004d14 <i_4741>:
    80004d14:	11a12223          	sw	s10,260(sp)

0000000080004d18 <i_4742>:
    80004d18:	e6814303          	lbu	t1,-408(sp)

0000000080004d1c <i_4743>:
    80004d1c:	0a1106a3          	sb	ra,173(sp)

0000000080004d20 <i_4744>:
    80004d20:	45e30b93          	addi	s7,t1,1118

0000000080004d24 <i_4745>:
    80004d24:	7ca00d13          	li	s10,1994

0000000080004d28 <i_4746>:
    80004d28:	7d400093          	li	ra,2004

0000000080004d2c <i_4747>:
    80004d2c:	fab11b23          	sh	a1,-74(sp)

0000000080004d30 <i_4748>:
    80004d30:	001d0d13          	addi	s10,s10,1
    80004d34:	fe1d6ce3          	bltu	s10,ra,80004d2c <i_4747>

0000000080004d38 <i_4749>:
    80004d38:	16611e23          	sh	t1,380(sp)

0000000080004d3c <i_4750>:
    80004d3c:	fa914e83          	lbu	t4,-87(sp)

0000000080004d40 <i_4751>:
    80004d40:	03defebb          	remuw	t4,t4,t4

0000000080004d44 <i_4752>:
    80004d44:	03dbdc33          	divu	s8,s7,t4

0000000080004d48 <i_4753>:
    80004d48:	19c16e83          	lwu	t4,412(sp)

0000000080004d4c <i_4754>:
    80004d4c:	f5d11123          	sh	t4,-190(sp)

0000000080004d50 <i_4755>:
    80004d50:	01500813          	li	a6,21

0000000080004d54 <i_4756>:
    80004d54:	010edbbb          	srlw	s7,t4,a6

0000000080004d58 <i_4757>:
    80004d58:	010efbb3          	and	s7,t4,a6

0000000080004d5c <i_4758>:
    80004d5c:	22bba393          	slti	t2,s7,555

0000000080004d60 <i_4759>:
    80004d60:	007833b3          	sltu	t2,a6,t2

0000000080004d64 <i_4760>:
    80004d64:	0de14b03          	lbu	s6,222(sp)

0000000080004d68 <i_4761>:
    80004d68:	036ef263          	bleu	s6,t4,80004d8c <i_4770>

0000000080004d6c <i_4762>:
    80004d6c:	03582bb3          	mulhsu	s7,a6,s5

0000000080004d70 <i_4763>:
    80004d70:	19a15a83          	lhu	s5,410(sp)

0000000080004d74 <i_4764>:
    80004d74:	00c00a93          	li	s5,12

0000000080004d78 <i_4765>:
    80004d78:	415c553b          	sraw	a0,s8,s5

0000000080004d7c <i_4766>:
    80004d7c:	f8e11a83          	lh	s5,-114(sp)

0000000080004d80 <i_4767>:
    80004d80:	00000013          	nop

0000000080004d84 <i_4768>:
    80004d84:	00000013          	nop

0000000080004d88 <i_4769>:
    80004d88:	07211503          	lh	a0,114(sp)

0000000080004d8c <i_4770>:
    80004d8c:	03816283          	lwu	t0,56(sp)

0000000080004d90 <i_4771>:
    80004d90:	12815783          	lhu	a5,296(sp)

0000000080004d94 <i_4772>:
    80004d94:	81500c13          	li	s8,-2027

0000000080004d98 <i_4773>:
    80004d98:	81d00613          	li	a2,-2019

0000000080004d9c <i_4774>:
    80004d9c:	035a8463          	beq	s5,s5,80004dc4 <i_4783>

0000000080004da0 <i_4775>:
    80004da0:	00000013          	nop

0000000080004da4 <i_4776>:
    80004da4:	00000013          	nop

0000000080004da8 <i_4777>:
    80004da8:	00b00f13          	li	t5,11

0000000080004dac <i_4778>:
    80004dac:	01ef1f33          	sll	t5,t5,t5

0000000080004db0 <i_4779>:
    80004db0:	18f10623          	sb	a5,396(sp)

0000000080004db4 <i_4780>:
    80004db4:	001c0c13          	addi	s8,s8,1 # ffffffff84c03001 <_end+0xffffffff04bf2bed>
    80004db8:	fecc12e3          	bne	s8,a2,80004d9c <i_4774>

0000000080004dbc <i_4781>:
    80004dbc:	f3b108a3          	sb	s11,-207(sp)

0000000080004dc0 <i_4782>:
    80004dc0:	00f99863          	bne	s3,a5,80004dd0 <i_4786>

0000000080004dc4 <i_4783>:
    80004dc4:	08410303          	lb	t1,132(sp)

0000000080004dc8 <i_4784>:
    80004dc8:	fa013b03          	ld	s6,-96(sp)

0000000080004dcc <i_4785>:
    80004dcc:	00af4533          	xor	a0,t5,a0

0000000080004dd0 <i_4786>:
    80004dd0:	01524e63          	blt	tp,s5,80004dec <i_4793>

0000000080004dd4 <i_4787>:
    80004dd4:	f9b10b23          	sb	s11,-106(sp)

0000000080004dd8 <i_4788>:
    80004dd8:	ee012a83          	lw	s5,-288(sp)

0000000080004ddc <i_4789>:
    80004ddc:	ec811b03          	lh	s6,-312(sp)

0000000080004de0 <i_4790>:
    80004de0:	12c12483          	lw	s1,300(sp)

0000000080004de4 <i_4791>:
    80004de4:	05416483          	lwu	s1,84(sp)

0000000080004de8 <i_4792>:
    80004de8:	0094c663          	blt	s1,s1,80004df4 <i_4795>

0000000080004dec <i_4793>:
    80004dec:	06a11503          	lh	a0,106(sp)

0000000080004df0 <i_4794>:
    80004df0:	01900993          	li	s3,25

0000000080004df4 <i_4795>:
    80004df4:	013c94bb          	sllw	s1,s9,s3

0000000080004df8 <i_4796>:
    80004df8:	04412303          	lw	t1,68(sp)

0000000080004dfc <i_4797>:
    80004dfc:	02f98263          	beq	s3,a5,80004e20 <i_4806>

0000000080004e00 <i_4798>:
    80004e00:	09610e83          	lb	t4,150(sp)

0000000080004e04 <i_4799>:
    80004e04:	02a56263          	bltu	a0,a0,80004e28 <i_4808>

0000000080004e08 <i_4800>:
    80004e08:	03a9cd33          	div	s10,s3,s10

0000000080004e0c <i_4801>:
    80004e0c:	02900993          	li	s3,41

0000000080004e10 <i_4802>:
    80004e10:	013ed533          	srl	a0,t4,s3

0000000080004e14 <i_4803>:
    80004e14:	00c2e2b3          	or	t0,t0,a2

0000000080004e18 <i_4804>:
    80004e18:	00ad1663          	bne	s10,a0,80004e24 <i_4807>

0000000080004e1c <i_4805>:
    80004e1c:	16416283          	lwu	t0,356(sp)

0000000080004e20 <i_4806>:
    80004e20:	00528c63          	beq	t0,t0,80004e38 <i_4812>

0000000080004e24 <i_4807>:
    80004e24:	f2511323          	sh	t0,-218(sp)

0000000080004e28 <i_4808>:
    80004e28:	11e11283          	lh	t0,286(sp)

0000000080004e2c <i_4809>:
    80004e2c:	e6211b03          	lh	s6,-414(sp)

0000000080004e30 <i_4810>:
    80004e30:	016505b3          	add	a1,a0,s6

0000000080004e34 <i_4811>:
    80004e34:	00000013          	nop

0000000080004e38 <i_4812>:
    80004e38:	01700b13          	li	s6,23

0000000080004e3c <i_4813>:
    80004e3c:	016d5433          	srl	s0,s10,s6

0000000080004e40 <i_4814>:
    80004e40:	8d100d13          	li	s10,-1839

0000000080004e44 <i_4815>:
    80004e44:	8e200813          	li	a6,-1822

0000000080004e48 <i_4816>:
    80004e48:	04f14503          	lbu	a0,79(sp)

0000000080004e4c <i_4817>:
    80004e4c:	03a5f063          	bleu	s10,a1,80004e6c <i_4824>

0000000080004e50 <i_4818>:
    80004e50:	f2c11503          	lh	a0,-212(sp)

0000000080004e54 <i_4819>:
    80004e54:	001d0d13          	addi	s10,s10,1
    80004e58:	ff0d18e3          	bne	s10,a6,80004e48 <i_4816>

0000000080004e5c <i_4820>:
    80004e5c:	01685c63          	ble	s6,a6,80004e74 <i_4826>

0000000080004e60 <i_4821>:
    80004e60:	fce15b03          	lhu	s6,-50(sp)

0000000080004e64 <i_4822>:
    80004e64:	02ab4063          	blt	s6,a0,80004e84 <i_4830>

0000000080004e68 <i_4823>:
    80004e68:	01649a63          	bne	s1,s6,80004e7c <i_4828>

0000000080004e6c <i_4824>:
    80004e6c:	00ab0f33          	add	t5,s6,a0

0000000080004e70 <i_4825>:
    80004e70:	19813403          	ld	s0,408(sp)

0000000080004e74 <i_4826>:
    80004e74:	a5f66613          	ori	a2,a2,-1441

0000000080004e78 <i_4827>:
    80004e78:	02c54a3b          	divw	s4,a0,a2

0000000080004e7c <i_4828>:
    80004e7c:	01e15d03          	lhu	s10,30(sp)

0000000080004e80 <i_4829>:
    80004e80:	11416c03          	lwu	s8,276(sp)

0000000080004e84 <i_4830>:
    80004e84:	e9211603          	lh	a2,-366(sp)

0000000080004e88 <i_4831>:
    80004e88:	01900393          	li	t2,25

0000000080004e8c <i_4832>:
    80004e8c:	407c583b          	sraw	a6,s8,t2

0000000080004e90 <i_4833>:
    80004e90:	00000013          	nop

0000000080004e94 <i_4834>:
    80004e94:	e9414383          	lbu	t2,-364(sp)

0000000080004e98 <i_4835>:
    80004e98:	74100c13          	li	s8,1857

0000000080004e9c <i_4836>:
    80004e9c:	74800213          	li	tp,1864

0000000080004ea0 <i_4837>:
    80004ea0:	00000013          	nop

0000000080004ea4 <i_4838>:
    80004ea4:	418200bb          	subw	ra,tp,s8

0000000080004ea8 <i_4839>:
    80004ea8:	06013803          	ld	a6,96(sp)

0000000080004eac <i_4840>:
    80004eac:	e2416083          	lwu	ra,-476(sp)

0000000080004eb0 <i_4841>:
    80004eb0:	e8a15083          	lhu	ra,-374(sp)

0000000080004eb4 <i_4842>:
    80004eb4:	001c0c13          	addi	s8,s8,1
    80004eb8:	fe4c44e3          	blt	s8,tp,80004ea0 <i_4837>

0000000080004ebc <i_4843>:
    80004ebc:	e6111123          	sh	ra,-414(sp)

0000000080004ec0 <i_4844>:
    80004ec0:	0210e463          	bltu	ra,ra,80004ee8 <i_4854>

0000000080004ec4 <i_4845>:
    80004ec4:	07813083          	ld	ra,120(sp)

0000000080004ec8 <i_4846>:
    80004ec8:	0011f463          	bleu	ra,gp,80004ed0 <i_4848>

0000000080004ecc <i_4847>:
    80004ecc:	0044d19b          	srliw	gp,s1,0x4

0000000080004ed0 <i_4848>:
    80004ed0:	0011e263          	bltu	gp,ra,80004ed4 <i_4849>

0000000080004ed4 <i_4849>:
    80004ed4:	0211d463          	ble	ra,gp,80004efc <i_4859>

0000000080004ed8 <i_4850>:
    80004ed8:	f0a15b03          	lhu	s6,-246(sp)

0000000080004edc <i_4851>:
    80004edc:	2d88b197          	auipc	gp,0x2d88b

0000000080004ee0 <i_4852>:
    80004ee0:	00109b1b          	slliw	s6,ra,0x1

0000000080004ee4 <i_4853>:
    80004ee4:	fb613023          	sd	s6,-96(sp)

0000000080004ee8 <i_4854>:
    80004ee8:	00000013          	nop

0000000080004eec <i_4855>:
    80004eec:	00000013          	nop

0000000080004ef0 <i_4856>:
    80004ef0:	f1610423          	sb	s6,-248(sp)

0000000080004ef4 <i_4857>:
    80004ef4:	00000013          	nop

0000000080004ef8 <i_4858>:
    80004ef8:	1350c693          	xori	a3,ra,309

0000000080004efc <i_4859>:
    80004efc:	fe3104a3          	sb	gp,-23(sp)

0000000080004f00 <i_4860>:
    80004f00:	4031db13          	srai	s6,gp,0x3

0000000080004f04 <i_4861>:
    80004f04:	80e00193          	li	gp,-2034

0000000080004f08 <i_4862>:
    80004f08:	81300093          	li	ra,-2029

0000000080004f0c <i_4863>:
    80004f0c:	003b5d13          	srli	s10,s6,0x3

0000000080004f10 <i_4864>:
    80004f10:	00118193          	addi	gp,gp,1 # ad88fedd <_end+0x2d87fac9>
    80004f14:	fe11ece3          	bltu	gp,ra,80004f0c <i_4863>

0000000080004f18 <i_4865>:
    80004f18:	1d610d23          	sb	s6,474(sp)

0000000080004f1c <i_4866>:
    80004f1c:	01a11b03          	lh	s6,26(sp)

0000000080004f20 <i_4867>:
    80004f20:	0036ce63          	blt	a3,gp,80004f3c <i_4874>

0000000080004f24 <i_4868>:
    80004f24:	01a00b13          	li	s6,26

0000000080004f28 <i_4869>:
    80004f28:	016e90bb          	sllw	ra,t4,s6

0000000080004f2c <i_4870>:
    80004f2c:	00a54863          	blt	a0,a0,80004f3c <i_4874>

0000000080004f30 <i_4871>:
    80004f30:	e9c12783          	lw	a5,-356(sp)

0000000080004f34 <i_4872>:
    80004f34:	02ab3533          	mulhu	a0,s6,a0

0000000080004f38 <i_4873>:
    80004f38:	e8f10e23          	sb	a5,-356(sp)

0000000080004f3c <i_4874>:
    80004f3c:	fd211783          	lh	a5,-46(sp)

0000000080004f40 <i_4875>:
    80004f40:	f9c16283          	lwu	t0,-100(sp)

0000000080004f44 <i_4876>:
    80004f44:	f469e517          	auipc	a0,0xf469e

0000000080004f48 <i_4877>:
    80004f48:	00c00c93          	li	s9,12

0000000080004f4c <i_4878>:
    80004f4c:	0195153b          	sllw	a0,a0,s9

0000000080004f50 <i_4879>:
    80004f50:	00551663          	bne	a0,t0,80004f5c <i_4882>

0000000080004f54 <i_4880>:
    80004f54:	01911523          	sh	s9,10(sp)

0000000080004f58 <i_4881>:
    80004f58:	f9011523          	sh	a6,-118(sp)

0000000080004f5c <i_4882>:
    80004f5c:	003c9c9b          	slliw	s9,s9,0x3

0000000080004f60 <i_4883>:
    80004f60:	38ac831b          	addiw	t1,s9,906

0000000080004f64 <i_4884>:
    80004f64:	18c12503          	lw	a0,396(sp)

0000000080004f68 <i_4885>:
    80004f68:	00ace663          	bltu	s9,a0,80004f74 <i_4888>

0000000080004f6c <i_4886>:
    80004f6c:	18c16503          	lwu	a0,396(sp)

0000000080004f70 <i_4887>:
    80004f70:	02f37633          	remu	a2,t1,a5

0000000080004f74 <i_4888>:
    80004f74:	02a5553b          	divuw	a0,a0,a0

0000000080004f78 <i_4889>:
    80004f78:	00a65463          	ble	a0,a2,80004f80 <i_4891>

0000000080004f7c <i_4890>:
    80004f7c:	00000013          	nop

0000000080004f80 <i_4891>:
    80004f80:	00000013          	nop

0000000080004f84 <i_4892>:
    80004f84:	ea411583          	lh	a1,-348(sp)

0000000080004f88 <i_4893>:
    80004f88:	88b00513          	li	a0,-1909

0000000080004f8c <i_4894>:
    80004f8c:	89200293          	li	t0,-1902

0000000080004f90 <i_4895>:
    80004f90:	00150513          	addi	a0,a0,1 # 746a2f45 <main-0xb95d0bb>
    80004f94:	fea2fee3          	bleu	a0,t0,80004f90 <i_4895>

0000000080004f98 <i_4896>:
    80004f98:	0052a533          	slt	a0,t0,t0

0000000080004f9c <i_4897>:
    80004f9c:	025d8063          	beq	s11,t0,80004fbc <i_4905>

0000000080004fa0 <i_4898>:
    80004fa0:	06016783          	lwu	a5,96(sp)

0000000080004fa4 <i_4899>:
    80004fa4:	0015159b          	slliw	a1,a0,0x1

0000000080004fa8 <i_4900>:
    80004fa8:	02b79db3          	mulh	s11,a5,a1

0000000080004fac <i_4901>:
    80004fac:	0c314503          	lbu	a0,195(sp)

0000000080004fb0 <i_4902>:
    80004fb0:	02bdc263          	blt	s11,a1,80004fd4 <i_4911>

0000000080004fb4 <i_4903>:
    80004fb4:	fbb12623          	sw	s11,-84(sp)

0000000080004fb8 <i_4904>:
    80004fb8:	04a10c23          	sb	a0,88(sp)

0000000080004fbc <i_4905>:
    80004fbc:	09b12a23          	sw	s11,148(sp)

0000000080004fc0 <i_4906>:
    80004fc0:	03b59463          	bne	a1,s11,80004fe8 <i_4916>

0000000080004fc4 <i_4907>:
    80004fc4:	00155513          	srli	a0,a0,0x1

0000000080004fc8 <i_4908>:
    80004fc8:	017d82b3          	add	t0,s11,s7

0000000080004fcc <i_4909>:
    80004fcc:	02554263          	blt	a0,t0,80004ff0 <i_4918>

0000000080004fd0 <i_4910>:
    80004fd0:	fc812e83          	lw	t4,-56(sp)

0000000080004fd4 <i_4911>:
    80004fd4:	15b2c293          	xori	t0,t0,347

0000000080004fd8 <i_4912>:
    80004fd8:	17d13c23          	sd	t4,376(sp)

0000000080004fdc <i_4913>:
    80004fdc:	02adcc33          	div	s8,s11,a0

0000000080004fe0 <i_4914>:
    80004fe0:	ed412283          	lw	t0,-300(sp)

0000000080004fe4 <i_4915>:
    80004fe4:	00000013          	nop

0000000080004fe8 <i_4916>:
    80004fe8:	00000013          	nop

0000000080004fec <i_4917>:
    80004fec:	1b013a03          	ld	s4,432(sp)

0000000080004ff0 <i_4918>:
    80004ff0:	1d812a83          	lw	s5,472(sp)

0000000080004ff4 <i_4919>:
    80004ff4:	01812623          	sw	s8,12(sp)

0000000080004ff8 <i_4920>:
    80004ff8:	7a200c93          	li	s9,1954

0000000080004ffc <i_4921>:
    80004ffc:	7af00513          	li	a0,1967

0000000080005000 <i_4922>:
    80005000:	01a00193          	li	gp,26

0000000080005004 <i_4923>:
    80005004:	003797b3          	sll	a5,a5,gp

0000000080005008 <i_4924>:
    80005008:	001c8c93          	addi	s9,s9,1
    8000500c:	ff957ae3          	bleu	s9,a0,80005000 <i_4922>

0000000080005010 <i_4925>:
    80005010:	fd411923          	sh	s4,-46(sp)

0000000080005014 <i_4926>:
    80005014:	ef910783          	lb	a5,-263(sp)

0000000080005018 <i_4927>:
    80005018:	0f816303          	lwu	t1,248(sp)

000000008000501c <i_4928>:
    8000501c:	c4e7e313          	ori	t1,a5,-946

0000000080005020 <i_4929>:
    80005020:	02f34063          	blt	t1,a5,80005040 <i_4937>

0000000080005024 <i_4930>:
    80005024:	e1c12303          	lw	t1,-484(sp)

0000000080005028 <i_4931>:
    80005028:	e8415803          	lhu	a6,-380(sp)

000000008000502c <i_4932>:
    8000502c:	ee910283          	lb	t0,-279(sp)

0000000080005030 <i_4933>:
    80005030:	f1813783          	ld	a5,-232(sp)

0000000080005034 <i_4934>:
    80005034:	16615803          	lhu	a6,358(sp)

0000000080005038 <i_4935>:
    80005038:	f9012e23          	sw	a6,-100(sp)

000000008000503c <i_4936>:
    8000503c:	00f00593          	li	a1,15

0000000080005040 <i_4937>:
    80005040:	00b657bb          	srlw	a5,a2,a1

0000000080005044 <i_4938>:
    80005044:	00000013          	nop

0000000080005048 <i_4939>:
    80005048:	81f00513          	li	a0,-2017

000000008000504c <i_4940>:
    8000504c:	82700b93          	li	s7,-2009

0000000080005050 <i_4941>:
    80005050:	00150513          	addi	a0,a0,1
    80005054:	feabfee3          	bleu	a0,s7,80005050 <i_4941>

0000000080005058 <i_4942>:
    80005058:	00d00593          	li	a1,13

000000008000505c <i_4943>:
    8000505c:	00b4d4bb          	srlw	s1,s1,a1

0000000080005060 <i_4944>:
    80005060:	1e012403          	lw	s0,480(sp)

0000000080005064 <i_4945>:
    80005064:	f0914203          	lbu	tp,-247(sp)

0000000080005068 <i_4946>:
    80005068:	02b493b3          	mulh	t2,s1,a1

000000008000506c <i_4947>:
    8000506c:	1a416203          	lwu	tp,420(sp)

0000000080005070 <i_4948>:
    80005070:	0275d063          	ble	t2,a1,80005090 <i_4956>

0000000080005074 <i_4949>:
    80005074:	00720f33          	add	t5,tp,t2

0000000080005078 <i_4950>:
    80005078:	14912a23          	sw	s1,340(sp)

000000008000507c <i_4951>:
    8000507c:	00438e63          	beq	t2,tp,80005098 <i_4958>

0000000080005080 <i_4952>:
    80005080:	1aa15983          	lhu	s3,426(sp)

0000000080005084 <i_4953>:
    80005084:	1b412c03          	lw	s8,436(sp)

0000000080005088 <i_4954>:
    80005088:	4029d213          	srai	tp,s3,0x2

000000008000508c <i_4955>:
    8000508c:	19414603          	lbu	a2,404(sp)

0000000080005090 <i_4956>:
    80005090:	0b412f03          	lw	t5,180(sp)

0000000080005094 <i_4957>:
    80005094:	00000013          	nop

0000000080005098 <i_4958>:
    80005098:	00466633          	or	a2,a2,tp

000000008000509c <i_4959>:
    8000509c:	01e0a0b3          	slt	ra,ra,t5

00000000800050a0 <i_4960>:
    800050a0:	8a900693          	li	a3,-1879

00000000800050a4 <i_4961>:
    800050a4:	8b300413          	li	s0,-1869

00000000800050a8 <i_4962>:
    800050a8:	036f3633          	mulhu	a2,t5,s6

00000000800050ac <i_4963>:
    800050ac:	1a813603          	ld	a2,424(sp)

00000000800050b0 <i_4964>:
    800050b0:	18c13c23          	sd	a2,408(sp)

00000000800050b4 <i_4965>:
    800050b4:	001f0633          	add	a2,t5,ra

00000000800050b8 <i_4966>:
    800050b8:	1a011803          	lh	a6,416(sp)

00000000800050bc <i_4967>:
    800050bc:	00168693          	addi	a3,a3,1
    800050c0:	fed454e3          	ble	a3,s0,800050a8 <i_4962>

00000000800050c4 <i_4968>:
    800050c4:	02c0f063          	bleu	a2,ra,800050e4 <i_4976>

00000000800050c8 <i_4969>:
    800050c8:	ef650397          	auipc	t2,0xef650

00000000800050cc <i_4970>:
    800050cc:	00709463          	bne	ra,t2,800050d4 <i_4972>

00000000800050d0 <i_4971>:
    800050d0:	8c0f7493          	andi	s1,t5,-1856

00000000800050d4 <i_4972>:
    800050d4:	0103de63          	ble	a6,t2,800050f0 <i_4979>

00000000800050d8 <i_4973>:
    800050d8:	010f0863          	beq	t5,a6,800050e8 <i_4977>

00000000800050dc <i_4974>:
    800050dc:	1cc13823          	sd	a2,464(sp)

00000000800050e0 <i_4975>:
    800050e0:	1448a3b7          	lui	t2,0x1448a

00000000800050e4 <i_4976>:
    800050e4:	00409b93          	slli	s7,ra,0x4

00000000800050e8 <i_4977>:
    800050e8:	0cc14683          	lbu	a3,204(sp)

00000000800050ec <i_4978>:
    800050ec:	02788063          	beq	a7,t2,8000510c <i_4986>

00000000800050f0 <i_4979>:
    800050f0:	01ed1663          	bne	s10,t5,800050fc <i_4982>

00000000800050f4 <i_4980>:
    800050f4:	009b9463          	bne	s7,s1,800050fc <i_4982>

00000000800050f8 <i_4981>:
    800050f8:	f1bd4b93          	xori	s7,s10,-229

00000000800050fc <i_4982>:
    800050fc:	0108c863          	blt	a7,a6,8000510c <i_4986>

0000000080005100 <i_4983>:
    80005100:	030bd63b          	divuw	a2,s7,a6

0000000080005104 <i_4984>:
    80005104:	ee013303          	ld	t1,-288(sp)

0000000080005108 <i_4985>:
    80005108:	7a354c17          	auipc	s8,0x7a354

000000008000510c <i_4986>:
    8000510c:	00537813          	andi	a6,t1,5

0000000080005110 <i_4987>:
    80005110:	00686863          	bltu	a6,t1,80005120 <i_4991>

0000000080005114 <i_4988>:
    80005114:	12615303          	lhu	t1,294(sp)

0000000080005118 <i_4989>:
    80005118:	03000593          	li	a1,48

000000008000511c <i_4990>:
    8000511c:	00b85833          	srl	a6,a6,a1

0000000080005120 <i_4991>:
    80005120:	534a9597          	auipc	a1,0x534a9

0000000080005124 <i_4992>:
    80005124:	18e11e03          	lh	t3,398(sp)

0000000080005128 <i_4993>:
    80005128:	02d3533b          	divuw	t1,t1,a3

000000008000512c <i_4994>:
    8000512c:	01658a63          	beq	a1,s6,80005140 <i_4999>

0000000080005130 <i_4995>:
    80005130:	fcb13423          	sd	a1,-56(sp)

0000000080005134 <i_4996>:
    80005134:	f0b12e23          	sw	a1,-228(sp)

0000000080005138 <i_4997>:
    80005138:	15415a03          	lhu	s4,340(sp)

000000008000513c <i_4998>:
    8000513c:	01c5ca63          	blt	a1,t3,80005150 <i_5003>

0000000080005140 <i_4999>:
    80005140:	026a5463          	ble	t1,s4,80005168 <i_5009>

0000000080005144 <i_5000>:
    80005144:	1b215803          	lhu	a6,434(sp)

0000000080005148 <i_5001>:
    80005148:	014a6263          	bltu	s4,s4,8000514c <i_5002>

000000008000514c <i_5002>:
    8000514c:	0a816483          	lwu	s1,168(sp)

0000000080005150 <i_5003>:
    80005150:	0344c4b3          	div	s1,s1,s4

0000000080005154 <i_5004>:
    80005154:	15416403          	lwu	s0,340(sp)

0000000080005158 <i_5005>:
    80005158:	002a159b          	slliw	a1,s4,0x2

000000008000515c <i_5006>:
    8000515c:	11413023          	sd	s4,256(sp)

0000000080005160 <i_5007>:
    80005160:	40d78a33          	sub	s4,a5,a3

0000000080005164 <i_5008>:
    80005164:	f2012c03          	lw	s8,-224(sp)

0000000080005168 <i_5009>:
    80005168:	01f534b3          	sltu	s1,a0,t6

000000008000516c <i_5010>:
    8000516c:	03e09ab3          	mulh	s5,ra,t5

0000000080005170 <i_5011>:
    80005170:	c004c513          	xori	a0,s1,-1024

0000000080005174 <i_5012>:
    80005174:	fb012083          	lw	ra,-80(sp)

0000000080005178 <i_5013>:
    80005178:	017ac463          	blt	s5,s7,80005180 <i_5015>

000000008000517c <i_5014>:
    8000517c:	03a306b3          	mul	a3,t1,s10

0000000080005180 <i_5015>:
    80005180:	0f314e83          	lbu	t4,243(sp)

0000000080005184 <i_5016>:
    80005184:	16010d03          	lb	s10,352(sp)

0000000080005188 <i_5017>:
    80005188:	15410e83          	lb	t4,340(sp)

000000008000518c <i_5018>:
    8000518c:	0a014b83          	lbu	s7,160(sp)

0000000080005190 <i_5019>:
    80005190:	02def463          	bleu	a3,t4,800051b8 <i_5029>

0000000080005194 <i_5020>:
    80005194:	05a12a23          	sw	s10,84(sp)

0000000080005198 <i_5021>:
    80005198:	0ec15403          	lhu	s0,236(sp)

000000008000519c <i_5022>:
    8000519c:	f0812a23          	sw	s0,-236(sp)

00000000800051a0 <i_5023>:
    800051a0:	f6d10403          	lb	s0,-147(sp)

00000000800051a4 <i_5024>:
    800051a4:	00000013          	nop

00000000800051a8 <i_5025>:
    800051a8:	00000013          	nop

00000000800051ac <i_5026>:
    800051ac:	00000013          	nop

00000000800051b0 <i_5027>:
    800051b0:	fa111f23          	sh	ra,-66(sp)

00000000800051b4 <i_5028>:
    800051b4:	6a447413          	andi	s0,s0,1700

00000000800051b8 <i_5029>:
    800051b8:	f4615503          	lhu	a0,-186(sp)

00000000800051bc <i_5030>:
    800051bc:	00000013          	nop

00000000800051c0 <i_5031>:
    800051c0:	88000693          	li	a3,-1920

00000000800051c4 <i_5032>:
    800051c4:	88a00493          	li	s1,-1910

00000000800051c8 <i_5033>:
    800051c8:	02844663          	blt	s0,s0,800051f4 <i_5043>

00000000800051cc <i_5034>:
    800051cc:	06610623          	sb	t1,108(sp)

00000000800051d0 <i_5035>:
    800051d0:	0c811223          	sh	s0,196(sp)

00000000800051d4 <i_5036>:
    800051d4:	fe416983          	lwu	s3,-28(sp)

00000000800051d8 <i_5037>:
    800051d8:	b39bb337          	lui	t1,0xb39bb

00000000800051dc <i_5038>:
    800051dc:	57a87517          	auipc	a0,0x57a87

00000000800051e0 <i_5039>:
    800051e0:	00168693          	addi	a3,a3,1
    800051e4:	fe96e2e3          	bltu	a3,s1,800051c8 <i_5033>

00000000800051e8 <i_5040>:
    800051e8:	e7a11403          	lh	s0,-390(sp)

00000000800051ec <i_5041>:
    800051ec:	a49b4b13          	xori	s6,s6,-1463

00000000800051f0 <i_5042>:
    800051f0:	016acab3          	xor	s5,s5,s6

00000000800051f4 <i_5043>:
    800051f4:	0069d263          	ble	t1,s3,800051f8 <i_5044>

00000000800051f8 <i_5044>:
    800051f8:	56bae613          	ori	a2,s5,1387

00000000800051fc <i_5045>:
    800051fc:	09c16983          	lwu	s3,156(sp)

0000000080005200 <i_5046>:
    80005200:	ee910303          	lb	t1,-279(sp)

0000000080005204 <i_5047>:
    80005204:	f7a11603          	lh	a2,-134(sp)

0000000080005208 <i_5048>:
    80005208:	2ca72c97          	auipc	s9,0x2ca72

000000008000520c <i_5049>:
    8000520c:	026cacb3          	mulhsu	s9,s9,t1

0000000080005210 <i_5050>:
    80005210:	14c12e23          	sw	a2,348(sp)

0000000080005214 <i_5051>:
    80005214:	00c30e33          	add	t3,t1,a2

0000000080005218 <i_5052>:
    80005218:	039e5263          	ble	s9,t3,8000523c <i_5061>

000000008000521c <i_5053>:
    8000521c:	08111223          	sh	ra,132(sp)

0000000080005220 <i_5054>:
    80005220:	026e6f3b          	remw	t5,t3,t1

0000000080005224 <i_5055>:
    80005224:	40c58b3b          	subw	s6,a1,a2

0000000080005228 <i_5056>:
    80005228:	07c10923          	sb	t3,114(sp)

000000008000522c <i_5057>:
    8000522c:	f8610e03          	lb	t3,-122(sp)

0000000080005230 <i_5058>:
    80005230:	05613023          	sd	s6,64(sp)

0000000080005234 <i_5059>:
    80005234:	abddcb17          	auipc	s6,0xabddc

0000000080005238 <i_5060>:
    80005238:	036e4e33          	div	t3,t3,s6

000000008000523c <i_5061>:
    8000523c:	0d610083          	lb	ra,214(sp)

0000000080005240 <i_5062>:
    80005240:	02b12223          	sw	a1,36(sp)

0000000080005244 <i_5063>:
    80005244:	74600f13          	li	t5,1862

0000000080005248 <i_5064>:
    80005248:	75700993          	li	s3,1879

000000008000524c <i_5065>:
    8000524c:	fa211e83          	lh	t4,-94(sp)

0000000080005250 <i_5066>:
    80005250:	03c9f0bb          	remuw	ra,s3,t3

0000000080005254 <i_5067>:
    80005254:	00000013          	nop

0000000080005258 <i_5068>:
    80005258:	fb014b03          	lbu	s6,-80(sp)

000000008000525c <i_5069>:
    8000525c:	035b3e33          	mulhu	t3,s6,s5

0000000080005260 <i_5070>:
    80005260:	036e6263          	bltu	t3,s6,80005284 <i_5078>

0000000080005264 <i_5071>:
    80005264:	fef10403          	lb	s0,-17(sp)

0000000080005268 <i_5072>:
    80005268:	001f0f13          	addi	t5,t5,1
    8000526c:	ffe9d0e3          	ble	t5,s3,8000524c <i_5065>

0000000080005270 <i_5073>:
    80005270:	06c15c83          	lhu	s9,108(sp)

0000000080005274 <i_5074>:
    80005274:	01db7e63          	bleu	t4,s6,80005290 <i_5081>

0000000080005278 <i_5075>:
    80005278:	0d313823          	sd	s3,208(sp)

000000008000527c <i_5076>:
    8000527c:	04910b03          	lb	s6,73(sp)

0000000080005280 <i_5077>:
    80005280:	0d812603          	lw	a2,216(sp)

0000000080005284 <i_5078>:
    80005284:	0ee10783          	lb	a5,238(sp)

0000000080005288 <i_5079>:
    80005288:	00000013          	nop

000000008000528c <i_5080>:
    8000528c:	00000013          	nop

0000000080005290 <i_5081>:
    80005290:	02114d03          	lbu	s10,33(sp)

0000000080005294 <i_5082>:
    80005294:	12614403          	lbu	s0,294(sp)

0000000080005298 <i_5083>:
    80005298:	7e300e13          	li	t3,2019

000000008000529c <i_5084>:
    8000529c:	7ed00313          	li	t1,2029

00000000800052a0 <i_5085>:
    800052a0:	00840eb3          	add	t4,s0,s0

00000000800052a4 <i_5086>:
    800052a4:	eb813c23          	sd	s8,-328(sp)

00000000800052a8 <i_5087>:
    800052a8:	03aead33          	mulhsu	s10,t4,s10

00000000800052ac <i_5088>:
    800052ac:	00000013          	nop

00000000800052b0 <i_5089>:
    800052b0:	e9014c03          	lbu	s8,-368(sp)

00000000800052b4 <i_5090>:
    800052b4:	001e0e13          	addi	t3,t3,1
    800052b8:	fe6e14e3          	bne	t3,t1,800052a0 <i_5085>

00000000800052bc <i_5091>:
    800052bc:	03a40bb3          	mul	s7,s0,s10

00000000800052c0 <i_5092>:
    800052c0:	18812e83          	lw	t4,392(sp)

00000000800052c4 <i_5093>:
    800052c4:	07815283          	lhu	t0,120(sp)

00000000800052c8 <i_5094>:
    800052c8:	6e7bf293          	andi	t0,s7,1767

00000000800052cc <i_5095>:
    800052cc:	403ed613          	srai	a2,t4,0x3

00000000800052d0 <i_5096>:
    800052d0:	e3416603          	lwu	a2,-460(sp)

00000000800052d4 <i_5097>:
    800052d4:	f6013b83          	ld	s7,-160(sp)

00000000800052d8 <i_5098>:
    800052d8:	0373f2bb          	remuw	t0,t2,s7

00000000800052dc <i_5099>:
    800052dc:	03e15283          	lhu	t0,62(sp)

00000000800052e0 <i_5100>:
    800052e0:	025bfa33          	remu	s4,s7,t0

00000000800052e4 <i_5101>:
    800052e4:	005a42b3          	xor	t0,s4,t0

00000000800052e8 <i_5102>:
    800052e8:	05710323          	sb	s7,70(sp)

00000000800052ec <i_5103>:
    800052ec:	00b3b633          	sltu	a2,t2,a1

00000000800052f0 <i_5104>:
    800052f0:	0035d393          	srli	t2,a1,0x3

00000000800052f4 <i_5105>:
    800052f4:	0342f463          	bleu	s4,t0,8000531c <i_5115>

00000000800052f8 <i_5106>:
    800052f8:	0383bdb3          	mulhu	s11,t2,s8

00000000800052fc <i_5107>:
    800052fc:	ea011283          	lh	t0,-352(sp)

0000000080005300 <i_5108>:
    80005300:	005dbc33          	sltu	s8,s11,t0

0000000080005304 <i_5109>:
    80005304:	018de663          	bltu	s11,s8,80005310 <i_5112>

0000000080005308 <i_5110>:
    80005308:	04416d83          	lwu	s11,68(sp)

000000008000530c <i_5111>:
    8000530c:	025c463b          	divw	a2,s8,t0

0000000080005310 <i_5112>:
    80005310:	f0113c23          	sd	ra,-232(sp)

0000000080005314 <i_5113>:
    80005314:	18113c23          	sd	ra,408(sp)

0000000080005318 <i_5114>:
    80005318:	00000013          	nop

000000008000531c <i_5115>:
    8000531c:	12111123          	sh	ra,290(sp)

0000000080005320 <i_5116>:
    80005320:	ff811023          	sh	s8,-32(sp)

0000000080005324 <i_5117>:
    80005324:	8ab00093          	li	ra,-1877

0000000080005328 <i_5118>:
    80005328:	8bc00293          	li	t0,-1860

000000008000532c <i_5119>:
    8000532c:	02300c93          	li	s9,35

0000000080005330 <i_5120>:
    80005330:	0190da33          	srl	s4,ra,s9

0000000080005334 <i_5121>:
    80005334:	93a08613          	addi	a2,ra,-1734

0000000080005338 <i_5122>:
    80005338:	00a2ea33          	or	s4,t0,a0

000000008000533c <i_5123>:
    8000533c:	00000013          	nop

0000000080005340 <i_5124>:
    80005340:	034e71b3          	remu	gp,t3,s4

0000000080005344 <i_5125>:
    80005344:	07413023          	sd	s4,96(sp)

0000000080005348 <i_5126>:
    80005348:	00108093          	addi	ra,ra,1
    8000534c:	fe12d0e3          	ble	ra,t0,8000532c <i_5119>

0000000080005350 <i_5127>:
    80005350:	01aa7833          	and	a6,s4,s10

0000000080005354 <i_5128>:
    80005354:	003806b3          	add	a3,a6,gp

0000000080005358 <i_5129>:
    80005358:	f0513023          	sd	t0,-256(sp)

000000008000535c <i_5130>:
    8000535c:	039a7ab3          	remu	s5,s4,s9

0000000080005360 <i_5131>:
    80005360:	4046dc1b          	sraiw	s8,a3,0x4

0000000080005364 <i_5132>:
    80005364:	00013183          	ld	gp,0(sp)

0000000080005368 <i_5133>:
    80005368:	17c12203          	lw	tp,380(sp)

000000008000536c <i_5134>:
    8000536c:	e8d10f23          	sb	a3,-354(sp)

0000000080005370 <i_5135>:
    80005370:	7cc00293          	li	t0,1996

0000000080005374 <i_5136>:
    80005374:	7e000813          	li	a6,2016

0000000080005378 <i_5137>:
    80005378:	e7a15a83          	lhu	s5,-390(sp)

000000008000537c <i_5138>:
    8000537c:	07012423          	sw	a6,104(sp)

0000000080005380 <i_5139>:
    80005380:	023c4263          	blt	s8,gp,800053a4 <i_5148>

0000000080005384 <i_5140>:
    80005384:	12c13823          	sd	a2,304(sp)

0000000080005388 <i_5141>:
    80005388:	f3816383          	lwu	t2,-200(sp)

000000008000538c <i_5142>:
    8000538c:	1e0fee93          	ori	t4,t6,480

0000000080005390 <i_5143>:
    80005390:	14412183          	lw	gp,324(sp)

0000000080005394 <i_5144>:
    80005394:	0079c9b3          	xor	s3,s3,t2

0000000080005398 <i_5145>:
    80005398:	f4712823          	sw	t2,-176(sp)

000000008000539c <i_5146>:
    8000539c:	1c710f23          	sb	t2,478(sp)

00000000800053a0 <i_5147>:
    800053a0:	07611e83          	lh	t4,118(sp)

00000000800053a4 <i_5148>:
    800053a4:	01f00513          	li	a0,31

00000000800053a8 <i_5149>:
    800053a8:	40a3d4bb          	sraw	s1,t2,a0

00000000800053ac <i_5150>:
    800053ac:	e2012383          	lw	t2,-480(sp)

00000000800053b0 <i_5151>:
    800053b0:	f6412e03          	lw	t3,-156(sp)

00000000800053b4 <i_5152>:
    800053b4:	00128293          	addi	t0,t0,1
    800053b8:	fc5850e3          	ble	t0,a6,80005378 <i_5137>

00000000800053bc <i_5153>:
    800053bc:	1a913023          	sd	s1,416(sp)

00000000800053c0 <i_5154>:
    800053c0:	02911463          	bne	sp,s1,800053e8 <i_5164>

00000000800053c4 <i_5155>:
    800053c4:	03c675b3          	remu	a1,a2,t3

00000000800053c8 <i_5156>:
    800053c8:	c9f4e493          	ori	s1,s1,-865

00000000800053cc <i_5157>:
    800053cc:	10016683          	lwu	a3,256(sp)

00000000800053d0 <i_5158>:
    800053d0:	12c12603          	lw	a2,300(sp)

00000000800053d4 <i_5159>:
    800053d4:	87ebed93          	ori	s11,s7,-1922

00000000800053d8 <i_5160>:
    800053d8:	404e5593          	srai	a1,t3,0x4

00000000800053dc <i_5161>:
    800053dc:	0cb13823          	sd	a1,208(sp)

00000000800053e0 <i_5162>:
    800053e0:	02b2c463          	blt	t0,a1,80005408 <i_5172>

00000000800053e4 <i_5163>:
    800053e4:	15d12e23          	sw	t4,348(sp)

00000000800053e8 <i_5164>:
    800053e8:	11b103a3          	sb	s11,263(sp)

00000000800053ec <i_5165>:
    800053ec:	fa813e83          	ld	t4,-88(sp)

00000000800053f0 <i_5166>:
    800053f0:	f3412583          	lw	a1,-204(sp)

00000000800053f4 <i_5167>:
    800053f4:	00359793          	slli	a5,a1,0x3

00000000800053f8 <i_5168>:
    800053f8:	014e9863          	bne	t4,s4,80005408 <i_5172>

00000000800053fc <i_5169>:
    800053fc:	05811803          	lh	a6,88(sp)

0000000080005400 <i_5170>:
    80005400:	e3012e23          	sw	a6,-452(sp)

0000000080005404 <i_5171>:
    80005404:	ec011e83          	lh	t4,-320(sp)

0000000080005408 <i_5172>:
    80005408:	f49e8c13          	addi	s8,t4,-183 # f8261531 <_end+0x7825111d>

000000008000540c <i_5173>:
    8000540c:	1c412583          	lw	a1,452(sp)

0000000080005410 <i_5174>:
    80005410:	ff813603          	ld	a2,-8(sp)

0000000080005414 <i_5175>:
    80005414:	026c71b3          	remu	gp,s8,t1

0000000080005418 <i_5176>:
    80005418:	efa11803          	lh	a6,-262(sp)

000000008000541c <i_5177>:
    8000541c:	bdcc0f1b          	addiw	t5,s8,-1060

0000000080005420 <i_5178>:
    80005420:	19011d23          	sh	a6,410(sp)

0000000080005424 <i_5179>:
    80005424:	03d61eb3          	mulh	t4,a2,t4

0000000080005428 <i_5180>:
    80005428:	fba14283          	lbu	t0,-70(sp)

000000008000542c <i_5181>:
    8000542c:	0302d463          	ble	a6,t0,80005454 <i_5191>

0000000080005430 <i_5182>:
    80005430:	00240463          	beq	s0,sp,80005438 <i_5184>

0000000080005434 <i_5183>:
    80005434:	d6a5c213          	xori	tp,a1,-662

0000000080005438 <i_5184>:
    80005438:	18416583          	lwu	a1,388(sp)

000000008000543c <i_5185>:
    8000543c:	418c0bbb          	subw	s7,s8,s8

0000000080005440 <i_5186>:
    80005440:	ebd11823          	sh	t4,-336(sp)

0000000080005444 <i_5187>:
    80005444:	35980d13          	addi	s10,a6,857

0000000080005448 <i_5188>:
    80005448:	e9812683          	lw	a3,-360(sp)

000000008000544c <i_5189>:
    8000544c:	0210d0b3          	divu	ra,ra,ra

0000000080005450 <i_5190>:
    80005450:	e4912023          	sw	s1,-448(sp)

0000000080005454 <i_5191>:
    80005454:	07015083          	lhu	ra,112(sp)

0000000080005458 <i_5192>:
    80005458:	00615e83          	lhu	t4,6(sp)

000000008000545c <i_5193>:
    8000545c:	84c00c13          	li	s8,-1972

0000000080005460 <i_5194>:
    80005460:	85300493          	li	s1,-1965

0000000080005464 <i_5195>:
    80005464:	1e114183          	lbu	gp,481(sp)

0000000080005468 <i_5196>:
    80005468:	fe910823          	sb	s1,-16(sp)

000000008000546c <i_5197>:
    8000546c:	72b00313          	li	t1,1835

0000000080005470 <i_5198>:
    80005470:	73200213          	li	tp,1842

0000000080005474 <i_5199>:
    80005474:	f5d11823          	sh	t4,-176(sp)

0000000080005478 <i_5200>:
    80005478:	00130313          	addi	t1,t1,1 # ffffffffb39bb001 <_end+0xffffffff339aabed>
    8000547c:	fe625ce3          	ble	t1,tp,80005474 <i_5199>

0000000080005480 <i_5201>:
    80005480:	00000013          	nop

0000000080005484 <i_5202>:
    80005484:	00000013          	nop

0000000080005488 <i_5203>:
    80005488:	79200193          	li	gp,1938

000000008000548c <i_5204>:
    8000548c:	7a000e93          	li	t4,1952

0000000080005490 <i_5205>:
    80005490:	00118193          	addi	gp,gp,1
    80005494:	ffd19ee3          	bne	gp,t4,80005490 <i_5205>

0000000080005498 <i_5206>:
    80005498:	0231ee3b          	remw	t3,gp,gp

000000008000549c <i_5207>:
    8000549c:	00000013          	nop

00000000800054a0 <i_5208>:
    800054a0:	fa312623          	sw	gp,-84(sp)

00000000800054a4 <i_5209>:
    800054a4:	001c0c13          	addi	s8,s8,1 # fa359109 <_end+0x7a348cf5>
    800054a8:	fa9c6ee3          	bltu	s8,s1,80005464 <i_5195>

00000000800054ac <i_5210>:
    800054ac:	01cea1b3          	slt	gp,t4,t3

00000000800054b0 <i_5211>:
    800054b0:	19d12023          	sw	t4,384(sp)

00000000800054b4 <i_5212>:
    800054b4:	f5016e83          	lwu	t4,-176(sp)

00000000800054b8 <i_5213>:
    800054b8:	05013203          	ld	tp,80(sp)

00000000800054bc <i_5214>:
    800054bc:	01ce7663          	bleu	t3,t3,800054c8 <i_5217>

00000000800054c0 <i_5215>:
    800054c0:	1ca11403          	lh	s0,458(sp)

00000000800054c4 <i_5216>:
    800054c4:	f8110e83          	lb	t4,-127(sp)

00000000800054c8 <i_5217>:
    800054c8:	01d00b93          	li	s7,29

00000000800054cc <i_5218>:
    800054cc:	01741233          	sll	tp,s0,s7

00000000800054d0 <i_5219>:
    800054d0:	ef014403          	lbu	s0,-272(sp)

00000000800054d4 <i_5220>:
    800054d4:	41de8ebb          	subw	t4,t4,t4

00000000800054d8 <i_5221>:
    800054d8:	f2811b23          	sh	s0,-202(sp)

00000000800054dc <i_5222>:
    800054dc:	00825463          	ble	s0,tp,800054e4 <i_5224>

00000000800054e0 <i_5223>:
    800054e0:	401bde9b          	sraiw	t4,s7,0x1

00000000800054e4 <i_5224>:
    800054e4:	0372023b          	mulw	tp,tp,s7

00000000800054e8 <i_5225>:
    800054e8:	3bdb8c1b          	addiw	s8,s7,957

00000000800054ec <i_5226>:
    800054ec:	da6bac13          	slti	s8,s7,-602

00000000800054f0 <i_5227>:
    800054f0:	fe414203          	lbu	tp,-28(sp)

00000000800054f4 <i_5228>:
    800054f4:	018bc863          	blt	s7,s8,80005504 <i_5232>

00000000800054f8 <i_5229>:
    800054f8:	e1811f23          	sh	s8,-482(sp)

00000000800054fc <i_5230>:
    800054fc:	024bd263          	ble	tp,s7,80005520 <i_5239>

0000000080005500 <i_5231>:
    80005500:	f6013203          	ld	tp,-160(sp)

0000000080005504 <i_5232>:
    80005504:	0376d233          	divu	tp,a3,s7

0000000080005508 <i_5233>:
    80005508:	01211383          	lh	t2,18(sp)

000000008000550c <i_5234>:
    8000550c:	03cc6063          	bltu	s8,t3,8000552c <i_5242>

0000000080005510 <i_5235>:
    80005510:	01d26e63          	bltu	tp,t4,8000552c <i_5242>

0000000080005514 <i_5236>:
    80005514:	01f00213          	li	tp,31

0000000080005518 <i_5237>:
    80005518:	0049dabb          	srlw	s5,s3,tp

000000008000551c <i_5238>:
    8000551c:	018a8263          	beq	s5,s8,80005520 <i_5239>

0000000080005520 <i_5239>:
    80005520:	012bd263          	ble	s2,s7,80005524 <i_5240>

0000000080005524 <i_5240>:
    80005524:	0353c263          	blt	t2,s5,80005548 <i_5249>

0000000080005528 <i_5241>:
    80005528:	00420263          	beq	tp,tp,8000552c <i_5242>

000000008000552c <i_5242>:
    8000552c:	f9410403          	lb	s0,-108(sp)

0000000080005530 <i_5243>:
    80005530:	06830b93          	addi	s7,t1,104

0000000080005534 <i_5244>:
    80005534:	037bbbb3          	mulhu	s7,s7,s7

0000000080005538 <i_5245>:
    80005538:	f9816d83          	lwu	s11,-104(sp)

000000008000553c <i_5246>:
    8000553c:	2c2b8213          	addi	tp,s7,706

0000000080005540 <i_5247>:
    80005540:	037bee3b          	remw	t3,s7,s7

0000000080005544 <i_5248>:
    80005544:	00000013          	nop

0000000080005548 <i_5249>:
    80005548:	00000013          	nop

000000008000554c <i_5250>:
    8000554c:	00000013          	nop

0000000080005550 <i_5251>:
    80005550:	84200b93          	li	s7,-1982

0000000080005554 <i_5252>:
    80005554:	84e00b13          	li	s6,-1970

0000000080005558 <i_5253>:
    80005558:	005e6463          	bltu	t3,t0,80005560 <i_5255>

000000008000555c <i_5254>:
    8000555c:	15012c83          	lw	s9,336(sp)

0000000080005560 <i_5255>:
    80005560:	f6c16a03          	lwu	s4,-148(sp)

0000000080005564 <i_5256>:
    80005564:	05711923          	sh	s7,82(sp)

0000000080005568 <i_5257>:
    80005568:	00000013          	nop

000000008000556c <i_5258>:
    8000556c:	e2a11623          	sh	a0,-468(sp)

0000000080005570 <i_5259>:
    80005570:	001b8b93          	addi	s7,s7,1
    80005574:	ff6be2e3          	bltu	s7,s6,80005558 <i_5253>

0000000080005578 <i_5260>:
    80005578:	037d9263          	bne	s11,s7,8000559c <i_5269>

000000008000557c <i_5261>:
    8000557c:	0f815b83          	lhu	s7,248(sp)

0000000080005580 <i_5262>:
    80005580:	01cb0863          	beq	s6,t3,80005590 <i_5266>

0000000080005584 <i_5263>:
    80005584:	417b8633          	sub	a2,s7,s7

0000000080005588 <i_5264>:
    80005588:	004bdb9b          	srliw	s7,s7,0x4

000000008000558c <i_5265>:
    8000558c:	07413823          	sd	s4,112(sp)

0000000080005590 <i_5266>:
    80005590:	004b9b9b          	slliw	s7,s7,0x4

0000000080005594 <i_5267>:
    80005594:	e7816b83          	lwu	s7,-392(sp)

0000000080005598 <i_5268>:
    80005598:	017b9663          	bne	s7,s7,800055a4 <i_5271>

000000008000559c <i_5269>:
    8000559c:	003f5f13          	srli	t5,t5,0x3

00000000800055a0 <i_5270>:
    800055a0:	13712e23          	sw	s7,316(sp)

00000000800055a4 <i_5271>:
    800055a4:	e7411423          	sh	s4,-408(sp)

00000000800055a8 <i_5272>:
    800055a8:	00000013          	nop

00000000800055ac <i_5273>:
    800055ac:	fc412e83          	lw	t4,-60(sp)

00000000800055b0 <i_5274>:
    800055b0:	86000c13          	li	s8,-1952

00000000800055b4 <i_5275>:
    800055b4:	86500a13          	li	s4,-1947

00000000800055b8 <i_5276>:
    800055b8:	0042929b          	slliw	t0,t0,0x4

00000000800055bc <i_5277>:
    800055bc:	f5d14e03          	lbu	t3,-163(sp)

00000000800055c0 <i_5278>:
    800055c0:	ef610ca3          	sb	s6,-263(sp)

00000000800055c4 <i_5279>:
    800055c4:	f1415e83          	lhu	t4,-236(sp)

00000000800055c8 <i_5280>:
    800055c8:	fbc13423          	sd	t3,-88(sp)

00000000800055cc <i_5281>:
    800055cc:	4042dd13          	srai	s10,t0,0x4

00000000800055d0 <i_5282>:
    800055d0:	005e4663          	blt	t3,t0,800055dc <i_5285>

00000000800055d4 <i_5283>:
    800055d4:	005ad263          	ble	t0,s5,800055d8 <i_5284>

00000000800055d8 <i_5284>:
    800055d8:	00110283          	lb	t0,1(sp)

00000000800055dc <i_5285>:
    800055dc:	00000013          	nop

00000000800055e0 <i_5286>:
    800055e0:	08943413          	sltiu	s0,s0,137

00000000800055e4 <i_5287>:
    800055e4:	07a12623          	sw	s10,108(sp)

00000000800055e8 <i_5288>:
    800055e8:	02546663          	bltu	s0,t0,80005614 <i_5298>

00000000800055ec <i_5289>:
    800055ec:	14c11283          	lh	t0,332(sp)

00000000800055f0 <i_5290>:
    800055f0:	001c0c13          	addi	s8,s8,1
    800055f4:	fd8a52e3          	ble	s8,s4,800055b8 <i_5276>

00000000800055f8 <i_5291>:
    800055f8:	0c513823          	sd	t0,208(sp)

00000000800055fc <i_5292>:
    800055fc:	fa815383          	lhu	t2,-88(sp)

0000000080005600 <i_5293>:
    80005600:	00508263          	beq	ra,t0,80005604 <i_5294>

0000000080005604 <i_5294>:
    80005604:	1b416e83          	lwu	t4,436(sp)

0000000080005608 <i_5295>:
    80005608:	02829463          	bne	t0,s0,80005630 <i_5305>

000000008000560c <i_5296>:
    8000560c:	0282e463          	bltu	t0,s0,80005634 <i_5306>

0000000080005610 <i_5297>:
    80005610:	0ac16e83          	lwu	t4,172(sp)

0000000080005614 <i_5298>:
    80005614:	fe612023          	sw	t1,-32(sp)

0000000080005618 <i_5299>:
    80005618:	e9633313          	sltiu	t1,t1,-362

000000008000561c <i_5300>:
    8000561c:	00010e83          	lb	t4,0(sp)

0000000080005620 <i_5301>:
    80005620:	18a15d03          	lhu	s10,394(sp)

0000000080005624 <i_5302>:
    80005624:	40758433          	sub	s0,a1,t2

0000000080005628 <i_5303>:
    80005628:	0da14383          	lbu	t2,218(sp)

000000008000562c <i_5304>:
    8000562c:	00000013          	nop

0000000080005630 <i_5305>:
    80005630:	03614a33          	div	s4,sp,s6

0000000080005634 <i_5306>:
    80005634:	02614503          	lbu	a0,38(sp)

0000000080005638 <i_5307>:
    80005638:	00a639b3          	sltu	s3,a2,a0

000000008000563c <i_5308>:
    8000563c:	86d00593          	li	a1,-1939

0000000080005640 <i_5309>:
    80005640:	87000093          	li	ra,-1936

0000000080005644 <i_5310>:
    80005644:	03c52e33          	mulhsu	t3,a0,t3

0000000080005648 <i_5311>:
    80005648:	ed815683          	lhu	a3,-296(sp)

000000008000564c <i_5312>:
    8000564c:	03656663          	bltu	a0,s6,80005678 <i_5322>

0000000080005650 <i_5313>:
    80005650:	14012603          	lw	a2,320(sp)

0000000080005654 <i_5314>:
    80005654:	003a1a13          	slli	s4,s4,0x3

0000000080005658 <i_5315>:
    80005658:	ed611823          	sh	s6,-304(sp)

000000008000565c <i_5316>:
    8000565c:	0369f6bb          	remuw	a3,s3,s6

0000000080005660 <i_5317>:
    80005660:	00158593          	addi	a1,a1,1 # d34ae121 <_end+0x5349dd0d>
    80005664:	feb0f0e3          	bleu	a1,ra,80005644 <i_5310>

0000000080005668 <i_5318>:
    80005668:	014a6a33          	or	s4,s4,s4

000000008000566c <i_5319>:
    8000566c:	06013b03          	ld	s6,96(sp)

0000000080005670 <i_5320>:
    80005670:	07416a03          	lwu	s4,116(sp)

0000000080005674 <i_5321>:
    80005674:	004a561b          	srliw	a2,s4,0x4

0000000080005678 <i_5322>:
    80005678:	efc15a03          	lhu	s4,-260(sp)

000000008000567c <i_5323>:
    8000567c:	00600413          	li	s0,6

0000000080005680 <i_5324>:
    80005680:	008b1b3b          	sllw	s6,s6,s0

0000000080005684 <i_5325>:
    80005684:	02cd5c3b          	divuw	s8,s10,a2

0000000080005688 <i_5326>:
    80005688:	40215413          	srai	s0,sp,0x2

000000008000568c <i_5327>:
    8000568c:	eeb10b03          	lb	s6,-277(sp)

0000000080005690 <i_5328>:
    80005690:	01200b93          	li	s7,18

0000000080005694 <i_5329>:
    80005694:	017a5a3b          	srlw	s4,s4,s7

0000000080005698 <i_5330>:
    80005698:	1b010a03          	lb	s4,432(sp)

000000008000569c <i_5331>:
    8000569c:	05411c23          	sh	s4,88(sp)

00000000800056a0 <i_5332>:
    800056a0:	034a5063          	ble	s4,s4,800056c0 <i_5340>

00000000800056a4 <i_5333>:
    800056a4:	0346f833          	remu	a6,a3,s4

00000000800056a8 <i_5334>:
    800056a8:	02485263          	ble	tp,a6,800056cc <i_5343>

00000000800056ac <i_5335>:
    800056ac:	11411f23          	sh	s4,286(sp)

00000000800056b0 <i_5336>:
    800056b0:	e4413423          	sd	tp,-440(sp)

00000000800056b4 <i_5337>:
    800056b4:	03410b23          	sb	s4,54(sp)

00000000800056b8 <i_5338>:
    800056b8:	01482d33          	slt	s10,a6,s4

00000000800056bc <i_5339>:
    800056bc:	017d4663          	blt	s10,s7,800056c8 <i_5342>

00000000800056c0 <i_5340>:
    800056c0:	f7813b83          	ld	s7,-136(sp)

00000000800056c4 <i_5341>:
    800056c4:	410e043b          	subw	s0,t3,a6

00000000800056c8 <i_5342>:
    800056c8:	17c16403          	lwu	s0,380(sp)

00000000800056cc <i_5343>:
    800056cc:	e6a11d23          	sh	a0,-390(sp)

00000000800056d0 <i_5344>:
    800056d0:	0344f4b3          	remu	s1,s1,s4

00000000800056d4 <i_5345>:
    800056d4:	ee412623          	sw	tp,-276(sp)

00000000800056d8 <i_5346>:
    800056d8:	037a5a33          	divu	s4,s4,s7

00000000800056dc <i_5347>:
    800056dc:	83500813          	li	a6,-1995

00000000800056e0 <i_5348>:
    800056e0:	84200d93          	li	s11,-1982

00000000800056e4 <i_5349>:
    800056e4:	034849b3          	div	s3,a6,s4

00000000800056e8 <i_5350>:
    800056e8:	08415b83          	lhu	s7,132(sp)

00000000800056ec <i_5351>:
    800056ec:	14813a03          	ld	s4,328(sp)

00000000800056f0 <i_5352>:
    800056f0:	003b9513          	slli	a0,s7,0x3

00000000800056f4 <i_5353>:
    800056f4:	19c12c83          	lw	s9,412(sp)

00000000800056f8 <i_5354>:
    800056f8:	f0615d03          	lhu	s10,-250(sp)

00000000800056fc <i_5355>:
    800056fc:	41988433          	sub	s0,a7,s9

0000000080005700 <i_5356>:
    80005700:	00145693          	srli	a3,s0,0x1

0000000080005704 <i_5357>:
    80005704:	f9012c83          	lw	s9,-112(sp)

0000000080005708 <i_5358>:
    80005708:	02e68263          	beq	a3,a4,8000572c <i_5366>

000000008000570c <i_5359>:
    8000570c:	00180813          	addi	a6,a6,1
    80005710:	fdb84ae3          	blt	a6,s11,800056e4 <i_5349>

0000000080005714 <i_5360>:
    80005714:	00700d13          	li	s10,7

0000000080005718 <i_5361>:
    80005718:	41a4543b          	sraw	s0,s0,s10

000000008000571c <i_5362>:
    8000571c:	18012f03          	lw	t5,384(sp)

0000000080005720 <i_5363>:
    80005720:	07912823          	sw	s9,112(sp)

0000000080005724 <i_5364>:
    80005724:	e5710383          	lb	t2,-425(sp)

0000000080005728 <i_5365>:
    80005728:	0282bc33          	mulhu	s8,t0,s0

000000008000572c <i_5366>:
    8000572c:	0273d43b          	divuw	s0,t2,t2

0000000080005730 <i_5367>:
    80005730:	2df47293          	andi	t0,s0,735

0000000080005734 <i_5368>:
    80005734:	008c4b33          	xor	s6,s8,s0

0000000080005738 <i_5369>:
    80005738:	03617263          	bleu	s6,sp,8000575c <i_5378>

000000008000573c <i_5370>:
    8000573c:	4e38fb13          	andi	s6,a7,1251

0000000080005740 <i_5371>:
    80005740:	10211283          	lh	t0,258(sp)

0000000080005744 <i_5372>:
    80005744:	00549263          	bne	s1,t0,80005748 <i_5373>

0000000080005748 <i_5373>:
    80005748:	00000013          	nop

000000008000574c <i_5374>:
    8000574c:	ef013b03          	ld	s6,-272(sp)

0000000080005750 <i_5375>:
    80005750:	4039d99b          	sraiw	s3,s3,0x3

0000000080005754 <i_5376>:
    80005754:	03a11303          	lh	t1,58(sp)

0000000080005758 <i_5377>:
    80005758:	00000013          	nop

000000008000575c <i_5378>:
    8000575c:	0032df1b          	srliw	t5,t0,0x3

0000000080005760 <i_5379>:
    80005760:	00000013          	nop

0000000080005764 <i_5380>:
    80005764:	8cf00a93          	li	s5,-1841

0000000080005768 <i_5381>:
    80005768:	8e300e93          	li	t4,-1821

000000008000576c <i_5382>:
    8000576c:	e1e11403          	lh	s0,-482(sp)

0000000080005770 <i_5383>:
    80005770:	00000013          	nop

0000000080005774 <i_5384>:
    80005774:	027cb433          	mulhu	s0,s9,t2

0000000080005778 <i_5385>:
    80005778:	12414403          	lbu	s0,292(sp)

000000008000577c <i_5386>:
    8000577c:	001a8a93          	addi	s5,s5,1
    80005780:	ffda96e3          	bne	s5,t4,8000576c <i_5382>

0000000080005784 <i_5387>:
    80005784:	0a8106a3          	sb	s0,173(sp)

0000000080005788 <i_5388>:
    80005788:	40de8ab3          	sub	s5,t4,a3

000000008000578c <i_5389>:
    8000578c:	035f6433          	rem	s0,t5,s5

0000000080005790 <i_5390>:
    80005790:	010f6833          	or	a6,t5,a6

0000000080005794 <i_5391>:
    80005794:	02864063          	blt	a2,s0,800057b4 <i_5399>

0000000080005798 <i_5392>:
    80005798:	03086463          	bltu	a6,a6,800057c0 <i_5402>

000000008000579c <i_5393>:
    8000579c:	03b00813          	li	a6,59

00000000800057a0 <i_5394>:
    800057a0:	410bd433          	sra	s0,s7,a6

00000000800057a4 <i_5395>:
    800057a4:	11c10e03          	lb	t3,284(sp)

00000000800057a8 <i_5396>:
    800057a8:	01800293          	li	t0,24

00000000800057ac <i_5397>:
    800057ac:	405e5abb          	sraw	s5,t3,t0

00000000800057b0 <i_5398>:
    800057b0:	07e15e03          	lhu	t3,126(sp)

00000000800057b4 <i_5399>:
    800057b4:	00129a9b          	slliw	s5,t0,0x1

00000000800057b8 <i_5400>:
    800057b8:	025292b3          	mulh	t0,t0,t0

00000000800057bc <i_5401>:
    800057bc:	00100b13          	li	s6,1

00000000800057c0 <i_5402>:
    800057c0:	416752b3          	sra	t0,a4,s6

00000000800057c4 <i_5403>:
    800057c4:	00a00b13          	li	s6,10

00000000800057c8 <i_5404>:
    800057c8:	016e11bb          	sllw	gp,t3,s6

00000000800057cc <i_5405>:
    800057cc:	0031de63          	ble	gp,gp,800057e8 <i_5412>

00000000800057d0 <i_5406>:
    800057d0:	5062b513          	sltiu	a0,t0,1286

00000000800057d4 <i_5407>:
    800057d4:	03336463          	bltu	t1,s3,800057fc <i_5417>

00000000800057d8 <i_5408>:
    800057d8:	07e15283          	lhu	t0,126(sp)

00000000800057dc <i_5409>:
    800057dc:	1db12823          	sw	s11,464(sp)

00000000800057e0 <i_5410>:
    800057e0:	4042d093          	srai	ra,t0,0x4

00000000800057e4 <i_5411>:
    800057e4:	e5111e23          	sh	a7,-420(sp)

00000000800057e8 <i_5412>:
    800057e8:	011c4eb3          	xor	t4,s8,a7

00000000800057ec <i_5413>:
    800057ec:	00000013          	nop

00000000800057f0 <i_5414>:
    800057f0:	0ef14d03          	lbu	s10,239(sp)

00000000800057f4 <i_5415>:
    800057f4:	18415c03          	lhu	s8,388(sp)

00000000800057f8 <i_5416>:
    800057f8:	03ad0d33          	mul	s10,s10,s10

00000000800057fc <i_5417>:
    800057fc:	274c2d13          	slti	s10,s8,628

0000000080005800 <i_5418>:
    80005800:	00800b13          	li	s6,8

0000000080005804 <i_5419>:
    80005804:	016d5e3b          	srlw	t3,s10,s6

0000000080005808 <i_5420>:
    80005808:	77f00193          	li	gp,1919

000000008000580c <i_5421>:
    8000580c:	78e00293          	li	t0,1934

0000000080005810 <i_5422>:
    80005810:	00171593          	slli	a1,a4,0x1

0000000080005814 <i_5423>:
    80005814:	00f10d03          	lb	s10,15(sp)

0000000080005818 <i_5424>:
    80005818:	00118193          	addi	gp,gp,1
    8000581c:	fe32d8e3          	ble	gp,t0,8000580c <i_5421>

0000000080005820 <i_5425>:
    80005820:	016e0663          	beq	t3,s6,8000582c <i_5428>

0000000080005824 <i_5426>:
    80005824:	016e6c63          	bltu	t3,s6,8000583c <i_5432>

0000000080005828 <i_5427>:
    80005828:	00e5f863          	bleu	a4,a1,80005838 <i_5431>

000000008000582c <i_5428>:
    8000582c:	02bc3633          	mulhu	a2,s8,a1

0000000080005830 <i_5429>:
    80005830:	ed813d03          	ld	s10,-296(sp)

0000000080005834 <i_5430>:
    80005834:	03c646b3          	div	a3,a2,t3

0000000080005838 <i_5431>:
    80005838:	0a412983          	lw	s3,164(sp)

000000008000583c <i_5432>:
    8000583c:	c04e7413          	andi	s0,t3,-1020

0000000080005840 <i_5433>:
    80005840:	13a10603          	lb	a2,314(sp)

0000000080005844 <i_5434>:
    80005844:	87400393          	li	t2,-1932

0000000080005848 <i_5435>:
    80005848:	87a00b13          	li	s6,-1926

000000008000584c <i_5436>:
    8000584c:	00138393          	addi	t2,t2,1 # 1448a001 <main-0x6bb75fff>
    80005850:	fe7b5ee3          	ble	t2,s6,8000584c <i_5436>

0000000080005854 <i_5437>:
    80005854:	c5444293          	xori	t0,s0,-940

0000000080005858 <i_5438>:
    80005858:	0d812e03          	lw	t3,216(sp)

000000008000585c <i_5439>:
    8000585c:	03ce10b3          	mulh	ra,t3,t3

0000000080005860 <i_5440>:
    80005860:	ea012f03          	lw	t5,-352(sp)

0000000080005864 <i_5441>:
    80005864:	78700513          	li	a0,1927

0000000080005868 <i_5442>:
    80005868:	79200e13          	li	t3,1938

000000008000586c <i_5443>:
    8000586c:	ff015083          	lhu	ra,-16(sp)

0000000080005870 <i_5444>:
    80005870:	02111f23          	sh	ra,62(sp)

0000000080005874 <i_5445>:
    80005874:	021f0233          	mul	tp,t5,ra

0000000080005878 <i_5446>:
    80005878:	00000013          	nop

000000008000587c <i_5447>:
    8000587c:	f3813c83          	ld	s9,-200(sp)

0000000080005880 <i_5448>:
    80005880:	00150513          	addi	a0,a0,1 # d7a8c1dd <_end+0x57a7bdc9>
    80005884:	feae54e3          	ble	a0,t3,8000586c <i_5443>

0000000080005888 <i_5449>:
    80005888:	06e0fa93          	andi	s5,ra,110

000000008000588c <i_5450>:
    8000588c:	ed912023          	sw	s9,-320(sp)

0000000080005890 <i_5451>:
    80005890:	001a9c63          	bne	s5,ra,800058a8 <i_5457>

0000000080005894 <i_5452>:
    80005894:	f8912823          	sw	s1,-112(sp)

0000000080005898 <i_5453>:
    80005898:	f4110423          	sb	ra,-184(sp)

000000008000589c <i_5454>:
    8000589c:	00000013          	nop

00000000800058a0 <i_5455>:
    800058a0:	00000013          	nop

00000000800058a4 <i_5456>:
    800058a4:	fda10983          	lb	s3,-38(sp)

00000000800058a8 <i_5457>:
    800058a8:	01200093          	li	ra,18

00000000800058ac <i_5458>:
    800058ac:	001350b3          	srl	ra,t1,ra

00000000800058b0 <i_5459>:
    800058b0:	86000313          	li	t1,-1952

00000000800058b4 <i_5460>:
    800058b4:	87100f13          	li	t5,-1935

00000000800058b8 <i_5461>:
    800058b8:	e2612023          	sw	t1,-480(sp)

00000000800058bc <i_5462>:
    800058bc:	17816983          	lwu	s3,376(sp)

00000000800058c0 <i_5463>:
    800058c0:	00130313          	addi	t1,t1,1
    800058c4:	fe6f5ae3          	ble	t1,t5,800058b8 <i_5461>

00000000800058c8 <i_5464>:
    800058c8:	00436c63          	bltu	t1,tp,800058e0 <i_5470>

00000000800058cc <i_5465>:
    800058cc:	f9411323          	sh	s4,-122(sp)

00000000800058d0 <i_5466>:
    800058d0:	53433993          	sltiu	s3,t1,1332

00000000800058d4 <i_5467>:
    800058d4:	e4813203          	ld	tp,-440(sp)

00000000800058d8 <i_5468>:
    800058d8:	40490a3b          	subw	s4,s2,tp

00000000800058dc <i_5469>:
    800058dc:	fd312223          	sw	s3,-60(sp)

00000000800058e0 <i_5470>:
    800058e0:	01c00513          	li	a0,28

00000000800058e4 <i_5471>:
    800058e4:	40a257bb          	sraw	a5,tp,a0

00000000800058e8 <i_5472>:
    800058e8:	4027de1b          	sraiw	t3,a5,0x2

00000000800058ec <i_5473>:
    800058ec:	11813183          	ld	gp,280(sp)

00000000800058f0 <i_5474>:
    800058f0:	86d00793          	li	a5,-1939

00000000800058f4 <i_5475>:
    800058f4:	87d00213          	li	tp,-1923

00000000800058f8 <i_5476>:
    800058f8:	f8816183          	lwu	gp,-120(sp)

00000000800058fc <i_5477>:
    800058fc:	06210b03          	lb	s6,98(sp)

0000000080005900 <i_5478>:
    80005900:	03ce6b33          	rem	s6,t3,t3

0000000080005904 <i_5479>:
    80005904:	ff416e03          	lwu	t3,-12(sp)

0000000080005908 <i_5480>:
    80005908:	00178793          	addi	a5,a5,1 # a58a4f5 <main-0x75a75b0b>
    8000590c:	fef276e3          	bleu	a5,tp,800058f8 <i_5476>

0000000080005910 <i_5481>:
    80005910:	485e019b          	addiw	gp,t3,1157

0000000080005914 <i_5482>:
    80005914:	00312a23          	sw	gp,20(sp)

0000000080005918 <i_5483>:
    80005918:	00e11c03          	lh	s8,14(sp)

000000008000591c <i_5484>:
    8000591c:	14310e23          	sb	gp,348(sp)

0000000080005920 <i_5485>:
    80005920:	fd111123          	sh	a7,-62(sp)

0000000080005924 <i_5486>:
    80005924:	1bb104a3          	sb	s11,425(sp)

0000000080005928 <i_5487>:
    80005928:	fd812c03          	lw	s8,-40(sp)

000000008000592c <i_5488>:
    8000592c:	01b00c93          	li	s9,27

0000000080005930 <i_5489>:
    80005930:	419e543b          	sraw	s0,t3,s9

0000000080005934 <i_5490>:
    80005934:	0a013e03          	ld	t3,160(sp)

0000000080005938 <i_5491>:
    80005938:	fc910e03          	lb	t3,-55(sp)

000000008000593c <i_5492>:
    8000593c:	09c105a3          	sb	t3,139(sp)

0000000080005940 <i_5493>:
    80005940:	e4813583          	ld	a1,-440(sp)

0000000080005944 <i_5494>:
    80005944:	8c900c93          	li	s9,-1847

0000000080005948 <i_5495>:
    80005948:	8d600e13          	li	t3,-1834

000000008000594c <i_5496>:
    8000594c:	ffc13423          	sd	t3,-24(sp)

0000000080005950 <i_5497>:
    80005950:	f9a15403          	lhu	s0,-102(sp)

0000000080005954 <i_5498>:
    80005954:	f6813403          	ld	s0,-152(sp)

0000000080005958 <i_5499>:
    80005958:	f1c12423          	sw	t3,-248(sp)

000000008000595c <i_5500>:
    8000595c:	001c8c93          	addi	s9,s9,1 # aca77209 <_end+0x2ca66df5>
    80005960:	ffcce6e3          	bltu	s9,t3,8000594c <i_5496>

0000000080005964 <i_5501>:
    80005964:	f5913c23          	sd	s9,-168(sp)

0000000080005968 <i_5502>:
    80005968:	01c40a63          	beq	s0,t3,8000597c <i_5507>

000000008000596c <i_5503>:
    8000596c:	013c8663          	beq	s9,s3,80005978 <i_5506>

0000000080005970 <i_5504>:
    80005970:	fc514403          	lbu	s0,-59(sp)

0000000080005974 <i_5505>:
    80005974:	00700193          	li	gp,7

0000000080005978 <i_5506>:
    80005978:	40345833          	sra	a6,s0,gp

000000008000597c <i_5507>:
    8000597c:	01312e23          	sw	s3,28(sp)

0000000080005980 <i_5508>:
    80005980:	08813e03          	ld	t3,136(sp)

0000000080005984 <i_5509>:
    80005984:	028b4463          	blt	s6,s0,800059ac <i_5519>

0000000080005988 <i_5510>:
    80005988:	01cdadb3          	slt	s11,s11,t3

000000008000598c <i_5511>:
    8000598c:	0355c063          	blt	a1,s5,800059ac <i_5519>

0000000080005990 <i_5512>:
    80005990:	f7412083          	lw	ra,-140(sp)

0000000080005994 <i_5513>:
    80005994:	e8412183          	lw	gp,-380(sp)

0000000080005998 <i_5514>:
    80005998:	ec913823          	sd	s1,-304(sp)

000000008000599c <i_5515>:
    8000599c:	004d961b          	slliw	a2,s11,0x4

00000000800059a0 <i_5516>:
    800059a0:	17910783          	lb	a5,377(sp)

00000000800059a4 <i_5517>:
    800059a4:	19210603          	lb	a2,402(sp)

00000000800059a8 <i_5518>:
    800059a8:	f1911223          	sh	s9,-252(sp)

00000000800059ac <i_5519>:
    800059ac:	0dc100a3          	sb	t3,193(sp)

00000000800059b0 <i_5520>:
    800059b0:	01c66e63          	bltu	a2,t3,800059cc <i_5527>

00000000800059b4 <i_5521>:
    800059b4:	70008593          	addi	a1,ra,1792

00000000800059b8 <i_5522>:
    800059b8:	03818433          	mul	s0,gp,s8

00000000800059bc <i_5523>:
    800059bc:	06012303          	lw	t1,96(sp)

00000000800059c0 <i_5524>:
    800059c0:	08313823          	sd	gp,144(sp)

00000000800059c4 <i_5525>:
    800059c4:	01c66663          	bltu	a2,t3,800059d0 <i_5528>

00000000800059c8 <i_5526>:
    800059c8:	fa813e03          	ld	t3,-88(sp)

00000000800059cc <i_5527>:
    800059cc:	02844433          	div	s0,s0,s0

00000000800059d0 <i_5528>:
    800059d0:	00259f1b          	slliw	t5,a1,0x2

00000000800059d4 <i_5529>:
    800059d4:	0044599b          	srliw	s3,s0,0x4

00000000800059d8 <i_5530>:
    800059d8:	03400b93          	li	s7,52

00000000800059dc <i_5531>:
    800059dc:	4179d433          	sra	s0,s3,s7

00000000800059e0 <i_5532>:
    800059e0:	03e4033b          	mulw	t1,s0,t5

00000000800059e4 <i_5533>:
    800059e4:	0069cb33          	xor	s6,s3,t1

00000000800059e8 <i_5534>:
    800059e8:	ea416d83          	lwu	s11,-348(sp)

00000000800059ec <i_5535>:
    800059ec:	016dc463          	blt	s11,s6,800059f4 <i_5537>

00000000800059f0 <i_5536>:
    800059f0:	e6013383          	ld	t2,-416(sp)

00000000800059f4 <i_5537>:
    800059f4:	fd712623          	sw	s7,-52(sp)

00000000800059f8 <i_5538>:
    800059f8:	40155b1b          	sraiw	s6,a0,0x1

00000000800059fc <i_5539>:
    800059fc:	8039b293          	sltiu	t0,s3,-2045

0000000080005a00 <i_5540>:
    80005a00:	1b614d83          	lbu	s11,438(sp)

0000000080005a04 <i_5541>:
    80005a04:	1c813383          	ld	t2,456(sp)

0000000080005a08 <i_5542>:
    80005a08:	f5016f03          	lwu	t5,-176(sp)

0000000080005a0c <i_5543>:
    80005a0c:	01e9ec63          	bltu	s3,t5,80005a24 <i_5549>

0000000080005a10 <i_5544>:
    80005a10:	0c710e83          	lb	t4,199(sp)

0000000080005a14 <i_5545>:
    80005a14:	01bf4f33          	xor	t5,t5,s11

0000000080005a18 <i_5546>:
    80005a18:	00000013          	nop

0000000080005a1c <i_5547>:
    80005a1c:	0d415503          	lhu	a0,212(sp)

0000000080005a20 <i_5548>:
    80005a20:	f1812983          	lw	s3,-232(sp)

0000000080005a24 <i_5549>:
    80005a24:	00000013          	nop

0000000080005a28 <i_5550>:
    80005a28:	fe510983          	lb	s3,-27(sp)

0000000080005a2c <i_5551>:
    80005a2c:	89e00393          	li	t2,-1890

0000000080005a30 <i_5552>:
    80005a30:	8a000e93          	li	t4,-1888

0000000080005a34 <i_5553>:
    80005a34:	f9013283          	ld	t0,-112(sp)

0000000080005a38 <i_5554>:
    80005a38:	03dd9263          	bne	s11,t4,80005a5c <i_5562>

0000000080005a3c <i_5555>:
    80005a3c:	00e11483          	lh	s1,14(sp)

0000000080005a40 <i_5556>:
    80005a40:	f7e11c23          	sh	t5,-136(sp)

0000000080005a44 <i_5557>:
    80005a44:	e6215f03          	lhu	t5,-414(sp)

0000000080005a48 <i_5558>:
    80005a48:	03114b83          	lbu	s7,49(sp)

0000000080005a4c <i_5559>:
    80005a4c:	00138393          	addi	t2,t2,1
    80005a50:	ffd3c2e3          	blt	t2,t4,80005a34 <i_5553>

0000000080005a54 <i_5560>:
    80005a54:	00000013          	nop

0000000080005a58 <i_5561>:
    80005a58:	01a15803          	lhu	a6,26(sp)

0000000080005a5c <i_5562>:
    80005a5c:	02e00393          	li	t2,46

0000000080005a60 <i_5563>:
    80005a60:	00779a33          	sll	s4,a5,t2

0000000080005a64 <i_5564>:
    80005a64:	74a00e13          	li	t3,1866

0000000080005a68 <i_5565>:
    80005a68:	75b00b93          	li	s7,1883

0000000080005a6c <i_5566>:
    80005a6c:	f6911523          	sh	s1,-150(sp)

0000000080005a70 <i_5567>:
    80005a70:	257baf13          	slti	t5,s7,599

0000000080005a74 <i_5568>:
    80005a74:	faa12623          	sw	a0,-84(sp)

0000000080005a78 <i_5569>:
    80005a78:	013bd463          	ble	s3,s7,80005a80 <i_5571>

0000000080005a7c <i_5570>:
    80005a7c:	017bfa33          	and	s4,s7,s7

0000000080005a80 <i_5571>:
    80005a80:	00399993          	slli	s3,s3,0x3

0000000080005a84 <i_5572>:
    80005a84:	0139cc63          	blt	s3,s3,80005a9c <i_5578>

0000000080005a88 <i_5573>:
    80005a88:	013a5263          	ble	s3,s4,80005a8c <i_5574>

0000000080005a8c <i_5574>:
    80005a8c:	90396d37          	lui	s10,0x90396

0000000080005a90 <i_5575>:
    80005a90:	034b0a33          	mul	s4,s6,s4

0000000080005a94 <i_5576>:
    80005a94:	01410423          	sb	s4,8(sp)

0000000080005a98 <i_5577>:
    80005a98:	001a199b          	slliw	s3,s4,0x1

0000000080005a9c <i_5578>:
    80005a9c:	1a712e23          	sw	t2,444(sp)

0000000080005aa0 <i_5579>:
    80005aa0:	014a0a33          	add	s4,s4,s4

0000000080005aa4 <i_5580>:
    80005aa4:	e74108a3          	sb	s4,-399(sp)

0000000080005aa8 <i_5581>:
    80005aa8:	001e0e13          	addi	t3,t3,1
    80005aac:	fd7e40e3          	blt	t3,s7,80005a6c <i_5566>

0000000080005ab0 <i_5582>:
    80005ab0:	034b4463          	blt	s6,s4,80005ad8 <i_5592>

0000000080005ab4 <i_5583>:
    80005ab4:	0e813e83          	ld	t4,232(sp)

0000000080005ab8 <i_5584>:
    80005ab8:	f2912a23          	sw	s1,-204(sp)

0000000080005abc <i_5585>:
    80005abc:	402ed693          	srai	a3,t4,0x2

0000000080005ac0 <i_5586>:
    80005ac0:	034e86b3          	mul	a3,t4,s4

0000000080005ac4 <i_5587>:
    80005ac4:	e43c2a37          	lui	s4,0xe43c2

0000000080005ac8 <i_5588>:
    80005ac8:	0294c4bb          	divw	s1,s1,s1

0000000080005acc <i_5589>:
    80005acc:	029eeebb          	remw	t4,t4,s1

0000000080005ad0 <i_5590>:
    80005ad0:	02de86bb          	mulw	a3,t4,a3

0000000080005ad4 <i_5591>:
    80005ad4:	0f412583          	lw	a1,244(sp)

0000000080005ad8 <i_5592>:
    80005ad8:	03deeebb          	remw	t4,t4,t4

0000000080005adc <i_5593>:
    80005adc:	e4013203          	ld	tp,-448(sp)

0000000080005ae0 <i_5594>:
    80005ae0:	404180bb          	subw	ra,gp,tp

0000000080005ae4 <i_5595>:
    80005ae4:	02411f03          	lh	t5,36(sp)

0000000080005ae8 <i_5596>:
    80005ae8:	7be00e93          	li	t4,1982

0000000080005aec <i_5597>:
    80005aec:	7c300193          	li	gp,1987

0000000080005af0 <i_5598>:
    80005af0:	0ee15603          	lhu	a2,238(sp)

0000000080005af4 <i_5599>:
    80005af4:	00000013          	nop

0000000080005af8 <i_5600>:
    80005af8:	ea812503          	lw	a0,-344(sp)

0000000080005afc <i_5601>:
    80005afc:	00000013          	nop

0000000080005b00 <i_5602>:
    80005b00:	00000013          	nop

0000000080005b04 <i_5603>:
    80005b04:	00000013          	nop

0000000080005b08 <i_5604>:
    80005b08:	01df0263          	beq	t5,t4,80005b0c <i_5605>

0000000080005b0c <i_5605>:
    80005b0c:	02cf5463          	ble	a2,t5,80005b34 <i_5614>

0000000080005b10 <i_5606>:
    80005b10:	f1e13823          	sd	t5,-240(sp)

0000000080005b14 <i_5607>:
    80005b14:	034e8663          	beq	t4,s4,80005b40 <i_5617>

0000000080005b18 <i_5608>:
    80005b18:	001e8e93          	addi	t4,t4,1
    80005b1c:	fc3e9ae3          	bne	t4,gp,80005af0 <i_5598>

0000000080005b20 <i_5609>:
    80005b20:	e2110a03          	lb	s4,-479(sp)

0000000080005b24 <i_5610>:
    80005b24:	00cee663          	bltu	t4,a2,80005b30 <i_5613>

0000000080005b28 <i_5611>:
    80005b28:	00125b93          	srli	s7,tp,0x1

0000000080005b2c <i_5612>:
    80005b2c:	02a21263          	bne	tp,a0,80005b50 <i_5621>

0000000080005b30 <i_5613>:
    80005b30:	02b00213          	li	tp,43

0000000080005b34 <i_5614>:
    80005b34:	40435b33          	sra	s6,t1,tp

0000000080005b38 <i_5615>:
    80005b38:	12712e23          	sw	t2,316(sp)

0000000080005b3c <i_5616>:
    80005b3c:	00000013          	nop

0000000080005b40 <i_5617>:
    80005b40:	00000013          	nop

0000000080005b44 <i_5618>:
    80005b44:	40235213          	srai	tp,t1,0x2

0000000080005b48 <i_5619>:
    80005b48:	14110683          	lb	a3,321(sp)

0000000080005b4c <i_5620>:
    80005b4c:	00000013          	nop

0000000080005b50 <i_5621>:
    80005b50:	ea411a23          	sh	tp,-332(sp)

0000000080005b54 <i_5622>:
    80005b54:	00000013          	nop

0000000080005b58 <i_5623>:
    80005b58:	75000e93          	li	t4,1872

0000000080005b5c <i_5624>:
    80005b5c:	76300393          	li	t2,1891

0000000080005b60 <i_5625>:
    80005b60:	f95ae237          	lui	tp,0xf95ae

0000000080005b64 <i_5626>:
    80005b64:	f0a11203          	lh	tp,-246(sp)

0000000080005b68 <i_5627>:
    80005b68:	416b0cb3          	sub	s9,s6,s6

0000000080005b6c <i_5628>:
    80005b6c:	0339e9b3          	rem	s3,s3,s3

0000000080005b70 <i_5629>:
    80005b70:	4036d31b          	sraiw	t1,a3,0x3

0000000080005b74 <i_5630>:
    80005b74:	0046d213          	srli	tp,a3,0x4

0000000080005b78 <i_5631>:
    80005b78:	001e8e93          	addi	t4,t4,1
    80005b7c:	ffd3d2e3          	ble	t4,t2,80005b60 <i_5625>

0000000080005b80 <i_5632>:
    80005b80:	024a1063          	bne	s4,tp,80005ba0 <i_5640>

0000000080005b84 <i_5633>:
    80005b84:	e3911923          	sh	s9,-462(sp)

0000000080005b88 <i_5634>:
    80005b88:	00b686b3          	add	a3,a3,a1

0000000080005b8c <i_5635>:
    80005b8c:	0c012303          	lw	t1,192(sp)

0000000080005b90 <i_5636>:
    80005b90:	00000013          	nop

0000000080005b94 <i_5637>:
    80005b94:	ff411b83          	lh	s7,-12(sp)

0000000080005b98 <i_5638>:
    80005b98:	00000013          	nop

0000000080005b9c <i_5639>:
    80005b9c:	00d37eb3          	and	t4,t1,a3

0000000080005ba0 <i_5640>:
    80005ba0:	e3510ea3          	sb	s5,-451(sp)

0000000080005ba4 <i_5641>:
    80005ba4:	00000013          	nop

0000000080005ba8 <i_5642>:
    80005ba8:	79900593          	li	a1,1945

0000000080005bac <i_5643>:
    80005bac:	7a100813          	li	a6,1953

0000000080005bb0 <i_5644>:
    80005bb0:	00000013          	nop

0000000080005bb4 <i_5645>:
    80005bb4:	01d00e93          	li	t4,29

0000000080005bb8 <i_5646>:
    80005bb8:	01d816b3          	sll	a3,a6,t4

0000000080005bbc <i_5647>:
    80005bbc:	037ac463          	blt	s5,s7,80005be4 <i_5656>

0000000080005bc0 <i_5648>:
    80005bc0:	00d69263          	bne	a3,a3,80005bc4 <i_5649>

0000000080005bc4 <i_5649>:
    80005bc4:	09d11f23          	sh	t4,158(sp)

0000000080005bc8 <i_5650>:
    80005bc8:	1d415083          	lhu	ra,468(sp)

0000000080005bcc <i_5651>:
    80005bcc:	401309b3          	sub	s3,t1,ra

0000000080005bd0 <i_5652>:
    80005bd0:	00158593          	addi	a1,a1,1
    80005bd4:	fd059ee3          	bne	a1,a6,80005bb0 <i_5644>

0000000080005bd8 <i_5653>:
    80005bd8:	00e00c93          	li	s9,14

0000000080005bdc <i_5654>:
    80005bdc:	0196dbbb          	srlw	s7,a3,s9

0000000080005be0 <i_5655>:
    80005be0:	02900e93          	li	t4,41

0000000080005be4 <i_5656>:
    80005be4:	01d31eb3          	sll	t4,t1,t4

0000000080005be8 <i_5657>:
    80005be8:	00100e93          	li	t4,1

0000000080005bec <i_5658>:
    80005bec:	41d0d0bb          	sraw	ra,ra,t4

0000000080005bf0 <i_5659>:
    80005bf0:	1dd14c83          	lbu	s9,477(sp)

0000000080005bf4 <i_5660>:
    80005bf4:	01dfd663          	ble	t4,t6,80005c00 <i_5663>

0000000080005bf8 <i_5661>:
    80005bf8:	003e9e9b          	slliw	t4,t4,0x3

0000000080005bfc <i_5662>:
    80005bfc:	03ddcebb          	divw	t4,s11,t4

0000000080005c00 <i_5663>:
    80005c00:	003ede93          	srli	t4,t4,0x3

0000000080005c04 <i_5664>:
    80005c04:	687d4d13          	xori	s10,s10,1671

0000000080005c08 <i_5665>:
    80005c08:	03de9db3          	mulh	s11,t4,t4

0000000080005c0c <i_5666>:
    80005c0c:	f8410d83          	lb	s11,-124(sp)

0000000080005c10 <i_5667>:
    80005c10:	f3816d83          	lwu	s11,-200(sp)

0000000080005c14 <i_5668>:
    80005c14:	1a410e83          	lb	t4,420(sp)

0000000080005c18 <i_5669>:
    80005c18:	16813e83          	ld	t4,360(sp)

0000000080005c1c <i_5670>:
    80005c1c:	01ff0db3          	add	s11,t5,t6

0000000080005c20 <i_5671>:
    80005c20:	09d11f23          	sh	t4,158(sp)

0000000080005c24 <i_5672>:
    80005c24:	e3b14d83          	lbu	s11,-453(sp)

0000000080005c28 <i_5673>:
    80005c28:	1e514683          	lbu	a3,485(sp)

0000000080005c2c <i_5674>:
    80005c2c:	fbd11b23          	sh	t4,-74(sp)

0000000080005c30 <i_5675>:
    80005c30:	eda15d83          	lhu	s11,-294(sp)

0000000080005c34 <i_5676>:
    80005c34:	01ddea63          	bltu	s11,t4,80005c48 <i_5681>

0000000080005c38 <i_5677>:
    80005c38:	00300313          	li	t1,3

0000000080005c3c <i_5678>:
    80005c3c:	4060d53b          	sraw	a0,ra,t1

0000000080005c40 <i_5679>:
    80005c40:	1d013e83          	ld	t4,464(sp)

0000000080005c44 <i_5680>:
    80005c44:	02635db3          	divu	s11,t1,t1

0000000080005c48 <i_5681>:
    80005c48:	02c60633          	mul	a2,a2,a2

0000000080005c4c <i_5682>:
    80005c4c:	01300613          	li	a2,19

0000000080005c50 <i_5683>:
    80005c50:	40cedd33          	sra	s10,t4,a2

0000000080005c54 <i_5684>:
    80005c54:	01b71c63          	bne	a4,s11,80005c6c <i_5690>

0000000080005c58 <i_5685>:
    80005c58:	0d7eaf13          	slti	t5,t4,215

0000000080005c5c <i_5686>:
    80005c5c:	00300993          	li	s3,3

0000000080005c60 <i_5687>:
    80005c60:	013f5d3b          	srlw	s10,t5,s3

0000000080005c64 <i_5688>:
    80005c64:	00800f13          	li	t5,8

0000000080005c68 <i_5689>:
    80005c68:	41ef5eb3          	sra	t4,t5,t5

0000000080005c6c <i_5690>:
    80005c6c:	003f5e9b          	srliw	t4,t5,0x3

0000000080005c70 <i_5691>:
    80005c70:	01500513          	li	a0,21

0000000080005c74 <i_5692>:
    80005c74:	00af5b3b          	srlw	s6,t5,a0

0000000080005c78 <i_5693>:
    80005c78:	6c236313          	ori	t1,t1,1730

0000000080005c7c <i_5694>:
    80005c7c:	033e9463          	bne	t4,s3,80005ca4 <i_5704>

0000000080005c80 <i_5695>:
    80005c80:	01d46263          	bltu	s0,t4,80005c84 <i_5696>

0000000080005c84 <i_5696>:
    80005c84:	01def1b3          	and	gp,t4,t4

0000000080005c88 <i_5697>:
    80005c88:	03d9e7bb          	remw	a5,s3,t4

0000000080005c8c <i_5698>:
    80005c8c:	00e36663          	bltu	t1,a4,80005c98 <i_5701>

0000000080005c90 <i_5699>:
    80005c90:	03dcecbb          	remw	s9,s9,t4

0000000080005c94 <i_5700>:
    80005c94:	f9d10723          	sb	t4,-114(sp)

0000000080005c98 <i_5701>:
    80005c98:	01dee463          	bltu	t4,t4,80005ca0 <i_5703>

0000000080005c9c <i_5702>:
    80005c9c:	036e9463          	bne	t4,s6,80005cc4 <i_5712>

0000000080005ca0 <i_5703>:
    80005ca0:	0399f063          	bleu	s9,s3,80005cc0 <i_5711>

0000000080005ca4 <i_5704>:
    80005ca4:	e3d10603          	lb	a2,-451(sp)

0000000080005ca8 <i_5705>:
    80005ca8:	e2613c23          	sd	t1,-456(sp)

0000000080005cac <i_5706>:
    80005cac:	edd12223          	sw	t4,-316(sp)

0000000080005cb0 <i_5707>:
    80005cb0:	025ed463          	ble	t0,t4,80005cd8 <i_5717>

0000000080005cb4 <i_5708>:
    80005cb4:	14c16f03          	lwu	t5,332(sp)

0000000080005cb8 <i_5709>:
    80005cb8:	e2a10ea3          	sb	a0,-451(sp)

0000000080005cbc <i_5710>:
    80005cbc:	12015083          	lhu	ra,288(sp)

0000000080005cc0 <i_5711>:
    80005cc0:	05b14403          	lbu	s0,91(sp)

0000000080005cc4 <i_5712>:
    80005cc4:	0360d063          	ble	s6,ra,80005ce4 <i_5720>

0000000080005cc8 <i_5713>:
    80005cc8:	0067b2b3          	sltu	t0,a5,t1

0000000080005ccc <i_5714>:
    80005ccc:	03d60263          	beq	a2,t4,80005cf0 <i_5723>

0000000080005cd0 <i_5715>:
    80005cd0:	f5d14183          	lbu	gp,-163(sp)

0000000080005cd4 <i_5716>:
    80005cd4:	f6816303          	lwu	t1,-152(sp)

0000000080005cd8 <i_5717>:
    80005cd8:	18a11d83          	lh	s11,394(sp)

0000000080005cdc <i_5718>:
    80005cdc:	c6834e93          	xori	t4,t1,-920

0000000080005ce0 <i_5719>:
    80005ce0:	cfa5ad97          	auipc	s11,0xcfa5a

0000000080005ce4 <i_5720>:
    80005ce4:	ff211d83          	lh	s11,-14(sp)

0000000080005ce8 <i_5721>:
    80005ce8:	023e8463          	beq	t4,gp,80005d10 <i_5731>

0000000080005cec <i_5722>:
    80005cec:	03beadb3          	mulhsu	s11,t4,s11

0000000080005cf0 <i_5723>:
    80005cf0:	08b14e83          	lbu	t4,139(sp)

0000000080005cf4 <i_5724>:
    80005cf4:	01d12823          	sw	t4,16(sp)

0000000080005cf8 <i_5725>:
    80005cf8:	e5514e83          	lbu	t4,-427(sp)

0000000080005cfc <i_5726>:
    80005cfc:	04114e83          	lbu	t4,65(sp)

0000000080005d00 <i_5727>:
    80005d00:	f1c14a03          	lbu	s4,-228(sp)

0000000080005d04 <i_5728>:
    80005d04:	02c12a03          	lw	s4,44(sp)

0000000080005d08 <i_5729>:
    80005d08:	034d8a3b          	mulw	s4,s11,s4

0000000080005d0c <i_5730>:
    80005d0c:	01b86263          	bltu	a6,s11,80005d10 <i_5731>

0000000080005d10 <i_5731>:
    80005d10:	02feae13          	slti	t3,t4,47

0000000080005d14 <i_5732>:
    80005d14:	01ce7a33          	and	s4,t3,t3

0000000080005d18 <i_5733>:
    80005d18:	00ea5663          	ble	a4,s4,80005d24 <i_5736>

0000000080005d1c <i_5734>:
    80005d1c:	00000013          	nop

0000000080005d20 <i_5735>:
    80005d20:	01410a23          	sb	s4,20(sp)

0000000080005d24 <i_5736>:
    80005d24:	414f0e3b          	subw	t3,t5,s4

0000000080005d28 <i_5737>:
    80005d28:	f84a6193          	ori	gp,s4,-124

0000000080005d2c <i_5738>:
    80005d2c:	8b500a13          	li	s4,-1867

0000000080005d30 <i_5739>:
    80005d30:	8b800f13          	li	t5,-1864

0000000080005d34 <i_5740>:
    80005d34:	11714183          	lbu	gp,279(sp)

0000000080005d38 <i_5741>:
    80005d38:	00000013          	nop

0000000080005d3c <i_5742>:
    80005d3c:	1a812c83          	lw	s9,424(sp)

0000000080005d40 <i_5743>:
    80005d40:	403e549b          	sraiw	s1,t3,0x3

0000000080005d44 <i_5744>:
    80005d44:	001a0a13          	addi	s4,s4,1 # ffffffffe43c2001 <_end+0xffffffff643b1bed>
    80005d48:	ff4f56e3          	ble	s4,t5,80005d34 <i_5740>

0000000080005d4c <i_5745>:
    80005d4c:	00000013          	nop

0000000080005d50 <i_5746>:
    80005d50:	0144ca63          	blt	s1,s4,80005d64 <i_5751>

0000000080005d54 <i_5747>:
    80005d54:	cc2a2393          	slti	t2,s4,-830

0000000080005d58 <i_5748>:
    80005d58:	014c8663          	beq	s9,s4,80005d64 <i_5751>

0000000080005d5c <i_5749>:
    80005d5c:	03cc9063          	bne	s9,t3,80005d7c <i_5757>

0000000080005d60 <i_5750>:
    80005d60:	a2af7f13          	andi	t5,t5,-1494

0000000080005d64 <i_5751>:
    80005d64:	fd016c83          	lwu	s9,-48(sp)

0000000080005d68 <i_5752>:
    80005d68:	f9813e03          	ld	t3,-104(sp)

0000000080005d6c <i_5753>:
    80005d6c:	025273bb          	remuw	t2,tp,t0

0000000080005d70 <i_5754>:
    80005d70:	09a14e03          	lbu	t3,154(sp)

0000000080005d74 <i_5755>:
    80005d74:	1bb10983          	lb	s3,443(sp)

0000000080005d78 <i_5756>:
    80005d78:	027e033b          	mulw	t1,t3,t2

0000000080005d7c <i_5757>:
    80005d7c:	03c9d463          	ble	t3,s3,80005da4 <i_5767>

0000000080005d80 <i_5758>:
    80005d80:	02421463          	bne	tp,tp,80005da8 <i_5768>

0000000080005d84 <i_5759>:
    80005d84:	ef914a83          	lbu	s5,-263(sp)

0000000080005d88 <i_5760>:
    80005d88:	03530ab3          	mul	s5,t1,s5

0000000080005d8c <i_5761>:
    80005d8c:	05812283          	lw	t0,88(sp)

0000000080005d90 <i_5762>:
    80005d90:	007983b3          	add	t2,s3,t2

0000000080005d94 <i_5763>:
    80005d94:	02735ab3          	divu	s5,t1,t2

0000000080005d98 <i_5764>:
    80005d98:	01c75c63          	ble	t3,a4,80005db0 <i_5770>

0000000080005d9c <i_5765>:
    80005d9c:	01300d93          	li	s11,19

0000000080005da0 <i_5766>:
    80005da0:	41bcd6bb          	sraw	a3,s9,s11

0000000080005da4 <i_5767>:
    80005da4:	efb12223          	sw	s11,-284(sp)

0000000080005da8 <i_5768>:
    80005da8:	01524863          	blt	tp,s5,80005db8 <i_5772>

0000000080005dac <i_5769>:
    80005dac:	00169a1b          	slliw	s4,a3,0x1

0000000080005db0 <i_5770>:
    80005db0:	f5910ca3          	sb	s9,-167(sp)

0000000080005db4 <i_5771>:
    80005db4:	00625a63          	ble	t1,tp,80005dc8 <i_5776>

0000000080005db8 <i_5772>:
    80005db8:	4043da1b          	sraiw	s4,t2,0x4

0000000080005dbc <i_5773>:
    80005dbc:	f3111123          	sh	a7,-222(sp)

0000000080005dc0 <i_5774>:
    80005dc0:	0043d29b          	srliw	t0,t2,0x4

0000000080005dc4 <i_5775>:
    80005dc4:	17b13023          	sd	s11,352(sp)

0000000080005dc8 <i_5776>:
    80005dc8:	0072e263          	bltu	t0,t2,80005dcc <i_5777>

0000000080005dcc <i_5777>:
    80005dcc:	f7013683          	ld	a3,-144(sp)

0000000080005dd0 <i_5778>:
    80005dd0:	009c84b3          	add	s1,s9,s1

0000000080005dd4 <i_5779>:
    80005dd4:	ffd14a03          	lbu	s4,-3(sp)

0000000080005dd8 <i_5780>:
    80005dd8:	014a1863          	bne	s4,s4,80005de8 <i_5784>

0000000080005ddc <i_5781>:
    80005ddc:	1be15a03          	lhu	s4,446(sp)

0000000080005de0 <i_5782>:
    80005de0:	04016e83          	lwu	t4,64(sp)

0000000080005de4 <i_5783>:
    80005de4:	e25105a3          	sb	t0,-469(sp)

0000000080005de8 <i_5784>:
    80005de8:	00000013          	nop

0000000080005dec <i_5785>:
    80005dec:	f1e11d83          	lh	s11,-226(sp)

0000000080005df0 <i_5786>:
    80005df0:	8bd00493          	li	s1,-1859

0000000080005df4 <i_5787>:
    80005df4:	8cb00993          	li	s3,-1845

0000000080005df8 <i_5788>:
    80005df8:	00000013          	nop

0000000080005dfc <i_5789>:
    80005dfc:	013ee663          	bltu	t4,s3,80005e08 <i_5792>

0000000080005e00 <i_5790>:
    80005e00:	04b13823          	sd	a1,80(sp)

0000000080005e04 <i_5791>:
    80005e04:	02d595b3          	mulh	a1,a1,a3

0000000080005e08 <i_5792>:
    80005e08:	e6e14b83          	lbu	s7,-402(sp)

0000000080005e0c <i_5793>:
    80005e0c:	02bd9263          	bne	s11,a1,80005e30 <i_5801>

0000000080005e10 <i_5794>:
    80005e10:	03d00593          	li	a1,61

0000000080005e14 <i_5795>:
    80005e14:	40bbd6b3          	sra	a3,s7,a1

0000000080005e18 <i_5796>:
    80005e18:	00148493          	addi	s1,s1,1 # 1373f471 <main-0x6c8c0b8f>
    80005e1c:	fd34eee3          	bltu	s1,s3,80005df8 <i_5788>

0000000080005e20 <i_5797>:
    80005e20:	04a11583          	lh	a1,74(sp)

0000000080005e24 <i_5798>:
    80005e24:	eab12e23          	sw	a1,-324(sp)

0000000080005e28 <i_5799>:
    80005e28:	02bb9463          	bne	s7,a1,80005e50 <i_5809>

0000000080005e2c <i_5800>:
    80005e2c:	eab10da3          	sb	a1,-325(sp)

0000000080005e30 <i_5801>:
    80005e30:	05812b83          	lw	s7,88(sp)

0000000080005e34 <i_5802>:
    80005e34:	037bdbbb          	divuw	s7,s7,s7

0000000080005e38 <i_5803>:
    80005e38:	3769ebb7          	lui	s7,0x3769e

0000000080005e3c <i_5804>:
    80005e3c:	f9013c03          	ld	s8,-112(sp)

0000000080005e40 <i_5805>:
    80005e40:	b6c70b93          	addi	s7,a4,-1172

0000000080005e44 <i_5806>:
    80005e44:	17416a03          	lwu	s4,372(sp)

0000000080005e48 <i_5807>:
    80005e48:	bba5cb13          	xori	s6,a1,-1094

0000000080005e4c <i_5808>:
    80005e4c:	f9514a03          	lbu	s4,-107(sp)

0000000080005e50 <i_5809>:
    80005e50:	00bc5a63          	ble	a1,s8,80005e64 <i_5814>

0000000080005e54 <i_5810>:
    80005e54:	0d713423          	sd	s7,200(sp)

0000000080005e58 <i_5811>:
    80005e58:	40445593          	srai	a1,s0,0x4

0000000080005e5c <i_5812>:
    80005e5c:	0165d463          	ble	s6,a1,80005e64 <i_5814>

0000000080005e60 <i_5813>:
    80005e60:	e4b12223          	sw	a1,-444(sp)

0000000080005e64 <i_5814>:
    80005e64:	002a131b          	slliw	t1,s4,0x2

0000000080005e68 <i_5815>:
    80005e68:	0343733b          	remuw	t1,t1,s4

0000000080005e6c <i_5816>:
    80005e6c:	1a714583          	lbu	a1,423(sp)

0000000080005e70 <i_5817>:
    80005e70:	00634a33          	xor	s4,t1,t1

0000000080005e74 <i_5818>:
    80005e74:	00400093          	li	ra,4

0000000080005e78 <i_5819>:
    80005e78:	001ed233          	srl	tp,t4,ra

0000000080005e7c <i_5820>:
    80005e7c:	e6813303          	ld	t1,-408(sp)

0000000080005e80 <i_5821>:
    80005e80:	1a1108a3          	sb	ra,433(sp)

0000000080005e84 <i_5822>:
    80005e84:	013dfa63          	bleu	s3,s11,80005e98 <i_5827>

0000000080005e88 <i_5823>:
    80005e88:	00149e63          	bne	s1,ra,80005ea4 <i_5830>

0000000080005e8c <i_5824>:
    80005e8c:	00630863          	beq	t1,t1,80005e9c <i_5828>

0000000080005e90 <i_5825>:
    80005e90:	e4013683          	ld	a3,-448(sp)

0000000080005e94 <i_5826>:
    80005e94:	00130263          	beq	t1,ra,80005e98 <i_5827>

0000000080005e98 <i_5827>:
    80005e98:	0370d263          	ble	s7,ra,80005ebc <i_5836>

0000000080005e9c <i_5828>:
    80005e9c:	e2611023          	sh	t1,-480(sp)

0000000080005ea0 <i_5829>:
    80005ea0:	fa010683          	lb	a3,-96(sp)

0000000080005ea4 <i_5830>:
    80005ea4:	eed12623          	sw	a3,-276(sp)

0000000080005ea8 <i_5831>:
    80005ea8:	0216e463          	bltu	a3,ra,80005ed0 <i_5841>

0000000080005eac <i_5832>:
    80005eac:	02615c03          	lhu	s8,38(sp)

0000000080005eb0 <i_5833>:
    80005eb0:	f1e11a03          	lh	s4,-226(sp)

0000000080005eb4 <i_5834>:
    80005eb4:	014c0a63          	beq	s8,s4,80005ec8 <i_5839>

0000000080005eb8 <i_5835>:
    80005eb8:	02d75063          	ble	a3,a4,80005ed8 <i_5843>

0000000080005ebc <i_5836>:
    80005ebc:	01200513          	li	a0,18

0000000080005ec0 <i_5837>:
    80005ec0:	40a0df3b          	sraw	t5,ra,a0

0000000080005ec4 <i_5838>:
    80005ec4:	026f0433          	mul	s0,t5,t1

0000000080005ec8 <i_5839>:
    80005ec8:	001f7c33          	and	s8,t5,ra

0000000080005ecc <i_5840>:
    80005ecc:	dc44cf13          	xori	t5,s1,-572

0000000080005ed0 <i_5841>:
    80005ed0:	ef211023          	sh	s2,-288(sp)

0000000080005ed4 <i_5842>:
    80005ed4:	048101a3          	sb	s0,67(sp)

0000000080005ed8 <i_5843>:
    80005ed8:	03e585bb          	mulw	a1,a1,t5

0000000080005edc <i_5844>:
    80005edc:	0cb11623          	sh	a1,204(sp)

0000000080005ee0 <i_5845>:
    80005ee0:	80b00493          	li	s1,-2037

0000000080005ee4 <i_5846>:
    80005ee4:	80d00213          	li	tp,-2035

0000000080005ee8 <i_5847>:
    80005ee8:	f5811e83          	lh	t4,-168(sp)

0000000080005eec <i_5848>:
    80005eec:	1cb13423          	sd	a1,456(sp)

0000000080005ef0 <i_5849>:
    80005ef0:	06411983          	lh	s3,100(sp)

0000000080005ef4 <i_5850>:
    80005ef4:	4029de13          	srai	t3,s3,0x2

0000000080005ef8 <i_5851>:
    80005ef8:	f6b10d23          	sb	a1,-134(sp)

0000000080005efc <i_5852>:
    80005efc:	f7011583          	lh	a1,-144(sp)

0000000080005f00 <i_5853>:
    80005f00:	01323eb3          	sltu	t4,tp,s3

0000000080005f04 <i_5854>:
    80005f04:	f7313c23          	sd	s3,-136(sp)

0000000080005f08 <i_5855>:
    80005f08:	11012a83          	lw	s5,272(sp)

0000000080005f0c <i_5856>:
    80005f0c:	035999b3          	mulh	s3,s3,s5

0000000080005f10 <i_5857>:
    80005f10:	00148493          	addi	s1,s1,1
    80005f14:	fc921ae3          	bne	tp,s1,80005ee8 <i_5847>

0000000080005f18 <i_5858>:
    80005f18:	00416a83          	lwu	s5,4(sp)

0000000080005f1c <i_5859>:
    80005f1c:	fb311b23          	sh	s3,-74(sp)

0000000080005f20 <i_5860>:
    80005f20:	2cbaba93          	sltiu	s5,s5,715

0000000080005f24 <i_5861>:
    80005f24:	03eae463          	bltu	s5,t5,80005f4c <i_5871>

0000000080005f28 <i_5862>:
    80005f28:	03399063          	bne	s3,s3,80005f48 <i_5870>

0000000080005f2c <i_5863>:
    80005f2c:	00000013          	nop

0000000080005f30 <i_5864>:
    80005f30:	01a9aab3          	slt	s5,s3,s10

0000000080005f34 <i_5865>:
    80005f34:	fd110583          	lb	a1,-47(sp)

0000000080005f38 <i_5866>:
    80005f38:	00000013          	nop

0000000080005f3c <i_5867>:
    80005f3c:	00000013          	nop

0000000080005f40 <i_5868>:
    80005f40:	1f511423          	sh	s5,488(sp)

0000000080005f44 <i_5869>:
    80005f44:	e5411d23          	sh	s4,-422(sp)

0000000080005f48 <i_5870>:
    80005f48:	e2015c83          	lhu	s9,-480(sp)

0000000080005f4c <i_5871>:
    80005f4c:	17512023          	sw	s5,352(sp)

0000000080005f50 <i_5872>:
    80005f50:	002adc93          	srli	s9,s5,0x2

0000000080005f54 <i_5873>:
    80005f54:	80600993          	li	s3,-2042

0000000080005f58 <i_5874>:
    80005f58:	80900a13          	li	s4,-2039

0000000080005f5c <i_5875>:
    80005f5c:	405c8abb          	subw	s5,s9,t0

0000000080005f60 <i_5876>:
    80005f60:	00198993          	addi	s3,s3,1
    80005f64:	ff49cce3          	blt	s3,s4,80005f5c <i_5875>

0000000080005f68 <i_5877>:
    80005f68:	025582b3          	mul	t0,a1,t0

0000000080005f6c <i_5878>:
    80005f6c:	02d989b3          	mul	s3,s3,a3

0000000080005f70 <i_5879>:
    80005f70:	0132e333          	or	t1,t0,s3

0000000080005f74 <i_5880>:
    80005f74:	0185ea63          	bltu	a1,s8,80005f88 <i_5885>

0000000080005f78 <i_5881>:
    80005f78:	0352d263          	ble	s5,t0,80005f9c <i_5890>

0000000080005f7c <i_5882>:
    80005f7c:	03412a83          	lw	s5,52(sp)

0000000080005f80 <i_5883>:
    80005f80:	01900293          	li	t0,25

0000000080005f84 <i_5884>:
    80005f84:	005adcbb          	srlw	s9,s5,t0

0000000080005f88 <i_5885>:
    80005f88:	18611283          	lh	t0,390(sp)

0000000080005f8c <i_5886>:
    80005f8c:	02c12d83          	lw	s11,44(sp)

0000000080005f90 <i_5887>:
    80005f90:	e2513023          	sd	t0,-480(sp)

0000000080005f94 <i_5888>:
    80005f94:	005cc863          	blt	s9,t0,80005fa4 <i_5892>

0000000080005f98 <i_5889>:
    80005f98:	003e9e93          	slli	t4,t4,0x3

0000000080005f9c <i_5890>:
    80005f9c:	fb415d83          	lhu	s11,-76(sp)

0000000080005fa0 <i_5891>:
    80005fa0:	0b814203          	lbu	tp,184(sp)

0000000080005fa4 <i_5892>:
    80005fa4:	01bcc663          	blt	s9,s11,80005fb0 <i_5895>

0000000080005fa8 <i_5893>:
    80005fa8:	3827ed97          	auipc	s11,0x3827e

0000000080005fac <i_5894>:
    80005fac:	16813f03          	ld	t5,360(sp)

0000000080005fb0 <i_5895>:
    80005fb0:	dc9f3c93          	sltiu	s9,t5,-567

0000000080005fb4 <i_5896>:
    80005fb4:	03ecccb3          	div	s9,s9,t5

0000000080005fb8 <i_5897>:
    80005fb8:	01ef5863          	ble	t5,t5,80005fc8 <i_5901>

0000000080005fbc <i_5898>:
    80005fbc:	024cd063          	ble	tp,s9,80005fdc <i_5906>

0000000080005fc0 <i_5899>:
    80005fc0:	f8812f03          	lw	t5,-120(sp)

0000000080005fc4 <i_5900>:
    80005fc4:	aebf0413          	addi	s0,t5,-1301

0000000080005fc8 <i_5901>:
    80005fc8:	17e11723          	sh	t5,366(sp)

0000000080005fcc <i_5902>:
    80005fcc:	01945463          	ble	s9,s0,80005fd4 <i_5904>

0000000080005fd0 <i_5903>:
    80005fd0:	05912423          	sw	s9,72(sp)

0000000080005fd4 <i_5904>:
    80005fd4:	039cc333          	div	t1,s9,s9

0000000080005fd8 <i_5905>:
    80005fd8:	05f10c83          	lb	s9,95(sp)

0000000080005fdc <i_5906>:
    80005fdc:	006a4663          	blt	s4,t1,80005fe8 <i_5909>

0000000080005fe0 <i_5907>:
    80005fe0:	17c12983          	lw	s3,380(sp)

0000000080005fe4 <i_5908>:
    80005fe4:	eda13423          	sd	s10,-312(sp)

0000000080005fe8 <i_5909>:
    80005fe8:	02bce5b3          	rem	a1,s9,a1

0000000080005fec <i_5910>:
    80005fec:	0039dc9b          	srliw	s9,s3,0x3

0000000080005ff0 <i_5911>:
    80005ff0:	0085f263          	bleu	s0,a1,80005ff4 <i_5912>

0000000080005ff4 <i_5912>:
    80005ff4:	019cf463          	bleu	s9,s9,80005ffc <i_5914>

0000000080005ff8 <i_5913>:
    80005ff8:	f9313823          	sd	s3,-112(sp)

0000000080005ffc <i_5914>:
    80005ffc:	00000013          	nop

0000000080006000 <i_5915>:
    80006000:	00000013          	nop

0000000080006004 <i_5916>:
    80006004:	89a00813          	li	a6,-1894

0000000080006008 <i_5917>:
    80006008:	8a700f13          	li	t5,-1881

000000008000600c <i_5918>:
    8000600c:	01085263          	ble	a6,a6,80006010 <i_5919>

0000000080006010 <i_5919>:
    80006010:	02b335b3          	mulhu	a1,t1,a1

0000000080006014 <i_5920>:
    80006014:	00659663          	bne	a1,t1,80006020 <i_5923>

0000000080006018 <i_5921>:
    80006018:	0065e333          	or	t1,a1,t1

000000008000601c <i_5922>:
    8000601c:	00bc4b33          	xor	s6,s8,a1

0000000080006020 <i_5923>:
    80006020:	e4810323          	sb	s0,-442(sp)

0000000080006024 <i_5924>:
    80006024:	f3612c23          	sw	s6,-200(sp)

0000000080006028 <i_5925>:
    80006028:	f9e12823          	sw	t5,-112(sp)

000000008000602c <i_5926>:
    8000602c:	18611523          	sh	t1,394(sp)

0000000080006030 <i_5927>:
    80006030:	03b00593          	li	a1,59

0000000080006034 <i_5928>:
    80006034:	00b5d433          	srl	s0,a1,a1

0000000080006038 <i_5929>:
    80006038:	00180813          	addi	a6,a6,1
    8000603c:	fde818e3          	bne	a6,t5,8000600c <i_5918>

0000000080006040 <i_5930>:
    80006040:	f8816f03          	lwu	t5,-120(sp)

0000000080006044 <i_5931>:
    80006044:	0269fb33          	remu	s6,s3,t1

0000000080006048 <i_5932>:
    80006048:	006f4663          	blt	t5,t1,80006054 <i_5935>

000000008000604c <i_5933>:
    8000604c:	5205859b          	addiw	a1,a1,1312

0000000080006050 <i_5934>:
    80006050:	032a7063          	bleu	s2,s4,80006070 <i_5942>

0000000080006054 <i_5935>:
    80006054:	f6a11a03          	lh	s4,-150(sp)

0000000080006058 <i_5936>:
    80006058:	13e11123          	sh	t5,290(sp)

000000008000605c <i_5937>:
    8000605c:	01e5e3b3          	or	t2,a1,t5

0000000080006060 <i_5938>:
    80006060:	04e11f03          	lh	t5,78(sp)

0000000080006064 <i_5939>:
    80006064:	06013b03          	ld	s6,96(sp)

0000000080006068 <i_5940>:
    80006068:	03eb5bbb          	divuw	s7,s6,t5

000000008000606c <i_5941>:
    8000606c:	00000013          	nop

0000000080006070 <i_5942>:
    80006070:	00000013          	nop

0000000080006074 <i_5943>:
    80006074:	fb416583          	lwu	a1,-76(sp)

0000000080006078 <i_5944>:
    80006078:	85a00293          	li	t0,-1958

000000008000607c <i_5945>:
    8000607c:	86200393          	li	t2,-1950

0000000080006080 <i_5946>:
    80006080:	f8b11023          	sh	a1,-128(sp)

0000000080006084 <i_5947>:
    80006084:	00a00a93          	li	s5,10

0000000080006088 <i_5948>:
    80006088:	01539abb          	sllw	s5,t2,s5

000000008000608c <i_5949>:
    8000608c:	7b000213          	li	tp,1968

0000000080006090 <i_5950>:
    80006090:	7bc00b93          	li	s7,1980

0000000080006094 <i_5951>:
    80006094:	10412223          	sw	tp,260(sp)

0000000080006098 <i_5952>:
    80006098:	01000e93          	li	t4,16

000000008000609c <i_5953>:
    8000609c:	01da50b3          	srl	ra,s4,t4

00000000800060a0 <i_5954>:
    800060a0:	00120213          	addi	tp,tp,1 # fffffffff95ae001 <_end+0xffffffff7959dbed>
    800060a4:	ff7216e3          	bne	tp,s7,80006090 <i_5950>

00000000800060a8 <i_5955>:
    800060a8:	4073033b          	subw	t1,t1,t2

00000000800060ac <i_5956>:
    800060ac:	02633a33          	mulhu	s4,t1,t1

00000000800060b0 <i_5957>:
    800060b0:	00128293          	addi	t0,t0,1
    800060b4:	fc53d6e3          	ble	t0,t2,80006080 <i_5946>

00000000800060b8 <i_5958>:
    800060b8:	c0880997          	auipc	s3,0xc0880

00000000800060bc <i_5959>:
    800060bc:	0149c263          	blt	s3,s4,800060c0 <i_5960>

00000000800060c0 <i_5960>:
    800060c0:	f6c16983          	lwu	s3,-148(sp)

00000000800060c4 <i_5961>:
    800060c4:	eb311c23          	sh	s3,-328(sp)

00000000800060c8 <i_5962>:
    800060c8:	03214183          	lbu	gp,50(sp)

00000000800060cc <i_5963>:
    800060cc:	0a611023          	sh	t1,160(sp)

00000000800060d0 <i_5964>:
    800060d0:	01000d13          	li	s10,16

00000000800060d4 <i_5965>:
    800060d4:	41a25d3b          	sraw	s10,tp,s10

00000000800060d8 <i_5966>:
    800060d8:	01ad1c63          	bne	s10,s10,800060f0 <i_5972>

00000000800060dc <i_5967>:
    800060dc:	e9016983          	lwu	s3,-368(sp)

00000000800060e0 <i_5968>:
    800060e0:	0ba106a3          	sb	s10,173(sp)

00000000800060e4 <i_5969>:
    800060e4:	1b313823          	sd	s3,432(sp)

00000000800060e8 <i_5970>:
    800060e8:	00412983          	lw	s3,4(sp)

00000000800060ec <i_5971>:
    800060ec:	01ad6e63          	bltu	s10,s10,80006108 <i_5978>

00000000800060f0 <i_5972>:
    800060f0:	e4416d03          	lwu	s10,-444(sp)

00000000800060f4 <i_5973>:
    800060f4:	e1c11603          	lh	a2,-484(sp)

00000000800060f8 <i_5974>:
    800060f8:	03ad5d3b          	divuw	s10,s10,s10

00000000800060fc <i_5975>:
    800060fc:	f5810a83          	lb	s5,-168(sp)

0000000080006100 <i_5976>:
    80006100:	07b14a37          	lui	s4,0x7b14

0000000080006104 <i_5977>:
    80006104:	e8e14483          	lbu	s1,-370(sp)

0000000080006108 <i_5978>:
    80006108:	00000013          	nop

000000008000610c <i_5979>:
    8000610c:	00500a13          	li	s4,5

0000000080006110 <i_5980>:
    80006110:	414dd33b          	sraw	t1,s11,s4

0000000080006114 <i_5981>:
    80006114:	8b500e13          	li	t3,-1867

0000000080006118 <i_5982>:
    80006118:	8be00293          	li	t0,-1858

000000008000611c <i_5983>:
    8000611c:	10615403          	lhu	s0,262(sp)

0000000080006120 <i_5984>:
    80006120:	00000013          	nop

0000000080006124 <i_5985>:
    80006124:	001e0e13          	addi	t3,t3,1
    80006128:	ffc2f8e3          	bleu	t3,t0,80006118 <i_5982>

000000008000612c <i_5986>:
    8000612c:	034462bb          	remw	t0,s0,s4

0000000080006130 <i_5987>:
    80006130:	02caa633          	mulhsu	a2,s5,a2

0000000080006134 <i_5988>:
    80006134:	e9410c03          	lb	s8,-364(sp)

0000000080006138 <i_5989>:
    80006138:	03461063          	bne	a2,s4,80006158 <i_5997>

000000008000613c <i_5990>:
    8000613c:	01800a13          	li	s4,24

0000000080006140 <i_5991>:
    80006140:	01441633          	sll	a2,s0,s4

0000000080006144 <i_5992>:
    80006144:	11413423          	sd	s4,264(sp)

0000000080006148 <i_5993>:
    80006148:	ff013423          	sd	a6,-24(sp)

000000008000614c <i_5994>:
    8000614c:	018c31b3          	sltu	gp,s8,s8

0000000080006150 <i_5995>:
    80006150:	07013c03          	ld	s8,112(sp)

0000000080006154 <i_5996>:
    80006154:	007c5e63          	ble	t2,s8,80006170 <i_6003>

0000000080006158 <i_5997>:
    80006158:	09813023          	sd	s8,128(sp)

000000008000615c <i_5998>:
    8000615c:	0341ec33          	rem	s8,gp,s4

0000000080006160 <i_5999>:
    80006160:	03300693          	li	a3,51

0000000080006164 <i_6000>:
    80006164:	40dc5eb3          	sra	t4,s8,a3

0000000080006168 <i_6001>:
    80006168:	0e013a03          	ld	s4,224(sp)

000000008000616c <i_6002>:
    8000616c:	00000013          	nop

0000000080006170 <i_6003>:
    80006170:	014a2a33          	slt	s4,s4,s4

0000000080006174 <i_6004>:
    80006174:	00000013          	nop

0000000080006178 <i_6005>:
    80006178:	8cb00e93          	li	t4,-1845

000000008000617c <i_6006>:
    8000617c:	8dd00193          	li	gp,-1827

0000000080006180 <i_6007>:
    80006180:	00fa1e63          	bne	s4,a5,8000619c <i_6014>

0000000080006184 <i_6008>:
    80006184:	e2016c83          	lwu	s9,-480(sp)

0000000080006188 <i_6009>:
    80006188:	034a27b3          	mulhsu	a5,s4,s4

000000008000618c <i_6010>:
    8000618c:	14f12e23          	sw	a5,348(sp)

0000000080006190 <i_6011>:
    80006190:	11912a23          	sw	s9,276(sp)

0000000080006194 <i_6012>:
    80006194:	00500093          	li	ra,5

0000000080006198 <i_6013>:
    80006198:	001c9db3          	sll	s11,s9,ra

000000008000619c <i_6014>:
    8000619c:	11015783          	lhu	a5,272(sp)

00000000800061a0 <i_6015>:
    800061a0:	40135a9b          	sraiw	s5,t1,0x1

00000000800061a4 <i_6016>:
    800061a4:	82b00313          	li	t1,-2005

00000000800061a8 <i_6017>:
    800061a8:	83b00a13          	li	s4,-1989

00000000800061ac <i_6018>:
    800061ac:	00130313          	addi	t1,t1,1
    800061b0:	ff434ee3          	blt	t1,s4,800061ac <i_6018>

00000000800061b4 <i_6019>:
    800061b4:	03b11423          	sh	s11,40(sp)

00000000800061b8 <i_6020>:
    800061b8:	05e11783          	lh	a5,94(sp)

00000000800061bc <i_6021>:
    800061bc:	001e8e93          	addi	t4,t4,1
    800061c0:	fc3e90e3          	bne	t4,gp,80006180 <i_6007>

00000000800061c4 <i_6022>:
    800061c4:	a3f4bf13          	sltiu	t5,s1,-1473

00000000800061c8 <i_6023>:
    800061c8:	01937a63          	bleu	s9,t1,800061dc <i_6028>

00000000800061cc <i_6024>:
    800061cc:	02f13423          	sd	a5,40(sp)

00000000800061d0 <i_6025>:
    800061d0:	003c1f1b          	slliw	t5,s8,0x3

00000000800061d4 <i_6026>:
    800061d4:	f5e11b23          	sh	t5,-170(sp)

00000000800061d8 <i_6027>:
    800061d8:	026f20b3          	mulhsu	ra,t5,t1

00000000800061dc <i_6028>:
    800061dc:	ebd11e23          	sh	t4,-324(sp)

00000000800061e0 <i_6029>:
    800061e0:	fbc10583          	lb	a1,-68(sp)

00000000800061e4 <i_6030>:
    800061e4:	86500313          	li	t1,-1947

00000000800061e8 <i_6031>:
    800061e8:	87600793          	li	a5,-1930

00000000800061ec <i_6032>:
    800061ec:	00000013          	nop

00000000800061f0 <i_6033>:
    800061f0:	00130313          	addi	t1,t1,1
    800061f4:	fef34ce3          	blt	t1,a5,800061ec <i_6032>

00000000800061f8 <i_6034>:
    800061f8:	10816e83          	lwu	t4,264(sp)

00000000800061fc <i_6035>:
    800061fc:	03e34f33          	div	t5,t1,t5

0000000080006200 <i_6036>:
    80006200:	6525879b          	addiw	a5,a1,1618

0000000080006204 <i_6037>:
    80006204:	e7f10603          	lb	a2,-385(sp)

0000000080006208 <i_6038>:
    80006208:	12410603          	lb	a2,292(sp)

000000008000620c <i_6039>:
    8000620c:	0011d193          	srli	gp,gp,0x1

0000000080006210 <i_6040>:
    80006210:	01500693          	li	a3,21

0000000080006214 <i_6041>:
    80006214:	00df59b3          	srl	s3,t5,a3

0000000080006218 <i_6042>:
    80006218:	00700b93          	li	s7,7

000000008000621c <i_6043>:
    8000621c:	017652b3          	srl	t0,a2,s7

0000000080006220 <i_6044>:
    80006220:	f1e12223          	sw	t5,-252(sp)

0000000080006224 <i_6045>:
    80006224:	01ab9a63          	bne	s7,s10,80006238 <i_6050>

0000000080006228 <i_6046>:
    80006228:	f2613823          	sd	t1,-208(sp)

000000008000622c <i_6047>:
    8000622c:	13416d03          	lwu	s10,308(sp)

0000000080006230 <i_6048>:
    80006230:	025bbd33          	mulhu	s10,s7,t0

0000000080006234 <i_6049>:
    80006234:	1168bd37          	lui	s10,0x1168b

0000000080006238 <i_6050>:
    80006238:	15c12483          	lw	s1,348(sp)

000000008000623c <i_6051>:
    8000623c:	01f00493          	li	s1,31

0000000080006240 <i_6052>:
    80006240:	009492bb          	sllw	t0,s1,s1

0000000080006244 <i_6053>:
    80006244:	e7815483          	lhu	s1,-392(sp)

0000000080006248 <i_6054>:
    80006248:	f7611c23          	sh	s6,-136(sp)

000000008000624c <i_6055>:
    8000624c:	87500293          	li	t0,-1931

0000000080006250 <i_6056>:
    80006250:	87900593          	li	a1,-1927

0000000080006254 <i_6057>:
    80006254:	10510ba3          	sb	t0,279(sp)

0000000080006258 <i_6058>:
    80006258:	06010403          	lb	s0,96(sp)

000000008000625c <i_6059>:
    8000625c:	025bdbbb          	divuw	s7,s7,t0

0000000080006260 <i_6060>:
    80006260:	f1011d83          	lh	s11,-240(sp)

0000000080006264 <i_6061>:
    80006264:	14012a83          	lw	s5,320(sp)

0000000080006268 <i_6062>:
    80006268:	f9511d23          	sh	s5,-102(sp)

000000008000626c <i_6063>:
    8000626c:	00128293          	addi	t0,t0,1
    80006270:	feb2c2e3          	blt	t0,a1,80006254 <i_6057>

0000000080006274 <i_6064>:
    80006274:	fde15403          	lhu	s0,-34(sp)

0000000080006278 <i_6065>:
    80006278:	0035da9b          	srliw	s5,a1,0x3

000000008000627c <i_6066>:
    8000627c:	0292bd33          	mulhu	s10,t0,s1

0000000080006280 <i_6067>:
    80006280:	0079f9b3          	and	s3,s3,t2

0000000080006284 <i_6068>:
    80006284:	02458263          	beq	a1,tp,800062a8 <i_6077>

0000000080006288 <i_6069>:
    80006288:	1c011383          	lh	t2,448(sp)

000000008000628c <i_6070>:
    8000628c:	008d6263          	bltu	s10,s0,80006290 <i_6071>

0000000080006290 <i_6071>:
    80006290:	ec711a23          	sh	t2,-300(sp)

0000000080006294 <i_6072>:
    80006294:	eeb13023          	sd	a1,-288(sp)

0000000080006298 <i_6073>:
    80006298:	002dda13          	srli	s4,s11,0x2

000000008000629c <i_6074>:
    8000629c:	ec310583          	lb	a1,-317(sp)

00000000800062a0 <i_6075>:
    800062a0:	024dc5b3          	div	a1,s11,tp

00000000800062a4 <i_6076>:
    800062a4:	17c16d03          	lwu	s10,380(sp)

00000000800062a8 <i_6077>:
    800062a8:	00000013          	nop

00000000800062ac <i_6078>:
    800062ac:	10b12c23          	sw	a1,280(sp)

00000000800062b0 <i_6079>:
    800062b0:	81f00b93          	li	s7,-2017

00000000800062b4 <i_6080>:
    800062b4:	82300493          	li	s1,-2013

00000000800062b8 <i_6081>:
    800062b8:	001b8b93          	addi	s7,s7,1 # 3769e001 <main-0x48961fff>
    800062bc:	ff74dee3          	ble	s7,s1,800062b8 <i_6081>

00000000800062c0 <i_6082>:
    800062c0:	00000013          	nop

00000000800062c4 <i_6083>:
    800062c4:	00000013          	nop

00000000800062c8 <i_6084>:
    800062c8:	75c00593          	li	a1,1884

00000000800062cc <i_6085>:
    800062cc:	76d00f13          	li	t5,1901

00000000800062d0 <i_6086>:
    800062d0:	05e13c23          	sd	t5,88(sp)

00000000800062d4 <i_6087>:
    800062d4:	00000013          	nop

00000000800062d8 <i_6088>:
    800062d8:	7e900613          	li	a2,2025

00000000800062dc <i_6089>:
    800062dc:	7ee00a13          	li	s4,2030

00000000800062e0 <i_6090>:
    800062e0:	f0013383          	ld	t2,-256(sp)

00000000800062e4 <i_6091>:
    800062e4:	00000013          	nop

00000000800062e8 <i_6092>:
    800062e8:	12c16383          	lwu	t2,300(sp)

00000000800062ec <i_6093>:
    800062ec:	00160613          	addi	a2,a2,1 # 2546c001 <main-0x5ab93fff>
    800062f0:	feca58e3          	ble	a2,s4,800062e0 <i_6090>

00000000800062f4 <i_6094>:
    800062f4:	0273c263          	blt	t2,t2,80006318 <i_6102>

00000000800062f8 <i_6095>:
    800062f8:	f87105a3          	sb	t2,-117(sp)

00000000800062fc <i_6096>:
    800062fc:	16712023          	sw	t2,352(sp)

0000000080006300 <i_6097>:
    80006300:	f7c10803          	lb	a6,-132(sp)

0000000080006304 <i_6098>:
    80006304:	05815b03          	lhu	s6,88(sp)

0000000080006308 <i_6099>:
    80006308:	00158593          	addi	a1,a1,1
    8000630c:	fde5c2e3          	blt	a1,t5,800062d0 <i_6086>

0000000080006310 <i_6100>:
    80006310:	07c14803          	lbu	a6,124(sp)

0000000080006314 <i_6101>:
    80006314:	ed614d83          	lbu	s11,-298(sp)

0000000080006318 <i_6102>:
    80006318:	f1a15383          	lhu	t2,-230(sp)

000000008000631c <i_6103>:
    8000631c:	15015e03          	lhu	t3,336(sp)

0000000080006320 <i_6104>:
    80006320:	ea415e83          	lhu	t4,-348(sp)

0000000080006324 <i_6105>:
    80006324:	11f109a3          	sb	t6,275(sp)

0000000080006328 <i_6106>:
    80006328:	1a416783          	lwu	a5,420(sp)

000000008000632c <i_6107>:
    8000632c:	03c85833          	divu	a6,a6,t3

0000000080006330 <i_6108>:
    80006330:	fcc11783          	lh	a5,-52(sp)

0000000080006334 <i_6109>:
    80006334:	f1214783          	lbu	a5,-238(sp)

0000000080006338 <i_6110>:
    80006338:	030ec263          	blt	t4,a6,8000635c <i_6119>

000000008000633c <i_6111>:
    8000633c:	f4010d03          	lb	s10,-192(sp)

0000000080006340 <i_6112>:
    80006340:	f4614803          	lbu	a6,-186(sp)

0000000080006344 <i_6113>:
    80006344:	0b816803          	lwu	a6,184(sp)

0000000080006348 <i_6114>:
    80006348:	6317d837          	lui	a6,0x6317d

000000008000634c <i_6115>:
    8000634c:	eb013c23          	sd	a6,-328(sp)

0000000080006350 <i_6116>:
    80006350:	00f98c63          	beq	s3,a5,80006368 <i_6122>

0000000080006354 <i_6117>:
    80006354:	0309083b          	mulw	a6,s2,a6

0000000080006358 <i_6118>:
    80006358:	03d80463          	beq	a6,t4,80006380 <i_6128>

000000008000635c <i_6119>:
    8000635c:	01086263          	bltu	a6,a6,80006360 <i_6120>

0000000080006360 <i_6120>:
    80006360:	01800a13          	li	s4,24

0000000080006364 <i_6121>:
    80006364:	014813b3          	sll	t2,a6,s4

0000000080006368 <i_6122>:
    80006368:	010a5e63          	ble	a6,s4,80006384 <i_6129>

000000008000636c <i_6123>:
    8000636c:	7f74081b          	addiw	a6,s0,2039

0000000080006370 <i_6124>:
    80006370:	0103cc63          	blt	t2,a6,80006388 <i_6130>

0000000080006374 <i_6125>:
    80006374:	4098053b          	subw	a0,a6,s1

0000000080006378 <i_6126>:
    80006378:	35b9ba17          	auipc	s4,0x35b9b

000000008000637c <i_6127>:
    8000637c:	0359eb3b          	remw	s6,s3,s5

0000000080006380 <i_6128>:
    80006380:	f2813e03          	ld	t3,-216(sp)

0000000080006384 <i_6129>:
    80006384:	0d0103a3          	sb	a6,199(sp)

0000000080006388 <i_6130>:
    80006388:	0163c833          	xor	a6,t2,s6

000000008000638c <i_6131>:
    8000638c:	f7d10803          	lb	a6,-131(sp)

0000000080006390 <i_6132>:
    80006390:	80200693          	li	a3,-2046

0000000080006394 <i_6133>:
    80006394:	80f00213          	li	tp,-2033

0000000080006398 <i_6134>:
    80006398:	01b13823          	sd	s11,16(sp)

000000008000639c <i_6135>:
    8000639c:	f3c11d83          	lh	s11,-196(sp)

00000000800063a0 <i_6136>:
    800063a0:	0364e633          	rem	a2,s1,s6

00000000800063a4 <i_6137>:
    800063a4:	00168693          	addi	a3,a3,1
    800063a8:	fe4698e3          	bne	a3,tp,80006398 <i_6134>

00000000800063ac <i_6138>:
    800063ac:	01cb1e63          	bne	s6,t3,800063c8 <i_6145>

00000000800063b0 <i_6139>:
    800063b0:	016e0863          	beq	t3,s6,800063c0 <i_6143>

00000000800063b4 <i_6140>:
    800063b4:	00700613          	li	a2,7

00000000800063b8 <i_6141>:
    800063b8:	00c892bb          	sllw	t0,a7,a2

00000000800063bc <i_6142>:
    800063bc:	0252c263          	blt	t0,t0,800063e0 <i_6151>

00000000800063c0 <i_6143>:
    800063c0:	1d012b03          	lw	s6,464(sp)

00000000800063c4 <i_6144>:
    800063c4:	f5612423          	sw	s6,-184(sp)

00000000800063c8 <i_6145>:
    800063c8:	005a0663          	beq	s4,t0,800063d4 <i_6148>

00000000800063cc <i_6146>:
    800063cc:	01465e63          	ble	s4,a2,800063e8 <i_6153>

00000000800063d0 <i_6147>:
    800063d0:	15b14a03          	lbu	s4,347(sp)

00000000800063d4 <i_6148>:
    800063d4:	11412023          	sw	s4,256(sp)

00000000800063d8 <i_6149>:
    800063d8:	1b213023          	sd	s2,416(sp)

00000000800063dc <i_6150>:
    800063dc:	07c12a03          	lw	s4,124(sp)

00000000800063e0 <i_6151>:
    800063e0:	014a7a33          	and	s4,s4,s4

00000000800063e4 <i_6152>:
    800063e4:	034a60b3          	rem	ra,s4,s4

00000000800063e8 <i_6153>:
    800063e8:	014a21b3          	slt	gp,s4,s4

00000000800063ec <i_6154>:
    800063ec:	0031d463          	ble	gp,gp,800063f4 <i_6156>

00000000800063f0 <i_6155>:
    800063f0:	404b5a1b          	sraiw	s4,s6,0x4

00000000800063f4 <i_6156>:
    800063f4:	001a6e63          	bltu	s4,ra,80006410 <i_6163>

00000000800063f8 <i_6157>:
    800063f8:	003b4233          	xor	tp,s6,gp

00000000800063fc <i_6158>:
    800063fc:	fb412c23          	sw	s4,-72(sp)

0000000080006400 <i_6159>:
    80006400:	01621863          	bne	tp,s6,80006410 <i_6163>

0000000080006404 <i_6160>:
    80006404:	01700813          	li	a6,23

0000000080006408 <i_6161>:
    80006408:	410253bb          	sraw	t2,tp,a6

000000008000640c <i_6162>:
    8000640c:	00000013          	nop

0000000080006410 <i_6163>:
    80006410:	00000013          	nop

0000000080006414 <i_6164>:
    80006414:	f5c11583          	lh	a1,-164(sp)

0000000080006418 <i_6165>:
    80006418:	73100f13          	li	t5,1841

000000008000641c <i_6166>:
    8000641c:	73600c13          	li	s8,1846

0000000080006420 <i_6167>:
    80006420:	001f0f13          	addi	t5,t5,1
    80006424:	ff8f4ee3          	blt	t5,s8,80006420 <i_6167>

0000000080006428 <i_6168>:
    80006428:	0301c83b          	divw	a6,gp,a6

000000008000642c <i_6169>:
    8000642c:	01400193          	li	gp,20

0000000080006430 <i_6170>:
    80006430:	4037d1bb          	sraw	gp,a5,gp

0000000080006434 <i_6171>:
    80006434:	83e00813          	li	a6,-1986

0000000080006438 <i_6172>:
    80006438:	84b00a13          	li	s4,-1973

000000008000643c <i_6173>:
    8000643c:	36b97193          	andi	gp,s2,875

0000000080006440 <i_6174>:
    80006440:	1c311623          	sh	gp,460(sp)

0000000080006444 <i_6175>:
    80006444:	0035119b          	slliw	gp,a0,0x3

0000000080006448 <i_6176>:
    80006448:	0231f1bb          	remuw	gp,gp,gp

000000008000644c <i_6177>:
    8000644c:	0261c33b          	divw	t1,gp,t1

0000000080006450 <i_6178>:
    80006450:	17412983          	lw	s3,372(sp)

0000000080006454 <i_6179>:
    80006454:	00180813          	addi	a6,a6,1 # 6317d001 <main-0x1ce82fff>
    80006458:	ff4842e3          	blt	a6,s4,8000643c <i_6173>

000000008000645c <i_6180>:
    8000645c:	01c2c863          	blt	t0,t3,8000646c <i_6184>

0000000080006460 <i_6181>:
    80006460:	00500193          	li	gp,5

0000000080006464 <i_6182>:
    80006464:	00399c3b          	sllw	s8,s3,gp

0000000080006468 <i_6183>:
    80006468:	03ce1e33          	mulh	t3,t3,t3

000000008000646c <i_6184>:
    8000646c:	404ddd93          	srai	s11,s11,0x4

0000000080006470 <i_6185>:
    80006470:	03cdcdb3          	div	s11,s11,t3

0000000080006474 <i_6186>:
    80006474:	01b00793          	li	a5,27

0000000080006478 <i_6187>:
    80006478:	40fddc33          	sra	s8,s11,a5

000000008000647c <i_6188>:
    8000647c:	03615c03          	lhu	s8,54(sp)

0000000080006480 <i_6189>:
    80006480:	03ce7463          	bleu	t3,t3,800064a8 <i_6199>

0000000080006484 <i_6190>:
    80006484:	41c78dbb          	subw	s11,a5,t3

0000000080006488 <i_6191>:
    80006488:	e2f13823          	sd	a5,-464(sp)

000000008000648c <i_6192>:
    8000648c:	1b411203          	lh	tp,436(sp)

0000000080006490 <i_6193>:
    80006490:	01bdee63          	bltu	s11,s11,800064ac <i_6200>

0000000080006494 <i_6194>:
    80006494:	15611683          	lh	a3,342(sp)

0000000080006498 <i_6195>:
    80006498:	ef013383          	ld	t2,-272(sp)

000000008000649c <i_6196>:
    8000649c:	03bc5233          	divu	tp,s8,s11

00000000800064a0 <i_6197>:
    800064a0:	f0415d83          	lhu	s11,-252(sp)

00000000800064a4 <i_6198>:
    800064a4:	00321d9b          	slliw	s11,tp,0x3

00000000800064a8 <i_6199>:
    800064a8:	01bddc63          	ble	s11,s11,800064c0 <i_6205>

00000000800064ac <i_6200>:
    800064ac:	08013a83          	ld	s5,128(sp)

00000000800064b0 <i_6201>:
    800064b0:	02214203          	lbu	tp,34(sp)

00000000800064b4 <i_6202>:
    800064b4:	fd813a83          	ld	s5,-40(sp)

00000000800064b8 <i_6203>:
    800064b8:	eaa11623          	sh	a0,-340(sp)

00000000800064bc <i_6204>:
    800064bc:	02012d83          	lw	s11,32(sp)

00000000800064c0 <i_6205>:
    800064c0:	14412623          	sw	tp,332(sp)

00000000800064c4 <i_6206>:
    800064c4:	8cedfc13          	andi	s8,s11,-1842

00000000800064c8 <i_6207>:
    800064c8:	00200513          	li	a0,2

00000000800064cc <i_6208>:
    800064cc:	00aada33          	srl	s4,s5,a0

00000000800064d0 <i_6209>:
    800064d0:	02416203          	lwu	tp,36(sp)

00000000800064d4 <i_6210>:
    800064d4:	01845263          	ble	s8,s0,800064d8 <i_6211>

00000000800064d8 <i_6211>:
    800064d8:	01bc7263          	bleu	s11,s8,800064dc <i_6212>

00000000800064dc <i_6212>:
    800064dc:	2a254793          	xori	a5,a0,674

00000000800064e0 <i_6213>:
    800064e0:	01478c33          	add	s8,a5,s4

00000000800064e4 <i_6214>:
    800064e4:	01ef0863          	beq	t5,t5,800064f4 <i_6218>

00000000800064e8 <i_6215>:
    800064e8:	358b4597          	auipc	a1,0x358b4

00000000800064ec <i_6216>:
    800064ec:	00bc5a63          	ble	a1,s8,80006500 <i_6221>

00000000800064f0 <i_6217>:
    800064f0:	03e59063          	bne	a1,t5,80006510 <i_6225>

00000000800064f4 <i_6218>:
    800064f4:	e2b14983          	lbu	s3,-469(sp)

00000000800064f8 <i_6219>:
    800064f8:	1de101a3          	sb	t5,451(sp)

00000000800064fc <i_6220>:
    800064fc:	4015d79b          	sraiw	a5,a1,0x1

0000000080006500 <i_6221>:
    80006500:	00bc7e63          	bleu	a1,s8,8000651c <i_6228>

0000000080006504 <i_6222>:
    80006504:	01e9f663          	bleu	t5,s3,80006510 <i_6225>

0000000080006508 <i_6223>:
    80006508:	12816a83          	lwu	s5,296(sp)

000000008000650c <i_6224>:
    8000650c:	1e012583          	lw	a1,480(sp)

0000000080006510 <i_6225>:
    80006510:	fb016f03          	lwu	t5,-80(sp)

0000000080006514 <i_6226>:
    80006514:	00000013          	nop

0000000080006518 <i_6227>:
    80006518:	f2013b83          	ld	s7,-224(sp)

000000008000651c <i_6228>:
    8000651c:	fa012303          	lw	t1,-96(sp)

0000000080006520 <i_6229>:
    80006520:	00000013          	nop

0000000080006524 <i_6230>:
    80006524:	7a100593          	li	a1,1953

0000000080006528 <i_6231>:
    80006528:	7b100f13          	li	t5,1969

000000008000652c <i_6232>:
    8000652c:	14816303          	lwu	t1,328(sp)

0000000080006530 <i_6233>:
    80006530:	010bee63          	bltu	s7,a6,8000654c <i_6240>

0000000080006534 <i_6234>:
    80006534:	e5614483          	lbu	s1,-426(sp)

0000000080006538 <i_6235>:
    80006538:	fd813803          	ld	a6,-40(sp)

000000008000653c <i_6236>:
    8000653c:	023d6663          	bltu	s10,gp,80006568 <i_6246>

0000000080006540 <i_6237>:
    80006540:	01a11f23          	sh	s10,30(sp)

0000000080006544 <i_6238>:
    80006544:	ec811d03          	lh	s10,-312(sp)

0000000080006548 <i_6239>:
    80006548:	00000013          	nop

000000008000654c <i_6240>:
    8000654c:	005802b3          	add	t0,a6,t0

0000000080006550 <i_6241>:
    80006550:	e9016283          	lwu	t0,-368(sp)

0000000080006554 <i_6242>:
    80006554:	00158593          	addi	a1,a1,1 # b58ba4e9 <_end+0x358aa0d5>
    80006558:	fde5cae3          	blt	a1,t5,8000652c <i_6232>

000000008000655c <i_6243>:
    8000655c:	5582a693          	slti	a3,t0,1368

0000000080006560 <i_6244>:
    80006560:	1b713023          	sd	s7,416(sp)

0000000080006564 <i_6245>:
    80006564:	025082b3          	mul	t0,ra,t0

0000000080006568 <i_6246>:
    80006568:	a232f693          	andi	a3,t0,-1501

000000008000656c <i_6247>:
    8000656c:	10c11683          	lh	a3,268(sp)

0000000080006570 <i_6248>:
    80006570:	02d2f063          	bleu	a3,t0,80006590 <i_6256>

0000000080006574 <i_6249>:
    80006574:	401286bb          	subw	a3,t0,ra

0000000080006578 <i_6250>:
    80006578:	00dd0663          	beq	s10,a3,80006584 <i_6253>

000000008000657c <i_6251>:
    8000657c:	e8013283          	ld	t0,-384(sp)

0000000080006580 <i_6252>:
    80006580:	06412503          	lw	a0,100(sp)

0000000080006584 <i_6253>:
    80006584:	ee314083          	lbu	ra,-285(sp)

0000000080006588 <i_6254>:
    80006588:	00000013          	nop

000000008000658c <i_6255>:
    8000658c:	0197fe33          	and	t3,a5,s9

0000000080006590 <i_6256>:
    80006590:	f7812e83          	lw	t4,-136(sp)

0000000080006594 <i_6257>:
    80006594:	1114de97          	auipc	t4,0x1114d

0000000080006598 <i_6258>:
    80006598:	80b00d93          	li	s11,-2037

000000008000659c <i_6259>:
    8000659c:	81700c93          	li	s9,-2025

00000000800065a0 <i_6260>:
    800065a0:	001d8d93          	addi	s11,s11,1 # b8283fa9 <_end+0x38273b95>
    800065a4:	ff9d9ee3          	bne	s11,s9,800065a0 <i_6260>

00000000800065a8 <i_6261>:
    800065a8:	6e2ae7b7          	lui	a5,0x6e2ae

00000000800065ac <i_6262>:
    800065ac:	07013383          	ld	t2,112(sp)

00000000800065b0 <i_6263>:
    800065b0:	03a7c7b3          	div	a5,a5,s10

00000000800065b4 <i_6264>:
    800065b4:	00000013          	nop

00000000800065b8 <i_6265>:
    800065b8:	7e900593          	li	a1,2025

00000000800065bc <i_6266>:
    800065bc:	7eb00d13          	li	s10,2027

00000000800065c0 <i_6267>:
    800065c0:	f4412d83          	lw	s11,-188(sp)

00000000800065c4 <i_6268>:
    800065c4:	1cc16a83          	lwu	s5,460(sp)

00000000800065c8 <i_6269>:
    800065c8:	f0e15783          	lhu	a5,-242(sp)

00000000800065cc <i_6270>:
    800065cc:	007dd263          	ble	t2,s11,800065d0 <i_6271>

00000000800065d0 <i_6271>:
    800065d0:	02b5f263          	bleu	a1,a1,800065f4 <i_6279>

00000000800065d4 <i_6272>:
    800065d4:	0273ef3b          	remw	t5,t2,t2

00000000800065d8 <i_6273>:
    800065d8:	0d412383          	lw	t2,212(sp)

00000000800065dc <i_6274>:
    800065dc:	03ef33b3          	mulhu	t2,t5,t5

00000000800065e0 <i_6275>:
    800065e0:	00158593          	addi	a1,a1,1
    800065e4:	fcbd5ee3          	ble	a1,s10,800065c0 <i_6267>

00000000800065e8 <i_6276>:
    800065e8:	fbc11c83          	lh	s9,-68(sp)

00000000800065ec <i_6277>:
    800065ec:	03e643bb          	divw	t2,a2,t5

00000000800065f0 <i_6278>:
    800065f0:	02ccd4b3          	divu	s1,s9,a2

00000000800065f4 <i_6279>:
    800065f4:	00000013          	nop

00000000800065f8 <i_6280>:
    800065f8:	00000013          	nop

00000000800065fc <i_6281>:
    800065fc:	88c00593          	li	a1,-1908

0000000080006600 <i_6282>:
    80006600:	89d00613          	li	a2,-1891

0000000080006604 <i_6283>:
    80006604:	04016e03          	lwu	t3,64(sp)

0000000080006608 <i_6284>:
    80006608:	18215e03          	lhu	t3,386(sp)

000000008000660c <i_6285>:
    8000660c:	00000013          	nop

0000000080006610 <i_6286>:
    80006610:	f2011e03          	lh	t3,-224(sp)

0000000080006614 <i_6287>:
    80006614:	06e14803          	lbu	a6,110(sp)

0000000080006618 <i_6288>:
    80006618:	030e5463          	ble	a6,t3,80006640 <i_6297>

000000008000661c <i_6289>:
    8000661c:	00158593          	addi	a1,a1,1
    80006620:	fec5e2e3          	bltu	a1,a2,80006604 <i_6283>

0000000080006624 <i_6290>:
    80006624:	03be79b3          	remu	s3,t3,s11

0000000080006628 <i_6291>:
    80006628:	02498063          	beq	s3,tp,80006648 <i_6299>

000000008000662c <i_6292>:
    8000662c:	0f314083          	lbu	ra,243(sp)

0000000080006630 <i_6293>:
    80006630:	03c86dbb          	remw	s11,a6,t3

0000000080006634 <i_6294>:
    80006634:	e7b11023          	sh	s11,-416(sp)

0000000080006638 <i_6295>:
    80006638:	01baeab3          	or	s5,s5,s11

000000008000663c <i_6296>:
    8000663c:	033e0263          	beq	t3,s3,80006660 <i_6305>

0000000080006640 <i_6297>:
    80006640:	0130ce63          	blt	ra,s3,8000665c <i_6304>

0000000080006644 <i_6298>:
    80006644:	01085263          	ble	a6,a6,80006648 <i_6299>

0000000080006648 <i_6299>:
    80006648:	08310b83          	lb	s7,131(sp)

000000008000664c <i_6300>:
    8000664c:	f6211403          	lh	s0,-158(sp)

0000000080006650 <i_6301>:
    80006650:	f7110ea3          	sb	a7,-131(sp)

0000000080006654 <i_6302>:
    80006654:	ef811a83          	lh	s5,-264(sp)

0000000080006658 <i_6303>:
    80006658:	e2d14403          	lbu	s0,-467(sp)

000000008000665c <i_6304>:
    8000665c:	026b80bb          	mulw	ra,s7,t1

0000000080006660 <i_6305>:
    80006660:	fe813823          	sd	s0,-16(sp)

0000000080006664 <i_6306>:
    80006664:	00000013          	nop

0000000080006668 <i_6307>:
    80006668:	00211403          	lh	s0,2(sp)

000000008000666c <i_6308>:
    8000666c:	80700d13          	li	s10,-2041

0000000080006670 <i_6309>:
    80006670:	81700a13          	li	s4,-2025

0000000080006674 <i_6310>:
    80006674:	0a611d23          	sh	t1,186(sp)

0000000080006678 <i_6311>:
    80006678:	41c707b3          	sub	a5,a4,t3

000000008000667c <i_6312>:
    8000667c:	84a00813          	li	a6,-1974

0000000080006680 <i_6313>:
    80006680:	85400313          	li	t1,-1964

0000000080006684 <i_6314>:
    80006684:	01900213          	li	tp,25

0000000080006688 <i_6315>:
    80006688:	004a543b          	srlw	s0,s4,tp

000000008000668c <i_6316>:
    8000668c:	00180813          	addi	a6,a6,1
    80006690:	ff035ae3          	ble	a6,t1,80006684 <i_6314>

0000000080006694 <i_6317>:
    80006694:	18613823          	sd	t1,400(sp)

0000000080006698 <i_6318>:
    80006698:	02681463          	bne	a6,t1,800066c0 <i_6327>

000000008000669c <i_6319>:
    8000669c:	f2310c03          	lb	s8,-221(sp)

00000000800066a0 <i_6320>:
    800066a0:	026c4063          	blt	s8,t1,800066c0 <i_6327>

00000000800066a4 <i_6321>:
    800066a4:	08810523          	sb	s0,138(sp)

00000000800066a8 <i_6322>:
    800066a8:	015aeab3          	or	s5,s5,s5

00000000800066ac <i_6323>:
    800066ac:	0ea10b03          	lb	s6,234(sp)

00000000800066b0 <i_6324>:
    800066b0:	001d0d13          	addi	s10,s10,1 # 1168b001 <main-0x6e974fff>
    800066b4:	fd4d40e3          	blt	s10,s4,80006674 <i_6310>

00000000800066b8 <i_6325>:
    800066b8:	01470c63          	beq	a4,s4,800066d0 <i_6331>

00000000800066bc <i_6326>:
    800066bc:	035c0ab3          	mul	s5,s8,s5

00000000800066c0 <i_6327>:
    800066c0:	f8310ba3          	sb	gp,-105(sp)

00000000800066c4 <i_6328>:
    800066c4:	c2e40993          	addi	s3,s0,-978 # ffffffff8ac68c2e <_end+0xffffffff0ac5881a>

00000000800066c8 <i_6329>:
    800066c8:	e8f101a3          	sb	a5,-381(sp)

00000000800066cc <i_6330>:
    800066cc:	01415403          	lhu	s0,20(sp)

00000000800066d0 <i_6331>:
    800066d0:	1da12223          	sw	s10,452(sp)

00000000800066d4 <i_6332>:
    800066d4:	19612023          	sw	s6,384(sp)

00000000800066d8 <i_6333>:
    800066d8:	031b6263          	bltu	s6,a7,800066fc <i_6342>

00000000800066dc <i_6334>:
    800066dc:	00015b83          	lhu	s7,0(sp)

00000000800066e0 <i_6335>:
    800066e0:	e6511023          	sh	t0,-416(sp)

00000000800066e4 <i_6336>:
    800066e4:	0369e2bb          	remw	t0,s3,s6

00000000800066e8 <i_6337>:
    800066e8:	4022db1b          	sraiw	s6,t0,0x2

00000000800066ec <i_6338>:
    800066ec:	15c16b83          	lwu	s7,348(sp)

00000000800066f0 <i_6339>:
    800066f0:	0339e2b3          	rem	t0,s3,s3

00000000800066f4 <i_6340>:
    800066f4:	00000013          	nop

00000000800066f8 <i_6341>:
    800066f8:	00300e93          	li	t4,3

00000000800066fc <i_6342>:
    800066fc:	01db95b3          	sll	a1,s7,t4

0000000080006700 <i_6343>:
    80006700:	00000013          	nop

0000000080006704 <i_6344>:
    80006704:	82700993          	li	s3,-2009

0000000080006708 <i_6345>:
    80006708:	82a00b13          	li	s6,-2006

000000008000670c <i_6346>:
    8000670c:	4049d613          	srai	a2,s3,0x4

0000000080006710 <i_6347>:
    80006710:	01c00393          	li	t2,28

0000000080006714 <i_6348>:
    80006714:	007b92bb          	sllw	t0,s7,t2

0000000080006718 <i_6349>:
    80006718:	00198993          	addi	s3,s3,1 # 408860b9 <main-0x3f779f47>
    8000671c:	ff3b58e3          	ble	s3,s6,8000670c <i_6346>

0000000080006720 <i_6350>:
    80006720:	f7312c23          	sw	s3,-136(sp)

0000000080006724 <i_6351>:
    80006724:	3cd98193          	addi	gp,s3,973

0000000080006728 <i_6352>:
    80006728:	02718a3b          	mulw	s4,gp,t2

000000008000672c <i_6353>:
    8000672c:	0233c533          	div	a0,t2,gp

0000000080006730 <i_6354>:
    80006730:	12314803          	lbu	a6,291(sp)

0000000080006734 <i_6355>:
    80006734:	00a36a63          	bltu	t1,a0,80006748 <i_6360>

0000000080006738 <i_6356>:
    80006738:	f4416783          	lwu	a5,-188(sp)

000000008000673c <i_6357>:
    8000673c:	0de11303          	lh	t1,222(sp)

0000000080006740 <i_6358>:
    80006740:	14816c03          	lwu	s8,328(sp)

0000000080006744 <i_6359>:
    80006744:	f7712e23          	sw	s7,-132(sp)

0000000080006748 <i_6360>:
    80006748:	12811303          	lh	t1,296(sp)

000000008000674c <i_6361>:
    8000674c:	00000013          	nop

0000000080006750 <i_6362>:
    80006750:	00000013          	nop

0000000080006754 <i_6363>:
    80006754:	85600c13          	li	s8,-1962

0000000080006758 <i_6364>:
    80006758:	86700293          	li	t0,-1945

000000008000675c <i_6365>:
    8000675c:	025300bb          	mulw	ra,t1,t0

0000000080006760 <i_6366>:
    80006760:	14314483          	lbu	s1,323(sp)

0000000080006764 <i_6367>:
    80006764:	00928d33          	add	s10,t0,s1

0000000080006768 <i_6368>:
    80006768:	f2a12823          	sw	a0,-208(sp)

000000008000676c <i_6369>:
    8000676c:	0064e263          	bltu	s1,t1,80006770 <i_6370>

0000000080006770 <i_6370>:
    80006770:	01879863          	bne	a5,s8,80006780 <i_6374>

0000000080006774 <i_6371>:
    80006774:	05411483          	lh	s1,84(sp)

0000000080006778 <i_6372>:
    80006778:	07010b03          	lb	s6,112(sp)

000000008000677c <i_6373>:
    8000677c:	11110683          	lb	a3,273(sp)

0000000080006780 <i_6374>:
    80006780:	0e611b83          	lh	s7,230(sp)

0000000080006784 <i_6375>:
    80006784:	00b00493          	li	s1,11

0000000080006788 <i_6376>:
    80006788:	009694bb          	sllw	s1,a3,s1

000000008000678c <i_6377>:
    8000678c:	001c0c13          	addi	s8,s8,1
    80006790:	fc5c16e3          	bne	s8,t0,8000675c <i_6365>

0000000080006794 <i_6378>:
    80006794:	01800493          	li	s1,24

0000000080006798 <i_6379>:
    80006798:	009b94b3          	sll	s1,s7,s1

000000008000679c <i_6380>:
    8000679c:	03800613          	li	a2,56

00000000800067a0 <i_6381>:
    800067a0:	40c7d7b3          	sra	a5,a5,a2

00000000800067a4 <i_6382>:
    800067a4:	029af263          	bleu	s1,s5,800067c8 <i_6391>

00000000800067a8 <i_6383>:
    800067a8:	f0111923          	sh	ra,-238(sp)

00000000800067ac <i_6384>:
    800067ac:	029c8063          	beq	s9,s1,800067cc <i_6392>

00000000800067b0 <i_6385>:
    800067b0:	04c100a3          	sb	a2,65(sp)

00000000800067b4 <i_6386>:
    800067b4:	e4f13823          	sd	a5,-432(sp)

00000000800067b8 <i_6387>:
    800067b8:	f6416783          	lwu	a5,-156(sp)

00000000800067bc <i_6388>:
    800067bc:	05013983          	ld	s3,80(sp)

00000000800067c0 <i_6389>:
    800067c0:	03e9ef3b          	remw	t5,s3,t5

00000000800067c4 <i_6390>:
    800067c4:	e8813083          	ld	ra,-376(sp)

00000000800067c8 <i_6391>:
    800067c8:	001f0263          	beq	t5,ra,800067cc <i_6392>

00000000800067cc <i_6392>:
    800067cc:	efc11803          	lh	a6,-260(sp)

00000000800067d0 <i_6393>:
    800067d0:	00c8ff33          	and	t5,a7,a2

00000000800067d4 <i_6394>:
    800067d4:	eef12a23          	sw	a5,-268(sp)

00000000800067d8 <i_6395>:
    800067d8:	7b100293          	li	t0,1969

00000000800067dc <i_6396>:
    800067dc:	7b800093          	li	ra,1976

00000000800067e0 <i_6397>:
    800067e0:	0a010803          	lb	a6,160(sp)

00000000800067e4 <i_6398>:
    800067e4:	fd812e83          	lw	t4,-40(sp)

00000000800067e8 <i_6399>:
    800067e8:	02ff0063          	beq	t5,a5,80006808 <i_6407>

00000000800067ec <i_6400>:
    800067ec:	0e813783          	ld	a5,232(sp)

00000000800067f0 <i_6401>:
    800067f0:	e4813803          	ld	a6,-440(sp)

00000000800067f4 <i_6402>:
    800067f4:	02f82333          	mulhsu	t1,a6,a5

00000000800067f8 <i_6403>:
    800067f8:	ef110fa3          	sb	a7,-257(sp)

00000000800067fc <i_6404>:
    800067fc:	0250feb3          	remu	t4,ra,t0

0000000080006800 <i_6405>:
    80006800:	ecb10783          	lb	a5,-309(sp)

0000000080006804 <i_6406>:
    80006804:	16c11f03          	lh	t5,364(sp)

0000000080006808 <i_6407>:
    80006808:	00c9e663          	bltu	s3,a2,80006814 <i_6410>

000000008000680c <i_6408>:
    8000680c:	11311023          	sh	s3,256(sp)

0000000080006810 <i_6409>:
    80006810:	406309b3          	sub	s3,t1,t1

0000000080006814 <i_6410>:
    80006814:	00000013          	nop

0000000080006818 <i_6411>:
    80006818:	e3412383          	lw	t2,-460(sp)

000000008000681c <i_6412>:
    8000681c:	10e15983          	lhu	s3,270(sp)

0000000080006820 <i_6413>:
    80006820:	00128293          	addi	t0,t0,1
    80006824:	fa50fee3          	bleu	t0,ra,800067e0 <i_6397>

0000000080006828 <i_6414>:
    80006828:	02629433          	mulh	s0,t0,t1

000000008000682c <i_6415>:
    8000682c:	00847c63          	bleu	s0,s0,80006844 <i_6421>

0000000080006830 <i_6416>:
    80006830:	00767263          	bleu	t2,a2,80006834 <i_6417>

0000000080006834 <i_6417>:
    80006834:	13c10503          	lb	a0,316(sp)

0000000080006838 <i_6418>:
    80006838:	00c00b93          	li	s7,12

000000008000683c <i_6419>:
    8000683c:	01755e33          	srl	t3,a0,s7

0000000080006840 <i_6420>:
    80006840:	01000c93          	li	s9,16

0000000080006844 <i_6421>:
    80006844:	019b97bb          	sllw	a5,s7,s9

0000000080006848 <i_6422>:
    80006848:	1bc10983          	lb	s3,444(sp)

000000008000684c <i_6423>:
    8000684c:	013bde63          	ble	s3,s7,80006868 <i_6430>

0000000080006850 <i_6424>:
    80006850:	ee613023          	sd	t1,-288(sp)

0000000080006854 <i_6425>:
    80006854:	4049d793          	srai	a5,s3,0x4

0000000080006858 <i_6426>:
    80006858:	008e4663          	blt	t3,s0,80006864 <i_6429>

000000008000685c <i_6427>:
    8000685c:	f6815503          	lhu	a0,-152(sp)

0000000080006860 <i_6428>:
    80006860:	01711d23          	sh	s7,26(sp)

0000000080006864 <i_6429>:
    80006864:	fc811303          	lh	t1,-56(sp)

0000000080006868 <i_6430>:
    80006868:	fc215803          	lhu	a6,-62(sp)

000000008000686c <i_6431>:
    8000686c:	0399e463          	bltu	s3,s9,80006894 <i_6441>

0000000080006870 <i_6432>:
    80006870:	1b010503          	lb	a0,432(sp)

0000000080006874 <i_6433>:
    80006874:	e3813a03          	ld	s4,-456(sp)

0000000080006878 <i_6434>:
    80006878:	02c12223          	sw	a2,36(sp)

000000008000687c <i_6435>:
    8000687c:	fbc15583          	lhu	a1,-68(sp)

0000000080006880 <i_6436>:
    80006880:	17c15c83          	lhu	s9,380(sp)

0000000080006884 <i_6437>:
    80006884:	00000013          	nop

0000000080006888 <i_6438>:
    80006888:	07e11523          	sh	t5,106(sp)

000000008000688c <i_6439>:
    8000688c:	0d013b03          	ld	s6,208(sp)

0000000080006890 <i_6440>:
    80006890:	00000013          	nop

0000000080006894 <i_6441>:
    80006894:	088dea13          	ori	s4,s11,136

0000000080006898 <i_6442>:
    80006898:	00000013          	nop

000000008000689c <i_6443>:
    8000689c:	79200d93          	li	s11,1938

00000000800068a0 <i_6444>:
    800068a0:	7a600f13          	li	t5,1958

00000000800068a4 <i_6445>:
    800068a4:	03ec8cb3          	mul	s9,s9,t5

00000000800068a8 <i_6446>:
    800068a8:	01b4f4b3          	and	s1,s1,s11

00000000800068ac <i_6447>:
    800068ac:	01e4c263          	blt	s1,t5,800068b0 <i_6448>

00000000800068b0 <i_6448>:
    800068b0:	0145a5b3          	slt	a1,a1,s4

00000000800068b4 <i_6449>:
    800068b4:	e3114583          	lbu	a1,-463(sp)

00000000800068b8 <i_6450>:
    800068b8:	001d8d93          	addi	s11,s11,1
    800068bc:	ffede4e3          	bltu	s11,t5,800068a4 <i_6445>

00000000800068c0 <i_6451>:
    800068c0:	e8e10d83          	lb	s11,-370(sp)

00000000800068c4 <i_6452>:
    800068c4:	feb10f23          	sb	a1,-2(sp)

00000000800068c8 <i_6453>:
    800068c8:	029e5263          	ble	s1,t3,800068ec <i_6462>

00000000800068cc <i_6454>:
    800068cc:	fca10423          	sb	a0,-56(sp)

00000000800068d0 <i_6455>:
    800068d0:	039cbeb3          	mulhu	t4,s9,s9

00000000800068d4 <i_6456>:
    800068d4:	06b11e23          	sh	a1,124(sp)

00000000800068d8 <i_6457>:
    800068d8:	009f6a63          	bltu	t5,s1,800068ec <i_6462>

00000000800068dc <i_6458>:
    800068dc:	03e581bb          	mulw	gp,a1,t5

00000000800068e0 <i_6459>:
    800068e0:	11f12e23          	sw	t6,284(sp)

00000000800068e4 <i_6460>:
    800068e4:	40e485b3          	sub	a1,s1,a4

00000000800068e8 <i_6461>:
    800068e8:	02800613          	li	a2,40

00000000800068ec <i_6462>:
    800068ec:	40cf55b3          	sra	a1,t5,a2

00000000800068f0 <i_6463>:
    800068f0:	e7310b03          	lb	s6,-397(sp)

00000000800068f4 <i_6464>:
    800068f4:	0164ca63          	blt	s1,s6,80006908 <i_6469>

00000000800068f8 <i_6465>:
    800068f8:	00159793          	slli	a5,a1,0x1

00000000800068fc <i_6466>:
    800068fc:	f1c11583          	lh	a1,-228(sp)

0000000080006900 <i_6467>:
    80006900:	03e7ff33          	remu	t5,a5,t5

0000000080006904 <i_6468>:
    80006904:	f0011b03          	lh	s6,-256(sp)

0000000080006908 <i_6469>:
    80006908:	03e7d463          	ble	t5,a5,80006930 <i_6479>

000000008000690c <i_6470>:
    8000690c:	00bf5c63          	ble	a1,t5,80006924 <i_6476>

0000000080006910 <i_6471>:
    80006910:	01eb5263          	ble	t5,s6,80006914 <i_6472>

0000000080006914 <i_6472>:
    80006914:	036754bb          	divuw	s1,a4,s6

0000000080006918 <i_6473>:
    80006918:	1b013b03          	ld	s6,432(sp)

000000008000691c <i_6474>:
    8000691c:	ec714b03          	lbu	s6,-313(sp)

0000000080006920 <i_6475>:
    80006920:	12013603          	ld	a2,288(sp)

0000000080006924 <i_6476>:
    80006924:	eb610a23          	sb	s6,-332(sp)

0000000080006928 <i_6477>:
    80006928:	02800493          	li	s1,40

000000008000692c <i_6478>:
    8000692c:	00949d33          	sll	s10,s1,s1

0000000080006930 <i_6479>:
    80006930:	02cefbb3          	remu	s7,t4,a2

0000000080006934 <i_6480>:
    80006934:	01648263          	beq	s1,s6,80006938 <i_6481>

0000000080006938 <i_6481>:
    80006938:	f8812383          	lw	t2,-120(sp)

000000008000693c <i_6482>:
    8000693c:	ff713023          	sd	s7,-32(sp)

0000000080006940 <i_6483>:
    80006940:	037bddbb          	divuw	s11,s7,s7

0000000080006944 <i_6484>:
    80006944:	01b39a63          	bne	t2,s11,80006958 <i_6489>

0000000080006948 <i_6485>:
    80006948:	ebb11223          	sh	s11,-348(sp)

000000008000694c <i_6486>:
    8000694c:	95487d93          	andi	s11,a6,-1708

0000000080006950 <i_6487>:
    80006950:	07714803          	lbu	a6,119(sp)

0000000080006954 <i_6488>:
    80006954:	03081833          	mulh	a6,a6,a6

0000000080006958 <i_6489>:
    80006958:	07a11203          	lh	tp,122(sp)

000000008000695c <i_6490>:
    8000695c:	e6013803          	ld	a6,-416(sp)

0000000080006960 <i_6491>:
    80006960:	410d0d3b          	subw	s10,s10,a6

0000000080006964 <i_6492>:
    80006964:	17813e03          	ld	t3,376(sp)

0000000080006968 <i_6493>:
    80006968:	01a86663          	bltu	a6,s10,80006974 <i_6496>

000000008000696c <i_6494>:
    8000696c:	1cd10523          	sb	a3,458(sp)

0000000080006970 <i_6495>:
    80006970:	d65bec13          	ori	s8,s7,-667

0000000080006974 <i_6496>:
    80006974:	0f314c83          	lbu	s9,243(sp)

0000000080006978 <i_6497>:
    80006978:	ea514d03          	lbu	s10,-347(sp)

000000008000697c <i_6498>:
    8000697c:	7c1ebe93          	sltiu	t4,t4,1985

0000000080006980 <i_6499>:
    80006980:	01900213          	li	tp,25

0000000080006984 <i_6500>:
    80006984:	004d1cbb          	sllw	s9,s10,tp

0000000080006988 <i_6501>:
    80006988:	75f00413          	li	s0,1887

000000008000698c <i_6502>:
    8000698c:	76600d93          	li	s11,1894

0000000080006990 <i_6503>:
    80006990:	03ad4063          	blt	s10,s10,800069b0 <i_6511>

0000000080006994 <i_6504>:
    80006994:	0085c263          	blt	a1,s0,80006998 <i_6505>

0000000080006998 <i_6505>:
    80006998:	025ab2b3          	mulhu	t0,s5,t0

000000008000699c <i_6506>:
    8000699c:	03dd8a3b          	mulw	s4,s11,t4

00000000800069a0 <i_6507>:
    800069a0:	00000013          	nop

00000000800069a4 <i_6508>:
    800069a4:	402a521b          	sraiw	tp,s4,0x2

00000000800069a8 <i_6509>:
    800069a8:	01a24463          	blt	tp,s10,800069b0 <i_6511>

00000000800069ac <i_6510>:
    800069ac:	f7813783          	ld	a5,-136(sp)

00000000800069b0 <i_6511>:
    800069b0:	e2816d03          	lwu	s10,-472(sp)

00000000800069b4 <i_6512>:
    800069b4:	3e3b3213          	sltiu	tp,s6,995

00000000800069b8 <i_6513>:
    800069b8:	032ebd33          	mulhu	s10,t4,s2

00000000800069bc <i_6514>:
    800069bc:	00140413          	addi	s0,s0,1
    800069c0:	fc8dd8e3          	ble	s0,s11,80006990 <i_6503>

00000000800069c4 <i_6515>:
    800069c4:	16914303          	lbu	t1,361(sp)

00000000800069c8 <i_6516>:
    800069c8:	eab109a3          	sb	a1,-333(sp)

00000000800069cc <i_6517>:
    800069cc:	f9416783          	lwu	a5,-108(sp)

00000000800069d0 <i_6518>:
    800069d0:	10611923          	sh	t1,274(sp)

00000000800069d4 <i_6519>:
    800069d4:	f5a13823          	sd	s10,-176(sp)

00000000800069d8 <i_6520>:
    800069d8:	003321b3          	slt	gp,t1,gp

00000000800069dc <i_6521>:
    800069dc:	1cf13c23          	sd	a5,472(sp)

00000000800069e0 <i_6522>:
    800069e0:	401bdb13          	srai	s6,s7,0x1

00000000800069e4 <i_6523>:
    800069e4:	03ad0d3b          	mulw	s10,s10,s10

00000000800069e8 <i_6524>:
    800069e8:	016d6c63          	bltu	s10,s6,80006a00 <i_6530>

00000000800069ec <i_6525>:
    800069ec:	3a718d1b          	addiw	s10,gp,935

00000000800069f0 <i_6526>:
    800069f0:	1a313c23          	sd	gp,440(sp)

00000000800069f4 <i_6527>:
    800069f4:	00418a63          	beq	gp,tp,80006a08 <i_6532>

00000000800069f8 <i_6528>:
    800069f8:	f8610183          	lb	gp,-122(sp)

00000000800069fc <i_6529>:
    800069fc:	01813203          	ld	tp,24(sp)

0000000080006a00 <i_6530>:
    80006a00:	415d0ab3          	sub	s5,s10,s5

0000000080006a04 <i_6531>:
    80006a04:	1d013203          	ld	tp,464(sp)

0000000080006a08 <i_6532>:
    80006a08:	01aa8e63          	beq	s5,s10,80006a24 <i_6539>

0000000080006a0c <i_6533>:
    80006a0c:	004dc863          	blt	s11,tp,80006a1c <i_6537>

0000000080006a10 <i_6534>:
    80006a10:	03a36063          	bltu	t1,s10,80006a30 <i_6542>

0000000080006a14 <i_6535>:
    80006a14:	01ad0663          	beq	s10,s10,80006a20 <i_6538>

0000000080006a18 <i_6536>:
    80006a18:	0ba12a23          	sw	s10,180(sp)

0000000080006a1c <i_6537>:
    80006a1c:	11415203          	lhu	tp,276(sp)

0000000080006a20 <i_6538>:
    80006a20:	00000013          	nop

0000000080006a24 <i_6539>:
    80006a24:	00000013          	nop

0000000080006a28 <i_6540>:
    80006a28:	40125a9b          	sraiw	s5,tp,0x1

0000000080006a2c <i_6541>:
    80006a2c:	00611a83          	lh	s5,6(sp)

0000000080006a30 <i_6542>:
    80006a30:	16813083          	ld	ra,360(sp)

0000000080006a34 <i_6543>:
    80006a34:	00000013          	nop

0000000080006a38 <i_6544>:
    80006a38:	8c500693          	li	a3,-1851

0000000080006a3c <i_6545>:
    80006a3c:	8d000313          	li	t1,-1840

0000000080006a40 <i_6546>:
    80006a40:	f9412a83          	lw	s5,-108(sp)

0000000080006a44 <i_6547>:
    80006a44:	11013f03          	ld	t5,272(sp)

0000000080006a48 <i_6548>:
    80006a48:	04813383          	ld	t2,72(sp)

0000000080006a4c <i_6549>:
    80006a4c:	00168693          	addi	a3,a3,1
    80006a50:	fe66c8e3          	blt	a3,t1,80006a40 <i_6546>

0000000080006a54 <i_6550>:
    80006a54:	09e11e23          	sh	t5,156(sp)

0000000080006a58 <i_6551>:
    80006a58:	008f1863          	bne	t5,s0,80006a68 <i_6555>

0000000080006a5c <i_6552>:
    80006a5c:	01e39863          	bne	t2,t5,80006a6c <i_6556>

0000000080006a60 <i_6553>:
    80006a60:	03e12e23          	sw	t5,60(sp)

0000000080006a64 <i_6554>:
    80006a64:	001f7c63          	bleu	ra,t5,80006a7c <i_6560>

0000000080006a68 <i_6555>:
    80006a68:	00600093          	li	ra,6

0000000080006a6c <i_6556>:
    80006a6c:	001090bb          	sllw	ra,ra,ra

0000000080006a70 <i_6557>:
    80006a70:	01d00993          	li	s3,29

0000000080006a74 <i_6558>:
    80006a74:	4130d0bb          	sraw	ra,ra,s3

0000000080006a78 <i_6559>:
    80006a78:	f0013f03          	ld	t5,-256(sp)

0000000080006a7c <i_6560>:
    80006a7c:	003f5693          	srli	a3,t5,0x3

0000000080006a80 <i_6561>:
    80006a80:	03e1d0b3          	divu	ra,gp,t5

0000000080006a84 <i_6562>:
    80006a84:	03e89063          	bne	a7,t5,80006aa4 <i_6570>

0000000080006a88 <i_6563>:
    80006a88:	06012183          	lw	gp,96(sp)

0000000080006a8c <i_6564>:
    80006a8c:	02d69463          	bne	a3,a3,80006ab4 <i_6574>

0000000080006a90 <i_6565>:
    80006a90:	1ba11f03          	lh	t5,442(sp)

0000000080006a94 <i_6566>:
    80006a94:	0230c063          	blt	ra,gp,80006ab4 <i_6574>

0000000080006a98 <i_6567>:
    80006a98:	0211c9bb          	divw	s3,gp,ra

0000000080006a9c <i_6568>:
    80006a9c:	e6111723          	sh	ra,-402(sp)

0000000080006aa0 <i_6569>:
    80006aa0:	001f5193          	srli	gp,t5,0x1

0000000080006aa4 <i_6570>:
    80006aa4:	0339f1b3          	remu	gp,s3,s3

0000000080006aa8 <i_6571>:
    80006aa8:	033197b3          	mulh	a5,gp,s3

0000000080006aac <i_6572>:
    80006aac:	00378463          	beq	a5,gp,80006ab4 <i_6574>

0000000080006ab0 <i_6573>:
    80006ab0:	fa311823          	sh	gp,-80(sp)

0000000080006ab4 <i_6574>:
    80006ab4:	0cc11983          	lh	s3,204(sp)

0000000080006ab8 <i_6575>:
    80006ab8:	00000013          	nop

0000000080006abc <i_6576>:
    80006abc:	f4f11623          	sh	a5,-180(sp)

0000000080006ac0 <i_6577>:
    80006ac0:	76f00b93          	li	s7,1903

0000000080006ac4 <i_6578>:
    80006ac4:	78000f13          	li	t5,1920

0000000080006ac8 <i_6579>:
    80006ac8:	00000013          	nop

0000000080006acc <i_6580>:
    80006acc:	413484bb          	subw	s1,s1,s3

0000000080006ad0 <i_6581>:
    80006ad0:	e5816203          	lwu	tp,-424(sp)

0000000080006ad4 <i_6582>:
    80006ad4:	ea714d83          	lbu	s11,-345(sp)

0000000080006ad8 <i_6583>:
    80006ad8:	003dd49b          	srliw	s1,s11,0x3

0000000080006adc <i_6584>:
    80006adc:	00923233          	sltu	tp,tp,s1

0000000080006ae0 <i_6585>:
    80006ae0:	001b8b93          	addi	s7,s7,1
    80006ae4:	ffebe2e3          	bltu	s7,t5,80006ac8 <i_6579>

0000000080006ae8 <i_6586>:
    80006ae8:	651dad93          	slti	s11,s11,1617

0000000080006aec <i_6587>:
    80006aec:	e6813203          	ld	tp,-408(sp)

0000000080006af0 <i_6588>:
    80006af0:	0c013d83          	ld	s11,192(sp)

0000000080006af4 <i_6589>:
    80006af4:	1a913c23          	sd	s1,440(sp)

0000000080006af8 <i_6590>:
    80006af8:	1c410183          	lb	gp,452(sp)

0000000080006afc <i_6591>:
    80006afc:	1d712023          	sw	s7,448(sp)

0000000080006b00 <i_6592>:
    80006b00:	0041d493          	srli	s1,gp,0x4

0000000080006b04 <i_6593>:
    80006b04:	10913423          	sd	s1,264(sp)

0000000080006b08 <i_6594>:
    80006b08:	00249a9b          	slliw	s5,s1,0x2

0000000080006b0c <i_6595>:
    80006b0c:	00900a93          	li	s5,9

0000000080006b10 <i_6596>:
    80006b10:	415fdc3b          	sraw	s8,t6,s5

0000000080006b14 <i_6597>:
    80006b14:	014d8c33          	add	s8,s11,s4

0000000080006b18 <i_6598>:
    80006b18:	0c913023          	sd	s1,192(sp)

0000000080006b1c <i_6599>:
    80006b1c:	02d00a13          	li	s4,45

0000000080006b20 <i_6600>:
    80006b20:	014c14b3          	sll	s1,s8,s4

0000000080006b24 <i_6601>:
    80006b24:	1e614c03          	lbu	s8,486(sp)

0000000080006b28 <i_6602>:
    80006b28:	ed813823          	sd	s8,-304(sp)

0000000080006b2c <i_6603>:
    80006b2c:	12ea3993          	sltiu	s3,s4,302

0000000080006b30 <i_6604>:
    80006b30:	6cf9839b          	addiw	t2,s3,1743

0000000080006b34 <i_6605>:
    80006b34:	6fa3bc13          	sltiu	s8,t2,1786

0000000080006b38 <i_6606>:
    80006b38:	eb313023          	sd	s3,-352(sp)

0000000080006b3c <i_6607>:
    80006b3c:	ea011d03          	lh	s10,-352(sp)

0000000080006b40 <i_6608>:
    80006b40:	00000013          	nop

0000000080006b44 <i_6609>:
    80006b44:	73500393          	li	t2,1845

0000000080006b48 <i_6610>:
    80006b48:	73b00993          	li	s3,1851

0000000080006b4c <i_6611>:
    80006b4c:	4033d81b          	sraiw	a6,t2,0x3

0000000080006b50 <i_6612>:
    80006b50:	00138393          	addi	t2,t2,1
    80006b54:	ff339ce3          	bne	t2,s3,80006b4c <i_6611>

0000000080006b58 <i_6613>:
    80006b58:	010d5e63          	ble	a6,s10,80006b74 <i_6620>

0000000080006b5c <i_6614>:
    80006b5c:	15012e23          	sw	a6,348(sp)

0000000080006b60 <i_6615>:
    80006b60:	ff313c23          	sd	s3,-8(sp)

0000000080006b64 <i_6616>:
    80006b64:	01039e63          	bne	t2,a6,80006b80 <i_6623>

0000000080006b68 <i_6617>:
    80006b68:	10c12c23          	sw	a2,280(sp)

0000000080006b6c <i_6618>:
    80006b6c:	018d7e63          	bleu	s8,s10,80006b88 <i_6625>

0000000080006b70 <i_6619>:
    80006b70:	867d62b7          	lui	t0,0x867d6

0000000080006b74 <i_6620>:
    80006b74:	17813c03          	ld	s8,376(sp)

0000000080006b78 <i_6621>:
    80006b78:	03dc7d3b          	remuw	s10,s8,t4

0000000080006b7c <i_6622>:
    80006b7c:	15a13023          	sd	s10,320(sp)

0000000080006b80 <i_6623>:
    80006b80:	f2e11203          	lh	tp,-210(sp)

0000000080006b84 <i_6624>:
    80006b84:	038c0c3b          	mulw	s8,s8,s8

0000000080006b88 <i_6625>:
    80006b88:	f7e15a83          	lhu	s5,-130(sp)

0000000080006b8c <i_6626>:
    80006b8c:	0c411203          	lh	tp,196(sp)

0000000080006b90 <i_6627>:
    80006b90:	003d7e63          	bleu	gp,s10,80006bac <i_6634>

0000000080006b94 <i_6628>:
    80006b94:	14816d03          	lwu	s10,328(sp)

0000000080006b98 <i_6629>:
    80006b98:	1b013083          	ld	ra,432(sp)

0000000080006b9c <i_6630>:
    80006b9c:	004af463          	bleu	tp,s5,80006ba4 <i_6632>

0000000080006ba0 <i_6631>:
    80006ba0:	dd0a8a9b          	addiw	s5,s5,-560

0000000080006ba4 <i_6632>:
    80006ba4:	f4415a83          	lhu	s5,-188(sp)

0000000080006ba8 <i_6633>:
    80006ba8:	8efe0e13          	addi	t3,t3,-1809

0000000080006bac <i_6634>:
    80006bac:	02426333          	rem	t1,tp,tp

0000000080006bb0 <i_6635>:
    80006bb0:	00171093          	slli	ra,a4,0x1

0000000080006bb4 <i_6636>:
    80006bb4:	11a13c23          	sd	s10,280(sp)

0000000080006bb8 <i_6637>:
    80006bb8:	f8c12e03          	lw	t3,-116(sp)

0000000080006bbc <i_6638>:
    80006bbc:	41c88ab3          	sub	s5,a7,t3

0000000080006bc0 <i_6639>:
    80006bc0:	b893019b          	addiw	gp,t1,-1143

0000000080006bc4 <i_6640>:
    80006bc4:	0e412183          	lw	gp,228(sp)

0000000080006bc8 <i_6641>:
    80006bc8:	d2a36b93          	ori	s7,t1,-726

0000000080006bcc <i_6642>:
    80006bcc:	01ad5c63          	ble	s10,s10,80006be4 <i_6648>

0000000080006bd0 <i_6643>:
    80006bd0:	07c12983          	lw	s3,124(sp)

0000000080006bd4 <i_6644>:
    80006bd4:	01cace63          	blt	s5,t3,80006bf0 <i_6651>

0000000080006bd8 <i_6645>:
    80006bd8:	401bd093          	srai	ra,s7,0x1

0000000080006bdc <i_6646>:
    80006bdc:	00420e63          	beq	tp,tp,80006bf8 <i_6653>

0000000080006be0 <i_6647>:
    80006be0:	0210823b          	mulw	tp,ra,ra

0000000080006be4 <i_6648>:
    80006be4:	f0411c23          	sh	tp,-232(sp)

0000000080006be8 <i_6649>:
    80006be8:	ead11123          	sh	a3,-350(sp)

0000000080006bec <i_6650>:
    80006bec:	00209313          	slli	t1,ra,0x2

0000000080006bf0 <i_6651>:
    80006bf0:	0016e663          	bltu	a3,ra,80006bfc <i_6654>

0000000080006bf4 <i_6652>:
    80006bf4:	0220c463          	blt	ra,sp,80006c1c <i_6662>

0000000080006bf8 <i_6653>:
    80006bf8:	78b3c093          	xori	ra,t2,1931

0000000080006bfc <i_6654>:
    80006bfc:	0166b233          	sltu	tp,a3,s6

0000000080006c00 <i_6655>:
    80006c00:	fc012503          	lw	a0,-64(sp)

0000000080006c04 <i_6656>:
    80006c04:	08811503          	lh	a0,136(sp)

0000000080006c08 <i_6657>:
    80006c08:	02a52db3          	mulhsu	s11,a0,a0

0000000080006c0c <i_6658>:
    80006c0c:	89256393          	ori	t2,a0,-1902

0000000080006c10 <i_6659>:
    80006c10:	01e35a63          	ble	t5,t1,80006c24 <i_6664>

0000000080006c14 <i_6660>:
    80006c14:	f3013683          	ld	a3,-208(sp)

0000000080006c18 <i_6661>:
    80006c18:	f4a10823          	sb	a0,-176(sp)

0000000080006c1c <i_6662>:
    80006c1c:	00ddf863          	bleu	a3,s11,80006c2c <i_6666>

0000000080006c20 <i_6663>:
    80006c20:	0025559b          	srliw	a1,a0,0x2

0000000080006c24 <i_6664>:
    80006c24:	be96ea93          	ori	s5,a3,-1047

0000000080006c28 <i_6665>:
    80006c28:	02dd8263          	beq	s11,a3,80006c4c <i_6674>

0000000080006c2c <i_6666>:
    80006c2c:	0355f263          	bleu	s5,a1,80006c50 <i_6675>

0000000080006c30 <i_6667>:
    80006c30:	fa710683          	lb	a3,-89(sp)

0000000080006c34 <i_6668>:
    80006c34:	e9d13423          	sd	t4,-376(sp)

0000000080006c38 <i_6669>:
    80006c38:	01400e13          	li	t3,20

0000000080006c3c <i_6670>:
    80006c3c:	01c55dbb          	srlw	s11,a0,t3

0000000080006c40 <i_6671>:
    80006c40:	e8f14083          	lbu	ra,-369(sp)

0000000080006c44 <i_6672>:
    80006c44:	00b38263          	beq	t2,a1,80006c48 <i_6673>

0000000080006c48 <i_6673>:
    80006c48:	ef014503          	lbu	a0,-272(sp)

0000000080006c4c <i_6674>:
    80006c4c:	05c12e03          	lw	t3,92(sp)

0000000080006c50 <i_6675>:
    80006c50:	01b540b3          	xor	ra,a0,s11

0000000080006c54 <i_6676>:
    80006c54:	02de4533          	div	a0,t3,a3

0000000080006c58 <i_6677>:
    80006c58:	fe416683          	lwu	a3,-28(sp)

0000000080006c5c <i_6678>:
    80006c5c:	19a11d83          	lh	s11,410(sp)

0000000080006c60 <i_6679>:
    80006c60:	00d6c663          	blt	a3,a3,80006c6c <i_6682>

0000000080006c64 <i_6680>:
    80006c64:	02d51063          	bne	a0,a3,80006c84 <i_6688>

0000000080006c68 <i_6681>:
    80006c68:	fca10683          	lb	a3,-54(sp)

0000000080006c6c <i_6682>:
    80006c6c:	19012e03          	lw	t3,400(sp)

0000000080006c70 <i_6683>:
    80006c70:	03ec1263          	bne	s8,t5,80006c94 <i_6692>

0000000080006c74 <i_6684>:
    80006c74:	13013e03          	ld	t3,304(sp)

0000000080006c78 <i_6685>:
    80006c78:	02de4463          	blt	t3,a3,80006ca0 <i_6695>

0000000080006c7c <i_6686>:
    80006c7c:	fb813b83          	ld	s7,-72(sp)

0000000080006c80 <i_6687>:
    80006c80:	f5713023          	sd	s7,-192(sp)

0000000080006c84 <i_6688>:
    80006c84:	02d6853b          	mulw	a0,a3,a3

0000000080006c88 <i_6689>:
    80006c88:	f2d12823          	sw	a3,-208(sp)

0000000080006c8c <i_6690>:
    80006c8c:	413509bb          	subw	s3,a0,s3

0000000080006c90 <i_6691>:
    80006c90:	86056b93          	ori	s7,a0,-1952

0000000080006c94 <i_6692>:
    80006c94:	0ec16983          	lwu	s3,236(sp)

0000000080006c98 <i_6693>:
    80006c98:	10816e03          	lwu	t3,264(sp)

0000000080006c9c <i_6694>:
    80006c9c:	e4ae3b93          	sltiu	s7,t3,-438

0000000080006ca0 <i_6695>:
    80006ca0:	03c9d9b3          	divu	s3,s3,t3

0000000080006ca4 <i_6696>:
    80006ca4:	0339e063          	bltu	s3,s3,80006cc4 <i_6704>

0000000080006ca8 <i_6697>:
    80006ca8:	9fb049b7          	lui	s3,0x9fb04

0000000080006cac <i_6698>:
    80006cac:	1c013f03          	ld	t5,448(sp)

0000000080006cb0 <i_6699>:
    80006cb0:	fb211503          	lh	a0,-78(sp)

0000000080006cb4 <i_6700>:
    80006cb4:	11816083          	lwu	ra,280(sp)

0000000080006cb8 <i_6701>:
    80006cb8:	ec850213          	addi	tp,a0,-312

0000000080006cbc <i_6702>:
    80006cbc:	01399c63          	bne	s3,s3,80006cd4 <i_6708>

0000000080006cc0 <i_6703>:
    80006cc0:	00a9e663          	bltu	s3,a0,80006ccc <i_6706>

0000000080006cc4 <i_6704>:
    80006cc4:	03ef0063          	beq	t5,t5,80006ce4 <i_6712>

0000000080006cc8 <i_6705>:
    80006cc8:	e4814503          	lbu	a0,-440(sp)

0000000080006ccc <i_6706>:
    80006ccc:	0010e463          	bltu	ra,ra,80006cd4 <i_6708>

0000000080006cd0 <i_6707>:
    80006cd0:	01600e93          	li	t4,22

0000000080006cd4 <i_6708>:
    80006cd4:	01d550bb          	srlw	ra,a0,t4

0000000080006cd8 <i_6709>:
    80006cd8:	03e00213          	li	tp,62

0000000080006cdc <i_6710>:
    80006cdc:	404ed533          	sra	a0,t4,tp

0000000080006ce0 <i_6711>:
    80006ce0:	0025151b          	slliw	a0,a0,0x2

0000000080006ce4 <i_6712>:
    80006ce4:	03e00c93          	li	s9,62

0000000080006ce8 <i_6713>:
    80006ce8:	41955eb3          	sra	t4,a0,s9

0000000080006cec <i_6714>:
    80006cec:	01d27eb3          	and	t4,tp,t4

0000000080006cf0 <i_6715>:
    80006cf0:	019ce263          	bltu	s9,s9,80006cf4 <i_6716>

0000000080006cf4 <i_6716>:
    80006cf4:	15813e83          	ld	t4,344(sp)

0000000080006cf8 <i_6717>:
    80006cf8:	02424063          	blt	tp,tp,80006d18 <i_6725>

0000000080006cfc <i_6718>:
    80006cfc:	039e8463          	beq	t4,s9,80006d24 <i_6728>

0000000080006d00 <i_6719>:
    80006d00:	fe411323          	sh	tp,-26(sp)

0000000080006d04 <i_6720>:
    80006d04:	f6013d03          	ld	s10,-160(sp)

0000000080006d08 <i_6721>:
    80006d08:	019cda63          	ble	s9,s9,80006d1c <i_6726>

0000000080006d0c <i_6722>:
    80006d0c:	13c11683          	lh	a3,316(sp)

0000000080006d10 <i_6723>:
    80006d10:	00db3b33          	sltu	s6,s6,a3

0000000080006d14 <i_6724>:
    80006d14:	04413023          	sd	tp,64(sp)

0000000080006d18 <i_6725>:
    80006d18:	00a86463          	bltu	a6,a0,80006d20 <i_6727>

0000000080006d1c <i_6726>:
    80006d1c:	92c20517          	auipc	a0,0x92c20

0000000080006d20 <i_6727>:
    80006d20:	024eeebb          	remw	t4,t4,tp

0000000080006d24 <i_6728>:
    80006d24:	001ce463          	bltu	s9,ra,80006d2c <i_6730>

0000000080006d28 <i_6729>:
    80006d28:	02655463          	ble	t1,a0,80006d50 <i_6739>

0000000080006d2c <i_6730>:
    80006d2c:	e48106a3          	sb	s0,-435(sp)

0000000080006d30 <i_6731>:
    80006d30:	5adcbb93          	sltiu	s7,s9,1453

0000000080006d34 <i_6732>:
    80006d34:	0dd13c23          	sd	t4,216(sp)

0000000080006d38 <i_6733>:
    80006d38:	16814783          	lbu	a5,360(sp)

0000000080006d3c <i_6734>:
    80006d3c:	024500bb          	mulw	ra,a0,tp

0000000080006d40 <i_6735>:
    80006d40:	54cbe237          	lui	tp,0x54cbe

0000000080006d44 <i_6736>:
    80006d44:	4040823b          	subw	tp,ra,tp

0000000080006d48 <i_6737>:
    80006d48:	0212023b          	mulw	tp,tp,ra

0000000080006d4c <i_6738>:
    80006d4c:	ea015083          	lhu	ra,-352(sp)

0000000080006d50 <i_6739>:
    80006d50:	00000013          	nop

0000000080006d54 <i_6740>:
    80006d54:	16016d03          	lwu	s10,352(sp)

0000000080006d58 <i_6741>:
    80006d58:	78000e93          	li	t4,1920

0000000080006d5c <i_6742>:
    80006d5c:	78700993          	li	s3,1927

0000000080006d60 <i_6743>:
    80006d60:	e2312623          	sw	gp,-468(sp)

0000000080006d64 <i_6744>:
    80006d64:	e4614083          	lbu	ra,-442(sp)

0000000080006d68 <i_6745>:
    80006d68:	001e8e93          	addi	t4,t4,1 # 91153595 <_end+0x11143181>
    80006d6c:	ff3ecae3          	blt	t4,s3,80006d60 <i_6743>

0000000080006d70 <i_6746>:
    80006d70:	0020d093          	srli	ra,ra,0x2

0000000080006d74 <i_6747>:
    80006d74:	04112823          	sw	ra,80(sp)

0000000080006d78 <i_6748>:
    80006d78:	18914603          	lbu	a2,393(sp)

0000000080006d7c <i_6749>:
    80006d7c:	fd235f37          	lui	t5,0xfd235

0000000080006d80 <i_6750>:
    80006d80:	00325e13          	srli	t3,tp,0x3

0000000080006d84 <i_6751>:
    80006d84:	76f00613          	li	a2,1903

0000000080006d88 <i_6752>:
    80006d88:	77b00093          	li	ra,1915

0000000080006d8c <i_6753>:
    80006d8c:	11c15303          	lhu	t1,284(sp)

0000000080006d90 <i_6754>:
    80006d90:	08c10723          	sb	a2,142(sp)

0000000080006d94 <i_6755>:
    80006d94:	00732233          	slt	tp,t1,t2

0000000080006d98 <i_6756>:
    80006d98:	0e810283          	lb	t0,232(sp)

0000000080006d9c <i_6757>:
    80006d9c:	fe412c23          	sw	tp,-8(sp)

0000000080006da0 <i_6758>:
    80006da0:	9cf36e13          	ori	t3,t1,-1585

0000000080006da4 <i_6759>:
    80006da4:	18910283          	lb	t0,393(sp)

0000000080006da8 <i_6760>:
    80006da8:	e5a10203          	lb	tp,-422(sp)

0000000080006dac <i_6761>:
    80006dac:	10e10203          	lb	tp,270(sp)

0000000080006db0 <i_6762>:
    80006db0:	00000013          	nop

0000000080006db4 <i_6763>:
    80006db4:	e25101a3          	sb	t0,-477(sp)

0000000080006db8 <i_6764>:
    80006db8:	00000013          	nop

0000000080006dbc <i_6765>:
    80006dbc:	0052dc63          	ble	t0,t0,80006dd4 <i_6770>

0000000080006dc0 <i_6766>:
    80006dc0:	00160613          	addi	a2,a2,1
    80006dc4:	fc1644e3          	blt	a2,ra,80006d8c <i_6753>

0000000080006dc8 <i_6767>:
    80006dc8:	1e215e03          	lhu	t3,482(sp)

0000000080006dcc <i_6768>:
    80006dcc:	f2bcc293          	xori	t0,s9,-213

0000000080006dd0 <i_6769>:
    80006dd0:	01ce4a63          	blt	t3,t3,80006de4 <i_6774>

0000000080006dd4 <i_6770>:
    80006dd4:	025e4063          	blt	t3,t0,80006df4 <i_6778>

0000000080006dd8 <i_6771>:
    80006dd8:	03c282b3          	mul	t0,t0,t3

0000000080006ddc <i_6772>:
    80006ddc:	036162b3          	rem	t0,sp,s6

0000000080006de0 <i_6773>:
    80006de0:	e2016283          	lwu	t0,-480(sp)

0000000080006de4 <i_6774>:
    80006de4:	0a816283          	lwu	t0,168(sp)

0000000080006de8 <i_6775>:
    80006de8:	01c2ce63          	blt	t0,t3,80006e04 <i_6782>

0000000080006dec <i_6776>:
    80006dec:	163e2e13          	slti	t3,t3,355

0000000080006df0 <i_6777>:
    80006df0:	11c16583          	lwu	a1,284(sp)

0000000080006df4 <i_6778>:
    80006df4:	022281b3          	mul	gp,t0,sp

0000000080006df8 <i_6779>:
    80006df8:	00a28463          	beq	t0,a0,80006e00 <i_6781>

0000000080006dfc <i_6780>:
    80006dfc:	0fe15583          	lhu	a1,254(sp)

0000000080006e00 <i_6781>:
    80006e00:	1bc16d83          	lwu	s11,444(sp)

0000000080006e04 <i_6782>:
    80006e04:	60c1b193          	sltiu	gp,gp,1548

0000000080006e08 <i_6783>:
    80006e08:	03b5d1bb          	divuw	gp,a1,s11

0000000080006e0c <i_6784>:
    80006e0c:	023de9b3          	rem	s3,s11,gp

0000000080006e10 <i_6785>:
    80006e10:	0ab11a23          	sh	a1,180(sp)

0000000080006e14 <i_6786>:
    80006e14:	033da233          	mulhsu	tp,s11,s3

0000000080006e18 <i_6787>:
    80006e18:	db05e797          	auipc	a5,0xdb05e

0000000080006e1c <i_6788>:
    80006e1c:	01b21863          	bne	tp,s11,80006e2c <i_6792>

0000000080006e20 <i_6789>:
    80006e20:	4012521b          	sraiw	tp,tp,0x1

0000000080006e24 <i_6790>:
    80006e24:	03e2423b          	divw	tp,tp,t5

0000000080006e28 <i_6791>:
    80006e28:	1b012783          	lw	a5,432(sp)

0000000080006e2c <i_6792>:
    80006e2c:	00425663          	ble	tp,tp,80006e38 <i_6795>

0000000080006e30 <i_6793>:
    80006e30:	0044551b          	srliw	a0,s0,0x4

0000000080006e34 <i_6794>:
    80006e34:	00a7b1b3          	sltu	gp,a5,a0

0000000080006e38 <i_6795>:
    80006e38:	23f7a693          	slti	a3,a5,575

0000000080006e3c <i_6796>:
    80006e3c:	00324663          	blt	tp,gp,80006e48 <i_6799>

0000000080006e40 <i_6797>:
    80006e40:	1be11203          	lh	tp,446(sp)

0000000080006e44 <i_6798>:
    80006e44:	01524863          	blt	tp,s5,80006e54 <i_6802>

0000000080006e48 <i_6799>:
    80006e48:	b3252413          	slti	s0,a0,-1230

0000000080006e4c <i_6800>:
    80006e4c:	00f44263          	blt	s0,a5,80006e50 <i_6801>

0000000080006e50 <i_6801>:
    80006e50:	e8416e83          	lwu	t4,-380(sp)

0000000080006e54 <i_6802>:
    80006e54:	e1e22d93          	slti	s11,tp,-482

0000000080006e58 <i_6803>:
    80006e58:	00840263          	beq	s0,s0,80006e5c <i_6804>

0000000080006e5c <i_6804>:
    80006e5c:	f5015583          	lhu	a1,-176(sp)

0000000080006e60 <i_6805>:
    80006e60:	00547663          	bleu	t0,s0,80006e6c <i_6808>

0000000080006e64 <i_6806>:
    80006e64:	08410c23          	sb	tp,152(sp)

0000000080006e68 <i_6807>:
    80006e68:	01bde863          	bltu	s11,s11,80006e78 <i_6811>

0000000080006e6c <i_6808>:
    80006e6c:	18f10b23          	sb	a5,406(sp)

0000000080006e70 <i_6809>:
    80006e70:	02a7c463          	blt	a5,a0,80006e98 <i_6819>

0000000080006e74 <i_6810>:
    80006e74:	419a0a33          	sub	s4,s4,s9

0000000080006e78 <i_6811>:
    80006e78:	00da4a63          	blt	s4,a3,80006e8c <i_6816>

0000000080006e7c <i_6812>:
    80006e7c:	79340d93          	addi	s11,s0,1939

0000000080006e80 <i_6813>:
    80006e80:	0241c4b3          	div	s1,gp,tp

0000000080006e84 <i_6814>:
    80006e84:	02a57ebb          	remuw	t4,a0,a0

0000000080006e88 <i_6815>:
    80006e88:	0a4102a3          	sb	tp,165(sp)

0000000080006e8c <i_6816>:
    80006e8c:	01d22233          	slt	tp,tp,t4

0000000080006e90 <i_6817>:
    80006e90:	00947a63          	bleu	s1,s0,80006ea4 <i_6822>

0000000080006e94 <i_6818>:
    80006e94:	00426263          	bltu	tp,tp,80006e98 <i_6819>

0000000080006e98 <i_6819>:
    80006e98:	00da6663          	bltu	s4,a3,80006ea4 <i_6822>

0000000080006e9c <i_6820>:
    80006e9c:	41e586bb          	subw	a3,a1,t5

0000000080006ea0 <i_6821>:
    80006ea0:	03d695b3          	mulh	a1,a3,t4

0000000080006ea4 <i_6822>:
    80006ea4:	00013e83          	ld	t4,0(sp)

0000000080006ea8 <i_6823>:
    80006ea8:	06614383          	lbu	t2,102(sp)

0000000080006eac <i_6824>:
    80006eac:	f8c16403          	lwu	s0,-116(sp)

0000000080006eb0 <i_6825>:
    80006eb0:	03c55533          	divu	a0,a0,t3

0000000080006eb4 <i_6826>:
    80006eb4:	a63d9997          	auipc	s3,0xa63d9

0000000080006eb8 <i_6827>:
    80006eb8:	0b310383          	lb	t2,179(sp)

0000000080006ebc <i_6828>:
    80006ebc:	12714183          	lbu	gp,295(sp)

0000000080006ec0 <i_6829>:
    80006ec0:	15c12e23          	sw	t3,348(sp)

0000000080006ec4 <i_6830>:
    80006ec4:	18a13423          	sd	a0,392(sp)

0000000080006ec8 <i_6831>:
    80006ec8:	fb212223          	sw	s2,-92(sp)

0000000080006ecc <i_6832>:
    80006ecc:	01b68c63          	beq	a3,s11,80006ee4 <i_6838>

0000000080006ed0 <i_6833>:
    80006ed0:	03bdc333          	div	t1,s11,s11

0000000080006ed4 <i_6834>:
    80006ed4:	00000013          	nop

0000000080006ed8 <i_6835>:
    80006ed8:	00000013          	nop

0000000080006edc <i_6836>:
    80006edc:	00000013          	nop

0000000080006ee0 <i_6837>:
    80006ee0:	4fdefc93          	andi	s9,t4,1277

0000000080006ee4 <i_6838>:
    80006ee4:	06312423          	sw	gp,104(sp)

0000000080006ee8 <i_6839>:
    80006ee8:	e2514583          	lbu	a1,-475(sp)

0000000080006eec <i_6840>:
    80006eec:	7d000e13          	li	t3,2000

0000000080006ef0 <i_6841>:
    80006ef0:	7e100d93          	li	s11,2017

0000000080006ef4 <i_6842>:
    80006ef4:	e2813f03          	ld	t5,-472(sp)

0000000080006ef8 <i_6843>:
    80006ef8:	0273c333          	div	t1,t2,t2

0000000080006efc <i_6844>:
    80006efc:	81600413          	li	s0,-2026

0000000080006f00 <i_6845>:
    80006f00:	81e00693          	li	a3,-2018

0000000080006f04 <i_6846>:
    80006f04:	00140413          	addi	s0,s0,1
    80006f08:	fe86dee3          	ble	s0,a3,80006f04 <i_6846>

0000000080006f0c <i_6847>:
    80006f0c:	02a11323          	sh	a0,38(sp)

0000000080006f10 <i_6848>:
    80006f10:	ed813303          	ld	t1,-296(sp)

0000000080006f14 <i_6849>:
    80006f14:	f1a11203          	lh	tp,-230(sp)

0000000080006f18 <i_6850>:
    80006f18:	e2314583          	lbu	a1,-477(sp)

0000000080006f1c <i_6851>:
    80006f1c:	0285d43b          	divuw	s0,a1,s0

0000000080006f20 <i_6852>:
    80006f20:	001e0e13          	addi	t3,t3,1
    80006f24:	fdbe48e3          	blt	t3,s11,80006ef4 <i_6842>

0000000080006f28 <i_6853>:
    80006f28:	00d34c63          	blt	t1,a3,80006f40 <i_6859>

0000000080006f2c <i_6854>:
    80006f2c:	05a12823          	sw	s10,80(sp)

0000000080006f30 <i_6855>:
    80006f30:	01e11463          	bne	sp,t5,80006f38 <i_6857>

0000000080006f34 <i_6856>:
    80006f34:	09011683          	lh	a3,144(sp)

0000000080006f38 <i_6857>:
    80006f38:	01b58e63          	beq	a1,s11,80006f54 <i_6864>

0000000080006f3c <i_6858>:
    80006f3c:	16013583          	ld	a1,352(sp)

0000000080006f40 <i_6859>:
    80006f40:	00b5ea63          	bltu	a1,a1,80006f54 <i_6864>

0000000080006f44 <i_6860>:
    80006f44:	02874063          	blt	a4,s0,80006f64 <i_6868>

0000000080006f48 <i_6861>:
    80006f48:	ef013083          	ld	ra,-272(sp)

0000000080006f4c <i_6862>:
    80006f4c:	03600413          	li	s0,54

0000000080006f50 <i_6863>:
    80006f50:	00859433          	sll	s0,a1,s0

0000000080006f54 <i_6864>:
    80006f54:	02b0c263          	blt	ra,a1,80006f78 <i_6873>

0000000080006f58 <i_6865>:
    80006f58:	0c113023          	sd	ra,192(sp)

0000000080006f5c <i_6866>:
    80006f5c:	00300a93          	li	s5,3

0000000080006f60 <i_6867>:
    80006f60:	4150d433          	sra	s0,ra,s5

0000000080006f64 <i_6868>:
    80006f64:	0020909b          	slliw	ra,ra,0x2

0000000080006f68 <i_6869>:
    80006f68:	16a14083          	lbu	ra,362(sp)

0000000080006f6c <i_6870>:
    80006f6c:	ff815483          	lhu	s1,-8(sp)

0000000080006f70 <i_6871>:
    80006f70:	eec16f03          	lwu	t5,-276(sp)

0000000080006f74 <i_6872>:
    80006f74:	f3812b03          	lw	s6,-200(sp)

0000000080006f78 <i_6873>:
    80006f78:	e3815a83          	lhu	s5,-456(sp)

0000000080006f7c <i_6874>:
    80006f7c:	0150fc63          	bleu	s5,ra,80006f94 <i_6880>

0000000080006f80 <i_6875>:
    80006f80:	395f051b          	addiw	a0,t5,917

0000000080006f84 <i_6876>:
    80006f84:	1a813f03          	ld	t5,424(sp)

0000000080006f88 <i_6877>:
    80006f88:	03635263          	ble	s6,t1,80006fac <i_6886>

0000000080006f8c <i_6878>:
    80006f8c:	e5610303          	lb	t1,-426(sp)

0000000080006f90 <i_6879>:
    80006f90:	e4016f03          	lwu	t5,-448(sp)

0000000080006f94 <i_6880>:
    80006f94:	02af0063          	beq	t5,a0,80006fb4 <i_6888>

0000000080006f98 <i_6881>:
    80006f98:	e9c107a3          	sb	t3,-369(sp)

0000000080006f9c <i_6882>:
    80006f9c:	03ef0d33          	mul	s10,t5,t5

0000000080006fa0 <i_6883>:
    80006fa0:	1d013f03          	ld	t5,464(sp)

0000000080006fa4 <i_6884>:
    80006fa4:	004d1d13          	slli	s10,s10,0x4

0000000080006fa8 <i_6885>:
    80006fa8:	f5e13823          	sd	t5,-176(sp)

0000000080006fac <i_6886>:
    80006fac:	e7215d03          	lhu	s10,-398(sp)

0000000080006fb0 <i_6887>:
    80006fb0:	e6210d03          	lb	s10,-414(sp)

0000000080006fb4 <i_6888>:
    80006fb4:	00800d13          	li	s10,8

0000000080006fb8 <i_6889>:
    80006fb8:	01af5d3b          	srlw	s10,t5,s10

0000000080006fbc <i_6890>:
    80006fbc:	8b000f13          	li	t5,-1872

0000000080006fc0 <i_6891>:
    80006fc0:	8b600413          	li	s0,-1866

0000000080006fc4 <i_6892>:
    80006fc4:	028d1063          	bne	s10,s0,80006fe4 <i_6899>

0000000080006fc8 <i_6893>:
    80006fc8:	ee812e23          	sw	s0,-260(sp)

0000000080006fcc <i_6894>:
    80006fcc:	001f0f13          	addi	t5,t5,1 # fffffffffd235001 <_end+0xffffffff7d224bed>
    80006fd0:	fe8f1ae3          	bne	t5,s0,80006fc4 <i_6892>

0000000080006fd4 <i_6895>:
    80006fd4:	028d7263          	bleu	s0,s10,80006ff8 <i_6904>

0000000080006fd8 <i_6896>:
    80006fd8:	028d7433          	remu	s0,s10,s0

0000000080006fdc <i_6897>:
    80006fdc:	02840d33          	mul	s10,s0,s0

0000000080006fe0 <i_6898>:
    80006fe0:	0e812d03          	lw	s10,232(sp)

0000000080006fe4 <i_6899>:
    80006fe4:	005d0463          	beq	s10,t0,80006fec <i_6901>

0000000080006fe8 <i_6900>:
    80006fe8:	008d4263          	blt	s10,s0,80006fec <i_6901>

0000000080006fec <i_6901>:
    80006fec:	01100493          	li	s1,17

0000000080006ff0 <i_6902>:
    80006ff0:	0097d33b          	srlw	t1,a5,s1

0000000080006ff4 <i_6903>:
    80006ff4:	08c12683          	lw	a3,140(sp)

0000000080006ff8 <i_6904>:
    80006ff8:	03412403          	lw	s0,52(sp)

0000000080006ffc <i_6905>:
    80006ffc:	00000013          	nop

0000000080007000 <i_6906>:
    80007000:	78700213          	li	tp,1927

0000000080007004 <i_6907>:
    80007004:	78c00d93          	li	s11,1932

0000000080007008 <i_6908>:
    80007008:	01217c63          	bleu	s2,sp,80007020 <i_6913>

000000008000700c <i_6909>:
    8000700c:	f4812a83          	lw	s5,-184(sp)

0000000080007010 <i_6910>:
    80007010:	00120213          	addi	tp,tp,1 # 54cbe001 <main-0x2b341fff>
    80007014:	ffb24ae3          	blt	tp,s11,80007008 <i_6908>

0000000080007018 <i_6911>:
    80007018:	f3813d03          	ld	s10,-200(sp)

000000008000701c <i_6912>:
    8000701c:	ef016203          	lwu	tp,-272(sp)

0000000080007020 <i_6913>:
    80007020:	e2413823          	sd	tp,-464(sp)

0000000080007024 <i_6914>:
    80007024:	11815203          	lhu	tp,280(sp)

0000000080007028 <i_6915>:
    80007028:	00427263          	bleu	tp,tp,8000702c <i_6916>

000000008000702c <i_6916>:
    8000702c:	c8926493          	ori	s1,tp,-887

0000000080007030 <i_6917>:
    80007030:	01a22c33          	slt	s8,tp,s10

0000000080007034 <i_6918>:
    80007034:	0384e233          	rem	tp,s1,s8

0000000080007038 <i_6919>:
    80007038:	00d00c13          	li	s8,13

000000008000703c <i_6920>:
    8000703c:	418ddc3b          	sraw	s8,s11,s8

0000000080007040 <i_6921>:
    80007040:	01700c13          	li	s8,23

0000000080007044 <i_6922>:
    80007044:	018b9bbb          	sllw	s7,s7,s8

0000000080007048 <i_6923>:
    80007048:	01712023          	sw	s7,0(sp)

000000008000704c <i_6924>:
    8000704c:	19013783          	ld	a5,400(sp)

0000000080007050 <i_6925>:
    80007050:	037783bb          	mulw	t2,a5,s7

0000000080007054 <i_6926>:
    80007054:	0d711523          	sh	s7,202(sp)

0000000080007058 <i_6927>:
    80007058:	eb712223          	sw	s7,-348(sp)

000000008000705c <i_6928>:
    8000705c:	0bc16783          	lwu	a5,188(sp)

0000000080007060 <i_6929>:
    80007060:	02f7c7b3          	div	a5,a5,a5

0000000080007064 <i_6930>:
    80007064:	02f7e3b3          	rem	t2,a5,a5

0000000080007068 <i_6931>:
    80007068:	0357fabb          	remuw	s5,a5,s5

000000008000706c <i_6932>:
    8000706c:	02310a83          	lb	s5,35(sp)

0000000080007070 <i_6933>:
    80007070:	f2914b83          	lbu	s7,-215(sp)

0000000080007074 <i_6934>:
    80007074:	02000513          	li	a0,32

0000000080007078 <i_6935>:
    80007078:	00a39e33          	sll	t3,t2,a0

000000008000707c <i_6936>:
    8000707c:	0dc15083          	lhu	ra,220(sp)

0000000080007080 <i_6937>:
    80007080:	e6f11c23          	sh	a5,-392(sp)

0000000080007084 <i_6938>:
    80007084:	e2813e03          	ld	t3,-472(sp)

0000000080007088 <i_6939>:
    80007088:	e4a13c23          	sd	a0,-424(sp)

000000008000708c <i_6940>:
    8000708c:	401e0d33          	sub	s10,t3,ra

0000000080007090 <i_6941>:
    80007090:	14416383          	lwu	t2,324(sp)

0000000080007094 <i_6942>:
    80007094:	ec412e83          	lw	t4,-316(sp)

0000000080007098 <i_6943>:
    80007098:	023094b3          	mulh	s1,ra,gp

000000008000709c <i_6944>:
    8000709c:	00f7da63          	ble	a5,a5,800070b0 <i_6949>

00000000800070a0 <i_6945>:
    800070a0:	10012083          	lw	ra,256(sp)

00000000800070a4 <i_6946>:
    800070a4:	01d0f263          	bleu	t4,ra,800070a8 <i_6947>

00000000800070a8 <i_6947>:
    800070a8:	ffa14303          	lbu	t1,-6(sp)

00000000800070ac <i_6948>:
    800070ac:	fa215e03          	lhu	t3,-94(sp)

00000000800070b0 <i_6949>:
    800070b0:	01dee663          	bltu	t4,t4,800070bc <i_6952>

00000000800070b4 <i_6950>:
    800070b4:	401ede9b          	sraiw	t4,t4,0x1

00000000800070b8 <i_6951>:
    800070b8:	c7e261b7          	lui	gp,0xc7e26

00000000800070bc <i_6952>:
    800070bc:	12613c23          	sd	t1,312(sp)

00000000800070c0 <i_6953>:
    800070c0:	21b1e597          	auipc	a1,0x21b1e

00000000800070c4 <i_6954>:
    800070c4:	1bc13423          	sd	t3,424(sp)

00000000800070c8 <i_6955>:
    800070c8:	ef013183          	ld	gp,-272(sp)

00000000800070cc <i_6956>:
    800070cc:	17c13c23          	sd	t3,376(sp)

00000000800070d0 <i_6957>:
    800070d0:	01400593          	li	a1,20

00000000800070d4 <i_6958>:
    800070d4:	00b5dc3b          	srlw	s8,a1,a1

00000000800070d8 <i_6959>:
    800070d8:	f2a11e03          	lh	t3,-214(sp)

00000000800070dc <i_6960>:
    800070dc:	ef013683          	ld	a3,-272(sp)

00000000800070e0 <i_6961>:
    800070e0:	00800a93          	li	s5,8

00000000800070e4 <i_6962>:
    800070e4:	015696bb          	sllw	a3,a3,s5

00000000800070e8 <i_6963>:
    800070e8:	044887b7          	lui	a5,0x4488

00000000800070ec <i_6964>:
    800070ec:	f2811d03          	lh	s10,-216(sp)

00000000800070f0 <i_6965>:
    800070f0:	03ce44b3          	div	s1,t3,t3

00000000800070f4 <i_6966>:
    800070f4:	03a00193          	li	gp,58

00000000800070f8 <i_6967>:
    800070f8:	003cda33          	srl	s4,s9,gp

00000000800070fc <i_6968>:
    800070fc:	10610fa3          	sb	t1,287(sp)

0000000080007100 <i_6969>:
    80007100:	01a58863          	beq	a1,s10,80007110 <i_6973>

0000000080007104 <i_6970>:
    80007104:	00d79a63          	bne	a5,a3,80007118 <i_6975>

0000000080007108 <i_6971>:
    80007108:	e6013b03          	ld	s6,-416(sp)

000000008000710c <i_6972>:
    8000710c:	1a614383          	lbu	t2,422(sp)

0000000080007110 <i_6973>:
    80007110:	1b510523          	sb	s5,426(sp)

0000000080007114 <i_6974>:
    80007114:	39af0193          	addi	gp,t5,922

0000000080007118 <i_6975>:
    80007118:	03559463          	bne	a1,s5,80007140 <i_6985>

000000008000711c <i_6976>:
    8000711c:	f6e15c03          	lhu	s8,-146(sp)

0000000080007120 <i_6977>:
    80007120:	6091ee13          	ori	t3,gp,1545

0000000080007124 <i_6978>:
    80007124:	00d7e663          	bltu	a5,a3,80007130 <i_6981>

0000000080007128 <i_6979>:
    80007128:	f7d108a3          	sb	t4,-143(sp)

000000008000712c <i_6980>:
    8000712c:	09415203          	lhu	tp,148(sp)

0000000080007130 <i_6981>:
    80007130:	eb011c83          	lh	s9,-336(sp)

0000000080007134 <i_6982>:
    80007134:	00000013          	nop

0000000080007138 <i_6983>:
    80007138:	407383bb          	subw	t2,t2,t2

000000008000713c <i_6984>:
    8000713c:	0dd101a3          	sb	t4,195(sp)

0000000080007140 <i_6985>:
    80007140:	0f013383          	ld	t2,240(sp)

0000000080007144 <i_6986>:
    80007144:	ad9e0413          	addi	s0,t3,-1319

0000000080007148 <i_6987>:
    80007148:	86a00e93          	li	t4,-1942

000000008000714c <i_6988>:
    8000714c:	87a00693          	li	a3,-1926

0000000080007150 <i_6989>:
    80007150:	f5812603          	lw	a2,-168(sp)

0000000080007154 <i_6990>:
    80007154:	15111423          	sh	a7,328(sp)

0000000080007158 <i_6991>:
    80007158:	81200813          	li	a6,-2030

000000008000715c <i_6992>:
    8000715c:	81700a13          	li	s4,-2025

0000000080007160 <i_6993>:
    80007160:	fce11603          	lh	a2,-50(sp)

0000000080007164 <i_6994>:
    80007164:	00180813          	addi	a6,a6,1
    80007168:	ff484ce3          	blt	a6,s4,80007160 <i_6993>

000000008000716c <i_6995>:
    8000716c:	00000013          	nop

0000000080007170 <i_6996>:
    80007170:	06c11123          	sh	a2,98(sp)

0000000080007174 <i_6997>:
    80007174:	14c11803          	lh	a6,332(sp)

0000000080007178 <i_6998>:
    80007178:	001e8e93          	addi	t4,t4,1
    8000717c:	fcde9ae3          	bne	t4,a3,80007150 <i_6989>

0000000080007180 <i_6999>:
    80007180:	05816a03          	lwu	s4,88(sp)

0000000080007184 <i_7000>:
    80007184:	03046463          	bltu	s0,a6,800071ac <i_7010>

0000000080007188 <i_7001>:
    80007188:	f3011603          	lh	a2,-208(sp)

000000008000718c <i_7002>:
    8000718c:	0028169b          	slliw	a3,a6,0x2

0000000080007190 <i_7003>:
    80007190:	7d027c93          	andi	s9,tp,2000

0000000080007194 <i_7004>:
    80007194:	00000013          	nop

0000000080007198 <i_7005>:
    80007198:	00000013          	nop

000000008000719c <i_7006>:
    8000719c:	1a114183          	lbu	gp,417(sp)

00000000800071a0 <i_7007>:
    800071a0:	0c310c23          	sb	gp,216(sp)

00000000800071a4 <i_7008>:
    800071a4:	1d811523          	sh	s8,458(sp)

00000000800071a8 <i_7009>:
    800071a8:	00000013          	nop

00000000800071ac <i_7010>:
    800071ac:	f7911e23          	sh	s9,-132(sp)

00000000800071b0 <i_7011>:
    800071b0:	00a00193          	li	gp,10

00000000800071b4 <i_7012>:
    800071b4:	003a51bb          	srlw	gp,s4,gp

00000000800071b8 <i_7013>:
    800071b8:	89500c13          	li	s8,-1899

00000000800071bc <i_7014>:
    800071bc:	8a200693          	li	a3,-1886

00000000800071c0 <i_7015>:
    800071c0:	00000013          	nop

00000000800071c4 <i_7016>:
    800071c4:	84300a13          	li	s4,-1981

00000000800071c8 <i_7017>:
    800071c8:	85200c93          	li	s9,-1966

00000000800071cc <i_7018>:
    800071cc:	c121a193          	slti	gp,gp,-1006

00000000800071d0 <i_7019>:
    800071d0:	001a0a13          	addi	s4,s4,1 # b5ba1379 <_end+0x35b90f65>
    800071d4:	ff9a4ce3          	blt	s4,s9,800071cc <i_7018>

00000000800071d8 <i_7020>:
    800071d8:	04416c83          	lwu	s9,68(sp)

00000000800071dc <i_7021>:
    800071dc:	01412a03          	lw	s4,20(sp)

00000000800071e0 <i_7022>:
    800071e0:	001c0c13          	addi	s8,s8,1
    800071e4:	fd869ce3          	bne	a3,s8,800071bc <i_7014>

00000000800071e8 <i_7023>:
    800071e8:	f5013983          	ld	s3,-176(sp)

00000000800071ec <i_7024>:
    800071ec:	01b00b93          	li	s7,27

00000000800071f0 <i_7025>:
    800071f0:	0179d9bb          	srlw	s3,s3,s7

00000000800071f4 <i_7026>:
    800071f4:	e3a15183          	lhu	gp,-454(sp)

00000000800071f8 <i_7027>:
    800071f8:	e9610183          	lb	gp,-362(sp)

00000000800071fc <i_7028>:
    800071fc:	01710fa3          	sb	s7,31(sp)

0000000080007200 <i_7029>:
    80007200:	003f5b93          	srli	s7,t5,0x3

0000000080007204 <i_7030>:
    80007204:	e4215e03          	lhu	t3,-446(sp)

0000000080007208 <i_7031>:
    80007208:	f0611383          	lh	t2,-250(sp)

000000008000720c <i_7032>:
    8000720c:	03c3d1bb          	divuw	gp,t2,t3

0000000080007210 <i_7033>:
    80007210:	0042bd33          	sltu	s10,t0,tp

0000000080007214 <i_7034>:
    80007214:	f1b2c193          	xori	gp,t0,-229

0000000080007218 <i_7035>:
    80007218:	01949863          	bne	s1,s9,80007228 <i_7039>

000000008000721c <i_7036>:
    8000721c:	f9a12e23          	sw	s10,-100(sp)

0000000080007220 <i_7037>:
    80007220:	01a1da63          	ble	s10,gp,80007234 <i_7042>

0000000080007224 <i_7038>:
    80007224:	0135f663          	bleu	s3,a1,80007230 <i_7041>

0000000080007228 <i_7039>:
    80007228:	04a15f03          	lhu	t5,74(sp)

000000008000722c <i_7040>:
    8000722c:	0251e063          	bltu	gp,t0,8000724c <i_7048>

0000000080007230 <i_7041>:
    80007230:	e6711023          	sh	t2,-416(sp)

0000000080007234 <i_7042>:
    80007234:	16813283          	ld	t0,360(sp)

0000000080007238 <i_7043>:
    80007238:	025291b3          	mulh	gp,t0,t0

000000008000723c <i_7044>:
    8000723c:	038c3533          	mulhu	a0,s8,s8

0000000080007240 <i_7045>:
    80007240:	404d5f13          	srai	t5,s10,0x4

0000000080007244 <i_7046>:
    80007244:	0042929b          	slliw	t0,t0,0x4

0000000080007248 <i_7047>:
    80007248:	01514283          	lbu	t0,21(sp)

000000008000724c <i_7048>:
    8000724c:	01a9b233          	sltu	tp,s3,s10

0000000080007250 <i_7049>:
    80007250:	03610e03          	lb	t3,54(sp)

0000000080007254 <i_7050>:
    80007254:	7e600d13          	li	s10,2022

0000000080007258 <i_7051>:
    80007258:	7f100193          	li	gp,2033

000000008000725c <i_7052>:
    8000725c:	02521263          	bne	tp,t0,80007280 <i_7061>

0000000080007260 <i_7053>:
    80007260:	d40dde17          	auipc	t3,0xd40dd

0000000080007264 <i_7054>:
    80007264:	00800c13          	li	s8,8

0000000080007268 <i_7055>:
    80007268:	4182d83b          	sraw	a6,t0,s8

000000008000726c <i_7056>:
    8000726c:	00000013          	nop

0000000080007270 <i_7057>:
    80007270:	01711923          	sh	s7,18(sp)

0000000080007274 <i_7058>:
    80007274:	03826ebb          	remw	t4,tp,s8

0000000080007278 <i_7059>:
    80007278:	01700a13          	li	s4,23

000000008000727c <i_7060>:
    8000727c:	014b9bbb          	sllw	s7,s7,s4

0000000080007280 <i_7061>:
    80007280:	f2016303          	lwu	t1,-224(sp)

0000000080007284 <i_7062>:
    80007284:	02abfeb3          	remu	t4,s7,a0

0000000080007288 <i_7063>:
    80007288:	001d0d13          	addi	s10,s10,1
    8000728c:	fda1f8e3          	bleu	s10,gp,8000725c <i_7052>

0000000080007290 <i_7064>:
    80007290:	ef510d03          	lb	s10,-267(sp)

0000000080007294 <i_7065>:
    80007294:	1dc16d83          	lwu	s11,476(sp)

0000000080007298 <i_7066>:
    80007298:	0f710823          	sb	s7,240(sp)

000000008000729c <i_7067>:
    8000729c:	ecc15303          	lhu	t1,-308(sp)

00000000800072a0 <i_7068>:
    800072a0:	11812a03          	lw	s4,280(sp)

00000000800072a4 <i_7069>:
    800072a4:	07714583          	lbu	a1,119(sp)

00000000800072a8 <i_7070>:
    800072a8:	e7d13c23          	sd	t4,-392(sp)

00000000800072ac <i_7071>:
    800072ac:	02c00d93          	li	s11,44

00000000800072b0 <i_7072>:
    800072b0:	01b79c33          	sll	s8,a5,s11

00000000800072b4 <i_7073>:
    800072b4:	74e00193          	li	gp,1870

00000000800072b8 <i_7074>:
    800072b8:	75f00793          	li	a5,1887

00000000800072bc <i_7075>:
    800072bc:	03bc0c33          	mul	s8,s8,s11

00000000800072c0 <i_7076>:
    800072c0:	08b12623          	sw	a1,140(sp)

00000000800072c4 <i_7077>:
    800072c4:	01bc0a63          	beq	s8,s11,800072d8 <i_7081>

00000000800072c8 <i_7078>:
    800072c8:	00118193          	addi	gp,gp,1 # ffffffffc7e26001 <_end+0xffffffff47e15bed>
    800072cc:	fef196e3          	bne	gp,a5,800072b8 <i_7074>

00000000800072d0 <i_7079>:
    800072d0:	02500c13          	li	s8,37

00000000800072d4 <i_7080>:
    800072d4:	018c52b3          	srl	t0,s8,s8

00000000800072d8 <i_7081>:
    800072d8:	01200513          	li	a0,18

00000000800072dc <i_7082>:
    800072dc:	00ac12bb          	sllw	t0,s8,a0

00000000800072e0 <i_7083>:
    800072e0:	00300313          	li	t1,3

00000000800072e4 <i_7084>:
    800072e4:	00629c3b          	sllw	s8,t0,t1

00000000800072e8 <i_7085>:
    800072e8:	0034931b          	slliw	t1,s1,0x3

00000000800072ec <i_7086>:
    800072ec:	00613823          	sd	t1,16(sp)

00000000800072f0 <i_7087>:
    800072f0:	01d00f13          	li	t5,29

00000000800072f4 <i_7088>:
    800072f4:	01ec1dbb          	sllw	s11,s8,t5

00000000800072f8 <i_7089>:
    800072f8:	17813e83          	ld	t4,376(sp)

00000000800072fc <i_7090>:
    800072fc:	f4a12c23          	sw	a0,-168(sp)

0000000080007300 <i_7091>:
    80007300:	02aec2b3          	div	t0,t4,a0

0000000080007304 <i_7092>:
    80007304:	75a12513          	slti	a0,sp,1882

0000000080007308 <i_7093>:
    80007308:	03df1063          	bne	t5,t4,80007328 <i_7101>

000000008000730c <i_7094>:
    8000730c:	03ee9263          	bne	t4,t5,80007330 <i_7103>

0000000080007310 <i_7095>:
    80007310:	05c12083          	lw	ra,92(sp)

0000000080007314 <i_7096>:
    80007314:	ea611603          	lh	a2,-346(sp)

0000000080007318 <i_7097>:
    80007318:	008f0a63          	beq	t5,s0,8000732c <i_7102>

000000008000731c <i_7098>:
    8000731c:	f5514383          	lbu	t2,-171(sp)

0000000080007320 <i_7099>:
    80007320:	01e50663          	beq	a0,t5,8000732c <i_7102>

0000000080007324 <i_7100>:
    80007324:	037f5bbb          	divuw	s7,t5,s7

0000000080007328 <i_7101>:
    80007328:	01800993          	li	s3,24

000000008000732c <i_7102>:
    8000732c:	013b93bb          	sllw	t2,s7,s3

0000000080007330 <i_7103>:
    80007330:	0045509b          	srliw	ra,a0,0x4

0000000080007334 <i_7104>:
    80007334:	001bf663          	bleu	ra,s7,80007340 <i_7107>

0000000080007338 <i_7105>:
    80007338:	052103a3          	sb	s2,71(sp)

000000008000733c <i_7106>:
    8000733c:	01febeb3          	sltu	t4,t4,t6

0000000080007340 <i_7107>:
    80007340:	14012d03          	lw	s10,320(sp)

0000000080007344 <i_7108>:
    80007344:	f8c16083          	lwu	ra,-116(sp)

0000000080007348 <i_7109>:
    80007348:	f4111e23          	sh	ra,-164(sp)

000000008000734c <i_7110>:
    8000734c:	eb416b83          	lwu	s7,-332(sp)

0000000080007350 <i_7111>:
    80007350:	15811083          	lh	ra,344(sp)

0000000080007354 <i_7112>:
    80007354:	f4615a83          	lhu	s5,-186(sp)

0000000080007358 <i_7113>:
    80007358:	15416b03          	lwu	s6,340(sp)

000000008000735c <i_7114>:
    8000735c:	e9714b03          	lbu	s6,-361(sp)

0000000080007360 <i_7115>:
    80007360:	01dec463          	blt	t4,t4,80007368 <i_7117>

0000000080007364 <i_7116>:
    80007364:	f2c11423          	sh	a2,-216(sp)

0000000080007368 <i_7117>:
    80007368:	00211423          	sh	sp,8(sp)

000000008000736c <i_7118>:
    8000736c:	01de82b3          	add	t0,t4,t4

0000000080007370 <i_7119>:
    80007370:	4035509b          	sraiw	ra,a0,0x3

0000000080007374 <i_7120>:
    80007374:	13613023          	sd	s6,288(sp)

0000000080007378 <i_7121>:
    80007378:	00af1263          	bne	t5,a0,8000737c <i_7122>

000000008000737c <i_7122>:
    8000737c:	0163e863          	bltu	t2,s6,8000738c <i_7126>

0000000080007380 <i_7123>:
    80007380:	001e8e63          	beq	t4,ra,8000739c <i_7130>

0000000080007384 <i_7124>:
    80007384:	0010f0b3          	and	ra,ra,ra

0000000080007388 <i_7125>:
    80007388:	0c112e23          	sw	ra,220(sp)

000000008000738c <i_7126>:
    8000738c:	025b1233          	mulh	tp,s6,t0

0000000080007390 <i_7127>:
    80007390:	021ef263          	bleu	ra,t4,800073b4 <i_7136>

0000000080007394 <i_7128>:
    80007394:	02424263          	blt	tp,tp,800073b8 <i_7137>

0000000080007398 <i_7129>:
    80007398:	f0412e23          	sw	tp,-228(sp)

000000008000739c <i_7130>:
    8000739c:	4042d21b          	sraiw	tp,t0,0x4

00000000800073a0 <i_7131>:
    800073a0:	00321c63          	bne	tp,gp,800073b8 <i_7137>

00000000800073a4 <i_7132>:
    800073a4:	5690b213          	sltiu	tp,ra,1385

00000000800073a8 <i_7133>:
    800073a8:	f1010283          	lb	t0,-240(sp)

00000000800073ac <i_7134>:
    800073ac:	01629a63          	bne	t0,s6,800073c0 <i_7139>

00000000800073b0 <i_7135>:
    800073b0:	105109a3          	sb	t0,275(sp)

00000000800073b4 <i_7136>:
    800073b4:	0332c9b3          	div	s3,t0,s3

00000000800073b8 <i_7137>:
    800073b8:	f1712623          	sw	s7,-244(sp)

00000000800073bc <i_7138>:
    800073bc:	00012083          	lw	ra,0(sp)

00000000800073c0 <i_7139>:
    800073c0:	161108a3          	sb	ra,369(sp)

00000000800073c4 <i_7140>:
    800073c4:	00820bb3          	add	s7,tp,s0

00000000800073c8 <i_7141>:
    800073c8:	7d700293          	li	t0,2007

00000000800073cc <i_7142>:
    800073cc:	7df00213          	li	tp,2015

00000000800073d0 <i_7143>:
    800073d0:	4040d993          	srai	s3,ra,0x4

00000000800073d4 <i_7144>:
    800073d4:	021080b3          	mul	ra,ra,ra

00000000800073d8 <i_7145>:
    800073d8:	e8413823          	sd	tp,-368(sp)

00000000800073dc <i_7146>:
    800073dc:	0040c463          	blt	ra,tp,800073e4 <i_7148>

00000000800073e0 <i_7147>:
    800073e0:	001080b3          	add	ra,ra,ra

00000000800073e4 <i_7148>:
    800073e4:	001bdb93          	srli	s7,s7,0x1

00000000800073e8 <i_7149>:
    800073e8:	01600e93          	li	t4,22

00000000800073ec <i_7150>:
    800073ec:	41dbd0b3          	sra	ra,s7,t4

00000000800073f0 <i_7151>:
    800073f0:	12714783          	lbu	a5,295(sp)

00000000800073f4 <i_7152>:
    800073f4:	00000013          	nop

00000000800073f8 <i_7153>:
    800073f8:	00128293          	addi	t0,t0,1 # ffffffff867d6001 <_end+0xffffffff067c5bed>
    800073fc:	fc42eae3          	bltu	t0,tp,800073d0 <i_7143>

0000000080007400 <i_7154>:
    80007400:	0017cc63          	blt	a5,ra,80007418 <i_7160>

0000000080007404 <i_7155>:
    80007404:	03300c13          	li	s8,51

0000000080007408 <i_7156>:
    80007408:	018b9bb3          	sll	s7,s7,s8

000000008000740c <i_7157>:
    8000740c:	1b811423          	sh	s8,424(sp)

0000000080007410 <i_7158>:
    80007410:	c7bbcd93          	xori	s11,s7,-901

0000000080007414 <i_7159>:
    80007414:	00000013          	nop

0000000080007418 <i_7160>:
    80007418:	f1b12623          	sw	s11,-244(sp)

000000008000741c <i_7161>:
    8000741c:	029c0c33          	mul	s8,s8,s1

0000000080007420 <i_7162>:
    80007420:	83e00793          	li	a5,-1986

0000000080007424 <i_7163>:
    80007424:	84400b93          	li	s7,-1980

0000000080007428 <i_7164>:
    80007428:	017d84b3          	add	s1,s11,s7

000000008000742c <i_7165>:
    8000742c:	0044dd9b          	srliw	s11,s1,0x4

0000000080007430 <i_7166>:
    80007430:	037cb4b3          	mulhu	s1,s9,s7

0000000080007434 <i_7167>:
    80007434:	00899a63          	bne	s3,s0,80007448 <i_7172>

0000000080007438 <i_7168>:
    80007438:	03013183          	ld	gp,48(sp)

000000008000743c <i_7169>:
    8000743c:	19712c23          	sw	s7,408(sp)

0000000080007440 <i_7170>:
    80007440:	e2914983          	lbu	s3,-471(sp)

0000000080007444 <i_7171>:
    80007444:	ed311423          	sh	s3,-312(sp)

0000000080007448 <i_7172>:
    80007448:	f7016983          	lwu	s3,-144(sp)

000000008000744c <i_7173>:
    8000744c:	0139f463          	bleu	s3,s3,80007454 <i_7175>

0000000080007450 <i_7174>:
    80007450:	26cbfa93          	andi	s5,s7,620

0000000080007454 <i_7175>:
    80007454:	013ade63          	ble	s3,s5,80007470 <i_7181>

0000000080007458 <i_7176>:
    80007458:	e4813983          	ld	s3,-440(sp)

000000008000745c <i_7177>:
    8000745c:	00178793          	addi	a5,a5,1 # 4488001 <main-0x7bb77fff>
    80007460:	fd77c4e3          	blt	a5,s7,80007428 <i_7164>

0000000080007464 <i_7178>:
    80007464:	0211e0b3          	rem	ra,gp,ra

0000000080007468 <i_7179>:
    80007468:	015af463          	bleu	s5,s5,80007470 <i_7181>

000000008000746c <i_7180>:
    8000746c:	15512023          	sw	s5,320(sp)

0000000080007470 <i_7181>:
    80007470:	0337a9b3          	mulhsu	s3,a5,s3

0000000080007474 <i_7182>:
    80007474:	ea111923          	sh	ra,-334(sp)

0000000080007478 <i_7183>:
    80007478:	15a15b03          	lhu	s6,346(sp)

000000008000747c <i_7184>:
    8000747c:	1bc11083          	lh	ra,444(sp)

0000000080007480 <i_7185>:
    80007480:	03611183          	lh	gp,54(sp)

0000000080007484 <i_7186>:
    80007484:	f8813b03          	ld	s6,-120(sp)

0000000080007488 <i_7187>:
    80007488:	0366db3b          	divuw	s6,a3,s6

000000008000748c <i_7188>:
    8000748c:	0071cc63          	blt	gp,t2,800074a4 <i_7194>

0000000080007490 <i_7189>:
    80007490:	02d6c6b3          	div	a3,a3,a3

0000000080007494 <i_7190>:
    80007494:	0d816683          	lwu	a3,216(sp)

0000000080007498 <i_7191>:
    80007498:	149b0d1b          	addiw	s10,s6,329

000000008000749c <i_7192>:
    8000749c:	03411683          	lh	a3,52(sp)

00000000800074a0 <i_7193>:
    800074a0:	1da103a3          	sb	s10,455(sp)

00000000800074a4 <i_7194>:
    800074a4:	03a6c263          	blt	a3,s10,800074c8 <i_7203>

00000000800074a8 <i_7195>:
    800074a8:	03449063          	bne	s1,s4,800074c8 <i_7203>

00000000800074ac <i_7196>:
    800074ac:	f6d13823          	sd	a3,-144(sp)

00000000800074b0 <i_7197>:
    800074b0:	01500513          	li	a0,21

00000000800074b4 <i_7198>:
    800074b4:	00a11a33          	sll	s4,sp,a0

00000000800074b8 <i_7199>:
    800074b8:	f4a13c23          	sd	a0,-168(sp)

00000000800074bc <i_7200>:
    800074bc:	00da7863          	bleu	a3,s4,800074cc <i_7204>

00000000800074c0 <i_7201>:
    800074c0:	00aa0a33          	add	s4,s4,a0

00000000800074c4 <i_7202>:
    800074c4:	00a56533          	or	a0,a0,a0

00000000800074c8 <i_7203>:
    800074c8:	e3e14483          	lbu	s1,-450(sp)

00000000800074cc <i_7204>:
    800074cc:	fde13823          	sd	t5,-48(sp)

00000000800074d0 <i_7205>:
    800074d0:	03450f33          	mul	t5,a0,s4

00000000800074d4 <i_7206>:
    800074d4:	1db56f13          	ori	t5,a0,475

00000000800074d8 <i_7207>:
    800074d8:	00af6e63          	bltu	t5,a0,800074f4 <i_7214>

00000000800074dc <i_7208>:
    800074dc:	ee611d83          	lh	s11,-282(sp)

00000000800074e0 <i_7209>:
    800074e0:	1cc10503          	lb	a0,460(sp)

00000000800074e4 <i_7210>:
    800074e4:	e7415b83          	lhu	s7,-396(sp)

00000000800074e8 <i_7211>:
    800074e8:	00000013          	nop

00000000800074ec <i_7212>:
    800074ec:	6a4eb6b7          	lui	a3,0x6a4eb

00000000800074f0 <i_7213>:
    800074f0:	fac11e03          	lh	t3,-84(sp)

00000000800074f4 <i_7214>:
    800074f4:	77773d17          	auipc	s10,0x77773

00000000800074f8 <i_7215>:
    800074f8:	03ce2d33          	mulhsu	s10,t3,t3

00000000800074fc <i_7216>:
    800074fc:	86800493          	li	s1,-1944

0000000080007500 <i_7217>:
    80007500:	87800b93          	li	s7,-1928

0000000080007504 <i_7218>:
    80007504:	f0812a03          	lw	s4,-248(sp)

0000000080007508 <i_7219>:
    80007508:	01b70d33          	add	s10,a4,s11

000000008000750c <i_7220>:
    8000750c:	e8611523          	sh	t1,-374(sp)

0000000080007510 <i_7221>:
    80007510:	03ca4f3b          	divw	t5,s4,t3

0000000080007514 <i_7222>:
    80007514:	02a48463          	beq	s1,a0,8000753c <i_7231>

0000000080007518 <i_7223>:
    80007518:	03a4ce3b          	divw	t3,s1,s10

000000008000751c <i_7224>:
    8000751c:	00148493          	addi	s1,s1,1
    80007520:	fe9bd2e3          	ble	s1,s7,80007504 <i_7218>

0000000080007524 <i_7225>:
    80007524:	0aa10b23          	sb	a0,182(sp)

0000000080007528 <i_7226>:
    80007528:	e5e12823          	sw	t5,-432(sp)

000000008000752c <i_7227>:
    8000752c:	01ee0a63          	beq	t3,t5,80007540 <i_7232>

0000000080007530 <i_7228>:
    80007530:	2bad6d13          	ori	s10,s10,698

0000000080007534 <i_7229>:
    80007534:	ffe15e03          	lhu	t3,-2(sp)

0000000080007538 <i_7230>:
    80007538:	014e6c63          	bltu	t3,s4,80007550 <i_7236>

000000008000753c <i_7231>:
    8000753c:	03ce7263          	bleu	t3,t3,80007560 <i_7240>

0000000080007540 <i_7232>:
    80007540:	034e6a33          	rem	s4,t3,s4

0000000080007544 <i_7233>:
    80007544:	039e6cb3          	rem	s9,t3,s9

0000000080007548 <i_7234>:
    80007548:	03ccf263          	bleu	t3,s9,8000756c <i_7243>

000000008000754c <i_7235>:
    8000754c:	13c13423          	sd	t3,296(sp)

0000000080007550 <i_7236>:
    80007550:	02200e13          	li	t3,34

0000000080007554 <i_7237>:
    80007554:	01cd59b3          	srl	s3,s10,t3

0000000080007558 <i_7238>:
    80007558:	0d011c03          	lh	s8,208(sp)

000000008000755c <i_7239>:
    8000755c:	e3012283          	lw	t0,-464(sp)

0000000080007560 <i_7240>:
    80007560:	033c7c33          	remu	s8,s8,s3

0000000080007564 <i_7241>:
    80007564:	0b013e83          	ld	t4,176(sp)

0000000080007568 <i_7242>:
    80007568:	0011919b          	slliw	gp,gp,0x1

000000008000756c <i_7243>:
    8000756c:	0eaef9b7          	lui	s3,0xeaef

0000000080007570 <i_7244>:
    80007570:	038c87bb          	mulw	a5,s9,s8

0000000080007574 <i_7245>:
    80007574:	018efe63          	bleu	s8,t4,80007590 <i_7252>

0000000080007578 <i_7246>:
    80007578:	07710e83          	lb	t4,119(sp)

000000008000757c <i_7247>:
    8000757c:	ef011d23          	sh	a6,-262(sp)

0000000080007580 <i_7248>:
    80007580:	f4f14e03          	lbu	t3,-177(sp)

0000000080007584 <i_7249>:
    80007584:	fb810423          	sb	s8,-88(sp)

0000000080007588 <i_7250>:
    80007588:	404ed81b          	sraiw	a6,t4,0x4

000000008000758c <i_7251>:
    8000758c:	00e66633          	or	a2,a2,a4

0000000080007590 <i_7252>:
    80007590:	e2610923          	sb	t1,-462(sp)

0000000080007594 <i_7253>:
    80007594:	0f012c23          	sw	a6,248(sp)

0000000080007598 <i_7254>:
    80007598:	87600313          	li	t1,-1930

000000008000759c <i_7255>:
    8000759c:	88000e93          	li	t4,-1920

00000000800075a0 <i_7256>:
    800075a0:	ed813c03          	ld	s8,-296(sp)

00000000800075a4 <i_7257>:
    800075a4:	ebd14803          	lbu	a6,-323(sp)

00000000800075a8 <i_7258>:
    800075a8:	04813803          	ld	a6,72(sp)

00000000800075ac <i_7259>:
    800075ac:	010101a3          	sb	a6,3(sp)

00000000800075b0 <i_7260>:
    800075b0:	030cf663          	bleu	a6,s9,800075dc <i_7270>

00000000800075b4 <i_7261>:
    800075b4:	05913823          	sd	s9,80(sp)

00000000800075b8 <i_7262>:
    800075b8:	fa012803          	lw	a6,-96(sp)

00000000800075bc <i_7263>:
    800075bc:	03086263          	bltu	a6,a6,800075e0 <i_7271>

00000000800075c0 <i_7264>:
    800075c0:	00130313          	addi	t1,t1,1
    800075c4:	fc6edee3          	ble	t1,t4,800075a0 <i_7256>

00000000800075c8 <i_7265>:
    800075c8:	03783833          	mulhu	a6,a6,s7

00000000800075cc <i_7266>:
    800075cc:	00e00e93          	li	t4,14

00000000800075d0 <i_7267>:
    800075d0:	01dbdbbb          	srlw	s7,s7,t4

00000000800075d4 <i_7268>:
    800075d4:	15d11823          	sh	t4,336(sp)

00000000800075d8 <i_7269>:
    800075d8:	f6411a03          	lh	s4,-156(sp)

00000000800075dc <i_7270>:
    800075dc:	01de8eb3          	add	t4,t4,t4

00000000800075e0 <i_7271>:
    800075e0:	15214d83          	lbu	s11,338(sp)

00000000800075e4 <i_7272>:
    800075e4:	fd813f03          	ld	t5,-40(sp)

00000000800075e8 <i_7273>:
    800075e8:	01e67c63          	bleu	t5,a2,80007600 <i_7279>

00000000800075ec <i_7274>:
    800075ec:	12414583          	lbu	a1,292(sp)

00000000800075f0 <i_7275>:
    800075f0:	02012583          	lw	a1,32(sp)

00000000800075f4 <i_7276>:
    800075f4:	f9e13023          	sd	t5,-128(sp)

00000000800075f8 <i_7277>:
    800075f8:	02b5edb3          	rem	s11,a1,a1

00000000800075fc <i_7278>:
    800075fc:	0015c5b3          	xor	a1,a1,ra

0000000080007600 <i_7279>:
    80007600:	f2b12823          	sw	a1,-208(sp)

0000000080007604 <i_7280>:
    80007604:	00b5e4b3          	or	s1,a1,a1

0000000080007608 <i_7281>:
    80007608:	0045959b          	slliw	a1,a1,0x4

000000008000760c <i_7282>:
    8000760c:	e2b13023          	sd	a1,-480(sp)

0000000080007610 <i_7283>:
    80007610:	0034d81b          	srliw	a6,s1,0x3

0000000080007614 <i_7284>:
    80007614:	1a615a03          	lhu	s4,422(sp)

0000000080007618 <i_7285>:
    80007618:	00000013          	nop

000000008000761c <i_7286>:
    8000761c:	e5914a03          	lbu	s4,-423(sp)

0000000080007620 <i_7287>:
    80007620:	88400a93          	li	s5,-1916

0000000080007624 <i_7288>:
    80007624:	89400593          	li	a1,-1900

0000000080007628 <i_7289>:
    80007628:	13010123          	sb	a6,290(sp)

000000008000762c <i_7290>:
    8000762c:	001a8a93          	addi	s5,s5,1
    80007630:	febaece3          	bltu	s5,a1,80007628 <i_7289>

0000000080007634 <i_7291>:
    80007634:	1c016c03          	lwu	s8,448(sp)

0000000080007638 <i_7292>:
    80007638:	009c1a63          	bne	s8,s1,8000764c <i_7297>

000000008000763c <i_7293>:
    8000763c:	19410223          	sb	s4,388(sp)

0000000080007640 <i_7294>:
    80007640:	402c04b3          	sub	s1,s8,sp

0000000080007644 <i_7295>:
    80007644:	00bc7263          	bleu	a1,s8,80007648 <i_7296>

0000000080007648 <i_7296>:
    80007648:	03411583          	lh	a1,52(sp)

000000008000764c <i_7297>:
    8000764c:	009af7b3          	and	a5,s5,s1

0000000080007650 <i_7298>:
    80007650:	72887b17          	auipc	s6,0x72887

0000000080007654 <i_7299>:
    80007654:	08415a83          	lhu	s5,132(sp)

0000000080007658 <i_7300>:
    80007658:	f8c13c23          	sd	a2,-104(sp)

000000008000765c <i_7301>:
    8000765c:	eaf11b23          	sh	a5,-330(sp)

0000000080007660 <i_7302>:
    80007660:	f0611783          	lh	a5,-250(sp)

0000000080007664 <i_7303>:
    80007664:	05610683          	lb	a3,86(sp)

0000000080007668 <i_7304>:
    80007668:	0cf11a23          	sh	a5,212(sp)

000000008000766c <i_7305>:
    8000766c:	79400a93          	li	s5,1940

0000000080007670 <i_7306>:
    80007670:	7a800793          	li	a5,1960

0000000080007674 <i_7307>:
    80007674:	00500c13          	li	s8,5

0000000080007678 <i_7308>:
    80007678:	0187de33          	srl	t3,a5,s8

000000008000767c <i_7309>:
    8000767c:	001a8a93          	addi	s5,s5,1
    80007680:	fefaeae3          	bltu	s5,a5,80007674 <i_7307>

0000000080007684 <i_7310>:
    80007684:	08f10d23          	sb	a5,154(sp)

0000000080007688 <i_7311>:
    80007688:	01100393          	li	t2,17

000000008000768c <i_7312>:
    8000768c:	00761bbb          	sllw	s7,a2,t2

0000000080007690 <i_7313>:
    80007690:	b21e4a93          	xori	s5,t3,-1247

0000000080007694 <i_7314>:
    80007694:	02d60833          	mul	a6,a2,a3

0000000080007698 <i_7315>:
    80007698:	03016683          	lwu	a3,48(sp)

000000008000769c <i_7316>:
    8000769c:	006ac263          	blt	s5,t1,800076a0 <i_7317>

00000000800076a0 <i_7317>:
    800076a0:	f3813e03          	ld	t3,-200(sp)

00000000800076a4 <i_7318>:
    800076a4:	00f7c1b3          	xor	gp,a5,a5

00000000800076a8 <i_7319>:
    800076a8:	ee312623          	sw	gp,-276(sp)

00000000800076ac <i_7320>:
    800076ac:	00c69a63          	bne	a3,a2,800076c0 <i_7325>

00000000800076b0 <i_7321>:
    800076b0:	01cf5263          	ble	t3,t5,800076b4 <i_7322>

00000000800076b4 <i_7322>:
    800076b4:	1f012223          	sw	a6,484(sp)

00000000800076b8 <i_7323>:
    800076b8:	f9610803          	lb	a6,-106(sp)

00000000800076bc <i_7324>:
    800076bc:	0f811383          	lh	t2,248(sp)

00000000800076c0 <i_7325>:
    800076c0:	4023d593          	srai	a1,t2,0x2

00000000800076c4 <i_7326>:
    800076c4:	0303c9b3          	div	s3,t2,a6

00000000800076c8 <i_7327>:
    800076c8:	00500613          	li	a2,5

00000000800076cc <i_7328>:
    800076cc:	00cd53bb          	srlw	t2,s10,a2

00000000800076d0 <i_7329>:
    800076d0:	ec415603          	lhu	a2,-316(sp)

00000000800076d4 <i_7330>:
    800076d4:	f3211383          	lh	t2,-206(sp)

00000000800076d8 <i_7331>:
    800076d8:	eb210a83          	lb	s5,-334(sp)

00000000800076dc <i_7332>:
    800076dc:	00c99663          	bne	s3,a2,800076e8 <i_7335>

00000000800076e0 <i_7333>:
    800076e0:	00c98a63          	beq	s3,a2,800076f4 <i_7338>

00000000800076e4 <i_7334>:
    800076e4:	05a14603          	lbu	a2,90(sp)

00000000800076e8 <i_7335>:
    800076e8:	0fe10a83          	lb	s5,254(sp)

00000000800076ec <i_7336>:
    800076ec:	01900793          	li	a5,25

00000000800076f0 <i_7337>:
    800076f0:	40f159b3          	sra	s3,sp,a5

00000000800076f4 <i_7338>:
    800076f4:	44ffa797          	auipc	a5,0x44ffa

00000000800076f8 <i_7339>:
    800076f8:	00600b93          	li	s7,6

00000000800076fc <i_7340>:
    800076fc:	017adabb          	srlw	s5,s5,s7

0000000080007700 <i_7341>:
    80007700:	007bce63          	blt	s7,t2,8000771c <i_7348>

0000000080007704 <i_7342>:
    80007704:	0177d463          	ble	s7,a5,8000770c <i_7344>

0000000080007708 <i_7343>:
    80007708:	40878433          	sub	s0,a5,s0

000000008000770c <i_7344>:
    8000770c:	13c16783          	lwu	a5,316(sp)

0000000080007710 <i_7345>:
    80007710:	0377c0b3          	div	ra,a5,s7

0000000080007714 <i_7346>:
    80007714:	00140663          	beq	s0,ra,80007720 <i_7349>

0000000080007718 <i_7347>:
    80007718:	40f40abb          	subw	s5,s0,a5

000000008000771c <i_7348>:
    8000771c:	1d811303          	lh	t1,472(sp)

0000000080007720 <i_7349>:
    80007720:	01800413          	li	s0,24

0000000080007724 <i_7350>:
    80007724:	408a5a33          	sra	s4,s4,s0

0000000080007728 <i_7351>:
    80007728:	7da00293          	li	t0,2010

000000008000772c <i_7352>:
    8000772c:	7e500993          	li	s3,2021

0000000080007730 <i_7353>:
    80007730:	e7411d03          	lh	s10,-396(sp)

0000000080007734 <i_7354>:
    80007734:	e9813a03          	ld	s4,-360(sp)

0000000080007738 <i_7355>:
    80007738:	03445063          	ble	s4,s0,80007758 <i_7362>

000000008000773c <i_7356>:
    8000773c:	00900a13          	li	s4,9

0000000080007740 <i_7357>:
    80007740:	014a5d3b          	srlw	s10,s4,s4

0000000080007744 <i_7358>:
    80007744:	f2e11d03          	lh	s10,-210(sp)

0000000080007748 <i_7359>:
    80007748:	00128293          	addi	t0,t0,1
    8000774c:	fe59d2e3          	ble	t0,s3,80007730 <i_7353>

0000000080007750 <i_7360>:
    80007750:	263e8e93          	addi	t4,t4,611

0000000080007754 <i_7361>:
    80007754:	18012a03          	lw	s4,384(sp)

0000000080007758 <i_7362>:
    80007758:	eb413823          	sd	s4,-336(sp)

000000008000775c <i_7363>:
    8000775c:	05413c23          	sd	s4,88(sp)

0000000080007760 <i_7364>:
    80007760:	01500d13          	li	s10,21

0000000080007764 <i_7365>:
    80007764:	01a996b3          	sll	a3,s3,s10

0000000080007768 <i_7366>:
    80007768:	f0811683          	lh	a3,-248(sp)

000000008000776c <i_7367>:
    8000776c:	e2e14a83          	lbu	s5,-466(sp)

0000000080007770 <i_7368>:
    80007770:	00dafc33          	and	s8,s5,a3

0000000080007774 <i_7369>:
    80007774:	03c12023          	sw	t3,32(sp)

0000000080007778 <i_7370>:
    80007778:	f5a10b03          	lb	s6,-166(sp)

000000008000777c <i_7371>:
    8000777c:	09813023          	sd	s8,128(sp)

0000000080007780 <i_7372>:
    80007780:	0e415483          	lhu	s1,228(sp)

0000000080007784 <i_7373>:
    80007784:	008e2e33          	slt	t3,t3,s0

0000000080007788 <i_7374>:
    80007788:	79f00c13          	li	s8,1951

000000008000778c <i_7375>:
    8000778c:	7a800693          	li	a3,1960

0000000080007790 <i_7376>:
    80007790:	e6911323          	sh	s1,-410(sp)

0000000080007794 <i_7377>:
    80007794:	0284f43b          	remuw	s0,s1,s0

0000000080007798 <i_7378>:
    80007798:	fdc11a23          	sh	t3,-44(sp)

000000008000779c <i_7379>:
    8000779c:	001c0c13          	addi	s8,s8,1
    800077a0:	ff86d8e3          	ble	s8,a3,80007790 <i_7376>

00000000800077a4 <i_7380>:
    800077a4:	e4c12d83          	lw	s11,-436(sp)

00000000800077a8 <i_7381>:
    800077a8:	f4614d83          	lbu	s11,-186(sp)

00000000800077ac <i_7382>:
    800077ac:	4034df13          	srai	t5,s1,0x3

00000000800077b0 <i_7383>:
    800077b0:	05b13823          	sd	s11,80(sp)

00000000800077b4 <i_7384>:
    800077b4:	009dc663          	blt	s11,s1,800077c0 <i_7387>

00000000800077b8 <i_7385>:
    800077b8:	00000013          	nop

00000000800077bc <i_7386>:
    800077bc:	03b280bb          	mulw	ra,t0,s11

00000000800077c0 <i_7387>:
    800077c0:	e1c11d83          	lh	s11,-484(sp)

00000000800077c4 <i_7388>:
    800077c4:	f2912423          	sw	s1,-216(sp)

00000000800077c8 <i_7389>:
    800077c8:	84100413          	li	s0,-1983

00000000800077cc <i_7390>:
    800077cc:	85400313          	li	t1,-1964

00000000800077d0 <i_7391>:
    800077d0:	f5e10623          	sb	t5,-180(sp)

00000000800077d4 <i_7392>:
    800077d4:	00fc84b3          	add	s1,s9,a5

00000000800077d8 <i_7393>:
    800077d8:	77900793          	li	a5,1913

00000000800077dc <i_7394>:
    800077dc:	78900213          	li	tp,1929

00000000800077e0 <i_7395>:
    800077e0:	10810383          	lb	t2,264(sp)

00000000800077e4 <i_7396>:
    800077e4:	00178793          	addi	a5,a5,1 # c50016f5 <_end+0x44ff12e1>
    800077e8:	fe47cce3          	blt	a5,tp,800077e0 <i_7395>

00000000800077ec <i_7397>:
    800077ec:	11811383          	lh	t2,280(sp)

00000000800077f0 <i_7398>:
    800077f0:	02840463          	beq	s0,s0,80007818 <i_7407>

00000000800077f4 <i_7399>:
    800077f4:	004f149b          	slliw	s1,t5,0x4

00000000800077f8 <i_7400>:
    800077f8:	00000013          	nop

00000000800077fc <i_7401>:
    800077fc:	40840a3b          	subw	s4,s0,s0

0000000080007800 <i_7402>:
    80007800:	00140413          	addi	s0,s0,1
    80007804:	fc6466e3          	bltu	s0,t1,800077d0 <i_7391>

0000000080007808 <i_7403>:
    80007808:	12710523          	sb	t2,298(sp)

000000008000780c <i_7404>:
    8000780c:	001f0333          	add	t1,t5,ra

0000000080007810 <i_7405>:
    80007810:	029a1633          	mulh	a2,s4,s1

0000000080007814 <i_7406>:
    80007814:	f3b100a3          	sb	s11,-223(sp)

0000000080007818 <i_7407>:
    80007818:	fe015d83          	lhu	s11,-32(sp)

000000008000781c <i_7408>:
    8000781c:	ed211483          	lh	s1,-302(sp)

0000000080007820 <i_7409>:
    80007820:	e8c15d83          	lhu	s11,-372(sp)

0000000080007824 <i_7410>:
    80007824:	fd815303          	lhu	t1,-40(sp)

0000000080007828 <i_7411>:
    80007828:	03b494b3          	mulh	s1,s1,s11

000000008000782c <i_7412>:
    8000782c:	0d416303          	lwu	t1,212(sp)

0000000080007830 <i_7413>:
    80007830:	83300d93          	li	s11,-1997

0000000080007834 <i_7414>:
    80007834:	83800c93          	li	s9,-1992

0000000080007838 <i_7415>:
    80007838:	00000013          	nop

000000008000783c <i_7416>:
    8000783c:	ff816303          	lwu	t1,-8(sp)

0000000080007840 <i_7417>:
    80007840:	00231a93          	slli	s5,t1,0x2

0000000080007844 <i_7418>:
    80007844:	fc612e23          	sw	t1,-36(sp)

0000000080007848 <i_7419>:
    80007848:	e4013503          	ld	a0,-448(sp)

000000008000784c <i_7420>:
    8000784c:	44532e13          	slti	t3,t1,1093

0000000080007850 <i_7421>:
    80007850:	001bdb93          	srli	s7,s7,0x1

0000000080007854 <i_7422>:
    80007854:	9cf76793          	ori	a5,a4,-1585

0000000080007858 <i_7423>:
    80007858:	03835463          	ble	s8,t1,80007880 <i_7432>

000000008000785c <i_7424>:
    8000785c:	e6013b83          	ld	s7,-416(sp)

0000000080007860 <i_7425>:
    80007860:	001d8d93          	addi	s11,s11,1
    80007864:	fdbcdae3          	ble	s11,s9,80007838 <i_7415>

0000000080007868 <i_7426>:
    80007868:	02ae4263          	blt	t3,a0,8000788c <i_7435>

000000008000786c <i_7427>:
    8000786c:	ed17ac13          	slti	s8,a5,-303

0000000080007870 <i_7428>:
    80007870:	0187fa63          	bleu	s8,a5,80007884 <i_7433>

0000000080007874 <i_7429>:
    80007874:	037e7263          	bleu	s7,t3,80007898 <i_7438>

0000000080007878 <i_7430>:
    80007878:	15b14d03          	lbu	s10,347(sp)

000000008000787c <i_7431>:
    8000787c:	eec16403          	lwu	s0,-276(sp)

0000000080007880 <i_7432>:
    80007880:	f8d14b83          	lbu	s7,-115(sp)

0000000080007884 <i_7433>:
    80007884:	008e4863          	blt	t3,s0,80007894 <i_7437>

0000000080007888 <i_7434>:
    80007888:	01747263          	bleu	s7,s0,8000788c <i_7435>

000000008000788c <i_7435>:
    8000788c:	09811323          	sh	s8,134(sp)

0000000080007890 <i_7436>:
    80007890:	ef813403          	ld	s0,-264(sp)

0000000080007894 <i_7437>:
    80007894:	04c15a83          	lhu	s5,76(sp)

0000000080007898 <i_7438>:
    80007898:	611b8293          	addi	t0,s7,1553

000000008000789c <i_7439>:
    8000789c:	15714203          	lbu	tp,343(sp)

00000000800078a0 <i_7440>:
    800078a0:	f2113823          	sd	ra,-208(sp)

00000000800078a4 <i_7441>:
    800078a4:	01a00813          	li	a6,26

00000000800078a8 <i_7442>:
    800078a8:	0102d7bb          	srlw	a5,t0,a6

00000000800078ac <i_7443>:
    800078ac:	00479263          	bne	a5,tp,800078b0 <i_7444>

00000000800078b0 <i_7444>:
    800078b0:	f5816a83          	lwu	s5,-168(sp)

00000000800078b4 <i_7445>:
    800078b4:	401b5b13          	srai	s6,s6,0x1

00000000800078b8 <i_7446>:
    800078b8:	ef510b23          	sb	s5,-266(sp)

00000000800078bc <i_7447>:
    800078bc:	01624863          	blt	tp,s6,800078cc <i_7451>

00000000800078c0 <i_7448>:
    800078c0:	05c15b03          	lhu	s6,92(sp)

00000000800078c4 <i_7449>:
    800078c4:	00100d93          	li	s11,1

00000000800078c8 <i_7450>:
    800078c8:	01be5f3b          	srlw	t5,t3,s11

00000000800078cc <i_7451>:
    800078cc:	fc012183          	lw	gp,-64(sp)

00000000800078d0 <i_7452>:
    800078d0:	00380863          	beq	a6,gp,800078e0 <i_7456>

00000000800078d4 <i_7453>:
    800078d4:	016b6263          	bltu	s6,s6,800078d8 <i_7454>

00000000800078d8 <i_7454>:
    800078d8:	f7c12c03          	lw	s8,-132(sp)

00000000800078dc <i_7455>:
    800078dc:	016b6663          	bltu	s6,s6,800078e8 <i_7458>

00000000800078e0 <i_7456>:
    800078e0:	023b5063          	ble	gp,s6,80007900 <i_7464>

00000000800078e4 <i_7457>:
    800078e4:	00000013          	nop

00000000800078e8 <i_7458>:
    800078e8:	e8011383          	lh	t2,-384(sp)

00000000800078ec <i_7459>:
    800078ec:	09816d83          	lwu	s11,152(sp)

00000000800078f0 <i_7460>:
    800078f0:	08811d03          	lh	s10,136(sp)

00000000800078f4 <i_7461>:
    800078f4:	00000013          	nop

00000000800078f8 <i_7462>:
    800078f8:	00000013          	nop

00000000800078fc <i_7463>:
    800078fc:	02b1e233          	rem	tp,gp,a1

0000000080007900 <i_7464>:
    80007900:	1ba12223          	sw	s10,420(sp)

0000000080007904 <i_7465>:
    80007904:	00000013          	nop

0000000080007908 <i_7466>:
    80007908:	75400193          	li	gp,1876

000000008000790c <i_7467>:
    8000790c:	76000593          	li	a1,1888

0000000080007910 <i_7468>:
    80007910:	f7110203          	lb	tp,-143(sp)

0000000080007914 <i_7469>:
    80007914:	0373fbb3          	remu	s7,t2,s7

0000000080007918 <i_7470>:
    80007918:	381eae93          	slti	t4,t4,897

000000008000791c <i_7471>:
    8000791c:	0063e3b3          	or	t2,t2,t1

0000000080007920 <i_7472>:
    80007920:	e3615783          	lhu	a5,-458(sp)

0000000080007924 <i_7473>:
    80007924:	00118193          	addi	gp,gp,1
    80007928:	feb1e4e3          	bltu	gp,a1,80007910 <i_7468>

000000008000792c <i_7474>:
    8000792c:	00f3fa63          	bleu	a5,t2,80007940 <i_7479>

0000000080007930 <i_7475>:
    80007930:	11012f03          	lw	t5,272(sp)

0000000080007934 <i_7476>:
    80007934:	261f0593          	addi	a1,t5,609

0000000080007938 <i_7477>:
    80007938:	027dfdb3          	remu	s11,s11,t2

000000008000793c <i_7478>:
    8000793c:	02f566bb          	remw	a3,a0,a5

0000000080007940 <i_7479>:
    80007940:	f4d12e23          	sw	a3,-164(sp)

0000000080007944 <i_7480>:
    80007944:	16012e03          	lw	t3,352(sp)

0000000080007948 <i_7481>:
    80007948:	e8215583          	lhu	a1,-382(sp)

000000008000794c <i_7482>:
    8000794c:	e4c16203          	lwu	tp,-436(sp)

0000000080007950 <i_7483>:
    80007950:	04b11223          	sh	a1,68(sp)

0000000080007954 <i_7484>:
    80007954:	00bddc63          	ble	a1,s11,8000796c <i_7490>

0000000080007958 <i_7485>:
    80007958:	0275e43b          	remw	s0,a1,t2

000000008000795c <i_7486>:
    8000795c:	00b27233          	and	tp,tp,a1

0000000080007960 <i_7487>:
    80007960:	00800393          	li	t2,8

0000000080007964 <i_7488>:
    80007964:	0073da3b          	srlw	s4,t2,t2

0000000080007968 <i_7489>:
    80007968:	0015999b          	slliw	s3,a1,0x1

000000008000796c <i_7490>:
    8000796c:	f6410f23          	sb	tp,-130(sp)

0000000080007970 <i_7491>:
    80007970:	00e26e63          	bltu	tp,a4,8000798c <i_7498>

0000000080007974 <i_7492>:
    80007974:	01c54c63          	blt	a0,t3,8000798c <i_7498>

0000000080007978 <i_7493>:
    80007978:	40798db3          	sub	s11,s3,t2

000000008000797c <i_7494>:
    8000797c:	0038d39b          	srliw	t2,a7,0x3

0000000080007980 <i_7495>:
    80007980:	0046e1b3          	or	gp,a3,tp

0000000080007984 <i_7496>:
    80007984:	0024159b          	slliw	a1,s0,0x2

0000000080007988 <i_7497>:
    80007988:	00b201b3          	add	gp,tp,a1

000000008000798c <i_7498>:
    8000798c:	19e10623          	sb	t5,396(sp)

0000000080007990 <i_7499>:
    80007990:	403207bb          	subw	a5,tp,gp

0000000080007994 <i_7500>:
    80007994:	e9810803          	lb	a6,-360(sp)

0000000080007998 <i_7501>:
    80007998:	00812503          	lw	a0,8(sp)

000000008000799c <i_7502>:
    8000799c:	0215d463          	ble	ra,a1,800079c4 <i_7512>

00000000800079a0 <i_7503>:
    800079a0:	008a0c63          	beq	s4,s0,800079b8 <i_7509>

00000000800079a4 <i_7504>:
    800079a4:	01200e13          	li	t3,18

00000000800079a8 <i_7505>:
    800079a8:	01c597bb          	sllw	a5,a1,t3

00000000800079ac <i_7506>:
    800079ac:	0865ae93          	slti	t4,a1,134

00000000800079b0 <i_7507>:
    800079b0:	fe811183          	lh	gp,-24(sp)

00000000800079b4 <i_7508>:
    800079b4:	e7813303          	ld	t1,-392(sp)

00000000800079b8 <i_7509>:
    800079b8:	0fc16783          	lwu	a5,252(sp)

00000000800079bc <i_7510>:
    800079bc:	024ed463          	ble	tp,t4,800079e4 <i_7520>

00000000800079c0 <i_7511>:
    800079c0:	10816283          	lwu	t0,264(sp)

00000000800079c4 <i_7512>:
    800079c4:	02311923          	sh	gp,50(sp)

00000000800079c8 <i_7513>:
    800079c8:	02de7063          	bleu	a3,t3,800079e8 <i_7521>

00000000800079cc <i_7514>:
    800079cc:	00a6f863          	bleu	a0,a3,800079dc <i_7518>

00000000800079d0 <i_7515>:
    800079d0:	03b78463          	beq	a5,s11,800079f8 <i_7525>

00000000800079d4 <i_7516>:
    800079d4:	14215483          	lhu	s1,322(sp)

00000000800079d8 <i_7517>:
    800079d8:	16f10523          	sb	a5,362(sp)

00000000800079dc <i_7518>:
    800079dc:	ff416483          	lwu	s1,-12(sp)

00000000800079e0 <i_7519>:
    800079e0:	ff016583          	lwu	a1,-16(sp)

00000000800079e4 <i_7520>:
    800079e4:	30e5c793          	xori	a5,a1,782

00000000800079e8 <i_7521>:
    800079e8:	017c1463          	bne	s8,s7,800079f0 <i_7523>

00000000800079ec <i_7522>:
    800079ec:	00410723          	sb	tp,14(sp)

00000000800079f0 <i_7523>:
    800079f0:	fa411083          	lh	ra,-92(sp)

00000000800079f4 <i_7524>:
    800079f4:	bfe89597          	auipc	a1,0xbfe89

00000000800079f8 <i_7525>:
    800079f8:	0180cc33          	xor	s8,ra,s8

00000000800079fc <i_7526>:
    800079fc:	0210b5b3          	mulhu	a1,ra,ra

0000000080007a00 <i_7527>:
    80007a00:	ea214a03          	lbu	s4,-350(sp)

0000000080007a04 <i_7528>:
    80007a04:	01200993          	li	s3,18

0000000080007a08 <i_7529>:
    80007a08:	4136d0bb          	sraw	ra,a3,s3

0000000080007a0c <i_7530>:
    80007a0c:	004a109b          	slliw	ra,s4,0x4

0000000080007a10 <i_7531>:
    80007a10:	eac14403          	lbu	s0,-340(sp)

0000000080007a14 <i_7532>:
    80007a14:	00800313          	li	t1,8

0000000080007a18 <i_7533>:
    80007a18:	006d96bb          	sllw	a3,s11,t1

0000000080007a1c <i_7534>:
    80007a1c:	00d46a63          	bltu	s0,a3,80007a30 <i_7539>

0000000080007a20 <i_7535>:
    80007a20:	e8813823          	sd	s0,-368(sp)

0000000080007a24 <i_7536>:
    80007a24:	1d311523          	sh	s3,458(sp)

0000000080007a28 <i_7537>:
    80007a28:	01a9e663          	bltu	s3,s10,80007a34 <i_7540>

0000000080007a2c <i_7538>:
    80007a2c:	06816403          	lwu	s0,104(sp)

0000000080007a30 <i_7539>:
    80007a30:	00845c63          	ble	s0,s0,80007a48 <i_7545>

0000000080007a34 <i_7540>:
    80007a34:	e2313023          	sd	gp,-480(sp)

0000000080007a38 <i_7541>:
    80007a38:	204efe93          	andi	t4,t4,516

0000000080007a3c <i_7542>:
    80007a3c:	003eec63          	bltu	t4,gp,80007a54 <i_7548>

0000000080007a40 <i_7543>:
    80007a40:	e4312023          	sw	gp,-448(sp)

0000000080007a44 <i_7544>:
    80007a44:	f4c12e83          	lw	t4,-180(sp)

0000000080007a48 <i_7545>:
    80007a48:	12611e83          	lh	t4,294(sp)

0000000080007a4c <i_7546>:
    80007a4c:	01dec663          	blt	t4,t4,80007a58 <i_7549>

0000000080007a50 <i_7547>:
    80007a50:	03de8263          	beq	t4,t4,80007a74 <i_7556>

0000000080007a54 <i_7548>:
    80007a54:	1cc12c03          	lw	s8,460(sp)

0000000080007a58 <i_7549>:
    80007a58:	02325233          	divu	tp,tp,gp

0000000080007a5c <i_7550>:
    80007a5c:	15d12223          	sw	t4,324(sp)

0000000080007a60 <i_7551>:
    80007a60:	023ee263          	bltu	t4,gp,80007a84 <i_7560>

0000000080007a64 <i_7552>:
    80007a64:	01dee233          	or	tp,t4,t4

0000000080007a68 <i_7553>:
    80007a68:	03d80ebb          	mulw	t4,a6,t4

0000000080007a6c <i_7554>:
    80007a6c:	04016383          	lwu	t2,64(sp)

0000000080007a70 <i_7555>:
    80007a70:	ef010f03          	lb	t5,-272(sp)

0000000080007a74 <i_7556>:
    80007a74:	01025463          	ble	a6,tp,80007a7c <i_7558>

0000000080007a78 <i_7557>:
    80007a78:	41e206b3          	sub	a3,tp,t5

0000000080007a7c <i_7558>:
    80007a7c:	e7011e83          	lh	t4,-400(sp)

0000000080007a80 <i_7559>:
    80007a80:	007382b3          	add	t0,t2,t2

0000000080007a84 <i_7560>:
    80007a84:	f3d13c23          	sd	t4,-200(sp)

0000000080007a88 <i_7561>:
    80007a88:	010862b3          	or	t0,a6,a6

0000000080007a8c <i_7562>:
    80007a8c:	0036929b          	slliw	t0,a3,0x3

0000000080007a90 <i_7563>:
    80007a90:	85600f13          	li	t5,-1962

0000000080007a94 <i_7564>:
    80007a94:	86600813          	li	a6,-1946

0000000080007a98 <i_7565>:
    80007a98:	001f0f13          	addi	t5,t5,1
    80007a9c:	ffe85ee3          	ble	t5,a6,80007a98 <i_7565>

0000000080007aa0 <i_7566>:
    80007aa0:	0e111823          	sh	ra,240(sp)

0000000080007aa4 <i_7567>:
    80007aa4:	f8215e83          	lhu	t4,-126(sp)

0000000080007aa8 <i_7568>:
    80007aa8:	06712023          	sw	t2,96(sp)

0000000080007aac <i_7569>:
    80007aac:	00229393          	slli	t2,t0,0x2

0000000080007ab0 <i_7570>:
    80007ab0:	b51eb413          	sltiu	s0,t4,-1199

0000000080007ab4 <i_7571>:
    80007ab4:	edd10623          	sb	t4,-308(sp)

0000000080007ab8 <i_7572>:
    80007ab8:	01c00193          	li	gp,28

0000000080007abc <i_7573>:
    80007abc:	4032543b          	sraw	s0,tp,gp

0000000080007ac0 <i_7574>:
    80007ac0:	0271ab33          	mulhsu	s6,gp,t2

0000000080007ac4 <i_7575>:
    80007ac4:	016b6863          	bltu	s6,s6,80007ad4 <i_7579>

0000000080007ac8 <i_7576>:
    80007ac8:	f6a10b03          	lb	s6,-150(sp)

0000000080007acc <i_7577>:
    80007acc:	1b412983          	lw	s3,436(sp)

0000000080007ad0 <i_7578>:
    80007ad0:	003cea63          	bltu	s9,gp,80007ae4 <i_7583>

0000000080007ad4 <i_7579>:
    80007ad4:	01347a33          	and	s4,s0,s3

0000000080007ad8 <i_7580>:
    80007ad8:	0333d1bb          	divuw	gp,t2,s3

0000000080007adc <i_7581>:
    80007adc:	1a412b03          	lw	s6,420(sp)

0000000080007ae0 <i_7582>:
    80007ae0:	0335cd33          	div	s10,a1,s3

0000000080007ae4 <i_7583>:
    80007ae4:	11811983          	lh	s3,280(sp)

0000000080007ae8 <i_7584>:
    80007ae8:	ed415783          	lhu	a5,-300(sp)

0000000080007aec <i_7585>:
    80007aec:	1cf10c23          	sb	a5,472(sp)

0000000080007af0 <i_7586>:
    80007af0:	19310fa3          	sb	s3,415(sp)

0000000080007af4 <i_7587>:
    80007af4:	01ed0f33          	add	t5,s10,t5

0000000080007af8 <i_7588>:
    80007af8:	f2412283          	lw	t0,-220(sp)

0000000080007afc <i_7589>:
    80007afc:	01a2bd33          	sltu	s10,t0,s10

0000000080007b00 <i_7590>:
    80007b00:	06c12d83          	lw	s11,108(sp)

0000000080007b04 <i_7591>:
    80007b04:	01ef7a63          	bleu	t5,t5,80007b18 <i_7596>

0000000080007b08 <i_7592>:
    80007b08:	010de263          	bltu	s11,a6,80007b0c <i_7593>

0000000080007b0c <i_7593>:
    80007b0c:	0b012d03          	lw	s10,176(sp)

0000000080007b10 <i_7594>:
    80007b10:	1db12823          	sw	s11,464(sp)

0000000080007b14 <i_7595>:
    80007b14:	1e015d83          	lhu	s11,480(sp)

0000000080007b18 <i_7596>:
    80007b18:	00ede7b3          	or	a5,s11,a4

0000000080007b1c <i_7597>:
    80007b1c:	01000b13          	li	s6,16

0000000080007b20 <i_7598>:
    80007b20:	0166163b          	sllw	a2,a2,s6

0000000080007b24 <i_7599>:
    80007b24:	7dc00d13          	li	s10,2012

0000000080007b28 <i_7600>:
    80007b28:	7e000693          	li	a3,2016

0000000080007b2c <i_7601>:
    80007b2c:	00000013          	nop

0000000080007b30 <i_7602>:
    80007b30:	78000b93          	li	s7,1920

0000000080007b34 <i_7603>:
    80007b34:	78e00e93          	li	t4,1934

0000000080007b38 <i_7604>:
    80007b38:	03d383bb          	mulw	t2,t2,t4

0000000080007b3c <i_7605>:
    80007b3c:	00011203          	lh	tp,0(sp)

0000000080007b40 <i_7606>:
    80007b40:	02b3c83b          	divw	a6,t2,a1

0000000080007b44 <i_7607>:
    80007b44:	00000013          	nop

0000000080007b48 <i_7608>:
    80007b48:	001b8b93          	addi	s7,s7,1
    80007b4c:	ff7ed6e3          	ble	s7,t4,80007b38 <i_7604>

0000000080007b50 <i_7609>:
    80007b50:	00000013          	nop

0000000080007b54 <i_7610>:
    80007b54:	010383b3          	add	t2,t2,a6

0000000080007b58 <i_7611>:
    80007b58:	4108083b          	subw	a6,a6,a6

0000000080007b5c <i_7612>:
    80007b5c:	0303d83b          	divuw	a6,t2,a6

0000000080007b60 <i_7613>:
    80007b60:	0f114803          	lbu	a6,241(sp)

0000000080007b64 <i_7614>:
    80007b64:	08e15d83          	lhu	s11,142(sp)

0000000080007b68 <i_7615>:
    80007b68:	09c16203          	lwu	tp,156(sp)

0000000080007b6c <i_7616>:
    80007b6c:	001d0d13          	addi	s10,s10,1 # f777a4f5 <_end+0x7776a0e1>
    80007b70:	fba69ce3          	bne	a3,s10,80007b28 <i_7600>

0000000080007b74 <i_7617>:
    80007b74:	f8813803          	ld	a6,-120(sp)

0000000080007b78 <i_7618>:
    80007b78:	e5416303          	lwu	t1,-428(sp)

0000000080007b7c <i_7619>:
    80007b7c:	8cd00213          	li	tp,-1843

0000000080007b80 <i_7620>:
    80007b80:	8d800d13          	li	s10,-1832

0000000080007b84 <i_7621>:
    80007b84:	00600b93          	li	s7,6

0000000080007b88 <i_7622>:
    80007b88:	01719a3b          	sllw	s4,gp,s7

0000000080007b8c <i_7623>:
    80007b8c:	f1412423          	sw	s4,-248(sp)

0000000080007b90 <i_7624>:
    80007b90:	fba14083          	lbu	ra,-70(sp)

0000000080007b94 <i_7625>:
    80007b94:	0ac11083          	lh	ra,172(sp)

0000000080007b98 <i_7626>:
    80007b98:	00120213          	addi	tp,tp,1 # 1 <main-0x7fffffff>
    80007b9c:	ffa264e3          	bltu	tp,s10,80007b84 <i_7621>

0000000080007ba0 <i_7627>:
    80007ba0:	01500093          	li	ra,21

0000000080007ba4 <i_7628>:
    80007ba4:	4018dd3b          	sraw	s10,a7,ra

0000000080007ba8 <i_7629>:
    80007ba8:	01ad6db3          	or	s11,s10,s10

0000000080007bac <i_7630>:
    80007bac:	04c12423          	sw	a2,72(sp)

0000000080007bb0 <i_7631>:
    80007bb0:	0240ce33          	div	t3,ra,tp

0000000080007bb4 <i_7632>:
    80007bb4:	f3b107a3          	sb	s11,-209(sp)

0000000080007bb8 <i_7633>:
    80007bb8:	f8013503          	ld	a0,-128(sp)

0000000080007bbc <i_7634>:
    80007bbc:	8d500693          	li	a3,-1835

0000000080007bc0 <i_7635>:
    80007bc0:	8db00393          	li	t2,-1829

0000000080007bc4 <i_7636>:
    80007bc4:	00168693          	addi	a3,a3,1 # 6a4eb001 <main-0x15b14fff>
    80007bc8:	fe76eee3          	bltu	a3,t2,80007bc4 <i_7636>

0000000080007bcc <i_7637>:
    80007bcc:	f8816083          	lwu	ra,-120(sp)

0000000080007bd0 <i_7638>:
    80007bd0:	00411723          	sh	tp,14(sp)

0000000080007bd4 <i_7639>:
    80007bd4:	75f00213          	li	tp,1887

0000000080007bd8 <i_7640>:
    80007bd8:	76800d93          	li	s11,1896

0000000080007bdc <i_7641>:
    80007bdc:	f8e15a83          	lhu	s5,-114(sp)

0000000080007be0 <i_7642>:
    80007be0:	03594ab3          	div	s5,s2,s5

0000000080007be4 <i_7643>:
    80007be4:	03b0d663          	ble	s11,ra,80007c10 <i_7653>

0000000080007be8 <i_7644>:
    80007be8:	c7c26093          	ori	ra,tp,-900

0000000080007bec <i_7645>:
    80007bec:	00120213          	addi	tp,tp,1 # 1 <main-0x7fffffff>
    80007bf0:	fe4df6e3          	bleu	tp,s11,80007bdc <i_7641>

0000000080007bf4 <i_7646>:
    80007bf4:	026d6433          	rem	s0,s10,t1

0000000080007bf8 <i_7647>:
    80007bf8:	001d4bb3          	xor	s7,s10,ra

0000000080007bfc <i_7648>:
    80007bfc:	028700bb          	mulw	ra,a4,s0

0000000080007c00 <i_7649>:
    80007c00:	037460bb          	remw	ra,s0,s7

0000000080007c04 <i_7650>:
    80007c04:	03e42f33          	mulhsu	t5,s0,t5

0000000080007c08 <i_7651>:
    80007c08:	e5e10ba3          	sb	t5,-425(sp)

0000000080007c0c <i_7652>:
    80007c0c:	0c412083          	lw	ra,196(sp)

0000000080007c10 <i_7653>:
    80007c10:	02310223          	sb	gp,36(sp)

0000000080007c14 <i_7654>:
    80007c14:	008bac33          	slt	s8,s7,s0

0000000080007c18 <i_7655>:
    80007c18:	0210d43b          	divuw	s0,ra,ra

0000000080007c1c <i_7656>:
    80007c1c:	8a600b93          	li	s7,-1882

0000000080007c20 <i_7657>:
    80007c20:	8b500e13          	li	t3,-1867

0000000080007c24 <i_7658>:
    80007c24:	03cd50b3          	divu	ra,s10,t3

0000000080007c28 <i_7659>:
    80007c28:	15412d03          	lw	s10,340(sp)

0000000080007c2c <i_7660>:
    80007c2c:	01811223          	sh	s8,4(sp)

0000000080007c30 <i_7661>:
    80007c30:	00000013          	nop

0000000080007c34 <i_7662>:
    80007c34:	028d7663          	bleu	s0,s10,80007c60 <i_7672>

0000000080007c38 <i_7663>:
    80007c38:	00000013          	nop

0000000080007c3c <i_7664>:
    80007c3c:	02140463          	beq	s0,ra,80007c64 <i_7673>

0000000080007c40 <i_7665>:
    80007c40:	015f5c63          	ble	s5,t5,80007c58 <i_7670>

0000000080007c44 <i_7666>:
    80007c44:	001b8b93          	addi	s7,s7,1
    80007c48:	fdcb9ee3          	bne	s7,t3,80007c24 <i_7658>

0000000080007c4c <i_7667>:
    80007c4c:	03c16083          	lwu	ra,60(sp)

0000000080007c50 <i_7668>:
    80007c50:	0e816a83          	lwu	s5,232(sp)

0000000080007c54 <i_7669>:
    80007c54:	038aeab3          	rem	s5,s5,s8

0000000080007c58 <i_7670>:
    80007c58:	03ad0c3b          	mulw	s8,s10,s10

0000000080007c5c <i_7671>:
    80007c5c:	002c5d13          	srli	s10,s8,0x2

0000000080007c60 <i_7672>:
    80007c60:	01ad0c63          	beq	s10,s10,80007c78 <i_7678>

0000000080007c64 <i_7673>:
    80007c64:	035ac463          	blt	s5,s5,80007c8c <i_7683>

0000000080007c68 <i_7674>:
    80007c68:	0c412d83          	lw	s11,196(sp)

0000000080007c6c <i_7675>:
    80007c6c:	fd510fa3          	sb	s5,-33(sp)

0000000080007c70 <i_7676>:
    80007c70:	035d8533          	mul	a0,s11,s5

0000000080007c74 <i_7677>:
    80007c74:	00ade863          	bltu	s11,a0,80007c84 <i_7681>

0000000080007c78 <i_7678>:
    80007c78:	018c1c63          	bne	s8,s8,80007c90 <i_7684>

0000000080007c7c <i_7679>:
    80007c7c:	01b14e63          	blt	sp,s11,80007c98 <i_7686>

0000000080007c80 <i_7680>:
    80007c80:	03ba8ab3          	mul	s5,s5,s11

0000000080007c84 <i_7681>:
    80007c84:	f6811a83          	lh	s5,-152(sp)

0000000080007c88 <i_7682>:
    80007c88:	03c00493          	li	s1,60

0000000080007c8c <i_7683>:
    80007c8c:	0094d4b3          	srl	s1,s1,s1

0000000080007c90 <i_7684>:
    80007c90:	f8510803          	lb	a6,-123(sp)

0000000080007c94 <i_7685>:
    80007c94:	02cafe33          	remu	t3,s5,a2

0000000080007c98 <i_7686>:
    80007c98:	e6815a83          	lhu	s5,-408(sp)

0000000080007c9c <i_7687>:
    80007c9c:	13813a03          	ld	s4,312(sp)

0000000080007ca0 <i_7688>:
    80007ca0:	00100813          	li	a6,1

0000000080007ca4 <i_7689>:
    80007ca4:	010b953b          	sllw	a0,s7,a6

0000000080007ca8 <i_7690>:
    80007ca8:	01050263          	beq	a0,a6,80007cac <i_7691>

0000000080007cac <i_7691>:
    80007cac:	e9411823          	sh	s4,-368(sp)

0000000080007cb0 <i_7692>:
    80007cb0:	01c54a33          	xor	s4,a0,t3

0000000080007cb4 <i_7693>:
    80007cb4:	02ae6cb3          	rem	s9,t3,a0

0000000080007cb8 <i_7694>:
    80007cb8:	04416503          	lwu	a0,68(sp)

0000000080007cbc <i_7695>:
    80007cbc:	002d9e1b          	slliw	t3,s11,0x2

0000000080007cc0 <i_7696>:
    80007cc0:	17c13c23          	sd	t3,376(sp)

0000000080007cc4 <i_7697>:
    80007cc4:	00e10e03          	lb	t3,14(sp)

0000000080007cc8 <i_7698>:
    80007cc8:	f4710203          	lb	tp,-185(sp)

0000000080007ccc <i_7699>:
    80007ccc:	00a507b3          	add	a5,a0,a0

0000000080007cd0 <i_7700>:
    80007cd0:	167109a3          	sb	t2,371(sp)

0000000080007cd4 <i_7701>:
    80007cd4:	00f7ec63          	bltu	a5,a5,80007cec <i_7707>

0000000080007cd8 <i_7702>:
    80007cd8:	f6813383          	ld	t2,-152(sp)

0000000080007cdc <i_7703>:
    80007cdc:	00000013          	nop

0000000080007ce0 <i_7704>:
    80007ce0:	403cdc9b          	sraiw	s9,s9,0x3

0000000080007ce4 <i_7705>:
    80007ce4:	0045959b          	slliw	a1,a1,0x4

0000000080007ce8 <i_7706>:
    80007ce8:	00339413          	slli	s0,t2,0x3

0000000080007cec <i_7707>:
    80007cec:	19a12c23          	sw	s10,408(sp)

0000000080007cf0 <i_7708>:
    80007cf0:	06812c83          	lw	s9,104(sp)

0000000080007cf4 <i_7709>:
    80007cf4:	82400513          	li	a0,-2012

0000000080007cf8 <i_7710>:
    80007cf8:	82a00d13          	li	s10,-2006

0000000080007cfc <i_7711>:
    80007cfc:	0d816583          	lwu	a1,216(sp)

0000000080007d00 <i_7712>:
    80007d00:	0d813e83          	ld	t4,216(sp)

0000000080007d04 <i_7713>:
    80007d04:	00000013          	nop

0000000080007d08 <i_7714>:
    80007d08:	00150513          	addi	a0,a0,1 # 12c26d1d <main-0x6d3d92e3>
    80007d0c:	fead58e3          	ble	a0,s10,80007cfc <i_7711>

0000000080007d10 <i_7715>:
    80007d10:	00145e13          	srli	t3,s0,0x1

0000000080007d14 <i_7716>:
    80007d14:	18016c03          	lwu	s8,384(sp)

0000000080007d18 <i_7717>:
    80007d18:	00235593          	srli	a1,t1,0x2

0000000080007d1c <i_7718>:
    80007d1c:	00b5d263          	ble	a1,a1,80007d20 <i_7719>

0000000080007d20 <i_7719>:
    80007d20:	11c16b83          	lwu	s7,284(sp)

0000000080007d24 <i_7720>:
    80007d24:	00013203          	ld	tp,0(sp)

0000000080007d28 <i_7721>:
    80007d28:	14813a03          	ld	s4,328(sp)

0000000080007d2c <i_7722>:
    80007d2c:	15413023          	sd	s4,320(sp)

0000000080007d30 <i_7723>:
    80007d30:	403c5e1b          	sraiw	t3,s8,0x3

0000000080007d34 <i_7724>:
    80007d34:	12815c03          	lhu	s8,296(sp)

0000000080007d38 <i_7725>:
    80007d38:	ef810c23          	sb	s8,-264(sp)

0000000080007d3c <i_7726>:
    80007d3c:	004c1663          	bne	s8,tp,80007d48 <i_7729>

0000000080007d40 <i_7727>:
    80007d40:	02110203          	lb	tp,33(sp)

0000000080007d44 <i_7728>:
    80007d44:	1b412823          	sw	s4,432(sp)

0000000080007d48 <i_7729>:
    80007d48:	024f5233          	divu	tp,t5,tp

0000000080007d4c <i_7730>:
    80007d4c:	029c1463          	bne	s8,s1,80007d74 <i_7740>

0000000080007d50 <i_7731>:
    80007d50:	00459a63          	bne	a1,tp,80007d64 <i_7736>

0000000080007d54 <i_7732>:
    80007d54:	034aca3b          	divw	s4,s5,s4

0000000080007d58 <i_7733>:
    80007d58:	02ba6cb3          	rem	s9,s4,a1

0000000080007d5c <i_7734>:
    80007d5c:	004f9c13          	slli	s8,t6,0x4

0000000080007d60 <i_7735>:
    80007d60:	1c412c83          	lw	s9,452(sp)

0000000080007d64 <i_7736>:
    80007d64:	039a033b          	mulw	t1,s4,s9

0000000080007d68 <i_7737>:
    80007d68:	019a7a33          	and	s4,s4,s9

0000000080007d6c <i_7738>:
    80007d6c:	fbc10b83          	lb	s7,-68(sp)

0000000080007d70 <i_7739>:
    80007d70:	fd215a03          	lhu	s4,-46(sp)

0000000080007d74 <i_7740>:
    80007d74:	001a5c9b          	srliw	s9,s4,0x1

0000000080007d78 <i_7741>:
    80007d78:	e9711723          	sh	s7,-370(sp)

0000000080007d7c <i_7742>:
    80007d7c:	00800613          	li	a2,8

0000000080007d80 <i_7743>:
    80007d80:	40ca5633          	sra	a2,s4,a2

0000000080007d84 <i_7744>:
    80007d84:	06c11e23          	sh	a2,124(sp)

0000000080007d88 <i_7745>:
    80007d88:	017cee63          	bltu	s9,s7,80007da4 <i_7752>

0000000080007d8c <i_7746>:
    80007d8c:	00000013          	nop

0000000080007d90 <i_7747>:
    80007d90:	032a0cbb          	mulw	s9,s4,s2

0000000080007d94 <i_7748>:
    80007d94:	033b6b33          	rem	s6,s6,s3

0000000080007d98 <i_7749>:
    80007d98:	02d6f83b          	remuw	a6,a3,a3

0000000080007d9c <i_7750>:
    80007d9c:	1b013583          	ld	a1,432(sp)

0000000080007da0 <i_7751>:
    80007da0:	039d6d3b          	remw	s10,s10,s9

0000000080007da4 <i_7752>:
    80007da4:	019d3cb3          	sltu	s9,s10,s9

0000000080007da8 <i_7753>:
    80007da8:	00000013          	nop

0000000080007dac <i_7754>:
    80007dac:	75b00f13          	li	t5,1883

0000000080007db0 <i_7755>:
    80007db0:	75d00a13          	li	s4,1885

0000000080007db4 <i_7756>:
    80007db4:	03913423          	sd	s9,40(sp)

0000000080007db8 <i_7757>:
    80007db8:	03989463          	bne	a7,s9,80007de0 <i_7766>

0000000080007dbc <i_7758>:
    80007dbc:	17b10583          	lb	a1,379(sp)

0000000080007dc0 <i_7759>:
    80007dc0:	001f0f13          	addi	t5,t5,1
    80007dc4:	ff4f68e3          	bltu	t5,s4,80007db4 <i_7756>

0000000080007dc8 <i_7760>:
    80007dc8:	e7913c23          	sd	s9,-392(sp)

0000000080007dcc <i_7761>:
    80007dcc:	01a86663          	bltu	a6,s10,80007dd8 <i_7764>

0000000080007dd0 <i_7762>:
    80007dd0:	fc210803          	lb	a6,-62(sp)

0000000080007dd4 <i_7763>:
    80007dd4:	e0e11e23          	sh	a4,-484(sp)

0000000080007dd8 <i_7764>:
    80007dd8:	01c10603          	lb	a2,28(sp)

0000000080007ddc <i_7765>:
    80007ddc:	01b00613          	li	a2,27

0000000080007de0 <i_7766>:
    80007de0:	40ccdcbb          	sraw	s9,s9,a2

0000000080007de4 <i_7767>:
    80007de4:	09710423          	sb	s7,136(sp)

0000000080007de8 <i_7768>:
    80007de8:	01d00c93          	li	s9,29

0000000080007dec <i_7769>:
    80007dec:	4196553b          	sraw	a0,a2,s9

0000000080007df0 <i_7770>:
    80007df0:	02c56cbb          	remw	s9,a0,a2

0000000080007df4 <i_7771>:
    80007df4:	0395d633          	divu	a2,a1,s9

0000000080007df8 <i_7772>:
    80007df8:	03013483          	ld	s1,48(sp)

0000000080007dfc <i_7773>:
    80007dfc:	15911723          	sh	s9,334(sp)

0000000080007e00 <i_7774>:
    80007e00:	029ce263          	bltu	s9,s1,80007e24 <i_7783>

0000000080007e04 <i_7775>:
    80007e04:	fc812e03          	lw	t3,-56(sp)

0000000080007e08 <i_7776>:
    80007e08:	b334a513          	slti	a0,s1,-1229

0000000080007e0c <i_7777>:
    80007e0c:	038c5c3b          	divuw	s8,s8,s8

0000000080007e10 <i_7778>:
    80007e10:	002e1c9b          	slliw	s9,t3,0x2

0000000080007e14 <i_7779>:
    80007e14:	fb011723          	sh	a6,-82(sp)

0000000080007e18 <i_7780>:
    80007e18:	0a613c23          	sd	t1,184(sp)

0000000080007e1c <i_7781>:
    80007e1c:	131b5397          	auipc	t2,0x131b5

0000000080007e20 <i_7782>:
    80007e20:	e8012e03          	lw	t3,-384(sp)

0000000080007e24 <i_7783>:
    80007e24:	02a86ab3          	rem	s5,a6,a0

0000000080007e28 <i_7784>:
    80007e28:	02ce3f33          	mulhu	t5,t3,a2

0000000080007e2c <i_7785>:
    80007e2c:	08614183          	lbu	gp,134(sp)

0000000080007e30 <i_7786>:
    80007e30:	401e579b          	sraiw	a5,t3,0x1

0000000080007e34 <i_7787>:
    80007e34:	1d912423          	sw	s9,456(sp)

0000000080007e38 <i_7788>:
    80007e38:	00100c93          	li	s9,1

0000000080007e3c <i_7789>:
    80007e3c:	019d13bb          	sllw	t2,s10,s9

0000000080007e40 <i_7790>:
    80007e40:	04a10c83          	lb	s9,74(sp)

0000000080007e44 <i_7791>:
    80007e44:	17c16503          	lwu	a0,380(sp)

0000000080007e48 <i_7792>:
    80007e48:	019cc663          	blt	s9,s9,80007e54 <i_7795>

0000000080007e4c <i_7793>:
    80007e4c:	05816e83          	lwu	t4,88(sp)

0000000080007e50 <i_7794>:
    80007e50:	40155c9b          	sraiw	s9,a0,0x1

0000000080007e54 <i_7795>:
    80007e54:	404cd513          	srai	a0,s9,0x4

0000000080007e58 <i_7796>:
    80007e58:	0a011c83          	lh	s9,160(sp)

0000000080007e5c <i_7797>:
    80007e5c:	017ca6b3          	slt	a3,s9,s7

0000000080007e60 <i_7798>:
    80007e60:	03d00093          	li	ra,61

0000000080007e64 <i_7799>:
    80007e64:	4016dcb3          	sra	s9,a3,ra

0000000080007e68 <i_7800>:
    80007e68:	039cc533          	div	a0,s9,s9

0000000080007e6c <i_7801>:
    80007e6c:	0310ecb3          	rem	s9,ra,a7

0000000080007e70 <i_7802>:
    80007e70:	03a53d33          	mulhu	s10,a0,s10

0000000080007e74 <i_7803>:
    80007e74:	02816503          	lwu	a0,40(sp)

0000000080007e78 <i_7804>:
    80007e78:	40c706b3          	sub	a3,a4,a2

0000000080007e7c <i_7805>:
    80007e7c:	f7b14c83          	lbu	s9,-133(sp)

0000000080007e80 <i_7806>:
    80007e80:	7c300393          	li	t2,1987

0000000080007e84 <i_7807>:
    80007e84:	7c700613          	li	a2,1991

0000000080007e88 <i_7808>:
    80007e88:	03e6e4b3          	rem	s1,a3,t5

0000000080007e8c <i_7809>:
    80007e8c:	4034df1b          	sraiw	t5,s1,0x3

0000000080007e90 <i_7810>:
    80007e90:	08c16a83          	lwu	s5,140(sp)

0000000080007e94 <i_7811>:
    80007e94:	01b4edb3          	or	s11,s1,s11

0000000080007e98 <i_7812>:
    80007e98:	0b513823          	sd	s5,176(sp)

0000000080007e9c <i_7813>:
    80007e9c:	18611483          	lh	s1,390(sp)

0000000080007ea0 <i_7814>:
    80007ea0:	fef14a03          	lbu	s4,-17(sp)

0000000080007ea4 <i_7815>:
    80007ea4:	015f7663          	bleu	s5,t5,80007eb0 <i_7818>

0000000080007ea8 <i_7816>:
    80007ea8:	00000013          	nop

0000000080007eac <i_7817>:
    80007eac:	034d3d33          	mulhu	s10,s10,s4

0000000080007eb0 <i_7818>:
    80007eb0:	01a9f263          	bleu	s10,s3,80007eb4 <i_7819>

0000000080007eb4 <i_7819>:
    80007eb4:	11c15983          	lhu	s3,284(sp)

0000000080007eb8 <i_7820>:
    80007eb8:	08313823          	sd	gp,144(sp)

0000000080007ebc <i_7821>:
    80007ebc:	00138393          	addi	t2,t2,1 # 931bce1d <_end+0x131aca09>
    80007ec0:	fcc3e4e3          	bltu	t2,a2,80007e88 <i_7808>

0000000080007ec4 <i_7822>:
    80007ec4:	41a989bb          	subw	s3,s3,s10

0000000080007ec8 <i_7823>:
    80007ec8:	e5313023          	sd	s3,-448(sp)

0000000080007ecc <i_7824>:
    80007ecc:	e9a13423          	sd	s10,-376(sp)

0000000080007ed0 <i_7825>:
    80007ed0:	01a51463          	bne	a0,s10,80007ed8 <i_7827>

0000000080007ed4 <i_7826>:
    80007ed4:	e9814083          	lbu	ra,-360(sp)

0000000080007ed8 <i_7827>:
    80007ed8:	0210c333          	div	t1,ra,ra

0000000080007edc <i_7828>:
    80007edc:	1de11083          	lh	ra,478(sp)

0000000080007ee0 <i_7829>:
    80007ee0:	00000013          	nop

0000000080007ee4 <i_7830>:
    80007ee4:	0250c633          	div	a2,ra,t0

0000000080007ee8 <i_7831>:
    80007ee8:	76400093          	li	ra,1892

0000000080007eec <i_7832>:
    80007eec:	76600c93          	li	s9,1894

0000000080007ef0 <i_7833>:
    80007ef0:	40365813          	srai	a6,a2,0x3

0000000080007ef4 <i_7834>:
    80007ef4:	10112c23          	sw	ra,280(sp)

0000000080007ef8 <i_7835>:
    80007ef8:	03e85263          	ble	t5,a6,80007f1c <i_7843>

0000000080007efc <i_7836>:
    80007efc:	e7013823          	sd	a6,-400(sp)

0000000080007f00 <i_7837>:
    80007f00:	06c13023          	sd	a2,96(sp)

0000000080007f04 <i_7838>:
    80007f04:	02c83633          	mulhu	a2,a6,a2

0000000080007f08 <i_7839>:
    80007f08:	03013423          	sd	a6,40(sp)

0000000080007f0c <i_7840>:
    80007f0c:	00108093          	addi	ra,ra,1
    80007f10:	ff90e0e3          	bltu	ra,s9,80007ef0 <i_7833>

0000000080007f14 <i_7841>:
    80007f14:	03000b13          	li	s6,48

0000000080007f18 <i_7842>:
    80007f18:	016c9633          	sll	a2,s9,s6

0000000080007f1c <i_7843>:
    80007f1c:	f7113823          	sd	a7,-144(sp)

0000000080007f20 <i_7844>:
    80007f20:	f9a10803          	lb	a6,-102(sp)

0000000080007f24 <i_7845>:
    80007f24:	ed811c03          	lh	s8,-296(sp)

0000000080007f28 <i_7846>:
    80007f28:	f76104a3          	sb	s6,-151(sp)

0000000080007f2c <i_7847>:
    80007f2c:	03310603          	lb	a2,51(sp)

0000000080007f30 <i_7848>:
    80007f30:	fb210083          	lb	ra,-78(sp)

0000000080007f34 <i_7849>:
    80007f34:	7bc40d93          	addi	s11,s0,1980

0000000080007f38 <i_7850>:
    80007f38:	03665dbb          	divuw	s11,a2,s6

0000000080007f3c <i_7851>:
    80007f3c:	021ddb33          	divu	s6,s11,ra

0000000080007f40 <i_7852>:
    80007f40:	0a510483          	lb	s1,165(sp)

0000000080007f44 <i_7853>:
    80007f44:	00148cb3          	add	s9,s1,ra

0000000080007f48 <i_7854>:
    80007f48:	ecf10083          	lb	ra,-305(sp)

0000000080007f4c <i_7855>:
    80007f4c:	3ee2ab13          	slti	s6,t0,1006

0000000080007f50 <i_7856>:
    80007f50:	f41105a3          	sb	ra,-181(sp)

0000000080007f54 <i_7857>:
    80007f54:	19813283          	ld	t0,408(sp)

0000000080007f58 <i_7858>:
    80007f58:	0035551b          	srliw	a0,a0,0x3

0000000080007f5c <i_7859>:
    80007f5c:	00000013          	nop

0000000080007f60 <i_7860>:
    80007f60:	89d00e13          	li	t3,-1891

0000000080007f64 <i_7861>:
    80007f64:	8b000b13          	li	s6,-1872

0000000080007f68 <i_7862>:
    80007f68:	005b5463          	ble	t0,s6,80007f70 <i_7864>

0000000080007f6c <i_7863>:
    80007f6c:	03ce6233          	rem	tp,t3,t3

0000000080007f70 <i_7864>:
    80007f70:	00a087b3          	add	a5,ra,a0

0000000080007f74 <i_7865>:
    80007f74:	00000013          	nop

0000000080007f78 <i_7866>:
    80007f78:	001080b3          	add	ra,ra,ra

0000000080007f7c <i_7867>:
    80007f7c:	00faa7b3          	slt	a5,s5,a5

0000000080007f80 <i_7868>:
    80007f80:	fb816a83          	lwu	s5,-72(sp)

0000000080007f84 <i_7869>:
    80007f84:	4011d093          	srai	ra,gp,0x1

0000000080007f88 <i_7870>:
    80007f88:	2ea7ca13          	xori	s4,a5,746

0000000080007f8c <i_7871>:
    80007f8c:	868a4793          	xori	a5,s4,-1944

0000000080007f90 <i_7872>:
    80007f90:	00351513          	slli	a0,a0,0x3

0000000080007f94 <i_7873>:
    80007f94:	07811a03          	lh	s4,120(sp)

0000000080007f98 <i_7874>:
    80007f98:	03812283          	lw	t0,56(sp)

0000000080007f9c <i_7875>:
    80007f9c:	001e0e13          	addi	t3,t3,1 # 540e4261 <main-0x2bf1bd9f>
    80007fa0:	fd6e64e3          	bltu	t3,s6,80007f68 <i_7862>

0000000080007fa4 <i_7876>:
    80007fa4:	0ea10e23          	sb	a0,252(sp)

0000000080007fa8 <i_7877>:
    80007fa8:	025a22b3          	mulhsu	t0,s4,t0

0000000080007fac <i_7878>:
    80007fac:	00528e63          	beq	t0,t0,80007fc8 <i_7885>

0000000080007fb0 <i_7879>:
    80007fb0:	034a62b3          	rem	t0,s4,s4

0000000080007fb4 <i_7880>:
    80007fb4:	0052d463          	ble	t0,t0,80007fbc <i_7882>

0000000080007fb8 <i_7881>:
    80007fb8:	005a5463          	ble	t0,s4,80007fc0 <i_7883>

0000000080007fbc <i_7882>:
    80007fbc:	0052c633          	xor	a2,t0,t0

0000000080007fc0 <i_7883>:
    80007fc0:	032dc463          	blt	s11,s2,80007fe8 <i_7893>

0000000080007fc4 <i_7884>:
    80007fc4:	07d7e793          	ori	a5,a5,125

0000000080007fc8 <i_7885>:
    80007fc8:	1707e293          	ori	t0,a5,368

0000000080007fcc <i_7886>:
    80007fcc:	01060a63          	beq	a2,a6,80007fe0 <i_7891>

0000000080007fd0 <i_7887>:
    80007fd0:	0b416603          	lwu	a2,180(sp)

0000000080007fd4 <i_7888>:
    80007fd4:	13411423          	sh	s4,296(sp)

0000000080007fd8 <i_7889>:
    80007fd8:	00000013          	nop

0000000080007fdc <i_7890>:
    80007fdc:	02c79533          	mulh	a0,a5,a2

0000000080007fe0 <i_7891>:
    80007fe0:	005606b3          	add	a3,a2,t0

0000000080007fe4 <i_7892>:
    80007fe4:	00000013          	nop

0000000080007fe8 <i_7893>:
    80007fe8:	00d28a33          	add	s4,t0,a3

0000000080007fec <i_7894>:
    80007fec:	00d6f233          	and	tp,a3,a3

0000000080007ff0 <i_7895>:
    80007ff0:	75500793          	li	a5,1877

0000000080007ff4 <i_7896>:
    80007ff4:	76300293          	li	t0,1891

0000000080007ff8 <i_7897>:
    80007ff8:	00000013          	nop

0000000080007ffc <i_7898>:
    80007ffc:	09110383          	lb	t2,145(sp)

0000000080008000 <i_7899>:
    80008000:	0ec10aa3          	sb	a2,245(sp)

0000000080008004 <i_7900>:
    80008004:	0243d0bb          	divuw	ra,t2,tp

0000000080008008 <i_7901>:
    80008008:	03900213          	li	tp,57

000000008000800c <i_7902>:
    8000800c:	0040d3b3          	srl	t2,ra,tp

0000000080008010 <i_7903>:
    80008010:	00178793          	addi	a5,a5,1
    80008014:	fe57c2e3          	blt	a5,t0,80007ff8 <i_7897>

0000000080008018 <i_7904>:
    80008018:	e2e15383          	lhu	t2,-466(sp)

000000008000801c <i_7905>:
    8000801c:	03013083          	ld	ra,48(sp)

0000000080008020 <i_7906>:
    80008020:	f9c12383          	lw	t2,-100(sp)

0000000080008024 <i_7907>:
    80008024:	1c710823          	sb	t2,464(sp)

0000000080008028 <i_7908>:
    80008028:	0263d3bb          	divuw	t2,t2,t1

000000008000802c <i_7909>:
    8000802c:	0273d263          	ble	t2,t2,80008050 <i_7918>

0000000080008030 <i_7910>:
    80008030:	0073da63          	ble	t2,t2,80008044 <i_7915>

0000000080008034 <i_7911>:
    80008034:	08710b23          	sb	t2,150(sp)

0000000080008038 <i_7912>:
    80008038:	02747463          	bleu	t2,s0,80008060 <i_7922>

000000008000803c <i_7913>:
    8000803c:	00426a63          	bltu	tp,tp,80008050 <i_7918>

0000000080008040 <i_7914>:
    80008040:	18c14203          	lbu	tp,396(sp)

0000000080008044 <i_7915>:
    80008044:	00738863          	beq	t2,t2,80008054 <i_7919>

0000000080008048 <i_7916>:
    80008048:	00445213          	srli	tp,s0,0x4

000000008000804c <i_7917>:
    8000804c:	24153993          	sltiu	s3,a0,577

0000000080008050 <i_7918>:
    80008050:	06211183          	lh	gp,98(sp)

0000000080008054 <i_7919>:
    80008054:	01342233          	slt	tp,s0,s3

0000000080008058 <i_7920>:
    80008058:	1c812823          	sw	s0,464(sp)

000000008000805c <i_7921>:
    8000805c:	f8813c23          	sd	s0,-104(sp)

0000000080008060 <i_7922>:
    80008060:	00812423          	sw	s0,8(sp)

0000000080008064 <i_7923>:
    80008064:	0369ea33          	rem	s4,s3,s6

0000000080008068 <i_7924>:
    80008068:	76800513          	li	a0,1896

000000008000806c <i_7925>:
    8000806c:	77100e93          	li	t4,1905

0000000080008070 <i_7926>:
    80008070:	01d00a13          	li	s4,29

0000000080008074 <i_7927>:
    80008074:	414a52bb          	sraw	t0,s4,s4

0000000080008078 <i_7928>:
    80008078:	04e11423          	sh	a4,72(sp)

000000008000807c <i_7929>:
    8000807c:	315a4a13          	xori	s4,s4,789

0000000080008080 <i_7930>:
    80008080:	025a4f3b          	divw	t5,s4,t0

0000000080008084 <i_7931>:
    80008084:	034a0063          	beq	s4,s4,800080a4 <i_7938>

0000000080008088 <i_7932>:
    80008088:	02cf0a3b          	mulw	s4,t5,a2

000000008000808c <i_7933>:
    8000808c:	00150513          	addi	a0,a0,1
    80008090:	feaef0e3          	bleu	a0,t4,80008070 <i_7926>

0000000080008094 <i_7934>:
    80008094:	ec911623          	sh	s1,-308(sp)

0000000080008098 <i_7935>:
    80008098:	003a109b          	slliw	ra,s4,0x3

000000008000809c <i_7936>:
    8000809c:	039a1063          	bne	s4,s9,800080bc <i_7944>

00000000800080a0 <i_7937>:
    800080a0:	02300a13          	li	s4,35

00000000800080a4 <i_7938>:
    800080a4:	414f5db3          	sra	s11,t5,s4

00000000800080a8 <i_7939>:
    800080a8:	18f12023          	sw	a5,384(sp)

00000000800080ac <i_7940>:
    800080ac:	05412a03          	lw	s4,84(sp)

00000000800080b0 <i_7941>:
    800080b0:	01bd8e63          	beq	s11,s11,800080cc <i_7948>

00000000800080b4 <i_7942>:
    800080b4:	034de263          	bltu	s11,s4,800080d8 <i_7951>

00000000800080b8 <i_7943>:
    800080b8:	01011683          	lh	a3,16(sp)

00000000800080bc <i_7944>:
    800080bc:	003d5d13          	srli	s10,s10,0x3

00000000800080c0 <i_7945>:
    800080c0:	11413823          	sd	s4,272(sp)

00000000800080c4 <i_7946>:
    800080c4:	0ef14a03          	lbu	s4,239(sp)

00000000800080c8 <i_7947>:
    800080c8:	e2415283          	lhu	t0,-476(sp)

00000000800080cc <i_7948>:
    800080cc:	02dd5263          	ble	a3,s10,800080f0 <i_7957>

00000000800080d0 <i_7949>:
    800080d0:	001701b3          	add	gp,a4,ra

00000000800080d4 <i_7950>:
    800080d4:	00000013          	nop

00000000800080d8 <i_7951>:
    800080d8:	e2011383          	lh	t2,-480(sp)

00000000800080dc <i_7952>:
    800080dc:	401a5a13          	srai	s4,s4,0x1

00000000800080e0 <i_7953>:
    800080e0:	00000013          	nop

00000000800080e4 <i_7954>:
    800080e4:	00e00a13          	li	s4,14

00000000800080e8 <i_7955>:
    800080e8:	414a5a33          	sra	s4,s4,s4

00000000800080ec <i_7956>:
    800080ec:	1c710aa3          	sb	t2,469(sp)

00000000800080f0 <i_7957>:
    800080f0:	fa811b83          	lh	s7,-88(sp)

00000000800080f4 <i_7958>:
    800080f4:	f8d13823          	sd	a3,-112(sp)

00000000800080f8 <i_7959>:
    800080f8:	75600293          	li	t0,1878

00000000800080fc <i_7960>:
    800080fc:	76000093          	li	ra,1888

0000000080008100 <i_7961>:
    80008100:	66c08d93          	addi	s11,ra,1644

0000000080008104 <i_7962>:
    80008104:	00128293          	addi	t0,t0,1
    80008108:	fe129ce3          	bne	t0,ra,80008100 <i_7961>

000000008000810c <i_7963>:
    8000810c:	1b114483          	lbu	s1,433(sp)

0000000080008110 <i_7964>:
    80008110:	00a10d83          	lb	s11,10(sp)

0000000080008114 <i_7965>:
    80008114:	022b8063          	beq	s7,sp,80008134 <i_7973>

0000000080008118 <i_7966>:
    80008118:	0b610b03          	lb	s6,182(sp)

000000008000811c <i_7967>:
    8000811c:	03fdadb3          	mulhsu	s11,s11,t6

0000000080008120 <i_7968>:
    80008120:	031dddbb          	divuw	s11,s11,a7

0000000080008124 <i_7969>:
    80008124:	03bdd533          	divu	a0,s11,s11

0000000080008128 <i_7970>:
    80008128:	03bdd533          	divu	a0,s11,s11

000000008000812c <i_7971>:
    8000812c:	1f6102a3          	sb	s6,485(sp)

0000000080008130 <i_7972>:
    80008130:	036b053b          	mulw	a0,s6,s6

0000000080008134 <i_7973>:
    80008134:	f3a10b23          	sb	s10,-202(sp)

0000000080008138 <i_7974>:
    80008138:	41b100b3          	sub	ra,sp,s11

000000008000813c <i_7975>:
    8000813c:	81800b13          	li	s6,-2024

0000000080008140 <i_7976>:
    80008140:	82500e13          	li	t3,-2011

0000000080008144 <i_7977>:
    80008144:	03cdedb3          	rem	s11,s11,t3

0000000080008148 <i_7978>:
    80008148:	62d0809b          	addiw	ra,ra,1581

000000008000814c <i_7979>:
    8000814c:	01ed8db3          	add	s11,s11,t5

0000000080008150 <i_7980>:
    80008150:	01b08c63          	beq	ra,s11,80008168 <i_7986>

0000000080008154 <i_7981>:
    80008154:	12816d83          	lwu	s11,296(sp)

0000000080008158 <i_7982>:
    80008158:	001d8463          	beq	s11,ra,80008160 <i_7984>

000000008000815c <i_7983>:
    8000815c:	021d8f3b          	mulw	t5,s11,ra

0000000080008160 <i_7984>:
    80008160:	05e10083          	lb	ra,94(sp)

0000000080008164 <i_7985>:
    80008164:	039eceb3          	div	t4,t4,s9

0000000080008168 <i_7986>:
    80008168:	16e15d83          	lhu	s11,366(sp)

000000008000816c <i_7987>:
    8000816c:	033dfa33          	remu	s4,s11,s3

0000000080008170 <i_7988>:
    80008170:	fb411c03          	lh	s8,-76(sp)

0000000080008174 <i_7989>:
    80008174:	001b0b13          	addi	s6,s6,1 # f288e651 <_end+0x7287e23d>
    80008178:	fdcb66e3          	bltu	s6,t3,80008144 <i_7977>

000000008000817c <i_7990>:
    8000817c:	01f00993          	li	s3,31

0000000080008180 <i_7991>:
    80008180:	4130dc3b          	sraw	s8,ra,s3

0000000080008184 <i_7992>:
    80008184:	01900313          	li	t1,25

0000000080008188 <i_7993>:
    80008188:	4060de3b          	sraw	t3,ra,t1

000000008000818c <i_7994>:
    8000818c:	064d8f1b          	addiw	t5,s11,100

0000000080008190 <i_7995>:
    80008190:	f1414083          	lbu	ra,-236(sp)

0000000080008194 <i_7996>:
    80008194:	01ce5a63          	ble	t3,t3,800081a8 <i_8001>

0000000080008198 <i_7997>:
    80008198:	ea614083          	lbu	ra,-346(sp)

000000008000819c <i_7998>:
    8000819c:	ec013c83          	ld	s9,-320(sp)

00000000800081a0 <i_7999>:
    800081a0:	006cc863          	blt	s9,t1,800081b0 <i_8003>

00000000800081a4 <i_8000>:
    800081a4:	001cf0b3          	and	ra,s9,ra

00000000800081a8 <i_8001>:
    800081a8:	1a410303          	lb	t1,420(sp)

00000000800081ac <i_8002>:
    800081ac:	11210c03          	lb	s8,274(sp)

00000000800081b0 <i_8003>:
    800081b0:	00000013          	nop

00000000800081b4 <i_8004>:
    800081b4:	e5816203          	lwu	tp,-424(sp)

00000000800081b8 <i_8005>:
    800081b8:	7b100513          	li	a0,1969

00000000800081bc <i_8006>:
    800081bc:	7ba00a13          	li	s4,1978

00000000800081c0 <i_8007>:
    800081c0:	08a10303          	lb	t1,138(sp)

00000000800081c4 <i_8008>:
    800081c4:	ee211183          	lh	gp,-286(sp)

00000000800081c8 <i_8009>:
    800081c8:	00000013          	nop

00000000800081cc <i_8010>:
    800081cc:	03b24463          	blt	tp,s11,800081f4 <i_8019>

00000000800081d0 <i_8011>:
    800081d0:	04c72693          	slti	a3,a4,76

00000000800081d4 <i_8012>:
    800081d4:	0231febb          	remuw	t4,gp,gp

00000000800081d8 <i_8013>:
    800081d8:	06310423          	sb	gp,104(sp)

00000000800081dc <i_8014>:
    800081dc:	03dc4263          	blt	s8,t4,80008200 <i_8022>

00000000800081e0 <i_8015>:
    800081e0:	07d10f23          	sb	t4,126(sp)

00000000800081e4 <i_8016>:
    800081e4:	00150513          	addi	a0,a0,1
    800081e8:	fd456ce3          	bltu	a0,s4,800081c0 <i_8007>

00000000800081ec <i_8017>:
    800081ec:	02330ebb          	mulw	t4,t1,gp

00000000800081f0 <i_8018>:
    800081f0:	00419863          	bne	gp,tp,80008200 <i_8022>

00000000800081f4 <i_8019>:
    800081f4:	02669263          	bne	a3,t1,80008218 <i_8028>

00000000800081f8 <i_8020>:
    800081f8:	01e6f863          	bleu	t5,a3,80008208 <i_8024>

00000000800081fc <i_8021>:
    800081fc:	07710c23          	sb	s7,120(sp)

0000000080008200 <i_8022>:
    80008200:	40d1823b          	subw	tp,gp,a3

0000000080008204 <i_8023>:
    80008204:	01000b93          	li	s7,16

0000000080008208 <i_8024>:
    80008208:	417a56b3          	sra	a3,s4,s7

000000008000820c <i_8025>:
    8000820c:	43aa2bb7          	lui	s7,0x43aa2

0000000080008210 <i_8026>:
    80008210:	03e6c6bb          	divw	a3,a3,t5

0000000080008214 <i_8027>:
    80008214:	2dd6c593          	xori	a1,a3,733

0000000080008218 <i_8028>:
    80008218:	10d13423          	sd	a3,264(sp)

000000008000821c <i_8029>:
    8000821c:	e3311423          	sh	s3,-472(sp)

0000000080008220 <i_8030>:
    80008220:	0295bdb3          	mulhu	s11,a1,s1

0000000080008224 <i_8031>:
    80008224:	02dbc2bb          	divw	t0,s7,a3

0000000080008228 <i_8032>:
    80008228:	1b816d03          	lwu	s10,440(sp)

000000008000822c <i_8033>:
    8000822c:	00d2d463          	ble	a3,t0,80008234 <i_8035>

0000000080008230 <i_8034>:
    80008230:	f6811923          	sh	s0,-142(sp)

0000000080008234 <i_8035>:
    80008234:	03b11e23          	sh	s11,60(sp)

0000000080008238 <i_8036>:
    80008238:	ff712223          	sw	s7,-28(sp)

000000008000823c <i_8037>:
    8000823c:	00000013          	nop

0000000080008240 <i_8038>:
    80008240:	0256edbb          	remw	s11,a3,t0

0000000080008244 <i_8039>:
    80008244:	79700b93          	li	s7,1943

0000000080008248 <i_8040>:
    80008248:	79d00513          	li	a0,1949

000000008000824c <i_8041>:
    8000824c:	19c11403          	lh	s0,412(sp)

0000000080008250 <i_8042>:
    80008250:	0282acb3          	mulhsu	s9,t0,s0

0000000080008254 <i_8043>:
    80008254:	02dcd063          	ble	a3,s9,80008274 <i_8050>

0000000080008258 <i_8044>:
    80008258:	01a00e93          	li	t4,26

000000008000825c <i_8045>:
    8000825c:	01d511b3          	sll	gp,a0,t4

0000000080008260 <i_8046>:
    80008260:	001b8b93          	addi	s7,s7,1 # 43aa2001 <main-0x3c55dfff>
    80008264:	feabe4e3          	bltu	s7,a0,8000824c <i_8041>

0000000080008268 <i_8047>:
    80008268:	03d6a6b3          	mulhsu	a3,a3,t4

000000008000826c <i_8048>:
    8000826c:	01def863          	bleu	t4,t4,8000827c <i_8052>

0000000080008270 <i_8049>:
    80008270:	00000013          	nop

0000000080008274 <i_8050>:
    80008274:	e9016283          	lwu	t0,-368(sp)

0000000080008278 <i_8051>:
    80008278:	00000013          	nop

000000008000827c <i_8052>:
    8000827c:	00000013          	nop

0000000080008280 <i_8053>:
    80008280:	f8f14283          	lbu	t0,-113(sp)

0000000080008284 <i_8054>:
    80008284:	85200693          	li	a3,-1966

0000000080008288 <i_8055>:
    80008288:	86400d13          	li	s10,-1948

000000008000828c <i_8056>:
    8000828c:	fc813303          	ld	t1,-56(sp)

0000000080008290 <i_8057>:
    80008290:	06016783          	lwu	a5,96(sp)

0000000080008294 <i_8058>:
    80008294:	03d00313          	li	t1,61

0000000080008298 <i_8059>:
    80008298:	006d5cb3          	srl	s9,s10,t1

000000008000829c <i_8060>:
    8000829c:	15615483          	lhu	s1,342(sp)

00000000800082a0 <i_8061>:
    800082a0:	18511823          	sh	t0,400(sp)

00000000800082a4 <i_8062>:
    800082a4:	00000013          	nop

00000000800082a8 <i_8063>:
    800082a8:	efe108a3          	sb	t5,-271(sp)

00000000800082ac <i_8064>:
    800082ac:	00168693          	addi	a3,a3,1
    800082b0:	fda69ee3          	bne	a3,s10,8000828c <i_8056>

00000000800082b4 <i_8065>:
    800082b4:	dfe7ce93          	xori	t4,a5,-514

00000000800082b8 <i_8066>:
    800082b8:	025c9463          	bne	s9,t0,800082e0 <i_8076>

00000000800082bc <i_8067>:
    800082bc:	0294e2bb          	remw	t0,s1,s1

00000000800082c0 <i_8068>:
    800082c0:	f0a15283          	lhu	t0,-246(sp)

00000000800082c4 <i_8069>:
    800082c4:	f1013483          	ld	s1,-240(sp)

00000000800082c8 <i_8070>:
    800082c8:	f5d12623          	sw	t4,-180(sp)

00000000800082cc <i_8071>:
    800082cc:	01d4fa63          	bleu	t4,s1,800082e0 <i_8076>

00000000800082d0 <i_8072>:
    800082d0:	409802b3          	sub	t0,a6,s1

00000000800082d4 <i_8073>:
    800082d4:	0044f263          	bleu	tp,s1,800082d8 <i_8074>

00000000800082d8 <i_8074>:
    800082d8:	00000013          	nop

00000000800082dc <i_8075>:
    800082dc:	03800493          	li	s1,56

00000000800082e0 <i_8076>:
    800082e0:	009254b3          	srl	s1,tp,s1

00000000800082e4 <i_8077>:
    800082e4:	19a10183          	lb	gp,410(sp)

00000000800082e8 <i_8078>:
    800082e8:	81d00e13          	li	t3,-2019

00000000800082ec <i_8079>:
    800082ec:	82400213          	li	tp,-2012

00000000800082f0 <i_8080>:
    800082f0:	001e0e13          	addi	t3,t3,1
    800082f4:	ffc25ee3          	ble	t3,tp,800082f0 <i_8080>

00000000800082f8 <i_8081>:
    800082f8:	003e7c63          	bleu	gp,t3,80008310 <i_8087>

00000000800082fc <i_8082>:
    800082fc:	00434863          	blt	t1,tp,8000830c <i_8086>

0000000080008300 <i_8083>:
    80008300:	e2011203          	lh	tp,-480(sp)

0000000080008304 <i_8084>:
    80008304:	f5e14e03          	lbu	t3,-162(sp)

0000000080008308 <i_8085>:
    80008308:	ec211f03          	lh	t5,-318(sp)

000000008000830c <i_8086>:
    8000830c:	00000013          	nop

0000000080008310 <i_8087>:
    80008310:	0fe10123          	sb	t5,226(sp)

0000000080008314 <i_8088>:
    80008314:	03045a3b          	divuw	s4,s0,a6

0000000080008318 <i_8089>:
    80008318:	7bd00213          	li	tp,1981

000000008000831c <i_8090>:
    8000831c:	7bf00413          	li	s0,1983

0000000080008320 <i_8091>:
    80008320:	00000013          	nop

0000000080008324 <i_8092>:
    80008324:	03400593          	li	a1,52

0000000080008328 <i_8093>:
    80008328:	00be5c33          	srl	s8,t3,a1

000000008000832c <i_8094>:
    8000832c:	10011303          	lh	t1,256(sp)

0000000080008330 <i_8095>:
    80008330:	cdf34493          	xori	s1,t1,-801

0000000080008334 <i_8096>:
    80008334:	0e4105a3          	sb	tp,235(sp)

0000000080008338 <i_8097>:
    80008338:	008c02b3          	add	t0,s8,s0

000000008000833c <i_8098>:
    8000833c:	1dc13c23          	sd	t3,472(sp)

0000000080008340 <i_8099>:
    80008340:	0f813e03          	ld	t3,248(sp)

0000000080008344 <i_8100>:
    80008344:	07416f03          	lwu	t5,116(sp)

0000000080008348 <i_8101>:
    80008348:	00120213          	addi	tp,tp,1 # 1 <main-0x7fffffff>
    8000834c:	fc824ae3          	blt	tp,s0,80008320 <i_8091>

0000000080008350 <i_8102>:
    80008350:	01e00193          	li	gp,30

0000000080008354 <i_8103>:
    80008354:	4032d4b3          	sra	s1,t0,gp

0000000080008358 <i_8104>:
    80008358:	e9016183          	lwu	gp,-368(sp)

000000008000835c <i_8105>:
    8000835c:	00489e1b          	slliw	t3,a7,0x4

0000000080008360 <i_8106>:
    80008360:	038e4463          	blt	t3,s8,80008388 <i_8116>

0000000080008364 <i_8107>:
    80008364:	ec813e83          	ld	t4,-312(sp)

0000000080008368 <i_8108>:
    80008368:	01500f13          	li	t5,21

000000008000836c <i_8109>:
    8000836c:	01ed54bb          	srlw	s1,s10,t5

0000000080008370 <i_8110>:
    80008370:	e2412183          	lw	gp,-476(sp)

0000000080008374 <i_8111>:
    80008374:	fda15e03          	lhu	t3,-38(sp)

0000000080008378 <i_8112>:
    80008378:	1a014f03          	lbu	t5,416(sp)

000000008000837c <i_8113>:
    8000837c:	003e9263          	bne	t4,gp,80008380 <i_8114>

0000000080008380 <i_8114>:
    80008380:	ffe15e83          	lhu	t4,-2(sp)

0000000080008384 <i_8115>:
    80008384:	00918e63          	beq	gp,s1,800083a0 <i_8122>

0000000080008388 <i_8116>:
    80008388:	01ee7a63          	bleu	t5,t3,8000839c <i_8121>

000000008000838c <i_8117>:
    8000838c:	409a0c33          	sub	s8,s4,s1

0000000080008390 <i_8118>:
    80008390:	f4711423          	sh	t2,-184(sp)

0000000080008394 <i_8119>:
    80008394:	007503b3          	add	t2,a0,t2

0000000080008398 <i_8120>:
    80008398:	00000013          	nop

000000008000839c <i_8121>:
    8000839c:	ecc12623          	sw	a2,-308(sp)

00000000800083a0 <i_8122>:
    800083a0:	033c09bb          	mulw	s3,s8,s3

00000000800083a4 <i_8123>:
    800083a4:	0294f9b3          	remu	s3,s1,s1

00000000800083a8 <i_8124>:
    800083a8:	76a00493          	li	s1,1898

00000000800083ac <i_8125>:
    800083ac:	76f00613          	li	a2,1903

00000000800083b0 <i_8126>:
    800083b0:	16c16c03          	lwu	s8,364(sp)

00000000800083b4 <i_8127>:
    800083b4:	01dc4833          	xor	a6,s8,t4

00000000800083b8 <i_8128>:
    800083b8:	0e712823          	sw	t2,240(sp)

00000000800083bc <i_8129>:
    800083bc:	0303a3b3          	mulhsu	t2,t2,a6

00000000800083c0 <i_8130>:
    800083c0:	00148493          	addi	s1,s1,1
    800083c4:	fe9656e3          	ble	s1,a2,800083b0 <i_8126>

00000000800083c8 <i_8131>:
    800083c8:	01348863          	beq	s1,s3,800083d8 <i_8135>

00000000800083cc <i_8132>:
    800083cc:	0f813983          	ld	s3,248(sp)

00000000800083d0 <i_8133>:
    800083d0:	0b314483          	lbu	s1,179(sp)

00000000800083d4 <i_8134>:
    800083d4:	00000013          	nop

00000000800083d8 <i_8135>:
    800083d8:	e3416583          	lwu	a1,-460(sp)

00000000800083dc <i_8136>:
    800083dc:	19c16383          	lwu	t2,412(sp)

00000000800083e0 <i_8137>:
    800083e0:	85200813          	li	a6,-1966

00000000800083e4 <i_8138>:
    800083e4:	85f00f13          	li	t5,-1953

00000000800083e8 <i_8139>:
    800083e8:	03defebb          	remuw	t4,t4,t4

00000000800083ec <i_8140>:
    800083ec:	01b00493          	li	s1,27

00000000800083f0 <i_8141>:
    800083f0:	009e94b3          	sll	s1,t4,s1

00000000800083f4 <i_8142>:
    800083f4:	03e875bb          	remuw	a1,a6,t5

00000000800083f8 <i_8143>:
    800083f8:	00180813          	addi	a6,a6,1
    800083fc:	ffe866e3          	bltu	a6,t5,800083e8 <i_8139>

0000000080008400 <i_8144>:
    80008400:	00b4fe63          	bleu	a1,s1,8000841c <i_8151>

0000000080008404 <i_8145>:
    80008404:	00b4ee63          	bltu	s1,a1,80008420 <i_8152>

0000000080008408 <i_8146>:
    80008408:	7724a493          	slti	s1,s1,1906

000000008000840c <i_8147>:
    8000840c:	05013203          	ld	tp,80(sp)

0000000080008410 <i_8148>:
    80008410:	1d414403          	lbu	s0,468(sp)

0000000080008414 <i_8149>:
    80008414:	fe011083          	lh	ra,-32(sp)

0000000080008418 <i_8150>:
    80008418:	fa011403          	lh	s0,-96(sp)

000000008000841c <i_8151>:
    8000841c:	06813403          	ld	s0,104(sp)

0000000080008420 <i_8152>:
    80008420:	f6a15083          	lhu	ra,-150(sp)

0000000080008424 <i_8153>:
    80008424:	fee14383          	lbu	t2,-18(sp)

0000000080008428 <i_8154>:
    80008428:	76b00513          	li	a0,1899

000000008000842c <i_8155>:
    8000842c:	77800c13          	li	s8,1912

0000000080008430 <i_8156>:
    80008430:	995767b7          	lui	a5,0x99576

0000000080008434 <i_8157>:
    80008434:	1ab14603          	lbu	a2,427(sp)

0000000080008438 <i_8158>:
    80008438:	f2e10783          	lb	a5,-210(sp)

000000008000843c <i_8159>:
    8000843c:	10c16303          	lwu	t1,268(sp)

0000000080008440 <i_8160>:
    80008440:	0b611d23          	sh	s6,186(sp)

0000000080008444 <i_8161>:
    80008444:	006430b3          	sltu	ra,s0,t1

0000000080008448 <i_8162>:
    80008448:	0060ea63          	bltu	ra,t1,8000845c <i_8166>

000000008000844c <i_8163>:
    8000844c:	00150513          	addi	a0,a0,1
    80008450:	feac70e3          	bleu	a0,s8,80008430 <i_8156>

0000000080008454 <i_8164>:
    80008454:	0267dab3          	divu	s5,a5,t1

0000000080008458 <i_8165>:
    80008458:	04416783          	lwu	a5,68(sp)

000000008000845c <i_8166>:
    8000845c:	ef813f03          	ld	t5,-264(sp)

0000000080008460 <i_8167>:
    80008460:	05615403          	lhu	s0,86(sp)

0000000080008464 <i_8168>:
    80008464:	ede12423          	sw	t5,-312(sp)

0000000080008468 <i_8169>:
    80008468:	035d5ebb          	divuw	t4,s10,s5

000000008000846c <i_8170>:
    8000846c:	f8812a23          	sw	s0,-108(sp)

0000000080008470 <i_8171>:
    80008470:	03546063          	bltu	s0,s5,80008490 <i_8179>

0000000080008474 <i_8172>:
    80008474:	02800613          	li	a2,40

0000000080008478 <i_8173>:
    80008478:	00c41ab3          	sll	s5,s0,a2

000000008000847c <i_8174>:
    8000847c:	01d40663          	beq	s0,t4,80008488 <i_8177>

0000000080008480 <i_8175>:
    80008480:	0a810823          	sb	s0,176(sp)

0000000080008484 <i_8176>:
    80008484:	0044509b          	srliw	ra,s0,0x4

0000000080008488 <i_8177>:
    80008488:	00261e93          	slli	t4,a2,0x2

000000008000848c <i_8178>:
    8000848c:	488eea93          	ori	s5,t4,1160

0000000080008490 <i_8179>:
    80008490:	035f6f33          	rem	t5,t5,s5

0000000080008494 <i_8180>:
    80008494:	13813e03          	ld	t3,312(sp)

0000000080008498 <i_8181>:
    80008498:	76f00613          	li	a2,1903

000000008000849c <i_8182>:
    8000849c:	77300b93          	li	s7,1907

00000000800084a0 <i_8183>:
    800084a0:	00000013          	nop

00000000800084a4 <i_8184>:
    800084a4:	07712e23          	sw	s7,124(sp)

00000000800084a8 <i_8185>:
    800084a8:	01c00f13          	li	t5,28

00000000800084ac <i_8186>:
    800084ac:	01e4143b          	sllw	s0,s0,t5

00000000800084b0 <i_8187>:
    800084b0:	01cf1e63          	bne	t5,t3,800084cc <i_8193>

00000000800084b4 <i_8188>:
    800084b4:	00840c63          	beq	s0,s0,800084cc <i_8193>

00000000800084b8 <i_8189>:
    800084b8:	00160613          	addi	a2,a2,1
    800084bc:	fecb92e3          	bne	s7,a2,800084a0 <i_8183>

00000000800084c0 <i_8190>:
    800084c0:	18314e03          	lbu	t3,387(sp)

00000000800084c4 <i_8191>:
    800084c4:	00000013          	nop

00000000800084c8 <i_8192>:
    800084c8:	01c103a3          	sb	t3,7(sp)

00000000800084cc <i_8193>:
    800084cc:	e7410a03          	lb	s4,-396(sp)

00000000800084d0 <i_8194>:
    800084d0:	f2610a83          	lb	s5,-218(sp)

00000000800084d4 <i_8195>:
    800084d4:	86300f13          	li	t5,-1949

00000000800084d8 <i_8196>:
    800084d8:	87500413          	li	s0,-1931

00000000800084dc <i_8197>:
    800084dc:	01441263          	bne	s0,s4,800084e0 <i_8198>

00000000800084e0 <i_8198>:
    800084e0:	01cf5e63          	ble	t3,t5,800084fc <i_8205>

00000000800084e4 <i_8199>:
    800084e4:	03ce0e33          	mul	t3,t3,t3

00000000800084e8 <i_8200>:
    800084e8:	05013683          	ld	a3,80(sp)

00000000800084ec <i_8201>:
    800084ec:	c6ec9a17          	auipc	s4,0xc6ec9

00000000800084f0 <i_8202>:
    800084f0:	ebc11023          	sh	t3,-352(sp)

00000000800084f4 <i_8203>:
    800084f4:	02df7263          	bleu	a3,t5,80008518 <i_8211>

00000000800084f8 <i_8204>:
    800084f8:	00000013          	nop

00000000800084fc <i_8205>:
    800084fc:	03af77b3          	remu	a5,t5,s10

0000000080008500 <i_8206>:
    80008500:	fdf14a83          	lbu	s5,-33(sp)

0000000080008504 <i_8207>:
    80008504:	002f5313          	srli	t1,t5,0x2

0000000080008508 <i_8208>:
    80008508:	001f0f13          	addi	t5,t5,1
    8000850c:	fde458e3          	ble	t5,s0,800084dc <i_8197>

0000000080008510 <i_8209>:
    80008510:	01200b13          	li	s6,18

0000000080008514 <i_8210>:
    80008514:	41635d33          	sra	s10,t1,s6

0000000080008518 <i_8211>:
    80008518:	016b4263          	blt	s6,s6,8000851c <i_8212>

000000008000851c <i_8212>:
    8000851c:	00136463          	bltu	t1,ra,80008524 <i_8214>

0000000080008520 <i_8213>:
    80008520:	ff013b03          	ld	s6,-16(sp)

0000000080008524 <i_8214>:
    80008524:	03a9d063          	ble	s10,s3,80008544 <i_8222>

0000000080008528 <i_8215>:
    80008528:	024d25b3          	mulhsu	a1,s10,tp

000000008000852c <i_8216>:
    8000852c:	036b8263          	beq	s7,s6,80008550 <i_8225>

0000000080008530 <i_8217>:
    80008530:	4019dd9b          	sraiw	s11,s3,0x1

0000000080008534 <i_8218>:
    80008534:	19c12b03          	lw	s6,412(sp)

0000000080008538 <i_8219>:
    80008538:	12813083          	ld	ra,296(sp)

000000008000853c <i_8220>:
    8000853c:	07a11d23          	sh	s10,122(sp)

0000000080008540 <i_8221>:
    80008540:	d555ac93          	slti	s9,a1,-683

0000000080008544 <i_8222>:
    80008544:	11a11223          	sh	s10,260(sp)

0000000080008548 <i_8223>:
    80008548:	16311923          	sh	gp,370(sp)

000000008000854c <i_8224>:
    8000854c:	005b4863          	blt	s6,t0,8000855c <i_8228>

0000000080008550 <i_8225>:
    80008550:	0b412183          	lw	gp,180(sp)

0000000080008554 <i_8226>:
    80008554:	016b0b33          	add	s6,s6,s6

0000000080008558 <i_8227>:
    80008558:	1d615183          	lhu	gp,470(sp)

000000008000855c <i_8228>:
    8000855c:	fcb14b03          	lbu	s6,-53(sp)

0000000080008560 <i_8229>:
    80008560:	e6215b83          	lhu	s7,-414(sp)

0000000080008564 <i_8230>:
    80008564:	cf8d7b93          	andi	s7,s10,-776

0000000080008568 <i_8231>:
    80008568:	0161de63          	ble	s6,gp,80008584 <i_8238>

000000008000856c <i_8232>:
    8000856c:	036b7eb3          	remu	t4,s6,s6

0000000080008570 <i_8233>:
    80008570:	11416183          	lwu	gp,276(sp)

0000000080008574 <i_8234>:
    80008574:	f4514503          	lbu	a0,-187(sp)

0000000080008578 <i_8235>:
    80008578:	1dd14b83          	lbu	s7,477(sp)

000000008000857c <i_8236>:
    8000857c:	03651bb3          	mulh	s7,a0,s6

0000000080008580 <i_8237>:
    80008580:	0ea13023          	sd	a0,224(sp)

0000000080008584 <i_8238>:
    80008584:	03ad4d3b          	divw	s10,s10,s10

0000000080008588 <i_8239>:
    80008588:	3d656513          	ori	a0,a0,982

000000008000858c <i_8240>:
    8000858c:	00a3a633          	slt	a2,t2,a0

0000000080008590 <i_8241>:
    80008590:	02c603b3          	mul	t2,a2,a2

0000000080008594 <i_8242>:
    80008594:	7cf00513          	li	a0,1999

0000000080008598 <i_8243>:
    80008598:	7dd00d13          	li	s10,2013

000000008000859c <i_8244>:
    8000859c:	1a810603          	lb	a2,424(sp)

00000000800085a0 <i_8245>:
    800085a0:	00150513          	addi	a0,a0,1
    800085a4:	fead7ce3          	bleu	a0,s10,8000859c <i_8244>

00000000800085a8 <i_8246>:
    800085a8:	ff013a83          	ld	s5,-16(sp)

00000000800085ac <i_8247>:
    800085ac:	f6015683          	lhu	a3,-160(sp)

00000000800085b0 <i_8248>:
    800085b0:	01566a63          	bltu	a2,s5,800085c4 <i_8253>

00000000800085b4 <i_8249>:
    800085b4:	f6f10a83          	lb	s5,-145(sp)

00000000800085b8 <i_8250>:
    800085b8:	fef14a83          	lbu	s5,-17(sp)

00000000800085bc <i_8251>:
    800085bc:	66a5e593          	ori	a1,a1,1642

00000000800085c0 <i_8252>:
    800085c0:	eea15983          	lhu	s3,-278(sp)

00000000800085c4 <i_8253>:
    800085c4:	03c16e3b          	remw	t3,sp,t3

00000000800085c8 <i_8254>:
    800085c8:	02b12823          	sw	a1,48(sp)

00000000800085cc <i_8255>:
    800085cc:	9fdae993          	ori	s3,s5,-1539

00000000800085d0 <i_8256>:
    800085d0:	e1911f23          	sh	s9,-482(sp)

00000000800085d4 <i_8257>:
    800085d4:	035e7833          	remu	a6,t3,s5

00000000800085d8 <i_8258>:
    800085d8:	e9e13823          	sd	t5,-368(sp)

00000000800085dc <i_8259>:
    800085dc:	88c00f13          	li	t5,-1908

00000000800085e0 <i_8260>:
    800085e0:	89e00993          	li	s3,-1890

00000000800085e4 <i_8261>:
    800085e4:	02b00593          	li	a1,43

00000000800085e8 <i_8262>:
    800085e8:	40bad633          	sra	a2,s5,a1

00000000800085ec <i_8263>:
    800085ec:	02900493          	li	s1,41

00000000800085f0 <i_8264>:
    800085f0:	00969633          	sll	a2,a3,s1

00000000800085f4 <i_8265>:
    800085f4:	001f0f13          	addi	t5,t5,1
    800085f8:	ffe9d6e3          	ble	t5,s3,800085e4 <i_8261>

00000000800085fc <i_8266>:
    800085fc:	03549263          	bne	s1,s5,80008620 <i_8275>

0000000080008600 <i_8267>:
    80008600:	01f00493          	li	s1,31

0000000080008604 <i_8268>:
    80008604:	009b55bb          	srlw	a1,s6,s1

0000000080008608 <i_8269>:
    80008608:	17311a23          	sh	s3,372(sp)

000000008000860c <i_8270>:
    8000860c:	b9809ab7          	lui	s5,0xb9809

0000000080008610 <i_8271>:
    80008610:	f0912e23          	sw	s1,-228(sp)

0000000080008614 <i_8272>:
    80008614:	e8412b03          	lw	s6,-380(sp)

0000000080008618 <i_8273>:
    80008618:	01200393          	li	t2,18

000000008000861c <i_8274>:
    8000861c:	4074d23b          	sraw	tp,s1,t2

0000000080008620 <i_8275>:
    80008620:	03e4df33          	divu	t5,s1,t5

0000000080008624 <i_8276>:
    80008624:	4042549b          	sraiw	s1,tp,0x4

0000000080008628 <i_8277>:
    80008628:	009f6c63          	bltu	t5,s1,80008640 <i_8283>

000000008000862c <i_8278>:
    8000862c:	409480b3          	sub	ra,s1,s1

0000000080008630 <i_8279>:
    80008630:	02700793          	li	a5,39

0000000080008634 <i_8280>:
    80008634:	40f0d4b3          	sra	s1,ra,a5

0000000080008638 <i_8281>:
    80008638:	001484b3          	add	s1,s1,ra

000000008000863c <i_8282>:
    8000863c:	02f09263          	bne	ra,a5,80008660 <i_8291>

0000000080008640 <i_8283>:
    80008640:	0bc15783          	lhu	a5,188(sp)

0000000080008644 <i_8284>:
    80008644:	02a8c53b          	divw	a0,a7,a0

0000000080008648 <i_8285>:
    80008648:	15813383          	ld	t2,344(sp)

000000008000864c <i_8286>:
    8000864c:	01ea8e63          	beq	s5,t5,80008668 <i_8293>

0000000080008650 <i_8287>:
    80008650:	0a911823          	sh	s1,176(sp)

0000000080008654 <i_8288>:
    80008654:	03200e93          	li	t4,50

0000000080008658 <i_8289>:
    80008658:	01d794b3          	sll	s1,a5,t4

000000008000865c <i_8290>:
    8000865c:	fb015f03          	lhu	t5,-80(sp)

0000000080008660 <i_8291>:
    80008660:	0014d493          	srli	s1,s1,0x1

0000000080008664 <i_8292>:
    80008664:	404ede9b          	sraiw	t4,t4,0x4

0000000080008668 <i_8293>:
    80008668:	01defe63          	bleu	t4,t4,80008684 <i_8300>

000000008000866c <i_8294>:
    8000866c:	03d4d263          	ble	t4,s1,80008690 <i_8303>

0000000080008670 <i_8295>:
    80008670:	01ded663          	ble	t4,t4,8000867c <i_8298>

0000000080008674 <i_8296>:
    80008674:	41da0bbb          	subw	s7,s4,t4

0000000080008678 <i_8297>:
    80008678:	07711723          	sh	s7,110(sp)

000000008000867c <i_8298>:
    8000867c:	03d39063          	bne	t2,t4,8000869c <i_8306>

0000000080008680 <i_8299>:
    80008680:	009ef263          	bleu	s1,t4,80008684 <i_8300>

0000000080008684 <i_8300>:
    80008684:	01daeab3          	or	s5,s5,t4

0000000080008688 <i_8301>:
    80008688:	0353c263          	blt	t2,s5,800086ac <i_8310>

000000008000868c <i_8302>:
    8000868c:	8227f493          	andi	s1,a5,-2014

0000000080008690 <i_8303>:
    80008690:	f9d10e83          	lb	t4,-99(sp)

0000000080008694 <i_8304>:
    80008694:	e7c14483          	lbu	s1,-388(sp)

0000000080008698 <i_8305>:
    80008698:	12210823          	sb	sp,304(sp)

000000008000869c <i_8306>:
    8000869c:	903b8e9b          	addiw	t4,s7,-1789

00000000800086a0 <i_8307>:
    800086a0:	02812e83          	lw	t4,40(sp)

00000000800086a4 <i_8308>:
    800086a4:	01d4f263          	bleu	t4,s1,800086a8 <i_8309>

00000000800086a8 <i_8309>:
    800086a8:	00b00e93          	li	t4,11

00000000800086ac <i_8310>:
    800086ac:	01db9ebb          	sllw	t4,s7,t4

00000000800086b0 <i_8311>:
    800086b0:	02900e13          	li	t3,41

00000000800086b4 <i_8312>:
    800086b4:	41ce52b3          	sra	t0,t3,t3

00000000800086b8 <i_8313>:
    800086b8:	01d14583          	lbu	a1,29(sp)

00000000800086bc <i_8314>:
    800086bc:	002e141b          	slliw	s0,t3,0x2

00000000800086c0 <i_8315>:
    800086c0:	f4e10c83          	lb	s9,-178(sp)

00000000800086c4 <i_8316>:
    800086c4:	ecc11c83          	lh	s9,-308(sp)

00000000800086c8 <i_8317>:
    800086c8:	00411083          	lh	ra,4(sp)

00000000800086cc <i_8318>:
    800086cc:	f9013283          	ld	t0,-112(sp)

00000000800086d0 <i_8319>:
    800086d0:	0055fcb3          	and	s9,a1,t0

00000000800086d4 <i_8320>:
    800086d4:	001e199b          	slliw	s3,t3,0x1

00000000800086d8 <i_8321>:
    800086d8:	00ce6eb3          	or	t4,t3,a2

00000000800086dc <i_8322>:
    800086dc:	1e314183          	lbu	gp,483(sp)

00000000800086e0 <i_8323>:
    800086e0:	01ccf663          	bleu	t3,s9,800086ec <i_8326>

00000000800086e4 <i_8324>:
    800086e4:	00bcfe63          	bleu	a1,s9,80008700 <i_8331>

00000000800086e8 <i_8325>:
    800086e8:	18a15c83          	lhu	s9,394(sp)

00000000800086ec <i_8326>:
    800086ec:	0f998b13          	addi	s6,s3,249 # eaef0f9 <main-0x71510f07>

00000000800086f0 <i_8327>:
    800086f0:	eba10823          	sb	s10,-336(sp)

00000000800086f4 <i_8328>:
    800086f4:	03169263          	bne	a3,a7,80008718 <i_8337>

00000000800086f8 <i_8329>:
    800086f8:	efb12223          	sw	s11,-284(sp)

00000000800086fc <i_8330>:
    800086fc:	fc812083          	lw	ra,-56(sp)

0000000080008700 <i_8331>:
    80008700:	036cadb3          	mulhsu	s11,s9,s6

0000000080008704 <i_8332>:
    80008704:	016cfdb3          	and	s11,s9,s6

0000000080008708 <i_8333>:
    80008708:	03beeb3b          	remw	s6,t4,s11

000000008000870c <i_8334>:
    8000870c:	025b5b33          	divu	s6,s6,t0

0000000080008710 <i_8335>:
    80008710:	036b5db3          	divu	s11,s6,s6

0000000080008714 <i_8336>:
    80008714:	096103a3          	sb	s6,135(sp)

0000000080008718 <i_8337>:
    80008718:	17f14c83          	lbu	s9,383(sp)

000000008000871c <i_8338>:
    8000871c:	004d9c93          	slli	s9,s11,0x4

0000000080008720 <i_8339>:
    80008720:	019b3b33          	sltu	s6,s6,s9

0000000080008724 <i_8340>:
    80008724:	f5014983          	lbu	s3,-176(sp)

0000000080008728 <i_8341>:
    80008728:	016c8e63          	beq	s9,s6,80008744 <i_8348>

000000008000872c <i_8342>:
    8000872c:	013c8c63          	beq	s9,s3,80008744 <i_8348>

0000000080008730 <i_8343>:
    80008730:	012b4463          	blt	s6,s2,80008738 <i_8345>

0000000080008734 <i_8344>:
    80008734:	02416b83          	lwu	s7,36(sp)

0000000080008738 <i_8345>:
    80008738:	fd610ea3          	sb	s6,-35(sp)

000000008000873c <i_8346>:
    8000873c:	003b1f13          	slli	t5,s6,0x3

0000000080008740 <i_8347>:
    80008740:	02813603          	ld	a2,40(sp)

0000000080008744 <i_8348>:
    80008744:	033cbf33          	mulhu	t5,s9,s3

0000000080008748 <i_8349>:
    80008748:	0389acb3          	mulhsu	s9,s3,s8

000000008000874c <i_8350>:
    8000874c:	00217463          	bleu	sp,sp,80008754 <i_8352>

0000000080008750 <i_8351>:
    80008750:	fdc11083          	lh	ra,-36(sp)

0000000080008754 <i_8352>:
    80008754:	001f7a63          	bleu	ra,t5,80008768 <i_8357>

0000000080008758 <i_8353>:
    80008758:	016f0663          	beq	t5,s6,80008764 <i_8356>

000000008000875c <i_8354>:
    8000875c:	eec13823          	sd	a2,-272(sp)

0000000080008760 <i_8355>:
    80008760:	021ca5b3          	mulhsu	a1,s9,ra

0000000080008764 <i_8356>:
    80008764:	1ac12503          	lw	a0,428(sp)

0000000080008768 <i_8357>:
    80008768:	00bb5463          	ble	a1,s6,80008770 <i_8359>

000000008000876c <i_8358>:
    8000876c:	1e013083          	ld	ra,480(sp)

0000000080008770 <i_8359>:
    80008770:	01600f13          	li	t5,22

0000000080008774 <i_8360>:
    80008774:	01e2dcb3          	srl	s9,t0,t5

0000000080008778 <i_8361>:
    80008778:	f3e10023          	sb	t5,-224(sp)

000000008000877c <i_8362>:
    8000877c:	18411b03          	lh	s6,388(sp)

0000000080008780 <i_8363>:
    80008780:	ede13023          	sd	t5,-320(sp)

0000000080008784 <i_8364>:
    80008784:	016106a3          	sb	s6,13(sp)

0000000080008788 <i_8365>:
    80008788:	00af4e63          	blt	t5,a0,800087a4 <i_8372>

000000008000878c <i_8366>:
    8000878c:	03650463          	beq	a0,s6,800087b4 <i_8376>

0000000080008790 <i_8367>:
    80008790:	ffe11523          	sh	t5,-22(sp)

0000000080008794 <i_8368>:
    80008794:	036b3b33          	mulhu	s6,s6,s6

0000000080008798 <i_8369>:
    80008798:	03500f13          	li	t5,53

000000008000879c <i_8370>:
    8000879c:	01ef1c33          	sll	s8,t5,t5

00000000800087a0 <i_8371>:
    800087a0:	01e96c33          	or	s8,s2,t5

00000000800087a4 <i_8372>:
    800087a4:	ede11123          	sh	t5,-318(sp)

00000000800087a8 <i_8373>:
    800087a8:	f5e11323          	sh	t5,-186(sp)

00000000800087ac <i_8374>:
    800087ac:	016adc63          	ble	s6,s5,800087c4 <i_8380>

00000000800087b0 <i_8375>:
    800087b0:	00412303          	lw	t1,4(sp)

00000000800087b4 <i_8376>:
    800087b4:	0cc12e03          	lw	t3,204(sp)

00000000800087b8 <i_8377>:
    800087b8:	ee810383          	lb	t2,-280(sp)

00000000800087bc <i_8378>:
    800087bc:	018c7863          	bleu	s8,s8,800087cc <i_8382>

00000000800087c0 <i_8379>:
    800087c0:	03013e03          	ld	t3,48(sp)

00000000800087c4 <i_8380>:
    800087c4:	f9416303          	lwu	t1,-108(sp)

00000000800087c8 <i_8381>:
    800087c8:	036c4463          	blt	s8,s6,800087f0 <i_8391>

00000000800087cc <i_8382>:
    800087cc:	03634463          	blt	t1,s6,800087f4 <i_8392>

00000000800087d0 <i_8383>:
    800087d0:	f1611183          	lh	gp,-234(sp)

00000000800087d4 <i_8384>:
    800087d4:	e2013f03          	ld	t5,-480(sp)

00000000800087d8 <i_8385>:
    800087d8:	038f7b33          	remu	s6,t5,s8

00000000800087dc <i_8386>:
    800087dc:	012e3313          	sltiu	t1,t3,18

00000000800087e0 <i_8387>:
    800087e0:	006b0c63          	beq	s6,t1,800087f8 <i_8393>

00000000800087e4 <i_8388>:
    800087e4:	03236063          	bltu	t1,s2,80008804 <i_8396>

00000000800087e8 <i_8389>:
    800087e8:	1dc14303          	lbu	t1,476(sp)

00000000800087ec <i_8390>:
    800087ec:	e5d11023          	sh	t4,-448(sp)

00000000800087f0 <i_8391>:
    800087f0:	00100c13          	li	s8,1

00000000800087f4 <i_8392>:
    800087f4:	018b5b3b          	srlw	s6,s6,s8

00000000800087f8 <i_8393>:
    800087f8:	0369f263          	bleu	s6,s3,8000881c <i_8402>

00000000800087fc <i_8394>:
    800087fc:	13611a23          	sh	s6,308(sp)

0000000080008800 <i_8395>:
    80008800:	d9cb7193          	andi	gp,s6,-612

0000000080008804 <i_8396>:
    80008804:	0333623b          	remw	tp,t1,s3

0000000080008808 <i_8397>:
    80008808:	03818263          	beq	gp,s8,8000882c <i_8406>

000000008000880c <i_8398>:
    8000880c:	fa016a83          	lwu	s5,-96(sp)

0000000080008810 <i_8399>:
    80008810:	035b2ab3          	mulhsu	s5,s6,s5

0000000080008814 <i_8400>:
    80008814:	e2a15d03          	lhu	s10,-470(sp)

0000000080008818 <i_8401>:
    80008818:	07b14b83          	lbu	s7,123(sp)

000000008000881c <i_8402>:
    8000881c:	0381d263          	ble	s8,gp,80008840 <i_8411>

0000000080008820 <i_8403>:
    80008820:	018c5663          	ble	s8,s8,8000882c <i_8406>

0000000080008824 <i_8404>:
    80008824:	02e363bb          	remw	t2,t1,a4

0000000080008828 <i_8405>:
    80008828:	bc6b6c13          	ori	s8,s6,-1082

000000008000882c <i_8406>:
    8000882c:	18c13c23          	sd	a2,408(sp)

0000000080008830 <i_8407>:
    80008830:	0168d863          	ble	s6,a7,80008840 <i_8411>

0000000080008834 <i_8408>:
    80008834:	06914e03          	lbu	t3,105(sp)

0000000080008838 <i_8409>:
    80008838:	0381e1bb          	remw	gp,gp,s8

000000008000883c <i_8410>:
    8000883c:	f3813423          	sd	s8,-216(sp)

0000000080008840 <i_8411>:
    80008840:	00b00b13          	li	s6,11

0000000080008844 <i_8412>:
    80008844:	016e5e3b          	srlw	t3,t3,s6

0000000080008848 <i_8413>:
    80008848:	e0310ea3          	sb	gp,-483(sp)

000000008000884c <i_8414>:
    8000884c:	036e79bb          	remuw	s3,t3,s6

0000000080008850 <i_8415>:
    80008850:	e5016603          	lwu	a2,-432(sp)

0000000080008854 <i_8416>:
    80008854:	19816383          	lwu	t2,408(sp)

0000000080008858 <i_8417>:
    80008858:	0339c063          	blt	s3,s3,80008878 <i_8425>

000000008000885c <i_8418>:
    8000885c:	0270e0bb          	remw	ra,ra,t2

0000000080008860 <i_8419>:
    80008860:	16513423          	sd	t0,360(sp)

0000000080008864 <i_8420>:
    80008864:	03313423          	sd	s3,40(sp)

0000000080008868 <i_8421>:
    80008868:	11310723          	sb	s3,270(sp)

000000008000886c <i_8422>:
    8000886c:	40780433          	sub	s0,a6,t2

0000000080008870 <i_8423>:
    80008870:	ed712423          	sw	s7,-312(sp)

0000000080008874 <i_8424>:
    80008874:	f8113023          	sd	ra,-128(sp)

0000000080008878 <i_8425>:
    80008878:	00847c63          	bleu	s0,s0,80008890 <i_8431>

000000008000887c <i_8426>:
    8000887c:	f2112623          	sw	ra,-212(sp)

0000000080008880 <i_8427>:
    80008880:	0c812423          	sw	s0,200(sp)

0000000080008884 <i_8428>:
    80008884:	8768081b          	addiw	a6,a6,-1930

0000000080008888 <i_8429>:
    80008888:	648aa613          	slti	a2,s5,1608

000000008000888c <i_8430>:
    8000888c:	0070a0b3          	slt	ra,ra,t2

0000000080008890 <i_8431>:
    80008890:	01b3c463          	blt	t2,s11,80008898 <i_8433>

0000000080008894 <i_8432>:
    80008894:	0220fa3b          	remuw	s4,ra,sp

0000000080008898 <i_8433>:
    80008898:	02899263          	bne	s3,s0,800088bc <i_8442>

000000008000889c <i_8434>:
    8000889c:	07012083          	lw	ra,112(sp)

00000000800088a0 <i_8435>:
    800088a0:	03440cbb          	mulw	s9,s0,s4

00000000800088a4 <i_8436>:
    800088a4:	02a45063          	ble	a0,s0,800088c4 <i_8444>

00000000800088a8 <i_8437>:
    800088a8:	fd813603          	ld	a2,-40(sp)

00000000800088ac <i_8438>:
    800088ac:	ebc10e03          	lb	t3,-324(sp)

00000000800088b0 <i_8439>:
    800088b0:	001f0863          	beq	t5,ra,800088c0 <i_8443>

00000000800088b4 <i_8440>:
    800088b4:	02199263          	bne	s3,ra,800088d8 <i_8449>

00000000800088b8 <i_8441>:
    800088b8:	08713423          	sd	t2,136(sp)

00000000800088bc <i_8442>:
    800088bc:	01967663          	bleu	s9,a2,800088c8 <i_8445>

00000000800088c0 <i_8443>:
    800088c0:	0289a633          	mulhsu	a2,s3,s0

00000000800088c4 <i_8444>:
    800088c4:	ea111523          	sh	ra,-342(sp)

00000000800088c8 <i_8445>:
    800088c8:	f4112023          	sw	ra,-192(sp)

00000000800088cc <i_8446>:
    800088cc:	00113023          	sd	ra,0(sp)

00000000800088d0 <i_8447>:
    800088d0:	b8c7b197          	auipc	gp,0xb8c7b

00000000800088d4 <i_8448>:
    800088d4:	f5a14803          	lbu	a6,-166(sp)

00000000800088d8 <i_8449>:
    800088d8:	c8d49397          	auipc	t2,0xc8d49

00000000800088dc <i_8450>:
    800088dc:	00181a63          	bne	a6,ra,800088f0 <i_8455>

00000000800088e0 <i_8451>:
    800088e0:	01400293          	li	t0,20

00000000800088e4 <i_8452>:
    800088e4:	005617bb          	sllw	a5,a2,t0

00000000800088e8 <i_8453>:
    800088e8:	02cdf0bb          	remuw	ra,s11,a2

00000000800088ec <i_8454>:
    800088ec:	01800d93          	li	s11,24

00000000800088f0 <i_8455>:
    800088f0:	41b0d9bb          	sraw	s3,ra,s11

00000000800088f4 <i_8456>:
    800088f4:	1c012403          	lw	s0,448(sp)

00000000800088f8 <i_8457>:
    800088f8:	01347663          	bleu	s3,s0,80008904 <i_8460>

00000000800088fc <i_8458>:
    800088fc:	007cf263          	bleu	t2,s9,80008900 <i_8459>

0000000080008900 <i_8459>:
    80008900:	00c87663          	bleu	a2,a6,8000890c <i_8462>

0000000080008904 <i_8460>:
    80008904:	03986463          	bltu	a6,s9,8000892c <i_8470>

0000000080008908 <i_8461>:
    80008908:	e7c12023          	sw	t3,-416(sp)

000000008000890c <i_8462>:
    8000890c:	02162633          	mulhsu	a2,a2,ra

0000000080008910 <i_8463>:
    80008910:	1486ce37          	lui	t3,0x1486c

0000000080008914 <i_8464>:
    80008914:	f7f14503          	lbu	a0,-129(sp)

0000000080008918 <i_8465>:
    80008918:	ec112c23          	sw	ra,-296(sp)

000000008000891c <i_8466>:
    8000891c:	01064263          	blt	a2,a6,80008920 <i_8467>

0000000080008920 <i_8467>:
    80008920:	a089881b          	addiw	a6,s3,-1528

0000000080008924 <i_8468>:
    80008924:	1e013983          	ld	s3,480(sp)

0000000080008928 <i_8469>:
    80008928:	e4310983          	lb	s3,-445(sp)

000000008000892c <i_8470>:
    8000892c:	05611e83          	lh	t4,86(sp)

0000000080008930 <i_8471>:
    80008930:	1d813683          	ld	a3,472(sp)

0000000080008934 <i_8472>:
    80008934:	77400393          	li	t2,1908

0000000080008938 <i_8473>:
    80008938:	77a00993          	li	s3,1914

000000008000893c <i_8474>:
    8000893c:	00138393          	addi	t2,t2,1 # 48d518d9 <main-0x372ae727>
    80008940:	fe79fee3          	bleu	t2,s3,8000893c <i_8474>

0000000080008944 <i_8475>:
    80008944:	00425a9b          	srliw	s5,tp,0x4

0000000080008948 <i_8476>:
    80008948:	03513423          	sd	s5,40(sp)

000000008000894c <i_8477>:
    8000894c:	7d000e93          	li	t4,2000

0000000080008950 <i_8478>:
    80008950:	7d600213          	li	tp,2006

0000000080008954 <i_8479>:
    80008954:	404202bb          	subw	t0,tp,tp

0000000080008958 <i_8480>:
    80008958:	001e8e93          	addi	t4,t4,1
    8000895c:	ffd25ce3          	ble	t4,tp,80008954 <i_8479>

0000000080008960 <i_8481>:
    80008960:	0a812403          	lw	s0,168(sp)

0000000080008964 <i_8482>:
    80008964:	00000013          	nop

0000000080008968 <i_8483>:
    80008968:	7a400213          	li	tp,1956

000000008000896c <i_8484>:
    8000896c:	7ae00693          	li	a3,1966

0000000080008970 <i_8485>:
    80008970:	0082f663          	bleu	s0,t0,8000897c <i_8488>

0000000080008974 <i_8486>:
    80008974:	fd016183          	lwu	gp,-48(sp)

0000000080008978 <i_8487>:
    80008978:	02444663          	blt	s0,tp,800089a4 <i_8497>

000000008000897c <i_8488>:
    8000897c:	03527463          	bleu	s5,tp,800089a4 <i_8497>

0000000080008980 <i_8489>:
    80008980:	0232f263          	bleu	gp,t0,800089a4 <i_8497>

0000000080008984 <i_8490>:
    80008984:	05012a83          	lw	s5,80(sp)

0000000080008988 <i_8491>:
    80008988:	00120213          	addi	tp,tp,1 # 1 <main-0x7fffffff>
    8000898c:	fed262e3          	bltu	tp,a3,80008970 <i_8485>

0000000080008990 <i_8492>:
    80008990:	05012403          	lw	s0,80(sp)

0000000080008994 <i_8493>:
    80008994:	00000013          	nop

0000000080008998 <i_8494>:
    80008998:	03f14e03          	lbu	t3,63(sp)

000000008000899c <i_8495>:
    8000899c:	00000013          	nop

00000000800089a0 <i_8496>:
    800089a0:	0f013303          	ld	t1,240(sp)

00000000800089a4 <i_8497>:
    800089a4:	001e141b          	slliw	s0,t3,0x1

00000000800089a8 <i_8498>:
    800089a8:	01633e33          	sltu	t3,t1,s6

00000000800089ac <i_8499>:
    800089ac:	8a200a93          	li	s5,-1886

00000000800089b0 <i_8500>:
    800089b0:	8ab00993          	li	s3,-1877

00000000800089b4 <i_8501>:
    800089b4:	1a6104a3          	sb	t1,425(sp)

00000000800089b8 <i_8502>:
    800089b8:	f7914483          	lbu	s1,-135(sp)

00000000800089bc <i_8503>:
    800089bc:	14712023          	sw	t2,320(sp)

00000000800089c0 <i_8504>:
    800089c0:	033e60bb          	remw	ra,t3,s3

00000000800089c4 <i_8505>:
    800089c4:	00940263          	beq	s0,s1,800089c8 <i_8506>

00000000800089c8 <i_8506>:
    800089c8:	09416483          	lwu	s1,148(sp)

00000000800089cc <i_8507>:
    800089cc:	026d6d3b          	remw	s10,s10,t1

00000000800089d0 <i_8508>:
    800089d0:	0294e663          	bltu	s1,s1,800089fc <i_8518>

00000000800089d4 <i_8509>:
    800089d4:	001a8a93          	addi	s5,s5,1 # ffffffffb9809001 <_end+0xffffffff397f8bed>
    800089d8:	fd3aeee3          	bltu	s5,s3,800089b4 <i_8501>

00000000800089dc <i_8510>:
    800089dc:	03cccab3          	div	s5,s9,t3

00000000800089e0 <i_8511>:
    800089e0:	f5013d03          	ld	s10,-176(sp)

00000000800089e4 <i_8512>:
    800089e4:	0d114c03          	lbu	s8,209(sp)

00000000800089e8 <i_8513>:
    800089e8:	004d5213          	srli	tp,s10,0x4

00000000800089ec <i_8514>:
    800089ec:	17811d23          	sh	s8,378(sp)

00000000800089f0 <i_8515>:
    800089f0:	00000013          	nop

00000000800089f4 <i_8516>:
    800089f4:	00000013          	nop

00000000800089f8 <i_8517>:
    800089f8:	00000013          	nop

00000000800089fc <i_8518>:
    800089fc:	039c3233          	mulhu	tp,s8,s9

0000000080008a00 <i_8519>:
    80008a00:	13015c83          	lhu	s9,304(sp)

0000000080008a04 <i_8520>:
    80008a04:	73900d13          	li	s10,1849

0000000080008a08 <i_8521>:
    80008a08:	73b00993          	li	s3,1851

0000000080008a0c <i_8522>:
    80008a0c:	019c8433          	add	s0,s9,s9

0000000080008a10 <i_8523>:
    80008a10:	00820463          	beq	tp,s0,80008a18 <i_8525>

0000000080008a14 <i_8524>:
    80008a14:	1a414e83          	lbu	t4,420(sp)

0000000080008a18 <i_8525>:
    80008a18:	00000013          	nop

0000000080008a1c <i_8526>:
    80008a1c:	02444263          	blt	s0,tp,80008a40 <i_8534>

0000000080008a20 <i_8527>:
    80008a20:	b6e42413          	slti	s0,s0,-1170

0000000080008a24 <i_8528>:
    80008a24:	01bc4433          	xor	s0,s8,s11

0000000080008a28 <i_8529>:
    80008a28:	001d0d13          	addi	s10,s10,1
    80008a2c:	ff3d40e3          	blt	s10,s3,80008a0c <i_8522>

0000000080008a30 <i_8530>:
    80008a30:	05442413          	slti	s0,s0,84

0000000080008a34 <i_8531>:
    80008a34:	16c12c03          	lw	s8,364(sp)

0000000080008a38 <i_8532>:
    80008a38:	0016de1b          	srliw	t3,a3,0x1

0000000080008a3c <i_8533>:
    80008a3c:	05114403          	lbu	s0,81(sp)

0000000080008a40 <i_8534>:
    80008a40:	8b642693          	slti	a3,s0,-1866

0000000080008a44 <i_8535>:
    80008a44:	3d9e2e13          	slti	t3,t3,985

0000000080008a48 <i_8536>:
    80008a48:	00842433          	slt	s0,s0,s0

0000000080008a4c <i_8537>:
    80008a4c:	eac11383          	lh	t2,-340(sp)

0000000080008a50 <i_8538>:
    80008a50:	898cfab7          	lui	s5,0x898cf

0000000080008a54 <i_8539>:
    80008a54:	014a8433          	add	s0,s5,s4

0000000080008a58 <i_8540>:
    80008a58:	41540533          	sub	a0,s0,s5

0000000080008a5c <i_8541>:
    80008a5c:	fab10d03          	lb	s10,-85(sp)

0000000080008a60 <i_8542>:
    80008a60:	f1813283          	ld	t0,-232(sp)

0000000080008a64 <i_8543>:
    80008a64:	038ad1bb          	divuw	gp,s5,s8

0000000080008a68 <i_8544>:
    80008a68:	ead13823          	sd	a3,-336(sp)

0000000080008a6c <i_8545>:
    80008a6c:	023453b3          	divu	t2,s0,gp

0000000080008a70 <i_8546>:
    80008a70:	01140433          	add	s0,s0,a7

0000000080008a74 <i_8547>:
    80008a74:	02339063          	bne	t2,gp,80008a94 <i_8555>

0000000080008a78 <i_8548>:
    80008a78:	0081d463          	ble	s0,gp,80008a80 <i_8550>

0000000080008a7c <i_8549>:
    80008a7c:	02319463          	bne	gp,gp,80008aa4 <i_8559>

0000000080008a80 <i_8550>:
    80008a80:	10012203          	lw	tp,256(sp)

0000000080008a84 <i_8551>:
    80008a84:	13012983          	lw	s3,304(sp)

0000000080008a88 <i_8552>:
    80008a88:	01ba41b3          	xor	gp,s4,s11

0000000080008a8c <i_8553>:
    80008a8c:	f7bdc413          	xori	s0,s11,-133

0000000080008a90 <i_8554>:
    80008a90:	eb815403          	lhu	s0,-328(sp)

0000000080008a94 <i_8555>:
    80008a94:	00000013          	nop

0000000080008a98 <i_8556>:
    80008a98:	00000013          	nop

0000000080008a9c <i_8557>:
    80008a9c:	00341b1b          	slliw	s6,s0,0x3

0000000080008aa0 <i_8558>:
    80008aa0:	00000013          	nop

0000000080008aa4 <i_8559>:
    80008aa4:	036b5c33          	divu	s8,s6,s6

0000000080008aa8 <i_8560>:
    80008aa8:	40345393          	srai	t2,s0,0x3

0000000080008aac <i_8561>:
    80008aac:	74f00a13          	li	s4,1871

0000000080008ab0 <i_8562>:
    80008ab0:	75300d93          	li	s11,1875

0000000080008ab4 <i_8563>:
    80008ab4:	402b509b          	sraiw	ra,s6,0x2

0000000080008ab8 <i_8564>:
    80008ab8:	004c5b1b          	srliw	s6,s8,0x4

0000000080008abc <i_8565>:
    80008abc:	7a200193          	li	gp,1954

0000000080008ac0 <i_8566>:
    80008ac0:	7ae00313          	li	t1,1966

0000000080008ac4 <i_8567>:
    80008ac4:	00118193          	addi	gp,gp,1 # 38c838d1 <main-0x4737c72f>
    80008ac8:	fe61eee3          	bltu	gp,t1,80008ac4 <i_8567>

0000000080008acc <i_8568>:
    80008acc:	1ac16383          	lwu	t2,428(sp)

0000000080008ad0 <i_8569>:
    80008ad0:	016b7b33          	and	s6,s6,s6

0000000080008ad4 <i_8570>:
    80008ad4:	001a0a13          	addi	s4,s4,1 # 46ed14ed <main-0x3912eb13>
    80008ad8:	fd4dfee3          	bleu	s4,s11,80008ab4 <i_8563>

0000000080008adc <i_8571>:
    80008adc:	4aeb8493          	addi	s1,s7,1198

0000000080008ae0 <i_8572>:
    80008ae0:	11014b03          	lbu	s6,272(sp)

0000000080008ae4 <i_8573>:
    80008ae4:	016ed263          	ble	s6,t4,80008ae8 <i_8574>

0000000080008ae8 <i_8574>:
    80008ae8:	eaf14783          	lbu	a5,-337(sp)

0000000080008aec <i_8575>:
    80008aec:	e1c15283          	lhu	t0,-484(sp)

0000000080008af0 <i_8576>:
    80008af0:	02fedebb          	divuw	t4,t4,a5

0000000080008af4 <i_8577>:
    80008af4:	12613023          	sd	t1,288(sp)

0000000080008af8 <i_8578>:
    80008af8:	ec112e23          	sw	ra,-292(sp)

0000000080008afc <i_8579>:
    80008afc:	14611083          	lh	ra,326(sp)

0000000080008b00 <i_8580>:
    80008b00:	fb012483          	lw	s1,-80(sp)

0000000080008b04 <i_8581>:
    80008b04:	0254d463          	ble	t0,s1,80008b2c <i_8591>

0000000080008b08 <i_8582>:
    80008b08:	01dece63          	blt	t4,t4,80008b24 <i_8589>

0000000080008b0c <i_8583>:
    80008b0c:	02948eb3          	mul	t4,s1,s1

0000000080008b10 <i_8584>:
    80008b10:	00700493          	li	s1,7

0000000080008b14 <i_8585>:
    80008b14:	0092d0bb          	srlw	ra,t0,s1

0000000080008b18 <i_8586>:
    80008b18:	f5b14283          	lbu	t0,-165(sp)

0000000080008b1c <i_8587>:
    80008b1c:	401ede93          	srai	t4,t4,0x1

0000000080008b20 <i_8588>:
    80008b20:	021efe33          	remu	t3,t4,ra

0000000080008b24 <i_8589>:
    80008b24:	02984263          	blt	a6,s1,80008b48 <i_8598>

0000000080008b28 <i_8590>:
    80008b28:	03cec063          	blt	t4,t3,80008b48 <i_8598>

0000000080008b2c <i_8591>:
    80008b2c:	01d86833          	or	a6,a6,t4

0000000080008b30 <i_8592>:
    80008b30:	401e581b          	sraiw	a6,t3,0x1

0000000080008b34 <i_8593>:
    80008b34:	f6c11803          	lh	a6,-148(sp)

0000000080008b38 <i_8594>:
    80008b38:	03c86463          	bltu	a6,t3,80008b60 <i_8604>

0000000080008b3c <i_8595>:
    80008b3c:	18615a03          	lhu	s4,390(sp)

0000000080008b40 <i_8596>:
    80008b40:	e5b11423          	sh	s11,-440(sp)

0000000080008b44 <i_8597>:
    80008b44:	0b8f6b13          	ori	s6,t5,184

0000000080008b48 <i_8598>:
    80008b48:	009874b3          	and	s1,a6,s1

0000000080008b4c <i_8599>:
    80008b4c:	ec416803          	lwu	a6,-316(sp)

0000000080008b50 <i_8600>:
    80008b50:	fb613823          	sd	s6,-80(sp)

0000000080008b54 <i_8601>:
    80008b54:	00b00993          	li	s3,11

0000000080008b58 <i_8602>:
    80008b58:	013e1ab3          	sll	s5,t3,s3

0000000080008b5c <i_8603>:
    80008b5c:	15013b03          	ld	s6,336(sp)

0000000080008b60 <i_8604>:
    80008b60:	e9714683          	lbu	a3,-361(sp)

0000000080008b64 <i_8605>:
    80008b64:	17511c23          	sh	s5,376(sp)

0000000080008b68 <i_8606>:
    80008b68:	f1412a23          	sw	s4,-236(sp)

0000000080008b6c <i_8607>:
    80008b6c:	16b12023          	sw	a1,352(sp)

0000000080008b70 <i_8608>:
    80008b70:	0ac14583          	lbu	a1,172(sp)

0000000080008b74 <i_8609>:
    80008b74:	01680e63          	beq	a6,s6,80008b90 <i_8616>

0000000080008b78 <i_8610>:
    80008b78:	0046d61b          	srliw	a2,a3,0x4

0000000080008b7c <i_8611>:
    80008b7c:	18412a23          	sw	tp,404(sp)

0000000080008b80 <i_8612>:
    80008b80:	fd016a03          	lwu	s4,-48(sp)

0000000080008b84 <i_8613>:
    80008b84:	fb015c03          	lhu	s8,-80(sp)

0000000080008b88 <i_8614>:
    80008b88:	8ec32b13          	slti	s6,t1,-1812

0000000080008b8c <i_8615>:
    80008b8c:	29c82693          	slti	a3,a6,668

0000000080008b90 <i_8616>:
    80008b90:	e4412a03          	lw	s4,-444(sp)

0000000080008b94 <i_8617>:
    80008b94:	0189c9b3          	xor	s3,s3,s8

0000000080008b98 <i_8618>:
    80008b98:	eaf10803          	lb	a6,-337(sp)

0000000080008b9c <i_8619>:
    80008b9c:	e8815803          	lhu	a6,-376(sp)

0000000080008ba0 <i_8620>:
    80008ba0:	87100993          	li	s3,-1935

0000000080008ba4 <i_8621>:
    80008ba4:	87700513          	li	a0,-1929

0000000080008ba8 <i_8622>:
    80008ba8:	e7012e23          	sw	a6,-388(sp)

0000000080008bac <i_8623>:
    80008bac:	e4f10803          	lb	a6,-433(sp)

0000000080008bb0 <i_8624>:
    80008bb0:	87d00c13          	li	s8,-1923

0000000080008bb4 <i_8625>:
    80008bb4:	88500493          	li	s1,-1915

0000000080008bb8 <i_8626>:
    80008bb8:	001c0c13          	addi	s8,s8,1
    80008bbc:	fe9c4ee3          	blt	s8,s1,80008bb8 <i_8626>

0000000080008bc0 <i_8627>:
    80008bc0:	0e9106a3          	sb	s1,237(sp)

0000000080008bc4 <i_8628>:
    80008bc4:	9845821b          	addiw	tp,a1,-1660

0000000080008bc8 <i_8629>:
    80008bc8:	02b4543b          	divuw	s0,s0,a1

0000000080008bcc <i_8630>:
    80008bcc:	00145093          	srli	ra,s0,0x1

0000000080008bd0 <i_8631>:
    80008bd0:	0c913823          	sd	s1,208(sp)

0000000080008bd4 <i_8632>:
    80008bd4:	00198993          	addi	s3,s3,1
    80008bd8:	fca998e3          	bne	s3,a0,80008ba8 <i_8622>

0000000080008bdc <i_8633>:
    80008bdc:	037ce463          	bltu	s9,s7,80008c04 <i_8643>

0000000080008be0 <i_8634>:
    80008be0:	11013023          	sd	a6,256(sp)

0000000080008be4 <i_8635>:
    80008be4:	02de8ebb          	mulw	t4,t4,a3

0000000080008be8 <i_8636>:
    80008be8:	03885cb3          	divu	s9,a6,s8

0000000080008bec <i_8637>:
    80008bec:	fff10203          	lb	tp,-1(sp)

0000000080008bf0 <i_8638>:
    80008bf0:	03087abb          	remuw	s5,a6,a6

0000000080008bf4 <i_8639>:
    80008bf4:	415c0c33          	sub	s8,s8,s5

0000000080008bf8 <i_8640>:
    80008bf8:	019c8b33          	add	s6,s9,s9

0000000080008bfc <i_8641>:
    80008bfc:	00bd8c63          	beq	s11,a1,80008c14 <i_8647>

0000000080008c00 <i_8642>:
    80008c00:	f92ce613          	ori	a2,s9,-110

0000000080008c04 <i_8643>:
    80008c04:	02fc76bb          	remuw	a3,s8,a5

0000000080008c08 <i_8644>:
    80008c08:	036602bb          	mulw	t0,a2,s6

0000000080008c0c <i_8645>:
    80008c0c:	f6013b03          	ld	s6,-160(sp)

0000000080008c10 <i_8646>:
    80008c10:	03f00613          	li	a2,63

0000000080008c14 <i_8647>:
    80008c14:	00c297b3          	sll	a5,t0,a2

0000000080008c18 <i_8648>:
    80008c18:	005287b3          	add	a5,t0,t0

0000000080008c1c <i_8649>:
    80008c1c:	08514283          	lbu	t0,133(sp)

0000000080008c20 <i_8650>:
    80008c20:	00400513          	li	a0,4

0000000080008c24 <i_8651>:
    80008c24:	40a9d1bb          	sraw	gp,s3,a0

0000000080008c28 <i_8652>:
    80008c28:	00f82833          	slt	a6,a6,a5

0000000080008c2c <i_8653>:
    80008c2c:	01028263          	beq	t0,a6,80008c30 <i_8654>

0000000080008c30 <i_8654>:
    80008c30:	88e67437          	lui	s0,0x88e67

0000000080008c34 <i_8655>:
    80008c34:	01085a63          	ble	a6,a6,80008c48 <i_8660>

0000000080008c38 <i_8656>:
    80008c38:	00f18863          	beq	gp,a5,80008c48 <i_8660>

0000000080008c3c <i_8657>:
    80008c3c:	ed215683          	lhu	a3,-302(sp)

0000000080008c40 <i_8658>:
    80008c40:	02d7cf3b          	divw	t5,a5,a3

0000000080008c44 <i_8659>:
    80008c44:	1e313023          	sd	gp,480(sp)

0000000080008c48 <i_8660>:
    80008c48:	0030861b          	addiw	a2,ra,3

0000000080008c4c <i_8661>:
    80008c4c:	0c013603          	ld	a2,192(sp)

0000000080008c50 <i_8662>:
    80008c50:	02c22233          	mulhsu	tp,tp,a2

0000000080008c54 <i_8663>:
    80008c54:	88200193          	li	gp,-1918

0000000080008c58 <i_8664>:
    80008c58:	89600093          	li	ra,-1898

0000000080008c5c <i_8665>:
    80008c5c:	e64109a3          	sb	tp,-397(sp)

0000000080008c60 <i_8666>:
    80008c60:	02c2463b          	divw	a2,tp,a2

0000000080008c64 <i_8667>:
    80008c64:	0010ec63          	bltu	ra,ra,80008c7c <i_8673>

0000000080008c68 <i_8668>:
    80008c68:	1be10403          	lb	s0,446(sp)

0000000080008c6c <i_8669>:
    80008c6c:	04112a23          	sw	ra,84(sp)

0000000080008c70 <i_8670>:
    80008c70:	02c4563b          	divuw	a2,s0,a2

0000000080008c74 <i_8671>:
    80008c74:	00846e63          	bltu	s0,s0,80008c90 <i_8678>

0000000080008c78 <i_8672>:
    80008c78:	ecc16d83          	lwu	s11,-308(sp)

0000000080008c7c <i_8673>:
    80008c7c:	00000013          	nop

0000000080008c80 <i_8674>:
    80008c80:	00c63433          	sltu	s0,a2,a2

0000000080008c84 <i_8675>:
    80008c84:	00c60463          	beq	a2,a2,80008c8c <i_8677>

0000000080008c88 <i_8676>:
    80008c88:	1c815603          	lhu	a2,456(sp)

0000000080008c8c <i_8677>:
    80008c8c:	02c67663          	bleu	a2,a2,80008cb8 <i_8687>

0000000080008c90 <i_8678>:
    80008c90:	03b67663          	bleu	s11,a2,80008cbc <i_8688>

0000000080008c94 <i_8679>:
    80008c94:	f4813c83          	ld	s9,-184(sp)

0000000080008c98 <i_8680>:
    80008c98:	fe215b03          	lhu	s6,-30(sp)

0000000080008c9c <i_8681>:
    80008c9c:	00118193          	addi	gp,gp,1
    80008ca0:	fa30fee3          	bleu	gp,ra,80008c5c <i_8665>

0000000080008ca4 <i_8682>:
    80008ca4:	eb611d23          	sh	s6,-326(sp)

0000000080008ca8 <i_8683>:
    80008ca8:	03bc843b          	mulw	s0,s9,s11

0000000080008cac <i_8684>:
    80008cac:	07615b83          	lhu	s7,118(sp)

0000000080008cb0 <i_8685>:
    80008cb0:	03b65b33          	divu	s6,a2,s11

0000000080008cb4 <i_8686>:
    80008cb4:	03bdc433          	div	s0,s11,s11

0000000080008cb8 <i_8687>:
    80008cb8:	00000013          	nop

0000000080008cbc <i_8688>:
    80008cbc:	05813983          	ld	s3,88(sp)

0000000080008cc0 <i_8689>:
    80008cc0:	00000013          	nop

0000000080008cc4 <i_8690>:
    80008cc4:	7c000d93          	li	s11,1984

0000000080008cc8 <i_8691>:
    80008cc8:	7cb00613          	li	a2,1995

0000000080008ccc <i_8692>:
    80008ccc:	e2c16403          	lwu	s0,-468(sp)

0000000080008cd0 <i_8693>:
    80008cd0:	fef42293          	slti	t0,s0,-17

0000000080008cd4 <i_8694>:
    80008cd4:	88200493          	li	s1,-1918

0000000080008cd8 <i_8695>:
    80008cd8:	88800993          	li	s3,-1912

0000000080008cdc <i_8696>:
    80008cdc:	00000013          	nop

0000000080008ce0 <i_8697>:
    80008ce0:	00000013          	nop

0000000080008ce4 <i_8698>:
    80008ce4:	00148493          	addi	s1,s1,1
    80008ce8:	ff34cae3          	blt	s1,s3,80008cdc <i_8696>

0000000080008cec <i_8699>:
    80008cec:	eb812983          	lw	s3,-328(sp)

0000000080008cf0 <i_8700>:
    80008cf0:	0272d3b3          	divu	t2,t0,t2

0000000080008cf4 <i_8701>:
    80008cf4:	001d8d93          	addi	s11,s11,1
    80008cf8:	fdb61ae3          	bne	a2,s11,80008ccc <i_8692>

0000000080008cfc <i_8702>:
    80008cfc:	16513023          	sd	t0,352(sp)

0000000080008d00 <i_8703>:
    80008d00:	01d64e63          	blt	a2,t4,80008d1c <i_8710>

0000000080008d04 <i_8704>:
    80008d04:	00d00a93          	li	s5,13

0000000080008d08 <i_8705>:
    80008d08:	4153df3b          	sraw	t5,t2,s5

0000000080008d0c <i_8706>:
    80008d0c:	fb114d03          	lbu	s10,-79(sp)

0000000080008d10 <i_8707>:
    80008d10:	ee513823          	sd	t0,-272(sp)

0000000080008d14 <i_8708>:
    80008d14:	0692f293          	andi	t0,t0,105

0000000080008d18 <i_8709>:
    80008d18:	00359613          	slli	a2,a1,0x3

0000000080008d1c <i_8710>:
    80008d1c:	0042981b          	slliw	a6,t0,0x4

0000000080008d20 <i_8711>:
    80008d20:	1d013983          	ld	s3,464(sp)

0000000080008d24 <i_8712>:
    80008d24:	197103a3          	sb	s7,391(sp)

0000000080008d28 <i_8713>:
    80008d28:	1579f093          	andi	ra,s3,343

0000000080008d2c <i_8714>:
    80008d2c:	02a00993          	li	s3,42

0000000080008d30 <i_8715>:
    80008d30:	013493b3          	sll	t2,s1,s3

0000000080008d34 <i_8716>:
    80008d34:	1dc14383          	lbu	t2,476(sp)

0000000080008d38 <i_8717>:
    80008d38:	fe814383          	lbu	t2,-24(sp)

0000000080008d3c <i_8718>:
    80008d3c:	01b10463          	beq	sp,s11,80008d44 <i_8720>

0000000080008d40 <i_8719>:
    80008d40:	014a8e63          	beq	s5,s4,80008d5c <i_8726>

0000000080008d44 <i_8720>:
    80008d44:	e6215d03          	lhu	s10,-414(sp)

0000000080008d48 <i_8721>:
    80008d48:	fec10a23          	sb	a2,-12(sp)

0000000080008d4c <i_8722>:
    80008d4c:	6317d597          	auipc	a1,0x6317d

0000000080008d50 <i_8723>:
    80008d50:	008ea833          	slt	a6,t4,s0

0000000080008d54 <i_8724>:
    80008d54:	03fec43b          	divw	s0,t4,t6

0000000080008d58 <i_8725>:
    80008d58:	008d32b3          	sltu	t0,s10,s0

0000000080008d5c <i_8726>:
    80008d5c:	00000013          	nop

0000000080008d60 <i_8727>:
    80008d60:	00000013          	nop

0000000080008d64 <i_8728>:
    80008d64:	87300c93          	li	s9,-1933

0000000080008d68 <i_8729>:
    80008d68:	87900e93          	li	t4,-1927

0000000080008d6c <i_8730>:
    80008d6c:	0282d263          	ble	s0,t0,80008d90 <i_8738>

0000000080008d70 <i_8731>:
    80008d70:	001c8c93          	addi	s9,s9,1
    80008d74:	ffdcece3          	bltu	s9,t4,80008d6c <i_8730>

0000000080008d78 <i_8732>:
    80008d78:	00559863          	bne	a1,t0,80008d88 <i_8736>

0000000080008d7c <i_8733>:
    80008d7c:	028402bb          	mulw	t0,s0,s0

0000000080008d80 <i_8734>:
    80008d80:	0055d863          	ble	t0,a1,80008d90 <i_8738>

0000000080008d84 <i_8735>:
    80008d84:	028d57bb          	divuw	a5,s10,s0

0000000080008d88 <i_8736>:
    80008d88:	13d12423          	sw	t4,296(sp)

0000000080008d8c <i_8737>:
    80008d8c:	e8016083          	lwu	ra,-384(sp)

0000000080008d90 <i_8738>:
    80008d90:	6ffe849b          	addiw	s1,t4,1791

0000000080008d94 <i_8739>:
    80008d94:	0e013483          	ld	s1,224(sp)

0000000080008d98 <i_8740>:
    80008d98:	00700e93          	li	t4,7

0000000080008d9c <i_8741>:
    80008d9c:	01d0d0b3          	srl	ra,ra,t4

0000000080008da0 <i_8742>:
    80008da0:	009eda63          	ble	s1,t4,80008db4 <i_8747>

0000000080008da4 <i_8743>:
    80008da4:	00978863          	beq	a5,s1,80008db4 <i_8747>

0000000080008da8 <i_8744>:
    80008da8:	c88a8a37          	lui	s4,0xc88a8

0000000080008dac <i_8745>:
    80008dac:	12310e83          	lb	t4,291(sp)

0000000080008db0 <i_8746>:
    80008db0:	0084e663          	bltu	s1,s0,80008dbc <i_8749>

0000000080008db4 <i_8747>:
    80008db4:	01452433          	slt	s0,a0,s4

0000000080008db8 <i_8748>:
    80008db8:	03013403          	ld	s0,48(sp)

0000000080008dbc <i_8749>:
    80008dbc:	00545e63          	ble	t0,s0,80008dd8 <i_8756>

0000000080008dc0 <i_8750>:
    80008dc0:	b16ee413          	ori	s0,t4,-1258

0000000080008dc4 <i_8751>:
    80008dc4:	03a00413          	li	s0,58

0000000080008dc8 <i_8752>:
    80008dc8:	40845db3          	sra	s11,s0,s0

0000000080008dcc <i_8753>:
    80008dcc:	403181bb          	subw	gp,gp,gp

0000000080008dd0 <i_8754>:
    80008dd0:	01bdedb3          	or	s11,s11,s11

0000000080008dd4 <i_8755>:
    80008dd4:	028ed43b          	divuw	s0,t4,s0

0000000080008dd8 <i_8756>:
    80008dd8:	10c15d03          	lhu	s10,268(sp)

0000000080008ddc <i_8757>:
    80008ddc:	13713c23          	sd	s7,312(sp)

0000000080008de0 <i_8758>:
    80008de0:	0271ed3b          	remw	s10,gp,t2

0000000080008de4 <i_8759>:
    80008de4:	008d0263          	beq	s10,s0,80008de8 <i_8760>

0000000080008de8 <i_8760>:
    80008de8:	0b812583          	lw	a1,184(sp)

0000000080008dec <i_8761>:
    80008dec:	00bd63b3          	or	t2,s10,a1

0000000080008df0 <i_8762>:
    80008df0:	027d53b3          	divu	t2,s10,t2

0000000080008df4 <i_8763>:
    80008df4:	e5a10723          	sb	s10,-434(sp)

0000000080008df8 <i_8764>:
    80008df8:	e8312e23          	sw	gp,-356(sp)

0000000080008dfc <i_8765>:
    80008dfc:	e2711223          	sh	t2,-476(sp)

0000000080008e00 <i_8766>:
    80008e00:	0273a3b3          	mulhsu	t2,t2,t2

0000000080008e04 <i_8767>:
    80008e04:	0093d863          	ble	s1,t2,80008e14 <i_8771>

0000000080008e08 <i_8768>:
    80008e08:	09812583          	lw	a1,152(sp)

0000000080008e0c <i_8769>:
    80008e0c:	00759c63          	bne	a1,t2,80008e24 <i_8775>

0000000080008e10 <i_8770>:
    80008e10:	027d5833          	divu	a6,s10,t2

0000000080008e14 <i_8771>:
    80008e14:	1a710423          	sb	t2,424(sp)

0000000080008e18 <i_8772>:
    80008e18:	19110d03          	lb	s10,401(sp)

0000000080008e1c <i_8773>:
    80008e1c:	e7813823          	sd	s8,-400(sp)

0000000080008e20 <i_8774>:
    80008e20:	5a287d13          	andi	s10,a6,1442

0000000080008e24 <i_8775>:
    80008e24:	00000013          	nop

0000000080008e28 <i_8776>:
    80008e28:	02384633          	div	a2,a6,gp

0000000080008e2c <i_8777>:
    80008e2c:	73500393          	li	t2,1845

0000000080008e30 <i_8778>:
    80008e30:	74000813          	li	a6,1856

0000000080008e34 <i_8779>:
    80008e34:	e3a15183          	lhu	gp,-454(sp)

0000000080008e38 <i_8780>:
    80008e38:	f5813983          	ld	s3,-168(sp)

0000000080008e3c <i_8781>:
    80008e3c:	ea412583          	lw	a1,-348(sp)

0000000080008e40 <i_8782>:
    80008e40:	00138393          	addi	t2,t2,1
    80008e44:	fe7858e3          	ble	t2,a6,80008e34 <i_8779>

0000000080008e48 <i_8783>:
    80008e48:	0ab12423          	sw	a1,168(sp)

0000000080008e4c <i_8784>:
    80008e4c:	02b5f263          	bleu	a1,a1,80008e70 <i_8793>

0000000080008e50 <i_8785>:
    80008e50:	fd310a23          	sb	s3,-44(sp)

0000000080008e54 <i_8786>:
    80008e54:	0ee11603          	lh	a2,238(sp)

0000000080008e58 <i_8787>:
    80008e58:	0235d5b3          	divu	a1,a1,gp

0000000080008e5c <i_8788>:
    80008e5c:	09812603          	lw	a2,152(sp)

0000000080008e60 <i_8789>:
    80008e60:	0239e53b          	remw	a0,s3,gp

0000000080008e64 <i_8790>:
    80008e64:	02b60263          	beq	a2,a1,80008e88 <i_8799>

0000000080008e68 <i_8791>:
    80008e68:	00b66863          	bltu	a2,a1,80008e78 <i_8795>

0000000080008e6c <i_8792>:
    80008e6c:	eab12a23          	sw	a1,-332(sp)

0000000080008e70 <i_8793>:
    80008e70:	03014983          	lbu	s3,48(sp)

0000000080008e74 <i_8794>:
    80008e74:	f9412a03          	lw	s4,-108(sp)

0000000080008e78 <i_8795>:
    80008e78:	07311323          	sh	s3,102(sp)

0000000080008e7c <i_8796>:
    80008e7c:	f9412423          	sw	s4,-120(sp)

0000000080008e80 <i_8797>:
    80008e80:	00465613          	srli	a2,a2,0x4

0000000080008e84 <i_8798>:
    80008e84:	ff812603          	lw	a2,-8(sp)

0000000080008e88 <i_8799>:
    80008e88:	02e00c13          	li	s8,46

0000000080008e8c <i_8800>:
    80008e8c:	418fd833          	sra	a6,t6,s8

0000000080008e90 <i_8801>:
    80008e90:	02914a83          	lbu	s5,41(sp)

0000000080008e94 <i_8802>:
    80008e94:	00000013          	nop

0000000080008e98 <i_8803>:
    80008e98:	82e00993          	li	s3,-2002

0000000080008e9c <i_8804>:
    80008e9c:	83e00813          	li	a6,-1986

0000000080008ea0 <i_8805>:
    80008ea0:	0344ca33          	div	s4,s1,s4

0000000080008ea4 <i_8806>:
    80008ea4:	030a8063          	beq	s5,a6,80008ec4 <i_8813>

0000000080008ea8 <i_8807>:
    80008ea8:	e1111c23          	sh	a7,-488(sp)

0000000080008eac <i_8808>:
    80008eac:	00198993          	addi	s3,s3,1
    80008eb0:	ff0998e3          	bne	s3,a6,80008ea0 <i_8805>

0000000080008eb4 <i_8809>:
    80008eb4:	eb810a83          	lb	s5,-328(sp)

0000000080008eb8 <i_8810>:
    80008eb8:	ff511023          	sh	s5,-32(sp)

0000000080008ebc <i_8811>:
    80008ebc:	edc15203          	lhu	tp,-292(sp)

0000000080008ec0 <i_8812>:
    80008ec0:	f9514d83          	lbu	s11,-107(sp)

0000000080008ec4 <i_8813>:
    80008ec4:	0a813d83          	ld	s11,168(sp)

0000000080008ec8 <i_8814>:
    80008ec8:	01bdf263          	bleu	s11,s11,80008ecc <i_8815>

0000000080008ecc <i_8815>:
    80008ecc:	01d25863          	ble	t4,tp,80008edc <i_8819>

0000000080008ed0 <i_8816>:
    80008ed0:	02e00b13          	li	s6,46

0000000080008ed4 <i_8817>:
    80008ed4:	016d9833          	sll	a6,s11,s6

0000000080008ed8 <i_8818>:
    80008ed8:	09b12023          	sw	s11,128(sp)

0000000080008edc <i_8819>:
    80008edc:	004de333          	or	t1,s11,tp

0000000080008ee0 <i_8820>:
    80008ee0:	fc611f23          	sh	t1,-34(sp)

0000000080008ee4 <i_8821>:
    80008ee4:	eae15d83          	lhu	s11,-338(sp)

0000000080008ee8 <i_8822>:
    80008ee8:	09a11403          	lh	s0,154(sp)

0000000080008eec <i_8823>:
    80008eec:	00431293          	slli	t0,t1,0x4

0000000080008ef0 <i_8824>:
    80008ef0:	036454b3          	divu	s1,s0,s6

0000000080008ef4 <i_8825>:
    80008ef4:	f7012423          	sw	a6,-152(sp)

0000000080008ef8 <i_8826>:
    80008ef8:	006dd863          	ble	t1,s11,80008f08 <i_8830>

0000000080008efc <i_8827>:
    80008efc:	fc413423          	sd	tp,-56(sp)

0000000080008f00 <i_8828>:
    80008f00:	0041e263          	bltu	gp,tp,80008f04 <i_8829>

0000000080008f04 <i_8829>:
    80008f04:	026af0b3          	remu	ra,s5,t1

0000000080008f08 <i_8830>:
    80008f08:	1b114283          	lbu	t0,433(sp)

0000000080008f0c <i_8831>:
    80008f0c:	e4812c23          	sw	s0,-424(sp)

0000000080008f10 <i_8832>:
    80008f10:	ef813c03          	ld	s8,-264(sp)

0000000080008f14 <i_8833>:
    80008f14:	00125613          	srli	a2,tp,0x1

0000000080008f18 <i_8834>:
    80008f18:	f3813c03          	ld	s8,-200(sp)

0000000080008f1c <i_8835>:
    80008f1c:	028e4463          	blt	t3,s0,80008f44 <i_8845>

0000000080008f20 <i_8836>:
    80008f20:	01547a63          	bleu	s5,s0,80008f34 <i_8841>

0000000080008f24 <i_8837>:
    80008f24:	1bb12a23          	sw	s11,436(sp)

0000000080008f28 <i_8838>:
    80008f28:	01849263          	bne	s1,s8,80008f2c <i_8839>

0000000080008f2c <i_8839>:
    80008f2c:	e4e10583          	lb	a1,-434(sp)

0000000080008f30 <i_8840>:
    80008f30:	03710803          	lb	a6,55(sp)

0000000080008f34 <i_8841>:
    80008f34:	009ac663          	blt	s5,s1,80008f40 <i_8844>

0000000080008f38 <i_8842>:
    80008f38:	00f7c863          	blt	a5,a5,80008f48 <i_8846>

0000000080008f3c <i_8843>:
    80008f3c:	40f78c33          	sub	s8,a5,a5

0000000080008f40 <i_8844>:
    80008f40:	18714603          	lbu	a2,391(sp)

0000000080008f44 <i_8845>:
    80008f44:	00000013          	nop

0000000080008f48 <i_8846>:
    80008f48:	00000013          	nop

0000000080008f4c <i_8847>:
    80008f4c:	1e414403          	lbu	s0,484(sp)

0000000080008f50 <i_8848>:
    80008f50:	78100793          	li	a5,1921

0000000080008f54 <i_8849>:
    80008f54:	78a00993          	li	s3,1930

0000000080008f58 <i_8850>:
    80008f58:	00178793          	addi	a5,a5,1 # ffffffff99576001 <_end+0xffffffff19565bed>
    80008f5c:	fef9dee3          	ble	a5,s3,80008f58 <i_8850>

0000000080008f60 <i_8851>:
    80008f60:	e2016d03          	lwu	s10,-480(sp)

0000000080008f64 <i_8852>:
    80008f64:	f9812223          	sw	s8,-124(sp)

0000000080008f68 <i_8853>:
    80008f68:	02462633          	mulhsu	a2,a2,tp

0000000080008f6c <i_8854>:
    80008f6c:	03ac7263          	bleu	s10,s8,80008f90 <i_8863>

0000000080008f70 <i_8855>:
    80008f70:	08812823          	sw	s0,144(sp)

0000000080008f74 <i_8856>:
    80008f74:	fcc11923          	sh	a2,-46(sp)

0000000080008f78 <i_8857>:
    80008f78:	01400613          	li	a2,20

0000000080008f7c <i_8858>:
    80008f7c:	40c15bbb          	sraw	s7,sp,a2

0000000080008f80 <i_8859>:
    80008f80:	e7710023          	sb	s7,-416(sp)

0000000080008f84 <i_8860>:
    80008f84:	1c311223          	sh	gp,452(sp)

0000000080008f88 <i_8861>:
    80008f88:	f6614d03          	lbu	s10,-154(sp)

0000000080008f8c <i_8862>:
    80008f8c:	fe215983          	lhu	s3,-30(sp)

0000000080008f90 <i_8863>:
    80008f90:	4021579b          	sraiw	a5,sp,0x2

0000000080008f94 <i_8864>:
    80008f94:	6000a093          	slti	ra,ra,1536

0000000080008f98 <i_8865>:
    80008f98:	87a00813          	li	a6,-1926

0000000080008f9c <i_8866>:
    80008f9c:	88300193          	li	gp,-1917

0000000080008fa0 <i_8867>:
    80008fa0:	00f08c63          	beq	ra,a5,80008fb8 <i_8872>

0000000080008fa4 <i_8868>:
    80008fa4:	00180813          	addi	a6,a6,1
    80008fa8:	ff01fce3          	bleu	a6,gp,80008fa0 <i_8867>

0000000080008fac <i_8869>:
    80008fac:	02108463          	beq	ra,ra,80008fd4 <i_8879>

0000000080008fb0 <i_8870>:
    80008fb0:	14e0a093          	slti	ra,ra,334

0000000080008fb4 <i_8871>:
    80008fb4:	1e012083          	lw	ra,480(sp)

0000000080008fb8 <i_8872>:
    80008fb8:	fec12083          	lw	ra,-20(sp)

0000000080008fbc <i_8873>:
    80008fbc:	0010d093          	srli	ra,ra,0x1

0000000080008fc0 <i_8874>:
    80008fc0:	fe615d83          	lhu	s11,-26(sp)

0000000080008fc4 <i_8875>:
    80008fc4:	11813c03          	ld	s8,280(sp)

0000000080008fc8 <i_8876>:
    80008fc8:	ee110923          	sb	ra,-270(sp)

0000000080008fcc <i_8877>:
    80008fcc:	ec1109a3          	sb	ra,-301(sp)

0000000080008fd0 <i_8878>:
    80008fd0:	00000013          	nop

0000000080008fd4 <i_8879>:
    80008fd4:	1d610ea3          	sb	s6,477(sp)

0000000080008fd8 <i_8880>:
    80008fd8:	0372d2bb          	divuw	t0,t0,s7

0000000080008fdc <i_8881>:
    80008fdc:	78900313          	li	t1,1929

0000000080008fe0 <i_8882>:
    80008fe0:	78d00993          	li	s3,1933

0000000080008fe4 <i_8883>:
    80008fe4:	f05103a3          	sb	t0,-249(sp)

0000000080008fe8 <i_8884>:
    80008fe8:	025300b3          	mul	ra,t1,t0

0000000080008fec <i_8885>:
    80008fec:	a782c293          	xori	t0,t0,-1416

0000000080008ff0 <i_8886>:
    80008ff0:	02529463          	bne	t0,t0,80009018 <i_8895>

0000000080008ff4 <i_8887>:
    80008ff4:	00429b9b          	slliw	s7,t0,0x4

0000000080008ff8 <i_8888>:
    80008ff8:	e7813283          	ld	t0,-392(sp)

0000000080008ffc <i_8889>:
    80008ffc:	00130313          	addi	t1,t1,1
    80009000:	ff3362e3          	bltu	t1,s3,80008fe4 <i_8883>

0000000080009004 <i_8890>:
    80009004:	19710123          	sb	s7,386(sp)

0000000080009008 <i_8891>:
    80009008:	401282bb          	subw	t0,t0,ra

000000008000900c <i_8892>:
    8000900c:	004280b3          	add	ra,t0,tp

0000000080009010 <i_8893>:
    80009010:	00b08a33          	add	s4,ra,a1

0000000080009014 <i_8894>:
    80009014:	00000013          	nop

0000000080009018 <i_8895>:
    80009018:	f2414803          	lbu	a6,-220(sp)

000000008000901c <i_8896>:
    8000901c:	00000013          	nop

0000000080009020 <i_8897>:
    80009020:	84d00593          	li	a1,-1971

0000000080009024 <i_8898>:
    80009024:	85a00293          	li	t0,-1958

0000000080009028 <i_8899>:
    80009028:	03a870b3          	remu	ra,a6,s10

000000008000902c <i_8900>:
    8000902c:	001a0a33          	add	s4,s4,ra

0000000080009030 <i_8901>:
    80009030:	19011083          	lh	ra,400(sp)

0000000080009034 <i_8902>:
    80009034:	e6811483          	lh	s1,-408(sp)

0000000080009038 <i_8903>:
    80009038:	00158593          	addi	a1,a1,1 # e3185d4d <_end+0x63175939>
    8000903c:	fe55c6e3          	blt	a1,t0,80009028 <i_8899>

0000000080009040 <i_8904>:
    80009040:	ffc11983          	lh	s3,-4(sp)

0000000080009044 <i_8905>:
    80009044:	f8910723          	sb	s1,-114(sp)

0000000080009048 <i_8906>:
    80009048:	1a412083          	lw	ra,420(sp)

000000008000904c <i_8907>:
    8000904c:	0309d9bb          	divuw	s3,s3,a6

0000000080009050 <i_8908>:
    80009050:	0049d493          	srli	s1,s3,0x4

0000000080009054 <i_8909>:
    80009054:	e4012983          	lw	s3,-448(sp)

0000000080009058 <i_8910>:
    80009058:	02b4d9b3          	divu	s3,s1,a1

000000008000905c <i_8911>:
    8000905c:	0bd12823          	sw	t4,176(sp)

0000000080009060 <i_8912>:
    80009060:	04912223          	sw	s1,68(sp)

0000000080009064 <i_8913>:
    80009064:	f7311c23          	sh	s3,-136(sp)

0000000080009068 <i_8914>:
    80009068:	0074c3b3          	xor	t2,s1,t2

000000008000906c <i_8915>:
    8000906c:	033fa433          	mulhsu	s0,t6,s3

0000000080009070 <i_8916>:
    80009070:	eaa15403          	lhu	s0,-342(sp)

0000000080009074 <i_8917>:
    80009074:	1d411383          	lh	t2,468(sp)

0000000080009078 <i_8918>:
    80009078:	90084d13          	xori	s10,a6,-1792

000000008000907c <i_8919>:
    8000907c:	c7944393          	xori	t2,s0,-903

0000000080009080 <i_8920>:
    80009080:	ff611603          	lh	a2,-10(sp)

0000000080009084 <i_8921>:
    80009084:	06862613          	slti	a2,a2,104

0000000080009088 <i_8922>:
    80009088:	0045dd93          	srli	s11,a1,0x4

000000008000908c <i_8923>:
    8000908c:	01b5e5b3          	or	a1,a1,s11

0000000080009090 <i_8924>:
    80009090:	f3411783          	lh	a5,-204(sp)

0000000080009094 <i_8925>:
    80009094:	01b7fe63          	bleu	s11,a5,800090b0 <i_8932>

0000000080009098 <i_8926>:
    80009098:	0ee14c03          	lbu	s8,238(sp)

000000008000909c <i_8927>:
    8000909c:	18c103a3          	sb	a2,391(sp)

00000000800090a0 <i_8928>:
    800090a0:	03879cb3          	mulh	s9,a5,s8

00000000800090a4 <i_8929>:
    800090a4:	05011783          	lh	a5,80(sp)

00000000800090a8 <i_8930>:
    800090a8:	01950c63          	beq	a0,s9,800090c0 <i_8936>

00000000800090ac <i_8931>:
    800090ac:	d01f6f13          	ori	t5,t5,-767

00000000800090b0 <i_8932>:
    800090b0:	f1a10d03          	lb	s10,-230(sp)

00000000800090b4 <i_8933>:
    800090b4:	022d7263          	bleu	sp,s10,800090d8 <i_8942>

00000000800090b8 <i_8934>:
    800090b8:	037d2d33          	mulhsu	s10,s10,s7

00000000800090bc <i_8935>:
    800090bc:	f7014e03          	lbu	t3,-144(sp)

00000000800090c0 <i_8936>:
    800090c0:	c676fe13          	andi	t3,a3,-921

00000000800090c4 <i_8937>:
    800090c4:	0c013a83          	ld	s5,192(sp)

00000000800090c8 <i_8938>:
    800090c8:	e8813583          	ld	a1,-376(sp)

00000000800090cc <i_8939>:
    800090cc:	01e74463          	blt	a4,t5,800090d4 <i_8941>

00000000800090d0 <i_8940>:
    800090d0:	03c4e263          	bltu	s1,t3,800090f4 <i_8949>

00000000800090d4 <i_8941>:
    800090d4:	eb511723          	sh	s5,-338(sp)

00000000800090d8 <i_8942>:
    800090d8:	09c13c23          	sd	t3,152(sp)

00000000800090dc <i_8943>:
    800090dc:	01cf0c63          	beq	t5,t3,800090f4 <i_8949>

00000000800090e0 <i_8944>:
    800090e0:	f1910a83          	lb	s5,-231(sp)

00000000800090e4 <i_8945>:
    800090e4:	01cafe63          	bleu	t3,s5,80009100 <i_8952>

00000000800090e8 <i_8946>:
    800090e8:	ee615a83          	lhu	s5,-282(sp)

00000000800090ec <i_8947>:
    800090ec:	18211e03          	lh	t3,386(sp)

00000000800090f0 <i_8948>:
    800090f0:	003e5263          	ble	gp,t3,800090f4 <i_8949>

00000000800090f4 <i_8949>:
    800090f4:	f8110183          	lb	gp,-127(sp)

00000000800090f8 <i_8950>:
    800090f8:	003e4663          	blt	t3,gp,80009104 <i_8953>

00000000800090fc <i_8951>:
    800090fc:	40b185bb          	subw	a1,gp,a1

0000000080009100 <i_8952>:
    80009100:	a2a3ee13          	ori	t3,t2,-1494

0000000080009104 <i_8953>:
    80009104:	b90cfc93          	andi	s9,s9,-1136

0000000080009108 <i_8954>:
    80009108:	0ac16e83          	lwu	t4,172(sp)

000000008000910c <i_8955>:
    8000910c:	edc108a3          	sb	t3,-303(sp)

0000000080009110 <i_8956>:
    80009110:	f1214383          	lbu	t2,-238(sp)

0000000080009114 <i_8957>:
    80009114:	d7be2e13          	slti	t3,t3,-645

0000000080009118 <i_8958>:
    80009118:	01c38e63          	beq	t2,t3,80009134 <i_8965>

000000008000911c <i_8959>:
    8000911c:	c053839b          	addiw	t2,t2,-1019

0000000080009120 <i_8960>:
    80009120:	258523b7          	lui	t2,0x25852

0000000080009124 <i_8961>:
    80009124:	41c3863b          	subw	a2,t2,t3

0000000080009128 <i_8962>:
    80009128:	05c109a3          	sb	t3,83(sp)

000000008000912c <i_8963>:
    8000912c:	0123d663          	ble	s2,t2,80009138 <i_8966>

0000000080009130 <i_8964>:
    80009130:	07c10623          	sb	t3,108(sp)

0000000080009134 <i_8965>:
    80009134:	19512223          	sw	s5,388(sp)

0000000080009138 <i_8966>:
    80009138:	05815383          	lhu	t2,88(sp)

000000008000913c <i_8967>:
    8000913c:	00000013          	nop

0000000080009140 <i_8968>:
    80009140:	00000013          	nop

0000000080009144 <i_8969>:
    80009144:	73400e13          	li	t3,1844

0000000080009148 <i_8970>:
    80009148:	74100513          	li	a0,1857

000000008000914c <i_8971>:
    8000914c:	1cc108a3          	sb	a2,465(sp)

0000000080009150 <i_8972>:
    80009150:	0a713023          	sd	t2,160(sp)

0000000080009154 <i_8973>:
    80009154:	01c57c63          	bleu	t3,a0,8000916c <i_8979>

0000000080009158 <i_8974>:
    80009158:	03d62eb3          	mulhsu	t4,a2,t4

000000008000915c <i_8975>:
    8000915c:	00c66db3          	or	s11,a2,a2

0000000080009160 <i_8976>:
    80009160:	f1d12223          	sw	t4,-252(sp)

0000000080009164 <i_8977>:
    80009164:	00cecc63          	blt	t4,a2,8000917c <i_8983>

0000000080009168 <i_8978>:
    80009168:	687b8e93          	addi	t4,s7,1671

000000008000916c <i_8979>:
    8000916c:	03de8463          	beq	t4,t4,80009194 <i_8988>

0000000080009170 <i_8980>:
    80009170:	e5114683          	lbu	a3,-431(sp)

0000000080009174 <i_8981>:
    80009174:	03dd8663          	beq	s11,t4,800091a0 <i_8991>

0000000080009178 <i_8982>:
    80009178:	00000013          	nop

000000008000917c <i_8983>:
    8000917c:	02d184b3          	mul	s1,gp,a3

0000000080009180 <i_8984>:
    80009180:	00000013          	nop

0000000080009184 <i_8985>:
    80009184:	001e0e13          	addi	t3,t3,1 # 1486c001 <main-0x6b793fff>
    80009188:	fdc552e3          	ble	t3,a0,8000914c <i_8971>

000000008000918c <i_8986>:
    8000918c:	fe013d83          	ld	s11,-32(sp)

0000000080009190 <i_8987>:
    80009190:	01ddf833          	and	a6,s11,t4

0000000080009194 <i_8988>:
    80009194:	00414a03          	lbu	s4,4(sp)

0000000080009198 <i_8989>:
    80009198:	e3410f23          	sb	s4,-450(sp)

000000008000919c <i_8990>:
    8000919c:	15411e83          	lh	t4,340(sp)

00000000800091a0 <i_8991>:
    800091a0:	10a10e83          	lb	t4,266(sp)

00000000800091a4 <i_8992>:
    800091a4:	014a1663          	bne	s4,s4,800091b0 <i_8995>

00000000800091a8 <i_8993>:
    800091a8:	01d6aa33          	slt	s4,a3,t4

00000000800091ac <i_8994>:
    800091ac:	02c11a23          	sh	a2,52(sp)

00000000800091b0 <i_8995>:
    800091b0:	00000013          	nop

00000000800091b4 <i_8996>:
    800091b4:	16c10ba3          	sb	a2,375(sp)

00000000800091b8 <i_8997>:
    800091b8:	88400493          	li	s1,-1916

00000000800091bc <i_8998>:
    800091bc:	88800613          	li	a2,-1912

00000000800091c0 <i_8999>:
    800091c0:	08911723          	sh	s1,142(sp)

00000000800091c4 <i_9000>:
    800091c4:	10d13c23          	sd	a3,280(sp)

00000000800091c8 <i_9001>:
    800091c8:	1c016583          	lwu	a1,448(sp)

00000000800091cc <i_9002>:
    800091cc:	1dc12683          	lw	a3,476(sp)

00000000800091d0 <i_9003>:
    800091d0:	0035959b          	slliw	a1,a1,0x3

00000000800091d4 <i_9004>:
    800091d4:	02d5c663          	blt	a1,a3,80009200 <i_9014>

00000000800091d8 <i_9005>:
    800091d8:	0165c263          	blt	a1,s6,800091dc <i_9006>

00000000800091dc <i_9006>:
    800091dc:	02d6e463          	bltu	a3,a3,80009204 <i_9015>

00000000800091e0 <i_9007>:
    800091e0:	f7416503          	lwu	a0,-140(sp)

00000000800091e4 <i_9008>:
    800091e4:	4025d51b          	sraiw	a0,a1,0x2

00000000800091e8 <i_9009>:
    800091e8:	00b5de63          	ble	a1,a1,80009204 <i_9015>

00000000800091ec <i_9010>:
    800091ec:	16611783          	lh	a5,358(sp)

00000000800091f0 <i_9011>:
    800091f0:	00148493          	addi	s1,s1,1
    800091f4:	fcc496e3          	bne	s1,a2,800091c0 <i_8999>

00000000800091f8 <i_9012>:
    800091f8:	02b79263          	bne	a5,a1,8000921c <i_9021>

00000000800091fc <i_9013>:
    800091fc:	1b012e83          	lw	t4,432(sp)

0000000080009200 <i_9014>:
    80009200:	00f58ab3          	add	s5,a1,a5

0000000080009204 <i_9015>:
    80009204:	14012a83          	lw	s5,320(sp)

0000000080009208 <i_9016>:
    80009208:	fe015e03          	lhu	t3,-32(sp)

000000008000920c <i_9017>:
    8000920c:	015aedb3          	or	s11,s5,s5

0000000080009210 <i_9018>:
    80009210:	00bccc63          	blt	s9,a1,80009228 <i_9024>

0000000080009214 <i_9019>:
    80009214:	0357f263          	bleu	s5,a5,80009238 <i_9028>

0000000080009218 <i_9020>:
    80009218:	fd414483          	lbu	s1,-44(sp)

000000008000921c <i_9021>:
    8000921c:	02b4e53b          	remw	a0,s1,a1

0000000080009220 <i_9022>:
    80009220:	de7db093          	sltiu	ra,s11,-537

0000000080009224 <i_9023>:
    80009224:	1ac16e83          	lwu	t4,428(sp)

0000000080009228 <i_9024>:
    80009228:	00d5b1b3          	sltu	gp,a1,a3

000000008000922c <i_9025>:
    8000922c:	2e13b237          	lui	tp,0x2e13b

0000000080009230 <i_9026>:
    80009230:	eba11483          	lh	s1,-326(sp)

0000000080009234 <i_9027>:
    80009234:	faf10783          	lb	a5,-81(sp)

0000000080009238 <i_9028>:
    80009238:	fa913c23          	sd	s1,-72(sp)

000000008000923c <i_9029>:
    8000923c:	e5410e03          	lb	t3,-428(sp)

0000000080009240 <i_9030>:
    80009240:	01c20a63          	beq	tp,t3,80009254 <i_9035>

0000000080009244 <i_9031>:
    80009244:	03ce0063          	beq	t3,t3,80009264 <i_9039>

0000000080009248 <i_9032>:
    80009248:	f6413423          	sd	tp,-152(sp)

000000008000924c <i_9033>:
    8000924c:	17016483          	lwu	s1,368(sp)

0000000080009250 <i_9034>:
    80009250:	0037de13          	srli	t3,a5,0x3

0000000080009254 <i_9035>:
    80009254:	8c378a93          	addi	s5,a5,-1853

0000000080009258 <i_9036>:
    80009258:	17013a03          	ld	s4,368(sp)

000000008000925c <i_9037>:
    8000925c:	00f27463          	bleu	a5,tp,80009264 <i_9039>

0000000080009260 <i_9038>:
    80009260:	11910403          	lb	s0,281(sp)

0000000080009264 <i_9039>:
    80009264:	fa810aa3          	sb	s0,-75(sp)

0000000080009268 <i_9040>:
    80009268:	01c40263          	beq	s0,t3,8000926c <i_9041>

000000008000926c <i_9041>:
    8000926c:	fb816c03          	lwu	s8,-72(sp)

0000000080009270 <i_9042>:
    80009270:	009e0663          	beq	t3,s1,8000927c <i_9045>

0000000080009274 <i_9043>:
    80009274:	f9615183          	lhu	gp,-106(sp)

0000000080009278 <i_9044>:
    80009278:	6491849b          	addiw	s1,gp,1609

000000008000927c <i_9045>:
    8000927c:	f2211523          	sh	sp,-214(sp)

0000000080009280 <i_9046>:
    80009280:	0291c063          	blt	gp,s1,800092a0 <i_9054>

0000000080009284 <i_9047>:
    80009284:	ea310483          	lb	s1,-349(sp)

0000000080009288 <i_9048>:
    80009288:	0d813823          	sd	s8,208(sp)

000000008000928c <i_9049>:
    8000928c:	00327e63          	bleu	gp,tp,800092a8 <i_9056>

0000000080009290 <i_9050>:
    80009290:	00948863          	beq	s1,s1,800092a0 <i_9054>

0000000080009294 <i_9051>:
    80009294:	009c5e63          	ble	s1,s8,800092b0 <i_9058>

0000000080009298 <i_9052>:
    80009298:	f5214d03          	lbu	s10,-174(sp)

000000008000929c <i_9053>:
    8000929c:	fd813823          	sd	s8,-48(sp)

00000000800092a0 <i_9054>:
    800092a0:	018d0a63          	beq	s10,s8,800092b4 <i_9059>

00000000800092a4 <i_9055>:
    800092a4:	009c7263          	bleu	s1,s8,800092a8 <i_9056>

00000000800092a8 <i_9056>:
    800092a8:	03abdd33          	divu	s10,s7,s10

00000000800092ac <i_9057>:
    800092ac:	03a877bb          	remuw	a5,a6,s10

00000000800092b0 <i_9058>:
    800092b0:	03ad47b3          	div	a5,s10,s10

00000000800092b4 <i_9059>:
    800092b4:	18813d03          	ld	s10,392(sp)

00000000800092b8 <i_9060>:
    800092b8:	0187cc63          	blt	a5,s8,800092d0 <i_9066>

00000000800092bc <i_9061>:
    800092bc:	e9a10d23          	sb	s10,-358(sp)

00000000800092c0 <i_9062>:
    800092c0:	00813f03          	ld	t5,8(sp)

00000000800092c4 <i_9063>:
    800092c4:	01c00c13          	li	s8,28

00000000800092c8 <i_9064>:
    800092c8:	018d1c3b          	sllw	s8,s10,s8

00000000800092cc <i_9065>:
    800092cc:	10e11a03          	lh	s4,270(sp)

00000000800092d0 <i_9066>:
    800092d0:	e6016e03          	lwu	t3,-416(sp)

00000000800092d4 <i_9067>:
    800092d4:	02fc0063          	beq	s8,a5,800092f4 <i_9075>

00000000800092d8 <i_9068>:
    800092d8:	03ca5063          	ble	t3,s4,800092f8 <i_9076>

00000000800092dc <i_9069>:
    800092dc:	0037c863          	blt	a5,gp,800092ec <i_9073>

00000000800092e0 <i_9070>:
    800092e0:	18a13823          	sd	a0,400(sp)

00000000800092e4 <i_9071>:
    800092e4:	17215f03          	lhu	t5,370(sp)

00000000800092e8 <i_9072>:
    800092e8:	007c1a63          	bne	s8,t2,800092fc <i_9077>

00000000800092ec <i_9073>:
    800092ec:	018e6cb3          	or	s9,t3,s8

00000000800092f0 <i_9074>:
    800092f0:	dbca2f13          	slti	t5,s4,-580

00000000800092f4 <i_9075>:
    800092f4:	0fa11a03          	lh	s4,250(sp)

00000000800092f8 <i_9076>:
    800092f8:	0380f0bb          	remuw	ra,ra,s8

00000000800092fc <i_9077>:
    800092fc:	00700a13          	li	s4,7

0000000080009300 <i_9078>:
    80009300:	014a16bb          	sllw	a3,s4,s4

0000000080009304 <i_9079>:
    80009304:	04412783          	lw	a5,68(sp)

0000000080009308 <i_9080>:
    80009308:	f1a15203          	lhu	tp,-230(sp)

000000008000930c <i_9081>:
    8000930c:	1c811183          	lh	gp,456(sp)

0000000080009310 <i_9082>:
    80009310:	19810683          	lb	a3,408(sp)

0000000080009314 <i_9083>:
    80009314:	f9d14a03          	lbu	s4,-99(sp)

0000000080009318 <i_9084>:
    80009318:	09412a23          	sw	s4,148(sp)

000000008000931c <i_9085>:
    8000931c:	f8615b03          	lhu	s6,-122(sp)

0000000080009320 <i_9086>:
    80009320:	418a0b3b          	subw	s6,s4,s8

0000000080009324 <i_9087>:
    80009324:	99ca3393          	sltiu	t2,s4,-1636

0000000080009328 <i_9088>:
    80009328:	17813603          	ld	a2,376(sp)

000000008000932c <i_9089>:
    8000932c:	78900213          	li	tp,1929

0000000080009330 <i_9090>:
    80009330:	79b00c93          	li	s9,1947

0000000080009334 <i_9091>:
    80009334:	00120213          	addi	tp,tp,1 # 2e13b001 <main-0x51ec4fff>
    80009338:	ff926ee3          	bltu	tp,s9,80009334 <i_9091>

000000008000933c <i_9092>:
    8000933c:	f1013083          	ld	ra,-240(sp)

0000000080009340 <i_9093>:
    80009340:	f6312823          	sw	gp,-144(sp)

0000000080009344 <i_9094>:
    80009344:	08c101a3          	sb	a2,131(sp)

0000000080009348 <i_9095>:
    80009348:	e4711e23          	sh	t2,-420(sp)

000000008000934c <i_9096>:
    8000934c:	40425d93          	srai	s11,tp,0x4

0000000080009350 <i_9097>:
    80009350:	17415203          	lhu	tp,372(sp)

0000000080009354 <i_9098>:
    80009354:	5360ed93          	ori	s11,ra,1334

0000000080009358 <i_9099>:
    80009358:	fc815a03          	lhu	s4,-56(sp)

000000008000935c <i_9100>:
    8000935c:	10013203          	ld	tp,256(sp)

0000000080009360 <i_9101>:
    80009360:	014779b3          	and	s3,a4,s4

0000000080009364 <i_9102>:
    80009364:	e58f6213          	ori	tp,t5,-424

0000000080009368 <i_9103>:
    80009368:	00600293          	li	t0,6

000000008000936c <i_9104>:
    8000936c:	005cdcbb          	srlw	s9,s9,t0

0000000080009370 <i_9105>:
    80009370:	e6d12623          	sw	a3,-404(sp)

0000000080009374 <i_9106>:
    80009374:	01b9ca63          	blt	s3,s11,80009388 <i_9111>

0000000080009378 <i_9107>:
    80009378:	01bdf863          	bleu	s11,s11,80009388 <i_9111>

000000008000937c <i_9108>:
    8000937c:	401ddc1b          	sraiw	s8,s11,0x1

0000000080009380 <i_9109>:
    80009380:	03813023          	sd	s8,32(sp)

0000000080009384 <i_9110>:
    80009384:	004ddd9b          	srliw	s11,s11,0x4

0000000080009388 <i_9111>:
    80009388:	034d8263          	beq	s11,s4,800093ac <i_9120>

000000008000938c <i_9112>:
    8000938c:	0384c063          	blt	s1,s8,800093ac <i_9120>

0000000080009390 <i_9113>:
    80009390:	0022929b          	slliw	t0,t0,0x2

0000000080009394 <i_9114>:
    80009394:	005c1e63          	bne	s8,t0,800093b0 <i_9121>

0000000080009398 <i_9115>:
    80009398:	e6810d83          	lb	s11,-408(sp)

000000008000939c <i_9116>:
    8000939c:	12d10f03          	lb	t5,301(sp)

00000000800093a0 <i_9117>:
    800093a0:	e9c12d03          	lw	s10,-356(sp)

00000000800093a4 <i_9118>:
    800093a4:	01ec0663          	beq	s8,t5,800093b0 <i_9121>

00000000800093a8 <i_9119>:
    800093a8:	03b4e7b3          	rem	a5,s1,s11

00000000800093ac <i_9120>:
    800093ac:	00c00a93          	li	s5,12

00000000800093b0 <i_9121>:
    800093b0:	4153da3b          	sraw	s4,t2,s5

00000000800093b4 <i_9122>:
    800093b4:	14013383          	ld	t2,320(sp)

00000000800093b8 <i_9123>:
    800093b8:	035af9bb          	remuw	s3,s5,s5

00000000800093bc <i_9124>:
    800093bc:	6b2a6393          	ori	t2,s4,1714

00000000800093c0 <i_9125>:
    800093c0:	01e00b13          	li	s6,30

00000000800093c4 <i_9126>:
    800093c4:	4167de33          	sra	t3,a5,s6

00000000800093c8 <i_9127>:
    800093c8:	19a13823          	sd	s10,400(sp)

00000000800093cc <i_9128>:
    800093cc:	029f86b3          	mul	a3,t6,s1

00000000800093d0 <i_9129>:
    800093d0:	f5710483          	lb	s1,-169(sp)

00000000800093d4 <i_9130>:
    800093d4:	11816483          	lwu	s1,280(sp)

00000000800093d8 <i_9131>:
    800093d8:	1e412803          	lw	a6,484(sp)

00000000800093dc <i_9132>:
    800093dc:	00981463          	bne	a6,s1,800093e4 <i_9134>

00000000800093e0 <i_9133>:
    800093e0:	029aa4b3          	mulhsu	s1,s5,s1

00000000800093e4 <i_9134>:
    800093e4:	0294e33b          	remw	t1,s1,s1

00000000800093e8 <i_9135>:
    800093e8:	00934863          	blt	t1,s1,800093f8 <i_9139>

00000000800093ec <i_9136>:
    800093ec:	ff812683          	lw	a3,-8(sp)

00000000800093f0 <i_9137>:
    800093f0:	eb637d13          	andi	s10,t1,-330

00000000800093f4 <i_9138>:
    800093f4:	00200693          	li	a3,2

00000000800093f8 <i_9139>:
    800093f8:	00d8133b          	sllw	t1,a6,a3

00000000800093fc <i_9140>:
    800093fc:	04415e03          	lhu	t3,68(sp)

0000000080009400 <i_9141>:
    80009400:	76400493          	li	s1,1892

0000000080009404 <i_9142>:
    80009404:	76c00a13          	li	s4,1900

0000000080009408 <i_9143>:
    80009408:	00b00a93          	li	s5,11

000000008000940c <i_9144>:
    8000940c:	41535b3b          	sraw	s6,t1,s5

0000000080009410 <i_9145>:
    80009410:	81c00593          	li	a1,-2020

0000000080009414 <i_9146>:
    80009414:	82200393          	li	t2,-2014

0000000080009418 <i_9147>:
    80009418:	18416a83          	lwu	s5,388(sp)

000000008000941c <i_9148>:
    8000941c:	17011303          	lh	t1,368(sp)

0000000080009420 <i_9149>:
    80009420:	030e1063          	bne	t3,a6,80009440 <i_9156>

0000000080009424 <i_9150>:
    80009424:	00db7d33          	and	s10,s6,a3

0000000080009428 <i_9151>:
    80009428:	40638cbb          	subw	s9,t2,t1

000000008000942c <i_9152>:
    8000942c:	a8385a97          	auipc	s5,0xa8385

0000000080009430 <i_9153>:
    80009430:	00158593          	addi	a1,a1,1
    80009434:	fe75c2e3          	blt	a1,t2,80009418 <i_9147>

0000000080009438 <i_9154>:
    80009438:	a3baba93          	sltiu	s5,s5,-1477

000000008000943c <i_9155>:
    8000943c:	e2410d03          	lb	s10,-476(sp)

0000000080009440 <i_9156>:
    80009440:	f2e14a83          	lbu	s5,-210(sp)

0000000080009444 <i_9157>:
    80009444:	05513023          	sd	s5,64(sp)

0000000080009448 <i_9158>:
    80009448:	00148493          	addi	s1,s1,1
    8000944c:	fb44eee3          	bltu	s1,s4,80009408 <i_9143>

0000000080009450 <i_9159>:
    80009450:	1ce12c23          	sw	a4,472(sp)

0000000080009454 <i_9160>:
    80009454:	09511e23          	sh	s5,156(sp)

0000000080009458 <i_9161>:
    80009458:	0c710a83          	lb	s5,199(sp)

000000008000945c <i_9162>:
    8000945c:	01aace63          	blt	s5,s10,80009478 <i_9169>

0000000080009460 <i_9163>:
    80009460:	acabfa93          	andi	s5,s7,-1334

0000000080009464 <i_9164>:
    80009464:	006acbb3          	xor	s7,s5,t1

0000000080009468 <i_9165>:
    80009468:	01ebcbb3          	xor	s7,s7,t5

000000008000946c <i_9166>:
    8000946c:	fd711923          	sh	s7,-46(sp)

0000000080009470 <i_9167>:
    80009470:	16b10d83          	lb	s11,363(sp)

0000000080009474 <i_9168>:
    80009474:	017b8bb3          	add	s7,s7,s7

0000000080009478 <i_9169>:
    80009478:	04814083          	lbu	ra,72(sp)

000000008000947c <i_9170>:
    8000947c:	1d414603          	lbu	a2,468(sp)

0000000080009480 <i_9171>:
    80009480:	18615b83          	lhu	s7,390(sp)

0000000080009484 <i_9172>:
    80009484:	13615603          	lhu	a2,310(sp)

0000000080009488 <i_9173>:
    80009488:	f6c16a83          	lwu	s5,-148(sp)

000000008000948c <i_9174>:
    8000948c:	f4813483          	ld	s1,-184(sp)

0000000080009490 <i_9175>:
    80009490:	fc013b83          	ld	s7,-64(sp)

0000000080009494 <i_9176>:
    80009494:	01d64863          	blt	a2,t4,800094a4 <i_9180>

0000000080009498 <i_9177>:
    80009498:	e7711523          	sh	s7,-406(sp)

000000008000949c <i_9178>:
    8000949c:	0374c063          	blt	s1,s7,800094bc <i_9186>

00000000800094a0 <i_9179>:
    800094a0:	f2814583          	lbu	a1,-216(sp)

00000000800094a4 <i_9180>:
    800094a4:	ff314303          	lbu	t1,-13(sp)

00000000800094a8 <i_9181>:
    800094a8:	05c16c03          	lwu	s8,92(sp)

00000000800094ac <i_9182>:
    800094ac:	fc012783          	lw	a5,-64(sp)

00000000800094b0 <i_9183>:
    800094b0:	00cdec63          	bltu	s11,a2,800094c8 <i_9189>

00000000800094b4 <i_9184>:
    800094b4:	00215483          	lhu	s1,2(sp)

00000000800094b8 <i_9185>:
    800094b8:	00c08c63          	beq	ra,a2,800094d0 <i_9191>

00000000800094bc <i_9186>:
    800094bc:	8df0899b          	addiw	s3,ra,-1825

00000000800094c0 <i_9187>:
    800094c0:	0e812683          	lw	a3,232(sp)

00000000800094c4 <i_9188>:
    800094c4:	018bcbb3          	xor	s7,s7,s8

00000000800094c8 <i_9189>:
    800094c8:	00400493          	li	s1,4

00000000800094cc <i_9190>:
    800094cc:	409350bb          	sraw	ra,t1,s1

00000000800094d0 <i_9191>:
    800094d0:	e6d12e23          	sw	a3,-388(sp)

00000000800094d4 <i_9192>:
    800094d4:	0374c063          	blt	s1,s7,800094f4 <i_9200>

00000000800094d8 <i_9193>:
    800094d8:	01760a63          	beq	a2,s7,800094ec <i_9198>

00000000800094dc <i_9194>:
    800094dc:	00379593          	slli	a1,a5,0x3

00000000800094e0 <i_9195>:
    800094e0:	00365b1b          	srliw	s6,a2,0x3

00000000800094e4 <i_9196>:
    800094e4:	03c9e063          	bltu	s3,t3,80009504 <i_9204>

00000000800094e8 <i_9197>:
    800094e8:	1d016603          	lwu	a2,464(sp)

00000000800094ec <i_9198>:
    800094ec:	08111823          	sh	ra,144(sp)

00000000800094f0 <i_9199>:
    800094f0:	026b63bb          	remw	t2,s6,t1

00000000800094f4 <i_9200>:
    800094f4:	028b633b          	remw	t1,s6,s0

00000000800094f8 <i_9201>:
    800094f8:	06810f23          	sb	s0,126(sp)

00000000800094fc <i_9202>:
    800094fc:	f0711a23          	sh	t2,-236(sp)

0000000080009500 <i_9203>:
    80009500:	0013939b          	slliw	t2,t2,0x1

0000000080009504 <i_9204>:
    80009504:	00425c1b          	srliw	s8,tp,0x4

0000000080009508 <i_9205>:
    80009508:	007421b3          	slt	gp,s0,t2

000000008000950c <i_9206>:
    8000950c:	89b00593          	li	a1,-1893

0000000080009510 <i_9207>:
    80009510:	8a500413          	li	s0,-1883

0000000080009514 <i_9208>:
    80009514:	00000013          	nop

0000000080009518 <i_9209>:
    80009518:	027763b3          	rem	t2,a4,t2

000000008000951c <i_9210>:
    8000951c:	0023c233          	xor	tp,t2,sp

0000000080009520 <i_9211>:
    80009520:	1a213c23          	sd	sp,440(sp)

0000000080009524 <i_9212>:
    80009524:	f0812383          	lw	t2,-248(sp)

0000000080009528 <i_9213>:
    80009528:	00158593          	addi	a1,a1,1
    8000952c:	feb474e3          	bleu	a1,s0,80009514 <i_9208>

0000000080009530 <i_9214>:
    80009530:	f9015203          	lhu	tp,-112(sp)

0000000080009534 <i_9215>:
    80009534:	02f38263          	beq	t2,a5,80009558 <i_9224>

0000000080009538 <i_9216>:
    80009538:	00459c63          	bne	a1,tp,80009550 <i_9222>

000000008000953c <i_9217>:
    8000953c:	f4f10623          	sb	a5,-180(sp)

0000000080009540 <i_9218>:
    80009540:	004387b3          	add	a5,t2,tp

0000000080009544 <i_9219>:
    80009544:	17c11683          	lh	a3,380(sp)

0000000080009548 <i_9220>:
    80009548:	4653f797          	auipc	a5,0x4653f

000000008000954c <i_9221>:
    8000954c:	02febeb3          	mulhu	t4,t4,a5

0000000080009550 <i_9222>:
    80009550:	05b12423          	sw	s11,72(sp)

0000000080009554 <i_9223>:
    80009554:	edd107a3          	sb	t4,-305(sp)

0000000080009558 <i_9224>:
    80009558:	08416e83          	lwu	t4,132(sp)

000000008000955c <i_9225>:
    8000955c:	00379193          	slli	gp,a5,0x3

0000000080009560 <i_9226>:
    80009560:	01a11383          	lh	t2,26(sp)

0000000080009564 <i_9227>:
    80009564:	0c313423          	sd	gp,200(sp)

0000000080009568 <i_9228>:
    80009568:	40235e1b          	sraiw	t3,t1,0x2

000000008000956c <i_9229>:
    8000956c:	f4411b83          	lh	s7,-188(sp)

0000000080009570 <i_9230>:
    80009570:	01d12e23          	sw	t4,28(sp)

0000000080009574 <i_9231>:
    80009574:	ecc11f23          	sh	a2,-290(sp)

0000000080009578 <i_9232>:
    80009578:	18412e03          	lw	t3,388(sp)

000000008000957c <i_9233>:
    8000957c:	edc12423          	sw	t3,-312(sp)

0000000080009580 <i_9234>:
    80009580:	408e8eb3          	sub	t4,t4,s0

0000000080009584 <i_9235>:
    80009584:	16411d83          	lh	s11,356(sp)

0000000080009588 <i_9236>:
    80009588:	03700e93          	li	t4,55

000000008000958c <i_9237>:
    8000958c:	01deddb3          	srl	s11,t4,t4

0000000080009590 <i_9238>:
    80009590:	0cc14383          	lbu	t2,204(sp)

0000000080009594 <i_9239>:
    80009594:	1b412e83          	lw	t4,436(sp)

0000000080009598 <i_9240>:
    80009598:	03dec463          	blt	t4,t4,800095c0 <i_9250>

000000008000959c <i_9241>:
    8000959c:	01def463          	bleu	t4,t4,800095a4 <i_9243>

00000000800095a0 <i_9242>:
    800095a0:	f3016683          	lwu	a3,-208(sp)

00000000800095a4 <i_9243>:
    800095a4:	002ed413          	srli	s0,t4,0x2

00000000800095a8 <i_9244>:
    800095a8:	01d47e63          	bleu	t4,s0,800095c4 <i_9251>

00000000800095ac <i_9245>:
    800095ac:	ea210403          	lb	s0,-350(sp)

00000000800095b0 <i_9246>:
    800095b0:	00840433          	add	s0,s0,s0

00000000800095b4 <i_9247>:
    800095b4:	0082aeb3          	slt	t4,t0,s0

00000000800095b8 <i_9248>:
    800095b8:	0b713c23          	sd	s7,184(sp)

00000000800095bc <i_9249>:
    800095bc:	eb412283          	lw	t0,-332(sp)

00000000800095c0 <i_9250>:
    800095c0:	02815403          	lhu	s0,40(sp)

00000000800095c4 <i_9251>:
    800095c4:	00000013          	nop

00000000800095c8 <i_9252>:
    800095c8:	f2512223          	sw	t0,-220(sp)

00000000800095cc <i_9253>:
    800095cc:	7da00813          	li	a6,2010

00000000800095d0 <i_9254>:
    800095d0:	7e900b93          	li	s7,2025

00000000800095d4 <i_9255>:
    800095d4:	fb610223          	sb	s6,-92(sp)

00000000800095d8 <i_9256>:
    800095d8:	00180813          	addi	a6,a6,1
    800095dc:	ff0bfce3          	bleu	a6,s7,800095d4 <i_9255>

00000000800095e0 <i_9257>:
    800095e0:	4042d093          	srai	ra,t0,0x4

00000000800095e4 <i_9258>:
    800095e4:	fb711a23          	sh	s7,-76(sp)

00000000800095e8 <i_9259>:
    800095e8:	e8c12283          	lw	t0,-372(sp)

00000000800095ec <i_9260>:
    800095ec:	0362bb33          	mulhu	s6,t0,s6

00000000800095f0 <i_9261>:
    800095f0:	00540263          	beq	s0,t0,800095f4 <i_9262>

00000000800095f4 <i_9262>:
    800095f4:	016a8633          	add	a2,s5,s6

00000000800095f8 <i_9263>:
    800095f8:	00445413          	srli	s0,s0,0x4

00000000800095fc <i_9264>:
    800095fc:	02f64263          	blt	a2,a5,80009620 <i_9273>

0000000080009600 <i_9265>:
    80009600:	374b2e93          	slti	t4,s6,884

0000000080009604 <i_9266>:
    80009604:	2b8ec613          	xori	a2,t4,696

0000000080009608 <i_9267>:
    80009608:	00c67463          	bleu	a2,a2,80009610 <i_9269>

000000008000960c <i_9268>:
    8000960c:	f3016b83          	lwu	s7,-208(sp)

0000000080009610 <i_9269>:
    80009610:	f3713023          	sd	s7,-224(sp)

0000000080009614 <i_9270>:
    80009614:	09712023          	sw	s7,128(sp)

0000000080009618 <i_9271>:
    80009618:	f6813603          	ld	a2,-152(sp)

000000008000961c <i_9272>:
    8000961c:	fdc16603          	lwu	a2,-36(sp)

0000000080009620 <i_9273>:
    80009620:	00cb9a63          	bne	s7,a2,80009634 <i_9278>

0000000080009624 <i_9274>:
    80009624:	14c16603          	lwu	a2,332(sp)

0000000080009628 <i_9275>:
    80009628:	e2812183          	lw	gp,-472(sp)

000000008000962c <i_9276>:
    8000962c:	181f6f13          	ori	t5,t5,385

0000000080009630 <i_9277>:
    80009630:	03810d03          	lb	s10,56(sp)

0000000080009634 <i_9278>:
    80009634:	f8914303          	lbu	t1,-119(sp)

0000000080009638 <i_9279>:
    80009638:	0a012d83          	lw	s11,160(sp)

000000008000963c <i_9280>:
    8000963c:	f4013d03          	ld	s10,-192(sp)

0000000080009640 <i_9281>:
    80009640:	01e307b3          	add	a5,t1,t5

0000000080009644 <i_9282>:
    80009644:	eda11423          	sh	s10,-312(sp)

0000000080009648 <i_9283>:
    80009648:	15414303          	lbu	t1,340(sp)

000000008000964c <i_9284>:
    8000964c:	03110303          	lb	t1,49(sp)

0000000080009650 <i_9285>:
    80009650:	1cf13c23          	sd	a5,472(sp)

0000000080009654 <i_9286>:
    80009654:	00b79a63          	bne	a5,a1,80009668 <i_9291>

0000000080009658 <i_9287>:
    80009658:	02635063          	ble	t1,t1,80009678 <i_9295>

000000008000965c <i_9288>:
    8000965c:	fe612223          	sw	t1,-28(sp)

0000000080009660 <i_9289>:
    80009660:	00635a63          	ble	t1,t1,80009674 <i_9294>

0000000080009664 <i_9290>:
    80009664:	ee815c83          	lhu	s9,-280(sp)

0000000080009668 <i_9291>:
    80009668:	e3b14d03          	lbu	s10,-453(sp)

000000008000966c <i_9292>:
    8000966c:	019d1a63          	bne	s10,s9,80009680 <i_9297>

0000000080009670 <i_9293>:
    80009670:	fe8106a3          	sb	s0,-19(sp)

0000000080009674 <i_9294>:
    80009674:	00435393          	srli	t2,t1,0x4

0000000080009678 <i_9295>:
    80009678:	cb4d6993          	ori	s3,s10,-844

000000008000967c <i_9296>:
    8000967c:	f81cfc93          	andi	s9,s9,-127

0000000080009680 <i_9297>:
    80009680:	00000013          	nop

0000000080009684 <i_9298>:
    80009684:	031cb2b3          	mulhu	t0,s9,a7

0000000080009688 <i_9299>:
    80009688:	77300d13          	li	s10,1907

000000008000968c <i_9300>:
    8000968c:	77b00813          	li	a6,1915

0000000080009690 <i_9301>:
    80009690:	001d0d13          	addi	s10,s10,1
    80009694:	ff0d4ee3          	blt	s10,a6,80009690 <i_9301>

0000000080009698 <i_9302>:
    80009698:	01968bb3          	add	s7,a3,s9

000000008000969c <i_9303>:
    8000969c:	eb012a83          	lw	s5,-336(sp)

00000000800096a0 <i_9304>:
    800096a0:	05c16e03          	lwu	t3,92(sp)

00000000800096a4 <i_9305>:
    800096a4:	01cceb33          	or	s6,s9,t3

00000000800096a8 <i_9306>:
    800096a8:	f2415e03          	lhu	t3,-220(sp)

00000000800096ac <i_9307>:
    800096ac:	036bee3b          	remw	t3,s7,s6

00000000800096b0 <i_9308>:
    800096b0:	003d1e13          	slli	t3,s10,0x3

00000000800096b4 <i_9309>:
    800096b4:	01cb1263          	bne	s6,t3,800096b8 <i_9310>

00000000800096b8 <i_9310>:
    800096b8:	01a2c863          	blt	t0,s10,800096c8 <i_9314>

00000000800096bc <i_9311>:
    800096bc:	ebc12c03          	lw	s8,-324(sp)

00000000800096c0 <i_9312>:
    800096c0:	95fa8793          	addi	a5,s5,-1697 # 2838dd8b <main-0x57c72275>

00000000800096c4 <i_9313>:
    800096c4:	f2f12423          	sw	a5,-216(sp)

00000000800096c8 <i_9314>:
    800096c8:	037b3533          	mulhu	a0,s6,s7

00000000800096cc <i_9315>:
    800096cc:	014e8263          	beq	t4,s4,800096d0 <i_9316>

00000000800096d0 <i_9316>:
    800096d0:	025e3c33          	mulhu	s8,t3,t0

00000000800096d4 <i_9317>:
    800096d4:	e4813b83          	ld	s7,-440(sp)

00000000800096d8 <i_9318>:
    800096d8:	ed813d03          	ld	s10,-296(sp)

00000000800096dc <i_9319>:
    800096dc:	f1813023          	sd	s8,-256(sp)

00000000800096e0 <i_9320>:
    800096e0:	01c10863          	beq	sp,t3,800096f0 <i_9324>

00000000800096e4 <i_9321>:
    800096e4:	e9412223          	sw	s4,-380(sp)

00000000800096e8 <i_9322>:
    800096e8:	0dd14d03          	lbu	s10,221(sp)

00000000800096ec <i_9323>:
    800096ec:	00800593          	li	a1,8

00000000800096f0 <i_9324>:
    800096f0:	40bc5cb3          	sra	s9,s8,a1

00000000800096f4 <i_9325>:
    800096f4:	f9811c23          	sh	s8,-104(sp)

00000000800096f8 <i_9326>:
    800096f8:	03ccfd3b          	remuw	s10,s9,t3

00000000800096fc <i_9327>:
    800096fc:	01f00d13          	li	s10,31

0000000080009700 <i_9328>:
    80009700:	01ac9bbb          	sllw	s7,s9,s10

0000000080009704 <i_9329>:
    80009704:	001d1e13          	slli	t3,s10,0x1

0000000080009708 <i_9330>:
    80009708:	037a6463          	bltu	s4,s7,80009730 <i_9340>

000000008000970c <i_9331>:
    8000970c:	03ce0463          	beq	t3,t3,80009734 <i_9341>

0000000080009710 <i_9332>:
    80009710:	001f5f1b          	srliw	t5,t5,0x1

0000000080009714 <i_9333>:
    80009714:	03cf5233          	divu	tp,t5,t3

0000000080009718 <i_9334>:
    80009718:	021be0b3          	rem	ra,s7,ra

000000008000971c <i_9335>:
    8000971c:	02480063          	beq	a6,tp,8000973c <i_9343>

0000000080009720 <i_9336>:
    80009720:	40418a33          	sub	s4,gp,tp

0000000080009724 <i_9337>:
    80009724:	e7712e23          	sw	s7,-388(sp)

0000000080009728 <i_9338>:
    80009728:	0099d263          	ble	s1,s3,8000972c <i_9339>

000000008000972c <i_9339>:
    8000972c:	0a410123          	sb	tp,162(sp)

0000000080009730 <i_9340>:
    80009730:	06816983          	lwu	s3,104(sp)

0000000080009734 <i_9341>:
    80009734:	0f411983          	lh	s3,244(sp)

0000000080009738 <i_9342>:
    80009738:	029bf4b3          	remu	s1,s7,s1

000000008000973c <i_9343>:
    8000973c:	00000013          	nop

0000000080009740 <i_9344>:
    80009740:	00000013          	nop

0000000080009744 <i_9345>:
    80009744:	8aa00793          	li	a5,-1878

0000000080009748 <i_9346>:
    80009748:	8b800b93          	li	s7,-1864

000000008000974c <i_9347>:
    8000974c:	0374e4b3          	rem	s1,s1,s7

0000000080009750 <i_9348>:
    80009750:	40930abb          	subw	s5,t1,s1

0000000080009754 <i_9349>:
    80009754:	00178793          	addi	a5,a5,1 # c6548549 <_end+0x46538135>
    80009758:	ff77eae3          	bltu	a5,s7,8000974c <i_9347>

000000008000975c <i_9350>:
    8000975c:	40948dbb          	subw	s11,s1,s1

0000000080009760 <i_9351>:
    80009760:	18911e23          	sh	s1,412(sp)

0000000080009764 <i_9352>:
    80009764:	0c913c23          	sd	s1,216(sp)

0000000080009768 <i_9353>:
    80009768:	03e4cf33          	div	t5,s1,t5

000000008000976c <i_9354>:
    8000976c:	004ddb9b          	srliw	s7,s11,0x4

0000000080009770 <i_9355>:
    80009770:	1b712623          	sw	s7,428(sp)

0000000080009774 <i_9356>:
    80009774:	19016d03          	lwu	s10,400(sp)

0000000080009778 <i_9357>:
    80009778:	03abfd3b          	remuw	s10,s7,s10

000000008000977c <i_9358>:
    8000977c:	097104a3          	sb	s7,137(sp)

0000000080009780 <i_9359>:
    80009780:	5f1d0837          	lui	a6,0x5f1d0

0000000080009784 <i_9360>:
    80009784:	030d7bbb          	remuw	s7,s10,a6

0000000080009788 <i_9361>:
    80009788:	01ad01b3          	add	gp,s10,s10

000000008000978c <i_9362>:
    8000978c:	017f8bb3          	add	s7,t6,s7

0000000080009790 <i_9363>:
    80009790:	fba10783          	lb	a5,-70(sp)

0000000080009794 <i_9364>:
    80009794:	1d780a9b          	addiw	s5,a6,471

0000000080009798 <i_9365>:
    80009798:	e8011b83          	lh	s7,-384(sp)

000000008000979c <i_9366>:
    8000979c:	75700813          	li	a6,1879

00000000800097a0 <i_9367>:
    800097a0:	76b00f13          	li	t5,1899

00000000800097a4 <i_9368>:
    800097a4:	3aa57097          	auipc	ra,0x3aa57

00000000800097a8 <i_9369>:
    800097a8:	01718463          	beq	gp,s7,800097b0 <i_9371>

00000000800097ac <i_9370>:
    800097ac:	e8b10ca3          	sb	a1,-359(sp)

00000000800097b0 <i_9371>:
    800097b0:	03ad25b3          	mulhsu	a1,s10,s10

00000000800097b4 <i_9372>:
    800097b4:	03a85063          	ble	s10,a6,800097d4 <i_9380>

00000000800097b8 <i_9373>:
    800097b8:	00c85e63          	ble	a2,a6,800097d4 <i_9380>

00000000800097bc <i_9374>:
    800097bc:	01a00593          	li	a1,26

00000000800097c0 <i_9375>:
    800097c0:	00b5963b          	sllw	a2,a1,a1

00000000800097c4 <i_9376>:
    800097c4:	02bcfcb3          	remu	s9,s9,a1

00000000800097c8 <i_9377>:
    800097c8:	e3910483          	lb	s1,-455(sp)

00000000800097cc <i_9378>:
    800097cc:	00b0ca33          	xor	s4,ra,a1

00000000800097d0 <i_9379>:
    800097d0:	ee412583          	lw	a1,-284(sp)

00000000800097d4 <i_9380>:
    800097d4:	f2b102a3          	sb	a1,-219(sp)

00000000800097d8 <i_9381>:
    800097d8:	e5411923          	sh	s4,-430(sp)

00000000800097dc <i_9382>:
    800097dc:	00000013          	nop

00000000800097e0 <i_9383>:
    800097e0:	16c16283          	lwu	t0,364(sp)

00000000800097e4 <i_9384>:
    800097e4:	00180813          	addi	a6,a6,1 # 5f1d0001 <main-0x20e2ffff>
    800097e8:	fbe81ee3          	bne	a6,t5,800097a4 <i_9368>

00000000800097ec <i_9385>:
    800097ec:	ff4102a3          	sb	s4,-27(sp)

00000000800097f0 <i_9386>:
    800097f0:	00e12223          	sw	a4,4(sp)

00000000800097f4 <i_9387>:
    800097f4:	e2c12283          	lw	t0,-468(sp)

00000000800097f8 <i_9388>:
    800097f8:	14513023          	sd	t0,320(sp)

00000000800097fc <i_9389>:
    800097fc:	0022d59b          	srliw	a1,t0,0x2

0000000080009800 <i_9390>:
    80009800:	07414283          	lbu	t0,116(sp)

0000000080009804 <i_9391>:
    80009804:	15b14483          	lbu	s1,347(sp)

0000000080009808 <i_9392>:
    80009808:	0045909b          	slliw	ra,a1,0x4

000000008000980c <i_9393>:
    8000980c:	ea813b83          	ld	s7,-344(sp)

0000000080009810 <i_9394>:
    80009810:	1c415583          	lhu	a1,452(sp)

0000000080009814 <i_9395>:
    80009814:	02b5b5b3          	mulhu	a1,a1,a1

0000000080009818 <i_9396>:
    80009818:	00b0f663          	bleu	a1,ra,80009824 <i_9399>

000000008000981c <i_9397>:
    8000981c:	02b00593          	li	a1,43

0000000080009820 <i_9398>:
    80009820:	40b4d5b3          	sra	a1,s1,a1

0000000080009824 <i_9399>:
    80009824:	c17a1db7          	lui	s11,0xc17a1

0000000080009828 <i_9400>:
    80009828:	00000013          	nop

000000008000982c <i_9401>:
    8000982c:	7d800393          	li	t2,2008

0000000080009830 <i_9402>:
    80009830:	7db00793          	li	a5,2011

0000000080009834 <i_9403>:
    80009834:	030794b3          	mulh	s1,a5,a6

0000000080009838 <i_9404>:
    80009838:	fd810283          	lb	t0,-40(sp)

000000008000983c <i_9405>:
    8000983c:	02f7edbb          	remw	s11,a5,a5

0000000080009840 <i_9406>:
    80009840:	01bd8c63          	beq	s11,s11,80009858 <i_9411>

0000000080009844 <i_9407>:
    80009844:	00138393          	addi	t2,t2,1 # 25852001 <main-0x5a7adfff>
    80009848:	fef3c6e3          	blt	t2,a5,80009834 <i_9403>

000000008000984c <i_9408>:
    8000984c:	0257f7b3          	remu	a5,a5,t0

0000000080009850 <i_9409>:
    80009850:	1c913023          	sd	s1,448(sp)

0000000080009854 <i_9410>:
    80009854:	0257dc3b          	divuw	s8,a5,t0

0000000080009858 <i_9411>:
    80009858:	0307c063          	blt	a5,a6,80009878 <i_9419>

000000008000985c <i_9412>:
    8000985c:	02fc853b          	mulw	a0,s9,a5

0000000080009860 <i_9413>:
    80009860:	fcf103a3          	sb	a5,-57(sp)

0000000080009864 <i_9414>:
    80009864:	02fc60b3          	rem	ra,s8,a5

0000000080009868 <i_9415>:
    80009868:	01e00c93          	li	s9,30

000000008000986c <i_9416>:
    8000986c:	019d5d3b          	srlw	s10,s10,s9

0000000080009870 <i_9417>:
    80009870:	03a54463          	blt	a0,s10,80009898 <i_9427>

0000000080009874 <i_9418>:
    80009874:	01955663          	ble	s9,a0,80009880 <i_9421>

0000000080009878 <i_9419>:
    80009878:	21bb009b          	addiw	ra,s6,539

000000008000987c <i_9420>:
    8000987c:	00300b13          	li	s6,3

0000000080009880 <i_9421>:
    80009880:	0162ddbb          	srlw	s11,t0,s6

0000000080009884 <i_9422>:
    80009884:	0b514d03          	lbu	s10,181(sp)

0000000080009888 <i_9423>:
    80009888:	01bd5c63          	ble	s11,s10,800098a0 <i_9429>

000000008000988c <i_9424>:
    8000988c:	001d9e63          	bne	s11,ra,800098a8 <i_9431>

0000000080009890 <i_9425>:
    80009890:	06016083          	lwu	ra,96(sp)

0000000080009894 <i_9426>:
    80009894:	003edc13          	srli	s8,t4,0x3

0000000080009898 <i_9427>:
    80009898:	2501beb7          	lui	t4,0x2501b

000000008000989c <i_9428>:
    8000989c:	14f13023          	sd	a5,320(sp)

00000000800098a0 <i_9429>:
    800098a0:	ebd14e83          	lbu	t4,-323(sp)

00000000800098a4 <i_9430>:
    800098a4:	00000013          	nop

00000000800098a8 <i_9431>:
    800098a8:	1f813023          	sd	s8,480(sp)

00000000800098ac <i_9432>:
    800098ac:	1ca15303          	lhu	t1,458(sp)

00000000800098b0 <i_9433>:
    800098b0:	74f00613          	li	a2,1871

00000000800098b4 <i_9434>:
    800098b4:	75500d93          	li	s11,1877

00000000800098b8 <i_9435>:
    800098b8:	0341bc33          	mulhu	s8,gp,s4

00000000800098bc <i_9436>:
    800098bc:	48fa6a13          	ori	s4,s4,1167

00000000800098c0 <i_9437>:
    800098c0:	11215983          	lhu	s3,274(sp)

00000000800098c4 <i_9438>:
    800098c4:	00000013          	nop

00000000800098c8 <i_9439>:
    800098c8:	0d614c03          	lbu	s8,214(sp)

00000000800098cc <i_9440>:
    800098cc:	ff8104a3          	sb	s8,-23(sp)

00000000800098d0 <i_9441>:
    800098d0:	03bc5c3b          	divuw	s8,s8,s11

00000000800098d4 <i_9442>:
    800098d4:	018c7c63          	bleu	s8,s8,800098ec <i_9447>

00000000800098d8 <i_9443>:
    800098d8:	018c2c33          	slt	s8,s8,s8

00000000800098dc <i_9444>:
    800098dc:	00160613          	addi	a2,a2,1
    800098e0:	fccddce3          	ble	a2,s11,800098b8 <i_9435>

00000000800098e4 <i_9445>:
    800098e4:	6e0c7d93          	andi	s11,s8,1760

00000000800098e8 <i_9446>:
    800098e8:	00000013          	nop

00000000800098ec <i_9447>:
    800098ec:	00000013          	nop

00000000800098f0 <i_9448>:
    800098f0:	05010403          	lb	s0,80(sp)

00000000800098f4 <i_9449>:
    800098f4:	73200213          	li	tp,1842

00000000800098f8 <i_9450>:
    800098f8:	73b00f13          	li	t5,1851

00000000800098fc <i_9451>:
    800098fc:	f6013c03          	ld	s8,-160(sp)

0000000080009900 <i_9452>:
    80009900:	f5510b23          	sb	s5,-170(sp)

0000000080009904 <i_9453>:
    80009904:	1c514a83          	lbu	s5,453(sp)

0000000080009908 <i_9454>:
    80009908:	00cf6e63          	bltu	t5,a2,80009924 <i_9461>

000000008000990c <i_9455>:
    8000990c:	efd13823          	sd	t4,-272(sp)

0000000080009910 <i_9456>:
    80009910:	03538433          	mul	s0,t2,s5

0000000080009914 <i_9457>:
    80009914:	12c16683          	lwu	a3,300(sp)

0000000080009918 <i_9458>:
    80009918:	18240693          	addi	a3,s0,386 # ffffffff88e67182 <_end+0xffffffff08e56d6e>

000000008000991c <i_9459>:
    8000991c:	02d6e663          	bltu	a3,a3,80009948 <i_9469>

0000000080009920 <i_9460>:
    80009920:	02dea6b3          	mulhsu	a3,t4,a3

0000000080009924 <i_9461>:
    80009924:	07c16e83          	lwu	t4,124(sp)

0000000080009928 <i_9462>:
    80009928:	40ba81bb          	subw	gp,s5,a1

000000008000992c <i_9463>:
    8000992c:	01b00c93          	li	s9,27

0000000080009930 <i_9464>:
    80009930:	0191dabb          	srlw	s5,gp,s9

0000000080009934 <i_9465>:
    80009934:	00120213          	addi	tp,tp,1 # 1 <main-0x7fffffff>
    80009938:	fde212e3          	bne	tp,t5,800098fc <i_9451>

000000008000993c <i_9466>:
    8000993c:	03da9263          	bne	s5,t4,80009960 <i_9475>

0000000080009940 <i_9467>:
    80009940:	039181b3          	mul	gp,gp,s9

0000000080009944 <i_9468>:
    80009944:	efd12423          	sw	t4,-280(sp)

0000000080009948 <i_9469>:
    80009948:	1d812783          	lw	a5,472(sp)

000000008000994c <i_9470>:
    8000994c:	11f10ea3          	sb	t6,285(sp)

0000000080009950 <i_9471>:
    80009950:	1d912623          	sw	s9,460(sp)

0000000080009954 <i_9472>:
    80009954:	01a00c93          	li	s9,26

0000000080009958 <i_9473>:
    80009958:	0197d633          	srl	a2,a5,s9

000000008000995c <i_9474>:
    8000995c:	01b00e13          	li	t3,27

0000000080009960 <i_9475>:
    80009960:	01c5d5b3          	srl	a1,a1,t3

0000000080009964 <i_9476>:
    80009964:	f6c15e03          	lhu	t3,-148(sp)

0000000080009968 <i_9477>:
    80009968:	01c5e263          	bltu	a1,t3,8000996c <i_9478>

000000008000996c <i_9478>:
    8000996c:	004c959b          	slliw	a1,s9,0x4

0000000080009970 <i_9479>:
    80009970:	00be5863          	ble	a1,t3,80009980 <i_9483>

0000000080009974 <i_9480>:
    80009974:	f5c10623          	sb	t3,-180(sp)

0000000080009978 <i_9481>:
    80009978:	f4c12b03          	lw	s6,-180(sp)

000000008000997c <i_9482>:
    8000997c:	02c69b33          	mulh	s6,a3,a2

0000000080009980 <i_9483>:
    80009980:	e8c16603          	lwu	a2,-372(sp)

0000000080009984 <i_9484>:
    80009984:	0380cc3b          	divw	s8,ra,s8

0000000080009988 <i_9485>:
    80009988:	84200413          	li	s0,-1982

000000008000998c <i_9486>:
    8000998c:	85500093          	li	ra,-1963

0000000080009990 <i_9487>:
    80009990:	fac12423          	sw	a2,-88(sp)

0000000080009994 <i_9488>:
    80009994:	00c78db3          	add	s11,a5,a2

0000000080009998 <i_9489>:
    80009998:	00000013          	nop

000000008000999c <i_9490>:
    8000999c:	78d00c13          	li	s8,1933

00000000800099a0 <i_9491>:
    800099a0:	79000a93          	li	s5,1936

00000000800099a4 <i_9492>:
    800099a4:	021dc463          	blt	s11,ra,800099cc <i_9500>

00000000800099a8 <i_9493>:
    800099a8:	001c0c13          	addi	s8,s8,1
    800099ac:	ff5c1ce3          	bne	s8,s5,800099a4 <i_9492>

00000000800099b0 <i_9494>:
    800099b0:	0030d613          	srli	a2,ra,0x3

00000000800099b4 <i_9495>:
    800099b4:	f7b12023          	sw	s11,-160(sp)

00000000800099b8 <i_9496>:
    800099b8:	1d810723          	sb	s8,462(sp)

00000000800099bc <i_9497>:
    800099bc:	00140413          	addi	s0,s0,1
    800099c0:	fc1468e3          	bltu	s0,ra,80009990 <i_9487>

00000000800099c4 <i_9498>:
    800099c4:	001a9c63          	bne	s5,ra,800099dc <i_9504>

00000000800099c8 <i_9499>:
    800099c8:	19d11f23          	sh	t4,414(sp)

00000000800099cc <i_9500>:
    800099cc:	e4016e83          	lwu	t4,-448(sp)

00000000800099d0 <i_9501>:
    800099d0:	04411b83          	lh	s7,68(sp)

00000000800099d4 <i_9502>:
    800099d4:	010cbcb3          	sltu	s9,s9,a6

00000000800099d8 <i_9503>:
    800099d8:	1a016f03          	lwu	t5,416(sp)

00000000800099dc <i_9504>:
    800099dc:	1e016097          	auipc	ra,0x1e016

00000000800099e0 <i_9505>:
    800099e0:	3ee4ccb7          	lui	s9,0x3ee4c

00000000800099e4 <i_9506>:
    800099e4:	001f6a63          	bltu	t5,ra,800099f8 <i_9511>

00000000800099e8 <i_9507>:
    800099e8:	ed712023          	sw	s7,-320(sp)

00000000800099ec <i_9508>:
    800099ec:	40beb093          	sltiu	ra,t4,1035

00000000800099f0 <i_9509>:
    800099f0:	039f5263          	ble	s9,t5,80009a14 <i_9518>

00000000800099f4 <i_9510>:
    800099f4:	01df1c63          	bne	t5,t4,80009a0c <i_9516>

00000000800099f8 <i_9511>:
    800099f8:	07d11223          	sh	t4,100(sp)

00000000800099fc <i_9512>:
    800099fc:	00000013          	nop

0000000080009a00 <i_9513>:
    80009a00:	037f543b          	divuw	s0,t5,s7

0000000080009a04 <i_9514>:
    80009a04:	13713823          	sd	s7,304(sp)

0000000080009a08 <i_9515>:
    80009a08:	02beec3b          	remw	s8,t4,a1

0000000080009a0c <i_9516>:
    80009a0c:	4668c413          	xori	s0,a7,1126

0000000080009a10 <i_9517>:
    80009a10:	f9d11923          	sh	t4,-110(sp)

0000000080009a14 <i_9518>:
    80009a14:	0034549b          	srliw	s1,s0,0x3

0000000080009a18 <i_9519>:
    80009a18:	07813e83          	ld	t4,120(sp)

0000000080009a1c <i_9520>:
    80009a1c:	7ec00593          	li	a1,2028

0000000080009a20 <i_9521>:
    80009a20:	7fa00393          	li	t2,2042

0000000080009a24 <i_9522>:
    80009a24:	15d12423          	sw	t4,328(sp)

0000000080009a28 <i_9523>:
    80009a28:	0b812d03          	lw	s10,184(sp)

0000000080009a2c <i_9524>:
    80009a2c:	e6412e83          	lw	t4,-412(sp)

0000000080009a30 <i_9525>:
    80009a30:	00000013          	nop

0000000080009a34 <i_9526>:
    80009a34:	ef415803          	lhu	a6,-268(sp)

0000000080009a38 <i_9527>:
    80009a38:	0ac11e83          	lh	t4,172(sp)

0000000080009a3c <i_9528>:
    80009a3c:	00158593          	addi	a1,a1,1
    80009a40:	feb3d2e3          	ble	a1,t2,80009a24 <i_9522>

0000000080009a44 <i_9529>:
    80009a44:	01d4de63          	ble	t4,s1,80009a60 <i_9536>

0000000080009a48 <i_9530>:
    80009a48:	018d1a63          	bne	s10,s8,80009a5c <i_9535>

0000000080009a4c <i_9531>:
    80009a4c:	fa416a83          	lwu	s5,-92(sp)

0000000080009a50 <i_9532>:
    80009a50:	03ed5f33          	divu	t5,s10,t5

0000000080009a54 <i_9533>:
    80009a54:	13d13823          	sd	t4,304(sp)

0000000080009a58 <i_9534>:
    80009a58:	07811e03          	lh	t3,120(sp)

0000000080009a5c <i_9535>:
    80009a5c:	00000013          	nop

0000000080009a60 <i_9536>:
    80009a60:	0f416083          	lwu	ra,244(sp)

0000000080009a64 <i_9537>:
    80009a64:	0b012603          	lw	a2,176(sp)

0000000080009a68 <i_9538>:
    80009a68:	76000f13          	li	t5,1888

0000000080009a6c <i_9539>:
    80009a6c:	76400993          	li	s3,1892

0000000080009a70 <i_9540>:
    80009a70:	00000013          	nop

0000000080009a74 <i_9541>:
    80009a74:	035e463b          	divw	a2,t3,s5

0000000080009a78 <i_9542>:
    80009a78:	02ca6c3b          	remw	s8,s4,a2

0000000080009a7c <i_9543>:
    80009a7c:	001f0f13          	addi	t5,t5,1
    80009a80:	ffe9f8e3          	bleu	t5,s3,80009a70 <i_9540>

0000000080009a84 <i_9544>:
    80009a84:	0c812b03          	lw	s6,200(sp)

0000000080009a88 <i_9545>:
    80009a88:	034b6a33          	rem	s4,s6,s4

0000000080009a8c <i_9546>:
    80009a8c:	12c12623          	sw	a2,300(sp)

0000000080009a90 <i_9547>:
    80009a90:	00300613          	li	a2,3

0000000080009a94 <i_9548>:
    80009a94:	40ca5a33          	sra	s4,s4,a2

0000000080009a98 <i_9549>:
    80009a98:	f4c11a03          	lh	s4,-180(sp)

0000000080009a9c <i_9550>:
    80009a9c:	021f60bb          	remw	ra,t5,ra

0000000080009aa0 <i_9551>:
    80009aa0:	ea411a83          	lh	s5,-348(sp)

0000000080009aa4 <i_9552>:
    80009aa4:	001a4263          	blt	s4,ra,80009aa8 <i_9553>

0000000080009aa8 <i_9553>:
    80009aa8:	ab008093          	addi	ra,ra,-1360 # 9e01f48c <_end+0x1e00f078>

0000000080009aac <i_9554>:
    80009aac:	01700213          	li	tp,23

0000000080009ab0 <i_9555>:
    80009ab0:	0040da33          	srl	s4,ra,tp

0000000080009ab4 <i_9556>:
    80009ab4:	02c9a633          	mulhsu	a2,s3,a2

0000000080009ab8 <i_9557>:
    80009ab8:	09d63813          	sltiu	a6,a2,157

0000000080009abc <i_9558>:
    80009abc:	ff513423          	sd	s5,-24(sp)

0000000080009ac0 <i_9559>:
    80009ac0:	e6410c23          	sb	tp,-392(sp)

0000000080009ac4 <i_9560>:
    80009ac4:	0040d293          	srli	t0,ra,0x4

0000000080009ac8 <i_9561>:
    80009ac8:	f5512423          	sw	s5,-184(sp)

0000000080009acc <i_9562>:
    80009acc:	146aac13          	slti	s8,s5,326

0000000080009ad0 <i_9563>:
    80009ad0:	f6211803          	lh	a6,-158(sp)

0000000080009ad4 <i_9564>:
    80009ad4:	7a800c93          	li	s9,1960

0000000080009ad8 <i_9565>:
    80009ad8:	7ba00a93          	li	s5,1978

0000000080009adc <i_9566>:
    80009adc:	00100c13          	li	s8,1

0000000080009ae0 <i_9567>:
    80009ae0:	0180db3b          	srlw	s6,ra,s8

0000000080009ae4 <i_9568>:
    80009ae4:	00000013          	nop

0000000080009ae8 <i_9569>:
    80009ae8:	001c8c93          	addi	s9,s9,1 # 3ee4c001 <main-0x411b3fff>
    80009aec:	ff9ad8e3          	ble	s9,s5,80009adc <i_9566>

0000000080009af0 <i_9570>:
    80009af0:	f8c16603          	lwu	a2,-116(sp)

0000000080009af4 <i_9571>:
    80009af4:	0b510ea3          	sb	s5,189(sp)

0000000080009af8 <i_9572>:
    80009af8:	11813403          	ld	s0,280(sp)

0000000080009afc <i_9573>:
    80009afc:	015b1263          	bne	s6,s5,80009b00 <i_9574>

0000000080009b00 <i_9574>:
    80009b00:	00359a93          	slli	s5,a1,0x3

0000000080009b04 <i_9575>:
    80009b04:	66fa8413          	addi	s0,s5,1647

0000000080009b08 <i_9576>:
    80009b08:	03510da3          	sb	s5,59(sp)

0000000080009b0c <i_9577>:
    80009b0c:	02ca8a9b          	addiw	s5,s5,44

0000000080009b10 <i_9578>:
    80009b10:	0d013203          	ld	tp,208(sp)

0000000080009b14 <i_9579>:
    80009b14:	0044129b          	slliw	t0,s0,0x4

0000000080009b18 <i_9580>:
    80009b18:	e2810623          	sb	s0,-468(sp)

0000000080009b1c <i_9581>:
    80009b1c:	005c0a33          	add	s4,s8,t0

0000000080009b20 <i_9582>:
    80009b20:	0142c2b3          	xor	t0,t0,s4

0000000080009b24 <i_9583>:
    80009b24:	03450463          	beq	a0,s4,80009b4c <i_9593>

0000000080009b28 <i_9584>:
    80009b28:	e6811223          	sh	s0,-412(sp)

0000000080009b2c <i_9585>:
    80009b2c:	0342b533          	mulhu	a0,t0,s4

0000000080009b30 <i_9586>:
    80009b30:	0e510723          	sb	t0,238(sp)

0000000080009b34 <i_9587>:
    80009b34:	02a28463          	beq	t0,a0,80009b5c <i_9597>

0000000080009b38 <i_9588>:
    80009b38:	00300c13          	li	s8,3

0000000080009b3c <i_9589>:
    80009b3c:	018512b3          	sll	t0,a0,s8

0000000080009b40 <i_9590>:
    80009b40:	0c816083          	lwu	ra,200(sp)

0000000080009b44 <i_9591>:
    80009b44:	16a15e83          	lhu	t4,362(sp)

0000000080009b48 <i_9592>:
    80009b48:	f8513823          	sd	t0,-112(sp)

0000000080009b4c <i_9593>:
    80009b4c:	f9013083          	ld	ra,-112(sp)

0000000080009b50 <i_9594>:
    80009b50:	edc15e03          	lhu	t3,-292(sp)

0000000080009b54 <i_9595>:
    80009b54:	00a2ceb3          	xor	t4,t0,a0

0000000080009b58 <i_9596>:
    80009b58:	ee412023          	sw	tp,-288(sp)

0000000080009b5c <i_9597>:
    80009b5c:	fd412503          	lw	a0,-44(sp)

0000000080009b60 <i_9598>:
    80009b60:	00e00413          	li	s0,14

0000000080009b64 <i_9599>:
    80009b64:	4084543b          	sraw	s0,s0,s0

0000000080009b68 <i_9600>:
    80009b68:	fc112423          	sw	ra,-56(sp)

0000000080009b6c <i_9601>:
    80009b6c:	00a56463          	bltu	a0,a0,80009b74 <i_9603>

0000000080009b70 <i_9602>:
    80009b70:	01c4e863          	bltu	s1,t3,80009b80 <i_9606>

0000000080009b74 <i_9603>:
    80009b74:	0084c4b3          	xor	s1,s1,s0

0000000080009b78 <i_9604>:
    80009b78:	029464b3          	rem	s1,s0,s1

0000000080009b7c <i_9605>:
    80009b7c:	4034d413          	srai	s0,s1,0x3

0000000080009b80 <i_9606>:
    80009b80:	00945263          	ble	s1,s0,80009b84 <i_9607>

0000000080009b84 <i_9607>:
    80009b84:	0c912423          	sw	s1,200(sp)

0000000080009b88 <i_9608>:
    80009b88:	0a910da3          	sb	s1,187(sp)

0000000080009b8c <i_9609>:
    80009b8c:	029442bb          	divw	t0,s0,s1

0000000080009b90 <i_9610>:
    80009b90:	47b2841b          	addiw	s0,t0,1147

0000000080009b94 <i_9611>:
    80009b94:	0052f463          	bleu	t0,t0,80009b9c <i_9613>

0000000080009b98 <i_9612>:
    80009b98:	005c8cb3          	add	s9,s9,t0

0000000080009b9c <i_9613>:
    80009b9c:	f0810c03          	lb	s8,-248(sp)

0000000080009ba0 <i_9614>:
    80009ba0:	df19c193          	xori	gp,s3,-527

0000000080009ba4 <i_9615>:
    80009ba4:	f2510203          	lb	tp,-219(sp)

0000000080009ba8 <i_9616>:
    80009ba8:	f7813303          	ld	t1,-136(sp)

0000000080009bac <i_9617>:
    80009bac:	37c22d93          	slti	s11,tp,892

0000000080009bb0 <i_9618>:
    80009bb0:	1a412c23          	sw	tp,440(sp)

0000000080009bb4 <i_9619>:
    80009bb4:	fa710b03          	lb	s6,-89(sp)

0000000080009bb8 <i_9620>:
    80009bb8:	006b5a63          	ble	t1,s6,80009bcc <i_9625>

0000000080009bbc <i_9621>:
    80009bbc:	efc10223          	sb	t3,-284(sp)

0000000080009bc0 <i_9622>:
    80009bc0:	00f00b13          	li	s6,15

0000000080009bc4 <i_9623>:
    80009bc4:	01619c3b          	sllw	s8,gp,s6

0000000080009bc8 <i_9624>:
    80009bc8:	038b7263          	bleu	s8,s6,80009bec <i_9633>

0000000080009bcc <i_9625>:
    80009bcc:	016b4463          	blt	s6,s6,80009bd4 <i_9627>

0000000080009bd0 <i_9626>:
    80009bd0:	01812a23          	sw	s8,20(sp)

0000000080009bd4 <i_9627>:
    80009bd4:	696c8c93          	addi	s9,s9,1686

0000000080009bd8 <i_9628>:
    80009bd8:	03a00993          	li	s3,58

0000000080009bdc <i_9629>:
    80009bdc:	4133d3b3          	sra	t2,t2,s3

0000000080009be0 <i_9630>:
    80009be0:	ff611023          	sh	s6,-32(sp)

0000000080009be4 <i_9631>:
    80009be4:	fc210c03          	lb	s8,-62(sp)

0000000080009be8 <i_9632>:
    80009be8:	c50b4193          	xori	gp,s6,-944

0000000080009bec <i_9633>:
    80009bec:	8c2d4a93          	xori	s5,s10,-1854

0000000080009bf0 <i_9634>:
    80009bf0:	05012a83          	lw	s5,80(sp)

0000000080009bf4 <i_9635>:
    80009bf4:	83100b13          	li	s6,-1999

0000000080009bf8 <i_9636>:
    80009bf8:	84400d13          	li	s10,-1980

0000000080009bfc <i_9637>:
    80009bfc:	001b0b13          	addi	s6,s6,1
    80009c00:	ffab6ee3          	bltu	s6,s10,80009bfc <i_9637>

0000000080009c04 <i_9638>:
    80009c04:	0771859b          	addiw	a1,gp,119

0000000080009c08 <i_9639>:
    80009c08:	4dc1ab93          	slti	s7,gp,1244

0000000080009c0c <i_9640>:
    80009c0c:	01bb9863          	bne	s7,s11,80009c1c <i_9644>

0000000080009c10 <i_9641>:
    80009c10:	00359863          	bne	a1,gp,80009c20 <i_9645>

0000000080009c14 <i_9642>:
    80009c14:	15910b83          	lb	s7,345(sp)

0000000080009c18 <i_9643>:
    80009c18:	e5416583          	lwu	a1,-428(sp)

0000000080009c1c <i_9644>:
    80009c1c:	1d615583          	lhu	a1,470(sp)

0000000080009c20 <i_9645>:
    80009c20:	1a416683          	lwu	a3,420(sp)

0000000080009c24 <i_9646>:
    80009c24:	f4ecc193          	xori	gp,s9,-178

0000000080009c28 <i_9647>:
    80009c28:	017bce63          	blt	s7,s7,80009c44 <i_9654>

0000000080009c2c <i_9648>:
    80009c2c:	03811683          	lh	a3,56(sp)

0000000080009c30 <i_9649>:
    80009c30:	0031f863          	bleu	gp,gp,80009c40 <i_9653>

0000000080009c34 <i_9650>:
    80009c34:	1d514b83          	lbu	s7,469(sp)

0000000080009c38 <i_9651>:
    80009c38:	40355513          	srai	a0,a0,0x3

0000000080009c3c <i_9652>:
    80009c3c:	00251b9b          	slliw	s7,a0,0x2

0000000080009c40 <i_9653>:
    80009c40:	f0614803          	lbu	a6,-250(sp)

0000000080009c44 <i_9654>:
    80009c44:	08210523          	sb	sp,138(sp)

0000000080009c48 <i_9655>:
    80009c48:	0d711723          	sh	s7,206(sp)

0000000080009c4c <i_9656>:
    80009c4c:	79600693          	li	a3,1942

0000000080009c50 <i_9657>:
    80009c50:	7a000d93          	li	s11,1952

0000000080009c54 <i_9658>:
    80009c54:	0f310a03          	lb	s4,243(sp)

0000000080009c58 <i_9659>:
    80009c58:	fc610123          	sb	t1,-62(sp)

0000000080009c5c <i_9660>:
    80009c5c:	00168693          	addi	a3,a3,1
    80009c60:	ffb69ae3          	bne	a3,s11,80009c54 <i_9658>

0000000080009c64 <i_9661>:
    80009c64:	00add663          	ble	a0,s11,80009c70 <i_9664>

0000000080009c68 <i_9662>:
    80009c68:	403a5c1b          	sraiw	s8,s4,0x3

0000000080009c6c <i_9663>:
    80009c6c:	ebc12283          	lw	t0,-324(sp)

0000000080009c70 <i_9664>:
    80009c70:	010bcbb3          	xor	s7,s7,a6

0000000080009c74 <i_9665>:
    80009c74:	025f1833          	mulh	a6,t5,t0

0000000080009c78 <i_9666>:
    80009c78:	005ece63          	blt	t4,t0,80009c94 <i_9673>

0000000080009c7c <i_9667>:
    80009c7c:	e7013f03          	ld	t5,-400(sp)

0000000080009c80 <i_9668>:
    80009c80:	fa415383          	lhu	t2,-92(sp)

0000000080009c84 <i_9669>:
    80009c84:	00780bb3          	add	s7,a6,t2

0000000080009c88 <i_9670>:
    80009c88:	40a38533          	sub	a0,t2,a0

0000000080009c8c <i_9671>:
    80009c8c:	00c3ea63          	bltu	t2,a2,80009ca0 <i_9676>

0000000080009c90 <i_9672>:
    80009c90:	0ca12023          	sw	a0,192(sp)

0000000080009c94 <i_9673>:
    80009c94:	0176ea63          	bltu	a3,s7,80009ca8 <i_9678>

0000000080009c98 <i_9674>:
    80009c98:	fd812623          	sw	s8,-52(sp)

0000000080009c9c <i_9675>:
    80009c9c:	045104a3          	sb	t0,73(sp)

0000000080009ca0 <i_9676>:
    80009ca0:	03d3f463          	bleu	t4,t2,80009cc8 <i_9686>

0000000080009ca4 <i_9677>:
    80009ca4:	00251e93          	slli	t4,a0,0x2

0000000080009ca8 <i_9678>:
    80009ca8:	11f14503          	lbu	a0,287(sp)

0000000080009cac <i_9679>:
    80009cac:	e6816a83          	lwu	s5,-408(sp)

0000000080009cb0 <i_9680>:
    80009cb0:	f4c12c83          	lw	s9,-180(sp)

0000000080009cb4 <i_9681>:
    80009cb4:	039f0f3b          	mulw	t5,t5,s9

0000000080009cb8 <i_9682>:
    80009cb8:	00cf5a63          	ble	a2,t5,80009ccc <i_9687>

0000000080009cbc <i_9683>:
    80009cbc:	0ca11523          	sh	a0,202(sp)

0000000080009cc0 <i_9684>:
    80009cc0:	10f11a23          	sh	a5,276(sp)

0000000080009cc4 <i_9685>:
    80009cc4:	4027d593          	srai	a1,a5,0x2

0000000080009cc8 <i_9686>:
    80009cc8:	00800213          	li	tp,8

0000000080009ccc <i_9687>:
    80009ccc:	4046dcbb          	sraw	s9,a3,tp

0000000080009cd0 <i_9688>:
    80009cd0:	01a00193          	li	gp,26

0000000080009cd4 <i_9689>:
    80009cd4:	00375f3b          	srlw	t5,a4,gp

0000000080009cd8 <i_9690>:
    80009cd8:	14914683          	lbu	a3,329(sp)

0000000080009cdc <i_9691>:
    80009cdc:	16310323          	sb	gp,358(sp)

0000000080009ce0 <i_9692>:
    80009ce0:	e4415b03          	lhu	s6,-444(sp)

0000000080009ce4 <i_9693>:
    80009ce4:	0e114183          	lbu	gp,225(sp)

0000000080009ce8 <i_9694>:
    80009ce8:	e3013b03          	ld	s6,-464(sp)

0000000080009cec <i_9695>:
    80009cec:	15613823          	sd	s6,336(sp)

0000000080009cf0 <i_9696>:
    80009cf0:	16a15b03          	lhu	s6,362(sp)

0000000080009cf4 <i_9697>:
    80009cf4:	01f00493          	li	s1,31

0000000080009cf8 <i_9698>:
    80009cf8:	009b1b33          	sll	s6,s6,s1

0000000080009cfc <i_9699>:
    80009cfc:	03514a03          	lbu	s4,53(sp)

0000000080009d00 <i_9700>:
    80009d00:	a83a049b          	addiw	s1,s4,-1405

0000000080009d04 <i_9701>:
    80009d04:	02b48433          	mul	s0,s1,a1

0000000080009d08 <i_9702>:
    80009d08:	00cb83b3          	add	t2,s7,a2

0000000080009d0c <i_9703>:
    80009d0c:	0293b4b3          	mulhu	s1,t2,s1

0000000080009d10 <i_9704>:
    80009d10:	01d00793          	li	a5,29

0000000080009d14 <i_9705>:
    80009d14:	00fc1c3b          	sllw	s8,s8,a5

0000000080009d18 <i_9706>:
    80009d18:	d104ff13          	andi	t5,s1,-752

0000000080009d1c <i_9707>:
    80009d1c:	02f14f03          	lbu	t5,47(sp)

0000000080009d20 <i_9708>:
    80009d20:	0e412f03          	lw	t5,228(sp)

0000000080009d24 <i_9709>:
    80009d24:	41eb0ab3          	sub	s5,s6,t5

0000000080009d28 <i_9710>:
    80009d28:	038f3db3          	mulhu	s11,t5,s8

0000000080009d2c <i_9711>:
    80009d2c:	02300813          	li	a6,35

0000000080009d30 <i_9712>:
    80009d30:	010f50b3          	srl	ra,t5,a6

0000000080009d34 <i_9713>:
    80009d34:	19111523          	sh	a7,394(sp)

0000000080009d38 <i_9714>:
    80009d38:	01211d83          	lh	s11,18(sp)

0000000080009d3c <i_9715>:
    80009d3c:	0214cabb          	divw	s5,s1,ra

0000000080009d40 <i_9716>:
    80009d40:	f4f11923          	sh	a5,-174(sp)

0000000080009d44 <i_9717>:
    80009d44:	e6c15083          	lhu	ra,-404(sp)

0000000080009d48 <i_9718>:
    80009d48:	01ead663          	ble	t5,s5,80009d54 <i_9721>

0000000080009d4c <i_9719>:
    80009d4c:	015f4e63          	blt	t5,s5,80009d68 <i_9726>

0000000080009d50 <i_9720>:
    80009d50:	01eafcb3          	and	s9,s5,t5

0000000080009d54 <i_9721>:
    80009d54:	ff811083          	lh	ra,-8(sp)

0000000080009d58 <i_9722>:
    80009d58:	fb510783          	lb	a5,-75(sp)

0000000080009d5c <i_9723>:
    80009d5c:	001afa63          	bleu	ra,s5,80009d70 <i_9728>

0000000080009d60 <i_9724>:
    80009d60:	00f0ea33          	or	s4,ra,a5

0000000080009d64 <i_9725>:
    80009d64:	0a414f03          	lbu	t5,164(sp)

0000000080009d68 <i_9726>:
    80009d68:	f3412a23          	sw	s4,-204(sp)

0000000080009d6c <i_9727>:
    80009d6c:	6deed597          	auipc	a1,0x6deed

0000000080009d70 <i_9728>:
    80009d70:	f5e13023          	sd	t5,-192(sp)

0000000080009d74 <i_9729>:
    80009d74:	01e4c263          	blt	s1,t5,80009d78 <i_9730>

0000000080009d78 <i_9730>:
    80009d78:	030ad63b          	divuw	a2,s5,a6

0000000080009d7c <i_9731>:
    80009d7c:	4011d19b          	sraiw	gp,gp,0x1

0000000080009d80 <i_9732>:
    80009d80:	e9812023          	sw	s8,-384(sp)

0000000080009d84 <i_9733>:
    80009d84:	15012423          	sw	a6,328(sp)

0000000080009d88 <i_9734>:
    80009d88:	f3813f03          	ld	t5,-200(sp)

0000000080009d8c <i_9735>:
    80009d8c:	0c412203          	lw	tp,196(sp)

0000000080009d90 <i_9736>:
    80009d90:	0210e233          	rem	tp,ra,ra

0000000080009d94 <i_9737>:
    80009d94:	04812803          	lw	a6,72(sp)

0000000080009d98 <i_9738>:
    80009d98:	02fafe3b          	remuw	t3,s5,a5

0000000080009d9c <i_9739>:
    80009d9c:	0eb10203          	lb	tp,235(sp)

0000000080009da0 <i_9740>:
    80009da0:	00413023          	sd	tp,0(sp)

0000000080009da4 <i_9741>:
    80009da4:	e2c16c03          	lwu	s8,-468(sp)

0000000080009da8 <i_9742>:
    80009da8:	404c0633          	sub	a2,s8,tp

0000000080009dac <i_9743>:
    80009dac:	01bafe63          	bleu	s11,s5,80009dc8 <i_9750>

0000000080009db0 <i_9744>:
    80009db0:	e5010d03          	lb	s10,-432(sp)

0000000080009db4 <i_9745>:
    80009db4:	007ae663          	bltu	s5,t2,80009dc0 <i_9748>

0000000080009db8 <i_9746>:
    80009db8:	0fa15a83          	lhu	s5,250(sp)

0000000080009dbc <i_9747>:
    80009dbc:	01200e13          	li	t3,18

0000000080009dc0 <i_9748>:
    80009dc0:	01ce93bb          	sllw	t2,t4,t3

0000000080009dc4 <i_9749>:
    80009dc4:	2123c613          	xori	a2,t2,530

0000000080009dc8 <i_9750>:
    80009dc8:	fbc11023          	sh	t3,-96(sp)

0000000080009dcc <i_9751>:
    80009dcc:	00ce0663          	beq	t3,a2,80009dd8 <i_9754>

0000000080009dd0 <i_9752>:
    80009dd0:	0bc13023          	sd	t3,160(sp)

0000000080009dd4 <i_9753>:
    80009dd4:	c643e293          	ori	t0,t2,-924

0000000080009dd8 <i_9754>:
    80009dd8:	00f00d13          	li	s10,15

0000000080009ddc <i_9755>:
    80009ddc:	01a2d63b          	srlw	a2,t0,s10

0000000080009de0 <i_9756>:
    80009de0:	02c16783          	lwu	a5,44(sp)

0000000080009de4 <i_9757>:
    80009de4:	01812803          	lw	a6,24(sp)

0000000080009de8 <i_9758>:
    80009de8:	02b00a13          	li	s4,43

0000000080009dec <i_9759>:
    80009dec:	4147d233          	sra	tp,a5,s4

0000000080009df0 <i_9760>:
    80009df0:	01129463          	bne	t0,a7,80009df8 <i_9762>

0000000080009df4 <i_9761>:
    80009df4:	becd7213          	andi	tp,s10,-1044

0000000080009df8 <i_9762>:
    80009df8:	02e2f463          	bleu	a4,t0,80009e20 <i_9772>

0000000080009dfc <i_9763>:
    80009dfc:	01081863          	bne	a6,a6,80009e0c <i_9767>

0000000080009e00 <i_9764>:
    80009e00:	0094e863          	bltu	s1,s1,80009e10 <i_9768>

0000000080009e04 <i_9765>:
    80009e04:	e6413c23          	sd	tp,-392(sp)

0000000080009e08 <i_9766>:
    80009e08:	00000013          	nop

0000000080009e0c <i_9767>:
    80009e0c:	01f00413          	li	s0,31

0000000080009e10 <i_9768>:
    80009e10:	0087da33          	srl	s4,a5,s0

0000000080009e14 <i_9769>:
    80009e14:	0183f0b3          	and	ra,t2,s8

0000000080009e18 <i_9770>:
    80009e18:	00000013          	nop

0000000080009e1c <i_9771>:
    80009e1c:	01200c13          	li	s8,18

0000000080009e20 <i_9772>:
    80009e20:	018dd433          	srl	s0,s11,s8

0000000080009e24 <i_9773>:
    80009e24:	fa012583          	lw	a1,-96(sp)

0000000080009e28 <i_9774>:
    80009e28:	82a00393          	li	t2,-2006

0000000080009e2c <i_9775>:
    80009e2c:	82d00a93          	li	s5,-2003

0000000080009e30 <i_9776>:
    80009e30:	00138393          	addi	t2,t2,1
    80009e34:	fe7adee3          	ble	t2,s5,80009e30 <i_9776>

0000000080009e38 <i_9777>:
    80009e38:	15415783          	lhu	a5,340(sp)

0000000080009e3c <i_9778>:
    80009e3c:	6030849b          	addiw	s1,ra,1539

0000000080009e40 <i_9779>:
    80009e40:	0375ca33          	div	s4,a1,s7

0000000080009e44 <i_9780>:
    80009e44:	14811623          	sh	s0,332(sp)

0000000080009e48 <i_9781>:
    80009e48:	17e11403          	lh	s0,382(sp)

0000000080009e4c <i_9782>:
    80009e4c:	02100a13          	li	s4,33

0000000080009e50 <i_9783>:
    80009e50:	414bdbb3          	sra	s7,s7,s4

0000000080009e54 <i_9784>:
    80009e54:	00a404b3          	add	s1,s0,a0

0000000080009e58 <i_9785>:
    80009e58:	13710c23          	sb	s7,312(sp)

0000000080009e5c <i_9786>:
    80009e5c:	231b8413          	addi	s0,s7,561

0000000080009e60 <i_9787>:
    80009e60:	0284e43b          	remw	s0,s1,s0

0000000080009e64 <i_9788>:
    80009e64:	1ac12f03          	lw	t5,428(sp)

0000000080009e68 <i_9789>:
    80009e68:	09612a23          	sw	s6,148(sp)

0000000080009e6c <i_9790>:
    80009e6c:	e5c12b03          	lw	s6,-420(sp)

0000000080009e70 <i_9791>:
    80009e70:	0a615403          	lhu	s0,166(sp)

0000000080009e74 <i_9792>:
    80009e74:	0a910623          	sb	s1,172(sp)

0000000080009e78 <i_9793>:
    80009e78:	06813b03          	ld	s6,104(sp)

0000000080009e7c <i_9794>:
    80009e7c:	016a0f33          	add	t5,s4,s6

0000000080009e80 <i_9795>:
    80009e80:	008f0663          	beq	t5,s0,80009e8c <i_9798>

0000000080009e84 <i_9796>:
    80009e84:	003bf863          	bleu	gp,s7,80009e94 <i_9800>

0000000080009e88 <i_9797>:
    80009e88:	01e51263          	bne	a0,t5,80009e8c <i_9798>

0000000080009e8c <i_9798>:
    80009e8c:	02af1463          	bne	t5,a0,80009eb4 <i_9808>

0000000080009e90 <i_9799>:
    80009e90:	016b1463          	bne	s6,s6,80009e98 <i_9801>

0000000080009e94 <i_9800>:
    80009e94:	f3a15583          	lhu	a1,-198(sp)

0000000080009e98 <i_9801>:
    80009e98:	036bc63b          	divw	a2,s7,s6

0000000080009e9c <i_9802>:
    80009e9c:	f9416b03          	lwu	s6,-108(sp)

0000000080009ea0 <i_9803>:
    80009ea0:	e6c13023          	sd	a2,-416(sp)

0000000080009ea4 <i_9804>:
    80009ea4:	0365c233          	div	tp,a1,s6

0000000080009ea8 <i_9805>:
    80009ea8:	890cf617          	auipc	a2,0x890cf

0000000080009eac <i_9806>:
    80009eac:	00f272b3          	and	t0,tp,a5

0000000080009eb0 <i_9807>:
    80009eb0:	01000293          	li	t0,16

0000000080009eb4 <i_9808>:
    80009eb4:	00559e33          	sll	t3,a1,t0

0000000080009eb8 <i_9809>:
    80009eb8:	ed013583          	ld	a1,-304(sp)

0000000080009ebc <i_9810>:
    80009ebc:	40b5833b          	subw	t1,a1,a1

0000000080009ec0 <i_9811>:
    80009ec0:	00e00e13          	li	t3,14

0000000080009ec4 <i_9812>:
    80009ec4:	41c5d6b3          	sra	a3,a1,t3

0000000080009ec8 <i_9813>:
    80009ec8:	e8914d83          	lbu	s11,-375(sp)

0000000080009ecc <i_9814>:
    80009ecc:	026de063          	bltu	s11,t1,80009eec <i_9822>

0000000080009ed0 <i_9815>:
    80009ed0:	0064be33          	sltu	t3,s1,t1

0000000080009ed4 <i_9816>:
    80009ed4:	11b12023          	sw	s11,256(sp)

0000000080009ed8 <i_9817>:
    80009ed8:	01c6d263          	ble	t3,a3,80009edc <i_9818>

0000000080009edc <i_9818>:
    80009edc:	03f00c13          	li	s8,63

0000000080009ee0 <i_9819>:
    80009ee0:	41835333          	sra	t1,t1,s8

0000000080009ee4 <i_9820>:
    80009ee4:	ed415a03          	lhu	s4,-300(sp)

0000000080009ee8 <i_9821>:
    80009ee8:	ffb10323          	sb	s11,-26(sp)

0000000080009eec <i_9822>:
    80009eec:	e6f14d83          	lbu	s11,-401(sp)

0000000080009ef0 <i_9823>:
    80009ef0:	01be5663          	ble	s11,t3,80009efc <i_9826>

0000000080009ef4 <i_9824>:
    80009ef4:	12611a03          	lh	s4,294(sp)

0000000080009ef8 <i_9825>:
    80009ef8:	0142ca33          	xor	s4,t0,s4

0000000080009efc <i_9826>:
    80009efc:	00c00a13          	li	s4,12

0000000080009f00 <i_9827>:
    80009f00:	014a1db3          	sll	s11,s4,s4

0000000080009f04 <i_9828>:
    80009f04:	0d013d83          	ld	s11,208(sp)

0000000080009f08 <i_9829>:
    80009f08:	01458b33          	add	s6,a1,s4

0000000080009f0c <i_9830>:
    80009f0c:	fa412d03          	lw	s10,-92(sp)

0000000080009f10 <i_9831>:
    80009f10:	01aa1263          	bne	s4,s10,80009f14 <i_9832>

0000000080009f14 <i_9832>:
    80009f14:	016b4463          	blt	s6,s6,80009f1c <i_9834>

0000000080009f18 <i_9833>:
    80009f18:	1bd14b03          	lbu	s6,445(sp)

0000000080009f1c <i_9834>:
    80009f1c:	ff816d03          	lwu	s10,-8(sp)

0000000080009f20 <i_9835>:
    80009f20:	03625ebb          	divuw	t4,tp,s6

0000000080009f24 <i_9836>:
    80009f24:	74200213          	li	tp,1858

0000000080009f28 <i_9837>:
    80009f28:	75500b13          	li	s6,1877

0000000080009f2c <i_9838>:
    80009f2c:	713fc993          	xori	s3,t6,1811

0000000080009f30 <i_9839>:
    80009f30:	e7013183          	ld	gp,-400(sp)

0000000080009f34 <i_9840>:
    80009f34:	e64d7997          	auipc	s3,0xe64d7

0000000080009f38 <i_9841>:
    80009f38:	03814183          	lbu	gp,56(sp)

0000000080009f3c <i_9842>:
    80009f3c:	ef311023          	sh	s3,-288(sp)

0000000080009f40 <i_9843>:
    80009f40:	0189c263          	blt	s3,s8,80009f44 <i_9844>

0000000080009f44 <i_9844>:
    80009f44:	0f813f03          	ld	t5,248(sp)

0000000080009f48 <i_9845>:
    80009f48:	1d8104a3          	sb	s8,457(sp)

0000000080009f4c <i_9846>:
    80009f4c:	0331d063          	ble	s3,gp,80009f6c <i_9853>

0000000080009f50 <i_9847>:
    80009f50:	00120213          	addi	tp,tp,1 # 1 <main-0x7fffffff>
    80009f54:	fd621ce3          	bne	tp,s6,80009f2c <i_9838>

0000000080009f58 <i_9848>:
    80009f58:	fea15503          	lhu	a0,-22(sp)

0000000080009f5c <i_9849>:
    80009f5c:	033579b3          	remu	s3,a0,s3

0000000080009f60 <i_9850>:
    80009f60:	013c0263          	beq	s8,s3,80009f64 <i_9851>

0000000080009f64 <i_9851>:
    80009f64:	e9c16983          	lwu	s3,-356(sp)

0000000080009f68 <i_9852>:
    80009f68:	ec253d13          	sltiu	s10,a0,-318

0000000080009f6c <i_9853>:
    80009f6c:	e7813b83          	ld	s7,-392(sp)

0000000080009f70 <i_9854>:
    80009f70:	0139a533          	slt	a0,s3,s3

0000000080009f74 <i_9855>:
    80009f74:	03ab89b3          	mul	s3,s7,s10

0000000080009f78 <i_9856>:
    80009f78:	0079c3b3          	xor	t2,s3,t2

0000000080009f7c <i_9857>:
    80009f7c:	15012b83          	lw	s7,336(sp)

0000000080009f80 <i_9858>:
    80009f80:	01016483          	lwu	s1,16(sp)

0000000080009f84 <i_9859>:
    80009f84:	01a4de63          	ble	s10,s1,80009fa0 <i_9866>

0000000080009f88 <i_9860>:
    80009f88:	fc110483          	lb	s1,-63(sp)

0000000080009f8c <i_9861>:
    80009f8c:	009d1263          	bne	s10,s1,80009f90 <i_9862>

0000000080009f90 <i_9862>:
    80009f90:	037249bb          	divw	s3,tp,s7

0000000080009f94 <i_9863>:
    80009f94:	03a9edbb          	remw	s11,s3,s10

0000000080009f98 <i_9864>:
    80009f98:	00000013          	nop

0000000080009f9c <i_9865>:
    80009f9c:	026c0eb3          	mul	t4,s8,t1

0000000080009fa0 <i_9866>:
    80009fa0:	8fc2ed17          	auipc	s10,0x8fc2e

0000000080009fa4 <i_9867>:
    80009fa4:	00000013          	nop

0000000080009fa8 <i_9868>:
    80009fa8:	73a00c13          	li	s8,1850

0000000080009fac <i_9869>:
    80009fac:	74900493          	li	s1,1865

0000000080009fb0 <i_9870>:
    80009fb0:	001c0c13          	addi	s8,s8,1
    80009fb4:	fe9c6ee3          	bltu	s8,s1,80009fb0 <i_9870>

0000000080009fb8 <i_9871>:
    80009fb8:	14416603          	lwu	a2,324(sp)

0000000080009fbc <i_9872>:
    80009fbc:	f784e993          	ori	s3,s1,-136

0000000080009fc0 <i_9873>:
    80009fc0:	8b500b13          	li	s6,-1867

0000000080009fc4 <i_9874>:
    80009fc4:	8c900093          	li	ra,-1847

0000000080009fc8 <i_9875>:
    80009fc8:	00000013          	nop

0000000080009fcc <i_9876>:
    80009fcc:	02500e13          	li	t3,37

0000000080009fd0 <i_9877>:
    80009fd0:	01cc1eb3          	sll	t4,s8,t3

0000000080009fd4 <i_9878>:
    80009fd4:	001b0b13          	addi	s6,s6,1
    80009fd8:	ff60f8e3          	bleu	s6,ra,80009fc8 <i_9875>

0000000080009fdc <i_9879>:
    80009fdc:	00714e83          	lbu	t4,7(sp)

0000000080009fe0 <i_9880>:
    80009fe0:	d2b0c9b7          	lui	s3,0xd2b0c

0000000080009fe4 <i_9881>:
    80009fe4:	fa614d03          	lbu	s10,-90(sp)

0000000080009fe8 <i_9882>:
    80009fe8:	f9211d83          	lh	s11,-110(sp)

0000000080009fec <i_9883>:
    80009fec:	f6811323          	sh	s0,-154(sp)

0000000080009ff0 <i_9884>:
    80009ff0:	039409b3          	mul	s3,s0,s9

0000000080009ff4 <i_9885>:
    80009ff4:	85700c93          	li	s9,-1961

0000000080009ff8 <i_9886>:
    80009ff8:	86600413          	li	s0,-1946

0000000080009ffc <i_9887>:
    80009ffc:	0399d263          	ble	s9,s3,8000a020 <i_9895>

000000008000a000 <i_9888>:
    8000a000:	15611483          	lh	s1,342(sp)

000000008000a004 <i_9889>:
    8000a004:	001c8c93          	addi	s9,s9,1
    8000a008:	fe8ceae3          	bltu	s9,s0,80009ffc <i_9887>

000000008000a00c <i_9890>:
    8000a00c:	e8810f23          	sb	s0,-354(sp)

000000008000a010 <i_9891>:
    8000a010:	133104a3          	sb	s3,297(sp)

000000008000a014 <i_9892>:
    8000a014:	f1312623          	sw	s3,-244(sp)

000000008000a018 <i_9893>:
    8000a018:	0014999b          	slliw	s3,s1,0x1

000000008000a01c <i_9894>:
    8000a01c:	0fe11083          	lh	ra,254(sp)

000000008000a020 <i_9895>:
    8000a020:	07814083          	lbu	ra,120(sp)

000000008000a024 <i_9896>:
    8000a024:	1b313423          	sd	s3,424(sp)

000000008000a028 <i_9897>:
    8000a028:	00300e13          	li	t3,3

000000008000a02c <i_9898>:
    8000a02c:	41c459bb          	sraw	s3,s0,t3

000000008000a030 <i_9899>:
    8000a030:	f7a13823          	sd	s10,-144(sp)

000000008000a034 <i_9900>:
    8000a034:	fe913c23          	sd	s1,-8(sp)

000000008000a038 <i_9901>:
    8000a038:	01c0c663          	blt	ra,t3,8000a044 <i_9904>

000000008000a03c <i_9902>:
    8000a03c:	00dd6c63          	bltu	s10,a3,8000a054 <i_9908>

000000008000a040 <i_9903>:
    8000a040:	00186e63          	bltu	a6,ra,8000a05c <i_9910>

000000008000a044 <i_9904>:
    8000a044:	12c14b83          	lbu	s7,300(sp)

000000008000a048 <i_9905>:
    8000a048:	01c6b6b3          	sltu	a3,a3,t3

000000008000a04c <i_9906>:
    8000a04c:	01ce1a63          	bne	t3,t3,8000a060 <i_9911>

000000008000a050 <i_9907>:
    8000a050:	4026d69b          	sraiw	a3,a3,0x2

000000008000a054 <i_9908>:
    8000a054:	14d11523          	sh	a3,330(sp)

000000008000a058 <i_9909>:
    8000a058:	418e09b3          	sub	s3,t3,s8

000000008000a05c <i_9910>:
    8000a05c:	03711d23          	sh	s7,58(sp)

000000008000a060 <i_9911>:
    8000a060:	0a013e03          	ld	t3,160(sp)

000000008000a064 <i_9912>:
    8000a064:	efe15483          	lhu	s1,-258(sp)

000000008000a068 <i_9913>:
    8000a068:	94ee0613          	addi	a2,t3,-1714

000000008000a06c <i_9914>:
    8000a06c:	01e00413          	li	s0,30

000000008000a070 <i_9915>:
    8000a070:	4089d4bb          	sraw	s1,s3,s0

000000008000a074 <i_9916>:
    8000a074:	01c9dc63          	ble	t3,s3,8000a08c <i_9922>

000000008000a078 <i_9917>:
    8000a078:	ec013e83          	ld	t4,-320(sp)

000000008000a07c <i_9918>:
    8000a07c:	06c12983          	lw	s3,108(sp)

000000008000a080 <i_9919>:
    8000a080:	0fc15183          	lhu	gp,252(sp)

000000008000a084 <i_9920>:
    8000a084:	031e0263          	beq	t3,a7,8000a0a8 <i_9929>

000000008000a088 <i_9921>:
    8000a088:	05815183          	lhu	gp,88(sp)

000000008000a08c <i_9922>:
    8000a08c:	12c13423          	sd	a2,296(sp)

000000008000a090 <i_9923>:
    8000a090:	03d9a5b3          	mulhsu	a1,s3,t4

000000008000a094 <i_9924>:
    8000a094:	05b10183          	lb	gp,91(sp)

000000008000a098 <i_9925>:
    8000a098:	0315a5b3          	mulhsu	a1,a1,a7

000000008000a09c <i_9926>:
    8000a09c:	e4813083          	ld	ra,-440(sp)

000000008000a0a0 <i_9927>:
    8000a0a0:	fe912a23          	sw	s1,-12(sp)

000000008000a0a4 <i_9928>:
    8000a0a4:	0139e863          	bltu	s3,s3,8000a0b4 <i_9932>

000000008000a0a8 <i_9929>:
    8000a0a8:	033ef0b3          	remu	ra,t4,s3

000000008000a0ac <i_9930>:
    8000a0ac:	00897e63          	bleu	s0,s2,8000a0c8 <i_9937>

000000008000a0b0 <i_9931>:
    8000a0b0:	00000013          	nop

000000008000a0b4 <i_9932>:
    8000a0b4:	021985b3          	mul	a1,s3,ra

000000008000a0b8 <i_9933>:
    8000a0b8:	00000013          	nop

000000008000a0bc <i_9934>:
    8000a0bc:	0c415d83          	lhu	s11,196(sp)

000000008000a0c0 <i_9935>:
    8000a0c0:	eb312a23          	sw	s3,-332(sp)

000000008000a0c4 <i_9936>:
    8000a0c4:	4010de1b          	sraiw	t3,ra,0x1

000000008000a0c8 <i_9937>:
    8000a0c8:	02200a13          	li	s4,34

000000008000a0cc <i_9938>:
    8000a0cc:	014853b3          	srl	t2,a6,s4

000000008000a0d0 <i_9939>:
    8000a0d0:	84100993          	li	s3,-1983

000000008000a0d4 <i_9940>:
    8000a0d4:	84c00093          	li	ra,-1972

000000008000a0d8 <i_9941>:
    8000a0d8:	1b013023          	sd	a6,416(sp)

000000008000a0dc <i_9942>:
    8000a0dc:	ea415803          	lhu	a6,-348(sp)

000000008000a0e0 <i_9943>:
    8000a0e0:	05114e83          	lbu	t4,81(sp)

000000008000a0e4 <i_9944>:
    8000a0e4:	03400e93          	li	t4,52

000000008000a0e8 <i_9945>:
    8000a0e8:	01d856b3          	srl	a3,a6,t4

000000008000a0ec <i_9946>:
    8000a0ec:	00198993          	addi	s3,s3,1 # ffffffffd2b0c001 <_end+0xffffffff52afbbed>
    8000a0f0:	fe1994e3          	bne	s3,ra,8000a0d8 <i_9941>

000000008000a0f4 <i_9947>:
    8000a0f4:	13016a03          	lwu	s4,304(sp)

000000008000a0f8 <i_9948>:
    8000a0f8:	f5710683          	lb	a3,-169(sp)

000000008000a0fc <i_9949>:
    8000a0fc:	c146bb13          	sltiu	s6,a3,-1004

000000008000a100 <i_9950>:
    8000a100:	04412d03          	lw	s10,68(sp)

000000008000a104 <i_9951>:
    8000a104:	83000f13          	li	t5,-2000

000000008000a108 <i_9952>:
    8000a108:	84200813          	li	a6,-1982

000000008000a10c <i_9953>:
    8000a10c:	032d5e3b          	divuw	t3,s10,s2

000000008000a110 <i_9954>:
    8000a110:	77c1049b          	addiw	s1,sp,1916

000000008000a114 <i_9955>:
    8000a114:	02dd6a3b          	remw	s4,s10,a3

000000008000a118 <i_9956>:
    8000a118:	01283633          	sltu	a2,a6,s2

000000008000a11c <i_9957>:
    8000a11c:	09016683          	lwu	a3,144(sp)

000000008000a120 <i_9958>:
    8000a120:	01700b13          	li	s6,23

000000008000a124 <i_9959>:
    8000a124:	0166da3b          	srlw	s4,a3,s6

000000008000a128 <i_9960>:
    8000a128:	e7e11283          	lh	t0,-386(sp)

000000008000a12c <i_9961>:
    8000a12c:	014b6e63          	bltu	s6,s4,8000a148 <i_9967>

000000008000a130 <i_9962>:
    8000a130:	001f0f13          	addi	t5,t5,1
    8000a134:	fde85ce3          	ble	t5,a6,8000a10c <i_9953>

000000008000a138 <i_9963>:
    8000a138:	01610aa3          	sb	s6,21(sp)

000000008000a13c <i_9964>:
    8000a13c:	f3010323          	sb	a6,-218(sp)

000000008000a140 <i_9965>:
    8000a140:	08410283          	lb	t0,132(sp)

000000008000a144 <i_9966>:
    8000a144:	1ba10e83          	lb	t4,442(sp)

000000008000a148 <i_9967>:
    8000a148:	030ed83b          	divuw	a6,t4,a6

000000008000a14c <i_9968>:
    8000a14c:	04e15203          	lhu	tp,78(sp)

000000008000a150 <i_9969>:
    8000a150:	03800213          	li	tp,56

000000008000a154 <i_9970>:
    8000a154:	00439eb3          	sll	t4,t2,tp

000000008000a158 <i_9971>:
    8000a158:	f9a14e03          	lbu	t3,-102(sp)

000000008000a15c <i_9972>:
    8000a15c:	05412203          	lw	tp,84(sp)

000000008000a160 <i_9973>:
    8000a160:	001e1a13          	slli	s4,t3,0x1

000000008000a164 <i_9974>:
    8000a164:	12013e03          	ld	t3,288(sp)

000000008000a168 <i_9975>:
    8000a168:	03c24263          	blt	tp,t3,8000a18c <i_9984>

000000008000a16c <i_9976>:
    8000a16c:	00600e13          	li	t3,6

000000008000a170 <i_9977>:
    8000a170:	01ce5233          	srl	tp,t3,t3

000000008000a174 <i_9978>:
    8000a174:	19416283          	lwu	t0,404(sp)

000000008000a178 <i_9979>:
    8000a178:	01c29c63          	bne	t0,t3,8000a190 <i_9985>

000000008000a17c <i_9980>:
    8000a17c:	fc013b83          	ld	s7,-64(sp)

000000008000a180 <i_9981>:
    8000a180:	01f00e13          	li	t3,31

000000008000a184 <i_9982>:
    8000a184:	01c3533b          	srlw	t1,t1,t3

000000008000a188 <i_9983>:
    8000a188:	026357b3          	divu	a5,t1,t1

000000008000a18c <i_9984>:
    8000a18c:	f7611203          	lh	tp,-138(sp)

000000008000a190 <i_9985>:
    8000a190:	e2514683          	lbu	a3,-475(sp)

000000008000a194 <i_9986>:
    8000a194:	00fbf263          	bleu	a5,s7,8000a198 <i_9987>

000000008000a198 <i_9987>:
    8000a198:	004e1e13          	slli	t3,t3,0x4

000000008000a19c <i_9988>:
    8000a19c:	f4412623          	sw	tp,-180(sp)

000000008000a1a0 <i_9989>:
    8000a1a0:	1a011e03          	lh	t3,416(sp)

000000008000a1a4 <i_9990>:
    8000a1a4:	01cc8cb3          	add	s9,s9,t3

000000008000a1a8 <i_9991>:
    8000a1a8:	07615b83          	lhu	s7,118(sp)

000000008000a1ac <i_9992>:
    8000a1ac:	3f4cbe13          	sltiu	t3,s9,1012

000000008000a1b0 <i_9993>:
    8000a1b0:	02fca7b3          	mulhsu	a5,s9,a5

000000008000a1b4 <i_9994>:
    8000a1b4:	ee414283          	lbu	t0,-284(sp)

000000008000a1b8 <i_9995>:
    8000a1b8:	03c29263          	bne	t0,t3,8000a1dc <i_10004>

000000008000a1bc <i_9996>:
    8000a1bc:	ef710783          	lb	a5,-265(sp)

000000008000a1c0 <i_9997>:
    8000a1c0:	0c511b23          	sh	t0,214(sp)

000000008000a1c4 <i_9998>:
    8000a1c4:	01c6f263          	bleu	t3,a3,8000a1c8 <i_9999>

000000008000a1c8 <i_9999>:
    8000a1c8:	01981263          	bne	a6,s9,8000a1cc <i_10000>

000000008000a1cc <i_10000>:
    8000a1cc:	00fbd263          	ble	a5,s7,8000a1d0 <i_10001>

000000008000a1d0 <i_10001>:
    8000a1d0:	01c00a93          	li	s5,28

000000008000a1d4 <i_10002>:
    8000a1d4:	015191b3          	sll	gp,gp,s5

000000008000a1d8 <i_10003>:
    8000a1d8:	c18c879b          	addiw	a5,s9,-1000

000000008000a1dc <i_10004>:
    8000a1dc:	00000013          	nop

000000008000a1e0 <i_10005>:
    8000a1e0:	e3816a03          	lwu	s4,-456(sp)

000000008000a1e4 <i_10006>:
    8000a1e4:	8c400c93          	li	s9,-1852

000000008000a1e8 <i_10007>:
    8000a1e8:	8d400e13          	li	t3,-1836

000000008000a1ec <i_10008>:
    8000a1ec:	005e4663          	blt	t3,t0,8000a1f8 <i_10011>

000000008000a1f0 <i_10009>:
    8000a1f0:	f6412983          	lw	s3,-156(sp)

000000008000a1f4 <i_10010>:
    8000a1f4:	fca15183          	lhu	gp,-54(sp)

000000008000a1f8 <i_10011>:
    8000a1f8:	285db213          	sltiu	tp,s11,645

000000008000a1fc <i_10012>:
    8000a1fc:	00ce0a63          	beq	t3,a2,8000a210 <i_10017>

000000008000a200 <i_10013>:
    8000a200:	1b511b23          	sh	s5,438(sp)

000000008000a204 <i_10014>:
    8000a204:	024a6a33          	rem	s4,s4,tp

000000008000a208 <i_10015>:
    8000a208:	14311823          	sh	gp,336(sp)

000000008000a20c <i_10016>:
    8000a20c:	fd016503          	lwu	a0,-48(sp)

000000008000a210 <i_10017>:
    8000a210:	02418663          	beq	gp,tp,8000a23c <i_10027>

000000008000a214 <i_10018>:
    8000a214:	e0310ca3          	sb	gp,-487(sp)

000000008000a218 <i_10019>:
    8000a218:	0151e513          	ori	a0,gp,21

000000008000a21c <i_10020>:
    8000a21c:	001c8c93          	addi	s9,s9,1
    8000a220:	fdcc96e3          	bne	s9,t3,8000a1ec <i_10008>

000000008000a224 <i_10021>:
    8000a224:	e1a11203          	lh	tp,-486(sp)

000000008000a228 <i_10022>:
    8000a228:	02a57063          	bleu	a0,a0,8000a248 <i_10030>

000000008000a22c <i_10023>:
    8000a22c:	fde11183          	lh	gp,-34(sp)

000000008000a230 <i_10024>:
    8000a230:	00a70e63          	beq	a4,a0,8000a24c <i_10031>

000000008000a234 <i_10025>:
    8000a234:	00c51263          	bne	a0,a2,8000a238 <i_10026>

000000008000a238 <i_10026>:
    8000a238:	10a12623          	sw	a0,268(sp)

000000008000a23c <i_10027>:
    8000a23c:	90449c97          	auipc	s9,0x90449

000000008000a240 <i_10028>:
    8000a240:	02355263          	ble	gp,a0,8000a264 <i_10037>

000000008000a244 <i_10029>:
    8000a244:	06012603          	lw	a2,96(sp)

000000008000a248 <i_10030>:
    8000a248:	f0a12223          	sw	a0,-252(sp)

000000008000a24c <i_10031>:
    8000a24c:	fc011d03          	lh	s10,-64(sp)

000000008000a250 <i_10032>:
    8000a250:	08f1841b          	addiw	s0,gp,143

000000008000a254 <i_10033>:
    8000a254:	008ca433          	slt	s0,s9,s0

000000008000a258 <i_10034>:
    8000a258:	f3a13023          	sd	s10,-224(sp)

000000008000a25c <i_10035>:
    8000a25c:	00500613          	li	a2,5

000000008000a260 <i_10036>:
    8000a260:	00ccd433          	srl	s0,s9,a2

000000008000a264 <i_10037>:
    8000a264:	00854c63          	blt	a0,s0,8000a27c <i_10043>

000000008000a268 <i_10038>:
    8000a268:	03a46263          	bltu	s0,s10,8000a28c <i_10047>

000000008000a26c <i_10039>:
    8000a26c:	e2414c83          	lbu	s9,-476(sp)

000000008000a270 <i_10040>:
    8000a270:	ff07cd13          	xori	s10,a5,-16

000000008000a274 <i_10041>:
    8000a274:	f1414783          	lbu	a5,-236(sp)

000000008000a278 <i_10042>:
    8000a278:	06813e03          	ld	t3,104(sp)

000000008000a27c <i_10043>:
    8000a27c:	ef714603          	lbu	a2,-265(sp)

000000008000a280 <i_10044>:
    8000a280:	e7a12c23          	sw	s10,-392(sp)

000000008000a284 <i_10045>:
    8000a284:	ff011783          	lh	a5,-16(sp)

000000008000a288 <i_10046>:
    8000a288:	01a7fd33          	and	s10,a5,s10

000000008000a28c <i_10047>:
    8000a28c:	01dd5863          	ble	t4,s10,8000a29c <i_10051>

000000008000a290 <i_10048>:
    8000a290:	02f37d3b          	remuw	s10,t1,a5

000000008000a294 <i_10049>:
    8000a294:	efd105a3          	sb	t4,-277(sp)

000000008000a298 <i_10050>:
    8000a298:	03d797b3          	mulh	a5,a5,t4

000000008000a29c <i_10051>:
    8000a29c:	e2111623          	sh	ra,-468(sp)

000000008000a2a0 <i_10052>:
    8000a2a0:	00f5f863          	bleu	a5,a1,8000a2b0 <i_10056>

000000008000a2a4 <i_10053>:
    8000a2a4:	03a7f7bb          	remuw	a5,a5,s10

000000008000a2a8 <i_10054>:
    8000a2a8:	08f12a23          	sw	a5,148(sp)

000000008000a2ac <i_10055>:
    8000a2ac:	11c12783          	lw	a5,284(sp)

000000008000a2b0 <i_10056>:
    8000a2b0:	00000013          	nop

000000008000a2b4 <i_10057>:
    8000a2b4:	0047df1b          	srliw	t5,a5,0x4

000000008000a2b8 <i_10058>:
    8000a2b8:	77f00b13          	li	s6,1919

000000008000a2bc <i_10059>:
    8000a2bc:	79200193          	li	gp,1938

000000008000a2c0 <i_10060>:
    8000a2c0:	02f11623          	sh	a5,44(sp)

000000008000a2c4 <i_10061>:
    8000a2c4:	05611323          	sh	s6,70(sp)

000000008000a2c8 <i_10062>:
    8000a2c8:	f6013f03          	ld	t5,-160(sp)

000000008000a2cc <i_10063>:
    8000a2cc:	17a15383          	lhu	t2,378(sp)

000000008000a2d0 <i_10064>:
    8000a2d0:	14f12623          	sw	a5,332(sp)

000000008000a2d4 <i_10065>:
    8000a2d4:	19710303          	lb	t1,407(sp)

000000008000a2d8 <i_10066>:
    8000a2d8:	158102a3          	sb	s8,325(sp)

000000008000a2dc <i_10067>:
    8000a2dc:	f6415c03          	lhu	s8,-156(sp)

000000008000a2e0 <i_10068>:
    8000a2e0:	f9013603          	ld	a2,-112(sp)

000000008000a2e4 <i_10069>:
    8000a2e4:	1d714f03          	lbu	t5,471(sp)

000000008000a2e8 <i_10070>:
    8000a2e8:	003c169b          	slliw	a3,s8,0x3

000000008000a2ec <i_10071>:
    8000a2ec:	05013c03          	ld	s8,80(sp)

000000008000a2f0 <i_10072>:
    8000a2f0:	e7811b23          	sh	s8,-394(sp)

000000008000a2f4 <i_10073>:
    8000a2f4:	001b0b13          	addi	s6,s6,1
    8000a2f8:	fd61f4e3          	bleu	s6,gp,8000a2c0 <i_10060>

000000008000a2fc <i_10074>:
    8000a2fc:	03836dbb          	remw	s11,t1,s8

000000008000a300 <i_10075>:
    8000a300:	03843db3          	mulhu	s11,s0,s8

000000008000a304 <i_10076>:
    8000a304:	02adf463          	bleu	a0,s11,8000a32c <i_10086>

000000008000a308 <i_10077>:
    8000a308:	d8b6b593          	sltiu	a1,a3,-629

000000008000a30c <i_10078>:
    8000a30c:	01b5c263          	blt	a1,s11,8000a310 <i_10079>

000000008000a310 <i_10079>:
    8000a310:	0385d463          	ble	s8,a1,8000a338 <i_10089>

000000008000a314 <i_10080>:
    8000a314:	10d11523          	sh	a3,266(sp)

000000008000a318 <i_10081>:
    8000a318:	0e415b83          	lhu	s7,228(sp)

000000008000a31c <i_10082>:
    8000a31c:	01758663          	beq	a1,s7,8000a328 <i_10085>

000000008000a320 <i_10083>:
    8000a320:	13a15803          	lhu	a6,314(sp)

000000008000a324 <i_10084>:
    8000a324:	015b9c63          	bne	s7,s5,8000a33c <i_10090>

000000008000a328 <i_10085>:
    8000a328:	f5615483          	lhu	s1,-170(sp)

000000008000a32c <i_10086>:
    8000a32c:	16013983          	ld	s3,352(sp)

000000008000a330 <i_10087>:
    8000a330:	f2068d93          	addi	s11,a3,-224

000000008000a334 <i_10088>:
    8000a334:	03afbe33          	mulhu	t3,t6,s10

000000008000a338 <i_10089>:
    8000a338:	00469e1b          	slliw	t3,a3,0x4

000000008000a33c <i_10090>:
    8000a33c:	27556513          	ori	a0,a0,629

000000008000a340 <i_10091>:
    8000a340:	fbf10ea3          	sb	t6,-67(sp)

000000008000a344 <i_10092>:
    8000a344:	77e00b13          	li	s6,1918

000000008000a348 <i_10093>:
    8000a348:	78800693          	li	a3,1928

000000008000a34c <i_10094>:
    8000a34c:	05c16083          	lwu	ra,92(sp)

000000008000a350 <i_10095>:
    8000a350:	1b811503          	lh	a0,440(sp)

000000008000a354 <i_10096>:
    8000a354:	1bf13423          	sd	t6,424(sp)

000000008000a358 <i_10097>:
    8000a358:	00100513          	li	a0,1

000000008000a35c <i_10098>:
    8000a35c:	00a0953b          	sllw	a0,ra,a0

000000008000a360 <i_10099>:
    8000a360:	001b0b13          	addi	s6,s6,1
    8000a364:	ff66f4e3          	bleu	s6,a3,8000a34c <i_10094>

000000008000a368 <i_10100>:
    8000a368:	4f754093          	xori	ra,a0,1271

000000008000a36c <i_10101>:
    8000a36c:	01013083          	ld	ra,16(sp)

000000008000a370 <i_10102>:
    8000a370:	f6a10123          	sb	a0,-158(sp)

000000008000a374 <i_10103>:
    8000a374:	03c0d533          	divu	a0,ra,t3

000000008000a378 <i_10104>:
    8000a378:	02150e3b          	mulw	t3,a0,ra

000000008000a37c <i_10105>:
    8000a37c:	73500593          	li	a1,1845

000000008000a380 <i_10106>:
    8000a380:	74000c13          	li	s8,1856

000000008000a384 <i_10107>:
    8000a384:	00158593          	addi	a1,a1,1 # edef6d6d <_end+0x6dee6959>
    8000a388:	febc7ee3          	bleu	a1,s8,8000a384 <i_10107>

000000008000a38c <i_10108>:
    8000a38c:	1c813f03          	ld	t5,456(sp)

000000008000a390 <i_10109>:
    8000a390:	08013203          	ld	tp,128(sp)

000000008000a394 <i_10110>:
    8000a394:	88b00093          	li	ra,-1909

000000008000a398 <i_10111>:
    8000a398:	88e00193          	li	gp,-1906

000000008000a39c <i_10112>:
    8000a39c:	15e12023          	sw	t5,320(sp)

000000008000a3a0 <i_10113>:
    8000a3a0:	00108093          	addi	ra,ra,1
    8000a3a4:	fe309ce3          	bne	ra,gp,8000a39c <i_10112>

000000008000a3a8 <i_10114>:
    8000a3a8:	00124c63          	blt	tp,ra,8000a3c0 <i_10120>

000000008000a3ac <i_10115>:
    8000a3ac:	024103a3          	sb	tp,39(sp)

000000008000a3b0 <i_10116>:
    8000a3b0:	fc111a23          	sh	ra,-44(sp)

000000008000a3b4 <i_10117>:
    8000a3b4:	02bf09b3          	mul	s3,t5,a1

000000008000a3b8 <i_10118>:
    8000a3b8:	06411823          	sh	tp,112(sp)

000000008000a3bc <i_10119>:
    8000a3bc:	f9e13023          	sd	t5,-128(sp)

000000008000a3c0 <i_10120>:
    8000a3c0:	00000013          	nop

000000008000a3c4 <i_10121>:
    8000a3c4:	fb510983          	lb	s3,-75(sp)

000000008000a3c8 <i_10122>:
    8000a3c8:	89a00213          	li	tp,-1894

000000008000a3cc <i_10123>:
    8000a3cc:	8ae00f13          	li	t5,-1874

000000008000a3d0 <i_10124>:
    8000a3d0:	03081833          	mulh	a6,a6,a6

000000008000a3d4 <i_10125>:
    8000a3d4:	00481813          	slli	a6,a6,0x4

000000008000a3d8 <i_10126>:
    8000a3d8:	01d00b13          	li	s6,29

000000008000a3dc <i_10127>:
    8000a3dc:	016591bb          	sllw	gp,a1,s6

000000008000a3e0 <i_10128>:
    8000a3e0:	03059833          	mulh	a6,a1,a6

000000008000a3e4 <i_10129>:
    8000a3e4:	0125ea63          	bltu	a1,s2,8000a3f8 <i_10133>

000000008000a3e8 <i_10130>:
    8000a3e8:	00120213          	addi	tp,tp,1 # 1 <main-0x7fffffff>
    8000a3ec:	fe4f72e3          	bleu	tp,t5,8000a3d0 <i_10124>

000000008000a3f0 <i_10131>:
    8000a3f0:	f4e10183          	lb	gp,-178(sp)

000000008000a3f4 <i_10132>:
    8000a3f4:	0101c663          	blt	gp,a6,8000a400 <i_10135>

000000008000a3f8 <i_10133>:
    8000a3f8:	03a00d93          	li	s11,58

000000008000a3fc <i_10134>:
    8000a3fc:	41b1d233          	sra	tp,gp,s11

000000008000a400 <i_10135>:
    8000a400:	03958433          	mul	s0,a1,s9

000000008000a404 <i_10136>:
    8000a404:	00885463          	ble	s0,a6,8000a40c <i_10138>

000000008000a408 <i_10137>:
    8000a408:	40b18c33          	sub	s8,gp,a1

000000008000a40c <i_10138>:
    8000a40c:	fe011b83          	lh	s7,-32(sp)

000000008000a410 <i_10139>:
    8000a410:	00000013          	nop

000000008000a414 <i_10140>:
    8000a414:	83600293          	li	t0,-1994

000000008000a418 <i_10141>:
    8000a418:	84300493          	li	s1,-1981

000000008000a41c <i_10142>:
    8000a41c:	05012623          	sw	a6,76(sp)

000000008000a420 <i_10143>:
    8000a420:	00000013          	nop

000000008000a424 <i_10144>:
    8000a424:	00000013          	nop

000000008000a428 <i_10145>:
    8000a428:	e4812623          	sw	s0,-436(sp)

000000008000a42c <i_10146>:
    8000a42c:	030b0263          	beq	s6,a6,8000a450 <i_10154>

000000008000a430 <i_10147>:
    8000a430:	e8011203          	lh	tp,-384(sp)

000000008000a434 <i_10148>:
    8000a434:	00128293          	addi	t0,t0,1
    8000a438:	fe54d2e3          	ble	t0,s1,8000a41c <i_10142>

000000008000a43c <i_10149>:
    8000a43c:	001d5d1b          	srliw	s10,s10,0x1

000000008000a440 <i_10150>:
    8000a440:	00369693          	slli	a3,a3,0x3

000000008000a444 <i_10151>:
    8000a444:	12813d03          	ld	s10,296(sp)

000000008000a448 <i_10152>:
    8000a448:	0396d463          	ble	s9,a3,8000a470 <i_10162>

000000008000a44c <i_10153>:
    8000a44c:	07814683          	lbu	a3,120(sp)

000000008000a450 <i_10154>:
    8000a450:	02d6d6bb          	divuw	a3,a3,a3

000000008000a454 <i_10155>:
    8000a454:	00df5863          	ble	a3,t5,8000a464 <i_10159>

000000008000a458 <i_10156>:
    8000a458:	ef611303          	lh	t1,-266(sp)

000000008000a45c <i_10157>:
    8000a45c:	0376f463          	bleu	s7,a3,8000a484 <i_10167>

000000008000a460 <i_10158>:
    8000a460:	f1812683          	lw	a3,-232(sp)

000000008000a464 <i_10159>:
    8000a464:	08215803          	lhu	a6,130(sp)

000000008000a468 <i_10160>:
    8000a468:	0b914683          	lbu	a3,185(sp)

000000008000a46c <i_10161>:
    8000a46c:	fcf14e83          	lbu	t4,-49(sp)

000000008000a470 <i_10162>:
    8000a470:	1a611d23          	sh	t1,442(sp)

000000008000a474 <i_10163>:
    8000a474:	02800e93          	li	t4,40

000000008000a478 <i_10164>:
    8000a478:	41d357b3          	sra	a5,t1,t4

000000008000a47c <i_10165>:
    8000a47c:	00700793          	li	a5,7

000000008000a480 <i_10166>:
    8000a480:	00f85a33          	srl	s4,a6,a5

000000008000a484 <i_10167>:
    8000a484:	f3311323          	sh	s3,-218(sp)

000000008000a488 <i_10168>:
    8000a488:	fdc16b03          	lwu	s6,-36(sp)

000000008000a48c <i_10169>:
    8000a48c:	84500313          	li	t1,-1979

000000008000a490 <i_10170>:
    8000a490:	85100813          	li	a6,-1967

000000008000a494 <i_10171>:
    8000a494:	016a6a33          	or	s4,s4,s6

000000008000a498 <i_10172>:
    8000a498:	f1813a03          	ld	s4,-232(sp)

000000008000a49c <i_10173>:
    8000a49c:	fe214083          	lbu	ra,-30(sp)

000000008000a4a0 <i_10174>:
    8000a4a0:	00130313          	addi	t1,t1,1
    8000a4a4:	ff0318e3          	bne	t1,a6,8000a494 <i_10171>

000000008000a4a8 <i_10175>:
    8000a4a8:	3cdc6a13          	ori	s4,s8,973

000000008000a4ac <i_10176>:
    8000a4ac:	1d215d83          	lhu	s11,466(sp)

000000008000a4b0 <i_10177>:
    8000a4b0:	0a615b03          	lhu	s6,166(sp)

000000008000a4b4 <i_10178>:
    8000a4b4:	ea813283          	ld	t0,-344(sp)

000000008000a4b8 <i_10179>:
    8000a4b8:	7b100e13          	li	t3,1969

000000008000a4bc <i_10180>:
    8000a4bc:	7b800213          	li	tp,1976

000000008000a4c0 <i_10181>:
    8000a4c0:	018b7c33          	and	s8,s6,s8

000000008000a4c4 <i_10182>:
    8000a4c4:	00528c63          	beq	t0,t0,8000a4dc <i_10188>

000000008000a4c8 <i_10183>:
    8000a4c8:	02d00513          	li	a0,45

000000008000a4cc <i_10184>:
    8000a4cc:	00a2dc33          	srl	s8,t0,a0

000000008000a4d0 <i_10185>:
    8000a4d0:	036b13b3          	mulh	t2,s6,s6

000000008000a4d4 <i_10186>:
    8000a4d4:	ec512823          	sw	t0,-304(sp)

000000008000a4d8 <i_10187>:
    8000a4d8:	416383bb          	subw	t2,t2,s6

000000008000a4dc <i_10188>:
    8000a4dc:	01b00b13          	li	s6,27

000000008000a4e0 <i_10189>:
    8000a4e0:	016b563b          	srlw	a2,s6,s6

000000008000a4e4 <i_10190>:
    8000a4e4:	00565e63          	ble	t0,a2,8000a500 <i_10196>

000000008000a4e8 <i_10191>:
    8000a4e8:	001e0e13          	addi	t3,t3,1
    8000a4ec:	fdc21ae3          	bne	tp,t3,8000a4c0 <i_10181>

000000008000a4f0 <i_10192>:
    8000a4f0:	01cc6663          	bltu	s8,t3,8000a4fc <i_10195>

000000008000a4f4 <i_10193>:
    8000a4f4:	00ab5c63          	ble	a0,s6,8000a50c <i_10199>

000000008000a4f8 <i_10194>:
    8000a4f8:	00ac09b3          	add	s3,s8,a0

000000008000a4fc <i_10195>:
    8000a4fc:	0056c6b3          	xor	a3,a3,t0

000000008000a500 <i_10196>:
    8000a500:	e7012e23          	sw	a6,-388(sp)

000000008000a504 <i_10197>:
    8000a504:	0076d263          	ble	t2,a3,8000a508 <i_10198>

000000008000a508 <i_10198>:
    8000a508:	00cb4c63          	blt	s6,a2,8000a520 <i_10204>

000000008000a50c <i_10199>:
    8000a50c:	016b3e33          	sltu	t3,s6,s6

000000008000a510 <i_10200>:
    8000a510:	02400613          	li	a2,36

000000008000a514 <i_10201>:
    8000a514:	00cc1eb3          	sll	t4,s8,a2

000000008000a518 <i_10202>:
    8000a518:	001c5c1b          	srliw	s8,s8,0x1

000000008000a51c <i_10203>:
    8000a51c:	03dc0263          	beq	s8,t4,8000a540 <i_10212>

000000008000a520 <i_10204>:
    8000a520:	03d11c23          	sh	t4,56(sp)

000000008000a524 <i_10205>:
    8000a524:	10410923          	sb	tp,274(sp)

000000008000a528 <i_10206>:
    8000a528:	fe411603          	lh	a2,-28(sp)

000000008000a52c <i_10207>:
    8000a52c:	03def263          	bleu	t4,t4,8000a550 <i_10216>

000000008000a530 <i_10208>:
    8000a530:	19214783          	lbu	a5,402(sp)

000000008000a534 <i_10209>:
    8000a534:	14f108a3          	sb	a5,337(sp)

000000008000a538 <i_10210>:
    8000a538:	12e11f03          	lh	t5,302(sp)

000000008000a53c <i_10211>:
    8000a53c:	eda14183          	lbu	gp,-294(sp)

000000008000a540 <i_10212>:
    8000a540:	bfeef813          	andi	a6,t4,-1026

000000008000a544 <i_10213>:
    8000a544:	f3015e83          	lhu	t4,-208(sp)

000000008000a548 <i_10214>:
    8000a548:	00000013          	nop

000000008000a54c <i_10215>:
    8000a54c:	00000013          	nop

000000008000a550 <i_10216>:
    8000a550:	00000013          	nop

000000008000a554 <i_10217>:
    8000a554:	001b1b13          	slli	s6,s6,0x1

000000008000a558 <i_10218>:
    8000a558:	76b00293          	li	t0,1899

000000008000a55c <i_10219>:
    8000a55c:	77700b93          	li	s7,1911

000000008000a560 <i_10220>:
    8000a560:	025f5063          	ble	t0,t5,8000a580 <i_10228>

000000008000a564 <i_10221>:
    8000a564:	e3d12623          	sw	t4,-468(sp)

000000008000a568 <i_10222>:
    8000a568:	d8ae8e9b          	addiw	t4,t4,-630

000000008000a56c <i_10223>:
    8000a56c:	02711023          	sh	t2,32(sp)

000000008000a570 <i_10224>:
    8000a570:	016bbeb3          	sltu	t4,s7,s6

000000008000a574 <i_10225>:
    8000a574:	f3c12403          	lw	s0,-196(sp)

000000008000a578 <i_10226>:
    8000a578:	ef011e83          	lh	t4,-272(sp)

000000008000a57c <i_10227>:
    8000a57c:	19215403          	lhu	s0,402(sp)

000000008000a580 <i_10228>:
    8000a580:	0dd12423          	sw	t4,200(sp)

000000008000a584 <i_10229>:
    8000a584:	1b016e83          	lwu	t4,432(sp)

000000008000a588 <i_10230>:
    8000a588:	008287b3          	add	a5,t0,s0

000000008000a58c <i_10231>:
    8000a58c:	03d46463          	bltu	s0,t4,8000a5b4 <i_10240>

000000008000a590 <i_10232>:
    8000a590:	00128293          	addi	t0,t0,1
    8000a594:	fd72c6e3          	blt	t0,s7,8000a560 <i_10220>

000000008000a598 <i_10233>:
    8000a598:	03defebb          	remuw	t4,t4,t4

000000008000a59c <i_10234>:
    8000a59c:	007e9c63          	bne	t4,t2,8000a5b4 <i_10240>

000000008000a5a0 <i_10235>:
    8000a5a0:	03defeb3          	remu	t4,t4,t4

000000008000a5a4 <i_10236>:
    8000a5a4:	03decebb          	divw	t4,t4,t4

000000008000a5a8 <i_10237>:
    8000a5a8:	01d7ee63          	bltu	a5,t4,8000a5c4 <i_10244>

000000008000a5ac <i_10238>:
    8000a5ac:	004ed693          	srli	a3,t4,0x4

000000008000a5b0 <i_10239>:
    8000a5b0:	0167e463          	bltu	a5,s6,8000a5b8 <i_10241>

000000008000a5b4 <i_10240>:
    8000a5b4:	0e711e23          	sh	t2,252(sp)

000000008000a5b8 <i_10241>:
    8000a5b8:	016aaab3          	slt	s5,s5,s6

000000008000a5bc <i_10242>:
    8000a5bc:	17512823          	sw	s5,368(sp)

000000008000a5c0 <i_10243>:
    8000a5c0:	bc368d9b          	addiw	s11,a3,-1085

000000008000a5c4 <i_10244>:
    8000a5c4:	00000013          	nop

000000008000a5c8 <i_10245>:
    8000a5c8:	01a00593          	li	a1,26

000000008000a5cc <i_10246>:
    8000a5cc:	00bf1e3b          	sllw	t3,t5,a1

000000008000a5d0 <i_10247>:
    8000a5d0:	86200e93          	li	t4,-1950

000000008000a5d4 <i_10248>:
    8000a5d4:	86b00c93          	li	s9,-1941

000000008000a5d8 <i_10249>:
    8000a5d8:	01d5da63          	ble	t4,a1,8000a5ec <i_10254>

000000008000a5dc <i_10250>:
    8000a5dc:	0cb14b03          	lbu	s6,203(sp)

000000008000a5e0 <i_10251>:
    8000a5e0:	ffd103a3          	sb	t4,-25(sp)

000000008000a5e4 <i_10252>:
    8000a5e4:	00000013          	nop

000000008000a5e8 <i_10253>:
    8000a5e8:	00e00593          	li	a1,14

000000008000a5ec <i_10254>:
    8000a5ec:	00b597b3          	sll	a5,a1,a1

000000008000a5f0 <i_10255>:
    8000a5f0:	01678f33          	add	t5,a5,s6

000000008000a5f4 <i_10256>:
    8000a5f4:	0345d063          	ble	s4,a1,8000a614 <i_10263>

000000008000a5f8 <i_10257>:
    8000a5f8:	1ab10583          	lb	a1,427(sp)

000000008000a5fc <i_10258>:
    8000a5fc:	001e8e93          	addi	t4,t4,1 # 2501b001 <main-0x5afe4fff>
    8000a600:	fddcfae3          	bleu	t4,s9,8000a5d4 <i_10248>

000000008000a604 <i_10259>:
    8000a604:	01e5fbb3          	and	s7,a1,t5

000000008000a608 <i_10260>:
    8000a608:	12b12c23          	sw	a1,312(sp)

000000008000a60c <i_10261>:
    8000a60c:	03eb9263          	bne	s7,t5,8000a630 <i_10270>

000000008000a610 <i_10262>:
    8000a610:	1905b793          	sltiu	a5,a1,400

000000008000a614 <i_10263>:
    8000a614:	00bb9e63          	bne	s7,a1,8000a630 <i_10270>

000000008000a618 <i_10264>:
    8000a618:	02b7c263          	blt	a5,a1,8000a63c <i_10273>

000000008000a61c <i_10265>:
    8000a61c:	e767a793          	slti	a5,a5,-394

000000008000a620 <i_10266>:
    8000a620:	01300213          	li	tp,19

000000008000a624 <i_10267>:
    8000a624:	404bddb3          	sra	s11,s7,tp

000000008000a628 <i_10268>:
    8000a628:	03b79063          	bne	a5,s11,8000a648 <i_10276>

000000008000a62c <i_10269>:
    8000a62c:	04812783          	lw	a5,72(sp)

000000008000a630 <i_10270>:
    8000a630:	00f7fa63          	bleu	a5,a5,8000a644 <i_10275>

000000008000a634 <i_10271>:
    8000a634:	024bfeb3          	remu	t4,s7,tp

000000008000a638 <i_10272>:
    8000a638:	16e15203          	lhu	tp,366(sp)

000000008000a63c <i_10273>:
    8000a63c:	014232b3          	sltu	t0,tp,s4

000000008000a640 <i_10274>:
    8000a640:	029ed263          	ble	s1,t4,8000a664 <i_10283>

000000008000a644 <i_10275>:
    8000a644:	02423eb3          	mulhu	t4,tp,tp

000000008000a648 <i_10276>:
    8000a648:	00ce7e33          	and	t3,t3,a2

000000008000a64c <i_10277>:
    8000a64c:	01c29a63          	bne	t0,t3,8000a660 <i_10282>

000000008000a650 <i_10278>:
    8000a650:	1c513c23          	sd	t0,472(sp)

000000008000a654 <i_10279>:
    8000a654:	03de6463          	bltu	t3,t4,8000a67c <i_10289>

000000008000a658 <i_10280>:
    8000a658:	1c513823          	sd	t0,464(sp)

000000008000a65c <i_10281>:
    8000a65c:	1a813283          	ld	t0,424(sp)

000000008000a660 <i_10282>:
    8000a660:	2e42b293          	sltiu	t0,t0,740

000000008000a664 <i_10283>:
    8000a664:	00508c63          	beq	ra,t0,8000a67c <i_10289>

000000008000a668 <i_10284>:
    8000a668:	015b0b33          	add	s6,s6,s5

000000008000a66c <i_10285>:
    8000a66c:	ff612a23          	sw	s6,-12(sp)

000000008000a670 <i_10286>:
    8000a670:	00600313          	li	t1,6

000000008000a674 <i_10287>:
    8000a674:	006b143b          	sllw	s0,s6,t1

000000008000a678 <i_10288>:
    8000a678:	ea816a83          	lwu	s5,-344(sp)

000000008000a67c <i_10289>:
    8000a67c:	f5510583          	lb	a1,-171(sp)

000000008000a680 <i_10290>:
    8000a680:	0c811a23          	sh	s0,212(sp)

000000008000a684 <i_10291>:
    8000a684:	ff214e03          	lbu	t3,-14(sp)

000000008000a688 <i_10292>:
    8000a688:	13813803          	ld	a6,312(sp)

000000008000a68c <i_10293>:
    8000a68c:	a2c57793          	andi	a5,a0,-1492

000000008000a690 <i_10294>:
    8000a690:	0ca106a3          	sb	a0,205(sp)

000000008000a694 <i_10295>:
    8000a694:	62b57d13          	andi	s10,a0,1579

000000008000a698 <i_10296>:
    8000a698:	e6c15503          	lhu	a0,-404(sp)

000000008000a69c <i_10297>:
    8000a69c:	15c15403          	lhu	s0,348(sp)

000000008000a6a0 <i_10298>:
    8000a6a0:	00646663          	bltu	s0,t1,8000a6ac <i_10301>

000000008000a6a4 <i_10299>:
    8000a6a4:	f6510583          	lb	a1,-155(sp)

000000008000a6a8 <i_10300>:
    8000a6a8:	04013283          	ld	t0,64(sp)

000000008000a6ac <i_10301>:
    8000a6ac:	19e11d03          	lh	s10,414(sp)

000000008000a6b0 <i_10302>:
    8000a6b0:	006ad663          	ble	t1,s5,8000a6bc <i_10305>

000000008000a6b4 <i_10303>:
    8000a6b4:	e7c13c23          	sd	t3,-392(sp)

000000008000a6b8 <i_10304>:
    8000a6b8:	f4410a83          	lb	s5,-188(sp)

000000008000a6bc <i_10305>:
    8000a6bc:	a2a947b7          	lui	a5,0xa2a94

000000008000a6c0 <i_10306>:
    8000a6c0:	403ada9b          	sraiw	s5,s5,0x3

000000008000a6c4 <i_10307>:
    8000a6c4:	01300293          	li	t0,19

000000008000a6c8 <i_10308>:
    8000a6c8:	0057dc33          	srl	s8,a5,t0

000000008000a6cc <i_10309>:
    8000a6cc:	00a00d93          	li	s11,10

000000008000a6d0 <i_10310>:
    8000a6d0:	01bdddbb          	srlw	s11,s11,s11

000000008000a6d4 <i_10311>:
    8000a6d4:	7e900c13          	li	s8,2025

000000008000a6d8 <i_10312>:
    8000a6d8:	7ed00293          	li	t0,2029

000000008000a6dc <i_10313>:
    8000a6dc:	01bdd463          	ble	s11,s11,8000a6e4 <i_10315>

000000008000a6e0 <i_10314>:
    8000a6e0:	00b00193          	li	gp,11

000000008000a6e4 <i_10315>:
    8000a6e4:	003d9db3          	sll	s11,s11,gp

000000008000a6e8 <i_10316>:
    8000a6e8:	da6d8b1b          	addiw	s6,s11,-602

000000008000a6ec <i_10317>:
    8000a6ec:	03b1cdb3          	div	s11,gp,s11

000000008000a6f0 <i_10318>:
    8000a6f0:	ed416d83          	lwu	s11,-300(sp)

000000008000a6f4 <i_10319>:
    8000a6f4:	ff710b03          	lb	s6,-9(sp)

000000008000a6f8 <i_10320>:
    8000a6f8:	001c0c13          	addi	s8,s8,1
    8000a6fc:	ff82f0e3          	bleu	s8,t0,8000a6dc <i_10313>

000000008000a700 <i_10321>:
    8000a700:	0a615c83          	lhu	s9,166(sp)

000000008000a704 <i_10322>:
    8000a704:	036b1263          	bne	s6,s6,8000a728 <i_10331>

000000008000a708 <i_10323>:
    8000a708:	03924cbb          	divw	s9,tp,s9

000000008000a70c <i_10324>:
    8000a70c:	00edc463          	blt	s11,a4,8000a714 <i_10326>

000000008000a710 <i_10325>:
    8000a710:	02900d93          	li	s11,41

000000008000a714 <i_10326>:
    8000a714:	41bdddb3          	sra	s11,s11,s11

000000008000a718 <i_10327>:
    8000a718:	02e00c13          	li	s8,46

000000008000a71c <i_10328>:
    8000a71c:	018c5c33          	srl	s8,s8,s8

000000008000a720 <i_10329>:
    8000a720:	e3e11083          	lh	ra,-450(sp)

000000008000a724 <i_10330>:
    8000a724:	001c8263          	beq	s9,ra,8000a728 <i_10331>

000000008000a728 <i_10331>:
    8000a728:	01bc9663          	bne	s9,s11,8000a734 <i_10334>

000000008000a72c <i_10332>:
    8000a72c:	038c0263          	beq	s8,s8,8000a750 <i_10341>

000000008000a730 <i_10333>:
    8000a730:	efe14c03          	lbu	s8,-258(sp)

000000008000a734 <i_10334>:
    8000a734:	9d1ae617          	auipc	a2,0x9d1ae

000000008000a738 <i_10335>:
    8000a738:	02816f03          	lwu	t5,40(sp)

000000008000a73c <i_10336>:
    8000a73c:	01ef5a63          	ble	t5,t5,8000a750 <i_10341>

000000008000a740 <i_10337>:
    8000a740:	ff013183          	ld	gp,-16(sp)

000000008000a744 <i_10338>:
    8000a744:	03b1f263          	bleu	s11,gp,8000a768 <i_10347>

000000008000a748 <i_10339>:
    8000a748:	f8013e83          	ld	t4,-128(sp)

000000008000a74c <i_10340>:
    8000a74c:	09d10183          	lb	gp,157(sp)

000000008000a750 <i_10341>:
    8000a750:	17e12e23          	sw	t5,380(sp)

000000008000a754 <i_10342>:
    8000a754:	f3013e83          	ld	t4,-208(sp)

000000008000a758 <i_10343>:
    8000a758:	03d1f463          	bleu	t4,gp,8000a780 <i_10353>

000000008000a75c <i_10344>:
    8000a75c:	01c3d263          	ble	t3,t2,8000a760 <i_10345>

000000008000a760 <i_10345>:
    8000a760:	003e9663          	bne	t4,gp,8000a76c <i_10348>

000000008000a764 <i_10346>:
    8000a764:	01d181b3          	add	gp,gp,t4

000000008000a768 <i_10347>:
    8000a768:	e7d10523          	sb	t4,-406(sp)

000000008000a76c <i_10348>:
    8000a76c:	16415c03          	lhu	s8,356(sp)

000000008000a770 <i_10349>:
    8000a770:	10b11623          	sh	a1,268(sp)

000000008000a774 <i_10350>:
    8000a774:	590c0e93          	addi	t4,s8,1424

000000008000a778 <i_10351>:
    8000a778:	e8314583          	lbu	a1,-381(sp)

000000008000a77c <i_10352>:
    8000a77c:	e6b12223          	sw	a1,-412(sp)

000000008000a780 <i_10353>:
    8000a780:	0049de9b          	srliw	t4,s3,0x4

000000008000a784 <i_10354>:
    8000a784:	f3212823          	sw	s2,-208(sp)

000000008000a788 <i_10355>:
    8000a788:	013cf663          	bleu	s3,s9,8000a794 <i_10358>

000000008000a78c <i_10356>:
    8000a78c:	00ba6a63          	bltu	s4,a1,8000a7a0 <i_10361>

000000008000a790 <i_10357>:
    8000a790:	e2015c03          	lhu	s8,-480(sp)

000000008000a794 <i_10358>:
    8000a794:	00b5ce63          	blt	a1,a1,8000a7b0 <i_10365>

000000008000a798 <i_10359>:
    8000a798:	402ed41b          	sraiw	s0,t4,0x2

000000008000a79c <i_10360>:
    8000a79c:	09c15583          	lhu	a1,156(sp)

000000008000a7a0 <i_10361>:
    8000a7a0:	f5813d03          	ld	s10,-168(sp)

000000008000a7a4 <i_10362>:
    8000a7a4:	eb311423          	sh	s3,-344(sp)

000000008000a7a8 <i_10363>:
    8000a7a8:	cd417a13          	andi	s4,sp,-812

000000008000a7ac <i_10364>:
    8000a7ac:	07611a83          	lh	s5,118(sp)

000000008000a7b0 <i_10365>:
    8000a7b0:	035aaab3          	mulhsu	s5,s5,s5

000000008000a7b4 <i_10366>:
    8000a7b4:	f6a11483          	lh	s1,-150(sp)

000000008000a7b8 <i_10367>:
    8000a7b8:	03562633          	mulhsu	a2,a2,s5

000000008000a7bc <i_10368>:
    8000a7bc:	034a8463          	beq	s5,s4,8000a7e4 <i_10378>

000000008000a7c0 <i_10369>:
    8000a7c0:	e4416a83          	lwu	s5,-444(sp)

000000008000a7c4 <i_10370>:
    8000a7c4:	fb611a83          	lh	s5,-74(sp)

000000008000a7c8 <i_10371>:
    8000a7c8:	f8c13823          	sd	a2,-112(sp)

000000008000a7cc <i_10372>:
    8000a7cc:	e9511a23          	sh	s5,-364(sp)

000000008000a7d0 <i_10373>:
    8000a7d0:	12810a83          	lb	s5,296(sp)

000000008000a7d4 <i_10374>:
    8000a7d4:	015a8e63          	beq	s5,s5,8000a7f0 <i_10381>

000000008000a7d8 <i_10375>:
    8000a7d8:	00caee63          	bltu	s5,a2,8000a7f4 <i_10382>

000000008000a7dc <i_10376>:
    8000a7dc:	e4c107a3          	sb	a2,-433(sp)

000000008000a7e0 <i_10377>:
    8000a7e0:	00c65e63          	ble	a2,a2,8000a7fc <i_10384>

000000008000a7e4 <i_10378>:
    8000a7e4:	9ff7b793          	sltiu	a5,a5,-1537

000000008000a7e8 <i_10379>:
    8000a7e8:	ff7107a3          	sb	s7,-17(sp)

000000008000a7ec <i_10380>:
    8000a7ec:	01900513          	li	a0,25

000000008000a7f0 <i_10381>:
    8000a7f0:	00a3d63b          	srlw	a2,t2,a0

000000008000a7f4 <i_10382>:
    8000a7f4:	00c64533          	xor	a0,a2,a2

000000008000a7f8 <i_10383>:
    8000a7f8:	00000013          	nop

000000008000a7fc <i_10384>:
    8000a7fc:	ede15a83          	lhu	s5,-290(sp)

000000008000a800 <i_10385>:
    8000a800:	03500a93          	li	s5,53

000000008000a804 <i_10386>:
    8000a804:	015a9633          	sll	a2,s5,s5

000000008000a808 <i_10387>:
    8000a808:	7e900b93          	li	s7,2025

000000008000a80c <i_10388>:
    8000a80c:	7f700793          	li	a5,2039

000000008000a810 <i_10389>:
    8000a810:	00000013          	nop

000000008000a814 <i_10390>:
    8000a814:	001b8b93          	addi	s7,s7,1
    8000a818:	ff77dae3          	ble	s7,a5,8000a80c <i_10388>

000000008000a81c <i_10391>:
    8000a81c:	fe810023          	sb	s0,-32(sp)

000000008000a820 <i_10392>:
    8000a820:	10910683          	lb	a3,265(sp)

000000008000a824 <i_10393>:
    8000a824:	00d6c6b3          	xor	a3,a3,a3

000000008000a828 <i_10394>:
    8000a828:	0b112a23          	sw	a7,180(sp)

000000008000a82c <i_10395>:
    8000a82c:	7c000993          	li	s3,1984

000000008000a830 <i_10396>:
    8000a830:	7ce00413          	li	s0,1998

000000008000a834 <i_10397>:
    8000a834:	00198993          	addi	s3,s3,1
    8000a838:	fe89cee3          	blt	s3,s0,8000a834 <i_10397>

000000008000a83c <i_10398>:
    8000a83c:	f3b14e03          	lbu	t3,-197(sp)

000000008000a840 <i_10399>:
    8000a840:	02d9fab3          	remu	s5,s3,a3

000000008000a844 <i_10400>:
    8000a844:	eed14583          	lbu	a1,-275(sp)

000000008000a848 <i_10401>:
    8000a848:	0c412683          	lw	a3,196(sp)

000000008000a84c <i_10402>:
    8000a84c:	00d89263          	bne	a7,a3,8000a850 <i_10403>

000000008000a850 <i_10403>:
    8000a850:	00de6663          	bltu	t3,a3,8000a85c <i_10406>

000000008000a854 <i_10404>:
    8000a854:	15710e03          	lb	t3,343(sp)

000000008000a858 <i_10405>:
    8000a858:	fad11623          	sh	a3,-84(sp)

000000008000a85c <i_10406>:
    8000a85c:	418a8dbb          	subw	s11,s5,s8

000000008000a860 <i_10407>:
    8000a860:	14e15403          	lhu	s0,334(sp)

000000008000a864 <i_10408>:
    8000a864:	00b69863          	bne	a3,a1,8000a874 <i_10412>

000000008000a868 <i_10409>:
    8000a868:	ffc12c03          	lw	s8,-4(sp)

000000008000a86c <i_10410>:
    8000a86c:	f6310d03          	lb	s10,-157(sp)

000000008000a870 <i_10411>:
    8000a870:	01bc6c63          	bltu	s8,s11,8000a888 <i_10417>

000000008000a874 <i_10412>:
    8000a874:	12013d83          	ld	s11,288(sp)

000000008000a878 <i_10413>:
    8000a878:	42e23213          	sltiu	tp,tp,1070

000000008000a87c <i_10414>:
    8000a87c:	fb812623          	sw	s8,-84(sp)

000000008000a880 <i_10415>:
    8000a880:	401c5c13          	srai	s8,s8,0x1

000000008000a884 <i_10416>:
    8000a884:	03b9b1b3          	mulhu	gp,s3,s11

000000008000a888 <i_10417>:
    8000a888:	2a41899b          	addiw	s3,gp,676

000000008000a88c <i_10418>:
    8000a88c:	f5c16183          	lwu	gp,-164(sp)

000000008000a890 <i_10419>:
    8000a890:	81800793          	li	a5,-2024

000000008000a894 <i_10420>:
    8000a894:	82b00d93          	li	s11,-2005

000000008000a898 <i_10421>:
    8000a898:	e6013983          	ld	s3,-416(sp)

000000008000a89c <i_10422>:
    8000a89c:	00000013          	nop

000000008000a8a0 <i_10423>:
    8000a8a0:	78e00693          	li	a3,1934

000000008000a8a4 <i_10424>:
    8000a8a4:	79e00213          	li	tp,1950

000000008000a8a8 <i_10425>:
    8000a8a8:	003189b3          	add	s3,gp,gp

000000008000a8ac <i_10426>:
    8000a8ac:	00168693          	addi	a3,a3,1
    8000a8b0:	fe469ce3          	bne	a3,tp,8000a8a8 <i_10425>

000000008000a8b4 <i_10427>:
    8000a8b4:	e3411923          	sh	s4,-462(sp)

000000008000a8b8 <i_10428>:
    8000a8b8:	00178793          	addi	a5,a5,1 # ffffffffa2a94001 <_end+0xffffffff22a83bed>
    8000a8bc:	fdb79ee3          	bne	a5,s11,8000a898 <i_10421>

000000008000a8c0 <i_10429>:
    8000a8c0:	032981b3          	mul	gp,s3,s2

000000008000a8c4 <i_10430>:
    8000a8c4:	0339ccb3          	div	s9,s3,s3

000000008000a8c8 <i_10431>:
    8000a8c8:	0f810983          	lb	s3,248(sp)

000000008000a8cc <i_10432>:
    8000a8cc:	05013183          	ld	gp,80(sp)

000000008000a8d0 <i_10433>:
    8000a8d0:	019ca9b3          	slt	s3,s9,s9

000000008000a8d4 <i_10434>:
    8000a8d4:	02416203          	lwu	tp,36(sp)

000000008000a8d8 <i_10435>:
    8000a8d8:	04313823          	sd	gp,80(sp)

000000008000a8dc <i_10436>:
    8000a8dc:	10011983          	lh	s3,256(sp)

000000008000a8e0 <i_10437>:
    8000a8e0:	4013d493          	srai	s1,t2,0x1

000000008000a8e4 <i_10438>:
    8000a8e4:	0f310623          	sb	s3,236(sp)

000000008000a8e8 <i_10439>:
    8000a8e8:	013c8663          	beq	s9,s3,8000a8f4 <i_10442>

000000008000a8ec <i_10440>:
    8000a8ec:	02348cbb          	mulw	s9,s1,gp

000000008000a8f0 <i_10441>:
    8000a8f0:	8b070237          	lui	tp,0x8b070

000000008000a8f4 <i_10442>:
    8000a8f4:	00348463          	beq	s1,gp,8000a8fc <i_10444>

000000008000a8f8 <i_10443>:
    8000a8f8:	00848863          	beq	s1,s0,8000a908 <i_10447>

000000008000a8fc <i_10444>:
    8000a8fc:	fd813403          	ld	s0,-40(sp)

000000008000a900 <i_10445>:
    8000a900:	00514683          	lbu	a3,5(sp)

000000008000a904 <i_10446>:
    8000a904:	0e415683          	lhu	a3,228(sp)

000000008000a908 <i_10447>:
    8000a908:	e8813823          	sd	s0,-368(sp)

000000008000a90c <i_10448>:
    8000a90c:	00426a63          	bltu	tp,tp,8000a920 <i_10453>

000000008000a910 <i_10449>:
    8000a910:	00d47263          	bleu	a3,s0,8000a914 <i_10450>

000000008000a914 <i_10450>:
    8000a914:	0246c063          	blt	a3,tp,8000a934 <i_10458>

000000008000a918 <i_10451>:
    8000a918:	0246d233          	divu	tp,a3,tp

000000008000a91c <i_10452>:
    8000a91c:	00dc1463          	bne	s8,a3,8000a924 <i_10454>

000000008000a920 <i_10453>:
    8000a920:	027407bb          	mulw	a5,s0,t2

000000008000a924 <i_10454>:
    8000a924:	0287e7bb          	remw	a5,a5,s0

000000008000a928 <i_10455>:
    8000a928:	e2f10823          	sb	a5,-464(sp)

000000008000a92c <i_10456>:
    8000a92c:	06d13c23          	sd	a3,120(sp)

000000008000a930 <i_10457>:
    8000a930:	02411203          	lh	tp,36(sp)

000000008000a934 <i_10458>:
    8000a934:	1c812083          	lw	ra,456(sp)

000000008000a938 <i_10459>:
    8000a938:	00310783          	lb	a5,3(sp)

000000008000a93c <i_10460>:
    8000a93c:	00f7fa63          	bleu	a5,a5,8000a950 <i_10465>

000000008000a940 <i_10461>:
    8000a940:	0ef10123          	sb	a5,226(sp)

000000008000a944 <i_10462>:
    8000a944:	01d65a63          	ble	t4,a2,8000a958 <i_10467>

000000008000a948 <i_10463>:
    8000a948:	ff813083          	ld	ra,-8(sp)

000000008000a94c <i_10464>:
    8000a94c:	00f09463          	bne	ra,a5,8000a954 <i_10466>

000000008000a950 <i_10465>:
    8000a950:	410787bb          	subw	a5,a5,a6

000000008000a954 <i_10466>:
    8000a954:	ee514503          	lbu	a0,-283(sp)

000000008000a958 <i_10467>:
    8000a958:	0060ce63          	blt	ra,t1,8000a974 <i_10474>

000000008000a95c <i_10468>:
    8000a95c:	f7c10603          	lb	a2,-132(sp)

000000008000a960 <i_10469>:
    8000a960:	02f12e23          	sw	a5,60(sp)

000000008000a964 <i_10470>:
    8000a964:	05210d83          	lb	s11,82(sp)

000000008000a968 <i_10471>:
    8000a968:	14f13423          	sd	a5,328(sp)

000000008000a96c <i_10472>:
    8000a96c:	01bde7b3          	or	a5,s11,s11

000000008000a970 <i_10473>:
    8000a970:	00c7de63          	ble	a2,a5,8000a98c <i_10480>

000000008000a974 <i_10474>:
    8000a974:	035afab3          	remu	s5,s5,s5

000000008000a978 <i_10475>:
    8000a978:	1d513423          	sd	s5,456(sp)

000000008000a97c <i_10476>:
    8000a97c:	00cac863          	blt	s5,a2,8000a98c <i_10480>

000000008000a980 <i_10477>:
    8000a980:	fcc12b83          	lw	s7,-52(sp)

000000008000a984 <i_10478>:
    8000a984:	13016083          	lwu	ra,304(sp)

000000008000a988 <i_10479>:
    8000a988:	ff210603          	lb	a2,-14(sp)

000000008000a98c <i_10480>:
    8000a98c:	00000013          	nop

000000008000a990 <i_10481>:
    8000a990:	00000013          	nop

000000008000a994 <i_10482>:
    8000a994:	81000593          	li	a1,-2032

000000008000a998 <i_10483>:
    8000a998:	81a00793          	li	a5,-2022

000000008000a99c <i_10484>:
    8000a99c:	f2210083          	lb	ra,-222(sp)

000000008000a9a0 <i_10485>:
    8000a9a0:	00158593          	addi	a1,a1,1
    8000a9a4:	fef59ce3          	bne	a1,a5,8000a99c <i_10484>

000000008000a9a8 <i_10486>:
    8000a9a8:	00f780b3          	add	ra,a5,a5

000000008000a9ac <i_10487>:
    8000a9ac:	0ef11123          	sh	a5,226(sp)

000000008000a9b0 <i_10488>:
    8000a9b0:	86000593          	li	a1,-1952

000000008000a9b4 <i_10489>:
    8000a9b4:	86300793          	li	a5,-1949

000000008000a9b8 <i_10490>:
    8000a9b8:	18412e03          	lw	t3,388(sp)

000000008000a9bc <i_10491>:
    8000a9bc:	00158593          	addi	a1,a1,1
    8000a9c0:	fef5cce3          	blt	a1,a5,8000a9b8 <i_10490>

000000008000a9c4 <i_10492>:
    8000a9c4:	07813d03          	ld	s10,120(sp)

000000008000a9c8 <i_10493>:
    8000a9c8:	e9011603          	lh	a2,-368(sp)

000000008000a9cc <i_10494>:
    8000a9cc:	03a1c063          	blt	gp,s10,8000a9ec <i_10502>

000000008000a9d0 <i_10495>:
    8000a9d0:	4ef0c613          	xori	a2,ra,1263

000000008000a9d4 <i_10496>:
    8000a9d4:	fe013c03          	ld	s8,-32(sp)

000000008000a9d8 <i_10497>:
    8000a9d8:	03bc7263          	bleu	s11,s8,8000a9fc <i_10506>

000000008000a9dc <i_10498>:
    8000a9dc:	001c1593          	slli	a1,s8,0x1

000000008000a9e0 <i_10499>:
    8000a9e0:	01500d13          	li	s10,21

000000008000a9e4 <i_10500>:
    8000a9e4:	01a0dcbb          	srlw	s9,ra,s10

000000008000a9e8 <i_10501>:
    8000a9e8:	fb510783          	lb	a5,-75(sp)

000000008000a9ec <i_10502>:
    8000a9ec:	f3a14c03          	lbu	s8,-198(sp)

000000008000a9f0 <i_10503>:
    8000a9f0:	00000013          	nop

000000008000a9f4 <i_10504>:
    8000a9f4:	01dd8eb3          	add	t4,s11,t4

000000008000a9f8 <i_10505>:
    8000a9f8:	1c816c03          	lwu	s8,456(sp)

000000008000a9fc <i_10506>:
    8000a9fc:	00000013          	nop

000000008000aa00 <i_10507>:
    8000aa00:	00a00a13          	li	s4,10

000000008000aa04 <i_10508>:
    8000aa04:	0145d2bb          	srlw	t0,a1,s4

000000008000aa08 <i_10509>:
    8000aa08:	83800593          	li	a1,-1992

000000008000aa0c <i_10510>:
    8000aa0c:	84b00d93          	li	s11,-1973

000000008000aa10 <i_10511>:
    8000aa10:	194105a3          	sb	s4,395(sp)

000000008000aa14 <i_10512>:
    8000aa14:	fde11e03          	lh	t3,-34(sp)

000000008000aa18 <i_10513>:
    8000aa18:	4043531b          	sraiw	t1,t1,0x4

000000008000aa1c <i_10514>:
    8000aa1c:	f7013303          	ld	t1,-144(sp)

000000008000aa20 <i_10515>:
    8000aa20:	00000013          	nop

000000008000aa24 <i_10516>:
    8000aa24:	002e1513          	slli	a0,t3,0x2

000000008000aa28 <i_10517>:
    8000aa28:	0c813a83          	ld	s5,200(sp)

000000008000aa2c <i_10518>:
    8000aa2c:	0266a7b3          	mulhsu	a5,a3,t1

000000008000aa30 <i_10519>:
    8000aa30:	00158593          	addi	a1,a1,1
    8000aa34:	fcbd9ce3          	bne	s11,a1,8000aa0c <i_10510>

000000008000aa38 <i_10520>:
    8000aa38:	00679463          	bne	a5,t1,8000aa40 <i_10522>

000000008000aa3c <i_10521>:
    8000aa3c:	015a8333          	add	t1,s5,s5

000000008000aa40 <i_10522>:
    8000aa40:	006371b3          	and	gp,t1,t1

000000008000aa44 <i_10523>:
    8000aa44:	00000013          	nop

000000008000aa48 <i_10524>:
    8000aa48:	02800193          	li	gp,40

000000008000aa4c <i_10525>:
    8000aa4c:	003cd9b3          	srl	s3,s9,gp

000000008000aa50 <i_10526>:
    8000aa50:	87100c93          	li	s9,-1935

000000008000aa54 <i_10527>:
    8000aa54:	87300313          	li	t1,-1933

000000008000aa58 <i_10528>:
    8000aa58:	402e5b9b          	sraiw	s7,t3,0x2

000000008000aa5c <i_10529>:
    8000aa5c:	4039863b          	subw	a2,s3,gp

000000008000aa60 <i_10530>:
    8000aa60:	02c679b3          	remu	s3,a2,a2

000000008000aa64 <i_10531>:
    8000aa64:	00000013          	nop

000000008000aa68 <i_10532>:
    8000aa68:	01360c63          	beq	a2,s3,8000aa80 <i_10538>

000000008000aa6c <i_10533>:
    8000aa6c:	00421213          	slli	tp,tp,0x4

000000008000aa70 <i_10534>:
    8000aa70:	00000013          	nop

000000008000aa74 <i_10535>:
    8000aa74:	00225993          	srli	s3,tp,0x2

000000008000aa78 <i_10536>:
    8000aa78:	f8a14e03          	lbu	t3,-118(sp)

000000008000aa7c <i_10537>:
    8000aa7c:	01322ab3          	slt	s5,tp,s3

000000008000aa80 <i_10538>:
    8000aa80:	16415083          	lhu	ra,356(sp)

000000008000aa84 <i_10539>:
    8000aa84:	00000013          	nop

000000008000aa88 <i_10540>:
    8000aa88:	03c9c9bb          	divw	s3,s3,t3

000000008000aa8c <i_10541>:
    8000aa8c:	001c8c93          	addi	s9,s9,1 # 1045323d <main-0x6fbacdc3>
    8000aa90:	fd9372e3          	bleu	s9,t1,8000aa54 <i_10527>

000000008000aa94 <i_10542>:
    8000aa94:	01500313          	li	t1,21

000000008000aa98 <i_10543>:
    8000aa98:	006393bb          	sllw	t2,t2,t1

000000008000aa9c <i_10544>:
    8000aa9c:	0153ca63          	blt	t2,s5,8000aab0 <i_10549>

000000008000aaa0 <i_10545>:
    8000aaa0:	0d412503          	lw	a0,212(sp)

000000008000aaa4 <i_10546>:
    8000aaa4:	fc611e23          	sh	t1,-36(sp)

000000008000aaa8 <i_10547>:
    8000aaa8:	1bc11a23          	sh	t3,436(sp)

000000008000aaac <i_10548>:
    8000aaac:	1b311023          	sh	s3,416(sp)

000000008000aab0 <i_10549>:
    8000aab0:	03f0e063          	bltu	ra,t6,8000aad0 <i_10557>

000000008000aab4 <i_10550>:
    8000aab4:	01550663          	beq	a0,s5,8000aac0 <i_10553>

000000008000aab8 <i_10551>:
    8000aab8:	05211303          	lh	t1,82(sp)

000000008000aabc <i_10552>:
    8000aabc:	00e273b3          	and	t2,tp,a4

000000008000aac0 <i_10553>:
    8000aac0:	ed013383          	ld	t2,-304(sp)

000000008000aac4 <i_10554>:
    8000aac4:	00000013          	nop

000000008000aac8 <i_10555>:
    8000aac8:	0213ea3b          	remw	s4,t2,ra

000000008000aacc <i_10556>:
    8000aacc:	0033d613          	srli	a2,t2,0x3

000000008000aad0 <i_10557>:
    8000aad0:	f7415383          	lhu	t2,-140(sp)

000000008000aad4 <i_10558>:
    8000aad4:	0cc12a23          	sw	a2,212(sp)

000000008000aad8 <i_10559>:
    8000aad8:	7d300993          	li	s3,2003

000000008000aadc <i_10560>:
    8000aadc:	7d900313          	li	t1,2009

000000008000aae0 <i_10561>:
    8000aae0:	e8a15c03          	lhu	s8,-374(sp)

000000008000aae4 <i_10562>:
    8000aae4:	00cc3633          	sltu	a2,s8,a2

000000008000aae8 <i_10563>:
    8000aae8:	034a0a3b          	mulw	s4,s4,s4

000000008000aaec <i_10564>:
    8000aaec:	12a14a83          	lbu	s5,298(sp)

000000008000aaf0 <i_10565>:
    8000aaf0:	1d812823          	sw	s8,464(sp)

000000008000aaf4 <i_10566>:
    8000aaf4:	f3c15803          	lhu	a6,-196(sp)

000000008000aaf8 <i_10567>:
    8000aaf8:	00198993          	addi	s3,s3,1
    8000aafc:	fe69c2e3          	blt	s3,t1,8000aae0 <i_10561>

000000008000ab00 <i_10568>:
    8000ab00:	00000013          	nop

000000008000ab04 <i_10569>:
    8000ab04:	05513023          	sd	s5,64(sp)

000000008000ab08 <i_10570>:
    8000ab08:	002c5c9b          	srliw	s9,s8,0x2

000000008000ab0c <i_10571>:
    8000ab0c:	03966633          	rem	a2,a2,s9

000000008000ab10 <i_10572>:
    8000ab10:	f1416583          	lwu	a1,-236(sp)

000000008000ab14 <i_10573>:
    8000ab14:	e7513023          	sd	s5,-416(sp)

000000008000ab18 <i_10574>:
    8000ab18:	00c66663          	bltu	a2,a2,8000ab24 <i_10577>

000000008000ab1c <i_10575>:
    8000ab1c:	03860263          	beq	a2,s8,8000ab40 <i_10584>

000000008000ab20 <i_10576>:
    8000ab20:	14c12423          	sw	a2,328(sp)

000000008000ab24 <i_10577>:
    8000ab24:	002cdc9b          	srliw	s9,s9,0x2

000000008000ab28 <i_10578>:
    8000ab28:	f0812c83          	lw	s9,-248(sp)

000000008000ab2c <i_10579>:
    8000ab2c:	01bc8a63          	beq	s9,s11,8000ab40 <i_10584>

000000008000ab30 <i_10580>:
    8000ab30:	fcb101a3          	sb	a1,-61(sp)

000000008000ab34 <i_10581>:
    8000ab34:	02b147b3          	div	a5,sp,a1

000000008000ab38 <i_10582>:
    8000ab38:	1b011423          	sh	a6,424(sp)

000000008000ab3c <i_10583>:
    8000ab3c:	eef12c23          	sw	a5,-264(sp)

000000008000ab40 <i_10584>:
    8000ab40:	00000013          	nop

000000008000ab44 <i_10585>:
    8000ab44:	00000013          	nop

000000008000ab48 <i_10586>:
    8000ab48:	74d00a93          	li	s5,1869

000000008000ab4c <i_10587>:
    8000ab4c:	75400593          	li	a1,1876

000000008000ab50 <i_10588>:
    8000ab50:	e9511323          	sh	s5,-378(sp)

000000008000ab54 <i_10589>:
    8000ab54:	00361e13          	slli	t3,a2,0x3

000000008000ab58 <i_10590>:
    8000ab58:	a0460413          	addi	s0,a2,-1532 # 1d1b8138 <main-0x62e47ec8>

000000008000ab5c <i_10591>:
    8000ab5c:	ea213c23          	sd	sp,-328(sp)

000000008000ab60 <i_10592>:
    8000ab60:	e9c16383          	lwu	t2,-356(sp)

000000008000ab64 <i_10593>:
    8000ab64:	02fae33b          	remw	t1,s5,a5

000000008000ab68 <i_10594>:
    8000ab68:	40ba8c33          	sub	s8,s5,a1

000000008000ab6c <i_10595>:
    8000ab6c:	01300413          	li	s0,19

000000008000ab70 <i_10596>:
    8000ab70:	0085923b          	sllw	tp,a1,s0

000000008000ab74 <i_10597>:
    8000ab74:	1bd14803          	lbu	a6,445(sp)

000000008000ab78 <i_10598>:
    8000ab78:	001a8a93          	addi	s5,s5,1
    8000ab7c:	fcbacae3          	blt	s5,a1,8000ab50 <i_10588>

000000008000ab80 <i_10599>:
    8000ab80:	00637533          	and	a0,t1,t1

000000008000ab84 <i_10600>:
    8000ab84:	01c15a03          	lhu	s4,28(sp)

000000008000ab88 <i_10601>:
    8000ab88:	18215303          	lhu	t1,386(sp)

000000008000ab8c <i_10602>:
    8000ab8c:	40a502bb          	subw	t0,a0,a0

000000008000ab90 <i_10603>:
    8000ab90:	0363033b          	mulw	t1,t1,s6

000000008000ab94 <i_10604>:
    8000ab94:	e6611f03          	lh	t5,-410(sp)

000000008000ab98 <i_10605>:
    8000ab98:	12012d83          	lw	s11,288(sp)

000000008000ab9c <i_10606>:
    8000ab9c:	03bf52bb          	divuw	t0,t5,s11

000000008000aba0 <i_10607>:
    8000aba0:	033989b3          	mul	s3,s3,s3

000000008000aba4 <i_10608>:
    8000aba4:	03328263          	beq	t0,s3,8000abc8 <i_10617>

000000008000aba8 <i_10609>:
    8000aba8:	02bd85bb          	mulw	a1,s11,a1

000000008000abac <i_10610>:
    8000abac:	025d8a3b          	mulw	s4,s11,t0

000000008000abb0 <i_10611>:
    8000abb0:	14811583          	lh	a1,328(sp)

000000008000abb4 <i_10612>:
    8000abb4:	e2813b83          	ld	s7,-472(sp)

000000008000abb8 <i_10613>:
    8000abb8:	00200993          	li	s3,2

000000008000abbc <i_10614>:
    8000abbc:	01341533          	sll	a0,s0,s3

000000008000abc0 <i_10615>:
    8000abc0:	0338a833          	mulhsu	a6,a7,s3

000000008000abc4 <i_10616>:
    8000abc4:	09c15183          	lhu	gp,156(sp)

000000008000abc8 <i_10617>:
    8000abc8:	e4f102a3          	sb	a5,-443(sp)

000000008000abcc <i_10618>:
    8000abcc:	01329a63          	bne	t0,s3,8000abe0 <i_10623>

000000008000abd0 <i_10619>:
    8000abd0:	00000013          	nop

000000008000abd4 <i_10620>:
    8000abd4:	04611283          	lh	t0,70(sp)

000000008000abd8 <i_10621>:
    8000abd8:	19211923          	sh	s2,402(sp)

000000008000abdc <i_10622>:
    8000abdc:	402f5613          	srai	a2,t5,0x2

000000008000abe0 <i_10623>:
    8000abe0:	f2a13823          	sd	a0,-208(sp)

000000008000abe4 <i_10624>:
    8000abe4:	00000013          	nop

000000008000abe8 <i_10625>:
    8000abe8:	76700513          	li	a0,1895

000000008000abec <i_10626>:
    8000abec:	77b00d93          	li	s11,1915

000000008000abf0 <i_10627>:
    8000abf0:	003d5213          	srli	tp,s10,0x3

000000008000abf4 <i_10628>:
    8000abf4:	10013683          	ld	a3,256(sp)

000000008000abf8 <i_10629>:
    8000abf8:	f4016983          	lwu	s3,-192(sp)

000000008000abfc <i_10630>:
    8000abfc:	e4214783          	lbu	a5,-446(sp)

000000008000ac00 <i_10631>:
    8000ac00:	11412a03          	lw	s4,276(sp)

000000008000ac04 <i_10632>:
    8000ac04:	00150513          	addi	a0,a0,1
    8000ac08:	feadd4e3          	ble	a0,s11,8000abf0 <i_10627>

000000008000ac0c <i_10633>:
    8000ac0c:	f7011b83          	lh	s7,-144(sp)

000000008000ac10 <i_10634>:
    8000ac10:	e1ce0e1b          	addiw	t3,t3,-484

000000008000ac14 <i_10635>:
    8000ac14:	e3c11923          	sh	t3,-462(sp)

000000008000ac18 <i_10636>:
    8000ac18:	003e5e9b          	srliw	t4,t3,0x3

000000008000ac1c <i_10637>:
    8000ac1c:	037bfeb3          	remu	t4,s7,s7

000000008000ac20 <i_10638>:
    8000ac20:	03200693          	li	a3,50

000000008000ac24 <i_10639>:
    8000ac24:	40dbdcb3          	sra	s9,s7,a3

000000008000ac28 <i_10640>:
    8000ac28:	0fc12303          	lw	t1,252(sp)

000000008000ac2c <i_10641>:
    8000ac2c:	17712c23          	sw	s7,376(sp)

000000008000ac30 <i_10642>:
    8000ac30:	f6013b83          	ld	s7,-160(sp)

000000008000ac34 <i_10643>:
    8000ac34:	ec615203          	lhu	tp,-314(sp)

000000008000ac38 <i_10644>:
    8000ac38:	0fd10ca3          	sb	t4,249(sp)

000000008000ac3c <i_10645>:
    8000ac3c:	f3c11b83          	lh	s7,-196(sp)

000000008000ac40 <i_10646>:
    8000ac40:	f3710b23          	sb	s7,-202(sp)

000000008000ac44 <i_10647>:
    8000ac44:	e6b104a3          	sb	a1,-407(sp)

000000008000ac48 <i_10648>:
    8000ac48:	e9015203          	lhu	tp,-368(sp)

000000008000ac4c <i_10649>:
    8000ac4c:	f3114b83          	lbu	s7,-207(sp)

000000008000ac50 <i_10650>:
    8000ac50:	f7712223          	sw	s7,-156(sp)

000000008000ac54 <i_10651>:
    8000ac54:	017bbf33          	sltu	t5,s7,s7

000000008000ac58 <i_10652>:
    8000ac58:	05e10b83          	lb	s7,94(sp)

000000008000ac5c <i_10653>:
    8000ac5c:	f8313423          	sd	gp,-120(sp)

000000008000ac60 <i_10654>:
    8000ac60:	10816d83          	lwu	s11,264(sp)

000000008000ac64 <i_10655>:
    8000ac64:	afbd7513          	andi	a0,s10,-1285

000000008000ac68 <i_10656>:
    8000ac68:	01b1ce63          	blt	gp,s11,8000ac84 <i_10663>

000000008000ac6c <i_10657>:
    8000ac6c:	187da413          	slti	s0,s11,391

000000008000ac70 <i_10658>:
    8000ac70:	11614183          	lbu	gp,278(sp)

000000008000ac74 <i_10659>:
    8000ac74:	028e9063          	bne	t4,s0,8000ac94 <i_10667>

000000008000ac78 <i_10660>:
    8000ac78:	003aec63          	bltu	s5,gp,8000ac90 <i_10666>

000000008000ac7c <i_10661>:
    8000ac7c:	c8340a93          	addi	s5,s0,-893

000000008000ac80 <i_10662>:
    8000ac80:	01e389b3          	add	s3,t2,t5

000000008000ac84 <i_10663>:
    8000ac84:	f3711d23          	sh	s7,-198(sp)

000000008000ac88 <i_10664>:
    8000ac88:	f3813283          	ld	t0,-200(sp)

000000008000ac8c <i_10665>:
    8000ac8c:	01e45e63          	ble	t5,s0,8000aca8 <i_10672>

000000008000ac90 <i_10666>:
    8000ac90:	ec310223          	sb	gp,-316(sp)

000000008000ac94 <i_10667>:
    8000ac94:	1be11e23          	sh	t5,444(sp)

000000008000ac98 <i_10668>:
    8000ac98:	f5014183          	lbu	gp,-176(sp)

000000008000ac9c <i_10669>:
    8000ac9c:	1b013c83          	ld	s9,432(sp)

000000008000aca0 <i_10670>:
    8000aca0:	02846dbb          	remw	s11,s0,s0

000000008000aca4 <i_10671>:
    8000aca4:	f8214383          	lbu	t2,-126(sp)

000000008000aca8 <i_10672>:
    8000aca8:	001fd19b          	srliw	gp,t6,0x1

000000008000acac <i_10673>:
    8000acac:	01344663          	blt	s0,s3,8000acb8 <i_10676>

000000008000acb0 <i_10674>:
    8000acb0:	019382b3          	add	t0,t2,s9

000000008000acb4 <i_10675>:
    8000acb4:	02308463          	beq	ra,gp,8000acdc <i_10685>

000000008000acb8 <i_10676>:
    8000acb8:	003dce63          	blt	s11,gp,8000acd4 <i_10683>

000000008000acbc <i_10677>:
    8000acbc:	027b31b3          	mulhu	gp,s6,t2

000000008000acc0 <i_10678>:
    8000acc0:	01bd9863          	bne	s11,s11,8000acd0 <i_10682>

000000008000acc4 <i_10679>:
    8000acc4:	00519a63          	bne	gp,t0,8000acd8 <i_10684>

000000008000acc8 <i_10680>:
    8000acc8:	0c615403          	lhu	s0,198(sp)

000000008000accc <i_10681>:
    8000accc:	0392ccb3          	div	s9,t0,s9

000000008000acd0 <i_10682>:
    8000acd0:	9091b413          	sltiu	s0,gp,-1783

000000008000acd4 <i_10683>:
    8000acd4:	00000013          	nop

000000008000acd8 <i_10684>:
    8000acd8:	00843f33          	sltu	t5,s0,s0

000000008000acdc <i_10685>:
    8000acdc:	00000013          	nop

000000008000ace0 <i_10686>:
    8000ace0:	002c1c13          	slli	s8,s8,0x2

000000008000ace4 <i_10687>:
    8000ace4:	85700e13          	li	t3,-1961

000000008000ace8 <i_10688>:
    8000ace8:	86900c93          	li	s9,-1943

000000008000acec <i_10689>:
    8000acec:	028c8063          	beq	s9,s0,8000ad0c <i_10696>

000000008000acf0 <i_10690>:
    8000acf0:	ea016403          	lwu	s0,-352(sp)

000000008000acf4 <i_10691>:
    8000acf4:	001e0e13          	addi	t3,t3,1
    8000acf8:	ff9e1ae3          	bne	t3,s9,8000acec <i_10689>

000000008000acfc <i_10692>:
    8000acfc:	038f6633          	rem	a2,t5,s8

000000008000ad00 <i_10693>:
    8000ad00:	00c16183          	lwu	gp,12(sp)

000000008000ad04 <i_10694>:
    8000ad04:	02319f33          	mulh	t5,gp,gp

000000008000ad08 <i_10695>:
    8000ad08:	00000013          	nop

000000008000ad0c <i_10696>:
    8000ad0c:	18016183          	lwu	gp,384(sp)

000000008000ad10 <i_10697>:
    8000ad10:	f1c15183          	lhu	gp,-228(sp)

000000008000ad14 <i_10698>:
    8000ad14:	74100c13          	li	s8,1857

000000008000ad18 <i_10699>:
    8000ad18:	74d00593          	li	a1,1869

000000008000ad1c <i_10700>:
    8000ad1c:	0031f463          	bleu	gp,gp,8000ad24 <i_10702>

000000008000ad20 <i_10701>:
    8000ad20:	00319e63          	bne	gp,gp,8000ad3c <i_10708>

000000008000ad24 <i_10702>:
    8000ad24:	fa313823          	sd	gp,-80(sp)

000000008000ad28 <i_10703>:
    8000ad28:	e7416f03          	lwu	t5,-396(sp)

000000008000ad2c <i_10704>:
    8000ad2c:	14012183          	lw	gp,320(sp)

000000008000ad30 <i_10705>:
    8000ad30:	00818863          	beq	gp,s0,8000ad40 <i_10709>

000000008000ad34 <i_10706>:
    8000ad34:	01700c93          	li	s9,23

000000008000ad38 <i_10707>:
    8000ad38:	01919abb          	sllw	s5,gp,s9

000000008000ad3c <i_10708>:
    8000ad3c:	004f1a9b          	slliw	s5,t5,0x4

000000008000ad40 <i_10709>:
    8000ad40:	e0313c23          	sd	gp,-488(sp)

000000008000ad44 <i_10710>:
    8000ad44:	2108fb93          	andi	s7,a7,528

000000008000ad48 <i_10711>:
    8000ad48:	001c0c13          	addi	s8,s8,1
    8000ad4c:	fd85f8e3          	bleu	s8,a1,8000ad1c <i_10700>

000000008000ad50 <i_10712>:
    8000ad50:	fb9109a3          	sb	s9,-77(sp)

000000008000ad54 <i_10713>:
    8000ad54:	0099f863          	bleu	s1,s3,8000ad64 <i_10717>

000000008000ad58 <i_10714>:
    8000ad58:	fac12a83          	lw	s5,-84(sp)

000000008000ad5c <i_10715>:
    8000ad5c:	01c45863          	ble	t3,s0,8000ad6c <i_10719>

000000008000ad60 <i_10716>:
    8000ad60:	a4827193          	andi	gp,tp,-1464

000000008000ad64 <i_10717>:
    8000ad64:	1c813f03          	ld	t5,456(sp)

000000008000ad68 <i_10718>:
    8000ad68:	02ebddbb          	divuw	s11,s7,a4

000000008000ad6c <i_10719>:
    8000ad6c:	02d00f13          	li	t5,45

000000008000ad70 <i_10720>:
    8000ad70:	41ebd1b3          	sra	gp,s7,t5

000000008000ad74 <i_10721>:
    8000ad74:	017b4e33          	xor	t3,s6,s7

000000008000ad78 <i_10722>:
    8000ad78:	0ec11683          	lh	a3,236(sp)

000000008000ad7c <i_10723>:
    8000ad7c:	00db8bb3          	add	s7,s7,a3

000000008000ad80 <i_10724>:
    8000ad80:	0c713c23          	sd	t2,216(sp)

000000008000ad84 <i_10725>:
    8000ad84:	18a11603          	lh	a2,394(sp)

000000008000ad88 <i_10726>:
    8000ad88:	e4416203          	lwu	tp,-444(sp)

000000008000ad8c <i_10727>:
    8000ad8c:	009204b3          	add	s1,tp,s1

000000008000ad90 <i_10728>:
    8000ad90:	13415b83          	lhu	s7,308(sp)

000000008000ad94 <i_10729>:
    8000ad94:	81f00a93          	li	s5,-2017

000000008000ad98 <i_10730>:
    8000ad98:	82200e13          	li	t3,-2014

000000008000ad9c <i_10731>:
    8000ad9c:	f4411d23          	sh	tp,-166(sp)

000000008000ada0 <i_10732>:
    8000ada0:	0294b4b3          	mulhu	s1,s1,s1

000000008000ada4 <i_10733>:
    8000ada4:	403484b3          	sub	s1,s1,gp

000000008000ada8 <i_10734>:
    8000ada8:	f8012203          	lw	tp,-128(sp)

000000008000adac <i_10735>:
    8000adac:	e2714603          	lbu	a2,-473(sp)

000000008000adb0 <i_10736>:
    8000adb0:	01900393          	li	t2,25

000000008000adb4 <i_10737>:
    8000adb4:	007693bb          	sllw	t2,a3,t2

000000008000adb8 <i_10738>:
    8000adb8:	16912e23          	sw	s1,380(sp)

000000008000adbc <i_10739>:
    8000adbc:	00c3c633          	xor	a2,t2,a2

000000008000adc0 <i_10740>:
    8000adc0:	00c51663          	bne	a0,a2,8000adcc <i_10743>

000000008000adc4 <i_10741>:
    8000adc4:	e3610603          	lb	a2,-458(sp)

000000008000adc8 <i_10742>:
    8000adc8:	1ab10603          	lb	a2,427(sp)

000000008000adcc <i_10743>:
    8000adcc:	00361e93          	slli	t4,a2,0x3

000000008000add0 <i_10744>:
    8000add0:	00c4f4b3          	and	s1,s1,a2

000000008000add4 <i_10745>:
    8000add4:	001a8a93          	addi	s5,s5,1
    8000add8:	fd5e72e3          	bleu	s5,t3,8000ad9c <i_10731>

000000008000addc <i_10746>:
    8000addc:	01300493          	li	s1,19

000000008000ade0 <i_10747>:
    8000ade0:	0092123b          	sllw	tp,tp,s1

000000008000ade4 <i_10748>:
    8000ade4:	6d44a213          	slti	tp,s1,1748

000000008000ade8 <i_10749>:
    8000ade8:	e6816583          	lwu	a1,-408(sp)

000000008000adec <i_10750>:
    8000adec:	01c15e83          	lhu	t4,28(sp)

000000008000adf0 <i_10751>:
    8000adf0:	02412e23          	sw	tp,60(sp)

000000008000adf4 <i_10752>:
    8000adf4:	01b4fa63          	bleu	s11,s1,8000ae08 <i_10757>

000000008000adf8 <i_10753>:
    8000adf8:	12812e83          	lw	t4,296(sp)

000000008000adfc <i_10754>:
    8000adfc:	e5811183          	lh	gp,-424(sp)

000000008000ae00 <i_10755>:
    8000ae00:	0022121b          	slliw	tp,tp,0x2

000000008000ae04 <i_10756>:
    8000ae04:	e2415403          	lhu	s0,-476(sp)

000000008000ae08 <i_10757>:
    8000ae08:	18f14203          	lbu	tp,399(sp)

000000008000ae0c <i_10758>:
    8000ae0c:	e2c12c03          	lw	s8,-468(sp)

000000008000ae10 <i_10759>:
    8000ae10:	88e00493          	li	s1,-1906

000000008000ae14 <i_10760>:
    8000ae14:	89900193          	li	gp,-1895

000000008000ae18 <i_10761>:
    8000ae18:	40325293          	srai	t0,tp,0x3

000000008000ae1c <i_10762>:
    8000ae1c:	038202bb          	mulw	t0,tp,s8

000000008000ae20 <i_10763>:
    8000ae20:	002c1393          	slli	t2,s8,0x2

000000008000ae24 <i_10764>:
    8000ae24:	02bd55b3          	divu	a1,s10,a1

000000008000ae28 <i_10765>:
    8000ae28:	0045f533          	and	a0,a1,tp

000000008000ae2c <i_10766>:
    8000ae2c:	00148493          	addi	s1,s1,1
    8000ae30:	fe91f4e3          	bleu	s1,gp,8000ae18 <i_10761>

000000008000ae34 <i_10767>:
    8000ae34:	e9012a03          	lw	s4,-368(sp)

000000008000ae38 <i_10768>:
    8000ae38:	034b52b3          	divu	t0,s6,s4

000000008000ae3c <i_10769>:
    8000ae3c:	0243d53b          	divuw	a0,t2,tp

000000008000ae40 <i_10770>:
    8000ae40:	024262b3          	rem	t0,tp,tp

000000008000ae44 <i_10771>:
    8000ae44:	407487bb          	subw	a5,s1,t2

000000008000ae48 <i_10772>:
    8000ae48:	0294f4b3          	remu	s1,s1,s1

000000008000ae4c <i_10773>:
    8000ae4c:	11011283          	lh	t0,272(sp)

000000008000ae50 <i_10774>:
    8000ae50:	00f2fa63          	bleu	a5,t0,8000ae64 <i_10779>

000000008000ae54 <i_10775>:
    8000ae54:	0019149b          	slliw	s1,s2,0x1

000000008000ae58 <i_10776>:
    8000ae58:	e5014283          	lbu	t0,-432(sp)

000000008000ae5c <i_10777>:
    8000ae5c:	00900c93          	li	s9,9

000000008000ae60 <i_10778>:
    8000ae60:	419953bb          	sraw	t2,s2,s9

000000008000ae64 <i_10779>:
    8000ae64:	01a00993          	li	s3,26

000000008000ae68 <i_10780>:
    8000ae68:	013c92bb          	sllw	t0,s9,s3

000000008000ae6c <i_10781>:
    8000ae6c:	86e00d13          	li	s10,-1938

000000008000ae70 <i_10782>:
    8000ae70:	88000493          	li	s1,-1920

000000008000ae74 <i_10783>:
    8000ae74:	001d599b          	srliw	s3,s10,0x1

000000008000ae78 <i_10784>:
    8000ae78:	1ba13823          	sd	s10,432(sp)

000000008000ae7c <i_10785>:
    8000ae7c:	03912623          	sw	s9,44(sp)

000000008000ae80 <i_10786>:
    8000ae80:	01a9ce63          	blt	s3,s10,8000ae9c <i_10792>

000000008000ae84 <i_10787>:
    8000ae84:	001d0d13          	addi	s10,s10,1 # fc37fa1 <main-0x703c805f>
    8000ae88:	ffa4d6e3          	ble	s10,s1,8000ae74 <i_10783>

000000008000ae8c <i_10788>:
    8000ae8c:	00000013          	nop

000000008000ae90 <i_10789>:
    8000ae90:	03ec83bb          	mulw	t2,s9,t5

000000008000ae94 <i_10790>:
    8000ae94:	03a5c4bb          	divw	s1,a1,s10

000000008000ae98 <i_10791>:
    8000ae98:	00000013          	nop

000000008000ae9c <i_10792>:
    8000ae9c:	00000013          	nop

000000008000aea0 <i_10793>:
    8000aea0:	00000013          	nop

000000008000aea4 <i_10794>:
    8000aea4:	78700d13          	li	s10,1927

000000008000aea8 <i_10795>:
    8000aea8:	79b00493          	li	s1,1947

000000008000aeac <i_10796>:
    8000aeac:	0253f3b3          	remu	t2,t2,t0

000000008000aeb0 <i_10797>:
    8000aeb0:	fce11283          	lh	t0,-50(sp)

000000008000aeb4 <i_10798>:
    8000aeb4:	ec913c23          	sd	s1,-296(sp)

000000008000aeb8 <i_10799>:
    8000aeb8:	e7812383          	lw	t2,-392(sp)

000000008000aebc <i_10800>:
    8000aebc:	ba0b7593          	andi	a1,s6,-1120

000000008000aec0 <i_10801>:
    8000aec0:	e4b11923          	sh	a1,-430(sp)

000000008000aec4 <i_10802>:
    8000aec4:	0285d5bb          	divuw	a1,a1,s0

000000008000aec8 <i_10803>:
    8000aec8:	01000593          	li	a1,16

000000008000aecc <i_10804>:
    8000aecc:	40b5d0bb          	sraw	ra,a1,a1

000000008000aed0 <i_10805>:
    8000aed0:	00000013          	nop

000000008000aed4 <i_10806>:
    8000aed4:	037cdcb3          	divu	s9,s9,s7

000000008000aed8 <i_10807>:
    8000aed8:	03b0ddbb          	divuw	s11,ra,s11

000000008000aedc <i_10808>:
    8000aedc:	001d0d13          	addi	s10,s10,1
    8000aee0:	fc9d46e3          	blt	s10,s1,8000aeac <i_10796>

000000008000aee4 <i_10809>:
    8000aee4:	039cabb3          	mulhsu	s7,s9,s9

000000008000aee8 <i_10810>:
    8000aee8:	12415d83          	lhu	s11,292(sp)

000000008000aeec <i_10811>:
    8000aeec:	017cacb3          	slt	s9,s9,s7

000000008000aef0 <i_10812>:
    8000aef0:	e4012303          	lw	t1,-448(sp)

000000008000aef4 <i_10813>:
    8000aef4:	006c9e63          	bne	s9,t1,8000af10 <i_10820>

000000008000aef8 <i_10814>:
    8000aef8:	02c8f463          	bleu	a2,a7,8000af20 <i_10824>

000000008000aefc <i_10815>:
    8000aefc:	4069863b          	subw	a2,s3,t1

000000008000af00 <i_10816>:
    8000af00:	1ce11c83          	lh	s9,462(sp)

000000008000af04 <i_10817>:
    8000af04:	417b8b33          	sub	s6,s7,s7

000000008000af08 <i_10818>:
    8000af08:	16411303          	lh	t1,356(sp)

000000008000af0c <i_10819>:
    8000af0c:	01c15c83          	lhu	s9,28(sp)

000000008000af10 <i_10820>:
    8000af10:	f3613c23          	sd	s6,-200(sp)

000000008000af14 <i_10821>:
    8000af14:	0cf14183          	lbu	gp,207(sp)

000000008000af18 <i_10822>:
    8000af18:	036cde3b          	divuw	t3,s9,s6

000000008000af1c <i_10823>:
    8000af1c:	00000013          	nop

000000008000af20 <i_10824>:
    8000af20:	00000013          	nop

000000008000af24 <i_10825>:
    8000af24:	10c12303          	lw	t1,268(sp)

000000008000af28 <i_10826>:
    8000af28:	85d00d93          	li	s11,-1955

000000008000af2c <i_10827>:
    8000af2c:	87100b93          	li	s7,-1935

000000008000af30 <i_10828>:
    8000af30:	00000013          	nop

000000008000af34 <i_10829>:
    8000af34:	40335b13          	srai	s6,t1,0x3

000000008000af38 <i_10830>:
    8000af38:	001d8d93          	addi	s11,s11,1 # ffffffffc17a1001 <_end+0xffffffff41790bed>
    8000af3c:	ff7dcae3          	blt	s11,s7,8000af30 <i_10828>

000000008000af40 <i_10831>:
    8000af40:	15c12803          	lw	a6,348(sp)

000000008000af44 <i_10832>:
    8000af44:	f7013023          	sd	a6,-160(sp)

000000008000af48 <i_10833>:
    8000af48:	00241413          	slli	s0,s0,0x2

000000008000af4c <i_10834>:
    8000af4c:	8c600313          	li	t1,-1850

000000008000af50 <i_10835>:
    8000af50:	8d600e13          	li	t3,-1834

000000008000af54 <i_10836>:
    8000af54:	00130313          	addi	t1,t1,1
    8000af58:	ffc34ee3          	blt	t1,t3,8000af54 <i_10836>

000000008000af5c <i_10837>:
    8000af5c:	02665333          	divu	t1,a2,t1

000000008000af60 <i_10838>:
    8000af60:	01c8c463          	blt	a7,t3,8000af68 <i_10840>

000000008000af64 <i_10839>:
    8000af64:	00241e13          	slli	t3,s0,0x2

000000008000af68 <i_10840>:
    8000af68:	02634463          	blt	t1,t1,8000af90 <i_10850>

000000008000af6c <i_10841>:
    8000af6c:	0178e333          	or	t1,a7,s7

000000008000af70 <i_10842>:
    8000af70:	0c015a03          	lhu	s4,192(sp)

000000008000af74 <i_10843>:
    8000af74:	01445c63          	ble	s4,s0,8000af8c <i_10849>

000000008000af78 <i_10844>:
    8000af78:	02645d33          	divu	s10,s0,t1

000000008000af7c <i_10845>:
    8000af7c:	03816303          	lwu	t1,56(sp)

000000008000af80 <i_10846>:
    8000af80:	00000013          	nop

000000008000af84 <i_10847>:
    8000af84:	034b7d33          	remu	s10,s6,s4

000000008000af88 <i_10848>:
    8000af88:	00000013          	nop

000000008000af8c <i_10849>:
    8000af8c:	17014383          	lbu	t2,368(sp)

000000008000af90 <i_10850>:
    8000af90:	00000013          	nop

000000008000af94 <i_10851>:
    8000af94:	0050f9b3          	and	s3,ra,t0

000000008000af98 <i_10852>:
    8000af98:	76900a13          	li	s4,1897

000000008000af9c <i_10853>:
    8000af9c:	77400c13          	li	s8,1908

000000008000afa0 <i_10854>:
    8000afa0:	f5510983          	lb	s3,-171(sp)

000000008000afa4 <i_10855>:
    8000afa4:	e5a13823          	sd	s10,-432(sp)

000000008000afa8 <i_10856>:
    8000afa8:	7d400d13          	li	s10,2004

000000008000afac <i_10857>:
    8000afac:	7e200093          	li	ra,2018

000000008000afb0 <i_10858>:
    8000afb0:	4043d29b          	sraiw	t0,t2,0x4

000000008000afb4 <i_10859>:
    8000afb4:	001d0d13          	addi	s10,s10,1
    8000afb8:	fe1d6ce3          	bltu	s10,ra,8000afb0 <i_10858>

000000008000afbc <i_10860>:
    8000afbc:	f7914783          	lbu	a5,-135(sp)

000000008000afc0 <i_10861>:
    8000afc0:	f6713423          	sd	t2,-152(sp)

000000008000afc4 <i_10862>:
    8000afc4:	02538063          	beq	t2,t0,8000afe4 <i_10869>

000000008000afc8 <i_10863>:
    8000afc8:	0e813d03          	ld	s10,232(sp)

000000008000afcc <i_10864>:
    8000afcc:	0253c2b3          	div	t0,t2,t0

000000008000afd0 <i_10865>:
    8000afd0:	001a0a13          	addi	s4,s4,1 # ffffffffc88a8001 <_end+0xffffffff48897bed>
    8000afd4:	fd8a46e3          	blt	s4,s8,8000afa0 <i_10854>

000000008000afd8 <i_10866>:
    8000afd8:	11615d83          	lhu	s11,278(sp)

000000008000afdc <i_10867>:
    8000afdc:	01600313          	li	t1,22

000000008000afe0 <i_10868>:
    8000afe0:	006999b3          	sll	s3,s3,t1

000000008000afe4 <i_10869>:
    8000afe4:	03b30463          	beq	t1,s11,8000b00c <i_10879>

000000008000afe8 <i_10870>:
    8000afe8:	00e31863          	bne	t1,a4,8000aff8 <i_10874>

000000008000afec <i_10871>:
    8000afec:	03366063          	bltu	a2,s3,8000b00c <i_10879>

000000008000aff0 <i_10872>:
    8000aff0:	03398263          	beq	s3,s3,8000b014 <i_10881>

000000008000aff4 <i_10873>:
    8000aff4:	fa612823          	sw	t1,-80(sp)

000000008000aff8 <i_10874>:
    8000aff8:	16114583          	lbu	a1,353(sp)

000000008000affc <i_10875>:
    8000affc:	1e015e83          	lhu	t4,480(sp)

000000008000b000 <i_10876>:
    8000b000:	03335063          	ble	s3,t1,8000b020 <i_10884>

000000008000b004 <i_10877>:
    8000b004:	00be85b3          	add	a1,t4,a1

000000008000b008 <i_10878>:
    8000b008:	00b6e863          	bltu	a3,a1,8000b018 <i_10882>

000000008000b00c <i_10879>:
    8000b00c:	fab11e23          	sh	a1,-68(sp)

000000008000b010 <i_10880>:
    8000b010:	40495213          	srai	tp,s2,0x4

000000008000b014 <i_10881>:
    8000b014:	00b0a0b3          	slt	ra,ra,a1

000000008000b018 <i_10882>:
    8000b018:	03400f13          	li	t5,52

000000008000b01c <i_10883>:
    8000b01c:	01e5d5b3          	srl	a1,a1,t5

000000008000b020 <i_10884>:
    8000b020:	16a22693          	slti	a3,tp,362

000000008000b024 <i_10885>:
    8000b024:	01e69e63          	bne	a3,t5,8000b040 <i_10892>

000000008000b028 <i_10886>:
    8000b028:	010b7b33          	and	s6,s6,a6

000000008000b02c <i_10887>:
    8000b02c:	02be9063          	bne	t4,a1,8000b04c <i_10895>

000000008000b030 <i_10888>:
    8000b030:	02900793          	li	a5,41

000000008000b034 <i_10889>:
    8000b034:	40fedeb3          	sra	t4,t4,a5

000000008000b038 <i_10890>:
    8000b038:	01400693          	li	a3,20

000000008000b03c <i_10891>:
    8000b03c:	00de953b          	sllw	a0,t4,a3

000000008000b040 <i_10892>:
    8000b040:	e8a108a3          	sb	a0,-367(sp)

000000008000b044 <i_10893>:
    8000b044:	0128e863          	bltu	a7,s2,8000b054 <i_10897>

000000008000b048 <i_10894>:
    8000b048:	00414233          	xor	tp,sp,tp

000000008000b04c <i_10895>:
    8000b04c:	02c00e93          	li	t4,44

000000008000b050 <i_10896>:
    8000b050:	41d55233          	sra	tp,a0,t4

000000008000b054 <i_10897>:
    8000b054:	02013683          	ld	a3,32(sp)

000000008000b058 <i_10898>:
    8000b058:	00100b13          	li	s6,1

000000008000b05c <i_10899>:
    8000b05c:	0169123b          	sllw	tp,s2,s6

000000008000b060 <i_10900>:
    8000b060:	81700c93          	li	s9,-2025

000000008000b064 <i_10901>:
    8000b064:	82700393          	li	t2,-2009

000000008000b068 <i_10902>:
    8000b068:	f1f10d03          	lb	s10,-225(sp)

000000008000b06c <i_10903>:
    8000b06c:	4037db93          	srai	s7,a5,0x3

000000008000b070 <i_10904>:
    8000b070:	f8710723          	sb	t2,-114(sp)

000000008000b074 <i_10905>:
    8000b074:	fc411a23          	sh	tp,-44(sp)

000000008000b078 <i_10906>:
    8000b078:	417d05bb          	subw	a1,s10,s7

000000008000b07c <i_10907>:
    8000b07c:	eea10d03          	lb	s10,-278(sp)

000000008000b080 <i_10908>:
    8000b080:	001c8c93          	addi	s9,s9,1
    8000b084:	ff93f0e3          	bleu	s9,t2,8000b064 <i_10901>

000000008000b088 <i_10909>:
    8000b088:	12b11d23          	sh	a1,314(sp)

000000008000b08c <i_10910>:
    8000b08c:	037bc5b3          	div	a1,s7,s7

000000008000b090 <i_10911>:
    8000b090:	00b5d463          	ble	a1,a1,8000b098 <i_10913>

000000008000b094 <i_10912>:
    8000b094:	19412b83          	lw	s7,404(sp)

000000008000b098 <i_10913>:
    8000b098:	f4013b83          	ld	s7,-192(sp)

000000008000b09c <i_10914>:
    8000b09c:	ef710123          	sb	s7,-286(sp)

000000008000b0a0 <i_10915>:
    8000b0a0:	02bf0f3b          	mulw	t5,t5,a1

000000008000b0a4 <i_10916>:
    8000b0a4:	037b83b3          	mul	t2,s7,s7

000000008000b0a8 <i_10917>:
    8000b0a8:	f6c11583          	lh	a1,-148(sp)

000000008000b0ac <i_10918>:
    8000b0ac:	007f1a63          	bne	t5,t2,8000b0c0 <i_10923>

000000008000b0b0 <i_10919>:
    8000b0b0:	e4412503          	lw	a0,-444(sp)

000000008000b0b4 <i_10920>:
    8000b0b4:	00bb9663          	bne	s7,a1,8000b0c0 <i_10923>

000000008000b0b8 <i_10921>:
    8000b0b8:	007b8333          	add	t1,s7,t2

000000008000b0bc <i_10922>:
    8000b0bc:	0173fa63          	bleu	s7,t2,8000b0d0 <i_10927>

000000008000b0c0 <i_10923>:
    8000b0c0:	01900293          	li	t0,25

000000008000b0c4 <i_10924>:
    8000b0c4:	0055543b          	srlw	s0,a0,t0

000000008000b0c8 <i_10925>:
    8000b0c8:	e2314383          	lbu	t2,-477(sp)

000000008000b0cc <i_10926>:
    8000b0cc:	014eea63          	bltu	t4,s4,8000b0e0 <i_10931>

000000008000b0d0 <i_10927>:
    8000b0d0:	02832433          	mulhsu	s0,t1,s0

000000008000b0d4 <i_10928>:
    8000b0d4:	fb415283          	lhu	t0,-76(sp)

000000008000b0d8 <i_10929>:
    8000b0d8:	f3713423          	sd	s7,-216(sp)

000000008000b0dc <i_10930>:
    8000b0dc:	00c16303          	lwu	t1,12(sp)

000000008000b0e0 <i_10931>:
    8000b0e0:	01747cb3          	and	s9,s0,s7

000000008000b0e4 <i_10932>:
    8000b0e4:	031ce43b          	remw	s0,s9,a7

000000008000b0e8 <i_10933>:
    8000b0e8:	1fd12023          	sw	t4,480(sp)

000000008000b0ec <i_10934>:
    8000b0ec:	7b600f13          	li	t5,1974

000000008000b0f0 <i_10935>:
    8000b0f0:	7c400813          	li	a6,1988

000000008000b0f4 <i_10936>:
    8000b0f4:	028e043b          	mulw	s0,t3,s0

000000008000b0f8 <i_10937>:
    8000b0f8:	e9610da3          	sb	s6,-357(sp)

000000008000b0fc <i_10938>:
    8000b0fc:	f7813e03          	ld	t3,-136(sp)

000000008000b100 <i_10939>:
    8000b100:	01d00793          	li	a5,29

000000008000b104 <i_10940>:
    8000b104:	00f4543b          	srlw	s0,s0,a5

000000008000b108 <i_10941>:
    8000b108:	4087853b          	subw	a0,a5,s0

000000008000b10c <i_10942>:
    8000b10c:	03540063          	beq	s0,s5,8000b12c <i_10949>

000000008000b110 <i_10943>:
    8000b110:	ee813d03          	ld	s10,-280(sp)

000000008000b114 <i_10944>:
    8000b114:	10714783          	lbu	a5,263(sp)

000000008000b118 <i_10945>:
    8000b118:	02f5763b          	remuw	a2,a0,a5

000000008000b11c <i_10946>:
    8000b11c:	001f0f13          	addi	t5,t5,1
    8000b120:	fd0f4ae3          	blt	t5,a6,8000b0f4 <i_10936>

000000008000b124 <i_10947>:
    8000b124:	02e15e03          	lhu	t3,46(sp)

000000008000b128 <i_10948>:
    8000b128:	f9c16c03          	lwu	s8,-100(sp)

000000008000b12c <i_10949>:
    8000b12c:	03cc47bb          	divw	a5,s8,t3

000000008000b130 <i_10950>:
    8000b130:	01ce6c63          	bltu	t3,t3,8000b148 <i_10956>

000000008000b134 <i_10951>:
    8000b134:	06411c83          	lh	s9,100(sp)

000000008000b138 <i_10952>:
    8000b138:	03b10e03          	lb	t3,59(sp)

000000008000b13c <i_10953>:
    8000b13c:	28c7831b          	addiw	t1,a5,652

000000008000b140 <i_10954>:
    8000b140:	01ce0663          	beq	t3,t3,8000b14c <i_10957>

000000008000b144 <i_10955>:
    8000b144:	00611e23          	sh	t1,28(sp)

000000008000b148 <i_10956>:
    8000b148:	03acf263          	bleu	s10,s9,8000b16c <i_10965>

000000008000b14c <i_10957>:
    8000b14c:	f6416e03          	lwu	t3,-156(sp)

000000008000b150 <i_10958>:
    8000b150:	1bc12303          	lw	t1,444(sp)

000000008000b154 <i_10959>:
    8000b154:	03cebeb3          	mulhu	t4,t4,t3

000000008000b158 <i_10960>:
    8000b158:	019ef263          	bleu	s9,t4,8000b15c <i_10961>

000000008000b15c <i_10961>:
    8000b15c:	07016203          	lwu	tp,112(sp)

000000008000b160 <i_10962>:
    8000b160:	00f50663          	beq	a0,a5,8000b16c <i_10965>

000000008000b164 <i_10963>:
    8000b164:	afbdfe93          	andi	t4,s11,-1285

000000008000b168 <i_10964>:
    8000b168:	00435263          	ble	tp,t1,8000b16c <i_10965>

000000008000b16c <i_10965>:
    8000b16c:	fdc12e23          	sw	t3,-36(sp)

000000008000b170 <i_10966>:
    8000b170:	039ed263          	ble	s9,t4,8000b194 <i_10975>

000000008000b174 <i_10967>:
    8000b174:	ee611323          	sh	t1,-282(sp)

000000008000b178 <i_10968>:
    8000b178:	d20e3c93          	sltiu	s9,t3,-736

000000008000b17c <i_10969>:
    8000b17c:	fdd11d23          	sh	t4,-38(sp)

000000008000b180 <i_10970>:
    8000b180:	02feecbb          	remw	s9,t4,a5

000000008000b184 <i_10971>:
    8000b184:	006686b3          	add	a3,a3,t1

000000008000b188 <i_10972>:
    8000b188:	010eb3b3          	sltu	t2,t4,a6

000000008000b18c <i_10973>:
    8000b18c:	e6e10f03          	lb	t5,-402(sp)

000000008000b190 <i_10974>:
    8000b190:	019806b3          	add	a3,a6,s9

000000008000b194 <i_10975>:
    8000b194:	e1f12e23          	sw	t6,-484(sp)

000000008000b198 <i_10976>:
    8000b198:	01e36463          	bltu	t1,t5,8000b1a0 <i_10978>

000000008000b19c <i_10977>:
    8000b19c:	0049da63          	ble	tp,s3,8000b1b0 <i_10982>

000000008000b1a0 <i_10978>:
    8000b1a0:	0046e263          	bltu	a3,tp,8000b1a4 <i_10979>

000000008000b1a4 <i_10979>:
    8000b1a4:	034f49bb          	divw	s3,t5,s4

000000008000b1a8 <i_10980>:
    8000b1a8:	40d68833          	sub	a6,a3,a3

000000008000b1ac <i_10981>:
    8000b1ac:	e2f10723          	sb	a5,-466(sp)

000000008000b1b0 <i_10982>:
    8000b1b0:	0ea15403          	lhu	s0,234(sp)

000000008000b1b4 <i_10983>:
    8000b1b4:	00a41c63          	bne	s0,a0,8000b1cc <i_10989>

000000008000b1b8 <i_10984>:
    8000b1b8:	e1d10183          	lb	gp,-483(sp)

000000008000b1bc <i_10985>:
    8000b1bc:	00911c23          	sh	s1,24(sp)

000000008000b1c0 <i_10986>:
    8000b1c0:	a70f6413          	ori	s0,t5,-1424

000000008000b1c4 <i_10987>:
    8000b1c4:	f1013383          	ld	t2,-240(sp)

000000008000b1c8 <i_10988>:
    8000b1c8:	03ad75bb          	remuw	a1,s10,s10

000000008000b1cc <i_10989>:
    8000b1cc:	07914b03          	lbu	s6,121(sp)

000000008000b1d0 <i_10990>:
    8000b1d0:	ec013d03          	ld	s10,-320(sp)

000000008000b1d4 <i_10991>:
    8000b1d4:	03a5f063          	bleu	s10,a1,8000b1f4 <i_10999>

000000008000b1d8 <i_10992>:
    8000b1d8:	fcf99d17          	auipc	s10,0xfcf99

000000008000b1dc <i_10993>:
    8000b1dc:	4087ad17          	auipc	s10,0x4087a

000000008000b1e0 <i_10994>:
    8000b1e0:	0b012583          	lw	a1,176(sp)

000000008000b1e4 <i_10995>:
    8000b1e4:	0a013d03          	ld	s10,160(sp)

000000008000b1e8 <i_10996>:
    8000b1e8:	004d1593          	slli	a1,s10,0x4

000000008000b1ec <i_10997>:
    8000b1ec:	03ad0b3b          	mulw	s6,s10,s10

000000008000b1f0 <i_10998>:
    8000b1f0:	e4c12803          	lw	a6,-436(sp)

000000008000b1f4 <i_10999>:
    8000b1f4:	02b59463          	bne	a1,a1,8000b21c <i_11009>

000000008000b1f8 <i_11000>:
    8000b1f8:	eda12c23          	sw	s10,-296(sp)

000000008000b1fc <i_11001>:
    8000b1fc:	18416583          	lwu	a1,388(sp)

000000008000b200 <i_11002>:
    8000b200:	00813583          	ld	a1,8(sp)

000000008000b204 <i_11003>:
    8000b204:	f2b12823          	sw	a1,-208(sp)

000000008000b208 <i_11004>:
    8000b208:	19612c23          	sw	s6,408(sp)

000000008000b20c <i_11005>:
    8000b20c:	eec12583          	lw	a1,-276(sp)

000000008000b210 <i_11006>:
    8000b210:	40428ebb          	subw	t4,t0,tp

000000008000b214 <i_11007>:
    8000b214:	06e11323          	sh	a4,102(sp)

000000008000b218 <i_11008>:
    8000b218:	0fd10623          	sb	t4,236(sp)

000000008000b21c <i_11009>:
    8000b21c:	02b84233          	div	tp,a6,a1

000000008000b220 <i_11010>:
    8000b220:	05d12223          	sw	t4,68(sp)

000000008000b224 <i_11011>:
    8000b224:	0101de63          	ble	a6,gp,8000b240 <i_11018>

000000008000b228 <i_11012>:
    8000b228:	0fc15e03          	lhu	t3,252(sp)

000000008000b22c <i_11013>:
    8000b22c:	1d910803          	lb	a6,473(sp)

000000008000b230 <i_11014>:
    8000b230:	1b012623          	sw	a6,428(sp)

000000008000b234 <i_11015>:
    8000b234:	03700813          	li	a6,55

000000008000b238 <i_11016>:
    8000b238:	4106dcb3          	sra	s9,a3,a6

000000008000b23c <i_11017>:
    8000b23c:	daee4313          	xori	t1,t3,-594

000000008000b240 <i_11018>:
    8000b240:	003c8c63          	beq	s9,gp,8000b258 <i_11024>

000000008000b244 <i_11019>:
    8000b244:	03316263          	bltu	sp,s3,8000b268 <i_11028>

000000008000b248 <i_11020>:
    8000b248:	00d00993          	li	s3,13

000000008000b24c <i_11021>:
    8000b24c:	41345333          	sra	t1,s0,s3

000000008000b250 <i_11022>:
    8000b250:	0139c433          	xor	s0,s3,s3

000000008000b254 <i_11023>:
    8000b254:	02698463          	beq	s3,t1,8000b27c <i_11033>

000000008000b258 <i_11024>:
    8000b258:	42347313          	andi	t1,s0,1059

000000008000b25c <i_11025>:
    8000b25c:	00135263          	ble	ra,t1,8000b260 <i_11026>

000000008000b260 <i_11026>:
    8000b260:	02634463          	blt	t1,t1,8000b288 <i_11036>

000000008000b264 <i_11027>:
    8000b264:	0266f0bb          	remuw	ra,a3,t1

000000008000b268 <i_11028>:
    8000b268:	02841463          	bne	s0,s0,8000b290 <i_11038>

000000008000b26c <i_11029>:
    8000b26c:	32eed417          	auipc	s0,0x32eed

000000008000b270 <i_11030>:
    8000b270:	00b00093          	li	ra,11

000000008000b274 <i_11031>:
    8000b274:	001edeb3          	srl	t4,t4,ra

000000008000b278 <i_11032>:
    8000b278:	01dbc863          	blt	s7,t4,8000b288 <i_11036>

000000008000b27c <i_11033>:
    8000b27c:	06813403          	ld	s0,104(sp)

000000008000b280 <i_11034>:
    8000b280:	11d10d23          	sb	t4,282(sp)

000000008000b284 <i_11035>:
    8000b284:	fd011783          	lh	a5,-48(sp)

000000008000b288 <i_11036>:
    8000b288:	00134463          	blt	t1,ra,8000b290 <i_11038>

000000008000b28c <i_11037>:
    8000b28c:	021870b3          	remu	ra,a6,ra

000000008000b290 <i_11038>:
    8000b290:	14f12023          	sw	a5,320(sp)

000000008000b294 <i_11039>:
    8000b294:	03a80833          	mul	a6,a6,s10

000000008000b298 <i_11040>:
    8000b298:	00900f13          	li	t5,9

000000008000b29c <i_11041>:
    8000b29c:	01e817bb          	sllw	a5,a6,t5

000000008000b2a0 <i_11042>:
    8000b2a0:	08113c23          	sd	ra,152(sp)

000000008000b2a4 <i_11043>:
    8000b2a4:	03e86eb3          	rem	t4,a6,t5

000000008000b2a8 <i_11044>:
    8000b2a8:	f3d11623          	sh	t4,-212(sp)

000000008000b2ac <i_11045>:
    8000b2ac:	002f7eb3          	and	t4,t5,sp

000000008000b2b0 <i_11046>:
    8000b2b0:	0217a833          	mulhsu	a6,a5,ra

000000008000b2b4 <i_11047>:
    8000b2b4:	01058463          	beq	a1,a6,8000b2bc <i_11049>

000000008000b2b8 <i_11048>:
    8000b2b8:	030f0db3          	mul	s11,t5,a6

000000008000b2bc <i_11049>:
    8000b2bc:	02f581bb          	mulw	gp,a1,a5

000000008000b2c0 <i_11050>:
    8000b2c0:	18812b03          	lw	s6,392(sp)

000000008000b2c4 <i_11051>:
    8000b2c4:	01eda333          	slt	t1,s11,t5

000000008000b2c8 <i_11052>:
    8000b2c8:	e5914a03          	lbu	s4,-423(sp)

000000008000b2cc <i_11053>:
    8000b2cc:	02737463          	bleu	t2,t1,8000b2f4 <i_11063>

000000008000b2d0 <i_11054>:
    8000b2d0:	7fdb2b13          	slti	s6,s6,2045

000000008000b2d4 <i_11055>:
    8000b2d4:	15613c23          	sd	s6,344(sp)

000000008000b2d8 <i_11056>:
    8000b2d8:	a1aa4493          	xori	s1,s4,-1510

000000008000b2dc <i_11057>:
    8000b2dc:	00d00313          	li	t1,13

000000008000b2e0 <i_11058>:
    8000b2e0:	4061d33b          	sraw	t1,gp,t1

000000008000b2e4 <i_11059>:
    8000b2e4:	1de11a23          	sh	t5,468(sp)

000000008000b2e8 <i_11060>:
    8000b2e8:	e7415483          	lhu	s1,-396(sp)

000000008000b2ec <i_11061>:
    8000b2ec:	fe911223          	sh	s1,-28(sp)

000000008000b2f0 <i_11062>:
    8000b2f0:	02016503          	lwu	a0,32(sp)

000000008000b2f4 <i_11063>:
    8000b2f4:	02c16083          	lwu	ra,44(sp)

000000008000b2f8 <i_11064>:
    8000b2f8:	f8612823          	sw	t1,-112(sp)

000000008000b2fc <i_11065>:
    8000b2fc:	9ca65097          	auipc	ra,0x9ca65

000000008000b300 <i_11066>:
    8000b300:	037efeb3          	remu	t4,t4,s7

000000008000b304 <i_11067>:
    8000b304:	72e00b93          	li	s7,1838

000000008000b308 <i_11068>:
    8000b308:	73b00513          	li	a0,1851

000000008000b30c <i_11069>:
    8000b30c:	1cc12c23          	sw	a2,472(sp)

000000008000b310 <i_11070>:
    8000b310:	f8412e03          	lw	t3,-124(sp)

000000008000b314 <i_11071>:
    8000b314:	004e161b          	slliw	a2,t3,0x4

000000008000b318 <i_11072>:
    8000b318:	00165e1b          	srliw	t3,a2,0x1

000000008000b31c <i_11073>:
    8000b31c:	4038531b          	sraiw	t1,a6,0x3

000000008000b320 <i_11074>:
    8000b320:	001b8b93          	addi	s7,s7,1
    8000b324:	ff7574e3          	bleu	s7,a0,8000b30c <i_11069>

000000008000b328 <i_11075>:
    8000b328:	01ce8e63          	beq	t4,t3,8000b344 <i_11082>

000000008000b32c <i_11076>:
    8000b32c:	03d7c7b3          	div	a5,a5,t4

000000008000b330 <i_11077>:
    8000b330:	00967e63          	bleu	s1,a2,8000b34c <i_11084>

000000008000b334 <i_11078>:
    8000b334:	f3c12823          	sw	t3,-208(sp)

000000008000b338 <i_11079>:
    8000b338:	012e4c63          	blt	t3,s2,8000b350 <i_11085>

000000008000b33c <i_11080>:
    8000b33c:	004603b3          	add	t2,a2,tp

000000008000b340 <i_11081>:
    8000b340:	e1d10fa3          	sb	t4,-481(sp)

000000008000b344 <i_11082>:
    8000b344:	40465613          	srai	a2,a2,0x4

000000008000b348 <i_11083>:
    8000b348:	ff013a03          	ld	s4,-16(sp)

000000008000b34c <i_11084>:
    8000b34c:	003ef4b3          	and	s1,t4,gp

000000008000b350 <i_11085>:
    8000b350:	04415383          	lhu	t2,68(sp)

000000008000b354 <i_11086>:
    8000b354:	0294f263          	bleu	s1,s1,8000b378 <i_11095>

000000008000b358 <i_11087>:
    8000b358:	347fe4b7          	lui	s1,0x347fe

000000008000b35c <i_11088>:
    8000b35c:	18712223          	sw	t2,388(sp)

000000008000b360 <i_11089>:
    8000b360:	ea416983          	lwu	s3,-348(sp)

000000008000b364 <i_11090>:
    8000b364:	05310a83          	lb	s5,83(sp)

000000008000b368 <i_11091>:
    8000b368:	027a8263          	beq	s5,t2,8000b38c <i_11100>

000000008000b36c <i_11092>:
    8000b36c:	02725b33          	divu	s6,tp,t2

000000008000b370 <i_11093>:
    8000b370:	e2914383          	lbu	t2,-471(sp)

000000008000b374 <i_11094>:
    8000b374:	fdc10223          	sb	t3,-60(sp)

000000008000b378 <i_11095>:
    8000b378:	fd511123          	sh	s5,-62(sp)

000000008000b37c <i_11096>:
    8000b37c:	fd015383          	lhu	t2,-48(sp)

000000008000b380 <i_11097>:
    8000b380:	0013db93          	srli	s7,t2,0x1

000000008000b384 <i_11098>:
    8000b384:	0077fc33          	and	s8,a5,t2

000000008000b388 <i_11099>:
    8000b388:	07a10183          	lb	gp,122(sp)

000000008000b38c <i_11100>:
    8000b38c:	007183b3          	add	t2,gp,t2

000000008000b390 <i_11101>:
    8000b390:	7511a193          	slti	gp,gp,1873

000000008000b394 <i_11102>:
    8000b394:	00739663          	bne	t2,t2,8000b3a0 <i_11105>

000000008000b398 <i_11103>:
    8000b398:	7f318c1b          	addiw	s8,gp,2035

000000008000b39c <i_11104>:
    8000b39c:	10a15183          	lhu	gp,266(sp)

000000008000b3a0 <i_11105>:
    8000b3a0:	fd510c03          	lb	s8,-43(sp)

000000008000b3a4 <i_11106>:
    8000b3a4:	0e712a23          	sw	t2,244(sp)

000000008000b3a8 <i_11107>:
    8000b3a8:	15a10403          	lb	s0,346(sp)

000000008000b3ac <i_11108>:
    8000b3ac:	1123c393          	xori	t2,t2,274

000000008000b3b0 <i_11109>:
    8000b3b0:	16312223          	sw	gp,356(sp)

000000008000b3b4 <i_11110>:
    8000b3b4:	0339e9bb          	remw	s3,s3,s3

000000008000b3b8 <i_11111>:
    8000b3b8:	02341cb3          	mulh	s9,s0,gp

000000008000b3bc <i_11112>:
    8000b3bc:	03813983          	ld	s3,56(sp)

000000008000b3c0 <i_11113>:
    8000b3c0:	0199e663          	bltu	s3,s9,8000b3cc <i_11116>

000000008000b3c4 <i_11114>:
    8000b3c4:	0139f663          	bleu	s3,s3,8000b3d0 <i_11117>

000000008000b3c8 <i_11115>:
    8000b3c8:	f3415283          	lhu	t0,-204(sp)

000000008000b3cc <i_11116>:
    8000b3cc:	06913023          	sd	s1,96(sp)

000000008000b3d0 <i_11117>:
    8000b3d0:	fd013c83          	ld	s9,-48(sp)

000000008000b3d4 <i_11118>:
    8000b3d4:	ed313023          	sd	s3,-320(sp)

000000008000b3d8 <i_11119>:
    8000b3d8:	f0114b03          	lbu	s6,-255(sp)

000000008000b3dc <i_11120>:
    8000b3dc:	b449f993          	andi	s3,s3,-1212

000000008000b3e0 <i_11121>:
    8000b3e0:	99b9e193          	ori	gp,s3,-1637

000000008000b3e4 <i_11122>:
    8000b3e4:	ebc16783          	lwu	a5,-324(sp)

000000008000b3e8 <i_11123>:
    8000b3e8:	f53107a3          	sb	s3,-177(sp)

000000008000b3ec <i_11124>:
    8000b3ec:	15013e03          	ld	t3,336(sp)

000000008000b3f0 <i_11125>:
    8000b3f0:	01c79863          	bne	a5,t3,8000b400 <i_11129>

000000008000b3f4 <i_11126>:
    8000b3f4:	0af13823          	sd	a5,176(sp)

000000008000b3f8 <i_11127>:
    8000b3f8:	4027d793          	srai	a5,a5,0x2

000000008000b3fc <i_11128>:
    8000b3fc:	02f78e33          	mul	t3,a5,a5

000000008000b400 <i_11129>:
    8000b400:	ffa15683          	lhu	a3,-6(sp)

000000008000b404 <i_11130>:
    8000b404:	0cc16c83          	lwu	s9,204(sp)

000000008000b408 <i_11131>:
    8000b408:	7b200593          	li	a1,1970

000000008000b40c <i_11132>:
    8000b40c:	7c600793          	li	a5,1990

000000008000b410 <i_11133>:
    8000b410:	8326f693          	andi	a3,a3,-1998

000000008000b414 <i_11134>:
    8000b414:	ecd11023          	sh	a3,-320(sp)

000000008000b418 <i_11135>:
    8000b418:	02de0dbb          	mulw	s11,t3,a3

000000008000b41c <i_11136>:
    8000b41c:	faf13c23          	sd	a5,-72(sp)

000000008000b420 <i_11137>:
    8000b420:	1b913023          	sd	s9,416(sp)

000000008000b424 <i_11138>:
    8000b424:	00158593          	addi	a1,a1,1
    8000b428:	feb7d4e3          	ble	a1,a5,8000b410 <i_11133>

000000008000b42c <i_11139>:
    8000b42c:	dab6e493          	ori	s1,a3,-597

000000008000b430 <i_11140>:
    8000b430:	1b514e83          	lbu	t4,437(sp)

000000008000b434 <i_11141>:
    8000b434:	039d80bb          	mulw	ra,s11,s9

000000008000b438 <i_11142>:
    8000b438:	039cfcbb          	remuw	s9,s9,s9

000000008000b43c <i_11143>:
    8000b43c:	41dc82b3          	sub	t0,s9,t4

000000008000b440 <i_11144>:
    8000b440:	f29e8e9b          	addiw	t4,t4,-215

000000008000b444 <i_11145>:
    8000b444:	00000013          	nop

000000008000b448 <i_11146>:
    8000b448:	88600693          	li	a3,-1914

000000008000b44c <i_11147>:
    8000b44c:	89900c93          	li	s9,-1895

000000008000b450 <i_11148>:
    8000b450:	f8a13823          	sd	a0,-112(sp)

000000008000b454 <i_11149>:
    8000b454:	0252a2b3          	mulhsu	t0,t0,t0

000000008000b458 <i_11150>:
    8000b458:	ed416e83          	lwu	t4,-300(sp)

000000008000b45c <i_11151>:
    8000b45c:	00269d13          	slli	s10,a3,0x2

000000008000b460 <i_11152>:
    8000b460:	fdd13c23          	sd	t4,-40(sp)

000000008000b464 <i_11153>:
    8000b464:	21e18193          	addi	gp,gp,542

000000008000b468 <i_11154>:
    8000b468:	17a13423          	sd	s10,360(sp)

000000008000b46c <i_11155>:
    8000b46c:	e2d13823          	sd	a3,-464(sp)

000000008000b470 <i_11156>:
    8000b470:	ea310c23          	sb	gp,-328(sp)

000000008000b474 <i_11157>:
    8000b474:	07a12423          	sw	s10,104(sp)

000000008000b478 <i_11158>:
    8000b478:	1da13c23          	sd	s10,472(sp)

000000008000b47c <i_11159>:
    8000b47c:	00000013          	nop

000000008000b480 <i_11160>:
    8000b480:	c1c3fc13          	andi	s8,t2,-996

000000008000b484 <i_11161>:
    8000b484:	e2816283          	lwu	t0,-472(sp)

000000008000b488 <i_11162>:
    8000b488:	01d28db3          	add	s11,t0,t4

000000008000b48c <i_11163>:
    8000b48c:	00168693          	addi	a3,a3,1
    8000b490:	fcdcd0e3          	ble	a3,s9,8000b450 <i_11148>

000000008000b494 <i_11164>:
    8000b494:	e5813683          	ld	a3,-424(sp)

000000008000b498 <i_11165>:
    8000b498:	005d6e63          	bltu	s10,t0,8000b4b4 <i_11172>

000000008000b49c <i_11166>:
    8000b49c:	029d74bb          	remuw	s1,s10,s1

000000008000b4a0 <i_11167>:
    8000b4a0:	84f6e817          	auipc	a6,0x84f6e

000000008000b4a4 <i_11168>:
    8000b4a4:	fda9b2b7          	lui	t0,0xfda9b

000000008000b4a8 <i_11169>:
    8000b4a8:	00dd76b3          	and	a3,s10,a3

000000008000b4ac <i_11170>:
    8000b4ac:	02100b93          	li	s7,33

000000008000b4b0 <i_11171>:
    8000b4b0:	017694b3          	sll	s1,a3,s7

000000008000b4b4 <i_11172>:
    8000b4b4:	02900213          	li	tp,41

000000008000b4b8 <i_11173>:
    8000b4b8:	0042df33          	srl	t5,t0,tp

000000008000b4bc <i_11174>:
    8000b4bc:	0ac15c83          	lhu	s9,172(sp)

000000008000b4c0 <i_11175>:
    8000b4c0:	11e11283          	lh	t0,286(sp)

000000008000b4c4 <i_11176>:
    8000b4c4:	0a011403          	lh	s0,160(sp)

000000008000b4c8 <i_11177>:
    8000b4c8:	029d5063          	ble	s1,s10,8000b4e8 <i_11185>

000000008000b4cc <i_11178>:
    8000b4cc:	03ac5263          	ble	s10,s8,8000b4f0 <i_11187>

000000008000b4d0 <i_11179>:
    8000b4d0:	ec110e83          	lb	t4,-319(sp)

000000008000b4d4 <i_11180>:
    8000b4d4:	0181e663          	bltu	gp,s8,8000b4e0 <i_11183>

000000008000b4d8 <i_11181>:
    8000b4d8:	ff310183          	lb	gp,-13(sp)

000000008000b4dc <i_11182>:
    8000b4dc:	4041d193          	srai	gp,gp,0x4

000000008000b4e0 <i_11183>:
    8000b4e0:	e8511e23          	sh	t0,-356(sp)

000000008000b4e4 <i_11184>:
    8000b4e4:	4034581b          	sraiw	a6,s0,0x3

000000008000b4e8 <i_11185>:
    8000b4e8:	00300813          	li	a6,3

000000008000b4ec <i_11186>:
    8000b4ec:	41085c3b          	sraw	s8,a6,a6

000000008000b4f0 <i_11187>:
    8000b4f0:	01011223          	sh	a6,4(sp)

000000008000b4f4 <i_11188>:
    8000b4f4:	f8614203          	lbu	tp,-122(sp)

000000008000b4f8 <i_11189>:
    8000b4f8:	f9811423          	sh	s8,-120(sp)

000000008000b4fc <i_11190>:
    8000b4fc:	0f016483          	lwu	s1,240(sp)

000000008000b500 <i_11191>:
    8000b500:	01880c63          	beq	a6,s8,8000b518 <i_11197>

000000008000b504 <i_11192>:
    8000b504:	03d10ba3          	sb	t4,55(sp)

000000008000b508 <i_11193>:
    8000b508:	eb012a83          	lw	s5,-336(sp)

000000008000b50c <i_11194>:
    8000b50c:	17510f03          	lb	t5,373(sp)

000000008000b510 <i_11195>:
    8000b510:	e9c11803          	lh	a6,-356(sp)

000000008000b514 <i_11196>:
    8000b514:	03edf063          	bleu	t5,s11,8000b534 <i_11204>

000000008000b518 <i_11197>:
    8000b518:	035f06bb          	mulw	a3,t5,s5

000000008000b51c <i_11198>:
    8000b51c:	06d11c23          	sh	a3,120(sp)

000000008000b520 <i_11199>:
    8000b520:	00786263          	bltu	a6,t2,8000b524 <i_11200>

000000008000b524 <i_11200>:
    8000b524:	03011c23          	sh	a6,56(sp)

000000008000b528 <i_11201>:
    8000b528:	bff6839b          	addiw	t2,a3,-1025

000000008000b52c <i_11202>:
    8000b52c:	13511223          	sh	s5,292(sp)

000000008000b530 <i_11203>:
    8000b530:	ed816203          	lwu	tp,-296(sp)

000000008000b534 <i_11204>:
    8000b534:	002ad093          	srli	ra,s5,0x2

000000008000b538 <i_11205>:
    8000b538:	01eac333          	xor	t1,s5,t5

000000008000b53c <i_11206>:
    8000b53c:	80f00413          	li	s0,-2033

000000008000b540 <i_11207>:
    8000b540:	82300293          	li	t0,-2013

000000008000b544 <i_11208>:
    8000b544:	02713c23          	sd	t2,56(sp)

000000008000b548 <i_11209>:
    8000b548:	40335513          	srai	a0,t1,0x3

000000008000b54c <i_11210>:
    8000b54c:	88000213          	li	tp,-1920

000000008000b550 <i_11211>:
    8000b550:	88b00813          	li	a6,-1909

000000008000b554 <i_11212>:
    8000b554:	02426ab3          	rem	s5,tp,tp

000000008000b558 <i_11213>:
    8000b558:	1be15303          	lhu	t1,446(sp)

000000008000b55c <i_11214>:
    8000b55c:	00120213          	addi	tp,tp,1 # ffffffff8b070001 <_end+0xffffffff0b05fbed>
    8000b560:	ff024ae3          	blt	tp,a6,8000b554 <i_11212>

000000008000b564 <i_11215>:
    8000b564:	4bb50493          	addi	s1,a0,1211

000000008000b568 <i_11216>:
    8000b568:	02aa8ab3          	mul	s5,s5,a0

000000008000b56c <i_11217>:
    8000b56c:	e4610623          	sb	t1,-436(sp)

000000008000b570 <i_11218>:
    8000b570:	00140413          	addi	s0,s0,1 # b2ef826d <_end+0x32ee7e59>
    8000b574:	fc82f8e3          	bleu	s0,t0,8000b544 <i_11208>

000000008000b578 <i_11219>:
    8000b578:	fa411283          	lh	t0,-92(sp)

000000008000b57c <i_11220>:
    8000b57c:	02a69533          	mulh	a0,a3,a0

000000008000b580 <i_11221>:
    8000b580:	73000693          	li	a3,1840

000000008000b584 <i_11222>:
    8000b584:	73400a93          	li	s5,1844

000000008000b588 <i_11223>:
    8000b588:	6b3f8537          	lui	a0,0x6b3f8

000000008000b58c <i_11224>:
    8000b58c:	19e13023          	sd	t5,384(sp)

000000008000b590 <i_11225>:
    8000b590:	e9410f03          	lb	t5,-364(sp)

000000008000b594 <i_11226>:
    8000b594:	07813503          	ld	a0,120(sp)

000000008000b598 <i_11227>:
    8000b598:	77af0513          	addi	a0,t5,1914

000000008000b59c <i_11228>:
    8000b59c:	17d14303          	lbu	t1,381(sp)

000000008000b5a0 <i_11229>:
    8000b5a0:	01e56533          	or	a0,a0,t5

000000008000b5a4 <i_11230>:
    8000b5a4:	01700313          	li	t1,23

000000008000b5a8 <i_11231>:
    8000b5a8:	006f1d3b          	sllw	s10,t5,t1

000000008000b5ac <i_11232>:
    8000b5ac:	00168693          	addi	a3,a3,1
    8000b5b0:	fd569ce3          	bne	a3,s5,8000b588 <i_11223>

000000008000b5b4 <i_11233>:
    8000b5b4:	00ad0863          	beq	s10,a0,8000b5c4 <i_11237>

000000008000b5b8 <i_11234>:
    8000b5b8:	02ff4063          	blt	t5,a5,8000b5d8 <i_11242>

000000008000b5bc <i_11235>:
    8000b5bc:	61030d1b          	addiw	s10,t1,1552

000000008000b5c0 <i_11236>:
    8000b5c0:	16613423          	sd	t1,360(sp)

000000008000b5c4 <i_11237>:
    8000b5c4:	0db14f03          	lbu	t5,219(sp)

000000008000b5c8 <i_11238>:
    8000b5c8:	01ad7263          	bleu	s10,s10,8000b5cc <i_11239>

000000008000b5cc <i_11239>:
    8000b5cc:	001f5d13          	srli	s10,t5,0x1

000000008000b5d0 <i_11240>:
    8000b5d0:	03ead533          	divu	a0,s5,t5

000000008000b5d4 <i_11241>:
    8000b5d4:	e7a12c23          	sw	s10,-392(sp)

000000008000b5d8 <i_11242>:
    8000b5d8:	00ae5c63          	ble	a0,t3,8000b5f0 <i_11248>

000000008000b5dc <i_11243>:
    8000b5dc:	07714a83          	lbu	s5,119(sp)

000000008000b5e0 <i_11244>:
    8000b5e0:	1a510383          	lb	t2,421(sp)

000000008000b5e4 <i_11245>:
    8000b5e4:	03a3fd33          	remu	s10,t2,s10

000000008000b5e8 <i_11246>:
    8000b5e8:	09010383          	lb	t2,144(sp)

000000008000b5ec <i_11247>:
    8000b5ec:	00738263          	beq	t2,t2,8000b5f0 <i_11248>

000000008000b5f0 <i_11248>:
    8000b5f0:	4013d393          	srai	t2,t2,0x1

000000008000b5f4 <i_11249>:
    8000b5f4:	f9c15383          	lhu	t2,-100(sp)

000000008000b5f8 <i_11250>:
    8000b5f8:	007c7663          	bleu	t2,s8,8000b604 <i_11253>

000000008000b5fc <i_11251>:
    8000b5fc:	0273d3b3          	divu	t2,t2,t2

000000008000b600 <i_11252>:
    8000b600:	ecd10383          	lb	t2,-307(sp)

000000008000b604 <i_11253>:
    8000b604:	a163c393          	xori	t2,t2,-1514

000000008000b608 <i_11254>:
    8000b608:	00738463          	beq	t2,t2,8000b610 <i_11256>

000000008000b60c <i_11255>:
    8000b60c:	00412303          	lw	t1,4(sp)

000000008000b610 <i_11256>:
    8000b610:	003b1513          	slli	a0,s6,0x3

000000008000b614 <i_11257>:
    8000b614:	02637b3b          	remuw	s6,t1,t1

000000008000b618 <i_11258>:
    8000b618:	7f800393          	li	t2,2040

000000008000b61c <i_11259>:
    8000b61c:	7fc00313          	li	t1,2044

000000008000b620 <i_11260>:
    8000b620:	02651263          	bne	a0,t1,8000b644 <i_11268>

000000008000b624 <i_11261>:
    8000b624:	1a611f23          	sh	t1,446(sp)

000000008000b628 <i_11262>:
    8000b628:	00138393          	addi	t2,t2,1
    8000b62c:	fe63eae3          	bltu	t2,t1,8000b620 <i_11260>

000000008000b630 <i_11263>:
    8000b630:	f3415b03          	lhu	s6,-204(sp)

000000008000b634 <i_11264>:
    8000b634:	01613023          	sd	s6,0(sp)

000000008000b638 <i_11265>:
    8000b638:	0363533b          	divuw	t1,t1,s6

000000008000b63c <i_11266>:
    8000b63c:	08c12e23          	sw	a2,156(sp)

000000008000b640 <i_11267>:
    8000b640:	00c66633          	or	a2,a2,a2

000000008000b644 <i_11268>:
    8000b644:	02c669bb          	remw	s3,a2,a2

000000008000b648 <i_11269>:
    8000b648:	f7f10083          	lb	ra,-129(sp)

000000008000b64c <i_11270>:
    8000b64c:	00c64463          	blt	a2,a2,8000b654 <i_11272>

000000008000b650 <i_11271>:
    8000b650:	e9813483          	ld	s1,-360(sp)

000000008000b654 <i_11272>:
    8000b654:	0ad13023          	sd	a3,160(sp)

000000008000b658 <i_11273>:
    8000b658:	15610923          	sb	s6,338(sp)

000000008000b65c <i_11274>:
    8000b65c:	02cf6a33          	rem	s4,t5,a2

000000008000b660 <i_11275>:
    8000b660:	1a514e83          	lbu	t4,421(sp)

000000008000b664 <i_11276>:
    8000b664:	013082b3          	add	t0,ra,s3

000000008000b668 <i_11277>:
    8000b668:	00665e63          	ble	t1,a2,8000b684 <i_11284>

000000008000b66c <i_11278>:
    8000b66c:	e3d13423          	sd	t4,-472(sp)

000000008000b670 <i_11279>:
    8000b670:	fb114983          	lbu	s3,-79(sp)

000000008000b674 <i_11280>:
    8000b674:	fe812c03          	lw	s8,-24(sp)

000000008000b678 <i_11281>:
    8000b678:	17e15e83          	lhu	t4,382(sp)

000000008000b67c <i_11282>:
    8000b67c:	03dc0c33          	mul	s8,s8,t4

000000008000b680 <i_11283>:
    8000b680:	038ec063          	blt	t4,s8,8000b6a0 <i_11291>

000000008000b684 <i_11284>:
    8000b684:	00300b13          	li	s6,3

000000008000b688 <i_11285>:
    8000b688:	416c5533          	sra	a0,s8,s6

000000008000b68c <i_11286>:
    8000b68c:	00e00593          	li	a1,14

000000008000b690 <i_11287>:
    8000b690:	00b212bb          	sllw	t0,tp,a1

000000008000b694 <i_11288>:
    8000b694:	19016b03          	lwu	s6,400(sp)

000000008000b698 <i_11289>:
    8000b698:	f5812783          	lw	a5,-168(sp)

000000008000b69c <i_11290>:
    8000b69c:	025585b3          	mul	a1,a1,t0

000000008000b6a0 <i_11291>:
    8000b6a0:	028ec43b          	divw	s0,t4,s0

000000008000b6a4 <i_11292>:
    8000b6a4:	15e10b03          	lb	s6,350(sp)

000000008000b6a8 <i_11293>:
    8000b6a8:	eb813423          	sd	s8,-344(sp)

000000008000b6ac <i_11294>:
    8000b6ac:	02ba1463          	bne	s4,a1,8000b6d4 <i_11304>

000000008000b6b0 <i_11295>:
    8000b6b0:	03d785bb          	mulw	a1,a5,t4

000000008000b6b4 <i_11296>:
    8000b6b4:	05d11923          	sh	t4,82(sp)

000000008000b6b8 <i_11297>:
    8000b6b8:	f0815203          	lhu	tp,-248(sp)

000000008000b6bc <i_11298>:
    8000b6bc:	14e15a83          	lhu	s5,334(sp)

000000008000b6c0 <i_11299>:
    8000b6c0:	0165d463          	ble	s6,a1,8000b6c8 <i_11301>

000000008000b6c4 <i_11300>:
    8000b6c4:	02513423          	sd	t0,40(sp)

000000008000b6c8 <i_11301>:
    8000b6c8:	ef613423          	sd	s6,-280(sp)

000000008000b6cc <i_11302>:
    8000b6cc:	004b3433          	sltu	s0,s6,tp

000000008000b6d0 <i_11303>:
    8000b6d0:	0b813203          	ld	tp,184(sp)

000000008000b6d4 <i_11304>:
    8000b6d4:	02f20433          	mul	s0,tp,a5

000000008000b6d8 <i_11305>:
    8000b6d8:	f4013303          	ld	t1,-192(sp)

000000008000b6dc <i_11306>:
    8000b6dc:	00000013          	nop

000000008000b6e0 <i_11307>:
    8000b6e0:	84b00213          	li	tp,-1973

000000008000b6e4 <i_11308>:
    8000b6e4:	85200d13          	li	s10,-1966

000000008000b6e8 <i_11309>:
    8000b6e8:	01232333          	slt	t1,t1,s2

000000008000b6ec <i_11310>:
    8000b6ec:	ef410b83          	lb	s7,-268(sp)

000000008000b6f0 <i_11311>:
    8000b6f0:	00120213          	addi	tp,tp,1 # 1 <main-0x7fffffff>
    8000b6f4:	ffa24ae3          	blt	tp,s10,8000b6e8 <i_11309>

000000008000b6f8 <i_11312>:
    8000b6f8:	026d7333          	remu	t1,s10,t1

000000008000b6fc <i_11313>:
    8000b6fc:	00441313          	slli	t1,s0,0x4

000000008000b700 <i_11314>:
    8000b700:	001c1c13          	slli	s8,s8,0x1

000000008000b704 <i_11315>:
    8000b704:	1a612c23          	sw	t1,440(sp)

000000008000b708 <i_11316>:
    8000b708:	07a11e23          	sh	s10,124(sp)

000000008000b70c <i_11317>:
    8000b70c:	01100413          	li	s0,17

000000008000b710 <i_11318>:
    8000b710:	0087ddbb          	srlw	s11,a5,s0

000000008000b714 <i_11319>:
    8000b714:	e1c11d03          	lh	s10,-484(sp)

000000008000b718 <i_11320>:
    8000b718:	f9710123          	sb	s7,-126(sp)

000000008000b71c <i_11321>:
    8000b71c:	037c5263          	ble	s7,s8,8000b740 <i_11330>

000000008000b720 <i_11322>:
    8000b720:	001280b3          	add	ra,t0,ra

000000008000b724 <i_11323>:
    8000b724:	e6610c23          	sb	t1,-392(sp)

000000008000b728 <i_11324>:
    8000b728:	01c12083          	lw	ra,28(sp)

000000008000b72c <i_11325>:
    8000b72c:	02109063          	bne	ra,ra,8000b74c <i_11333>

000000008000b730 <i_11326>:
    8000b730:	00b00093          	li	ra,11

000000008000b734 <i_11327>:
    8000b734:	0013133b          	sllw	t1,t1,ra

000000008000b738 <i_11328>:
    8000b738:	02108063          	beq	ra,ra,8000b758 <i_11336>

000000008000b73c <i_11329>:
    8000b73c:	0060fc63          	bleu	t1,ra,8000b754 <i_11335>

000000008000b740 <i_11330>:
    8000b740:	11215083          	lhu	ra,274(sp)

000000008000b744 <i_11331>:
    8000b744:	e3211d83          	lh	s11,-462(sp)

000000008000b748 <i_11332>:
    8000b748:	032083b3          	mul	t2,ra,s2

000000008000b74c <i_11333>:
    8000b74c:	00000013          	nop

000000008000b750 <i_11334>:
    8000b750:	03813283          	ld	t0,56(sp)

000000008000b754 <i_11335>:
    8000b754:	12710d23          	sb	t2,314(sp)

000000008000b758 <i_11336>:
    8000b758:	0272d3b3          	divu	t2,t0,t2

000000008000b75c <i_11337>:
    8000b75c:	02710383          	lb	t2,39(sp)

000000008000b760 <i_11338>:
    8000b760:	88b00093          	li	ra,-1909

000000008000b764 <i_11339>:
    8000b764:	89900313          	li	t1,-1895

000000008000b768 <i_11340>:
    8000b768:	0271f263          	bleu	t2,gp,8000b78c <i_11348>

000000008000b76c <i_11341>:
    8000b76c:	00108093          	addi	ra,ra,1 # 1ca702fd <main-0x6358fd03>
    8000b770:	fe60ece3          	bltu	ra,t1,8000b768 <i_11340>

000000008000b774 <i_11342>:
    8000b774:	0273e0b3          	rem	ra,t2,t2

000000008000b778 <i_11343>:
    8000b778:	0e713c23          	sd	t2,248(sp)

000000008000b77c <i_11344>:
    8000b77c:	e2615f03          	lhu	t5,-474(sp)

000000008000b780 <i_11345>:
    8000b780:	01d533b3          	sltu	t2,a0,t4

000000008000b784 <i_11346>:
    8000b784:	11610083          	lb	ra,278(sp)

000000008000b788 <i_11347>:
    8000b788:	ff816b03          	lwu	s6,-8(sp)

000000008000b78c <i_11348>:
    8000b78c:	00000013          	nop

000000008000b790 <i_11349>:
    8000b790:	002a9a93          	slli	s5,s5,0x2

000000008000b794 <i_11350>:
    8000b794:	82d00b93          	li	s7,-2003

000000008000b798 <i_11351>:
    8000b798:	82f00d13          	li	s10,-2001

000000008000b79c <i_11352>:
    8000b79c:	05710a83          	lb	s5,87(sp)

000000008000b7a0 <i_11353>:
    8000b7a0:	005ae263          	bltu	s5,t0,8000b7a4 <i_11354>

000000008000b7a4 <i_11354>:
    8000b7a4:	415a80bb          	subw	ra,s5,s5

000000008000b7a8 <i_11355>:
    8000b7a8:	06f10c83          	lb	s9,111(sp)

000000008000b7ac <i_11356>:
    8000b7ac:	021adb3b          	divuw	s6,s5,ra

000000008000b7b0 <i_11357>:
    8000b7b0:	019ac263          	blt	s5,s9,8000b7b4 <i_11358>

000000008000b7b4 <i_11358>:
    8000b7b4:	01a00e93          	li	t4,26

000000008000b7b8 <i_11359>:
    8000b7b8:	01db1cbb          	sllw	s9,s6,t4

000000008000b7bc <i_11360>:
    8000b7bc:	019c8cb3          	add	s9,s9,s9

000000008000b7c0 <i_11361>:
    8000b7c0:	02ac8463          	beq	s9,a0,8000b7e8 <i_11370>

000000008000b7c4 <i_11362>:
    8000b7c4:	001b8b93          	addi	s7,s7,1
    8000b7c8:	fdabeae3          	bltu	s7,s10,8000b79c <i_11352>

000000008000b7cc <i_11363>:
    8000b7cc:	033ed063          	ble	s3,t4,8000b7ec <i_11371>

000000008000b7d0 <i_11364>:
    8000b7d0:	11416c83          	lwu	s9,276(sp)

000000008000b7d4 <i_11365>:
    8000b7d4:	12e10b03          	lb	s6,302(sp)

000000008000b7d8 <i_11366>:
    8000b7d8:	039cecbb          	remw	s9,s9,s9

000000008000b7dc <i_11367>:
    8000b7dc:	66865497          	auipc	s1,0x66865

000000008000b7e0 <i_11368>:
    8000b7e0:	00949463          	bne	s1,s1,8000b7e8 <i_11370>

000000008000b7e4 <i_11369>:
    8000b7e4:	00bcc5b3          	xor	a1,s9,a1

000000008000b7e8 <i_11370>:
    8000b7e8:	96cdcb13          	xori	s6,s11,-1684

000000008000b7ec <i_11371>:
    8000b7ec:	00e00813          	li	a6,14

000000008000b7f0 <i_11372>:
    8000b7f0:	010590bb          	sllw	ra,a1,a6

000000008000b7f4 <i_11373>:
    8000b7f4:	83300f13          	li	t5,-1997

000000008000b7f8 <i_11374>:
    8000b7f8:	83700c93          	li	s9,-1993

000000008000b7fc <i_11375>:
    8000b7fc:	01ef44b3          	xor	s1,t5,t5

000000008000b800 <i_11376>:
    8000b800:	02be85bb          	mulw	a1,t4,a1

000000008000b804 <i_11377>:
    8000b804:	76d00693          	li	a3,1901

000000008000b808 <i_11378>:
    8000b808:	78100e93          	li	t4,1921

000000008000b80c <i_11379>:
    8000b80c:	00d5eb33          	or	s6,a1,a3

000000008000b810 <i_11380>:
    8000b810:	00000013          	nop

000000008000b814 <i_11381>:
    8000b814:	00168693          	addi	a3,a3,1
    8000b818:	fededae3          	ble	a3,t4,8000b80c <i_11379>

000000008000b81c <i_11382>:
    8000b81c:	f6d13823          	sd	a3,-144(sp)

000000008000b820 <i_11383>:
    8000b820:	01659c63          	bne	a1,s6,8000b838 <i_11388>

000000008000b824 <i_11384>:
    8000b824:	001f0f13          	addi	t5,t5,1
    8000b828:	fdecfae3          	bleu	t5,s9,8000b7fc <i_11375>

000000008000b82c <i_11385>:
    8000b82c:	0366e263          	bltu	a3,s6,8000b850 <i_11394>

000000008000b830 <i_11386>:
    8000b830:	19c11b03          	lh	s6,412(sp)

000000008000b834 <i_11387>:
    8000b834:	e9013583          	ld	a1,-368(sp)

000000008000b838 <i_11388>:
    8000b838:	1e013203          	ld	tp,480(sp)

000000008000b83c <i_11389>:
    8000b83c:	10412583          	lw	a1,260(sp)

000000008000b840 <i_11390>:
    8000b840:	40b5823b          	subw	tp,a1,a1

000000008000b844 <i_11391>:
    8000b844:	024211b3          	mulh	gp,tp,tp

000000008000b848 <i_11392>:
    8000b848:	00459a63          	bne	a1,tp,8000b85c <i_11397>

000000008000b84c <i_11393>:
    8000b84c:	6dfa21b7          	lui	gp,0x6dfa2

000000008000b850 <i_11394>:
    8000b850:	0c812203          	lw	tp,200(sp)

000000008000b854 <i_11395>:
    8000b854:	fa813603          	ld	a2,-88(sp)

000000008000b858 <i_11396>:
    8000b858:	ecc11603          	lh	a2,-308(sp)

000000008000b85c <i_11397>:
    8000b85c:	00492d33          	slt	s10,s2,tp

000000008000b860 <i_11398>:
    8000b860:	00c58263          	beq	a1,a2,8000b864 <i_11399>

000000008000b864 <i_11399>:
    8000b864:	009227b3          	slt	a5,tp,s1

000000008000b868 <i_11400>:
    8000b868:	f2c12a83          	lw	s5,-212(sp)

000000008000b86c <i_11401>:
    8000b86c:	f4c10823          	sb	a2,-176(sp)

000000008000b870 <i_11402>:
    8000b870:	00478a63          	beq	a5,tp,8000b884 <i_11407>

000000008000b874 <i_11403>:
    8000b874:	0da12423          	sw	s10,200(sp)

000000008000b878 <i_11404>:
    8000b878:	12816203          	lwu	tp,296(sp)

000000008000b87c <i_11405>:
    8000b87c:	caca8293          	addi	t0,s5,-852

000000008000b880 <i_11406>:
    8000b880:	ee812b83          	lw	s7,-280(sp)

000000008000b884 <i_11407>:
    8000b884:	11811923          	sh	s8,274(sp)

000000008000b888 <i_11408>:
    8000b888:	015bcc63          	blt	s7,s5,8000b8a0 <i_11414>

000000008000b88c <i_11409>:
    8000b88c:	e4f13023          	sd	a5,-448(sp)

000000008000b890 <i_11410>:
    8000b890:	00000013          	nop

000000008000b894 <i_11411>:
    8000b894:	402bd51b          	sraiw	a0,s7,0x2

000000008000b898 <i_11412>:
    8000b898:	e9c16b03          	lwu	s6,-356(sp)

000000008000b89c <i_11413>:
    8000b89c:	e7215183          	lhu	gp,-398(sp)

000000008000b8a0 <i_11414>:
    8000b8a0:	10414303          	lbu	t1,260(sp)

000000008000b8a4 <i_11415>:
    8000b8a4:	fb813683          	ld	a3,-72(sp)

000000008000b8a8 <i_11416>:
    8000b8a8:	8a300b93          	li	s7,-1885

000000008000b8ac <i_11417>:
    8000b8ac:	8b100293          	li	t0,-1871

000000008000b8b0 <i_11418>:
    8000b8b0:	5c0ddd17          	auipc	s10,0x5c0dd

000000008000b8b4 <i_11419>:
    8000b8b4:	07016483          	lwu	s1,112(sp)

000000008000b8b8 <i_11420>:
    8000b8b8:	bc47ce93          	xori	t4,a5,-1084

000000008000b8bc <i_11421>:
    8000b8bc:	1bd12e23          	sw	t4,444(sp)

000000008000b8c0 <i_11422>:
    8000b8c0:	e7013e83          	ld	t4,-400(sp)

000000008000b8c4 <i_11423>:
    8000b8c4:	001b8b93          	addi	s7,s7,1
    8000b8c8:	ff72d4e3          	ble	s7,t0,8000b8b0 <i_11418>

000000008000b8cc <i_11424>:
    8000b8cc:	f77e881b          	addiw	a6,t4,-137

000000008000b8d0 <i_11425>:
    8000b8d0:	f3012c23          	sw	a6,-200(sp)

000000008000b8d4 <i_11426>:
    8000b8d4:	06913423          	sd	s1,104(sp)

000000008000b8d8 <i_11427>:
    8000b8d8:	7fba8e93          	addi	t4,s5,2043

000000008000b8dc <i_11428>:
    8000b8dc:	ed513023          	sd	s5,-320(sp)

000000008000b8e0 <i_11429>:
    8000b8e0:	7a200813          	li	a6,1954

000000008000b8e4 <i_11430>:
    8000b8e4:	7ae00a93          	li	s5,1966

000000008000b8e8 <i_11431>:
    8000b8e8:	fd513823          	sd	s5,-48(sp)

000000008000b8ec <i_11432>:
    8000b8ec:	5874e493          	ori	s1,s1,1415

000000008000b8f0 <i_11433>:
    8000b8f0:	00180813          	addi	a6,a6,1 # 4f794a1 <main-0x7b086b5f>
    8000b8f4:	ff584ae3          	blt	a6,s5,8000b8e8 <i_11431>

000000008000b8f8 <i_11434>:
    8000b8f8:	12013a83          	ld	s5,288(sp)

000000008000b8fc <i_11435>:
    8000b8fc:	403dda93          	srai	s5,s11,0x3

000000008000b900 <i_11436>:
    8000b900:	fda15e03          	lhu	t3,-38(sp)

000000008000b904 <i_11437>:
    8000b904:	e9a15383          	lhu	t2,-358(sp)

000000008000b908 <i_11438>:
    8000b908:	fac11c03          	lh	s8,-84(sp)

000000008000b90c <i_11439>:
    8000b90c:	75200e13          	li	t3,1874

000000008000b910 <i_11440>:
    8000b910:	76200413          	li	s0,1890

000000008000b914 <i_11441>:
    8000b914:	00014183          	lbu	gp,0(sp)

000000008000b918 <i_11442>:
    8000b918:	19813c23          	sd	s8,408(sp)

000000008000b91c <i_11443>:
    8000b91c:	86400a93          	li	s5,-1948

000000008000b920 <i_11444>:
    8000b920:	87800c13          	li	s8,-1928

000000008000b924 <i_11445>:
    8000b924:	001a8a93          	addi	s5,s5,1
    8000b928:	ff8aeee3          	bltu	s5,s8,8000b924 <i_11445>

000000008000b92c <i_11446>:
    8000b92c:	038a8bbb          	mulw	s7,s5,s8

000000008000b930 <i_11447>:
    8000b930:	14813183          	ld	gp,328(sp)

000000008000b934 <i_11448>:
    8000b934:	003c5c1b          	srliw	s8,s8,0x3

000000008000b938 <i_11449>:
    8000b938:	402bdc1b          	sraiw	s8,s7,0x2

000000008000b93c <i_11450>:
    8000b93c:	8e1c0c13          	addi	s8,s8,-1823

000000008000b940 <i_11451>:
    8000b940:	001e0e13          	addi	t3,t3,1
    8000b944:	fdc478e3          	bleu	t3,s0,8000b914 <i_11441>

000000008000b948 <i_11452>:
    8000b948:	13811023          	sh	s8,288(sp)

000000008000b94c <i_11453>:
    8000b94c:	f8012a83          	lw	s5,-128(sp)

000000008000b950 <i_11454>:
    8000b950:	03d5aab3          	mulhsu	s5,a1,t4

000000008000b954 <i_11455>:
    8000b954:	daf02c37          	lui	s8,0xdaf02

000000008000b958 <i_11456>:
    8000b958:	e9c11223          	sh	t3,-380(sp)

000000008000b95c <i_11457>:
    8000b95c:	02c00813          	li	a6,44

000000008000b960 <i_11458>:
    8000b960:	010c1e33          	sll	t3,s8,a6

000000008000b964 <i_11459>:
    8000b964:	0e813803          	ld	a6,232(sp)

000000008000b968 <i_11460>:
    8000b968:	1dc12083          	lw	ra,476(sp)

000000008000b96c <i_11461>:
    8000b96c:	1a013c83          	ld	s9,416(sp)

000000008000b970 <i_11462>:
    8000b970:	01cc1c63          	bne	s8,t3,8000b988 <i_11468>

000000008000b974 <i_11463>:
    8000b974:	03586463          	bltu	a6,s5,8000b99c <i_11473>

000000008000b978 <i_11464>:
    8000b978:	b2dc8c1b          	addiw	s8,s9,-1235

000000008000b97c <i_11465>:
    8000b97c:	fbd10ba3          	sb	t4,-73(sp)

000000008000b980 <i_11466>:
    8000b980:	03013a83          	ld	s5,48(sp)

000000008000b984 <i_11467>:
    8000b984:	002a9e9b          	slliw	t4,s5,0x2

000000008000b988 <i_11468>:
    8000b988:	0de11e83          	lh	t4,222(sp)

000000008000b98c <i_11469>:
    8000b98c:	15512e23          	sw	s5,348(sp)

000000008000b990 <i_11470>:
    8000b990:	f7416a83          	lwu	s5,-140(sp)

000000008000b994 <i_11471>:
    8000b994:	00000013          	nop

000000008000b998 <i_11472>:
    8000b998:	03d19ab3          	mulh	s5,gp,t4

000000008000b99c <i_11473>:
    8000b99c:	16412983          	lw	s3,356(sp)

000000008000b9a0 <i_11474>:
    8000b9a0:	00000013          	nop

000000008000b9a4 <i_11475>:
    8000b9a4:	87300c93          	li	s9,-1933

000000008000b9a8 <i_11476>:
    8000b9a8:	87600613          	li	a2,-1930

000000008000b9ac <i_11477>:
    8000b9ac:	f95109a3          	sb	s5,-109(sp)

000000008000b9b0 <i_11478>:
    8000b9b0:	00000013          	nop

000000008000b9b4 <i_11479>:
    8000b9b4:	003a9a9b          	slliw	s5,s5,0x3

000000008000b9b8 <i_11480>:
    8000b9b8:	029a8063          	beq	s5,s1,8000b9d8 <i_11487>

000000008000b9bc <i_11481>:
    8000b9bc:	00000013          	nop

000000008000b9c0 <i_11482>:
    8000b9c0:	e8615983          	lhu	s3,-378(sp)

000000008000b9c4 <i_11483>:
    8000b9c4:	001c8c93          	addi	s9,s9,1
    8000b9c8:	feccc2e3          	blt	s9,a2,8000b9ac <i_11477>

000000008000b9cc <i_11484>:
    8000b9cc:	0f614b83          	lbu	s7,246(sp)

000000008000b9d0 <i_11485>:
    8000b9d0:	003f1593          	slli	a1,t5,0x3

000000008000b9d4 <i_11486>:
    8000b9d4:	e6d13423          	sd	a3,-408(sp)

000000008000b9d8 <i_11487>:
    8000b9d8:	033f69bb          	remw	s3,t5,s3

000000008000b9dc <i_11488>:
    8000b9dc:	ecf12a23          	sw	a5,-300(sp)

000000008000b9e0 <i_11489>:
    8000b9e0:	003b959b          	slliw	a1,s7,0x3

000000008000b9e4 <i_11490>:
    8000b9e4:	0335c53b          	divw	a0,a1,s3

000000008000b9e8 <i_11491>:
    8000b9e8:	02a55263          	ble	a0,a0,8000ba0c <i_11500>

000000008000b9ec <i_11492>:
    8000b9ec:	401f5993          	srai	s3,t5,0x1

000000008000b9f0 <i_11493>:
    8000b9f0:	4102053b          	subw	a0,tp,a6

000000008000b9f4 <i_11494>:
    8000b9f4:	ec314803          	lbu	a6,-317(sp)

000000008000b9f8 <i_11495>:
    8000b9f8:	e29d3193          	sltiu	gp,s10,-471

000000008000b9fc <i_11496>:
    8000b9fc:	04313823          	sd	gp,80(sp)

000000008000ba00 <i_11497>:
    8000ba00:	f5c11803          	lh	a6,-164(sp)

000000008000ba04 <i_11498>:
    8000ba04:	09d13423          	sd	t4,136(sp)

000000008000ba08 <i_11499>:
    8000ba08:	41d80833          	sub	a6,a6,t4

000000008000ba0c <i_11500>:
    8000ba0c:	00000013          	nop

000000008000ba10 <i_11501>:
    8000ba10:	00000013          	nop

000000008000ba14 <i_11502>:
    8000ba14:	76d00d13          	li	s10,1901

000000008000ba18 <i_11503>:
    8000ba18:	77700993          	li	s3,1911

000000008000ba1c <i_11504>:
    8000ba1c:	00000013          	nop

000000008000ba20 <i_11505>:
    8000ba20:	00683333          	sltu	t1,a6,t1

000000008000ba24 <i_11506>:
    8000ba24:	85f00193          	li	gp,-1953

000000008000ba28 <i_11507>:
    8000ba28:	87100e93          	li	t4,-1935

000000008000ba2c <i_11508>:
    8000ba2c:	00118193          	addi	gp,gp,1 # 6dfa2001 <main-0x1205dfff>
    8000ba30:	ffd19ee3          	bne	gp,t4,8000ba2c <i_11508>

000000008000ba34 <i_11509>:
    8000ba34:	00000013          	nop

000000008000ba38 <i_11510>:
    8000ba38:	0ab14803          	lbu	a6,171(sp)

000000008000ba3c <i_11511>:
    8000ba3c:	001d0d13          	addi	s10,s10,1 # dc0e88b1 <_end+0x5c0d849d>
    8000ba40:	fda9dee3          	ble	s10,s3,8000ba1c <i_11504>

000000008000ba44 <i_11512>:
    8000ba44:	01014463          	blt	sp,a6,8000ba4c <i_11514>

000000008000ba48 <i_11513>:
    8000ba48:	efb13423          	sd	s11,-280(sp)

000000008000ba4c <i_11514>:
    8000ba4c:	01815183          	lhu	gp,24(sp)

000000008000ba50 <i_11515>:
    8000ba50:	03019463          	bne	gp,a6,8000ba78 <i_11525>

000000008000ba54 <i_11516>:
    8000ba54:	00336a63          	bltu	t1,gp,8000ba68 <i_11521>

000000008000ba58 <i_11517>:
    8000ba58:	12610a03          	lb	s4,294(sp)

000000008000ba5c <i_11518>:
    8000ba5c:	01200193          	li	gp,18

000000008000ba60 <i_11519>:
    8000ba60:	403edbb3          	sra	s7,t4,gp

000000008000ba64 <i_11520>:
    8000ba64:	f1011f03          	lh	t5,-240(sp)

000000008000ba68 <i_11521>:
    8000ba68:	f5812e83          	lw	t4,-168(sp)

000000008000ba6c <i_11522>:
    8000ba6c:	02df51bb          	divuw	gp,t5,a3

000000008000ba70 <i_11523>:
    8000ba70:	e5c12303          	lw	t1,-420(sp)

000000008000ba74 <i_11524>:
    8000ba74:	402f5f1b          	sraiw	t5,t5,0x2

000000008000ba78 <i_11525>:
    8000ba78:	4038da13          	srai	s4,a7,0x3

000000008000ba7c <i_11526>:
    8000ba7c:	08013383          	ld	t2,128(sp)

000000008000ba80 <i_11527>:
    8000ba80:	e6016483          	lwu	s1,-416(sp)

000000008000ba84 <i_11528>:
    8000ba84:	7e700e93          	li	t4,2023

000000008000ba88 <i_11529>:
    8000ba88:	7f900693          	li	a3,2041

000000008000ba8c <i_11530>:
    8000ba8c:	00013603          	ld	a2,0(sp)

000000008000ba90 <i_11531>:
    8000ba90:	14812483          	lw	s1,328(sp)

000000008000ba94 <i_11532>:
    8000ba94:	09813483          	ld	s1,152(sp)

000000008000ba98 <i_11533>:
    8000ba98:	fa812583          	lw	a1,-88(sp)

000000008000ba9c <i_11534>:
    8000ba9c:	1a011d03          	lh	s10,416(sp)

000000008000baa0 <i_11535>:
    8000baa0:	fdc63393          	sltiu	t2,a2,-36

000000008000baa4 <i_11536>:
    8000baa4:	efa13c23          	sd	s10,-264(sp)

000000008000baa8 <i_11537>:
    8000baa8:	e6416183          	lwu	gp,-412(sp)

000000008000baac <i_11538>:
    8000baac:	00000013          	nop

000000008000bab0 <i_11539>:
    8000bab0:	03113023          	sd	a7,32(sp)

000000008000bab4 <i_11540>:
    8000bab4:	01900393          	li	t2,25

000000008000bab8 <i_11541>:
    8000bab8:	007394bb          	sllw	s1,t2,t2

000000008000babc <i_11542>:
    8000babc:	00349513          	slli	a0,s1,0x3

000000008000bac0 <i_11543>:
    8000bac0:	403d0d3b          	subw	s10,s10,gp

000000008000bac4 <i_11544>:
    8000bac4:	f5c11183          	lh	gp,-164(sp)

000000008000bac8 <i_11545>:
    8000bac8:	00249e63          	bne	s1,sp,8000bae4 <i_11551>

000000008000bacc <i_11546>:
    8000bacc:	001e8e93          	addi	t4,t4,1
    8000bad0:	fadeeee3          	bltu	t4,a3,8000ba8c <i_11530>

000000008000bad4 <i_11547>:
    8000bad4:	e4711d23          	sh	t2,-422(sp)

000000008000bad8 <i_11548>:
    8000bad8:	fe412e03          	lw	t3,-28(sp)

000000008000badc <i_11549>:
    8000badc:	40455193          	srai	gp,a0,0x4

000000008000bae0 <i_11550>:
    8000bae0:	01ce03b3          	add	t2,t3,t3

000000008000bae4 <i_11551>:
    8000bae4:	eb913c23          	sd	s9,-328(sp)

000000008000bae8 <i_11552>:
    8000bae8:	00ae0e63          	beq	t3,a0,8000bb04 <i_11559>

000000008000baec <i_11553>:
    8000baec:	02d3f1bb          	remuw	gp,t2,a3

000000008000baf0 <i_11554>:
    8000baf0:	0274b4b3          	mulhu	s1,s1,t2

000000008000baf4 <i_11555>:
    8000baf4:	02ae0063          	beq	t3,a0,8000bb14 <i_11563>

000000008000baf8 <i_11556>:
    8000baf8:	01c4dc63          	ble	t3,s1,8000bb10 <i_11562>

000000008000bafc <i_11557>:
    8000bafc:	023351b3          	divu	gp,t1,gp

000000008000bb00 <i_11558>:
    8000bb00:	03c4c53b          	divw	a0,s1,t3

000000008000bb04 <i_11559>:
    8000bb04:	0f412b83          	lw	s7,244(sp)

000000008000bb08 <i_11560>:
    8000bb08:	fc211783          	lh	a5,-62(sp)

000000008000bb0c <i_11561>:
    8000bb0c:	0c913423          	sd	s1,200(sp)

000000008000bb10 <i_11562>:
    8000bb10:	efc16783          	lwu	a5,-260(sp)

000000008000bb14 <i_11563>:
    8000bb14:	01c51a63          	bne	a0,t3,8000bb28 <i_11568>

000000008000bb18 <i_11564>:
    8000bb18:	02a53233          	mulhu	tp,a0,a0

000000008000bb1c <i_11565>:
    8000bb1c:	f2a12423          	sw	a0,-216(sp)

000000008000bb20 <i_11566>:
    8000bb20:	ea910783          	lb	a5,-343(sp)

000000008000bb24 <i_11567>:
    8000bb24:	00000013          	nop

000000008000bb28 <i_11568>:
    8000bb28:	fd816783          	lwu	a5,-40(sp)

000000008000bb2c <i_11569>:
    8000bb2c:	00000013          	nop

000000008000bb30 <i_11570>:
    8000bb30:	74200513          	li	a0,1858

000000008000bb34 <i_11571>:
    8000bb34:	75600093          	li	ra,1878

000000008000bb38 <i_11572>:
    8000bb38:	e3411603          	lh	a2,-460(sp)

000000008000bb3c <i_11573>:
    8000bb3c:	07814403          	lbu	s0,120(sp)

000000008000bb40 <i_11574>:
    8000bb40:	f0411e23          	sh	tp,-228(sp)

000000008000bb44 <i_11575>:
    8000bb44:	02a00213          	li	tp,42

000000008000bb48 <i_11576>:
    8000bb48:	40445eb3          	sra	t4,s0,tp

000000008000bb4c <i_11577>:
    8000bb4c:	75800613          	li	a2,1880

000000008000bb50 <i_11578>:
    8000bb50:	75b00793          	li	a5,1883

000000008000bb54 <i_11579>:
    8000bb54:	02187233          	remu	tp,a6,ra

000000008000bb58 <i_11580>:
    8000bb58:	eea15b83          	lhu	s7,-278(sp)

000000008000bb5c <i_11581>:
    8000bb5c:	16011403          	lh	s0,352(sp)

000000008000bb60 <i_11582>:
    8000bb60:	0ea13c23          	sd	a0,248(sp)

000000008000bb64 <i_11583>:
    8000bb64:	00160613          	addi	a2,a2,1
    8000bb68:	fef664e3          	bltu	a2,a5,8000bb50 <i_11578>

000000008000bb6c <i_11584>:
    8000bb6c:	00813303          	ld	t1,8(sp)

000000008000bb70 <i_11585>:
    8000bb70:	0043121b          	slliw	tp,t1,0x4

000000008000bb74 <i_11586>:
    8000bb74:	fd132b93          	slti	s7,t1,-47

000000008000bb78 <i_11587>:
    8000bb78:	00150513          	addi	a0,a0,1 # 6b3f8001 <main-0x14c07fff>
    8000bb7c:	faa0fee3          	bleu	a0,ra,8000bb38 <i_11572>

000000008000bb80 <i_11588>:
    8000bb80:	00610223          	sb	t1,4(sp)

000000008000bb84 <i_11589>:
    8000bb84:	017b8e63          	beq	s7,s7,8000bba0 <i_11596>

000000008000bb88 <i_11590>:
    8000bb88:	026c7533          	remu	a0,s8,t1

000000008000bb8c <i_11591>:
    8000bb8c:	17013303          	ld	t1,368(sp)

000000008000bb90 <i_11592>:
    8000bb90:	00a31663          	bne	t1,a0,8000bb9c <i_11595>

000000008000bb94 <i_11593>:
    8000bb94:	01834c33          	xor	s8,t1,s8

000000008000bb98 <i_11594>:
    8000bb98:	018505b3          	add	a1,a0,s8

000000008000bb9c <i_11595>:
    8000bb9c:	01351863          	bne	a0,s3,8000bbac <i_11599>

000000008000bba0 <i_11596>:
    8000bba0:	19a15283          	lhu	t0,410(sp)

000000008000bba4 <i_11597>:
    8000bba4:	1e013583          	ld	a1,480(sp)

000000008000bba8 <i_11598>:
    8000bba8:	00151213          	slli	tp,a0,0x1

000000008000bbac <i_11599>:
    8000bbac:	0305b3b3          	mulhu	t2,a1,a6

000000008000bbb0 <i_11600>:
    8000bbb0:	010bca63          	blt	s7,a6,8000bbc4 <i_11605>

000000008000bbb4 <i_11601>:
    8000bbb4:	e4710623          	sb	t2,-436(sp)

000000008000bbb8 <i_11602>:
    8000bbb8:	02abd063          	ble	a0,s7,8000bbd8 <i_11610>

000000008000bbbc <i_11603>:
    8000bbbc:	e5016c03          	lwu	s8,-432(sp)

000000008000bbc0 <i_11604>:
    8000bbc0:	03855063          	ble	s8,a0,8000bbe0 <i_11612>

000000008000bbc4 <i_11605>:
    8000bbc4:	0f552c13          	slti	s8,a0,245

000000008000bbc8 <i_11606>:
    8000bbc8:	fba15583          	lhu	a1,-70(sp)

000000008000bbcc <i_11607>:
    8000bbcc:	00f00e13          	li	t3,15

000000008000bbd0 <i_11608>:
    8000bbd0:	01c9da33          	srl	s4,s3,t3

000000008000bbd4 <i_11609>:
    8000bbd4:	0f013303          	ld	t1,240(sp)

000000008000bbd8 <i_11610>:
    8000bbd8:	02446c3b          	remw	s8,s0,tp

000000008000bbdc <i_11611>:
    8000bbdc:	13013183          	ld	gp,304(sp)

000000008000bbe0 <i_11612>:
    8000bbe0:	08615a83          	lhu	s5,134(sp)

000000008000bbe4 <i_11613>:
    8000bbe4:	41c20e33          	sub	t3,tp,t3

000000008000bbe8 <i_11614>:
    8000bbe8:	01a86e63          	bltu	a6,s10,8000bc04 <i_11621>

000000008000bbec <i_11615>:
    8000bbec:	00b5fc63          	bleu	a1,a1,8000bc04 <i_11621>

000000008000bbf0 <i_11616>:
    8000bbf0:	01800813          	li	a6,24

000000008000bbf4 <i_11617>:
    8000bbf4:	010a51b3          	srl	gp,s4,a6

000000008000bbf8 <i_11618>:
    8000bbf8:	fe016983          	lwu	s3,-32(sp)

000000008000bbfc <i_11619>:
    8000bbfc:	01f54833          	xor	a6,a0,t6

000000008000bc00 <i_11620>:
    8000bc00:	08415283          	lhu	t0,132(sp)

000000008000bc04 <i_11621>:
    8000bc04:	f6610583          	lb	a1,-154(sp)

000000008000bc08 <i_11622>:
    8000bc08:	e5e15e83          	lhu	t4,-418(sp)

000000008000bc0c <i_11623>:
    8000bc0c:	0eb12a23          	sw	a1,244(sp)

000000008000bc10 <i_11624>:
    8000bc10:	f8615683          	lhu	a3,-122(sp)

000000008000bc14 <i_11625>:
    8000bc14:	e5910283          	lb	t0,-423(sp)

000000008000bc18 <i_11626>:
    8000bc18:	00be85b3          	add	a1,t4,a1

000000008000bc1c <i_11627>:
    8000bc1c:	03da5063          	ble	t4,s4,8000bc3c <i_11635>

000000008000bc20 <i_11628>:
    8000bc20:	14514b03          	lbu	s6,325(sp)

000000008000bc24 <i_11629>:
    8000bc24:	03914303          	lbu	t1,57(sp)

000000008000bc28 <i_11630>:
    8000bc28:	00000013          	nop

000000008000bc2c <i_11631>:
    8000bc2c:	0e012e83          	lw	t4,224(sp)

000000008000bc30 <i_11632>:
    8000bc30:	eed13c23          	sd	a3,-264(sp)

000000008000bc34 <i_11633>:
    8000bc34:	00000013          	nop

000000008000bc38 <i_11634>:
    8000bc38:	ce6e8e9b          	addiw	t4,t4,-794

000000008000bc3c <i_11635>:
    8000bc3c:	19412e83          	lw	t4,404(sp)

000000008000bc40 <i_11636>:
    8000bc40:	03a5fd33          	remu	s10,a1,s10

000000008000bc44 <i_11637>:
    8000bc44:	78200b13          	li	s6,1922

000000008000bc48 <i_11638>:
    8000bc48:	78500593          	li	a1,1925

000000008000bc4c <i_11639>:
    8000bc4c:	e5d11423          	sh	t4,-440(sp)

000000008000bc50 <i_11640>:
    8000bc50:	f3a11e23          	sh	s10,-196(sp)

000000008000bc54 <i_11641>:
    8000bc54:	8d200693          	li	a3,-1838

000000008000bc58 <i_11642>:
    8000bc58:	8de00313          	li	t1,-1826

000000008000bc5c <i_11643>:
    8000bc5c:	00168693          	addi	a3,a3,1
    8000bc60:	fed37ee3          	bleu	a3,t1,8000bc5c <i_11643>

000000008000bc64 <i_11644>:
    8000bc64:	01016e83          	lwu	t4,16(sp)

000000008000bc68 <i_11645>:
    8000bc68:	00000013          	nop

000000008000bc6c <i_11646>:
    8000bc6c:	e6c15e83          	lhu	t4,-404(sp)

000000008000bc70 <i_11647>:
    8000bc70:	03de8eb3          	mul	t4,t4,t4

000000008000bc74 <i_11648>:
    8000bc74:	001b0b13          	addi	s6,s6,1
    8000bc78:	fd65dae3          	ble	s6,a1,8000bc4c <i_11639>

000000008000bc7c <i_11649>:
    8000bc7c:	0bd11d23          	sh	t4,186(sp)

000000008000bc80 <i_11650>:
    8000bc80:	01610a83          	lb	s5,22(sp)

000000008000bc84 <i_11651>:
    8000bc84:	eb215e83          	lhu	t4,-334(sp)

000000008000bc88 <i_11652>:
    8000bc88:	8c000e13          	li	t3,-1856

000000008000bc8c <i_11653>:
    8000bc8c:	8c900813          	li	a6,-1847

000000008000bc90 <i_11654>:
    8000bc90:	e3b13023          	sd	s11,-480(sp)

000000008000bc94 <i_11655>:
    8000bc94:	0c012e83          	lw	t4,192(sp)

000000008000bc98 <i_11656>:
    8000bc98:	8d400393          	li	t2,-1836

000000008000bc9c <i_11657>:
    8000bc9c:	8e100d93          	li	s11,-1823

000000008000bca0 <i_11658>:
    8000bca0:	00138393          	addi	t2,t2,1
    8000bca4:	fe7ddee3          	ble	t2,s11,8000bca0 <i_11658>

000000008000bca8 <i_11659>:
    8000bca8:	e9016383          	lwu	t2,-368(sp)

000000008000bcac <i_11660>:
    8000bcac:	00c00d93          	li	s11,12

000000008000bcb0 <i_11661>:
    8000bcb0:	01bd9dbb          	sllw	s11,s11,s11

000000008000bcb4 <i_11662>:
    8000bcb4:	10111623          	sh	ra,268(sp)

000000008000bcb8 <i_11663>:
    8000bcb8:	18fefc13          	andi	s8,t4,399

000000008000bcbc <i_11664>:
    8000bcbc:	fd310203          	lb	tp,-45(sp)

000000008000bcc0 <i_11665>:
    8000bcc0:	e9b102a3          	sb	s11,-379(sp)

000000008000bcc4 <i_11666>:
    8000bcc4:	001e0e13          	addi	t3,t3,1
    8000bcc8:	fdc854e3          	ble	t3,a6,8000bc90 <i_11654>

000000008000bccc <i_11667>:
    8000bccc:	d65d8d9b          	addiw	s11,s11,-667

000000008000bcd0 <i_11668>:
    8000bcd0:	ed512423          	sw	s5,-312(sp)

000000008000bcd4 <i_11669>:
    8000bcd4:	00246b33          	or	s6,s0,sp

000000008000bcd8 <i_11670>:
    8000bcd8:	77700993          	li	s3,1911

000000008000bcdc <i_11671>:
    8000bcdc:	77a00d93          	li	s11,1914

000000008000bce0 <i_11672>:
    8000bce0:	01b9f263          	bleu	s11,s3,8000bce4 <i_11673>

000000008000bce4 <i_11673>:
    8000bce4:	0309a193          	slti	gp,s3,48

000000008000bce8 <i_11674>:
    8000bce8:	413d863b          	subw	a2,s11,s3

000000008000bcec <i_11675>:
    8000bcec:	e2813383          	ld	t2,-472(sp)

000000008000bcf0 <i_11676>:
    8000bcf0:	8a200b93          	li	s7,-1886

000000008000bcf4 <i_11677>:
    8000bcf4:	8a500413          	li	s0,-1883

000000008000bcf8 <i_11678>:
    8000bcf8:	fb016303          	lwu	t1,-80(sp)

000000008000bcfc <i_11679>:
    8000bcfc:	0130aab3          	slt	s5,ra,s3

000000008000bd00 <i_11680>:
    8000bd00:	00000013          	nop

000000008000bd04 <i_11681>:
    8000bd04:	3dcd8b13          	addi	s6,s11,988

000000008000bd08 <i_11682>:
    8000bd08:	001b8b93          	addi	s7,s7,1
    8000bd0c:	ff7456e3          	ble	s7,s0,8000bcf8 <i_11678>

000000008000bd10 <i_11683>:
    8000bd10:	00000013          	nop

000000008000bd14 <i_11684>:
    8000bd14:	00000013          	nop

000000008000bd18 <i_11685>:
    8000bd18:	99343213          	sltiu	tp,s0,-1645

000000008000bd1c <i_11686>:
    8000bd1c:	02824263          	blt	tp,s0,8000bd40 <i_11694>

000000008000bd20 <i_11687>:
    8000bd20:	fcd10303          	lb	t1,-51(sp)

000000008000bd24 <i_11688>:
    8000bd24:	00198993          	addi	s3,s3,1
    8000bd28:	fb3dfce3          	bleu	s3,s11,8000bce0 <i_11672>

000000008000bd2c <i_11689>:
    8000bd2c:	007b5663          	ble	t2,s6,8000bd38 <i_11692>

000000008000bd30 <i_11690>:
    8000bd30:	05416483          	lwu	s1,84(sp)

000000008000bd34 <i_11691>:
    8000bd34:	017bb3b3          	sltu	t2,s7,s7

000000008000bd38 <i_11692>:
    8000bd38:	17c15b83          	lhu	s7,380(sp)

000000008000bd3c <i_11693>:
    8000bd3c:	11713c23          	sd	s7,280(sp)

000000008000bd40 <i_11694>:
    8000bd40:	037e8ebb          	mulw	t4,t4,s7

000000008000bd44 <i_11695>:
    8000bd44:	0e110b83          	lb	s7,225(sp)

000000008000bd48 <i_11696>:
    8000bd48:	402edd9b          	sraiw	s11,t4,0x2

000000008000bd4c <i_11697>:
    8000bd4c:	daabac93          	slti	s9,s7,-598

000000008000bd50 <i_11698>:
    8000bd50:	037b9063          	bne	s7,s7,8000bd70 <i_11706>

000000008000bd54 <i_11699>:
    8000bd54:	003e9b93          	slli	s7,t4,0x3

000000008000bd58 <i_11700>:
    8000bd58:	09710623          	sb	s7,140(sp)

000000008000bd5c <i_11701>:
    8000bd5c:	e3812c83          	lw	s9,-456(sp)

000000008000bd60 <i_11702>:
    8000bd60:	fd013b83          	ld	s7,-48(sp)

000000008000bd64 <i_11703>:
    8000bd64:	1e211b83          	lh	s7,482(sp)

000000008000bd68 <i_11704>:
    8000bd68:	03e36f33          	rem	t5,t1,t5

000000008000bd6c <i_11705>:
    8000bd6c:	ede14b83          	lbu	s7,-290(sp)

000000008000bd70 <i_11706>:
    8000bd70:	017a9a63          	bne	s5,s7,8000bd84 <i_11711>

000000008000bd74 <i_11707>:
    8000bd74:	03ee4263          	blt	t3,t5,8000bd98 <i_11716>

000000008000bd78 <i_11708>:
    8000bd78:	030d6063          	bltu	s10,a6,8000bd98 <i_11716>

000000008000bd7c <i_11709>:
    8000bd7c:	f1e101a3          	sb	t5,-253(sp)

000000008000bd80 <i_11710>:
    8000bd80:	fcc12c83          	lw	s9,-52(sp)

000000008000bd84 <i_11711>:
    8000bd84:	1b6be393          	ori	t2,s7,438

000000008000bd88 <i_11712>:
    8000bd88:	f9012e23          	sw	a6,-100(sp)

000000008000bd8c <i_11713>:
    8000bd8c:	97e3bb97          	auipc	s7,0x97e3b

000000008000bd90 <i_11714>:
    8000bd90:	e9214403          	lbu	s0,-366(sp)

000000008000bd94 <i_11715>:
    8000bd94:	00839e63          	bne	t2,s0,8000bdb0 <i_11722>

000000008000bd98 <i_11716>:
    8000bd98:	0393aeb3          	mulhsu	t4,t2,s9

000000008000bd9c <i_11717>:
    8000bd9c:	01d39e63          	bne	t2,t4,8000bdb8 <i_11724>

000000008000bda0 <i_11718>:
    8000bda0:	ec212a23          	sw	sp,-300(sp)

000000008000bda4 <i_11719>:
    8000bda4:	e7711023          	sh	s7,-416(sp)

000000008000bda8 <i_11720>:
    8000bda8:	00000013          	nop

000000008000bdac <i_11721>:
    8000bdac:	44d4839b          	addiw	t2,s1,1101

000000008000bdb0 <i_11722>:
    8000bdb0:	00000013          	nop

000000008000bdb4 <i_11723>:
    8000bdb4:	15013803          	ld	a6,336(sp)

000000008000bdb8 <i_11724>:
    8000bdb8:	04412083          	lw	ra,68(sp)

000000008000bdbc <i_11725>:
    8000bdbc:	e8614083          	lbu	ra,-378(sp)

000000008000bdc0 <i_11726>:
    8000bdc0:	8cb00493          	li	s1,-1845

000000008000bdc4 <i_11727>:
    8000bdc4:	8d300d13          	li	s10,-1837

000000008000bdc8 <i_11728>:
    8000bdc8:	e2416083          	lwu	ra,-476(sp)

000000008000bdcc <i_11729>:
    8000bdcc:	00148493          	addi	s1,s1,1 # e68707dd <_end+0x668603c9>
    8000bdd0:	fe9d5ce3          	ble	s1,s10,8000bdc8 <i_11728>

000000008000bdd4 <i_11730>:
    8000bdd4:	3aa22413          	slti	s0,tp,938

000000008000bdd8 <i_11731>:
    8000bdd8:	ff013e83          	ld	t4,-16(sp)

000000008000bddc <i_11732>:
    8000bddc:	3641a493          	slti	s1,gp,868

000000008000bde0 <i_11733>:
    8000bde0:	8d370093          	addi	ra,a4,-1837

000000008000bde4 <i_11734>:
    8000bde4:	01def263          	bleu	t4,t4,8000bde8 <i_11735>

000000008000bde8 <i_11735>:
    8000bde8:	f9b10e83          	lb	t4,-101(sp)

000000008000bdec <i_11736>:
    8000bdec:	19813483          	ld	s1,408(sp)

000000008000bdf0 <i_11737>:
    8000bdf0:	01600813          	li	a6,22

000000008000bdf4 <i_11738>:
    8000bdf4:	410e5e3b          	sraw	t3,t3,a6

000000008000bdf8 <i_11739>:
    8000bdf8:	001e5d13          	srli	s10,t3,0x1

000000008000bdfc <i_11740>:
    8000bdfc:	8edd2493          	slti	s1,s10,-1811

000000008000be00 <i_11741>:
    8000be00:	00000013          	nop

000000008000be04 <i_11742>:
    8000be04:	88a00e93          	li	t4,-1910

000000008000be08 <i_11743>:
    8000be08:	89d00413          	li	s0,-1891

000000008000be0c <i_11744>:
    8000be0c:	0ae15c83          	lhu	s9,174(sp)

000000008000be10 <i_11745>:
    8000be10:	0bd14b83          	lbu	s7,189(sp)

000000008000be14 <i_11746>:
    8000be14:	09d14e03          	lbu	t3,157(sp)

000000008000be18 <i_11747>:
    8000be18:	00251513          	slli	a0,a0,0x2

000000008000be1c <i_11748>:
    8000be1c:	79600813          	li	a6,1942

000000008000be20 <i_11749>:
    8000be20:	79a00b93          	li	s7,1946

000000008000be24 <i_11750>:
    8000be24:	e7610e03          	lb	t3,-394(sp)

000000008000be28 <i_11751>:
    8000be28:	e5711b23          	sh	s7,-426(sp)

000000008000be2c <i_11752>:
    8000be2c:	1de15083          	lhu	ra,478(sp)

000000008000be30 <i_11753>:
    8000be30:	13013203          	ld	tp,304(sp)

000000008000be34 <i_11754>:
    8000be34:	07c12d03          	lw	s10,124(sp)

000000008000be38 <i_11755>:
    8000be38:	00000013          	nop

000000008000be3c <i_11756>:
    8000be3c:	00180813          	addi	a6,a6,1
    8000be40:	ff7862e3          	bltu	a6,s7,8000be24 <i_11750>

000000008000be44 <i_11757>:
    8000be44:	021b9463          	bne	s7,ra,8000be6c <i_11766>

000000008000be48 <i_11758>:
    8000be48:	001e8e93          	addi	t4,t4,1
    8000be4c:	fdd450e3          	ble	t4,s0,8000be0c <i_11744>

000000008000be50 <i_11759>:
    8000be50:	0290f463          	bleu	s1,ra,8000be78 <i_11769>

000000008000be54 <i_11760>:
    8000be54:	07614383          	lbu	t2,118(sp)

000000008000be58 <i_11761>:
    8000be58:	01099c63          	bne	s3,a6,8000be70 <i_11767>

000000008000be5c <i_11762>:
    8000be5c:	03015b03          	lhu	s6,48(sp)

000000008000be60 <i_11763>:
    8000be60:	e2bcc193          	xori	gp,s9,-469

000000008000be64 <i_11764>:
    8000be64:	1d613023          	sd	s6,448(sp)

000000008000be68 <i_11765>:
    8000be68:	ad5e0093          	addi	ra,t3,-1323

000000008000be6c <i_11766>:
    8000be6c:	07211d83          	lh	s11,114(sp)

000000008000be70 <i_11767>:
    8000be70:	09013c83          	ld	s9,144(sp)

000000008000be74 <i_11768>:
    8000be74:	1bb12223          	sw	s11,420(sp)

000000008000be78 <i_11769>:
    8000be78:	19b10da3          	sb	s11,411(sp)

000000008000be7c <i_11770>:
    8000be7c:	e3416e83          	lwu	t4,-460(sp)

000000008000be80 <i_11771>:
    8000be80:	79500b93          	li	s7,1941

000000008000be84 <i_11772>:
    8000be84:	79c00693          	li	a3,1948

000000008000be88 <i_11773>:
    8000be88:	001b8b93          	addi	s7,s7,1 # 17e46d8d <main-0x681b9273>
    8000be8c:	fedb9ee3          	bne	s7,a3,8000be88 <i_11773>

000000008000be90 <i_11774>:
    8000be90:	01bd8db3          	add	s11,s11,s11

000000008000be94 <i_11775>:
    8000be94:	fbc16d83          	lwu	s11,-68(sp)

000000008000be98 <i_11776>:
    8000be98:	e7b13c23          	sd	s11,-392(sp)

000000008000be9c <i_11777>:
    8000be9c:	3f6ee093          	ori	ra,t4,1014

000000008000bea0 <i_11778>:
    8000bea0:	ff710d83          	lb	s11,-9(sp)

000000008000bea4 <i_11779>:
    8000bea4:	c7a34d93          	xori	s11,t1,-902

000000008000bea8 <i_11780>:
    8000bea8:	01b10823          	sb	s11,16(sp)

000000008000beac <i_11781>:
    8000beac:	0210c333          	div	t1,ra,ra

000000008000beb0 <i_11782>:
    8000beb0:	11411083          	lh	ra,276(sp)

000000008000beb4 <i_11783>:
    8000beb4:	021354b3          	divu	s1,t1,ra

000000008000beb8 <i_11784>:
    8000beb8:	fc416083          	lwu	ra,-60(sp)

000000008000bebc <i_11785>:
    8000bebc:	01300493          	li	s1,19

000000008000bec0 <i_11786>:
    8000bec0:	009092bb          	sllw	t0,ra,s1

000000008000bec4 <i_11787>:
    8000bec4:	e2314083          	lbu	ra,-477(sp)

000000008000bec8 <i_11788>:
    8000bec8:	e6f11c23          	sh	a5,-392(sp)

000000008000becc <i_11789>:
    8000becc:	f5211623          	sh	s2,-180(sp)

000000008000bed0 <i_11790>:
    8000bed0:	02400413          	li	s0,36

000000008000bed4 <i_11791>:
    8000bed4:	00881bb3          	sll	s7,a6,s0

000000008000bed8 <i_11792>:
    8000bed8:	1e013783          	ld	a5,480(sp)

000000008000bedc <i_11793>:
    8000bedc:	00600793          	li	a5,6

000000008000bee0 <i_11794>:
    8000bee0:	00f2d63b          	srlw	a2,t0,a5

000000008000bee4 <i_11795>:
    8000bee4:	04013603          	ld	a2,64(sp)

000000008000bee8 <i_11796>:
    8000bee8:	20766093          	ori	ra,a2,519

000000008000beec <i_11797>:
    8000beec:	02108063          	beq	ra,ra,8000bf0c <i_11805>

000000008000bef0 <i_11798>:
    8000bef0:	1e412e03          	lw	t3,484(sp)

000000008000bef4 <i_11799>:
    8000bef4:	f1860613          	addi	a2,a2,-232

000000008000bef8 <i_11800>:
    8000bef8:	1b416c03          	lwu	s8,436(sp)

000000008000befc <i_11801>:
    8000befc:	17710503          	lb	a0,375(sp)

000000008000bf00 <i_11802>:
    8000bf00:	ed016c03          	lwu	s8,-304(sp)

000000008000bf04 <i_11803>:
    8000bf04:	f3410383          	lb	t2,-204(sp)

000000008000bf08 <i_11804>:
    8000bf08:	00fb9863          	bne	s7,a5,8000bf18 <i_11808>

000000008000bf0c <i_11805>:
    8000bf0c:	09813023          	sd	s8,128(sp)

000000008000bf10 <i_11806>:
    8000bf10:	03866263          	bltu	a2,s8,8000bf34 <i_11815>

000000008000bf14 <i_11807>:
    8000bf14:	0e816083          	lwu	ra,232(sp)

000000008000bf18 <i_11808>:
    8000bf18:	00012783          	lw	a5,0(sp)

000000008000bf1c <i_11809>:
    8000bf1c:	00109863          	bne	ra,ra,8000bf2c <i_11813>

000000008000bf20 <i_11810>:
    8000bf20:	15c11a23          	sh	t3,340(sp)

000000008000bf24 <i_11811>:
    8000bf24:	16013e03          	ld	t3,352(sp)

000000008000bf28 <i_11812>:
    8000bf28:	f7013803          	ld	a6,-144(sp)

000000008000bf2c <i_11813>:
    8000bf2c:	01d00d93          	li	s11,29

000000008000bf30 <i_11814>:
    8000bf30:	01b853bb          	srlw	t2,a6,s11

000000008000bf34 <i_11815>:
    8000bf34:	0167fc63          	bleu	s6,a5,8000bf4c <i_11821>

000000008000bf38 <i_11816>:
    8000bf38:	03cf0263          	beq	t5,t3,8000bf5c <i_11825>

000000008000bf3c <i_11817>:
    8000bf3c:	03cdd233          	divu	tp,s11,t3

000000008000bf40 <i_11818>:
    8000bf40:	e9314183          	lbu	gp,-365(sp)

000000008000bf44 <i_11819>:
    8000bf44:	023237b3          	mulhu	a5,tp,gp

000000008000bf48 <i_11820>:
    8000bf48:	12411623          	sh	tp,300(sp)

000000008000bf4c <i_11821>:
    8000bf4c:	01b20e63          	beq	tp,s11,8000bf68 <i_11828>

000000008000bf50 <i_11822>:
    8000bf50:	6197821b          	addiw	tp,a5,1561

000000008000bf54 <i_11823>:
    8000bf54:	0241f6bb          	remuw	a3,gp,tp

000000008000bf58 <i_11824>:
    8000bf58:	f6314b83          	lbu	s7,-157(sp)

000000008000bf5c <i_11825>:
    8000bf5c:	0177e863          	bltu	a5,s7,8000bf6c <i_11829>

000000008000bf60 <i_11826>:
    8000bf60:	417bb193          	sltiu	gp,s7,1047

000000008000bf64 <i_11827>:
    8000bf64:	037bfbb3          	remu	s7,s7,s7

000000008000bf68 <i_11828>:
    8000bf68:	1c313c23          	sd	gp,472(sp)

000000008000bf6c <i_11829>:
    8000bf6c:	1bc16a83          	lwu	s5,444(sp)

000000008000bf70 <i_11830>:
    8000bf70:	417b8bb3          	sub	s7,s7,s7

000000008000bf74 <i_11831>:
    8000bf74:	016b8463          	beq	s7,s6,8000bf7c <i_11833>

000000008000bf78 <i_11832>:
    8000bf78:	0f713823          	sd	s7,240(sp)

000000008000bf7c <i_11833>:
    8000bf7c:	0291b4b3          	mulhu	s1,gp,s1

000000008000bf80 <i_11834>:
    8000bf80:	00500293          	li	t0,5

000000008000bf84 <i_11835>:
    8000bf84:	005b9bbb          	sllw	s7,s7,t0

000000008000bf88 <i_11836>:
    8000bf88:	f5812b83          	lw	s7,-168(sp)

000000008000bf8c <i_11837>:
    8000bf8c:	10016d03          	lwu	s10,256(sp)

000000008000bf90 <i_11838>:
    8000bf90:	e9a12223          	sw	s10,-380(sp)

000000008000bf94 <i_11839>:
    8000bf94:	0e4105a3          	sb	tp,235(sp)

000000008000bf98 <i_11840>:
    8000bf98:	014ffa63          	bleu	s4,t6,8000bfac <i_11845>

000000008000bf9c <i_11841>:
    8000bf9c:	ffa12c23          	sw	s10,-8(sp)

000000008000bfa0 <i_11842>:
    8000bfa0:	03fd2bb3          	mulhsu	s7,s10,t6

000000008000bfa4 <i_11843>:
    8000bfa4:	03a2fa33          	remu	s4,t0,s10

000000008000bfa8 <i_11844>:
    8000bfa8:	ff416b83          	lwu	s7,-12(sp)

000000008000bfac <i_11845>:
    8000bfac:	00000013          	nop

000000008000bfb0 <i_11846>:
    8000bfb0:	ef612e23          	sw	s6,-260(sp)

000000008000bfb4 <i_11847>:
    8000bfb4:	89b00193          	li	gp,-1893

000000008000bfb8 <i_11848>:
    8000bfb8:	8a500b13          	li	s6,-1883

000000008000bfbc <i_11849>:
    8000bfbc:	1c211b83          	lh	s7,450(sp)

000000008000bfc0 <i_11850>:
    8000bfc0:	00118193          	addi	gp,gp,1
    8000bfc4:	ff61cce3          	blt	gp,s6,8000bfbc <i_11849>

000000008000bfc8 <i_11851>:
    8000bfc8:	ff311323          	sh	s3,-26(sp)

000000008000bfcc <i_11852>:
    8000bfcc:	12215683          	lhu	a3,290(sp)

000000008000bfd0 <i_11853>:
    8000bfd0:	e4c14983          	lbu	s3,-436(sp)

000000008000bfd4 <i_11854>:
    8000bfd4:	09214683          	lbu	a3,146(sp)

000000008000bfd8 <i_11855>:
    8000bfd8:	e1a6de17          	auipc	t3,0xe1a6d

000000008000bfdc <i_11856>:
    8000bfdc:	04615203          	lhu	tp,70(sp)

000000008000bfe0 <i_11857>:
    8000bfe0:	ef813e03          	ld	t3,-264(sp)

000000008000bfe4 <i_11858>:
    8000bfe4:	f6412e03          	lw	t3,-156(sp)

000000008000bfe8 <i_11859>:
    8000bfe8:	10d11123          	sh	a3,258(sp)

000000008000bfec <i_11860>:
    8000bfec:	f2615603          	lhu	a2,-218(sp)

000000008000bff0 <i_11861>:
    8000bff0:	19d7879b          	addiw	a5,a5,413

000000008000bff4 <i_11862>:
    8000bff4:	e4d11b23          	sh	a3,-426(sp)

000000008000bff8 <i_11863>:
    8000bff8:	02d5d2b3          	divu	t0,a1,a3

000000008000bffc <i_11864>:
    8000bffc:	40165c9b          	sraiw	s9,a2,0x1

000000008000c000 <i_11865>:
    8000c000:	00400193          	li	gp,4

000000008000c004 <i_11866>:
    8000c004:	4032d9bb          	sraw	s3,t0,gp

000000008000c008 <i_11867>:
    8000c008:	1cd11d23          	sh	a3,474(sp)

000000008000c00c <i_11868>:
    8000c00c:	16611283          	lh	t0,358(sp)

000000008000c010 <i_11869>:
    8000c010:	0b913823          	sd	s9,176(sp)

000000008000c014 <i_11870>:
    8000c014:	0032d393          	srli	t2,t0,0x3

000000008000c018 <i_11871>:
    8000c018:	0193f463          	bleu	s9,t2,8000c020 <i_11873>

000000008000c01c <i_11872>:
    8000c01c:	0193ce63          	blt	t2,s9,8000c038 <i_11879>

000000008000c020 <i_11873>:
    8000c020:	027c9063          	bne	s9,t2,8000c040 <i_11881>

000000008000c024 <i_11874>:
    8000c024:	00d00e13          	li	t3,13

000000008000c028 <i_11875>:
    8000c028:	01c0da3b          	srlw	s4,ra,t3

000000008000c02c <i_11876>:
    8000c02c:	0300f0bb          	remuw	ra,ra,a6

000000008000c030 <i_11877>:
    8000c030:	ed211083          	lh	ra,-302(sp)

000000008000c034 <i_11878>:
    8000c034:	f3e4f493          	andi	s1,s1,-194

000000008000c038 <i_11879>:
    8000c038:	ec615683          	lhu	a3,-314(sp)

000000008000c03c <i_11880>:
    8000c03c:	00d0fa63          	bleu	a3,ra,8000c050 <i_11885>

000000008000c040 <i_11881>:
    8000c040:	414080b3          	sub	ra,ra,s4

000000008000c044 <i_11882>:
    8000c044:	0096c463          	blt	a3,s1,8000c04c <i_11884>

000000008000c048 <i_11883>:
    8000c048:	1d816a03          	lwu	s4,472(sp)

000000008000c04c <i_11884>:
    8000c04c:	f3016183          	lwu	gp,-208(sp)

000000008000c050 <i_11885>:
    8000c050:	e9015d03          	lhu	s10,-368(sp)

000000008000c054 <i_11886>:
    8000c054:	fcf11623          	sh	a5,-52(sp)

000000008000c058 <i_11887>:
    8000c058:	0295783b          	remuw	a6,a0,s1

000000008000c05c <i_11888>:
    8000c05c:	fa816c83          	lwu	s9,-88(sp)

000000008000c060 <i_11889>:
    8000c060:	02600413          	li	s0,38

000000008000c064 <i_11890>:
    8000c064:	008694b3          	sll	s1,a3,s0

000000008000c068 <i_11891>:
    8000c068:	02400993          	li	s3,36

000000008000c06c <i_11892>:
    8000c06c:	41385c33          	sra	s8,a6,s3

000000008000c070 <i_11893>:
    8000c070:	18813c03          	ld	s8,392(sp)

000000008000c074 <i_11894>:
    8000c074:	e4013b83          	ld	s7,-448(sp)

000000008000c078 <i_11895>:
    8000c078:	01885e63          	ble	s8,a6,8000c094 <i_11902>

000000008000c07c <i_11896>:
    8000c07c:	0084ec63          	bltu	s1,s0,8000c094 <i_11902>

000000008000c080 <i_11897>:
    8000c080:	0134f6b3          	and	a3,s1,s3

000000008000c084 <i_11898>:
    8000c084:	010cfa63          	bleu	a6,s9,8000c098 <i_11903>

000000008000c088 <i_11899>:
    8000c088:	408c86b3          	sub	a3,s9,s0

000000008000c08c <i_11900>:
    8000c08c:	f3812c83          	lw	s9,-200(sp)

000000008000c090 <i_11901>:
    8000c090:	04d11823          	sh	a3,80(sp)

000000008000c094 <i_11902>:
    8000c094:	fb911b23          	sh	s9,-74(sp)

000000008000c098 <i_11903>:
    8000c098:	18d12823          	sw	a3,400(sp)

000000008000c09c <i_11904>:
    8000c09c:	1dd14483          	lbu	s1,477(sp)

000000008000c0a0 <i_11905>:
    8000c0a0:	01e6c863          	blt	a3,t5,8000c0b0 <i_11909>

000000008000c0a4 <i_11906>:
    8000c0a4:	ed810683          	lb	a3,-296(sp)

000000008000c0a8 <i_11907>:
    8000c0a8:	402cde13          	srai	t3,s9,0x2

000000008000c0ac <i_11908>:
    8000c0ac:	40dc82b3          	sub	t0,s9,a3

000000008000c0b0 <i_11909>:
    8000c0b0:	02012683          	lw	a3,32(sp)

000000008000c0b4 <i_11910>:
    8000c0b4:	f7013c83          	ld	s9,-144(sp)

000000008000c0b8 <i_11911>:
    8000c0b8:	0392cbbb          	divw	s7,t0,s9

000000008000c0bc <i_11912>:
    8000c0bc:	039cd263          	ble	s9,s9,8000c0e0 <i_11921>

000000008000c0c0 <i_11913>:
    8000c0c0:	03784833          	div	a6,a6,s7

000000008000c0c4 <i_11914>:
    8000c0c4:	e60336b7          	lui	a3,0xe6033

000000008000c0c8 <i_11915>:
    8000c0c8:	40d80833          	sub	a6,a6,a3

000000008000c0cc <i_11916>:
    8000c0cc:	14013083          	ld	ra,320(sp)

000000008000c0d0 <i_11917>:
    8000c0d0:	03086063          	bltu	a6,a6,8000c0f0 <i_11925>

000000008000c0d4 <i_11918>:
    8000c0d4:	00169f1b          	slliw	t5,a3,0x1

000000008000c0d8 <i_11919>:
    8000c0d8:	001f6463          	bltu	t5,ra,8000c0e0 <i_11921>

000000008000c0dc <i_11920>:
    8000c0dc:	05012083          	lw	ra,80(sp)

000000008000c0e0 <i_11921>:
    8000c0e0:	d690841b          	addiw	s0,ra,-663

000000008000c0e4 <i_11922>:
    8000c0e4:	50582393          	slti	t2,a6,1285

000000008000c0e8 <i_11923>:
    8000c0e8:	00000013          	nop

000000008000c0ec <i_11924>:
    8000c0ec:	00c00993          	li	s3,12

000000008000c0f0 <i_11925>:
    8000c0f0:	01349bb3          	sll	s7,s1,s3

000000008000c0f4 <i_11926>:
    8000c0f4:	f6813c03          	ld	s8,-152(sp)

000000008000c0f8 <i_11927>:
    8000c0f8:	82c00a13          	li	s4,-2004

000000008000c0fc <i_11928>:
    8000c0fc:	83500693          	li	a3,-1995

000000008000c100 <i_11929>:
    8000c100:	efc12803          	lw	a6,-260(sp)

000000008000c104 <i_11930>:
    8000c104:	03ea4263          	blt	s4,t5,8000c128 <i_11939>

000000008000c108 <i_11931>:
    8000c108:	ef012823          	sw	a6,-272(sp)

000000008000c10c <i_11932>:
    8000c10c:	0379f9bb          	remuw	s3,s3,s7

000000008000c110 <i_11933>:
    8000c110:	f3810223          	sb	s8,-220(sp)

000000008000c114 <i_11934>:
    8000c114:	016b3833          	sltu	a6,s6,s6

000000008000c118 <i_11935>:
    8000c118:	fc910483          	lb	s1,-55(sp)

000000008000c11c <i_11936>:
    8000c11c:	0104c263          	blt	s1,a6,8000c120 <i_11937>

000000008000c120 <i_11937>:
    8000c120:	ec812c03          	lw	s8,-312(sp)

000000008000c124 <i_11938>:
    8000c124:	fc911723          	sh	s1,-50(sp)

000000008000c128 <i_11939>:
    8000c128:	030c0063          	beq	s8,a6,8000c148 <i_11946>

000000008000c12c <i_11940>:
    8000c12c:	0306f263          	bleu	a6,a3,8000c150 <i_11948>

000000008000c130 <i_11941>:
    8000c130:	001a0a13          	addi	s4,s4,1
    8000c134:	fcda16e3          	bne	s4,a3,8000c100 <i_11929>

000000008000c138 <i_11942>:
    8000c138:	01700593          	li	a1,23

000000008000c13c <i_11943>:
    8000c13c:	00b49abb          	sllw	s5,s1,a1

000000008000c140 <i_11944>:
    8000c140:	03058063          	beq	a1,a6,8000c160 <i_11952>

000000008000c144 <i_11945>:
    8000c144:	6d0b4997          	auipc	s3,0x6d0b4

000000008000c148 <i_11946>:
    8000c148:	a80e5317          	auipc	t1,0xa80e5

000000008000c14c <i_11947>:
    8000c14c:	04b12e23          	sw	a1,92(sp)

000000008000c150 <i_11948>:
    8000c150:	ff710803          	lb	a6,-9(sp)

000000008000c154 <i_11949>:
    8000c154:	03725bbb          	divuw	s7,tp,s7

000000008000c158 <i_11950>:
    8000c158:	e4c16583          	lwu	a1,-436(sp)

000000008000c15c <i_11951>:
    8000c15c:	03400593          	li	a1,52

000000008000c160 <i_11952>:
    8000c160:	40bbd5b3          	sra	a1,s7,a1

000000008000c164 <i_11953>:
    8000c164:	11416183          	lwu	gp,276(sp)

000000008000c168 <i_11954>:
    8000c168:	0fa11e03          	lh	t3,250(sp)

000000008000c16c <i_11955>:
    8000c16c:	aa80b093          	sltiu	ra,ra,-1368

000000008000c170 <i_11956>:
    8000c170:	00000013          	nop

000000008000c174 <i_11957>:
    8000c174:	7e200593          	li	a1,2018

000000008000c178 <i_11958>:
    8000c178:	7e800393          	li	t2,2024

000000008000c17c <i_11959>:
    8000c17c:	e8710e03          	lb	t3,-377(sp)

000000008000c180 <i_11960>:
    8000c180:	eac11403          	lh	s0,-340(sp)

000000008000c184 <i_11961>:
    8000c184:	00c0e863          	bltu	ra,a2,8000c194 <i_11965>

000000008000c188 <i_11962>:
    8000c188:	02809663          	bne	ra,s0,8000c1b4 <i_11972>

000000008000c18c <i_11963>:
    8000c18c:	00000013          	nop

000000008000c190 <i_11964>:
    8000c190:	00000013          	nop

000000008000c194 <i_11965>:
    8000c194:	0e016d03          	lwu	s10,224(sp)

000000008000c198 <i_11966>:
    8000c198:	09813b03          	ld	s6,152(sp)

000000008000c19c <i_11967>:
    8000c19c:	02eb1063          	bne	s6,a4,8000c1bc <i_11974>

000000008000c1a0 <i_11968>:
    8000c1a0:	00158593          	addi	a1,a1,1
    8000c1a4:	fcb3dce3          	ble	a1,t2,8000c17c <i_11959>

000000008000c1a8 <i_11969>:
    8000c1a8:	e3411423          	sh	s4,-472(sp)

000000008000c1ac <i_11970>:
    8000c1ac:	0e613823          	sd	t1,240(sp)

000000008000c1b0 <i_11971>:
    8000c1b0:	ca1b4e13          	xori	t3,s6,-863

000000008000c1b4 <i_11972>:
    8000c1b4:	00810c83          	lb	s9,8(sp)

000000008000c1b8 <i_11973>:
    8000c1b8:	01ce5a63          	ble	t3,t3,8000c1cc <i_11978>

000000008000c1bc <i_11974>:
    8000c1bc:	eba10f23          	sb	s10,-322(sp)

000000008000c1c0 <i_11975>:
    8000c1c0:	ea412e03          	lw	t3,-348(sp)

000000008000c1c4 <i_11976>:
    8000c1c4:	41a085bb          	subw	a1,ra,s10

000000008000c1c8 <i_11977>:
    8000c1c8:	003e5e13          	srli	t3,t3,0x3

000000008000c1cc <i_11978>:
    8000c1cc:	03a0f463          	bleu	s10,ra,8000c1f4 <i_11988>

000000008000c1d0 <i_11979>:
    8000c1d0:	00b00793          	li	a5,11

000000008000c1d4 <i_11980>:
    8000c1d4:	40fe5e3b          	sraw	t3,t3,a5

000000008000c1d8 <i_11981>:
    8000c1d8:	e5a10e03          	lb	t3,-422(sp)

000000008000c1dc <i_11982>:
    8000c1dc:	17112223          	sw	a7,356(sp)

000000008000c1e0 <i_11983>:
    8000c1e0:	fa411583          	lh	a1,-92(sp)

000000008000c1e4 <i_11984>:
    8000c1e4:	01c5da63          	ble	t3,a1,8000c1f8 <i_11989>

000000008000c1e8 <i_11985>:
    8000c1e8:	033e39b3          	mulhu	s3,t3,s3

000000008000c1ec <i_11986>:
    8000c1ec:	08b11723          	sh	a1,142(sp)

000000008000c1f0 <i_11987>:
    8000c1f0:	00400a13          	li	s4,4

000000008000c1f4 <i_11988>:
    8000c1f4:	414bd7bb          	sraw	a5,s7,s4

000000008000c1f8 <i_11989>:
    8000c1f8:	fe914b83          	lbu	s7,-23(sp)

000000008000c1fc <i_11990>:
    8000c1fc:	f97106a3          	sb	s7,-115(sp)

000000008000c200 <i_11991>:
    8000c200:	014b8bb3          	add	s7,s7,s4

000000008000c204 <i_11992>:
    8000c204:	017bc863          	blt	s7,s7,8000c214 <i_11996>

000000008000c208 <i_11993>:
    8000c208:	017bd263          	ble	s7,s7,8000c20c <i_11994>

000000008000c20c <i_11994>:
    8000c20c:	004b979b          	slliw	a5,s7,0x4

000000008000c210 <i_11995>:
    8000c210:	00f7fe63          	bleu	a5,a5,8000c22c <i_12002>

000000008000c214 <i_11996>:
    8000c214:	00900213          	li	tp,9

000000008000c218 <i_11997>:
    8000c218:	004e1e3b          	sllw	t3,t3,tp

000000008000c21c <i_11998>:
    8000c21c:	e7416803          	lwu	a6,-396(sp)

000000008000c220 <i_11999>:
    8000c220:	f1c10a23          	sb	t3,-236(sp)

000000008000c224 <i_12000>:
    8000c224:	00000013          	nop

000000008000c228 <i_12001>:
    8000c228:	00000013          	nop

000000008000c22c <i_12002>:
    8000c22c:	00000013          	nop

000000008000c230 <i_12003>:
    8000c230:	00000013          	nop

000000008000c234 <i_12004>:
    8000c234:	00000013          	nop

000000008000c238 <i_12005>:
    8000c238:	00000013          	nop

000000008000c23c <i_12006>:
    8000c23c:	00000013          	nop

000000008000c240 <i_12007>:
    8000c240:	00000013          	nop

000000008000c244 <i_12008>:
    8000c244:	00000013          	nop

000000008000c248 <i_12009>:
    8000c248:	00000013          	nop
    8000c24c:	0040006f          	j	8000c250 <tohost_exit>

000000008000c250 <tohost_exit>:
    8000c250:	00100113          	li	sp,1
    8000c254:	01f11113          	slli	sp,sp,0x1f
    8000c258:	000101b7          	lui	gp,0x10
    8000c25c:	00310133          	add	sp,sp,gp
    8000c260:	00100713          	li	a4,1
    8000c264:	40e12023          	sw	a4,1024(sp)

000000008000c268 <loop>:
    8000c268:	0000006f          	j	8000c268 <loop>
	...

Disassembly of section .data:

0000000080010000 <data>:
    80010000:	8dfc                	0x8dfc
    80010002:	a37d                	j	800105b0 <_end+0x19c>
    80010004:	24a0c5b3          	0x24a0c5b3
    80010008:	0f50c1e7          	0xf50c1e7
    8001000c:	fbc9                	bnez	a5,8000ff9e <loop+0x3d36>
    8001000e:	8a68                	0x8a68
    80010010:	22f4                	fld	fa3,192(a3)
    80010012:	2dcaceb3          	0x2dcaceb3
    80010016:	46d0                	lw	a2,12(a3)
    80010018:	14156807          	0x14156807
    8001001c:	4b31                	li	s6,12
    8001001e:	d380a237          	lui	tp,0xd380a
    80010022:	e574                	sd	a3,200(a0)
    80010024:	5496c4bf 5b97ff75 	0x5b97ff755496c4bf
    8001002c:	dd8a                	sw	sp,248(sp)
    8001002e:	fcc1                	bnez	s1,8000ffc6 <loop+0x3d5e>
    80010030:	9db0                	0x9db0
    80010032:	4ed4                	lw	a3,28(a3)
    80010034:	1ee8                	addi	a0,sp,892
    80010036:	ec40                	sd	s0,152(s0)
    80010038:	a0ba                	fsd	fa4,64(sp)
    8001003a:	ae3e                	fsd	fa5,280(sp)
    8001003c:	32274a57          	0x32274a57
    80010040:	77ee                	ld	a5,248(sp)
    80010042:	625d                	lui	tp,0x17
    80010044:	c57f                	0xc57f
    80010046:	f8c0                	sd	s0,176(s1)
    80010048:	00f0                	addi	a2,sp,76
    8001004a:	e19e                	sd	t2,192(sp)
    8001004c:	f76ce707          	0xf76ce707
    80010050:	a5f9                	j	8001071e <_end+0x30a>
    80010052:	b9f6                	fsd	ft9,240(sp)
    80010054:	ea3a                	sd	a4,272(sp)
    80010056:	7750                	ld	a2,168(a4)
    80010058:	4258                	lw	a4,4(a2)
    8001005a:	ace2                	fsd	fs8,88(sp)
    8001005c:	a140                	fsd	fs0,128(a0)
    8001005e:	5854                	lw	a3,52(s0)
    80010060:	8ef9                	and	a3,a3,a4
    80010062:	f639                	bnez	a2,8000ffb0 <loop+0x3d48>
    80010064:	72fd                	lui	t0,0xfffff
    80010066:	0f89a2b7          	lui	t0,0xf89a
    8001006a:	9ea0                	0x9ea0
    8001006c:	176a                	slli	a4,a4,0x3a
    8001006e:	ac70                	fsd	fa2,216(s0)
    80010070:	c6fdd1e7          	0xc6fdd1e7
    80010074:	b798                	fsd	fa4,40(a5)
    80010076:	e849                	bnez	s0,80010108 <data+0x108>
    80010078:	9b8a                	add	s7,s7,sp
    8001007a:	d8ac                	sw	a1,112(s1)
    8001007c:	ed34                	sd	a3,88(a0)
    8001007e:	aeb8                	fsd	fa4,88(a3)
    80010080:	f8d6                	sd	s5,112(sp)
    80010082:	e039                	bnez	s0,800100c8 <data+0xc8>
    80010084:	13a27acb          	fnmsub.d	fs5,ft4,fs10,ft2
    80010088:	fbb9                	bnez	a5,8000ffde <loop+0x3d76>
    8001008a:	f4a0                	sd	s0,104(s1)
    8001008c:	dc1e                	sw	t2,56(sp)
    8001008e:	8f20                	0x8f20
    80010090:	967f                	0x967f
    80010092:	4e02                	lw	t3,0(sp)
    80010094:	ee04                	sd	s1,24(a2)
    80010096:	6d1a                	ld	s10,384(sp)
    80010098:	ae65                	j	80010450 <_end+0x3c>
    8001009a:	37d2                	fld	fa5,304(sp)
    8001009c:	d756                	sw	s5,172(sp)
    8001009e:	fcc9                	bnez	s1,80010038 <data+0x38>
    800100a0:	de22                	sw	s0,60(sp)
    800100a2:	f09e                	sd	t2,96(sp)
    800100a4:	b976                	fsd	ft9,176(sp)
    800100a6:	0d50690f          	0xd50690f
    800100aa:	148da09b          	0x148da09b
    800100ae:	5769                	li	a4,-6
    800100b0:	d3c9                	beqz	a5,80010032 <data+0x32>
    800100b2:	2cb4                	fld	fa3,88(s1)
    800100b4:	9391                	srli	a5,a5,0x24
    800100b6:	68ebff87          	0x68ebff87
    800100ba:	1bb0                	addi	a2,sp,504
    800100bc:	a3597edb          	0xa3597edb
    800100c0:	eb75                	bnez	a4,800101b4 <data+0x1b4>
    800100c2:	bdee                	fsd	fs11,248(sp)
    800100c4:	c046df4f          	fnmadd.s	ft10,fa3,ft4,fs8,unknown
    800100c8:	30a2                	fld	ft1,40(sp)
    800100ca:	76d4                	ld	a3,168(a3)
    800100cc:	b795a197          	auipc	gp,0xb795a
    800100d0:	174074c3          	fmadd.q	fs1,ft0,fs4,ft2
    800100d4:	ceba                	sw	a4,92(sp)
    800100d6:	1788                	addi	a0,sp,992
    800100d8:	b3afef17          	auipc	t5,0xb3afe
    800100dc:	f0ec                	sd	a1,224(s1)
    800100de:	9b8cc0cf          	fnmadd.d	ft1,fs9,fs8,fs3,rmm
    800100e2:	e3c96b0b          	0xe3c96b0b
    800100e6:	a2e4                	fsd	fs1,192(a3)
    800100e8:	52ad                	li	t0,-21
    800100ea:	79deeee7          	0x79deeee7
    800100ee:	3462                	fld	fs0,56(sp)
    800100f0:	b576                	fsd	ft9,168(sp)
    800100f2:	5485                	li	s1,-31
    800100f4:	e6bd                	bnez	a3,80010162 <data+0x162>
    800100f6:	611f 4faa be96      	0xbe964faa611f
    800100fc:	23a44747          	fmsub.d	fa4,fs0,fs10,ft4,rmm
    80010100:	57bd7dbf 9ec0dd11 	0x9ec0dd1157bd7dbf
    80010108:	482e                	lw	a6,200(sp)
    8001010a:	fc5c                	sd	a5,184(s0)
    8001010c:	fbba                	sd	a4,496(sp)
    8001010e:	4f92b83b          	0x4f92b83b
    80010112:	fce1                	bnez	s1,800100ea <data+0xea>
    80010114:	d691                	beqz	a3,80010020 <data+0x20>
    80010116:	3b43bedb          	0x3b43bedb
    8001011a:	1450                	addi	a2,sp,548
    8001011c:	5f02                	lw	t5,32(sp)
    8001011e:	ade9                	j	800107f8 <_end+0x3e4>
    80010120:	dbaa05bb          	0xdbaa05bb
    80010124:	4092                	lw	ra,4(sp)
    80010126:	c409f337          	lui	t1,0xc409f
    8001012a:	29fd                	addiw	s3,s3,31
    8001012c:	b8f2                	fsd	ft8,112(sp)
    8001012e:	c298                	sw	a4,0(a3)
    80010130:	22ee                	fld	ft5,216(sp)
    80010132:	fe52                	sd	s4,312(sp)
    80010134:	d115995b          	0xd115995b
    80010138:	a4e0                	fsd	fs0,200(s1)
    8001013a:	37cd                	addiw	a5,a5,-13
    8001013c:	2455                	addiw	s0,s0,21
    8001013e:	dac4f017          	auipc	zero,0xdac4f
    80010142:	5372                	lw	t1,60(sp)
    80010144:	5d60c29b          	0x5d60c29b
    80010148:	62d2c61b          	0x62d2c61b
    8001014c:	a68a                	fsd	ft2,328(sp)
    8001014e:	7d433c07          	fld	fs8,2004(t1) # ffffffffc409f7d4 <_end+0xffffffff4408f3c0>
    80010152:	982e                	add	a6,a6,a1
    80010154:	edf5                	bnez	a1,80010250 <data+0x250>
    80010156:	1aa2                	slli	s5,s5,0x28
    80010158:	27c2f1fb          	0x27c2f1fb
    8001015c:	4691                	li	a3,4
    8001015e:	1362                	slli	t1,t1,0x38
    80010160:	f2a2                	sd	s0,352(sp)
    80010162:	dae4                	sw	s1,116(a3)
    80010164:	5b99                	li	s7,-26
    80010166:	d2e0                	sw	s0,100(a3)
    80010168:	07de                	slli	a5,a5,0x17
    8001016a:	6a3e                	ld	s4,456(sp)
    8001016c:	a45f e079 0981      	0x981e079a45f
    80010172:	36e2b65b          	0x36e2b65b
    80010176:	32fc                	fld	fa5,224(a3)
    80010178:	2eb4e813          	ori	a6,s1,747
    8001017c:	517e                	lw	sp,252(sp)
    8001017e:	1db4                	addi	a3,sp,760
    80010180:	11b0                	addi	a2,sp,232
    80010182:	b328                	fsd	fa0,96(a4)
    80010184:	4c18                	lw	a4,24(s0)
    80010186:	3906                	fld	fs2,96(sp)
    80010188:	0a5d                	addi	s4,s4,23
    8001018a:	e963f813          	andi	a6,t2,-362
    8001018e:	b5fd                	j	8001007c <data+0x7c>
    80010190:	f365f33b          	0xf365f33b
    80010194:	b3e239d7          	0xb3e239d7
    80010198:	1c45                	addi	s8,s8,-15
    8001019a:	cc8d                	beqz	s1,800101d4 <data+0x1d4>
    8001019c:	97dc                	0x97dc
    8001019e:	31adb47b          	0x31adb47b
    800101a2:	5fc8                	lw	a0,60(a5)
    800101a4:	8558                	0x8558
    800101a6:	361e                	fld	fa2,480(sp)
    800101a8:	40dd                	li	ra,23
    800101aa:	e678                	sd	a4,200(a2)
    800101ac:	c56d                	beqz	a0,80010296 <data+0x296>
    800101ae:	2452                	fld	fs0,272(sp)
    800101b0:	1b92b7cf          	fnmadd.d	fa5,ft5,fs9,ft3,rup
    800101b4:	f092                	sd	tp,96(sp)
    800101b6:	756866d3          	0x756866d3
    800101ba:	4072dda3          	0x4072dda3
    800101be:	8ad40f6f          	jal	t5,7ff50a6a <main-0xaf596>
    800101c2:	116fdfa3          	0x116fdfa3
    800101c6:	54a1d58b          	0x54a1d58b
    800101ca:	087f                	0x87f
    800101cc:	8b88                	0x8b88
    800101ce:	af1a                	fsd	ft6,408(sp)
    800101d0:	8494                	0x8494
    800101d2:	137a                	slli	t1,t1,0x3e
    800101d4:	de68e683          	lwu	a3,-538(a7)
    800101d8:	c446                	sw	a7,8(sp)
    800101da:	50ae                	lw	ra,232(sp)
    800101dc:	b79c                	fsd	fa5,40(a5)
    800101de:	6312                	ld	t1,256(sp)
    800101e0:	8f581f4b          	fnmsub.q	ft10,fa6,fs5,fa7,rtz
    800101e4:	80a9                	srli	s1,s1,0xa
    800101e6:	e254                	sd	a3,128(a2)
    800101e8:	2522                	fld	fa0,8(sp)
    800101ea:	584a                	lw	a6,176(sp)
    800101ec:	28ea                	fld	fa7,152(sp)
    800101ee:	98e1                	andi	s1,s1,-8
    800101f0:	3164                	fld	fs1,224(a0)
    800101f2:	7a20eaaf          	0x7a20eaaf
    800101f6:	0c01d9ef          	jal	s3,8002d2b6 <_end+0x1cea2>
    800101fa:	9c80b66f          	jal	a2,7ff1b3c2 <main-0xe4c3e>
    800101fe:	20a0                	fld	fs0,64(s1)
    80010200:	1e50                	addi	a2,sp,820
    80010202:	3e4c                	fld	fa1,184(a2)
    80010204:	e34a                	sd	s2,384(sp)
    80010206:	bcaf02bf 612ad944 	0x612ad944bcaf02bf
    8001020e:	10dd                	addi	ra,ra,-9
    80010210:	df7d                	beqz	a4,8001020e <data+0x20e>
    80010212:	6a21                	lui	s4,0x8
    80010214:	e552                	sd	s4,136(sp)
    80010216:	2cd0                	fld	fa2,152(s1)
    80010218:	e001                	bnez	s0,80010218 <data+0x218>
    8001021a:	d726                	sw	s1,172(sp)
    8001021c:	3145                	addiw	sp,sp,-15
    8001021e:	7071                	c.lui	zero,0xffffc
    80010220:	4782                	lw	a5,0(sp)
    80010222:	dfe50953          	0xdfe50953
    80010226:	f685                	bnez	a3,8001014e <data+0x14e>
    80010228:	b7ae                	fsd	fa1,488(sp)
    8001022a:	2bb9                	addiw	s7,s7,14
    8001022c:	1754                	addi	a3,sp,932
    8001022e:	fc48e7cf          	0xfc48e7cf
    80010232:	ded6                	sw	s5,124(sp)
    80010234:	6fe4                	ld	s1,216(a5)
    80010236:	2339                	addiw	t1,t1,14
    80010238:	d4b5e87b          	0xd4b5e87b
    8001023c:	34289a7b          	0x34289a7b
    80010240:	a99b23af          	0xa99b23af
    80010244:	a0d6                	fsd	fs5,64(sp)
    80010246:	3102                	fld	ft2,32(sp)
    80010248:	f0f8                	sd	a4,224(s1)
    8001024a:	d9da                	sw	s6,240(sp)
    8001024c:	9a2d                	andi	a2,a2,-21
    8001024e:	c1cf1387          	0xc1cf1387
    80010252:	4958                	lw	a4,20(a0)
    80010254:	ae16                	fsd	ft5,280(sp)
    80010256:	a8f9                	j	80010334 <data+0x334>
    80010258:	3aca                	fld	fs5,176(sp)
    8001025a:	fcd8                	sd	a4,184(s1)
    8001025c:	ed42                	sd	a6,152(sp)
    8001025e:	f9872b3b          	0xf9872b3b
    80010262:	211a                	fld	ft2,384(sp)
    80010264:	46a876a7          	0x46a876a7
    80010268:	40ba78c3          	fmadd.s	fa7,fs4,fa1,fs0
    8001026c:	df892433          	0xdf892433
    80010270:	3c60b607          	fld	fa2,966(ra)
    80010274:	b450                	fsd	fa2,168(s0)
    80010276:	19f8                	addi	a4,sp,252
    80010278:	de78                	sw	a4,124(a2)
    8001027a:	a3e5                	j	80010862 <_end+0x44e>
    8001027c:	22137643          	fmadd.d	fa2,ft6,ft1,ft4
    80010280:	5f031a83          	lh	s5,1520(t1)
    80010284:	7292                	ld	t0,288(sp)
    80010286:	cd7c                	sw	a5,92(a0)
    80010288:	9679                	srai	a2,a2,0x3e
    8001028a:	0658                	addi	a4,sp,772
    8001028c:	b5a4                	fsd	fs1,104(a1)
    8001028e:	7c5a                	ld	s8,432(sp)
    80010290:	d689                	beqz	a3,8001019a <data+0x19a>
    80010292:	6f24                	ld	s1,88(a4)
    80010294:	6048                	ld	a0,128(s0)
    80010296:	8430                	0x8430
    80010298:	e5b3479b          	0xe5b3479b
    8001029c:	6da0                	ld	s0,88(a1)
    8001029e:	123af483          	0x123af483
    800102a2:	ff28                	sd	a0,120(a4)
    800102a4:	bd000077          	0xbd000077
    800102a8:	8985                	andi	a1,a1,1
    800102aa:	488a                	lw	a7,128(sp)
    800102ac:	5b84                	lw	s1,48(a5)
    800102ae:	e6a4                	sd	s1,72(a3)
    800102b0:	b0b9                	j	8000fafe <loop+0x3896>
    800102b2:	0804397b          	0x804397b
    800102b6:	eabe                	sd	a5,336(sp)
    800102b8:	4409                	li	s0,2
    800102ba:	0056                	c.slli	zero,0x15
    800102bc:	0018                	0x18
    800102be:	f5e4                	sd	s1,232(a1)
    800102c0:	6825                	lui	a6,0x9
    800102c2:	7639                	lui	a2,0xfffee
    800102c4:	fa3e                	sd	a5,304(sp)
    800102c6:	2e9f 9b57 5d1a      	0x5d1a9b572e9f
    800102cc:	58b5                	li	a7,-19
    800102ce:	eaf5                	bnez	a3,800103c2 <data+0x3c2>
    800102d0:	ebe0                	sd	s0,208(a5)
    800102d2:	cb0f825b          	0xcb0f825b
    800102d6:	9345                	srli	a4,a4,0x31
    800102d8:	dabe                	sw	a5,116(sp)
    800102da:	e60e                	sd	gp,264(sp)
    800102dc:	9709                	srai	a4,a4,0x22
    800102de:	a388                	fsd	fa0,0(a5)
    800102e0:	a91c                	fsd	fa5,16(a0)
    800102e2:	4358                	lw	a4,4(a4)
    800102e4:	3d64                	fld	fs1,248(a0)
    800102e6:	de03888b          	0xde03888b
    800102ea:	9946                	add	s2,s2,a7
    800102ec:	8524                	0x8524
    800102ee:	53e2                	lw	t2,56(sp)
    800102f0:	ed7f                	0xed7f
    800102f2:	0636                	slli	a2,a2,0xd
    800102f4:	8f10                	0x8f10
    800102f6:	a63eb4fb          	0xa63eb4fb
    800102fa:	92c0                	0x92c0
    800102fc:	51c9                	li	gp,-14
    800102fe:	081e                	slli	a6,a6,0x7
    80010300:	f1e5                	bnez	a1,800102e0 <data+0x2e0>
    80010302:	4284                	lw	s1,0(a3)
    80010304:	d6c2                	sw	a6,108(sp)
    80010306:	fce2                	sd	s8,120(sp)
    80010308:	a189                	j	8001074a <_end+0x336>
    8001030a:	85ad                	srai	a1,a1,0xb
    8001030c:	aa55                	j	800104c0 <_end+0xac>
    8001030e:	5d46f7c3          	0x5d46f7c3
    80010312:	01b2                	slli	gp,gp,0xc
    80010314:	6fdc07b7          	lui	a5,0x6fdc0
    80010318:	2a5d                	addiw	s4,s4,23
    8001031a:	bd080aef          	jal	s5,7ff906ea <main-0x6f916>
    8001031e:	6bad                	lui	s7,0xb
    80010320:	9eebe903          	lwu	s2,-1554(s7) # a9ee <main-0x7fff5612>
    80010324:	fa04                	sd	s1,48(a2)
    80010326:	3689                	addiw	a3,a3,-30
    80010328:	4394                	lw	a3,0(a5)
    8001032a:	025c                	addi	a5,sp,260
    8001032c:	ce84a543          	fmadd.q	fa0,fs1,fs0,fs9,rdn
    80010330:	2085                	addiw	ra,ra,1
    80010332:	ca22                	sw	s0,20(sp)
    80010334:	546c                	lw	a1,108(s0)
    80010336:	8c7ae027          	0x8c7ae027
    8001033a:	4a9f 0462 7261      	0x726104624a9f
    80010340:	d160                	sw	s0,100(a0)
    80010342:	9c74                	0x9c74
    80010344:	f8f2d9a7          	0xf8f2d9a7
    80010348:	9f9e                	add	t6,t6,t2
    8001034a:	d39f e707 0283      	0x283e707d39f
    80010350:	99d0                	0x99d0
    80010352:	acdc                	fsd	fa5,152(s1)
    80010354:	9696ce73          	0x9696ce73
    80010358:	c18f0e67          	jalr	t3,-1000(t5) # 33b0dcf0 <main-0x4c4f2310>
    8001035c:	58a68ae3          	beq	a3,a0,800110f0 <_end+0xcdc>
    80010360:	8a16                	mv	s4,t0
    80010362:	4928dea3          	0x4928dea3
    80010366:	c1393f3b          	0xc1393f3b
    8001036a:	2fc5                	addiw	t6,t6,17
    8001036c:	436e                	lw	t1,216(sp)
    8001036e:	69571183          	lh	gp,1685(a4)
    80010372:	5f41c217          	auipc	tp,0x5f41c
    80010376:	081beeaf          	0x81beeaf
    8001037a:	48d3c01b          	0x48d3c01b
    8001037e:	3e994c8b          	0x3e994c8b
    80010382:	c759                	beqz	a4,80010410 <fromhost>
    80010384:	e929                	bnez	a0,800103d6 <data+0x3d6>
    80010386:	3054                	fld	fa3,160(s0)
    80010388:	230c                	fld	fa1,0(a4)
    8001038a:	0a3e                	slli	s4,s4,0xf
    8001038c:	91a1                	srli	a1,a1,0x28
    8001038e:	18d9                	addi	a7,a7,-10
    80010390:	53fe                	lw	t2,252(sp)
    80010392:	6724b56f          	jal	a0,8005ba04 <_end+0x4b5f0>
    80010396:	fe1b9eab          	0xfe1b9eab
    8001039a:	7be9                	lui	s7,0xffffa
    8001039c:	3d4ca6fb          	0x3d4ca6fb
    800103a0:	2af1                	addiw	s5,s5,28
    800103a2:	7375                	lui	t1,0xffffd
    800103a4:	6e54                	ld	a3,152(a2)
    800103a6:	880cbf1b          	0x880cbf1b
    800103aa:	4330                	lw	a2,64(a4)
    800103ac:	b1c5                	j	8001008c <data+0x8c>
    800103ae:	c49d                	beqz	s1,800103dc <data+0x3dc>
    800103b0:	153bd22b          	0x153bd22b
    800103b4:	deb8                	sw	a4,120(a3)
    800103b6:	c764                	sw	s1,76(a4)
    800103b8:	9534                	0x9534
    800103ba:	2001                	0x2001
    800103bc:	99fafd27          	0x99fafd27
    800103c0:	1a262c93          	slti	s9,a2,418
    800103c4:	d381                	beqz	a5,800102c4 <data+0x2c4>
    800103c6:	8c59                	or	s0,s0,a4
    800103c8:	3eb4                	fld	fa3,120(a3)
    800103ca:	7a11                	lui	s4,0xfffe4
    800103cc:	b8f5                	j	8000fcc8 <loop+0x3a60>
    800103ce:	131e                	slli	t1,t1,0x27
    800103d0:	9942                	add	s2,s2,a6
    800103d2:	3c12                	fld	fs8,288(sp)
    800103d4:	5bf2                	lw	s7,60(sp)
    800103d6:	739f 9239 1087      	0x10879239739f
    800103dc:	4ab0                	lw	a2,80(a3)
    800103de:	82a2                	mv	t0,s0
    800103e0:	3e6a                	fld	ft8,184(sp)
    800103e2:	c9f1                	beqz	a1,800104b6 <_end+0xa2>
    800103e4:	d534                	sw	a3,104(a0)
    800103e6:	bded                	j	800102e0 <data+0x2e0>
    800103e8:	0ebe                	slli	t4,t4,0xf
    800103ea:	cc4d7bd3          	0xcc4d7bd3
    800103ee:	ac30                	fsd	fa2,88(s0)
    800103f0:	6a62                	ld	s4,24(sp)
    800103f2:	3edce057          	0x3edce057
    800103f6:	d6298873          	0xd6298873
    800103fa:	4f99                	li	t6,6
    800103fc:	ff12                	sd	tp,440(sp)
    800103fe:	6ba0                	ld	s0,80(a5)

Disassembly of section .tohost:

0000000080010400 <tohost>:
	...

0000000080010410 <fromhost>:
    80010410:	0000                	unimp
	...
