
output.riscv:     file format elf64-littleriscv


Disassembly of section .text:

0000000080000000 <main>:
    80000000:	40000137          	lui	sp,0x40000
    80000004:	00111113          	slli	sp,sp,0x1
    80000008:	000101b7          	lui	gp,0x10
    8000000c:	00310133          	add	sp,sp,gp
    80000010:	000032b7          	lui	t0,0x3
    80000014:	3002a073          	csrs	mstatus,t0
    80000018:	09f00293          	li	t0,159
    8000001c:	0032a073          	csrs	fcsr,t0
    80000020:	00813083          	ld	ra,8(sp) # 40000008 <main-0x3ffffff8>
    80000024:	01813183          	ld	gp,24(sp)
    80000028:	02013203          	ld	tp,32(sp)
    8000002c:	02813283          	ld	t0,40(sp)
    80000030:	03013303          	ld	t1,48(sp)
    80000034:	03813383          	ld	t2,56(sp)
    80000038:	04013403          	ld	s0,64(sp)
    8000003c:	04813483          	ld	s1,72(sp)
    80000040:	05013503          	ld	a0,80(sp)
    80000044:	05813583          	ld	a1,88(sp)
    80000048:	06013603          	ld	a2,96(sp)
    8000004c:	06813683          	ld	a3,104(sp)
    80000050:	07013703          	ld	a4,112(sp)
    80000054:	07813783          	ld	a5,120(sp)
    80000058:	08013803          	ld	a6,128(sp)
    8000005c:	08813883          	ld	a7,136(sp)
    80000060:	09013903          	ld	s2,144(sp)
    80000064:	09813983          	ld	s3,152(sp)
    80000068:	0a013a03          	ld	s4,160(sp)
    8000006c:	0a813a83          	ld	s5,168(sp)
    80000070:	0b013b03          	ld	s6,176(sp)
    80000074:	0b813b83          	ld	s7,184(sp)
    80000078:	0c013c03          	ld	s8,192(sp)
    8000007c:	0c813c83          	ld	s9,200(sp)
    80000080:	0d013d03          	ld	s10,208(sp)
    80000084:	0d813d83          	ld	s11,216(sp)
    80000088:	0e013e03          	ld	t3,224(sp)
    8000008c:	0e813e83          	ld	t4,232(sp)
    80000090:	0f013f03          	ld	t5,240(sp)
    80000094:	0f813f83          	ld	t6,248(sp)

0000000080000098 <i_0>:
    80000098:	03d67063          	bleu	t4,a2,800000b8 <i_8>

000000008000009c <i_1>:
    8000009c:	00ecccb3          	xor	s9,s9,a4

00000000800000a0 <i_2>:
    800000a0:	04215c83          	lhu	s9,66(sp)

00000000800000a4 <i_3>:
    800000a4:	1c412303          	lw	t1,452(sp)

00000000800000a8 <i_4>:
    800000a8:	00600313          	li	t1,6

00000000800000ac <i_5>:
    800000ac:	006cd533          	srl	a0,s9,t1

00000000800000b0 <i_6>:
    800000b0:	8ebcf993          	andi	s3,s9,-1813

00000000800000b4 <i_7>:
    800000b4:	0b913c23          	sd	s9,184(sp)

00000000800000b8 <i_8>:
    800000b8:	01956663          	bltu	a0,s9,800000c4 <i_11>

00000000800000bc <i_9>:
    800000bc:	00698a63          	beq	s3,t1,800000d0 <i_14>

00000000800000c0 <i_10>:
    800000c0:	06436c93          	ori	s9,t1,100

00000000800000c4 <i_11>:
    800000c4:	00299093          	slli	ra,s3,0x2

00000000800000c8 <i_12>:
    800000c8:	403cde13          	srai	t3,s9,0x3

00000000800000cc <i_13>:
    800000cc:	4136033b          	subw	t1,a2,s3

00000000800000d0 <i_14>:
    800000d0:	17816e03          	lwu	t3,376(sp)

00000000800000d4 <i_15>:
    800000d4:	a479b393          	sltiu	t2,s3,-1465

00000000800000d8 <i_16>:
    800000d8:	39e37993          	andi	s3,t1,926

00000000800000dc <i_17>:
    800000dc:	0043599b          	srliw	s3,t1,0x4

00000000800000e0 <i_18>:
    800000e0:	035379b3          	remu	s3,t1,s5

00000000800000e4 <i_19>:
    800000e4:	0079f263          	bleu	t2,s3,800000e8 <i_20>

00000000800000e8 <i_20>:
    800000e8:	05914303          	lbu	t1,89(sp)

00000000800000ec <i_21>:
    800000ec:	0029d49b          	srliw	s1,s3,0x2

00000000800000f0 <i_22>:
    800000f0:	00e3a733          	slt	a4,t2,a4

00000000800000f4 <i_23>:
    800000f4:	01f00693          	li	a3,31

00000000800000f8 <i_24>:
    800000f8:	00df5f3b          	srlw	t5,t5,a3

00000000800000fc <i_25>:
    800000fc:	15013c83          	ld	s9,336(sp)

0000000080000100 <i_26>:
    80000100:	fb410f03          	lb	t5,-76(sp)

0000000080000104 <i_27>:
    80000104:	5befc9b7          	lui	s3,0x5befc

0000000080000108 <i_28>:
    80000108:	06e14303          	lbu	t1,110(sp)

000000008000010c <i_29>:
    8000010c:	03e4c4b3          	div	s1,s1,t5

0000000080000110 <i_30>:
    80000110:	f6610ca3          	sb	t1,-135(sp)

0000000080000114 <i_31>:
    80000114:	409f0fb3          	sub	t6,t5,s1

0000000080000118 <i_32>:
    80000118:	03ecc263          	blt	s9,t5,8000013c <i_41>

000000008000011c <i_33>:
    8000011c:	e8612023          	sw	t1,-384(sp)

0000000080000120 <i_34>:
    80000120:	17a13c23          	sd	s10,376(sp)

0000000080000124 <i_35>:
    80000124:	02671063          	bne	a4,t1,80000144 <i_43>

0000000080000128 <i_36>:
    80000128:	009f8733          	add	a4,t6,s1

000000008000012c <i_37>:
    8000012c:	f75105a3          	sb	s5,-149(sp)

0000000080000130 <i_38>:
    80000130:	fb411683          	lh	a3,-76(sp)

0000000080000134 <i_39>:
    80000134:	18412383          	lw	t2,388(sp)

0000000080000138 <i_40>:
    80000138:	0094fa63          	bleu	s1,s1,8000014c <i_45>

000000008000013c <i_41>:
    8000013c:	aff28d1b          	addiw	s10,t0,-1281

0000000080000140 <i_42>:
    80000140:	406d0b3b          	subw	s6,s10,t1

0000000080000144 <i_43>:
    80000144:	16412d03          	lw	s10,356(sp)

0000000080000148 <i_44>:
    80000148:	11e12e23          	sw	t5,284(sp)

000000008000014c <i_45>:
    8000014c:	00000013          	nop

0000000080000150 <i_46>:
    80000150:	419b033b          	subw	t1,s6,s9

0000000080000154 <i_47>:
    80000154:	7b500493          	li	s1,1973

0000000080000158 <i_48>:
    80000158:	7c500693          	li	a3,1989

000000008000015c <i_49>:
    8000015c:	146104a3          	sb	t1,329(sp)

0000000080000160 <i_50>:
    80000160:	f9e11883          	lh	a7,-98(sp)

0000000080000164 <i_51>:
    80000164:	12414f83          	lbu	t6,292(sp)

0000000080000168 <i_52>:
    80000168:	03112623          	sw	a7,44(sp)

000000008000016c <i_53>:
    8000016c:	0318a8b3          	mulhsu	a7,a7,a7

0000000080000170 <i_54>:
    80000170:	ff111f23          	sh	a7,-2(sp)

0000000080000174 <i_55>:
    80000174:	00148493          	addi	s1,s1,1
    80000178:	fed4e2e3          	bltu	s1,a3,8000015c <i_49>

000000008000017c <i_56>:
    8000017c:	03198263          	beq	s3,a7,800001a0 <i_65>

0000000080000180 <i_57>:
    80000180:	0388f9b3          	remu	s3,a7,s8

0000000080000184 <i_58>:
    80000184:	e3013883          	ld	a7,-464(sp)

0000000080000188 <i_59>:
    80000188:	00d00f93          	li	t6,13

000000008000018c <i_60>:
    8000018c:	41f9dfbb          	sraw	t6,s3,t6

0000000080000190 <i_61>:
    80000190:	7dfa6613          	ori	a2,s4,2015

0000000080000194 <i_62>:
    80000194:	02365063          	ble	gp,a2,800001b4 <i_70>

0000000080000198 <i_63>:
    80000198:	fd013823          	sd	a6,-48(sp)

000000008000019c <i_64>:
    8000019c:	03016f83          	lwu	t6,48(sp)

00000000800001a0 <i_65>:
    800001a0:	05113c23          	sd	a7,88(sp)

00000000800001a4 <i_66>:
    800001a4:	f4813a03          	ld	s4,-184(sp)

00000000800001a8 <i_67>:
    800001a8:	00311023          	sh	gp,0(sp)

00000000800001ac <i_68>:
    800001ac:	fa615a03          	lhu	s4,-90(sp)

00000000800001b0 <i_69>:
    800001b0:	00500a13          	li	s4,5

00000000800001b4 <i_70>:
    800001b4:	014d1bbb          	sllw	s7,s10,s4

00000000800001b8 <i_71>:
    800001b8:	11c11903          	lh	s2,284(sp)

00000000800001bc <i_72>:
    800001bc:	86b00d13          	li	s10,-1941

00000000800001c0 <i_73>:
    800001c0:	87e00193          	li	gp,-1922

00000000800001c4 <i_74>:
    800001c4:	fd813883          	ld	a7,-40(sp)

00000000800001c8 <i_75>:
    800001c8:	017d0463          	beq	s10,s7,800001d0 <i_77>

00000000800001cc <i_76>:
    800001cc:	0f310623          	sb	s3,236(sp)

00000000800001d0 <i_77>:
    800001d0:	19411323          	sh	s4,390(sp)

00000000800001d4 <i_78>:
    800001d4:	f2013a03          	ld	s4,-224(sp)

00000000800001d8 <i_79>:
    800001d8:	003a5993          	srli	s3,s4,0x3

00000000800001dc <i_80>:
    800001dc:	ec615283          	lhu	t0,-314(sp)

00000000800001e0 <i_81>:
    800001e0:	40465d93          	srai	s11,a2,0x4

00000000800001e4 <i_82>:
    800001e4:	00000013          	nop

00000000800001e8 <i_83>:
    800001e8:	00000013          	nop

00000000800001ec <i_84>:
    800001ec:	8fa67f93          	andi	t6,a2,-1798

00000000800001f0 <i_85>:
    800001f0:	03a9debb          	divuw	t4,s3,s10

00000000800001f4 <i_86>:
    800001f4:	003bdc63          	ble	gp,s7,8000020c <i_91>

00000000800001f8 <i_87>:
    800001f8:	001d0d13          	addi	s10,s10,1
    800001fc:	fda1f4e3          	bleu	s10,gp,800001c4 <i_74>

0000000080000200 <i_88>:
    80000200:	09e15d83          	lhu	s11,158(sp)

0000000080000204 <i_89>:
    80000204:	00013d83          	ld	s11,0(sp)

0000000080000208 <i_90>:
    80000208:	004c5c1b          	srliw	s8,s8,0x4

000000008000020c <i_91>:
    8000020c:	03b1f063          	bleu	s11,gp,8000022c <i_99>

0000000080000210 <i_92>:
    80000210:	f3710e83          	lb	t4,-201(sp)

0000000080000214 <i_93>:
    80000214:	0231a1b3          	mulhsu	gp,gp,gp

0000000080000218 <i_94>:
    80000218:	16310723          	sb	gp,366(sp)

000000008000021c <i_95>:
    8000021c:	03dd7d33          	remu	s10,s10,t4

0000000080000220 <i_96>:
    80000220:	0184fcb3          	and	s9,s1,s8

0000000080000224 <i_97>:
    80000224:	02bd7d3b          	remuw	s10,s10,a1

0000000080000228 <i_98>:
    80000228:	33253513          	sltiu	a0,a0,818

000000008000022c <i_99>:
    8000022c:	19c16883          	lwu	a7,412(sp)

0000000080000230 <i_100>:
    80000230:	fbb10a23          	sb	s11,-76(sp)

0000000080000234 <i_101>:
    80000234:	83c00c13          	li	s8,-1988

0000000080000238 <i_102>:
    80000238:	84600d93          	li	s11,-1978

000000008000023c <i_103>:
    8000023c:	60b6b693          	sltiu	a3,a3,1547

0000000080000240 <i_104>:
    80000240:	02d6d6bb          	divuw	a3,a3,a3

0000000080000244 <i_105>:
    80000244:	1ad12c23          	sw	a3,440(sp)

0000000080000248 <i_106>:
    80000248:	1ad12623          	sw	a3,428(sp)

000000008000024c <i_107>:
    8000024c:	00000013          	nop

0000000080000250 <i_108>:
    80000250:	fa013e03          	ld	t3,-96(sp)

0000000080000254 <i_109>:
    80000254:	4046db9b          	sraiw	s7,a3,0x4

0000000080000258 <i_110>:
    80000258:	001c0c13          	addi	s8,s8,1
    8000025c:	ff8dd0e3          	ble	s8,s11,8000023c <i_103>

0000000080000260 <i_111>:
    80000260:	00f00893          	li	a7,15

0000000080000264 <i_112>:
    80000264:	411bd6bb          	sraw	a3,s7,a7

0000000080000268 <i_113>:
    80000268:	03771263          	bne	a4,s7,8000028c <i_122>

000000008000026c <i_114>:
    8000026c:	f9c16883          	lwu	a7,-100(sp)

0000000080000270 <i_115>:
    80000270:	03dee8bb          	remw	a7,t4,t4

0000000080000274 <i_116>:
    80000274:	00000013          	nop

0000000080000278 <i_117>:
    80000278:	00000013          	nop

000000008000027c <i_118>:
    8000027c:	0bc11c83          	lh	s9,188(sp)

0000000080000280 <i_119>:
    80000280:	00000013          	nop

0000000080000284 <i_120>:
    80000284:	1ac11483          	lh	s1,428(sp)

0000000080000288 <i_121>:
    80000288:	01400493          	li	s1,20

000000008000028c <i_122>:
    8000028c:	409cdbbb          	sraw	s7,s9,s1

0000000080000290 <i_123>:
    80000290:	0374dbb3          	divu	s7,s1,s7

0000000080000294 <i_124>:
    80000294:	78f00e93          	li	t4,1935

0000000080000298 <i_125>:
    80000298:	79400693          	li	a3,1940

000000008000029c <i_126>:
    8000029c:	f2912023          	sw	s1,-224(sp)

00000000800002a0 <i_127>:
    800002a0:	17911323          	sh	s9,358(sp)

00000000800002a4 <i_128>:
    800002a4:	e5815c03          	lhu	s8,-424(sp)

00000000800002a8 <i_129>:
    800002a8:	fe910523          	sb	s1,-22(sp)

00000000800002ac <i_130>:
    800002ac:	02d48263          	beq	s1,a3,800002d0 <i_138>

00000000800002b0 <i_131>:
    800002b0:	001e8e93          	addi	t4,t4,1
    800002b4:	ffd6f4e3          	bleu	t4,a3,8000029c <i_126>

00000000800002b8 <i_132>:
    800002b8:	414f04b3          	sub	s1,t5,s4

00000000800002bc <i_133>:
    800002bc:	009cda63          	ble	s1,s9,800002d0 <i_138>

00000000800002c0 <i_134>:
    800002c0:	17813483          	ld	s1,376(sp)

00000000800002c4 <i_135>:
    800002c4:	01a11c03          	lh	s8,26(sp)

00000000800002c8 <i_136>:
    800002c8:	0024d093          	srli	ra,s1,0x2

00000000800002cc <i_137>:
    800002cc:	0192ea33          	or	s4,t0,s9

00000000800002d0 <i_138>:
    800002d0:	01900c13          	li	s8,25

00000000800002d4 <i_139>:
    800002d4:	01849c3b          	sllw	s8,s1,s8

00000000800002d8 <i_140>:
    800002d8:	00c16383          	lwu	t2,12(sp)

00000000800002dc <i_141>:
    800002dc:	0194d463          	ble	s9,s1,800002e4 <i_143>

00000000800002e0 <i_142>:
    800002e0:	e4a15c03          	lhu	s8,-438(sp)

00000000800002e4 <i_143>:
    800002e4:	e8712423          	sw	t2,-376(sp)

00000000800002e8 <i_144>:
    800002e8:	e1810ea3          	sb	s8,-483(sp)

00000000800002ec <i_145>:
    800002ec:	03a4d63b          	divuw	a2,s1,s10

00000000800002f0 <i_146>:
    800002f0:	06012183          	lw	gp,96(sp)

00000000800002f4 <i_147>:
    800002f4:	08c10223          	sb	a2,132(sp)

00000000800002f8 <i_148>:
    800002f8:	e7815783          	lhu	a5,-392(sp)

00000000800002fc <i_149>:
    800002fc:	0093da63          	ble	s1,t2,80000310 <i_154>

0000000080000300 <i_150>:
    80000300:	009201b3          	add	gp,tp,s1

0000000080000304 <i_151>:
    80000304:	e4911723          	sh	s1,-434(sp)

0000000080000308 <i_152>:
    80000308:	00f46233          	or	tp,s0,a5

000000008000030c <i_153>:
    8000030c:	f6310223          	sb	gp,-156(sp)

0000000080000310 <i_154>:
    80000310:	f9013483          	ld	s1,-112(sp)

0000000080000314 <i_155>:
    80000314:	00459463          	bne	a1,tp,8000031c <i_157>

0000000080000318 <i_156>:
    80000318:	f3816203          	lwu	tp,-200(sp)

000000008000031c <i_157>:
    8000031c:	02966263          	bltu	a2,s1,80000340 <i_166>

0000000080000320 <i_158>:
    80000320:	08016e03          	lwu	t3,128(sp)

0000000080000324 <i_159>:
    80000324:	024888b3          	mul	a7,a7,tp

0000000080000328 <i_160>:
    80000328:	0098c263          	blt	a7,s1,8000032c <i_161>

000000008000032c <i_161>:
    8000032c:	029e68b3          	rem	a7,t3,s1

0000000080000330 <i_162>:
    80000330:	03000993          	li	s3,48

0000000080000334 <i_163>:
    80000334:	013999b3          	sll	s3,s3,s3

0000000080000338 <i_164>:
    80000338:	02e10f03          	lb	t5,46(sp)

000000008000033c <i_165>:
    8000033c:	0318d463          	ble	a7,a7,80000364 <i_175>

0000000080000340 <i_166>:
    80000340:	fd013983          	ld	s3,-48(sp)

0000000080000344 <i_167>:
    80000344:	ef313423          	sd	s3,-280(sp)

0000000080000348 <i_168>:
    80000348:	40ef08bb          	subw	a7,t5,a4

000000008000034c <i_169>:
    8000034c:	eb312e23          	sw	s3,-324(sp)

0000000080000350 <i_170>:
    80000350:	f7c15d03          	lhu	s10,-132(sp)

0000000080000354 <i_171>:
    80000354:	f5a11d03          	lh	s10,-166(sp)

0000000080000358 <i_172>:
    80000358:	e5e11923          	sh	t5,-430(sp)

000000008000035c <i_173>:
    8000035c:	03400793          	li	a5,52

0000000080000360 <i_174>:
    80000360:	00ff1633          	sll	a2,t5,a5

0000000080000364 <i_175>:
    80000364:	fef104a3          	sb	a5,-23(sp)

0000000080000368 <i_176>:
    80000368:	ee016883          	lwu	a7,-288(sp)

000000008000036c <i_177>:
    8000036c:	e7c15603          	lhu	a2,-388(sp)

0000000080000370 <i_178>:
    80000370:	00c65863          	ble	a2,a2,80000380 <i_182>

0000000080000374 <i_179>:
    80000374:	0317f063          	bleu	a7,a5,80000394 <i_187>

0000000080000378 <i_180>:
    80000378:	01b14e03          	lbu	t3,27(sp)

000000008000037c <i_181>:
    8000037c:	17c10f23          	sb	t3,382(sp)

0000000080000380 <i_182>:
    80000380:	00c7fc63          	bleu	a2,a5,80000398 <i_188>

0000000080000384 <i_183>:
    80000384:	00179613          	slli	a2,a5,0x1

0000000080000388 <i_184>:
    80000388:	08c11883          	lh	a7,140(sp)

000000008000038c <i_185>:
    8000038c:	f5e11b03          	lh	s6,-162(sp)

0000000080000390 <i_186>:
    80000390:	01170663          	beq	a4,a7,8000039c <i_189>

0000000080000394 <i_187>:
    80000394:	f1c10f23          	sb	t3,-226(sp)

0000000080000398 <i_188>:
    80000398:	1e77e393          	ori	t2,a5,487

000000008000039c <i_189>:
    8000039c:	03cb6463          	bltu	s6,t3,800003c4 <i_199>

00000000800003a0 <i_190>:
    800003a0:	03162e33          	mulhsu	t3,a2,a7

00000000800003a4 <i_191>:
    800003a4:	11510023          	sb	s5,256(sp)

00000000800003a8 <i_192>:
    800003a8:	00900d93          	li	s11,9

00000000800003ac <i_193>:
    800003ac:	41b8dab3          	sra	s5,a7,s11

00000000800003b0 <i_194>:
    800003b0:	fd1105a3          	sb	a7,-53(sp)

00000000800003b4 <i_195>:
    800003b4:	12016b03          	lwu	s6,288(sp)

00000000800003b8 <i_196>:
    800003b8:	007b5863          	ble	t2,s6,800003c8 <i_200>

00000000800003bc <i_197>:
    800003bc:	01bd8b33          	add	s6,s11,s11

00000000800003c0 <i_198>:
    800003c0:	11610ea3          	sb	s6,285(sp)

00000000800003c4 <i_199>:
    800003c4:	cf3deb37          	lui	s6,0xcf3de

00000000800003c8 <i_200>:
    800003c8:	404b5b13          	srai	s6,s6,0x4

00000000800003cc <i_201>:
    800003cc:	18811583          	lh	a1,392(sp)

00000000800003d0 <i_202>:
    800003d0:	78cb6b13          	ori	s6,s6,1932

00000000800003d4 <i_203>:
    800003d4:	f6813a83          	ld	s5,-152(sp)

00000000800003d8 <i_204>:
    800003d8:	035b423b          	divw	tp,s6,s5

00000000800003dc <i_205>:
    800003dc:	109104a3          	sb	s1,265(sp)

00000000800003e0 <i_206>:
    800003e0:	17012703          	lw	a4,368(sp)

00000000800003e4 <i_207>:
    800003e4:	024bd83b          	divuw	a6,s7,tp

00000000800003e8 <i_208>:
    800003e8:	02bb7f33          	remu	t5,s6,a1

00000000800003ec <i_209>:
    800003ec:	036f9db3          	mulh	s11,t6,s6

00000000800003f0 <i_210>:
    800003f0:	00221f93          	slli	t6,tp,0x2

00000000800003f4 <i_211>:
    800003f4:	004a4a63          	blt	s4,tp,80000408 <i_216>

00000000800003f8 <i_212>:
    800003f8:	f2a11d83          	lh	s11,-214(sp)

00000000800003fc <i_213>:
    800003fc:	00db00b3          	add	ra,s6,a3

0000000080000400 <i_214>:
    80000400:	ff813b03          	ld	s6,-8(sp)

0000000080000404 <i_215>:
    80000404:	fbf10ea3          	sb	t6,-67(sp)

0000000080000408 <i_216>:
    80000408:	01fed663          	ble	t6,t4,80000414 <i_219>

000000008000040c <i_217>:
    8000040c:	49ff019b          	addiw	gp,t5,1183

0000000080000410 <i_218>:
    80000410:	08411a23          	sh	tp,148(sp)

0000000080000414 <i_219>:
    80000414:	036dc463          	blt	s11,s6,8000043c <i_229>

0000000080000418 <i_220>:
    80000418:	0305cfb3          	div	t6,a1,a6

000000008000041c <i_221>:
    8000041c:	0c411723          	sh	tp,206(sp)

0000000080000420 <i_222>:
    80000420:	13613c23          	sd	s6,312(sp)

0000000080000424 <i_223>:
    80000424:	ea412803          	lw	a6,-348(sp)

0000000080000428 <i_224>:
    80000428:	03c5ee33          	rem	t3,a1,t3

000000008000042c <i_225>:
    8000042c:	13f11823          	sh	t6,304(sp)

0000000080000430 <i_226>:
    80000430:	fbc15783          	lhu	a5,-68(sp)

0000000080000434 <i_227>:
    80000434:	01f7f7b3          	and	a5,a5,t6

0000000080000438 <i_228>:
    80000438:	07210923          	sb	s2,114(sp)

000000008000043c <i_229>:
    8000043c:	e2012203          	lw	tp,-480(sp)

0000000080000440 <i_230>:
    80000440:	1cf11c23          	sh	a5,472(sp)

0000000080000444 <i_231>:
    80000444:	75100613          	li	a2,1873

0000000080000448 <i_232>:
    80000448:	75600f93          	li	t6,1878

000000008000044c <i_233>:
    8000044c:	00160613          	addi	a2,a2,1
    80000450:	fff66ee3          	bltu	a2,t6,8000044c <i_233>

0000000080000454 <i_234>:
    80000454:	00f00193          	li	gp,15

0000000080000458 <i_235>:
    80000458:	003557bb          	srlw	a5,a0,gp

000000008000045c <i_236>:
    8000045c:	fa416683          	lwu	a3,-92(sp)

0000000080000460 <i_237>:
    80000460:	00f1c463          	blt	gp,a5,80000468 <i_239>

0000000080000464 <i_238>:
    80000464:	02000213          	li	tp,32

0000000080000468 <i_239>:
    80000468:	004190b3          	sll	ra,gp,tp

000000008000046c <i_240>:
    8000046c:	e5813383          	ld	t2,-424(sp)

0000000080000470 <i_241>:
    80000470:	00f7f863          	bleu	a5,a5,80000480 <i_245>

0000000080000474 <i_242>:
    80000474:	17f13c23          	sd	t6,376(sp)

0000000080000478 <i_243>:
    80000478:	0243a533          	mulhsu	a0,t2,tp

000000008000047c <i_244>:
    8000047c:	eaf13423          	sd	a5,-344(sp)

0000000080000480 <i_245>:
    80000480:	0117e263          	bltu	a5,a7,80000484 <i_246>

0000000080000484 <i_246>:
    80000484:	01a8ea63          	bltu	a7,s10,80000498 <i_251>

0000000080000488 <i_247>:
    80000488:	01412f83          	lw	t6,20(sp)

000000008000048c <i_248>:
    8000048c:	18012683          	lw	a3,384(sp)

0000000080000490 <i_249>:
    80000490:	0047c863          	blt	a5,tp,800004a0 <i_253>

0000000080000494 <i_250>:
    80000494:	00712a23          	sw	t2,20(sp)

0000000080000498 <i_251>:
    80000498:	efb14c03          	lbu	s8,-261(sp)

000000008000049c <i_252>:
    8000049c:	0037d263          	ble	gp,a5,800004a0 <i_253>

00000000800004a0 <i_253>:
    800004a0:	004c6663          	bltu	s8,tp,800004ac <i_256>

00000000800004a4 <i_254>:
    800004a4:	eb816503          	lwu	a0,-328(sp)

00000000800004a8 <i_255>:
    800004a8:	eea11b03          	lh	s6,-278(sp)

00000000800004ac <i_256>:
    800004ac:	02010483          	lb	s1,32(sp)

00000000800004b0 <i_257>:
    800004b0:	15e15c03          	lhu	s8,350(sp)

00000000800004b4 <i_258>:
    800004b4:	0023de93          	srli	t4,t2,0x2

00000000800004b8 <i_259>:
    800004b8:	eb615503          	lhu	a0,-330(sp)

00000000800004bc <i_260>:
    800004bc:	0040d79b          	srliw	a5,ra,0x4

00000000800004c0 <i_261>:
    800004c0:	89200413          	li	s0,-1902

00000000800004c4 <i_262>:
    800004c4:	89500693          	li	a3,-1899

00000000800004c8 <i_263>:
    800004c8:	f6215083          	lhu	ra,-158(sp)

00000000800004cc <i_264>:
    800004cc:	1c112a23          	sw	ra,468(sp)

00000000800004d0 <i_265>:
    800004d0:	14111323          	sh	ra,326(sp)

00000000800004d4 <i_266>:
    800004d4:	00200193          	li	gp,2

00000000800004d8 <i_267>:
    800004d8:	003e9333          	sll	t1,t4,gp

00000000800004dc <i_268>:
    800004dc:	00140413          	addi	s0,s0,1
    800004e0:	fe86f4e3          	bleu	s0,a3,800004c8 <i_263>

00000000800004e4 <i_269>:
    800004e4:	08211083          	lh	ra,130(sp)

00000000800004e8 <i_270>:
    800004e8:	02300493          	li	s1,35

00000000800004ec <i_271>:
    800004ec:	4091dcb3          	sra	s9,gp,s1

00000000800004f0 <i_272>:
    800004f0:	0060d863          	ble	t1,ra,80000500 <i_276>

00000000800004f4 <i_273>:
    800004f4:	0e1103a3          	sb	ra,231(sp)

00000000800004f8 <i_274>:
    800004f8:	13013383          	ld	t2,304(sp)

00000000800004fc <i_275>:
    800004fc:	0391da33          	divu	s4,gp,s9

0000000080000500 <i_276>:
    80000500:	03945263          	ble	s9,s0,80000524 <i_285>

0000000080000504 <i_277>:
    80000504:	04012183          	lw	gp,64(sp)

0000000080000508 <i_278>:
    80000508:	014d9263          	bne	s11,s4,8000050c <i_279>

000000008000050c <i_279>:
    8000050c:	ec714f03          	lbu	t5,-313(sp)

0000000080000510 <i_280>:
    80000510:	0051f263          	bleu	t0,gp,80000514 <i_281>

0000000080000514 <i_281>:
    80000514:	19e13423          	sd	t5,392(sp)

0000000080000518 <i_282>:
    80000518:	007c0a63          	beq	s8,t2,8000052c <i_287>

000000008000051c <i_283>:
    8000051c:	00f1fc63          	bleu	a5,gp,80000534 <i_289>

0000000080000520 <i_284>:
    80000520:	03414533          	div	a0,sp,s4

0000000080000524 <i_285>:
    80000524:	034571bb          	remuw	gp,a0,s4

0000000080000528 <i_286>:
    80000528:	fe816083          	lwu	ra,-24(sp)

000000008000052c <i_287>:
    8000052c:	0143cc63          	blt	t2,s4,80000544 <i_293>

0000000080000530 <i_288>:
    80000530:	a1c687b7          	lui	a5,0xa1c68

0000000080000534 <i_289>:
    80000534:	0e013383          	ld	t2,224(sp)

0000000080000538 <i_290>:
    80000538:	1e412f03          	lw	t5,484(sp)

000000008000053c <i_291>:
    8000053c:	e2e11183          	lh	gp,-466(sp)

0000000080000540 <i_292>:
    80000540:	021f01bb          	mulw	gp,t5,ra

0000000080000544 <i_293>:
    80000544:	00e11e83          	lh	t4,14(sp)

0000000080000548 <i_294>:
    80000548:	fa310083          	lb	ra,-93(sp)

000000008000054c <i_295>:
    8000054c:	03d18063          	beq	gp,t4,8000056c <i_303>

0000000080000550 <i_296>:
    80000550:	001f0263          	beq	t5,ra,80000554 <i_297>

0000000080000554 <i_297>:
    80000554:	2993ceb7          	lui	t4,0x2993c

0000000080000558 <i_298>:
    80000558:	003ed81b          	srliw	a6,t4,0x3

000000008000055c <i_299>:
    8000055c:	d7d78593          	addi	a1,a5,-643 # ffffffffa1c67d7d <_end+0xffffffff21c57969>

0000000080000560 <i_300>:
    80000560:	0d813d83          	ld	s11,216(sp)

0000000080000564 <i_301>:
    80000564:	0c215f03          	lhu	t5,194(sp)

0000000080000568 <i_302>:
    80000568:	010f4c63          	blt	t5,a6,80000580 <i_308>

000000008000056c <i_303>:
    8000056c:	005f1263          	bne	t5,t0,80000570 <i_304>

0000000080000570 <i_304>:
    80000570:	0053fc63          	bleu	t0,t2,80000588 <i_310>

0000000080000574 <i_305>:
    80000574:	f4110083          	lb	ra,-191(sp)

0000000080000578 <i_306>:
    80000578:	021e883b          	mulw	a6,t4,ra

000000008000057c <i_307>:
    8000057c:	02328263          	beq	t0,gp,800005a0 <i_316>

0000000080000580 <i_308>:
    80000580:	00000013          	nop

0000000080000584 <i_309>:
    80000584:	10b12423          	sw	a1,264(sp)

0000000080000588 <i_310>:
    80000588:	00000013          	nop

000000008000058c <i_311>:
    8000058c:	e7510883          	lb	a7,-395(sp)

0000000080000590 <i_312>:
    80000590:	f4513c23          	sd	t0,-168(sp)

0000000080000594 <i_313>:
    80000594:	e3310023          	sb	s3,-480(sp)

0000000080000598 <i_314>:
    80000598:	0301833b          	mulw	t1,gp,a6

000000008000059c <i_315>:
    8000059c:	0af11523          	sh	a5,170(sp)

00000000800005a0 <i_316>:
    800005a0:	13a15683          	lhu	a3,314(sp)

00000000800005a4 <i_317>:
    800005a4:	03bcb5b3          	mulhu	a1,s9,s11

00000000800005a8 <i_318>:
    800005a8:	72c00e93          	li	t4,1836

00000000800005ac <i_319>:
    800005ac:	73e00793          	li	a5,1854

00000000800005b0 <i_320>:
    800005b0:	00000013          	nop

00000000800005b4 <i_321>:
    800005b4:	00200193          	li	gp,2

00000000800005b8 <i_322>:
    800005b8:	003198bb          	sllw	a7,gp,gp

00000000800005bc <i_323>:
    800005bc:	f9816183          	lwu	gp,-104(sp)

00000000800005c0 <i_324>:
    800005c0:	18611583          	lh	a1,390(sp)

00000000800005c4 <i_325>:
    800005c4:	001e8e93          	addi	t4,t4,1 # 2993c001 <main-0x566c3fff>
    800005c8:	ffd7d4e3          	ble	t4,a5,800005b0 <i_320>

00000000800005cc <i_326>:
    800005cc:	02f1d7bb          	divuw	a5,gp,a5

00000000800005d0 <i_327>:
    800005d0:	00f586b3          	add	a3,a1,a5

00000000800005d4 <i_328>:
    800005d4:	02b10c23          	sb	a1,56(sp)

00000000800005d8 <i_329>:
    800005d8:	8ae00593          	li	a1,-1874

00000000800005dc <i_330>:
    800005dc:	8b700513          	li	a0,-1865

00000000800005e0 <i_331>:
    800005e0:	00158593          	addi	a1,a1,1
    800005e4:	feb55ee3          	ble	a1,a0,800005e0 <i_331>

00000000800005e8 <i_332>:
    800005e8:	04415683          	lhu	a3,68(sp)

00000000800005ec <i_333>:
    800005ec:	03611583          	lh	a1,54(sp)

00000000800005f0 <i_334>:
    800005f0:	19012a23          	sw	a6,404(sp)

00000000800005f4 <i_335>:
    800005f4:	02b6d73b          	divuw	a4,a3,a1

00000000800005f8 <i_336>:
    800005f8:	1a015883          	lhu	a7,416(sp)

00000000800005fc <i_337>:
    800005fc:	fd415083          	lhu	ra,-44(sp)

0000000080000600 <i_338>:
    80000600:	00d8c463          	blt	a7,a3,80000608 <i_340>

0000000080000604 <i_339>:
    80000604:	e7f10083          	lb	ra,-385(sp)

0000000080000608 <i_340>:
    80000608:	0c412b83          	lw	s7,196(sp)

000000008000060c <i_341>:
    8000060c:	19b10b83          	lb	s7,411(sp)

0000000080000610 <i_342>:
    80000610:	0370e063          	bltu	ra,s7,80000630 <i_350>

0000000080000614 <i_343>:
    80000614:	e9710523          	sb	s7,-374(sp)

0000000080000618 <i_344>:
    80000618:	017bfbb3          	and	s7,s7,s7

000000008000061c <i_345>:
    8000061c:	037b8263          	beq	s7,s7,80000640 <i_354>

0000000080000620 <i_346>:
    80000620:	03708463          	beq	ra,s7,80000648 <i_356>

0000000080000624 <i_347>:
    80000624:	17713c23          	sd	s7,376(sp)

0000000080000628 <i_348>:
    80000628:	02e15183          	lhu	gp,46(sp)

000000008000062c <i_349>:
    8000062c:	00012683          	lw	a3,0(sp)

0000000080000630 <i_350>:
    80000630:	ed013a03          	ld	s4,-304(sp)

0000000080000634 <i_351>:
    80000634:	00000013          	nop

0000000080000638 <i_352>:
    80000638:	e3013883          	ld	a7,-464(sp)

000000008000063c <i_353>:
    8000063c:	01100693          	li	a3,17

0000000080000640 <i_354>:
    80000640:	00d8d6bb          	srlw	a3,a7,a3

0000000080000644 <i_355>:
    80000644:	eea11e03          	lh	t3,-278(sp)

0000000080000648 <i_356>:
    80000648:	01100a93          	li	s5,17

000000008000064c <i_357>:
    8000064c:	415adb3b          	sraw	s6,s5,s5

0000000080000650 <i_358>:
    80000650:	79500193          	li	gp,1941

0000000080000654 <i_359>:
    80000654:	7a500a13          	li	s4,1957

0000000080000658 <i_360>:
    80000658:	03ae1063          	bne	t3,s10,80000678 <i_367>

000000008000065c <i_361>:
    8000065c:	00118193          	addi	gp,gp,1 # 10001 <main-0x7ffeffff>
    80000660:	fe3a5ce3          	ble	gp,s4,80000658 <i_360>

0000000080000664 <i_362>:
    80000664:	00700493          	li	s1,7

0000000080000668 <i_363>:
    80000668:	4098d9bb          	sraw	s3,a7,s1

000000008000066c <i_364>:
    8000066c:	40495093          	srai	ra,s2,0x4

0000000080000670 <i_365>:
    80000670:	0136c663          	blt	a3,s3,8000067c <i_368>

0000000080000674 <i_366>:
    80000674:	fd310023          	sb	s3,-64(sp)

0000000080000678 <i_367>:
    80000678:	e3413023          	sd	s4,-480(sp)

000000008000067c <i_368>:
    8000067c:	fb411323          	sh	s4,-90(sp)

0000000080000680 <i_369>:
    80000680:	0350aab3          	mulhsu	s5,ra,s5

0000000080000684 <i_370>:
    80000684:	ed612223          	sw	s6,-316(sp)

0000000080000688 <i_371>:
    80000688:	0d814983          	lbu	s3,216(sp)

000000008000068c <i_372>:
    8000068c:	f9014703          	lbu	a4,-112(sp)

0000000080000690 <i_373>:
    80000690:	00000013          	nop

0000000080000694 <i_374>:
    80000694:	76900093          	li	ra,1897

0000000080000698 <i_375>:
    80000698:	77900b93          	li	s7,1913

000000008000069c <i_376>:
    8000069c:	0370e733          	rem	a4,ra,s7

00000000800006a0 <i_377>:
    800006a0:	401a8a3b          	subw	s4,s5,ra

00000000800006a4 <i_378>:
    800006a4:	8641849b          	addiw	s1,gp,-1948

00000000800006a8 <i_379>:
    800006a8:	e9711f23          	sh	s7,-354(sp)

00000000800006ac <i_380>:
    800006ac:	0c911523          	sh	s1,202(sp)

00000000800006b0 <i_381>:
    800006b0:	13314a83          	lbu	s5,307(sp)

00000000800006b4 <i_382>:
    800006b4:	09013e83          	ld	t4,144(sp)

00000000800006b8 <i_383>:
    800006b8:	01528a63          	beq	t0,s5,800006cc <i_387>

00000000800006bc <i_384>:
    800006bc:	00108093          	addi	ra,ra,1
    800006c0:	fc1bfee3          	bleu	ra,s7,8000069c <i_376>

00000000800006c4 <i_385>:
    800006c4:	00410383          	lb	t2,4(sp)

00000000800006c8 <i_386>:
    800006c8:	03776c33          	rem	s8,a4,s7

00000000800006cc <i_387>:
    800006cc:	01da1263          	bne	s4,t4,800006d0 <i_388>

00000000800006d0 <i_388>:
    800006d0:	eda15303          	lhu	t1,-294(sp)

00000000800006d4 <i_389>:
    800006d4:	b41a8193          	addi	gp,s5,-1215

00000000800006d8 <i_390>:
    800006d8:	0b416683          	lwu	a3,180(sp)

00000000800006dc <i_391>:
    800006dc:	fc611083          	lh	ra,-58(sp)

00000000800006e0 <i_392>:
    800006e0:	0034de63          	ble	gp,s1,800006fc <i_399>

00000000800006e4 <i_393>:
    800006e4:	1c614583          	lbu	a1,454(sp)

00000000800006e8 <i_394>:
    800006e8:	701c2c13          	slti	s8,s8,1793

00000000800006ec <i_395>:
    800006ec:	01f00a13          	li	s4,31

00000000800006f0 <i_396>:
    800006f0:	014c54bb          	srlw	s1,s8,s4

00000000800006f4 <i_397>:
    800006f4:	01500a13          	li	s4,21

00000000800006f8 <i_398>:
    800006f8:	0144dc3b          	srlw	s8,s1,s4

00000000800006fc <i_399>:
    800006fc:	15013a03          	ld	s4,336(sp)

0000000080000700 <i_400>:
    80000700:	404edd1b          	sraiw	s10,t4,0x4

0000000080000704 <i_401>:
    80000704:	8bf00e93          	li	t4,-1857

0000000080000708 <i_402>:
    80000708:	8ce00c13          	li	s8,-1842

000000008000070c <i_403>:
    8000070c:	04015383          	lhu	t2,64(sp)

0000000080000710 <i_404>:
    80000710:	00000013          	nop

0000000080000714 <i_405>:
    80000714:	1d414b03          	lbu	s6,468(sp)

0000000080000718 <i_406>:
    80000718:	038eef3b          	remw	t5,t4,s8

000000008000071c <i_407>:
    8000071c:	1e615d03          	lhu	s10,486(sp)

0000000080000720 <i_408>:
    80000720:	00000013          	nop

0000000080000724 <i_409>:
    80000724:	01d00513          	li	a0,29

0000000080000728 <i_410>:
    80000728:	00ad1d3b          	sllw	s10,s10,a0

000000008000072c <i_411>:
    8000072c:	05a13023          	sd	s10,64(sp)

0000000080000730 <i_412>:
    80000730:	f1a12823          	sw	s10,-240(sp)

0000000080000734 <i_413>:
    80000734:	001e8e93          	addi	t4,t4,1
    80000738:	fd8e9ae3          	bne	t4,s8,8000070c <i_403>

000000008000073c <i_414>:
    8000073c:	02ad0063          	beq	s10,a0,8000075c <i_422>

0000000080000740 <i_415>:
    80000740:	03ad7263          	bleu	s10,s10,80000764 <i_424>

0000000080000744 <i_416>:
    80000744:	01ad2d33          	slt	s10,s10,s10

0000000080000748 <i_417>:
    80000748:	e5a10a83          	lb	s5,-422(sp)

000000008000074c <i_418>:
    8000074c:	01aab933          	sltu	s2,s5,s10

0000000080000750 <i_419>:
    80000750:	16a11323          	sh	a0,358(sp)

0000000080000754 <i_420>:
    80000754:	ef614383          	lbu	t2,-266(sp)

0000000080000758 <i_421>:
    80000758:	09c15a83          	lhu	s5,156(sp)

000000008000075c <i_422>:
    8000075c:	01ad1863          	bne	s10,s10,8000076c <i_426>

0000000080000760 <i_423>:
    80000760:	004ad313          	srli	t1,s5,0x4

0000000080000764 <i_424>:
    80000764:	f2714d03          	lbu	s10,-217(sp)

0000000080000768 <i_425>:
    80000768:	00000013          	nop

000000008000076c <i_426>:
    8000076c:	03c11523          	sh	t3,42(sp)

0000000080000770 <i_427>:
    80000770:	01c74733          	xor	a4,a4,t3

0000000080000774 <i_428>:
    80000774:	83800e13          	li	t3,-1992

0000000080000778 <i_429>:
    80000778:	83a00e93          	li	t4,-1990

000000008000077c <i_430>:
    8000077c:	01dd5463          	ble	t4,s10,80000784 <i_432>

0000000080000780 <i_431>:
    80000780:	05110703          	lb	a4,81(sp)

0000000080000784 <i_432>:
    80000784:	07815703          	lhu	a4,120(sp)

0000000080000788 <i_433>:
    80000788:	16e12823          	sw	a4,368(sp)

000000008000078c <i_434>:
    8000078c:	001e0e13          	addi	t3,t3,1
    80000790:	ffcef6e3          	bleu	t3,t4,8000077c <i_430>

0000000080000794 <i_435>:
    80000794:	00000013          	nop

0000000080000798 <i_436>:
    80000798:	00ed1663          	bne	s10,a4,800007a4 <i_439>

000000008000079c <i_437>:
    8000079c:	00e51863          	bne	a0,a4,800007ac <i_441>

00000000800007a0 <i_438>:
    800007a0:	fe6d0d13          	addi	s10,s10,-26

00000000800007a4 <i_439>:
    800007a4:	03ad773b          	remuw	a4,s10,s10

00000000800007a8 <i_440>:
    800007a8:	ee812d03          	lw	s10,-280(sp)

00000000800007ac <i_441>:
    800007ac:	00ad7d33          	and	s10,s10,a0

00000000800007b0 <i_442>:
    800007b0:	e2610403          	lb	s0,-474(sp)

00000000800007b4 <i_443>:
    800007b4:	0325d93b          	divuw	s2,a1,s2

00000000800007b8 <i_444>:
    800007b8:	75300f93          	li	t6,1875

00000000800007bc <i_445>:
    800007bc:	76500593          	li	a1,1893

00000000800007c0 <i_446>:
    800007c0:	f0c10403          	lb	s0,-244(sp)

00000000800007c4 <i_447>:
    800007c4:	001f8f93          	addi	t6,t6,1
    800007c8:	febfcce3          	blt	t6,a1,800007c0 <i_446>

00000000800007cc <i_448>:
    800007cc:	01744c63          	blt	s0,s7,800007e4 <i_454>

00000000800007d0 <i_449>:
    800007d0:	01a47463          	bleu	s10,s0,800007d8 <i_451>

00000000800007d4 <i_450>:
    800007d4:	03296bbb          	remw	s7,s2,s2

00000000800007d8 <i_451>:
    800007d8:	06411303          	lh	t1,100(sp)

00000000800007dc <i_452>:
    800007dc:	00000013          	nop

00000000800007e0 <i_453>:
    800007e0:	1d710b83          	lb	s7,471(sp)

00000000800007e4 <i_454>:
    800007e4:	ef711623          	sh	s7,-276(sp)

00000000800007e8 <i_455>:
    800007e8:	e3c12683          	lw	a3,-452(sp)

00000000800007ec <i_456>:
    800007ec:	7c800513          	li	a0,1992

00000000800007f0 <i_457>:
    800007f0:	7dc00413          	li	s0,2012

00000000800007f4 <i_458>:
    800007f4:	05813b83          	ld	s7,88(sp)

00000000800007f8 <i_459>:
    800007f8:	eb712e23          	sw	s7,-324(sp)

00000000800007fc <i_460>:
    800007fc:	e3211d23          	sh	s2,-454(sp)

0000000080000800 <i_461>:
    80000800:	02d68cbb          	mulw	s9,a3,a3

0000000080000804 <i_462>:
    80000804:	ff711523          	sh	s7,-22(sp)

0000000080000808 <i_463>:
    80000808:	e3910aa3          	sb	s9,-459(sp)

000000008000080c <i_464>:
    8000080c:	03013883          	ld	a7,48(sp)

0000000080000810 <i_465>:
    80000810:	00d00b93          	li	s7,13

0000000080000814 <i_466>:
    80000814:	417d56bb          	sraw	a3,s10,s7

0000000080000818 <i_467>:
    80000818:	02d8abb3          	mulhsu	s7,a7,a3

000000008000081c <i_468>:
    8000081c:	f4d14683          	lbu	a3,-179(sp)

0000000080000820 <i_469>:
    80000820:	01988c63          	beq	a7,s9,80000838 <i_474>

0000000080000824 <i_470>:
    80000824:	00150513          	addi	a0,a0,1
    80000828:	fca456e3          	ble	a0,s0,800007f4 <i_458>

000000008000082c <i_471>:
    8000082c:	fa815303          	lhu	t1,-88(sp)

0000000080000830 <i_472>:
    80000830:	11710e23          	sb	s7,284(sp)

0000000080000834 <i_473>:
    80000834:	41780bbb          	subw	s7,a6,s7

0000000080000838 <i_474>:
    80000838:	17811f83          	lh	t6,376(sp)

000000008000083c <i_475>:
    8000083c:	017fda63          	ble	s7,t6,80000850 <i_480>

0000000080000840 <i_476>:
    80000840:	017f9663          	bne	t6,s7,8000084c <i_479>

0000000080000844 <i_477>:
    80000844:	e1a11903          	lh	s2,-486(sp)

0000000080000848 <i_478>:
    80000848:	03914303          	lbu	t1,57(sp)

000000008000084c <i_479>:
    8000084c:	01f65663          	ble	t6,a2,80000858 <i_482>

0000000080000850 <i_480>:
    80000850:	012d6a33          	or	s4,s10,s2

0000000080000854 <i_481>:
    80000854:	037fe063          	bltu	t6,s7,80000874 <i_489>

0000000080000858 <i_482>:
    80000858:	001b971b          	slliw	a4,s7,0x1

000000008000085c <i_483>:
    8000085c:	fe412203          	lw	tp,-28(sp)

0000000080000860 <i_484>:
    80000860:	036c3bb3          	mulhu	s7,s8,s6

0000000080000864 <i_485>:
    80000864:	01376833          	or	a6,a4,s3

0000000080000868 <i_486>:
    80000868:	010fe663          	bltu	t6,a6,80000874 <i_489>

000000008000086c <i_487>:
    8000086c:	01057263          	bleu	a6,a0,80000870 <i_488>

0000000080000870 <i_488>:
    80000870:	01087833          	and	a6,a6,a6

0000000080000874 <i_489>:
    80000874:	00c00813          	li	a6,12

0000000080000878 <i_490>:
    80000878:	01081333          	sll	t1,a6,a6

000000008000087c <i_491>:
    8000087c:	e4813983          	ld	s3,-440(sp)

0000000080000880 <i_492>:
    80000880:	f2013303          	ld	t1,-224(sp)

0000000080000884 <i_493>:
    80000884:	01037a63          	bleu	a6,t1,80000898 <i_498>

0000000080000888 <i_494>:
    80000888:	19011323          	sh	a6,390(sp)

000000008000088c <i_495>:
    8000088c:	03411a03          	lh	s4,52(sp)

0000000080000890 <i_496>:
    80000890:	1a415683          	lhu	a3,420(sp)

0000000080000894 <i_497>:
    80000894:	00000013          	nop

0000000080000898 <i_498>:
    80000898:	02816b83          	lwu	s7,40(sp)

000000008000089c <i_499>:
    8000089c:	19a11803          	lh	a6,410(sp)

00000000800008a0 <i_500>:
    800008a0:	8a200293          	li	t0,-1886

00000000800008a4 <i_501>:
    800008a4:	8a800513          	li	a0,-1880

00000000800008a8 <i_502>:
    800008a8:	c556ff97          	auipc	t6,0xc556f

00000000800008ac <i_503>:
    800008ac:	f4e10783          	lb	a5,-178(sp)

00000000800008b0 <i_504>:
    800008b0:	00128293          	addi	t0,t0,1 # 3001 <main-0x7fffcfff>
    800008b4:	fe555ae3          	ble	t0,a0,800008a8 <i_502>

00000000800008b8 <i_505>:
    800008b8:	006a6663          	bltu	s4,t1,800008c4 <i_508>

00000000800008bc <i_506>:
    800008bc:	01046e63          	bltu	s0,a6,800008d8 <i_513>

00000000800008c0 <i_507>:
    800008c0:	013bea63          	bltu	s7,s3,800008d4 <i_512>

00000000800008c4 <i_508>:
    800008c4:	1b411983          	lh	s3,436(sp)

00000000800008c8 <i_509>:
    800008c8:	f2816203          	lwu	tp,-216(sp)

00000000800008cc <i_510>:
    800008cc:	e4e11183          	lh	gp,-434(sp)

00000000800008d0 <i_511>:
    800008d0:	03927463          	bleu	s9,tp,800008f8 <i_521>

00000000800008d4 <i_512>:
    800008d4:	01f25863          	ble	t6,tp,800008e4 <i_516>

00000000800008d8 <i_513>:
    800008d8:	3ee18c9b          	addiw	s9,gp,1006

00000000800008dc <i_514>:
    800008dc:	e9910b23          	sb	s9,-362(sp)

00000000800008e0 <i_515>:
    800008e0:	024b833b          	mulw	t1,s7,tp

00000000800008e4 <i_516>:
    800008e4:	02420263          	beq	tp,tp,80000908 <i_525>

00000000800008e8 <i_517>:
    800008e8:	00000013          	nop

00000000800008ec <i_518>:
    800008ec:	00000013          	nop

00000000800008f0 <i_519>:
    800008f0:	00000013          	nop

00000000800008f4 <i_520>:
    800008f4:	0c812a03          	lw	s4,200(sp)

00000000800008f8 <i_521>:
    800008f8:	ed610583          	lb	a1,-298(sp)

00000000800008fc <i_522>:
    800008fc:	e5416983          	lwu	s3,-428(sp)

0000000080000900 <i_523>:
    80000900:	019d6533          	or	a0,s10,s9

0000000080000904 <i_524>:
    80000904:	00000013          	nop

0000000080000908 <i_525>:
    80000908:	00000013          	nop

000000008000090c <i_526>:
    8000090c:	02458833          	mul	a6,a1,tp

0000000080000910 <i_527>:
    80000910:	79a00213          	li	tp,1946

0000000080000914 <i_528>:
    80000914:	7a400c93          	li	s9,1956

0000000080000918 <i_529>:
    80000918:	02b36463          	bltu	t1,a1,80000940 <i_538>

000000008000091c <i_530>:
    8000091c:	00120213          	addi	tp,tp,1 # 1 <main-0x7fffffff>
    80000920:	ff926ce3          	bltu	tp,s9,80000918 <i_529>

0000000080000924 <i_531>:
    80000924:	01099863          	bne	s3,a6,80000934 <i_535>

0000000080000928 <i_532>:
    80000928:	018a7463          	bleu	s8,s4,80000930 <i_534>

000000008000092c <i_533>:
    8000092c:	e2b13423          	sd	a1,-472(sp)

0000000080000930 <i_534>:
    80000930:	ef611203          	lh	tp,-266(sp)

0000000080000934 <i_535>:
    80000934:	01984cb3          	xor	s9,a6,s9

0000000080000938 <i_536>:
    80000938:	01908a63          	beq	ra,s9,8000094c <i_541>

000000008000093c <i_537>:
    8000093c:	f3012223          	sw	a6,-220(sp)

0000000080000940 <i_538>:
    80000940:	00a84a63          	blt	a6,a0,80000954 <i_543>

0000000080000944 <i_539>:
    80000944:	e6910083          	lb	ra,-407(sp)

0000000080000948 <i_540>:
    80000948:	f3012183          	lw	gp,-208(sp)

000000008000094c <i_541>:
    8000094c:	f4110083          	lb	ra,-191(sp)

0000000080000950 <i_542>:
    80000950:	0210c9bb          	divw	s3,ra,ra

0000000080000954 <i_543>:
    80000954:	02013803          	ld	a6,32(sp)

0000000080000958 <i_544>:
    80000958:	1a013083          	ld	ra,416(sp)

000000008000095c <i_545>:
    8000095c:	001a199b          	slliw	s3,s4,0x1

0000000080000960 <i_546>:
    80000960:	19314603          	lbu	a2,403(sp)

0000000080000964 <i_547>:
    80000964:	ed313c23          	sd	s3,-296(sp)

0000000080000968 <i_548>:
    80000968:	ece10603          	lb	a2,-306(sp)

000000008000096c <i_549>:
    8000096c:	00c80a63          	beq	a6,a2,80000980 <i_554>

0000000080000970 <i_550>:
    80000970:	0016161b          	slliw	a2,a2,0x1

0000000080000974 <i_551>:
    80000974:	00c67863          	bleu	a2,a2,80000984 <i_555>

0000000080000978 <i_552>:
    80000978:	02cd063b          	mulw	a2,s10,a2

000000008000097c <i_553>:
    8000097c:	e2c13023          	sd	a2,-480(sp)

0000000080000980 <i_554>:
    80000980:	02f14b03          	lbu	s6,47(sp)

0000000080000984 <i_555>:
    80000984:	016b0863          	beq	s6,s6,80000994 <i_559>

0000000080000988 <i_556>:
    80000988:	02c67263          	bleu	a2,a2,800009ac <i_565>

000000008000098c <i_557>:
    8000098c:	0cc11623          	sh	a2,204(sp)

0000000080000990 <i_558>:
    80000990:	02cb463b          	divw	a2,s6,a2

0000000080000994 <i_559>:
    80000994:	02c62f33          	mulhsu	t5,a2,a2

0000000080000998 <i_560>:
    80000998:	ee815703          	lhu	a4,-280(sp)

000000008000099c <i_561>:
    8000099c:	f8c11323          	sh	a2,-122(sp)

00000000800009a0 <i_562>:
    800009a0:	02cb6b33          	rem	s6,s6,a2

00000000800009a4 <i_563>:
    800009a4:	02c71063          	bne	a4,a2,800009c4 <i_571>

00000000800009a8 <i_564>:
    800009a8:	f0410fa3          	sb	tp,-225(sp)

00000000800009ac <i_565>:
    800009ac:	00cb0c63          	beq	s6,a2,800009c4 <i_571>

00000000800009b0 <i_566>:
    800009b0:	034f733b          	remuw	t1,t5,s4

00000000800009b4 <i_567>:
    800009b4:	e2d10b03          	lb	s6,-467(sp)

00000000800009b8 <i_568>:
    800009b8:	e3612a23          	sw	s6,-460(sp)

00000000800009bc <i_569>:
    800009bc:	1d611c23          	sh	s6,472(sp)

00000000800009c0 <i_570>:
    800009c0:	e6811283          	lh	t0,-408(sp)

00000000800009c4 <i_571>:
    800009c4:	005b4c63          	blt	s6,t0,800009dc <i_577>

00000000800009c8 <i_572>:
    800009c8:	03612623          	sw	s6,44(sp)

00000000800009cc <i_573>:
    800009cc:	027c53bb          	divuw	t2,s8,t2

00000000800009d0 <i_574>:
    800009d0:	1a816b03          	lwu	s6,424(sp)

00000000800009d4 <i_575>:
    800009d4:	00629463          	bne	t0,t1,800009dc <i_577>

00000000800009d8 <i_576>:
    800009d8:	04013383          	ld	t2,64(sp)

00000000800009dc <i_577>:
    800009dc:	16c11583          	lh	a1,364(sp)

00000000800009e0 <i_578>:
    800009e0:	fa713023          	sd	t2,-96(sp)

00000000800009e4 <i_579>:
    800009e4:	0074f4b3          	and	s1,s1,t2

00000000800009e8 <i_580>:
    800009e8:	0293c063          	blt	t2,s1,80000a08 <i_588>

00000000800009ec <i_581>:
    800009ec:	4015d69b          	sraiw	a3,a1,0x1

00000000800009f0 <i_582>:
    800009f0:	00359193          	slli	gp,a1,0x3

00000000800009f4 <i_583>:
    800009f4:	0018929b          	slliw	t0,a7,0x1

00000000800009f8 <i_584>:
    800009f8:	1a813483          	ld	s1,424(sp)

00000000800009fc <i_585>:
    800009fc:	02d4853b          	mulw	a0,s1,a3

0000000080000a00 <i_586>:
    80000a00:	00b4dc63          	ble	a1,s1,80000a18 <i_592>

0000000080000a04 <i_587>:
    80000a04:	e7a3b493          	sltiu	s1,t2,-390

0000000080000a08 <i_588>:
    80000a08:	fcb12423          	sw	a1,-56(sp)

0000000080000a0c <i_589>:
    80000a0c:	00000013          	nop

0000000080000a10 <i_590>:
    80000a10:	01900713          	li	a4,25

0000000080000a14 <i_591>:
    80000a14:	00e4d33b          	srlw	t1,s1,a4

0000000080000a18 <i_592>:
    80000a18:	01700713          	li	a4,23

0000000080000a1c <i_593>:
    80000a1c:	00ebd533          	srl	a0,s7,a4

0000000080000a20 <i_594>:
    80000a20:	81a00b93          	li	s7,-2022

0000000080000a24 <i_595>:
    80000a24:	82200493          	li	s1,-2014

0000000080000a28 <i_596>:
    80000a28:	0a415d03          	lhu	s10,164(sp)

0000000080000a2c <i_597>:
    80000a2c:	0b914303          	lbu	t1,185(sp)

0000000080000a30 <i_598>:
    80000a30:	0e215a03          	lhu	s4,226(sp)

0000000080000a34 <i_599>:
    80000a34:	03a37663          	bleu	s10,t1,80000a60 <i_609>

0000000080000a38 <i_600>:
    80000a38:	00754a63          	blt	a0,t2,80000a4c <i_604>

0000000080000a3c <i_601>:
    80000a3c:	001b8b93          	addi	s7,s7,1
    80000a40:	fe9b94e3          	bne	s7,s1,80000a28 <i_596>

0000000080000a44 <i_602>:
    80000a44:	03e8083b          	mulw	a6,a6,t5

0000000080000a48 <i_603>:
    80000a48:	e9611383          	lh	t2,-362(sp)

0000000080000a4c <i_604>:
    80000a4c:	fb010783          	lb	a5,-80(sp)

0000000080000a50 <i_605>:
    80000a50:	fd013703          	ld	a4,-48(sp)

0000000080000a54 <i_606>:
    80000a54:	00371d93          	slli	s11,a4,0x3

0000000080000a58 <i_607>:
    80000a58:	efc12283          	lw	t0,-260(sp)

0000000080000a5c <i_608>:
    80000a5c:	ff813383          	ld	t2,-8(sp)

0000000080000a60 <i_609>:
    80000a60:	0af11e23          	sh	a5,188(sp)

0000000080000a64 <i_610>:
    80000a64:	e6914d83          	lbu	s11,-407(sp)

0000000080000a68 <i_611>:
    80000a68:	03b3c3bb          	divw	t2,t2,s11

0000000080000a6c <i_612>:
    80000a6c:	ec320db7          	lui	s11,0xec320

0000000080000a70 <i_613>:
    80000a70:	14712223          	sw	t2,324(sp)

0000000080000a74 <i_614>:
    80000a74:	fc710a23          	sb	t2,-44(sp)

0000000080000a78 <i_615>:
    80000a78:	01bd8833          	add	a6,s11,s11

0000000080000a7c <i_616>:
    80000a7c:	f4816383          	lwu	t2,-184(sp)

0000000080000a80 <i_617>:
    80000a80:	02c38633          	mul	a2,t2,a2

0000000080000a84 <i_618>:
    80000a84:	01b94c63          	blt	s2,s11,80000a9c <i_624>

0000000080000a88 <i_619>:
    80000a88:	f7e11803          	lh	a6,-130(sp)

0000000080000a8c <i_620>:
    80000a8c:	0073a733          	slt	a4,t2,t2

0000000080000a90 <i_621>:
    80000a90:	03600513          	li	a0,54

0000000080000a94 <i_622>:
    80000a94:	00a713b3          	sll	t2,a4,a0

0000000080000a98 <i_623>:
    80000a98:	17012603          	lw	a2,368(sp)

0000000080000a9c <i_624>:
    80000a9c:	f1813803          	ld	a6,-232(sp)

0000000080000aa0 <i_625>:
    80000aa0:	01b60e63          	beq	a2,s11,80000abc <i_632>

0000000080000aa4 <i_626>:
    80000aa4:	010ddc63          	ble	a6,s11,80000abc <i_632>

0000000080000aa8 <i_627>:
    80000aa8:	dfac6613          	ori	a2,s8,-518

0000000080000aac <i_628>:
    80000aac:	15012c83          	lw	s9,336(sp)

0000000080000ab0 <i_629>:
    80000ab0:	4038561b          	sraiw	a2,a6,0x3

0000000080000ab4 <i_630>:
    80000ab4:	00000013          	nop

0000000080000ab8 <i_631>:
    80000ab8:	00000013          	nop

0000000080000abc <i_632>:
    80000abc:	00000013          	nop

0000000080000ac0 <i_633>:
    80000ac0:	f1c16983          	lwu	s3,-228(sp)

0000000080000ac4 <i_634>:
    80000ac4:	8ae00a13          	li	s4,-1874

0000000080000ac8 <i_635>:
    80000ac8:	8b900293          	li	t0,-1863

0000000080000acc <i_636>:
    80000acc:	01428a63          	beq	t0,s4,80000ae0 <i_641>

0000000080000ad0 <i_637>:
    80000ad0:	e2310603          	lb	a2,-477(sp)

0000000080000ad4 <i_638>:
    80000ad4:	03964f33          	div	t5,a2,s9

0000000080000ad8 <i_639>:
    80000ad8:	0029b633          	sltu	a2,s3,sp

0000000080000adc <i_640>:
    80000adc:	03a00713          	li	a4,58

0000000080000ae0 <i_641>:
    80000ae0:	00ecddb3          	srl	s11,s9,a4

0000000080000ae4 <i_642>:
    80000ae4:	06910e83          	lb	t4,105(sp)

0000000080000ae8 <i_643>:
    80000ae8:	001a0a13          	addi	s4,s4,1
    80000aec:	fe5a60e3          	bltu	s4,t0,80000acc <i_636>

0000000080000af0 <i_644>:
    80000af0:	ede10823          	sb	t5,-304(sp)

0000000080000af4 <i_645>:
    80000af4:	40275d1b          	sraiw	s10,a4,0x2

0000000080000af8 <i_646>:
    80000af8:	84d00193          	li	gp,-1971

0000000080000afc <i_647>:
    80000afc:	85a00f13          	li	t5,-1958

0000000080000b00 <i_648>:
    80000b00:	00000013          	nop

0000000080000b04 <i_649>:
    80000b04:	03ece463          	bltu	s9,t5,80000b2c <i_658>

0000000080000b08 <i_650>:
    80000b08:	0a415203          	lhu	tp,164(sp)

0000000080000b0c <i_651>:
    80000b0c:	00118193          	addi	gp,gp,1
    80000b10:	ffe1c8e3          	blt	gp,t5,80000b00 <i_648>

0000000080000b14 <i_652>:
    80000b14:	0e015303          	lhu	t1,224(sp)

0000000080000b18 <i_653>:
    80000b18:	e9012d03          	lw	s10,-368(sp)

0000000080000b1c <i_654>:
    80000b1c:	01ef5c63          	ble	t5,t5,80000b34 <i_660>

0000000080000b20 <i_655>:
    80000b20:	01e24863          	blt	tp,t5,80000b30 <i_659>

0000000080000b24 <i_656>:
    80000b24:	fc612a23          	sw	t1,-44(sp)

0000000080000b28 <i_657>:
    80000b28:	0eb14583          	lbu	a1,235(sp)

0000000080000b2c <i_658>:
    80000b2c:	e7010823          	sb	a6,-400(sp)

0000000080000b30 <i_659>:
    80000b30:	e1911c23          	sh	s9,-488(sp)

0000000080000b34 <i_660>:
    80000b34:	e5c12c83          	lw	s9,-420(sp)

0000000080000b38 <i_661>:
    80000b38:	01af5663          	ble	s10,t5,80000b44 <i_664>

0000000080000b3c <i_662>:
    80000b3c:	ede12823          	sw	t5,-304(sp)

0000000080000b40 <i_663>:
    80000b40:	00000013          	nop

0000000080000b44 <i_664>:
    80000b44:	00000013          	nop

0000000080000b48 <i_665>:
    80000b48:	02b10723          	sb	a1,46(sp)

0000000080000b4c <i_666>:
    80000b4c:	79f00293          	li	t0,1951

0000000080000b50 <i_667>:
    80000b50:	7a300d13          	li	s10,1955

0000000080000b54 <i_668>:
    80000b54:	00b2d663          	ble	a1,t0,80000b60 <i_671>

0000000080000b58 <i_669>:
    80000b58:	00000013          	nop

0000000080000b5c <i_670>:
    80000b5c:	00d27e63          	bleu	a3,tp,80000b78 <i_676>

0000000080000b60 <i_671>:
    80000b60:	003f5e63          	ble	gp,t5,80000b7c <i_677>

0000000080000b64 <i_672>:
    80000b64:	00b2da63          	ble	a1,t0,80000b78 <i_676>

0000000080000b68 <i_673>:
    80000b68:	00128293          	addi	t0,t0,1
    80000b6c:	fe5d74e3          	bleu	t0,s10,80000b54 <i_668>

0000000080000b70 <i_674>:
    80000b70:	07a13023          	sd	s10,96(sp)

0000000080000b74 <i_675>:
    80000b74:	fa514883          	lbu	a7,-91(sp)

0000000080000b78 <i_676>:
    80000b78:	0255f7bb          	remuw	a5,a1,t0

0000000080000b7c <i_677>:
    80000b7c:	e2651f97          	auipc	t6,0xe2651

0000000080000b80 <i_678>:
    80000b80:	01100f93          	li	t6,17

0000000080000b84 <i_679>:
    80000b84:	01ffd333          	srl	t1,t6,t6

0000000080000b88 <i_680>:
    80000b88:	ed810823          	sb	s8,-304(sp)

0000000080000b8c <i_681>:
    80000b8c:	0f810183          	lb	gp,248(sp)

0000000080000b90 <i_682>:
    80000b90:	68a7ef93          	ori	t6,a5,1674

0000000080000b94 <i_683>:
    80000b94:	0031e263          	bltu	gp,gp,80000b98 <i_684>

0000000080000b98 <i_684>:
    80000b98:	e2b14203          	lbu	tp,-469(sp)

0000000080000b9c <i_685>:
    80000b9c:	f0211783          	lh	a5,-254(sp)

0000000080000ba0 <i_686>:
    80000ba0:	00321a9b          	slliw	s5,tp,0x3

0000000080000ba4 <i_687>:
    80000ba4:	16f13423          	sd	a5,360(sp)

0000000080000ba8 <i_688>:
    80000ba8:	03e15183          	lhu	gp,62(sp)

0000000080000bac <i_689>:
    80000bac:	03dbefbb          	remw	t6,s7,t4

0000000080000bb0 <i_690>:
    80000bb0:	004fdb93          	srli	s7,t6,0x4

0000000080000bb4 <i_691>:
    80000bb4:	037f9263          	bne	t6,s7,80000bd8 <i_700>

0000000080000bb8 <i_692>:
    80000bb8:	6ff98993          	addi	s3,s3,1791 # 5befc6ff <main-0x24103901>

0000000080000bbc <i_693>:
    80000bbc:	0e813983          	ld	s3,232(sp)

0000000080000bc0 <i_694>:
    80000bc0:	e93fbe13          	sltiu	t3,t6,-365

0000000080000bc4 <i_695>:
    80000bc4:	fd311723          	sh	s3,-50(sp)

0000000080000bc8 <i_696>:
    80000bc8:	4049db9b          	sraiw	s7,s3,0x4

0000000080000bcc <i_697>:
    80000bcc:	10012403          	lw	s0,256(sp)

0000000080000bd0 <i_698>:
    80000bd0:	15016f83          	lwu	t6,336(sp)

0000000080000bd4 <i_699>:
    80000bd4:	17e10b83          	lb	s7,382(sp)

0000000080000bd8 <i_700>:
    80000bd8:	008e3bb3          	sltu	s7,t3,s0

0000000080000bdc <i_701>:
    80000bdc:	12812c23          	sw	s0,312(sp)

0000000080000be0 <i_702>:
    80000be0:	e3713823          	sd	s7,-464(sp)

0000000080000be4 <i_703>:
    80000be4:	037bc263          	blt	s7,s7,80000c08 <i_712>

0000000080000be8 <i_704>:
    80000be8:	028f9263          	bne	t6,s0,80000c0c <i_713>

0000000080000bec <i_705>:
    80000bec:	002f9193          	slli	gp,t6,0x2

0000000080000bf0 <i_706>:
    80000bf0:	02ef733b          	remuw	t1,t5,a4

0000000080000bf4 <i_707>:
    80000bf4:	f7f13c23          	sd	t6,-136(sp)

0000000080000bf8 <i_708>:
    80000bf8:	0041df9b          	srliw	t6,gp,0x4

0000000080000bfc <i_709>:
    80000bfc:	03c15183          	lhu	gp,60(sp)

0000000080000c00 <i_710>:
    80000c00:	403181bb          	subw	gp,gp,gp

0000000080000c04 <i_711>:
    80000c04:	05812783          	lw	a5,88(sp)

0000000080000c08 <i_712>:
    80000c08:	e4c16c83          	lwu	s9,-436(sp)

0000000080000c0c <i_713>:
    80000c0c:	fc011c83          	lh	s9,-64(sp)

0000000080000c10 <i_714>:
    80000c10:	02337463          	bleu	gp,t1,80000c38 <i_724>

0000000080000c14 <i_715>:
    80000c14:	039376bb          	remuw	a3,t1,s9

0000000080000c18 <i_716>:
    80000c18:	16313023          	sd	gp,352(sp)

0000000080000c1c <i_717>:
    80000c1c:	0036bc33          	sltu	s8,a3,gp

0000000080000c20 <i_718>:
    80000c20:	00f282b3          	add	t0,t0,a5

0000000080000c24 <i_719>:
    80000c24:	f3012783          	lw	a5,-208(sp)

0000000080000c28 <i_720>:
    80000c28:	002c5793          	srli	a5,s8,0x2

0000000080000c2c <i_721>:
    80000c2c:	e4e11823          	sh	a4,-432(sp)

0000000080000c30 <i_722>:
    80000c30:	e4812783          	lw	a5,-440(sp)

0000000080000c34 <i_723>:
    80000c34:	00000013          	nop

0000000080000c38 <i_724>:
    80000c38:	16812483          	lw	s1,360(sp)

0000000080000c3c <i_725>:
    80000c3c:	ee213823          	sd	sp,-272(sp)

0000000080000c40 <i_726>:
    80000c40:	85000a13          	li	s4,-1968

0000000080000c44 <i_727>:
    80000c44:	86200c13          	li	s8,-1950

0000000080000c48 <i_728>:
    80000c48:	ea611403          	lh	s0,-346(sp)

0000000080000c4c <i_729>:
    80000c4c:	02f4e463          	bltu	s1,a5,80000c74 <i_738>

0000000080000c50 <i_730>:
    80000c50:	06411283          	lh	t0,100(sp)

0000000080000c54 <i_731>:
    80000c54:	00f27a63          	bleu	a5,tp,80000c68 <i_735>

0000000080000c58 <i_732>:
    80000c58:	001a0a13          	addi	s4,s4,1
    80000c5c:	ff4c56e3          	ble	s4,s8,80000c48 <i_728>

0000000080000c60 <i_733>:
    80000c60:	403af793          	andi	a5,s5,1027

0000000080000c64 <i_734>:
    80000c64:	00813423          	sd	s0,8(sp)

0000000080000c68 <i_735>:
    80000c68:	f6816a03          	lwu	s4,-152(sp)

0000000080000c6c <i_736>:
    80000c6c:	0092ce63          	blt	t0,s1,80000c88 <i_743>

0000000080000c70 <i_737>:
    80000c70:	0c813983          	ld	s3,200(sp)

0000000080000c74 <i_738>:
    80000c74:	00169493          	slli	s1,a3,0x1

0000000080000c78 <i_739>:
    80000c78:	f4615f83          	lhu	t6,-186(sp)

0000000080000c7c <i_740>:
    80000c7c:	e6810b83          	lb	s7,-408(sp)

0000000080000c80 <i_741>:
    80000c80:	01ff8fb3          	add	t6,t6,t6

0000000080000c84 <i_742>:
    80000c84:	00000013          	nop

0000000080000c88 <i_743>:
    80000c88:	00000013          	nop

0000000080000c8c <i_744>:
    80000c8c:	00000013          	nop

0000000080000c90 <i_745>:
    80000c90:	79700513          	li	a0,1943

0000000080000c94 <i_746>:
    80000c94:	7a500493          	li	s1,1957

0000000080000c98 <i_747>:
    80000c98:	00150513          	addi	a0,a0,1
    80000c9c:	fea4dee3          	ble	a0,s1,80000c98 <i_747>

0000000080000ca0 <i_748>:
    80000ca0:	d894f813          	andi	a6,s1,-631

0000000080000ca4 <i_749>:
    80000ca4:	0dc12483          	lw	s1,220(sp)

0000000080000ca8 <i_750>:
    80000ca8:	bfd4e493          	ori	s1,s1,-1027

0000000080000cac <i_751>:
    80000cac:	02e86bbb          	remw	s7,a6,a4

0000000080000cb0 <i_752>:
    80000cb0:	0334f263          	bleu	s3,s1,80000cd4 <i_761>

0000000080000cb4 <i_753>:
    80000cb4:	02100493          	li	s1,33

0000000080000cb8 <i_754>:
    80000cb8:	40985fb3          	sra	t6,a6,s1

0000000080000cbc <i_755>:
    80000cbc:	03749263          	bne	s1,s7,80000ce0 <i_764>

0000000080000cc0 <i_756>:
    80000cc0:	e1f10483          	lb	s1,-481(sp)

0000000080000cc4 <i_757>:
    80000cc4:	eec16b03          	lwu	s6,-276(sp)

0000000080000cc8 <i_758>:
    80000cc8:	1bb12223          	sw	s11,420(sp)

0000000080000ccc <i_759>:
    80000ccc:	e7611823          	sh	s6,-400(sp)

0000000080000cd0 <i_760>:
    80000cd0:	fa913823          	sd	s1,-80(sp)

0000000080000cd4 <i_761>:
    80000cd4:	409686bb          	subw	a3,a3,s1

0000000080000cd8 <i_762>:
    80000cd8:	fb415b03          	lhu	s6,-76(sp)

0000000080000cdc <i_763>:
    80000cdc:	eb610723          	sb	s6,-338(sp)

0000000080000ce0 <i_764>:
    80000ce0:	f2114b03          	lbu	s6,-223(sp)

0000000080000ce4 <i_765>:
    80000ce4:	016b7463          	bleu	s6,s6,80000cec <i_767>

0000000080000ce8 <i_766>:
    80000ce8:	016b6263          	bltu	s6,s6,80000cec <i_767>

0000000080000cec <i_767>:
    80000cec:	f7210f83          	lb	t6,-142(sp)

0000000080000cf0 <i_768>:
    80000cf0:	eb013c03          	ld	s8,-336(sp)

0000000080000cf4 <i_769>:
    80000cf4:	03f68733          	mul	a4,a3,t6

0000000080000cf8 <i_770>:
    80000cf8:	fcd11823          	sh	a3,-48(sp)

0000000080000cfc <i_771>:
    80000cfc:	06c16d03          	lwu	s10,108(sp)

0000000080000d00 <i_772>:
    80000d00:	fd812483          	lw	s1,-40(sp)

0000000080000d04 <i_773>:
    80000d04:	00dfda63          	ble	a3,t6,80000d18 <i_778>

0000000080000d08 <i_774>:
    80000d08:	00012d03          	lw	s10,0(sp)

0000000080000d0c <i_775>:
    80000d0c:	16e13c23          	sd	a4,376(sp)

0000000080000d10 <i_776>:
    80000d10:	ee816b03          	lwu	s6,-280(sp)

0000000080000d14 <i_777>:
    80000d14:	009d7663          	bleu	s1,s10,80000d20 <i_780>

0000000080000d18 <i_778>:
    80000d18:	0a412d03          	lw	s10,164(sp)

0000000080000d1c <i_779>:
    80000d1c:	03fb4063          	blt	s6,t6,80000d3c <i_787>

0000000080000d20 <i_780>:
    80000d20:	030777bb          	remuw	a5,a4,a6

0000000080000d24 <i_781>:
    80000d24:	09c12803          	lw	a6,156(sp)

0000000080000d28 <i_782>:
    80000d28:	0cd10ea3          	sb	a3,221(sp)

0000000080000d2c <i_783>:
    80000d2c:	f6f11123          	sh	a5,-158(sp)

0000000080000d30 <i_784>:
    80000d30:	f9514783          	lbu	a5,-107(sp)

0000000080000d34 <i_785>:
    80000d34:	58260793          	addi	a5,a2,1410

0000000080000d38 <i_786>:
    80000d38:	f6c12423          	sw	a2,-152(sp)

0000000080000d3c <i_787>:
    80000d3c:	11615e03          	lhu	t3,278(sp)

0000000080000d40 <i_788>:
    80000d40:	11210e03          	lb	t3,274(sp)

0000000080000d44 <i_789>:
    80000d44:	8ce00893          	li	a7,-1842

0000000080000d48 <i_790>:
    80000d48:	8d200613          	li	a2,-1838

0000000080000d4c <i_791>:
    80000d4c:	0c112023          	sw	ra,192(sp)

0000000080000d50 <i_792>:
    80000d50:	07813783          	ld	a5,120(sp)

0000000080000d54 <i_793>:
    80000d54:	00f600b3          	add	ra,a2,a5

0000000080000d58 <i_794>:
    80000d58:	00188893          	addi	a7,a7,1
    80000d5c:	ff1658e3          	ble	a7,a2,80000d4c <i_791>

0000000080000d60 <i_795>:
    80000d60:	03416c03          	lwu	s8,52(sp)

0000000080000d64 <i_796>:
    80000d64:	a1f5a0b7          	lui	ra,0xa1f5a

0000000080000d68 <i_797>:
    80000d68:	02ab8463          	beq	s7,a0,80000d90 <i_807>

0000000080000d6c <i_798>:
    80000d6c:	002788b3          	add	a7,a5,sp

0000000080000d70 <i_799>:
    80000d70:	0d016703          	lwu	a4,208(sp)

0000000080000d74 <i_800>:
    80000d74:	0010ca63          	blt	ra,ra,80000d88 <i_805>

0000000080000d78 <i_801>:
    80000d78:	04611623          	sh	t1,76(sp)

0000000080000d7c <i_802>:
    80000d7c:	01c605b3          	add	a1,a2,t3

0000000080000d80 <i_803>:
    80000d80:	03f09fb3          	mulh	t6,ra,t6

0000000080000d84 <i_804>:
    80000d84:	0c211f83          	lh	t6,194(sp)

0000000080000d88 <i_805>:
    80000d88:	8c2fc093          	xori	ra,t6,-1854

0000000080000d8c <i_806>:
    80000d8c:	0010ea63          	bltu	ra,ra,80000da0 <i_811>

0000000080000d90 <i_807>:
    80000d90:	001f9a63          	bne	t6,ra,80000da4 <i_812>

0000000080000d94 <i_808>:
    80000d94:	fdc2da97          	auipc	s5,0xfdc2d

0000000080000d98 <i_809>:
    80000d98:	f38103a3          	sb	s8,-217(sp)

0000000080000d9c <i_810>:
    80000d9c:	19310c03          	lb	s8,403(sp)

0000000080000da0 <i_811>:
    80000da0:	00148eb3          	add	t4,s1,ra

0000000080000da4 <i_812>:
    80000da4:	00000013          	nop

0000000080000da8 <i_813>:
    80000da8:	19b12a23          	sw	s11,404(sp)

0000000080000dac <i_814>:
    80000dac:	7ac00c13          	li	s8,1964

0000000080000db0 <i_815>:
    80000db0:	7b600513          	li	a0,1974

0000000080000db4 <i_816>:
    80000db4:	0b016a03          	lwu	s4,176(sp)

0000000080000db8 <i_817>:
    80000db8:	02a6eab3          	rem	s5,a3,a0

0000000080000dbc <i_818>:
    80000dbc:	014fc463          	blt	t6,s4,80000dc4 <i_820>

0000000080000dc0 <i_819>:
    80000dc0:	7c5af813          	andi	a6,s5,1989

0000000080000dc4 <i_820>:
    80000dc4:	02ba57b3          	divu	a5,s4,a1

0000000080000dc8 <i_821>:
    80000dc8:	12b10803          	lb	a6,299(sp)

0000000080000dcc <i_822>:
    80000dcc:	fcd13c23          	sd	a3,-40(sp)

0000000080000dd0 <i_823>:
    80000dd0:	001c0c13          	addi	s8,s8,1
    80000dd4:	feac60e3          	bltu	s8,a0,80000db4 <i_816>

0000000080000dd8 <i_824>:
    80000dd8:	00000013          	nop

0000000080000ddc <i_825>:
    80000ddc:	e7313c23          	sd	s3,-392(sp)

0000000080000de0 <i_826>:
    80000de0:	81600793          	li	a5,-2026

0000000080000de4 <i_827>:
    80000de4:	81c00093          	li	ra,-2020

0000000080000de8 <i_828>:
    80000de8:	01d26e63          	bltu	tp,t4,80000e04 <i_835>

0000000080000dec <i_829>:
    80000dec:	04314a83          	lbu	s5,67(sp)

0000000080000df0 <i_830>:
    80000df0:	00c00f93          	li	t6,12

0000000080000df4 <i_831>:
    80000df4:	01f255bb          	srlw	a1,tp,t6

0000000080000df8 <i_832>:
    80000df8:	1bb10503          	lb	a0,443(sp)

0000000080000dfc <i_833>:
    80000dfc:	408b8eb3          	sub	t4,s7,s0

0000000080000e00 <i_834>:
    80000e00:	fc410e83          	lb	t4,-60(sp)

0000000080000e04 <i_835>:
    80000e04:	380fec13          	ori	s8,t6,896

0000000080000e08 <i_836>:
    80000e08:	0e310703          	lb	a4,227(sp)

0000000080000e0c <i_837>:
    80000e0c:	02efea3b          	remw	s4,t6,a4

0000000080000e10 <i_838>:
    80000e10:	00000013          	nop

0000000080000e14 <i_839>:
    80000e14:	0345c463          	blt	a1,s4,80000e3c <i_848>

0000000080000e18 <i_840>:
    80000e18:	03825c3b          	divuw	s8,tp,s8

0000000080000e1c <i_841>:
    80000e1c:	00178793          	addi	a5,a5,1
    80000e20:	fcf0f4e3          	bleu	a5,ra,80000de8 <i_828>

0000000080000e24 <i_842>:
    80000e24:	e3512623          	sw	s5,-468(sp)

0000000080000e28 <i_843>:
    80000e28:	0c513823          	sd	t0,208(sp)

0000000080000e2c <i_844>:
    80000e2c:	07d12e23          	sw	t4,124(sp)

0000000080000e30 <i_845>:
    80000e30:	f5f12023          	sw	t6,-192(sp)

0000000080000e34 <i_846>:
    80000e34:	00e0bfb3          	sltu	t6,ra,a4

0000000080000e38 <i_847>:
    80000e38:	00efc263          	blt	t6,a4,80000e3c <i_848>

0000000080000e3c <i_848>:
    80000e3c:	14c10a23          	sb	a2,340(sp)

0000000080000e40 <i_849>:
    80000e40:	0f811e03          	lh	t3,248(sp)

0000000080000e44 <i_850>:
    80000e44:	1ce12223          	sw	a4,452(sp)

0000000080000e48 <i_851>:
    80000e48:	02c6d6b3          	divu	a3,a3,a2

0000000080000e4c <i_852>:
    80000e4c:	00e10523          	sb	a4,10(sp)

0000000080000e50 <i_853>:
    80000e50:	f2614903          	lbu	s2,-218(sp)

0000000080000e54 <i_854>:
    80000e54:	ef0f8e9b          	addiw	t4,t6,-272

0000000080000e58 <i_855>:
    80000e58:	e8c14c83          	lbu	s9,-372(sp)

0000000080000e5c <i_856>:
    80000e5c:	0a813c03          	ld	s8,168(sp)

0000000080000e60 <i_857>:
    80000e60:	0c914f03          	lbu	t5,201(sp)

0000000080000e64 <i_858>:
    80000e64:	09e14e83          	lbu	t4,158(sp)

0000000080000e68 <i_859>:
    80000e68:	15d12e23          	sw	t4,348(sp)

0000000080000e6c <i_860>:
    80000e6c:	018e6e63          	bltu	t3,s8,80000e88 <i_867>

0000000080000e70 <i_861>:
    80000e70:	15911923          	sh	s9,338(sp)

0000000080000e74 <i_862>:
    80000e74:	01ee5863          	ble	t5,t3,80000e84 <i_866>

0000000080000e78 <i_863>:
    80000e78:	003c9e9b          	slliw	t4,s9,0x3

0000000080000e7c <i_864>:
    80000e7c:	1d013c23          	sd	a6,472(sp)

0000000080000e80 <i_865>:
    80000e80:	031e8463          	beq	t4,a7,80000ea8 <i_875>

0000000080000e84 <i_866>:
    80000e84:	f7e11c23          	sh	t5,-136(sp)

0000000080000e88 <i_867>:
    80000e88:	1bd103a3          	sb	t4,423(sp)

0000000080000e8c <i_868>:
    80000e8c:	16a15183          	lhu	gp,362(sp)

0000000080000e90 <i_869>:
    80000e90:	03de6c33          	rem	s8,t3,t4

0000000080000e94 <i_870>:
    80000e94:	f3013a83          	ld	s5,-208(sp)

0000000080000e98 <i_871>:
    80000e98:	40380d33          	sub	s10,a6,gp

0000000080000e9c <i_872>:
    80000e9c:	ba88e337          	lui	t1,0xba88e

0000000080000ea0 <i_873>:
    80000ea0:	19714683          	lbu	a3,407(sp)

0000000080000ea4 <i_874>:
    80000ea4:	4046d693          	srai	a3,a3,0x4

0000000080000ea8 <i_875>:
    80000ea8:	e4613823          	sd	t1,-432(sp)

0000000080000eac <i_876>:
    80000eac:	12d108a3          	sb	a3,305(sp)

0000000080000eb0 <i_877>:
    80000eb0:	00d6c6b3          	xor	a3,a3,a3

0000000080000eb4 <i_878>:
    80000eb4:	f0d11c23          	sh	a3,-232(sp)

0000000080000eb8 <i_879>:
    80000eb8:	00d30a63          	beq	t1,a3,80000ecc <i_884>

0000000080000ebc <i_880>:
    80000ebc:	00636463          	bltu	t1,t1,80000ec4 <i_882>

0000000080000ec0 <i_881>:
    80000ec0:	ea816d83          	lwu	s11,-344(sp)

0000000080000ec4 <i_882>:
    80000ec4:	00d36333          	or	t1,t1,a3

0000000080000ec8 <i_883>:
    80000ec8:	03c00413          	li	s0,60

0000000080000ecc <i_884>:
    80000ecc:	00811833          	sll	a6,sp,s0

0000000080000ed0 <i_885>:
    80000ed0:	03211d83          	lh	s11,50(sp)

0000000080000ed4 <i_886>:
    80000ed4:	09013e03          	ld	t3,144(sp)

0000000080000ed8 <i_887>:
    80000ed8:	00680eb3          	add	t4,a6,t1

0000000080000edc <i_888>:
    80000edc:	01de2833          	slt	a6,t3,t4

0000000080000ee0 <i_889>:
    80000ee0:	40435313          	srai	t1,t1,0x4

0000000080000ee4 <i_890>:
    80000ee4:	13a15803          	lhu	a6,314(sp)

0000000080000ee8 <i_891>:
    80000ee8:	ebc10123          	sb	t3,-350(sp)

0000000080000eec <i_892>:
    80000eec:	00000013          	nop

0000000080000ef0 <i_893>:
    80000ef0:	78e00893          	li	a7,1934

0000000080000ef4 <i_894>:
    80000ef4:	79400e93          	li	t4,1940

0000000080000ef8 <i_895>:
    80000ef8:	031ef83b          	remuw	a6,t4,a7

0000000080000efc <i_896>:
    80000efc:	0018919b          	slliw	gp,a7,0x1

0000000080000f00 <i_897>:
    80000f00:	03fef733          	remu	a4,t4,t6

0000000080000f04 <i_898>:
    80000f04:	e5011703          	lh	a4,-432(sp)

0000000080000f08 <i_899>:
    80000f08:	038e9463          	bne	t4,s8,80000f30 <i_908>

0000000080000f0c <i_900>:
    80000f0c:	00275f9b          	srliw	t6,a4,0x2

0000000080000f10 <i_901>:
    80000f10:	e7514703          	lbu	a4,-395(sp)

0000000080000f14 <i_902>:
    80000f14:	03a85263          	ble	s10,a6,80000f38 <i_910>

0000000080000f18 <i_903>:
    80000f18:	00188893          	addi	a7,a7,1
    80000f1c:	fd1edee3          	ble	a7,t4,80000ef8 <i_895>

0000000080000f20 <i_904>:
    80000f20:	f1514883          	lbu	a7,-235(sp)

0000000080000f24 <i_905>:
    80000f24:	f4c12883          	lw	a7,-180(sp)

0000000080000f28 <i_906>:
    80000f28:	08e11f23          	sh	a4,158(sp)

0000000080000f2c <i_907>:
    80000f2c:	10813883          	ld	a7,264(sp)

0000000080000f30 <i_908>:
    80000f30:	37d62717          	auipc	a4,0x37d62

0000000080000f34 <i_909>:
    80000f34:	00000013          	nop

0000000080000f38 <i_910>:
    80000f38:	1d010283          	lb	t0,464(sp)

0000000080000f3c <i_911>:
    80000f3c:	00000013          	nop

0000000080000f40 <i_912>:
    80000f40:	84600f93          	li	t6,-1978

0000000080000f44 <i_913>:
    80000f44:	84f00813          	li	a6,-1969

0000000080000f48 <i_914>:
    80000f48:	05016703          	lwu	a4,80(sp)

0000000080000f4c <i_915>:
    80000f4c:	e9f11823          	sh	t6,-368(sp)

0000000080000f50 <i_916>:
    80000f50:	e9c11603          	lh	a2,-356(sp)

0000000080000f54 <i_917>:
    80000f54:	0118ca63          	blt	a7,a7,80000f68 <i_921>

0000000080000f58 <i_918>:
    80000f58:	001f8f93          	addi	t6,t6,1 # 62651b7d <main-0x1d9ae483>
    80000f5c:	fff856e3          	ble	t6,a6,80000f48 <i_914>

0000000080000f60 <i_919>:
    80000f60:	1cc12c23          	sw	a2,472(sp)

0000000080000f64 <i_920>:
    80000f64:	0102cc63          	blt	t0,a6,80000f7c <i_926>

0000000080000f68 <i_921>:
    80000f68:	15a15903          	lhu	s2,346(sp)

0000000080000f6c <i_922>:
    80000f6c:	6758ea93          	ori	s5,a7,1653

0000000080000f70 <i_923>:
    80000f70:	00000013          	nop

0000000080000f74 <i_924>:
    80000f74:	00000013          	nop

0000000080000f78 <i_925>:
    80000f78:	1df14883          	lbu	a7,479(sp)

0000000080000f7c <i_926>:
    80000f7c:	00000013          	nop

0000000080000f80 <i_927>:
    80000f80:	02c7b3b3          	mulhu	t2,a5,a2

0000000080000f84 <i_928>:
    80000f84:	84a00293          	li	t0,-1974

0000000080000f88 <i_929>:
    80000f88:	85300793          	li	a5,-1965

0000000080000f8c <i_930>:
    80000f8c:	00128293          	addi	t0,t0,1
    80000f90:	fef2eee3          	bltu	t0,a5,80000f8c <i_930>

0000000080000f94 <i_931>:
    80000f94:	4e87bb37          	lui	s6,0x4e87b

0000000080000f98 <i_932>:
    80000f98:	011b4c63          	blt	s6,a7,80000fb0 <i_938>

0000000080000f9c <i_933>:
    80000f9c:	011f9a63          	bne	t6,a7,80000fb0 <i_938>

0000000080000fa0 <i_934>:
    80000fa0:	3471e813          	ori	a6,gp,839

0000000080000fa4 <i_935>:
    80000fa4:	06c11e23          	sh	a2,124(sp)

0000000080000fa8 <i_936>:
    80000fa8:	01171e63          	bne	a4,a7,80000fc4 <i_943>

0000000080000fac <i_937>:
    80000fac:	facd7893          	andi	a7,s10,-84

0000000080000fb0 <i_938>:
    80000fb0:	0152c1b3          	xor	gp,t0,s5

0000000080000fb4 <i_939>:
    80000fb4:	08212023          	sw	sp,128(sp)

0000000080000fb8 <i_940>:
    80000fb8:	02e8e5b3          	rem	a1,a7,a4

0000000080000fbc <i_941>:
    80000fbc:	fa212423          	sw	sp,-88(sp)

0000000080000fc0 <i_942>:
    80000fc0:	0261f73b          	remuw	a4,gp,t1

0000000080000fc4 <i_943>:
    80000fc4:	f0b13023          	sd	a1,-256(sp)

0000000080000fc8 <i_944>:
    80000fc8:	02b5a5b3          	mulhsu	a1,a1,a1

0000000080000fcc <i_945>:
    80000fcc:	8ca00b93          	li	s7,-1846

0000000080000fd0 <i_946>:
    80000fd0:	8ce00893          	li	a7,-1842

0000000080000fd4 <i_947>:
    80000fd4:	03714203          	lbu	tp,55(sp)

0000000080000fd8 <i_948>:
    80000fd8:	0cb11f23          	sh	a1,222(sp)

0000000080000fdc <i_949>:
    80000fdc:	e2012f03          	lw	t5,-480(sp)

0000000080000fe0 <i_950>:
    80000fe0:	01e5e5b3          	or	a1,a1,t5

0000000080000fe4 <i_951>:
    80000fe4:	02b49263          	bne	s1,a1,80001008 <i_959>

0000000080000fe8 <i_952>:
    80000fe8:	fc014f03          	lbu	t5,-64(sp)

0000000080000fec <i_953>:
    80000fec:	001b8b93          	addi	s7,s7,1
    80000ff0:	ff78f2e3          	bleu	s7,a7,80000fd4 <i_947>

0000000080000ff4 <i_954>:
    80000ff4:	00000013          	nop

0000000080000ff8 <i_955>:
    80000ff8:	4035de13          	srai	t3,a1,0x3

0000000080000ffc <i_956>:
    80000ffc:	1b910c83          	lb	s9,441(sp)

0000000080001000 <i_957>:
    80001000:	002cd51b          	srliw	a0,s9,0x2

0000000080001004 <i_958>:
    80001004:	01e56a63          	bltu	a0,t5,80001018 <i_963>

0000000080001008 <i_959>:
    80001008:	f4b10b23          	sb	a1,-170(sp)

000000008000100c <i_960>:
    8000100c:	f3c12403          	lw	s0,-196(sp)

0000000080001010 <i_961>:
    80001010:	12e11e03          	lh	t3,302(sp)

0000000080001014 <i_962>:
    80001014:	0044569b          	srliw	a3,s0,0x4

0000000080001018 <i_963>:
    80001018:	f2813403          	ld	s0,-216(sp)

000000008000101c <i_964>:
    8000101c:	00bf46b3          	xor	a3,t5,a1

0000000080001020 <i_965>:
    80001020:	1c013b03          	ld	s6,448(sp)

0000000080001024 <i_966>:
    80001024:	02ae6cbb          	remw	s9,t3,a0

0000000080001028 <i_967>:
    80001028:	8f457993          	andi	s3,a0,-1804

000000008000102c <i_968>:
    8000102c:	c551e293          	ori	t0,gp,-939

0000000080001030 <i_969>:
    80001030:	fd011283          	lh	t0,-48(sp)

0000000080001034 <i_970>:
    80001034:	fbe12c23          	sw	t5,-72(sp)

0000000080001038 <i_971>:
    80001038:	4045d79b          	sraiw	a5,a1,0x4

000000008000103c <i_972>:
    8000103c:	25646593          	ori	a1,s0,598

0000000080001040 <i_973>:
    80001040:	00be0e63          	beq	t3,a1,8000105c <i_980>

0000000080001044 <i_974>:
    80001044:	f8013d03          	ld	s10,-128(sp)

0000000080001048 <i_975>:
    80001048:	019f1663          	bne	t5,s9,80001054 <i_978>

000000008000104c <i_976>:
    8000104c:	02b50e3b          	mulw	t3,a0,a1

0000000080001050 <i_977>:
    80001050:	f0510183          	lb	gp,-251(sp)

0000000080001054 <i_978>:
    80001054:	0ffd6593          	ori	a1,s10,255

0000000080001058 <i_979>:
    80001058:	02812583          	lw	a1,40(sp)

000000008000105c <i_980>:
    8000105c:	0111f463          	bleu	a7,gp,80001064 <i_982>

0000000080001060 <i_981>:
    80001060:	00b5f1b3          	and	gp,a1,a1

0000000080001064 <i_982>:
    80001064:	0238f8b3          	remu	a7,a7,gp

0000000080001068 <i_983>:
    80001068:	0375e463          	bltu	a1,s7,80001090 <i_993>

000000008000106c <i_984>:
    8000106c:	411581b3          	sub	gp,a1,a7

0000000080001070 <i_985>:
    80001070:	fef14583          	lbu	a1,-17(sp)

0000000080001074 <i_986>:
    80001074:	97f5b213          	sltiu	tp,a1,-1665

0000000080001078 <i_987>:
    80001078:	0115c863          	blt	a1,a7,80001088 <i_991>

000000008000107c <i_988>:
    8000107c:	f4013583          	ld	a1,-192(sp)

0000000080001080 <i_989>:
    80001080:	1c413423          	sd	tp,456(sp)

0000000080001084 <i_990>:
    80001084:	00000013          	nop

0000000080001088 <i_991>:
    80001088:	f8811203          	lh	tp,-120(sp)

000000008000108c <i_992>:
    8000108c:	f9011c83          	lh	s9,-112(sp)

0000000080001090 <i_993>:
    80001090:	0e412c83          	lw	s9,228(sp)

0000000080001094 <i_994>:
    80001094:	002cd713          	srli	a4,s9,0x2

0000000080001098 <i_995>:
    80001098:	86500413          	li	s0,-1947

000000008000109c <i_996>:
    8000109c:	87300593          	li	a1,-1933

00000000800010a0 <i_997>:
    800010a0:	00140413          	addi	s0,s0,1
    800010a4:	fe85dee3          	ble	s0,a1,800010a0 <i_997>

00000000800010a8 <i_998>:
    800010a8:	00000013          	nop

00000000800010ac <i_999>:
    800010ac:	00e4fcb3          	and	s9,s1,a4

00000000800010b0 <i_1000>:
    800010b0:	fb911923          	sh	s9,-78(sp)

00000000800010b4 <i_1001>:
    800010b4:	05e15703          	lhu	a4,94(sp)

00000000800010b8 <i_1002>:
    800010b8:	024aef3b          	remw	t5,s5,tp

00000000800010bc <i_1003>:
    800010bc:	01976e63          	bltu	a4,s9,800010d8 <i_1010>

00000000800010c0 <i_1004>:
    800010c0:	1a813b83          	ld	s7,424(sp)

00000000800010c4 <i_1005>:
    800010c4:	027f573b          	divuw	a4,t5,t2

00000000800010c8 <i_1006>:
    800010c8:	00ef6463          	bltu	t5,a4,800010d0 <i_1008>

00000000800010cc <i_1007>:
    800010cc:	03913023          	sd	s9,32(sp)

00000000800010d0 <i_1008>:
    800010d0:	02a15303          	lhu	t1,42(sp)

00000000800010d4 <i_1009>:
    800010d4:	f8e12223          	sw	a4,-124(sp)

00000000800010d8 <i_1010>:
    800010d8:	01b00693          	li	a3,27

00000000800010dc <i_1011>:
    800010dc:	00d756b3          	srl	a3,a4,a3

00000000800010e0 <i_1012>:
    800010e0:	8cc00413          	li	s0,-1844

00000000800010e4 <i_1013>:
    800010e4:	8cf00793          	li	a5,-1841

00000000800010e8 <i_1014>:
    800010e8:	40e78733          	sub	a4,a5,a4

00000000800010ec <i_1015>:
    800010ec:	0e813703          	ld	a4,232(sp)

00000000800010f0 <i_1016>:
    800010f0:	00e775b3          	and	a1,a4,a4

00000000800010f4 <i_1017>:
    800010f4:	02e5e73b          	remw	a4,a1,a4

00000000800010f8 <i_1018>:
    800010f8:	f9e10583          	lb	a1,-98(sp)

00000000800010fc <i_1019>:
    800010fc:	14212623          	sw	sp,332(sp)

0000000080001100 <i_1020>:
    80001100:	00000013          	nop

0000000080001104 <i_1021>:
    80001104:	ee816583          	lwu	a1,-280(sp)

0000000080001108 <i_1022>:
    80001108:	02b74bbb          	divw	s7,a4,a1

000000008000110c <i_1023>:
    8000110c:	a1023613          	sltiu	a2,tp,-1520

0000000080001110 <i_1024>:
    80001110:	00b20bb3          	add	s7,tp,a1

0000000080001114 <i_1025>:
    80001114:	00140413          	addi	s0,s0,1
    80001118:	fcf468e3          	bltu	s0,a5,800010e8 <i_1014>

000000008000111c <i_1026>:
    8000111c:	06510b83          	lb	s7,101(sp)

0000000080001120 <i_1027>:
    80001120:	ecd14b83          	lbu	s7,-307(sp)

0000000080001124 <i_1028>:
    80001124:	e8c101a3          	sb	a2,-381(sp)

0000000080001128 <i_1029>:
    80001128:	13012b83          	lw	s7,304(sp)

000000008000112c <i_1030>:
    8000112c:	d4c73b93          	sltiu	s7,a4,-692

0000000080001130 <i_1031>:
    80001130:	f7c12703          	lw	a4,-132(sp)

0000000080001134 <i_1032>:
    80001134:	f0e11623          	sh	a4,-244(sp)

0000000080001138 <i_1033>:
    80001138:	fbb14b83          	lbu	s7,-69(sp)

000000008000113c <i_1034>:
    8000113c:	f7a10b83          	lb	s7,-134(sp)

0000000080001140 <i_1035>:
    80001140:	017bfa63          	bleu	s7,s7,80001154 <i_1040>

0000000080001144 <i_1036>:
    80001144:	16813b83          	ld	s7,360(sp)

0000000080001148 <i_1037>:
    80001148:	17512c23          	sw	s5,376(sp)

000000008000114c <i_1038>:
    8000114c:	02fbfbbb          	remuw	s7,s7,a5

0000000080001150 <i_1039>:
    80001150:	017bfe63          	bleu	s7,s7,8000116c <i_1046>

0000000080001154 <i_1040>:
    80001154:	036bcb33          	div	s6,s7,s6

0000000080001158 <i_1041>:
    80001158:	0cd10b83          	lb	s7,205(sp)

000000008000115c <i_1042>:
    8000115c:	f7c11d03          	lh	s10,-132(sp)

0000000080001160 <i_1043>:
    80001160:	e4813083          	ld	ra,-440(sp)

0000000080001164 <i_1044>:
    80001164:	2c55eb97          	auipc	s7,0x2c55e

0000000080001168 <i_1045>:
    80001168:	05711a23          	sh	s7,84(sp)

000000008000116c <i_1046>:
    8000116c:	028be93b          	remw	s2,s7,s0

0000000080001170 <i_1047>:
    80001170:	07615d83          	lhu	s11,118(sp)

0000000080001174 <i_1048>:
    80001174:	11415b83          	lhu	s7,276(sp)

0000000080001178 <i_1049>:
    80001178:	017bd663          	ble	s7,s7,80001184 <i_1052>

000000008000117c <i_1050>:
    8000117c:	01b0abb3          	slt	s7,ra,s11

0000000080001180 <i_1051>:
    80001180:	1b114b83          	lbu	s7,433(sp)

0000000080001184 <i_1052>:
    80001184:	06610b83          	lb	s7,102(sp)

0000000080001188 <i_1053>:
    80001188:	0d813b83          	ld	s7,216(sp)

000000008000118c <i_1054>:
    8000118c:	00700893          	li	a7,7

0000000080001190 <i_1055>:
    80001190:	411bddb3          	sra	s11,s7,a7

0000000080001194 <i_1056>:
    80001194:	f3112023          	sw	a7,-224(sp)

0000000080001198 <i_1057>:
    80001198:	e3214d83          	lbu	s11,-462(sp)

000000008000119c <i_1058>:
    8000119c:	00ddda63          	ble	a3,s11,800011b0 <i_1063>

00000000800011a0 <i_1059>:
    800011a0:	03400213          	li	tp,52

00000000800011a4 <i_1060>:
    800011a4:	0049d333          	srl	t1,s3,tp

00000000800011a8 <i_1061>:
    800011a8:	031bd063          	ble	a7,s7,800011c8 <i_1069>

00000000800011ac <i_1062>:
    800011ac:	006d8c63          	beq	s11,t1,800011c4 <i_1068>

00000000800011b0 <i_1063>:
    800011b0:	cc323893          	sltiu	a7,tp,-829

00000000800011b4 <i_1064>:
    800011b4:	6cddb893          	sltiu	a7,s11,1741

00000000800011b8 <i_1065>:
    800011b8:	026366b3          	rem	a3,t1,t1

00000000800011bc <i_1066>:
    800011bc:	fd110423          	sb	a7,-56(sp)

00000000800011c0 <i_1067>:
    800011c0:	f3c15b83          	lhu	s7,-196(sp)

00000000800011c4 <i_1068>:
    800011c4:	06812303          	lw	t1,104(sp)

00000000800011c8 <i_1069>:
    800011c8:	e7c14883          	lbu	a7,-388(sp)

00000000800011cc <i_1070>:
    800011cc:	40668833          	sub	a6,a3,t1

00000000800011d0 <i_1071>:
    800011d0:	01180e63          	beq	a6,a7,800011ec <i_1078>

00000000800011d4 <i_1072>:
    800011d4:	fb110d23          	sb	a7,-70(sp)

00000000800011d8 <i_1073>:
    800011d8:	02d84263          	blt	a6,a3,800011fc <i_1082>

00000000800011dc <i_1074>:
    800011dc:	00000013          	nop

00000000800011e0 <i_1075>:
    800011e0:	03415683          	lhu	a3,52(sp)

00000000800011e4 <i_1076>:
    800011e4:	03591db3          	mulh	s11,s2,s5

00000000800011e8 <i_1077>:
    800011e8:	fc010503          	lb	a0,-64(sp)

00000000800011ec <i_1078>:
    800011ec:	0e013903          	ld	s2,224(sp)

00000000800011f0 <i_1079>:
    800011f0:	41b507b3          	sub	a5,a0,s11

00000000800011f4 <i_1080>:
    800011f4:	7d16edb7          	lui	s11,0x7d16e

00000000800011f8 <i_1081>:
    800011f8:	02f952bb          	divuw	t0,s2,a5

00000000800011fc <i_1082>:
    800011fc:	02416783          	lwu	a5,36(sp)

0000000080001200 <i_1083>:
    80001200:	e6f10523          	sb	a5,-406(sp)

0000000080001204 <i_1084>:
    80001204:	7a500a93          	li	s5,1957

0000000080001208 <i_1085>:
    80001208:	7b600893          	li	a7,1974

000000008000120c <i_1086>:
    8000120c:	00000013          	nop

0000000080001210 <i_1087>:
    80001210:	01300793          	li	a5,19

0000000080001214 <i_1088>:
    80001214:	00f7d7bb          	srlw	a5,a5,a5

0000000080001218 <i_1089>:
    80001218:	00000013          	nop

000000008000121c <i_1090>:
    8000121c:	001a8a93          	addi	s5,s5,1 # 7dc2dd95 <main-0x23d226b>
    80001220:	ff1ac6e3          	blt	s5,a7,8000120c <i_1086>

0000000080001224 <i_1091>:
    80001224:	0012d29b          	srliw	t0,t0,0x1

0000000080001228 <i_1092>:
    80001228:	e4013283          	ld	t0,-448(sp)

000000008000122c <i_1093>:
    8000122c:	f4510723          	sb	t0,-178(sp)

0000000080001230 <i_1094>:
    80001230:	0252f633          	remu	a2,t0,t0

0000000080001234 <i_1095>:
    80001234:	04c11223          	sh	a2,68(sp)

0000000080001238 <i_1096>:
    80001238:	0342c263          	blt	t0,s4,8000125c <i_1105>

000000008000123c <i_1097>:
    8000123c:	18816603          	lwu	a2,392(sp)

0000000080001240 <i_1098>:
    80001240:	00c29c63          	bne	t0,a2,80001258 <i_1104>

0000000080001244 <i_1099>:
    80001244:	e9c11483          	lh	s1,-356(sp)

0000000080001248 <i_1100>:
    80001248:	e8910aa3          	sb	s1,-363(sp)

000000008000124c <i_1101>:
    8000124c:	00b00b13          	li	s6,11

0000000080001250 <i_1102>:
    80001250:	016615b3          	sll	a1,a2,s6

0000000080001254 <i_1103>:
    80001254:	00f00893          	li	a7,15

0000000080001258 <i_1104>:
    80001258:	4115d43b          	sraw	s0,a1,a7

000000008000125c <i_1105>:
    8000125c:	0256083b          	mulw	a6,a2,t0

0000000080001260 <i_1106>:
    80001260:	1aa11e83          	lh	t4,426(sp)

0000000080001264 <i_1107>:
    80001264:	00571263          	bne	a4,t0,80001268 <i_1108>

0000000080001268 <i_1108>:
    80001268:	010b1663          	bne	s6,a6,80001274 <i_1111>

000000008000126c <i_1109>:
    8000126c:	fc513023          	sd	t0,-64(sp)

0000000080001270 <i_1110>:
    80001270:	1d014283          	lbu	t0,464(sp)

0000000080001274 <i_1111>:
    80001274:	f5013b03          	ld	s6,-176(sp)

0000000080001278 <i_1112>:
    80001278:	03dec263          	blt	t4,t4,8000129c <i_1121>

000000008000127c <i_1113>:
    8000127c:	03f2f463          	bleu	t6,t0,800012a4 <i_1123>

0000000080001280 <i_1114>:
    80001280:	f0510fa3          	sb	t0,-225(sp)

0000000080001284 <i_1115>:
    80001284:	18510323          	sb	t0,390(sp)

0000000080001288 <i_1116>:
    80001288:	0139af33          	slt	t5,s3,s3

000000008000128c <i_1117>:
    8000128c:	01b90c63          	beq	s2,s11,800012a4 <i_1123>

0000000080001290 <i_1118>:
    80001290:	004b5613          	srli	a2,s6,0x4

0000000080001294 <i_1119>:
    80001294:	01e60933          	add	s2,a2,t5

0000000080001298 <i_1120>:
    80001298:	0b012a03          	lw	s4,176(sp)

000000008000129c <i_1121>:
    8000129c:	00411a03          	lh	s4,4(sp)

00000000800012a0 <i_1122>:
    800012a0:	ef410823          	sb	s4,-272(sp)

00000000800012a4 <i_1123>:
    800012a4:	00eae733          	or	a4,s5,a4

00000000800012a8 <i_1124>:
    800012a8:	14bf3a93          	sltiu	s5,t5,331

00000000800012ac <i_1125>:
    800012ac:	77b00193          	li	gp,1915

00000000800012b0 <i_1126>:
    800012b0:	78d00f13          	li	t5,1933

00000000800012b4 <i_1127>:
    800012b4:	039aecb3          	rem	s9,s5,s9

00000000800012b8 <i_1128>:
    800012b8:	04c16a83          	lwu	s5,76(sp)

00000000800012bc <i_1129>:
    800012bc:	ea610503          	lb	a0,-346(sp)

00000000800012c0 <i_1130>:
    800012c0:	edc12683          	lw	a3,-292(sp)

00000000800012c4 <i_1131>:
    800012c4:	02aae53b          	remw	a0,s5,a0

00000000800012c8 <i_1132>:
    800012c8:	02d7673b          	remw	a4,a4,a3

00000000800012cc <i_1133>:
    800012cc:	00600c13          	li	s8,6

00000000800012d0 <i_1134>:
    800012d0:	018d5a3b          	srlw	s4,s10,s8

00000000800012d4 <i_1135>:
    800012d4:	00118193          	addi	gp,gp,1
    800012d8:	fde1cee3          	blt	gp,t5,800012b4 <i_1127>

00000000800012dc <i_1136>:
    800012dc:	65a91a97          	auipc	s5,0x65a91

00000000800012e0 <i_1137>:
    800012e0:	f0211503          	lh	a0,-254(sp)

00000000800012e4 <i_1138>:
    800012e4:	01499863          	bne	s3,s4,800012f4 <i_1142>

00000000800012e8 <i_1139>:
    800012e8:	fa411a03          	lh	s4,-92(sp)

00000000800012ec <i_1140>:
    800012ec:	02abea3b          	remw	s4,s7,a0

00000000800012f0 <i_1141>:
    800012f0:	eca12223          	sw	a0,-316(sp)

00000000800012f4 <i_1142>:
    800012f4:	00a6c663          	blt	a3,a0,80001300 <i_1145>

00000000800012f8 <i_1143>:
    800012f8:	ef512223          	sw	s5,-284(sp)

00000000800012fc <i_1144>:
    800012fc:	03570263          	beq	a4,s5,80001320 <i_1153>

0000000080001300 <i_1145>:
    80001300:	4a2a3913          	sltiu	s2,s4,1186

0000000080001304 <i_1146>:
    80001304:	034caa33          	mulhsu	s4,s9,s4

0000000080001308 <i_1147>:
    80001308:	032a6063          	bltu	s4,s2,80001328 <i_1155>

000000008000130c <i_1148>:
    8000130c:	002a131b          	slliw	t1,s4,0x2

0000000080001310 <i_1149>:
    80001310:	0327e263          	bltu	a5,s2,80001334 <i_1158>

0000000080001314 <i_1150>:
    80001314:	009a0463          	beq	s4,s1,8000131c <i_1152>

0000000080001318 <i_1151>:
    80001318:	0364b833          	mulhu	a6,s1,s6

000000008000131c <i_1152>:
    8000131c:	01481263          	bne	a6,s4,80001320 <i_1153>

0000000080001320 <i_1153>:
    80001320:	06011a03          	lh	s4,96(sp)

0000000080001324 <i_1154>:
    80001324:	e7212223          	sw	s2,-412(sp)

0000000080001328 <i_1155>:
    80001328:	01c00f13          	li	t5,28

000000008000132c <i_1156>:
    8000132c:	01e9533b          	srlw	t1,s2,t5

0000000080001330 <i_1157>:
    80001330:	006f1663          	bne	t5,t1,8000133c <i_1160>

0000000080001334 <i_1158>:
    80001334:	13e13823          	sd	t5,304(sp)

0000000080001338 <i_1159>:
    80001338:	0f815903          	lhu	s2,248(sp)

000000008000133c <i_1160>:
    8000133c:	026a66bb          	remw	a3,s4,t1

0000000080001340 <i_1161>:
    80001340:	00000013          	nop

0000000080001344 <i_1162>:
    80001344:	f7c11a23          	sh	t3,-140(sp)

0000000080001348 <i_1163>:
    80001348:	82800e13          	li	t3,-2008

000000008000134c <i_1164>:
    8000134c:	83700f13          	li	t5,-1993

0000000080001350 <i_1165>:
    80001350:	e2815303          	lhu	t1,-472(sp)

0000000080001354 <i_1166>:
    80001354:	01c34663          	blt	t1,t3,80001360 <i_1169>

0000000080001358 <i_1167>:
    80001358:	214e6693          	ori	a3,t3,532

000000008000135c <i_1168>:
    8000135c:	02ee7463          	bleu	a4,t3,80001384 <i_1177>

0000000080001360 <i_1169>:
    80001360:	fad12223          	sw	a3,-92(sp)

0000000080001364 <i_1170>:
    80001364:	03c34333          	div	t1,t1,t3

0000000080001368 <i_1171>:
    80001368:	001e0e13          	addi	t3,t3,1
    8000136c:	ffcf72e3          	bleu	t3,t5,80001350 <i_1165>

0000000080001370 <i_1172>:
    80001370:	02d6be33          	mulhu	t3,a3,a3

0000000080001374 <i_1173>:
    80001374:	f8816483          	lwu	s1,-120(sp)

0000000080001378 <i_1174>:
    80001378:	08f14083          	lbu	ra,143(sp)

000000008000137c <i_1175>:
    8000137c:	e8d10623          	sb	a3,-372(sp)

0000000080001380 <i_1176>:
    80001380:	029c053b          	mulw	a0,s8,s1

0000000080001384 <i_1177>:
    80001384:	15e15c03          	lhu	s8,350(sp)

0000000080001388 <i_1178>:
    80001388:	e2d14c03          	lbu	s8,-467(sp)

000000008000138c <i_1179>:
    8000138c:	77c00313          	li	t1,1916

0000000080001390 <i_1180>:
    80001390:	78000e13          	li	t3,1920

0000000080001394 <i_1181>:
    80001394:	1a615503          	lhu	a0,422(sp)

0000000080001398 <i_1182>:
    80001398:	14a11123          	sh	a0,322(sp)

000000008000139c <i_1183>:
    8000139c:	7c400093          	li	ra,1988

00000000800013a0 <i_1184>:
    800013a0:	7d100493          	li	s1,2001

00000000800013a4 <i_1185>:
    800013a4:	00108093          	addi	ra,ra,1 # ffffffffa1f5a001 <_end+0xffffffff21f49bed>
    800013a8:	fe90cee3          	blt	ra,s1,800013a4 <i_1185>

00000000800013ac <i_1186>:
    800013ac:	02fcfcb3          	remu	s9,s9,a5

00000000800013b0 <i_1187>:
    800013b0:	019ca2b3          	slt	t0,s9,s9

00000000800013b4 <i_1188>:
    800013b4:	17812283          	lw	t0,376(sp)

00000000800013b8 <i_1189>:
    800013b8:	00c28e63          	beq	t0,a2,800013d4 <i_1195>

00000000800013bc <i_1190>:
    800013bc:	018531b3          	sltu	gp,a0,s8

00000000800013c0 <i_1191>:
    800013c0:	00130313          	addi	t1,t1,1 # ffffffffba88e001 <_end+0xffffffff3a87dbed>
    800013c4:	fc6e58e3          	ble	t1,t3,80001394 <i_1181>

00000000800013c8 <i_1192>:
    800013c8:	eea12623          	sw	a0,-276(sp)

00000000800013cc <i_1193>:
    800013cc:	018c0663          	beq	s8,s8,800013d8 <i_1196>

00000000800013d0 <i_1194>:
    800013d0:	00378263          	beq	a5,gp,800013d4 <i_1195>

00000000800013d4 <i_1195>:
    800013d4:	fec15783          	lhu	a5,-20(sp)

00000000800013d8 <i_1196>:
    800013d8:	0251a7b3          	mulhsu	a5,gp,t0

00000000800013dc <i_1197>:
    800013dc:	00379793          	slli	a5,a5,0x3

00000000800013e0 <i_1198>:
    800013e0:	01600293          	li	t0,22

00000000800013e4 <i_1199>:
    800013e4:	00519cb3          	sll	s9,gp,t0

00000000800013e8 <i_1200>:
    800013e8:	e7813c03          	ld	s8,-392(sp)

00000000800013ec <i_1201>:
    800013ec:	00f18ab3          	add	s5,gp,a5

00000000800013f0 <i_1202>:
    800013f0:	f94a8f1b          	addiw	t5,s5,-108

00000000800013f4 <i_1203>:
    800013f4:	004f5193          	srli	gp,t5,0x4

00000000800013f8 <i_1204>:
    800013f8:	e9e11a23          	sh	t5,-364(sp)

00000000800013fc <i_1205>:
    800013fc:	015f5a63          	ble	s5,t5,80001410 <i_1210>

0000000080001400 <i_1206>:
    80001400:	0f513423          	sd	s5,232(sp)

0000000080001404 <i_1207>:
    80001404:	f6c15a83          	lhu	s5,-148(sp)

0000000080001408 <i_1208>:
    80001408:	03ef0063          	beq	t5,t5,80001428 <i_1216>

000000008000140c <i_1209>:
    8000140c:	003f5893          	srli	a7,t5,0x3

0000000080001410 <i_1210>:
    80001410:	edaf2d93          	slti	s11,t5,-294

0000000080001414 <i_1211>:
    80001414:	1c311a23          	sh	gp,468(sp)

0000000080001418 <i_1212>:
    80001418:	f1513023          	sd	s5,-256(sp)

000000008000141c <i_1213>:
    8000141c:	035dcab3          	div	s5,s11,s5

0000000080001420 <i_1214>:
    80001420:	1bc16c03          	lwu	s8,444(sp)

0000000080001424 <i_1215>:
    80001424:	edc12783          	lw	a5,-292(sp)

0000000080001428 <i_1216>:
    80001428:	dac8c893          	xori	a7,a7,-596

000000008000142c <i_1217>:
    8000142c:	e8416403          	lwu	s0,-380(sp)

0000000080001430 <i_1218>:
    80001430:	0a614f03          	lbu	t5,166(sp)

0000000080001434 <i_1219>:
    80001434:	09d92f13          	slti	t5,s2,157

0000000080001438 <i_1220>:
    80001438:	00d00413          	li	s0,13

000000008000143c <i_1221>:
    8000143c:	0088df3b          	srlw	t5,a7,s0

0000000080001440 <i_1222>:
    80001440:	f7110283          	lb	t0,-143(sp)

0000000080001444 <i_1223>:
    80001444:	03e473b3          	remu	t2,s0,t5

0000000080001448 <i_1224>:
    80001448:	e4816683          	lwu	a3,-440(sp)

000000008000144c <i_1225>:
    8000144c:	a9b2e293          	ori	t0,t0,-1381

0000000080001450 <i_1226>:
    80001450:	00884433          	xor	s0,a6,s0

0000000080001454 <i_1227>:
    80001454:	00411f03          	lh	t5,4(sp)

0000000080001458 <i_1228>:
    80001458:	01b00393          	li	t2,27

000000008000145c <i_1229>:
    8000145c:	007b5b3b          	srlw	s6,s6,t2

0000000080001460 <i_1230>:
    80001460:	ef816b03          	lwu	s6,-264(sp)

0000000080001464 <i_1231>:
    80001464:	031b1063          	bne	s6,a7,80001484 <i_1239>

0000000080001468 <i_1232>:
    80001468:	1c610b83          	lb	s7,454(sp)

000000008000146c <i_1233>:
    8000146c:	404b5f1b          	sraiw	t5,s6,0x4

0000000080001470 <i_1234>:
    80001470:	f3610f03          	lb	t5,-202(sp)

0000000080001474 <i_1235>:
    80001474:	e9813b83          	ld	s7,-360(sp)

0000000080001478 <i_1236>:
    80001478:	f7713423          	sd	s7,-152(sp)

000000008000147c <i_1237>:
    8000147c:	1b713c23          	sd	s7,440(sp)

0000000080001480 <i_1238>:
    80001480:	eaa13423          	sd	a0,-344(sp)

0000000080001484 <i_1239>:
    80001484:	10b12623          	sw	a1,268(sp)

0000000080001488 <i_1240>:
    80001488:	00000013          	nop

000000008000148c <i_1241>:
    8000148c:	7b400b13          	li	s6,1972

0000000080001490 <i_1242>:
    80001490:	7c800513          	li	a0,1992

0000000080001494 <i_1243>:
    80001494:	00000013          	nop

0000000080001498 <i_1244>:
    80001498:	001b0b13          	addi	s6,s6,1 # 4e87b001 <main-0x31784fff>
    8000149c:	feab6ce3          	bltu	s6,a0,80001494 <i_1243>

00000000800014a0 <i_1245>:
    800014a0:	00a57463          	bleu	a0,a0,800014a8 <i_1247>

00000000800014a4 <i_1246>:
    800014a4:	0fa50c9b          	addiw	s9,a0,250

00000000800014a8 <i_1247>:
    800014a8:	01987bb3          	and	s7,a6,s9

00000000800014ac <i_1248>:
    800014ac:	12fcc217          	auipc	tp,0x12fcc

00000000800014b0 <i_1249>:
    800014b0:	0d416d03          	lwu	s10,212(sp)

00000000800014b4 <i_1250>:
    800014b4:	40385f13          	srai	t5,a6,0x3

00000000800014b8 <i_1251>:
    800014b8:	02a00d13          	li	s10,42

00000000800014bc <i_1252>:
    800014bc:	01ac9cb3          	sll	s9,s9,s10

00000000800014c0 <i_1253>:
    800014c0:	019ca6b3          	slt	a3,s9,s9

00000000800014c4 <i_1254>:
    800014c4:	01af1663          	bne	t5,s10,800014d0 <i_1257>

00000000800014c8 <i_1255>:
    800014c8:	e6e15c83          	lhu	s9,-402(sp)

00000000800014cc <i_1256>:
    800014cc:	e9911023          	sh	s9,-384(sp)

00000000800014d0 <i_1257>:
    800014d0:	f2f14683          	lbu	a3,-209(sp)

00000000800014d4 <i_1258>:
    800014d4:	09810683          	lb	a3,152(sp)

00000000800014d8 <i_1259>:
    800014d8:	8a900e13          	li	t3,-1879

00000000800014dc <i_1260>:
    800014dc:	8b500d13          	li	s10,-1867

00000000800014e0 <i_1261>:
    800014e0:	001e0e13          	addi	t3,t3,1
    800014e4:	ffcd7ee3          	bleu	t3,s10,800014e0 <i_1261>

00000000800014e8 <i_1262>:
    800014e8:	03a41433          	mulh	s0,s0,s10

00000000800014ec <i_1263>:
    800014ec:	f2214f03          	lbu	t5,-222(sp)

00000000800014f0 <i_1264>:
    800014f0:	008f1a63          	bne	t5,s0,80001504 <i_1269>

00000000800014f4 <i_1265>:
    800014f4:	02df8a3b          	mulw	s4,t6,a3

00000000800014f8 <i_1266>:
    800014f8:	014fffb3          	and	t6,t6,s4

00000000800014fc <i_1267>:
    800014fc:	014f8463          	beq	t6,s4,80001504 <i_1269>

0000000080001500 <i_1268>:
    80001500:	19f10f23          	sb	t6,414(sp)

0000000080001504 <i_1269>:
    80001504:	ea214c83          	lbu	s9,-350(sp)

0000000080001508 <i_1270>:
    80001508:	03f636b3          	mulhu	a3,a2,t6

000000008000150c <i_1271>:
    8000150c:	034a6063          	bltu	s4,s4,8000152c <i_1279>

0000000080001510 <i_1272>:
    80001510:	02100613          	li	a2,33

0000000080001514 <i_1273>:
    80001514:	00c69633          	sll	a2,a3,a2

0000000080001518 <i_1274>:
    80001518:	00d65a63          	ble	a3,a2,8000152c <i_1279>

000000008000151c <i_1275>:
    8000151c:	c2063613          	sltiu	a2,a2,-992

0000000080001520 <i_1276>:
    80001520:	00961663          	bne	a2,s1,8000152c <i_1279>

0000000080001524 <i_1277>:
    80001524:	00900613          	li	a2,9

0000000080001528 <i_1278>:
    80001528:	00c65633          	srl	a2,a2,a2

000000008000152c <i_1279>:
    8000152c:	e4c12b83          	lw	s7,-436(sp)

0000000080001530 <i_1280>:
    80001530:	079bf613          	andi	a2,s7,121

0000000080001534 <i_1281>:
    80001534:	02100413          	li	s0,33

0000000080001538 <i_1282>:
    80001538:	00841433          	sll	s0,s0,s0

000000008000153c <i_1283>:
    8000153c:	00c41a63          	bne	s0,a2,80001550 <i_1288>

0000000080001540 <i_1284>:
    80001540:	04013983          	ld	s3,64(sp)

0000000080001544 <i_1285>:
    80001544:	35767c13          	andi	s8,a2,855

0000000080001548 <i_1286>:
    80001548:	00c9a633          	slt	a2,s3,a2

000000008000154c <i_1287>:
    8000154c:	18013083          	ld	ra,384(sp)

0000000080001550 <i_1288>:
    80001550:	00cd8233          	add	tp,s11,a2

0000000080001554 <i_1289>:
    80001554:	0091c663          	blt	gp,s1,80001560 <i_1292>

0000000080001558 <i_1290>:
    80001558:	ede11e03          	lh	t3,-290(sp)

000000008000155c <i_1291>:
    8000155c:	00ce6e63          	bltu	t3,a2,80001578 <i_1298>

0000000080001560 <i_1292>:
    80001560:	001e6db3          	or	s11,t3,ra

0000000080001564 <i_1293>:
    80001564:	f6412b03          	lw	s6,-156(sp)

0000000080001568 <i_1294>:
    80001568:	00600a13          	li	s4,6

000000008000156c <i_1295>:
    8000156c:	014650b3          	srl	ra,a2,s4

0000000080001570 <i_1296>:
    80001570:	00000013          	nop

0000000080001574 <i_1297>:
    80001574:	02c99f33          	mulh	t5,s3,a2

0000000080001578 <i_1298>:
    80001578:	17813283          	ld	t0,376(sp)

000000008000157c <i_1299>:
    8000157c:	aef08e93          	addi	t4,ra,-1297

0000000080001580 <i_1300>:
    80001580:	7a900613          	li	a2,1961

0000000080001584 <i_1301>:
    80001584:	7b200d93          	li	s11,1970

0000000080001588 <i_1302>:
    80001588:	00000013          	nop

000000008000158c <i_1303>:
    8000158c:	03065263          	ble	a6,a2,800015b0 <i_1311>

0000000080001590 <i_1304>:
    80001590:	10111a23          	sh	ra,276(sp)

0000000080001594 <i_1305>:
    80001594:	0030d09b          	srliw	ra,ra,0x3

0000000080001598 <i_1306>:
    80001598:	00160613          	addi	a2,a2,1
    8000159c:	fecdd6e3          	ble	a2,s11,80001588 <i_1302>

00000000800015a0 <i_1307>:
    800015a0:	e7614083          	lbu	ra,-394(sp)

00000000800015a4 <i_1308>:
    800015a4:	35b0e213          	ori	tp,ra,859

00000000800015a8 <i_1309>:
    800015a8:	00b00a13          	li	s4,11

00000000800015ac <i_1310>:
    800015ac:	4146563b          	sraw	a2,a2,s4

00000000800015b0 <i_1311>:
    800015b0:	10c16083          	lwu	ra,268(sp)

00000000800015b4 <i_1312>:
    800015b4:	fc110a03          	lb	s4,-63(sp)

00000000800015b8 <i_1313>:
    800015b8:	0020d513          	srli	a0,ra,0x2

00000000800015bc <i_1314>:
    800015bc:	ead11123          	sh	a3,-350(sp)

00000000800015c0 <i_1315>:
    800015c0:	13211603          	lh	a2,306(sp)

00000000800015c4 <i_1316>:
    800015c4:	40a50fb3          	sub	t6,a0,a0

00000000800015c8 <i_1317>:
    800015c8:	00600513          	li	a0,6

00000000800015cc <i_1318>:
    800015cc:	00a9d6bb          	srlw	a3,s3,a0

00000000800015d0 <i_1319>:
    800015d0:	02afbfb3          	mulhu	t6,t6,a0

00000000800015d4 <i_1320>:
    800015d4:	0fc16f83          	lwu	t6,252(sp)

00000000800015d8 <i_1321>:
    800015d8:	14a12623          	sw	a0,332(sp)

00000000800015dc <i_1322>:
    800015dc:	f1816783          	lwu	a5,-232(sp)

00000000800015e0 <i_1323>:
    800015e0:	02dfe463          	bltu	t6,a3,80001608 <i_1333>

00000000800015e4 <i_1324>:
    800015e4:	0036da1b          	srliw	s4,a3,0x3

00000000800015e8 <i_1325>:
    800015e8:	00f7fc63          	bleu	a5,a5,80001600 <i_1331>

00000000800015ec <i_1326>:
    800015ec:	0ad12223          	sw	a3,164(sp)

00000000800015f0 <i_1327>:
    800015f0:	f2a11723          	sh	a0,-210(sp)

00000000800015f4 <i_1328>:
    800015f4:	ec611283          	lh	t0,-314(sp)

00000000800015f8 <i_1329>:
    800015f8:	02528bb3          	mul	s7,t0,t0

00000000800015fc <i_1330>:
    800015fc:	12813283          	ld	t0,296(sp)

0000000080001600 <i_1331>:
    80001600:	07c12283          	lw	t0,124(sp)

0000000080001604 <i_1332>:
    80001604:	0e5102a3          	sb	t0,229(sp)

0000000080001608 <i_1333>:
    80001608:	008b9663          	bne	s7,s0,80001614 <i_1336>

000000008000160c <i_1334>:
    8000160c:	0052ee63          	bltu	t0,t0,80001628 <i_1341>

0000000080001610 <i_1335>:
    80001610:	16416283          	lwu	t0,356(sp)

0000000080001614 <i_1336>:
    80001614:	404d5d1b          	sraiw	s10,s10,0x4

0000000080001618 <i_1337>:
    80001618:	01ad0d33          	add	s10,s10,s10

000000008000161c <i_1338>:
    8000161c:	ec811903          	lh	s2,-312(sp)

0000000080001620 <i_1339>:
    80001620:	ebf10d83          	lb	s11,-321(sp)

0000000080001624 <i_1340>:
    80001624:	41bd853b          	subw	a0,s11,s11

0000000080001628 <i_1341>:
    80001628:	fb615a83          	lhu	s5,-74(sp)

000000008000162c <i_1342>:
    8000162c:	f7416d03          	lwu	s10,-140(sp)

0000000080001630 <i_1343>:
    80001630:	01aace63          	blt	s5,s10,8000164c <i_1350>

0000000080001634 <i_1344>:
    80001634:	01100b13          	li	s6,17

0000000080001638 <i_1345>:
    80001638:	416c5b33          	sra	s6,s8,s6

000000008000163c <i_1346>:
    8000163c:	e5211f23          	sh	s2,-418(sp)

0000000080001640 <i_1347>:
    80001640:	01714503          	lbu	a0,23(sp)

0000000080001644 <i_1348>:
    80001644:	08a13c23          	sd	a0,152(sp)

0000000080001648 <i_1349>:
    80001648:	416b0c33          	sub	s8,s6,s6

000000008000164c <i_1350>:
    8000164c:	03b7e6b3          	rem	a3,a5,s11

0000000080001650 <i_1351>:
    80001650:	03ad1063          	bne	s10,s10,80001670 <i_1359>

0000000080001654 <i_1352>:
    80001654:	09415283          	lhu	t0,148(sp)

0000000080001658 <i_1353>:
    80001658:	f3b14403          	lbu	s0,-197(sp)

000000008000165c <i_1354>:
    8000165c:	00ed4863          	blt	s10,a4,8000166c <i_1358>

0000000080001660 <i_1355>:
    80001660:	717b2893          	slti	a7,s6,1815

0000000080001664 <i_1356>:
    80001664:	1db11323          	sh	s11,454(sp)

0000000080001668 <i_1357>:
    80001668:	ea714b03          	lbu	s6,-345(sp)

000000008000166c <i_1358>:
    8000166c:	036b4733          	div	a4,s6,s6

0000000080001670 <i_1359>:
    80001670:	01677e63          	bleu	s6,a4,8000168c <i_1366>

0000000080001674 <i_1360>:
    80001674:	13510e03          	lb	t3,309(sp)

0000000080001678 <i_1361>:
    80001678:	03656063          	bltu	a0,s6,80001698 <i_1369>

000000008000167c <i_1362>:
    8000167c:	0369f9bb          	remuw	s3,s3,s6

0000000080001680 <i_1363>:
    80001680:	0023939b          	slliw	t2,t2,0x2

0000000080001684 <i_1364>:
    80001684:	fed105a3          	sb	a3,-21(sp)

0000000080001688 <i_1365>:
    80001688:	770ecb37          	lui	s6,0x770ec

000000008000168c <i_1366>:
    8000168c:	f7211303          	lh	t1,-142(sp)

0000000080001690 <i_1367>:
    80001690:	0273d063          	ble	t2,t2,800016b0 <i_1375>

0000000080001694 <i_1368>:
    80001694:	12611423          	sh	t1,296(sp)

0000000080001698 <i_1369>:
    80001698:	06013b03          	ld	s6,96(sp)

000000008000169c <i_1370>:
    8000169c:	fe713023          	sd	t2,-32(sp)

00000000800016a0 <i_1371>:
    800016a0:	e2713823          	sd	t2,-464(sp)

00000000800016a4 <i_1372>:
    800016a4:	0273823b          	mulw	tp,t2,t2

00000000800016a8 <i_1373>:
    800016a8:	00435e63          	ble	tp,t1,800016c4 <i_1380>

00000000800016ac <i_1374>:
    800016ac:	00736463          	bltu	t1,t2,800016b4 <i_1376>

00000000800016b0 <i_1375>:
    800016b0:	42178793          	addi	a5,a5,1057

00000000800016b4 <i_1376>:
    800016b4:	fce11223          	sh	a4,-60(sp)

00000000800016b8 <i_1377>:
    800016b8:	00000013          	nop

00000000800016bc <i_1378>:
    800016bc:	02200493          	li	s1,34

00000000800016c0 <i_1379>:
    800016c0:	0093d7b3          	srl	a5,t2,s1

00000000800016c4 <i_1380>:
    800016c4:	419b8fb3          	sub	t6,s7,s9

00000000800016c8 <i_1381>:
    800016c8:	f3815383          	lhu	t2,-200(sp)

00000000800016cc <i_1382>:
    800016cc:	76900513          	li	a0,1897

00000000800016d0 <i_1383>:
    800016d0:	77500313          	li	t1,1909

00000000800016d4 <i_1384>:
    800016d4:	00000013          	nop

00000000800016d8 <i_1385>:
    800016d8:	e8412803          	lw	a6,-380(sp)

00000000800016dc <i_1386>:
    800016dc:	029814b3          	mulh	s1,a6,s1

00000000800016e0 <i_1387>:
    800016e0:	0028549b          	srliw	s1,a6,0x2

00000000800016e4 <i_1388>:
    800016e4:	fe912623          	sw	s1,-20(sp)

00000000800016e8 <i_1389>:
    800016e8:	00150513          	addi	a0,a0,1
    800016ec:	fe6544e3          	blt	a0,t1,800016d4 <i_1384>

00000000800016f0 <i_1390>:
    800016f0:	0104d863          	ble	a6,s1,80001700 <i_1394>

00000000800016f4 <i_1391>:
    800016f4:	e8912023          	sw	s1,-384(sp)

00000000800016f8 <i_1392>:
    800016f8:	fa615203          	lhu	tp,-90(sp)

00000000800016fc <i_1393>:
    800016fc:	14c11803          	lh	a6,332(sp)

0000000080001700 <i_1394>:
    80001700:	02d6b6b3          	mulhu	a3,a3,a3

0000000080001704 <i_1395>:
    80001704:	0306b833          	mulhu	a6,a3,a6

0000000080001708 <i_1396>:
    80001708:	c5c6a813          	slti	a6,a3,-932

000000008000170c <i_1397>:
    8000170c:	00714703          	lbu	a4,7(sp)

0000000080001710 <i_1398>:
    80001710:	77400893          	li	a7,1908

0000000080001714 <i_1399>:
    80001714:	78400693          	li	a3,1924

0000000080001718 <i_1400>:
    80001718:	12816403          	lwu	s0,296(sp)

000000008000171c <i_1401>:
    8000171c:	00000013          	nop

0000000080001720 <i_1402>:
    80001720:	88b00813          	li	a6,-1909

0000000080001724 <i_1403>:
    80001724:	89100093          	li	ra,-1903

0000000080001728 <i_1404>:
    80001728:	00175e63          	ble	ra,a4,80001744 <i_1410>

000000008000172c <i_1405>:
    8000172c:	00000013          	nop

0000000080001730 <i_1406>:
    80001730:	00180813          	addi	a6,a6,1
    80001734:	ff009ae3          	bne	ra,a6,80001728 <i_1404>

0000000080001738 <i_1407>:
    80001738:	00877433          	and	s0,a4,s0

000000008000173c <i_1408>:
    8000173c:	021a9463          	bne	s5,ra,80001764 <i_1417>

0000000080001740 <i_1409>:
    80001740:	e4113423          	sd	ra,-440(sp)

0000000080001744 <i_1410>:
    80001744:	00300f13          	li	t5,3

0000000080001748 <i_1411>:
    80001748:	01ec1c33          	sll	s8,s8,t5

000000008000174c <i_1412>:
    8000174c:	00188893          	addi	a7,a7,1
    80001750:	fd16d4e3          	ble	a7,a3,80001718 <i_1400>

0000000080001754 <i_1413>:
    80001754:	028989bb          	mulw	s3,s3,s0

0000000080001758 <i_1414>:
    80001758:	0019d263          	ble	ra,s3,8000175c <i_1415>

000000008000175c <i_1415>:
    8000175c:	16910383          	lb	t2,361(sp)

0000000080001760 <i_1416>:
    80001760:	1b510303          	lb	t1,437(sp)

0000000080001764 <i_1417>:
    80001764:	00000013          	nop

0000000080001768 <i_1418>:
    80001768:	1c815d03          	lhu	s10,456(sp)

000000008000176c <i_1419>:
    8000176c:	7dc00993          	li	s3,2012

0000000080001770 <i_1420>:
    80001770:	7de00f13          	li	t5,2014

0000000080001774 <i_1421>:
    80001774:	02d7071b          	addiw	a4,a4,45

0000000080001778 <i_1422>:
    80001778:	03d35ebb          	divuw	t4,t1,t4

000000008000177c <i_1423>:
    8000177c:	f5610c03          	lb	s8,-170(sp)

0000000080001780 <i_1424>:
    80001780:	f3a15683          	lhu	a3,-198(sp)

0000000080001784 <i_1425>:
    80001784:	ed8102a3          	sb	s8,-315(sp)

0000000080001788 <i_1426>:
    80001788:	f0d11123          	sh	a3,-254(sp)

000000008000178c <i_1427>:
    8000178c:	bc6eec13          	ori	s8,t4,-1082

0000000080001790 <i_1428>:
    80001790:	00000013          	nop

0000000080001794 <i_1429>:
    80001794:	11812c23          	sw	s8,280(sp)

0000000080001798 <i_1430>:
    80001798:	0ed7ff97          	auipc	t6,0xed7f

000000008000179c <i_1431>:
    8000179c:	00198993          	addi	s3,s3,1
    800017a0:	fde99ae3          	bne	s3,t5,80001774 <i_1421>

00000000800017a4 <i_1432>:
    800017a4:	038f8063          	beq	t6,s8,800017c4 <i_1440>

00000000800017a8 <i_1433>:
    800017a8:	13b13c23          	sd	s11,312(sp)

00000000800017ac <i_1434>:
    800017ac:	ebc16c83          	lwu	s9,-324(sp)

00000000800017b0 <i_1435>:
    800017b0:	001c0c33          	add	s8,s8,ra

00000000800017b4 <i_1436>:
    800017b4:	018c1663          	bne	s8,s8,800017c0 <i_1439>

00000000800017b8 <i_1437>:
    800017b8:	f3814c03          	lbu	s8,-200(sp)

00000000800017bc <i_1438>:
    800017bc:	e9815c03          	lhu	s8,-360(sp)

00000000800017c0 <i_1439>:
    800017c0:	e5813c83          	ld	s9,-424(sp)

00000000800017c4 <i_1440>:
    800017c4:	f0815f83          	lhu	t6,-248(sp)

00000000800017c8 <i_1441>:
    800017c8:	ed810623          	sb	s8,-308(sp)

00000000800017cc <i_1442>:
    800017cc:	0e011503          	lh	a0,224(sp)

00000000800017d0 <i_1443>:
    800017d0:	f7615c03          	lhu	s8,-138(sp)

00000000800017d4 <i_1444>:
    800017d4:	00aff433          	and	s0,t6,a0

00000000800017d8 <i_1445>:
    800017d8:	0a114483          	lbu	s1,161(sp)

00000000800017dc <i_1446>:
    800017dc:	e7a15883          	lhu	a7,-390(sp)

00000000800017e0 <i_1447>:
    800017e0:	01f7cfb3          	xor	t6,a5,t6

00000000800017e4 <i_1448>:
    800017e4:	e2913c23          	sd	s1,-456(sp)

00000000800017e8 <i_1449>:
    800017e8:	18c16483          	lwu	s1,396(sp)

00000000800017ec <i_1450>:
    800017ec:	00000013          	nop

00000000800017f0 <i_1451>:
    800017f0:	7d200f93          	li	t6,2002

00000000800017f4 <i_1452>:
    800017f4:	7e400893          	li	a7,2020

00000000800017f8 <i_1453>:
    800017f8:	009f84b3          	add	s1,t6,s1

00000000800017fc <i_1454>:
    800017fc:	e7010223          	sb	a6,-412(sp)

0000000080001800 <i_1455>:
    80001800:	a4f8bb13          	sltiu	s6,a7,-1457

0000000080001804 <i_1456>:
    80001804:	02600613          	li	a2,38

0000000080001808 <i_1457>:
    80001808:	00c0da33          	srl	s4,ra,a2

000000008000180c <i_1458>:
    8000180c:	001f8f93          	addi	t6,t6,1 # 8ed80799 <_end+0xed70385>
    80001810:	ff1f94e3          	bne	t6,a7,800017f8 <i_1453>

0000000080001814 <i_1459>:
    80001814:	0344a833          	mulhsu	a6,s1,s4

0000000080001818 <i_1460>:
    80001818:	032b5463          	ble	s2,s6,80001840 <i_1470>

000000008000181c <i_1461>:
    8000181c:	f5012423          	sw	a6,-184(sp)

0000000080001820 <i_1462>:
    80001820:	409f86bb          	subw	a3,t6,s1

0000000080001824 <i_1463>:
    80001824:	0344c063          	blt	s1,s4,80001844 <i_1471>

0000000080001828 <i_1464>:
    80001828:	00a24533          	xor	a0,tp,a0

000000008000182c <i_1465>:
    8000182c:	16911023          	sh	s1,352(sp)

0000000080001830 <i_1466>:
    80001830:	18c12703          	lw	a4,396(sp)

0000000080001834 <i_1467>:
    80001834:	00900c93          	li	s9,9

0000000080001838 <i_1468>:
    80001838:	4190d23b          	sraw	tp,ra,s9

000000008000183c <i_1469>:
    8000183c:	09914403          	lbu	s0,153(sp)

0000000080001840 <i_1470>:
    80001840:	a8740693          	addi	a3,s0,-1401

0000000080001844 <i_1471>:
    80001844:	00000013          	nop

0000000080001848 <i_1472>:
    80001848:	01600b13          	li	s6,22

000000008000184c <i_1473>:
    8000184c:	01615bbb          	srlw	s7,sp,s6

0000000080001850 <i_1474>:
    80001850:	80f00513          	li	a0,-2033

0000000080001854 <i_1475>:
    80001854:	81200093          	li	ra,-2030

0000000080001858 <i_1476>:
    80001858:	00150513          	addi	a0,a0,1
    8000185c:	fe154ce3          	blt	a0,ra,80001854 <i_1475>

0000000080001860 <i_1477>:
    80001860:	e1d14503          	lbu	a0,-483(sp)

0000000080001864 <i_1478>:
    80001864:	00a505b3          	add	a1,a0,a0

0000000080001868 <i_1479>:
    80001868:	eb210a03          	lb	s4,-334(sp)

000000008000186c <i_1480>:
    8000186c:	404b5313          	srai	t1,s6,0x4

0000000080001870 <i_1481>:
    80001870:	06a15503          	lhu	a0,106(sp)

0000000080001874 <i_1482>:
    80001874:	006321b3          	slt	gp,t1,t1

0000000080001878 <i_1483>:
    80001878:	fe816803          	lwu	a6,-24(sp)

000000008000187c <i_1484>:
    8000187c:	01469c63          	bne	a3,s4,80001894 <i_1490>

0000000080001880 <i_1485>:
    80001880:	fe816a83          	lwu	s5,-24(sp)

0000000080001884 <i_1486>:
    80001884:	e9012a03          	lw	s4,-368(sp)

0000000080001888 <i_1487>:
    80001888:	02a57233          	remu	tp,a0,a0

000000008000188c <i_1488>:
    8000188c:	ed610303          	lb	t1,-298(sp)

0000000080001890 <i_1489>:
    80001890:	1f230513          	addi	a0,t1,498

0000000080001894 <i_1490>:
    80001894:	f7615a03          	lhu	s4,-138(sp)

0000000080001898 <i_1491>:
    80001898:	19412c23          	sw	s4,408(sp)

000000008000189c <i_1492>:
    8000189c:	77100093          	li	ra,1905

00000000800018a0 <i_1493>:
    800018a0:	77400493          	li	s1,1908

00000000800018a4 <i_1494>:
    800018a4:	15016203          	lwu	tp,336(sp)

00000000800018a8 <i_1495>:
    800018a8:	12a22313          	slti	t1,tp,298

00000000800018ac <i_1496>:
    800018ac:	00108093          	addi	ra,ra,1
    800018b0:	fe14dae3          	ble	ra,s1,800018a4 <i_1494>

00000000800018b4 <i_1497>:
    800018b4:	0146c233          	xor	tp,a3,s4

00000000800018b8 <i_1498>:
    800018b8:	03439263          	bne	t2,s4,800018dc <i_1507>

00000000800018bc <i_1499>:
    800018bc:	0bc12383          	lw	t2,188(sp)

00000000800018c0 <i_1500>:
    800018c0:	01900813          	li	a6,25

00000000800018c4 <i_1501>:
    800018c4:	4108d4bb          	sraw	s1,a7,a6

00000000800018c8 <i_1502>:
    800018c8:	0214e4b3          	rem	s1,s1,ra

00000000800018cc <i_1503>:
    800018cc:	0304d063          	ble	a6,s1,800018ec <i_1511>

00000000800018d0 <i_1504>:
    800018d0:	01d00493          	li	s1,29

00000000800018d4 <i_1505>:
    800018d4:	009a5a3b          	srlw	s4,s4,s1

00000000800018d8 <i_1506>:
    800018d8:	01087e63          	bleu	a6,a6,800018f4 <i_1513>

00000000800018dc <i_1507>:
    800018dc:	13611803          	lh	a6,310(sp)

00000000800018e0 <i_1508>:
    800018e0:	014a0263          	beq	s4,s4,800018e4 <i_1509>

00000000800018e4 <i_1509>:
    800018e4:	03c82a33          	mulhsu	s4,a6,t3

00000000800018e8 <i_1510>:
    800018e8:	024a1333          	mulh	t1,s4,tp

00000000800018ec <i_1511>:
    800018ec:	02177a33          	remu	s4,a4,ra

00000000800018f0 <i_1512>:
    800018f0:	01486263          	bltu	a6,s4,800018f4 <i_1513>

00000000800018f4 <i_1513>:
    800018f4:	410306bb          	subw	a3,t1,a6

00000000800018f8 <i_1514>:
    800018f8:	1a210a03          	lb	s4,418(sp)

00000000800018fc <i_1515>:
    800018fc:	03085063          	ble	a6,a6,8000191c <i_1523>

0000000080001900 <i_1516>:
    80001900:	034a6463          	bltu	s4,s4,80001928 <i_1526>

0000000080001904 <i_1517>:
    80001904:	00da6a63          	bltu	s4,a3,80001918 <i_1522>

0000000080001908 <i_1518>:
    80001908:	031366bb          	remw	a3,t1,a7

000000008000190c <i_1519>:
    8000190c:	02412a03          	lw	s4,36(sp)

0000000080001910 <i_1520>:
    80001910:	129106a3          	sb	s1,301(sp)

0000000080001914 <i_1521>:
    80001914:	36adf713          	andi	a4,s11,874

0000000080001918 <i_1522>:
    80001918:	0266a6b3          	mulhsu	a3,a3,t1

000000008000191c <i_1523>:
    8000191c:	02648463          	beq	s1,t1,80001944 <i_1533>

0000000080001920 <i_1524>:
    80001920:	0146fc63          	bleu	s4,a3,80001938 <i_1530>

0000000080001924 <i_1525>:
    80001924:	e4013203          	ld	tp,-448(sp)

0000000080001928 <i_1526>:
    80001928:	1ad11a23          	sh	a3,436(sp)

000000008000192c <i_1527>:
    8000192c:	18b14303          	lbu	t1,395(sp)

0000000080001930 <i_1528>:
    80001930:	0396d2bb          	divuw	t0,a3,s9

0000000080001934 <i_1529>:
    80001934:	e89109a3          	sb	s1,-365(sp)

0000000080001938 <i_1530>:
    80001938:	00810603          	lb	a2,8(sp)

000000008000193c <i_1531>:
    8000193c:	00181f13          	slli	t5,a6,0x1

0000000080001940 <i_1532>:
    80001940:	1d615f83          	lhu	t6,470(sp)

0000000080001944 <i_1533>:
    80001944:	00000013          	nop

0000000080001948 <i_1534>:
    80001948:	02d6d833          	divu	a6,a3,a3

000000008000194c <i_1535>:
    8000194c:	8ad00213          	li	tp,-1875

0000000080001950 <i_1536>:
    80001950:	8b900093          	li	ra,-1863

0000000080001954 <i_1537>:
    80001954:	00120213          	addi	tp,tp,1 # 92fcd4ad <_end+0x12fbd099>
    80001958:	fe126ee3          	bltu	tp,ra,80001954 <i_1537>

000000008000195c <i_1538>:
    8000195c:	00591a63          	bne	s2,t0,80001970 <i_1543>

0000000080001960 <i_1539>:
    80001960:	03a00213          	li	tp,58

0000000080001964 <i_1540>:
    80001964:	00425a33          	srl	s4,tp,tp

0000000080001968 <i_1541>:
    80001968:	1c416f83          	lwu	t6,452(sp)

000000008000196c <i_1542>:
    8000196c:	76f98813          	addi	a6,s3,1903

0000000080001970 <i_1543>:
    80001970:	f9f12623          	sw	t6,-116(sp)

0000000080001974 <i_1544>:
    80001974:	00421a63          	bne	tp,tp,80001988 <i_1549>

0000000080001978 <i_1545>:
    80001978:	00413423          	sd	tp,8(sp)

000000008000197c <i_1546>:
    8000197c:	fe4103a3          	sb	tp,-25(sp)

0000000080001980 <i_1547>:
    80001980:	e39108a3          	sb	s9,-463(sp)

0000000080001984 <i_1548>:
    80001984:	e5416203          	lwu	tp,-428(sp)

0000000080001988 <i_1549>:
    80001988:	03f21063          	bne	tp,t6,800019a8 <i_1557>

000000008000198c <i_1550>:
    8000198c:	01f00a13          	li	s4,31

0000000080001990 <i_1551>:
    80001990:	014217bb          	sllw	a5,tp,s4

0000000080001994 <i_1552>:
    80001994:	014a1a63          	bne	s4,s4,800019a8 <i_1557>

0000000080001998 <i_1553>:
    80001998:	00437a63          	bleu	tp,t1,800019ac <i_1558>

000000008000199c <i_1554>:
    8000199c:	414209bb          	subw	s3,tp,s4

00000000800019a0 <i_1555>:
    800019a0:	0d016603          	lwu	a2,208(sp)

00000000800019a4 <i_1556>:
    800019a4:	030f9263          	bne	t6,a6,800019c8 <i_1565>

00000000800019a8 <i_1557>:
    800019a8:	eb880a93          	addi	s5,a6,-328

00000000800019ac <i_1558>:
    800019ac:	010f4a63          	blt	t5,a6,800019c0 <i_1563>

00000000800019b0 <i_1559>:
    800019b0:	01e00b93          	li	s7,30

00000000800019b4 <i_1560>:
    800019b4:	417adab3          	sra	s5,s5,s7

00000000800019b8 <i_1561>:
    800019b8:	76ba861b          	addiw	a2,s5,1899

00000000800019bc <i_1562>:
    800019bc:	03148abb          	mulw	s5,s1,a7

00000000800019c0 <i_1563>:
    800019c0:	0a013883          	ld	a7,160(sp)

00000000800019c4 <i_1564>:
    800019c4:	4010dc13          	srai	s8,ra,0x1

00000000800019c8 <i_1565>:
    800019c8:	e5714603          	lbu	a2,-425(sp)

00000000800019cc <i_1566>:
    800019cc:	ef111223          	sh	a7,-284(sp)

00000000800019d0 <i_1567>:
    800019d0:	8b200f93          	li	t6,-1870

00000000800019d4 <i_1568>:
    800019d4:	8bd00493          	li	s1,-1859

00000000800019d8 <i_1569>:
    800019d8:	17214903          	lbu	s2,370(sp)

00000000800019dc <i_1570>:
    800019dc:	bd967a93          	andi	s5,a2,-1063

00000000800019e0 <i_1571>:
    800019e0:	d1f62613          	slti	a2,a2,-737

00000000800019e4 <i_1572>:
    800019e4:	41260633          	sub	a2,a2,s2

00000000800019e8 <i_1573>:
    800019e8:	04a15203          	lhu	tp,74(sp)

00000000800019ec <i_1574>:
    800019ec:	06416e03          	lwu	t3,100(sp)

00000000800019f0 <i_1575>:
    800019f0:	f9016903          	lwu	s2,-112(sp)

00000000800019f4 <i_1576>:
    800019f4:	001f8f93          	addi	t6,t6,1
    800019f8:	fe9fe0e3          	bltu	t6,s1,800019d8 <i_1569>

00000000800019fc <i_1577>:
    800019fc:	00600f93          	li	t6,6

0000000080001a00 <i_1578>:
    80001a00:	01f95fb3          	srl	t6,s2,t6

0000000080001a04 <i_1579>:
    80001a04:	fcb12223          	sw	a1,-60(sp)

0000000080001a08 <i_1580>:
    80001a08:	e3416d03          	lwu	s10,-460(sp)

0000000080001a0c <i_1581>:
    80001a0c:	f6c15203          	lhu	tp,-148(sp)

0000000080001a10 <i_1582>:
    80001a10:	0245d5b3          	divu	a1,a1,tp

0000000080001a14 <i_1583>:
    80001a14:	01a5ee63          	bltu	a1,s10,80001a30 <i_1590>

0000000080001a18 <i_1584>:
    80001a18:	09810583          	lb	a1,152(sp)

0000000080001a1c <i_1585>:
    80001a1c:	b3158593          	addi	a1,a1,-1231

0000000080001a20 <i_1586>:
    80001a20:	f6b10323          	sb	a1,-154(sp)

0000000080001a24 <i_1587>:
    80001a24:	40b58333          	sub	t1,a1,a1

0000000080001a28 <i_1588>:
    80001a28:	00b5fc63          	bleu	a1,a1,80001a40 <i_1594>

0000000080001a2c <i_1589>:
    80001a2c:	efa14583          	lbu	a1,-262(sp)

0000000080001a30 <i_1590>:
    80001a30:	00b5cc63          	blt	a1,a1,80001a48 <i_1596>

0000000080001a34 <i_1591>:
    80001a34:	fb816b03          	lwu	s6,-72(sp)

0000000080001a38 <i_1592>:
    80001a38:	40b5053b          	subw	a0,a0,a1

0000000080001a3c <i_1593>:
    80001a3c:	e4611e23          	sh	t1,-420(sp)

0000000080001a40 <i_1594>:
    80001a40:	416c05bb          	subw	a1,s8,s6

0000000080001a44 <i_1595>:
    80001a44:	ec412b03          	lw	s6,-316(sp)

0000000080001a48 <i_1596>:
    80001a48:	0d310c03          	lb	s8,211(sp)

0000000080001a4c <i_1597>:
    80001a4c:	404fdf9b          	sraiw	t6,t6,0x4

0000000080001a50 <i_1598>:
    80001a50:	023b7dbb          	remuw	s11,s6,gp

0000000080001a54 <i_1599>:
    80001a54:	f5b12c23          	sw	s11,-168(sp)

0000000080001a58 <i_1600>:
    80001a58:	02b58c3b          	mulw	s8,a1,a1

0000000080001a5c <i_1601>:
    80001a5c:	03bdddb3          	divu	s11,s11,s11

0000000080001a60 <i_1602>:
    80001a60:	10013c83          	ld	s9,256(sp)

0000000080001a64 <i_1603>:
    80001a64:	41bf8db3          	sub	s11,t6,s11

0000000080001a68 <i_1604>:
    80001a68:	0fd11023          	sh	t4,224(sp)

0000000080001a6c <i_1605>:
    80001a6c:	eb610d83          	lb	s11,-330(sp)

0000000080001a70 <i_1606>:
    80001a70:	e2c16b03          	lwu	s6,-468(sp)

0000000080001a74 <i_1607>:
    80001a74:	02012503          	lw	a0,32(sp)

0000000080001a78 <i_1608>:
    80001a78:	85700813          	li	a6,-1961

0000000080001a7c <i_1609>:
    80001a7c:	85a00893          	li	a7,-1958

0000000080001a80 <i_1610>:
    80001a80:	fc810b03          	lb	s6,-56(sp)

0000000080001a84 <i_1611>:
    80001a84:	12114783          	lbu	a5,289(sp)

0000000080001a88 <i_1612>:
    80001a88:	14e15b03          	lhu	s6,334(sp)

0000000080001a8c <i_1613>:
    80001a8c:	83500393          	li	t2,-1995

0000000080001a90 <i_1614>:
    80001a90:	84600a93          	li	s5,-1978

0000000080001a94 <i_1615>:
    80001a94:	287f8093          	addi	ra,t6,647

0000000080001a98 <i_1616>:
    80001a98:	00000013          	nop

0000000080001a9c <i_1617>:
    80001a9c:	004ade1b          	srliw	t3,s5,0x4

0000000080001aa0 <i_1618>:
    80001aa0:	f0114203          	lbu	tp,-255(sp)

0000000080001aa4 <i_1619>:
    80001aa4:	fee15683          	lhu	a3,-18(sp)

0000000080001aa8 <i_1620>:
    80001aa8:	4beaeb13          	ori	s6,s5,1214

0000000080001aac <i_1621>:
    80001aac:	03398663          	beq	s3,s3,80001ad8 <i_1630>

0000000080001ab0 <i_1622>:
    80001ab0:	0c615f83          	lhu	t6,198(sp)

0000000080001ab4 <i_1623>:
    80001ab4:	67eb6993          	ori	s3,s6,1662

0000000080001ab8 <i_1624>:
    80001ab8:	00138393          	addi	t2,t2,1
    80001abc:	fd53ece3          	bltu	t2,s5,80001a94 <i_1615>

0000000080001ac0 <i_1625>:
    80001ac0:	41d40c9b          	addiw	s9,s0,1053

0000000080001ac4 <i_1626>:
    80001ac4:	00180813          	addi	a6,a6,1
    80001ac8:	fb181ce3          	bne	a6,a7,80001a80 <i_1610>

0000000080001acc <i_1627>:
    80001acc:	03815983          	lhu	s3,56(sp)

0000000080001ad0 <i_1628>:
    80001ad0:	013c4c63          	blt	s8,s3,80001ae8 <i_1634>

0000000080001ad4 <i_1629>:
    80001ad4:	4048521b          	sraiw	tp,a6,0x4

0000000080001ad8 <i_1630>:
    80001ad8:	f3c12503          	lw	a0,-196(sp)

0000000080001adc <i_1631>:
    80001adc:	fc6108a3          	sb	t1,-47(sp)

0000000080001ae0 <i_1632>:
    80001ae0:	0f816403          	lwu	s0,248(sp)

0000000080001ae4 <i_1633>:
    80001ae4:	00000013          	nop

0000000080001ae8 <i_1634>:
    80001ae8:	0c810983          	lb	s3,200(sp)

0000000080001aec <i_1635>:
    80001aec:	00000013          	nop

0000000080001af0 <i_1636>:
    80001af0:	83200c93          	li	s9,-1998

0000000080001af4 <i_1637>:
    80001af4:	83700393          	li	t2,-1993

0000000080001af8 <i_1638>:
    80001af8:	00700e93          	li	t4,7

0000000080001afc <i_1639>:
    80001afc:	01d45fbb          	srlw	t6,s0,t4

0000000080001b00 <i_1640>:
    80001b00:	00000013          	nop

0000000080001b04 <i_1641>:
    80001b04:	03fefd3b          	remuw	s10,t4,t6

0000000080001b08 <i_1642>:
    80001b08:	02fee7bb          	remw	a5,t4,a5

0000000080001b0c <i_1643>:
    80001b0c:	00ed0733          	add	a4,s10,a4

0000000080001b10 <i_1644>:
    80001b10:	0c811d03          	lh	s10,200(sp)

0000000080001b14 <i_1645>:
    80001b14:	00000013          	nop

0000000080001b18 <i_1646>:
    80001b18:	001c8c93          	addi	s9,s9,1
    80001b1c:	fc7ccee3          	blt	s9,t2,80001af8 <i_1638>

0000000080001b20 <i_1647>:
    80001b20:	00000013          	nop

0000000080001b24 <i_1648>:
    80001b24:	faf100a3          	sb	a5,-95(sp)

0000000080001b28 <i_1649>:
    80001b28:	03a74063          	blt	a4,s10,80001b48 <i_1657>

0000000080001b2c <i_1650>:
    80001b2c:	00000013          	nop

0000000080001b30 <i_1651>:
    80001b30:	00000013          	nop

0000000080001b34 <i_1652>:
    80001b34:	05813703          	ld	a4,88(sp)

0000000080001b38 <i_1653>:
    80001b38:	eb810903          	lb	s2,-328(sp)

0000000080001b3c <i_1654>:
    80001b3c:	1c813c23          	sd	s0,472(sp)

0000000080001b40 <i_1655>:
    80001b40:	ebc15903          	lhu	s2,-324(sp)

0000000080001b44 <i_1656>:
    80001b44:	019f0cb3          	add	s9,t5,s9

0000000080001b48 <i_1657>:
    80001b48:	983d031b          	addiw	t1,s10,-1661

0000000080001b4c <i_1658>:
    80001b4c:	00000013          	nop

0000000080001b50 <i_1659>:
    80001b50:	8be00393          	li	t2,-1858

0000000080001b54 <i_1660>:
    80001b54:	8d000813          	li	a6,-1840

0000000080001b58 <i_1661>:
    80001b58:	17910fa3          	sb	s9,383(sp)

0000000080001b5c <i_1662>:
    80001b5c:	00b30e63          	beq	t1,a1,80001b78 <i_1668>

0000000080001b60 <i_1663>:
    80001b60:	00138393          	addi	t2,t2,1
    80001b64:	fe785ae3          	ble	t2,a6,80001b58 <i_1661>

0000000080001b68 <i_1664>:
    80001b68:	f5415383          	lhu	t2,-172(sp)

0000000080001b6c <i_1665>:
    80001b6c:	04e12823          	sw	a4,80(sp)

0000000080001b70 <i_1666>:
    80001b70:	11012023          	sw	a6,256(sp)

0000000080001b74 <i_1667>:
    80001b74:	f4513c23          	sd	t0,-168(sp)

0000000080001b78 <i_1668>:
    80001b78:	00000013          	nop

0000000080001b7c <i_1669>:
    80001b7c:	00000013          	nop

0000000080001b80 <i_1670>:
    80001b80:	77400813          	li	a6,1908

0000000080001b84 <i_1671>:
    80001b84:	78100393          	li	t2,1921

0000000080001b88 <i_1672>:
    80001b88:	f893091b          	addiw	s2,t1,-119

0000000080001b8c <i_1673>:
    80001b8c:	07013823          	sd	a6,112(sp)

0000000080001b90 <i_1674>:
    80001b90:	00180813          	addi	a6,a6,1
    80001b94:	fe781ae3          	bne	a6,t2,80001b88 <i_1672>

0000000080001b98 <i_1675>:
    80001b98:	01f00e93          	li	t4,31

0000000080001b9c <i_1676>:
    80001b9c:	01d95abb          	srlw	s5,s2,t4

0000000080001ba0 <i_1677>:
    80001ba0:	0073f463          	bleu	t2,t2,80001ba8 <i_1679>

0000000080001ba4 <i_1678>:
    80001ba4:	00a11e83          	lh	t4,10(sp)

0000000080001ba8 <i_1679>:
    80001ba8:	01a38663          	beq	t2,s10,80001bb4 <i_1682>

0000000080001bac <i_1680>:
    80001bac:	d9938393          	addi	t2,t2,-615

0000000080001bb0 <i_1681>:
    80001bb0:	01d55a63          	ble	t4,a0,80001bc4 <i_1686>

0000000080001bb4 <i_1682>:
    80001bb4:	36cefa13          	andi	s4,t4,876

0000000080001bb8 <i_1683>:
    80001bb8:	e7511b23          	sh	s5,-394(sp)

0000000080001bbc <i_1684>:
    80001bbc:	02400493          	li	s1,36

0000000080001bc0 <i_1685>:
    80001bc0:	009b5b33          	srl	s6,s6,s1

0000000080001bc4 <i_1686>:
    80001bc4:	007485b3          	add	a1,s1,t2

0000000080001bc8 <i_1687>:
    80001bc8:	eec11403          	lh	s0,-276(sp)

0000000080001bcc <i_1688>:
    80001bcc:	e9816b03          	lwu	s6,-360(sp)

0000000080001bd0 <i_1689>:
    80001bd0:	008eec63          	bltu	t4,s0,80001be8 <i_1695>

0000000080001bd4 <i_1690>:
    80001bd4:	008ac4b3          	xor	s1,s5,s0

0000000080001bd8 <i_1691>:
    80001bd8:	9020ceb7          	lui	t4,0x9020c

0000000080001bdc <i_1692>:
    80001bdc:	01500293          	li	t0,21

0000000080001be0 <i_1693>:
    80001be0:	005a9abb          	sllw	s5,s5,t0

0000000080001be4 <i_1694>:
    80001be4:	00e38eb3          	add	t4,t2,a4

0000000080001be8 <i_1695>:
    80001be8:	05511623          	sh	s5,76(sp)

0000000080001bec <i_1696>:
    80001bec:	007cbab3          	sltu	s5,s9,t2

0000000080001bf0 <i_1697>:
    80001bf0:	02c15403          	lhu	s0,44(sp)

0000000080001bf4 <i_1698>:
    80001bf4:	f3f14403          	lbu	s0,-193(sp)

0000000080001bf8 <i_1699>:
    80001bf8:	f6c12d03          	lw	s10,-148(sp)

0000000080001bfc <i_1700>:
    80001bfc:	002d1e93          	slli	t4,s10,0x2

0000000080001c00 <i_1701>:
    80001c00:	00692333          	slt	t1,s2,t1

0000000080001c04 <i_1702>:
    80001c04:	026cf263          	bleu	t1,s9,80001c28 <i_1711>

0000000080001c08 <i_1703>:
    80001c08:	0aa10383          	lb	t2,170(sp)

0000000080001c0c <i_1704>:
    80001c0c:	16710c23          	sb	t2,376(sp)

0000000080001c10 <i_1705>:
    80001c10:	03dafbbb          	remuw	s7,s5,t4

0000000080001c14 <i_1706>:
    80001c14:	15015c83          	lhu	s9,336(sp)

0000000080001c18 <i_1707>:
    80001c18:	002edd1b          	srliw	s10,t4,0x2

0000000080001c1c <i_1708>:
    80001c1c:	0bd107a3          	sb	t4,175(sp)

0000000080001c20 <i_1709>:
    80001c20:	01700393          	li	t2,23

0000000080001c24 <i_1710>:
    80001c24:	4075dd33          	sra	s10,a1,t2

0000000080001c28 <i_1711>:
    80001c28:	e53a0e9b          	addiw	t4,s4,-429

0000000080001c2c <i_1712>:
    80001c2c:	007ed663          	ble	t2,t4,80001c38 <i_1715>

0000000080001c30 <i_1713>:
    80001c30:	e5012a03          	lw	s4,-432(sp)

0000000080001c34 <i_1714>:
    80001c34:	f9611903          	lh	s2,-106(sp)

0000000080001c38 <i_1715>:
    80001c38:	00000013          	nop

0000000080001c3c <i_1716>:
    80001c3c:	e426b917          	auipc	s2,0xe426b

0000000080001c40 <i_1717>:
    80001c40:	7ac00a13          	li	s4,1964

0000000080001c44 <i_1718>:
    80001c44:	7b400e93          	li	t4,1972

0000000080001c48 <i_1719>:
    80001c48:	41290f33          	sub	t5,s2,s2

0000000080001c4c <i_1720>:
    80001c4c:	0fe12423          	sw	t5,232(sp)

0000000080001c50 <i_1721>:
    80001c50:	0a810903          	lb	s2,168(sp)

0000000080001c54 <i_1722>:
    80001c54:	eb812f03          	lw	t5,-328(sp)

0000000080001c58 <i_1723>:
    80001c58:	05c12983          	lw	s3,92(sp)

0000000080001c5c <i_1724>:
    80001c5c:	9caf031b          	addiw	t1,t5,-1590

0000000080001c60 <i_1725>:
    80001c60:	11d13423          	sd	t4,264(sp)

0000000080001c64 <i_1726>:
    80001c64:	0e615f03          	lhu	t5,230(sp)

0000000080001c68 <i_1727>:
    80001c68:	00125213          	srli	tp,tp,0x1

0000000080001c6c <i_1728>:
    80001c6c:	001a0a13          	addi	s4,s4,1
    80001c70:	fd4efce3          	bleu	s4,t4,80001c48 <i_1719>

0000000080001c74 <i_1729>:
    80001c74:	00000013          	nop

0000000080001c78 <i_1730>:
    80001c78:	17dc8f17          	auipc	t5,0x17dc8

0000000080001c7c <i_1731>:
    80001c7c:	037f0ab3          	mul	s5,t5,s7

0000000080001c80 <i_1732>:
    80001c80:	0d211f03          	lh	t5,210(sp)

0000000080001c84 <i_1733>:
    80001c84:	00412623          	sw	tp,12(sp)

0000000080001c88 <i_1734>:
    80001c88:	01000093          	li	ra,16

0000000080001c8c <i_1735>:
    80001c8c:	001f9f3b          	sllw	t5,t6,ra

0000000080001c90 <i_1736>:
    80001c90:	09511e23          	sh	s5,156(sp)

0000000080001c94 <i_1737>:
    80001c94:	1b813f83          	ld	t6,440(sp)

0000000080001c98 <i_1738>:
    80001c98:	e7010723          	sb	a6,-402(sp)

0000000080001c9c <i_1739>:
    80001c9c:	1bf11223          	sh	t6,420(sp)

0000000080001ca0 <i_1740>:
    80001ca0:	0fc16383          	lwu	t2,252(sp)

0000000080001ca4 <i_1741>:
    80001ca4:	0bc16d03          	lwu	s10,188(sp)

0000000080001ca8 <i_1742>:
    80001ca8:	027fecbb          	remw	s9,t6,t2

0000000080001cac <i_1743>:
    80001cac:	027af263          	bleu	t2,s5,80001cd0 <i_1752>

0000000080001cb0 <i_1744>:
    80001cb0:	027388b3          	mul	a7,t2,t2

0000000080001cb4 <i_1745>:
    80001cb4:	011fd263          	ble	a7,t6,80001cb8 <i_1746>

0000000080001cb8 <i_1746>:
    80001cb8:	02fd6fb3          	rem	t6,s10,a5

0000000080001cbc <i_1747>:
    80001cbc:	03fc8463          	beq	s9,t6,80001ce4 <i_1757>

0000000080001cc0 <i_1748>:
    80001cc0:	0150ca63          	blt	ra,s5,80001cd4 <i_1753>

0000000080001cc4 <i_1749>:
    80001cc4:	01ad4d33          	xor	s10,s10,s10

0000000080001cc8 <i_1750>:
    80001cc8:	01a27a63          	bleu	s10,tp,80001cdc <i_1755>

0000000080001ccc <i_1751>:
    80001ccc:	e5415f83          	lhu	t6,-428(sp)

0000000080001cd0 <i_1752>:
    80001cd0:	0e714f83          	lbu	t6,231(sp)

0000000080001cd4 <i_1753>:
    80001cd4:	14c94e37          	lui	t3,0x14c94

0000000080001cd8 <i_1754>:
    80001cd8:	09210523          	sb	s2,138(sp)

0000000080001cdc <i_1755>:
    80001cdc:	fc013b83          	ld	s7,-64(sp)

0000000080001ce0 <i_1756>:
    80001ce0:	00000013          	nop

0000000080001ce4 <i_1757>:
    80001ce4:	00000013          	nop

0000000080001ce8 <i_1758>:
    80001ce8:	00000013          	nop

0000000080001cec <i_1759>:
    80001cec:	8a400c93          	li	s9,-1884

0000000080001cf0 <i_1760>:
    80001cf0:	8a900893          	li	a7,-1879

0000000080001cf4 <i_1761>:
    80001cf4:	19013e03          	ld	t3,400(sp)

0000000080001cf8 <i_1762>:
    80001cf8:	0045959b          	slliw	a1,a1,0x4

0000000080001cfc <i_1763>:
    80001cfc:	001c8c93          	addi	s9,s9,1
    80001d00:	ff98dae3          	ble	s9,a7,80001cf4 <i_1761>

0000000080001d04 <i_1764>:
    80001d04:	13b10c03          	lb	s8,315(sp)

0000000080001d08 <i_1765>:
    80001d08:	017ade63          	ble	s7,s5,80001d24 <i_1772>

0000000080001d0c <i_1766>:
    80001d0c:	01c15a03          	lhu	s4,28(sp)

0000000080001d10 <i_1767>:
    80001d10:	16813503          	ld	a0,360(sp)

0000000080001d14 <i_1768>:
    80001d14:	014ce463          	bltu	s9,s4,80001d1c <i_1770>

0000000080001d18 <i_1769>:
    80001d18:	e2d14583          	lbu	a1,-467(sp)

0000000080001d1c <i_1770>:
    80001d1c:	00e00c93          	li	s9,14

0000000080001d20 <i_1771>:
    80001d20:	4198d43b          	sraw	s0,a7,s9

0000000080001d24 <i_1772>:
    80001d24:	019fca63          	blt	t6,s9,80001d38 <i_1777>

0000000080001d28 <i_1773>:
    80001d28:	e2c14403          	lbu	s0,-468(sp)

0000000080001d2c <i_1774>:
    80001d2c:	019fd263          	ble	s9,t6,80001d30 <i_1775>

0000000080001d30 <i_1775>:
    80001d30:	f0811e23          	sh	s0,-228(sp)

0000000080001d34 <i_1776>:
    80001d34:	03fd793b          	remuw	s2,s10,t6

0000000080001d38 <i_1777>:
    80001d38:	08a11a23          	sh	a0,148(sp)

0000000080001d3c <i_1778>:
    80001d3c:	fa614d03          	lbu	s10,-90(sp)

0000000080001d40 <i_1779>:
    80001d40:	032d6933          	rem	s2,s10,s2

0000000080001d44 <i_1780>:
    80001d44:	003961b3          	or	gp,s2,gp

0000000080001d48 <i_1781>:
    80001d48:	e7213023          	sd	s2,-416(sp)

0000000080001d4c <i_1782>:
    80001d4c:	0320b6b3          	mulhu	a3,ra,s2

0000000080001d50 <i_1783>:
    80001d50:	07510183          	lb	gp,117(sp)

0000000080001d54 <i_1784>:
    80001d54:	0019561b          	srliw	a2,s2,0x1

0000000080001d58 <i_1785>:
    80001d58:	00d6c6b3          	xor	a3,a3,a3

0000000080001d5c <i_1786>:
    80001d5c:	0de15403          	lhu	s0,222(sp)

0000000080001d60 <i_1787>:
    80001d60:	00c1d463          	ble	a2,gp,80001d68 <i_1789>

0000000080001d64 <i_1788>:
    80001d64:	fb013603          	ld	a2,-80(sp)

0000000080001d68 <i_1789>:
    80001d68:	03a669b3          	rem	s3,a2,s10

0000000080001d6c <i_1790>:
    80001d6c:	e3416683          	lwu	a3,-460(sp)

0000000080001d70 <i_1791>:
    80001d70:	033646bb          	divw	a3,a2,s3

0000000080001d74 <i_1792>:
    80001d74:	0024119b          	slliw	gp,s0,0x2

0000000080001d78 <i_1793>:
    80001d78:	11710983          	lb	s3,279(sp)

0000000080001d7c <i_1794>:
    80001d7c:	e2d10fa3          	sb	a3,-449(sp)

0000000080001d80 <i_1795>:
    80001d80:	f1412b83          	lw	s7,-236(sp)

0000000080001d84 <i_1796>:
    80001d84:	efc16683          	lwu	a3,-260(sp)

0000000080001d88 <i_1797>:
    80001d88:	00416483          	lwu	s1,4(sp)

0000000080001d8c <i_1798>:
    80001d8c:	f2e11183          	lh	gp,-210(sp)

0000000080001d90 <i_1799>:
    80001d90:	00355693          	srli	a3,a0,0x3

0000000080001d94 <i_1800>:
    80001d94:	d674ec93          	ori	s9,s1,-665

0000000080001d98 <i_1801>:
    80001d98:	e5013823          	sd	a6,-432(sp)

0000000080001d9c <i_1802>:
    80001d9c:	4029df13          	srai	t5,s3,0x2

0000000080001da0 <i_1803>:
    80001da0:	f7416903          	lwu	s2,-140(sp)

0000000080001da4 <i_1804>:
    80001da4:	033707bb          	mulw	a5,a4,s3

0000000080001da8 <i_1805>:
    80001da8:	e2d12023          	sw	a3,-480(sp)

0000000080001dac <i_1806>:
    80001dac:	029b56b3          	divu	a3,s6,s1

0000000080001db0 <i_1807>:
    80001db0:	e5510e83          	lb	t4,-427(sp)

0000000080001db4 <i_1808>:
    80001db4:	0171f663          	bleu	s7,gp,80001dc0 <i_1811>

0000000080001db8 <i_1809>:
    80001db8:	f3016903          	lwu	s2,-208(sp)

0000000080001dbc <i_1810>:
    80001dbc:	1adef193          	andi	gp,t4,429

0000000080001dc0 <i_1811>:
    80001dc0:	01d00e93          	li	t4,29

0000000080001dc4 <i_1812>:
    80001dc4:	01d1dd3b          	srlw	s10,gp,t4

0000000080001dc8 <i_1813>:
    80001dc8:	07013203          	ld	tp,112(sp)

0000000080001dcc <i_1814>:
    80001dcc:	94b7c237          	lui	tp,0x94b7c

0000000080001dd0 <i_1815>:
    80001dd0:	04012d03          	lw	s10,64(sp)

0000000080001dd4 <i_1816>:
    80001dd4:	f6e11c23          	sh	a4,-136(sp)

0000000080001dd8 <i_1817>:
    80001dd8:	017bc863          	blt	s7,s7,80001de8 <i_1821>

0000000080001ddc <i_1818>:
    80001ddc:	17012503          	lw	a0,368(sp)

0000000080001de0 <i_1819>:
    80001de0:	15510803          	lb	a6,341(sp)

0000000080001de4 <i_1820>:
    80001de4:	01300d13          	li	s10,19

0000000080001de8 <i_1821>:
    80001de8:	41ad5a33          	sra	s4,s10,s10

0000000080001dec <i_1822>:
    80001dec:	004d1193          	slli	gp,s10,0x4

0000000080001df0 <i_1823>:
    80001df0:	88d00313          	li	t1,-1907

0000000080001df4 <i_1824>:
    80001df4:	89a00e93          	li	t4,-1894

0000000080001df8 <i_1825>:
    80001df8:	0d813d03          	ld	s10,216(sp)

0000000080001dfc <i_1826>:
    80001dfc:	e4a15983          	lhu	s3,-438(sp)

0000000080001e00 <i_1827>:
    80001e00:	0049dd13          	srli	s10,s3,0x4

0000000080001e04 <i_1828>:
    80001e04:	ed313423          	sd	s3,-312(sp)

0000000080001e08 <i_1829>:
    80001e08:	04813983          	ld	s3,72(sp)

0000000080001e0c <i_1830>:
    80001e0c:	d5998b1b          	addiw	s6,s3,-679

0000000080001e10 <i_1831>:
    80001e10:	eb710b03          	lb	s6,-329(sp)

0000000080001e14 <i_1832>:
    80001e14:	036d1b33          	mulh	s6,s10,s6

0000000080001e18 <i_1833>:
    80001e18:	f9a10a23          	sb	s10,-108(sp)

0000000080001e1c <i_1834>:
    80001e1c:	03e14983          	lbu	s3,62(sp)

0000000080001e20 <i_1835>:
    80001e20:	00130313          	addi	t1,t1,1
    80001e24:	fc6edae3          	ble	t1,t4,80001df8 <i_1825>

0000000080001e28 <i_1836>:
    80001e28:	f1312a23          	sw	s3,-236(sp)

0000000080001e2c <i_1837>:
    80001e2c:	0369a9b3          	mulhsu	s3,s3,s6

0000000080001e30 <i_1838>:
    80001e30:	4ec9899b          	addiw	s3,s3,1260

0000000080001e34 <i_1839>:
    80001e34:	01100993          	li	s3,17

0000000080001e38 <i_1840>:
    80001e38:	4139db3b          	sraw	s6,s3,s3

0000000080001e3c <i_1841>:
    80001e3c:	0139de63          	ble	s3,s3,80001e58 <i_1848>

0000000080001e40 <i_1842>:
    80001e40:	013fc863          	blt	t6,s3,80001e50 <i_1846>

0000000080001e44 <i_1843>:
    80001e44:	04812c83          	lw	s9,72(sp)

0000000080001e48 <i_1844>:
    80001e48:	00cd7fb3          	and	t6,s10,a2

0000000080001e4c <i_1845>:
    80001e4c:	01388933          	add	s2,a7,s3

0000000080001e50 <i_1846>:
    80001e50:	01d00993          	li	s3,29

0000000080001e54 <i_1847>:
    80001e54:	0138d8bb          	srlw	a7,a7,s3

0000000080001e58 <i_1848>:
    80001e58:	35e94d13          	xori	s10,s2,862

0000000080001e5c <i_1849>:
    80001e5c:	031ff463          	bleu	a7,t6,80001e84 <i_1859>

0000000080001e60 <i_1850>:
    80001e60:	17412d03          	lw	s10,372(sp)

0000000080001e64 <i_1851>:
    80001e64:	03ace063          	bltu	s9,s10,80001e84 <i_1859>

0000000080001e68 <i_1852>:
    80001e68:	402d569b          	sraiw	a3,s10,0x2

0000000080001e6c <i_1853>:
    80001e6c:	e1111f23          	sh	a7,-482(sp)

0000000080001e70 <i_1854>:
    80001e70:	03231063          	bne	t1,s2,80001e90 <i_1862>

0000000080001e74 <i_1855>:
    80001e74:	012fce63          	blt	t6,s2,80001e90 <i_1862>

0000000080001e78 <i_1856>:
    80001e78:	01b9b9b3          	sltu	s3,s3,s11

0000000080001e7c <i_1857>:
    80001e7c:	019d7263          	bleu	s9,s10,80001e80 <i_1858>

0000000080001e80 <i_1858>:
    80001e80:	011d1263          	bne	s10,a7,80001e84 <i_1859>

0000000080001e84 <i_1859>:
    80001e84:	01313023          	sd	s3,0(sp)

0000000080001e88 <i_1860>:
    80001e88:	05415d03          	lhu	s10,84(sp)

0000000080001e8c <i_1861>:
    80001e8c:	0e513423          	sd	t0,232(sp)

0000000080001e90 <i_1862>:
    80001e90:	f4c13423          	sd	a2,-184(sp)

0000000080001e94 <i_1863>:
    80001e94:	18c16c83          	lwu	s9,396(sp)

0000000080001e98 <i_1864>:
    80001e98:	f9910ba3          	sb	s9,-105(sp)

0000000080001e9c <i_1865>:
    80001e9c:	e2d10203          	lb	tp,-467(sp)

0000000080001ea0 <i_1866>:
    80001ea0:	e5f12823          	sw	t6,-432(sp)

0000000080001ea4 <i_1867>:
    80001ea4:	eee11903          	lh	s2,-274(sp)

0000000080001ea8 <i_1868>:
    80001ea8:	00690d33          	add	s10,s2,t1

0000000080001eac <i_1869>:
    80001eac:	02637463          	bleu	t1,t1,80001ed4 <i_1879>

0000000080001eb0 <i_1870>:
    80001eb0:	00625c63          	ble	t1,tp,80001ec8 <i_1876>

0000000080001eb4 <i_1871>:
    80001eb4:	02631063          	bne	t1,t1,80001ed4 <i_1879>

0000000080001eb8 <i_1872>:
    80001eb8:	01ad4863          	blt	s10,s10,80001ec8 <i_1876>

0000000080001ebc <i_1873>:
    80001ebc:	e2e12c23          	sw	a4,-456(sp)

0000000080001ec0 <i_1874>:
    80001ec0:	00e33eb3          	sltu	t4,t1,a4

0000000080001ec4 <i_1875>:
    80001ec4:	0ce107a3          	sb	a4,207(sp)

0000000080001ec8 <i_1876>:
    80001ec8:	00eac733          	xor	a4,s5,a4

0000000080001ecc <i_1877>:
    80001ecc:	01de8863          	beq	t4,t4,80001edc <i_1881>

0000000080001ed0 <i_1878>:
    80001ed0:	1f112423          	sw	a7,488(sp)

0000000080001ed4 <i_1879>:
    80001ed4:	15016703          	lwu	a4,336(sp)

0000000080001ed8 <i_1880>:
    80001ed8:	01de89b3          	add	s3,t4,t4

0000000080001edc <i_1881>:
    80001edc:	01370a63          	beq	a4,s3,80001ef0 <i_1886>

0000000080001ee0 <i_1882>:
    80001ee0:	1ce13c23          	sd	a4,472(sp)

0000000080001ee4 <i_1883>:
    80001ee4:	03d765bb          	remw	a1,a4,t4

0000000080001ee8 <i_1884>:
    80001ee8:	01d59663          	bne	a1,t4,80001ef4 <i_1887>

0000000080001eec <i_1885>:
    80001eec:	00e71863          	bne	a4,a4,80001efc <i_1889>

0000000080001ef0 <i_1886>:
    80001ef0:	01b6dc63          	ble	s11,a3,80001f08 <i_1892>

0000000080001ef4 <i_1887>:
    80001ef4:	e4416703          	lwu	a4,-444(sp)

0000000080001ef8 <i_1888>:
    80001ef8:	00b9c663          	blt	s3,a1,80001f04 <i_1891>

0000000080001efc <i_1889>:
    80001efc:	4137073b          	subw	a4,a4,s3

0000000080001f00 <i_1890>:
    80001f00:	ea812a23          	sw	s0,-332(sp)

0000000080001f04 <i_1891>:
    80001f04:	e9011403          	lh	s0,-368(sp)

0000000080001f08 <i_1892>:
    80001f08:	1e611a83          	lh	s5,486(sp)

0000000080001f0c <i_1893>:
    80001f0c:	02f5eabb          	remw	s5,a1,a5

0000000080001f10 <i_1894>:
    80001f10:	ff511a23          	sh	s5,-12(sp)

0000000080001f14 <i_1895>:
    80001f14:	9e94031b          	addiw	t1,s0,-1559

0000000080001f18 <i_1896>:
    80001f18:	e087091b          	addiw	s2,a4,-504

0000000080001f1c <i_1897>:
    80001f1c:	4017559b          	sraiw	a1,a4,0x1

0000000080001f20 <i_1898>:
    80001f20:	00600593          	li	a1,6

0000000080001f24 <i_1899>:
    80001f24:	00bad1bb          	srlw	gp,s5,a1

0000000080001f28 <i_1900>:
    80001f28:	00000013          	nop

0000000080001f2c <i_1901>:
    80001f2c:	002a981b          	slliw	a6,s5,0x2

0000000080001f30 <i_1902>:
    80001f30:	79f00313          	li	t1,1951

0000000080001f34 <i_1903>:
    80001f34:	7a500c93          	li	s9,1957

0000000080001f38 <i_1904>:
    80001f38:	03600693          	li	a3,54

0000000080001f3c <i_1905>:
    80001f3c:	00da9e33          	sll	t3,s5,a3

0000000080001f40 <i_1906>:
    80001f40:	00130313          	addi	t1,t1,1
    80001f44:	ff934ae3          	blt	t1,s9,80001f38 <i_1904>

0000000080001f48 <i_1907>:
    80001f48:	122e7413          	andi	s0,t3,290

0000000080001f4c <i_1908>:
    80001f4c:	00241413          	slli	s0,s0,0x2

0000000080001f50 <i_1909>:
    80001f50:	02a00693          	li	a3,42

0000000080001f54 <i_1910>:
    80001f54:	00d35e33          	srl	t3,t1,a3

0000000080001f58 <i_1911>:
    80001f58:	008e0263          	beq	t3,s0,80001f5c <i_1912>

0000000080001f5c <i_1912>:
    80001f5c:	02a11303          	lh	t1,42(sp)

0000000080001f60 <i_1913>:
    80001f60:	0357c7b3          	div	a5,a5,s5

0000000080001f64 <i_1914>:
    80001f64:	fd013783          	ld	a5,-48(sp)

0000000080001f68 <i_1915>:
    80001f68:	8d86c493          	xori	s1,a3,-1832

0000000080001f6c <i_1916>:
    80001f6c:	fa816d83          	lwu	s11,-88(sp)

0000000080001f70 <i_1917>:
    80001f70:	a3cf0a9b          	addiw	s5,t5,-1476

0000000080001f74 <i_1918>:
    80001f74:	ff412683          	lw	a3,-12(sp)

0000000080001f78 <i_1919>:
    80001f78:	015a8663          	beq	s5,s5,80001f84 <i_1922>

0000000080001f7c <i_1920>:
    80001f7c:	01200413          	li	s0,18

0000000080001f80 <i_1921>:
    80001f80:	4086d833          	sra	a6,a3,s0

0000000080001f84 <i_1922>:
    80001f84:	f5016803          	lwu	a6,-176(sp)

0000000080001f88 <i_1923>:
    80001f88:	0f813483          	ld	s1,248(sp)

0000000080001f8c <i_1924>:
    80001f8c:	1b310483          	lb	s1,435(sp)

0000000080001f90 <i_1925>:
    80001f90:	12016983          	lwu	s3,288(sp)

0000000080001f94 <i_1926>:
    80001f94:	0a911c23          	sh	s1,184(sp)

0000000080001f98 <i_1927>:
    80001f98:	01412483          	lw	s1,20(sp)

0000000080001f9c <i_1928>:
    80001f9c:	ee214f83          	lbu	t6,-286(sp)

0000000080001fa0 <i_1929>:
    80001fa0:	ef411483          	lh	s1,-268(sp)

0000000080001fa4 <i_1930>:
    80001fa4:	0294c1bb          	divw	gp,s1,s1

0000000080001fa8 <i_1931>:
    80001fa8:	00640c63          	beq	s0,t1,80001fc0 <i_1937>

0000000080001fac <i_1932>:
    80001fac:	00947863          	bleu	s1,s0,80001fbc <i_1936>

0000000080001fb0 <i_1933>:
    80001fb0:	00191493          	slli	s1,s2,0x1

0000000080001fb4 <i_1934>:
    80001fb4:	00822433          	slt	s0,tp,s0

0000000080001fb8 <i_1935>:
    80001fb8:	ec910f23          	sb	s1,-290(sp)

0000000080001fbc <i_1936>:
    80001fbc:	4944bd93          	sltiu	s11,s1,1172

0000000080001fc0 <i_1937>:
    80001fc0:	0bf14183          	lbu	gp,191(sp)

0000000080001fc4 <i_1938>:
    80001fc4:	002dd093          	srli	ra,s11,0x2

0000000080001fc8 <i_1939>:
    80001fc8:	02340263          	beq	s0,gp,80001fec <i_1948>

0000000080001fcc <i_1940>:
    80001fcc:	0290d463          	ble	s1,ra,80001ff4 <i_1950>

0000000080001fd0 <i_1941>:
    80001fd0:	f6815483          	lhu	s1,-152(sp)

0000000080001fd4 <i_1942>:
    80001fd4:	e6214b83          	lbu	s7,-414(sp)

0000000080001fd8 <i_1943>:
    80001fd8:	0040d893          	srli	a7,ra,0x4

0000000080001fdc <i_1944>:
    80001fdc:	01800f93          	li	t6,24

0000000080001fe0 <i_1945>:
    80001fe0:	41f251bb          	sraw	gp,tp,t6

0000000080001fe4 <i_1946>:
    80001fe4:	78b4ff13          	andi	t5,s1,1931

0000000080001fe8 <i_1947>:
    80001fe8:	01cdd663          	ble	t3,s11,80001ff4 <i_1950>

0000000080001fec <i_1948>:
    80001fec:	00300d93          	li	s11,3

0000000080001ff0 <i_1949>:
    80001ff0:	41bdd6bb          	sraw	a3,s11,s11

0000000080001ff4 <i_1950>:
    80001ff4:	01400993          	li	s3,20

0000000080001ff8 <i_1951>:
    80001ff8:	013999bb          	sllw	s3,s3,s3

0000000080001ffc <i_1952>:
    80001ffc:	87500513          	li	a0,-1931

0000000080002000 <i_1953>:
    80002000:	87b00893          	li	a7,-1925

0000000080002004 <i_1954>:
    80002004:	03013f03          	ld	t5,48(sp)

0000000080002008 <i_1955>:
    80002008:	01e10c23          	sb	t5,24(sp)

000000008000200c <i_1956>:
    8000200c:	00395913          	srli	s2,s2,0x3

0000000080002010 <i_1957>:
    80002010:	efe13423          	sd	t5,-280(sp)

0000000080002014 <i_1958>:
    80002014:	00000013          	nop

0000000080002018 <i_1959>:
    80002018:	4d69e913          	ori	s2,s3,1238

000000008000201c <i_1960>:
    8000201c:	eb210323          	sb	s2,-346(sp)

0000000080002020 <i_1961>:
    80002020:	00150513          	addi	a0,a0,1
    80002024:	ff1560e3          	bltu	a0,a7,80002004 <i_1954>

0000000080002028 <i_1962>:
    80002028:	17514183          	lbu	gp,373(sp)

000000008000202c <i_1963>:
    8000202c:	0231c1b3          	div	gp,gp,gp

0000000080002030 <i_1964>:
    80002030:	0031fe63          	bleu	gp,gp,8000204c <i_1971>

0000000080002034 <i_1965>:
    80002034:	032181bb          	mulw	gp,gp,s2

0000000080002038 <i_1966>:
    80002038:	023181b3          	mul	gp,gp,gp

000000008000203c <i_1967>:
    8000203c:	b841819b          	addiw	gp,gp,-1148

0000000080002040 <i_1968>:
    80002040:	0231c7b3          	div	a5,gp,gp

0000000080002044 <i_1969>:
    80002044:	003d7d33          	and	s10,s10,gp

0000000080002048 <i_1970>:
    80002048:	08b14c03          	lbu	s8,139(sp)

000000008000204c <i_1971>:
    8000204c:	0381e83b          	remw	a6,gp,s8

0000000080002050 <i_1972>:
    80002050:	f9812183          	lw	gp,-104(sp)

0000000080002054 <i_1973>:
    80002054:	0dc16183          	lwu	gp,220(sp)

0000000080002058 <i_1974>:
    80002058:	19813183          	ld	gp,408(sp)

000000008000205c <i_1975>:
    8000205c:	09011a23          	sh	a6,148(sp)

0000000080002060 <i_1976>:
    80002060:	da8d0d13          	addi	s10,s10,-600

0000000080002064 <i_1977>:
    80002064:	b1b83813          	sltiu	a6,a6,-1253

0000000080002068 <i_1978>:
    80002068:	00200513          	li	a0,2

000000008000206c <i_1979>:
    8000206c:	00a11833          	sll	a6,sp,a0

0000000080002070 <i_1980>:
    80002070:	13510803          	lb	a6,309(sp)

0000000080002074 <i_1981>:
    80002074:	02a57e33          	remu	t3,a0,a0

0000000080002078 <i_1982>:
    80002078:	4011d693          	srai	a3,gp,0x1

000000008000207c <i_1983>:
    8000207c:	003d559b          	srliw	a1,s10,0x3

0000000080002080 <i_1984>:
    80002080:	01085463          	ble	a6,a6,80002088 <i_1986>

0000000080002084 <i_1985>:
    80002084:	04012e03          	lw	t3,64(sp)

0000000080002088 <i_1986>:
    80002088:	ede10d03          	lb	s10,-290(sp)

000000008000208c <i_1987>:
    8000208c:	f2a11e03          	lh	t3,-214(sp)

0000000080002090 <i_1988>:
    80002090:	01fd5c63          	ble	t6,s10,800020a8 <i_1994>

0000000080002094 <i_1989>:
    80002094:	ea510b03          	lb	s6,-347(sp)

0000000080002098 <i_1990>:
    80002098:	11210a03          	lb	s4,274(sp)

000000008000209c <i_1991>:
    8000209c:	0103ce63          	blt	t2,a6,800020b8 <i_1998>

00000000800020a0 <i_1992>:
    800020a0:	0d013823          	sd	a6,208(sp)

00000000800020a4 <i_1993>:
    800020a4:	00614e03          	lbu	t3,6(sp)

00000000800020a8 <i_1994>:
    800020a8:	eab10783          	lb	a5,-341(sp)

00000000800020ac <i_1995>:
    800020ac:	02dd7fbb          	remuw	t6,s10,a3

00000000800020b0 <i_1996>:
    800020b0:	029fe063          	bltu	t6,s1,800020d0 <i_2004>

00000000800020b4 <i_1997>:
    800020b4:	01f55a63          	ble	t6,a0,800020c8 <i_2002>

00000000800020b8 <i_1998>:
    800020b8:	03ff8fbb          	mulw	t6,t6,t6

00000000800020bc <i_1999>:
    800020bc:	e3412b03          	lw	s6,-460(sp)

00000000800020c0 <i_2000>:
    800020c0:	00fb7463          	bleu	a5,s6,800020c8 <i_2002>

00000000800020c4 <i_2001>:
    800020c4:	00200d93          	li	s11,2

00000000800020c8 <i_2002>:
    800020c8:	01b79bbb          	sllw	s7,a5,s11

00000000800020cc <i_2003>:
    800020cc:	01f00b13          	li	s6,31

00000000800020d0 <i_2004>:
    800020d0:	016d97bb          	sllw	a5,s11,s6

00000000800020d4 <i_2005>:
    800020d4:	ff416c83          	lwu	s9,-12(sp)

00000000800020d8 <i_2006>:
    800020d8:	004b141b          	slliw	s0,s6,0x4

00000000800020dc <i_2007>:
    800020dc:	02dcab33          	mulhsu	s6,s9,a3

00000000800020e0 <i_2008>:
    800020e0:	ebb13423          	sd	s11,-344(sp)

00000000800020e4 <i_2009>:
    800020e4:	ce004eb7          	lui	t4,0xce004

00000000800020e8 <i_2010>:
    800020e8:	e2811523          	sh	s0,-470(sp)

00000000800020ec <i_2011>:
    800020ec:	01745263          	ble	s7,s0,800020f0 <i_2012>

00000000800020f0 <i_2012>:
    800020f0:	02512423          	sw	t0,40(sp)

00000000800020f4 <i_2013>:
    800020f4:	04511923          	sh	t0,82(sp)

00000000800020f8 <i_2014>:
    800020f8:	342cab13          	slti	s6,s9,834

00000000800020fc <i_2015>:
    800020fc:	b687ce13          	xori	t3,a5,-1176

0000000080002100 <i_2016>:
    80002100:	037b42bb          	divw	t0,s6,s7

0000000080002104 <i_2017>:
    80002104:	1bdbc793          	xori	a5,s7,445

0000000080002108 <i_2018>:
    80002108:	01f79263          	bne	a5,t6,8000210c <i_2019>

000000008000210c <i_2019>:
    8000210c:	02510c23          	sb	t0,56(sp)

0000000080002110 <i_2020>:
    80002110:	e5f14e83          	lbu	t4,-417(sp)

0000000080002114 <i_2021>:
    80002114:	ec613c23          	sd	t1,-296(sp)

0000000080002118 <i_2022>:
    80002118:	005ba533          	slt	a0,s7,t0

000000008000211c <i_2023>:
    8000211c:	01de8cb3          	add	s9,t4,t4

0000000080002120 <i_2024>:
    80002120:	02ade833          	rem	a6,s11,a0

0000000080002124 <i_2025>:
    80002124:	039fe333          	rem	t1,t6,s9

0000000080002128 <i_2026>:
    80002128:	02f2863b          	mulw	a2,t0,a5

000000008000212c <i_2027>:
    8000212c:	02654263          	blt	a0,t1,80002150 <i_2036>

0000000080002130 <i_2028>:
    80002130:	15d12423          	sw	t4,328(sp)

0000000080002134 <i_2029>:
    80002134:	fc814183          	lbu	gp,-56(sp)

0000000080002138 <i_2030>:
    80002138:	41008593          	addi	a1,ra,1040

000000008000213c <i_2031>:
    8000213c:	f0813823          	sd	s0,-240(sp)

0000000080002140 <i_2032>:
    80002140:	e9d13423          	sd	t4,-376(sp)

0000000080002144 <i_2033>:
    80002144:	ee112223          	sw	ra,-284(sp)

0000000080002148 <i_2034>:
    80002148:	00866a63          	bltu	a2,s0,8000215c <i_2039>

000000008000214c <i_2035>:
    8000214c:	e2c16083          	lwu	ra,-468(sp)

0000000080002150 <i_2036>:
    80002150:	00000013          	nop

0000000080002154 <i_2037>:
    80002154:	05813583          	ld	a1,88(sp)

0000000080002158 <i_2038>:
    80002158:	ec514883          	lbu	a7,-315(sp)

000000008000215c <i_2039>:
    8000215c:	f2016583          	lwu	a1,-224(sp)

0000000080002160 <i_2040>:
    80002160:	00000013          	nop

0000000080002164 <i_2041>:
    80002164:	82e00413          	li	s0,-2002

0000000080002168 <i_2042>:
    80002168:	83700613          	li	a2,-1993

000000008000216c <i_2043>:
    8000216c:	0082de63          	ble	s0,t0,80002188 <i_2049>

0000000080002170 <i_2044>:
    80002170:	00a8a5b3          	slt	a1,a7,a0

0000000080002174 <i_2045>:
    80002174:	02b0cb3b          	divw	s6,ra,a1

0000000080002178 <i_2046>:
    80002178:	00140413          	addi	s0,s0,1
    8000217c:	fe8658e3          	ble	s0,a2,8000216c <i_2043>

0000000080002180 <i_2047>:
    80002180:	401b0833          	sub	a6,s6,ra

0000000080002184 <i_2048>:
    80002184:	f7c11883          	lh	a7,-132(sp)

0000000080002188 <i_2049>:
    80002188:	1bc12583          	lw	a1,444(sp)

000000008000218c <i_2050>:
    8000218c:	036df8bb          	remuw	a7,s11,s6

0000000080002190 <i_2051>:
    80002190:	0308c263          	blt	a7,a6,800021b4 <i_2060>

0000000080002194 <i_2052>:
    80002194:	0b610e23          	sb	s6,188(sp)

0000000080002198 <i_2053>:
    80002198:	ff610da3          	sb	s6,-5(sp)

000000008000219c <i_2054>:
    8000219c:	016b4c63          	blt	s6,s6,800021b4 <i_2060>

00000000800021a0 <i_2055>:
    800021a0:	01a00593          	li	a1,26

00000000800021a4 <i_2056>:
    800021a4:	40b8dc33          	sra	s8,a7,a1

00000000800021a8 <i_2057>:
    800021a8:	13412483          	lw	s1,308(sp)

00000000800021ac <i_2058>:
    800021ac:	1d810b23          	sb	s8,470(sp)

00000000800021b0 <i_2059>:
    800021b0:	07016f83          	lwu	t6,112(sp)

00000000800021b4 <i_2060>:
    800021b4:	0298a8b3          	mulhsu	a7,a7,s1

00000000800021b8 <i_2061>:
    800021b8:	0318a8b3          	mulhsu	a7,a7,a7

00000000800021bc <i_2062>:
    800021bc:	84400b13          	li	s6,-1980

00000000800021c0 <i_2063>:
    800021c0:	84d00493          	li	s1,-1971

00000000800021c4 <i_2064>:
    800021c4:	008b0e63          	beq	s6,s0,800021e0 <i_2070>

00000000800021c8 <i_2065>:
    800021c8:	001b0b13          	addi	s6,s6,1 # 770ec001 <main-0x8f13fff>
    800021cc:	ff64fce3          	bleu	s6,s1,800021c4 <i_2064>

00000000800021d0 <i_2066>:
    800021d0:	fb111223          	sh	a7,-92(sp)

00000000800021d4 <i_2067>:
    800021d4:	03e10883          	lb	a7,62(sp)

00000000800021d8 <i_2068>:
    800021d8:	036b5b3b          	divuw	s6,s6,s6

00000000800021dc <i_2069>:
    800021dc:	15a11883          	lh	a7,346(sp)

00000000800021e0 <i_2070>:
    800021e0:	01188863          	beq	a7,a7,800021f0 <i_2074>

00000000800021e4 <i_2071>:
    800021e4:	fb111c23          	sh	a7,-72(sp)

00000000800021e8 <i_2072>:
    800021e8:	1b111723          	sh	a7,430(sp)

00000000800021ec <i_2073>:
    800021ec:	fec12e03          	lw	t3,-20(sp)

00000000800021f0 <i_2074>:
    800021f0:	f5013703          	ld	a4,-176(sp)

00000000800021f4 <i_2075>:
    800021f4:	ee114703          	lbu	a4,-287(sp)

00000000800021f8 <i_2076>:
    800021f8:	fea15883          	lhu	a7,-22(sp)

00000000800021fc <i_2077>:
    800021fc:	02600193          	li	gp,38

0000000080002200 <i_2078>:
    80002200:	0038d8b3          	srl	a7,a7,gp

0000000080002204 <i_2079>:
    80002204:	fb013803          	ld	a6,-80(sp)

0000000080002208 <i_2080>:
    80002208:	e6013b83          	ld	s7,-416(sp)

000000008000220c <i_2081>:
    8000220c:	ed711c23          	sh	s7,-296(sp)

0000000080002210 <i_2082>:
    80002210:	0078e463          	bltu	a7,t2,80002218 <i_2084>

0000000080002214 <i_2083>:
    80002214:	0108da63          	ble	a6,a7,80002228 <i_2088>

0000000080002218 <i_2084>:
    80002218:	f0313c23          	sd	gp,-232(sp)

000000008000221c <i_2085>:
    8000221c:	0378e463          	bltu	a7,s7,80002244 <i_2095>

0000000080002220 <i_2086>:
    80002220:	e1c16903          	lwu	s2,-484(sp)

0000000080002224 <i_2087>:
    80002224:	03211b83          	lh	s7,50(sp)

0000000080002228 <i_2088>:
    80002228:	e4c12083          	lw	ra,-436(sp)

000000008000222c <i_2089>:
    8000222c:	6bd1849b          	addiw	s1,gp,1725

0000000080002230 <i_2090>:
    80002230:	001a7a33          	and	s4,s4,ra

0000000080002234 <i_2091>:
    80002234:	03093a33          	mulhu	s4,s2,a6

0000000080002238 <i_2092>:
    80002238:	fd611083          	lh	ra,-42(sp)

000000008000223c <i_2093>:
    8000223c:	027a2a33          	mulhsu	s4,s4,t2

0000000080002240 <i_2094>:
    80002240:	1f412223          	sw	s4,484(sp)

0000000080002244 <i_2095>:
    80002244:	034b0a33          	mul	s4,s6,s4

0000000080002248 <i_2096>:
    80002248:	e3a14383          	lbu	t2,-454(sp)

000000008000224c <i_2097>:
    8000224c:	1d413c23          	sd	s4,472(sp)

0000000080002250 <i_2098>:
    80002250:	01438a63          	beq	t2,s4,80002264 <i_2103>

0000000080002254 <i_2099>:
    80002254:	f7411923          	sh	s4,-142(sp)

0000000080002258 <i_2100>:
    80002258:	407383b3          	sub	t2,t2,t2

000000008000225c <i_2101>:
    8000225c:	0073de63          	ble	t2,t2,80002278 <i_2108>

0000000080002260 <i_2102>:
    80002260:	02412383          	lw	t2,36(sp)

0000000080002264 <i_2103>:
    80002264:	02843433          	mulhu	s0,s0,s0

0000000080002268 <i_2104>:
    80002268:	03e3ef33          	rem	t5,t2,t5

000000008000226c <i_2105>:
    8000226c:	027f5463          	ble	t2,t5,80002294 <i_2115>

0000000080002270 <i_2106>:
    80002270:	004f5f13          	srli	t5,t5,0x4

0000000080002274 <i_2107>:
    80002274:	e7614903          	lbu	s2,-394(sp)

0000000080002278 <i_2108>:
    80002278:	01e92f33          	slt	t5,s2,t5

000000008000227c <i_2109>:
    8000227c:	f3e13423          	sd	t5,-216(sp)

0000000080002280 <i_2110>:
    80002280:	401f5b1b          	sraiw	s6,t5,0x1

0000000080002284 <i_2111>:
    80002284:	01e71863          	bne	a4,t5,80002294 <i_2115>

0000000080002288 <i_2112>:
    80002288:	e6412f03          	lw	t5,-412(sp)

000000008000228c <i_2113>:
    8000228c:	e5211323          	sh	s2,-442(sp)

0000000080002290 <i_2114>:
    80002290:	03e0fabb          	remuw	s5,ra,t5

0000000080002294 <i_2115>:
    80002294:	01e94c63          	blt	s2,t5,800022ac <i_2121>

0000000080002298 <i_2116>:
    80002298:	032b453b          	divw	a0,s6,s2

000000008000229c <i_2117>:
    8000229c:	0100ea63          	bltu	ra,a6,800022b0 <i_2122>

00000000800022a0 <i_2118>:
    800022a0:	00af4a63          	blt	t5,a0,800022b4 <i_2123>

00000000800022a4 <i_2119>:
    800022a4:	0f811a83          	lh	s5,248(sp)

00000000800022a8 <i_2120>:
    800022a8:	f8811483          	lh	s1,-120(sp)

00000000800022ac <i_2121>:
    800022ac:	f0912023          	sw	s1,-256(sp)

00000000800022b0 <i_2122>:
    800022b0:	0094d663          	ble	s1,s1,800022bc <i_2125>

00000000800022b4 <i_2123>:
    800022b4:	11512c23          	sw	s5,280(sp)

00000000800022b8 <i_2124>:
    800022b8:	003ad49b          	srliw	s1,s5,0x3

00000000800022bc <i_2125>:
    800022bc:	f5c12083          	lw	ra,-164(sp)

00000000800022c0 <i_2126>:
    800022c0:	029103a3          	sb	s1,39(sp)

00000000800022c4 <i_2127>:
    800022c4:	06910423          	sb	s1,104(sp)

00000000800022c8 <i_2128>:
    800022c8:	ed015683          	lhu	a3,-304(sp)

00000000800022cc <i_2129>:
    800022cc:	403ed49b          	sraiw	s1,t4,0x3

00000000800022d0 <i_2130>:
    800022d0:	e5415d83          	lhu	s11,-428(sp)

00000000800022d4 <i_2131>:
    800022d4:	00d4d463          	ble	a3,s1,800022dc <i_2133>

00000000800022d8 <i_2132>:
    800022d8:	029ac263          	blt	s5,s1,800022fc <i_2141>

00000000800022dc <i_2133>:
    800022dc:	17ca2297          	auipc	t0,0x17ca2

00000000800022e0 <i_2134>:
    800022e0:	fec11e03          	lh	t3,-20(sp)

00000000800022e4 <i_2135>:
    800022e4:	0250df3b          	divuw	t5,ra,t0

00000000800022e8 <i_2136>:
    800022e8:	08d10a83          	lb	s5,141(sp)

00000000800022ec <i_2137>:
    800022ec:	00000013          	nop

00000000800022f0 <i_2138>:
    800022f0:	1a012083          	lw	ra,416(sp)

00000000800022f4 <i_2139>:
    800022f4:	00400613          	li	a2,4

00000000800022f8 <i_2140>:
    800022f8:	00c81fbb          	sllw	t6,a6,a2

00000000800022fc <i_2141>:
    800022fc:	00000013          	nop

0000000080002300 <i_2142>:
    80002300:	00c6e6b3          	or	a3,a3,a2

0000000080002304 <i_2143>:
    80002304:	80b00493          	li	s1,-2037

0000000080002308 <i_2144>:
    80002308:	81c00293          	li	t0,-2020

000000008000230c <i_2145>:
    8000230c:	00148493          	addi	s1,s1,1
    80002310:	fe54cee3          	blt	s1,t0,8000230c <i_2145>

0000000080002314 <i_2146>:
    80002314:	00c60463          	beq	a2,a2,8000231c <i_2148>

0000000080002318 <i_2147>:
    80002318:	16c13423          	sd	a2,360(sp)

000000008000231c <i_2148>:
    8000231c:	40de84bb          	subw	s1,t4,a3

0000000080002320 <i_2149>:
    80002320:	ed457393          	andi	t2,a0,-300

0000000080002324 <i_2150>:
    80002324:	00c63633          	sltu	a2,a2,a2

0000000080002328 <i_2151>:
    80002328:	03114603          	lbu	a2,49(sp)

000000008000232c <i_2152>:
    8000232c:	00c4e663          	bltu	s1,a2,80002338 <i_2155>

0000000080002330 <i_2153>:
    80002330:	fac11823          	sh	a2,-80(sp)

0000000080002334 <i_2154>:
    80002334:	00960833          	add	a6,a2,s1

0000000080002338 <i_2155>:
    80002338:	00c4cc63          	blt	s1,a2,80002350 <i_2161>

000000008000233c <i_2156>:
    8000233c:	02c3c433          	div	s0,t2,a2

0000000080002340 <i_2157>:
    80002340:	02c66633          	rem	a2,a2,a2

0000000080002344 <i_2158>:
    80002344:	f6c14403          	lbu	s0,-148(sp)

0000000080002348 <i_2159>:
    80002348:	03e2e5b3          	rem	a1,t0,t5

000000008000234c <i_2160>:
    8000234c:	40485913          	srai	s2,a6,0x4

0000000080002350 <i_2161>:
    80002350:	f6c11783          	lh	a5,-148(sp)

0000000080002354 <i_2162>:
    80002354:	f0737837          	lui	a6,0xf0737

0000000080002358 <i_2163>:
    80002358:	01258863          	beq	a1,s2,80002368 <i_2167>

000000008000235c <i_2164>:
    8000235c:	02bf4063          	blt	t5,a1,8000237c <i_2172>

0000000080002360 <i_2165>:
    80002360:	f6811f23          	sh	s0,-130(sp)

0000000080002364 <i_2166>:
    80002364:	f0813a03          	ld	s4,-248(sp)

0000000080002368 <i_2167>:
    80002368:	03479463          	bne	a5,s4,80002390 <i_2177>

000000008000236c <i_2168>:
    8000236c:	29d7fa93          	andi	s5,a5,669

0000000080002370 <i_2169>:
    80002370:	01065463          	ble	a6,a2,80002378 <i_2171>

0000000080002374 <i_2170>:
    80002374:	01440863          	beq	s0,s4,80002384 <i_2174>

0000000080002378 <i_2171>:
    80002378:	0db11223          	sh	s11,196(sp)

000000008000237c <i_2172>:
    8000237c:	11812b03          	lw	s6,280(sp)

0000000080002380 <i_2173>:
    80002380:	016b4c33          	xor	s8,s6,s6

0000000080002384 <i_2174>:
    80002384:	f8f10b03          	lb	s6,-113(sp)

0000000080002388 <i_2175>:
    80002388:	03ef1063          	bne	t5,t5,800023a8 <i_2183>

000000008000238c <i_2176>:
    8000238c:	01c77463          	bleu	t3,a4,80002394 <i_2178>

0000000080002390 <i_2177>:
    80002390:	038b0abb          	mulw	s5,s6,s8

0000000080002394 <i_2178>:
    80002394:	0352fab3          	remu	s5,t0,s5

0000000080002398 <i_2179>:
    80002398:	03eaf063          	bleu	t5,s5,800023b8 <i_2187>

000000008000239c <i_2180>:
    8000239c:	10a15a83          	lhu	s5,266(sp)

00000000800023a0 <i_2181>:
    800023a0:	02800f93          	li	t6,40

00000000800023a4 <i_2182>:
    800023a4:	01ff1c33          	sll	s8,t5,t6

00000000800023a8 <i_2183>:
    800023a8:	91806b17          	auipc	s6,0x91806

00000000800023ac <i_2184>:
    800023ac:	405a89bb          	subw	s3,s5,t0

00000000800023b0 <i_2185>:
    800023b0:	00199a9b          	slliw	s5,s3,0x1

00000000800023b4 <i_2186>:
    800023b4:	01568863          	beq	a3,s5,800023c4 <i_2190>

00000000800023b8 <i_2187>:
    800023b8:	05312a23          	sw	s3,84(sp)

00000000800023bc <i_2188>:
    800023bc:	0f412a83          	lw	s5,244(sp)

00000000800023c0 <i_2189>:
    800023c0:	131101a3          	sb	a7,291(sp)

00000000800023c4 <i_2190>:
    800023c4:	f8e10c03          	lb	s8,-114(sp)

00000000800023c8 <i_2191>:
    800023c8:	13012983          	lw	s3,304(sp)

00000000800023cc <i_2192>:
    800023cc:	7a400193          	li	gp,1956

00000000800023d0 <i_2193>:
    800023d0:	7a800893          	li	a7,1960

00000000800023d4 <i_2194>:
    800023d4:	0b214983          	lbu	s3,178(sp)

00000000800023d8 <i_2195>:
    800023d8:	024c4263          	blt	s8,tp,800023fc <i_2203>

00000000800023dc <i_2196>:
    800023dc:	038c2eb3          	mulhsu	t4,s8,s8

00000000800023e0 <i_2197>:
    800023e0:	00000013          	nop

00000000800023e4 <i_2198>:
    800023e4:	11311223          	sh	s3,260(sp)

00000000800023e8 <i_2199>:
    800023e8:	00118193          	addi	gp,gp,1
    800023ec:	fe38f4e3          	bleu	gp,a7,800023d4 <i_2194>

00000000800023f0 <i_2200>:
    800023f0:	033ec263          	blt	t4,s3,80002414 <i_2209>

00000000800023f4 <i_2201>:
    800023f4:	16c11e83          	lh	t4,364(sp)

00000000800023f8 <i_2202>:
    800023f8:	f1d11023          	sh	t4,-256(sp)

00000000800023fc <i_2203>:
    800023fc:	e5013703          	ld	a4,-432(sp)

0000000080002400 <i_2204>:
    80002400:	47b70e93          	addi	t4,a4,1147 # b7d633ab <_end+0x37d52f97>

0000000080002404 <i_2205>:
    80002404:	f9015e83          	lhu	t4,-112(sp)

0000000080002408 <i_2206>:
    80002408:	03dbabb3          	mulhsu	s7,s7,t4

000000008000240c <i_2207>:
    8000240c:	e9016283          	lwu	t0,-368(sp)

0000000080002410 <i_2208>:
    80002410:	04512823          	sw	t0,80(sp)

0000000080002414 <i_2209>:
    80002414:	e5813283          	ld	t0,-424(sp)

0000000080002418 <i_2210>:
    80002418:	433bc913          	xori	s2,s7,1075

000000008000241c <i_2211>:
    8000241c:	185106a3          	sb	t0,397(sp)

0000000080002420 <i_2212>:
    80002420:	03e2bf33          	mulhu	t5,t0,t5

0000000080002424 <i_2213>:
    80002424:	08513c23          	sd	t0,152(sp)

0000000080002428 <i_2214>:
    80002428:	005f0663          	beq	t5,t0,80002434 <i_2217>

000000008000242c <i_2215>:
    8000242c:	0052d463          	ble	t0,t0,80002434 <i_2217>

0000000080002430 <i_2216>:
    80002430:	e7013283          	ld	t0,-400(sp)

0000000080002434 <i_2217>:
    80002434:	01229463          	bne	t0,s2,8000243c <i_2219>

0000000080002438 <i_2218>:
    80002438:	03ef1263          	bne	t5,t5,8000245c <i_2227>

000000008000243c <i_2219>:
    8000243c:	000f4f13          	xori	t5,t5,0

0000000080002440 <i_2220>:
    80002440:	00ef0c63          	beq	t5,a4,80002458 <i_2226>

0000000080002444 <i_2221>:
    80002444:	0d110703          	lb	a4,209(sp)

0000000080002448 <i_2222>:
    80002448:	05e13423          	sd	t5,72(sp)

000000008000244c <i_2223>:
    8000244c:	0301ff3b          	remuw	t5,gp,a6

0000000080002450 <i_2224>:
    80002450:	f3213c23          	sd	s2,-200(sp)

0000000080002454 <i_2225>:
    80002454:	005f7f33          	and	t5,t5,t0

0000000080002458 <i_2226>:
    80002458:	e2914983          	lbu	s3,-471(sp)

000000008000245c <i_2227>:
    8000245c:	032bd43b          	divuw	s0,s7,s2

0000000080002460 <i_2228>:
    80002460:	40898bbb          	subw	s7,s3,s0

0000000080002464 <i_2229>:
    80002464:	7be00913          	li	s2,1982

0000000080002468 <i_2230>:
    80002468:	7ca00293          	li	t0,1994

000000008000246c <i_2231>:
    8000246c:	0021dd13          	srli	s10,gp,0x2

0000000080002470 <i_2232>:
    80002470:	19c12503          	lw	a0,412(sp)

0000000080002474 <i_2233>:
    80002474:	00000013          	nop

0000000080002478 <i_2234>:
    80002478:	fe810ea3          	sb	s0,-3(sp)

000000008000247c <i_2235>:
    8000247c:	198bb613          	sltiu	a2,s7,408

0000000080002480 <i_2236>:
    80002480:	00190913          	addi	s2,s2,1 # 6426cc3d <main-0x1bd933c3>
    80002484:	fe5944e3          	blt	s2,t0,8000246c <i_2231>

0000000080002488 <i_2237>:
    80002488:	0ec15b83          	lhu	s7,236(sp)

000000008000248c <i_2238>:
    8000248c:	10a13823          	sd	a0,272(sp)

0000000080002490 <i_2239>:
    80002490:	0039d863          	ble	gp,s3,800024a0 <i_2243>

0000000080002494 <i_2240>:
    80002494:	00255d1b          	srliw	s10,a0,0x2

0000000080002498 <i_2241>:
    80002498:	02c42433          	mulhsu	s0,s0,a2

000000008000249c <i_2242>:
    8000249c:	e1c12983          	lw	s3,-484(sp)

00000000800024a0 <i_2243>:
    800024a0:	0338c063          	blt	a7,s3,800024c0 <i_2251>

00000000800024a4 <i_2244>:
    800024a4:	037c743b          	remuw	s0,s8,s7

00000000800024a8 <i_2245>:
    800024a8:	17211883          	lh	a7,370(sp)

00000000800024ac <i_2246>:
    800024ac:	11e11623          	sh	t5,268(sp)

00000000800024b0 <i_2247>:
    800024b0:	01c8ca63          	blt	a7,t3,800024c4 <i_2252>

00000000800024b4 <i_2248>:
    800024b4:	0179fa63          	bleu	s7,s3,800024c8 <i_2253>

00000000800024b8 <i_2249>:
    800024b8:	f0013b83          	ld	s7,-256(sp)

00000000800024bc <i_2250>:
    800024bc:	00389e63          	bne	a7,gp,800024d8 <i_2257>

00000000800024c0 <i_2251>:
    800024c0:	011181b3          	add	gp,gp,a7

00000000800024c4 <i_2252>:
    800024c4:	07111c23          	sh	a7,120(sp)

00000000800024c8 <i_2253>:
    800024c8:	0138f663          	bleu	s3,a7,800024d4 <i_2256>

00000000800024cc <i_2254>:
    800024cc:	e3615e83          	lhu	t4,-458(sp)

00000000800024d0 <i_2255>:
    800024d0:	01a00e93          	li	t4,26

00000000800024d4 <i_2256>:
    800024d4:	01d1debb          	srlw	t4,gp,t4

00000000800024d8 <i_2257>:
    800024d8:	404ddd93          	srai	s11,s11,0x4

00000000800024dc <i_2258>:
    800024dc:	f0215e83          	lhu	t4,-254(sp)

00000000800024e0 <i_2259>:
    800024e0:	fcaefe93          	andi	t4,t4,-54

00000000800024e4 <i_2260>:
    800024e4:	f0412c83          	lw	s9,-252(sp)

00000000800024e8 <i_2261>:
    800024e8:	f4912223          	sw	s1,-188(sp)

00000000800024ec <i_2262>:
    800024ec:	e4c10d03          	lb	s10,-436(sp)

00000000800024f0 <i_2263>:
    800024f0:	1ca15d83          	lhu	s11,458(sp)

00000000800024f4 <i_2264>:
    800024f4:	402cde9b          	sraiw	t4,s9,0x2

00000000800024f8 <i_2265>:
    800024f8:	02c4e4bb          	remw	s1,s1,a2

00000000800024fc <i_2266>:
    800024fc:	03aef063          	bleu	s10,t4,8000251c <i_2274>

0000000080002500 <i_2267>:
    80002500:	0391e1bb          	remw	gp,gp,s9

0000000080002504 <i_2268>:
    80002504:	01a54263          	blt	a0,s10,80002508 <i_2269>

0000000080002508 <i_2269>:
    80002508:	03dec063          	blt	t4,t4,80002528 <i_2277>

000000008000250c <i_2270>:
    8000250c:	cab5e237          	lui	tp,0xcab5e

0000000080002510 <i_2271>:
    80002510:	08314f83          	lbu	t6,131(sp)

0000000080002514 <i_2272>:
    80002514:	03d49063          	bne	s1,t4,80002534 <i_2280>

0000000080002518 <i_2273>:
    80002518:	0104e4b3          	or	s1,s1,a6

000000008000251c <i_2274>:
    8000251c:	024d0263          	beq	s10,tp,80002540 <i_2283>

0000000080002520 <i_2275>:
    80002520:	01da1463          	bne	s4,t4,80002528 <i_2277>

0000000080002524 <i_2276>:
    80002524:	f6e10a23          	sb	a4,-140(sp)

0000000080002528 <i_2277>:
    80002528:	00000013          	nop

000000008000252c <i_2278>:
    8000252c:	0e512423          	sw	t0,232(sp)

0000000080002530 <i_2279>:
    80002530:	03910183          	lb	gp,57(sp)

0000000080002534 <i_2280>:
    80002534:	02f79d33          	mulh	s10,a5,a5

0000000080002538 <i_2281>:
    80002538:	5dc6f817          	auipc	a6,0x5dc6f

000000008000253c <i_2282>:
    8000253c:	03114f83          	lbu	t6,49(sp)

0000000080002540 <i_2283>:
    80002540:	12411f83          	lh	t6,292(sp)

0000000080002544 <i_2284>:
    80002544:	17012703          	lw	a4,368(sp)

0000000080002548 <i_2285>:
    80002548:	7ae00413          	li	s0,1966

000000008000254c <i_2286>:
    8000254c:	7bf00793          	li	a5,1983

0000000080002550 <i_2287>:
    80002550:	0257c53b          	divw	a0,a5,t0

0000000080002554 <i_2288>:
    80002554:	1cc11d83          	lh	s11,460(sp)

0000000080002558 <i_2289>:
    80002558:	00000013          	nop

000000008000255c <i_2290>:
    8000255c:	01300d13          	li	s10,19

0000000080002560 <i_2291>:
    80002560:	01a71533          	sll	a0,a4,s10

0000000080002564 <i_2292>:
    80002564:	00900f93          	li	t6,9

0000000080002568 <i_2293>:
    80002568:	01f79a3b          	sllw	s4,a5,t6

000000008000256c <i_2294>:
    8000256c:	02fd8cbb          	mulw	s9,s11,a5

0000000080002570 <i_2295>:
    80002570:	00140413          	addi	s0,s0,1
    80002574:	fcf44ee3          	blt	s0,a5,80002550 <i_2287>

0000000080002578 <i_2296>:
    80002578:	e7013c23          	sd	a6,-392(sp)

000000008000257c <i_2297>:
    8000257c:	01d00813          	li	a6,29

0000000080002580 <i_2298>:
    80002580:	410dd6bb          	sraw	a3,s11,a6

0000000080002584 <i_2299>:
    80002584:	14514b83          	lbu	s7,325(sp)

0000000080002588 <i_2300>:
    80002588:	03582ab3          	mulhsu	s5,a6,s5

000000008000258c <i_2301>:
    8000258c:	7b500813          	li	a6,1973

0000000080002590 <i_2302>:
    80002590:	7c800f93          	li	t6,1992

0000000080002594 <i_2303>:
    80002594:	17f12a23          	sw	t6,372(sp)

0000000080002598 <i_2304>:
    80002598:	40de8dbb          	subw	s11,t4,a3

000000008000259c <i_2305>:
    8000259c:	00000013          	nop

00000000800025a0 <i_2306>:
    800025a0:	01b87c63          	bleu	s11,a6,800025b8 <i_2312>

00000000800025a4 <i_2307>:
    800025a4:	037acbbb          	divw	s7,s5,s7

00000000800025a8 <i_2308>:
    800025a8:	015df263          	bleu	s5,s11,800025ac <i_2309>

00000000800025ac <i_2309>:
    800025ac:	17e15a83          	lhu	s5,382(sp)

00000000800025b0 <i_2310>:
    800025b0:	403ad69b          	sraiw	a3,s5,0x3

00000000800025b4 <i_2311>:
    800025b4:	03800d93          	li	s11,56

00000000800025b8 <i_2312>:
    800025b8:	41b6dab3          	sra	s5,a3,s11

00000000800025bc <i_2313>:
    800025bc:	fef14b03          	lbu	s6,-17(sp)

00000000800025c0 <i_2314>:
    800025c0:	00180813          	addi	a6,a6,1 # ddc71539 <_end+0x5dc61125>
    800025c4:	fdf818e3          	bne	a6,t6,80002594 <i_2303>

00000000800025c8 <i_2315>:
    800025c8:	1cd14d83          	lbu	s11,461(sp)

00000000800025cc <i_2316>:
    800025cc:	f3211b83          	lh	s7,-206(sp)

00000000800025d0 <i_2317>:
    800025d0:	00000013          	nop

00000000800025d4 <i_2318>:
    800025d4:	74700d93          	li	s11,1863

00000000800025d8 <i_2319>:
    800025d8:	75200213          	li	tp,1874

00000000800025dc <i_2320>:
    800025dc:	fc812083          	lw	ra,-56(sp)

00000000800025e0 <i_2321>:
    800025e0:	141104a3          	sb	ra,329(sp)

00000000800025e4 <i_2322>:
    800025e4:	e8813083          	ld	ra,-376(sp)

00000000800025e8 <i_2323>:
    800025e8:	001cda63          	ble	ra,s9,800025fc <i_2328>

00000000800025ec <i_2324>:
    800025ec:	0b711023          	sh	s7,160(sp)

00000000800025f0 <i_2325>:
    800025f0:	fa910b83          	lb	s7,-87(sp)

00000000800025f4 <i_2326>:
    800025f4:	f5c16083          	lwu	ra,-164(sp)

00000000800025f8 <i_2327>:
    800025f8:	16112a23          	sw	ra,372(sp)

00000000800025fc <i_2328>:
    800025fc:	18f104a3          	sb	a5,393(sp)

0000000080002600 <i_2329>:
    80002600:	0070e263          	bltu	ra,t2,80002604 <i_2330>

0000000080002604 <i_2330>:
    80002604:	16111323          	sh	ra,358(sp)

0000000080002608 <i_2331>:
    80002608:	11c15783          	lhu	a5,284(sp)

000000008000260c <i_2332>:
    8000260c:	02100793          	li	a5,33

0000000080002610 <i_2333>:
    80002610:	00f090b3          	sll	ra,ra,a5

0000000080002614 <i_2334>:
    80002614:	001d8d93          	addi	s11,s11,1 # 7d16e001 <main-0x2e91fff>
    80002618:	fc4de2e3          	bltu	s11,tp,800025dc <i_2320>

000000008000261c <i_2335>:
    8000261c:	ee510683          	lb	a3,-283(sp)

0000000080002620 <i_2336>:
    80002620:	f6113823          	sd	ra,-144(sp)

0000000080002624 <i_2337>:
    80002624:	0b815683          	lhu	a3,184(sp)

0000000080002628 <i_2338>:
    80002628:	73500793          	li	a5,1845

000000008000262c <i_2339>:
    8000262c:	73800093          	li	ra,1848

0000000080002630 <i_2340>:
    80002630:	00187a63          	bleu	ra,a6,80002644 <i_2345>

0000000080002634 <i_2341>:
    80002634:	e9814803          	lbu	a6,-360(sp)

0000000080002638 <i_2342>:
    80002638:	08c16403          	lwu	s0,140(sp)

000000008000263c <i_2343>:
    8000263c:	ed215403          	lhu	s0,-302(sp)

0000000080002640 <i_2344>:
    80002640:	e1013c23          	sd	a6,-488(sp)

0000000080002644 <i_2345>:
    80002644:	0270c3bb          	divw	t2,ra,t2

0000000080002648 <i_2346>:
    80002648:	18810123          	sb	s0,386(sp)

000000008000264c <i_2347>:
    8000264c:	00178793          	addi	a5,a5,1
    80002650:	fef0d0e3          	ble	a5,ra,80002630 <i_2340>

0000000080002654 <i_2348>:
    80002654:	00000013          	nop

0000000080002658 <i_2349>:
    80002658:	03351463          	bne	a0,s3,80002680 <i_2359>

000000008000265c <i_2350>:
    8000265c:	03000713          	li	a4,48

0000000080002660 <i_2351>:
    80002660:	40ef5f33          	sra	t5,t5,a4

0000000080002664 <i_2352>:
    80002664:	1cc12f03          	lw	t5,460(sp)

0000000080002668 <i_2353>:
    80002668:	e8013903          	ld	s2,-384(sp)

000000008000266c <i_2354>:
    8000266c:	032f0e13          	addi	t3,t5,50 # 97dc9caa <_end+0x17db9896>

0000000080002670 <i_2355>:
    80002670:	00e97e63          	bleu	a4,s2,8000268c <i_2362>

0000000080002674 <i_2356>:
    80002674:	eb670f1b          	addiw	t5,a4,-330

0000000080002678 <i_2357>:
    80002678:	022e4263          	blt	t3,sp,8000269c <i_2366>

000000008000267c <i_2358>:
    8000267c:	05e13c23          	sd	t5,88(sp)

0000000080002680 <i_2359>:
    80002680:	01e96a63          	bltu	s2,t5,80002694 <i_2364>

0000000080002684 <i_2360>:
    80002684:	01296c63          	bltu	s2,s2,8000269c <i_2366>

0000000080002688 <i_2361>:
    80002688:	0ef10b03          	lb	s6,239(sp)

000000008000268c <i_2362>:
    8000268c:	67a74937          	lui	s2,0x67a74

0000000080002690 <i_2363>:
    80002690:	01cf6463          	bltu	t5,t3,80002698 <i_2365>

0000000080002694 <i_2364>:
    80002694:	01690f33          	add	t5,s2,s6

0000000080002698 <i_2365>:
    80002698:	10412f03          	lw	t5,260(sp)

000000008000269c <i_2366>:
    8000269c:	e4313423          	sd	gp,-440(sp)

00000000800026a0 <i_2367>:
    800026a0:	00000013          	nop

00000000800026a4 <i_2368>:
    800026a4:	7ee00b13          	li	s6,2030

00000000800026a8 <i_2369>:
    800026a8:	7fb00913          	li	s2,2043

00000000800026ac <i_2370>:
    800026ac:	0161de63          	ble	s6,gp,800026c8 <i_2377>

00000000800026b0 <i_2371>:
    800026b0:	02324f33          	div	t5,tp,gp

00000000800026b4 <i_2372>:
    800026b4:	eb215183          	lhu	gp,-334(sp)

00000000800026b8 <i_2373>:
    800026b8:	e5f14183          	lbu	gp,-417(sp)

00000000800026bc <i_2374>:
    800026bc:	e0310d23          	sb	gp,-486(sp)

00000000800026c0 <i_2375>:
    800026c0:	03d5eebb          	remw	t4,a1,t4

00000000800026c4 <i_2376>:
    800026c4:	01b10e83          	lb	t4,27(sp)

00000000800026c8 <i_2377>:
    800026c8:	0fd11d23          	sh	t4,250(sp)

00000000800026cc <i_2378>:
    800026cc:	03d1f1bb          	remuw	gp,gp,t4

00000000800026d0 <i_2379>:
    800026d0:	ec013e83          	ld	t4,-320(sp)

00000000800026d4 <i_2380>:
    800026d4:	001ed193          	srli	gp,t4,0x1

00000000800026d8 <i_2381>:
    800026d8:	003ece63          	blt	t4,gp,800026f4 <i_2387>

00000000800026dc <i_2382>:
    800026dc:	001b0b13          	addi	s6,s6,1 # 118083a9 <main-0x6e7f7c57>
    800026e0:	fd6956e3          	ble	s6,s2,800026ac <i_2370>

00000000800026e4 <i_2383>:
    800026e4:	01deca63          	blt	t4,t4,800026f8 <i_2388>

00000000800026e8 <i_2384>:
    800026e8:	04814e83          	lbu	t4,72(sp)

00000000800026ec <i_2385>:
    800026ec:	eb013d03          	ld	s10,-336(sp)

00000000800026f0 <i_2386>:
    800026f0:	09211d03          	lh	s10,146(sp)

00000000800026f4 <i_2387>:
    800026f4:	00a1e863          	bltu	gp,a0,80002704 <i_2391>

00000000800026f8 <i_2388>:
    800026f8:	fe8e0e13          	addi	t3,t3,-24 # 14c93fe8 <main-0x6b36c018>

00000000800026fc <i_2389>:
    800026fc:	fd611483          	lh	s1,-42(sp)

0000000080002700 <i_2390>:
    80002700:	01a184b3          	add	s1,gp,s10

0000000080002704 <i_2391>:
    80002704:	07013a83          	ld	s5,112(sp)

0000000080002708 <i_2392>:
    80002708:	03ad3fb3          	mulhu	t6,s10,s10

000000008000270c <i_2393>:
    8000270c:	01fe1863          	bne	t3,t6,8000271c <i_2397>

0000000080002710 <i_2394>:
    80002710:	025abd33          	mulhu	s10,s5,t0

0000000080002714 <i_2395>:
    80002714:	1da13823          	sd	s10,464(sp)

0000000080002718 <i_2396>:
    80002718:	10913423          	sd	s1,264(sp)

000000008000271c <i_2397>:
    8000271c:	e4812f83          	lw	t6,-440(sp)

0000000080002720 <i_2398>:
    80002720:	e8813023          	sd	s0,-384(sp)

0000000080002724 <i_2399>:
    80002724:	00000013          	nop

0000000080002728 <i_2400>:
    80002728:	e8813a83          	ld	s5,-376(sp)

000000008000272c <i_2401>:
    8000272c:	86500493          	li	s1,-1947

0000000080002730 <i_2402>:
    80002730:	86800413          	li	s0,-1944

0000000080002734 <i_2403>:
    80002734:	ec912e23          	sw	s1,-292(sp)

0000000080002738 <i_2404>:
    80002738:	01549e63          	bne	s1,s5,80002754 <i_2411>

000000008000273c <i_2405>:
    8000273c:	0284c263          	blt	s1,s0,80002760 <i_2414>

0000000080002740 <i_2406>:
    80002740:	e4411d03          	lh	s10,-444(sp)

0000000080002744 <i_2407>:
    80002744:	12913023          	sd	s1,288(sp)

0000000080002748 <i_2408>:
    80002748:	009e7863          	bleu	s1,t3,80002758 <i_2412>

000000008000274c <i_2409>:
    8000274c:	fd5101a3          	sb	s5,-61(sp)

0000000080002750 <i_2410>:
    80002750:	00d00d13          	li	s10,13

0000000080002754 <i_2411>:
    80002754:	41ad5a3b          	sraw	s4,s10,s10

0000000080002758 <i_2412>:
    80002758:	03aa3ab3          	mulhu	s5,s4,s10

000000008000275c <i_2413>:
    8000275c:	50ad6213          	ori	tp,s10,1290

0000000080002760 <i_2414>:
    80002760:	f65107a3          	sb	t0,-145(sp)

0000000080002764 <i_2415>:
    80002764:	03ad523b          	divuw	tp,s10,s10

0000000080002768 <i_2416>:
    80002768:	e5510ba3          	sb	s5,-425(sp)

000000008000276c <i_2417>:
    8000276c:	07016f03          	lwu	t5,112(sp)

0000000080002770 <i_2418>:
    80002770:	01557ab3          	and	s5,a0,s5

0000000080002774 <i_2419>:
    80002774:	00148493          	addi	s1,s1,1
    80002778:	fa849ee3          	bne	s1,s0,80002734 <i_2403>

000000008000277c <i_2420>:
    8000277c:	01520fb3          	add	t6,tp,s5

0000000080002780 <i_2421>:
    80002780:	b6af2e17          	auipc	t3,0xb6af2

0000000080002784 <i_2422>:
    80002784:	03e26263          	bltu	tp,t5,800027a8 <i_2431>

0000000080002788 <i_2423>:
    80002788:	70ff7413          	andi	s0,t5,1807

000000008000278c <i_2424>:
    8000278c:	00300593          	li	a1,3

0000000080002790 <i_2425>:
    80002790:	00bf123b          	sllw	tp,t5,a1

0000000080002794 <i_2426>:
    80002794:	03eae23b          	remw	tp,s5,t5

0000000080002798 <i_2427>:
    80002798:	1b013683          	ld	a3,432(sp)

000000008000279c <i_2428>:
    8000279c:	1e815f03          	lhu	t5,488(sp)

00000000800027a0 <i_2429>:
    800027a0:	03ff4f3b          	divw	t5,t5,t6

00000000800027a4 <i_2430>:
    800027a4:	15416603          	lwu	a2,340(sp)

00000000800027a8 <i_2431>:
    800027a8:	e7513c23          	sd	s5,-392(sp)

00000000800027ac <i_2432>:
    800027ac:	02f00213          	li	tp,47

00000000800027b0 <i_2433>:
    800027b0:	404ddfb3          	sra	t6,s11,tp

00000000800027b4 <i_2434>:
    800027b4:	82c00513          	li	a0,-2004

00000000800027b8 <i_2435>:
    800027b8:	83300413          	li	s0,-1997

00000000800027bc <i_2436>:
    800027bc:	00150513          	addi	a0,a0,1
    800027c0:	fea47ce3          	bleu	a0,s0,800027b8 <i_2435>

00000000800027c4 <i_2437>:
    800027c4:	12215683          	lhu	a3,290(sp)

00000000800027c8 <i_2438>:
    800027c8:	1a812683          	lw	a3,424(sp)

00000000800027cc <i_2439>:
    800027cc:	0311e8b3          	rem	a7,gp,a7

00000000800027d0 <i_2440>:
    800027d0:	fa412823          	sw	tp,-80(sp)

00000000800027d4 <i_2441>:
    800027d4:	7bb00213          	li	tp,1979

00000000800027d8 <i_2442>:
    800027d8:	7cb00e13          	li	t3,1995

00000000800027dc <i_2443>:
    800027dc:	01b00313          	li	t1,27

00000000800027e0 <i_2444>:
    800027e0:	406c5c33          	sra	s8,s8,t1

00000000800027e4 <i_2445>:
    800027e4:	e7813683          	ld	a3,-392(sp)

00000000800027e8 <i_2446>:
    800027e8:	02e8c263          	blt	a7,a4,8000280c <i_2455>

00000000800027ec <i_2447>:
    800027ec:	ec533c13          	sltiu	s8,t1,-315

00000000800027f0 <i_2448>:
    800027f0:	02daecb3          	rem	s9,s5,a3

00000000800027f4 <i_2449>:
    800027f4:	f4015703          	lhu	a4,-192(sp)

00000000800027f8 <i_2450>:
    800027f8:	16412703          	lw	a4,356(sp)

00000000800027fc <i_2451>:
    800027fc:	039c4463          	blt	s8,s9,80002824 <i_2460>

0000000080002800 <i_2452>:
    80002800:	01976663          	bltu	a4,s9,8000280c <i_2455>

0000000080002804 <i_2453>:
    80002804:	00000013          	nop

0000000080002808 <i_2454>:
    80002808:	f8010703          	lb	a4,-128(sp)

000000008000280c <i_2455>:
    8000280c:	02ece663          	bltu	s9,a4,80002838 <i_2465>

0000000080002810 <i_2456>:
    80002810:	12914e83          	lbu	t4,297(sp)

0000000080002814 <i_2457>:
    80002814:	00120213          	addi	tp,tp,1 # ffffffffcab5e001 <_end+0xffffffff4ab4dbed>
    80002818:	fc4e52e3          	ble	tp,t3,800027dc <i_2443>

000000008000281c <i_2458>:
    8000281c:	01910d23          	sb	s9,26(sp)

0000000080002820 <i_2459>:
    80002820:	018cd463          	ble	s8,s9,80002828 <i_2461>

0000000080002824 <i_2460>:
    80002824:	c8ea9497          	auipc	s1,0xc8ea9

0000000080002828 <i_2461>:
    80002828:	05412623          	sw	s4,76(sp)

000000008000282c <i_2462>:
    8000282c:	04212e23          	sw	sp,92(sp)

0000000080002830 <i_2463>:
    80002830:	f5e15a03          	lhu	s4,-162(sp)

0000000080002834 <i_2464>:
    80002834:	fd416703          	lwu	a4,-44(sp)

0000000080002838 <i_2465>:
    80002838:	ed411d23          	sh	s4,-294(sp)

000000008000283c <i_2466>:
    8000283c:	02ea6263          	bltu	s4,a4,80002860 <i_2475>

0000000080002840 <i_2467>:
    80002840:	02610d83          	lb	s11,38(sp)

0000000080002844 <i_2468>:
    80002844:	004a9a13          	slli	s4,s5,0x4

0000000080002848 <i_2469>:
    80002848:	fac11783          	lh	a5,-84(sp)

000000008000284c <i_2470>:
    8000284c:	0ce11323          	sh	a4,198(sp)

0000000080002850 <i_2471>:
    80002850:	f1811e83          	lh	t4,-232(sp)

0000000080002854 <i_2472>:
    80002854:	efb11e23          	sh	s11,-260(sp)

0000000080002858 <i_2473>:
    80002858:	f3813703          	ld	a4,-200(sp)

000000008000285c <i_2474>:
    8000285c:	01b00193          	li	gp,27

0000000080002860 <i_2475>:
    80002860:	4035dfb3          	sra	t6,a1,gp

0000000080002864 <i_2476>:
    80002864:	00000013          	nop

0000000080002868 <i_2477>:
    80002868:	7bc00593          	li	a1,1980

000000008000286c <i_2478>:
    8000286c:	7c300a13          	li	s4,1987

0000000080002870 <i_2479>:
    80002870:	08711923          	sh	t2,146(sp)

0000000080002874 <i_2480>:
    80002874:	00500893          	li	a7,5

0000000080002878 <i_2481>:
    80002878:	011d9d3b          	sllw	s10,s11,a7

000000008000287c <i_2482>:
    8000287c:	00158593          	addi	a1,a1,1
    80002880:	feba58e3          	ble	a1,s4,80002870 <i_2479>

0000000080002884 <i_2483>:
    80002884:	03e11583          	lh	a1,62(sp)

0000000080002888 <i_2484>:
    80002888:	01ffce63          	blt	t6,t6,800028a4 <i_2491>

000000008000288c <i_2485>:
    8000288c:	10314583          	lbu	a1,259(sp)

0000000080002890 <i_2486>:
    80002890:	01fa0263          	beq	s4,t6,80002894 <i_2487>

0000000080002894 <i_2487>:
    80002894:	00c19663          	bne	gp,a2,800028a0 <i_2490>

0000000080002898 <i_2488>:
    80002898:	00400c13          	li	s8,4

000000008000289c <i_2489>:
    8000289c:	0187d5b3          	srl	a1,a5,s8

00000000800028a0 <i_2490>:
    800028a0:	e8b11223          	sh	a1,-380(sp)

00000000800028a4 <i_2491>:
    800028a4:	00265613          	srli	a2,a2,0x2

00000000800028a8 <i_2492>:
    800028a8:	01e00d93          	li	s11,30

00000000800028ac <i_2493>:
    800028ac:	01bc563b          	srlw	a2,s8,s11

00000000800028b0 <i_2494>:
    800028b0:	03c11583          	lh	a1,60(sp)

00000000800028b4 <i_2495>:
    800028b4:	16314d03          	lbu	s10,355(sp)

00000000800028b8 <i_2496>:
    800028b8:	03b5d463          	ble	s11,a1,800028e0 <i_2506>

00000000800028bc <i_2497>:
    800028bc:	42f42293          	slti	t0,s0,1071

00000000800028c0 <i_2498>:
    800028c0:	03bff463          	bleu	s11,t6,800028e8 <i_2508>

00000000800028c4 <i_2499>:
    800028c4:	00c20833          	add	a6,tp,a2

00000000800028c8 <i_2500>:
    800028c8:	01080e63          	beq	a6,a6,800028e4 <i_2507>

00000000800028cc <i_2501>:
    800028cc:	ef413423          	sd	s4,-280(sp)

00000000800028d0 <i_2502>:
    800028d0:	00c58663          	beq	a1,a2,800028dc <i_2505>

00000000800028d4 <i_2503>:
    800028d4:	194afa13          	andi	s4,s5,404

00000000800028d8 <i_2504>:
    800028d8:	f0c16a03          	lwu	s4,-244(sp)

00000000800028dc <i_2505>:
    800028dc:	415d02bb          	subw	t0,s10,s5

00000000800028e0 <i_2506>:
    800028e0:	ff016303          	lwu	t1,-16(sp)

00000000800028e4 <i_2507>:
    800028e4:	ef010b83          	lb	s7,-272(sp)

00000000800028e8 <i_2508>:
    800028e8:	001a1b93          	slli	s7,s4,0x1

00000000800028ec <i_2509>:
    800028ec:	13813303          	ld	t1,312(sp)

00000000800028f0 <i_2510>:
    800028f0:	02574bb3          	div	s7,a4,t0

00000000800028f4 <i_2511>:
    800028f4:	00948333          	add	t1,s1,s1

00000000800028f8 <i_2512>:
    800028f8:	0172ce33          	xor	t3,t0,s7

00000000800028fc <i_2513>:
    800028fc:	1a714603          	lbu	a2,423(sp)

0000000080002900 <i_2514>:
    80002900:	12416703          	lwu	a4,292(sp)

0000000080002904 <i_2515>:
    80002904:	fac12803          	lw	a6,-84(sp)

0000000080002908 <i_2516>:
    80002908:	17012c23          	sw	a6,376(sp)

000000008000290c <i_2517>:
    8000290c:	0308083b          	mulw	a6,a6,a6

0000000080002910 <i_2518>:
    80002910:	01080a63          	beq	a6,a6,80002924 <i_2523>

0000000080002914 <i_2519>:
    80002914:	02c829b3          	mulhsu	s3,a6,a2

0000000080002918 <i_2520>:
    80002918:	01384463          	blt	a6,s3,80002920 <i_2522>

000000008000291c <i_2521>:
    8000291c:	01c60663          	beq	a2,t3,80002928 <i_2524>

0000000080002920 <i_2522>:
    80002920:	03c852b3          	divu	t0,a6,t3

0000000080002924 <i_2523>:
    80002924:	fac11523          	sh	a2,-86(sp)

0000000080002928 <i_2524>:
    80002928:	fe813603          	ld	a2,-24(sp)

000000008000292c <i_2525>:
    8000292c:	01067e63          	bleu	a6,a2,80002948 <i_2532>

0000000080002930 <i_2526>:
    80002930:	0032d493          	srli	s1,t0,0x3

0000000080002934 <i_2527>:
    80002934:	02a86463          	bltu	a6,a0,8000295c <i_2537>

0000000080002938 <i_2528>:
    80002938:	1b416683          	lwu	a3,436(sp)

000000008000293c <i_2529>:
    8000293c:	ecf14383          	lbu	t2,-305(sp)

0000000080002940 <i_2530>:
    80002940:	40285813          	srai	a6,a6,0x2

0000000080002944 <i_2531>:
    80002944:	10e14983          	lbu	s3,270(sp)

0000000080002948 <i_2532>:
    80002948:	02d6f263          	bleu	a3,a3,8000296c <i_2541>

000000008000294c <i_2533>:
    8000294c:	00000013          	nop

0000000080002950 <i_2534>:
    80002950:	19416e03          	lwu	t3,404(sp)

0000000080002954 <i_2535>:
    80002954:	03c69e33          	mulh	t3,a3,t3

0000000080002958 <i_2536>:
    80002958:	4019d89b          	sraiw	a7,s3,0x1

000000008000295c <i_2537>:
    8000295c:	00000013          	nop

0000000080002960 <i_2538>:
    80002960:	00000013          	nop

0000000080002964 <i_2539>:
    80002964:	1ad10c03          	lb	s8,429(sp)

0000000080002968 <i_2540>:
    80002968:	e9114983          	lbu	s3,-367(sp)

000000008000296c <i_2541>:
    8000296c:	00000013          	nop

0000000080002970 <i_2542>:
    80002970:	00c15883          	lhu	a7,12(sp)

0000000080002974 <i_2543>:
    80002974:	74c00413          	li	s0,1868

0000000080002978 <i_2544>:
    80002978:	75700693          	li	a3,1879

000000008000297c <i_2545>:
    8000297c:	08813c83          	ld	s9,136(sp)

0000000080002980 <i_2546>:
    80002980:	f1314883          	lbu	a7,-237(sp)

0000000080002984 <i_2547>:
    80002984:	00016883          	lwu	a7,0(sp)

0000000080002988 <i_2548>:
    80002988:	03835063          	ble	s8,t1,800029a8 <i_2555>

000000008000298c <i_2549>:
    8000298c:	e5813083          	ld	ra,-424(sp)

0000000080002990 <i_2550>:
    80002990:	00140413          	addi	s0,s0,1
    80002994:	fe86d4e3          	ble	s0,a3,8000297c <i_2545>

0000000080002998 <i_2551>:
    80002998:	031102a3          	sb	a7,37(sp)

000000008000299c <i_2552>:
    8000299c:	00111323          	sh	ra,6(sp)

00000000800029a0 <i_2553>:
    800029a0:	10e15883          	lhu	a7,270(sp)

00000000800029a4 <i_2554>:
    800029a4:	0310c263          	blt	ra,a7,800029c8 <i_2563>

00000000800029a8 <i_2555>:
    800029a8:	031ed0b3          	divu	ra,t4,a7

00000000800029ac <i_2556>:
    800029ac:	031f68b3          	rem	a7,t5,a7

00000000800029b0 <i_2557>:
    800029b0:	0d112c23          	sw	a7,216(sp)

00000000800029b4 <i_2558>:
    800029b4:	0010c463          	blt	ra,ra,800029bc <i_2560>

00000000800029b8 <i_2559>:
    800029b8:	3825e8b7          	lui	a7,0x3825e

00000000800029bc <i_2560>:
    800029bc:	01a00693          	li	a3,26

00000000800029c0 <i_2561>:
    800029c0:	00d8d1b3          	srl	gp,a7,a3

00000000800029c4 <i_2562>:
    800029c4:	9fd0871b          	addiw	a4,ra,-1539

00000000800029c8 <i_2563>:
    800029c8:	00d88463          	beq	a7,a3,800029d0 <i_2565>

00000000800029cc <i_2564>:
    800029cc:	914b3a17          	auipc	s4,0x914b3

00000000800029d0 <i_2565>:
    800029d0:	f6c12703          	lw	a4,-148(sp)

00000000800029d4 <i_2566>:
    800029d4:	c1f0ce13          	xori	t3,ra,-993

00000000800029d8 <i_2567>:
    800029d8:	09113423          	sd	a7,136(sp)

00000000800029dc <i_2568>:
    800029dc:	13015803          	lhu	a6,304(sp)

00000000800029e0 <i_2569>:
    800029e0:	0c412503          	lw	a0,196(sp)

00000000800029e4 <i_2570>:
    800029e4:	02e8d463          	ble	a4,a7,80002a0c <i_2580>

00000000800029e8 <i_2571>:
    800029e8:	f345089b          	addiw	a7,a0,-204

00000000800029ec <i_2572>:
    800029ec:	16416703          	lwu	a4,356(sp)

00000000800029f0 <i_2573>:
    800029f0:	0cd12223          	sw	a3,196(sp)

00000000800029f4 <i_2574>:
    800029f4:	fa611683          	lh	a3,-90(sp)

00000000800029f8 <i_2575>:
    800029f8:	01577463          	bleu	s5,a4,80002a00 <i_2577>

00000000800029fc <i_2576>:
    800029fc:	030e5263          	ble	a6,t3,80002a20 <i_2585>

0000000080002a00 <i_2577>:
    80002a00:	40d70eb3          	sub	t4,a4,a3

0000000080002a04 <i_2578>:
    80002a04:	03c8febb          	remuw	t4,a7,t3

0000000080002a08 <i_2579>:
    80002a08:	e8d14b03          	lbu	s6,-371(sp)

0000000080002a0c <i_2580>:
    80002a0c:	03cb4a3b          	divw	s4,s6,t3

0000000080002a10 <i_2581>:
    80002a10:	10412703          	lw	a4,260(sp)

0000000080002a14 <i_2582>:
    80002a14:	e4112423          	sw	ra,-440(sp)

0000000080002a18 <i_2583>:
    80002a18:	09813083          	ld	ra,152(sp)

0000000080002a1c <i_2584>:
    80002a1c:	00335593          	srli	a1,t1,0x3

0000000080002a20 <i_2585>:
    80002a20:	e7814883          	lbu	a7,-392(sp)

0000000080002a24 <i_2586>:
    80002a24:	011a4a33          	xor	s4,s4,a7

0000000080002a28 <i_2587>:
    80002a28:	7da00313          	li	t1,2010

0000000080002a2c <i_2588>:
    80002a2c:	7dc00b13          	li	s6,2012

0000000080002a30 <i_2589>:
    80002a30:	00000013          	nop

0000000080002a34 <i_2590>:
    80002a34:	0225d5bb          	divuw	a1,a1,sp

0000000080002a38 <i_2591>:
    80002a38:	ef416183          	lwu	gp,-268(sp)

0000000080002a3c <i_2592>:
    80002a3c:	e2e13023          	sd	a4,-480(sp)

0000000080002a40 <i_2593>:
    80002a40:	0035989b          	slliw	a7,a1,0x3

0000000080002a44 <i_2594>:
    80002a44:	00b0eab3          	or	s5,ra,a1

0000000080002a48 <i_2595>:
    80002a48:	004a1593          	slli	a1,s4,0x4

0000000080002a4c <i_2596>:
    80002a4c:	00312023          	sw	gp,0(sp)

0000000080002a50 <i_2597>:
    80002a50:	07412023          	sw	s4,96(sp)

0000000080002a54 <i_2598>:
    80002a54:	02b8f063          	bleu	a1,a7,80002a74 <i_2605>

0000000080002a58 <i_2599>:
    80002a58:	00130313          	addi	t1,t1,1
    80002a5c:	fd636ae3          	bltu	t1,s6,80002a30 <i_2589>

0000000080002a60 <i_2600>:
    80002a60:	10e14d83          	lbu	s11,270(sp)

0000000080002a64 <i_2601>:
    80002a64:	03b8cc3b          	divw	s8,a7,s11

0000000080002a68 <i_2602>:
    80002a68:	03c00993          	li	s3,60

0000000080002a6c <i_2603>:
    80002a6c:	4138d5b3          	sra	a1,a7,s3

0000000080002a70 <i_2604>:
    80002a70:	e2d14183          	lbu	gp,-467(sp)

0000000080002a74 <i_2605>:
    80002a74:	eb111623          	sh	a7,-340(sp)

0000000080002a78 <i_2606>:
    80002a78:	00900f13          	li	t5,9

0000000080002a7c <i_2607>:
    80002a7c:	01e4da3b          	srlw	s4,s1,t5

0000000080002a80 <i_2608>:
    80002a80:	77200893          	li	a7,1906

0000000080002a84 <i_2609>:
    80002a84:	77a00593          	li	a1,1914

0000000080002a88 <i_2610>:
    80002a88:	00188893          	addi	a7,a7,1 # 3825e001 <main-0x47da1fff>
    80002a8c:	feb8cce3          	blt	a7,a1,80002a84 <i_2609>

0000000080002a90 <i_2611>:
    80002a90:	f7412a23          	sw	s4,-140(sp)

0000000080002a94 <i_2612>:
    80002a94:	0051b9b3          	sltu	s3,gp,t0

0000000080002a98 <i_2613>:
    80002a98:	04215083          	lhu	ra,66(sp)

0000000080002a9c <i_2614>:
    80002a9c:	0c814603          	lbu	a2,200(sp)

0000000080002aa0 <i_2615>:
    80002aa0:	01458463          	beq	a1,s4,80002aa8 <i_2617>

0000000080002aa4 <i_2616>:
    80002aa4:	011580b3          	add	ra,a1,a7

0000000080002aa8 <i_2617>:
    80002aa8:	f54108a3          	sb	s4,-175(sp)

0000000080002aac <i_2618>:
    80002aac:	f5813383          	ld	t2,-168(sp)

0000000080002ab0 <i_2619>:
    80002ab0:	01e00793          	li	a5,30

0000000080002ab4 <i_2620>:
    80002ab4:	00f392bb          	sllw	t0,t2,a5

0000000080002ab8 <i_2621>:
    80002ab8:	07c12f03          	lw	t5,124(sp)

0000000080002abc <i_2622>:
    80002abc:	11e10a23          	sb	t5,276(sp)

0000000080002ac0 <i_2623>:
    80002ac0:	00238863          	beq	t2,sp,80002ad0 <i_2627>

0000000080002ac4 <i_2624>:
    80002ac4:	08f11523          	sh	a5,138(sp)

0000000080002ac8 <i_2625>:
    80002ac8:	1be11583          	lh	a1,446(sp)

0000000080002acc <i_2626>:
    80002acc:	ff310423          	sb	s3,-24(sp)

0000000080002ad0 <i_2627>:
    80002ad0:	f8710603          	lb	a2,-121(sp)

0000000080002ad4 <i_2628>:
    80002ad4:	03ed29b3          	mulhsu	s3,s10,t5

0000000080002ad8 <i_2629>:
    80002ad8:	d256be17          	auipc	t3,0xd256b

0000000080002adc <i_2630>:
    80002adc:	f8a11c03          	lh	s8,-118(sp)

0000000080002ae0 <i_2631>:
    80002ae0:	01063333          	sltu	t1,a2,a6

0000000080002ae4 <i_2632>:
    80002ae4:	01f00c13          	li	s8,31

0000000080002ae8 <i_2633>:
    80002ae8:	018c583b          	srlw	a6,s8,s8

0000000080002aec <i_2634>:
    80002aec:	010c5663          	ble	a6,s8,80002af8 <i_2637>

0000000080002af0 <i_2635>:
    80002af0:	e1c16c03          	lwu	s8,-484(sp)

0000000080002af4 <i_2636>:
    80002af4:	e8c15903          	lhu	s2,-372(sp)

0000000080002af8 <i_2637>:
    80002af8:	0d816d03          	lwu	s10,216(sp)

0000000080002afc <i_2638>:
    80002afc:	03893ab3          	mulhu	s5,s2,s8

0000000080002b00 <i_2639>:
    80002b00:	86d00c13          	li	s8,-1939

0000000080002b04 <i_2640>:
    80002b04:	87500b13          	li	s6,-1931

0000000080002b08 <i_2641>:
    80002b08:	036df5bb          	remuw	a1,s11,s6

0000000080002b0c <i_2642>:
    80002b0c:	41af083b          	subw	a6,t5,s10

0000000080002b10 <i_2643>:
    80002b10:	032b65b3          	rem	a1,s6,s2

0000000080002b14 <i_2644>:
    80002b14:	0f812b83          	lw	s7,248(sp)

0000000080002b18 <i_2645>:
    80002b18:	ef610a83          	lb	s5,-266(sp)

0000000080002b1c <i_2646>:
    80002b1c:	9975ee93          	ori	t4,a1,-1641

0000000080002b20 <i_2647>:
    80002b20:	00000013          	nop

0000000080002b24 <i_2648>:
    80002b24:	1eef7597          	auipc	a1,0x1eef7

0000000080002b28 <i_2649>:
    80002b28:	017cd863          	ble	s7,s9,80002b38 <i_2653>

0000000080002b2c <i_2650>:
    80002b2c:	02bed263          	ble	a1,t4,80002b50 <i_2658>

0000000080002b30 <i_2651>:
    80002b30:	00b5ccb3          	xor	s9,a1,a1

0000000080002b34 <i_2652>:
    80002b34:	03d5f463          	bleu	t4,a1,80002b5c <i_2661>

0000000080002b38 <i_2653>:
    80002b38:	fb813d03          	ld	s10,-72(sp)

0000000080002b3c <i_2654>:
    80002b3c:	f3911323          	sh	s9,-218(sp)

0000000080002b40 <i_2655>:
    80002b40:	001c0c13          	addi	s8,s8,1
    80002b44:	fd6c12e3          	bne	s8,s6,80002b08 <i_2641>

0000000080002b48 <i_2656>:
    80002b48:	002e9e93          	slli	t4,t4,0x2

0000000080002b4c <i_2657>:
    80002b4c:	0339bfb3          	mulhu	t6,s3,s3

0000000080002b50 <i_2658>:
    80002b50:	1c214d83          	lbu	s11,450(sp)

0000000080002b54 <i_2659>:
    80002b54:	0a013203          	ld	tp,160(sp)

0000000080002b58 <i_2660>:
    80002b58:	024fc263          	blt	t6,tp,80002b7c <i_2669>

0000000080002b5c <i_2661>:
    80002b5c:	f9812f83          	lw	t6,-104(sp)

0000000080002b60 <i_2662>:
    80002b60:	f5b105a3          	sb	s11,-181(sp)

0000000080002b64 <i_2663>:
    80002b64:	01f27e63          	bleu	t6,tp,80002b80 <i_2670>

0000000080002b68 <i_2664>:
    80002b68:	01bcda63          	ble	s11,s9,80002b7c <i_2669>

0000000080002b6c <i_2665>:
    80002b6c:	004d8663          	beq	s11,tp,80002b78 <i_2668>

0000000080002b70 <i_2666>:
    80002b70:	1ab8c213          	xori	tp,a7,427

0000000080002b74 <i_2667>:
    80002b74:	01f89a63          	bne	a7,t6,80002b88 <i_2672>

0000000080002b78 <i_2668>:
    80002b78:	03427a33          	remu	s4,tp,s4

0000000080002b7c <i_2669>:
    80002b7c:	16810a03          	lb	s4,360(sp)

0000000080002b80 <i_2670>:
    80002b80:	03014683          	lbu	a3,48(sp)

0000000080002b84 <i_2671>:
    80002b84:	e5b10f83          	lb	t6,-421(sp)

0000000080002b88 <i_2672>:
    80002b88:	00c00613          	li	a2,12

0000000080002b8c <i_2673>:
    80002b8c:	40cfd633          	sra	a2,t6,a2

0000000080002b90 <i_2674>:
    80002b90:	01367863          	bleu	s3,a2,80002ba0 <i_2678>

0000000080002b94 <i_2675>:
    80002b94:	00013583          	ld	a1,0(sp)

0000000080002b98 <i_2676>:
    80002b98:	e3014603          	lbu	a2,-464(sp)

0000000080002b9c <i_2677>:
    80002b9c:	4956ff93          	andi	t6,a3,1173

0000000080002ba0 <i_2678>:
    80002ba0:	0246f23b          	remuw	tp,a3,tp

0000000080002ba4 <i_2679>:
    80002ba4:	f5113c23          	sd	a7,-168(sp)

0000000080002ba8 <i_2680>:
    80002ba8:	05f12823          	sw	t6,80(sp)

0000000080002bac <i_2681>:
    80002bac:	7e300693          	li	a3,2019

0000000080002bb0 <i_2682>:
    80002bb0:	7f300813          	li	a6,2035

0000000080002bb4 <i_2683>:
    80002bb4:	0105c263          	blt	a1,a6,80002bb8 <i_2684>

0000000080002bb8 <i_2684>:
    80002bb8:	e2c12423          	sw	a2,-472(sp)

0000000080002bbc <i_2685>:
    80002bbc:	f4c11823          	sh	a2,-176(sp)

0000000080002bc0 <i_2686>:
    80002bc0:	14510603          	lb	a2,325(sp)

0000000080002bc4 <i_2687>:
    80002bc4:	0e416b03          	lwu	s6,228(sp)

0000000080002bc8 <i_2688>:
    80002bc8:	00168693          	addi	a3,a3,1
    80002bcc:	ff06c4e3          	blt	a3,a6,80002bb4 <i_2683>

0000000080002bd0 <i_2689>:
    80002bd0:	02c69263          	bne	a3,a2,80002bf4 <i_2698>

0000000080002bd4 <i_2690>:
    80002bd4:	00a65e63          	ble	a0,a2,80002bf0 <i_2697>

0000000080002bd8 <i_2691>:
    80002bd8:	0102ce63          	blt	t0,a6,80002bf4 <i_2698>

0000000080002bdc <i_2692>:
    80002bdc:	bde6e613          	ori	a2,a3,-1058

0000000080002be0 <i_2693>:
    80002be0:	e8413023          	sd	tp,-384(sp)

0000000080002be4 <i_2694>:
    80002be4:	00c2e863          	bltu	t0,a2,80002bf4 <i_2698>

0000000080002be8 <i_2695>:
    80002be8:	03615463          	ble	s6,sp,80002c10 <i_2705>

0000000080002bec <i_2696>:
    80002bec:	01b00793          	li	a5,27

0000000080002bf0 <i_2697>:
    80002bf0:	00f6d53b          	srlw	a0,a3,a5

0000000080002bf4 <i_2698>:
    80002bf4:	01615b03          	lhu	s6,22(sp)

0000000080002bf8 <i_2699>:
    80002bf8:	fb910583          	lb	a1,-71(sp)

0000000080002bfc <i_2700>:
    80002bfc:	e3016583          	lwu	a1,-464(sp)

0000000080002c00 <i_2701>:
    80002c00:	00000013          	nop

0000000080002c04 <i_2702>:
    80002c04:	fa412f03          	lw	t5,-92(sp)

0000000080002c08 <i_2703>:
    80002c08:	02b5cf3b          	divw	t5,a1,a1

0000000080002c0c <i_2704>:
    80002c0c:	f1110f03          	lb	t5,-239(sp)

0000000080002c10 <i_2705>:
    80002c10:	00b5a5b3          	slt	a1,a1,a1

0000000080002c14 <i_2706>:
    80002c14:	e3414983          	lbu	s3,-460(sp)

0000000080002c18 <i_2707>:
    80002c18:	7c000e93          	li	t4,1984

0000000080002c1c <i_2708>:
    80002c1c:	7c600313          	li	t1,1990

0000000080002c20 <i_2709>:
    80002c20:	eeb13423          	sd	a1,-280(sp)

0000000080002c24 <i_2710>:
    80002c24:	bc75e193          	ori	gp,a1,-1081

0000000080002c28 <i_2711>:
    80002c28:	1c414183          	lbu	gp,452(sp)

0000000080002c2c <i_2712>:
    80002c2c:	00b5ca63          	blt	a1,a1,80002c40 <i_2716>

0000000080002c30 <i_2713>:
    80002c30:	001e8e93          	addi	t4,t4,1 # ffffffffce004001 <_end+0xffffffff4dff3bed>
    80002c34:	fe6ee6e3          	bltu	t4,t1,80002c20 <i_2709>

0000000080002c38 <i_2714>:
    80002c38:	a97b6b13          	ori	s6,s6,-1385

0000000080002c3c <i_2715>:
    80002c3c:	023585bb          	mulw	a1,a1,gp

0000000080002c40 <i_2716>:
    80002c40:	1b511323          	sh	s5,422(sp)

0000000080002c44 <i_2717>:
    80002c44:	0311da3b          	divuw	s4,gp,a7

0000000080002c48 <i_2718>:
    80002c48:	eb812583          	lw	a1,-328(sp)

0000000080002c4c <i_2719>:
    80002c4c:	17714903          	lbu	s2,375(sp)

0000000080002c50 <i_2720>:
    80002c50:	03b6e5b3          	rem	a1,a3,s11

0000000080002c54 <i_2721>:
    80002c54:	79f00993          	li	s3,1951

0000000080002c58 <i_2722>:
    80002c58:	7a800193          	li	gp,1960

0000000080002c5c <i_2723>:
    80002c5c:	e9016d83          	lwu	s11,-368(sp)

0000000080002c60 <i_2724>:
    80002c60:	b5f6e793          	ori	a5,a3,-1185

0000000080002c64 <i_2725>:
    80002c64:	40d68a3b          	subw	s4,a3,a3

0000000080002c68 <i_2726>:
    80002c68:	0047d69b          	srliw	a3,a5,0x4

0000000080002c6c <i_2727>:
    80002c6c:	02d7ea3b          	remw	s4,a5,a3

0000000080002c70 <i_2728>:
    80002c70:	00000013          	nop

0000000080002c74 <i_2729>:
    80002c74:	f3c15283          	lhu	t0,-196(sp)

0000000080002c78 <i_2730>:
    80002c78:	e5013d03          	ld	s10,-432(sp)

0000000080002c7c <i_2731>:
    80002c7c:	02fdea33          	rem	s4,s11,a5

0000000080002c80 <i_2732>:
    80002c80:	73ee0613          	addi	a2,t3,1854 # 5256e216 <main-0x2da91dea>

0000000080002c84 <i_2733>:
    80002c84:	00198993          	addi	s3,s3,1
    80002c88:	fc399ae3          	bne	s3,gp,80002c5c <i_2723>

0000000080002c8c <i_2734>:
    80002c8c:	034a2d33          	mulhsu	s10,s4,s4

0000000080002c90 <i_2735>:
    80002c90:	13413823          	sd	s4,304(sp)

0000000080002c94 <i_2736>:
    80002c94:	12012703          	lw	a4,288(sp)

0000000080002c98 <i_2737>:
    80002c98:	f1a11b23          	sh	s10,-234(sp)

0000000080002c9c <i_2738>:
    80002c9c:	e9b108a3          	sb	s11,-367(sp)

0000000080002ca0 <i_2739>:
    80002ca0:	405d06bb          	subw	a3,s10,t0

0000000080002ca4 <i_2740>:
    80002ca4:	4dd6fe13          	andi	t3,a3,1245

0000000080002ca8 <i_2741>:
    80002ca8:	e4013c83          	ld	s9,-448(sp)

0000000080002cac <i_2742>:
    80002cac:	e9814703          	lbu	a4,-360(sp)

0000000080002cb0 <i_2743>:
    80002cb0:	e8016283          	lwu	t0,-384(sp)

0000000080002cb4 <i_2744>:
    80002cb4:	f0510c03          	lb	s8,-251(sp)

0000000080002cb8 <i_2745>:
    80002cb8:	039754bb          	divuw	s1,a4,s9

0000000080002cbc <i_2746>:
    80002cbc:	00e00c13          	li	s8,14

0000000080002cc0 <i_2747>:
    80002cc0:	4182d9bb          	sraw	s3,t0,s8

0000000080002cc4 <i_2748>:
    80002cc4:	005ec4b3          	xor	s1,t4,t0

0000000080002cc8 <i_2749>:
    80002cc8:	02800493          	li	s1,40

0000000080002ccc <i_2750>:
    80002ccc:	409e5e33          	sra	t3,t3,s1

0000000080002cd0 <i_2751>:
    80002cd0:	0dc13023          	sd	t3,192(sp)

0000000080002cd4 <i_2752>:
    80002cd4:	1bc14e03          	lbu	t3,444(sp)

0000000080002cd8 <i_2753>:
    80002cd8:	01015e03          	lhu	t3,16(sp)

0000000080002cdc <i_2754>:
    80002cdc:	4034de13          	srai	t3,s1,0x3

0000000080002ce0 <i_2755>:
    80002ce0:	013e4c63          	blt	t3,s3,80002cf8 <i_2761>

0000000080002ce4 <i_2756>:
    80002ce4:	edc11523          	sh	t3,-310(sp)

0000000080002ce8 <i_2757>:
    80002ce8:	b25a809b          	addiw	ra,s5,-1243

0000000080002cec <i_2758>:
    80002cec:	efe10d83          	lb	s11,-258(sp)

0000000080002cf0 <i_2759>:
    80002cf0:	00908263          	beq	ra,s1,80002cf4 <i_2760>

0000000080002cf4 <i_2760>:
    80002cf4:	19e15203          	lhu	tp,414(sp)

0000000080002cf8 <i_2761>:
    80002cf8:	0049d99b          	srliw	s3,s3,0x4

0000000080002cfc <i_2762>:
    80002cfc:	05013a03          	ld	s4,80(sp)

0000000080002d00 <i_2763>:
    80002d00:	014ddc63          	ble	s4,s11,80002d18 <i_2769>

0000000080002d04 <i_2764>:
    80002d04:	0a810a83          	lb	s5,168(sp)

0000000080002d08 <i_2765>:
    80002d08:	03cebeb3          	mulhu	t4,t4,t3

0000000080002d0c <i_2766>:
    80002d0c:	17810083          	lb	ra,376(sp)

0000000080002d10 <i_2767>:
    80002d10:	01c16663          	bltu	sp,t3,80002d1c <i_2770>

0000000080002d14 <i_2768>:
    80002d14:	001e8e63          	beq	t4,ra,80002d30 <i_2775>

0000000080002d18 <i_2769>:
    80002d18:	01ddd863          	ble	t4,s11,80002d28 <i_2773>

0000000080002d1c <i_2770>:
    80002d1c:	e3416083          	lwu	ra,-460(sp)

0000000080002d20 <i_2771>:
    80002d20:	00013e83          	ld	t4,0(sp)

0000000080002d24 <i_2772>:
    80002d24:	005ee2b3          	or	t0,t4,t0

0000000080002d28 <i_2773>:
    80002d28:	005bc863          	blt	s7,t0,80002d38 <i_2777>

0000000080002d2c <i_2774>:
    80002d2c:	f5b12223          	sw	s11,-188(sp)

0000000080002d30 <i_2775>:
    80002d30:	03bdc063          	blt	s11,s11,80002d50 <i_2783>

0000000080002d34 <i_2776>:
    80002d34:	03dd1263          	bne	s10,t4,80002d58 <i_2785>

0000000080002d38 <i_2777>:
    80002d38:	02e44933          	div	s2,s0,a4

0000000080002d3c <i_2778>:
    80002d3c:	0392ae33          	mulhsu	t3,t0,s9

0000000080002d40 <i_2779>:
    80002d40:	1ae12023          	sw	a4,416(sp)

0000000080002d44 <i_2780>:
    80002d44:	02e70733          	mul	a4,a4,a4

0000000080002d48 <i_2781>:
    80002d48:	f3712a23          	sw	s7,-204(sp)

0000000080002d4c <i_2782>:
    80002d4c:	05613c23          	sd	s6,88(sp)

0000000080002d50 <i_2783>:
    80002d50:	03784bbb          	divw	s7,a6,s7

0000000080002d54 <i_2784>:
    80002d54:	00bb8263          	beq	s7,a1,80002d58 <i_2785>

0000000080002d58 <i_2785>:
    80002d58:	00fb8263          	beq	s7,a5,80002d5c <i_2786>

0000000080002d5c <i_2786>:
    80002d5c:	f1415783          	lhu	a5,-236(sp)

0000000080002d60 <i_2787>:
    80002d60:	40ab8c3b          	subw	s8,s7,a0

0000000080002d64 <i_2788>:
    80002d64:	7aa00b93          	li	s7,1962

0000000080002d68 <i_2789>:
    80002d68:	7b600713          	li	a4,1974

0000000080002d6c <i_2790>:
    80002d6c:	001bda9b          	srliw	s5,s7,0x1

0000000080002d70 <i_2791>:
    80002d70:	02813a83          	ld	s5,40(sp)

0000000080002d74 <i_2792>:
    80002d74:	eef10ea3          	sb	a5,-259(sp)

0000000080002d78 <i_2793>:
    80002d78:	001b8b93          	addi	s7,s7,1 # ac55f165 <_end+0x2c54ed51>
    80002d7c:	feebe8e3          	bltu	s7,a4,80002d6c <i_2790>

0000000080002d80 <i_2794>:
    80002d80:	401bd59b          	sraiw	a1,s7,0x1

0000000080002d84 <i_2795>:
    80002d84:	035bdbb3          	divu	s7,s7,s5

0000000080002d88 <i_2796>:
    80002d88:	e1710fa3          	sb	s7,-481(sp)

0000000080002d8c <i_2797>:
    80002d8c:	035acabb          	divw	s5,s5,s5

0000000080002d90 <i_2798>:
    80002d90:	fb512a23          	sw	s5,-76(sp)

0000000080002d94 <i_2799>:
    80002d94:	035afab3          	remu	s5,s5,s5

0000000080002d98 <i_2800>:
    80002d98:	eb013183          	ld	gp,-336(sp)

0000000080002d9c <i_2801>:
    80002d9c:	00b1e263          	bltu	gp,a1,80002da0 <i_2802>

0000000080002da0 <i_2802>:
    80002da0:	0b710323          	sb	s7,166(sp)

0000000080002da4 <i_2803>:
    80002da4:	023be1bb          	remw	gp,s7,gp

0000000080002da8 <i_2804>:
    80002da8:	035e2e33          	mulhsu	t3,t3,s5

0000000080002dac <i_2805>:
    80002dac:	fa816883          	lwu	a7,-88(sp)

0000000080002db0 <i_2806>:
    80002db0:	003b9a63          	bne	s7,gp,80002dc4 <i_2811>

0000000080002db4 <i_2807>:
    80002db4:	4025d893          	srai	a7,a1,0x2

0000000080002db8 <i_2808>:
    80002db8:	11a105a3          	sb	s10,267(sp)

0000000080002dbc <i_2809>:
    80002dbc:	0111d263          	ble	a7,gp,80002dc0 <i_2810>

0000000080002dc0 <i_2810>:
    80002dc0:	03174063          	blt	a4,a7,80002de0 <i_2818>

0000000080002dc4 <i_2811>:
    80002dc4:	f1511d23          	sh	s5,-230(sp)

0000000080002dc8 <i_2812>:
    80002dc8:	015a8e63          	beq	s5,s5,80002de4 <i_2819>

0000000080002dcc <i_2813>:
    80002dcc:	0eb11a23          	sh	a1,244(sp)

0000000080002dd0 <i_2814>:
    80002dd0:	e6b10ba3          	sb	a1,-393(sp)

0000000080002dd4 <i_2815>:
    80002dd4:	e4015e03          	lhu	t3,-448(sp)

0000000080002dd8 <i_2816>:
    80002dd8:	19c11603          	lh	a2,412(sp)

0000000080002ddc <i_2817>:
    80002ddc:	13112223          	sw	a7,292(sp)

0000000080002de0 <i_2818>:
    80002de0:	6c331637          	lui	a2,0x6c331

0000000080002de4 <i_2819>:
    80002de4:	03ee7463          	bleu	t5,t3,80002e0c <i_2829>

0000000080002de8 <i_2820>:
    80002de8:	01614f83          	lbu	t6,22(sp)

0000000080002dec <i_2821>:
    80002dec:	e5013883          	ld	a7,-432(sp)

0000000080002df0 <i_2822>:
    80002df0:	07c11123          	sh	t3,98(sp)

0000000080002df4 <i_2823>:
    80002df4:	01400593          	li	a1,20

0000000080002df8 <i_2824>:
    80002df8:	00b99f3b          	sllw	t5,s3,a1

0000000080002dfc <i_2825>:
    80002dfc:	13412183          	lw	gp,308(sp)

0000000080002e00 <i_2826>:
    80002e00:	4035de13          	srai	t3,a1,0x3

0000000080002e04 <i_2827>:
    80002e04:	f6412f83          	lw	t6,-156(sp)

0000000080002e08 <i_2828>:
    80002e08:	e9011803          	lh	a6,-368(sp)

0000000080002e0c <i_2829>:
    80002e0c:	e4b10e23          	sb	a1,-420(sp)

0000000080002e10 <i_2830>:
    80002e10:	0178dc63          	ble	s7,a7,80002e28 <i_2836>

0000000080002e14 <i_2831>:
    80002e14:	18013b83          	ld	s7,384(sp)

0000000080002e18 <i_2832>:
    80002e18:	03c85463          	ble	t3,a6,80002e40 <i_2842>

0000000080002e1c <i_2833>:
    80002e1c:	f3012223          	sw	a6,-220(sp)

0000000080002e20 <i_2834>:
    80002e20:	1ac12503          	lw	a0,428(sp)

0000000080002e24 <i_2835>:
    80002e24:	01085e63          	ble	a6,a6,80002e40 <i_2842>

0000000080002e28 <i_2836>:
    80002e28:	01cbdc63          	ble	t3,s7,80002e40 <i_2842>

0000000080002e2c <i_2837>:
    80002e2c:	01736bb3          	or	s7,t1,s7

0000000080002e30 <i_2838>:
    80002e30:	00500e93          	li	t4,5

0000000080002e34 <i_2839>:
    80002e34:	01d6debb          	srlw	t4,a3,t4

0000000080002e38 <i_2840>:
    80002e38:	fb711023          	sh	s7,-96(sp)

0000000080002e3c <i_2841>:
    80002e3c:	01de7463          	bleu	t4,t3,80002e44 <i_2843>

0000000080002e40 <i_2842>:
    80002e40:	1bc16b03          	lwu	s6,444(sp)

0000000080002e44 <i_2843>:
    80002e44:	01900b13          	li	s6,25

0000000080002e48 <i_2844>:
    80002e48:	016b9bbb          	sllw	s7,s7,s6

0000000080002e4c <i_2845>:
    80002e4c:	ecc16d03          	lwu	s10,-308(sp)

0000000080002e50 <i_2846>:
    80002e50:	01ab4263          	blt	s6,s10,80002e54 <i_2847>

0000000080002e54 <i_2847>:
    80002e54:	41a78b3b          	subw	s6,a5,s10

0000000080002e58 <i_2848>:
    80002e58:	00d00893          	li	a7,13

0000000080002e5c <i_2849>:
    80002e5c:	011e9eb3          	sll	t4,t4,a7

0000000080002e60 <i_2850>:
    80002e60:	19613823          	sd	s6,400(sp)

0000000080002e64 <i_2851>:
    80002e64:	e5211623          	sh	s2,-436(sp)

0000000080002e68 <i_2852>:
    80002e68:	e6c12d03          	lw	s10,-404(sp)

0000000080002e6c <i_2853>:
    80002e6c:	f5713423          	sd	s7,-184(sp)

0000000080002e70 <i_2854>:
    80002e70:	09d11823          	sh	t4,144(sp)

0000000080002e74 <i_2855>:
    80002e74:	017ec663          	blt	t4,s7,80002e80 <i_2858>

0000000080002e78 <i_2856>:
    80002e78:	002edd13          	srli	s10,t4,0x2

0000000080002e7c <i_2857>:
    80002e7c:	015ece63          	blt	t4,s5,80002e98 <i_2864>

0000000080002e80 <i_2858>:
    80002e80:	01c00813          	li	a6,28

0000000080002e84 <i_2859>:
    80002e84:	010e90bb          	sllw	ra,t4,a6

0000000080002e88 <i_2860>:
    80002e88:	001e8a63          	beq	t4,ra,80002e9c <i_2865>

0000000080002e8c <i_2861>:
    80002e8c:	5788889b          	addiw	a7,a7,1400

0000000080002e90 <i_2862>:
    80002e90:	f2113c23          	sd	ra,-200(sp)

0000000080002e94 <i_2863>:
    80002e94:	015e8ab3          	add	s5,t4,s5

0000000080002e98 <i_2864>:
    80002e98:	07d11623          	sh	t4,108(sp)

0000000080002e9c <i_2865>:
    80002e9c:	00108ab3          	add	s5,ra,ra

0000000080002ea0 <i_2866>:
    80002ea0:	01c00a93          	li	s5,28

0000000080002ea4 <i_2867>:
    80002ea4:	015a9ab3          	sll	s5,s5,s5

0000000080002ea8 <i_2868>:
    80002ea8:	75300093          	li	ra,1875

0000000080002eac <i_2869>:
    80002eac:	76500893          	li	a7,1893

0000000080002eb0 <i_2870>:
    80002eb0:	00c12783          	lw	a5,12(sp)

0000000080002eb4 <i_2871>:
    80002eb4:	e7513c23          	sd	s5,-392(sp)

0000000080002eb8 <i_2872>:
    80002eb8:	00108093          	addi	ra,ra,1
    80002ebc:	ff1098e3          	bne	ra,a7,80002eac <i_2869>

0000000080002ec0 <i_2873>:
    80002ec0:	1a111723          	sh	ra,430(sp)

0000000080002ec4 <i_2874>:
    80002ec4:	f5a10783          	lb	a5,-166(sp)

0000000080002ec8 <i_2875>:
    80002ec8:	02f7e0bb          	remw	ra,a5,a5

0000000080002ecc <i_2876>:
    80002ecc:	ec514803          	lbu	a6,-315(sp)

0000000080002ed0 <i_2877>:
    80002ed0:	ed511123          	sh	s5,-318(sp)

0000000080002ed4 <i_2878>:
    80002ed4:	01900e93          	li	t4,25

0000000080002ed8 <i_2879>:
    80002ed8:	41d857b3          	sra	a5,a6,t4

0000000080002edc <i_2880>:
    80002edc:	8b47ca93          	xori	s5,a5,-1868

0000000080002ee0 <i_2881>:
    80002ee0:	fca11503          	lh	a0,-54(sp)

0000000080002ee4 <i_2882>:
    80002ee4:	e9d12223          	sw	t4,-380(sp)

0000000080002ee8 <i_2883>:
    80002ee8:	00f10d23          	sb	a5,26(sp)

0000000080002eec <i_2884>:
    80002eec:	01510863          	beq	sp,s5,80002efc <i_2888>

0000000080002ef0 <i_2885>:
    80002ef0:	1bd13423          	sd	t4,424(sp)

0000000080002ef4 <i_2886>:
    80002ef4:	08415783          	lhu	a5,132(sp)

0000000080002ef8 <i_2887>:
    80002ef8:	1b510ea3          	sb	s5,445(sp)

0000000080002efc <i_2888>:
    80002efc:	fc416983          	lwu	s3,-60(sp)

0000000080002f00 <i_2889>:
    80002f00:	19512c23          	sw	s5,408(sp)

0000000080002f04 <i_2890>:
    80002f04:	02f79063          	bne	a5,a5,80002f24 <i_2898>

0000000080002f08 <i_2891>:
    80002f08:	0ac16783          	lwu	a5,172(sp)

0000000080002f0c <i_2892>:
    80002f0c:	f9412e83          	lw	t4,-108(sp)

0000000080002f10 <i_2893>:
    80002f10:	e8f10623          	sb	a5,-372(sp)

0000000080002f14 <i_2894>:
    80002f14:	004cdc93          	srli	s9,s9,0x4

0000000080002f18 <i_2895>:
    80002f18:	16f13423          	sd	a5,360(sp)

0000000080002f1c <i_2896>:
    80002f1c:	f8f10623          	sb	a5,-116(sp)

0000000080002f20 <i_2897>:
    80002f20:	019887b3          	add	a5,a7,s9

0000000080002f24 <i_2898>:
    80002f24:	e7a11783          	lh	a5,-390(sp)

0000000080002f28 <i_2899>:
    80002f28:	0377c463          	blt	a5,s7,80002f50 <i_2909>

0000000080002f2c <i_2900>:
    80002f2c:	00f14c63          	blt	sp,a5,80002f44 <i_2906>

0000000080002f30 <i_2901>:
    80002f30:	19013d83          	ld	s11,400(sp)

0000000080002f34 <i_2902>:
    80002f34:	fe812b83          	lw	s7,-24(sp)

0000000080002f38 <i_2903>:
    80002f38:	00000013          	nop

0000000080002f3c <i_2904>:
    80002f3c:	0e67fb13          	andi	s6,a5,230

0000000080002f40 <i_2905>:
    80002f40:	c9b7a713          	slti	a4,a5,-869

0000000080002f44 <i_2906>:
    80002f44:	030d89bb          	mulw	s3,s11,a6

0000000080002f48 <i_2907>:
    80002f48:	e6415c83          	lhu	s9,-412(sp)

0000000080002f4c <i_2908>:
    80002f4c:	02813983          	ld	s3,40(sp)

0000000080002f50 <i_2909>:
    80002f50:	ff313c23          	sd	s3,-8(sp)

0000000080002f54 <i_2910>:
    80002f54:	00000013          	nop

0000000080002f58 <i_2911>:
    80002f58:	74f00813          	li	a6,1871

0000000080002f5c <i_2912>:
    80002f5c:	75c00793          	li	a5,1884

0000000080002f60 <i_2913>:
    80002f60:	0399e9b3          	rem	s3,s3,s9

0000000080002f64 <i_2914>:
    80002f64:	00180813          	addi	a6,a6,1
    80002f68:	fef81ce3          	bne	a6,a5,80002f60 <i_2913>

0000000080002f6c <i_2915>:
    80002f6c:	013cd863          	ble	s3,s9,80002f7c <i_2919>

0000000080002f70 <i_2916>:
    80002f70:	03384833          	div	a6,a6,s3

0000000080002f74 <i_2917>:
    80002f74:	03038063          	beq	t2,a6,80002f94 <i_2925>

0000000080002f78 <i_2918>:
    80002f78:	ff912a23          	sw	s9,-12(sp)

0000000080002f7c <i_2919>:
    80002f7c:	e8a11983          	lh	s3,-374(sp)

0000000080002f80 <i_2920>:
    80002f80:	0309d7b3          	divu	a5,s3,a6

0000000080002f84 <i_2921>:
    80002f84:	9c9a0a13          	addi	s4,s4,-1591 # 114b5395 <main-0x6eb4ac6b>

0000000080002f88 <i_2922>:
    80002f88:	01998663          	beq	s3,s9,80002f94 <i_2925>

0000000080002f8c <i_2923>:
    80002f8c:	ff010ea3          	sb	a6,-3(sp)

0000000080002f90 <i_2924>:
    80002f90:	01480a63          	beq	a6,s4,80002fa4 <i_2929>

0000000080002f94 <i_2925>:
    80002f94:	0307f833          	remu	a6,a5,a6

0000000080002f98 <i_2926>:
    80002f98:	00f7f263          	bleu	a5,a5,80002f9c <i_2927>

0000000080002f9c <i_2927>:
    80002f9c:	034803bb          	mulw	t2,a6,s4

0000000080002fa0 <i_2928>:
    80002fa0:	4033dc1b          	sraiw	s8,t2,0x3

0000000080002fa4 <i_2929>:
    80002fa4:	e8f10b23          	sb	a5,-362(sp)

0000000080002fa8 <i_2930>:
    80002fa8:	e9412423          	sw	s4,-376(sp)

0000000080002fac <i_2931>:
    80002fac:	00389a1b          	slliw	s4,a7,0x3

0000000080002fb0 <i_2932>:
    80002fb0:	01839c63          	bne	t2,s8,80002fc8 <i_2938>

0000000080002fb4 <i_2933>:
    80002fb4:	f9411b23          	sh	s4,-106(sp)

0000000080002fb8 <i_2934>:
    80002fb8:	ef813b83          	ld	s7,-264(sp)

0000000080002fbc <i_2935>:
    80002fbc:	8fe3a093          	slti	ra,t2,-1794

0000000080002fc0 <i_2936>:
    80002fc0:	007c6a63          	bltu	s8,t2,80002fd4 <i_2941>

0000000080002fc4 <i_2937>:
    80002fc4:	021c5bbb          	divuw	s7,s8,ra

0000000080002fc8 <i_2938>:
    80002fc8:	e9012383          	lw	t2,-368(sp)

0000000080002fcc <i_2939>:
    80002fcc:	121100a3          	sb	ra,289(sp)

0000000080002fd0 <i_2940>:
    80002fd0:	0010c663          	blt	ra,ra,80002fdc <i_2943>

0000000080002fd4 <i_2941>:
    80002fd4:	ec814083          	lbu	ra,-312(sp)

0000000080002fd8 <i_2942>:
    80002fd8:	fd614083          	lbu	ra,-42(sp)

0000000080002fdc <i_2943>:
    80002fdc:	0090d463          	ble	s1,ra,80002fe4 <i_2945>

0000000080002fe0 <i_2944>:
    80002fe0:	0010d863          	ble	ra,ra,80002ff0 <i_2948>

0000000080002fe4 <i_2945>:
    80002fe4:	f8113023          	sd	ra,-128(sp)

0000000080002fe8 <i_2946>:
    80002fe8:	03a00793          	li	a5,58

0000000080002fec <i_2947>:
    80002fec:	00f393b3          	sll	t2,t2,a5

0000000080002ff0 <i_2948>:
    80002ff0:	02f7e463          	bltu	a5,a5,80003018 <i_2958>

0000000080002ff4 <i_2949>:
    80002ff4:	0c613423          	sd	t1,200(sp)

0000000080002ff8 <i_2950>:
    80002ff8:	bc07f793          	andi	a5,a5,-1088

0000000080002ffc <i_2951>:
    80002ffc:	e1a14883          	lbu	a7,-486(sp)

0000000080003000 <i_2952>:
    80003000:	0213e263          	bltu	t2,ra,80003024 <i_2961>

0000000080003004 <i_2953>:
    80003004:	0367e4b3          	rem	s1,a5,s6

0000000080003008 <i_2954>:
    80003008:	01e7c463          	blt	a5,t5,80003010 <i_2956>

000000008000300c <i_2955>:
    8000300c:	03b09db3          	mulh	s11,ra,s11

0000000080003010 <i_2956>:
    80003010:	00f66263          	bltu	a2,a5,80003014 <i_2957>

0000000080003014 <i_2957>:
    80003014:	0014dc63          	ble	ra,s1,8000302c <i_2963>

0000000080003018 <i_2958>:
    80003018:	01c00093          	li	ra,28

000000008000301c <i_2959>:
    8000301c:	0011dc3b          	srlw	s8,gp,ra

0000000080003020 <i_2960>:
    80003020:	00fde463          	bltu	s11,a5,80003028 <i_2962>

0000000080003024 <i_2961>:
    80003024:	13813823          	sd	s8,304(sp)

0000000080003028 <i_2962>:
    80003028:	01b0de63          	ble	s11,ra,80003044 <i_2969>

000000008000302c <i_2963>:
    8000302c:	ea816083          	lwu	ra,-344(sp)

0000000080003030 <i_2964>:
    80003030:	d9860c13          	addi	s8,a2,-616 # 6c330d98 <main-0x13ccf268>

0000000080003034 <i_2965>:
    80003034:	0c113023          	sd	ra,192(sp)

0000000080003038 <i_2966>:
    80003038:	00600713          	li	a4,6

000000008000303c <i_2967>:
    8000303c:	00e7173b          	sllw	a4,a4,a4

0000000080003040 <i_2968>:
    80003040:	fe314703          	lbu	a4,-29(sp)

0000000080003044 <i_2969>:
    80003044:	01074a63          	blt	a4,a6,80003058 <i_2974>

0000000080003048 <i_2970>:
    80003048:	02e3c263          	blt	t2,a4,8000306c <i_2979>

000000008000304c <i_2971>:
    8000304c:	e9015803          	lhu	a6,-368(sp)

0000000080003050 <i_2972>:
    80003050:	5e472293          	slti	t0,a4,1508

0000000080003054 <i_2973>:
    80003054:	00e13023          	sd	a4,0(sp)

0000000080003058 <i_2974>:
    80003058:	fc513c23          	sd	t0,-40(sp)

000000008000305c <i_2975>:
    8000305c:	4047509b          	sraiw	ra,a4,0x4

0000000080003060 <i_2976>:
    80003060:	0252c063          	blt	t0,t0,80003080 <i_2984>

0000000080003064 <i_2977>:
    80003064:	06e12c23          	sw	a4,120(sp)

0000000080003068 <i_2978>:
    80003068:	f3b11e23          	sh	s11,-196(sp)

000000008000306c <i_2979>:
    8000306c:	0043da1b          	srliw	s4,t2,0x4

0000000080003070 <i_2980>:
    80003070:	18813503          	ld	a0,392(sp)

0000000080003074 <i_2981>:
    80003074:	0023d093          	srli	ra,t2,0x2

0000000080003078 <i_2982>:
    80003078:	00109c9b          	slliw	s9,ra,0x1

000000008000307c <i_2983>:
    8000307c:	e4a15183          	lhu	gp,-438(sp)

0000000080003080 <i_2984>:
    80003080:	00000013          	nop

0000000080003084 <i_2985>:
    80003084:	e6e11a23          	sh	a4,-396(sp)

0000000080003088 <i_2986>:
    80003088:	80900713          	li	a4,-2039

000000008000308c <i_2987>:
    8000308c:	81000393          	li	t2,-2032

0000000080003090 <i_2988>:
    80003090:	0d910b03          	lb	s6,217(sp)

0000000080003094 <i_2989>:
    80003094:	1c611f83          	lh	t6,454(sp)

0000000080003098 <i_2990>:
    80003098:	00170713          	addi	a4,a4,1
    8000309c:	fe771ae3          	bne	a4,t2,80003090 <i_2988>

00000000800030a0 <i_2991>:
    800030a0:	13714a03          	lbu	s4,311(sp)

00000000800030a4 <i_2992>:
    800030a4:	fe1100a3          	sb	ra,-31(sp)

00000000800030a8 <i_2993>:
    800030a8:	021c9063          	bne	s9,ra,800030c8 <i_3001>

00000000800030ac <i_2994>:
    800030ac:	0140c463          	blt	ra,s4,800030b4 <i_2996>

00000000800030b0 <i_2995>:
    800030b0:	19011403          	lh	s0,400(sp)

00000000800030b4 <i_2996>:
    800030b4:	09816083          	lwu	ra,152(sp)

00000000800030b8 <i_2997>:
    800030b8:	f9314a03          	lbu	s4,-109(sp)

00000000800030bc <i_2998>:
    800030bc:	00000013          	nop

00000000800030c0 <i_2999>:
    800030c0:	1bc11083          	lh	ra,444(sp)

00000000800030c4 <i_3000>:
    800030c4:	00000013          	nop

00000000800030c8 <i_3001>:
    800030c8:	f5214503          	lbu	a0,-174(sp)

00000000800030cc <i_3002>:
    800030cc:	00000013          	nop

00000000800030d0 <i_3003>:
    800030d0:	83800713          	li	a4,-1992

00000000800030d4 <i_3004>:
    800030d4:	84b00d93          	li	s11,-1973

00000000800030d8 <i_3005>:
    800030d8:	403a5513          	srai	a0,s4,0x3

00000000800030dc <i_3006>:
    800030dc:	1ca10683          	lb	a3,458(sp)

00000000800030e0 <i_3007>:
    800030e0:	00170713          	addi	a4,a4,1
    800030e4:	feedfae3          	bleu	a4,s11,800030d8 <i_3005>

00000000800030e8 <i_3008>:
    800030e8:	401680bb          	subw	ra,a3,ra

00000000800030ec <i_3009>:
    800030ec:	05813503          	ld	a0,88(sp)

00000000800030f0 <i_3010>:
    800030f0:	021a0bbb          	mulw	s7,s4,ra

00000000800030f4 <i_3011>:
    800030f4:	fa1109a3          	sb	ra,-77(sp)

00000000800030f8 <i_3012>:
    800030f8:	03756463          	bltu	a0,s7,80003120 <i_3022>

00000000800030fc <i_3013>:
    800030fc:	13016783          	lwu	a5,304(sp)

0000000080003100 <i_3014>:
    80003100:	ca756513          	ori	a0,a0,-857

0000000080003104 <i_3015>:
    80003104:	002bda13          	srli	s4,s7,0x2

0000000080003108 <i_3016>:
    80003108:	6abbcb93          	xori	s7,s7,1707

000000008000310c <i_3017>:
    8000310c:	e8011803          	lh	a6,-384(sp)

0000000080003110 <i_3018>:
    80003110:	a61bc793          	xori	a5,s7,-1439

0000000080003114 <i_3019>:
    80003114:	00181b9b          	slliw	s7,a6,0x1

0000000080003118 <i_3020>:
    80003118:	0377ebbb          	remw	s7,a5,s7

000000008000311c <i_3021>:
    8000311c:	5f6bc913          	xori	s2,s7,1526

0000000080003120 <i_3022>:
    80003120:	01790263          	beq	s2,s7,80003124 <i_3023>

0000000080003124 <i_3023>:
    80003124:	00f00b93          	li	s7,15

0000000080003128 <i_3024>:
    80003128:	417ddcb3          	sra	s9,s11,s7

000000008000312c <i_3025>:
    8000312c:	1c615903          	lhu	s2,454(sp)

0000000080003130 <i_3026>:
    80003130:	019e6463          	bltu	t3,s9,80003138 <i_3028>

0000000080003134 <i_3027>:
    80003134:	00b00513          	li	a0,11

0000000080003138 <i_3028>:
    80003138:	00ae1733          	sll	a4,t3,a0

000000008000313c <i_3029>:
    8000313c:	f3812a03          	lw	s4,-200(sp)

0000000080003140 <i_3030>:
    80003140:	e2415303          	lhu	t1,-476(sp)

0000000080003144 <i_3031>:
    80003144:	00700893          	li	a7,7

0000000080003148 <i_3032>:
    80003148:	411a5433          	sra	s0,s4,a7

000000008000314c <i_3033>:
    8000314c:	00ebee63          	bltu	s7,a4,80003168 <i_3040>

0000000080003150 <i_3034>:
    80003150:	f0812e23          	sw	s0,-228(sp)

0000000080003154 <i_3035>:
    80003154:	03110523          	sb	a7,42(sp)

0000000080003158 <i_3036>:
    80003158:	0328c063          	blt	a7,s2,80003178 <i_3044>

000000008000315c <i_3037>:
    8000315c:	0c215583          	lhu	a1,194(sp)

0000000080003160 <i_3038>:
    80003160:	ed415283          	lhu	t0,-300(sp)

0000000080003164 <i_3039>:
    80003164:	00100893          	li	a7,1

0000000080003168 <i_3040>:
    80003168:	01159933          	sll	s2,a1,a7

000000008000316c <i_3041>:
    8000316c:	01129263          	bne	t0,a7,80003170 <i_3042>

0000000080003170 <i_3042>:
    80003170:	004c169b          	slliw	a3,s8,0x4

0000000080003174 <i_3043>:
    80003174:	0eb10d83          	lb	s11,235(sp)

0000000080003178 <i_3044>:
    80003178:	01147263          	bleu	a7,s0,8000317c <i_3045>

000000008000317c <i_3045>:
    8000317c:	03bcdcb3          	divu	s9,s9,s11

0000000080003180 <i_3046>:
    80003180:	eae12c23          	sw	a4,-328(sp)

0000000080003184 <i_3047>:
    80003184:	8d300713          	li	a4,-1837

0000000080003188 <i_3048>:
    80003188:	8e600413          	li	s0,-1818

000000008000318c <i_3049>:
    8000318c:	e8d76c93          	ori	s9,a4,-371

0000000080003190 <i_3050>:
    80003190:	ede15b83          	lhu	s7,-290(sp)

0000000080003194 <i_3051>:
    80003194:	04c16803          	lwu	a6,76(sp)

0000000080003198 <i_3052>:
    80003198:	71177893          	andi	a7,a4,1809

000000008000319c <i_3053>:
    8000319c:	e5012803          	lw	a6,-432(sp)

00000000800031a0 <i_3054>:
    800031a0:	0c014283          	lbu	t0,192(sp)

00000000800031a4 <i_3055>:
    800031a4:	02813f83          	ld	t6,40(sp)

00000000800031a8 <i_3056>:
    800031a8:	fa511e23          	sh	t0,-68(sp)

00000000800031ac <i_3057>:
    800031ac:	028f9663          	bne	t6,s0,800031d8 <i_3067>

00000000800031b0 <i_3058>:
    800031b0:	025869bb          	remw	s3,a6,t0

00000000800031b4 <i_3059>:
    800031b4:	003f929b          	slliw	t0,t6,0x3

00000000800031b8 <i_3060>:
    800031b8:	01f201b3          	add	gp,tp,t6

00000000800031bc <i_3061>:
    800031bc:	00000013          	nop

00000000800031c0 <i_3062>:
    800031c0:	0371cbbb          	divw	s7,gp,s7

00000000800031c4 <i_3063>:
    800031c4:	00170713          	addi	a4,a4,1
    800031c8:	fce472e3          	bleu	a4,s0,8000318c <i_3049>

00000000800031cc <i_3064>:
    800031cc:	19013c83          	ld	s9,400(sp)

00000000800031d0 <i_3065>:
    800031d0:	01bf9a63          	bne	t6,s11,800031e4 <i_3070>

00000000800031d4 <i_3066>:
    800031d4:	e9215d83          	lhu	s11,-366(sp)

00000000800031d8 <i_3067>:
    800031d8:	02015b03          	lhu	s6,32(sp)

00000000800031dc <i_3068>:
    800031dc:	11c10d83          	lb	s11,284(sp)

00000000800031e0 <i_3069>:
    800031e0:	00000013          	nop

00000000800031e4 <i_3070>:
    800031e4:	02fb67bb          	remw	a5,s6,a5

00000000800031e8 <i_3071>:
    800031e8:	19613823          	sd	s6,400(sp)

00000000800031ec <i_3072>:
    800031ec:	85200193          	li	gp,-1966

00000000800031f0 <i_3073>:
    800031f0:	85500293          	li	t0,-1963

00000000800031f4 <i_3074>:
    800031f4:	0bb13c23          	sd	s11,184(sp)

00000000800031f8 <i_3075>:
    800031f8:	00000013          	nop

00000000800031fc <i_3076>:
    800031fc:	00118193          	addi	gp,gp,1
    80003200:	fe51cae3          	blt	gp,t0,800031f4 <i_3074>

0000000080003204 <i_3077>:
    80003204:	04415283          	lhu	t0,68(sp)

0000000080003208 <i_3078>:
    80003208:	e2513823          	sd	t0,-464(sp)

000000008000320c <i_3079>:
    8000320c:	00c00293          	li	t0,12

0000000080003210 <i_3080>:
    80003210:	4052d53b          	sraw	a0,t0,t0

0000000080003214 <i_3081>:
    80003214:	f8f11123          	sh	a5,-126(sp)

0000000080003218 <i_3082>:
    80003218:	ee512223          	sw	t0,-284(sp)

000000008000321c <i_3083>:
    8000321c:	f8a10223          	sb	a0,-124(sp)

0000000080003220 <i_3084>:
    80003220:	c0c832b7          	lui	t0,0xc0c83

0000000080003224 <i_3085>:
    80003224:	0213f1b3          	remu	gp,t2,ra

0000000080003228 <i_3086>:
    80003228:	005180b3          	add	ra,gp,t0

000000008000322c <i_3087>:
    8000322c:	02e1c063          	blt	gp,a4,8000324c <i_3095>

0000000080003230 <i_3088>:
    80003230:	7854e493          	ori	s1,s1,1925

0000000080003234 <i_3089>:
    80003234:	0254c063          	blt	s1,t0,80003254 <i_3097>

0000000080003238 <i_3090>:
    80003238:	01100913          	li	s2,17

000000008000323c <i_3091>:
    8000323c:	0127593b          	srlw	s2,a4,s2

0000000080003240 <i_3092>:
    80003240:	0052e663          	bltu	t0,t0,8000324c <i_3095>

0000000080003244 <i_3093>:
    80003244:	01619263          	bne	gp,s6,80003248 <i_3094>

0000000080003248 <i_3094>:
    80003248:	f4411903          	lh	s2,-188(sp)

000000008000324c <i_3095>:
    8000324c:	012941b3          	xor	gp,s2,s2

0000000080003250 <i_3096>:
    80003250:	eb813803          	ld	a6,-328(sp)

0000000080003254 <i_3097>:
    80003254:	02196463          	bltu	s2,ra,8000327c <i_3107>

0000000080003258 <i_3098>:
    80003258:	0032e463          	bltu	t0,gp,80003260 <i_3100>

000000008000325c <i_3099>:
    8000325c:	003f9f93          	slli	t6,t6,0x3

0000000080003260 <i_3100>:
    80003260:	03b0c0b3          	div	ra,ra,s11

0000000080003264 <i_3101>:
    80003264:	ec813b83          	ld	s7,-312(sp)

0000000080003268 <i_3102>:
    80003268:	01f81863          	bne	a6,t6,80003278 <i_3106>

000000008000326c <i_3103>:
    8000326c:	03785463          	ble	s7,a6,80003294 <i_3113>

0000000080003270 <i_3104>:
    80003270:	f5812e03          	lw	t3,-168(sp)

0000000080003274 <i_3105>:
    80003274:	03011223          	sh	a6,36(sp)

0000000080003278 <i_3106>:
    80003278:	01ce4a63          	blt	t3,t3,8000328c <i_3111>

000000008000327c <i_3107>:
    8000327c:	00510933          	add	s2,sp,t0

0000000080003280 <i_3108>:
    80003280:	f2e11383          	lh	t2,-210(sp)

0000000080003284 <i_3109>:
    80003284:	55d9e0b7          	lui	ra,0x55d9e

0000000080003288 <i_3110>:
    80003288:	f0c14b83          	lbu	s7,-244(sp)

000000008000328c <i_3111>:
    8000328c:	01f96463          	bltu	s2,t6,80003294 <i_3113>

0000000080003290 <i_3112>:
    80003290:	15812d83          	lw	s11,344(sp)

0000000080003294 <i_3113>:
    80003294:	f9811383          	lh	t2,-104(sp)

0000000080003298 <i_3114>:
    80003298:	e6111823          	sh	ra,-400(sp)

000000008000329c <i_3115>:
    8000329c:	02e00d93          	li	s11,46

00000000800032a0 <i_3116>:
    800032a0:	41b0d6b3          	sra	a3,ra,s11

00000000800032a4 <i_3117>:
    800032a4:	0073b3b3          	sltu	t2,t2,t2

00000000800032a8 <i_3118>:
    800032a8:	00108933          	add	s2,ra,ra

00000000800032ac <i_3119>:
    800032ac:	7ce00413          	li	s0,1998

00000000800032b0 <i_3120>:
    800032b0:	7d600093          	li	ra,2006

00000000800032b4 <i_3121>:
    800032b4:	00197c63          	bleu	ra,s2,800032cc <i_3127>

00000000800032b8 <i_3122>:
    800032b8:	07412903          	lw	s2,116(sp)

00000000800032bc <i_3123>:
    800032bc:	027383b3          	mul	t2,t2,t2

00000000800032c0 <i_3124>:
    800032c0:	e8610f03          	lb	t5,-378(sp)

00000000800032c4 <i_3125>:
    800032c4:	00000013          	nop

00000000800032c8 <i_3126>:
    800032c8:	13c10e03          	lb	t3,316(sp)

00000000800032cc <i_3127>:
    800032cc:	02c386b3          	mul	a3,t2,a2

00000000800032d0 <i_3128>:
    800032d0:	f3c12623          	sw	t3,-212(sp)

00000000800032d4 <i_3129>:
    800032d4:	001e591b          	srliw	s2,t3,0x1

00000000800032d8 <i_3130>:
    800032d8:	03693633          	mulhu	a2,s2,s6

00000000800032dc <i_3131>:
    800032dc:	00140413          	addi	s0,s0,1
    800032e0:	fc80fae3          	bleu	s0,ra,800032b4 <i_3121>

00000000800032e4 <i_3132>:
    800032e4:	17215703          	lhu	a4,370(sp)

00000000800032e8 <i_3133>:
    800032e8:	01676b33          	or	s6,a4,s6

00000000800032ec <i_3134>:
    800032ec:	02c77463          	bleu	a2,a4,80003314 <i_3144>

00000000800032f0 <i_3135>:
    800032f0:	038b4263          	blt	s6,s8,80003314 <i_3144>

00000000800032f4 <i_3136>:
    800032f4:	99774b93          	xori	s7,a4,-1641

00000000800032f8 <i_3137>:
    800032f8:	00e13023          	sd	a4,0(sp)

00000000800032fc <i_3138>:
    800032fc:	00c00313          	li	t1,12

0000000080003300 <i_3139>:
    80003300:	00671bbb          	sllw	s7,a4,t1

0000000080003304 <i_3140>:
    80003304:	08a15503          	lhu	a0,138(sp)

0000000080003308 <i_3141>:
    80003308:	003b5b93          	srli	s7,s6,0x3

000000008000330c <i_3142>:
    8000330c:	00000013          	nop

0000000080003310 <i_3143>:
    80003310:	006ef333          	and	t1,t4,t1

0000000080003314 <i_3144>:
    80003314:	e7810e03          	lb	t3,-392(sp)

0000000080003318 <i_3145>:
    80003318:	f5612623          	sw	s6,-180(sp)

000000008000331c <i_3146>:
    8000331c:	77100b13          	li	s6,1905

0000000080003320 <i_3147>:
    80003320:	77900713          	li	a4,1913

0000000080003324 <i_3148>:
    80003324:	02a51533          	mulh	a0,a0,a0

0000000080003328 <i_3149>:
    80003328:	386e4cb7          	lui	s9,0x386e4

000000008000332c <i_3150>:
    8000332c:	85100e93          	li	t4,-1967

0000000080003330 <i_3151>:
    80003330:	85900493          	li	s1,-1959

0000000080003334 <i_3152>:
    80003334:	02a6cd33          	div	s10,a3,a0

0000000080003338 <i_3153>:
    80003338:	fb913c23          	sd	s9,-72(sp)

000000008000333c <i_3154>:
    8000333c:	001e8e93          	addi	t4,t4,1
    80003340:	fe9eeae3          	bltu	t4,s1,80003334 <i_3152>

0000000080003344 <i_3155>:
    80003344:	02a42433          	mulhsu	s0,s0,a0

0000000080003348 <i_3156>:
    80003348:	05415503          	lhu	a0,84(sp)

000000008000334c <i_3157>:
    8000334c:	001b0b13          	addi	s6,s6,1
    80003350:	fd677ae3          	bleu	s6,a4,80003324 <i_3148>

0000000080003354 <i_3158>:
    80003354:	eaa10323          	sb	a0,-346(sp)

0000000080003358 <i_3159>:
    80003358:	004b9b93          	slli	s7,s7,0x4

000000008000335c <i_3160>:
    8000335c:	015d7c63          	bleu	s5,s10,80003374 <i_3166>

0000000080003360 <i_3161>:
    80003360:	00ae9c63          	bne	t4,a0,80003378 <i_3167>

0000000080003364 <i_3162>:
    80003364:	f2a11423          	sh	a0,-216(sp)

0000000080003368 <i_3163>:
    80003368:	f7a103a3          	sb	s10,-153(sp)

000000008000336c <i_3164>:
    8000336c:	15813c23          	sd	s8,344(sp)

0000000080003370 <i_3165>:
    80003370:	f4c12d83          	lw	s11,-180(sp)

0000000080003374 <i_3166>:
    80003374:	01012403          	lw	s0,16(sp)

0000000080003378 <i_3167>:
    80003378:	00000013          	nop

000000008000337c <i_3168>:
    8000337c:	1bd10d83          	lb	s11,445(sp)

0000000080003380 <i_3169>:
    80003380:	73e00d13          	li	s10,1854

0000000080003384 <i_3170>:
    80003384:	74400b93          	li	s7,1860

0000000080003388 <i_3171>:
    80003388:	001d0d13          	addi	s10,s10,1
    8000338c:	ff7d4ee3          	blt	s10,s7,80003388 <i_3171>

0000000080003390 <i_3172>:
    80003390:	03b9593b          	divuw	s2,s2,s11

0000000080003394 <i_3173>:
    80003394:	04510583          	lb	a1,69(sp)

0000000080003398 <i_3174>:
    80003398:	f2714d03          	lbu	s10,-217(sp)

000000008000339c <i_3175>:
    8000339c:	01b935b3          	sltu	a1,s2,s11

00000000800033a0 <i_3176>:
    800033a0:	eae15c03          	lhu	s8,-338(sp)

00000000800033a4 <i_3177>:
    800033a4:	02814d83          	lbu	s11,40(sp)

00000000800033a8 <i_3178>:
    800033a8:	03226ebb          	remw	t4,tp,s2

00000000800033ac <i_3179>:
    800033ac:	01800313          	li	t1,24

00000000800033b0 <i_3180>:
    800033b0:	4065d0b3          	sra	ra,a1,t1

00000000800033b4 <i_3181>:
    800033b4:	14813f03          	ld	t5,328(sp)

00000000800033b8 <i_3182>:
    800033b8:	eab12023          	sw	a1,-352(sp)

00000000800033bc <i_3183>:
    800033bc:	eb212423          	sw	s2,-344(sp)

00000000800033c0 <i_3184>:
    800033c0:	03ef763b          	remuw	a2,t5,t5

00000000800033c4 <i_3185>:
    800033c4:	03bf7263          	bleu	s11,t5,800033e8 <i_3194>

00000000800033c8 <i_3186>:
    800033c8:	03e97433          	remu	s0,s2,t5

00000000800033cc <i_3187>:
    800033cc:	fca15d83          	lhu	s11,-54(sp)

00000000800033d0 <i_3188>:
    800033d0:	01065a63          	ble	a6,a2,800033e4 <i_3193>

00000000800033d4 <i_3189>:
    800033d4:	fb813d83          	ld	s11,-72(sp)

00000000800033d8 <i_3190>:
    800033d8:	18f109a3          	sb	a5,403(sp)

00000000800033dc <i_3191>:
    800033dc:	02c40bbb          	mulw	s7,s0,a2

00000000800033e0 <i_3192>:
    800033e0:	b876031b          	addiw	t1,a2,-1145

00000000800033e4 <i_3193>:
    800033e4:	1b010783          	lb	a5,432(sp)

00000000800033e8 <i_3194>:
    800033e8:	e7c11f03          	lh	t5,-388(sp)

00000000800033ec <i_3195>:
    800033ec:	fc016d83          	lwu	s11,-64(sp)

00000000800033f0 <i_3196>:
    800033f0:	77900813          	li	a6,1913

00000000800033f4 <i_3197>:
    800033f4:	77c00613          	li	a2,1916

00000000800033f8 <i_3198>:
    800033f8:	010bd863          	ble	a6,s7,80003408 <i_3202>

00000000800033fc <i_3199>:
    800033fc:	03b31063          	bne	t1,s11,8000341c <i_3207>

0000000080003400 <i_3200>:
    80003400:	f3e15d83          	lhu	s11,-194(sp)

0000000080003404 <i_3201>:
    80003404:	fc8103a3          	sb	s0,-57(sp)

0000000080003408 <i_3202>:
    80003408:	02645ebb          	divuw	t4,s0,t1

000000008000340c <i_3203>:
    8000340c:	03e162bb          	remw	t0,sp,t5

0000000080003410 <i_3204>:
    80003410:	0e614783          	lbu	a5,230(sp)

0000000080003414 <i_3205>:
    80003414:	02566063          	bltu	a2,t0,80003434 <i_3212>

0000000080003418 <i_3206>:
    80003418:	405f03bb          	subw	t2,t5,t0

000000008000341c <i_3207>:
    8000341c:	03bf4063          	blt	t5,s11,8000343c <i_3214>

0000000080003420 <i_3208>:
    80003420:	11e10683          	lb	a3,286(sp)

0000000080003424 <i_3209>:
    80003424:	00180813          	addi	a6,a6,1
    80003428:	fcc848e3          	blt	a6,a2,800033f8 <i_3198>

000000008000342c <i_3210>:
    8000342c:	ec011783          	lh	a5,-320(sp)

0000000080003430 <i_3211>:
    80003430:	12812623          	sw	s0,300(sp)

0000000080003434 <i_3212>:
    80003434:	00c78263          	beq	a5,a2,80003438 <i_3213>

0000000080003438 <i_3213>:
    80003438:	00787663          	bleu	t2,a6,80003444 <i_3216>

000000008000343c <i_3214>:
    8000343c:	037ef83b          	remuw	a6,t4,s7

0000000080003440 <i_3215>:
    80003440:	00c7cc63          	blt	a5,a2,80003458 <i_3221>

0000000080003444 <i_3216>:
    80003444:	ed416903          	lwu	s2,-300(sp)

0000000080003448 <i_3217>:
    80003448:	16714c03          	lbu	s8,359(sp)

000000008000344c <i_3218>:
    8000344c:	1c812603          	lw	a2,456(sp)

0000000080003450 <i_3219>:
    80003450:	0f013b83          	ld	s7,240(sp)

0000000080003454 <i_3220>:
    80003454:	07816303          	lwu	t1,120(sp)

0000000080003458 <i_3221>:
    80003458:	42c96293          	ori	t0,s2,1068

000000008000345c <i_3222>:
    8000345c:	00141293          	slli	t0,s0,0x1

0000000080003460 <i_3223>:
    80003460:	006c4863          	blt	s8,t1,80003470 <i_3227>

0000000080003464 <i_3224>:
    80003464:	00461f13          	slli	t5,a2,0x4

0000000080003468 <i_3225>:
    80003468:	03e30463          	beq	t1,t5,80003490 <i_3235>

000000008000346c <i_3226>:
    8000346c:	fb110483          	lb	s1,-79(sp)

0000000080003470 <i_3227>:
    80003470:	009100a3          	sb	s1,1(sp)

0000000080003474 <i_3228>:
    80003474:	00512623          	sw	t0,12(sp)

0000000080003478 <i_3229>:
    80003478:	025b5d3b          	divuw	s10,s6,t0

000000008000347c <i_3230>:
    8000347c:	029484b3          	mul	s1,s1,s1

0000000080003480 <i_3231>:
    80003480:	00000013          	nop

0000000080003484 <i_3232>:
    80003484:	00000013          	nop

0000000080003488 <i_3233>:
    80003488:	e4614783          	lbu	a5,-442(sp)

000000008000348c <i_3234>:
    8000348c:	a01dfe17          	auipc	t3,0xa01df

0000000080003490 <i_3235>:
    80003490:	cc94a293          	slti	t0,s1,-823

0000000080003494 <i_3236>:
    80003494:	00000013          	nop

0000000080003498 <i_3237>:
    80003498:	84900b93          	li	s7,-1975

000000008000349c <i_3238>:
    8000349c:	85300f93          	li	t6,-1965

00000000800034a0 <i_3239>:
    800034a0:	029e2e33          	mulhsu	t3,t3,s1

00000000800034a4 <i_3240>:
    800034a4:	001b8b93          	addi	s7,s7,1
    800034a8:	fffbcce3          	blt	s7,t6,800034a0 <i_3239>

00000000800034ac <i_3241>:
    800034ac:	02d2eebb          	remw	t4,t0,a3

00000000800034b0 <i_3242>:
    800034b0:	02e4b233          	mulhu	tp,s1,a4

00000000800034b4 <i_3243>:
    800034b4:	e5911c23          	sh	s9,-424(sp)

00000000800034b8 <i_3244>:
    800034b8:	024e7fbb          	remuw	t6,t3,tp

00000000800034bc <i_3245>:
    800034bc:	1a812203          	lw	tp,424(sp)

00000000800034c0 <i_3246>:
    800034c0:	ed615203          	lhu	tp,-298(sp)

00000000800034c4 <i_3247>:
    800034c4:	87a00313          	li	t1,-1926

00000000800034c8 <i_3248>:
    800034c8:	88a00a93          	li	s5,-1910

00000000800034cc <i_3249>:
    800034cc:	024aca33          	div	s4,s5,tp

00000000800034d0 <i_3250>:
    800034d0:	4142023b          	subw	tp,tp,s4

00000000800034d4 <i_3251>:
    800034d4:	1b282497          	auipc	s1,0x1b282

00000000800034d8 <i_3252>:
    800034d8:	e5813683          	ld	a3,-424(sp)

00000000800034dc <i_3253>:
    800034dc:	fa415203          	lhu	tp,-92(sp)

00000000800034e0 <i_3254>:
    800034e0:	40dd0d33          	sub	s10,s10,a3

00000000800034e4 <i_3255>:
    800034e4:	fbd10583          	lb	a1,-67(sp)

00000000800034e8 <i_3256>:
    800034e8:	06412423          	sw	tp,104(sp)

00000000800034ec <i_3257>:
    800034ec:	04c16d03          	lwu	s10,76(sp)

00000000800034f0 <i_3258>:
    800034f0:	02013e83          	ld	t4,32(sp)

00000000800034f4 <i_3259>:
    800034f4:	03ad79bb          	remuw	s3,s10,s10

00000000800034f8 <i_3260>:
    800034f8:	16e10b03          	lb	s6,366(sp)

00000000800034fc <i_3261>:
    800034fc:	10611983          	lh	s3,262(sp)

0000000080003500 <i_3262>:
    80003500:	ec816803          	lwu	a6,-312(sp)

0000000080003504 <i_3263>:
    80003504:	00130313          	addi	t1,t1,1
    80003508:	fd5362e3          	bltu	t1,s5,800034cc <i_3249>

000000008000350c <i_3264>:
    8000350c:	02914ebb          	divw	t4,sp,s1

0000000080003510 <i_3265>:
    80003510:	06910623          	sb	s1,108(sp)

0000000080003514 <i_3266>:
    80003514:	e9611723          	sh	s6,-370(sp)

0000000080003518 <i_3267>:
    80003518:	d646b693          	sltiu	a3,a3,-668

000000008000351c <i_3268>:
    8000351c:	002d581b          	srliw	a6,s10,0x2

0000000080003520 <i_3269>:
    80003520:	1cc14983          	lbu	s3,460(sp)

0000000080003524 <i_3270>:
    80003524:	e8bb10b7          	lui	ra,0xe8bb1

0000000080003528 <i_3271>:
    80003528:	1d813283          	ld	t0,472(sp)

000000008000352c <i_3272>:
    8000352c:	00000013          	nop

0000000080003530 <i_3273>:
    80003530:	0bc11803          	lh	a6,188(sp)

0000000080003534 <i_3274>:
    80003534:	80100d13          	li	s10,-2047

0000000080003538 <i_3275>:
    80003538:	80700593          	li	a1,-2041

000000008000353c <i_3276>:
    8000353c:	fde15283          	lhu	t0,-34(sp)

0000000080003540 <i_3277>:
    80003540:	0032d493          	srli	s1,t0,0x3

0000000080003544 <i_3278>:
    80003544:	81400393          	li	t2,-2028

0000000080003548 <i_3279>:
    80003548:	82600a13          	li	s4,-2010

000000008000354c <i_3280>:
    8000354c:	09811303          	lh	t1,152(sp)

0000000080003550 <i_3281>:
    80003550:	00830263          	beq	t1,s0,80003554 <i_3282>

0000000080003554 <i_3282>:
    80003554:	e7815283          	lhu	t0,-392(sp)

0000000080003558 <i_3283>:
    80003558:	0114a0b3          	slt	ra,s1,a7

000000008000355c <i_3284>:
    8000355c:	00138393          	addi	t2,t2,1
    80003560:	ff43c6e3          	blt	t2,s4,8000354c <i_3280>

0000000080003564 <i_3285>:
    80003564:	01100293          	li	t0,17

0000000080003568 <i_3286>:
    80003568:	405ddfbb          	sraw	t6,s11,t0

000000008000356c <i_3287>:
    8000356c:	0352aeb3          	mulhsu	t4,t0,s5

0000000080003570 <i_3288>:
    80003570:	001d0d13          	addi	s10,s10,1
    80003574:	fcbd64e3          	bltu	s10,a1,8000353c <i_3276>

0000000080003578 <i_3289>:
    80003578:	ea611c23          	sh	t1,-328(sp)

000000008000357c <i_3290>:
    8000357c:	01100313          	li	t1,17

0000000080003580 <i_3291>:
    80003580:	406fd4bb          	sraw	s1,t6,t1

0000000080003584 <i_3292>:
    80003584:	89800f93          	li	t6,-1896

0000000080003588 <i_3293>:
    80003588:	8a500e13          	li	t3,-1883

000000008000358c <i_3294>:
    8000358c:	f1013303          	ld	t1,-240(sp)

0000000080003590 <i_3295>:
    80003590:	03b3033b          	mulw	t1,t1,s11

0000000080003594 <i_3296>:
    80003594:	006fd463          	ble	t1,t6,8000359c <i_3298>

0000000080003598 <i_3297>:
    80003598:	14613423          	sd	t1,328(sp)

000000008000359c <i_3298>:
    8000359c:	1b310303          	lb	t1,435(sp)

00000000800035a0 <i_3299>:
    800035a0:	0ab14303          	lbu	t1,171(sp)

00000000800035a4 <i_3300>:
    800035a4:	47836593          	ori	a1,t1,1144

00000000800035a8 <i_3301>:
    800035a8:	001f8f93          	addi	t6,t6,1
    800035ac:	ffcfe0e3          	bltu	t6,t3,8000358c <i_3294>

00000000800035b0 <i_3302>:
    800035b0:	19b14503          	lbu	a0,411(sp)

00000000800035b4 <i_3303>:
    800035b4:	0c6105a3          	sb	t1,203(sp)

00000000800035b8 <i_3304>:
    800035b8:	e4610aa3          	sb	t1,-427(sp)

00000000800035bc <i_3305>:
    800035bc:	e7314303          	lbu	t1,-397(sp)

00000000800035c0 <i_3306>:
    800035c0:	01400c13          	li	s8,20

00000000800035c4 <i_3307>:
    800035c4:	018354bb          	srlw	s1,t1,s8

00000000800035c8 <i_3308>:
    800035c8:	0b011683          	lh	a3,176(sp)

00000000800035cc <i_3309>:
    800035cc:	f3e13823          	sd	t5,-208(sp)

00000000800035d0 <i_3310>:
    800035d0:	fd813303          	ld	t1,-40(sp)

00000000800035d4 <i_3311>:
    800035d4:	ec911723          	sh	s1,-306(sp)

00000000800035d8 <i_3312>:
    800035d8:	02654463          	blt	a0,t1,80003600 <i_3322>

00000000800035dc <i_3313>:
    800035dc:	00d4c863          	blt	s1,a3,800035ec <i_3317>

00000000800035e0 <i_3314>:
    800035e0:	40a68733          	sub	a4,a3,a0

00000000800035e4 <i_3315>:
    800035e4:	03b34db3          	div	s11,t1,s11

00000000800035e8 <i_3316>:
    800035e8:	12610503          	lb	a0,294(sp)

00000000800035ec <i_3317>:
    800035ec:	f8d11a23          	sh	a3,-108(sp)

00000000800035f0 <i_3318>:
    800035f0:	04a15903          	lhu	s2,74(sp)

00000000800035f4 <i_3319>:
    800035f4:	002dde9b          	srliw	t4,s11,0x2

00000000800035f8 <i_3320>:
    800035f8:	00a76263          	bltu	a4,a0,800035fc <i_3321>

00000000800035fc <i_3321>:
    800035fc:	01bd8e63          	beq	s11,s11,80003618 <i_3328>

0000000080003600 <i_3322>:
    80003600:	4764e813          	ori	a6,s1,1142

0000000080003604 <i_3323>:
    80003604:	030d9db3          	mulh	s11,s11,a6

0000000080003608 <i_3324>:
    80003608:	40185813          	srai	a6,a6,0x1

000000008000360c <i_3325>:
    8000360c:	403dd79b          	sraiw	a5,s11,0x3

0000000080003610 <i_3326>:
    80003610:	00000013          	nop

0000000080003614 <i_3327>:
    80003614:	02980933          	mul	s2,a6,s1

0000000080003618 <i_3328>:
    80003618:	e2013e83          	ld	t4,-480(sp)

000000008000361c <i_3329>:
    8000361c:	e4416e03          	lwu	t3,-444(sp)

0000000080003620 <i_3330>:
    80003620:	80900d93          	li	s11,-2039

0000000080003624 <i_3331>:
    80003624:	81300493          	li	s1,-2029

0000000080003628 <i_3332>:
    80003628:	e5a15e83          	lhu	t4,-422(sp)

000000008000362c <i_3333>:
    8000362c:	01de8e63          	beq	t4,t4,80003648 <i_3339>

0000000080003630 <i_3334>:
    80003630:	001d8d93          	addi	s11,s11,1
    80003634:	ffb4fae3          	bleu	s11,s1,80003628 <i_3332>

0000000080003638 <i_3335>:
    80003638:	ebd11a23          	sh	t4,-332(sp)

000000008000363c <i_3336>:
    8000363c:	03ded1bb          	divuw	gp,t4,t4

0000000080003640 <i_3337>:
    80003640:	f6011883          	lh	a7,-160(sp)

0000000080003644 <i_3338>:
    80003644:	f1c12e83          	lw	t4,-228(sp)

0000000080003648 <i_3339>:
    80003648:	004edf93          	srli	t6,t4,0x4

000000008000364c <i_3340>:
    8000364c:	00000013          	nop

0000000080003650 <i_3341>:
    80003650:	e4c15483          	lhu	s1,-436(sp)

0000000080003654 <i_3342>:
    80003654:	87a00293          	li	t0,-1926

0000000080003658 <i_3343>:
    80003658:	88900d93          	li	s11,-1911

000000008000365c <i_3344>:
    8000365c:	16013483          	ld	s1,352(sp)

0000000080003660 <i_3345>:
    80003660:	ffe15403          	lhu	s0,-2(sp)

0000000080003664 <i_3346>:
    80003664:	01d00393          	li	t2,29

0000000080003668 <i_3347>:
    80003668:	007edebb          	srlw	t4,t4,t2

000000008000366c <i_3348>:
    8000366c:	17310a03          	lb	s4,371(sp)

0000000080003670 <i_3349>:
    80003670:	00649263          	bne	s1,t1,80003674 <i_3350>

0000000080003674 <i_3350>:
    80003674:	3fd5f537          	lui	a0,0x3fd5f

0000000080003678 <i_3351>:
    80003678:	16712423          	sw	t2,360(sp)

000000008000367c <i_3352>:
    8000367c:	e7012403          	lw	s0,-400(sp)

0000000080003680 <i_3353>:
    80003680:	011fe263          	bltu	t6,a7,80003684 <i_3354>

0000000080003684 <i_3354>:
    80003684:	e6812e03          	lw	t3,-408(sp)

0000000080003688 <i_3355>:
    80003688:	00013683          	ld	a3,0(sp)

000000008000368c <i_3356>:
    8000368c:	00f00413          	li	s0,15

0000000080003690 <i_3357>:
    80003690:	008e9f3b          	sllw	t5,t4,s0

0000000080003694 <i_3358>:
    80003694:	00128293          	addi	t0,t0,1 # ffffffffc0c83001 <_end+0xffffffff40c72bed>
    80003698:	fc5d92e3          	bne	s11,t0,8000365c <i_3344>

000000008000369c <i_3359>:
    8000369c:	002f7863          	bleu	sp,t5,800036ac <i_3363>

00000000800036a0 <i_3360>:
    800036a0:	404a5f13          	srai	t5,s4,0x4

00000000800036a4 <i_3361>:
    800036a4:	ee313823          	sd	gp,-272(sp)

00000000800036a8 <i_3362>:
    800036a8:	f1c15a03          	lhu	s4,-228(sp)

00000000800036ac <i_3363>:
    800036ac:	19e12e23          	sw	t5,412(sp)

00000000800036b0 <i_3364>:
    800036b0:	02d23a33          	mulhu	s4,tp,a3

00000000800036b4 <i_3365>:
    800036b4:	014f5e63          	ble	s4,t5,800036d0 <i_3372>

00000000800036b8 <i_3366>:
    800036b8:	f1413c23          	sd	s4,-232(sp)

00000000800036bc <i_3367>:
    800036bc:	1b416903          	lwu	s2,436(sp)

00000000800036c0 <i_3368>:
    800036c0:	0f210b23          	sb	s2,246(sp)

00000000800036c4 <i_3369>:
    800036c4:	034f5463          	ble	s4,t5,800036ec <i_3379>

00000000800036c8 <i_3370>:
    800036c8:	032f1463          	bne	t5,s2,800036f0 <i_3380>

00000000800036cc <i_3371>:
    800036cc:	01eee463          	bltu	t4,t5,800036d4 <i_3373>

00000000800036d0 <i_3372>:
    800036d0:	0de13023          	sd	t5,192(sp)

00000000800036d4 <i_3373>:
    800036d4:	ff212e23          	sw	s2,-4(sp)

00000000800036d8 <i_3374>:
    800036d8:	40195e13          	srai	t3,s2,0x1

00000000800036dc <i_3375>:
    800036dc:	017f0ab3          	add	s5,t5,s7

00000000800036e0 <i_3376>:
    800036e0:	f9210423          	sb	s2,-120(sp)

00000000800036e4 <i_3377>:
    800036e4:	00000013          	nop

00000000800036e8 <i_3378>:
    800036e8:	00900513          	li	a0,9

00000000800036ec <i_3379>:
    800036ec:	00aa9bb3          	sll	s7,s5,a0

00000000800036f0 <i_3380>:
    800036f0:	ed713c23          	sd	s7,-296(sp)

00000000800036f4 <i_3381>:
    800036f4:	19214503          	lbu	a0,402(sp)

00000000800036f8 <i_3382>:
    800036f8:	81d00f13          	li	t5,-2019

00000000800036fc <i_3383>:
    800036fc:	82b00a13          	li	s4,-2005

0000000080003700 <i_3384>:
    80003700:	401b5513          	srai	a0,s6,0x1

0000000080003704 <i_3385>:
    80003704:	02e50b3b          	mulw	s6,a0,a4

0000000080003708 <i_3386>:
    80003708:	07f14983          	lbu	s3,127(sp)

000000008000370c <i_3387>:
    8000370c:	0045181b          	slliw	a6,a0,0x4

0000000080003710 <i_3388>:
    80003710:	001f0f13          	addi	t5,t5,1
    80003714:	ffea56e3          	ble	t5,s4,80003700 <i_3384>

0000000080003718 <i_3389>:
    80003718:	00000013          	nop

000000008000371c <i_3390>:
    8000371c:	47f98f13          	addi	t5,s3,1151

0000000080003720 <i_3391>:
    80003720:	d1114697          	auipc	a3,0xd1114

0000000080003724 <i_3392>:
    80003724:	fc614683          	lbu	a3,-58(sp)

0000000080003728 <i_3393>:
    80003728:	029699b3          	mulh	s3,a3,s1

000000008000372c <i_3394>:
    8000372c:	eb510983          	lb	s3,-331(sp)

0000000080003730 <i_3395>:
    80003730:	02911323          	sh	s1,38(sp)

0000000080003734 <i_3396>:
    80003734:	0046d863          	ble	tp,a3,80003744 <i_3400>

0000000080003738 <i_3397>:
    80003738:	02d9d8b3          	divu	a7,s3,a3

000000008000373c <i_3398>:
    8000373c:	f1411623          	sh	s4,-244(sp)

0000000080003740 <i_3399>:
    80003740:	1c514583          	lbu	a1,453(sp)

0000000080003744 <i_3400>:
    80003744:	eeb11f23          	sh	a1,-258(sp)

0000000080003748 <i_3401>:
    80003748:	1b615583          	lhu	a1,438(sp)

000000008000374c <i_3402>:
    8000374c:	00f88463          	beq	a7,a5,80003754 <i_3404>

0000000080003750 <i_3403>:
    80003750:	1e013303          	ld	t1,480(sp)

0000000080003754 <i_3404>:
    80003754:	013c5c63          	ble	s3,s8,8000376c <i_3410>

0000000080003758 <i_3405>:
    80003758:	01359263          	bne	a1,s3,8000375c <i_3406>

000000008000375c <i_3406>:
    8000375c:	17813183          	ld	gp,376(sp)

0000000080003760 <i_3407>:
    80003760:	1bc11583          	lh	a1,444(sp)

0000000080003764 <i_3408>:
    80003764:	1a110c03          	lb	s8,417(sp)

0000000080003768 <i_3409>:
    80003768:	00000013          	nop

000000008000376c <i_3410>:
    8000376c:	0cb13823          	sd	a1,208(sp)

0000000080003770 <i_3411>:
    80003770:	00000013          	nop

0000000080003774 <i_3412>:
    80003774:	8a800793          	li	a5,-1880

0000000080003778 <i_3413>:
    80003778:	8b800593          	li	a1,-1864

000000008000377c <i_3414>:
    8000377c:	03279933          	mulh	s2,a5,s2

0000000080003780 <i_3415>:
    80003780:	02bed933          	divu	s2,t4,a1

0000000080003784 <i_3416>:
    80003784:	78500e93          	li	t4,1925

0000000080003788 <i_3417>:
    80003788:	78c00c13          	li	s8,1932

000000008000378c <i_3418>:
    8000378c:	f0011703          	lh	a4,-256(sp)

0000000080003790 <i_3419>:
    80003790:	f7813983          	ld	s3,-136(sp)

0000000080003794 <i_3420>:
    80003794:	0c412983          	lw	s3,196(sp)

0000000080003798 <i_3421>:
    80003798:	02eee463          	bltu	t4,a4,800037c0 <i_3429>

000000008000379c <i_3422>:
    8000379c:	0be14703          	lbu	a4,190(sp)

00000000800037a0 <i_3423>:
    800037a0:	001e8e93          	addi	t4,t4,1
    800037a4:	ffdc74e3          	bleu	t4,s8,8000378c <i_3418>

00000000800037a8 <i_3424>:
    800037a8:	02377733          	remu	a4,a4,gp

00000000800037ac <i_3425>:
    800037ac:	0ce12823          	sw	a4,208(sp)

00000000800037b0 <i_3426>:
    800037b0:	00178793          	addi	a5,a5,1
    800037b4:	fcb7c4e3          	blt	a5,a1,8000377c <i_3414>

00000000800037b8 <i_3427>:
    800037b8:	00edf1b3          	and	gp,s11,a4

00000000800037bc <i_3428>:
    800037bc:	1b211a83          	lh	s5,434(sp)

00000000800037c0 <i_3429>:
    800037c0:	ce972a93          	slti	s5,a4,-791

00000000800037c4 <i_3430>:
    800037c4:	0b411383          	lh	t2,180(sp)

00000000800037c8 <i_3431>:
    800037c8:	8bf00093          	li	ra,-1857

00000000800037cc <i_3432>:
    800037cc:	8d200713          	li	a4,-1838

00000000800037d0 <i_3433>:
    800037d0:	035cccbb          	divw	s9,s9,s5

00000000800037d4 <i_3434>:
    800037d4:	00000013          	nop

00000000800037d8 <i_3435>:
    800037d8:	00000013          	nop

00000000800037dc <i_3436>:
    800037dc:	82e00413          	li	s0,-2002

00000000800037e0 <i_3437>:
    800037e0:	83200393          	li	t2,-1998

00000000800037e4 <i_3438>:
    800037e4:	02781c33          	mulh	s8,a6,t2

00000000800037e8 <i_3439>:
    800037e8:	00140413          	addi	s0,s0,1
    800037ec:	fe746ce3          	bltu	s0,t2,800037e4 <i_3438>

00000000800037f0 <i_3440>:
    800037f0:	06810e03          	lb	t3,104(sp)

00000000800037f4 <i_3441>:
    800037f4:	fbc15a83          	lhu	s5,-68(sp)

00000000800037f8 <i_3442>:
    800037f8:	00108093          	addi	ra,ra,1 # ffffffffe8bb1001 <_end+0xffffffff68ba0bed>
    800037fc:	fce09ae3          	bne	ra,a4,800037d0 <i_3433>

0000000080003800 <i_3443>:
    80003800:	02f6f7bb          	remuw	a5,a3,a5

0000000080003804 <i_3444>:
    80003804:	40355513          	srai	a0,a0,0x3

0000000080003808 <i_3445>:
    80003808:	04f12223          	sw	a5,68(sp)

000000008000380c <i_3446>:
    8000380c:	e2a11083          	lh	ra,-470(sp)

0000000080003810 <i_3447>:
    80003810:	00f00f93          	li	t6,15

0000000080003814 <i_3448>:
    80003814:	01f097b3          	sll	a5,ra,t6

0000000080003818 <i_3449>:
    80003818:	14013083          	ld	ra,320(sp)

000000008000381c <i_3450>:
    8000381c:	03f10903          	lb	s2,63(sp)

0000000080003820 <i_3451>:
    80003820:	00013403          	ld	s0,0(sp)

0000000080003824 <i_3452>:
    80003824:	00840e63          	beq	s0,s0,80003840 <i_3459>

0000000080003828 <i_3453>:
    80003828:	e9416403          	lwu	s0,-364(sp)

000000008000382c <i_3454>:
    8000382c:	ed813a83          	ld	s5,-296(sp)

0000000080003830 <i_3455>:
    80003830:	eff10903          	lb	s2,-257(sp)

0000000080003834 <i_3456>:
    80003834:	19810a83          	lb	s5,408(sp)

0000000080003838 <i_3457>:
    80003838:	fd212e23          	sw	s2,-36(sp)

000000008000383c <i_3458>:
    8000383c:	01596c63          	bltu	s2,s5,80003854 <i_3464>

0000000080003840 <i_3459>:
    80003840:	f3013903          	ld	s2,-208(sp)

0000000080003844 <i_3460>:
    80003844:	00000013          	nop

0000000080003848 <i_3461>:
    80003848:	0f210303          	lb	t1,242(sp)

000000008000384c <i_3462>:
    8000384c:	6e81fa93          	andi	s5,gp,1768

0000000080003850 <i_3463>:
    80003850:	fe512823          	sw	t0,-16(sp)

0000000080003854 <i_3464>:
    80003854:	e5513423          	sd	s5,-440(sp)

0000000080003858 <i_3465>:
    80003858:	032958bb          	divuw	a7,s2,s2

000000008000385c <i_3466>:
    8000385c:	83a00393          	li	t2,-1990

0000000080003860 <i_3467>:
    80003860:	83d00613          	li	a2,-1987

0000000080003864 <i_3468>:
    80003864:	8de8ad13          	slti	s10,a7,-1826

0000000080003868 <i_3469>:
    80003868:	01400913          	li	s2,20

000000008000386c <i_3470>:
    8000386c:	412e5db3          	sra	s11,t3,s2

0000000080003870 <i_3471>:
    80003870:	00000013          	nop

0000000080003874 <i_3472>:
    80003874:	0036de1b          	srliw	t3,a3,0x3

0000000080003878 <i_3473>:
    80003878:	11212823          	sw	s2,272(sp)

000000008000387c <i_3474>:
    8000387c:	41ce0e3b          	subw	t3,t3,t3

0000000080003880 <i_3475>:
    80003880:	00138393          	addi	t2,t2,1
    80003884:	fe7670e3          	bleu	t2,a2,80003864 <i_3468>

0000000080003888 <i_3476>:
    80003888:	1fdf8f9b          	addiw	t6,t6,509

000000008000388c <i_3477>:
    8000388c:	01cdee63          	bltu	s11,t3,800038a8 <i_3484>

0000000080003890 <i_3478>:
    80003890:	05016e03          	lwu	t3,80(sp)

0000000080003894 <i_3479>:
    80003894:	01cd5a63          	ble	t3,s10,800038a8 <i_3484>

0000000080003898 <i_3480>:
    80003898:	03be643b          	remw	s0,t3,s11

000000008000389c <i_3481>:
    8000389c:	18811083          	lh	ra,392(sp)

00000000800038a0 <i_3482>:
    800038a0:	00100413          	li	s0,1

00000000800038a4 <i_3483>:
    800038a4:	408e58b3          	sra	a7,t3,s0

00000000800038a8 <i_3484>:
    800038a8:	00700713          	li	a4,7

00000000800038ac <i_3485>:
    800038ac:	40e0d933          	sra	s2,ra,a4

00000000800038b0 <i_3486>:
    800038b0:	8d100d93          	li	s11,-1839

00000000800038b4 <i_3487>:
    800038b4:	8d700f93          	li	t6,-1833

00000000800038b8 <i_3488>:
    800038b8:	03e91e33          	mulh	t3,s2,t5

00000000800038bc <i_3489>:
    800038bc:	031a5463          	ble	a7,s4,800038e4 <i_3498>

00000000800038c0 <i_3490>:
    800038c0:	001e189b          	slliw	a7,t3,0x1

00000000800038c4 <i_3491>:
    800038c4:	00e90e63          	beq	s2,a4,800038e0 <i_3497>

00000000800038c8 <i_3492>:
    800038c8:	00000013          	nop

00000000800038cc <i_3493>:
    800038cc:	401e561b          	sraiw	a2,t3,0x1

00000000800038d0 <i_3494>:
    800038d0:	001d8d93          	addi	s11,s11,1
    800038d4:	ffbff2e3          	bleu	s11,t6,800038b8 <i_3488>

00000000800038d8 <i_3495>:
    800038d8:	44f23213          	sltiu	tp,tp,1103

00000000800038dc <i_3496>:
    800038dc:	f4816c83          	lwu	s9,-184(sp)

00000000800038e0 <i_3497>:
    800038e0:	08013703          	ld	a4,128(sp)

00000000800038e4 <i_3498>:
    800038e4:	021240b3          	div	ra,tp,ra

00000000800038e8 <i_3499>:
    800038e8:	00bcfc63          	bleu	a1,s9,80003900 <i_3505>

00000000800038ec <i_3500>:
    800038ec:	021ca733          	mulhsu	a4,s9,ra

00000000800038f0 <i_3501>:
    800038f0:	0ee12e23          	sw	a4,252(sp)

00000000800038f4 <i_3502>:
    800038f4:	23f86097          	auipc	ra,0x23f86

00000000800038f8 <i_3503>:
    800038f8:	18413023          	sd	tp,384(sp)

00000000800038fc <i_3504>:
    800038fc:	00e26c63          	bltu	tp,a4,80003914 <i_3510>

0000000080003900 <i_3505>:
    80003900:	01927263          	bleu	s9,tp,80003904 <i_3506>

0000000080003904 <i_3506>:
    80003904:	01610d03          	lb	s10,22(sp)

0000000080003908 <i_3507>:
    80003908:	06111e23          	sh	ra,124(sp)

000000008000390c <i_3508>:
    8000390c:	001c4d33          	xor	s10,s8,ra

0000000080003910 <i_3509>:
    80003910:	01ac2c33          	slt	s8,s8,s10

0000000080003914 <i_3510>:
    80003914:	e7810d23          	sb	s8,-390(sp)

0000000080003918 <i_3511>:
    80003918:	a9827c13          	andi	s8,tp,-1384

000000008000391c <i_3512>:
    8000391c:	73c00213          	li	tp,1852

0000000080003920 <i_3513>:
    80003920:	74200093          	li	ra,1858

0000000080003924 <i_3514>:
    80003924:	00120213          	addi	tp,tp,1 # 1 <main-0x7fffffff>
    80003928:	fe121ee3          	bne	tp,ra,80003924 <i_3514>

000000008000392c <i_3515>:
    8000392c:	038c1463          	bne	s8,s8,80003954 <i_3525>

0000000080003930 <i_3516>:
    80003930:	028c6abb          	remw	s5,s8,s0

0000000080003934 <i_3517>:
    80003934:	015aac33          	slt	s8,s5,s5

0000000080003938 <i_3518>:
    80003938:	15512c23          	sw	s5,344(sp)

000000008000393c <i_3519>:
    8000393c:	035afab3          	remu	s5,s5,s5

0000000080003940 <i_3520>:
    80003940:	009aa4b3          	slt	s1,s5,s1

0000000080003944 <i_3521>:
    80003944:	00000013          	nop

0000000080003948 <i_3522>:
    80003948:	0af14703          	lbu	a4,175(sp)

000000008000394c <i_3523>:
    8000394c:	04b14783          	lbu	a5,75(sp)

0000000080003950 <i_3524>:
    80003950:	01c97c33          	and	s8,s2,t3

0000000080003954 <i_3525>:
    80003954:	11e14e83          	lbu	t4,286(sp)

0000000080003958 <i_3526>:
    80003958:	002add9b          	srliw	s11,s5,0x2

000000008000395c <i_3527>:
    8000395c:	81500693          	li	a3,-2027

0000000080003960 <i_3528>:
    80003960:	81d00a13          	li	s4,-2019

0000000080003964 <i_3529>:
    80003964:	17810783          	lb	a5,376(sp)

0000000080003968 <i_3530>:
    80003968:	e3612823          	sw	s6,-464(sp)

000000008000396c <i_3531>:
    8000396c:	8c100a93          	li	s5,-1855

0000000080003970 <i_3532>:
    80003970:	8d000913          	li	s2,-1840

0000000080003974 <i_3533>:
    80003974:	001a8a93          	addi	s5,s5,1 # e5a922dd <_end+0x65a81ec9>
    80003978:	ff2a9ee3          	bne	s5,s2,80003974 <i_3533>

000000008000397c <i_3534>:
    8000397c:	0244c463          	blt	s1,tp,800039a4 <i_3543>

0000000080003980 <i_3535>:
    80003980:	e6e15b03          	lhu	s6,-402(sp)

0000000080003984 <i_3536>:
    80003984:	00168693          	addi	a3,a3,1 # 51117721 <main-0x2eee88df>
    80003988:	fcda7ee3          	bleu	a3,s4,80003964 <i_3529>

000000008000398c <i_3537>:
    8000398c:	b84b0d9b          	addiw	s11,s6,-1148

0000000080003990 <i_3538>:
    80003990:	03b4d4bb          	divuw	s1,s1,s11

0000000080003994 <i_3539>:
    80003994:	0b016183          	lwu	gp,176(sp)

0000000080003998 <i_3540>:
    80003998:	fb013d83          	ld	s11,-80(sp)

000000008000399c <i_3541>:
    8000399c:	f7416e83          	lwu	t4,-140(sp)

00000000800039a0 <i_3542>:
    800039a0:	e6c11d83          	lh	s11,-404(sp)

00000000800039a4 <i_3543>:
    800039a4:	19c14f83          	lbu	t6,412(sp)

00000000800039a8 <i_3544>:
    800039a8:	02afa6b3          	mulhsu	a3,t6,a0

00000000800039ac <i_3545>:
    800039ac:	01b685b3          	add	a1,a3,s11

00000000800039b0 <i_3546>:
    800039b0:	00b13823          	sd	a1,16(sp)

00000000800039b4 <i_3547>:
    800039b4:	f8313423          	sd	gp,-120(sp)

00000000800039b8 <i_3548>:
    800039b8:	f5b10723          	sb	s11,-178(sp)

00000000800039bc <i_3549>:
    800039bc:	00bbde63          	ble	a1,s7,800039d8 <i_3556>

00000000800039c0 <i_3550>:
    800039c0:	e6013603          	ld	a2,-416(sp)

00000000800039c4 <i_3551>:
    800039c4:	019dfcb3          	and	s9,s11,s9

00000000800039c8 <i_3552>:
    800039c8:	f0e14283          	lbu	t0,-242(sp)

00000000800039cc <i_3553>:
    800039cc:	f0c14c03          	lbu	s8,-244(sp)

00000000800039d0 <i_3554>:
    800039d0:	f9c11603          	lh	a2,-100(sp)

00000000800039d4 <i_3555>:
    800039d4:	0f012903          	lw	s2,240(sp)

00000000800039d8 <i_3556>:
    800039d8:	013d6e63          	bltu	s10,s3,800039f4 <i_3563>

00000000800039dc <i_3557>:
    800039dc:	15c12483          	lw	s1,348(sp)

00000000800039e0 <i_3558>:
    800039e0:	03100993          	li	s3,49

00000000800039e4 <i_3559>:
    800039e4:	013a5d33          	srl	s10,s4,s3

00000000800039e8 <i_3560>:
    800039e8:	29ffaf93          	slti	t6,t6,671

00000000800039ec <i_3561>:
    800039ec:	fc910723          	sb	s1,-50(sp)

00000000800039f0 <i_3562>:
    800039f0:	3b6dad93          	slti	s11,s11,950

00000000800039f4 <i_3563>:
    800039f4:	028fca3b          	divw	s4,t6,s0

00000000800039f8 <i_3564>:
    800039f8:	01b9da63          	ble	s11,s3,80003a0c <i_3569>

00000000800039fc <i_3565>:
    800039fc:	f3b13423          	sd	s11,-216(sp)

0000000080003a00 <i_3566>:
    80003a00:	00f00493          	li	s1,15

0000000080003a04 <i_3567>:
    80003a04:	009490b3          	sll	ra,s1,s1

0000000080003a08 <i_3568>:
    80003a08:	0338463b          	divw	a2,a6,s3

0000000080003a0c <i_3569>:
    80003a0c:	ff712023          	sw	s7,-32(sp)

0000000080003a10 <i_3570>:
    80003a10:	00966463          	bltu	a2,s1,80003a18 <i_3572>

0000000080003a14 <i_3571>:
    80003a14:	f8410603          	lb	a2,-124(sp)

0000000080003a18 <i_3572>:
    80003a18:	f1312823          	sw	s3,-240(sp)

0000000080003a1c <i_3573>:
    80003a1c:	00c60633          	add	a2,a2,a2

0000000080003a20 <i_3574>:
    80003a20:	03a6063b          	mulw	a2,a2,s10

0000000080003a24 <i_3575>:
    80003a24:	f8013603          	ld	a2,-128(sp)

0000000080003a28 <i_3576>:
    80003a28:	03e61d33          	mulh	s10,a2,t5

0000000080003a2c <i_3577>:
    80003a2c:	715e091b          	addiw	s2,t3,1813

0000000080003a30 <i_3578>:
    80003a30:	03a95dbb          	divuw	s11,s2,s10

0000000080003a34 <i_3579>:
    80003a34:	00cb7863          	bleu	a2,s6,80003a44 <i_3583>

0000000080003a38 <i_3580>:
    80003a38:	f25dbb13          	sltiu	s6,s11,-219

0000000080003a3c <i_3581>:
    80003a3c:	02b63633          	mulhu	a2,a2,a1

0000000080003a40 <i_3582>:
    80003a40:	01e65c63          	ble	t5,a2,80003a58 <i_3588>

0000000080003a44 <i_3583>:
    80003a44:	03b67733          	remu	a4,a2,s11

0000000080003a48 <i_3584>:
    80003a48:	01a64733          	xor	a4,a2,s10

0000000080003a4c <i_3585>:
    80003a4c:	fde10203          	lb	tp,-34(sp)

0000000080003a50 <i_3586>:
    80003a50:	03264633          	div	a2,a2,s2

0000000080003a54 <i_3587>:
    80003a54:	02011903          	lh	s2,32(sp)

0000000080003a58 <i_3588>:
    80003a58:	03e2693b          	remw	s2,tp,t5

0000000080003a5c <i_3589>:
    80003a5c:	00494a63          	blt	s2,tp,80003a70 <i_3594>

0000000080003a60 <i_3590>:
    80003a60:	00191693          	slli	a3,s2,0x1

0000000080003a64 <i_3591>:
    80003a64:	00291d1b          	slliw	s10,s2,0x2

0000000080003a68 <i_3592>:
    80003a68:	ea4107a3          	sb	tp,-337(sp)

0000000080003a6c <i_3593>:
    80003a6c:	404b0fbb          	subw	t6,s6,tp

0000000080003a70 <i_3594>:
    80003a70:	edc15b03          	lhu	s6,-292(sp)

0000000080003a74 <i_3595>:
    80003a74:	0de11203          	lh	tp,222(sp)

0000000080003a78 <i_3596>:
    80003a78:	11f13023          	sd	t6,256(sp)

0000000080003a7c <i_3597>:
    80003a7c:	ea410a23          	sb	tp,-332(sp)

0000000080003a80 <i_3598>:
    80003a80:	00424c63          	blt	tp,tp,80003a98 <i_3604>

0000000080003a84 <i_3599>:
    80003a84:	fed14203          	lbu	tp,-19(sp)

0000000080003a88 <i_3600>:
    80003a88:	4022521b          	sraiw	tp,tp,0x2

0000000080003a8c <i_3601>:
    80003a8c:	e6411223          	sh	tp,-412(sp)

0000000080003a90 <i_3602>:
    80003a90:	fc011203          	lh	tp,-64(sp)

0000000080003a94 <i_3603>:
    80003a94:	00013203          	ld	tp,0(sp)

0000000080003a98 <i_3604>:
    80003a98:	00425a63          	ble	tp,tp,80003aac <i_3609>

0000000080003a9c <i_3605>:
    80003a9c:	0c615703          	lhu	a4,198(sp)

0000000080003aa0 <i_3606>:
    80003aa0:	fe410423          	sb	tp,-24(sp)

0000000080003aa4 <i_3607>:
    80003aa4:	f4e11d23          	sh	a4,-166(sp)

0000000080003aa8 <i_3608>:
    80003aa8:	b8c20693          	addi	a3,tp,-1140 # fffffffffffffb8c <_end+0xffffffff7ffef778>

0000000080003aac <i_3609>:
    80003aac:	02d27463          	bleu	a3,tp,80003ad4 <i_3619>

0000000080003ab0 <i_3610>:
    80003ab0:	00422933          	slt	s2,tp,tp

0000000080003ab4 <i_3611>:
    80003ab4:	05514203          	lbu	tp,85(sp)

0000000080003ab8 <i_3612>:
    80003ab8:	10812283          	lw	t0,264(sp)

0000000080003abc <i_3613>:
    80003abc:	02700813          	li	a6,39

0000000080003ac0 <i_3614>:
    80003ac0:	410fdab3          	sra	s5,t6,a6

0000000080003ac4 <i_3615>:
    80003ac4:	032484bb          	mulw	s1,s1,s2

0000000080003ac8 <i_3616>:
    80003ac8:	0253fab3          	remu	s5,t2,t0

0000000080003acc <i_3617>:
    80003acc:	1a911e23          	sh	s1,444(sp)

0000000080003ad0 <i_3618>:
    80003ad0:	c4209617          	auipc	a2,0xc4209

0000000080003ad4 <i_3619>:
    80003ad4:	02ca84b3          	mul	s1,s5,a2

0000000080003ad8 <i_3620>:
    80003ad8:	02a00613          	li	a2,42

0000000080003adc <i_3621>:
    80003adc:	00c49db3          	sll	s11,s1,a2

0000000080003ae0 <i_3622>:
    80003ae0:	7ba00f93          	li	t6,1978

0000000080003ae4 <i_3623>:
    80003ae4:	7cb00913          	li	s2,1995

0000000080003ae8 <i_3624>:
    80003ae8:	00000013          	nop

0000000080003aec <i_3625>:
    80003aec:	00c65e63          	ble	a2,a2,80003b08 <i_3631>

0000000080003af0 <i_3626>:
    80003af0:	12c11c23          	sh	a2,312(sp)

0000000080003af4 <i_3627>:
    80003af4:	001f8f93          	addi	t6,t6,1
    80003af8:	ff2fc6e3          	blt	t6,s2,80003ae4 <i_3623>

0000000080003afc <i_3628>:
    80003afc:	02cdd2b3          	divu	t0,s11,a2

0000000080003b00 <i_3629>:
    80003b00:	ea926b93          	ori	s7,tp,-343

0000000080003b04 <i_3630>:
    80003b04:	09615983          	lhu	s3,150(sp)

0000000080003b08 <i_3631>:
    80003b08:	06416d83          	lwu	s11,100(sp)

0000000080003b0c <i_3632>:
    80003b0c:	00c11b83          	lh	s7,12(sp)

0000000080003b10 <i_3633>:
    80003b10:	7b500613          	li	a2,1973

0000000080003b14 <i_3634>:
    80003b14:	7ba00593          	li	a1,1978

0000000080003b18 <i_3635>:
    80003b18:	20cde913          	ori	s2,s11,524

0000000080003b1c <i_3636>:
    80003b1c:	ff814c83          	lbu	s9,-8(sp)

0000000080003b20 <i_3637>:
    80003b20:	0379c9b3          	div	s3,s3,s7

0000000080003b24 <i_3638>:
    80003b24:	ef013e83          	ld	t4,-272(sp)

0000000080003b28 <i_3639>:
    80003b28:	1fb101a3          	sb	s11,483(sp)

0000000080003b2c <i_3640>:
    80003b2c:	01d9e313          	ori	t1,s3,29

0000000080003b30 <i_3641>:
    80003b30:	17816f83          	lwu	t6,376(sp)

0000000080003b34 <i_3642>:
    80003b34:	00000013          	nop

0000000080003b38 <i_3643>:
    80003b38:	01d91463          	bne	s2,t4,80003b40 <i_3645>

0000000080003b3c <i_3644>:
    80003b3c:	f8614903          	lbu	s2,-122(sp)

0000000080003b40 <i_3645>:
    80003b40:	0e816303          	lwu	t1,232(sp)

0000000080003b44 <i_3646>:
    80003b44:	024e8663          	beq	t4,tp,80003b70 <i_3656>

0000000080003b48 <i_3647>:
    80003b48:	02a54333          	div	t1,a0,a0

0000000080003b4c <i_3648>:
    80003b4c:	00160613          	addi	a2,a2,1 # 4420cad1 <main-0x3bdf352f>
    80003b50:	fcc5f4e3          	bleu	a2,a1,80003b18 <i_3635>

0000000080003b54 <i_3649>:
    80003b54:	fcc11523          	sh	a2,-54(sp)

0000000080003b58 <i_3650>:
    80003b58:	1df10923          	sb	t6,466(sp)

0000000080003b5c <i_3651>:
    80003b5c:	01a00513          	li	a0,26

0000000080003b60 <i_3652>:
    80003b60:	00af923b          	sllw	tp,t6,a0

0000000080003b64 <i_3653>:
    80003b64:	0037d993          	srli	s3,a5,0x3

0000000080003b68 <i_3654>:
    80003b68:	13c14903          	lbu	s2,316(sp)

0000000080003b6c <i_3655>:
    80003b6c:	01b00213          	li	tp,27

0000000080003b70 <i_3656>:
    80003b70:	004f9fb3          	sll	t6,t6,tp

0000000080003b74 <i_3657>:
    80003b74:	fd610703          	lb	a4,-42(sp)

0000000080003b78 <i_3658>:
    80003b78:	013907b3          	add	a5,s2,s3

0000000080003b7c <i_3659>:
    80003b7c:	00eb3933          	sltu	s2,s6,a4

0000000080003b80 <i_3660>:
    80003b80:	004f9d13          	slli	s10,t6,0x4

0000000080003b84 <i_3661>:
    80003b84:	f727071b          	addiw	a4,a4,-142

0000000080003b88 <i_3662>:
    80003b88:	0049da63          	ble	tp,s3,80003b9c <i_3667>

0000000080003b8c <i_3663>:
    80003b8c:	1d214c03          	lbu	s8,466(sp)

0000000080003b90 <i_3664>:
    80003b90:	01ad0e63          	beq	s10,s10,80003bac <i_3671>

0000000080003b94 <i_3665>:
    80003b94:	00321413          	slli	s0,tp,0x3

0000000080003b98 <i_3666>:
    80003b98:	00820463          	beq	tp,s0,80003ba0 <i_3668>

0000000080003b9c <i_3667>:
    80003b9c:	024c5f33          	divu	t5,s8,tp

0000000080003ba0 <i_3668>:
    80003ba0:	08013a03          	ld	s4,128(sp)

0000000080003ba4 <i_3669>:
    80003ba4:	01491c63          	bne	s2,s4,80003bbc <i_3675>

0000000080003ba8 <i_3670>:
    80003ba8:	404f521b          	sraiw	tp,t5,0x4

0000000080003bac <i_3671>:
    80003bac:	4174043b          	subw	s0,s0,s7

0000000080003bb0 <i_3672>:
    80003bb0:	13013c83          	ld	s9,304(sp)

0000000080003bb4 <i_3673>:
    80003bb4:	e1426c93          	ori	s9,tp,-492

0000000080003bb8 <i_3674>:
    80003bb8:	4039591b          	sraiw	s2,s2,0x3

0000000080003bbc <i_3675>:
    80003bbc:	01ec9a63          	bne	s9,t5,80003bd0 <i_3680>

0000000080003bc0 <i_3676>:
    80003bc0:	05e10fa3          	sb	t5,95(sp)

0000000080003bc4 <i_3677>:
    80003bc4:	e9412d83          	lw	s11,-364(sp)

0000000080003bc8 <i_3678>:
    80003bc8:	001cd213          	srli	tp,s9,0x1

0000000080003bcc <i_3679>:
    80003bcc:	03bc9063          	bne	s9,s11,80003bec <i_3687>

0000000080003bd0 <i_3680>:
    80003bd0:	e9911b23          	sh	s9,-362(sp)

0000000080003bd4 <i_3681>:
    80003bd4:	e3a11c83          	lh	s9,-454(sp)

0000000080003bd8 <i_3682>:
    80003bd8:	02813d83          	ld	s11,40(sp)

0000000080003bdc <i_3683>:
    80003bdc:	027c9263          	bne	s9,t2,80003c00 <i_3692>

0000000080003be0 <i_3684>:
    80003be0:	15816b03          	lwu	s6,344(sp)

0000000080003be4 <i_3685>:
    80003be4:	019b0e63          	beq	s6,s9,80003c00 <i_3692>

0000000080003be8 <i_3686>:
    80003be8:	e4510883          	lb	a7,-443(sp)

0000000080003bec <i_3687>:
    80003bec:	05013b03          	ld	s6,80(sp)

0000000080003bf0 <i_3688>:
    80003bf0:	17816b03          	lwu	s6,376(sp)

0000000080003bf4 <i_3689>:
    80003bf4:	00c88c63          	beq	a7,a2,80003c0c <i_3695>

0000000080003bf8 <i_3690>:
    80003bf8:	0f612823          	sw	s6,240(sp)

0000000080003bfc <i_3691>:
    80003bfc:	19611483          	lh	s1,406(sp)

0000000080003c00 <i_3692>:
    80003c00:	0168feb3          	and	t4,a7,s6

0000000080003c04 <i_3693>:
    80003c04:	ffc12b03          	lw	s6,-4(sp)

0000000080003c08 <i_3694>:
    80003c08:	00cb71b3          	and	gp,s6,a2

0000000080003c0c <i_3695>:
    80003c0c:	0fd10e23          	sb	t4,252(sp)

0000000080003c10 <i_3696>:
    80003c10:	12fe8193          	addi	gp,t4,303

0000000080003c14 <i_3697>:
    80003c14:	03f94db3          	div	s11,s2,t6

0000000080003c18 <i_3698>:
    80003c18:	01663533          	sltu	a0,a2,s6

0000000080003c1c <i_3699>:
    80003c1c:	4f4b0a13          	addi	s4,s6,1268

0000000080003c20 <i_3700>:
    80003c20:	01bb1863          	bne	s6,s11,80003c30 <i_3704>

0000000080003c24 <i_3701>:
    80003c24:	00a4d663          	ble	a0,s1,80003c30 <i_3704>

0000000080003c28 <i_3702>:
    80003c28:	00c00d13          	li	s10,12

0000000080003c2c <i_3703>:
    80003c2c:	01addabb          	srlw	s5,s11,s10

0000000080003c30 <i_3704>:
    80003c30:	016b7663          	bleu	s6,s6,80003c3c <i_3707>

0000000080003c34 <i_3705>:
    80003c34:	13013383          	ld	t2,304(sp)

0000000080003c38 <i_3706>:
    80003c38:	00611823          	sh	t1,16(sp)

0000000080003c3c <i_3707>:
    80003c3c:	0023db1b          	srliw	s6,t2,0x2

0000000080003c40 <i_3708>:
    80003c40:	0d3dfa97          	auipc	s5,0xd3df

0000000080003c44 <i_3709>:
    80003c44:	0365a5b3          	mulhsu	a1,a1,s6

0000000080003c48 <i_3710>:
    80003c48:	e8b13423          	sd	a1,-376(sp)

0000000080003c4c <i_3711>:
    80003c4c:	001af263          	bleu	ra,s5,80003c50 <i_3712>

0000000080003c50 <i_3712>:
    80003c50:	00bafe63          	bleu	a1,s5,80003c6c <i_3719>

0000000080003c54 <i_3713>:
    80003c54:	01aafcb3          	and	s9,s5,s10

0000000080003c58 <i_3714>:
    80003c58:	f7c16883          	lwu	a7,-132(sp)

0000000080003c5c <i_3715>:
    80003c5c:	0076d463          	ble	t2,a3,80003c64 <i_3717>

0000000080003c60 <i_3716>:
    80003c60:	01a00e13          	li	t3,26

0000000080003c64 <i_3717>:
    80003c64:	01c89b33          	sll	s6,a7,t3

0000000080003c68 <i_3718>:
    80003c68:	fed14583          	lbu	a1,-19(sp)

0000000080003c6c <i_3719>:
    80003c6c:	ec812b83          	lw	s7,-312(sp)

0000000080003c70 <i_3720>:
    80003c70:	f237b917          	auipc	s2,0xf237b

0000000080003c74 <i_3721>:
    80003c74:	1c514683          	lbu	a3,453(sp)

0000000080003c78 <i_3722>:
    80003c78:	0356e8bb          	remw	a7,a3,s5

0000000080003c7c <i_3723>:
    80003c7c:	83a00a93          	li	s5,-1990

0000000080003c80 <i_3724>:
    80003c80:	83f00b93          	li	s7,-1985

0000000080003c84 <i_3725>:
    80003c84:	03d00813          	li	a6,61

0000000080003c88 <i_3726>:
    80003c88:	410d52b3          	sra	t0,s10,a6

0000000080003c8c <i_3727>:
    80003c8c:	79b00d13          	li	s10,1947

0000000080003c90 <i_3728>:
    80003c90:	79d00693          	li	a3,1949

0000000080003c94 <i_3729>:
    80003c94:	e9813823          	sd	s8,-368(sp)

0000000080003c98 <i_3730>:
    80003c98:	e5c15803          	lhu	a6,-420(sp)

0000000080003c9c <i_3731>:
    80003c9c:	001d0d13          	addi	s10,s10,1
    80003ca0:	ffa6fae3          	bleu	s10,a3,80003c94 <i_3729>

0000000080003ca4 <i_3732>:
    80003ca4:	11813903          	ld	s2,280(sp)

0000000080003ca8 <i_3733>:
    80003ca8:	34457893          	andi	a7,a0,836

0000000080003cac <i_3734>:
    80003cac:	0108ec63          	bltu	a7,a6,80003cc4 <i_3739>

0000000080003cb0 <i_3735>:
    80003cb0:	e1b14503          	lbu	a0,-485(sp)

0000000080003cb4 <i_3736>:
    80003cb4:	001a8a93          	addi	s5,s5,1 # 8d3e2c41 <_end+0xd3d282d>
    80003cb8:	fd7a96e3          	bne	s5,s7,80003c84 <i_3725>

0000000080003cbc <i_3737>:
    80003cbc:	02c56633          	rem	a2,a0,a2

0000000080003cc0 <i_3738>:
    80003cc0:	02c6063b          	mulw	a2,a2,a2

0000000080003cc4 <i_3739>:
    80003cc4:	00c65a63          	ble	a2,a2,80003cd8 <i_3744>

0000000080003cc8 <i_3740>:
    80003cc8:	12c12e23          	sw	a2,316(sp)

0000000080003ccc <i_3741>:
    80003ccc:	1190f493          	andi	s1,ra,281

0000000080003cd0 <i_3742>:
    80003cd0:	02c10ca3          	sb	a2,57(sp)

0000000080003cd4 <i_3743>:
    80003cd4:	00f00613          	li	a2,15

0000000080003cd8 <i_3744>:
    80003cd8:	00c2d2bb          	srlw	t0,t0,a2

0000000080003cdc <i_3745>:
    80003cdc:	00200e93          	li	t4,2

0000000080003ce0 <i_3746>:
    80003ce0:	41d2d6b3          	sra	a3,t0,t4

0000000080003ce4 <i_3747>:
    80003ce4:	1a913823          	sd	s1,432(sp)

0000000080003ce8 <i_3748>:
    80003ce8:	f2513c23          	sd	t0,-200(sp)

0000000080003cec <i_3749>:
    80003cec:	e2816283          	lwu	t0,-472(sp)

0000000080003cf0 <i_3750>:
    80003cf0:	e5d103a3          	sb	t4,-441(sp)

0000000080003cf4 <i_3751>:
    80003cf4:	f2512823          	sw	t0,-208(sp)

0000000080003cf8 <i_3752>:
    80003cf8:	ff416183          	lwu	gp,-12(sp)

0000000080003cfc <i_3753>:
    80003cfc:	03deceb3          	div	t4,t4,t4

0000000080003d00 <i_3754>:
    80003d00:	1a513023          	sd	t0,416(sp)

0000000080003d04 <i_3755>:
    80003d04:	40ed0bb7          	lui	s7,0x40ed0

0000000080003d08 <i_3756>:
    80003d08:	0284543b          	divuw	s0,s0,s0

0000000080003d0c <i_3757>:
    80003d0c:	0251c8b3          	div	a7,gp,t0

0000000080003d10 <i_3758>:
    80003d10:	eb613c23          	sd	s6,-328(sp)

0000000080003d14 <i_3759>:
    80003d14:	00812023          	sw	s0,0(sp)

0000000080003d18 <i_3760>:
    80003d18:	0014531b          	srliw	t1,s0,0x1

0000000080003d1c <i_3761>:
    80003d1c:	00312a23          	sw	gp,20(sp)

0000000080003d20 <i_3762>:
    80003d20:	0252b633          	mulhu	a2,t0,t0

0000000080003d24 <i_3763>:
    80003d24:	017d5663          	ble	s7,s10,80003d30 <i_3766>

0000000080003d28 <i_3764>:
    80003d28:	fb215283          	lhu	t0,-78(sp)

0000000080003d2c <i_3765>:
    80003d2c:	0042d31b          	srliw	t1,t0,0x4

0000000080003d30 <i_3766>:
    80003d30:	18c12823          	sw	a2,400(sp)

0000000080003d34 <i_3767>:
    80003d34:	84b63613          	sltiu	a2,a2,-1973

0000000080003d38 <i_3768>:
    80003d38:	02c37e33          	remu	t3,t1,a2

0000000080003d3c <i_3769>:
    80003d3c:	e1c12983          	lw	s3,-484(sp)

0000000080003d40 <i_3770>:
    80003d40:	4a32fc93          	andi	s9,t0,1187

0000000080003d44 <i_3771>:
    80003d44:	02ca5463          	ble	a2,s4,80003d6c <i_3781>

0000000080003d48 <i_3772>:
    80003d48:	006e0e33          	add	t3,t3,t1

0000000080003d4c <i_3773>:
    80003d4c:	71a7aa13          	slti	s4,a5,1818

0000000080003d50 <i_3774>:
    80003d50:	f99105a3          	sb	s9,-117(sp)

0000000080003d54 <i_3775>:
    80003d54:	01775e63          	ble	s7,a4,80003d70 <i_3782>

0000000080003d58 <i_3776>:
    80003d58:	0f411783          	lh	a5,244(sp)

0000000080003d5c <i_3777>:
    80003d5c:	025cbcb3          	mulhu	s9,s9,t0

0000000080003d60 <i_3778>:
    80003d60:	d81ccd93          	xori	s11,s9,-639

0000000080003d64 <i_3779>:
    80003d64:	c9b84817          	auipc	a6,0xc9b84

0000000080003d68 <i_3780>:
    80003d68:	030781bb          	mulw	gp,a5,a6

0000000080003d6c <i_3781>:
    80003d6c:	0357bdb3          	mulhu	s11,a5,s5

0000000080003d70 <i_3782>:
    80003d70:	08e11123          	sh	a4,130(sp)

0000000080003d74 <i_3783>:
    80003d74:	03b12223          	sw	s11,36(sp)

0000000080003d78 <i_3784>:
    80003d78:	82300193          	li	gp,-2013

0000000080003d7c <i_3785>:
    80003d7c:	82d00d13          	li	s10,-2003

0000000080003d80 <i_3786>:
    80003d80:	ff310503          	lb	a0,-13(sp)

0000000080003d84 <i_3787>:
    80003d84:	026dd533          	divu	a0,s11,t1

0000000080003d88 <i_3788>:
    80003d88:	f1c11503          	lh	a0,-228(sp)

0000000080003d8c <i_3789>:
    80003d8c:	03100413          	li	s0,49

0000000080003d90 <i_3790>:
    80003d90:	00885633          	srl	a2,a6,s0

0000000080003d94 <i_3791>:
    80003d94:	19c11803          	lh	a6,412(sp)

0000000080003d98 <i_3792>:
    80003d98:	012d6863          	bltu	s10,s2,80003da8 <i_3796>

0000000080003d9c <i_3793>:
    80003d9c:	02890933          	mul	s2,s2,s0

0000000080003da0 <i_3794>:
    80003da0:	0329793b          	remuw	s2,s2,s2

0000000080003da4 <i_3795>:
    80003da4:	00281813          	slli	a6,a6,0x2

0000000080003da8 <i_3796>:
    80003da8:	03485463          	ble	s4,a6,80003dd0 <i_3805>

0000000080003dac <i_3797>:
    80003dac:	e6410ca3          	sb	tp,-391(sp)

0000000080003db0 <i_3798>:
    80003db0:	00118193          	addi	gp,gp,1
    80003db4:	fda1c6e3          	blt	gp,s10,80003d80 <i_3786>

0000000080003db8 <i_3799>:
    80003db8:	e8013183          	ld	gp,-384(sp)

0000000080003dbc <i_3800>:
    80003dbc:	1bf96213          	ori	tp,s2,447

0000000080003dc0 <i_3801>:
    80003dc0:	01284e63          	blt	a6,s2,80003ddc <i_3808>

0000000080003dc4 <i_3802>:
    80003dc4:	00e00413          	li	s0,14

0000000080003dc8 <i_3803>:
    80003dc8:	008f1f3b          	sllw	t5,t5,s0

0000000080003dcc <i_3804>:
    80003dcc:	0041f863          	bleu	tp,gp,80003ddc <i_3808>

0000000080003dd0 <i_3805>:
    80003dd0:	01268a33          	add	s4,a3,s2

0000000080003dd4 <i_3806>:
    80003dd4:	03e1d063          	ble	t5,gp,80003df4 <i_3814>

0000000080003dd8 <i_3807>:
    80003dd8:	e3016f03          	lwu	t5,-464(sp)

0000000080003ddc <i_3808>:
    80003ddc:	ed4101a3          	sb	s4,-317(sp)

0000000080003de0 <i_3809>:
    80003de0:	12813883          	ld	a7,296(sp)

0000000080003de4 <i_3810>:
    80003de4:	0346e463          	bltu	a3,s4,80003e0c <i_3820>

0000000080003de8 <i_3811>:
    80003de8:	a24f3a13          	sltiu	s4,t5,-1500

0000000080003dec <i_3812>:
    80003dec:	24ea0a1b          	addiw	s4,s4,590

0000000080003df0 <i_3813>:
    80003df0:	1d013a03          	ld	s4,464(sp)

0000000080003df4 <i_3814>:
    80003df4:	fc712023          	sw	t2,-64(sp)

0000000080003df8 <i_3815>:
    80003df8:	edc15f83          	lhu	t6,-292(sp)

0000000080003dfc <i_3816>:
    80003dfc:	11411623          	sh	s4,268(sp)

0000000080003e00 <i_3817>:
    80003e00:	00000013          	nop

0000000080003e04 <i_3818>:
    80003e04:	10712023          	sw	t2,256(sp)

0000000080003e08 <i_3819>:
    80003e08:	e5614a03          	lbu	s4,-426(sp)

0000000080003e0c <i_3820>:
    80003e0c:	0d413023          	sd	s4,192(sp)

0000000080003e10 <i_3821>:
    80003e10:	fb410a03          	lb	s4,-76(sp)

0000000080003e14 <i_3822>:
    80003e14:	80500893          	li	a7,-2043

0000000080003e18 <i_3823>:
    80003e18:	80e00393          	li	t2,-2034

0000000080003e1c <i_3824>:
    80003e1c:	e5f11723          	sh	t6,-434(sp)

0000000080003e20 <i_3825>:
    80003e20:	00188893          	addi	a7,a7,1
    80003e24:	ff13dce3          	ble	a7,t2,80003e1c <i_3824>

0000000080003e28 <i_3826>:
    80003e28:	014a7a33          	and	s4,s4,s4

0000000080003e2c <i_3827>:
    80003e2c:	014a4e63          	blt	s4,s4,80003e48 <i_3834>

0000000080003e30 <i_3828>:
    80003e30:	fc413023          	sd	tp,-64(sp)

0000000080003e34 <i_3829>:
    80003e34:	fde10ba3          	sb	t5,-41(sp)

0000000080003e38 <i_3830>:
    80003e38:	c6723c13          	sltiu	s8,tp,-921

0000000080003e3c <i_3831>:
    80003e3c:	d8aa0e13          	addi	t3,s4,-630

0000000080003e40 <i_3832>:
    80003e40:	e5c14a03          	lbu	s4,-420(sp)

0000000080003e44 <i_3833>:
    80003e44:	038e4cb3          	div	s9,t3,s8

0000000080003e48 <i_3834>:
    80003e48:	01013a03          	ld	s4,16(sp)

0000000080003e4c <i_3835>:
    80003e4c:	419605b3          	sub	a1,a2,s9

0000000080003e50 <i_3836>:
    80003e50:	7d200213          	li	tp,2002

0000000080003e54 <i_3837>:
    80003e54:	7db00b93          	li	s7,2011

0000000080003e58 <i_3838>:
    80003e58:	00b11e63          	bne	sp,a1,80003e74 <i_3844>

0000000080003e5c <i_3839>:
    80003e5c:	00120213          	addi	tp,tp,1 # 1 <main-0x7fffffff>
    80003e60:	fe4bfce3          	bleu	tp,s7,80003e58 <i_3838>

0000000080003e64 <i_3840>:
    80003e64:	1d411c23          	sh	s4,472(sp)

0000000080003e68 <i_3841>:
    80003e68:	019c9663          	bne	s9,s9,80003e74 <i_3844>

0000000080003e6c <i_3842>:
    80003e6c:	1cb11223          	sh	a1,452(sp)

0000000080003e70 <i_3843>:
    80003e70:	fce11c23          	sh	a4,-40(sp)

0000000080003e74 <i_3844>:
    80003e74:	14d12223          	sw	a3,324(sp)

0000000080003e78 <i_3845>:
    80003e78:	f4ca2593          	slti	a1,s4,-180

0000000080003e7c <i_3846>:
    80003e7c:	00ba0663          	beq	s4,a1,80003e88 <i_3849>

0000000080003e80 <i_3847>:
    80003e80:	0345b5b3          	mulhu	a1,a1,s4

0000000080003e84 <i_3848>:
    80003e84:	00016b03          	lwu	s6,0(sp)

0000000080003e88 <i_3849>:
    80003e88:	00b90263          	beq	s2,a1,80003e8c <i_3850>

0000000080003e8c <i_3850>:
    80003e8c:	1c411a03          	lh	s4,452(sp)

0000000080003e90 <i_3851>:
    80003e90:	fd412223          	sw	s4,-60(sp)

0000000080003e94 <i_3852>:
    80003e94:	ea414b03          	lbu	s6,-348(sp)

0000000080003e98 <i_3853>:
    80003e98:	0f414283          	lbu	t0,244(sp)

0000000080003e9c <i_3854>:
    80003e9c:	19611583          	lh	a1,406(sp)

0000000080003ea0 <i_3855>:
    80003ea0:	05416203          	lwu	tp,84(sp)

0000000080003ea4 <i_3856>:
    80003ea4:	1cb11323          	sh	a1,454(sp)

0000000080003ea8 <i_3857>:
    80003ea8:	ed813083          	ld	ra,-296(sp)

0000000080003eac <i_3858>:
    80003eac:	f8b12823          	sw	a1,-112(sp)

0000000080003eb0 <i_3859>:
    80003eb0:	e8413823          	sd	tp,-368(sp)

0000000080003eb4 <i_3860>:
    80003eb4:	7f700213          	li	tp,2039

0000000080003eb8 <i_3861>:
    80003eb8:	7fb00593          	li	a1,2043

0000000080003ebc <i_3862>:
    80003ebc:	06211603          	lh	a2,98(sp)

0000000080003ec0 <i_3863>:
    80003ec0:	002cd613          	srli	a2,s9,0x2

0000000080003ec4 <i_3864>:
    80003ec4:	ece11e23          	sh	a4,-292(sp)

0000000080003ec8 <i_3865>:
    80003ec8:	40cc86bb          	subw	a3,s9,a2

0000000080003ecc <i_3866>:
    80003ecc:	e2013c83          	ld	s9,-480(sp)

0000000080003ed0 <i_3867>:
    80003ed0:	14812603          	lw	a2,328(sp)

0000000080003ed4 <i_3868>:
    80003ed4:	02c61333          	mulh	t1,a2,a2

0000000080003ed8 <i_3869>:
    80003ed8:	ea415f03          	lhu	t5,-348(sp)

0000000080003edc <i_3870>:
    80003edc:	f4d11623          	sh	a3,-180(sp)

0000000080003ee0 <i_3871>:
    80003ee0:	f2a15603          	lhu	a2,-214(sp)

0000000080003ee4 <i_3872>:
    80003ee4:	02660fb3          	mul	t6,a2,t1

0000000080003ee8 <i_3873>:
    80003ee8:	02664063          	blt	a2,t1,80003f08 <i_3880>

0000000080003eec <i_3874>:
    80003eec:	fbe12223          	sw	t5,-92(sp)

0000000080003ef0 <i_3875>:
    80003ef0:	00375313          	srli	t1,a4,0x3

0000000080003ef4 <i_3876>:
    80003ef4:	00120213          	addi	tp,tp,1 # 1 <main-0x7fffffff>
    80003ef8:	fc45f2e3          	bleu	tp,a1,80003ebc <i_3862>

0000000080003efc <i_3877>:
    80003efc:	00000013          	nop

0000000080003f00 <i_3878>:
    80003f00:	00d35c63          	ble	a3,t1,80003f18 <i_3884>

0000000080003f04 <i_3879>:
    80003f04:	e5fffc13          	andi	s8,t6,-417

0000000080003f08 <i_3880>:
    80003f08:	00619463          	bne	gp,t1,80003f10 <i_3882>

0000000080003f0c <i_3881>:
    80003f0c:	f3910723          	sb	s9,-210(sp)

0000000080003f10 <i_3882>:
    80003f10:	eb811923          	sh	s8,-334(sp)

0000000080003f14 <i_3883>:
    80003f14:	01ffaab3          	slt	s5,t6,t6

0000000080003f18 <i_3884>:
    80003f18:	026a71bb          	remuw	gp,s4,t1

0000000080003f1c <i_3885>:
    80003f1c:	ed813c23          	sd	s8,-296(sp)

0000000080003f20 <i_3886>:
    80003f20:	ea013c03          	ld	s8,-352(sp)

0000000080003f24 <i_3887>:
    80003f24:	e9511d23          	sh	s5,-358(sp)

0000000080003f28 <i_3888>:
    80003f28:	12e11183          	lh	gp,302(sp)

0000000080003f2c <i_3889>:
    80003f2c:	11512e23          	sw	s5,284(sp)

0000000080003f30 <i_3890>:
    80003f30:	018fe263          	bltu	t6,s8,80003f34 <i_3891>

0000000080003f34 <i_3891>:
    80003f34:	00000013          	nop

0000000080003f38 <i_3892>:
    80003f38:	002c171b          	slliw	a4,s8,0x2

0000000080003f3c <i_3893>:
    80003f3c:	77200c13          	li	s8,1906

0000000080003f40 <i_3894>:
    80003f40:	78600093          	li	ra,1926

0000000080003f44 <i_3895>:
    80003f44:	17a14783          	lbu	a5,378(sp)

0000000080003f48 <i_3896>:
    80003f48:	ee011a83          	lh	s5,-288(sp)

0000000080003f4c <i_3897>:
    80003f4c:	e8014f83          	lbu	t6,-384(sp)

0000000080003f50 <i_3898>:
    80003f50:	e9013f83          	ld	t6,-368(sp)

0000000080003f54 <i_3899>:
    80003f54:	036a4a3b          	divw	s4,s4,s6

0000000080003f58 <i_3900>:
    80003f58:	e7410d23          	sb	s4,-390(sp)

0000000080003f5c <i_3901>:
    80003f5c:	1b910b03          	lb	s6,441(sp)

0000000080003f60 <i_3902>:
    80003f60:	09e11b83          	lh	s7,158(sp)

0000000080003f64 <i_3903>:
    80003f64:	06910b03          	lb	s6,105(sp)

0000000080003f68 <i_3904>:
    80003f68:	0bc12e03          	lw	t3,188(sp)

0000000080003f6c <i_3905>:
    80003f6c:	036e7ab3          	remu	s5,t3,s6

0000000080003f70 <i_3906>:
    80003f70:	06c15e03          	lhu	t3,108(sp)

0000000080003f74 <i_3907>:
    80003f74:	ee814b03          	lbu	s6,-280(sp)

0000000080003f78 <i_3908>:
    80003f78:	0b013f03          	ld	t5,176(sp)

0000000080003f7c <i_3909>:
    80003f7c:	1e615403          	lhu	s0,486(sp)

0000000080003f80 <i_3910>:
    80003f80:	01698b33          	add	s6,s3,s6

0000000080003f84 <i_3911>:
    80003f84:	001c0c13          	addi	s8,s8,1
    80003f88:	fb80fee3          	bleu	s8,ra,80003f44 <i_3895>

0000000080003f8c <i_3912>:
    80003f8c:	01541863          	bne	s0,s5,80003f9c <i_3916>

0000000080003f90 <i_3913>:
    80003f90:	18013083          	ld	ra,384(sp)

0000000080003f94 <i_3914>:
    80003f94:	0dc102a3          	sb	t3,197(sp)

0000000080003f98 <i_3915>:
    80003f98:	026e6063          	bltu	t3,t1,80003fb8 <i_3923>

0000000080003f9c <i_3916>:
    80003f9c:	06714403          	lbu	s0,103(sp)

0000000080003fa0 <i_3917>:
    80003fa0:	037b453b          	divw	a0,s6,s7

0000000080003fa4 <i_3918>:
    80003fa4:	017b7863          	bleu	s7,s6,80003fb4 <i_3922>

0000000080003fa8 <i_3919>:
    80003fa8:	00000013          	nop

0000000080003fac <i_3920>:
    80003fac:	017bcbb3          	xor	s7,s7,s7

0000000080003fb0 <i_3921>:
    80003fb0:	0e510203          	lb	tp,229(sp)

0000000080003fb4 <i_3922>:
    80003fb4:	4035d693          	srai	a3,a1,0x3

0000000080003fb8 <i_3923>:
    80003fb8:	1ae11503          	lh	a0,430(sp)

0000000080003fbc <i_3924>:
    80003fbc:	037d6d3b          	remw	s10,s10,s7

0000000080003fc0 <i_3925>:
    80003fc0:	89300a93          	li	s5,-1901

0000000080003fc4 <i_3926>:
    80003fc4:	89d00893          	li	a7,-1891

0000000080003fc8 <i_3927>:
    80003fc8:	f5c11083          	lh	ra,-164(sp)

0000000080003fcc <i_3928>:
    80003fcc:	05211083          	lh	ra,82(sp)

0000000080003fd0 <i_3929>:
    80003fd0:	ffe14703          	lbu	a4,-2(sp)

0000000080003fd4 <i_3930>:
    80003fd4:	011eda63          	ble	a7,t4,80003fe8 <i_3935>

0000000080003fd8 <i_3931>:
    80003fd8:	00000013          	nop

0000000080003fdc <i_3932>:
    80003fdc:	6dd0be93          	sltiu	t4,ra,1757

0000000080003fe0 <i_3933>:
    80003fe0:	001af4b3          	and	s1,s5,ra

0000000080003fe4 <i_3934>:
    80003fe4:	00200213          	li	tp,2

0000000080003fe8 <i_3935>:
    80003fe8:	004750bb          	srlw	ra,a4,tp

0000000080003fec <i_3936>:
    80003fec:	e3d13423          	sd	t4,-472(sp)

0000000080003ff0 <i_3937>:
    80003ff0:	001a8a93          	addi	s5,s5,1
    80003ff4:	fd589ae3          	bne	a7,s5,80003fc8 <i_3927>

0000000080003ff8 <i_3938>:
    80003ff8:	0054b0b3          	sltu	ra,s1,t0

0000000080003ffc <i_3939>:
    80003ffc:	00100c13          	li	s8,1

0000000080004000 <i_3940>:
    80004000:	018250b3          	srl	ra,tp,s8

0000000080004004 <i_3941>:
    80004004:	0092a2b3          	slt	t0,t0,s1

0000000080004008 <i_3942>:
    80004008:	fe015283          	lhu	t0,-32(sp)

000000008000400c <i_3943>:
    8000400c:	17114883          	lbu	a7,369(sp)

0000000080004010 <i_3944>:
    80004010:	0092fe63          	bleu	s1,t0,8000402c <i_3951>

0000000080004014 <i_3945>:
    80004014:	0a813203          	ld	tp,168(sp)

0000000080004018 <i_3946>:
    80004018:	00000013          	nop

000000008000401c <i_3947>:
    8000401c:	11816e83          	lwu	t4,280(sp)

0000000080004020 <i_3948>:
    80004020:	00000013          	nop

0000000080004024 <i_3949>:
    80004024:	fa710e83          	lb	t4,-89(sp)

0000000080004028 <i_3950>:
    80004028:	71774e97          	auipc	t4,0x71774

000000008000402c <i_3951>:
    8000402c:	f5c12e83          	lw	t4,-164(sp)

0000000080004030 <i_3952>:
    80004030:	40ae8533          	sub	a0,t4,a0

0000000080004034 <i_3953>:
    80004034:	79e00593          	li	a1,1950

0000000080004038 <i_3954>:
    80004038:	7ae00b93          	li	s7,1966

000000008000403c <i_3955>:
    8000403c:	00000013          	nop

0000000080004040 <i_3956>:
    80004040:	01d530b3          	sltu	ra,a0,t4

0000000080004044 <i_3957>:
    80004044:	00000013          	nop

0000000080004048 <i_3958>:
    80004048:	004e9e93          	slli	t4,t4,0x4

000000008000404c <i_3959>:
    8000404c:	00158593          	addi	a1,a1,1 # 9eef9b25 <_end+0x1eee9711>
    80004050:	ff75e6e3          	bltu	a1,s7,8000403c <i_3955>

0000000080004054 <i_3960>:
    80004054:	02985063          	ble	s1,a6,80004074 <i_3968>

0000000080004058 <i_3961>:
    80004058:	00ae8eb3          	add	t4,t4,a0

000000008000405c <i_3962>:
    8000405c:	e9415883          	lhu	a7,-364(sp)

0000000080004060 <i_3963>:
    80004060:	e6013c83          	ld	s9,-416(sp)

0000000080004064 <i_3964>:
    80004064:	03d13823          	sd	t4,48(sp)

0000000080004068 <i_3965>:
    80004068:	401d823b          	subw	tp,s11,ra

000000008000406c <i_3966>:
    8000406c:	27f26e93          	ori	t4,tp,639

0000000080004070 <i_3967>:
    80004070:	f1d10823          	sb	t4,-240(sp)

0000000080004074 <i_3968>:
    80004074:	f0011083          	lh	ra,-256(sp)

0000000080004078 <i_3969>:
    80004078:	00125663          	ble	ra,tp,80004084 <i_3972>

000000008000407c <i_3970>:
    8000407c:	004ccd33          	xor	s10,s9,tp

0000000080004080 <i_3971>:
    80004080:	00120863          	beq	tp,ra,80004090 <i_3975>

0000000080004084 <i_3972>:
    80004084:	03909263          	bne	ra,s9,800040a8 <i_3981>

0000000080004088 <i_3973>:
    80004088:	03918063          	beq	gp,s9,800040a8 <i_3981>

000000008000408c <i_3974>:
    8000408c:	a16ca093          	slti	ra,s9,-1514

0000000080004090 <i_3975>:
    80004090:	00000013          	nop

0000000080004094 <i_3976>:
    80004094:	00500093          	li	ra,5

0000000080004098 <i_3977>:
    80004098:	40155bbb          	sraw	s7,a0,ra

000000008000409c <i_3978>:
    8000409c:	15912223          	sw	s9,324(sp)

00000000800040a0 <i_3979>:
    800040a0:	e9615803          	lhu	a6,-362(sp)

00000000800040a4 <i_3980>:
    800040a4:	0300fbbb          	remuw	s7,ra,a6

00000000800040a8 <i_3981>:
    800040a8:	010bc6b3          	xor	a3,s7,a6

00000000800040ac <i_3982>:
    800040ac:	4034d31b          	sraiw	t1,s1,0x3

00000000800040b0 <i_3983>:
    800040b0:	84900513          	li	a0,-1975

00000000800040b4 <i_3984>:
    800040b4:	85100c93          	li	s9,-1967

00000000800040b8 <i_3985>:
    800040b8:	f0511023          	sh	t0,-256(sp)

00000000800040bc <i_3986>:
    800040bc:	00f80933          	add	s2,a6,a5

00000000800040c0 <i_3987>:
    800040c0:	40d10db3          	sub	s11,sp,a3

00000000800040c4 <i_3988>:
    800040c4:	e3810f03          	lb	t5,-456(sp)

00000000800040c8 <i_3989>:
    800040c8:	004f5793          	srli	a5,t5,0x4

00000000800040cc <i_3990>:
    800040cc:	01b11e23          	sh	s11,28(sp)

00000000800040d0 <i_3991>:
    800040d0:	00000013          	nop

00000000800040d4 <i_3992>:
    800040d4:	02816083          	lwu	ra,40(sp)

00000000800040d8 <i_3993>:
    800040d8:	02b10e03          	lb	t3,43(sp)

00000000800040dc <i_3994>:
    800040dc:	00150513          	addi	a0,a0,1 # 3fd5f001 <main-0x402a0fff>
    800040e0:	fd954ce3          	blt	a0,s9,800040b8 <i_3985>

00000000800040e4 <i_3995>:
    800040e4:	0a214c83          	lbu	s9,162(sp)

00000000800040e8 <i_3996>:
    800040e8:	03ce2633          	mulhsu	a2,t3,t3

00000000800040ec <i_3997>:
    800040ec:	0dc13423          	sd	t3,200(sp)

00000000800040f0 <i_3998>:
    800040f0:	0c912e23          	sw	s1,220(sp)

00000000800040f4 <i_3999>:
    800040f4:	00500613          	li	a2,5

00000000800040f8 <i_4000>:
    800040f8:	00c614b3          	sll	s1,a2,a2

00000000800040fc <i_4001>:
    800040fc:	02887463          	bleu	s0,a6,80004124 <i_4011>

0000000080004100 <i_4002>:
    80004100:	02c6683b          	remw	a6,a2,a2

0000000080004104 <i_4003>:
    80004104:	40c608b3          	sub	a7,a2,a2

0000000080004108 <i_4004>:
    80004108:	ff412e83          	lw	t4,-12(sp)

000000008000410c <i_4005>:
    8000410c:	02cef8b3          	remu	a7,t4,a2

0000000080004110 <i_4006>:
    80004110:	fbd11623          	sh	t4,-84(sp)

0000000080004114 <i_4007>:
    80004114:	15d11f23          	sh	t4,350(sp)

0000000080004118 <i_4008>:
    80004118:	f4c10823          	sb	a2,-176(sp)

000000008000411c <i_4009>:
    8000411c:	031aa7b3          	mulhsu	a5,s5,a7

0000000080004120 <i_4010>:
    80004120:	00c60a63          	beq	a2,a2,80004134 <i_4015>

0000000080004124 <i_4011>:
    80004124:	03c16d03          	lwu	s10,60(sp)

0000000080004128 <i_4012>:
    80004128:	eb016783          	lwu	a5,-336(sp)

000000008000412c <i_4013>:
    8000412c:	00f67c63          	bleu	a5,a2,80004144 <i_4019>

0000000080004130 <i_4014>:
    80004130:	00c4d863          	ble	a2,s1,80004140 <i_4018>

0000000080004134 <i_4015>:
    80004134:	01d65e63          	ble	t4,a2,80004150 <i_4022>

0000000080004138 <i_4016>:
    80004138:	03aa0bb3          	mul	s7,s4,s10

000000008000413c <i_4017>:
    8000413c:	03800793          	li	a5,56

0000000080004140 <i_4018>:
    80004140:	00f4da33          	srl	s4,s1,a5

0000000080004144 <i_4019>:
    80004144:	03fd1263          	bne	s10,t6,80004168 <i_4028>

0000000080004148 <i_4020>:
    80004148:	e9813503          	ld	a0,-360(sp)

000000008000414c <i_4021>:
    8000414c:	00c8fa63          	bleu	a2,a7,80004160 <i_4026>

0000000080004150 <i_4022>:
    80004150:	e5112a23          	sw	a7,-428(sp)

0000000080004154 <i_4023>:
    80004154:	00f00b93          	li	s7,15

0000000080004158 <i_4024>:
    80004158:	017618bb          	sllw	a7,a2,s7

000000008000415c <i_4025>:
    8000415c:	00000013          	nop

0000000080004160 <i_4026>:
    80004160:	03eeca3b          	divw	s4,t4,t5

0000000080004164 <i_4027>:
    80004164:	e6f10123          	sb	a5,-414(sp)

0000000080004168 <i_4028>:
    80004168:	025a683b          	remw	a6,s4,t0

000000008000416c <i_4029>:
    8000416c:	00000013          	nop

0000000080004170 <i_4030>:
    80004170:	8be00613          	li	a2,-1858

0000000080004174 <i_4031>:
    80004174:	8c800c13          	li	s8,-1848

0000000080004178 <i_4032>:
    80004178:	70c58e37          	lui	t3,0x70c58

000000008000417c <i_4033>:
    8000417c:	17c101a3          	sb	t3,355(sp)

0000000080004180 <i_4034>:
    80004180:	ecc13c23          	sd	a2,-296(sp)

0000000080004184 <i_4035>:
    80004184:	14411583          	lh	a1,324(sp)

0000000080004188 <i_4036>:
    80004188:	00ce2e33          	slt	t3,t3,a2

000000008000418c <i_4037>:
    8000418c:	e6011503          	lh	a0,-416(sp)

0000000080004190 <i_4038>:
    80004190:	00cefc63          	bleu	a2,t4,800041a8 <i_4043>

0000000080004194 <i_4039>:
    80004194:	f2611e03          	lh	t3,-218(sp)

0000000080004198 <i_4040>:
    80004198:	00160613          	addi	a2,a2,1
    8000419c:	fd861ee3          	bne	a2,s8,80004178 <i_4032>

00000000800041a0 <i_4041>:
    800041a0:	fe816283          	lwu	t0,-24(sp)

00000000800041a4 <i_4042>:
    800041a4:	07c12223          	sw	t3,100(sp)

00000000800041a8 <i_4043>:
    800041a8:	01c2c463          	blt	t0,t3,800041b0 <i_4045>

00000000800041ac <i_4044>:
    800041ac:	e5211583          	lh	a1,-430(sp)

00000000800041b0 <i_4045>:
    800041b0:	03300e13          	li	t3,51

00000000800041b4 <i_4046>:
    800041b4:	01c51e33          	sll	t3,a0,t3

00000000800041b8 <i_4047>:
    800041b8:	f8a10d03          	lb	s10,-118(sp)

00000000800041bc <i_4048>:
    800041bc:	401e5e1b          	sraiw	t3,t3,0x1

00000000800041c0 <i_4049>:
    800041c0:	ef615e03          	lhu	t3,-266(sp)

00000000800041c4 <i_4050>:
    800041c4:	e2016203          	lwu	tp,-480(sp)

00000000800041c8 <i_4051>:
    800041c8:	03ce2e33          	mulhsu	t3,t3,t3

00000000800041cc <i_4052>:
    800041cc:	02412a23          	sw	tp,52(sp)

00000000800041d0 <i_4053>:
    800041d0:	00000013          	nop

00000000800041d4 <i_4054>:
    800041d4:	77700593          	li	a1,1911

00000000800041d8 <i_4055>:
    800041d8:	78700a13          	li	s4,1927

00000000800041dc <i_4056>:
    800041dc:	00b6d863          	ble	a1,a3,800041ec <i_4060>

00000000800041e0 <i_4057>:
    800041e0:	00000013          	nop

00000000800041e4 <i_4058>:
    800041e4:	e1914503          	lbu	a0,-487(sp)

00000000800041e8 <i_4059>:
    800041e8:	02ca063b          	mulw	a2,s4,a2

00000000800041ec <i_4060>:
    800041ec:	02c12823          	sw	a2,48(sp)

00000000800041f0 <i_4061>:
    800041f0:	02be1eb3          	mulh	t4,t3,a1

00000000800041f4 <i_4062>:
    800041f4:	f1510f03          	lb	t5,-235(sp)

00000000800041f8 <i_4063>:
    800041f8:	00158593          	addi	a1,a1,1
    800041fc:	ff45c0e3          	blt	a1,s4,800041dc <i_4056>

0000000080004200 <i_4064>:
    80004200:	011c5463          	ble	a7,s8,80004208 <i_4066>

0000000080004204 <i_4065>:
    80004204:	00bf6263          	bltu	t5,a1,80004208 <i_4066>

0000000080004208 <i_4066>:
    80004208:	fdc13023          	sd	t3,-64(sp)

000000008000420c <i_4067>:
    8000420c:	00500513          	li	a0,5

0000000080004210 <i_4068>:
    80004210:	00a11dbb          	sllw	s11,sp,a0

0000000080004214 <i_4069>:
    80004214:	004e4663          	blt	t3,tp,80004220 <i_4072>

0000000080004218 <i_4070>:
    80004218:	00159e13          	slli	t3,a1,0x1

000000008000421c <i_4071>:
    8000421c:	05012883          	lw	a7,80(sp)

0000000080004220 <i_4072>:
    80004220:	014fc263          	blt	t6,s4,80004224 <i_4073>

0000000080004224 <i_4073>:
    80004224:	59f88617          	auipc	a2,0x59f88

0000000080004228 <i_4074>:
    80004228:	02c58063          	beq	a1,a2,80004248 <i_4082>

000000008000422c <i_4075>:
    8000422c:	01ca71b3          	and	gp,s4,t3

0000000080004230 <i_4076>:
    80004230:	40888e33          	sub	t3,a7,s0

0000000080004234 <i_4077>:
    80004234:	f0a15c83          	lhu	s9,-246(sp)

0000000080004238 <i_4078>:
    80004238:	13015c83          	lhu	s9,304(sp)

000000008000423c <i_4079>:
    8000423c:	08416803          	lwu	a6,132(sp)

0000000080004240 <i_4080>:
    80004240:	f2416203          	lwu	tp,-220(sp)

0000000080004244 <i_4081>:
    80004244:	03f3533b          	divuw	t1,t1,t6

0000000080004248 <i_4082>:
    80004248:	b8e30893          	addi	a7,t1,-1138

000000008000424c <i_4083>:
    8000424c:	0260cfbb          	divw	t6,ra,t1

0000000080004250 <i_4084>:
    80004250:	fa6102a3          	sb	t1,-91(sp)

0000000080004254 <i_4085>:
    80004254:	01f31263          	bne	t1,t6,80004258 <i_4086>

0000000080004258 <i_4086>:
    80004258:	02618263          	beq	gp,t1,8000427c <i_4095>

000000008000425c <i_4087>:
    8000425c:	03f34e3b          	divw	t3,t1,t6

0000000080004260 <i_4088>:
    80004260:	01fe3e33          	sltu	t3,t3,t6

0000000080004264 <i_4089>:
    80004264:	18615483          	lhu	s1,390(sp)

0000000080004268 <i_4090>:
    80004268:	8c4dcfb7          	lui	t6,0x8c4dc

000000008000426c <i_4091>:
    8000426c:	40d7073b          	subw	a4,a4,a3

0000000080004270 <i_4092>:
    80004270:	01a70a63          	beq	a4,s10,80004284 <i_4097>

0000000080004274 <i_4093>:
    80004274:	0eb10283          	lb	t0,235(sp)

0000000080004278 <i_4094>:
    80004278:	fc511223          	sh	t0,-60(sp)

000000008000427c <i_4095>:
    8000427c:	0cc14283          	lbu	t0,204(sp)

0000000080004280 <i_4096>:
    80004280:	0847d1b7          	lui	gp,0x847d

0000000080004284 <i_4097>:
    80004284:	0312b633          	mulhu	a2,t0,a7

0000000080004288 <i_4098>:
    80004288:	e8c16b03          	lwu	s6,-372(sp)

000000008000428c <i_4099>:
    8000428c:	01914283          	lbu	t0,25(sp)

0000000080004290 <i_4100>:
    80004290:	02cd6263          	bltu	s10,a2,800042b4 <i_4109>

0000000080004294 <i_4101>:
    80004294:	e8611283          	lh	t0,-378(sp)

0000000080004298 <i_4102>:
    80004298:	00600493          	li	s1,6

000000008000429c <i_4103>:
    8000429c:	009b5633          	srl	a2,s6,s1

00000000800042a0 <i_4104>:
    800042a0:	00461293          	slli	t0,a2,0x4

00000000800042a4 <i_4105>:
    800042a4:	02f65bb3          	divu	s7,a2,a5

00000000800042a8 <i_4106>:
    800042a8:	11711a23          	sh	s7,276(sp)

00000000800042ac <i_4107>:
    800042ac:	ff711023          	sh	s7,-32(sp)

00000000800042b0 <i_4108>:
    800042b0:	01d60633          	add	a2,a2,t4

00000000800042b4 <i_4109>:
    800042b4:	037b4a3b          	divw	s4,s6,s7

00000000800042b8 <i_4110>:
    800042b8:	f1f2cb93          	xori	s7,t0,-225

00000000800042bc <i_4111>:
    800042bc:	88f00493          	li	s1,-1905

00000000800042c0 <i_4112>:
    800042c0:	8a000b13          	li	s6,-1888

00000000800042c4 <i_4113>:
    800042c4:	ff811e83          	lh	t4,-8(sp)

00000000800042c8 <i_4114>:
    800042c8:	1a813a03          	ld	s4,424(sp)

00000000800042cc <i_4115>:
    800042cc:	00151f13          	slli	t5,a0,0x1

00000000800042d0 <i_4116>:
    800042d0:	00148493          	addi	s1,s1,1 # 9b2854d5 <_end+0x1b2750c1>
    800042d4:	fe9b58e3          	ble	s1,s6,800042c4 <i_4113>

00000000800042d8 <i_4117>:
    800042d8:	0c013083          	ld	ra,192(sp)

00000000800042dc <i_4118>:
    800042dc:	0010db1b          	srliw	s6,ra,0x1

00000000800042e0 <i_4119>:
    800042e0:	19c15a03          	lhu	s4,412(sp)

00000000800042e4 <i_4120>:
    800042e4:	1cc12283          	lw	t0,460(sp)

00000000800042e8 <i_4121>:
    800042e8:	ef816503          	lwu	a0,-264(sp)

00000000800042ec <i_4122>:
    800042ec:	10013203          	ld	tp,256(sp)

00000000800042f0 <i_4123>:
    800042f0:	1d813683          	ld	a3,472(sp)

00000000800042f4 <i_4124>:
    800042f4:	55a268b7          	lui	a7,0x55a26

00000000800042f8 <i_4125>:
    800042f8:	034ec5b3          	div	a1,t4,s4

00000000800042fc <i_4126>:
    800042fc:	eca11123          	sh	a0,-318(sp)

0000000080004300 <i_4127>:
    80004300:	025b09bb          	mulw	s3,s6,t0

0000000080004304 <i_4128>:
    80004304:	0165ee63          	bltu	a1,s6,80004320 <i_4135>

0000000080004308 <i_4129>:
    80004308:	00123333          	sltu	t1,tp,ra

000000008000430c <i_4130>:
    8000430c:	1b710f03          	lb	t5,439(sp)

0000000080004310 <i_4131>:
    80004310:	00000013          	nop

0000000080004314 <i_4132>:
    80004314:	f3e10d23          	sb	t5,-198(sp)

0000000080004318 <i_4133>:
    80004318:	8c598313          	addi	t1,s3,-1851

000000008000431c <i_4134>:
    8000431c:	eea11d03          	lh	s10,-278(sp)

0000000080004320 <i_4135>:
    80004320:	8c9d7d13          	andi	s10,s10,-1847

0000000080004324 <i_4136>:
    80004324:	1b812f03          	lw	t5,440(sp)

0000000080004328 <i_4137>:
    80004328:	73e00213          	li	tp,1854

000000008000432c <i_4138>:
    8000432c:	74b00513          	li	a0,1867

0000000080004330 <i_4139>:
    80004330:	1a410b83          	lb	s7,420(sp)

0000000080004334 <i_4140>:
    80004334:	03a365b3          	rem	a1,t1,s10

0000000080004338 <i_4141>:
    80004338:	03c3e93b          	remw	s2,t2,t3

000000008000433c <i_4142>:
    8000433c:	01ce0e33          	add	t3,t3,t3

0000000080004340 <i_4143>:
    80004340:	f5816a83          	lwu	s5,-168(sp)

0000000080004344 <i_4144>:
    80004344:	00000013          	nop

0000000080004348 <i_4145>:
    80004348:	00279c9b          	slliw	s9,a5,0x2

000000008000434c <i_4146>:
    8000434c:	0075c263          	blt	a1,t2,80004350 <i_4147>

0000000080004350 <i_4147>:
    80004350:	00be8c33          	add	s8,t4,a1

0000000080004354 <i_4148>:
    80004354:	03bc5263          	ble	s11,s8,80004378 <i_4156>

0000000080004358 <i_4149>:
    80004358:	00120213          	addi	tp,tp,1 # 1 <main-0x7fffffff>
    8000435c:	fca26ae3          	bltu	tp,a0,80004330 <i_4139>

0000000080004360 <i_4150>:
    80004360:	1dc14d83          	lbu	s11,476(sp)

0000000080004364 <i_4151>:
    80004364:	03bc0db3          	mul	s11,s8,s11

0000000080004368 <i_4152>:
    80004368:	031df8bb          	remuw	a7,s11,a7

000000008000436c <i_4153>:
    8000436c:	f4011583          	lh	a1,-192(sp)

0000000080004370 <i_4154>:
    80004370:	08a10a03          	lb	s4,138(sp)

0000000080004374 <i_4155>:
    80004374:	e6e10403          	lb	s0,-402(sp)

0000000080004378 <i_4156>:
    80004378:	f2013583          	ld	a1,-224(sp)

000000008000437c <i_4157>:
    8000437c:	00b5d863          	ble	a1,a1,8000438c <i_4161>

0000000080004380 <i_4158>:
    80004380:	01810c23          	sb	s8,24(sp)

0000000080004384 <i_4159>:
    80004384:	0115ea63          	bltu	a1,a7,80004398 <i_4164>

0000000080004388 <i_4160>:
    80004388:	09910d83          	lb	s11,153(sp)

000000008000438c <i_4161>:
    8000438c:	029c58b3          	divu	a7,s8,s1

0000000080004390 <i_4162>:
    80004390:	1b013783          	ld	a5,432(sp)

0000000080004394 <i_4163>:
    80004394:	e8412f83          	lw	t6,-380(sp)

0000000080004398 <i_4164>:
    80004398:	0238c733          	div	a4,a7,gp

000000008000439c <i_4165>:
    8000439c:	f2b10f03          	lb	t5,-213(sp)

00000000800043a0 <i_4166>:
    800043a0:	76246493          	ori	s1,s0,1890

00000000800043a4 <i_4167>:
    800043a4:	f7015583          	lhu	a1,-144(sp)

00000000800043a8 <i_4168>:
    800043a8:	00bcd663          	ble	a1,s9,800043b4 <i_4171>

00000000800043ac <i_4169>:
    800043ac:	034669b3          	rem	s3,a2,s4

00000000800043b0 <i_4170>:
    800043b0:	ef816483          	lwu	s1,-264(sp)

00000000800043b4 <i_4171>:
    800043b4:	001ed913          	srli	s2,t4,0x1

00000000800043b8 <i_4172>:
    800043b8:	01fa0e63          	beq	s4,t6,800043d4 <i_4179>

00000000800043bc <i_4173>:
    800043bc:	f1ca7c37          	lui	s8,0xf1ca7

00000000800043c0 <i_4174>:
    800043c0:	f3615903          	lhu	s2,-202(sp)

00000000800043c4 <i_4175>:
    800043c4:	257c059b          	addiw	a1,s8,599

00000000800043c8 <i_4176>:
    800043c8:	0385d263          	ble	s8,a1,800043ec <i_4185>

00000000800043cc <i_4177>:
    800043cc:	3cc42ab7          	lui	s5,0x3cc42

00000000800043d0 <i_4178>:
    800043d0:	06f12e23          	sw	a5,124(sp)

00000000800043d4 <i_4179>:
    800043d4:	f9414783          	lbu	a5,-108(sp)

00000000800043d8 <i_4180>:
    800043d8:	00ba8cb3          	add	s9,s5,a1

00000000800043dc <i_4181>:
    800043dc:	11810f23          	sb	s8,286(sp)

00000000800043e0 <i_4182>:
    800043e0:	02ff4f3b          	divw	t5,t5,a5

00000000800043e4 <i_4183>:
    800043e4:	4cbd9d17          	auipc	s10,0x4cbd9

00000000800043e8 <i_4184>:
    800043e8:	019cc263          	blt	s9,s9,800043ec <i_4185>

00000000800043ec <i_4185>:
    800043ec:	11612623          	sw	s6,268(sp)

00000000800043f0 <i_4186>:
    800043f0:	02cef2bb          	remuw	t0,t4,a2

00000000800043f4 <i_4187>:
    800043f4:	77c00813          	li	a6,1916

00000000800043f8 <i_4188>:
    800043f8:	78100f93          	li	t6,1921

00000000800043fc <i_4189>:
    800043fc:	0252fcb3          	remu	s9,t0,t0

0000000080004400 <i_4190>:
    80004400:	404fd19b          	sraiw	gp,t6,0x4

0000000080004404 <i_4191>:
    80004404:	e2510923          	sb	t0,-462(sp)

0000000080004408 <i_4192>:
    80004408:	08211583          	lh	a1,130(sp)

000000008000440c <i_4193>:
    8000440c:	41928cbb          	subw	s9,t0,s9

0000000080004410 <i_4194>:
    80004410:	e4412703          	lw	a4,-444(sp)

0000000080004414 <i_4195>:
    80004414:	00180813          	addi	a6,a6,1 # 49b87d65 <main-0x3647829b>
    80004418:	ff0ff2e3          	bleu	a6,t6,800043fc <i_4189>

000000008000441c <i_4196>:
    8000441c:	0261ed3b          	remw	s10,gp,t1

0000000080004420 <i_4197>:
    80004420:	e7412183          	lw	gp,-396(sp)

0000000080004424 <i_4198>:
    80004424:	fda10183          	lb	gp,-38(sp)

0000000080004428 <i_4199>:
    80004428:	f2511123          	sh	t0,-222(sp)

000000008000442c <i_4200>:
    8000442c:	15c12223          	sw	t3,324(sp)

0000000080004430 <i_4201>:
    80004430:	03970f3b          	mulw	t5,a4,s9

0000000080004434 <i_4202>:
    80004434:	027fc3bb          	divw	t2,t6,t2

0000000080004438 <i_4203>:
    80004438:	01990e63          	beq	s2,s9,80004454 <i_4210>

000000008000443c <i_4204>:
    8000443c:	f9013f03          	ld	t5,-112(sp)

0000000080004440 <i_4205>:
    80004440:	02e743b3          	div	t2,a4,a4

0000000080004444 <i_4206>:
    80004444:	0391ab33          	mulhsu	s6,gp,s9

0000000080004448 <i_4207>:
    80004448:	19211c83          	lh	s9,402(sp)

000000008000444c <i_4208>:
    8000444c:	03ef0463          	beq	t5,t5,80004474 <i_4218>

0000000080004450 <i_4209>:
    80004450:	03ef1263          	bne	t5,t5,80004474 <i_4218>

0000000080004454 <i_4210>:
    80004454:	03eb58bb          	divuw	a7,s6,t5

0000000080004458 <i_4211>:
    80004458:	039ccb33          	div	s6,s9,s9

000000008000445c <i_4212>:
    8000445c:	ffe12623          	sw	t5,-20(sp)

0000000080004460 <i_4213>:
    80004460:	03eb0b3b          	mulw	s6,s6,t5

0000000080004464 <i_4214>:
    80004464:	03ef6b3b          	remw	s6,t5,t5

0000000080004468 <i_4215>:
    80004468:	f3614a03          	lbu	s4,-202(sp)

000000008000446c <i_4216>:
    8000446c:	f5812c83          	lw	s9,-168(sp)

0000000080004470 <i_4217>:
    80004470:	fbe12a23          	sw	t5,-76(sp)

0000000080004474 <i_4218>:
    80004474:	f9210703          	lb	a4,-110(sp)

0000000080004478 <i_4219>:
    80004478:	00000013          	nop

000000008000447c <i_4220>:
    8000447c:	8ab00f13          	li	t5,-1877

0000000080004480 <i_4221>:
    80004480:	8ad00893          	li	a7,-1875

0000000080004484 <i_4222>:
    80004484:	001f0f13          	addi	t5,t5,1
    80004488:	ffe8dee3          	ble	t5,a7,80004484 <i_4222>

000000008000448c <i_4223>:
    8000448c:	18211383          	lh	t2,386(sp)

0000000080004490 <i_4224>:
    80004490:	0073e3b3          	or	t2,t2,t2

0000000080004494 <i_4225>:
    80004494:	fe110f23          	sb	ra,-2(sp)

0000000080004498 <i_4226>:
    80004498:	00700393          	li	t2,7

000000008000449c <i_4227>:
    8000449c:	4073d2b3          	sra	t0,t2,t2

00000000800044a0 <i_4228>:
    800044a0:	00e77463          	bleu	a4,a4,800044a8 <i_4230>

00000000800044a4 <i_4229>:
    800044a4:	005700b3          	add	ra,a4,t0

00000000800044a8 <i_4230>:
    800044a8:	4c90a993          	slti	s3,ra,1225

00000000800044ac <i_4231>:
    800044ac:	02729463          	bne	t0,t2,800044d4 <i_4241>

00000000800044b0 <i_4232>:
    800044b0:	efe15c83          	lhu	s9,-258(sp)

00000000800044b4 <i_4233>:
    800044b4:	14c12083          	lw	ra,332(sp)

00000000800044b8 <i_4234>:
    800044b8:	18812e03          	lw	t3,392(sp)

00000000800044bc <i_4235>:
    800044bc:	b3da8a93          	addi	s5,s5,-1219 # 3cc41b3d <main-0x433be4c3>

00000000800044c0 <i_4236>:
    800044c0:	013ce863          	bltu	s9,s3,800044d0 <i_4240>

00000000800044c4 <i_4237>:
    800044c4:	021af333          	remu	t1,s5,ra

00000000800044c8 <i_4238>:
    800044c8:	10310283          	lb	t0,259(sp)

00000000800044cc <i_4239>:
    800044cc:	07016583          	lwu	a1,112(sp)

00000000800044d0 <i_4240>:
    800044d0:	021a9463          	bne	s5,ra,800044f8 <i_4250>

00000000800044d4 <i_4241>:
    800044d4:	0022d71b          	srliw	a4,t0,0x2

00000000800044d8 <i_4242>:
    800044d8:	f6815b03          	lhu	s6,-152(sp)

00000000800044dc <i_4243>:
    800044dc:	1ff12023          	sw	t6,480(sp)

00000000800044e0 <i_4244>:
    800044e0:	0c510823          	sb	t0,208(sp)

00000000800044e4 <i_4245>:
    800044e4:	a3263293          	sltiu	t0,a2,-1486

00000000800044e8 <i_4246>:
    800044e8:	19211683          	lh	a3,402(sp)

00000000800044ec <i_4247>:
    800044ec:	00b2d263          	ble	a1,t0,800044f0 <i_4248>

00000000800044f0 <i_4248>:
    800044f0:	1ad11623          	sh	a3,428(sp)

00000000800044f4 <i_4249>:
    800044f4:	02e11783          	lh	a5,46(sp)

00000000800044f8 <i_4250>:
    800044f8:	06816a03          	lwu	s4,104(sp)

00000000800044fc <i_4251>:
    800044fc:	0346f463          	bleu	s4,a3,80004524 <i_4261>

0000000080004500 <i_4252>:
    80004500:	a4ba2b13          	slti	s6,s4,-1461

0000000080004504 <i_4253>:
    80004504:	e1e11a03          	lh	s4,-482(sp)

0000000080004508 <i_4254>:
    80004508:	005a9c63          	bne	s5,t0,80004520 <i_4260>

000000008000450c <i_4255>:
    8000450c:	00700493          	li	s1,7

0000000080004510 <i_4256>:
    80004510:	009b1abb          	sllw	s5,s6,s1

0000000080004514 <i_4257>:
    80004514:	029badb3          	mulhsu	s11,s7,s1

0000000080004518 <i_4258>:
    80004518:	1d215483          	lhu	s1,466(sp)

000000008000451c <i_4259>:
    8000451c:	11113423          	sd	a7,264(sp)

0000000080004520 <i_4260>:
    80004520:	4034d493          	srai	s1,s1,0x3

0000000080004524 <i_4261>:
    80004524:	e4412d83          	lw	s11,-444(sp)

0000000080004528 <i_4262>:
    80004528:	40395c13          	srai	s8,s2,0x3

000000008000452c <i_4263>:
    8000452c:	7ec00a93          	li	s5,2028

0000000080004530 <i_4264>:
    80004530:	7ef00513          	li	a0,2031

0000000080004534 <i_4265>:
    80004534:	e2110483          	lb	s1,-479(sp)

0000000080004538 <i_4266>:
    80004538:	1cc10c03          	lb	s8,460(sp)

000000008000453c <i_4267>:
    8000453c:	0094ca63          	blt	s1,s1,80004550 <i_4271>

0000000080004540 <i_4268>:
    80004540:	001a8a93          	addi	s5,s5,1
    80004544:	feaae8e3          	bltu	s5,a0,80004534 <i_4265>

0000000080004548 <i_4269>:
    80004548:	01b4a333          	slt	t1,s1,s11

000000008000454c <i_4270>:
    8000454c:	eed14683          	lbu	a3,-275(sp)

0000000080004550 <i_4271>:
    80004550:	00ae9663          	bne	t4,a0,8000455c <i_4274>

0000000080004554 <i_4272>:
    80004554:	00a15e63          	ble	a0,sp,80004570 <i_4279>

0000000080004558 <i_4273>:
    80004558:	02635533          	divu	a0,t1,t1

000000008000455c <i_4274>:
    8000455c:	92068313          	addi	t1,a3,-1760

0000000080004560 <i_4275>:
    80004560:	01d00a93          	li	s5,29

0000000080004564 <i_4276>:
    80004564:	4155553b          	sraw	a0,a0,s5

0000000080004568 <i_4277>:
    80004568:	035aa6b3          	mulhsu	a3,s5,s5

000000008000456c <i_4278>:
    8000456c:	5da68a93          	addi	s5,a3,1498

0000000080004570 <i_4279>:
    80004570:	05eac093          	xori	ra,s5,94

0000000080004574 <i_4280>:
    80004574:	02daf263          	bleu	a3,s5,80004598 <i_4289>

0000000080004578 <i_4281>:
    80004578:	0ad13c23          	sd	a3,184(sp)

000000008000457c <i_4282>:
    8000457c:	02d686bb          	mulw	a3,a3,a3

0000000080004580 <i_4283>:
    80004580:	ea110723          	sb	ra,-338(sp)

0000000080004584 <i_4284>:
    80004584:	0155a5b3          	slt	a1,a1,s5

0000000080004588 <i_4285>:
    80004588:	f7410523          	sb	s4,-150(sp)

000000008000458c <i_4286>:
    8000458c:	fed13c23          	sd	a3,-8(sp)

0000000080004590 <i_4287>:
    80004590:	0350f263          	bleu	s5,ra,800045b4 <i_4296>

0000000080004594 <i_4288>:
    80004594:	17513423          	sd	s5,360(sp)

0000000080004598 <i_4289>:
    80004598:	04c15a03          	lhu	s4,76(sp)

000000008000459c <i_4290>:
    8000459c:	00b00293          	li	t0,11

00000000800045a0 <i_4291>:
    800045a0:	005a5abb          	srlw	s5,s4,t0

00000000800045a4 <i_4292>:
    800045a4:	17511323          	sh	s5,358(sp)

00000000800045a8 <i_4293>:
    800045a8:	ff4a0a1b          	addiw	s4,s4,-12

00000000800045ac <i_4294>:
    800045ac:	fac16903          	lwu	s2,-84(sp)

00000000800045b0 <i_4295>:
    800045b0:	f9016383          	lwu	t2,-112(sp)

00000000800045b4 <i_4296>:
    800045b4:	f2611e23          	sh	t1,-196(sp)

00000000800045b8 <i_4297>:
    800045b8:	fe013d03          	ld	s10,-32(sp)

00000000800045bc <i_4298>:
    800045bc:	7c100e93          	li	t4,1985

00000000800045c0 <i_4299>:
    800045c0:	7d100993          	li	s3,2001

00000000800045c4 <i_4300>:
    800045c4:	001e8e93          	addi	t4,t4,1 # f1778029 <_end+0x71767c15>
    800045c8:	ff3ecee3          	blt	t4,s3,800045c4 <i_4300>

00000000800045cc <i_4301>:
    800045cc:	0fa11123          	sh	s10,226(sp)

00000000800045d0 <i_4302>:
    800045d0:	14410983          	lb	s3,324(sp)

00000000800045d4 <i_4303>:
    800045d4:	0285743b          	remuw	s0,a0,s0

00000000800045d8 <i_4304>:
    800045d8:	03a9c73b          	divw	a4,s3,s10

00000000800045dc <i_4305>:
    800045dc:	e2b10d03          	lb	s10,-469(sp)

00000000800045e0 <i_4306>:
    800045e0:	e4416803          	lwu	a6,-444(sp)

00000000800045e4 <i_4307>:
    800045e4:	010d4463          	blt	s10,a6,800045ec <i_4309>

00000000800045e8 <i_4308>:
    800045e8:	03a94633          	div	a2,s2,s10

00000000800045ec <i_4309>:
    800045ec:	03813903          	ld	s2,56(sp)

00000000800045f0 <i_4310>:
    800045f0:	41260633          	sub	a2,a2,s2

00000000800045f4 <i_4311>:
    800045f4:	01416783          	lwu	a5,20(sp)

00000000800045f8 <i_4312>:
    800045f8:	00161713          	slli	a4,a2,0x1

00000000800045fc <i_4313>:
    800045fc:	fad12c23          	sw	a3,-72(sp)

0000000080004600 <i_4314>:
    80004600:	f8f13c23          	sd	a5,-104(sp)

0000000080004604 <i_4315>:
    80004604:	02d6f6bb          	remuw	a3,a3,a3

0000000080004608 <i_4316>:
    80004608:	12415303          	lhu	t1,292(sp)

000000008000460c <i_4317>:
    8000460c:	00b00d93          	li	s11,11

0000000080004610 <i_4318>:
    80004610:	01b41ebb          	sllw	t4,s0,s11

0000000080004614 <i_4319>:
    80004614:	01ddd463          	ble	t4,s11,8000461c <i_4321>

0000000080004618 <i_4320>:
    80004618:	026efc3b          	remuw	s8,t4,t1

000000008000461c <i_4321>:
    8000461c:	e8f11d23          	sh	a5,-358(sp)

0000000080004620 <i_4322>:
    80004620:	018c6a63          	bltu	s8,s8,80004634 <i_4327>

0000000080004624 <i_4323>:
    80004624:	10412e83          	lw	t4,260(sp)

0000000080004628 <i_4324>:
    80004628:	1a613423          	sd	t1,424(sp)

000000008000462c <i_4325>:
    8000462c:	00ed9863          	bne	s11,a4,8000463c <i_4329>

0000000080004630 <i_4326>:
    80004630:	02d37d3b          	remuw	s10,t1,a3

0000000080004634 <i_4327>:
    80004634:	0061dc63          	ble	t1,gp,8000464c <i_4333>

0000000080004638 <i_4328>:
    80004638:	ec416703          	lwu	a4,-316(sp)

000000008000463c <i_4329>:
    8000463c:	01d3c863          	blt	t2,t4,8000464c <i_4333>

0000000080004640 <i_4330>:
    80004640:	40668d33          	sub	s10,a3,t1

0000000080004644 <i_4331>:
    80004644:	00dc4463          	blt	s8,a3,8000464c <i_4333>

0000000080004648 <i_4332>:
    80004648:	e7011583          	lh	a1,-400(sp)

000000008000464c <i_4333>:
    8000464c:	61aee313          	ori	t1,t4,1562

0000000080004650 <i_4334>:
    80004650:	e4b14603          	lbu	a2,-437(sp)

0000000080004654 <i_4335>:
    80004654:	fcb14a03          	lbu	s4,-53(sp)

0000000080004658 <i_4336>:
    80004658:	03414183          	lbu	gp,52(sp)

000000008000465c <i_4337>:
    8000465c:	8d200d13          	li	s10,-1838

0000000080004660 <i_4338>:
    80004660:	8dd00093          	li	ra,-1827

0000000080004664 <i_4339>:
    80004664:	001d0d13          	addi	s10,s10,1 # ccbdd3e5 <_end+0x4cbccfd1>
    80004668:	fe1d4ee3          	blt	s10,ra,80004664 <i_4339>

000000008000466c <i_4340>:
    8000466c:	0a312a23          	sw	gp,180(sp)

0000000080004670 <i_4341>:
    80004670:	f3416a03          	lwu	s4,-204(sp)

0000000080004674 <i_4342>:
    80004674:	01466463          	bltu	a2,s4,8000467c <i_4344>

0000000080004678 <i_4343>:
    80004678:	04495617          	auipc	a2,0x4495

000000008000467c <i_4344>:
    8000467c:	06811603          	lh	a2,104(sp)

0000000080004680 <i_4345>:
    80004680:	01466863          	bltu	a2,s4,80004690 <i_4349>

0000000080004684 <i_4346>:
    80004684:	00e70733          	add	a4,a4,a4

0000000080004688 <i_4347>:
    80004688:	143106a3          	sb	gp,333(sp)

000000008000468c <i_4348>:
    8000468c:	014c8863          	beq	s9,s4,8000469c <i_4352>

0000000080004690 <i_4349>:
    80004690:	00361663          	bne	a2,gp,8000469c <i_4352>

0000000080004694 <i_4350>:
    80004694:	00ca1e63          	bne	s4,a2,800046b0 <i_4357>

0000000080004698 <i_4351>:
    80004698:	02e1d263          	ble	a4,gp,800046bc <i_4360>

000000008000469c <i_4352>:
    8000469c:	01781863          	bne	a6,s7,800046ac <i_4356>

00000000800046a0 <i_4353>:
    800046a0:	00c85a63          	ble	a2,a6,800046b4 <i_4358>

00000000800046a4 <i_4354>:
    800046a4:	00e65e63          	ble	a4,a2,800046c0 <i_4361>

00000000800046a8 <i_4355>:
    800046a8:	0d813803          	ld	a6,216(sp)

00000000800046ac <i_4356>:
    800046ac:	00cee863          	bltu	t4,a2,800046bc <i_4360>

00000000800046b0 <i_4357>:
    800046b0:	17211903          	lh	s2,370(sp)

00000000800046b4 <i_4358>:
    800046b4:	ecc11903          	lh	s2,-308(sp)

00000000800046b8 <i_4359>:
    800046b8:	f7e10683          	lb	a3,-130(sp)

00000000800046bc <i_4360>:
    800046bc:	02c77463          	bleu	a2,a4,800046e4 <i_4370>

00000000800046c0 <i_4361>:
    800046c0:	6d9dac13          	slti	s8,s11,1753

00000000800046c4 <i_4362>:
    800046c4:	00000013          	nop

00000000800046c8 <i_4363>:
    800046c8:	17611a23          	sh	s6,372(sp)

00000000800046cc <i_4364>:
    800046cc:	01096633          	or	a2,s2,a6

00000000800046d0 <i_4365>:
    800046d0:	00000013          	nop

00000000800046d4 <i_4366>:
    800046d4:	fe013703          	ld	a4,-32(sp)

00000000800046d8 <i_4367>:
    800046d8:	561d8097          	auipc	ra,0x561d8

00000000800046dc <i_4368>:
    800046dc:	94ba0a13          	addi	s4,s4,-1717

00000000800046e0 <i_4369>:
    800046e0:	00000013          	nop

00000000800046e4 <i_4370>:
    800046e4:	01816603          	lwu	a2,24(sp)

00000000800046e8 <i_4371>:
    800046e8:	0bb14a83          	lbu	s5,187(sp)

00000000800046ec <i_4372>:
    800046ec:	74f00813          	li	a6,1871

00000000800046f0 <i_4373>:
    800046f0:	75300b13          	li	s6,1875

00000000800046f4 <i_4374>:
    800046f4:	eb511c23          	sh	s5,-328(sp)

00000000800046f8 <i_4375>:
    800046f8:	01526e63          	bltu	tp,s5,80004714 <i_4381>

00000000800046fc <i_4376>:
    800046fc:	035ad3bb          	divuw	t2,s5,s5

0000000080004700 <i_4377>:
    80004700:	015adc63          	ble	s5,s5,80004718 <i_4382>

0000000080004704 <i_4378>:
    80004704:	00180813          	addi	a6,a6,1
    80004708:	ff6846e3          	blt	a6,s6,800046f4 <i_4374>

000000008000470c <i_4379>:
    8000470c:	e4710e23          	sb	t2,-420(sp)

0000000080004710 <i_4380>:
    80004710:	00cd7e63          	bleu	a2,s10,8000472c <i_4387>

0000000080004714 <i_4381>:
    80004714:	f7f12223          	sw	t6,-156(sp)

0000000080004718 <i_4382>:
    80004718:	f7411f83          	lh	t6,-140(sp)

000000008000471c <i_4383>:
    8000471c:	fc415a83          	lhu	s5,-60(sp)

0000000080004720 <i_4384>:
    80004720:	02812f83          	lw	t6,40(sp)

0000000080004724 <i_4385>:
    80004724:	e7813783          	ld	a5,-392(sp)

0000000080004728 <i_4386>:
    80004728:	41ff8fbb          	subw	t6,t6,t6

000000008000472c <i_4387>:
    8000472c:	40fb0fb3          	sub	t6,s6,a5

0000000080004730 <i_4388>:
    80004730:	01fb07b3          	add	a5,s6,t6

0000000080004734 <i_4389>:
    80004734:	79e00393          	li	t2,1950

0000000080004738 <i_4390>:
    80004738:	7a600b13          	li	s6,1958

000000008000473c <i_4391>:
    8000473c:	0367e7b3          	rem	a5,a5,s6

0000000080004740 <i_4392>:
    80004740:	036ce263          	bltu	s9,s6,80004764 <i_4401>

0000000080004744 <i_4393>:
    80004744:	02400a93          	li	s5,36

0000000080004748 <i_4394>:
    80004748:	415b57b3          	sra	a5,s6,s5

000000008000474c <i_4395>:
    8000474c:	0167f863          	bleu	s6,a5,8000475c <i_4399>

0000000080004750 <i_4396>:
    80004750:	17110703          	lb	a4,369(sp)

0000000080004754 <i_4397>:
    80004754:	027ebeb3          	mulhu	t4,t4,t2

0000000080004758 <i_4398>:
    80004758:	01f00993          	li	s3,31

000000008000475c <i_4399>:
    8000475c:	413ad5bb          	sraw	a1,s5,s3

0000000080004760 <i_4400>:
    80004760:	401a5a1b          	sraiw	s4,s4,0x1

0000000080004764 <i_4401>:
    80004764:	00b00a13          	li	s4,11

0000000080004768 <i_4402>:
    80004768:	4147d7bb          	sraw	a5,a5,s4

000000008000476c <i_4403>:
    8000476c:	03474663          	blt	a4,s4,80004798 <i_4413>

0000000080004770 <i_4404>:
    80004770:	033a5663          	ble	s3,s4,8000479c <i_4414>

0000000080004774 <i_4405>:
    80004774:	10812983          	lw	s3,264(sp)

0000000080004778 <i_4406>:
    80004778:	00138393          	addi	t2,t2,1
    8000477c:	fd6390e3          	bne	t2,s6,8000473c <i_4391>

0000000080004780 <i_4407>:
    80004780:	029a1a33          	mulh	s4,s4,s1

0000000080004784 <i_4408>:
    80004784:	18f12023          	sw	a5,384(sp)

0000000080004788 <i_4409>:
    80004788:	0147ec63          	bltu	a5,s4,800047a0 <i_4415>

000000008000478c <i_4410>:
    8000478c:	f9410a23          	sb	s4,-108(sp)

0000000080004790 <i_4411>:
    80004790:	014a47b3          	xor	a5,s4,s4

0000000080004794 <i_4412>:
    80004794:	01600693          	li	a3,22

0000000080004798 <i_4413>:
    80004798:	00da533b          	srlw	t1,s4,a3

000000008000479c <i_4414>:
    8000479c:	02416683          	lwu	a3,36(sp)

00000000800047a0 <i_4415>:
    800047a0:	02da7063          	bleu	a3,s4,800047c0 <i_4423>

00000000800047a4 <i_4416>:
    800047a4:	0377d263          	ble	s7,a5,800047c8 <i_4425>

00000000800047a8 <i_4417>:
    800047a8:	f8016683          	lwu	a3,-128(sp)

00000000800047ac <i_4418>:
    800047ac:	02d36e33          	rem	t3,t1,a3

00000000800047b0 <i_4419>:
    800047b0:	ef113423          	sd	a7,-280(sp)

00000000800047b4 <i_4420>:
    800047b4:	02d6d33b          	divuw	t1,a3,a3

00000000800047b8 <i_4421>:
    800047b8:	0b811603          	lh	a2,184(sp)

00000000800047bc <i_4422>:
    800047bc:	fb016783          	lwu	a5,-80(sp)

00000000800047c0 <i_4423>:
    800047c0:	0b813203          	ld	tp,184(sp)

00000000800047c4 <i_4424>:
    800047c4:	f2816d83          	lwu	s11,-216(sp)

00000000800047c8 <i_4425>:
    800047c8:	00b00313          	li	t1,11

00000000800047cc <i_4426>:
    800047cc:	4062533b          	sraw	t1,tp,t1

00000000800047d0 <i_4427>:
    800047d0:	05615703          	lhu	a4,86(sp)

00000000800047d4 <i_4428>:
    800047d4:	18e12e23          	sw	a4,412(sp)

00000000800047d8 <i_4429>:
    800047d8:	02676733          	rem	a4,a4,t1

00000000800047dc <i_4430>:
    800047dc:	00676a63          	bltu	a4,t1,800047f0 <i_4435>

00000000800047e0 <i_4431>:
    800047e0:	ee615083          	lhu	ra,-282(sp)

00000000800047e4 <i_4432>:
    800047e4:	018adc63          	ble	s8,s5,800047fc <i_4438>

00000000800047e8 <i_4433>:
    800047e8:	ed8de313          	ori	t1,s11,-296

00000000800047ec <i_4434>:
    800047ec:	007df233          	and	tp,s11,t2

00000000800047f0 <i_4435>:
    800047f0:	03b2643b          	remw	s0,tp,s11

00000000800047f4 <i_4436>:
    800047f4:	00000013          	nop

00000000800047f8 <i_4437>:
    800047f8:	ea813823          	sd	s0,-336(sp)

00000000800047fc <i_4438>:
    800047fc:	e8813403          	ld	s0,-376(sp)

0000000080004800 <i_4439>:
    80004800:	ed614603          	lbu	a2,-298(sp)

0000000080004804 <i_4440>:
    80004804:	77400d93          	li	s11,1908

0000000080004808 <i_4441>:
    80004808:	77a00393          	li	t2,1914

000000008000480c <i_4442>:
    8000480c:	0df10f23          	sb	t6,222(sp)

0000000080004810 <i_4443>:
    80004810:	01b21c63          	bne	tp,s11,80004828 <i_4448>

0000000080004814 <i_4444>:
    80004814:	f6c11d23          	sh	a2,-134(sp)

0000000080004818 <i_4445>:
    80004818:	001d8d93          	addi	s11,s11,1
    8000481c:	ffb3d8e3          	ble	s11,t2,8000480c <i_4442>

0000000080004820 <i_4446>:
    80004820:	e6410823          	sb	tp,-400(sp)

0000000080004824 <i_4447>:
    80004824:	f2712823          	sw	t2,-208(sp)

0000000080004828 <i_4448>:
    80004828:	02c0beb3          	mulhu	t4,ra,a2

000000008000482c <i_4449>:
    8000482c:	00000013          	nop

0000000080004830 <i_4450>:
    80004830:	75800313          	li	t1,1880

0000000080004834 <i_4451>:
    80004834:	76200693          	li	a3,1890

0000000080004838 <i_4452>:
    80004838:	00c47663          	bleu	a2,s0,80004844 <i_4455>

000000008000483c <i_4453>:
    8000483c:	08c12a23          	sw	a2,148(sp)

0000000080004840 <i_4454>:
    80004840:	03d0f0bb          	remuw	ra,ra,t4

0000000080004844 <i_4455>:
    80004844:	35d3e613          	ori	a2,t2,861

0000000080004848 <i_4456>:
    80004848:	e6210e83          	lb	t4,-414(sp)

000000008000484c <i_4457>:
    8000484c:	0213d0b3          	divu	ra,t2,ra

0000000080004850 <i_4458>:
    80004850:	01d08eb3          	add	t4,ra,t4

0000000080004854 <i_4459>:
    80004854:	01200413          	li	s0,18

0000000080004858 <i_4460>:
    80004858:	008e98bb          	sllw	a7,t4,s0

000000008000485c <i_4461>:
    8000485c:	00130313          	addi	t1,t1,1
    80004860:	fcd34ce3          	blt	t1,a3,80004838 <i_4452>

0000000080004864 <i_4462>:
    80004864:	01de9463          	bne	t4,t4,8000486c <i_4464>

0000000080004868 <i_4463>:
    80004868:	02cc693b          	remw	s2,s8,a2

000000008000486c <i_4464>:
    8000486c:	70fe8e93          	addi	t4,t4,1807

0000000080004870 <i_4465>:
    80004870:	02c0c6bb          	divw	a3,ra,a2

0000000080004874 <i_4466>:
    80004874:	40d902bb          	subw	t0,s2,a3

0000000080004878 <i_4467>:
    80004878:	1d411d83          	lh	s11,468(sp)

000000008000487c <i_4468>:
    8000487c:	f9b13c23          	sd	s11,-104(sp)

0000000080004880 <i_4469>:
    80004880:	4026d21b          	sraiw	tp,a3,0x2

0000000080004884 <i_4470>:
    80004884:	00000013          	nop

0000000080004888 <i_4471>:
    80004888:	85500693          	li	a3,-1963

000000008000488c <i_4472>:
    8000488c:	86100d93          	li	s11,-1951

0000000080004890 <i_4473>:
    80004890:	185108a3          	sb	t0,401(sp)

0000000080004894 <i_4474>:
    80004894:	00d2e633          	or	a2,t0,a3

0000000080004898 <i_4475>:
    80004898:	033669b3          	rem	s3,a2,s3

000000008000489c <i_4476>:
    8000489c:	8c400913          	li	s2,-1852

00000000800048a0 <i_4477>:
    800048a0:	8ce00293          	li	t0,-1842

00000000800048a4 <i_4478>:
    800048a4:	00000013          	nop

00000000800048a8 <i_4479>:
    800048a8:	0ec12e23          	sw	a2,252(sp)

00000000800048ac <i_4480>:
    800048ac:	00000013          	nop

00000000800048b0 <i_4481>:
    800048b0:	00190913          	addi	s2,s2,1 # 7237ec71 <main-0xdc8138f>
    800048b4:	fe5968e3          	bltu	s2,t0,800048a4 <i_4478>

00000000800048b8 <i_4482>:
    800048b8:	e5210423          	sb	s2,-440(sp)

00000000800048bc <i_4483>:
    800048bc:	e5e11f03          	lh	t5,-418(sp)

00000000800048c0 <i_4484>:
    800048c0:	01300e93          	li	t4,19

00000000800048c4 <i_4485>:
    800048c4:	01df5933          	srl	s2,t5,t4

00000000800048c8 <i_4486>:
    800048c8:	00168693          	addi	a3,a3,1
    800048cc:	fdb6c2e3          	blt	a3,s11,80004890 <i_4473>

00000000800048d0 <i_4487>:
    800048d0:	03d90463          	beq	s2,t4,800048f8 <i_4497>

00000000800048d4 <i_4488>:
    800048d4:	01e5f863          	bleu	t5,a1,800048e4 <i_4492>

00000000800048d8 <i_4489>:
    800048d8:	03e97063          	bleu	t5,s2,800048f8 <i_4497>

00000000800048dc <i_4490>:
    800048dc:	84e5fe93          	andi	t4,a1,-1970

00000000800048e0 <i_4491>:
    800048e0:	02277cb3          	remu	s9,a4,sp

00000000800048e4 <i_4492>:
    800048e4:	001cd71b          	srliw	a4,s9,0x1

00000000800048e8 <i_4493>:
    800048e8:	01d74663          	blt	a4,t4,800048f4 <i_4496>

00000000800048ec <i_4494>:
    800048ec:	0d414e03          	lbu	t3,212(sp)

00000000800048f0 <i_4495>:
    800048f0:	019ee863          	bltu	t4,s9,80004900 <i_4499>

00000000800048f4 <i_4496>:
    800048f4:	e5816083          	lwu	ra,-424(sp)

00000000800048f8 <i_4497>:
    800048f8:	ed912023          	sw	s9,-320(sp)

00000000800048fc <i_4498>:
    800048fc:	01c0e863          	bltu	ra,t3,8000490c <i_4502>

0000000080004900 <i_4499>:
    80004900:	b31e3e13          	sltiu	t3,t3,-1231

0000000080004904 <i_4500>:
    80004904:	01ce5c63          	ble	t3,t3,8000491c <i_4506>

0000000080004908 <i_4501>:
    80004908:	0219e263          	bltu	s3,ra,8000492c <i_4510>

000000008000490c <i_4502>:
    8000490c:	00351263          	bne	a0,gp,80004910 <i_4503>

0000000080004910 <i_4503>:
    80004910:	03012a83          	lw	s5,48(sp)

0000000080004914 <i_4504>:
    80004914:	11c13423          	sd	t3,264(sp)

0000000080004918 <i_4505>:
    80004918:	f9012e03          	lw	t3,-112(sp)

000000008000491c <i_4506>:
    8000491c:	07816703          	lwu	a4,120(sp)

0000000080004920 <i_4507>:
    80004920:	02e3c463          	blt	t2,a4,80004948 <i_4517>

0000000080004924 <i_4508>:
    80004924:	008e6263          	bltu	t3,s0,80004928 <i_4509>

0000000080004928 <i_4509>:
    80004928:	045100a3          	sb	t0,65(sp)

000000008000492c <i_4510>:
    8000492c:	01571e63          	bne	a4,s5,80004948 <i_4517>

0000000080004930 <i_4511>:
    80004930:	004f1f13          	slli	t5,t5,0x4

0000000080004934 <i_4512>:
    80004934:	f5c16a83          	lwu	s5,-164(sp)

0000000080004938 <i_4513>:
    80004938:	f9016a83          	lwu	s5,-112(sp)

000000008000493c <i_4514>:
    8000493c:	18c12883          	lw	a7,396(sp)

0000000080004940 <i_4515>:
    80004940:	e7416f03          	lwu	t5,-396(sp)

0000000080004944 <i_4516>:
    80004944:	f0611283          	lh	t0,-250(sp)

0000000080004948 <i_4517>:
    80004948:	5d0dc617          	auipc	a2,0x5d0dc

000000008000494c <i_4518>:
    8000494c:	e7816383          	lwu	t2,-392(sp)

0000000080004950 <i_4519>:
    80004950:	25ff3313          	sltiu	t1,t5,607

0000000080004954 <i_4520>:
    80004954:	03039463          	bne	t2,a6,8000497c <i_4530>

0000000080004958 <i_4521>:
    80004958:	00500393          	li	t2,5

000000008000495c <i_4522>:
    8000495c:	4078d0b3          	sra	ra,a7,t2

0000000080004960 <i_4523>:
    80004960:	0063e663          	bltu	t2,t1,8000496c <i_4526>

0000000080004964 <i_4524>:
    80004964:	0b011883          	lh	a7,176(sp)

0000000080004968 <i_4525>:
    80004968:	1c412303          	lw	t1,452(sp)

000000008000496c <i_4526>:
    8000496c:	6cfb7f93          	andi	t6,s6,1743

0000000080004970 <i_4527>:
    80004970:	00000013          	nop

0000000080004974 <i_4528>:
    80004974:	1c813d03          	ld	s10,456(sp)

0000000080004978 <i_4529>:
    80004978:	e9611223          	sh	s6,-380(sp)

000000008000497c <i_4530>:
    8000497c:	22468217          	auipc	tp,0x22468

0000000080004980 <i_4531>:
    80004980:	00000013          	nop

0000000080004984 <i_4532>:
    80004984:	7a300b13          	li	s6,1955

0000000080004988 <i_4533>:
    80004988:	7b600293          	li	t0,1974

000000008000498c <i_4534>:
    8000498c:	0b7f8613          	addi	a2,t6,183 # ffffffff8c4dc0b7 <_end+0xffffffff0c4cbca3>

0000000080004990 <i_4535>:
    80004990:	40225a1b          	sraiw	s4,tp,0x2

0000000080004994 <i_4536>:
    80004994:	8c700d13          	li	s10,-1849

0000000080004998 <i_4537>:
    80004998:	8da00313          	li	t1,-1830

000000008000499c <i_4538>:
    8000499c:	e4c10e23          	sb	a2,-420(sp)

00000000800049a0 <i_4539>:
    800049a0:	001d0d13          	addi	s10,s10,1
    800049a4:	fe6d1ce3          	bne	s10,t1,8000499c <i_4538>

00000000800049a8 <i_4540>:
    800049a8:	40425d13          	srai	s10,tp,0x4

00000000800049ac <i_4541>:
    800049ac:	001b0b13          	addi	s6,s6,1
    800049b0:	fd62fee3          	bleu	s6,t0,8000498c <i_4534>

00000000800049b4 <i_4542>:
    800049b4:	1d512023          	sw	s5,448(sp)

00000000800049b8 <i_4543>:
    800049b8:	00000013          	nop

00000000800049bc <i_4544>:
    800049bc:	03537e3b          	remuw	t3,t1,s5

00000000800049c0 <i_4545>:
    800049c0:	78300a93          	li	s5,1923

00000000800049c4 <i_4546>:
    800049c4:	78c00313          	li	t1,1932

00000000800049c8 <i_4547>:
    800049c8:	013afa63          	bleu	s3,s5,800049dc <i_4552>

00000000800049cc <i_4548>:
    800049cc:	e3416183          	lwu	gp,-460(sp)

00000000800049d0 <i_4549>:
    800049d0:	01cafe63          	bleu	t3,s5,800049ec <i_4556>

00000000800049d4 <i_4550>:
    800049d4:	fd015983          	lhu	s3,-48(sp)

00000000800049d8 <i_4551>:
    800049d8:	03ce3cb3          	mulhu	s9,t3,t3

00000000800049dc <i_4552>:
    800049dc:	e6412983          	lw	s3,-412(sp)

00000000800049e0 <i_4553>:
    800049e0:	00000013          	nop

00000000800049e4 <i_4554>:
    800049e4:	3975be13          	sltiu	t3,a1,919

00000000800049e8 <i_4555>:
    800049e8:	00000013          	nop

00000000800049ec <i_4556>:
    800049ec:	f2615283          	lhu	t0,-218(sp)

00000000800049f0 <i_4557>:
    800049f0:	fb911923          	sh	s9,-78(sp)

00000000800049f4 <i_4558>:
    800049f4:	dd934a13          	xori	s4,t1,-551

00000000800049f8 <i_4559>:
    800049f8:	001a8a93          	addi	s5,s5,1
    800049fc:	fc6a96e3          	bne	s5,t1,800049c8 <i_4547>

0000000080004a00 <i_4560>:
    80004a00:	07c13423          	sd	t3,104(sp)

0000000080004a04 <i_4561>:
    80004a04:	410984b3          	sub	s1,s3,a6

0000000080004a08 <i_4562>:
    80004a08:	014e02b3          	add	t0,t3,s4

0000000080004a0c <i_4563>:
    80004a0c:	033e7263          	bleu	s3,t3,80004a30 <i_4572>

0000000080004a10 <i_4564>:
    80004a10:	03c2c433          	div	s0,t0,t3

0000000080004a14 <i_4565>:
    80004a14:	00d46e63          	bltu	s0,a3,80004a30 <i_4572>

0000000080004a18 <i_4566>:
    80004a18:	01ce8233          	add	tp,t4,t3

0000000080004a1c <i_4567>:
    80004a1c:	03998263          	beq	s3,s9,80004a40 <i_4576>

0000000080004a20 <i_4568>:
    80004a20:	0a412203          	lw	tp,164(sp)

0000000080004a24 <i_4569>:
    80004a24:	e3c11a23          	sh	t3,-460(sp)

0000000080004a28 <i_4570>:
    80004a28:	02211703          	lh	a4,34(sp)

0000000080004a2c <i_4571>:
    80004a2c:	033ce263          	bltu	s9,s3,80004a50 <i_4580>

0000000080004a30 <i_4572>:
    80004a30:	004c9863          	bne	s9,tp,80004a40 <i_4576>

0000000080004a34 <i_4573>:
    80004a34:	024b32b3          	mulhu	t0,s6,tp

0000000080004a38 <i_4574>:
    80004a38:	0132dc63          	ble	s3,t0,80004a50 <i_4580>

0000000080004a3c <i_4575>:
    80004a3c:	4089043b          	subw	s0,s2,s0

0000000080004a40 <i_4576>:
    80004a40:	1e815483          	lhu	s1,488(sp)

0000000080004a44 <i_4577>:
    80004a44:	028e7263          	bleu	s0,t3,80004a68 <i_4586>

0000000080004a48 <i_4578>:
    80004a48:	01300293          	li	t0,19

0000000080004a4c <i_4579>:
    80004a4c:	005e1a33          	sll	s4,t3,t0

0000000080004a50 <i_4580>:
    80004a50:	02a46533          	rem	a0,s0,a0

0000000080004a54 <i_4581>:
    80004a54:	0255553b          	divuw	a0,a0,t0

0000000080004a58 <i_4582>:
    80004a58:	00426233          	or	tp,tp,tp

0000000080004a5c <i_4583>:
    80004a5c:	ea513423          	sd	t0,-344(sp)

0000000080004a60 <i_4584>:
    80004a60:	08211e83          	lh	t4,130(sp)

0000000080004a64 <i_4585>:
    80004a64:	fa013883          	ld	a7,-96(sp)

0000000080004a68 <i_4586>:
    80004a68:	025ed63b          	divuw	a2,t4,t0

0000000080004a6c <i_4587>:
    80004a6c:	00155f1b          	srliw	t5,a0,0x1

0000000080004a70 <i_4588>:
    80004a70:	75900e13          	li	t3,1881

0000000080004a74 <i_4589>:
    80004a74:	76900413          	li	s0,1897

0000000080004a78 <i_4590>:
    80004a78:	0258e663          	bltu	a7,t0,80004aa4 <i_4600>

0000000080004a7c <i_4591>:
    80004a7c:	00000013          	nop

0000000080004a80 <i_4592>:
    80004a80:	02d21cb3          	mulh	s9,tp,a3

0000000080004a84 <i_4593>:
    80004a84:	00000013          	nop

0000000080004a88 <i_4594>:
    80004a88:	fea13823          	sd	a0,-16(sp)

0000000080004a8c <i_4595>:
    80004a8c:	001e0e13          	addi	t3,t3,1 # 70c58001 <main-0xf3a7fff>
    80004a90:	fe8e44e3          	blt	t3,s0,80004a78 <i_4590>

0000000080004a94 <i_4596>:
    80004a94:	02aee063          	bltu	t4,a0,80004ab4 <i_4604>

0000000080004a98 <i_4597>:
    80004a98:	04a10323          	sb	a0,70(sp)

0000000080004a9c <i_4598>:
    80004a9c:	03deb333          	mulhu	t1,t4,t4

0000000080004aa0 <i_4599>:
    80004aa0:	efa15983          	lhu	s3,-262(sp)

0000000080004aa4 <i_4600>:
    80004aa4:	00d29a63          	bne	t0,a3,80004ab8 <i_4605>

0000000080004aa8 <i_4601>:
    80004aa8:	02428063          	beq	t0,tp,80004ac8 <i_4609>

0000000080004aac <i_4602>:
    80004aac:	03397933          	remu	s2,s2,s3

0000000080004ab0 <i_4603>:
    80004ab0:	01d8c663          	blt	a7,t4,80004abc <i_4606>

0000000080004ab4 <i_4604>:
    80004ab4:	0ce13823          	sd	a4,208(sp)

0000000080004ab8 <i_4605>:
    80004ab8:	e5311a23          	sh	s3,-428(sp)

0000000080004abc <i_4606>:
    80004abc:	00cece63          	blt	t4,a2,80004ad8 <i_4613>

0000000080004ac0 <i_4607>:
    80004ac0:	0e211883          	lh	a7,226(sp)

0000000080004ac4 <i_4608>:
    80004ac4:	e6c11e83          	lh	t4,-404(sp)

0000000080004ac8 <i_4609>:
    80004ac8:	910ebe93          	sltiu	t4,t4,-1776

0000000080004acc <i_4610>:
    80004acc:	012eca63          	blt	t4,s2,80004ae0 <i_4615>

0000000080004ad0 <i_4611>:
    80004ad0:	18614283          	lbu	t0,390(sp)

0000000080004ad4 <i_4612>:
    80004ad4:	09710e83          	lb	t4,151(sp)

0000000080004ad8 <i_4613>:
    80004ad8:	01100093          	li	ra,17

0000000080004adc <i_4614>:
    80004adc:	00131ebb          	sllw	t4,t1,ra

0000000080004ae0 <i_4615>:
    80004ae0:	f3a11303          	lh	t1,-198(sp)

0000000080004ae4 <i_4616>:
    80004ae4:	40155213          	srai	tp,a0,0x1

0000000080004ae8 <i_4617>:
    80004ae8:	01f00093          	li	ra,31

0000000080004aec <i_4618>:
    80004aec:	001e10bb          	sllw	ra,t3,ra

0000000080004af0 <i_4619>:
    80004af0:	8d100513          	li	a0,-1839

0000000080004af4 <i_4620>:
    80004af4:	8e300c93          	li	s9,-1821

0000000080004af8 <i_4621>:
    80004af8:	ef812a83          	lw	s5,-264(sp)

0000000080004afc <i_4622>:
    80004afc:	f0113823          	sd	ra,-240(sp)

0000000080004b00 <i_4623>:
    80004b00:	02109eb3          	mulh	t4,ra,ra

0000000080004b04 <i_4624>:
    80004b04:	0320e0bb          	remw	ra,ra,s2

0000000080004b08 <i_4625>:
    80004b08:	0ff08713          	addi	a4,ra,255 # d61dc7d7 <_end+0x561cc3c3>

0000000080004b0c <i_4626>:
    80004b0c:	d99bd917          	auipc	s2,0xd99bd

0000000080004b10 <i_4627>:
    80004b10:	00e95e63          	ble	a4,s2,80004b2c <i_4633>

0000000080004b14 <i_4628>:
    80004b14:	01297733          	and	a4,s2,s2

0000000080004b18 <i_4629>:
    80004b18:	00150513          	addi	a0,a0,1
    80004b1c:	fd951ce3          	bne	a0,s9,80004af4 <i_4620>

0000000080004b20 <i_4630>:
    80004b20:	00400693          	li	a3,4

0000000080004b24 <i_4631>:
    80004b24:	00d95d33          	srl	s10,s2,a3

0000000080004b28 <i_4632>:
    80004b28:	e2e13c23          	sd	a4,-456(sp)

0000000080004b2c <i_4633>:
    80004b2c:	e9914d83          	lbu	s11,-359(sp)

0000000080004b30 <i_4634>:
    80004b30:	03a7473b          	divw	a4,a4,s10

0000000080004b34 <i_4635>:
    80004b34:	14690d1b          	addiw	s10,s2,326

0000000080004b38 <i_4636>:
    80004b38:	03bdc063          	blt	s11,s11,80004b58 <i_4644>

0000000080004b3c <i_4637>:
    80004b3c:	01012c83          	lw	s9,16(sp)

0000000080004b40 <i_4638>:
    80004b40:	a93f8d13          	addi	s10,t6,-1389

0000000080004b44 <i_4639>:
    80004b44:	00400993          	li	s3,4

0000000080004b48 <i_4640>:
    80004b48:	413cd5b3          	sra	a1,s9,s3

0000000080004b4c <i_4641>:
    80004b4c:	019b7463          	bleu	s9,s6,80004b54 <i_4643>

0000000080004b50 <i_4642>:
    80004b50:	01200f93          	li	t6,18

0000000080004b54 <i_4643>:
    80004b54:	01f2d9bb          	srlw	s3,t0,t6

0000000080004b58 <i_4644>:
    80004b58:	0c414983          	lbu	s3,196(sp)

0000000080004b5c <i_4645>:
    80004b5c:	03358063          	beq	a1,s3,80004b7c <i_4653>

0000000080004b60 <i_4646>:
    80004b60:	01ffbd33          	sltu	s10,t6,t6

0000000080004b64 <i_4647>:
    80004b64:	01800993          	li	s3,24

0000000080004b68 <i_4648>:
    80004b68:	01399fb3          	sll	t6,s3,s3

0000000080004b6c <i_4649>:
    80004b6c:	01ff9863          	bne	t6,t6,80004b7c <i_4653>

0000000080004b70 <i_4650>:
    80004b70:	00459d13          	slli	s10,a1,0x4

0000000080004b74 <i_4651>:
    80004b74:	dbc9ef93          	ori	t6,s3,-580

0000000080004b78 <i_4652>:
    80004b78:	03fae263          	bltu	s5,t6,80004b9c <i_4661>

0000000080004b7c <i_4653>:
    80004b7c:	013f8e63          	beq	t6,s3,80004b98 <i_4660>

0000000080004b80 <i_4654>:
    80004b80:	18016a83          	lwu	s5,384(sp)

0000000080004b84 <i_4655>:
    80004b84:	0d4fef93          	ori	t6,t6,212

0000000080004b88 <i_4656>:
    80004b88:	a8c9b713          	sltiu	a4,s3,-1396

0000000080004b8c <i_4657>:
    80004b8c:	00500993          	li	s3,5

0000000080004b90 <i_4658>:
    80004b90:	4130dfbb          	sraw	t6,ra,s3

0000000080004b94 <i_4659>:
    80004b94:	01f9d663          	ble	t6,s3,80004ba0 <i_4662>

0000000080004b98 <i_4660>:
    80004b98:	e2016a03          	lwu	s4,-480(sp)

0000000080004b9c <i_4661>:
    80004b9c:	015a7c63          	bleu	s5,s4,80004bb4 <i_4667>

0000000080004ba0 <i_4662>:
    80004ba0:	00475a9b          	srliw	s5,a4,0x4

0000000080004ba4 <i_4663>:
    80004ba4:	00161a13          	slli	s4,a2,0x1

0000000080004ba8 <i_4664>:
    80004ba8:	a4b9f517          	auipc	a0,0xa4b9f

0000000080004bac <i_4665>:
    80004bac:	009e6a63          	bltu	t3,s1,80004bc0 <i_4670>

0000000080004bb0 <i_4666>:
    80004bb0:	00871e63          	bne	a4,s0,80004bcc <i_4673>

0000000080004bb4 <i_4667>:
    80004bb4:	e7210523          	sb	s2,-406(sp)

0000000080004bb8 <i_4668>:
    80004bb8:	f1813e83          	ld	t4,-232(sp)

0000000080004bbc <i_4669>:
    80004bbc:	0fc13423          	sd	t3,232(sp)

0000000080004bc0 <i_4670>:
    80004bc0:	f1c15403          	lhu	s0,-228(sp)

0000000080004bc4 <i_4671>:
    80004bc4:	e9214803          	lbu	a6,-366(sp)

0000000080004bc8 <i_4672>:
    80004bc8:	00000013          	nop

0000000080004bcc <i_4673>:
    80004bcc:	01c13023          	sd	t3,0(sp)

0000000080004bd0 <i_4674>:
    80004bd0:	02813203          	ld	tp,40(sp)

0000000080004bd4 <i_4675>:
    80004bd4:	7e300e13          	li	t3,2019

0000000080004bd8 <i_4676>:
    80004bd8:	7eb00c93          	li	s9,2027

0000000080004bdc <i_4677>:
    80004bdc:	01027863          	bleu	a6,tp,80004bec <i_4681>

0000000080004be0 <i_4678>:
    80004be0:	08e15203          	lhu	tp,142(sp)

0000000080004be4 <i_4679>:
    80004be4:	00000013          	nop

0000000080004be8 <i_4680>:
    80004be8:	e6411d23          	sh	tp,-390(sp)

0000000080004bec <i_4681>:
    80004bec:	0232023b          	mulw	tp,tp,gp

0000000080004bf0 <i_4682>:
    80004bf0:	0032589b          	srliw	a7,tp,0x3

0000000080004bf4 <i_4683>:
    80004bf4:	001e0e13          	addi	t3,t3,1
    80004bf8:	ff9e12e3          	bne	t3,s9,80004bdc <i_4677>

0000000080004bfc <i_4684>:
    80004bfc:	00626c63          	bltu	tp,t1,80004c14 <i_4690>

0000000080004c00 <i_4685>:
    80004c00:	0e410ca3          	sb	tp,249(sp)

0000000080004c04 <i_4686>:
    80004c04:	01113423          	sd	a7,8(sp)

0000000080004c08 <i_4687>:
    80004c08:	01120233          	add	tp,tp,a7

0000000080004c0c <i_4688>:
    80004c0c:	01120a63          	beq	tp,a7,80004c20 <i_4693>

0000000080004c10 <i_4689>:
    80004c10:	00000013          	nop

0000000080004c14 <i_4690>:
    80004c14:	0032589b          	srliw	a7,tp,0x3

0000000080004c18 <i_4691>:
    80004c18:	00420db3          	add	s11,tp,tp

0000000080004c1c <i_4692>:
    80004c1c:	029c24b3          	mulhsu	s1,s8,s1

0000000080004c20 <i_4693>:
    80004c20:	03c14483          	lbu	s1,60(sp)

0000000080004c24 <i_4694>:
    80004c24:	17412d83          	lw	s11,372(sp)

0000000080004c28 <i_4695>:
    80004c28:	74a00213          	li	tp,1866

0000000080004c2c <i_4696>:
    80004c2c:	75c00f13          	li	t5,1884

0000000080004c30 <i_4697>:
    80004c30:	01b4c663          	blt	s1,s11,80004c3c <i_4700>

0000000080004c34 <i_4698>:
    80004c34:	01b4e833          	or	a6,s1,s11

0000000080004c38 <i_4699>:
    80004c38:	40185d93          	srai	s11,a6,0x1

0000000080004c3c <i_4700>:
    80004c3c:	e7c10903          	lb	s2,-388(sp)

0000000080004c40 <i_4701>:
    80004c40:	00111323          	sh	ra,6(sp)

0000000080004c44 <i_4702>:
    80004c44:	03057063          	bleu	a6,a0,80004c64 <i_4709>

0000000080004c48 <i_4703>:
    80004c48:	01008db3          	add	s11,ra,a6

0000000080004c4c <i_4704>:
    80004c4c:	0010fc63          	bleu	ra,ra,80004c64 <i_4709>

0000000080004c50 <i_4705>:
    80004c50:	e7514503          	lbu	a0,-395(sp)

0000000080004c54 <i_4706>:
    80004c54:	00120213          	addi	tp,tp,1 # a246c97d <_end+0x2245c569>
    80004c58:	fde21ce3          	bne	tp,t5,80004c30 <i_4697>

0000000080004c5c <i_4707>:
    80004c5c:	08c12483          	lw	s1,140(sp)

0000000080004c60 <i_4708>:
    80004c60:	03b80463          	beq	a6,s11,80004c88 <i_4718>

0000000080004c64 <i_4709>:
    80004c64:	401dd09b          	sraiw	ra,s11,0x1

0000000080004c68 <i_4710>:
    80004c68:	410580bb          	subw	ra,a1,a6

0000000080004c6c <i_4711>:
    80004c6c:	03657463          	bleu	s6,a0,80004c94 <i_4721>

0000000080004c70 <i_4712>:
    80004c70:	f6a10583          	lb	a1,-150(sp)

0000000080004c74 <i_4713>:
    80004c74:	f5b14503          	lbu	a0,-165(sp)

0000000080004c78 <i_4714>:
    80004c78:	06412a83          	lw	s5,100(sp)

0000000080004c7c <i_4715>:
    80004c7c:	00000013          	nop

0000000080004c80 <i_4716>:
    80004c80:	008a84b3          	add	s1,s5,s0

0000000080004c84 <i_4717>:
    80004c84:	03eadab3          	divu	s5,s5,t5

0000000080004c88 <i_4718>:
    80004c88:	00000013          	nop

0000000080004c8c <i_4719>:
    80004c8c:	00000013          	nop

0000000080004c90 <i_4720>:
    80004c90:	e1c12383          	lw	t2,-484(sp)

0000000080004c94 <i_4721>:
    80004c94:	00210e83          	lb	t4,2(sp)

0000000080004c98 <i_4722>:
    80004c98:	0bd11923          	sh	t4,178(sp)

0000000080004c9c <i_4723>:
    80004c9c:	73000b13          	li	s6,1840

0000000080004ca0 <i_4724>:
    80004ca0:	73b00f13          	li	t5,1851

0000000080004ca4 <i_4725>:
    80004ca4:	00357663          	bleu	gp,a0,80004cb0 <i_4728>

0000000080004ca8 <i_4726>:
    80004ca8:	07612623          	sw	s6,108(sp)

0000000080004cac <i_4727>:
    80004cac:	03635063          	ble	s6,t1,80004ccc <i_4734>

0000000080004cb0 <i_4728>:
    80004cb0:	00000013          	nop

0000000080004cb4 <i_4729>:
    80004cb4:	07013e03          	ld	t3,112(sp)

0000000080004cb8 <i_4730>:
    80004cb8:	03df7333          	remu	t1,t5,t4

0000000080004cbc <i_4731>:
    80004cbc:	001b0b13          	addi	s6,s6,1
    80004cc0:	ffeb12e3          	bne	s6,t5,80004ca4 <i_4725>

0000000080004cc4 <i_4732>:
    80004cc4:	e5a15383          	lhu	t2,-422(sp)

0000000080004cc8 <i_4733>:
    80004cc8:	0ac16403          	lwu	s0,172(sp)

0000000080004ccc <i_4734>:
    80004ccc:	011848b3          	xor	a7,a6,a7

0000000080004cd0 <i_4735>:
    80004cd0:	f1410723          	sb	s4,-242(sp)

0000000080004cd4 <i_4736>:
    80004cd4:	e4811f23          	sh	s0,-418(sp)

0000000080004cd8 <i_4737>:
    80004cd8:	fba11a83          	lh	s5,-70(sp)

0000000080004cdc <i_4738>:
    80004cdc:	eb816f83          	lwu	t6,-328(sp)

0000000080004ce0 <i_4739>:
    80004ce0:	19211803          	lh	a6,402(sp)

0000000080004ce4 <i_4740>:
    80004ce4:	78eae613          	ori	a2,s5,1934

0000000080004ce8 <i_4741>:
    80004ce8:	ecc10ea3          	sb	a2,-291(sp)

0000000080004cec <i_4742>:
    80004cec:	027f1f33          	mulh	t5,t5,t2

0000000080004cf0 <i_4743>:
    80004cf0:	fbe11023          	sh	t5,-96(sp)

0000000080004cf4 <i_4744>:
    80004cf4:	010f3f33          	sltu	t5,t5,a6

0000000080004cf8 <i_4745>:
    80004cf8:	15e10803          	lb	a6,350(sp)

0000000080004cfc <i_4746>:
    80004cfc:	08a13023          	sd	a0,128(sp)

0000000080004d00 <i_4747>:
    80004d00:	f4c13823          	sd	a2,-176(sp)

0000000080004d04 <i_4748>:
    80004d04:	fd010da3          	sb	a6,-37(sp)

0000000080004d08 <i_4749>:
    80004d08:	01ef6663          	bltu	t5,t5,80004d14 <i_4752>

0000000080004d0c <i_4750>:
    80004d0c:	0303f063          	bleu	a6,t2,80004d2c <i_4758>

0000000080004d10 <i_4751>:
    80004d10:	1b415f83          	lhu	t6,436(sp)

0000000080004d14 <i_4752>:
    80004d14:	f9815703          	lhu	a4,-104(sp)

0000000080004d18 <i_4753>:
    80004d18:	02c2c33b          	divw	t1,t0,a2

0000000080004d1c <i_4754>:
    80004d1c:	f8013303          	ld	t1,-128(sp)

0000000080004d20 <i_4755>:
    80004d20:	40175a13          	srai	s4,a4,0x1

0000000080004d24 <i_4756>:
    80004d24:	0b411403          	lh	s0,180(sp)

0000000080004d28 <i_4757>:
    80004d28:	0143a6b3          	slt	a3,t2,s4

0000000080004d2c <i_4758>:
    80004d2c:	f2416a03          	lwu	s4,-220(sp)

0000000080004d30 <i_4759>:
    80004d30:	17416d03          	lwu	s10,372(sp)

0000000080004d34 <i_4760>:
    80004d34:	72e00393          	li	t2,1838

0000000080004d38 <i_4761>:
    80004d38:	73e00713          	li	a4,1854

0000000080004d3c <i_4762>:
    80004d3c:	00711423          	sh	t2,8(sp)

0000000080004d40 <i_4763>:
    80004d40:	0fa109a3          	sb	s10,243(sp)

0000000080004d44 <i_4764>:
    80004d44:	012d61b3          	or	gp,s10,s2

0000000080004d48 <i_4765>:
    80004d48:	19c12083          	lw	ra,412(sp)

0000000080004d4c <i_4766>:
    80004d4c:	18411803          	lh	a6,388(sp)

0000000080004d50 <i_4767>:
    80004d50:	00138393          	addi	t2,t2,1
    80004d54:	fee3e4e3          	bltu	t2,a4,80004d3c <i_4762>

0000000080004d58 <i_4768>:
    80004d58:	1c011d03          	lh	s10,448(sp)

0000000080004d5c <i_4769>:
    80004d5c:	0083ee63          	bltu	t2,s0,80004d78 <i_4776>

0000000080004d60 <i_4770>:
    80004d60:	0303e3b3          	rem	t2,t2,a6

0000000080004d64 <i_4771>:
    80004d64:	02b96463          	bltu	s2,a1,80004d8c <i_4781>

0000000080004d68 <i_4772>:
    80004d68:	8a040a17          	auipc	s4,0x8a040

0000000080004d6c <i_4773>:
    80004d6c:	19011923          	sh	a6,402(sp)

0000000080004d70 <i_4774>:
    80004d70:	0143e863          	bltu	t2,s4,80004d80 <i_4778>

0000000080004d74 <i_4775>:
    80004d74:	ed410623          	sb	s4,-308(sp)

0000000080004d78 <i_4776>:
    80004d78:	f6811523          	sh	s0,-150(sp)

0000000080004d7c <i_4777>:
    80004d7c:	1e412903          	lw	s2,484(sp)

0000000080004d80 <i_4778>:
    80004d80:	0123efb3          	or	t6,t2,s2

0000000080004d84 <i_4779>:
    80004d84:	04815903          	lhu	s2,72(sp)

0000000080004d88 <i_4780>:
    80004d88:	01dfe863          	bltu	t6,t4,80004d98 <i_4784>

0000000080004d8c <i_4781>:
    80004d8c:	002dd91b          	srliw	s2,s11,0x2

0000000080004d90 <i_4782>:
    80004d90:	001f9f93          	slli	t6,t6,0x1

0000000080004d94 <i_4783>:
    80004d94:	f0910f83          	lb	t6,-247(sp)

0000000080004d98 <i_4784>:
    80004d98:	016f8863          	beq	t6,s6,80004da8 <i_4788>

0000000080004d9c <i_4785>:
    80004d9c:	036fe263          	bltu	t6,s6,80004dc0 <i_4794>

0000000080004da0 <i_4786>:
    80004da0:	03313023          	sd	s3,32(sp)

0000000080004da4 <i_4787>:
    80004da4:	03f4e9b3          	rem	s3,s1,t6

0000000080004da8 <i_4788>:
    80004da8:	00000013          	nop

0000000080004dac <i_4789>:
    80004dac:	fd015a83          	lhu	s5,-48(sp)

0000000080004db0 <i_4790>:
    80004db0:	1d013c03          	ld	s8,464(sp)

0000000080004db4 <i_4791>:
    80004db4:	00f9bfb3          	sltu	t6,s3,a5

0000000080004db8 <i_4792>:
    80004db8:	01f9fcb3          	and	s9,s3,t6

0000000080004dbc <i_4793>:
    80004dbc:	00000013          	nop

0000000080004dc0 <i_4794>:
    80004dc0:	05e10083          	lb	ra,94(sp)

0000000080004dc4 <i_4795>:
    80004dc4:	00000013          	nop

0000000080004dc8 <i_4796>:
    80004dc8:	88800913          	li	s2,-1912

0000000080004dcc <i_4797>:
    80004dcc:	88a00393          	li	t2,-1910

0000000080004dd0 <i_4798>:
    80004dd0:	00600093          	li	ra,6

0000000080004dd4 <i_4799>:
    80004dd4:	001c533b          	srlw	t1,s8,ra

0000000080004dd8 <i_4800>:
    80004dd8:	0010eab3          	or	s5,ra,ra

0000000080004ddc <i_4801>:
    80004ddc:	18610b03          	lb	s6,390(sp)

0000000080004de0 <i_4802>:
    80004de0:	f9b10983          	lb	s3,-101(sp)

0000000080004de4 <i_4803>:
    80004de4:	01313423          	sd	s3,8(sp)

0000000080004de8 <i_4804>:
    80004de8:	291a8e13          	addi	t3,s5,657

0000000080004dec <i_4805>:
    80004dec:	fbf14a03          	lbu	s4,-65(sp)

0000000080004df0 <i_4806>:
    80004df0:	021b4463          	blt	s6,ra,80004e18 <i_4815>

0000000080004df4 <i_4807>:
    80004df4:	00190913          	addi	s2,s2,1 # 599c1b0d <main-0x2663e4f3>
    80004df8:	fc794ce3          	blt	s2,t2,80004dd0 <i_4798>

0000000080004dfc <i_4808>:
    80004dfc:	17312023          	sw	s3,352(sp)

0000000080004e00 <i_4809>:
    80004e00:	00400b93          	li	s7,4

0000000080004e04 <i_4810>:
    80004e04:	017b9ab3          	sll	s5,s7,s7

0000000080004e08 <i_4811>:
    80004e08:	015a9463          	bne	s5,s5,80004e10 <i_4813>

0000000080004e0c <i_4812>:
    80004e0c:	fd014a83          	lbu	s5,-48(sp)

0000000080004e10 <i_4813>:
    80004e10:	e7610783          	lb	a5,-394(sp)

0000000080004e14 <i_4814>:
    80004e14:	035bc263          	blt	s7,s5,80004e38 <i_4823>

0000000080004e18 <i_4815>:
    80004e18:	015dfa63          	bleu	s5,s11,80004e2c <i_4820>

0000000080004e1c <i_4816>:
    80004e1c:	00f7fc63          	bleu	a5,a5,80004e34 <i_4822>

0000000080004e20 <i_4817>:
    80004e20:	02f6583b          	divuw	a6,a2,a5

0000000080004e24 <i_4818>:
    80004e24:	40f787b3          	sub	a5,a5,a5

0000000080004e28 <i_4819>:
    80004e28:	3ee6bf97          	auipc	t6,0x3ee6b

0000000080004e2c <i_4820>:
    80004e2c:	00500a93          	li	s5,5

0000000080004e30 <i_4821>:
    80004e30:	0157dabb          	srlw	s5,a5,s5

0000000080004e34 <i_4822>:
    80004e34:	03ff87b3          	mul	a5,t6,t6

0000000080004e38 <i_4823>:
    80004e38:	985a8693          	addi	a3,s5,-1659

0000000080004e3c <i_4824>:
    80004e3c:	005a8263          	beq	s5,t0,80004e40 <i_4825>

0000000080004e40 <i_4825>:
    80004e40:	0157e263          	bltu	a5,s5,80004e44 <i_4826>

0000000080004e44 <i_4826>:
    80004e44:	00d7ea63          	bltu	a5,a3,80004e58 <i_4831>

0000000080004e48 <i_4827>:
    80004e48:	00dafc63          	bleu	a3,s5,80004e60 <i_4833>

0000000080004e4c <i_4828>:
    80004e4c:	00f787b3          	add	a5,a5,a5

0000000080004e50 <i_4829>:
    80004e50:	0157f863          	bleu	s5,a5,80004e60 <i_4833>

0000000080004e54 <i_4830>:
    80004e54:	0cc10683          	lb	a3,204(sp)

0000000080004e58 <i_4831>:
    80004e58:	fd416d83          	lwu	s11,-44(sp)

0000000080004e5c <i_4832>:
    80004e5c:	ff114783          	lbu	a5,-15(sp)

0000000080004e60 <i_4833>:
    80004e60:	0156fb33          	and	s6,a3,s5

0000000080004e64 <i_4834>:
    80004e64:	06b10a83          	lb	s5,107(sp)

0000000080004e68 <i_4835>:
    80004e68:	f6013403          	ld	s0,-160(sp)

0000000080004e6c <i_4836>:
    80004e6c:	03513823          	sd	s5,48(sp)

0000000080004e70 <i_4837>:
    80004e70:	0166de63          	ble	s6,a3,80004e8c <i_4844>

0000000080004e74 <i_4838>:
    80004e74:	f81afd13          	andi	s10,s5,-127

0000000080004e78 <i_4839>:
    80004e78:	fd016d03          	lwu	s10,-48(sp)

0000000080004e7c <i_4840>:
    80004e7c:	00000013          	nop

0000000080004e80 <i_4841>:
    80004e80:	00000013          	nop

0000000080004e84 <i_4842>:
    80004e84:	f8fb4213          	xori	tp,s6,-113

0000000080004e88 <i_4843>:
    80004e88:	9e22009b          	addiw	ra,tp,-1566

0000000080004e8c <i_4844>:
    80004e8c:	00100d13          	li	s10,1

0000000080004e90 <i_4845>:
    80004e90:	01a0de3b          	srlw	t3,ra,s10

0000000080004e94 <i_4846>:
    80004e94:	7eb00b13          	li	s6,2027

0000000080004e98 <i_4847>:
    80004e98:	7f000413          	li	s0,2032

0000000080004e9c <i_4848>:
    80004e9c:	001b0b13          	addi	s6,s6,1
    80004ea0:	fe8b1ee3          	bne	s6,s0,80004e9c <i_4848>

0000000080004ea4 <i_4849>:
    80004ea4:	016e1a63          	bne	t3,s6,80004eb8 <i_4854>

0000000080004ea8 <i_4850>:
    80004ea8:	001d5863          	ble	ra,s10,80004eb8 <i_4854>

0000000080004eac <i_4851>:
    80004eac:	028b61b3          	rem	gp,s6,s0

0000000080004eb0 <i_4852>:
    80004eb0:	4030d513          	srai	a0,ra,0x3

0000000080004eb4 <i_4853>:
    80004eb4:	e7c12983          	lw	s3,-388(sp)

0000000080004eb8 <i_4854>:
    80004eb8:	01e00813          	li	a6,30

0000000080004ebc <i_4855>:
    80004ebc:	0101d1b3          	srl	gp,gp,a6

0000000080004ec0 <i_4856>:
    80004ec0:	e4615503          	lhu	a0,-442(sp)

0000000080004ec4 <i_4857>:
    80004ec4:	1d810403          	lb	s0,472(sp)

0000000080004ec8 <i_4858>:
    80004ec8:	1d011b23          	sh	a6,470(sp)

0000000080004ecc <i_4859>:
    80004ecc:	02af8433          	mul	s0,t6,a0

0000000080004ed0 <i_4860>:
    80004ed0:	0e110483          	lb	s1,225(sp)

0000000080004ed4 <i_4861>:
    80004ed4:	00900213          	li	tp,9

0000000080004ed8 <i_4862>:
    80004ed8:	0045143b          	sllw	s0,a0,tp

0000000080004edc <i_4863>:
    80004edc:	01e46263          	bltu	s0,t5,80004ee0 <i_4864>

0000000080004ee0 <i_4864>:
    80004ee0:	9a51b417          	auipc	s0,0x9a51b

0000000080004ee4 <i_4865>:
    80004ee4:	01c4fe33          	and	t3,s1,t3

0000000080004ee8 <i_4866>:
    80004ee8:	7c800493          	li	s1,1992

0000000080004eec <i_4867>:
    80004eec:	7ca00c93          	li	s9,1994

0000000080004ef0 <i_4868>:
    80004ef0:	e8a13023          	sd	a0,-384(sp)

0000000080004ef4 <i_4869>:
    80004ef4:	0024919b          	slliw	gp,s1,0x2

0000000080004ef8 <i_4870>:
    80004ef8:	1c912a23          	sw	s1,468(sp)

0000000080004efc <i_4871>:
    80004efc:	010e31b3          	sltu	gp,t3,a6

0000000080004f00 <i_4872>:
    80004f00:	06814183          	lbu	gp,104(sp)

0000000080004f04 <i_4873>:
    80004f04:	00148493          	addi	s1,s1,1
    80004f08:	fe9cd4e3          	ble	s1,s9,80004ef0 <i_4868>

0000000080004f0c <i_4874>:
    80004f0c:	4014d51b          	sraiw	a0,s1,0x1

0000000080004f10 <i_4875>:
    80004f10:	00385c9b          	srliw	s9,a6,0x3

0000000080004f14 <i_4876>:
    80004f14:	02320bb3          	mul	s7,tp,gp

0000000080004f18 <i_4877>:
    80004f18:	01c00493          	li	s1,28

0000000080004f1c <i_4878>:
    80004f1c:	4091d4bb          	sraw	s1,gp,s1

0000000080004f20 <i_4879>:
    80004f20:	0298043b          	mulw	s0,a6,s1

0000000080004f24 <i_4880>:
    80004f24:	e7012c23          	sw	a6,-392(sp)

0000000080004f28 <i_4881>:
    80004f28:	02a507b3          	mul	a5,a0,a0

0000000080004f2c <i_4882>:
    80004f2c:	03b00c13          	li	s8,59

0000000080004f30 <i_4883>:
    80004f30:	018411b3          	sll	gp,s0,s8

0000000080004f34 <i_4884>:
    80004f34:	003a0e33          	add	t3,s4,gp

0000000080004f38 <i_4885>:
    80004f38:	0cc16883          	lwu	a7,204(sp)

0000000080004f3c <i_4886>:
    80004f3c:	03926e3b          	remw	t3,tp,s9

0000000080004f40 <i_4887>:
    80004f40:	f0615c83          	lhu	s9,-250(sp)

0000000080004f44 <i_4888>:
    80004f44:	e5013e03          	ld	t3,-432(sp)

0000000080004f48 <i_4889>:
    80004f48:	4024db9b          	sraiw	s7,s1,0x2

0000000080004f4c <i_4890>:
    80004f4c:	fe013483          	ld	s1,-32(sp)

0000000080004f50 <i_4891>:
    80004f50:	1b015c03          	lhu	s8,432(sp)

0000000080004f54 <i_4892>:
    80004f54:	d7120193          	addi	gp,tp,-655 # fffffffffffffd71 <_end+0xffffffff7ffef95d>

0000000080004f58 <i_4893>:
    80004f58:	08912e23          	sw	s1,156(sp)

0000000080004f5c <i_4894>:
    80004f5c:	eda14d03          	lbu	s10,-294(sp)

0000000080004f60 <i_4895>:
    80004f60:	01300793          	li	a5,19

0000000080004f64 <i_4896>:
    80004f64:	00fa5abb          	srlw	s5,s4,a5

0000000080004f68 <i_4897>:
    80004f68:	0f012e03          	lw	t3,240(sp)

0000000080004f6c <i_4898>:
    80004f6c:	003e1263          	bne	t3,gp,80004f70 <i_4899>

0000000080004f70 <i_4899>:
    80004f70:	037d0263          	beq	s10,s7,80004f94 <i_4908>

0000000080004f74 <i_4900>:
    80004f74:	16412683          	lw	a3,356(sp)

0000000080004f78 <i_4901>:
    80004f78:	d8ae4f13          	xori	t5,t3,-630

0000000080004f7c <i_4902>:
    80004f7c:	01980263          	beq	a6,s9,80004f80 <i_4903>

0000000080004f80 <i_4903>:
    80004f80:	00d00e93          	li	t4,13

0000000080004f84 <i_4904>:
    80004f84:	41d4d4b3          	sra	s1,s1,t4

0000000080004f88 <i_4905>:
    80004f88:	da54cc17          	auipc	s8,0xda54c

0000000080004f8c <i_4906>:
    80004f8c:	03600193          	li	gp,54

0000000080004f90 <i_4907>:
    80004f90:	003494b3          	sll	s1,s1,gp

0000000080004f94 <i_4908>:
    80004f94:	fe51f813          	andi	a6,gp,-27

0000000080004f98 <i_4909>:
    80004f98:	08015b83          	lhu	s7,128(sp)

0000000080004f9c <i_4910>:
    80004f9c:	76f00413          	li	s0,1903

0000000080004fa0 <i_4911>:
    80004fa0:	78100f93          	li	t6,1921

0000000080004fa4 <i_4912>:
    80004fa4:	e6c15c03          	lhu	s8,-404(sp)

0000000080004fa8 <i_4913>:
    80004fa8:	40ab88b3          	sub	a7,s7,a0

0000000080004fac <i_4914>:
    80004fac:	00000013          	nop

0000000080004fb0 <i_4915>:
    80004fb0:	031246bb          	divw	a3,tp,a7

0000000080004fb4 <i_4916>:
    80004fb4:	00140413          	addi	s0,s0,1 # 1a51fee1 <main-0x65ae011f>
    80004fb8:	fff446e3          	blt	s0,t6,80004fa4 <i_4912>

0000000080004fbc <i_4917>:
    80004fbc:	003cda63          	ble	gp,s9,80004fd0 <i_4922>

0000000080004fc0 <i_4918>:
    80004fc0:	f6610883          	lb	a7,-154(sp)

0000000080004fc4 <i_4919>:
    80004fc4:	011c0e63          	beq	s8,a7,80004fe0 <i_4926>

0000000080004fc8 <i_4920>:
    80004fc8:	e3012a03          	lw	s4,-464(sp)

0000000080004fcc <i_4921>:
    80004fcc:	0a813403          	ld	s0,168(sp)

0000000080004fd0 <i_4922>:
    80004fd0:	ed016403          	lwu	s0,-304(sp)

0000000080004fd4 <i_4923>:
    80004fd4:	008a3a33          	sltu	s4,s4,s0

0000000080004fd8 <i_4924>:
    80004fd8:	028c5263          	ble	s0,s8,80004ffc <i_4933>

0000000080004fdc <i_4925>:
    80004fdc:	414a0a33          	sub	s4,s4,s4

0000000080004fe0 <i_4926>:
    80004fe0:	4032d29b          	sraiw	t0,t0,0x3

0000000080004fe4 <i_4927>:
    80004fe4:	e7f14f83          	lbu	t6,-385(sp)

0000000080004fe8 <i_4928>:
    80004fe8:	03f2f263          	bleu	t6,t0,8000500c <i_4937>

0000000080004fec <i_4929>:
    80004fec:	f3f11123          	sh	t6,-222(sp)

0000000080004ff0 <i_4930>:
    80004ff0:	e2813f83          	ld	t6,-472(sp)

0000000080004ff4 <i_4931>:
    80004ff4:	02834263          	blt	t1,s0,80005018 <i_4940>

0000000080004ff8 <i_4932>:
    80004ff8:	dd832413          	slti	s0,t1,-552

0000000080004ffc <i_4933>:
    80004ffc:	03f40263          	beq	s0,t6,80005020 <i_4942>

0000000080005000 <i_4934>:
    80005000:	fcb30f9b          	addiw	t6,t1,-53

0000000080005004 <i_4935>:
    80005004:	02843433          	mulhu	s0,s0,s0

0000000080005008 <i_4936>:
    80005008:	06e11f83          	lh	t6,110(sp)

000000008000500c <i_4937>:
    8000500c:	06813823          	sd	s0,112(sp)

0000000080005010 <i_4938>:
    80005010:	00644663          	blt	s0,t1,8000501c <i_4941>

0000000080005014 <i_4939>:
    80005014:	00100493          	li	s1,1

0000000080005018 <i_4940>:
    80005018:	4092533b          	sraw	t1,tp,s1

000000008000501c <i_4941>:
    8000501c:	1bc15483          	lhu	s1,444(sp)

0000000080005020 <i_4942>:
    80005020:	00165613          	srli	a2,a2,0x1

0000000080005024 <i_4943>:
    80005024:	4012599b          	sraiw	s3,tp,0x1

0000000080005028 <i_4944>:
    80005028:	01340433          	add	s0,s0,s3

000000008000502c <i_4945>:
    8000502c:	41320fbb          	subw	t6,tp,s3

0000000080005030 <i_4946>:
    80005030:	01f9aeb3          	slt	t4,s3,t6

0000000080005034 <i_4947>:
    80005034:	03a00893          	li	a7,58

0000000080005038 <i_4948>:
    80005038:	011f96b3          	sll	a3,t6,a7

000000008000503c <i_4949>:
    8000503c:	f84106a3          	sb	tp,-115(sp)

0000000080005040 <i_4950>:
    80005040:	01dff463          	bleu	t4,t6,80005048 <i_4952>

0000000080005044 <i_4951>:
    80005044:	01cdfe63          	bleu	t3,s11,80005060 <i_4958>

0000000080005048 <i_4952>:
    80005048:	03f6d463          	ble	t6,a3,80005070 <i_4962>

000000008000504c <i_4953>:
    8000504c:	02946263          	bltu	s0,s1,80005070 <i_4962>

0000000080005050 <i_4954>:
    80005050:	e5112823          	sw	a7,-432(sp)

0000000080005054 <i_4955>:
    80005054:	0328cb3b          	divw	s6,a7,s2

0000000080005058 <i_4956>:
    80005058:	00000013          	nop

000000008000505c <i_4957>:
    8000505c:	f4813903          	ld	s2,-184(sp)

0000000080005060 <i_4958>:
    80005060:	1d212c23          	sw	s2,472(sp)

0000000080005064 <i_4959>:
    80005064:	00000013          	nop

0000000080005068 <i_4960>:
    80005068:	18110b03          	lb	s6,385(sp)

000000008000506c <i_4961>:
    8000506c:	015b2db3          	slt	s11,s6,s5

0000000080005070 <i_4962>:
    80005070:	14415083          	lhu	ra,324(sp)

0000000080005074 <i_4963>:
    80005074:	0303523b          	divuw	tp,t1,a6

0000000080005078 <i_4964>:
    80005078:	8bd00693          	li	a3,-1859

000000008000507c <i_4965>:
    8000507c:	8c900813          	li	a6,-1847

0000000080005080 <i_4966>:
    80005080:	10615b03          	lhu	s6,262(sp)

0000000080005084 <i_4967>:
    80005084:	ef012603          	lw	a2,-272(sp)

0000000080005088 <i_4968>:
    80005088:	e6110923          	sb	ra,-398(sp)

000000008000508c <i_4969>:
    8000508c:	0240d663          	ble	tp,ra,800050b8 <i_4979>

0000000080005090 <i_4970>:
    80005090:	00168693          	addi	a3,a3,1
    80005094:	ff06e6e3          	bltu	a3,a6,80005080 <i_4966>

0000000080005098 <i_4971>:
    80005098:	f5012f03          	lw	t5,-176(sp)

000000008000509c <i_4972>:
    8000509c:	036b69bb          	remw	s3,s6,s6

00000000800050a0 <i_4973>:
    800050a0:	12a15b03          	lhu	s6,298(sp)

00000000800050a4 <i_4974>:
    800050a4:	00611b03          	lh	s6,6(sp)

00000000800050a8 <i_4975>:
    800050a8:	f6415083          	lhu	ra,-156(sp)

00000000800050ac <i_4976>:
    800050ac:	e4310d03          	lb	s10,-445(sp)

00000000800050b0 <i_4977>:
    800050b0:	01a08bb3          	add	s7,ra,s10

00000000800050b4 <i_4978>:
    800050b4:	eb313023          	sd	s3,-352(sp)

00000000800050b8 <i_4979>:
    800050b8:	4cf54693          	xori	a3,a0,1231

00000000800050bc <i_4980>:
    800050bc:	e5311223          	sh	s3,-444(sp)

00000000800050c0 <i_4981>:
    800050c0:	84700a13          	li	s4,-1977

00000000800050c4 <i_4982>:
    800050c4:	85900b13          	li	s6,-1959

00000000800050c8 <i_4983>:
    800050c8:	1f712223          	sw	s7,484(sp)

00000000800050cc <i_4984>:
    800050cc:	e7013b83          	ld	s7,-400(sp)

00000000800050d0 <i_4985>:
    800050d0:	fd711723          	sh	s7,-50(sp)

00000000800050d4 <i_4986>:
    800050d4:	001a0a13          	addi	s4,s4,1 # a044d69 <main-0x75fbb297>
    800050d8:	ff6a18e3          	bne	s4,s6,800050c8 <i_4983>

00000000800050dc <i_4987>:
    800050dc:	013888b3          	add	a7,a7,s3

00000000800050e0 <i_4988>:
    800050e0:	031a4463          	blt	s4,a7,80005108 <i_4998>

00000000800050e4 <i_4989>:
    800050e4:	0d412623          	sw	s4,204(sp)

00000000800050e8 <i_4990>:
    800050e8:	0bea2b93          	slti	s7,s4,190

00000000800050ec <i_4991>:
    800050ec:	41488a33          	sub	s4,a7,s4

00000000800050f0 <i_4992>:
    800050f0:	011a0663          	beq	s4,a7,800050fc <i_4995>

00000000800050f4 <i_4993>:
    800050f4:	10a15b83          	lhu	s7,266(sp)

00000000800050f8 <i_4994>:
    800050f8:	ec412303          	lw	t1,-316(sp)

00000000800050fc <i_4995>:
    800050fc:	10015b83          	lhu	s7,256(sp)

0000000080005100 <i_4996>:
    80005100:	f4e15883          	lhu	a7,-178(sp)

0000000080005104 <i_4997>:
    80005104:	0d910883          	lb	a7,217(sp)

0000000080005108 <i_4998>:
    80005108:	1c013d83          	ld	s11,448(sp)

000000008000510c <i_4999>:
    8000510c:	c12df893          	andi	a7,s11,-1006

0000000080005110 <i_5000>:
    80005110:	003d9d9b          	slliw	s11,s11,0x3

0000000080005114 <i_5001>:
    80005114:	79a00b93          	li	s7,1946

0000000080005118 <i_5002>:
    80005118:	7a100b13          	li	s6,1953

000000008000511c <i_5003>:
    8000511c:	00ebd663          	ble	a4,s7,80005128 <i_5006>

0000000080005120 <i_5004>:
    80005120:	e3110d23          	sb	a7,-454(sp)

0000000080005124 <i_5005>:
    80005124:	04214883          	lbu	a7,66(sp)

0000000080005128 <i_5006>:
    80005128:	ea00a093          	slti	ra,ra,-352

000000008000512c <i_5007>:
    8000512c:	15e15603          	lhu	a2,350(sp)

0000000080005130 <i_5008>:
    80005130:	0210863b          	mulw	a2,ra,ra

0000000080005134 <i_5009>:
    80005134:	016b1e63          	bne	s6,s6,80005150 <i_5016>

0000000080005138 <i_5010>:
    80005138:	f8c11623          	sh	a2,-116(sp)

000000008000513c <i_5011>:
    8000513c:	12811283          	lh	t0,296(sp)

0000000080005140 <i_5012>:
    80005140:	01200093          	li	ra,18

0000000080005144 <i_5013>:
    80005144:	4012d2b3          	sra	t0,t0,ra

0000000080005148 <i_5014>:
    80005148:	4024d49b          	sraiw	s1,s1,0x2

000000008000514c <i_5015>:
    8000514c:	1cc16083          	lwu	ra,460(sp)

0000000080005150 <i_5016>:
    80005150:	f9412e83          	lw	t4,-108(sp)

0000000080005154 <i_5017>:
    80005154:	e3710283          	lb	t0,-457(sp)

0000000080005158 <i_5018>:
    80005158:	001b8b93          	addi	s7,s7,1 # 40ed0001 <main-0x3f12ffff>
    8000515c:	fd6bc0e3          	blt	s7,s6,8000511c <i_5003>

0000000080005160 <i_5019>:
    80005160:	e6c16083          	lwu	ra,-404(sp)

0000000080005164 <i_5020>:
    80005164:	11d11023          	sh	t4,256(sp)

0000000080005168 <i_5021>:
    80005168:	00154e63          	blt	a0,ra,80005184 <i_5028>

000000008000516c <i_5022>:
    8000516c:	4020de9b          	sraiw	t4,ra,0x2

0000000080005170 <i_5023>:
    80005170:	05816e83          	lwu	t4,88(sp)

0000000080005174 <i_5024>:
    80005174:	402ede93          	srai	t4,t4,0x2

0000000080005178 <i_5025>:
    80005178:	18416f03          	lwu	t5,388(sp)

000000008000517c <i_5026>:
    8000517c:	0a611e83          	lh	t4,166(sp)

0000000080005180 <i_5027>:
    80005180:	02c16e83          	lwu	t4,44(sp)

0000000080005184 <i_5028>:
    80005184:	eaa15e83          	lhu	t4,-342(sp)

0000000080005188 <i_5029>:
    80005188:	8cb40e9b          	addiw	t4,s0,-1845

000000008000518c <i_5030>:
    8000518c:	88f00093          	li	ra,-1905

0000000080005190 <i_5031>:
    80005190:	89600513          	li	a0,-1898

0000000080005194 <i_5032>:
    80005194:	03d7d663          	ble	t4,a5,800051c0 <i_5042>

0000000080005198 <i_5033>:
    80005198:	0fd10f23          	sb	t4,254(sp)

000000008000519c <i_5034>:
    8000519c:	e7812c23          	sw	s8,-392(sp)

00000000800051a0 <i_5035>:
    800051a0:	03def333          	remu	t1,t4,t4

00000000800051a4 <i_5036>:
    800051a4:	e6610283          	lb	t0,-410(sp)

00000000800051a8 <i_5037>:
    800051a8:	00108093          	addi	ra,ra,1
    800051ac:	fea0c4e3          	blt	ra,a0,80005194 <i_5032>

00000000800051b0 <i_5038>:
    800051b0:	b63cb337          	lui	t1,0xb63cb

00000000800051b4 <i_5039>:
    800051b4:	c53c1db7          	lui	s11,0xc53c1

00000000800051b8 <i_5040>:
    800051b8:	004ed893          	srli	a7,t4,0x4

00000000800051bc <i_5041>:
    800051bc:	f1d11d23          	sh	t4,-230(sp)

00000000800051c0 <i_5042>:
    800051c0:	03d356bb          	divuw	a3,t1,t4

00000000800051c4 <i_5043>:
    800051c4:	1bd11e23          	sh	t4,444(sp)

00000000800051c8 <i_5044>:
    800051c8:	01c10d03          	lb	s10,28(sp)

00000000800051cc <i_5045>:
    800051cc:	00dd6933          	or	s2,s10,a3

00000000800051d0 <i_5046>:
    800051d0:	0396e463          	bltu	a3,s9,800051f8 <i_5056>

00000000800051d4 <i_5047>:
    800051d4:	00e15e83          	lhu	t4,14(sp)

00000000800051d8 <i_5048>:
    800051d8:	004b949b          	slliw	s1,s7,0x4

00000000800051dc <i_5049>:
    800051dc:	01100313          	li	t1,17

00000000800051e0 <i_5050>:
    800051e0:	006e94b3          	sll	s1,t4,t1

00000000800051e4 <i_5051>:
    800051e4:	035d073b          	mulw	a4,s10,s5

00000000800051e8 <i_5052>:
    800051e8:	0264d463          	ble	t1,s1,80005210 <i_5062>

00000000800051ec <i_5053>:
    800051ec:	02f74263          	blt	a4,a5,80005210 <i_5062>

00000000800051f0 <i_5054>:
    800051f0:	02ed9063          	bne	s11,a4,80005210 <i_5062>

00000000800051f4 <i_5055>:
    800051f4:	02e47e33          	remu	t3,s0,a4

00000000800051f8 <i_5056>:
    800051f8:	dd148e1b          	addiw	t3,s1,-559

00000000800051fc <i_5057>:
    800051fc:	f6c12b03          	lw	s6,-148(sp)

0000000080005200 <i_5058>:
    80005200:	610e3493          	sltiu	s1,t3,1552

0000000080005204 <i_5059>:
    80005204:	fbc12e23          	sw	t3,-68(sp)

0000000080005208 <i_5060>:
    80005208:	e4d10d03          	lb	s10,-435(sp)

000000008000520c <i_5061>:
    8000520c:	00000013          	nop

0000000080005210 <i_5062>:
    80005210:	e2214c03          	lbu	s8,-478(sp)

0000000080005214 <i_5063>:
    80005214:	00000013          	nop

0000000080005218 <i_5064>:
    80005218:	76f00813          	li	a6,1903

000000008000521c <i_5065>:
    8000521c:	77900f93          	li	t6,1913

0000000080005220 <i_5066>:
    80005220:	6a448413          	addi	s0,s1,1700

0000000080005224 <i_5067>:
    80005224:	03813c23          	sd	s8,56(sp)

0000000080005228 <i_5068>:
    80005228:	00180813          	addi	a6,a6,1
    8000522c:	ff0ffae3          	bleu	a6,t6,80005220 <i_5066>

0000000080005230 <i_5069>:
    80005230:	401984bb          	subw	s1,s3,ra

0000000080005234 <i_5070>:
    80005234:	20c40093          	addi	ra,s0,524

0000000080005238 <i_5071>:
    80005238:	04913023          	sd	s1,64(sp)

000000008000523c <i_5072>:
    8000523c:	00b00493          	li	s1,11

0000000080005240 <i_5073>:
    80005240:	0090d6bb          	srlw	a3,ra,s1

0000000080005244 <i_5074>:
    80005244:	00dede63          	ble	a3,t4,80005260 <i_5081>

0000000080005248 <i_5075>:
    80005248:	1b014583          	lbu	a1,432(sp)

000000008000524c <i_5076>:
    8000524c:	4104883b          	subw	a6,s1,a6

0000000080005250 <i_5077>:
    80005250:	e2111823          	sh	ra,-464(sp)

0000000080005254 <i_5078>:
    80005254:	0a813e83          	ld	t4,168(sp)

0000000080005258 <i_5079>:
    80005258:	00958533          	add	a0,a1,s1

000000008000525c <i_5080>:
    8000525c:	0025159b          	slliw	a1,a0,0x2

0000000080005260 <i_5081>:
    80005260:	efc10c03          	lb	s8,-260(sp)

0000000080005264 <i_5082>:
    80005264:	e6813183          	ld	gp,-408(sp)

0000000080005268 <i_5083>:
    80005268:	03d18c3b          	mulw	s8,gp,t4

000000008000526c <i_5084>:
    8000526c:	76700e93          	li	t4,1895

0000000080005270 <i_5085>:
    80005270:	76900a93          	li	s5,1897

0000000080005274 <i_5086>:
    80005274:	edbee713          	ori	a4,t4,-293

0000000080005278 <i_5087>:
    80005278:	00e3fc63          	bleu	a4,t2,80005290 <i_5093>

000000008000527c <i_5088>:
    8000527c:	90c6b397          	auipc	t2,0x90c6b

0000000080005280 <i_5089>:
    80005280:	fd012b03          	lw	s6,-48(sp)

0000000080005284 <i_5090>:
    80005284:	00000013          	nop

0000000080005288 <i_5091>:
    80005288:	f2510e03          	lb	t3,-219(sp)

000000008000528c <i_5092>:
    8000528c:	e4e15583          	lhu	a1,-434(sp)

0000000080005290 <i_5093>:
    80005290:	ae632313          	slti	t1,t1,-1306

0000000080005294 <i_5094>:
    80005294:	0d813083          	ld	ra,216(sp)

0000000080005298 <i_5095>:
    80005298:	4023d29b          	sraiw	t0,t2,0x2

000000008000529c <i_5096>:
    8000529c:	03900193          	li	gp,57

00000000800052a0 <i_5097>:
    800052a0:	003e9433          	sll	s0,t4,gp

00000000800052a4 <i_5098>:
    800052a4:	001e8e93          	addi	t4,t4,1
    800052a8:	fddaf6e3          	bleu	t4,s5,80005274 <i_5086>

00000000800052ac <i_5099>:
    800052ac:	01812c23          	sw	s8,24(sp)

00000000800052b0 <i_5100>:
    800052b0:	0ee15283          	lhu	t0,238(sp)

00000000800052b4 <i_5101>:
    800052b4:	02576063          	bltu	a4,t0,800052d4 <i_5109>

00000000800052b8 <i_5102>:
    800052b8:	0071f1b3          	and	gp,gp,t2

00000000800052bc <i_5103>:
    800052bc:	0167fc63          	bleu	s6,a5,800052d4 <i_5109>

00000000800052c0 <i_5104>:
    800052c0:	f5813303          	ld	t1,-168(sp)

00000000800052c4 <i_5105>:
    800052c4:	02159fb3          	mulh	t6,a1,ra

00000000800052c8 <i_5106>:
    800052c8:	01c31a63          	bne	t1,t3,800052dc <i_5111>

00000000800052cc <i_5107>:
    800052cc:	02b35463          	ble	a1,t1,800052f4 <i_5117>

00000000800052d0 <i_5108>:
    800052d0:	016fc263          	blt	t6,s6,800052d4 <i_5109>

00000000800052d4 <i_5109>:
    800052d4:	13914a83          	lbu	s5,313(sp)

00000000800052d8 <i_5110>:
    800052d8:	06813183          	ld	gp,104(sp)

00000000800052dc <i_5111>:
    800052dc:	03439063          	bne	t2,s4,800052fc <i_5119>

00000000800052e0 <i_5112>:
    800052e0:	11511e23          	sh	s5,284(sp)

00000000800052e4 <i_5113>:
    800052e4:	001ac863          	blt	s5,ra,800052f4 <i_5117>

00000000800052e8 <i_5114>:
    800052e8:	00170e63          	beq	a4,ra,80005304 <i_5121>

00000000800052ec <i_5115>:
    800052ec:	00e1ca63          	blt	gp,a4,80005300 <i_5120>

00000000800052f0 <i_5116>:
    800052f0:	14510623          	sb	t0,332(sp)

00000000800052f4 <i_5117>:
    800052f4:	e8baf493          	andi	s1,s5,-373

00000000800052f8 <i_5118>:
    800052f8:	42e57737          	lui	a4,0x42e57

00000000800052fc <i_5119>:
    800052fc:	0ec15703          	lhu	a4,236(sp)

0000000080005300 <i_5120>:
    80005300:	16910623          	sb	s1,364(sp)

0000000080005304 <i_5121>:
    80005304:	13811483          	lh	s1,312(sp)

0000000080005308 <i_5122>:
    80005308:	16911923          	sh	s1,370(sp)

000000008000530c <i_5123>:
    8000530c:	02e70733          	mul	a4,a4,a4

0000000080005310 <i_5124>:
    80005310:	18812703          	lw	a4,392(sp)

0000000080005314 <i_5125>:
    80005314:	e4e102a3          	sb	a4,-443(sp)

0000000080005318 <i_5126>:
    80005318:	00e74263          	blt	a4,a4,8000531c <i_5127>

000000008000531c <i_5127>:
    8000531c:	8254a393          	slti	t2,s1,-2011

0000000080005320 <i_5128>:
    80005320:	00675c63          	ble	t1,a4,80005338 <i_5134>

0000000080005324 <i_5129>:
    80005324:	0ce13823          	sd	a4,208(sp)

0000000080005328 <i_5130>:
    80005328:	01600393          	li	t2,22

000000008000532c <i_5131>:
    8000532c:	0077533b          	srlw	t1,a4,t2

0000000080005330 <i_5132>:
    80005330:	0094f263          	bleu	s1,s1,80005334 <i_5133>

0000000080005334 <i_5133>:
    80005334:	4023549b          	sraiw	s1,t1,0x2

0000000080005338 <i_5134>:
    80005338:	03812303          	lw	t1,56(sp)

000000008000533c <i_5135>:
    8000533c:	00700a93          	li	s5,7

0000000080005340 <i_5136>:
    80005340:	415ddabb          	sraw	s5,s11,s5

0000000080005344 <i_5137>:
    80005344:	f90101a3          	sb	a6,-125(sp)

0000000080005348 <i_5138>:
    80005348:	00661463          	bne	a2,t1,80005350 <i_5140>

000000008000534c <i_5139>:
    8000534c:	eba11303          	lh	t1,-326(sp)

0000000080005350 <i_5140>:
    80005350:	3c562093          	slti	ra,a2,965

0000000080005354 <i_5141>:
    80005354:	e8910d03          	lb	s10,-375(sp)

0000000080005358 <i_5142>:
    80005358:	8c300613          	li	a2,-1853

000000008000535c <i_5143>:
    8000535c:	8d600b93          	li	s7,-1834

0000000080005360 <i_5144>:
    80005360:	14012a03          	lw	s4,320(sp)

0000000080005364 <i_5145>:
    80005364:	16111623          	sh	ra,364(sp)

0000000080005368 <i_5146>:
    80005368:	01509263          	bne	ra,s5,8000536c <i_5147>

000000008000536c <i_5147>:
    8000536c:	1ba12e23          	sw	s10,444(sp)

0000000080005370 <i_5148>:
    80005370:	20aa009b          	addiw	ra,s4,522

0000000080005374 <i_5149>:
    80005374:	03a0e263          	bltu	ra,s10,80005398 <i_5157>

0000000080005378 <i_5150>:
    80005378:	00000013          	nop

000000008000537c <i_5151>:
    8000537c:	9a1d4e93          	xori	t4,s10,-1631

0000000080005380 <i_5152>:
    80005380:	08c12a03          	lw	s4,140(sp)

0000000080005384 <i_5153>:
    80005384:	03df1f33          	mulh	t5,t5,t4

0000000080005388 <i_5154>:
    80005388:	00160613          	addi	a2,a2,1 # dd0e0949 <_end+0x5d0d0535>
    8000538c:	fd766ae3          	bltu	a2,s7,80005360 <i_5144>

0000000080005390 <i_5155>:
    80005390:	ece11e83          	lh	t4,-306(sp)

0000000080005394 <i_5156>:
    80005394:	0c011a03          	lh	s4,192(sp)

0000000080005398 <i_5157>:
    80005398:	0dc12903          	lw	s2,220(sp)

000000008000539c <i_5158>:
    8000539c:	e6110a23          	sb	ra,-396(sp)

00000000800053a0 <i_5159>:
    800053a0:	0210bbb3          	mulhu	s7,ra,ra

00000000800053a4 <i_5160>:
    800053a4:	014b9263          	bne	s7,s4,800053a8 <i_5161>

00000000800053a8 <i_5161>:
    800053a8:	e6d10083          	lb	ra,-403(sp)

00000000800053ac <i_5162>:
    800053ac:	1a113823          	sd	ra,432(sp)

00000000800053b0 <i_5163>:
    800053b0:	19012a03          	lw	s4,400(sp)

00000000800053b4 <i_5164>:
    800053b4:	fee11083          	lh	ra,-18(sp)

00000000800053b8 <i_5165>:
    800053b8:	1cc15903          	lhu	s2,460(sp)

00000000800053bc <i_5166>:
    800053bc:	16b13c23          	sd	a1,376(sp)

00000000800053c0 <i_5167>:
    800053c0:	012a0a33          	add	s4,s4,s2

00000000800053c4 <i_5168>:
    800053c4:	032a70b3          	remu	ra,s4,s2

00000000800053c8 <i_5169>:
    800053c8:	0046e2b3          	or	t0,a3,tp

00000000800053cc <i_5170>:
    800053cc:	ea415203          	lhu	tp,-348(sp)

00000000800053d0 <i_5171>:
    800053d0:	07016703          	lwu	a4,112(sp)

00000000800053d4 <i_5172>:
    800053d4:	90b49217          	auipc	tp,0x90b49

00000000800053d8 <i_5173>:
    800053d8:	04513423          	sd	t0,72(sp)

00000000800053dc <i_5174>:
    800053dc:	4022db9b          	sraiw	s7,t0,0x2

00000000800053e0 <i_5175>:
    800053e0:	00400593          	li	a1,4

00000000800053e4 <i_5176>:
    800053e4:	00b955bb          	srlw	a1,s2,a1

00000000800053e8 <i_5177>:
    800053e8:	037b9463          	bne	s7,s7,80005410 <i_5187>

00000000800053ec <i_5178>:
    800053ec:	18512823          	sw	t0,400(sp)

00000000800053f0 <i_5179>:
    800053f0:	01211a63          	bne	sp,s2,80005404 <i_5184>

00000000800053f4 <i_5180>:
    800053f4:	e8a11703          	lh	a4,-374(sp)

00000000800053f8 <i_5181>:
    800053f8:	e8b13023          	sd	a1,-384(sp)

00000000800053fc <i_5182>:
    800053fc:	12a15f03          	lhu	t5,298(sp)

0000000080005400 <i_5183>:
    80005400:	038b893b          	mulw	s2,s7,s8

0000000080005404 <i_5184>:
    80005404:	f0015e03          	lhu	t3,-256(sp)

0000000080005408 <i_5185>:
    80005408:	fee13423          	sd	a4,-24(sp)

000000008000540c <i_5186>:
    8000540c:	132106a3          	sb	s2,301(sp)

0000000080005410 <i_5187>:
    80005410:	08e12c23          	sw	a4,152(sp)

0000000080005414 <i_5188>:
    80005414:	01c74c63          	blt	a4,t3,8000542c <i_5194>

0000000080005418 <i_5189>:
    80005418:	01ef6c63          	bltu	t5,t5,80005430 <i_5195>

000000008000541c <i_5190>:
    8000541c:	03291263          	bne	s2,s2,80005440 <i_5199>

0000000080005420 <i_5191>:
    80005420:	00cf6c63          	bltu	t5,a2,80005438 <i_5197>

0000000080005424 <i_5192>:
    80005424:	10a11423          	sh	a0,264(sp)

0000000080005428 <i_5193>:
    80005428:	01e9c863          	blt	s3,t5,80005438 <i_5197>

000000008000542c <i_5194>:
    8000542c:	04611c23          	sh	t1,88(sp)

0000000080005430 <i_5195>:
    80005430:	01275263          	ble	s2,a4,80005434 <i_5196>

0000000080005434 <i_5196>:
    80005434:	03e13423          	sd	t5,40(sp)

0000000080005438 <i_5197>:
    80005438:	c6d4f2b7          	lui	t0,0xc6d4f

000000008000543c <i_5198>:
    8000543c:	410d8b33          	sub	s6,s11,a6

0000000080005440 <i_5199>:
    80005440:	ed011303          	lh	t1,-304(sp)

0000000080005444 <i_5200>:
    80005444:	007b1263          	bne	s6,t2,80005448 <i_5201>

0000000080005448 <i_5201>:
    80005448:	e9611b23          	sh	s6,-362(sp)

000000008000544c <i_5202>:
    8000544c:	016e0263          	beq	t3,s6,80005450 <i_5203>

0000000080005450 <i_5203>:
    80005450:	03a00b13          	li	s6,58

0000000080005454 <i_5204>:
    80005454:	016b5b33          	srl	s6,s6,s6

0000000080005458 <i_5205>:
    80005458:	08611023          	sh	t1,128(sp)

000000008000545c <i_5206>:
    8000545c:	ed411383          	lh	t2,-300(sp)

0000000080005460 <i_5207>:
    80005460:	016b4e63          	blt	s6,s6,8000547c <i_5214>

0000000080005464 <i_5208>:
    80005464:	0065dc63          	ble	t1,a1,8000547c <i_5214>

0000000080005468 <i_5209>:
    80005468:	e4f10b03          	lb	s6,-433(sp)

000000008000546c <i_5210>:
    8000546c:	016a1a63          	bne	s4,s6,80005480 <i_5215>

0000000080005470 <i_5211>:
    80005470:	016b7663          	bleu	s6,s6,8000547c <i_5214>

0000000080005474 <i_5212>:
    80005474:	19613423          	sd	s6,392(sp)

0000000080005478 <i_5213>:
    80005478:	02812b03          	lw	s6,40(sp)

000000008000547c <i_5214>:
    8000547c:	016b1a63          	bne	s6,s6,80005490 <i_5219>

0000000080005480 <i_5215>:
    80005480:	007b7c63          	bleu	t2,s6,80005498 <i_5221>

0000000080005484 <i_5216>:
    80005484:	8d01e437          	lui	s0,0x8d01e

0000000080005488 <i_5217>:
    80005488:	0169cc63          	blt	s3,s6,800054a0 <i_5223>

000000008000548c <i_5218>:
    8000548c:	0224c4b3          	div	s1,s1,sp

0000000080005490 <i_5219>:
    80005490:	fc614883          	lbu	a7,-58(sp)

0000000080005494 <i_5220>:
    80005494:	00310483          	lb	s1,3(sp)

0000000080005498 <i_5221>:
    80005498:	eea10483          	lb	s1,-278(sp)

000000008000549c <i_5222>:
    8000549c:	401fd19b          	sraiw	gp,t6,0x1

00000000800054a0 <i_5223>:
    800054a0:	031d8463          	beq	s11,a7,800054c8 <i_5233>

00000000800054a4 <i_5224>:
    800054a4:	14e15483          	lhu	s1,334(sp)

00000000800054a8 <i_5225>:
    800054a8:	eea10f83          	lb	t6,-278(sp)

00000000800054ac <i_5226>:
    800054ac:	f0412703          	lw	a4,-252(sp)

00000000800054b0 <i_5227>:
    800054b0:	01f1cc63          	blt	gp,t6,800054c8 <i_5233>

00000000800054b4 <i_5228>:
    800054b4:	0294aab3          	mulhsu	s5,s1,s1

00000000800054b8 <i_5229>:
    800054b8:	e4c10883          	lb	a7,-436(sp)

00000000800054bc <i_5230>:
    800054bc:	00e3fa63          	bleu	a4,t2,800054d0 <i_5235>

00000000800054c0 <i_5231>:
    800054c0:	029affb3          	remu	t6,s5,s1

00000000800054c4 <i_5232>:
    800054c4:	02e75063          	ble	a4,a4,800054e4 <i_5240>

00000000800054c8 <i_5233>:
    800054c8:	1c911023          	sh	s1,448(sp)

00000000800054cc <i_5234>:
    800054cc:	010f80b3          	add	ra,t6,a6

00000000800054d0 <i_5235>:
    800054d0:	01f4a1b3          	slt	gp,s1,t6

00000000800054d4 <i_5236>:
    800054d4:	e9813c03          	ld	s8,-360(sp)

00000000800054d8 <i_5237>:
    800054d8:	402ed51b          	sraiw	a0,t4,0x2

00000000800054dc <i_5238>:
    800054dc:	e7813583          	ld	a1,-392(sp)

00000000800054e0 <i_5239>:
    800054e0:	0185ea63          	bltu	a1,s8,800054f4 <i_5244>

00000000800054e4 <i_5240>:
    800054e4:	ebf10a03          	lb	s4,-321(sp)

00000000800054e8 <i_5241>:
    800054e8:	00b5cdb3          	xor	s11,a1,a1

00000000800054ec <i_5242>:
    800054ec:	01854c63          	blt	a0,s8,80005504 <i_5248>

00000000800054f0 <i_5243>:
    800054f0:	01ba5c63          	ble	s11,s4,80005508 <i_5249>

00000000800054f4 <i_5244>:
    800054f4:	403ede93          	srai	t4,t4,0x3

00000000800054f8 <i_5245>:
    800054f8:	0fa14283          	lbu	t0,250(sp)

00000000800054fc <i_5246>:
    800054fc:	ff412e23          	sw	s4,-4(sp)

0000000080005500 <i_5247>:
    80005500:	17013e83          	ld	t4,368(sp)

0000000080005504 <i_5248>:
    80005504:	00000013          	nop

0000000080005508 <i_5249>:
    80005508:	f7811323          	sh	s8,-154(sp)

000000008000550c <i_5250>:
    8000550c:	00000013          	nop

0000000080005510 <i_5251>:
    80005510:	79300513          	li	a0,1939

0000000080005514 <i_5252>:
    80005514:	79f00713          	li	a4,1951

0000000080005518 <i_5253>:
    80005518:	12215c03          	lhu	s8,290(sp)

000000008000551c <i_5254>:
    8000551c:	05613423          	sd	s6,72(sp)

0000000080005520 <i_5255>:
    80005520:	03412603          	lw	a2,52(sp)

0000000080005524 <i_5256>:
    80005524:	00412e83          	lw	t4,4(sp)

0000000080005528 <i_5257>:
    80005528:	00c61263          	bne	a2,a2,8000552c <i_5258>

000000008000552c <i_5258>:
    8000552c:	00000013          	nop

0000000080005530 <i_5259>:
    80005530:	403c529b          	sraiw	t0,s8,0x3

0000000080005534 <i_5260>:
    80005534:	f6813283          	ld	t0,-152(sp)

0000000080005538 <i_5261>:
    80005538:	00150513          	addi	a0,a0,1 # 24ba3ba9 <main-0x5b45c457>
    8000553c:	fce56ee3          	bltu	a0,a4,80005518 <i_5253>

0000000080005540 <i_5262>:
    80005540:	13e10603          	lb	a2,318(sp)

0000000080005544 <i_5263>:
    80005544:	00c60663          	beq	a2,a2,80005550 <i_5266>

0000000080005548 <i_5264>:
    80005548:	e8b41837          	lui	a6,0xe8b41

000000008000554c <i_5265>:
    8000554c:	05016603          	lwu	a2,80(sp)

0000000080005550 <i_5266>:
    80005550:	16910c23          	sb	s1,376(sp)

0000000080005554 <i_5267>:
    80005554:	030daeb3          	mulhsu	t4,s11,a6

0000000080005558 <i_5268>:
    80005558:	039c9cb3          	mulh	s9,s9,s9

000000008000555c <i_5269>:
    8000555c:	401cd81b          	sraiw	a6,s9,0x1

0000000080005560 <i_5270>:
    80005560:	e5013803          	ld	a6,-432(sp)

0000000080005564 <i_5271>:
    80005564:	8a600e93          	li	t4,-1882

0000000080005568 <i_5272>:
    80005568:	8b000a93          	li	s5,-1872

000000008000556c <i_5273>:
    8000556c:	03abe263          	bltu	s7,s10,80005590 <i_5281>

0000000080005570 <i_5274>:
    80005570:	001e8e93          	addi	t4,t4,1
    80005574:	ff5e9ce3          	bne	t4,s5,8000556c <i_5273>

0000000080005578 <i_5275>:
    80005578:	ef513823          	sd	s5,-272(sp)

000000008000557c <i_5276>:
    8000557c:	11010423          	sb	a6,264(sp)

0000000080005580 <i_5277>:
    80005580:	00485f1b          	srliw	t5,a6,0x4

0000000080005584 <i_5278>:
    80005584:	14914083          	lbu	ra,329(sp)

0000000080005588 <i_5279>:
    80005588:	00987e63          	bleu	s1,a6,800055a4 <i_5286>

000000008000558c <i_5280>:
    8000558c:	1d016e03          	lwu	t3,464(sp)

0000000080005590 <i_5281>:
    80005590:	00c00093          	li	ra,12

0000000080005594 <i_5282>:
    80005594:	401154b3          	sra	s1,sp,ra

0000000080005598 <i_5283>:
    80005598:	e7c11083          	lh	ra,-388(sp)

000000008000559c <i_5284>:
    8000559c:	01ce6463          	bltu	t3,t3,800055a4 <i_5286>

00000000800055a0 <i_5285>:
    800055a0:	02908463          	beq	ra,s1,800055c8 <i_5295>

00000000800055a4 <i_5286>:
    800055a4:	f4810e03          	lb	t3,-184(sp)

00000000800055a8 <i_5287>:
    800055a8:	08112a23          	sw	ra,148(sp)

00000000800055ac <i_5288>:
    800055ac:	02416483          	lwu	s1,36(sp)

00000000800055b0 <i_5289>:
    800055b0:	01c47463          	bleu	t3,s0,800055b8 <i_5291>

00000000800055b4 <i_5290>:
    800055b4:	01c4b533          	sltu	a0,s1,t3

00000000800055b8 <i_5291>:
    800055b8:	31c50593          	addi	a1,a0,796

00000000800055bc <i_5292>:
    800055bc:	0d813403          	ld	s0,216(sp)

00000000800055c0 <i_5293>:
    800055c0:	00f00293          	li	t0,15

00000000800055c4 <i_5294>:
    800055c4:	005a1a3b          	sllw	s4,s4,t0

00000000800055c8 <i_5295>:
    800055c8:	0142ce33          	xor	t3,t0,s4

00000000800055cc <i_5296>:
    800055cc:	0038d893          	srli	a7,a7,0x3

00000000800055d0 <i_5297>:
    800055d0:	025d8063          	beq	s11,t0,800055f0 <i_5305>

00000000800055d4 <i_5298>:
    800055d4:	00110d03          	lb	s10,1(sp)

00000000800055d8 <i_5299>:
    800055d8:	0e512023          	sw	t0,224(sp)

00000000800055dc <i_5300>:
    800055dc:	e5a13823          	sd	s10,-432(sp)

00000000800055e0 <i_5301>:
    800055e0:	0d013683          	ld	a3,208(sp)

00000000800055e4 <i_5302>:
    800055e4:	f1d10e83          	lb	t4,-227(sp)

00000000800055e8 <i_5303>:
    800055e8:	4017d893          	srai	a7,a5,0x1

00000000800055ec <i_5304>:
    800055ec:	19a109a3          	sb	s10,403(sp)

00000000800055f0 <i_5305>:
    800055f0:	036881b3          	mul	gp,a7,s6

00000000800055f4 <i_5306>:
    800055f4:	03c8b333          	mulhu	t1,a7,t3

00000000800055f8 <i_5307>:
    800055f8:	83700b13          	li	s6,-1993

00000000800055fc <i_5308>:
    800055fc:	84b00793          	li	a5,-1973

0000000080005600 <i_5309>:
    80005600:	02ded463          	ble	a3,t4,80005628 <i_5318>

0000000080005604 <i_5310>:
    80005604:	001b0b13          	addi	s6,s6,1
    80005608:	ff67dce3          	ble	s6,a5,80005600 <i_5309>

000000008000560c <i_5311>:
    8000560c:	ff112423          	sw	a7,-24(sp)

0000000080005610 <i_5312>:
    80005610:	003a5a13          	srli	s4,s4,0x3

0000000080005614 <i_5313>:
    80005614:	01d1e333          	or	t1,gp,t4

0000000080005618 <i_5314>:
    80005618:	0f016403          	lwu	s0,240(sp)

000000008000561c <i_5315>:
    8000561c:	00000013          	nop

0000000080005620 <i_5316>:
    80005620:	1a016303          	lwu	t1,416(sp)

0000000080005624 <i_5317>:
    80005624:	01412603          	lw	a2,20(sp)

0000000080005628 <i_5318>:
    80005628:	1d411623          	sh	s4,460(sp)

000000008000562c <i_5319>:
    8000562c:	5b3a4a13          	xori	s4,s4,1459

0000000080005630 <i_5320>:
    80005630:	7ac00e93          	li	t4,1964

0000000080005634 <i_5321>:
    80005634:	7b700193          	li	gp,1975

0000000080005638 <i_5322>:
    80005638:	0d615a03          	lhu	s4,214(sp)

000000008000563c <i_5323>:
    8000563c:	4bba2693          	slti	a3,s4,1211

0000000080005640 <i_5324>:
    80005640:	03668b3b          	mulw	s6,a3,s6

0000000080005644 <i_5325>:
    80005644:	0356db3b          	divuw	s6,a3,s5

0000000080005648 <i_5326>:
    80005648:	fab14683          	lbu	a3,-85(sp)

000000008000564c <i_5327>:
    8000564c:	102acb17          	auipc	s6,0x102ac

0000000080005650 <i_5328>:
    80005650:	02c16b03          	lwu	s6,44(sp)

0000000080005654 <i_5329>:
    80005654:	03638a33          	mul	s4,t2,s6

0000000080005658 <i_5330>:
    80005658:	0046c233          	xor	tp,a3,tp

000000008000565c <i_5331>:
    8000565c:	016ff6b3          	and	a3,t6,s6

0000000080005660 <i_5332>:
    80005660:	001e8e93          	addi	t4,t4,1
    80005664:	fdd1dae3          	ble	t4,gp,80005638 <i_5322>

0000000080005668 <i_5333>:
    80005668:	00da7463          	bleu	a3,s4,80005670 <i_5335>

000000008000566c <i_5334>:
    8000566c:	1b411b03          	lh	s6,436(sp)

0000000080005670 <i_5335>:
    80005670:	f3813683          	ld	a3,-200(sp)

0000000080005674 <i_5336>:
    80005674:	00000013          	nop

0000000080005678 <i_5337>:
    80005678:	8b200893          	li	a7,-1870

000000008000567c <i_5338>:
    8000567c:	8bb00e13          	li	t3,-1861

0000000080005680 <i_5339>:
    80005680:	00000013          	nop

0000000080005684 <i_5340>:
    80005684:	004b7863          	bleu	tp,s6,80005694 <i_5344>

0000000080005688 <i_5341>:
    80005688:	e6910403          	lb	s0,-407(sp)

000000008000568c <i_5342>:
    8000568c:	e7c12a83          	lw	s5,-388(sp)

0000000080005690 <i_5343>:
    80005690:	004f5b93          	srli	s7,t5,0x4

0000000080005694 <i_5344>:
    80005694:	00000013          	nop

0000000080005698 <i_5345>:
    80005698:	13113023          	sd	a7,288(sp)

000000008000569c <i_5346>:
    8000569c:	1d513c23          	sd	s5,472(sp)

00000000800056a0 <i_5347>:
    800056a0:	00188893          	addi	a7,a7,1 # 55a26001 <main-0x2a5d9fff>
    800056a4:	fdc8cee3          	blt	a7,t3,80005680 <i_5339>

00000000800056a8 <i_5348>:
    800056a8:	e7713423          	sd	s7,-408(sp)

00000000800056ac <i_5349>:
    800056ac:	0c514703          	lbu	a4,197(sp)

00000000800056b0 <i_5350>:
    800056b0:	00013a83          	ld	s5,0(sp)

00000000800056b4 <i_5351>:
    800056b4:	0ce10e23          	sb	a4,220(sp)

00000000800056b8 <i_5352>:
    800056b8:	0d110ca3          	sb	a7,217(sp)

00000000800056bc <i_5353>:
    800056bc:	12812c23          	sw	s0,312(sp)

00000000800056c0 <i_5354>:
    800056c0:	07013c83          	ld	s9,112(sp)

00000000800056c4 <i_5355>:
    800056c4:	1b416a83          	lwu	s5,436(sp)

00000000800056c8 <i_5356>:
    800056c8:	15713823          	sd	s7,336(sp)

00000000800056cc <i_5357>:
    800056cc:	0b512623          	sw	s5,172(sp)

00000000800056d0 <i_5358>:
    800056d0:	00e1e433          	or	s0,gp,a4

00000000800056d4 <i_5359>:
    800056d4:	016ac263          	blt	s5,s6,800056d8 <i_5360>

00000000800056d8 <i_5360>:
    800056d8:	13713823          	sd	s7,304(sp)

00000000800056dc <i_5361>:
    800056dc:	14212e23          	sw	sp,348(sp)

00000000800056e0 <i_5362>:
    800056e0:	d30e3e93          	sltiu	t4,t3,-720

00000000800056e4 <i_5363>:
    800056e4:	019eebb3          	or	s7,t4,s9

00000000800056e8 <i_5364>:
    800056e8:	017bfc63          	bleu	s7,s7,80005700 <i_5370>

00000000800056ec <i_5365>:
    800056ec:	0c614083          	lbu	ra,198(sp)

00000000800056f0 <i_5366>:
    800056f0:	08013883          	ld	a7,128(sp)

00000000800056f4 <i_5367>:
    800056f4:	191104a3          	sb	a7,393(sp)

00000000800056f8 <i_5368>:
    800056f8:	fd414c83          	lbu	s9,-44(sp)

00000000800056fc <i_5369>:
    800056fc:	0318d063          	ble	a7,a7,8000571c <i_5377>

0000000080005700 <i_5370>:
    80005700:	012cfa63          	bleu	s2,s9,80005714 <i_5375>

0000000080005704 <i_5371>:
    80005704:	039fffbb          	remuw	t6,t6,s9

0000000080005708 <i_5372>:
    80005708:	ece15083          	lhu	ra,-306(sp)

000000008000570c <i_5373>:
    8000570c:	ef211383          	lh	t2,-270(sp)

0000000080005710 <i_5374>:
    80005710:	01e00e13          	li	t3,30

0000000080005714 <i_5375>:
    80005714:	01cbd2bb          	srlw	t0,s7,t3

0000000080005718 <i_5376>:
    80005718:	02511a23          	sh	t0,52(sp)

000000008000571c <i_5377>:
    8000571c:	b26fcb13          	xori	s6,t6,-1242

0000000080005720 <i_5378>:
    80005720:	fdc16e83          	lwu	t4,-36(sp)

0000000080005724 <i_5379>:
    80005724:	fa114183          	lbu	gp,-95(sp)

0000000080005728 <i_5380>:
    80005728:	01f39863          	bne	t2,t6,80005738 <i_5384>

000000008000572c <i_5381>:
    8000572c:	001e5a63          	ble	ra,t3,80005740 <i_5386>

0000000080005730 <i_5382>:
    80005730:	03697263          	bleu	s6,s2,80005754 <i_5391>

0000000080005734 <i_5383>:
    80005734:	e8712823          	sw	t2,-368(sp)

0000000080005738 <i_5384>:
    80005738:	f7492393          	slti	t2,s2,-140

000000008000573c <i_5385>:
    8000573c:	038cd263          	ble	s8,s9,80005760 <i_5394>

0000000080005740 <i_5386>:
    80005740:	02857063          	bleu	s0,a0,80005760 <i_5394>

0000000080005744 <i_5387>:
    80005744:	032949bb          	divw	s3,s2,s2

0000000080005748 <i_5388>:
    80005748:	5107a993          	slti	s3,a5,1296

000000008000574c <i_5389>:
    8000574c:	0255c463          	blt	a1,t0,80005774 <i_5399>

0000000080005750 <i_5390>:
    80005750:	00b86e63          	bltu	a6,a1,8000576c <i_5397>

0000000080005754 <i_5391>:
    80005754:	efc11a23          	sh	t3,-268(sp)

0000000080005758 <i_5392>:
    80005758:	edd11e23          	sh	t4,-292(sp)

000000008000575c <i_5393>:
    8000575c:	001a4e63          	blt	s4,ra,80005778 <i_5400>

0000000080005760 <i_5394>:
    80005760:	07c13c23          	sd	t3,120(sp)

0000000080005764 <i_5395>:
    80005764:	03d81a33          	mulh	s4,a6,t4

0000000080005768 <i_5396>:
    80005768:	e8c11903          	lh	s2,-372(sp)

000000008000576c <i_5397>:
    8000576c:	0018151b          	slliw	a0,a6,0x1

0000000080005770 <i_5398>:
    80005770:	18e15a03          	lhu	s4,398(sp)

0000000080005774 <i_5399>:
    80005774:	00000013          	nop

0000000080005778 <i_5400>:
    80005778:	a5d3e393          	ori	t2,t2,-1443

000000008000577c <i_5401>:
    8000577c:	00a87533          	and	a0,a6,a0

0000000080005780 <i_5402>:
    80005780:	7dc00813          	li	a6,2012

0000000080005784 <i_5403>:
    80005784:	7ed00e93          	li	t4,2029

0000000080005788 <i_5404>:
    80005788:	00180813          	addi	a6,a6,1 # ffffffffe8b41001 <_end+0xffffffff68b30bed>
    8000578c:	ff0edee3          	ble	a6,t4,80005788 <i_5404>

0000000080005790 <i_5405>:
    80005790:	0053e463          	bltu	t2,t0,80005798 <i_5407>

0000000080005794 <i_5406>:
    80005794:	0277d3bb          	divuw	t2,a5,t2

0000000080005798 <i_5407>:
    80005798:	00a2f263          	bleu	a0,t0,8000579c <i_5408>

000000008000579c <i_5408>:
    8000579c:	15016883          	lwu	a7,336(sp)

00000000800057a0 <i_5409>:
    800057a0:	f5412803          	lw	a6,-172(sp)

00000000800057a4 <i_5410>:
    800057a4:	01055463          	ble	a6,a0,800057ac <i_5412>

00000000800057a8 <i_5411>:
    800057a8:	01f2ee63          	bltu	t0,t6,800057c4 <i_5418>

00000000800057ac <i_5412>:
    800057ac:	007ae463          	bltu	s5,t2,800057b4 <i_5414>

00000000800057b0 <i_5413>:
    800057b0:	04614583          	lbu	a1,70(sp)

00000000800057b4 <i_5414>:
    800057b4:	024aeabb          	remw	s5,s5,tp

00000000800057b8 <i_5415>:
    800057b8:	18711023          	sh	t2,384(sp)

00000000800057bc <i_5416>:
    800057bc:	eea11d83          	lh	s11,-278(sp)

00000000800057c0 <i_5417>:
    800057c0:	0255d733          	divu	a4,a1,t0

00000000800057c4 <i_5418>:
    800057c4:	cb15af13          	slti	t5,a1,-847

00000000800057c8 <i_5419>:
    800057c8:	408887bb          	subw	a5,a7,s0

00000000800057cc <i_5420>:
    800057cc:	03ef55b3          	divu	a1,t5,t5

00000000800057d0 <i_5421>:
    800057d0:	16813383          	ld	t2,360(sp)

00000000800057d4 <i_5422>:
    800057d4:	18c12f03          	lw	t5,396(sp)

00000000800057d8 <i_5423>:
    800057d8:	01ee0e33          	add	t3,t3,t5

00000000800057dc <i_5424>:
    800057dc:	02c59d33          	mulh	s10,a1,a2

00000000800057e0 <i_5425>:
    800057e0:	05615f03          	lhu	t5,86(sp)

00000000800057e4 <i_5426>:
    800057e4:	01cd5c63          	ble	t3,s10,800057fc <i_5432>

00000000800057e8 <i_5427>:
    800057e8:	05b10d03          	lb	s10,91(sp)

00000000800057ec <i_5428>:
    800057ec:	1d011f23          	sh	a6,478(sp)

00000000800057f0 <i_5429>:
    800057f0:	03683b33          	mulhu	s6,a6,s6

00000000800057f4 <i_5430>:
    800057f4:	19c12703          	lw	a4,412(sp)

00000000800057f8 <i_5431>:
    800057f8:	03aaaab3          	mulhsu	s5,s5,s10

00000000800057fc <i_5432>:
    800057fc:	01a70263          	beq	a4,s10,80005800 <i_5433>

0000000080005800 <i_5433>:
    80005800:	0154cb33          	xor	s6,s1,s5

0000000080005804 <i_5434>:
    80005804:	04416803          	lwu	a6,68(sp)

0000000080005808 <i_5435>:
    80005808:	00000013          	nop

000000008000580c <i_5436>:
    8000580c:	dbf83a93          	sltiu	s5,a6,-577

0000000080005810 <i_5437>:
    80005810:	75500493          	li	s1,1877

0000000080005814 <i_5438>:
    80005814:	75a00813          	li	a6,1882

0000000080005818 <i_5439>:
    80005818:	13513823          	sd	s5,304(sp)

000000008000581c <i_5440>:
    8000581c:	01012a83          	lw	s5,16(sp)

0000000080005820 <i_5441>:
    80005820:	00148493          	addi	s1,s1,1
    80005824:	ff049ae3          	bne	s1,a6,80005818 <i_5439>

0000000080005828 <i_5442>:
    80005828:	eec16183          	lwu	gp,-276(sp)

000000008000582c <i_5443>:
    8000582c:	ff913423          	sd	s9,-24(sp)

0000000080005830 <i_5444>:
    80005830:	417ac213          	xori	tp,s5,1047

0000000080005834 <i_5445>:
    80005834:	402fd193          	srai	gp,t6,0x2

0000000080005838 <i_5446>:
    80005838:	028abab3          	mulhu	s5,s5,s0

000000008000583c <i_5447>:
    8000583c:	7b900493          	li	s1,1977

0000000080005840 <i_5448>:
    80005840:	7c300413          	li	s0,1987

0000000080005844 <i_5449>:
    80005844:	01296863          	bltu	s2,s2,80005854 <i_5453>

0000000080005848 <i_5450>:
    80005848:	01590933          	add	s2,s2,s5

000000008000584c <i_5451>:
    8000584c:	03994733          	div	a4,s2,s9

0000000080005850 <i_5452>:
    80005850:	00e97663          	bleu	a4,s2,8000585c <i_5455>

0000000080005854 <i_5453>:
    80005854:	012a9c63          	bne	s5,s2,8000586c <i_5459>

0000000080005858 <i_5454>:
    80005858:	7b9ac893          	xori	a7,s5,1977

000000008000585c <i_5455>:
    8000585c:	00e77863          	bleu	a4,a4,8000586c <i_5459>

0000000080005860 <i_5456>:
    80005860:	00000013          	nop

0000000080005864 <i_5457>:
    80005864:	02e8e663          	bltu	a7,a4,80005890 <i_5467>

0000000080005868 <i_5458>:
    80005868:	00000013          	nop

000000008000586c <i_5459>:
    8000586c:	0324c463          	blt	s1,s2,80005894 <i_5468>

0000000080005870 <i_5460>:
    80005870:	bdaebf17          	auipc	t5,0xbdaeb

0000000080005874 <i_5461>:
    80005874:	00148493          	addi	s1,s1,1
    80005878:	fc9456e3          	ble	s1,s0,80005844 <i_5449>

000000008000587c <i_5462>:
    8000587c:	e9212223          	sw	s2,-380(sp)

0000000080005880 <i_5463>:
    80005880:	1e313023          	sd	gp,480(sp)

0000000080005884 <i_5464>:
    80005884:	e7814703          	lbu	a4,-392(sp)

0000000080005888 <i_5465>:
    80005888:	02412a83          	lw	s5,36(sp)

000000008000588c <i_5466>:
    8000588c:	02b5a5b3          	mulhsu	a1,a1,a1

0000000080005890 <i_5467>:
    80005890:	f9c14583          	lbu	a1,-100(sp)

0000000080005894 <i_5468>:
    80005894:	032f5263          	ble	s2,t5,800058b8 <i_5477>

0000000080005898 <i_5469>:
    80005898:	e3211823          	sh	s2,-464(sp)

000000008000589c <i_5470>:
    8000589c:	03d95d3b          	divuw	s10,s2,t4

00000000800058a0 <i_5471>:
    800058a0:	012d6e63          	bltu	s10,s2,800058bc <i_5478>

00000000800058a4 <i_5472>:
    800058a4:	e6a15083          	lhu	ra,-406(sp)

00000000800058a8 <i_5473>:
    800058a8:	01412883          	lw	a7,20(sp)

00000000800058ac <i_5474>:
    800058ac:	15a11123          	sh	s10,322(sp)

00000000800058b0 <i_5475>:
    800058b0:	d75ff437          	lui	s0,0xd75ff

00000000800058b4 <i_5476>:
    800058b4:	03ed5263          	ble	t5,s10,800058d8 <i_5485>

00000000800058b8 <i_5477>:
    800058b8:	02bef5b3          	remu	a1,t4,a1

00000000800058bc <i_5478>:
    800058bc:	fe013403          	ld	s0,-32(sp)

00000000800058c0 <i_5479>:
    800058c0:	401ad913          	srai	s2,s5,0x1

00000000800058c4 <i_5480>:
    800058c4:	0029d093          	srli	ra,s3,0x2

00000000800058c8 <i_5481>:
    800058c8:	7dd0f993          	andi	s3,ra,2013

00000000800058cc <i_5482>:
    800058cc:	0380e463          	bltu	ra,s8,800058f4 <i_5492>

00000000800058d0 <i_5483>:
    800058d0:	0040d593          	srli	a1,ra,0x4

00000000800058d4 <i_5484>:
    800058d4:	1be11623          	sh	t5,428(sp)

00000000800058d8 <i_5485>:
    800058d8:	f7c11a03          	lh	s4,-132(sp)

00000000800058dc <i_5486>:
    800058dc:	01e00093          	li	ra,30

00000000800058e0 <i_5487>:
    800058e0:	401b50bb          	sraw	ra,s6,ra

00000000800058e4 <i_5488>:
    800058e4:	fa7b0d93          	addi	s11,s6,-89 # 902b15f3 <_end+0x102a11df>

00000000800058e8 <i_5489>:
    800058e8:	ed413c23          	sd	s4,-296(sp)

00000000800058ec <i_5490>:
    800058ec:	fb710a03          	lb	s4,-73(sp)

00000000800058f0 <i_5491>:
    800058f0:	ebc15083          	lhu	ra,-324(sp)

00000000800058f4 <i_5492>:
    800058f4:	02c3863b          	mulw	a2,t2,a2

00000000800058f8 <i_5493>:
    800058f8:	40160233          	sub	tp,a2,ra

00000000800058fc <i_5494>:
    800058fc:	78300193          	li	gp,1923

0000000080005900 <i_5495>:
    80005900:	78700b13          	li	s6,1927

0000000080005904 <i_5496>:
    80005904:	5bdd8a13          	addi	s4,s11,1469 # ffffffffc53c15bd <_end+0xffffffff453b11a9>

0000000080005908 <i_5497>:
    80005908:	7b420093          	addi	ra,tp,1972 # 10b4eb88 <main-0x6f4b1478>

000000008000590c <i_5498>:
    8000590c:	00118193          	addi	gp,gp,1 # 847d001 <main-0x77b82fff>
    80005910:	ff61eae3          	bltu	gp,s6,80005904 <i_5496>

0000000080005914 <i_5499>:
    80005914:	8c981e17          	auipc	t3,0x8c981

0000000080005918 <i_5500>:
    80005918:	01c08663          	beq	ra,t3,80005924 <i_5503>

000000008000591c <i_5501>:
    8000591c:	0246463b          	divw	a2,a2,tp

0000000080005920 <i_5502>:
    80005920:	a3e08093          	addi	ra,ra,-1474

0000000080005924 <i_5503>:
    80005924:	f3c12e03          	lw	t3,-196(sp)

0000000080005928 <i_5504>:
    80005928:	08514e03          	lbu	t3,133(sp)

000000008000592c <i_5505>:
    8000592c:	07411823          	sh	s4,112(sp)

0000000080005930 <i_5506>:
    80005930:	02c64a33          	div	s4,a2,a2

0000000080005934 <i_5507>:
    80005934:	02300093          	li	ra,35

0000000080005938 <i_5508>:
    80005938:	00111a33          	sll	s4,sp,ra

000000008000593c <i_5509>:
    8000593c:	77500613          	li	a2,1909

0000000080005940 <i_5510>:
    80005940:	78000e13          	li	t3,1920

0000000080005944 <i_5511>:
    80005944:	e5a8b537          	lui	a0,0xe5a8b

0000000080005948 <i_5512>:
    80005948:	02a13023          	sd	a0,32(sp)

000000008000594c <i_5513>:
    8000594c:	00160613          	addi	a2,a2,1
    80005950:	ffc66ae3          	bltu	a2,t3,80005944 <i_5511>

0000000080005954 <i_5514>:
    80005954:	1c412983          	lw	s3,452(sp)

0000000080005958 <i_5515>:
    80005958:	ad036637          	lui	a2,0xad036

000000008000595c <i_5516>:
    8000595c:	02dedebb          	divuw	t4,t4,a3

0000000080005960 <i_5517>:
    80005960:	e3016383          	lwu	t2,-464(sp)

0000000080005964 <i_5518>:
    80005964:	16c15983          	lhu	s3,364(sp)

0000000080005968 <i_5519>:
    80005968:	0dd13823          	sd	t4,208(sp)

000000008000596c <i_5520>:
    8000596c:	ec412423          	sw	tp,-312(sp)

0000000080005970 <i_5521>:
    80005970:	15110c23          	sb	a7,344(sp)

0000000080005974 <i_5522>:
    80005974:	73400893          	li	a7,1844

0000000080005978 <i_5523>:
    80005978:	73d00213          	li	tp,1853

000000008000597c <i_5524>:
    8000597c:	411e8933          	sub	s2,t4,a7

0000000080005980 <i_5525>:
    80005980:	01df0863          	beq	t5,t4,80005990 <i_5529>

0000000080005984 <i_5526>:
    80005984:	fe410ea3          	sb	tp,-3(sp)

0000000080005988 <i_5527>:
    80005988:	0f113023          	sd	a7,224(sp)

000000008000598c <i_5528>:
    8000598c:	011d66b3          	or	a3,s10,a7

0000000080005990 <i_5529>:
    80005990:	1d012403          	lw	s0,464(sp)

0000000080005994 <i_5530>:
    80005994:	404ed91b          	sraiw	s2,t4,0x4

0000000080005998 <i_5531>:
    80005998:	0076eeb3          	or	t4,a3,t2

000000008000599c <i_5532>:
    8000599c:	02100413          	li	s0,33

00000000800059a0 <i_5533>:
    800059a0:	008adab3          	srl	s5,s5,s0

00000000800059a4 <i_5534>:
    800059a4:	01def533          	and	a0,t4,t4

00000000800059a8 <i_5535>:
    800059a8:	01813483          	ld	s1,24(sp)

00000000800059ac <i_5536>:
    800059ac:	e7a10303          	lb	t1,-390(sp)

00000000800059b0 <i_5537>:
    800059b0:	ed415503          	lhu	a0,-300(sp)

00000000800059b4 <i_5538>:
    800059b4:	0094de63          	ble	s1,s1,800059d0 <i_5544>

00000000800059b8 <i_5539>:
    800059b8:	00149a1b          	slliw	s4,s1,0x1

00000000800059bc <i_5540>:
    800059bc:	00188893          	addi	a7,a7,1
    800059c0:	fa48eee3          	bltu	a7,tp,8000597c <i_5524>

00000000800059c4 <i_5541>:
    800059c4:	ee612223          	sw	t1,-284(sp)

00000000800059c8 <i_5542>:
    800059c8:	029494b3          	mulh	s1,s1,s1

00000000800059cc <i_5543>:
    800059cc:	0094c4b3          	xor	s1,s1,s1

00000000800059d0 <i_5544>:
    800059d0:	00995863          	ble	s1,s2,800059e0 <i_5548>

00000000800059d4 <i_5545>:
    800059d4:	00e8c663          	blt	a7,a4,800059e0 <i_5548>

00000000800059d8 <i_5546>:
    800059d8:	02da4463          	blt	s4,a3,80005a00 <i_5556>

00000000800059dc <i_5547>:
    800059dc:	03e11383          	lh	t2,62(sp)

00000000800059e0 <i_5548>:
    800059e0:	0043991b          	slliw	s2,t2,0x4

00000000800059e4 <i_5549>:
    800059e4:	009483b3          	add	t2,s1,s1

00000000800059e8 <i_5550>:
    800059e8:	00c60633          	add	a2,a2,a2

00000000800059ec <i_5551>:
    800059ec:	685a049b          	addiw	s1,s4,1669

00000000800059f0 <i_5552>:
    800059f0:	e7611483          	lh	s1,-394(sp)

00000000800059f4 <i_5553>:
    800059f4:	00965263          	ble	s1,a2,800059f8 <i_5554>

00000000800059f8 <i_5554>:
    800059f8:	fac13823          	sd	a2,-80(sp)

00000000800059fc <i_5555>:
    800059fc:	0320e063          	bltu	ra,s2,80005a1c <i_5563>

0000000080005a00 <i_5556>:
    80005a00:	03267263          	bleu	s2,a2,80005a24 <i_5565>

0000000080005a04 <i_5557>:
    80005a04:	00948863          	beq	s1,s1,80005a14 <i_5561>

0000000080005a08 <i_5558>:
    80005a08:	17210ca3          	sb	s2,377(sp)

0000000080005a0c <i_5559>:
    80005a0c:	1cc10e23          	sb	a2,476(sp)

0000000080005a10 <i_5560>:
    80005a10:	b4967513          	andi	a0,a2,-1207

0000000080005a14 <i_5561>:
    80005a14:	f1416603          	lwu	a2,-236(sp)

0000000080005a18 <i_5562>:
    80005a18:	0273d063          	ble	t2,t2,80005a38 <i_5570>

0000000080005a1c <i_5563>:
    80005a1c:	011528b3          	slt	a7,a0,a7

0000000080005a20 <i_5564>:
    80005a20:	13ca5db7          	lui	s11,0x13ca5

0000000080005a24 <i_5565>:
    80005a24:	e3013883          	ld	a7,-464(sp)

0000000080005a28 <i_5566>:
    80005a28:	402ed893          	srai	a7,t4,0x2

0000000080005a2c <i_5567>:
    80005a2c:	f3412283          	lw	t0,-204(sp)

0000000080005a30 <i_5568>:
    80005a30:	02810c03          	lb	s8,40(sp)

0000000080005a34 <i_5569>:
    80005a34:	00000013          	nop

0000000080005a38 <i_5570>:
    80005a38:	0f314e83          	lbu	t4,243(sp)

0000000080005a3c <i_5571>:
    80005a3c:	03c12c03          	lw	s8,60(sp)

0000000080005a40 <i_5572>:
    80005a40:	83c00393          	li	t2,-1988

0000000080005a44 <i_5573>:
    80005a44:	84a00513          	li	a0,-1974

0000000080005a48 <i_5574>:
    80005a48:	00138393          	addi	t2,t2,1 # 10c7027d <main-0x6f38fd83>
    80005a4c:	fea39ee3          	bne	t2,a0,80005a48 <i_5574>

0000000080005a50 <i_5575>:
    80005a50:	01e00c13          	li	s8,30

0000000080005a54 <i_5576>:
    80005a54:	01851eb3          	sll	t4,a0,s8

0000000080005a58 <i_5577>:
    80005a58:	11e14c03          	lbu	s8,286(sp)

0000000080005a5c <i_5578>:
    80005a5c:	01dc2733          	slt	a4,s8,t4

0000000080005a60 <i_5579>:
    80005a60:	02ec4c33          	div	s8,s8,a4

0000000080005a64 <i_5580>:
    80005a64:	02ec7db3          	remu	s11,s8,a4

0000000080005a68 <i_5581>:
    80005a68:	018de463          	bltu	s11,s8,80005a70 <i_5583>

0000000080005a6c <i_5582>:
    80005a6c:	00411603          	lh	a2,4(sp)

0000000080005a70 <i_5583>:
    80005a70:	e8a10b23          	sb	a0,-362(sp)

0000000080005a74 <i_5584>:
    80005a74:	47d4c893          	xori	a7,s1,1149

0000000080005a78 <i_5585>:
    80005a78:	f5b12823          	sw	s11,-176(sp)

0000000080005a7c <i_5586>:
    80005a7c:	01b70633          	add	a2,a4,s11

0000000080005a80 <i_5587>:
    80005a80:	1d611f03          	lh	t5,470(sp)

0000000080005a84 <i_5588>:
    80005a84:	fae11923          	sh	a4,-78(sp)

0000000080005a88 <i_5589>:
    80005a88:	418f06bb          	subw	a3,t5,s8

0000000080005a8c <i_5590>:
    80005a8c:	15b12e23          	sw	s11,348(sp)

0000000080005a90 <i_5591>:
    80005a90:	02c865bb          	remw	a1,a6,a2

0000000080005a94 <i_5592>:
    80005a94:	00971e63          	bne	a4,s1,80005ab0 <i_5599>

0000000080005a98 <i_5593>:
    80005a98:	02cbe063          	bltu	s7,a2,80005ab8 <i_5601>

0000000080005a9c <i_5594>:
    80005a9c:	eb811d23          	sh	s8,-326(sp)

0000000080005aa0 <i_5595>:
    80005aa0:	f5015c03          	lhu	s8,-176(sp)

0000000080005aa4 <i_5596>:
    80005aa4:	00000013          	nop

0000000080005aa8 <i_5597>:
    80005aa8:	00000013          	nop

0000000080005aac <i_5598>:
    80005aac:	1ed10423          	sb	a3,488(sp)

0000000080005ab0 <i_5599>:
    80005ab0:	e4b12223          	sw	a1,-444(sp)

0000000080005ab4 <i_5600>:
    80005ab4:	02bbe5b3          	rem	a1,s7,a1

0000000080005ab8 <i_5601>:
    80005ab8:	0015999b          	slliw	s3,a1,0x1

0000000080005abc <i_5602>:
    80005abc:	bf15859b          	addiw	a1,a1,-1039

0000000080005ac0 <i_5603>:
    80005ac0:	78f00b93          	li	s7,1935

0000000080005ac4 <i_5604>:
    80005ac4:	79b00693          	li	a3,1947

0000000080005ac8 <i_5605>:
    80005ac8:	01768263          	beq	a3,s7,80005acc <i_5606>

0000000080005acc <i_5606>:
    80005acc:	0170c5b3          	xor	a1,ra,s7

0000000080005ad0 <i_5607>:
    80005ad0:	013bf9b3          	and	s3,s7,s3

0000000080005ad4 <i_5608>:
    80005ad4:	01398e63          	beq	s3,s3,80005af0 <i_5614>

0000000080005ad8 <i_5609>:
    80005ad8:	00013983          	ld	s3,0(sp)

0000000080005adc <i_5610>:
    80005adc:	03200593          	li	a1,50

0000000080005ae0 <i_5611>:
    80005ae0:	00bb5b33          	srl	s6,s6,a1

0000000080005ae4 <i_5612>:
    80005ae4:	001b8b93          	addi	s7,s7,1
    80005ae8:	fedbe0e3          	bltu	s7,a3,80005ac8 <i_5605>

0000000080005aec <i_5613>:
    80005aec:	f6a11e03          	lh	t3,-150(sp)

0000000080005af0 <i_5614>:
    80005af0:	1ca15783          	lhu	a5,458(sp)

0000000080005af4 <i_5615>:
    80005af4:	02a53533          	mulhu	a0,a0,a0

0000000080005af8 <i_5616>:
    80005af8:	4019db9b          	sraiw	s7,s3,0x1

0000000080005afc <i_5617>:
    80005afc:	4034db9b          	sraiw	s7,s1,0x3

0000000080005b00 <i_5618>:
    80005b00:	016b8863          	beq	s7,s6,80005b10 <i_5622>

0000000080005b04 <i_5619>:
    80005b04:	04813b83          	ld	s7,72(sp)

0000000080005b08 <i_5620>:
    80005b08:	fb812b83          	lw	s7,-72(sp)

0000000080005b0c <i_5621>:
    80005b0c:	03258e33          	mul	t3,a1,s2

0000000080005b10 <i_5622>:
    80005b10:	19711b23          	sh	s7,406(sp)

0000000080005b14 <i_5623>:
    80005b14:	02a6fe33          	remu	t3,a3,a0

0000000080005b18 <i_5624>:
    80005b18:	73000913          	li	s2,1840

0000000080005b1c <i_5625>:
    80005b1c:	73a00713          	li	a4,1850

0000000080005b20 <i_5626>:
    80005b20:	e9213c23          	sd	s2,-360(sp)

0000000080005b24 <i_5627>:
    80005b24:	e0c13c23          	sd	a2,-488(sp)

0000000080005b28 <i_5628>:
    80005b28:	e9415683          	lhu	a3,-364(sp)

0000000080005b2c <i_5629>:
    80005b2c:	f6012983          	lw	s3,-160(sp)

0000000080005b30 <i_5630>:
    80005b30:	00000013          	nop

0000000080005b34 <i_5631>:
    80005b34:	06a12223          	sw	a0,100(sp)

0000000080005b38 <i_5632>:
    80005b38:	1d114a03          	lbu	s4,465(sp)

0000000080005b3c <i_5633>:
    80005b3c:	e9714883          	lbu	a7,-361(sp)

0000000080005b40 <i_5634>:
    80005b40:	e3710523          	sb	s7,-470(sp)

0000000080005b44 <i_5635>:
    80005b44:	00190913          	addi	s2,s2,1
    80005b48:	fce96ce3          	bltu	s2,a4,80005b20 <i_5626>

0000000080005b4c <i_5636>:
    80005b4c:	f5711923          	sh	s7,-174(sp)

0000000080005b50 <i_5637>:
    80005b50:	05712823          	sw	s7,80(sp)

0000000080005b54 <i_5638>:
    80005b54:	02eff263          	bleu	a4,t6,80005b78 <i_5647>

0000000080005b58 <i_5639>:
    80005b58:	002b9793          	slli	a5,s7,0x2

0000000080005b5c <i_5640>:
    80005b5c:	02d91f33          	mulh	t5,s2,a3

0000000080005b60 <i_5641>:
    80005b60:	0284643b          	remw	s0,s0,s0

0000000080005b64 <i_5642>:
    80005b64:	f5813183          	ld	gp,-168(sp)

0000000080005b68 <i_5643>:
    80005b68:	f6e13423          	sd	a4,-152(sp)

0000000080005b6c <i_5644>:
    80005b6c:	0dd12e23          	sw	t4,220(sp)

0000000080005b70 <i_5645>:
    80005b70:	f6310323          	sb	gp,-154(sp)

0000000080005b74 <i_5646>:
    80005b74:	00000013          	nop

0000000080005b78 <i_5647>:
    80005b78:	05113423          	sd	a7,72(sp)

0000000080005b7c <i_5648>:
    80005b7c:	1c811823          	sh	s0,464(sp)

0000000080005b80 <i_5649>:
    80005b80:	77e00713          	li	a4,1918

0000000080005b84 <i_5650>:
    80005b84:	78800893          	li	a7,1928

0000000080005b88 <i_5651>:
    80005b88:	00610e03          	lb	t3,6(sp)

0000000080005b8c <i_5652>:
    80005b8c:	003e141b          	slliw	s0,t3,0x3

0000000080005b90 <i_5653>:
    80005b90:	4030d09b          	sraiw	ra,ra,0x3

0000000080005b94 <i_5654>:
    80005b94:	01400413          	li	s0,20

0000000080005b98 <i_5655>:
    80005b98:	408a5a3b          	sraw	s4,s4,s0

0000000080005b9c <i_5656>:
    80005b9c:	00170713          	addi	a4,a4,1 # 42e57001 <main-0x3d1a8fff>
    80005ba0:	ff1714e3          	bne	a4,a7,80005b88 <i_5651>

0000000080005ba4 <i_5657>:
    80005ba4:	8484081b          	addiw	a6,s0,-1976

0000000080005ba8 <i_5658>:
    80005ba8:	f2c16a83          	lwu	s5,-212(sp)

0000000080005bac <i_5659>:
    80005bac:	01900413          	li	s0,25

0000000080005bb0 <i_5660>:
    80005bb0:	0080df3b          	srlw	t5,ra,s0

0000000080005bb4 <i_5661>:
    80005bb4:	01513023          	sd	s5,0(sp)

0000000080005bb8 <i_5662>:
    80005bb8:	01547e63          	bleu	s5,s0,80005bd4 <i_5669>

0000000080005bbc <i_5663>:
    80005bbc:	f4811323          	sh	s0,-186(sp)

0000000080005bc0 <i_5664>:
    80005bc0:	034a0a33          	mul	s4,s4,s4

0000000080005bc4 <i_5665>:
    80005bc4:	b3c85f17          	auipc	t5,0xb3c85

0000000080005bc8 <i_5666>:
    80005bc8:	03ef45b3          	div	a1,t5,t5

0000000080005bcc <i_5667>:
    80005bcc:	0035521b          	srliw	tp,a0,0x3

0000000080005bd0 <i_5668>:
    80005bd0:	00000013          	nop

0000000080005bd4 <i_5669>:
    80005bd4:	b4363237          	lui	tp,0xb4363

0000000080005bd8 <i_5670>:
    80005bd8:	e5813203          	ld	tp,-424(sp)

0000000080005bdc <i_5671>:
    80005bdc:	85a00a13          	li	s4,-1958

0000000080005be0 <i_5672>:
    80005be0:	85e00513          	li	a0,-1954

0000000080005be4 <i_5673>:
    80005be4:	40b686bb          	subw	a3,a3,a1

0000000080005be8 <i_5674>:
    80005be8:	00000013          	nop

0000000080005bec <i_5675>:
    80005bec:	77100f13          	li	t5,1905

0000000080005bf0 <i_5676>:
    80005bf0:	78500e93          	li	t4,1925

0000000080005bf4 <i_5677>:
    80005bf4:	03ebf23b          	remuw	tp,s7,t5

0000000080005bf8 <i_5678>:
    80005bf8:	004f2333          	slt	t1,t5,tp

0000000080005bfc <i_5679>:
    80005bfc:	f6d10203          	lb	tp,-147(sp)

0000000080005c00 <i_5680>:
    80005c00:	001f0f13          	addi	t5,t5,1 # 33c8abc5 <main-0x4c37543b>
    80005c04:	ffeed8e3          	ble	t5,t4,80005bf4 <i_5677>

0000000080005c08 <i_5681>:
    80005c08:	fce11c23          	sh	a4,-40(sp)

0000000080005c0c <i_5682>:
    80005c0c:	00424e63          	blt	tp,tp,80005c28 <i_5688>

0000000080005c10 <i_5683>:
    80005c10:	001a0a13          	addi	s4,s4,1
    80005c14:	fd4558e3          	ble	s4,a0,80005be4 <i_5673>

0000000080005c18 <i_5684>:
    80005c18:	02e73333          	mulhu	t1,a4,a4

0000000080005c1c <i_5685>:
    80005c1c:	03d77eb3          	remu	t4,a4,t4

0000000080005c20 <i_5686>:
    80005c20:	00000013          	nop

0000000080005c24 <i_5687>:
    80005c24:	12c10f83          	lb	t6,300(sp)

0000000080005c28 <i_5688>:
    80005c28:	efa15f83          	lhu	t6,-262(sp)

0000000080005c2c <i_5689>:
    80005c2c:	34d67eb7          	lui	t4,0x34d67

0000000080005c30 <i_5690>:
    80005c30:	8a000d13          	li	s10,-1888

0000000080005c34 <i_5691>:
    80005c34:	8ab00713          	li	a4,-1877

0000000080005c38 <i_5692>:
    80005c38:	e5910a03          	lb	s4,-423(sp)

0000000080005c3c <i_5693>:
    80005c3c:	00600f13          	li	t5,6

0000000080005c40 <i_5694>:
    80005c40:	01ed1e33          	sll	t3,s10,t5

0000000080005c44 <i_5695>:
    80005c44:	03ff37b3          	mulhu	a5,t5,t6

0000000080005c48 <i_5696>:
    80005c48:	eb412e23          	sw	s4,-324(sp)

0000000080005c4c <i_5697>:
    80005c4c:	001bc663          	blt	s7,ra,80005c58 <i_5700>

0000000080005c50 <i_5698>:
    80005c50:	15016e83          	lwu	t4,336(sp)

0000000080005c54 <i_5699>:
    80005c54:	f7c10323          	sb	t3,-154(sp)

0000000080005c58 <i_5700>:
    80005c58:	ec611083          	lh	ra,-314(sp)

0000000080005c5c <i_5701>:
    80005c5c:	e6b18a13          	addi	s4,gp,-405

0000000080005c60 <i_5702>:
    80005c60:	1a710a03          	lb	s4,423(sp)

0000000080005c64 <i_5703>:
    80005c64:	001d0d13          	addi	s10,s10,1
    80005c68:	fced48e3          	blt	s10,a4,80005c38 <i_5692>

0000000080005c6c <i_5704>:
    80005c6c:	037be463          	bltu	s7,s7,80005c94 <i_5714>

0000000080005c70 <i_5705>:
    80005c70:	1f411123          	sh	s4,482(sp)

0000000080005c74 <i_5706>:
    80005c74:	16013d03          	ld	s10,352(sp)

0000000080005c78 <i_5707>:
    80005c78:	ed416e83          	lwu	t4,-300(sp)

0000000080005c7c <i_5708>:
    80005c7c:	01d3ce63          	blt	t2,t4,80005c98 <i_5715>

0000000080005c80 <i_5709>:
    80005c80:	e6812883          	lw	a7,-408(sp)

0000000080005c84 <i_5710>:
    80005c84:	b0f8f613          	andi	a2,a7,-1265

0000000080005c88 <i_5711>:
    80005c88:	0d7101a3          	sb	s7,195(sp)

0000000080005c8c <i_5712>:
    80005c8c:	e3412f03          	lw	t5,-460(sp)

0000000080005c90 <i_5713>:
    80005c90:	014a4a63          	blt	s4,s4,80005ca4 <i_5718>

0000000080005c94 <i_5714>:
    80005c94:	f3415d03          	lhu	s10,-204(sp)

0000000080005c98 <i_5715>:
    80005c98:	16a14083          	lbu	ra,362(sp)

0000000080005c9c <i_5716>:
    80005c9c:	eec15a03          	lhu	s4,-276(sp)

0000000080005ca0 <i_5717>:
    80005ca0:	41ad0c3b          	subw	s8,s10,s10

0000000080005ca4 <i_5718>:
    80005ca4:	00000013          	nop

0000000080005ca8 <i_5719>:
    80005ca8:	038c1333          	mulh	t1,s8,s8

0000000080005cac <i_5720>:
    80005cac:	8c400893          	li	a7,-1852

0000000080005cb0 <i_5721>:
    80005cb0:	8cb00613          	li	a2,-1845

0000000080005cb4 <i_5722>:
    80005cb4:	03aa4663          	blt	s4,s10,80005ce0 <i_5732>

0000000080005cb8 <i_5723>:
    80005cb8:	00188893          	addi	a7,a7,1
    80005cbc:	fec8cce3          	blt	a7,a2,80005cb4 <i_5722>

0000000080005cc0 <i_5724>:
    80005cc0:	e3013483          	ld	s1,-464(sp)

0000000080005cc4 <i_5725>:
    80005cc4:	1c813a03          	ld	s4,456(sp)

0000000080005cc8 <i_5726>:
    80005cc8:	12015d03          	lhu	s10,288(sp)

0000000080005ccc <i_5727>:
    80005ccc:	f3a10d03          	lb	s10,-198(sp)

0000000080005cd0 <i_5728>:
    80005cd0:	02bd45b3          	div	a1,s10,a1

0000000080005cd4 <i_5729>:
    80005cd4:	00000013          	nop

0000000080005cd8 <i_5730>:
    80005cd8:	02bfdf33          	divu	t5,t6,a1

0000000080005cdc <i_5731>:
    80005cdc:	0fa12e23          	sw	s10,252(sp)

0000000080005ce0 <i_5732>:
    80005ce0:	888f7813          	andi	a6,t5,-1912

0000000080005ce4 <i_5733>:
    80005ce4:	00812303          	lw	t1,8(sp)

0000000080005ce8 <i_5734>:
    80005ce8:	89400a13          	li	s4,-1900

0000000080005cec <i_5735>:
    80005cec:	89b00713          	li	a4,-1893

0000000080005cf0 <i_5736>:
    80005cf0:	18016783          	lwu	a5,384(sp)

0000000080005cf4 <i_5737>:
    80005cf4:	11016c03          	lwu	s8,272(sp)

0000000080005cf8 <i_5738>:
    80005cf8:	f8f12823          	sw	a5,-112(sp)

0000000080005cfc <i_5739>:
    80005cfc:	00000013          	nop

0000000080005d00 <i_5740>:
    80005d00:	0f812c23          	sw	s8,248(sp)

0000000080005d04 <i_5741>:
    80005d04:	01e70a63          	beq	a4,t5,80005d18 <i_5745>

0000000080005d08 <i_5742>:
    80005d08:	001a0a13          	addi	s4,s4,1
    80005d0c:	ff4752e3          	ble	s4,a4,80005cf0 <i_5736>

0000000080005d10 <i_5743>:
    80005d10:	0182a733          	slt	a4,t0,s8

0000000080005d14 <i_5744>:
    80005d14:	e5812223          	sw	s8,-444(sp)

0000000080005d18 <i_5745>:
    80005d18:	f5c10d03          	lb	s10,-164(sp)

0000000080005d1c <i_5746>:
    80005d1c:	f9c12303          	lw	t1,-100(sp)

0000000080005d20 <i_5747>:
    80005d20:	19016c03          	lwu	s8,400(sp)

0000000080005d24 <i_5748>:
    80005d24:	72790a9b          	addiw	s5,s2,1831

0000000080005d28 <i_5749>:
    80005d28:	03537263          	bleu	s5,t1,80005d4c <i_5758>

0000000080005d2c <i_5750>:
    80005d2c:	01aadc63          	ble	s10,s5,80005d44 <i_5756>

0000000080005d30 <i_5751>:
    80005d30:	07011303          	lh	t1,112(sp)

0000000080005d34 <i_5752>:
    80005d34:	01aa8663          	beq	s5,s10,80005d40 <i_5755>

0000000080005d38 <i_5753>:
    80005d38:	b4ad0e13          	addi	t3,s10,-1206

0000000080005d3c <i_5754>:
    80005d3c:	01895463          	ble	s8,s2,80005d44 <i_5756>

0000000080005d40 <i_5755>:
    80005d40:	f4611123          	sh	t1,-190(sp)

0000000080005d44 <i_5756>:
    80005d44:	07c12083          	lw	ra,124(sp)

0000000080005d48 <i_5757>:
    80005d48:	038c6c3b          	remw	s8,s8,s8

0000000080005d4c <i_5758>:
    80005d4c:	0b812223          	sw	s8,164(sp)

0000000080005d50 <i_5759>:
    80005d50:	01800413          	li	s0,24

0000000080005d54 <i_5760>:
    80005d54:	008c1c3b          	sllw	s8,s8,s0

0000000080005d58 <i_5761>:
    80005d58:	0e011f83          	lh	t6,224(sp)

0000000080005d5c <i_5762>:
    80005d5c:	01a00613          	li	a2,26

0000000080005d60 <i_5763>:
    80005d60:	00cfd43b          	srlw	s0,t6,a2

0000000080005d64 <i_5764>:
    80005d64:	00275713          	srli	a4,a4,0x2

0000000080005d68 <i_5765>:
    80005d68:	00e41c63          	bne	s0,a4,80005d80 <i_5771>

0000000080005d6c <i_5766>:
    80005d6c:	01f46e33          	or	t3,s0,t6

0000000080005d70 <i_5767>:
    80005d70:	05815f83          	lhu	t6,88(sp)

0000000080005d74 <i_5768>:
    80005d74:	2a42f7b7          	lui	a5,0x2a42f

0000000080005d78 <i_5769>:
    80005d78:	01f484b3          	add	s1,s1,t6

0000000080005d7c <i_5770>:
    80005d7c:	0a214f83          	lbu	t6,162(sp)

0000000080005d80 <i_5771>:
    80005d80:	02f4d263          	ble	a5,s1,80005da4 <i_5780>

0000000080005d84 <i_5772>:
    80005d84:	15114f83          	lbu	t6,337(sp)

0000000080005d88 <i_5773>:
    80005d88:	fdc11483          	lh	s1,-36(sp)

0000000080005d8c <i_5774>:
    80005d8c:	018888b3          	add	a7,a7,s8

0000000080005d90 <i_5775>:
    80005d90:	0f214c03          	lbu	s8,242(sp)

0000000080005d94 <i_5776>:
    80005d94:	0298e463          	bltu	a7,s1,80005dbc <i_5786>

0000000080005d98 <i_5777>:
    80005d98:	0a013483          	ld	s1,160(sp)

0000000080005d9c <i_5778>:
    80005d9c:	018888b3          	add	a7,a7,s8

0000000080005da0 <i_5779>:
    80005da0:	031c0063          	beq	s8,a7,80005dc0 <i_5787>

0000000080005da4 <i_5780>:
    80005da4:	0d1100a3          	sb	a7,193(sp)

0000000080005da8 <i_5781>:
    80005da8:	e8013a83          	ld	s5,-384(sp)

0000000080005dac <i_5782>:
    80005dac:	f9412f03          	lw	t5,-108(sp)

0000000080005db0 <i_5783>:
    80005db0:	03200c13          	li	s8,50

0000000080005db4 <i_5784>:
    80005db4:	4184dfb3          	sra	t6,s1,s8

0000000080005db8 <i_5785>:
    80005db8:	038c1463          	bne	s8,s8,80005de0 <i_5795>

0000000080005dbc <i_5786>:
    80005dbc:	404fd49b          	sraiw	s1,t6,0x4

0000000080005dc0 <i_5787>:
    80005dc0:	03f13423          	sd	t6,40(sp)

0000000080005dc4 <i_5788>:
    80005dc4:	00948e63          	beq	s1,s1,80005de0 <i_5795>

0000000080005dc8 <i_5789>:
    80005dc8:	0af10f83          	lb	t6,175(sp)

0000000080005dcc <i_5790>:
    80005dcc:	003f9493          	slli	s1,t6,0x3

0000000080005dd0 <i_5791>:
    80005dd0:	1c913823          	sd	s1,464(sp)

0000000080005dd4 <i_5792>:
    80005dd4:	02fd5d33          	divu	s10,s10,a5

0000000080005dd8 <i_5793>:
    80005dd8:	f7016d03          	lwu	s10,-144(sp)

0000000080005ddc <i_5794>:
    80005ddc:	00000013          	nop

0000000080005de0 <i_5795>:
    80005de0:	01f4fd33          	and	s10,s1,t6

0000000080005de4 <i_5796>:
    80005de4:	16b10583          	lb	a1,363(sp)

0000000080005de8 <i_5797>:
    80005de8:	89500a13          	li	s4,-1899

0000000080005dec <i_5798>:
    80005dec:	8a800993          	li	s3,-1880

0000000080005df0 <i_5799>:
    80005df0:	01e00e93          	li	t4,30

0000000080005df4 <i_5800>:
    80005df4:	01d5debb          	srlw	t4,a1,t4

0000000080005df8 <i_5801>:
    80005df8:	09514483          	lbu	s1,149(sp)

0000000080005dfc <i_5802>:
    80005dfc:	001a0a13          	addi	s4,s4,1
    80005e00:	ff3a48e3          	blt	s4,s3,80005df0 <i_5799>

0000000080005e04 <i_5803>:
    80005e04:	01fcfcb3          	and	s9,s9,t6

0000000080005e08 <i_5804>:
    80005e08:	ea013c83          	ld	s9,-352(sp)

0000000080005e0c <i_5805>:
    80005e0c:	ff911823          	sh	s9,-16(sp)

0000000080005e10 <i_5806>:
    80005e10:	07911423          	sh	s9,104(sp)

0000000080005e14 <i_5807>:
    80005e14:	002cf863          	bleu	sp,s9,80005e24 <i_5811>

0000000080005e18 <i_5808>:
    80005e18:	02ecf7b3          	remu	a5,s9,a4

0000000080005e1c <i_5809>:
    80005e1c:	1d811903          	lh	s2,472(sp)

0000000080005e20 <i_5810>:
    80005e20:	01994c63          	blt	s2,s9,80005e38 <i_5816>

0000000080005e24 <i_5811>:
    80005e24:	01296e63          	bltu	s2,s2,80005e40 <i_5818>

0000000080005e28 <i_5812>:
    80005e28:	0026d663          	ble	sp,a3,80005e34 <i_5815>

0000000080005e2c <i_5813>:
    80005e2c:	01813703          	ld	a4,24(sp)

0000000080005e30 <i_5814>:
    80005e30:	01b10903          	lb	s2,27(sp)

0000000080005e34 <i_5815>:
    80005e34:	e3c14d03          	lbu	s10,-452(sp)

0000000080005e38 <i_5816>:
    80005e38:	f7210303          	lb	t1,-142(sp)

0000000080005e3c <i_5817>:
    80005e3c:	e4613823          	sd	t1,-432(sp)

0000000080005e40 <i_5818>:
    80005e40:	05212e23          	sw	s2,92(sp)

0000000080005e44 <i_5819>:
    80005e44:	021350bb          	divuw	ra,t1,ra

0000000080005e48 <i_5820>:
    80005e48:	ec110223          	sb	ra,-316(sp)

0000000080005e4c <i_5821>:
    80005e4c:	8c600713          	li	a4,-1850

0000000080005e50 <i_5822>:
    80005e50:	8cd00c13          	li	s8,-1843

0000000080005e54 <i_5823>:
    80005e54:	ec016e03          	lwu	t3,-320(sp)

0000000080005e58 <i_5824>:
    80005e58:	fd812083          	lw	ra,-40(sp)

0000000080005e5c <i_5825>:
    80005e5c:	fb016583          	lwu	a1,-80(sp)

0000000080005e60 <i_5826>:
    80005e60:	01b00493          	li	s1,27

0000000080005e64 <i_5827>:
    80005e64:	4095d53b          	sraw	a0,a1,s1

0000000080005e68 <i_5828>:
    80005e68:	00000013          	nop

0000000080005e6c <i_5829>:
    80005e6c:	00000013          	nop

0000000080005e70 <i_5830>:
    80005e70:	00355913          	srli	s2,a0,0x3

0000000080005e74 <i_5831>:
    80005e74:	10a14083          	lbu	ra,266(sp)

0000000080005e78 <i_5832>:
    80005e78:	03c97263          	bleu	t3,s2,80005e9c <i_5840>

0000000080005e7c <i_5833>:
    80005e7c:	00170713          	addi	a4,a4,1
    80005e80:	fd874ae3          	blt	a4,s8,80005e54 <i_5823>

0000000080005e84 <i_5834>:
    80005e84:	00195863          	ble	ra,s2,80005e94 <i_5838>

0000000080005e88 <i_5835>:
    80005e88:	fe112c23          	sw	ra,-8(sp)

0000000080005e8c <i_5836>:
    80005e8c:	001d1463          	bne	s10,ra,80005e94 <i_5838>

0000000080005e90 <i_5837>:
    80005e90:	0107e463          	bltu	a5,a6,80005e98 <i_5839>

0000000080005e94 <i_5838>:
    80005e94:	0015951b          	slliw	a0,a1,0x1

0000000080005e98 <i_5839>:
    80005e98:	ee812983          	lw	s3,-280(sp)

0000000080005e9c <i_5840>:
    80005e9c:	02a0f7bb          	remuw	a5,ra,a0

0000000080005ea0 <i_5841>:
    80005ea0:	eb016903          	lwu	s2,-336(sp)

0000000080005ea4 <i_5842>:
    80005ea4:	02f9a4b3          	mulhsu	s1,s3,a5

0000000080005ea8 <i_5843>:
    80005ea8:	12816783          	lwu	a5,296(sp)

0000000080005eac <i_5844>:
    80005eac:	0094d263          	ble	s1,s1,80005eb0 <i_5845>

0000000080005eb0 <i_5845>:
    80005eb0:	9c57c493          	xori	s1,a5,-1595

0000000080005eb4 <i_5846>:
    80005eb4:	0d212223          	sw	s2,196(sp)

0000000080005eb8 <i_5847>:
    80005eb8:	00300893          	li	a7,3

0000000080005ebc <i_5848>:
    80005ebc:	0114db33          	srl	s6,s1,a7

0000000080005ec0 <i_5849>:
    80005ec0:	13613023          	sd	s6,288(sp)

0000000080005ec4 <i_5850>:
    80005ec4:	03178263          	beq	a5,a7,80005ee8 <i_5859>

0000000080005ec8 <i_5851>:
    80005ec8:	08813483          	ld	s1,136(sp)

0000000080005ecc <i_5852>:
    80005ecc:	fd016b03          	lwu	s6,-48(sp)

0000000080005ed0 <i_5853>:
    80005ed0:	f8012883          	lw	a7,-128(sp)

0000000080005ed4 <i_5854>:
    80005ed4:	41ca81b3          	sub	gp,s5,t3

0000000080005ed8 <i_5855>:
    80005ed8:	11210983          	lb	s3,274(sp)

0000000080005edc <i_5856>:
    80005edc:	00338c33          	add	s8,t2,gp

0000000080005ee0 <i_5857>:
    80005ee0:	e4a14b03          	lbu	s6,-438(sp)

0000000080005ee4 <i_5858>:
    80005ee4:	02a808b3          	mul	a7,a6,a0

0000000080005ee8 <i_5859>:
    80005ee8:	fcf13023          	sd	a5,-64(sp)

0000000080005eec <i_5860>:
    80005eec:	036fbb33          	mulhu	s6,t6,s6

0000000080005ef0 <i_5861>:
    80005ef0:	00000013          	nop

0000000080005ef4 <i_5862>:
    80005ef4:	86100f93          	li	t6,-1951

0000000080005ef8 <i_5863>:
    80005ef8:	86500813          	li	a6,-1947

0000000080005efc <i_5864>:
    80005efc:	01011c23          	sh	a6,24(sp)

0000000080005f00 <i_5865>:
    80005f00:	0b811b03          	lh	s6,184(sp)

0000000080005f04 <i_5866>:
    80005f04:	0ff10b23          	sb	t6,246(sp)

0000000080005f08 <i_5867>:
    80005f08:	00000013          	nop

0000000080005f0c <i_5868>:
    80005f0c:	e9f13823          	sd	t6,-368(sp)

0000000080005f10 <i_5869>:
    80005f10:	03ffe233          	rem	tp,t6,t6

0000000080005f14 <i_5870>:
    80005f14:	ee813403          	ld	s0,-280(sp)

0000000080005f18 <i_5871>:
    80005f18:	001f8f93          	addi	t6,t6,1 # bee6fe29 <_end+0x3ee5fa15>
    80005f1c:	ff0fc0e3          	blt	t6,a6,80005efc <i_5864>

0000000080005f20 <i_5872>:
    80005f20:	f5416f83          	lwu	t6,-172(sp)

0000000080005f24 <i_5873>:
    80005f24:	02afb433          	mulhu	s0,t6,a0

0000000080005f28 <i_5874>:
    80005f28:	4a4c8513          	addi	a0,s9,1188 # 386e44a4 <main-0x4791bb5c>

0000000080005f2c <i_5875>:
    80005f2c:	18810823          	sb	s0,400(sp)

0000000080005f30 <i_5876>:
    80005f30:	00000013          	nop

0000000080005f34 <i_5877>:
    80005f34:	02813d03          	ld	s10,40(sp)

0000000080005f38 <i_5878>:
    80005f38:	8a300313          	li	t1,-1885

0000000080005f3c <i_5879>:
    80005f3c:	8b600613          	li	a2,-1866

0000000080005f40 <i_5880>:
    80005f40:	f6914783          	lbu	a5,-151(sp)

0000000080005f44 <i_5881>:
    80005f44:	00130313          	addi	t1,t1,1 # ffffffffb63cb001 <_end+0xffffffff363babed>
    80005f48:	fec31ce3          	bne	t1,a2,80005f40 <i_5880>

0000000080005f4c <i_5882>:
    80005f4c:	14813c23          	sd	s0,344(sp)

0000000080005f50 <i_5883>:
    80005f50:	02c7c463          	blt	a5,a2,80005f78 <i_5893>

0000000080005f54 <i_5884>:
    80005f54:	0dc16783          	lwu	a5,220(sp)

0000000080005f58 <i_5885>:
    80005f58:	1da12a23          	sw	s10,468(sp)

0000000080005f5c <i_5886>:
    80005f5c:	1d812d03          	lw	s10,472(sp)

0000000080005f60 <i_5887>:
    80005f60:	0ba10aa3          	sb	s10,181(sp)

0000000080005f64 <i_5888>:
    80005f64:	e6810d03          	lb	s10,-408(sp)

0000000080005f68 <i_5889>:
    80005f68:	ffe10223          	sb	t5,-28(sp)

0000000080005f6c <i_5890>:
    80005f6c:	03a12223          	sw	s10,36(sp)

0000000080005f70 <i_5891>:
    80005f70:	00fa4a63          	blt	s4,a5,80005f84 <i_5896>

0000000080005f74 <i_5892>:
    80005f74:	01ad5863          	ble	s10,s10,80005f84 <i_5896>

0000000080005f78 <i_5893>:
    80005f78:	f8012f03          	lw	t5,-128(sp)

0000000080005f7c <i_5894>:
    80005f7c:	01f00c93          	li	s9,31

0000000080005f80 <i_5895>:
    80005f80:	419ddf3b          	sraw	t5,s11,s9

0000000080005f84 <i_5896>:
    80005f84:	00000013          	nop

0000000080005f88 <i_5897>:
    80005f88:	eac16b83          	lwu	s7,-340(sp)

0000000080005f8c <i_5898>:
    80005f8c:	87300d13          	li	s10,-1933

0000000080005f90 <i_5899>:
    80005f90:	87f00613          	li	a2,-1921

0000000080005f94 <i_5900>:
    80005f94:	f3813d83          	ld	s11,-200(sp)

0000000080005f98 <i_5901>:
    80005f98:	fb810b83          	lb	s7,-72(sp)

0000000080005f9c <i_5902>:
    80005f9c:	1bb11b23          	sh	s11,438(sp)

0000000080005fa0 <i_5903>:
    80005fa0:	e4110d83          	lb	s11,-447(sp)

0000000080005fa4 <i_5904>:
    80005fa4:	01abea63          	bltu	s7,s10,80005fb8 <i_5909>

0000000080005fa8 <i_5905>:
    80005fa8:	f2416883          	lwu	a7,-220(sp)

0000000080005fac <i_5906>:
    80005fac:	03a00913          	li	s2,58

0000000080005fb0 <i_5907>:
    80005fb0:	012d18b3          	sll	a7,s10,s2

0000000080005fb4 <i_5908>:
    80005fb4:	0117a4b3          	slt	s1,a5,a7

0000000080005fb8 <i_5909>:
    80005fb8:	f4c15783          	lhu	a5,-180(sp)

0000000080005fbc <i_5910>:
    80005fbc:	00000013          	nop

0000000080005fc0 <i_5911>:
    80005fc0:	75f00893          	li	a7,1887

0000000080005fc4 <i_5912>:
    80005fc4:	76500593          	li	a1,1893

0000000080005fc8 <i_5913>:
    80005fc8:	fa813183          	ld	gp,-88(sp)

0000000080005fcc <i_5914>:
    80005fcc:	00188893          	addi	a7,a7,1
    80005fd0:	feb89ce3          	bne	a7,a1,80005fc8 <i_5913>

0000000080005fd4 <i_5915>:
    80005fd4:	02f7a7b3          	mulhsu	a5,a5,a5

0000000080005fd8 <i_5916>:
    80005fd8:	001d0d13          	addi	s10,s10,1
    80005fdc:	fba65ce3          	ble	s10,a2,80005f94 <i_5900>

0000000080005fe0 <i_5917>:
    80005fe0:	09416783          	lwu	a5,148(sp)

0000000080005fe4 <i_5918>:
    80005fe4:	00f18463          	beq	gp,a5,80005fec <i_5920>

0000000080005fe8 <i_5919>:
    80005fe8:	f5016783          	lwu	a5,-176(sp)

0000000080005fec <i_5920>:
    80005fec:	00200a93          	li	s5,2

0000000080005ff0 <i_5921>:
    80005ff0:	0157d7b3          	srl	a5,a5,s5

0000000080005ff4 <i_5922>:
    80005ff4:	ee215f03          	lhu	t5,-286(sp)

0000000080005ff8 <i_5923>:
    80005ff8:	0d514783          	lbu	a5,213(sp)

0000000080005ffc <i_5924>:
    80005ffc:	85500c93          	li	s9,-1963

0000000080006000 <i_5925>:
    80006000:	86000a93          	li	s5,-1952

0000000080006004 <i_5926>:
    80006004:	00c79463          	bne	a5,a2,8000600c <i_5928>

0000000080006008 <i_5927>:
    80006008:	0d416983          	lwu	s3,212(sp)

000000008000600c <i_5928>:
    8000600c:	0033df1b          	srliw	t5,t2,0x3

0000000080006010 <i_5929>:
    80006010:	eee15203          	lhu	tp,-274(sp)

0000000080006014 <i_5930>:
    80006014:	5c598093          	addi	ra,s3,1477

0000000080006018 <i_5931>:
    80006018:	ee412803          	lw	a6,-284(sp)

000000008000601c <i_5932>:
    8000601c:	0be12c23          	sw	t5,184(sp)

0000000080006020 <i_5933>:
    80006020:	001b0663          	beq	s6,ra,8000602c <i_5936>

0000000080006024 <i_5934>:
    80006024:	efe14e83          	lbu	t4,-258(sp)

0000000080006028 <i_5935>:
    80006028:	4029de1b          	sraiw	t3,s3,0x2

000000008000602c <i_5936>:
    8000602c:	03d0d53b          	divuw	a0,ra,t4

0000000080006030 <i_5937>:
    80006030:	033e0663          	beq	t3,s3,8000605c <i_5947>

0000000080006034 <i_5938>:
    80006034:	e4b13023          	sd	a1,-448(sp)

0000000080006038 <i_5939>:
    80006038:	001c8c93          	addi	s9,s9,1
    8000603c:	fd5ce4e3          	bltu	s9,s5,80006004 <i_5926>

0000000080006040 <i_5940>:
    80006040:	01ef3db3          	sltu	s11,t5,t5

0000000080006044 <i_5941>:
    80006044:	01f00093          	li	ra,31

0000000080006048 <i_5942>:
    80006048:	001f5f33          	srl	t5,t5,ra

000000008000604c <i_5943>:
    8000604c:	401d853b          	subw	a0,s11,ra

0000000080006050 <i_5944>:
    80006050:	fb310803          	lb	a6,-77(sp)

0000000080006054 <i_5945>:
    80006054:	001dd663          	ble	ra,s11,80006060 <i_5948>

0000000080006058 <i_5946>:
    80006058:	f8a11223          	sh	a0,-124(sp)

000000008000605c <i_5947>:
    8000605c:	ea110b23          	sb	ra,-330(sp)

0000000080006060 <i_5948>:
    80006060:	02151463          	bne	a0,ra,80006088 <i_5958>

0000000080006064 <i_5949>:
    80006064:	02157263          	bleu	ra,a0,80006088 <i_5958>

0000000080006068 <i_5950>:
    80006068:	021bc3b3          	div	t2,s7,ra

000000008000606c <i_5951>:
    8000606c:	401cd81b          	sraiw	a6,s9,0x1

0000000080006070 <i_5952>:
    80006070:	19614083          	lbu	ra,406(sp)

0000000080006074 <i_5953>:
    80006074:	01edcc63          	blt	s11,t5,8000608c <i_5959>

0000000080006078 <i_5954>:
    80006078:	e0710c23          	sb	t2,-488(sp)

000000008000607c <i_5955>:
    8000607c:	010cfe63          	bleu	a6,s9,80006098 <i_5962>

0000000080006080 <i_5956>:
    80006080:	02756063          	bltu	a0,t2,800060a0 <i_5964>

0000000080006084 <i_5957>:
    80006084:	0176fe63          	bleu	s7,a3,800060a0 <i_5964>

0000000080006088 <i_5958>:
    80006088:	ee712023          	sw	t2,-288(sp)

000000008000608c <i_5959>:
    8000608c:	01986463          	bltu	a6,s9,80006094 <i_5961>

0000000080006090 <i_5960>:
    80006090:	f6813783          	ld	a5,-152(sp)

0000000080006094 <i_5961>:
    80006094:	f7710183          	lb	gp,-137(sp)

0000000080006098 <i_5962>:
    80006098:	f3a10e03          	lb	t3,-198(sp)

000000008000609c <i_5963>:
    8000609c:	00f1bcb3          	sltu	s9,gp,a5

00000000800060a0 <i_5964>:
    800060a0:	05a14803          	lbu	a6,90(sp)

00000000800060a4 <i_5965>:
    800060a4:	01700213          	li	tp,23

00000000800060a8 <i_5966>:
    800060a8:	0044d1b3          	srl	gp,s1,tp

00000000800060ac <i_5967>:
    800060ac:	85800d13          	li	s10,-1960

00000000800060b0 <i_5968>:
    800060b0:	86400493          	li	s1,-1948

00000000800060b4 <i_5969>:
    800060b4:	06410623          	sb	tp,108(sp)

00000000800060b8 <i_5970>:
    800060b8:	001d0d13          	addi	s10,s10,1
    800060bc:	ffa49ae3          	bne	s1,s10,800060b0 <i_5968>

00000000800060c0 <i_5971>:
    800060c0:	01c49c63          	bne	s1,t3,800060d8 <i_5977>

00000000800060c4 <i_5972>:
    800060c4:	01c16483          	lwu	s1,28(sp)

00000000800060c8 <i_5973>:
    800060c8:	1d114f03          	lbu	t5,465(sp)

00000000800060cc <i_5974>:
    800060cc:	024277b3          	remu	a5,tp,tp

00000000800060d0 <i_5975>:
    800060d0:	02bbf1b3          	remu	gp,s7,a1

00000000800060d4 <i_5976>:
    800060d4:	0037ec63          	bltu	a5,gp,800060ec <i_5982>

00000000800060d8 <i_5977>:
    800060d8:	02f11463          	bne	sp,a5,80006100 <i_5987>

00000000800060dc <i_5978>:
    800060dc:	e4410d03          	lb	s10,-444(sp)

00000000800060e0 <i_5979>:
    800060e0:	e8812183          	lw	gp,-376(sp)

00000000800060e4 <i_5980>:
    800060e4:	006d9a63          	bne	s11,t1,800060f8 <i_5985>

00000000800060e8 <i_5981>:
    800060e8:	18411383          	lh	t2,388(sp)

00000000800060ec <i_5982>:
    800060ec:	035d8ab3          	mul	s5,s11,s5

00000000800060f0 <i_5983>:
    800060f0:	035ac063          	blt	s5,s5,80006110 <i_5991>

00000000800060f4 <i_5984>:
    800060f4:	10e11603          	lh	a2,270(sp)

00000000800060f8 <i_5985>:
    800060f8:	023d0463          	beq	s10,gp,80006120 <i_5995>

00000000800060fc <i_5986>:
    800060fc:	407b01b3          	sub	gp,s6,t2

0000000080006100 <i_5987>:
    80006100:	0073f463          	bleu	t2,t2,80006108 <i_5989>

0000000080006104 <i_5988>:
    80006104:	0361eb3b          	remw	s6,gp,s6

0000000080006108 <i_5989>:
    80006108:	0f016b03          	lwu	s6,240(sp)

000000008000610c <i_5990>:
    8000610c:	ca244493          	xori	s1,s0,-862

0000000080006110 <i_5991>:
    80006110:	0031e863          	bltu	gp,gp,80006120 <i_5995>

0000000080006114 <i_5992>:
    80006114:	fb4d2317          	auipc	t1,0xfb4d2

0000000080006118 <i_5993>:
    80006118:	036b0063          	beq	s6,s6,80006138 <i_6001>

000000008000611c <i_5994>:
    8000611c:	0c3105a3          	sb	gp,203(sp)

0000000080006120 <i_5995>:
    80006120:	40465313          	srai	t1,a2,0x4

0000000080006124 <i_5996>:
    80006124:	0d615603          	lhu	a2,214(sp)

0000000080006128 <i_5997>:
    80006128:	006d9863          	bne	s11,t1,80006138 <i_6001>

000000008000612c <i_5998>:
    8000612c:	13812203          	lw	tp,312(sp)

0000000080006130 <i_5999>:
    80006130:	16a11203          	lh	tp,362(sp)

0000000080006134 <i_6000>:
    80006134:	05511923          	sh	s5,82(sp)

0000000080006138 <i_6001>:
    80006138:	002dd29b          	srliw	t0,s11,0x2

000000008000613c <i_6002>:
    8000613c:	eb312823          	sw	s3,-336(sp)

0000000080006140 <i_6003>:
    80006140:	85700993          	li	s3,-1961

0000000080006144 <i_6004>:
    80006144:	85a00d93          	li	s11,-1958

0000000080006148 <i_6005>:
    80006148:	00000013          	nop

000000008000614c <i_6006>:
    8000614c:	00198993          	addi	s3,s3,1
    80006150:	ff3ddce3          	ble	s3,s11,80006148 <i_6005>

0000000080006154 <i_6007>:
    80006154:	00165793          	srli	a5,a2,0x1

0000000080006158 <i_6008>:
    80006158:	025dc263          	blt	s11,t0,8000617c <i_6017>

000000008000615c <i_6009>:
    8000615c:	02bda2b3          	mulhsu	t0,s11,a1

0000000080006160 <i_6010>:
    80006160:	02800d93          	li	s11,40

0000000080006164 <i_6011>:
    80006164:	01bd9db3          	sll	s11,s11,s11

0000000080006168 <i_6012>:
    80006168:	f092f293          	andi	t0,t0,-247

000000008000616c <i_6013>:
    8000616c:	06c12e23          	sw	a2,124(sp)

0000000080006170 <i_6014>:
    80006170:	40cd8f3b          	subw	t5,s11,a2

0000000080006174 <i_6015>:
    80006174:	f6513823          	sd	t0,-144(sp)

0000000080006178 <i_6016>:
    80006178:	00000013          	nop

000000008000617c <i_6017>:
    8000617c:	025dddb3          	divu	s11,s11,t0

0000000080006180 <i_6018>:
    80006180:	03bdcdb3          	div	s11,s11,s11

0000000080006184 <i_6019>:
    80006184:	7d300293          	li	t0,2003

0000000080006188 <i_6020>:
    80006188:	7e500693          	li	a3,2021

000000008000618c <i_6021>:
    8000618c:	03bd9463          	bne	s11,s11,800061b4 <i_6030>

0000000080006190 <i_6022>:
    80006190:	00000013          	nop

0000000080006194 <i_6023>:
    80006194:	02400d93          	li	s11,36

0000000080006198 <i_6024>:
    80006198:	01b5ddb3          	srl	s11,a1,s11

000000008000619c <i_6025>:
    8000619c:	00128293          	addi	t0,t0,1 # ffffffffc6d4f001 <_end+0xffffffff46d3ebed>
    800061a0:	fed2e6e3          	bltu	t0,a3,8000618c <i_6021>

00000000800061a4 <i_6026>:
    800061a4:	feb12023          	sw	a1,-32(sp)

00000000800061a8 <i_6027>:
    800061a8:	f2813603          	ld	a2,-216(sp)

00000000800061ac <i_6028>:
    800061ac:	1b913423          	sd	s9,424(sp)

00000000800061b0 <i_6029>:
    800061b0:	1c512223          	sw	t0,452(sp)

00000000800061b4 <i_6030>:
    800061b4:	02ccc8b3          	div	a7,s9,a2

00000000800061b8 <i_6031>:
    800061b8:	405282bb          	subw	t0,t0,t0

00000000800061bc <i_6032>:
    800061bc:	87700d93          	li	s11,-1929

00000000800061c0 <i_6033>:
    800061c0:	87b00c93          	li	s9,-1925

00000000800061c4 <i_6034>:
    800061c4:	0118fc63          	bleu	a7,a7,800061dc <i_6040>

00000000800061c8 <i_6035>:
    800061c8:	02c52ab3          	mulhsu	s5,a0,a2

00000000800061cc <i_6036>:
    800061cc:	0112f2b3          	and	t0,t0,a7

00000000800061d0 <i_6037>:
    800061d0:	19614a03          	lbu	s4,406(sp)

00000000800061d4 <i_6038>:
    800061d4:	0c513423          	sd	t0,200(sp)

00000000800061d8 <i_6039>:
    800061d8:	00000013          	nop

00000000800061dc <i_6040>:
    800061dc:	08811603          	lh	a2,136(sp)

00000000800061e0 <i_6041>:
    800061e0:	405a05bb          	subw	a1,s4,t0

00000000800061e4 <i_6042>:
    800061e4:	00000013          	nop

00000000800061e8 <i_6043>:
    800061e8:	fac15483          	lhu	s1,-84(sp)

00000000800061ec <i_6044>:
    800061ec:	001d8d93          	addi	s11,s11,1 # 13ca5001 <main-0x6c35afff>
    800061f0:	fd9deae3          	bltu	s11,s9,800061c4 <i_6034>

00000000800061f4 <i_6045>:
    800061f4:	e5e11183          	lh	gp,-418(sp)

00000000800061f8 <i_6046>:
    800061f8:	00b2c263          	blt	t0,a1,800061fc <i_6047>

00000000800061fc <i_6047>:
    800061fc:	fe913823          	sd	s1,-16(sp)

0000000080006200 <i_6048>:
    80006200:	031291b3          	mulh	gp,t0,a7

0000000080006204 <i_6049>:
    80006204:	005e4863          	blt	t3,t0,80006214 <i_6053>

0000000080006208 <i_6050>:
    80006208:	00a888b3          	add	a7,a7,a0

000000008000620c <i_6051>:
    8000620c:	0252e6b3          	rem	a3,t0,t0

0000000080006210 <i_6052>:
    80006210:	0024f663          	bleu	sp,s1,8000621c <i_6055>

0000000080006214 <i_6053>:
    80006214:	02b5063b          	mulw	a2,a0,a1

0000000080006218 <i_6054>:
    80006218:	01160263          	beq	a2,a7,8000621c <i_6055>

000000008000621c <i_6055>:
    8000621c:	15015183          	lhu	gp,336(sp)

0000000080006220 <i_6056>:
    80006220:	01d00a13          	li	s4,29

0000000080006224 <i_6057>:
    80006224:	4148d733          	sra	a4,a7,s4

0000000080006228 <i_6058>:
    80006228:	e8812683          	lw	a3,-376(sp)

000000008000622c <i_6059>:
    8000622c:	1b910883          	lb	a7,441(sp)

0000000080006230 <i_6060>:
    80006230:	00d68a63          	beq	a3,a3,80006244 <i_6065>

0000000080006234 <i_6061>:
    80006234:	02b69263          	bne	a3,a1,80006258 <i_6070>

0000000080006238 <i_6062>:
    80006238:	0346563b          	divuw	a2,a2,s4

000000008000623c <i_6063>:
    8000623c:	1de13823          	sd	t5,464(sp)

0000000080006240 <i_6064>:
    80006240:	18d12823          	sw	a3,400(sp)

0000000080006244 <i_6065>:
    80006244:	02d41cb3          	mulh	s9,s0,a3

0000000080006248 <i_6066>:
    80006248:	07910d23          	sb	s9,122(sp)

000000008000624c <i_6067>:
    8000624c:	01f00c93          	li	s9,31

0000000080006250 <i_6068>:
    80006250:	019c98b3          	sll	a7,s9,s9

0000000080006254 <i_6069>:
    80006254:	b78ca613          	slti	a2,s9,-1160

0000000080006258 <i_6070>:
    80006258:	1ac10923          	sb	a2,434(sp)

000000008000625c <i_6071>:
    8000625c:	10a11183          	lh	gp,266(sp)

0000000080006260 <i_6072>:
    80006260:	023c8063          	beq	s9,gp,80006280 <i_6080>

0000000080006264 <i_6073>:
    80006264:	0391f633          	remu	a2,gp,s9

0000000080006268 <i_6074>:
    80006268:	cc564893          	xori	a7,a2,-827

000000008000626c <i_6075>:
    8000626c:	e6c12423          	sw	a2,-408(sp)

0000000080006270 <i_6076>:
    80006270:	0195f663          	bleu	s9,a1,8000627c <i_6079>

0000000080006274 <i_6077>:
    80006274:	00600693          	li	a3,6

0000000080006278 <i_6078>:
    80006278:	40d8d633          	sra	a2,a7,a3

000000008000627c <i_6079>:
    8000627c:	f9215883          	lhu	a7,-110(sp)

0000000080006280 <i_6080>:
    80006280:	fe812983          	lw	s3,-24(sp)

0000000080006284 <i_6081>:
    80006284:	14013f03          	ld	t5,320(sp)

0000000080006288 <i_6082>:
    80006288:	00500993          	li	s3,5

000000008000628c <i_6083>:
    8000628c:	01389a3b          	sllw	s4,a7,s3

0000000080006290 <i_6084>:
    80006290:	1be15f03          	lhu	t5,446(sp)

0000000080006294 <i_6085>:
    80006294:	0139d863          	ble	s3,s3,800062a4 <i_6089>

0000000080006298 <i_6086>:
    80006298:	0143ec63          	bltu	t2,s4,800062b0 <i_6092>

000000008000629c <i_6087>:
    8000629c:	031bf7b3          	remu	a5,s7,a7

00000000800062a0 <i_6088>:
    800062a0:	eb410723          	sb	s4,-338(sp)

00000000800062a4 <i_6089>:
    800062a4:	03ef5f3b          	divuw	t5,t5,t5

00000000800062a8 <i_6090>:
    800062a8:	f2f11a23          	sh	a5,-204(sp)

00000000800062ac <i_6091>:
    800062ac:	00299863          	bne	s3,sp,800062bc <i_6095>

00000000800062b0 <i_6092>:
    800062b0:	fde13c23          	sd	t5,-40(sp)

00000000800062b4 <i_6093>:
    800062b4:	fc811f03          	lh	t5,-56(sp)

00000000800062b8 <i_6094>:
    800062b8:	12410e23          	sb	tp,316(sp)

00000000800062bc <i_6095>:
    800062bc:	024279bb          	remuw	s3,tp,tp

00000000800062c0 <i_6096>:
    800062c0:	00000013          	nop

00000000800062c4 <i_6097>:
    800062c4:	77900c13          	li	s8,1913

00000000800062c8 <i_6098>:
    800062c8:	78000e93          	li	t4,1920

00000000800062cc <i_6099>:
    800062cc:	1b110703          	lb	a4,433(sp)

00000000800062d0 <i_6100>:
    800062d0:	00b00613          	li	a2,11

00000000800062d4 <i_6101>:
    800062d4:	00cf573b          	srlw	a4,t5,a2

00000000800062d8 <i_6102>:
    800062d8:	7dc00793          	li	a5,2012

00000000800062dc <i_6103>:
    800062dc:	7e900d93          	li	s11,2025

00000000800062e0 <i_6104>:
    800062e0:	00000013          	nop

00000000800062e4 <i_6105>:
    800062e4:	f8e12e23          	sw	a4,-100(sp)

00000000800062e8 <i_6106>:
    800062e8:	0046191b          	slliw	s2,a2,0x4

00000000800062ec <i_6107>:
    800062ec:	ea211883          	lh	a7,-350(sp)

00000000800062f0 <i_6108>:
    800062f0:	e2e12c23          	sw	a4,-456(sp)

00000000800062f4 <i_6109>:
    800062f4:	01700f13          	li	t5,23

00000000800062f8 <i_6110>:
    800062f8:	41e6d633          	sra	a2,a3,t5

00000000800062fc <i_6111>:
    800062fc:	00178793          	addi	a5,a5,1 # 2a42f001 <main-0x55bd0fff>
    80006300:	fdb7eee3          	bltu	a5,s11,800062dc <i_6103>

0000000080006304 <i_6112>:
    80006304:	001c0c13          	addi	s8,s8,1 # 5a550f89 <main-0x25aaf077>
    80006308:	fd8ef2e3          	bleu	s8,t4,800062cc <i_6099>

000000008000630c <i_6113>:
    8000630c:	00000013          	nop

0000000080006310 <i_6114>:
    80006310:	00000013          	nop

0000000080006314 <i_6115>:
    80006314:	76100b13          	li	s6,1889

0000000080006318 <i_6116>:
    80006318:	76600893          	li	a7,1894

000000008000631c <i_6117>:
    8000631c:	05612c23          	sw	s6,88(sp)

0000000080006320 <i_6118>:
    80006320:	01688463          	beq	a7,s6,80006328 <i_6120>

0000000080006324 <i_6119>:
    80006324:	401f5e13          	srai	t3,t5,0x1

0000000080006328 <i_6120>:
    80006328:	e3611623          	sh	s6,-468(sp)

000000008000632c <i_6121>:
    8000632c:	1b210683          	lb	a3,434(sp)

0000000080006330 <i_6122>:
    80006330:	001b0b13          	addi	s6,s6,1
    80006334:	ff1b64e3          	bltu	s6,a7,8000631c <i_6117>

0000000080006338 <i_6123>:
    80006338:	01eb7bb3          	and	s7,s6,t5

000000008000633c <i_6124>:
    8000633c:	13613823          	sd	s6,304(sp)

0000000080006340 <i_6125>:
    80006340:	036f6263          	bltu	t5,s6,80006364 <i_6134>

0000000080006344 <i_6126>:
    80006344:	0ab13823          	sd	a1,176(sp)

0000000080006348 <i_6127>:
    80006348:	018c38b3          	sltu	a7,s8,s8

000000008000634c <i_6128>:
    8000634c:	00475f1b          	srliw	t5,a4,0x4

0000000080006350 <i_6129>:
    80006350:	11110723          	sb	a7,270(sp)

0000000080006354 <i_6130>:
    80006354:	00000013          	nop

0000000080006358 <i_6131>:
    80006358:	03d80ebb          	mulw	t4,a6,t4

000000008000635c <i_6132>:
    8000635c:	00000013          	nop

0000000080006360 <i_6133>:
    80006360:	1b111123          	sh	a7,418(sp)

0000000080006364 <i_6134>:
    80006364:	017838b3          	sltu	a7,a6,s7

0000000080006368 <i_6135>:
    80006368:	03086bbb          	remw	s7,a6,a6

000000008000636c <i_6136>:
    8000636c:	83700393          	li	t2,-1993

0000000080006370 <i_6137>:
    80006370:	83900813          	li	a6,-1991

0000000080006374 <i_6138>:
    80006374:	03d00b93          	li	s7,61

0000000080006378 <i_6139>:
    80006378:	017b9bb3          	sll	s7,s7,s7

000000008000637c <i_6140>:
    8000637c:	15211b03          	lh	s6,338(sp)

0000000080006380 <i_6141>:
    80006380:	4021d91b          	sraiw	s2,gp,0x2

0000000080006384 <i_6142>:
    80006384:	f5411b83          	lh	s7,-172(sp)

0000000080006388 <i_6143>:
    80006388:	e8b14b83          	lbu	s7,-373(sp)

000000008000638c <i_6144>:
    8000638c:	00138393          	addi	t2,t2,1
    80006390:	fe7872e3          	bleu	t2,a6,80006374 <i_6138>

0000000080006394 <i_6145>:
    80006394:	07813903          	ld	s2,120(sp)

0000000080006398 <i_6146>:
    80006398:	e5c10b03          	lb	s6,-420(sp)

000000008000639c <i_6147>:
    8000639c:	0b016803          	lwu	a6,176(sp)

00000000800063a0 <i_6148>:
    800063a0:	036bfbbb          	remuw	s7,s7,s6

00000000800063a4 <i_6149>:
    800063a4:	00d00b93          	li	s7,13

00000000800063a8 <i_6150>:
    800063a8:	417d543b          	sraw	s0,s10,s7

00000000800063ac <i_6151>:
    800063ac:	16611b83          	lh	s7,358(sp)

00000000800063b0 <i_6152>:
    800063b0:	4cf15b97          	auipc	s7,0x4cf15

00000000800063b4 <i_6153>:
    800063b4:	ffc16903          	lwu	s2,-4(sp)

00000000800063b8 <i_6154>:
    800063b8:	40390ebb          	subw	t4,s2,gp

00000000800063bc <i_6155>:
    800063bc:	14c85097          	auipc	ra,0x14c85

00000000800063c0 <i_6156>:
    800063c0:	00400793          	li	a5,4

00000000800063c4 <i_6157>:
    800063c4:	00fadab3          	srl	s5,s5,a5

00000000800063c8 <i_6158>:
    800063c8:	fae15c03          	lhu	s8,-82(sp)

00000000800063cc <i_6159>:
    800063cc:	021c6533          	rem	a0,s8,ra

00000000800063d0 <i_6160>:
    800063d0:	02f50263          	beq	a0,a5,800063f4 <i_6169>

00000000800063d4 <i_6161>:
    800063d4:	029e8bb3          	mul	s7,t4,s1

00000000800063d8 <i_6162>:
    800063d8:	00255e93          	srli	t4,a0,0x2

00000000800063dc <i_6163>:
    800063dc:	00000013          	nop

00000000800063e0 <i_6164>:
    800063e0:	00000013          	nop

00000000800063e4 <i_6165>:
    800063e4:	00000013          	nop

00000000800063e8 <i_6166>:
    800063e8:	fe213023          	sd	sp,-32(sp)

00000000800063ec <i_6167>:
    800063ec:	0a212623          	sw	sp,172(sp)

00000000800063f0 <i_6168>:
    800063f0:	032e9ab3          	mulh	s5,t4,s2

00000000800063f4 <i_6169>:
    800063f4:	07513423          	sd	s5,104(sp)

00000000800063f8 <i_6170>:
    800063f8:	c2f29617          	auipc	a2,0xc2f29

00000000800063fc <i_6171>:
    800063fc:	75f00093          	li	ra,1887

0000000080006400 <i_6172>:
    80006400:	76700513          	li	a0,1895

0000000080006404 <i_6173>:
    80006404:	ea514383          	lbu	t2,-347(sp)

0000000080006408 <i_6174>:
    80006408:	c96cee93          	ori	t4,s9,-874

000000008000640c <i_6175>:
    8000640c:	00108093          	addi	ra,ra,1 # 94c8b3bd <_end+0x14c7afa9>
    80006410:	fea0eae3          	bltu	ra,a0,80006404 <i_6173>

0000000080006414 <i_6176>:
    80006414:	02f3b7b3          	mulhu	a5,t2,a5

0000000080006418 <i_6177>:
    80006418:	01013d83          	ld	s11,16(sp)

000000008000641c <i_6178>:
    8000641c:	03d12c23          	sw	t4,56(sp)

0000000080006420 <i_6179>:
    80006420:	03df8463          	beq	t6,t4,80006448 <i_6189>

0000000080006424 <i_6180>:
    80006424:	017ed463          	ble	s7,t4,8000642c <i_6182>

0000000080006428 <i_6181>:
    80006428:	1e415c83          	lhu	s9,484(sp)

000000008000642c <i_6182>:
    8000642c:	0c713423          	sd	t2,200(sp)

0000000080006430 <i_6183>:
    80006430:	11416b83          	lwu	s7,276(sp)

0000000080006434 <i_6184>:
    80006434:	fd013c83          	ld	s9,-48(sp)

0000000080006438 <i_6185>:
    80006438:	15911923          	sh	s9,338(sp)

000000008000643c <i_6186>:
    8000643c:	e4412c83          	lw	s9,-444(sp)

0000000080006440 <i_6187>:
    80006440:	01e7f733          	and	a4,a5,t5

0000000080006444 <i_6188>:
    80006444:	00000013          	nop

0000000080006448 <i_6189>:
    80006448:	00000013          	nop

000000008000644c <i_6190>:
    8000644c:	019bc2b3          	xor	t0,s7,s9

0000000080006450 <i_6191>:
    80006450:	7b300793          	li	a5,1971

0000000080006454 <i_6192>:
    80006454:	7c000b93          	li	s7,1984

0000000080006458 <i_6193>:
    80006458:	18e11a23          	sh	a4,404(sp)

000000008000645c <i_6194>:
    8000645c:	1a013883          	ld	a7,416(sp)

0000000080006460 <i_6195>:
    80006460:	00000013          	nop

0000000080006464 <i_6196>:
    80006464:	f9b10403          	lb	s0,-101(sp)

0000000080006468 <i_6197>:
    80006468:	f5811403          	lh	s0,-168(sp)

000000008000646c <i_6198>:
    8000646c:	00824733          	xor	a4,tp,s0

0000000080006470 <i_6199>:
    80006470:	40e400bb          	subw	ra,s0,a4

0000000080006474 <i_6200>:
    80006474:	00178793          	addi	a5,a5,1
    80006478:	ff7790e3          	bne	a5,s7,80006458 <i_6193>

000000008000647c <i_6201>:
    8000647c:	0210d463          	ble	ra,ra,800064a4 <i_6211>

0000000080006480 <i_6202>:
    80006480:	0273e3bb          	remw	t2,t2,t2

0000000080006484 <i_6203>:
    80006484:	13013083          	ld	ra,304(sp)

0000000080006488 <i_6204>:
    80006488:	0013f333          	and	t1,t2,ra

000000008000648c <i_6205>:
    8000648c:	17c12403          	lw	s0,380(sp)

0000000080006490 <i_6206>:
    80006490:	0025d31b          	srliw	t1,a1,0x2

0000000080006494 <i_6207>:
    80006494:	a70f841b          	addiw	s0,t6,-1424

0000000080006498 <i_6208>:
    80006498:	00200713          	li	a4,2

000000008000649c <i_6209>:
    8000649c:	00e8d8bb          	srlw	a7,a7,a4

00000000800064a0 <i_6210>:
    800064a0:	e8610923          	sb	t1,-366(sp)

00000000800064a4 <i_6211>:
    800064a4:	06012883          	lw	a7,96(sp)

00000000800064a8 <i_6212>:
    800064a8:	5748a893          	slti	a7,a7,1396

00000000800064ac <i_6213>:
    800064ac:	f9412303          	lw	t1,-108(sp)

00000000800064b0 <i_6214>:
    800064b0:	1d112e23          	sw	a7,476(sp)

00000000800064b4 <i_6215>:
    800064b4:	e9211823          	sh	s2,-368(sp)

00000000800064b8 <i_6216>:
    800064b8:	f6613c23          	sd	t1,-136(sp)

00000000800064bc <i_6217>:
    800064bc:	0e611023          	sh	t1,224(sp)

00000000800064c0 <i_6218>:
    800064c0:	19111023          	sh	a7,384(sp)

00000000800064c4 <i_6219>:
    800064c4:	03d32eb3          	mulhsu	t4,t1,t4

00000000800064c8 <i_6220>:
    800064c8:	00479793          	slli	a5,a5,0x4

00000000800064cc <i_6221>:
    800064cc:	0108c863          	blt	a7,a6,800064dc <i_6225>

00000000800064d0 <i_6222>:
    800064d0:	f2f12e23          	sw	a5,-196(sp)

00000000800064d4 <i_6223>:
    800064d4:	01013023          	sd	a6,0(sp)

00000000800064d8 <i_6224>:
    800064d8:	00671a63          	bne	a4,t1,800064ec <i_6229>

00000000800064dc <i_6225>:
    800064dc:	13016303          	lwu	t1,304(sp)

00000000800064e0 <i_6226>:
    800064e0:	19013803          	ld	a6,400(sp)

00000000800064e4 <i_6227>:
    800064e4:	00185f13          	srli	t5,a6,0x1

00000000800064e8 <i_6228>:
    800064e8:	09813983          	ld	s3,152(sp)

00000000800064ec <i_6229>:
    800064ec:	0f011a23          	sh	a6,244(sp)

00000000800064f0 <i_6230>:
    800064f0:	ca632893          	slti	a7,t1,-858

00000000800064f4 <i_6231>:
    800064f4:	e9313423          	sd	s3,-376(sp)

00000000800064f8 <i_6232>:
    800064f8:	030f423b          	divw	tp,t5,a6

00000000800064fc <i_6233>:
    800064fc:	ccaa6e17          	auipc	t3,0xccaa6

0000000080006500 <i_6234>:
    80006500:	02c30fbb          	mulw	t6,t1,a2

0000000080006504 <i_6235>:
    80006504:	fc013083          	ld	ra,-64(sp)

0000000080006508 <i_6236>:
    80006508:	00688263          	beq	a7,t1,8000650c <i_6237>

000000008000650c <i_6237>:
    8000650c:	0310d063          	ble	a7,ra,8000652c <i_6245>

0000000080006510 <i_6238>:
    80006510:	00635a63          	ble	t1,t1,80006524 <i_6243>

0000000080006514 <i_6239>:
    80006514:	15111123          	sh	a7,322(sp)

0000000080006518 <i_6240>:
    80006518:	03f0c33b          	divw	t1,ra,t6

000000008000651c <i_6241>:
    8000651c:	023bc063          	blt	s7,gp,8000653c <i_6249>

0000000080006520 <i_6242>:
    80006520:	0a113023          	sd	ra,160(sp)

0000000080006524 <i_6243>:
    80006524:	004b941b          	slliw	s0,s7,0x4

0000000080006528 <i_6244>:
    80006528:	02130063          	beq	t1,ra,80006548 <i_6252>

000000008000652c <i_6245>:
    8000652c:	0260abb3          	mulhsu	s7,ra,t1

0000000080006530 <i_6246>:
    80006530:	e5d10403          	lb	s0,-419(sp)

0000000080006534 <i_6247>:
    80006534:	0b813303          	ld	t1,184(sp)

0000000080006538 <i_6248>:
    80006538:	02845263          	ble	s0,s0,8000655c <i_6257>

000000008000653c <i_6249>:
    8000653c:	03d3463b          	divw	a2,t1,t4

0000000080006540 <i_6250>:
    80006540:	f0013c83          	ld	s9,-256(sp)

0000000080006544 <i_6251>:
    80006544:	01947733          	and	a4,s0,s9

0000000080006548 <i_6252>:
    80006548:	019be263          	bltu	s7,s9,8000654c <i_6253>

000000008000654c <i_6253>:
    8000654c:	fc816703          	lwu	a4,-56(sp)

0000000080006550 <i_6254>:
    80006550:	02200b93          	li	s7,34

0000000080006554 <i_6255>:
    80006554:	01791933          	sll	s2,s2,s7

0000000080006558 <i_6256>:
    80006558:	00000013          	nop

000000008000655c <i_6257>:
    8000655c:	0037159b          	slliw	a1,a4,0x3

0000000080006560 <i_6258>:
    80006560:	e7310403          	lb	s0,-397(sp)

0000000080006564 <i_6259>:
    80006564:	8be00b93          	li	s7,-1858

0000000080006568 <i_6260>:
    80006568:	8cc00713          	li	a4,-1844

000000008000656c <i_6261>:
    8000656c:	fb815e03          	lhu	t3,-72(sp)

0000000080006570 <i_6262>:
    80006570:	037e7c33          	remu	s8,t3,s7

0000000080006574 <i_6263>:
    80006574:	00000013          	nop

0000000080006578 <i_6264>:
    80006578:	e5713823          	sd	s7,-432(sp)

000000008000657c <i_6265>:
    8000657c:	001b8b93          	addi	s7,s7,1 # ccf1b3b1 <_end+0x4cf0af9d>
    80006580:	feeb96e3          	bne	s7,a4,8000656c <i_6261>

0000000080006584 <i_6266>:
    80006584:	02bc6463          	bltu	s8,a1,800065ac <i_6276>

0000000080006588 <i_6267>:
    80006588:	b49bb893          	sltiu	a7,s7,-1207

000000008000658c <i_6268>:
    8000658c:	00189b9b          	slliw	s7,a7,0x1

0000000080006590 <i_6269>:
    80006590:	017c5663          	ble	s7,s8,8000659c <i_6272>

0000000080006594 <i_6270>:
    80006594:	52f8bb93          	sltiu	s7,a7,1327

0000000080006598 <i_6271>:
    80006598:	402bd893          	srai	a7,s7,0x2

000000008000659c <i_6272>:
    8000659c:	4022589b          	sraiw	a7,tp,0x2

00000000800065a0 <i_6273>:
    800065a0:	e6411203          	lh	tp,-412(sp)

00000000800065a4 <i_6274>:
    800065a4:	f6414b83          	lbu	s7,-156(sp)

00000000800065a8 <i_6275>:
    800065a8:	16e11883          	lh	a7,366(sp)

00000000800065ac <i_6276>:
    800065ac:	e5712e23          	sw	s7,-420(sp)

00000000800065b0 <i_6277>:
    800065b0:	63568437          	lui	s0,0x63568

00000000800065b4 <i_6278>:
    800065b4:	01500193          	li	gp,21

00000000800065b8 <i_6279>:
    800065b8:	003458bb          	srlw	a7,s0,gp

00000000800065bc <i_6280>:
    800065bc:	008a4863          	blt	s4,s0,800065cc <i_6284>

00000000800065c0 <i_6281>:
    800065c0:	f5112a23          	sw	a7,-172(sp)

00000000800065c4 <i_6282>:
    800065c4:	f1112423          	sw	a7,-248(sp)

00000000800065c8 <i_6283>:
    800065c8:	0318d263          	ble	a7,a7,800065ec <i_6292>

00000000800065cc <i_6284>:
    800065cc:	01a521b3          	slt	gp,a0,s10

00000000800065d0 <i_6285>:
    800065d0:	031188b3          	mul	a7,gp,a7

00000000800065d4 <i_6286>:
    800065d4:	18c16383          	lwu	t2,396(sp)

00000000800065d8 <i_6287>:
    800065d8:	003880b3          	add	ra,a7,gp

00000000800065dc <i_6288>:
    800065dc:	0181e663          	bltu	gp,s8,800065e8 <i_6291>

00000000800065e0 <i_6289>:
    800065e0:	01b63db3          	sltu	s11,a2,s11

00000000800065e4 <i_6290>:
    800065e4:	eca11603          	lh	a2,-310(sp)

00000000800065e8 <i_6291>:
    800065e8:	02464263          	blt	a2,tp,8000660c <i_6300>

00000000800065ec <i_6292>:
    800065ec:	f0c15783          	lhu	a5,-244(sp)

00000000800065f0 <i_6293>:
    800065f0:	ffb11423          	sh	s11,-24(sp)

00000000800065f4 <i_6294>:
    800065f4:	001ebeb3          	sltu	t4,t4,ra

00000000800065f8 <i_6295>:
    800065f8:	02b00093          	li	ra,43

00000000800065fc <i_6296>:
    800065fc:	0014da33          	srl	s4,s1,ra

0000000080006600 <i_6297>:
    80006600:	0147bfb3          	sltu	t6,a5,s4

0000000080006604 <i_6298>:
    80006604:	00400a13          	li	s4,4

0000000080006608 <i_6299>:
    80006608:	0144d4bb          	srlw	s1,s1,s4

000000008000660c <i_6300>:
    8000660c:	dc24b093          	sltiu	ra,s1,-574

0000000080006610 <i_6301>:
    80006610:	f3f12423          	sw	t6,-216(sp)

0000000080006614 <i_6302>:
    80006614:	0037949b          	slliw	s1,a5,0x3

0000000080006618 <i_6303>:
    80006618:	11412383          	lw	t2,276(sp)

000000008000661c <i_6304>:
    8000661c:	ecf14f03          	lbu	t5,-305(sp)

0000000080006620 <i_6305>:
    80006620:	01340463          	beq	s0,s3,80006628 <i_6307>

0000000080006624 <i_6306>:
    80006624:	66f9c393          	xori	t2,s3,1647

0000000080006628 <i_6307>:
    80006628:	0bb11823          	sh	s11,176(sp)

000000008000662c <i_6308>:
    8000662c:	ea913c23          	sd	s1,-328(sp)

0000000080006630 <i_6309>:
    80006630:	08912823          	sw	s1,144(sp)

0000000080006634 <i_6310>:
    80006634:	16013403          	ld	s0,352(sp)

0000000080006638 <i_6311>:
    80006638:	0089e463          	bltu	s3,s0,80006640 <i_6313>

000000008000663c <i_6312>:
    8000663c:	e9e12c23          	sw	t5,-360(sp)

0000000080006640 <i_6313>:
    80006640:	01e38863          	beq	t2,t5,80006650 <i_6317>

0000000080006644 <i_6314>:
    80006644:	ea9108a3          	sb	s1,-335(sp)

0000000080006648 <i_6315>:
    80006648:	f5011683          	lh	a3,-176(sp)

000000008000664c <i_6316>:
    8000664c:	0f013e83          	ld	t4,240(sp)

0000000080006650 <i_6317>:
    80006650:	13416f83          	lwu	t6,308(sp)

0000000080006654 <i_6318>:
    80006654:	a663e393          	ori	t2,t2,-1434

0000000080006658 <i_6319>:
    80006658:	0083c663          	blt	t2,s0,80006664 <i_6322>

000000008000665c <i_6320>:
    8000665c:	237faf13          	slti	t5,t6,567

0000000080006660 <i_6321>:
    80006660:	007f7463          	bleu	t2,t5,80006668 <i_6323>

0000000080006664 <i_6322>:
    80006664:	ed711923          	sh	s7,-302(sp)

0000000080006668 <i_6323>:
    80006668:	04c12e03          	lw	t3,76(sp)

000000008000666c <i_6324>:
    8000666c:	e9c100a3          	sb	t3,-383(sp)

0000000080006670 <i_6325>:
    80006670:	77a00393          	li	t2,1914

0000000080006674 <i_6326>:
    80006674:	78200693          	li	a3,1922

0000000080006678 <i_6327>:
    80006678:	00000013          	nop

000000008000667c <i_6328>:
    8000667c:	41738f3b          	subw	t5,t2,s7

0000000080006680 <i_6329>:
    80006680:	f3111923          	sh	a7,-206(sp)

0000000080006684 <i_6330>:
    80006684:	11c15883          	lhu	a7,284(sp)

0000000080006688 <i_6331>:
    80006688:	00138393          	addi	t2,t2,1
    8000668c:	fed3c6e3          	blt	t2,a3,80006678 <i_6327>

0000000080006690 <i_6332>:
    80006690:	af9b8e93          	addi	t4,s7,-1287

0000000080006694 <i_6333>:
    80006694:	14813183          	ld	gp,328(sp)

0000000080006698 <i_6334>:
    80006698:	01960cb3          	add	s9,a2,s9

000000008000669c <i_6335>:
    8000669c:	e3013483          	ld	s1,-464(sp)

00000000800066a0 <i_6336>:
    800066a0:	e6c12683          	lw	a3,-404(sp)

00000000800066a4 <i_6337>:
    800066a4:	eaa12623          	sw	a0,-340(sp)

00000000800066a8 <i_6338>:
    800066a8:	f7812483          	lw	s1,-136(sp)

00000000800066ac <i_6339>:
    800066ac:	417e02b3          	sub	t0,t3,s7

00000000800066b0 <i_6340>:
    800066b0:	ff816503          	lwu	a0,-8(sp)

00000000800066b4 <i_6341>:
    800066b4:	e7411d03          	lh	s10,-396(sp)

00000000800066b8 <i_6342>:
    800066b8:	039b8063          	beq	s7,s9,800066d8 <i_6350>

00000000800066bc <i_6343>:
    800066bc:	0e816d03          	lwu	s10,232(sp)

00000000800066c0 <i_6344>:
    800066c0:	011e9e63          	bne	t4,a7,800066dc <i_6351>

00000000800066c4 <i_6345>:
    800066c4:	00ae4c63          	blt	t3,a0,800066dc <i_6351>

00000000800066c8 <i_6346>:
    800066c8:	42ed2e93          	slti	t4,s10,1070

00000000800066cc <i_6347>:
    800066cc:	f7812603          	lw	a2,-136(sp)

00000000800066d0 <i_6348>:
    800066d0:	03aec463          	blt	t4,s10,800066f8 <i_6358>

00000000800066d4 <i_6349>:
    800066d4:	40265d13          	srai	s10,a2,0x2

00000000800066d8 <i_6350>:
    800066d8:	1a610d03          	lb	s10,422(sp)

00000000800066dc <i_6351>:
    800066dc:	ffa10723          	sb	s10,-18(sp)

00000000800066e0 <i_6352>:
    800066e0:	03214603          	lbu	a2,50(sp)

00000000800066e4 <i_6353>:
    800066e4:	01ad3633          	sltu	a2,s10,s10

00000000800066e8 <i_6354>:
    800066e8:	008ea3b3          	slt	t2,t4,s0

00000000800066ec <i_6355>:
    800066ec:	ef813483          	ld	s1,-264(sp)

00000000800066f0 <i_6356>:
    800066f0:	01a3bfb3          	sltu	t6,t2,s10

00000000800066f4 <i_6357>:
    800066f4:	402f8d3b          	subw	s10,t6,sp

00000000800066f8 <i_6358>:
    800066f8:	f4e15083          	lhu	ra,-178(sp)

00000000800066fc <i_6359>:
    800066fc:	02ced63b          	divuw	a2,t4,a2

0000000080006700 <i_6360>:
    80006700:	03ff1d33          	mulh	s10,t5,t6

0000000080006704 <i_6361>:
    80006704:	9413b613          	sltiu	a2,t2,-1727

0000000080006708 <i_6362>:
    80006708:	1c1107a3          	sb	ra,463(sp)

000000008000670c <i_6363>:
    8000670c:	fef13c23          	sd	a5,-8(sp)

0000000080006710 <i_6364>:
    80006710:	029e8063          	beq	t4,s1,80006730 <i_6372>

0000000080006714 <i_6365>:
    80006714:	03a46ebb          	remw	t4,s0,s10

0000000080006718 <i_6366>:
    80006718:	01a67463          	bleu	s10,a2,80006720 <i_6368>

000000008000671c <i_6367>:
    8000671c:	03f3a233          	mulhsu	tp,t2,t6

0000000080006720 <i_6368>:
    80006720:	f8016f83          	lwu	t6,-128(sp)

0000000080006724 <i_6369>:
    80006724:	0019fe63          	bleu	ra,s3,80006740 <i_6376>

0000000080006728 <i_6370>:
    80006728:	a3f46e93          	ori	t4,s0,-1473

000000008000672c <i_6371>:
    8000672c:	01a3cc63          	blt	t2,s10,80006744 <i_6377>

0000000080006730 <i_6372>:
    80006730:	0b714383          	lbu	t2,183(sp)

0000000080006734 <i_6373>:
    80006734:	f8710e83          	lb	t4,-121(sp)

0000000080006738 <i_6374>:
    80006738:	004dc263          	blt	s11,tp,8000673c <i_6375>

000000008000673c <i_6375>:
    8000673c:	0f510d23          	sb	s5,250(sp)

0000000080006740 <i_6376>:
    80006740:	e7014d83          	lbu	s11,-400(sp)

0000000080006744 <i_6377>:
    80006744:	16813483          	ld	s1,360(sp)

0000000080006748 <i_6378>:
    80006748:	0e416e83          	lwu	t4,228(sp)

000000008000674c <i_6379>:
    8000674c:	00800713          	li	a4,8

0000000080006750 <i_6380>:
    80006750:	40eeddb3          	sra	s11,t4,a4

0000000080006754 <i_6381>:
    80006754:	001e971b          	slliw	a4,t4,0x1

0000000080006758 <i_6382>:
    80006758:	03be8263          	beq	t4,s11,8000677c <i_6391>

000000008000675c <i_6383>:
    8000675c:	03bedebb          	divuw	t4,t4,s11

0000000080006760 <i_6384>:
    80006760:	19215e83          	lhu	t4,402(sp)

0000000080006764 <i_6385>:
    80006764:	ef012023          	sw	a6,-288(sp)

0000000080006768 <i_6386>:
    80006768:	00c00613          	li	a2,12

000000008000676c <i_6387>:
    8000676c:	40cb5db3          	sra	s11,s6,a2

0000000080006770 <i_6388>:
    80006770:	14012503          	lw	a0,320(sp)

0000000080006774 <i_6389>:
    80006774:	e5d104a3          	sb	t4,-439(sp)

0000000080006778 <i_6390>:
    80006778:	03b75dbb          	divuw	s11,a4,s11

000000008000677c <i_6391>:
    8000677c:	03d67eb3          	remu	t4,a2,t4

0000000080006780 <i_6392>:
    80006780:	02aef063          	bleu	a0,t4,800067a0 <i_6400>

0000000080006784 <i_6393>:
    80006784:	0aa13c23          	sd	a0,184(sp)

0000000080006788 <i_6394>:
    80006788:	1a110083          	lb	ra,417(sp)

000000008000678c <i_6395>:
    8000678c:	07d11323          	sh	t4,102(sp)

0000000080006790 <i_6396>:
    80006790:	03d0e533          	rem	a0,ra,t4

0000000080006794 <i_6397>:
    80006794:	02909063          	bne	ra,s1,800067b4 <i_6405>

0000000080006798 <i_6398>:
    80006798:	00a50a63          	beq	a0,a0,800067ac <i_6403>

000000008000679c <i_6399>:
    8000679c:	01dee863          	bltu	t4,t4,800067ac <i_6403>

00000000800067a0 <i_6400>:
    800067a0:	ff94a493          	slti	s1,s1,-7

00000000800067a4 <i_6401>:
    800067a4:	f6110723          	sb	ra,-146(sp)

00000000800067a8 <i_6402>:
    800067a8:	10c12c83          	lw	s9,268(sp)

00000000800067ac <i_6403>:
    800067ac:	0f514683          	lbu	a3,245(sp)

00000000800067b0 <i_6404>:
    800067b0:	0156f6b3          	and	a3,a3,s5

00000000800067b4 <i_6405>:
    800067b4:	0c8105a3          	sb	s0,203(sp)

00000000800067b8 <i_6406>:
    800067b8:	00d15e63          	ble	a3,sp,800067d4 <i_6413>

00000000800067bc <i_6407>:
    800067bc:	0149e663          	bltu	s3,s4,800067c8 <i_6410>

00000000800067c0 <i_6408>:
    800067c0:	00ace863          	bltu	s9,a0,800067d0 <i_6412>

00000000800067c4 <i_6409>:
    800067c4:	0315d063          	ble	a7,a1,800067e4 <i_6417>

00000000800067c8 <i_6410>:
    800067c8:	001e3633          	sltu	a2,t3,ra

00000000800067cc <i_6411>:
    800067cc:	00e64c33          	xor	s8,a2,a4

00000000800067d0 <i_6412>:
    800067d0:	1bf12623          	sw	t6,428(sp)

00000000800067d4 <i_6413>:
    800067d4:	b71f3b93          	sltiu	s7,t5,-1167

00000000800067d8 <i_6414>:
    800067d8:	f4010583          	lb	a1,-192(sp)

00000000800067dc <i_6415>:
    800067dc:	00000013          	nop

00000000800067e0 <i_6416>:
    800067e0:	00100493          	li	s1,1

00000000800067e4 <i_6417>:
    800067e4:	00909933          	sll	s2,ra,s1

00000000800067e8 <i_6418>:
    800067e8:	03ea753b          	remuw	a0,s4,t5

00000000800067ec <i_6419>:
    800067ec:	7b700f13          	li	t5,1975

00000000800067f0 <i_6420>:
    800067f0:	7c800f93          	li	t6,1992

00000000800067f4 <i_6421>:
    800067f4:	f345849b          	addiw	s1,a1,-204

00000000800067f8 <i_6422>:
    800067f8:	0295e063          	bltu	a1,s1,80006818 <i_6429>

00000000800067fc <i_6423>:
    800067fc:	001f0f13          	addi	t5,t5,1
    80006800:	ffff6ae3          	bltu	t5,t6,800067f4 <i_6421>

0000000080006804 <i_6424>:
    80006804:	ee414e03          	lbu	t3,-284(sp)

0000000080006808 <i_6425>:
    80006808:	03f10fa3          	sb	t6,63(sp)

000000008000680c <i_6426>:
    8000680c:	032e5933          	divu	s2,t3,s2

0000000080006810 <i_6427>:
    80006810:	03c5593b          	divuw	s2,a0,t3

0000000080006814 <i_6428>:
    80006814:	012e0863          	beq	t3,s2,80006824 <i_6432>

0000000080006818 <i_6429>:
    80006818:	bea7b913          	sltiu	s2,a5,-1046

000000008000681c <i_6430>:
    8000681c:	01f00793          	li	a5,31

0000000080006820 <i_6431>:
    80006820:	00f51233          	sll	tp,a0,a5

0000000080006824 <i_6432>:
    80006824:	00000013          	nop

0000000080006828 <i_6433>:
    80006828:	00000013          	nop

000000008000682c <i_6434>:
    8000682c:	89700e13          	li	t3,-1897

0000000080006830 <i_6435>:
    80006830:	8a800513          	li	a0,-1880

0000000080006834 <i_6436>:
    80006834:	11015783          	lhu	a5,272(sp)

0000000080006838 <i_6437>:
    80006838:	f6e15603          	lhu	a2,-146(sp)

000000008000683c <i_6438>:
    8000683c:	76a00213          	li	tp,1898

0000000080006840 <i_6439>:
    80006840:	77b00a93          	li	s5,1915

0000000080006844 <i_6440>:
    80006844:	ec010383          	lb	t2,-320(sp)

0000000080006848 <i_6441>:
    80006848:	00f21263          	bne	tp,a5,8000684c <i_6442>

000000008000684c <i_6442>:
    8000684c:	00000013          	nop

0000000080006850 <i_6443>:
    80006850:	40325793          	srai	a5,tp,0x3

0000000080006854 <i_6444>:
    80006854:	00000013          	nop

0000000080006858 <i_6445>:
    80006858:	14c13823          	sd	a2,336(sp)

000000008000685c <i_6446>:
    8000685c:	01a00393          	li	t2,26

0000000080006860 <i_6447>:
    80006860:	0076563b          	srlw	a2,a2,t2

0000000080006864 <i_6448>:
    80006864:	00120213          	addi	tp,tp,1 # ffffffffb4363001 <_end+0xffffffff34352bed>
    80006868:	fd526ee3          	bltu	tp,s5,80006844 <i_6440>

000000008000686c <i_6449>:
    8000686c:	001e0e13          	addi	t3,t3,1 # 4caac4fd <main-0x33553b03>
    80006870:	fdc552e3          	ble	t3,a0,80006834 <i_6436>

0000000080006874 <i_6450>:
    80006874:	0e612a23          	sw	t1,244(sp)

0000000080006878 <i_6451>:
    80006878:	0e710ea3          	sb	t2,253(sp)

000000008000687c <i_6452>:
    8000687c:	00c10923          	sb	a2,18(sp)

0000000080006880 <i_6453>:
    80006880:	e2712023          	sw	t2,-480(sp)

0000000080006884 <i_6454>:
    80006884:	fc812403          	lw	s0,-56(sp)

0000000080006888 <i_6455>:
    80006888:	02c25263          	ble	a2,tp,800068ac <i_6464>

000000008000688c <i_6456>:
    8000688c:	01823c33          	sltu	s8,tp,s8

0000000080006890 <i_6457>:
    80006890:	007a3a33          	sltu	s4,s4,t2

0000000080006894 <i_6458>:
    80006894:	0047fc33          	and	s8,a5,tp

0000000080006898 <i_6459>:
    80006898:	01426863          	bltu	tp,s4,800068a8 <i_6463>

000000008000689c <i_6460>:
    8000689c:	70641a17          	auipc	s4,0x70641

00000000800068a0 <i_6461>:
    800068a0:	034a5463          	ble	s4,s4,800068c8 <i_6471>

00000000800068a4 <i_6462>:
    800068a4:	00f67e63          	bleu	a5,a2,800068c0 <i_6469>

00000000800068a8 <i_6463>:
    800068a8:	011c4633          	xor	a2,s8,a7

00000000800068ac <i_6464>:
    800068ac:	03165633          	divu	a2,a2,a7

00000000800068b0 <i_6465>:
    800068b0:	01820e63          	beq	tp,s8,800068cc <i_6472>

00000000800068b4 <i_6466>:
    800068b4:	1e412a03          	lw	s4,484(sp)

00000000800068b8 <i_6467>:
    800068b8:	01811423          	sh	s8,8(sp)

00000000800068bc <i_6468>:
    800068bc:	01813823          	sd	s8,16(sp)

00000000800068c0 <i_6469>:
    800068c0:	00c00e93          	li	t4,12

00000000800068c4 <i_6470>:
    800068c4:	01dc5ebb          	srlw	t4,s8,t4

00000000800068c8 <i_6471>:
    800068c8:	00ca5e63          	ble	a2,s4,800068e4 <i_6478>

00000000800068cc <i_6472>:
    800068cc:	03d2c263          	blt	t0,t4,800068f0 <i_6481>

00000000800068d0 <i_6473>:
    800068d0:	03813823          	sd	s8,48(sp)

00000000800068d4 <i_6474>:
    800068d4:	efc15603          	lhu	a2,-260(sp)

00000000800068d8 <i_6475>:
    800068d8:	07412a03          	lw	s4,116(sp)

00000000800068dc <i_6476>:
    800068dc:	fdd10603          	lb	a2,-35(sp)

00000000800068e0 <i_6477>:
    800068e0:	14214803          	lbu	a6,322(sp)

00000000800068e4 <i_6478>:
    800068e4:	f8c11f23          	sh	a2,-98(sp)

00000000800068e8 <i_6479>:
    800068e8:	02ca4063          	blt	s4,a2,80006908 <i_6487>

00000000800068ec <i_6480>:
    800068ec:	010c6eb3          	or	t4,s8,a6

00000000800068f0 <i_6481>:
    800068f0:	e6310583          	lb	a1,-413(sp)

00000000800068f4 <i_6482>:
    800068f4:	19d13423          	sd	t4,392(sp)

00000000800068f8 <i_6483>:
    800068f8:	26360a13          	addi	s4,a2,611 # 42f2f65b <main-0x3d0d09a5>

00000000800068fc <i_6484>:
    800068fc:	01461263          	bne	a2,s4,80006900 <i_6485>

0000000080006900 <i_6485>:
    80006900:	019bce63          	blt	s7,s9,8000691c <i_6492>

0000000080006904 <i_6486>:
    80006904:	02ba7a33          	remu	s4,s4,a1

0000000080006908 <i_6487>:
    80006908:	0010fa63          	bleu	ra,ra,8000691c <i_6492>

000000008000690c <i_6488>:
    8000690c:	16f94913          	xori	s2,s2,367

0000000080006910 <i_6489>:
    80006910:	0122f933          	and	s2,t0,s2

0000000080006914 <i_6490>:
    80006914:	01610383          	lb	t2,22(sp)

0000000080006918 <i_6491>:
    80006918:	025936b3          	mulhu	a3,s2,t0

000000008000691c <i_6492>:
    8000691c:	005962b3          	or	t0,s2,t0

0000000080006920 <i_6493>:
    80006920:	bc92c293          	xori	t0,t0,-1079

0000000080006924 <i_6494>:
    80006924:	0056ca63          	blt	a3,t0,80006938 <i_6499>

0000000080006928 <i_6495>:
    80006928:	01b69e63          	bne	a3,s11,80006944 <i_6502>

000000008000692c <i_6496>:
    8000692c:	0052f263          	bleu	t0,t0,80006930 <i_6497>

0000000080006930 <i_6497>:
    80006930:	ff812983          	lw	s3,-8(sp)

0000000080006934 <i_6498>:
    80006934:	f3910983          	lb	s3,-199(sp)

0000000080006938 <i_6499>:
    80006938:	12016283          	lwu	t0,288(sp)

000000008000693c <i_6500>:
    8000693c:	08013c03          	ld	s8,128(sp)

0000000080006940 <i_6501>:
    80006940:	02deec3b          	remw	s8,t4,a3

0000000080006944 <i_6502>:
    80006944:	01868a63          	beq	a3,s8,80006958 <i_6507>

0000000080006948 <i_6503>:
    80006948:	eec16383          	lwu	t2,-276(sp)

000000008000694c <i_6504>:
    8000694c:	f2815683          	lhu	a3,-216(sp)

0000000080006950 <i_6505>:
    80006950:	004ddd9b          	srliw	s11,s11,0x4

0000000080006954 <i_6506>:
    80006954:	0073ec63          	bltu	t2,t2,8000696c <i_6512>

0000000080006958 <i_6507>:
    80006958:	fd412e83          	lw	t4,-44(sp)

000000008000695c <i_6508>:
    8000695c:	00d59c63          	bne	a1,a3,80006974 <i_6514>

0000000080006960 <i_6509>:
    80006960:	03de8263          	beq	t4,t4,80006984 <i_6518>

0000000080006964 <i_6510>:
    80006964:	7256eb93          	ori	s7,a3,1829

0000000080006968 <i_6511>:
    80006968:	ef012e03          	lw	t3,-272(sp)

000000008000696c <i_6512>:
    8000696c:	14a10a83          	lb	s5,330(sp)

0000000080006970 <i_6513>:
    80006970:	01412383          	lw	t2,20(sp)

0000000080006974 <i_6514>:
    80006974:	0153ce63          	blt	t2,s5,80006990 <i_6521>

0000000080006978 <i_6515>:
    80006978:	13012f03          	lw	t5,304(sp)

000000008000697c <i_6516>:
    8000697c:	f90103a3          	sb	a6,-121(sp)

0000000080006980 <i_6517>:
    80006980:	c529e693          	ori	a3,s3,-942

0000000080006984 <i_6518>:
    80006984:	03081833          	mulh	a6,a6,a6

0000000080006988 <i_6519>:
    80006988:	10816603          	lwu	a2,264(sp)

000000008000698c <i_6520>:
    8000698c:	03ef48b3          	div	a7,t5,t5

0000000080006990 <i_6521>:
    80006990:	41d80733          	sub	a4,a6,t4

0000000080006994 <i_6522>:
    80006994:	1dc16583          	lwu	a1,476(sp)

0000000080006998 <i_6523>:
    80006998:	02f8db3b          	divuw	s6,a7,a5

000000008000699c <i_6524>:
    8000699c:	02bf0433          	mul	s0,t5,a1

00000000800069a0 <i_6525>:
    800069a0:	4046d59b          	sraiw	a1,a3,0x4

00000000800069a4 <i_6526>:
    800069a4:	012467b3          	or	a5,s0,s2

00000000800069a8 <i_6527>:
    800069a8:	01e5c663          	blt	a1,t5,800069b4 <i_6530>

00000000800069ac <i_6528>:
    800069ac:	02b7ff33          	remu	t5,a5,a1

00000000800069b0 <i_6529>:
    800069b0:	1af10323          	sb	a5,422(sp)

00000000800069b4 <i_6530>:
    800069b4:	16f12823          	sw	a5,368(sp)

00000000800069b8 <i_6531>:
    800069b8:	00000013          	nop

00000000800069bc <i_6532>:
    800069bc:	00000013          	nop

00000000800069c0 <i_6533>:
    800069c0:	80600b93          	li	s7,-2042

00000000800069c4 <i_6534>:
    800069c4:	80f00913          	li	s2,-2033

00000000800069c8 <i_6535>:
    800069c8:	a0878613          	addi	a2,a5,-1528

00000000800069cc <i_6536>:
    800069cc:	00261413          	slli	s0,a2,0x2

00000000800069d0 <i_6537>:
    800069d0:	8c500793          	li	a5,-1851

00000000800069d4 <i_6538>:
    800069d4:	8d100593          	li	a1,-1839

00000000800069d8 <i_6539>:
    800069d8:	11e15403          	lhu	s0,286(sp)

00000000800069dc <i_6540>:
    800069dc:	00178793          	addi	a5,a5,1
    800069e0:	fef5fce3          	bleu	a5,a1,800069d8 <i_6539>

00000000800069e4 <i_6541>:
    800069e4:	00000013          	nop

00000000800069e8 <i_6542>:
    800069e8:	02f9f9b3          	remu	s3,s3,a5

00000000800069ec <i_6543>:
    800069ec:	f2f11323          	sh	a5,-218(sp)

00000000800069f0 <i_6544>:
    800069f0:	40245b13          	srai	s6,s0,0x2

00000000800069f4 <i_6545>:
    800069f4:	11a12423          	sw	s10,264(sp)

00000000800069f8 <i_6546>:
    800069f8:	0327e43b          	remw	s0,a5,s2

00000000800069fc <i_6547>:
    800069fc:	fc016e03          	lwu	t3,-64(sp)

0000000080006a00 <i_6548>:
    80006a00:	e9815783          	lhu	a5,-360(sp)

0000000080006a04 <i_6549>:
    80006a04:	001b8b93          	addi	s7,s7,1
    80006a08:	fd2b90e3          	bne	s7,s2,800069c8 <i_6535>

0000000080006a0c <i_6550>:
    80006a0c:	93d98c1b          	addiw	s8,s3,-1731

0000000080006a10 <i_6551>:
    80006a10:	07c13823          	sd	t3,112(sp)

0000000080006a14 <i_6552>:
    80006a14:	fd211d03          	lh	s10,-46(sp)

0000000080006a18 <i_6553>:
    80006a18:	ee410603          	lb	a2,-284(sp)

0000000080006a1c <i_6554>:
    80006a1c:	03016e03          	lwu	t3,48(sp)

0000000080006a20 <i_6555>:
    80006a20:	86e00a93          	li	s5,-1938

0000000080006a24 <i_6556>:
    80006a24:	88200d13          	li	s10,-1918

0000000080006a28 <i_6557>:
    80006a28:	002c171b          	slliw	a4,s8,0x2

0000000080006a2c <i_6558>:
    80006a2c:	e4411183          	lh	gp,-444(sp)

0000000080006a30 <i_6559>:
    80006a30:	00ec1463          	bne	s8,a4,80006a38 <i_6561>

0000000080006a34 <i_6560>:
    80006a34:	08611e03          	lh	t3,134(sp)

0000000080006a38 <i_6561>:
    80006a38:	01caa0b3          	slt	ra,s5,t3

0000000080006a3c <i_6562>:
    80006a3c:	ed614e03          	lbu	t3,-298(sp)

0000000080006a40 <i_6563>:
    80006a40:	03c0c7b3          	div	a5,ra,t3

0000000080006a44 <i_6564>:
    80006a44:	00000013          	nop

0000000080006a48 <i_6565>:
    80006a48:	f6f11123          	sh	a5,-158(sp)

0000000080006a4c <i_6566>:
    80006a4c:	e8113023          	sd	ra,-384(sp)

0000000080006a50 <i_6567>:
    80006a50:	e9016503          	lwu	a0,-368(sp)

0000000080006a54 <i_6568>:
    80006a54:	0b013783          	ld	a5,176(sp)

0000000080006a58 <i_6569>:
    80006a58:	02598263          	beq	s3,t0,80006a7c <i_6577>

0000000080006a5c <i_6570>:
    80006a5c:	001a8a93          	addi	s5,s5,1
    80006a60:	fdaae4e3          	bltu	s5,s10,80006a28 <i_6557>

0000000080006a64 <i_6571>:
    80006a64:	fbd10303          	lb	t1,-67(sp)

0000000080006a68 <i_6572>:
    80006a68:	006377b3          	and	a5,t1,t1

0000000080006a6c <i_6573>:
    80006a6c:	025bdbb3          	divu	s7,s7,t0

0000000080006a70 <i_6574>:
    80006a70:	00000013          	nop

0000000080006a74 <i_6575>:
    80006a74:	00500d13          	li	s10,5

0000000080006a78 <i_6576>:
    80006a78:	01ac1bb3          	sll	s7,s8,s10

0000000080006a7c <i_6577>:
    80006a7c:	00000013          	nop

0000000080006a80 <i_6578>:
    80006a80:	01ac3c33          	sltu	s8,s8,s10

0000000080006a84 <i_6579>:
    80006a84:	79200293          	li	t0,1938

0000000080006a88 <i_6580>:
    80006a88:	79900d93          	li	s11,1945

0000000080006a8c <i_6581>:
    80006a8c:	f8015903          	lhu	s2,-128(sp)

0000000080006a90 <i_6582>:
    80006a90:	00f96fb3          	or	t6,s2,a5

0000000080006a94 <i_6583>:
    80006a94:	e5a12e23          	sw	s10,-420(sp)

0000000080006a98 <i_6584>:
    80006a98:	01f66463          	bltu	a2,t6,80006aa0 <i_6586>

0000000080006a9c <i_6585>:
    80006a9c:	00c00f93          	li	t6,12

0000000080006aa0 <i_6586>:
    80006aa0:	01f3183b          	sllw	a6,t1,t6

0000000080006aa4 <i_6587>:
    80006aa4:	f1f13c23          	sd	t6,-232(sp)

0000000080006aa8 <i_6588>:
    80006aa8:	fac12a03          	lw	s4,-84(sp)

0000000080006aac <i_6589>:
    80006aac:	fb586c13          	ori	s8,a6,-75

0000000080006ab0 <i_6590>:
    80006ab0:	00000013          	nop

0000000080006ab4 <i_6591>:
    80006ab4:	1ba101a3          	sb	s10,419(sp)

0000000080006ab8 <i_6592>:
    80006ab8:	00128293          	addi	t0,t0,1
    80006abc:	fc5dd8e3          	ble	t0,s11,80006a8c <i_6581>

0000000080006ac0 <i_6593>:
    80006ac0:	038c0333          	mul	t1,s8,s8

0000000080006ac4 <i_6594>:
    80006ac4:	00000013          	nop

0000000080006ac8 <i_6595>:
    80006ac8:	04012583          	lw	a1,64(sp)

0000000080006acc <i_6596>:
    80006acc:	74300c13          	li	s8,1859

0000000080006ad0 <i_6597>:
    80006ad0:	75500313          	li	t1,1877

0000000080006ad4 <i_6598>:
    80006ad4:	00000013          	nop

0000000080006ad8 <i_6599>:
    80006ad8:	001c0c13          	addi	s8,s8,1
    80006adc:	fe6c6ce3          	bltu	s8,t1,80006ad4 <i_6598>

0000000080006ae0 <i_6600>:
    80006ae0:	e7215583          	lhu	a1,-398(sp)

0000000080006ae4 <i_6601>:
    80006ae4:	d3558193          	addi	gp,a1,-715

0000000080006ae8 <i_6602>:
    80006ae8:	00ba8263          	beq	s5,a1,80006aec <i_6603>

0000000080006aec <i_6603>:
    80006aec:	00b0f263          	bleu	a1,ra,80006af0 <i_6604>

0000000080006af0 <i_6604>:
    80006af0:	0021d59b          	srliw	a1,gp,0x2

0000000080006af4 <i_6605>:
    80006af4:	02358fb3          	mul	t6,a1,gp

0000000080006af8 <i_6606>:
    80006af8:	60f1e593          	ori	a1,gp,1551

0000000080006afc <i_6607>:
    80006afc:	0075bfb3          	sltu	t6,a1,t2

0000000080006b00 <i_6608>:
    80006b00:	01f5fc63          	bleu	t6,a1,80006b18 <i_6614>

0000000080006b04 <i_6609>:
    80006b04:	f0311c23          	sh	gp,-232(sp)

0000000080006b08 <i_6610>:
    80006b08:	ee012583          	lw	a1,-288(sp)

0000000080006b0c <i_6611>:
    80006b0c:	02168463          	beq	a3,ra,80006b34 <i_6621>

0000000080006b10 <i_6612>:
    80006b10:	08012183          	lw	gp,128(sp)

0000000080006b14 <i_6613>:
    80006b14:	0121ee63          	bltu	gp,s2,80006b30 <i_6620>

0000000080006b18 <i_6614>:
    80006b18:	e7f11323          	sh	t6,-410(sp)

0000000080006b1c <i_6615>:
    80006b1c:	024f8263          	beq	t6,tp,80006b40 <i_6624>

0000000080006b20 <i_6616>:
    80006b20:	e2a14583          	lbu	a1,-470(sp)

0000000080006b24 <i_6617>:
    80006b24:	01fada63          	ble	t6,s5,80006b38 <i_6622>

0000000080006b28 <i_6618>:
    80006b28:	17a10423          	sb	s10,360(sp)

0000000080006b2c <i_6619>:
    80006b2c:	e8413023          	sd	tp,-384(sp)

0000000080006b30 <i_6620>:
    80006b30:	04e15283          	lhu	t0,78(sp)

0000000080006b34 <i_6621>:
    80006b34:	00d5ed33          	or	s10,a1,a3

0000000080006b38 <i_6622>:
    80006b38:	1b310183          	lb	gp,435(sp)

0000000080006b3c <i_6623>:
    80006b3c:	01f00713          	li	a4,31

0000000080006b40 <i_6624>:
    80006b40:	00e1d5bb          	srlw	a1,gp,a4

0000000080006b44 <i_6625>:
    80006b44:	18e12423          	sw	a4,392(sp)

0000000080006b48 <i_6626>:
    80006b48:	74d00693          	li	a3,1869

0000000080006b4c <i_6627>:
    80006b4c:	75500a93          	li	s5,1877

0000000080006b50 <i_6628>:
    80006b50:	02efd1b3          	divu	gp,t6,a4

0000000080006b54 <i_6629>:
    80006b54:	00000013          	nop

0000000080006b58 <i_6630>:
    80006b58:	00000013          	nop

0000000080006b5c <i_6631>:
    80006b5c:	00000013          	nop

0000000080006b60 <i_6632>:
    80006b60:	1c813903          	ld	s2,456(sp)

0000000080006b64 <i_6633>:
    80006b64:	03500c93          	li	s9,53

0000000080006b68 <i_6634>:
    80006b68:	01995733          	srl	a4,s2,s9

0000000080006b6c <i_6635>:
    80006b6c:	02e7f5bb          	remuw	a1,a5,a4

0000000080006b70 <i_6636>:
    80006b70:	00ccfe63          	bleu	a2,s9,80006b8c <i_6642>

0000000080006b74 <i_6637>:
    80006b74:	fab11b23          	sh	a1,-74(sp)

0000000080006b78 <i_6638>:
    80006b78:	00168693          	addi	a3,a3,1
    80006b7c:	fd56eae3          	bltu	a3,s5,80006b50 <i_6628>

0000000080006b80 <i_6639>:
    80006b80:	032cccbb          	divw	s9,s9,s2

0000000080006b84 <i_6640>:
    80006b84:	e7a11c83          	lh	s9,-390(sp)

0000000080006b88 <i_6641>:
    80006b88:	00e09663          	bne	ra,a4,80006b94 <i_6644>

0000000080006b8c <i_6642>:
    80006b8c:	0b2fdcb7          	lui	s9,0xb2fd

0000000080006b90 <i_6643>:
    80006b90:	0397793b          	remuw	s2,a4,s9

0000000080006b94 <i_6644>:
    80006b94:	17816083          	lwu	ra,376(sp)

0000000080006b98 <i_6645>:
    80006b98:	039c82bb          	mulw	t0,s9,s9

0000000080006b9c <i_6646>:
    80006b9c:	1b2103a3          	sb	s2,423(sp)

0000000080006ba0 <i_6647>:
    80006ba0:	03276063          	bltu	a4,s2,80006bc0 <i_6655>

0000000080006ba4 <i_6648>:
    80006ba4:	0012dc63          	ble	ra,t0,80006bbc <i_6654>

0000000080006ba8 <i_6649>:
    80006ba8:	0018c8b3          	xor	a7,a7,ra

0000000080006bac <i_6650>:
    80006bac:	1e310803          	lb	a6,483(sp)

0000000080006bb0 <i_6651>:
    80006bb0:	0f010223          	sb	a6,228(sp)

0000000080006bb4 <i_6652>:
    80006bb4:	2a1c4813          	xori	a6,s8,673

0000000080006bb8 <i_6653>:
    80006bb8:	f9014e03          	lbu	t3,-112(sp)

0000000080006bbc <i_6654>:
    80006bbc:	03a878bb          	remuw	a7,a6,s10

0000000080006bc0 <i_6655>:
    80006bc0:	02291263          	bne	s2,sp,80006be4 <i_6664>

0000000080006bc4 <i_6656>:
    80006bc4:	ffc11923          	sh	t3,-14(sp)

0000000080006bc8 <i_6657>:
    80006bc8:	0072aeb3          	slt	t4,t0,t2

0000000080006bcc <i_6658>:
    80006bcc:	1b6e6513          	ori	a0,t3,438

0000000080006bd0 <i_6659>:
    80006bd0:	0098e4b3          	or	s1,a7,s1

0000000080006bd4 <i_6660>:
    80006bd4:	e3816f83          	lwu	t6,-456(sp)

0000000080006bd8 <i_6661>:
    80006bd8:	254f8d1b          	addiw	s10,t6,596

0000000080006bdc <i_6662>:
    80006bdc:	e7e15883          	lhu	a7,-386(sp)

0000000080006be0 <i_6663>:
    80006be0:	ff210f83          	lb	t6,-14(sp)

0000000080006be4 <i_6664>:
    80006be4:	f2c12a03          	lw	s4,-212(sp)

0000000080006be8 <i_6665>:
    80006be8:	001fda1b          	srliw	s4,t6,0x1

0000000080006bec <i_6666>:
    80006bec:	001bdb93          	srli	s7,s7,0x1

0000000080006bf0 <i_6667>:
    80006bf0:	03314b83          	lbu	s7,51(sp)

0000000080006bf4 <i_6668>:
    80006bf4:	0c011283          	lh	t0,192(sp)

0000000080006bf8 <i_6669>:
    80006bf8:	e9e14a83          	lbu	s5,-354(sp)

0000000080006bfc <i_6670>:
    80006bfc:	034b9463          	bne	s7,s4,80006c24 <i_6680>

0000000080006c00 <i_6671>:
    80006c00:	0cc10603          	lb	a2,204(sp)

0000000080006c04 <i_6672>:
    80006c04:	026bd333          	divu	t1,s7,t1

0000000080006c08 <i_6673>:
    80006c08:	1a615b03          	lhu	s6,422(sp)

0000000080006c0c <i_6674>:
    80006c0c:	00291913          	slli	s2,s2,0x2

0000000080006c10 <i_6675>:
    80006c10:	004b9913          	slli	s2,s7,0x4

0000000080006c14 <i_6676>:
    80006c14:	00300213          	li	tp,3

0000000080006c18 <i_6677>:
    80006c18:	00429b3b          	sllw	s6,t0,tp

0000000080006c1c <i_6678>:
    80006c1c:	032e4933          	div	s2,t3,s2

0000000080006c20 <i_6679>:
    80006c20:	00000013          	nop

0000000080006c24 <i_6680>:
    80006c24:	09c10e03          	lb	t3,156(sp)

0000000080006c28 <i_6681>:
    80006c28:	11412903          	lw	s2,276(sp)

0000000080006c2c <i_6682>:
    80006c2c:	74b00293          	li	t0,1867

0000000080006c30 <i_6683>:
    80006c30:	75400b93          	li	s7,1876

0000000080006c34 <i_6684>:
    80006c34:	00000013          	nop

0000000080006c38 <i_6685>:
    80006c38:	00000013          	nop

0000000080006c3c <i_6686>:
    80006c3c:	83f00a93          	li	s5,-1985

0000000080006c40 <i_6687>:
    80006c40:	84500493          	li	s1,-1979

0000000080006c44 <i_6688>:
    80006c44:	f6410323          	sb	tp,-154(sp)

0000000080006c48 <i_6689>:
    80006c48:	001a8a93          	addi	s5,s5,1
    80006c4c:	fe9a9ce3          	bne	s5,s1,80006c44 <i_6688>

0000000080006c50 <i_6690>:
    80006c50:	09813903          	ld	s2,152(sp)

0000000080006c54 <i_6691>:
    80006c54:	00128293          	addi	t0,t0,1
    80006c58:	fd72cee3          	blt	t0,s7,80006c34 <i_6684>

0000000080006c5c <i_6692>:
    80006c5c:	07c11423          	sh	t3,104(sp)

0000000080006c60 <i_6693>:
    80006c60:	03ce2e33          	mulhsu	t3,t3,t3

0000000080006c64 <i_6694>:
    80006c64:	17c10223          	sb	t3,356(sp)

0000000080006c68 <i_6695>:
    80006c68:	008888b3          	add	a7,a7,s0

0000000080006c6c <i_6696>:
    80006c6c:	00000013          	nop

0000000080006c70 <i_6697>:
    80006c70:	80c00e13          	li	t3,-2036

0000000080006c74 <i_6698>:
    80006c74:	81a00313          	li	t1,-2022

0000000080006c78 <i_6699>:
    80006c78:	01ad0d33          	add	s10,s10,s10

0000000080006c7c <i_6700>:
    80006c7c:	001e0e13          	addi	t3,t3,1
    80006c80:	ffc37ce3          	bleu	t3,t1,80006c78 <i_6699>

0000000080006c84 <i_6701>:
    80006c84:	ed816303          	lwu	t1,-296(sp)

0000000080006c88 <i_6702>:
    80006c88:	e1c16d83          	lwu	s11,-484(sp)

0000000080006c8c <i_6703>:
    80006c8c:	1c714c83          	lbu	s9,455(sp)

0000000080006c90 <i_6704>:
    80006c90:	f1412d03          	lw	s10,-236(sp)

0000000080006c94 <i_6705>:
    80006c94:	01b8ca63          	blt	a7,s11,80006ca8 <i_6710>

0000000080006c98 <i_6706>:
    80006c98:	003e1893          	slli	a7,t3,0x3

0000000080006c9c <i_6707>:
    80006c9c:	03ce33b3          	mulhu	t2,t3,t3

0000000080006ca0 <i_6708>:
    80006ca0:	03014803          	lbu	a6,48(sp)

0000000080006ca4 <i_6709>:
    80006ca4:	f9110523          	sb	a7,-118(sp)

0000000080006ca8 <i_6710>:
    80006ca8:	e9011d83          	lh	s11,-368(sp)

0000000080006cac <i_6711>:
    80006cac:	0023181b          	slliw	a6,t1,0x2

0000000080006cb0 <i_6712>:
    80006cb0:	1da13423          	sd	s10,456(sp)

0000000080006cb4 <i_6713>:
    80006cb4:	0197ca63          	blt	a5,s9,80006cc8 <i_6718>

0000000080006cb8 <i_6714>:
    80006cb8:	03a8d463          	ble	s10,a7,80006ce0 <i_6724>

0000000080006cbc <i_6715>:
    80006cbc:	08215e03          	lhu	t3,130(sp)

0000000080006cc0 <i_6716>:
    80006cc0:	01cdf663          	bleu	t3,s11,80006ccc <i_6719>

0000000080006cc4 <i_6717>:
    80006cc4:	01300c13          	li	s8,19

0000000080006cc8 <i_6718>:
    80006cc8:	018f933b          	sllw	t1,t6,s8

0000000080006ccc <i_6719>:
    80006ccc:	03ce4e3b          	divw	t3,t3,t3

0000000080006cd0 <i_6720>:
    80006cd0:	012e5263          	ble	s2,t3,80006cd4 <i_6721>

0000000080006cd4 <i_6721>:
    80006cd4:	038de433          	rem	s0,s11,s8

0000000080006cd8 <i_6722>:
    80006cd8:	0e814b83          	lbu	s7,232(sp)

0000000080006cdc <i_6723>:
    80006cdc:	02900b93          	li	s7,41

0000000080006ce0 <i_6724>:
    80006ce0:	41795433          	sra	s0,s2,s7

0000000080006ce4 <i_6725>:
    80006ce4:	00000013          	nop

0000000080006ce8 <i_6726>:
    80006ce8:	87400913          	li	s2,-1932

0000000080006cec <i_6727>:
    80006cec:	87d00f13          	li	t5,-1923

0000000080006cf0 <i_6728>:
    80006cf0:	038e3a33          	mulhu	s4,t3,s8

0000000080006cf4 <i_6729>:
    80006cf4:	024bc3bb          	divw	t2,s7,tp

0000000080006cf8 <i_6730>:
    80006cf8:	eb415a03          	lhu	s4,-332(sp)

0000000080006cfc <i_6731>:
    80006cfc:	02747063          	bleu	t2,s0,80006d1c <i_6738>

0000000080006d00 <i_6732>:
    80006d00:	04813703          	ld	a4,72(sp)

0000000080006d04 <i_6733>:
    80006d04:	00190913          	addi	s2,s2,1
    80006d08:	ff2f74e3          	bleu	s2,t5,80006cf0 <i_6728>

0000000080006d0c <i_6734>:
    80006d0c:	0f013303          	ld	t1,240(sp)

0000000080006d10 <i_6735>:
    80006d10:	001f1413          	slli	s0,t5,0x1

0000000080006d14 <i_6736>:
    80006d14:	03e41433          	mulh	s0,s0,t5

0000000080006d18 <i_6737>:
    80006d18:	00234c63          	blt	t1,sp,80006d30 <i_6743>

0000000080006d1c <i_6738>:
    80006d1c:	e3312c23          	sw	s3,-456(sp)

0000000080006d20 <i_6739>:
    80006d20:	05c16903          	lwu	s2,92(sp)

0000000080006d24 <i_6740>:
    80006d24:	f8810223          	sb	s0,-124(sp)

0000000080006d28 <i_6741>:
    80006d28:	13510403          	lb	s0,309(sp)

0000000080006d2c <i_6742>:
    80006d2c:	00812303          	lw	t1,8(sp)

0000000080006d30 <i_6743>:
    80006d30:	03e65f33          	divu	t5,a2,t5

0000000080006d34 <i_6744>:
    80006d34:	01ef1e63          	bne	t5,t5,80006d50 <i_6751>

0000000080006d38 <i_6745>:
    80006d38:	03996e3b          	remw	t3,s2,s9

0000000080006d3c <i_6746>:
    80006d3c:	15810883          	lb	a7,344(sp)

0000000080006d40 <i_6747>:
    80006d40:	1dc16c83          	lwu	s9,476(sp)

0000000080006d44 <i_6748>:
    80006d44:	02410c83          	lb	s9,36(sp)

0000000080006d48 <i_6749>:
    80006d48:	e5813a03          	ld	s4,-424(sp)

0000000080006d4c <i_6750>:
    80006d4c:	ff112e23          	sw	a7,-4(sp)

0000000080006d50 <i_6751>:
    80006d50:	17411223          	sh	s4,356(sp)

0000000080006d54 <i_6752>:
    80006d54:	02900a13          	li	s4,41

0000000080006d58 <i_6753>:
    80006d58:	014e1ab3          	sll	s5,t3,s4

0000000080006d5c <i_6754>:
    80006d5c:	1c411b03          	lh	s6,452(sp)

0000000080006d60 <i_6755>:
    80006d60:	0b016e83          	lwu	t4,176(sp)

0000000080006d64 <i_6756>:
    80006d64:	0eb10903          	lb	s2,235(sp)

0000000080006d68 <i_6757>:
    80006d68:	03141263          	bne	s0,a7,80006d8c <i_6766>

0000000080006d6c <i_6758>:
    80006d6c:	09612623          	sw	s6,140(sp)

0000000080006d70 <i_6759>:
    80006d70:	01186663          	bltu	a6,a7,80006d7c <i_6762>

0000000080006d74 <i_6760>:
    80006d74:	0c011b83          	lh	s7,192(sp)

0000000080006d78 <i_6761>:
    80006d78:	06013583          	ld	a1,96(sp)

0000000080006d7c <i_6762>:
    80006d7c:	02bbf8bb          	remuw	a7,s7,a1

0000000080006d80 <i_6763>:
    80006d80:	00b5fb33          	and	s6,a1,a1

0000000080006d84 <i_6764>:
    80006d84:	02bb8d33          	mul	s10,s7,a1

0000000080006d88 <i_6765>:
    80006d88:	03abc063          	blt	s7,s10,80006da8 <i_6773>

0000000080006d8c <i_6766>:
    80006d8c:	008d7263          	bleu	s0,s10,80006d90 <i_6767>

0000000080006d90 <i_6767>:
    80006d90:	425c4313          	xori	t1,s8,1061

0000000080006d94 <i_6768>:
    80006d94:	fcb14203          	lbu	tp,-53(sp)

0000000080006d98 <i_6769>:
    80006d98:	00635663          	ble	t1,t1,80006da4 <i_6772>

0000000080006d9c <i_6770>:
    80006d9c:	00289b93          	slli	s7,a7,0x2

0000000080006da0 <i_6771>:
    80006da0:	01700a13          	li	s4,23

0000000080006da4 <i_6772>:
    80006da4:	01435333          	srl	t1,t1,s4

0000000080006da8 <i_6773>:
    80006da8:	228a4893          	xori	a7,s4,552

0000000080006dac <i_6774>:
    80006dac:	cace37b7          	lui	a5,0xcace3

0000000080006db0 <i_6775>:
    80006db0:	006346b3          	xor	a3,t1,t1

0000000080006db4 <i_6776>:
    80006db4:	8bc00a13          	li	s4,-1860

0000000080006db8 <i_6777>:
    80006db8:	8c400893          	li	a7,-1852

0000000080006dbc <i_6778>:
    80006dbc:	0158fc63          	bleu	s5,a7,80006dd4 <i_6784>

0000000080006dc0 <i_6779>:
    80006dc0:	fe311023          	sh	gp,-32(sp)

0000000080006dc4 <i_6780>:
    80006dc4:	00135193          	srli	gp,t1,0x1

0000000080006dc8 <i_6781>:
    80006dc8:	0b812403          	lw	s0,184(sp)

0000000080006dcc <i_6782>:
    80006dcc:	16612823          	sw	t1,368(sp)

0000000080006dd0 <i_6783>:
    80006dd0:	4a21a193          	slti	gp,gp,1186

0000000080006dd4 <i_6784>:
    80006dd4:	1ac15683          	lhu	a3,428(sp)

0000000080006dd8 <i_6785>:
    80006dd8:	02d11d23          	sh	a3,58(sp)

0000000080006ddc <i_6786>:
    80006ddc:	74e00313          	li	t1,1870

0000000080006de0 <i_6787>:
    80006de0:	75a00793          	li	a5,1882

0000000080006de4 <i_6788>:
    80006de4:	00130313          	addi	t1,t1,1 # 7b4d8115 <main-0x4b27eeb>
    80006de8:	fef31ee3          	bne	t1,a5,80006de4 <i_6788>

0000000080006dec <i_6789>:
    80006dec:	00000013          	nop

0000000080006df0 <i_6790>:
    80006df0:	0d013303          	ld	t1,208(sp)

0000000080006df4 <i_6791>:
    80006df4:	1a810623          	sb	s0,428(sp)

0000000080006df8 <i_6792>:
    80006df8:	ec313c23          	sd	gp,-296(sp)

0000000080006dfc <i_6793>:
    80006dfc:	02d3033b          	mulw	t1,t1,a3

0000000080006e00 <i_6794>:
    80006e00:	001a0a13          	addi	s4,s4,1 # f064789d <_end+0x70637489>
    80006e04:	fb1a6ce3          	bltu	s4,a7,80006dbc <i_6778>

0000000080006e08 <i_6795>:
    80006e08:	03740bbb          	mulw	s7,s0,s7

0000000080006e0c <i_6796>:
    80006e0c:	8d198d97          	auipc	s11,0x8d198

0000000080006e10 <i_6797>:
    80006e10:	f0416f03          	lwu	t5,-252(sp)

0000000080006e14 <i_6798>:
    80006e14:	ec813c23          	sd	s0,-296(sp)

0000000080006e18 <i_6799>:
    80006e18:	01000513          	li	a0,16

0000000080006e1c <i_6800>:
    80006e1c:	00a31933          	sll	s2,t1,a0

0000000080006e20 <i_6801>:
    80006e20:	7f200313          	li	t1,2034

0000000080006e24 <i_6802>:
    80006e24:	7f400a93          	li	s5,2036

0000000080006e28 <i_6803>:
    80006e28:	e7e15783          	lhu	a5,-386(sp)

0000000080006e2c <i_6804>:
    80006e2c:	00400193          	li	gp,4

0000000080006e30 <i_6805>:
    80006e30:	003ad9b3          	srl	s3,s5,gp

0000000080006e34 <i_6806>:
    80006e34:	5421e813          	ori	a6,gp,1346

0000000080006e38 <i_6807>:
    80006e38:	00f85463          	ble	a5,a6,80006e40 <i_6809>

0000000080006e3c <i_6808>:
    80006e3c:	fd812483          	lw	s1,-40(sp)

0000000080006e40 <i_6809>:
    80006e40:	0039d993          	srli	s3,s3,0x3

0000000080006e44 <i_6810>:
    80006e44:	4fd0809b          	addiw	ra,ra,1277

0000000080006e48 <i_6811>:
    80006e48:	0a112a23          	sw	ra,180(sp)

0000000080006e4c <i_6812>:
    80006e4c:	00130313          	addi	t1,t1,1
    80006e50:	fd534ce3          	blt	t1,s5,80006e28 <i_6803>

0000000080006e54 <i_6813>:
    80006e54:	0b313c23          	sd	s3,184(sp)

0000000080006e58 <i_6814>:
    80006e58:	0015521b          	srliw	tp,a0,0x1

0000000080006e5c <i_6815>:
    80006e5c:	001080b3          	add	ra,ra,ra

0000000080006e60 <i_6816>:
    80006e60:	00122433          	slt	s0,tp,ra

0000000080006e64 <i_6817>:
    80006e64:	1d610a83          	lb	s5,470(sp)

0000000080006e68 <i_6818>:
    80006e68:	0358ceb3          	div	t4,a7,s5

0000000080006e6c <i_6819>:
    80006e6c:	00455093          	srli	ra,a0,0x4

0000000080006e70 <i_6820>:
    80006e70:	1ce14203          	lbu	tp,462(sp)

0000000080006e74 <i_6821>:
    80006e74:	00000013          	nop

0000000080006e78 <i_6822>:
    80006e78:	7da00c93          	li	s9,2010

0000000080006e7c <i_6823>:
    80006e7c:	7e300413          	li	s0,2019

0000000080006e80 <i_6824>:
    80006e80:	001f7c63          	bleu	ra,t5,80006e98 <i_6829>

0000000080006e84 <i_6825>:
    80006e84:	f4816083          	lwu	ra,-184(sp)

0000000080006e88 <i_6826>:
    80006e88:	001c8c93          	addi	s9,s9,1 # b2fd001 <main-0x74d02fff>
    80006e8c:	ff947ae3          	bleu	s9,s0,80006e80 <i_6824>

0000000080006e90 <i_6827>:
    80006e90:	01d40663          	beq	s0,t4,80006e9c <i_6830>

0000000080006e94 <i_6828>:
    80006e94:	0010ee63          	bltu	ra,ra,80006eb0 <i_6835>

0000000080006e98 <i_6829>:
    80006e98:	b64a7e93          	andi	t4,s4,-1180

0000000080006e9c <i_6830>:
    80006e9c:	404cd893          	srai	a7,s9,0x4

0000000080006ea0 <i_6831>:
    80006ea0:	01de8a63          	beq	t4,t4,80006eb4 <i_6836>

0000000080006ea4 <i_6832>:
    80006ea4:	419c8233          	sub	tp,s9,s9

0000000080006ea8 <i_6833>:
    80006ea8:	f5111123          	sh	a7,-190(sp)

0000000080006eac <i_6834>:
    80006eac:	03c00f93          	li	t6,60

0000000080006eb0 <i_6835>:
    80006eb0:	01f8d233          	srl	tp,a7,t6

0000000080006eb4 <i_6836>:
    80006eb4:	01decc63          	blt	t4,t4,80006ecc <i_6842>

0000000080006eb8 <i_6837>:
    80006eb8:	01ff8233          	add	tp,t6,t6

0000000080006ebc <i_6838>:
    80006ebc:	03b8fdbb          	remuw	s11,a7,s11

0000000080006ec0 <i_6839>:
    80006ec0:	03d59063          	bne	a1,t4,80006ee0 <i_6847>

0000000080006ec4 <i_6840>:
    80006ec4:	f0013983          	ld	s3,-256(sp)

0000000080006ec8 <i_6841>:
    80006ec8:	05ccbc93          	sltiu	s9,s9,92

0000000080006ecc <i_6842>:
    80006ecc:	00499263          	bne	s3,tp,80006ed0 <i_6843>

0000000080006ed0 <i_6843>:
    80006ed0:	0018d793          	srli	a5,a7,0x1

0000000080006ed4 <i_6844>:
    80006ed4:	007c8863          	beq	s9,t2,80006ee4 <i_6848>

0000000080006ed8 <i_6845>:
    80006ed8:	18c14c03          	lbu	s8,396(sp)

0000000080006edc <i_6846>:
    80006edc:	f1813983          	ld	s3,-232(sp)

0000000080006ee0 <i_6847>:
    80006ee0:	1c615383          	lhu	t2,454(sp)

0000000080006ee4 <i_6848>:
    80006ee4:	1c711023          	sh	t2,448(sp)

0000000080006ee8 <i_6849>:
    80006ee8:	007b8bb3          	add	s7,s7,t2

0000000080006eec <i_6850>:
    80006eec:	007bc7b3          	xor	a5,s7,t2

0000000080006ef0 <i_6851>:
    80006ef0:	0103d863          	ble	a6,t2,80006f00 <i_6855>

0000000080006ef4 <i_6852>:
    80006ef4:	0333d9b3          	divu	s3,t2,s3

0000000080006ef8 <i_6853>:
    80006ef8:	e3a10503          	lb	a0,-454(sp)

0000000080006efc <i_6854>:
    80006efc:	00900793          	li	a5,9

0000000080006f00 <i_6855>:
    80006f00:	00f553bb          	srlw	t2,a0,a5

0000000080006f04 <i_6856>:
    80006f04:	00f7a633          	slt	a2,a5,a5

0000000080006f08 <i_6857>:
    80006f08:	f6016683          	lwu	a3,-160(sp)

0000000080006f0c <i_6858>:
    80006f0c:	e4913423          	sd	s1,-440(sp)

0000000080006f10 <i_6859>:
    80006f10:	02f50463          	beq	a0,a5,80006f38 <i_6869>

0000000080006f14 <i_6860>:
    80006f14:	0a714a83          	lbu	s5,167(sp)

0000000080006f18 <i_6861>:
    80006f18:	1b015783          	lhu	a5,432(sp)

0000000080006f1c <i_6862>:
    80006f1c:	41f78f3b          	subw	t5,a5,t6

0000000080006f20 <i_6863>:
    80006f20:	9c77ccb7          	lui	s9,0x9c77c

0000000080006f24 <i_6864>:
    80006f24:	1ba15c83          	lhu	s9,442(sp)

0000000080006f28 <i_6865>:
    80006f28:	0b613423          	sd	s6,168(sp)

0000000080006f2c <i_6866>:
    80006f2c:	00000013          	nop

0000000080006f30 <i_6867>:
    80006f30:	16812b03          	lw	s6,360(sp)

0000000080006f34 <i_6868>:
    80006f34:	00900793          	li	a5,9

0000000080006f38 <i_6869>:
    80006f38:	00ff5b33          	srl	s6,t5,a5

0000000080006f3c <i_6870>:
    80006f3c:	403f579b          	sraiw	a5,t5,0x3

0000000080006f40 <i_6871>:
    80006f40:	78a00513          	li	a0,1930

0000000080006f44 <i_6872>:
    80006f44:	79400493          	li	s1,1940

0000000080006f48 <i_6873>:
    80006f48:	02f787b3          	mul	a5,a5,a5

0000000080006f4c <i_6874>:
    80006f4c:	30dc8e1b          	addiw	t3,s9,781

0000000080006f50 <i_6875>:
    80006f50:	00150513          	addi	a0,a0,1 # ffffffffe5a8b001 <_end+0xffffffff65a7abed>
    80006f54:	fe951ae3          	bne	a0,s1,80006f48 <i_6873>

0000000080006f58 <i_6876>:
    80006f58:	0397d833          	divu	a6,a5,s9

0000000080006f5c <i_6877>:
    80006f5c:	eee11c83          	lh	s9,-274(sp)

0000000080006f60 <i_6878>:
    80006f60:	03911623          	sh	s9,44(sp)

0000000080006f64 <i_6879>:
    80006f64:	03ce4263          	blt	t3,t3,80006f88 <i_6888>

0000000080006f68 <i_6880>:
    80006f68:	0f610683          	lb	a3,246(sp)

0000000080006f6c <i_6881>:
    80006f6c:	010e4263          	blt	t3,a6,80006f70 <i_6882>

0000000080006f70 <i_6882>:
    80006f70:	003a5193          	srli	gp,s4,0x3

0000000080006f74 <i_6883>:
    80006f74:	0086b833          	sltu	a6,a3,s0

0000000080006f78 <i_6884>:
    80006f78:	0232c263          	blt	t0,gp,80006f9c <i_6893>

0000000080006f7c <i_6885>:
    80006f7c:	e6615803          	lhu	a6,-410(sp)

0000000080006f80 <i_6886>:
    80006f80:	017b8bb3          	add	s7,s7,s7

0000000080006f84 <i_6887>:
    80006f84:	03784bb3          	div	s7,a6,s7

0000000080006f88 <i_6888>:
    80006f88:	0101aeb3          	slt	t4,gp,a6

0000000080006f8c <i_6889>:
    80006f8c:	04c16383          	lwu	t2,76(sp)

0000000080006f90 <i_6890>:
    80006f90:	fb016983          	lwu	s3,-80(sp)

0000000080006f94 <i_6891>:
    80006f94:	1be15983          	lhu	s3,446(sp)

0000000080006f98 <i_6892>:
    80006f98:	025c82b3          	mul	t0,s9,t0

0000000080006f9c <i_6893>:
    80006f9c:	ed312623          	sw	s3,-308(sp)

0000000080006fa0 <i_6894>:
    80006fa0:	f0a14983          	lbu	s3,-246(sp)

0000000080006fa4 <i_6895>:
    80006fa4:	84200513          	li	a0,-1982

0000000080006fa8 <i_6896>:
    80006fa8:	84700a93          	li	s5,-1977

0000000080006fac <i_6897>:
    80006fac:	11215b83          	lhu	s7,274(sp)

0000000080006fb0 <i_6898>:
    80006fb0:	1d6b861b          	addiw	a2,s7,470

0000000080006fb4 <i_6899>:
    80006fb4:	0ec12983          	lw	s3,236(sp)

0000000080006fb8 <i_6900>:
    80006fb8:	e9311823          	sh	s3,-368(sp)

0000000080006fbc <i_6901>:
    80006fbc:	037d5463          	ble	s7,s10,80006fe4 <i_6910>

0000000080006fc0 <i_6902>:
    80006fc0:	e6513c23          	sd	t0,-392(sp)

0000000080006fc4 <i_6903>:
    80006fc4:	e5813703          	ld	a4,-424(sp)

0000000080006fc8 <i_6904>:
    80006fc8:	0018d993          	srli	s3,a7,0x1

0000000080006fcc <i_6905>:
    80006fcc:	00150513          	addi	a0,a0,1
    80006fd0:	fd556ee3          	bltu	a0,s5,80006fac <i_6897>

0000000080006fd4 <i_6906>:
    80006fd4:	0b313023          	sd	s3,160(sp)

0000000080006fd8 <i_6907>:
    80006fd8:	413b89b3          	sub	s3,s7,s3

0000000080006fdc <i_6908>:
    80006fdc:	10c13023          	sd	a2,256(sp)

0000000080006fe0 <i_6909>:
    80006fe0:	0c815583          	lhu	a1,200(sp)

0000000080006fe4 <i_6910>:
    80006fe4:	00100e93          	li	t4,1

0000000080006fe8 <i_6911>:
    80006fe8:	41d5d63b          	sraw	a2,a1,t4

0000000080006fec <i_6912>:
    80006fec:	f4816403          	lwu	s0,-184(sp)

0000000080006ff0 <i_6913>:
    80006ff0:	02860463          	beq	a2,s0,80007018 <i_6923>

0000000080006ff4 <i_6914>:
    80006ff4:	f8c10823          	sb	a2,-112(sp)

0000000080006ff8 <i_6915>:
    80006ff8:	03ded263          	ble	t4,t4,8000701c <i_6924>

0000000080006ffc <i_6916>:
    80006ffc:	01400e93          	li	t4,20

0000000080007000 <i_6917>:
    80007000:	01d4163b          	sllw	a2,s0,t4

0000000080007004 <i_6918>:
    80007004:	f07d4db7          	lui	s11,0xf07d4

0000000080007008 <i_6919>:
    80007008:	40365613          	srai	a2,a2,0x3

000000008000700c <i_6920>:
    8000700c:	1a013403          	ld	s0,416(sp)

0000000080007010 <i_6921>:
    80007010:	08c11703          	lh	a4,140(sp)

0000000080007014 <i_6922>:
    80007014:	1d410703          	lb	a4,468(sp)

0000000080007018 <i_6923>:
    80007018:	00edd463          	ble	a4,s11,80007020 <i_6925>

000000008000701c <i_6924>:
    8000701c:	f1111423          	sh	a7,-248(sp)

0000000080007020 <i_6925>:
    80007020:	04974893          	xori	a7,a4,73

0000000080007024 <i_6926>:
    80007024:	b487089b          	addiw	a7,a4,-1208

0000000080007028 <i_6927>:
    80007028:	03188063          	beq	a7,a7,80007048 <i_6935>

000000008000702c <i_6928>:
    8000702c:	10311a23          	sh	gp,276(sp)

0000000080007030 <i_6929>:
    80007030:	01200893          	li	a7,18

0000000080007034 <i_6930>:
    80007034:	411758bb          	sraw	a7,a4,a7

0000000080007038 <i_6931>:
    80007038:	00000013          	nop

000000008000703c <i_6932>:
    8000703c:	031be6b3          	rem	a3,s7,a7

0000000080007040 <i_6933>:
    80007040:	e4011383          	lh	t2,-448(sp)

0000000080007044 <i_6934>:
    80007044:	4036dd9b          	sraiw	s11,a3,0x3

0000000080007048 <i_6935>:
    80007048:	ed412f83          	lw	t6,-300(sp)

000000008000704c <i_6936>:
    8000704c:	13813e83          	ld	t4,312(sp)

0000000080007050 <i_6937>:
    80007050:	78600193          	li	gp,1926

0000000080007054 <i_6938>:
    80007054:	79100713          	li	a4,1937

0000000080007058 <i_6939>:
    80007058:	ed813583          	ld	a1,-296(sp)

000000008000705c <i_6940>:
    8000705c:	00000013          	nop

0000000080007060 <i_6941>:
    80007060:	02b3f463          	bleu	a1,t2,80007088 <i_6950>

0000000080007064 <i_6942>:
    80007064:	00118193          	addi	gp,gp,1
    80007068:	fee1c8e3          	blt	gp,a4,80007058 <i_6939>

000000008000706c <i_6943>:
    8000706c:	f2e13023          	sd	a4,-224(sp)

0000000080007070 <i_6944>:
    80007070:	e7112423          	sw	a7,-408(sp)

0000000080007074 <i_6945>:
    80007074:	01900493          	li	s1,25

0000000080007078 <i_6946>:
    80007078:	0093d1bb          	srlw	gp,t2,s1

000000008000707c <i_6947>:
    8000707c:	0ab101a3          	sb	a1,163(sp)

0000000080007080 <i_6948>:
    80007080:	ea813e03          	ld	t3,-344(sp)

0000000080007084 <i_6949>:
    80007084:	04912a23          	sw	s1,84(sp)

0000000080007088 <i_6950>:
    80007088:	f6c12183          	lw	gp,-148(sp)

000000008000708c <i_6951>:
    8000708c:	fe713023          	sd	t2,-32(sp)

0000000080007090 <i_6952>:
    80007090:	fb211303          	lh	t1,-78(sp)

0000000080007094 <i_6953>:
    80007094:	f9c15a03          	lhu	s4,-100(sp)

0000000080007098 <i_6954>:
    80007098:	f4816c03          	lwu	s8,-184(sp)

000000008000709c <i_6955>:
    8000709c:	03c00793          	li	a5,60

00000000800070a0 <i_6956>:
    800070a0:	00f71db3          	sll	s11,a4,a5

00000000800070a4 <i_6957>:
    800070a4:	16710683          	lb	a3,359(sp)

00000000800070a8 <i_6958>:
    800070a8:	00000013          	nop

00000000800070ac <i_6959>:
    800070ac:	ffb11f23          	sh	s11,-2(sp)

00000000800070b0 <i_6960>:
    800070b0:	8bd00e93          	li	t4,-1859

00000000800070b4 <i_6961>:
    800070b4:	8d100793          	li	a5,-1839

00000000800070b8 <i_6962>:
    800070b8:	01b6e263          	bltu	a3,s11,800070bc <i_6963>

00000000800070bc <i_6963>:
    800070bc:	00fd9c63          	bne	s11,a5,800070d4 <i_6969>

00000000800070c0 <i_6964>:
    800070c0:	03964633          	div	a2,a2,s9

00000000800070c4 <i_6965>:
    800070c4:	029224b3          	mulhsu	s1,tp,s1

00000000800070c8 <i_6966>:
    800070c8:	00c61663          	bne	a2,a2,800070d4 <i_6969>

00000000800070cc <i_6967>:
    800070cc:	00149593          	slli	a1,s1,0x1

00000000800070d0 <i_6968>:
    800070d0:	e1a15503          	lhu	a0,-486(sp)

00000000800070d4 <i_6969>:
    800070d4:	01a00613          	li	a2,26

00000000800070d8 <i_6970>:
    800070d8:	00ce9fbb          	sllw	t6,t4,a2

00000000800070dc <i_6971>:
    800070dc:	027fe663          	bltu	t6,t2,80007108 <i_6981>

00000000800070e0 <i_6972>:
    800070e0:	001e8e93          	addi	t4,t4,1 # 34d67001 <main-0x4b298fff>
    800070e4:	fcfecae3          	blt	t4,a5,800070b8 <i_6962>

00000000800070e8 <i_6973>:
    800070e8:	03500e93          	li	t4,53

00000000800070ec <i_6974>:
    800070ec:	41dfdfb3          	sra	t6,t6,t4

00000000800070f0 <i_6975>:
    800070f0:	01610a83          	lb	s5,22(sp)

00000000800070f4 <i_6976>:
    800070f4:	03c10503          	lb	a0,60(sp)

00000000800070f8 <i_6977>:
    800070f8:	fe416e83          	lwu	t4,-28(sp)

00000000800070fc <i_6978>:
    800070fc:	e4c12503          	lw	a0,-436(sp)

0000000080007100 <i_6979>:
    80007100:	01200a93          	li	s5,18

0000000080007104 <i_6980>:
    80007104:	415edebb          	sraw	t4,t4,s5

0000000080007108 <i_6981>:
    80007108:	02a4d463          	ble	a0,s1,80007130 <i_6991>

000000008000710c <i_6982>:
    8000710c:	01d60633          	add	a2,a2,t4

0000000080007110 <i_6983>:
    80007110:	01ff9a63          	bne	t6,t6,80007124 <i_6988>

0000000080007114 <i_6984>:
    80007114:	f5610583          	lb	a1,-170(sp)

0000000080007118 <i_6985>:
    80007118:	01ff81b3          	add	gp,t6,t6

000000008000711c <i_6986>:
    8000711c:	f3015503          	lhu	a0,-208(sp)

0000000080007120 <i_6987>:
    80007120:	007abab3          	sltu	s5,s5,t2

0000000080007124 <i_6988>:
    80007124:	0015951b          	slliw	a0,a1,0x1

0000000080007128 <i_6989>:
    80007128:	035ff063          	bleu	s5,t6,80007148 <i_6997>

000000008000712c <i_6990>:
    8000712c:	02215e83          	lhu	t4,34(sp)

0000000080007130 <i_6991>:
    80007130:	030e9fb3          	mulh	t6,t4,a6

0000000080007134 <i_6992>:
    80007134:	01fef663          	bleu	t6,t4,80007140 <i_6995>

0000000080007138 <i_6993>:
    80007138:	fe110383          	lb	t2,-31(sp)

000000008000713c <i_6994>:
    8000713c:	03d38b33          	mul	s6,t2,t4

0000000080007140 <i_6995>:
    80007140:	15f11623          	sh	t6,332(sp)

0000000080007144 <i_6996>:
    80007144:	19a11383          	lh	t2,410(sp)

0000000080007148 <i_6997>:
    80007148:	14813383          	ld	t2,328(sp)

000000008000714c <i_6998>:
    8000714c:	19813403          	ld	s0,408(sp)

0000000080007150 <i_6999>:
    80007150:	ed6102a3          	sb	s6,-315(sp)

0000000080007154 <i_7000>:
    80007154:	e6312a23          	sw	gp,-396(sp)

0000000080007158 <i_7001>:
    80007158:	15016583          	lwu	a1,336(sp)

000000008000715c <i_7002>:
    8000715c:	03ff8fb3          	mul	t6,t6,t6

0000000080007160 <i_7003>:
    80007160:	00300293          	li	t0,3

0000000080007164 <i_7004>:
    80007164:	405450bb          	sraw	ra,s0,t0

0000000080007168 <i_7005>:
    80007168:	dd5f8593          	addi	a1,t6,-555

000000008000716c <i_7006>:
    8000716c:	f0114f83          	lbu	t6,-255(sp)

0000000080007170 <i_7007>:
    80007170:	025fc733          	div	a4,t6,t0

0000000080007174 <i_7008>:
    80007174:	e4310f83          	lb	t6,-445(sp)

0000000080007178 <i_7009>:
    80007178:	004f9c13          	slli	s8,t6,0x4

000000008000717c <i_7010>:
    8000717c:	e9013c83          	ld	s9,-368(sp)

0000000080007180 <i_7011>:
    80007180:	00ea8663          	beq	s5,a4,8000718c <i_7014>

0000000080007184 <i_7012>:
    80007184:	018c1463          	bne	s8,s8,8000718c <i_7014>

0000000080007188 <i_7013>:
    80007188:	1a015783          	lhu	a5,416(sp)

000000008000718c <i_7014>:
    8000718c:	00ec6a63          	bltu	s8,a4,800071a0 <i_7019>

0000000080007190 <i_7015>:
    80007190:	e8015703          	lhu	a4,-384(sp)

0000000080007194 <i_7016>:
    80007194:	00500693          	li	a3,5

0000000080007198 <i_7017>:
    80007198:	40dcd5b3          	sra	a1,s9,a3

000000008000719c <i_7018>:
    8000719c:	ed911b23          	sh	s9,-298(sp)

00000000800071a0 <i_7019>:
    800071a0:	19813b83          	ld	s7,408(sp)

00000000800071a4 <i_7020>:
    800071a4:	13812a83          	lw	s5,312(sp)

00000000800071a8 <i_7021>:
    800071a8:	035b8063          	beq	s7,s5,800071c8 <i_7029>

00000000800071ac <i_7022>:
    800071ac:	00a00a93          	li	s5,10

00000000800071b0 <i_7023>:
    800071b0:	01579733          	sll	a4,a5,s5

00000000800071b4 <i_7024>:
    800071b4:	f5012283          	lw	t0,-176(sp)

00000000800071b8 <i_7025>:
    800071b8:	ef016f83          	lwu	t6,-272(sp)

00000000800071bc <i_7026>:
    800071bc:	f5fbe693          	ori	a3,s7,-161

00000000800071c0 <i_7027>:
    800071c0:	002e5e13          	srli	t3,t3,0x2

00000000800071c4 <i_7028>:
    800071c4:	ef910323          	sb	s9,-282(sp)

00000000800071c8 <i_7029>:
    800071c8:	ef011883          	lh	a7,-272(sp)

00000000800071cc <i_7030>:
    800071cc:	00000013          	nop

00000000800071d0 <i_7031>:
    800071d0:	8b700f93          	li	t6,-1865

00000000800071d4 <i_7032>:
    800071d4:	8c300a93          	li	s5,-1853

00000000800071d8 <i_7033>:
    800071d8:	00000013          	nop

00000000800071dc <i_7034>:
    800071dc:	fa812703          	lw	a4,-88(sp)

00000000800071e0 <i_7035>:
    800071e0:	74e00693          	li	a3,1870

00000000800071e4 <i_7036>:
    800071e4:	76000e13          	li	t3,1888

00000000800071e8 <i_7037>:
    800071e8:	00168693          	addi	a3,a3,1
    800071ec:	ffc6cee3          	blt	a3,t3,800071e8 <i_7037>

00000000800071f0 <i_7038>:
    800071f0:	00000013          	nop

00000000800071f4 <i_7039>:
    800071f4:	0118de63          	ble	a7,a7,80007210 <i_7045>

00000000800071f8 <i_7040>:
    800071f8:	0ae10403          	lb	s0,174(sp)

00000000800071fc <i_7041>:
    800071fc:	001f8f93          	addi	t6,t6,1
    80007200:	fd5f9ce3          	bne	t6,s5,800071d8 <i_7033>

0000000080007204 <i_7042>:
    80007204:	00875663          	ble	s0,a4,80007210 <i_7045>

0000000080007208 <i_7043>:
    80007208:	028448bb          	divw	a7,s0,s0

000000008000720c <i_7044>:
    8000720c:	f4714403          	lbu	s0,-185(sp)

0000000080007210 <i_7045>:
    80007210:	fc013d03          	ld	s10,-64(sp)

0000000080007214 <i_7046>:
    80007214:	11a11123          	sh	s10,258(sp)

0000000080007218 <i_7047>:
    80007218:	eda12223          	sw	s10,-316(sp)

000000008000721c <i_7048>:
    8000721c:	03800713          	li	a4,56

0000000080007220 <i_7049>:
    80007220:	00ed13b3          	sll	t2,s10,a4

0000000080007224 <i_7050>:
    80007224:	01a40263          	beq	s0,s10,80007228 <i_7051>

0000000080007228 <i_7051>:
    80007228:	40c58d33          	sub	s10,a1,a2

000000008000722c <i_7052>:
    8000722c:	01200913          	li	s2,18

0000000080007230 <i_7053>:
    80007230:	012d1e3b          	sllw	t3,s10,s2

0000000080007234 <i_7054>:
    80007234:	e9a10823          	sb	s10,-368(sp)

0000000080007238 <i_7055>:
    80007238:	a5b92f13          	slti	t5,s2,-1445

000000008000723c <i_7056>:
    8000723c:	412d0d3b          	subw	s10,s10,s2

0000000080007240 <i_7057>:
    80007240:	12f11423          	sh	a5,296(sp)

0000000080007244 <i_7058>:
    80007244:	0210e0bb          	remw	ra,ra,ra

0000000080007248 <i_7059>:
    80007248:	f9f14d03          	lbu	s10,-97(sp)

000000008000724c <i_7060>:
    8000724c:	ff012683          	lw	a3,-16(sp)

0000000080007250 <i_7061>:
    80007250:	0dd92d93          	slti	s11,s2,221

0000000080007254 <i_7062>:
    80007254:	403f5413          	srai	s0,t5,0x3

0000000080007258 <i_7063>:
    80007258:	f6bd881b          	addiw	a6,s11,-149

000000008000725c <i_7064>:
    8000725c:	01311a23          	sh	s3,20(sp)

0000000080007260 <i_7065>:
    80007260:	e3b10da3          	sb	s11,-453(sp)

0000000080007264 <i_7066>:
    80007264:	fa110c03          	lb	s8,-95(sp)

0000000080007268 <i_7067>:
    80007268:	0285bf33          	mulhu	t5,a1,s0

000000008000726c <i_7068>:
    8000726c:	05211683          	lh	a3,82(sp)

0000000080007270 <i_7069>:
    80007270:	0280f063          	bleu	s0,ra,80007290 <i_7077>

0000000080007274 <i_7070>:
    80007274:	01b00693          	li	a3,27

0000000080007278 <i_7071>:
    80007278:	40d6df3b          	sraw	t5,a3,a3

000000008000727c <i_7072>:
    8000727c:	0a412403          	lw	s0,164(sp)

0000000080007280 <i_7073>:
    80007280:	08215503          	lhu	a0,130(sp)

0000000080007284 <i_7074>:
    80007284:	03011983          	lh	s3,48(sp)

0000000080007288 <i_7075>:
    80007288:	03413023          	sd	s4,32(sp)

000000008000728c <i_7076>:
    8000728c:	00100693          	li	a3,1

0000000080007290 <i_7077>:
    80007290:	00df5f33          	srl	t5,t5,a3

0000000080007294 <i_7078>:
    80007294:	01313023          	sd	s3,0(sp)

0000000080007298 <i_7079>:
    80007298:	12416403          	lwu	s0,292(sp)

000000008000729c <i_7080>:
    8000729c:	00200b13          	li	s6,2

00000000800072a0 <i_7081>:
    800072a0:	416f543b          	sraw	s0,t5,s6

00000000800072a4 <i_7082>:
    800072a4:	00f71263          	bne	a4,a5,800072a8 <i_7083>

00000000800072a8 <i_7083>:
    800072a8:	41f68f33          	sub	t5,a3,t6

00000000800072ac <i_7084>:
    800072ac:	03ef0463          	beq	t5,t5,800072d4 <i_7094>

00000000800072b0 <i_7085>:
    800072b0:	1b012f03          	lw	t5,432(sp)

00000000800072b4 <i_7086>:
    800072b4:	01eabb33          	sltu	s6,s5,t5

00000000800072b8 <i_7087>:
    800072b8:	1d0f7e93          	andi	t4,t5,464

00000000800072bc <i_7088>:
    800072bc:	13416303          	lwu	t1,308(sp)

00000000800072c0 <i_7089>:
    800072c0:	01eee633          	or	a2,t4,t5

00000000800072c4 <i_7090>:
    800072c4:	f1810d03          	lb	s10,-232(sp)

00000000800072c8 <i_7091>:
    800072c8:	e8463f13          	sltiu	t5,a2,-380

00000000800072cc <i_7092>:
    800072cc:	01ebebb3          	or	s7,s7,t5

00000000800072d0 <i_7093>:
    800072d0:	ff713423          	sd	s7,-24(sp)

00000000800072d4 <i_7094>:
    800072d4:	03e64f3b          	divw	t5,a2,t5

00000000800072d8 <i_7095>:
    800072d8:	41cb8bbb          	subw	s7,s7,t3

00000000800072dc <i_7096>:
    800072dc:	f7711e23          	sh	s7,-132(sp)

00000000800072e0 <i_7097>:
    800072e0:	77a00d13          	li	s10,1914

00000000800072e4 <i_7098>:
    800072e4:	78400f13          	li	t5,1924

00000000800072e8 <i_7099>:
    800072e8:	05816903          	lwu	s2,88(sp)

00000000800072ec <i_7100>:
    800072ec:	eb713823          	sd	s7,-336(sp)

00000000800072f0 <i_7101>:
    800072f0:	7d900c93          	li	s9,2009

00000000800072f4 <i_7102>:
    800072f4:	7ec00b93          	li	s7,2028

00000000800072f8 <i_7103>:
    800072f8:	00700a93          	li	s5,7

00000000800072fc <i_7104>:
    800072fc:	015b993b          	sllw	s2,s7,s5

0000000080007300 <i_7105>:
    80007300:	001c8c93          	addi	s9,s9,1 # ffffffff9c77c001 <_end+0xffffffff1c76bbed>
    80007304:	ff7ceae3          	bltu	s9,s7,800072f8 <i_7103>

0000000080007308 <i_7106>:
    80007308:	4ff31937          	lui	s2,0x4ff31

000000008000730c <i_7107>:
    8000730c:	015ad663          	ble	s5,s5,80007318 <i_7110>

0000000080007310 <i_7108>:
    80007310:	03110803          	lb	a6,49(sp)

0000000080007314 <i_7109>:
    80007314:	e9712623          	sw	s7,-372(sp)

0000000080007318 <i_7110>:
    80007318:	04a87b93          	andi	s7,a6,74

000000008000731c <i_7111>:
    8000731c:	e7b10d83          	lb	s11,-389(sp)

0000000080007320 <i_7112>:
    80007320:	001d0d13          	addi	s10,s10,1
    80007324:	fdaf72e3          	bleu	s10,t5,800072e8 <i_7099>

0000000080007328 <i_7113>:
    80007328:	012dda63          	ble	s2,s11,8000733c <i_7118>

000000008000732c <i_7114>:
    8000732c:	14410183          	lb	gp,324(sp)

0000000080007330 <i_7115>:
    80007330:	0171e1b3          	or	gp,gp,s7

0000000080007334 <i_7116>:
    80007334:	ed013a83          	ld	s5,-304(sp)

0000000080007338 <i_7117>:
    80007338:	030e1e33          	mulh	t3,t3,a6

000000008000733c <i_7118>:
    8000733c:	f3710aa3          	sb	s7,-203(sp)

0000000080007340 <i_7119>:
    80007340:	039cc263          	blt	s9,s9,80007364 <i_7128>

0000000080007344 <i_7120>:
    80007344:	03500193          	li	gp,53

0000000080007348 <i_7121>:
    80007348:	40385833          	sra	a6,a6,gp

000000008000734c <i_7122>:
    8000734c:	1c312023          	sw	gp,448(sp)

0000000080007350 <i_7123>:
    80007350:	00013e03          	ld	t3,0(sp)

0000000080007354 <i_7124>:
    80007354:	4026561b          	sraiw	a2,a2,0x2

0000000080007358 <i_7125>:
    80007358:	f7013283          	ld	t0,-144(sp)

000000008000735c <i_7126>:
    8000735c:	00529463          	bne	t0,t0,80007364 <i_7128>

0000000080007360 <i_7127>:
    80007360:	0031e263          	bltu	gp,gp,80007364 <i_7128>

0000000080007364 <i_7128>:
    80007364:	1b215083          	lhu	ra,434(sp)

0000000080007368 <i_7129>:
    80007368:	03c949bb          	divw	s3,s2,t3

000000008000736c <i_7130>:
    8000736c:	0301c063          	blt	gp,a6,8000738c <i_7138>

0000000080007370 <i_7131>:
    80007370:	c920ce93          	xori	t4,ra,-878

0000000080007374 <i_7132>:
    80007374:	03416083          	lwu	ra,52(sp)

0000000080007378 <i_7133>:
    80007378:	0379d933          	divu	s2,s3,s7

000000008000737c <i_7134>:
    8000737c:	401e8433          	sub	s0,t4,ra

0000000080007380 <i_7135>:
    80007380:	19015e83          	lhu	t4,400(sp)

0000000080007384 <i_7136>:
    80007384:	0329bbb3          	mulhu	s7,s3,s2

0000000080007388 <i_7137>:
    80007388:	ee112223          	sw	ra,-284(sp)

000000008000738c <i_7138>:
    8000738c:	04211083          	lh	ra,66(sp)

0000000080007390 <i_7139>:
    80007390:	01d00e93          	li	t4,29

0000000080007394 <i_7140>:
    80007394:	41de50bb          	sraw	ra,t3,t4

0000000080007398 <i_7141>:
    80007398:	4044509b          	sraiw	ra,s0,0x4

000000008000739c <i_7142>:
    8000739c:	14c12403          	lw	s0,332(sp)

00000000800073a0 <i_7143>:
    800073a0:	eabece93          	xori	t4,t4,-341

00000000800073a4 <i_7144>:
    800073a4:	de908b13          	addi	s6,ra,-535

00000000800073a8 <i_7145>:
    800073a8:	6b60c093          	xori	ra,ra,1718

00000000800073ac <i_7146>:
    800073ac:	1a012e83          	lw	t4,416(sp)

00000000800073b0 <i_7147>:
    800073b0:	f5e15283          	lhu	t0,-162(sp)

00000000800073b4 <i_7148>:
    800073b4:	f1f14e03          	lbu	t3,-225(sp)

00000000800073b8 <i_7149>:
    800073b8:	00529e63          	bne	t0,t0,800073d4 <i_7156>

00000000800073bc <i_7150>:
    800073bc:	fc014b03          	lbu	s6,-64(sp)

00000000800073c0 <i_7151>:
    800073c0:	03200513          	li	a0,50

00000000800073c4 <i_7152>:
    800073c4:	40ab59b3          	sra	s3,s6,a0

00000000800073c8 <i_7153>:
    800073c8:	0ca13023          	sd	a0,192(sp)

00000000800073cc <i_7154>:
    800073cc:	013909b3          	add	s3,s2,s3

00000000800073d0 <i_7155>:
    800073d0:	034b09bb          	mulw	s3,s6,s4

00000000800073d4 <i_7156>:
    800073d4:	00000013          	nop

00000000800073d8 <i_7157>:
    800073d8:	09013023          	sd	a6,128(sp)

00000000800073dc <i_7158>:
    800073dc:	84d00b13          	li	s6,-1971

00000000800073e0 <i_7159>:
    800073e0:	86000813          	li	a6,-1952

00000000800073e4 <i_7160>:
    800073e4:	0139de63          	ble	s3,s3,80007400 <i_7166>

00000000800073e8 <i_7161>:
    800073e8:	5fa00db7          	lui	s11,0x5fa00

00000000800073ec <i_7162>:
    800073ec:	07813683          	ld	a3,120(sp)

00000000800073f0 <i_7163>:
    800073f0:	001b0b13          	addi	s6,s6,1
    800073f4:	ff0b68e3          	bltu	s6,a6,800073e4 <i_7160>

00000000800073f8 <i_7164>:
    800073f8:	08816b03          	lwu	s6,136(sp)

00000000800073fc <i_7165>:
    800073fc:	05611523          	sh	s6,74(sp)

0000000080007400 <i_7166>:
    80007400:	01bdca63          	blt	s11,s11,80007414 <i_7171>

0000000080007404 <i_7167>:
    80007404:	19b12e23          	sw	s11,412(sp)

0000000080007408 <i_7168>:
    80007408:	09510c03          	lb	s8,149(sp)

000000008000740c <i_7169>:
    8000740c:	03900713          	li	a4,57

0000000080007410 <i_7170>:
    80007410:	00ec5db3          	srl	s11,s8,a4

0000000080007414 <i_7171>:
    80007414:	038dfabb          	remuw	s5,s11,s8

0000000080007418 <i_7172>:
    80007418:	018b5a63          	ble	s8,s6,8000742c <i_7177>

000000008000741c <i_7173>:
    8000741c:	ded62693          	slti	a3,a2,-531

0000000080007420 <i_7174>:
    80007420:	0186bbb3          	sltu	s7,a3,s8

0000000080007424 <i_7175>:
    80007424:	e9411823          	sh	s4,-368(sp)

0000000080007428 <i_7176>:
    80007428:	015df463          	bleu	s5,s11,80007430 <i_7178>

000000008000742c <i_7177>:
    8000742c:	f9812a23          	sw	s8,-108(sp)

0000000080007430 <i_7178>:
    80007430:	018ace63          	blt	s5,s8,8000744c <i_7185>

0000000080007434 <i_7179>:
    80007434:	035ad463          	ble	s5,s5,8000745c <i_7189>

0000000080007438 <i_7180>:
    80007438:	02eaddbb          	divuw	s11,s5,a4

000000008000743c <i_7181>:
    8000743c:	02ec5733          	divu	a4,s8,a4

0000000080007440 <i_7182>:
    80007440:	f0e12a23          	sw	a4,-236(sp)

0000000080007444 <i_7183>:
    80007444:	003b179b          	slliw	a5,s6,0x3

0000000080007448 <i_7184>:
    80007448:	0c712223          	sw	t2,196(sp)

000000008000744c <i_7185>:
    8000744c:	caad871b          	addiw	a4,s11,-854

0000000080007450 <i_7186>:
    80007450:	00ebc463          	blt	s7,a4,80007458 <i_7188>

0000000080007454 <i_7187>:
    80007454:	15a70c9b          	addiw	s9,a4,346

0000000080007458 <i_7188>:
    80007458:	03f00393          	li	t2,63

000000008000745c <i_7189>:
    8000745c:	007b9c33          	sll	s8,s7,t2

0000000080007460 <i_7190>:
    80007460:	17011683          	lh	a3,368(sp)

0000000080007464 <i_7191>:
    80007464:	02e7d263          	ble	a4,a5,80007488 <i_7200>

0000000080007468 <i_7192>:
    80007468:	fd013e03          	ld	t3,-48(sp)

000000008000746c <i_7193>:
    8000746c:	1d016c03          	lwu	s8,464(sp)

0000000080007470 <i_7194>:
    80007470:	0ad13423          	sd	a3,168(sp)

0000000080007474 <i_7195>:
    80007474:	e3510123          	sb	s5,-478(sp)

0000000080007478 <i_7196>:
    80007478:	fea15303          	lhu	t1,-22(sp)

000000008000747c <i_7197>:
    8000747c:	d78b8413          	addi	s0,s7,-648

0000000080007480 <i_7198>:
    80007480:	1fe9b2b7          	lui	t0,0x1fe9b

0000000080007484 <i_7199>:
    80007484:	06811703          	lh	a4,104(sp)

0000000080007488 <i_7200>:
    80007488:	14e10f83          	lb	t6,334(sp)

000000008000748c <i_7201>:
    8000748c:	02fc1463          	bne	s8,a5,800074b4 <i_7211>

0000000080007490 <i_7202>:
    80007490:	f8414303          	lbu	t1,-124(sp)

0000000080007494 <i_7203>:
    80007494:	17812d03          	lw	s10,376(sp)

0000000080007498 <i_7204>:
    80007498:	f4b14203          	lbu	tp,-181(sp)

000000008000749c <i_7205>:
    8000749c:	004fde93          	srli	t4,t6,0x4

00000000800074a0 <i_7206>:
    800074a0:	01d76263          	bltu	a4,t4,800074a4 <i_7207>

00000000800074a4 <i_7207>:
    800074a4:	0fc12e83          	lw	t4,252(sp)

00000000800074a8 <i_7208>:
    800074a8:	17d10ca3          	sb	t4,377(sp)

00000000800074ac <i_7209>:
    800074ac:	f3d13c23          	sd	t4,-200(sp)

00000000800074b0 <i_7210>:
    800074b0:	e9415803          	lhu	a6,-364(sp)

00000000800074b4 <i_7211>:
    800074b4:	1d013023          	sd	a6,448(sp)

00000000800074b8 <i_7212>:
    800074b8:	fc411f23          	sh	tp,-34(sp)

00000000800074bc <i_7213>:
    800074bc:	1bd11823          	sh	t4,432(sp)

00000000800074c0 <i_7214>:
    800074c0:	fe813e83          	ld	t4,-24(sp)

00000000800074c4 <i_7215>:
    800074c4:	010ee463          	bltu	t4,a6,800074cc <i_7217>

00000000800074c8 <i_7216>:
    800074c8:	96f5081b          	addiw	a6,a0,-1681

00000000800074cc <i_7217>:
    800074cc:	f2714203          	lbu	tp,-217(sp)

00000000800074d0 <i_7218>:
    800074d0:	0d911b23          	sh	s9,214(sp)

00000000800074d4 <i_7219>:
    800074d4:	0043c663          	blt	t2,tp,800074e0 <i_7222>

00000000800074d8 <i_7220>:
    800074d8:	e1816803          	lwu	a6,-488(sp)

00000000800074dc <i_7221>:
    800074dc:	17013c23          	sd	a6,376(sp)

00000000800074e0 <i_7222>:
    800074e0:	41de8ebb          	subw	t4,t4,t4

00000000800074e4 <i_7223>:
    800074e4:	034ed4b3          	divu	s1,t4,s4

00000000800074e8 <i_7224>:
    800074e8:	0e214e03          	lbu	t3,226(sp)

00000000800074ec <i_7225>:
    800074ec:	09c12e23          	sw	t3,156(sp)

00000000800074f0 <i_7226>:
    800074f0:	03dee263          	bltu	t4,t4,80007514 <i_7235>

00000000800074f4 <i_7227>:
    800074f4:	01ce6e63          	bltu	t3,t3,80007510 <i_7234>

00000000800074f8 <i_7228>:
    800074f8:	0e013283          	ld	t0,224(sp)

00000000800074fc <i_7229>:
    800074fc:	01700e93          	li	t4,23

0000000080007500 <i_7230>:
    80007500:	01d25e3b          	srlw	t3,tp,t4

0000000080007504 <i_7231>:
    80007504:	b2d82193          	slti	gp,a6,-1235

0000000080007508 <i_7232>:
    80007508:	0b510803          	lb	a6,181(sp)

000000008000750c <i_7233>:
    8000750c:	ff412e83          	lw	t4,-12(sp)

0000000080007510 <i_7234>:
    80007510:	06314483          	lbu	s1,99(sp)

0000000080007514 <i_7235>:
    80007514:	1d510a83          	lb	s5,469(sp)

0000000080007518 <i_7236>:
    80007518:	97eab493          	sltiu	s1,s5,-1666

000000008000751c <i_7237>:
    8000751c:	40980ebb          	subw	t4,a6,s1

0000000080007520 <i_7238>:
    80007520:	d4d86a93          	ori	s5,a6,-691

0000000080007524 <i_7239>:
    80007524:	01585463          	ble	s5,a6,8000752c <i_7241>

0000000080007528 <i_7240>:
    80007528:	13010aa3          	sb	a6,309(sp)

000000008000752c <i_7241>:
    8000752c:	41d80ab3          	sub	s5,a6,t4

0000000080007530 <i_7242>:
    80007530:	0354d833          	divu	a6,s1,s5

0000000080007534 <i_7243>:
    80007534:	15611203          	lh	tp,342(sp)

0000000080007538 <i_7244>:
    80007538:	01181a63          	bne	a6,a7,8000754c <i_7249>

000000008000753c <i_7245>:
    8000753c:	0b013423          	sd	a6,168(sp)

0000000080007540 <i_7246>:
    80007540:	01586663          	bltu	a6,s5,8000754c <i_7249>

0000000080007544 <i_7247>:
    80007544:	1a016203          	lwu	tp,416(sp)

0000000080007548 <i_7248>:
    80007548:	11412a83          	lw	s5,276(sp)

000000008000754c <i_7249>:
    8000754c:	01081863          	bne	a6,a6,8000755c <i_7253>

0000000080007550 <i_7250>:
    80007550:	026d9db3          	mulh	s11,s11,t1

0000000080007554 <i_7251>:
    80007554:	0fc12c23          	sw	t3,248(sp)

0000000080007558 <i_7252>:
    80007558:	70627d93          	andi	s11,tp,1798

000000008000755c <i_7253>:
    8000755c:	09012c23          	sw	a6,152(sp)

0000000080007560 <i_7254>:
    80007560:	00faee33          	or	t3,s5,a5

0000000080007564 <i_7255>:
    80007564:	8c100813          	li	a6,-1855

0000000080007568 <i_7256>:
    80007568:	8d500213          	li	tp,-1835

000000008000756c <i_7257>:
    8000756c:	fc310883          	lb	a7,-61(sp)

0000000080007570 <i_7258>:
    80007570:	fb415b83          	lhu	s7,-76(sp)

0000000080007574 <i_7259>:
    80007574:	1d813823          	sd	s8,464(sp)

0000000080007578 <i_7260>:
    80007578:	0018d293          	srli	t0,a7,0x1

000000008000757c <i_7261>:
    8000757c:	ed512623          	sw	s5,-308(sp)

0000000080007580 <i_7262>:
    80007580:	fd510f23          	sb	s5,-34(sp)

0000000080007584 <i_7263>:
    80007584:	f7810d83          	lb	s11,-136(sp)

0000000080007588 <i_7264>:
    80007588:	ff412483          	lw	s1,-12(sp)

000000008000758c <i_7265>:
    8000758c:	009b9c63          	bne	s7,s1,800075a4 <i_7270>

0000000080007590 <i_7266>:
    80007590:	0b813383          	ld	t2,184(sp)

0000000080007594 <i_7267>:
    80007594:	00180813          	addi	a6,a6,1
    80007598:	fc484ae3          	blt	a6,tp,8000756c <i_7257>

000000008000759c <i_7268>:
    8000759c:	007be933          	or	s2,s7,t2

00000000800075a0 <i_7269>:
    800075a0:	f7b14883          	lbu	a7,-133(sp)

00000000800075a4 <i_7270>:
    800075a4:	00e00913          	li	s2,14

00000000800075a8 <i_7271>:
    800075a8:	012292bb          	sllw	t0,t0,s2

00000000800075ac <i_7272>:
    800075ac:	75f00713          	li	a4,1887

00000000800075b0 <i_7273>:
    800075b0:	76400d13          	li	s10,1892

00000000800075b4 <i_7274>:
    800075b4:	01ce7463          	bleu	t3,t3,800075bc <i_7276>

00000000800075b8 <i_7275>:
    800075b8:	05910403          	lb	s0,89(sp)

00000000800075bc <i_7276>:
    800075bc:	0fc13423          	sd	t3,232(sp)

00000000800075c0 <i_7277>:
    800075c0:	f7c12a23          	sw	t3,-140(sp)

00000000800075c4 <i_7278>:
    800075c4:	1e852513          	slti	a0,a0,488

00000000800075c8 <i_7279>:
    800075c8:	003e569b          	srliw	a3,t3,0x3

00000000800075cc <i_7280>:
    800075cc:	02e57ab3          	remu	s5,a0,a4

00000000800075d0 <i_7281>:
    800075d0:	02daf533          	remu	a0,s5,a3

00000000800075d4 <i_7282>:
    800075d4:	1cd12a23          	sw	a3,468(sp)

00000000800075d8 <i_7283>:
    800075d8:	4028dc9b          	sraiw	s9,a7,0x2

00000000800075dc <i_7284>:
    800075dc:	ff511523          	sh	s5,-22(sp)

00000000800075e0 <i_7285>:
    800075e0:	02d55663          	ble	a3,a0,8000760c <i_7295>

00000000800075e4 <i_7286>:
    800075e4:	e9113023          	sd	a7,-384(sp)

00000000800075e8 <i_7287>:
    800075e8:	1c815c83          	lhu	s9,456(sp)

00000000800075ec <i_7288>:
    800075ec:	0395c463          	blt	a1,s9,80007614 <i_7297>

00000000800075f0 <i_7289>:
    800075f0:	00000013          	nop

00000000800075f4 <i_7290>:
    800075f4:	00170713          	addi	a4,a4,1
    800075f8:	fba76ee3          	bltu	a4,s10,800075b4 <i_7274>

00000000800075fc <i_7291>:
    800075fc:	00aac463          	blt	s5,a0,80007604 <i_7293>

0000000080007600 <i_7292>:
    80007600:	05812303          	lw	t1,88(sp)

0000000080007604 <i_7293>:
    80007604:	00dcdc63          	ble	a3,s9,8000761c <i_7299>

0000000080007608 <i_7294>:
    80007608:	ec611223          	sh	t1,-316(sp)

000000008000760c <i_7295>:
    8000760c:	039ccab3          	div	s5,s9,s9

0000000080007610 <i_7296>:
    80007610:	00630333          	add	t1,t1,t1

0000000080007614 <i_7297>:
    80007614:	e3f10183          	lb	gp,-449(sp)

0000000080007618 <i_7298>:
    80007618:	f0c10803          	lb	a6,-244(sp)

000000008000761c <i_7299>:
    8000761c:	06311e23          	sh	gp,124(sp)

0000000080007620 <i_7300>:
    80007620:	0e416a83          	lwu	s5,228(sp)

0000000080007624 <i_7301>:
    80007624:	03542bb3          	mulhsu	s7,s0,s5

0000000080007628 <i_7302>:
    80007628:	017bfe63          	bleu	s7,s7,80007644 <i_7309>

000000008000762c <i_7303>:
    8000762c:	fdc16f83          	lwu	t6,-36(sp)

0000000080007630 <i_7304>:
    80007630:	ee610023          	sb	t1,-288(sp)

0000000080007634 <i_7305>:
    80007634:	006a8663          	beq	s5,t1,80007640 <i_7308>

0000000080007638 <i_7306>:
    80007638:	02387463          	bleu	gp,a6,80007660 <i_7316>

000000008000763c <i_7307>:
    8000763c:	ffc16603          	lwu	a2,-4(sp)

0000000080007640 <i_7308>:
    80007640:	037be2bb          	remw	t0,s7,s7

0000000080007644 <i_7309>:
    80007644:	0c813b83          	ld	s7,200(sp)

0000000080007648 <i_7310>:
    80007648:	025b8db3          	mul	s11,s7,t0

000000008000764c <i_7311>:
    8000764c:	13013b83          	ld	s7,304(sp)

0000000080007650 <i_7312>:
    80007650:	18813b83          	ld	s7,392(sp)

0000000080007654 <i_7313>:
    80007654:	00000013          	nop

0000000080007658 <i_7314>:
    80007658:	00000013          	nop

000000008000765c <i_7315>:
    8000765c:	00000013          	nop

0000000080007660 <i_7316>:
    80007660:	05814b83          	lbu	s7,88(sp)

0000000080007664 <i_7317>:
    80007664:	00000013          	nop

0000000080007668 <i_7318>:
    80007668:	8d200793          	li	a5,-1838

000000008000766c <i_7319>:
    8000766c:	8de00d93          	li	s11,-1826

0000000080007670 <i_7320>:
    80007670:	037be83b          	remw	a6,s7,s7

0000000080007674 <i_7321>:
    80007674:	00000013          	nop

0000000080007678 <i_7322>:
    80007678:	02f76733          	rem	a4,a4,a5

000000008000767c <i_7323>:
    8000767c:	00178793          	addi	a5,a5,1 # ffffffffcace3001 <_end+0xffffffff4acd2bed>
    80007680:	fefdd8e3          	ble	a5,s11,80007670 <i_7320>

0000000080007684 <i_7324>:
    80007684:	0d914b83          	lbu	s7,217(sp)

0000000080007688 <i_7325>:
    80007688:	e4e11523          	sh	a4,-438(sp)

000000008000768c <i_7326>:
    8000768c:	12412a83          	lw	s5,292(sp)

0000000080007690 <i_7327>:
    80007690:	08910b83          	lb	s7,137(sp)

0000000080007694 <i_7328>:
    80007694:	14e11683          	lh	a3,334(sp)

0000000080007698 <i_7329>:
    80007698:	00f81263          	bne	a6,a5,8000769c <i_7330>

000000008000769c <i_7330>:
    8000769c:	e6416583          	lwu	a1,-412(sp)

00000000800076a0 <i_7331>:
    800076a0:	02f0a733          	mulhsu	a4,ra,a5

00000000800076a4 <i_7332>:
    800076a4:	e3411083          	lh	ra,-460(sp)

00000000800076a8 <i_7333>:
    800076a8:	fda11f83          	lh	t6,-38(sp)

00000000800076ac <i_7334>:
    800076ac:	0046b233          	sltu	tp,a3,tp

00000000800076b0 <i_7335>:
    800076b0:	f4410803          	lb	a6,-188(sp)

00000000800076b4 <i_7336>:
    800076b4:	00e10203          	lb	tp,14(sp)

00000000800076b8 <i_7337>:
    800076b8:	12413823          	sd	tp,304(sp)

00000000800076bc <i_7338>:
    800076bc:	00e15483          	lhu	s1,14(sp)

00000000800076c0 <i_7339>:
    800076c0:	eae15203          	lhu	tp,-338(sp)

00000000800076c4 <i_7340>:
    800076c4:	01000813          	li	a6,16

00000000800076c8 <i_7341>:
    800076c8:	0108583b          	srlw	a6,a6,a6

00000000800076cc <i_7342>:
    800076cc:	f6410823          	sb	tp,-144(sp)

00000000800076d0 <i_7343>:
    800076d0:	e3013203          	ld	tp,-464(sp)

00000000800076d4 <i_7344>:
    800076d4:	82700913          	li	s2,-2009

00000000800076d8 <i_7345>:
    800076d8:	82c00613          	li	a2,-2004

00000000800076dc <i_7346>:
    800076dc:	e5011923          	sh	a6,-430(sp)

00000000800076e0 <i_7347>:
    800076e0:	08211123          	sh	sp,130(sp)

00000000800076e4 <i_7348>:
    800076e4:	00185d1b          	srliw	s10,a6,0x1

00000000800076e8 <i_7349>:
    800076e8:	03ad5d33          	divu	s10,s10,s10

00000000800076ec <i_7350>:
    800076ec:	03b00713          	li	a4,59

00000000800076f0 <i_7351>:
    800076f0:	00e85fb3          	srl	t6,a6,a4

00000000800076f4 <i_7352>:
    800076f4:	18813a03          	ld	s4,392(sp)

00000000800076f8 <i_7353>:
    800076f8:	03411203          	lh	tp,52(sp)

00000000800076fc <i_7354>:
    800076fc:	03a86eb3          	rem	t4,a6,s10

0000000080007700 <i_7355>:
    80007700:	79da8397          	auipc	t2,0x79da8

0000000080007704 <i_7356>:
    80007704:	03425663          	ble	s4,tp,80007730 <i_7366>

0000000080007708 <i_7357>:
    80007708:	03262433          	mulhsu	s0,a2,s2

000000008000770c <i_7358>:
    8000770c:	007233b3          	sltu	t2,tp,t2

0000000080007710 <i_7359>:
    80007710:	00190913          	addi	s2,s2,1 # 4ff31001 <main-0x300cefff>
    80007714:	fcc944e3          	blt	s2,a2,800076dc <i_7346>

0000000080007718 <i_7360>:
    80007718:	024a4abb          	divw	s5,s4,tp

000000008000771c <i_7361>:
    8000771c:	02e487b3          	mul	a5,s1,a4

0000000080007720 <i_7362>:
    80007720:	02cec063          	blt	t4,a2,80007740 <i_7370>

0000000080007724 <i_7363>:
    80007724:	0c086813          	ori	a6,a6,192

0000000080007728 <i_7364>:
    80007728:	1d012603          	lw	a2,464(sp)

000000008000772c <i_7365>:
    8000772c:	ed013423          	sd	a6,-312(sp)

0000000080007730 <i_7366>:
    80007730:	00c67833          	and	a6,a2,a2

0000000080007734 <i_7367>:
    80007734:	e4b10a83          	lb	s5,-437(sp)

0000000080007738 <i_7368>:
    80007738:	0038161b          	slliw	a2,a6,0x3

000000008000773c <i_7369>:
    8000773c:	ea813683          	ld	a3,-344(sp)

0000000080007740 <i_7370>:
    80007740:	00000013          	nop

0000000080007744 <i_7371>:
    80007744:	e2a13c23          	sd	a0,-456(sp)

0000000080007748 <i_7372>:
    80007748:	7a700513          	li	a0,1959

000000008000774c <i_7373>:
    8000774c:	7b800813          	li	a6,1976

0000000080007750 <i_7374>:
    80007750:	e6816683          	lwu	a3,-408(sp)

0000000080007754 <i_7375>:
    80007754:	fec11a23          	sh	a2,-12(sp)

0000000080007758 <i_7376>:
    80007758:	00150513          	addi	a0,a0,1
    8000775c:	fea85ae3          	ble	a0,a6,80007750 <i_7374>

0000000080007760 <i_7377>:
    80007760:	b1d7c697          	auipc	a3,0xb1d7c

0000000080007764 <i_7378>:
    80007764:	001d9c13          	slli	s8,s11,0x1

0000000080007768 <i_7379>:
    80007768:	fdc12603          	lw	a2,-36(sp)

000000008000776c <i_7380>:
    8000776c:	e9e15e83          	lhu	t4,-354(sp)

0000000080007770 <i_7381>:
    80007770:	ee816503          	lwu	a0,-280(sp)

0000000080007774 <i_7382>:
    80007774:	0086e863          	bltu	a3,s0,80007784 <i_7386>

0000000080007778 <i_7383>:
    80007778:	1a416e83          	lwu	t4,420(sp)

000000008000777c <i_7384>:
    8000777c:	02d31333          	mulh	t1,t1,a3

0000000080007780 <i_7385>:
    80007780:	00e4e663          	bltu	s1,a4,8000778c <i_7388>

0000000080007784 <i_7386>:
    80007784:	00c6c263          	blt	a3,a2,80007788 <i_7387>

0000000080007788 <i_7387>:
    80007788:	e3013d83          	ld	s11,-464(sp)

000000008000778c <i_7388>:
    8000778c:	00ddc663          	blt	s11,a3,80007798 <i_7391>

0000000080007790 <i_7389>:
    80007790:	009c6a63          	bltu	s8,s1,800077a4 <i_7394>

0000000080007794 <i_7390>:
    80007794:	01a00593          	li	a1,26

0000000080007798 <i_7391>:
    80007798:	00bd9dbb          	sllw	s11,s11,a1

000000008000779c <i_7392>:
    8000779c:	01b5de63          	ble	s11,a1,800077b8 <i_7399>

00000000800077a0 <i_7393>:
    800077a0:	f5b13c23          	sd	s11,-168(sp)

00000000800077a4 <i_7394>:
    800077a4:	ec016d83          	lwu	s11,-320(sp)

00000000800077a8 <i_7395>:
    800077a8:	03bd1263          	bne	s10,s11,800077cc <i_7404>

00000000800077ac <i_7396>:
    800077ac:	400ded93          	ori	s11,s11,1024

00000000800077b0 <i_7397>:
    800077b0:	e8c10b03          	lb	s6,-372(sp)

00000000800077b4 <i_7398>:
    800077b4:	05b12223          	sw	s11,68(sp)

00000000800077b8 <i_7399>:
    800077b8:	01b70463          	beq	a4,s11,800077c0 <i_7401>

00000000800077bc <i_7400>:
    800077bc:	19b11823          	sh	s11,400(sp)

00000000800077c0 <i_7401>:
    800077c0:	12f14d83          	lbu	s11,303(sp)

00000000800077c4 <i_7402>:
    800077c4:	3b51e893          	ori	a7,gp,949

00000000800077c8 <i_7403>:
    800077c8:	016b5e63          	ble	s6,s6,800077e4 <i_7410>

00000000800077cc <i_7404>:
    800077cc:	4015d09b          	sraiw	ra,a1,0x1

00000000800077d0 <i_7405>:
    800077d0:	e6813d83          	ld	s11,-408(sp)

00000000800077d4 <i_7406>:
    800077d4:	e6714b03          	lbu	s6,-409(sp)

00000000800077d8 <i_7407>:
    800077d8:	02bd80b3          	mul	ra,s11,a1

00000000800077dc <i_7408>:
    800077dc:	e9c16b03          	lwu	s6,-356(sp)

00000000800077e0 <i_7409>:
    800077e0:	00bb7663          	bleu	a1,s6,800077ec <i_7412>

00000000800077e4 <i_7410>:
    800077e4:	013de863          	bltu	s11,s3,800077f4 <i_7414>

00000000800077e8 <i_7411>:
    800077e8:	0010fdb3          	and	s11,ra,ra

00000000800077ec <i_7412>:
    800077ec:	aaca8a93          	addi	s5,s5,-1364

00000000800077f0 <i_7413>:
    800077f0:	04a10e03          	lb	t3,74(sp)

00000000800077f4 <i_7414>:
    800077f4:	00000013          	nop

00000000800077f8 <i_7415>:
    800077f8:	003cda9b          	srliw	s5,s9,0x3

00000000800077fc <i_7416>:
    800077fc:	78c00093          	li	ra,1932

0000000080007800 <i_7417>:
    80007800:	79900c93          	li	s9,1945

0000000080007804 <i_7418>:
    80007804:	01ec8863          	beq	s9,t5,80007814 <i_7422>

0000000080007808 <i_7419>:
    80007808:	03100b13          	li	s6,49

000000008000780c <i_7420>:
    8000780c:	016b5db3          	srl	s11,s6,s6

0000000080007810 <i_7421>:
    80007810:	07613023          	sd	s6,96(sp)

0000000080007814 <i_7422>:
    80007814:	f1013403          	ld	s0,-240(sp)

0000000080007818 <i_7423>:
    80007818:	00000013          	nop

000000008000781c <i_7424>:
    8000781c:	83100b93          	li	s7,-1999

0000000080007820 <i_7425>:
    80007820:	83600a93          	li	s5,-1994

0000000080007824 <i_7426>:
    80007824:	001b8b93          	addi	s7,s7,1
    80007828:	ff5beee3          	bltu	s7,s5,80007824 <i_7426>

000000008000782c <i_7427>:
    8000782c:	015d8db3          	add	s11,s11,s5

0000000080007830 <i_7428>:
    80007830:	01c00a93          	li	s5,28

0000000080007834 <i_7429>:
    80007834:	015913b3          	sll	t2,s2,s5

0000000080007838 <i_7430>:
    80007838:	00000013          	nop

000000008000783c <i_7431>:
    8000783c:	00108093          	addi	ra,ra,1
    80007840:	fd9092e3          	bne	ra,s9,80007804 <i_7418>

0000000080007844 <i_7432>:
    80007844:	faa11783          	lh	a5,-86(sp)

0000000080007848 <i_7433>:
    80007848:	f9b10023          	sb	s11,-128(sp)

000000008000784c <i_7434>:
    8000784c:	007784b3          	add	s1,a5,t2

0000000080007850 <i_7435>:
    80007850:	17e10b03          	lb	s6,382(sp)

0000000080007854 <i_7436>:
    80007854:	fcc15e03          	lhu	t3,-52(sp)

0000000080007858 <i_7437>:
    80007858:	0364ebbb          	remw	s7,s1,s6

000000008000785c <i_7438>:
    8000785c:	002e1393          	slli	t2,t3,0x2

0000000080007860 <i_7439>:
    80007860:	19c12e23          	sw	t3,412(sp)

0000000080007864 <i_7440>:
    80007864:	0373c7b3          	div	a5,t2,s7

0000000080007868 <i_7441>:
    80007868:	02778263          	beq	a5,t2,8000788c <i_7450>

000000008000786c <i_7442>:
    8000786c:	e2712a23          	sw	t2,-460(sp)

0000000080007870 <i_7443>:
    80007870:	03c7df3b          	divuw	t5,a5,t3

0000000080007874 <i_7444>:
    80007874:	01f00693          	li	a3,31

0000000080007878 <i_7445>:
    80007878:	40d7d2bb          	sraw	t0,a5,a3

000000008000787c <i_7446>:
    8000787c:	00d9e1b3          	or	gp,s3,a3

0000000080007880 <i_7447>:
    80007880:	0e615483          	lhu	s1,230(sp)

0000000080007884 <i_7448>:
    80007884:	01c4d263          	ble	t3,s1,80007888 <i_7449>

0000000080007888 <i_7449>:
    80007888:	0b415483          	lhu	s1,180(sp)

000000008000788c <i_7450>:
    8000788c:	f5313023          	sd	s3,-192(sp)

0000000080007890 <i_7451>:
    80007890:	e4812283          	lw	t0,-440(sp)

0000000080007894 <i_7452>:
    80007894:	003e1e1b          	slliw	t3,t3,0x3

0000000080007898 <i_7453>:
    80007898:	0022d29b          	srliw	t0,t0,0x2

000000008000789c <i_7454>:
    8000789c:	005e0863          	beq	t3,t0,800078ac <i_7458>

00000000800078a0 <i_7455>:
    800078a0:	0be10323          	sb	t5,166(sp)

00000000800078a4 <i_7456>:
    800078a4:	f5416b83          	lwu	s7,-172(sp)

00000000800078a8 <i_7457>:
    800078a8:	00d00c13          	li	s8,13

00000000800078ac <i_7458>:
    800078ac:	01849a33          	sll	s4,s1,s8

00000000800078b0 <i_7459>:
    800078b0:	04e15e03          	lhu	t3,78(sp)

00000000800078b4 <i_7460>:
    800078b4:	005c6663          	bltu	s8,t0,800078c0 <i_7463>

00000000800078b8 <i_7461>:
    800078b8:	00e12023          	sw	a4,0(sp)

00000000800078bc <i_7462>:
    800078bc:	00000013          	nop

00000000800078c0 <i_7463>:
    800078c0:	e7d12623          	sw	t4,-404(sp)

00000000800078c4 <i_7464>:
    800078c4:	0a010603          	lb	a2,160(sp)

00000000800078c8 <i_7465>:
    800078c8:	7cb00493          	li	s1,1995

00000000800078cc <i_7466>:
    800078cc:	7dc00e93          	li	t4,2012

00000000800078d0 <i_7467>:
    800078d0:	017bb5b3          	sltu	a1,s7,s7

00000000800078d4 <i_7468>:
    800078d4:	00148493          	addi	s1,s1,1
    800078d8:	ffd4cce3          	blt	s1,t4,800078d0 <i_7467>

00000000800078dc <i_7469>:
    800078dc:	40cc05bb          	subw	a1,s8,a2

00000000800078e0 <i_7470>:
    800078e0:	0345d53b          	divuw	a0,a1,s4

00000000800078e4 <i_7471>:
    800078e4:	ea211903          	lh	s2,-350(sp)

00000000800078e8 <i_7472>:
    800078e8:	017b8663          	beq	s7,s7,800078f4 <i_7475>

00000000800078ec <i_7473>:
    800078ec:	0de10583          	lb	a1,222(sp)

00000000800078f0 <i_7474>:
    800078f0:	aa328b93          	addi	s7,t0,-1373 # 1fe9aaa3 <main-0x6016555d>

00000000800078f4 <i_7475>:
    800078f4:	13713423          	sd	s7,296(sp)

00000000800078f8 <i_7476>:
    800078f8:	e7d13023          	sd	t4,-416(sp)

00000000800078fc <i_7477>:
    800078fc:	004b8e63          	beq	s7,tp,80007918 <i_7484>

0000000080007900 <i_7478>:
    80007900:	03ce6463          	bltu	t3,t3,80007928 <i_7488>

0000000080007904 <i_7479>:
    80007904:	73472397          	auipc	t2,0x73472

0000000080007908 <i_7480>:
    80007908:	f7710c03          	lb	s8,-137(sp)

000000008000790c <i_7481>:
    8000790c:	0f012603          	lw	a2,240(sp)

0000000080007910 <i_7482>:
    80007910:	03450c33          	mul	s8,a0,s4

0000000080007914 <i_7483>:
    80007914:	018dac33          	slt	s8,s11,s8

0000000080007918 <i_7484>:
    80007918:	fea12a23          	sw	a0,-12(sp)

000000008000791c <i_7485>:
    8000791c:	f6c12503          	lw	a0,-148(sp)

0000000080007920 <i_7486>:
    80007920:	f3211d83          	lh	s11,-206(sp)

0000000080007924 <i_7487>:
    80007924:	19b10ba3          	sb	s11,407(sp)

0000000080007928 <i_7488>:
    80007928:	eec10b03          	lb	s6,-276(sp)

000000008000792c <i_7489>:
    8000792c:	01160e63          	beq	a2,a7,80007948 <i_7496>

0000000080007930 <i_7490>:
    80007930:	09416603          	lwu	a2,148(sp)

0000000080007934 <i_7491>:
    80007934:	f2a12e23          	sw	a0,-196(sp)

0000000080007938 <i_7492>:
    80007938:	fb811803          	lh	a6,-72(sp)

000000008000793c <i_7493>:
    8000793c:	1d013423          	sd	a6,456(sp)

0000000080007940 <i_7494>:
    80007940:	fec14803          	lbu	a6,-20(sp)

0000000080007944 <i_7495>:
    80007944:	00000013          	nop

0000000080007948 <i_7496>:
    80007948:	03082633          	mulhsu	a2,a6,a6

000000008000794c <i_7497>:
    8000794c:	011b65b3          	or	a1,s6,a7

0000000080007950 <i_7498>:
    80007950:	84c00413          	li	s0,-1972

0000000080007954 <i_7499>:
    80007954:	85400513          	li	a0,-1964

0000000080007958 <i_7500>:
    80007958:	01084a63          	blt	a6,a6,8000796c <i_7504>

000000008000795c <i_7501>:
    8000795c:	00140413          	addi	s0,s0,1 # 63568001 <main-0x1ca97fff>
    80007960:	fea41ce3          	bne	s0,a0,80007958 <i_7500>

0000000080007964 <i_7502>:
    80007964:	19815403          	lhu	s0,408(sp)

0000000080007968 <i_7503>:
    80007968:	18c14283          	lbu	t0,396(sp)

000000008000796c <i_7504>:
    8000796c:	e4f13c23          	sd	a5,-424(sp)

0000000080007970 <i_7505>:
    80007970:	00000013          	nop

0000000080007974 <i_7506>:
    80007974:	85400793          	li	a5,-1964

0000000080007978 <i_7507>:
    80007978:	86500193          	li	gp,-1947

000000008000797c <i_7508>:
    8000797c:	09013883          	ld	a7,144(sp)

0000000080007980 <i_7509>:
    80007980:	00586663          	bltu	a6,t0,8000798c <i_7512>

0000000080007984 <i_7510>:
    80007984:	1a513c23          	sd	t0,440(sp)

0000000080007988 <i_7511>:
    80007988:	01a5c663          	blt	a1,s10,80007994 <i_7514>

000000008000798c <i_7512>:
    8000798c:	01059863          	bne	a1,a6,8000799c <i_7516>

0000000080007990 <i_7513>:
    80007990:	e6410603          	lb	a2,-412(sp)

0000000080007994 <i_7514>:
    80007994:	00000013          	nop

0000000080007998 <i_7515>:
    80007998:	01200513          	li	a0,18

000000008000799c <i_7516>:
    8000799c:	00a61833          	sll	a6,a2,a0

00000000800079a0 <i_7517>:
    800079a0:	0f013803          	ld	a6,240(sp)

00000000800079a4 <i_7518>:
    800079a4:	4038589b          	sraiw	a7,a6,0x3

00000000800079a8 <i_7519>:
    800079a8:	1ac16603          	lwu	a2,428(sp)

00000000800079ac <i_7520>:
    800079ac:	00178793          	addi	a5,a5,1
    800079b0:	fcf1f6e3          	bleu	a5,gp,8000797c <i_7508>

00000000800079b4 <i_7521>:
    800079b4:	010dcdb3          	xor	s11,s11,a6

00000000800079b8 <i_7522>:
    800079b8:	0ec11123          	sh	a2,226(sp)

00000000800079bc <i_7523>:
    800079bc:	0e156c13          	ori	s8,a0,225

00000000800079c0 <i_7524>:
    800079c0:	eb811c23          	sh	s8,-328(sp)

00000000800079c4 <i_7525>:
    800079c4:	70cbb197          	auipc	gp,0x70cbb

00000000800079c8 <i_7526>:
    800079c8:	e2013183          	ld	gp,-480(sp)

00000000800079cc <i_7527>:
    800079cc:	01c1c263          	blt	gp,t3,800079d0 <i_7528>

00000000800079d0 <i_7528>:
    800079d0:	00c84c63          	blt	a6,a2,800079e8 <i_7534>

00000000800079d4 <i_7529>:
    800079d4:	02c2c2b3          	div	t0,t0,a2

00000000800079d8 <i_7530>:
    800079d8:	01bdf463          	bleu	s11,s11,800079e0 <i_7532>

00000000800079dc <i_7531>:
    800079dc:	01100d93          	li	s11,17

00000000800079e0 <i_7532>:
    800079e0:	01b1d4bb          	srlw	s1,gp,s11

00000000800079e4 <i_7533>:
    800079e4:	009dad33          	slt	s10,s11,s1

00000000800079e8 <i_7534>:
    800079e8:	01a2f263          	bleu	s10,t0,800079ec <i_7535>

00000000800079ec <i_7535>:
    800079ec:	029d4263          	blt	s10,s1,80007a10 <i_7544>

00000000800079f0 <i_7536>:
    800079f0:	ee511623          	sh	t0,-276(sp)

00000000800079f4 <i_7537>:
    800079f4:	0bb12a23          	sw	s11,180(sp)

00000000800079f8 <i_7538>:
    800079f8:	0052e263          	bltu	t0,t0,800079fc <i_7539>

00000000800079fc <i_7539>:
    800079fc:	01c00e93          	li	t4,28

0000000080007a00 <i_7540>:
    80007a00:	01dd1ebb          	sllw	t4,s10,t4

0000000080007a04 <i_7541>:
    80007a04:	03dee263          	bltu	t4,t4,80007a28 <i_7550>

0000000080007a08 <i_7542>:
    80007a08:	01b48863          	beq	s1,s11,80007a18 <i_7546>

0000000080007a0c <i_7543>:
    80007a0c:	029ec263          	blt	t4,s1,80007a30 <i_7552>

0000000080007a10 <i_7544>:
    80007a10:	0ec11603          	lh	a2,236(sp)

0000000080007a14 <i_7545>:
    80007a14:	f0711523          	sh	t2,-246(sp)

0000000080007a18 <i_7546>:
    80007a18:	e4810403          	lb	s0,-440(sp)

0000000080007a1c <i_7547>:
    80007a1c:	9d94e313          	ori	t1,s1,-1575

0000000080007a20 <i_7548>:
    80007a20:	c16d2413          	slti	s0,s10,-1002

0000000080007a24 <i_7549>:
    80007a24:	fa015403          	lhu	s0,-96(sp)

0000000080007a28 <i_7550>:
    80007a28:	01c00413          	li	s0,28

0000000080007a2c <i_7551>:
    80007a2c:	0084143b          	sllw	s0,s0,s0

0000000080007a30 <i_7552>:
    80007a30:	02842433          	mulhsu	s0,s0,s0

0000000080007a34 <i_7553>:
    80007a34:	0ba11f03          	lh	t5,186(sp)

0000000080007a38 <i_7554>:
    80007a38:	8a400e93          	li	t4,-1884

0000000080007a3c <i_7555>:
    80007a3c:	8b100393          	li	t2,-1871

0000000080007a40 <i_7556>:
    80007a40:	00846e63          	bltu	s0,s0,80007a5c <i_7563>

0000000080007a44 <i_7557>:
    80007a44:	00000013          	nop

0000000080007a48 <i_7558>:
    80007a48:	e7015f03          	lhu	t5,-400(sp)

0000000080007a4c <i_7559>:
    80007a4c:	19c12283          	lw	t0,412(sp)

0000000080007a50 <i_7560>:
    80007a50:	13015983          	lhu	s3,304(sp)

0000000080007a54 <i_7561>:
    80007a54:	09c14083          	lbu	ra,156(sp)

0000000080007a58 <i_7562>:
    80007a58:	0210f0b3          	remu	ra,ra,ra

0000000080007a5c <i_7563>:
    80007a5c:	03b0edbb          	remw	s11,ra,s11

0000000080007a60 <i_7564>:
    80007a60:	01b0da63          	ble	s11,ra,80007a74 <i_7568>

0000000080007a64 <i_7565>:
    80007a64:	001e8e93          	addi	t4,t4,1
    80007a68:	fdd3fce3          	bleu	t4,t2,80007a40 <i_7556>

0000000080007a6c <i_7566>:
    80007a6c:	033f63bb          	remw	t2,t5,s3

0000000080007a70 <i_7567>:
    80007a70:	f4711123          	sh	t2,-190(sp)

0000000080007a74 <i_7568>:
    80007a74:	1bc15383          	lhu	t2,444(sp)

0000000080007a78 <i_7569>:
    80007a78:	007c0c63          	beq	s8,t2,80007a90 <i_7575>

0000000080007a7c <i_7570>:
    80007a7c:	ee711323          	sh	t2,-282(sp)

0000000080007a80 <i_7571>:
    80007a80:	f7415a03          	lhu	s4,-140(sp)

0000000080007a84 <i_7572>:
    80007a84:	0044c463          	blt	s1,tp,80007a8c <i_7574>

0000000080007a88 <i_7573>:
    80007a88:	1d910aa3          	sb	s9,469(sp)

0000000080007a8c <i_7574>:
    80007a8c:	00712223          	sw	t2,4(sp)

0000000080007a90 <i_7575>:
    80007a90:	06013383          	ld	t2,96(sp)

0000000080007a94 <i_7576>:
    80007a94:	16011683          	lh	a3,352(sp)

0000000080007a98 <i_7577>:
    80007a98:	0013d693          	srli	a3,t2,0x1

0000000080007a9c <i_7578>:
    80007a9c:	15812303          	lw	t1,344(sp)

0000000080007aa0 <i_7579>:
    80007aa0:	0f812c83          	lw	s9,248(sp)

0000000080007aa4 <i_7580>:
    80007aa4:	aea5c593          	xori	a1,a1,-1302

0000000080007aa8 <i_7581>:
    80007aa8:	0033d493          	srli	s1,t2,0x3

0000000080007aac <i_7582>:
    80007aac:	02b370b3          	remu	ra,t1,a1

0000000080007ab0 <i_7583>:
    80007ab0:	e3010d83          	lb	s11,-464(sp)

0000000080007ab4 <i_7584>:
    80007ab4:	08013303          	ld	t1,128(sp)

0000000080007ab8 <i_7585>:
    80007ab8:	0e110923          	sb	ra,242(sp)

0000000080007abc <i_7586>:
    80007abc:	0c310b03          	lb	s6,195(sp)

0000000080007ac0 <i_7587>:
    80007ac0:	00137863          	bleu	ra,t1,80007ad0 <i_7591>

0000000080007ac4 <i_7588>:
    80007ac4:	02658063          	beq	a1,t1,80007ae4 <i_7596>

0000000080007ac8 <i_7589>:
    80007ac8:	03b37063          	bleu	s11,t1,80007ae8 <i_7597>

0000000080007acc <i_7590>:
    80007acc:	02e46333          	rem	t1,s0,a4

0000000080007ad0 <i_7591>:
    80007ad0:	00500a13          	li	s4,5

0000000080007ad4 <i_7592>:
    80007ad4:	014e5dbb          	srlw	s11,t3,s4

0000000080007ad8 <i_7593>:
    80007ad8:	d497b1b7          	lui	gp,0xd497b

0000000080007adc <i_7594>:
    80007adc:	03413423          	sd	s4,40(sp)

0000000080007ae0 <i_7595>:
    80007ae0:	4011d19b          	sraiw	gp,gp,0x1

0000000080007ae4 <i_7596>:
    80007ae4:	00000013          	nop

0000000080007ae8 <i_7597>:
    80007ae8:	00000013          	nop

0000000080007aec <i_7598>:
    80007aec:	638efd93          	andi	s11,t4,1592

0000000080007af0 <i_7599>:
    80007af0:	87800713          	li	a4,-1928

0000000080007af4 <i_7600>:
    80007af4:	88800e13          	li	t3,-1912

0000000080007af8 <i_7601>:
    80007af8:	f6c10503          	lb	a0,-148(sp)

0000000080007afc <i_7602>:
    80007afc:	00170713          	addi	a4,a4,1
    80007b00:	ffc71ce3          	bne	a4,t3,80007af8 <i_7601>

0000000080007b04 <i_7603>:
    80007b04:	ebb12023          	sw	s11,-352(sp)

0000000080007b08 <i_7604>:
    80007b08:	e5c11b23          	sh	t3,-426(sp)

0000000080007b0c <i_7605>:
    80007b0c:	01454c63          	blt	a0,s4,80007b24 <i_7611>

0000000080007b10 <i_7606>:
    80007b10:	ff412483          	lw	s1,-12(sp)

0000000080007b14 <i_7607>:
    80007b14:	41038e3b          	subw	t3,t2,a6

0000000080007b18 <i_7608>:
    80007b18:	40ae8cbb          	subw	s9,t4,a0

0000000080007b1c <i_7609>:
    80007b1c:	03912c23          	sw	s9,56(sp)

0000000080007b20 <i_7610>:
    80007b20:	02acd263          	ble	a0,s9,80007b44 <i_7619>

0000000080007b24 <i_7611>:
    80007b24:	012e1c63          	bne	t3,s2,80007b3c <i_7617>

0000000080007b28 <i_7612>:
    80007b28:	004e1513          	slli	a0,t3,0x4

0000000080007b2c <i_7613>:
    80007b2c:	f83f8f93          	addi	t6,t6,-125

0000000080007b30 <i_7614>:
    80007b30:	f4815c83          	lhu	s9,-184(sp)

0000000080007b34 <i_7615>:
    80007b34:	f3f13c23          	sd	t6,-200(sp)

0000000080007b38 <i_7616>:
    80007b38:	eca12a23          	sw	a0,-300(sp)

0000000080007b3c <i_7617>:
    80007b3c:	01c50cb3          	add	s9,a0,t3

0000000080007b40 <i_7618>:
    80007b40:	003cdf93          	srli	t6,s9,0x3

0000000080007b44 <i_7619>:
    80007b44:	f3c13c23          	sd	t3,-200(sp)

0000000080007b48 <i_7620>:
    80007b48:	e4a13823          	sd	a0,-432(sp)

0000000080007b4c <i_7621>:
    80007b4c:	ed412083          	lw	ra,-300(sp)

0000000080007b50 <i_7622>:
    80007b50:	019e5863          	ble	s9,t3,80007b60 <i_7626>

0000000080007b54 <i_7623>:
    80007b54:	e3f13823          	sd	t6,-464(sp)

0000000080007b58 <i_7624>:
    80007b58:	ea816203          	lwu	tp,-344(sp)

0000000080007b5c <i_7625>:
    80007b5c:	01f27663          	bleu	t6,tp,80007b68 <i_7628>

0000000080007b60 <i_7626>:
    80007b60:	07811303          	lh	t1,120(sp)

0000000080007b64 <i_7627>:
    80007b64:	004320b3          	slt	ra,t1,tp

0000000080007b68 <i_7628>:
    80007b68:	f0610623          	sb	t1,-244(sp)

0000000080007b6c <i_7629>:
    80007b6c:	02136a3b          	remw	s4,t1,ra

0000000080007b70 <i_7630>:
    80007b70:	03012203          	lw	tp,48(sp)

0000000080007b74 <i_7631>:
    80007b74:	20d0f313          	andi	t1,ra,525

0000000080007b78 <i_7632>:
    80007b78:	e27a4793          	xori	a5,s4,-473

0000000080007b7c <i_7633>:
    80007b7c:	e8a12823          	sw	a0,-368(sp)

0000000080007b80 <i_7634>:
    80007b80:	0197e263          	bltu	a5,s9,80007b84 <i_7635>

0000000080007b84 <i_7635>:
    80007b84:	001a3db3          	sltu	s11,s4,ra

0000000080007b88 <i_7636>:
    80007b88:	f8112223          	sw	ra,-124(sp)

0000000080007b8c <i_7637>:
    80007b8c:	fc613c23          	sd	t1,-40(sp)

0000000080007b90 <i_7638>:
    80007b90:	03b080b3          	mul	ra,ra,s11

0000000080007b94 <i_7639>:
    80007b94:	e6110ea3          	sb	ra,-387(sp)

0000000080007b98 <i_7640>:
    80007b98:	00000013          	nop

0000000080007b9c <i_7641>:
    80007b9c:	80300093          	li	ra,-2045

0000000080007ba0 <i_7642>:
    80007ba0:	81600613          	li	a2,-2026

0000000080007ba4 <i_7643>:
    80007ba4:	01b86263          	bltu	a6,s11,80007ba8 <i_7644>

0000000080007ba8 <i_7644>:
    80007ba8:	f8e15c03          	lhu	s8,-114(sp)

0000000080007bac <i_7645>:
    80007bac:	00762e33          	slt	t3,a2,t2

0000000080007bb0 <i_7646>:
    80007bb0:	03ce1db3          	mulh	s11,t3,t3

0000000080007bb4 <i_7647>:
    80007bb4:	02cc023b          	mulw	tp,s8,a2

0000000080007bb8 <i_7648>:
    80007bb8:	00108093          	addi	ra,ra,1
    80007bbc:	fe1614e3          	bne	a2,ra,80007ba4 <i_7643>

0000000080007bc0 <i_7649>:
    80007bc0:	f4c11b03          	lh	s6,-180(sp)

0000000080007bc4 <i_7650>:
    80007bc4:	03cc43bb          	divw	t2,s8,t3

0000000080007bc8 <i_7651>:
    80007bc8:	fe111823          	sh	ra,-16(sp)

0000000080007bcc <i_7652>:
    80007bcc:	ee512e23          	sw	t0,-260(sp)

0000000080007bd0 <i_7653>:
    80007bd0:	ef411c03          	lh	s8,-268(sp)

0000000080007bd4 <i_7654>:
    80007bd4:	01900e93          	li	t4,25

0000000080007bd8 <i_7655>:
    80007bd8:	41db5bb3          	sra	s7,s6,t4

0000000080007bdc <i_7656>:
    80007bdc:	02416b03          	lwu	s6,36(sp)

0000000080007be0 <i_7657>:
    80007be0:	e8b11d23          	sh	a1,-358(sp)

0000000080007be4 <i_7658>:
    80007be4:	41430333          	sub	t1,t1,s4

0000000080007be8 <i_7659>:
    80007be8:	f1812803          	lw	a6,-232(sp)

0000000080007bec <i_7660>:
    80007bec:	01500c93          	li	s9,21

0000000080007bf0 <i_7661>:
    80007bf0:	0198193b          	sllw	s2,a6,s9

0000000080007bf4 <i_7662>:
    80007bf4:	037c9263          	bne	s9,s7,80007c18 <i_7671>

0000000080007bf8 <i_7663>:
    80007bf8:	fb910523          	sb	s9,-86(sp)

0000000080007bfc <i_7664>:
    80007bfc:	02c11303          	lh	t1,44(sp)

0000000080007c00 <i_7665>:
    80007c00:	00697263          	bleu	t1,s2,80007c04 <i_7666>

0000000080007c04 <i_7666>:
    80007c04:	1b913c23          	sd	s9,440(sp)

0000000080007c08 <i_7667>:
    80007c08:	019cbcb3          	sltu	s9,s9,s9

0000000080007c0c <i_7668>:
    80007c0c:	02631063          	bne	t1,t1,80007c2c <i_7676>

0000000080007c10 <i_7669>:
    80007c10:	e7c11b23          	sh	t3,-394(sp)

0000000080007c14 <i_7670>:
    80007c14:	037cce33          	div	t3,s9,s7

0000000080007c18 <i_7671>:
    80007c18:	01fe6fb3          	or	t6,t3,t6

0000000080007c1c <i_7672>:
    80007c1c:	019d7663          	bleu	s9,s10,80007c28 <i_7675>

0000000080007c20 <i_7673>:
    80007c20:	1deb7e93          	andi	t4,s6,478

0000000080007c24 <i_7674>:
    80007c24:	03ffd063          	ble	t6,t6,80007c44 <i_7682>

0000000080007c28 <i_7675>:
    80007c28:	1d811c23          	sh	s8,472(sp)

0000000080007c2c <i_7676>:
    80007c2c:	f8012783          	lw	a5,-128(sp)

0000000080007c30 <i_7677>:
    80007c30:	004cd793          	srli	a5,s9,0x4

0000000080007c34 <i_7678>:
    80007c34:	0fc16b03          	lwu	s6,252(sp)

0000000080007c38 <i_7679>:
    80007c38:	e2412983          	lw	s3,-476(sp)

0000000080007c3c <i_7680>:
    80007c3c:	e1c10f83          	lb	t6,-484(sp)

0000000080007c40 <i_7681>:
    80007c40:	e4013283          	ld	t0,-448(sp)

0000000080007c44 <i_7682>:
    80007c44:	401fdf93          	srai	t6,t6,0x1

0000000080007c48 <i_7683>:
    80007c48:	025f8063          	beq	t6,t0,80007c68 <i_7691>

0000000080007c4c <i_7684>:
    80007c4c:	ef416b03          	lwu	s6,-268(sp)

0000000080007c50 <i_7685>:
    80007c50:	15914f83          	lbu	t6,345(sp)

0000000080007c54 <i_7686>:
    80007c54:	12c11b03          	lh	s6,300(sp)

0000000080007c58 <i_7687>:
    80007c58:	03f29063          	bne	t0,t6,80007c78 <i_7695>

0000000080007c5c <i_7688>:
    80007c5c:	03f2e263          	bltu	t0,t6,80007c80 <i_7697>

0000000080007c60 <i_7689>:
    80007c60:	1ba11483          	lh	s1,442(sp)

0000000080007c64 <i_7690>:
    80007c64:	02e2eeb3          	rem	t4,t0,a4

0000000080007c68 <i_7691>:
    80007c68:	007bfcb3          	and	s9,s7,t2

0000000080007c6c <i_7692>:
    80007c6c:	f6d10a83          	lb	s5,-147(sp)

0000000080007c70 <i_7693>:
    80007c70:	06112a23          	sw	ra,116(sp)

0000000080007c74 <i_7694>:
    80007c74:	03516ab3          	rem	s5,sp,s5

0000000080007c78 <i_7695>:
    80007c78:	00000013          	nop

0000000080007c7c <i_7696>:
    80007c7c:	ef214b03          	lbu	s6,-270(sp)

0000000080007c80 <i_7697>:
    80007c80:	11e15683          	lhu	a3,286(sp)

0000000080007c84 <i_7698>:
    80007c84:	14615303          	lhu	t1,326(sp)

0000000080007c88 <i_7699>:
    80007c88:	74300393          	li	t2,1859

0000000080007c8c <i_7700>:
    80007c8c:	75300093          	li	ra,1875

0000000080007c90 <i_7701>:
    80007c90:	e1611e23          	sh	s6,-484(sp)

0000000080007c94 <i_7702>:
    80007c94:	001b4fb3          	xor	t6,s6,ra

0000000080007c98 <i_7703>:
    80007c98:	00800793          	li	a5,8

0000000080007c9c <i_7704>:
    80007c9c:	00f8dabb          	srlw	s5,a7,a5

0000000080007ca0 <i_7705>:
    80007ca0:	15513423          	sd	s5,328(sp)

0000000080007ca4 <i_7706>:
    80007ca4:	00138393          	addi	t2,t2,1 # f3479905 <_end+0x734694f1>
    80007ca8:	fe13e4e3          	bltu	t2,ra,80007c90 <i_7701>

0000000080007cac <i_7707>:
    80007cac:	00929e63          	bne	t0,s1,80007cc8 <i_7714>

0000000080007cb0 <i_7708>:
    80007cb0:	0397d063          	ble	s9,a5,80007cd0 <i_7716>

0000000080007cb4 <i_7709>:
    80007cb4:	00b00c93          	li	s9,11

0000000080007cb8 <i_7710>:
    80007cb8:	419cd7b3          	sra	a5,s9,s9

0000000080007cbc <i_7711>:
    80007cbc:	027ff7bb          	remuw	a5,t6,t2

0000000080007cc0 <i_7712>:
    80007cc0:	03813403          	ld	s0,56(sp)

0000000080007cc4 <i_7713>:
    80007cc4:	1a416b83          	lwu	s7,420(sp)

0000000080007cc8 <i_7714>:
    80007cc8:	01d3a3b3          	slt	t2,t2,t4

0000000080007ccc <i_7715>:
    80007ccc:	11012b03          	lw	s6,272(sp)

0000000080007cd0 <i_7716>:
    80007cd0:	ecc16383          	lwu	t2,-308(sp)

0000000080007cd4 <i_7717>:
    80007cd4:	00000013          	nop

0000000080007cd8 <i_7718>:
    80007cd8:	7b500413          	li	s0,1973

0000000080007cdc <i_7719>:
    80007cdc:	7c800793          	li	a5,1992

0000000080007ce0 <i_7720>:
    80007ce0:	04710023          	sb	t2,64(sp)

0000000080007ce4 <i_7721>:
    80007ce4:	00140413          	addi	s0,s0,1
    80007ce8:	fef44ce3          	blt	s0,a5,80007ce0 <i_7720>

0000000080007cec <i_7722>:
    80007cec:	e9412b03          	lw	s6,-364(sp)

0000000080007cf0 <i_7723>:
    80007cf0:	007b5663          	ble	t2,s6,80007cfc <i_7726>

0000000080007cf4 <i_7724>:
    80007cf4:	0b215a03          	lhu	s4,178(sp)

0000000080007cf8 <i_7725>:
    80007cf8:	f6016903          	lwu	s2,-160(sp)

0000000080007cfc <i_7726>:
    80007cfc:	e2c12903          	lw	s2,-468(sp)

0000000080007d00 <i_7727>:
    80007d00:	01813903          	ld	s2,24(sp)

0000000080007d04 <i_7728>:
    80007d04:	1ae15903          	lhu	s2,430(sp)

0000000080007d08 <i_7729>:
    80007d08:	ed415d03          	lhu	s10,-300(sp)

0000000080007d0c <i_7730>:
    80007d0c:	0d210623          	sb	s2,204(sp)

0000000080007d10 <i_7731>:
    80007d10:	007d6a63          	bltu	s10,t2,80007d24 <i_7736>

0000000080007d14 <i_7732>:
    80007d14:	ef413023          	sd	s4,-288(sp)

0000000080007d18 <i_7733>:
    80007d18:	0ac12f83          	lw	t6,172(sp)

0000000080007d1c <i_7734>:
    80007d1c:	0fa13823          	sd	s10,240(sp)

0000000080007d20 <i_7735>:
    80007d20:	03f52733          	mulhsu	a4,a0,t6

0000000080007d24 <i_7736>:
    80007d24:	08a10b23          	sb	a0,150(sp)

0000000080007d28 <i_7737>:
    80007d28:	02a74fbb          	divw	t6,a4,a0

0000000080007d2c <i_7738>:
    80007d2c:	7d800d13          	li	s10,2008

0000000080007d30 <i_7739>:
    80007d30:	7e900513          	li	a0,2025

0000000080007d34 <i_7740>:
    80007d34:	01816703          	lwu	a4,24(sp)

0000000080007d38 <i_7741>:
    80007d38:	f6e100a3          	sb	a4,-159(sp)

0000000080007d3c <i_7742>:
    80007d3c:	15910283          	lb	t0,345(sp)

0000000080007d40 <i_7743>:
    80007d40:	81e00893          	li	a7,-2018

0000000080007d44 <i_7744>:
    80007d44:	82600413          	li	s0,-2010

0000000080007d48 <i_7745>:
    80007d48:	00188893          	addi	a7,a7,1
    80007d4c:	fe88cee3          	blt	a7,s0,80007d48 <i_7745>

0000000080007d50 <i_7746>:
    80007d50:	88d2c913          	xori	s2,t0,-1907

0000000080007d54 <i_7747>:
    80007d54:	eca15703          	lhu	a4,-310(sp)

0000000080007d58 <i_7748>:
    80007d58:	00800c13          	li	s8,8

0000000080007d5c <i_7749>:
    80007d5c:	01895933          	srl	s2,s2,s8

0000000080007d60 <i_7750>:
    80007d60:	001d0d13          	addi	s10,s10,1
    80007d64:	fcad68e3          	bltu	s10,a0,80007d34 <i_7740>

0000000080007d68 <i_7751>:
    80007d68:	03d00193          	li	gp,61

0000000080007d6c <i_7752>:
    80007d6c:	00385833          	srl	a6,a6,gp

0000000080007d70 <i_7753>:
    80007d70:	00518e63          	beq	gp,t0,80007d8c <i_7760>

0000000080007d74 <i_7754>:
    80007d74:	032746bb          	divw	a3,a4,s2

0000000080007d78 <i_7755>:
    80007d78:	11214683          	lbu	a3,274(sp)

0000000080007d7c <i_7756>:
    80007d7c:	f7213423          	sd	s2,-152(sp)

0000000080007d80 <i_7757>:
    80007d80:	0301e3bb          	remw	t2,gp,a6

0000000080007d84 <i_7758>:
    80007d84:	84be5c37          	lui	s8,0x84be5

0000000080007d88 <i_7759>:
    80007d88:	0ce13423          	sd	a4,200(sp)

0000000080007d8c <i_7760>:
    80007d8c:	16d11223          	sh	a3,356(sp)

0000000080007d90 <i_7761>:
    80007d90:	16012703          	lw	a4,352(sp)

0000000080007d94 <i_7762>:
    80007d94:	01970cb3          	add	s9,a4,s9

0000000080007d98 <i_7763>:
    80007d98:	0194e733          	or	a4,s1,s9

0000000080007d9c <i_7764>:
    80007d9c:	1c114703          	lbu	a4,449(sp)

0000000080007da0 <i_7765>:
    80007da0:	f7a14983          	lbu	s3,-134(sp)

0000000080007da4 <i_7766>:
    80007da4:	00e77463          	bleu	a4,a4,80007dac <i_7768>

0000000080007da8 <i_7767>:
    80007da8:	0da11b03          	lh	s6,218(sp)

0000000080007dac <i_7768>:
    80007dac:	ffa14d03          	lbu	s10,-6(sp)

0000000080007db0 <i_7769>:
    80007db0:	ed011323          	sh	a6,-314(sp)

0000000080007db4 <i_7770>:
    80007db4:	0311583b          	divuw	a6,sp,a7

0000000080007db8 <i_7771>:
    80007db8:	f8813803          	ld	a6,-120(sp)

0000000080007dbc <i_7772>:
    80007dbc:	03081fb3          	mulh	t6,a6,a6

0000000080007dc0 <i_7773>:
    80007dc0:	01fd4c63          	blt	s10,t6,80007dd8 <i_7779>

0000000080007dc4 <i_7774>:
    80007dc4:	18416c03          	lwu	s8,388(sp)

0000000080007dc8 <i_7775>:
    80007dc8:	010f8d33          	add	s10,t6,a6

0000000080007dcc <i_7776>:
    80007dcc:	fd813f83          	ld	t6,-40(sp)

0000000080007dd0 <i_7777>:
    80007dd0:	fd0101a3          	sb	a6,-61(sp)

0000000080007dd4 <i_7778>:
    80007dd4:	015c7193          	andi	gp,s8,21

0000000080007dd8 <i_7779>:
    80007dd8:	49987293          	andi	t0,a6,1177

0000000080007ddc <i_7780>:
    80007ddc:	004d7463          	bleu	tp,s10,80007de4 <i_7782>

0000000080007de0 <i_7781>:
    80007de0:	03fffd33          	remu	s10,t6,t6

0000000080007de4 <i_7782>:
    80007de4:	03a81c33          	mulh	s8,a6,s10

0000000080007de8 <i_7783>:
    80007de8:	010fda63          	ble	a6,t6,80007dfc <i_7788>

0000000080007dec <i_7784>:
    80007dec:	028c5533          	divu	a0,s8,s0

0000000080007df0 <i_7785>:
    80007df0:	004d169b          	slliw	a3,s10,0x4

0000000080007df4 <i_7786>:
    80007df4:	02d46433          	rem	s0,s0,a3

0000000080007df8 <i_7787>:
    80007df8:	cbe6b693          	sltiu	a3,a3,-834

0000000080007dfc <i_7788>:
    80007dfc:	0286f263          	bleu	s0,a3,80007e20 <i_7797>

0000000080007e00 <i_7789>:
    80007e00:	02857933          	remu	s2,a0,s0

0000000080007e04 <i_7790>:
    80007e04:	00141693          	slli	a3,s0,0x1

0000000080007e08 <i_7791>:
    80007e08:	00d97c33          	and	s8,s2,a3

0000000080007e0c <i_7792>:
    80007e0c:	fc013403          	ld	s0,-64(sp)

0000000080007e10 <i_7793>:
    80007e10:	f7210383          	lb	t2,-142(sp)

0000000080007e14 <i_7794>:
    80007e14:	63083813          	sltiu	a6,a6,1584

0000000080007e18 <i_7795>:
    80007e18:	00000013          	nop

0000000080007e1c <i_7796>:
    80007e1c:	03cfc3bb          	divw	t2,t6,t3

0000000080007e20 <i_7797>:
    80007e20:	00000013          	nop

0000000080007e24 <i_7798>:
    80007e24:	f7214803          	lbu	a6,-142(sp)

0000000080007e28 <i_7799>:
    80007e28:	75900b93          	li	s7,1881

0000000080007e2c <i_7800>:
    80007e2c:	76b00993          	li	s3,1899

0000000080007e30 <i_7801>:
    80007e30:	02514803          	lbu	a6,37(sp)

0000000080007e34 <i_7802>:
    80007e34:	001b8b93          	addi	s7,s7,1
    80007e38:	ff79fce3          	bleu	s7,s3,80007e30 <i_7801>

0000000080007e3c <i_7803>:
    80007e3c:	fa013c03          	ld	s8,-96(sp)

0000000080007e40 <i_7804>:
    80007e40:	0103e663          	bltu	t2,a6,80007e4c <i_7807>

0000000080007e44 <i_7805>:
    80007e44:	404ede93          	srai	t4,t4,0x4

0000000080007e48 <i_7806>:
    80007e48:	f0412f03          	lw	t5,-252(sp)

0000000080007e4c <i_7807>:
    80007e4c:	00a00193          	li	gp,10

0000000080007e50 <i_7808>:
    80007e50:	0033dc3b          	srlw	s8,t2,gp

0000000080007e54 <i_7809>:
    80007e54:	88100393          	li	t2,-1919

0000000080007e58 <i_7810>:
    80007e58:	88300d13          	li	s10,-1917

0000000080007e5c <i_7811>:
    80007e5c:	018d0433          	add	s0,s10,s8

0000000080007e60 <i_7812>:
    80007e60:	01a3ec63          	bltu	t2,s10,80007e78 <i_7818>

0000000080007e64 <i_7813>:
    80007e64:	fcc12c03          	lw	s8,-52(sp)

0000000080007e68 <i_7814>:
    80007e68:	e1211e23          	sh	s2,-484(sp)

0000000080007e6c <i_7815>:
    80007e6c:	01814fb3          	xor	t6,sp,s8

0000000080007e70 <i_7816>:
    80007e70:	f7b10403          	lb	s0,-133(sp)

0000000080007e74 <i_7817>:
    80007e74:	07f11023          	sh	t6,96(sp)

0000000080007e78 <i_7818>:
    80007e78:	00000013          	nop

0000000080007e7c <i_7819>:
    80007e7c:	00000013          	nop

0000000080007e80 <i_7820>:
    80007e80:	403c579b          	sraiw	a5,s8,0x3

0000000080007e84 <i_7821>:
    80007e84:	0e113423          	sd	ra,232(sp)

0000000080007e88 <i_7822>:
    80007e88:	e6215583          	lhu	a1,-414(sp)

0000000080007e8c <i_7823>:
    80007e8c:	f8310c03          	lb	s8,-125(sp)

0000000080007e90 <i_7824>:
    80007e90:	f4f12623          	sw	a5,-180(sp)

0000000080007e94 <i_7825>:
    80007e94:	00138393          	addi	t2,t2,1
    80007e98:	fda3e2e3          	bltu	t2,s10,80007e5c <i_7811>

0000000080007e9c <i_7826>:
    80007e9c:	03f7eabb          	remw	s5,a5,t6

0000000080007ea0 <i_7827>:
    80007ea0:	3e65f593          	andi	a1,a1,998

0000000080007ea4 <i_7828>:
    80007ea4:	02f787bb          	mulw	a5,a5,a5

0000000080007ea8 <i_7829>:
    80007ea8:	00b0fc63          	bleu	a1,ra,80007ec0 <i_7835>

0000000080007eac <i_7830>:
    80007eac:	00f59463          	bne	a1,a5,80007eb4 <i_7832>

0000000080007eb0 <i_7831>:
    80007eb0:	1c3aa293          	slti	t0,s5,451

0000000080007eb4 <i_7832>:
    80007eb4:	f8f106a3          	sb	a5,-115(sp)

0000000080007eb8 <i_7833>:
    80007eb8:	00013783          	ld	a5,0(sp)

0000000080007ebc <i_7834>:
    80007ebc:	eb812a83          	lw	s5,-328(sp)

0000000080007ec0 <i_7835>:
    80007ec0:	fb811303          	lh	t1,-72(sp)

0000000080007ec4 <i_7836>:
    80007ec4:	01700593          	li	a1,23

0000000080007ec8 <i_7837>:
    80007ec8:	00b7debb          	srlw	t4,a5,a1

0000000080007ecc <i_7838>:
    80007ecc:	e6613023          	sd	t1,-416(sp)

0000000080007ed0 <i_7839>:
    80007ed0:	1db14903          	lbu	s2,475(sp)

0000000080007ed4 <i_7840>:
    80007ed4:	9bb77813          	andi	a6,a4,-1605

0000000080007ed8 <i_7841>:
    80007ed8:	13016d03          	lwu	s10,304(sp)

0000000080007edc <i_7842>:
    80007edc:	81700993          	li	s3,-2025

0000000080007ee0 <i_7843>:
    80007ee0:	81b00913          	li	s2,-2021

0000000080007ee4 <i_7844>:
    80007ee4:	e9312823          	sw	s3,-368(sp)

0000000080007ee8 <i_7845>:
    80007ee8:	03a94333          	div	t1,s2,s10

0000000080007eec <i_7846>:
    80007eec:	1a615c83          	lhu	s9,422(sp)

0000000080007ef0 <i_7847>:
    80007ef0:	026cc33b          	divw	t1,s9,t1

0000000080007ef4 <i_7848>:
    80007ef4:	00900d13          	li	s10,9

0000000080007ef8 <i_7849>:
    80007ef8:	01a91eb3          	sll	t4,s2,s10

0000000080007efc <i_7850>:
    80007efc:	00634663          	blt	t1,t1,80007f08 <i_7853>

0000000080007f00 <i_7851>:
    80007f00:	0029149b          	slliw	s1,s2,0x2

0000000080007f04 <i_7852>:
    80007f04:	18510fa3          	sb	t0,415(sp)

0000000080007f08 <i_7853>:
    80007f08:	01a37333          	and	t1,t1,s10

0000000080007f0c <i_7854>:
    80007f0c:	001f9f93          	slli	t6,t6,0x1

0000000080007f10 <i_7855>:
    80007f10:	00198993          	addi	s3,s3,1
    80007f14:	fd2998e3          	bne	s3,s2,80007ee4 <i_7844>

0000000080007f18 <i_7856>:
    80007f18:	0069e633          	or	a2,s3,t1

0000000080007f1c <i_7857>:
    80007f1c:	186107a3          	sb	t1,399(sp)

0000000080007f20 <i_7858>:
    80007f20:	03f4e263          	bltu	s1,t6,80007f44 <i_7867>

0000000080007f24 <i_7859>:
    80007f24:	fec16483          	lwu	s1,-20(sp)

0000000080007f28 <i_7860>:
    80007f28:	01f4fe63          	bleu	t6,s1,80007f44 <i_7867>

0000000080007f2c <i_7861>:
    80007f2c:	404fd093          	srai	ra,t6,0x4

0000000080007f30 <i_7862>:
    80007f30:	16113c23          	sd	ra,376(sp)

0000000080007f34 <i_7863>:
    80007f34:	19411483          	lh	s1,404(sp)

0000000080007f38 <i_7864>:
    80007f38:	1e015d83          	lhu	s11,480(sp)

0000000080007f3c <i_7865>:
    80007f3c:	029de0bb          	remw	ra,s11,s1

0000000080007f40 <i_7866>:
    80007f40:	0310e8bb          	remw	a7,ra,a7

0000000080007f44 <i_7867>:
    80007f44:	01b8e263          	bltu	a7,s11,80007f48 <i_7868>

0000000080007f48 <i_7868>:
    80007f48:	fd514483          	lbu	s1,-43(sp)

0000000080007f4c <i_7869>:
    80007f4c:	fe211983          	lh	s3,-30(sp)

0000000080007f50 <i_7870>:
    80007f50:	409083b3          	sub	t2,ra,s1

0000000080007f54 <i_7871>:
    80007f54:	15410fa3          	sb	s4,351(sp)

0000000080007f58 <i_7872>:
    80007f58:	f7210183          	lb	gp,-142(sp)

0000000080007f5c <i_7873>:
    80007f5c:	00389193          	slli	gp,a7,0x3

0000000080007f60 <i_7874>:
    80007f60:	00e9e463          	bltu	s3,a4,80007f68 <i_7876>

0000000080007f64 <i_7875>:
    80007f64:	014787b3          	add	a5,a5,s4

0000000080007f68 <i_7876>:
    80007f68:	03b79463          	bne	a5,s11,80007f90 <i_7886>

0000000080007f6c <i_7877>:
    80007f6c:	21e0ea13          	ori	s4,ra,542

0000000080007f70 <i_7878>:
    80007f70:	09811d83          	lh	s11,152(sp)

0000000080007f74 <i_7879>:
    80007f74:	15813b03          	ld	s6,344(sp)

0000000080007f78 <i_7880>:
    80007f78:	7d3b0a13          	addi	s4,s6,2003

0000000080007f7c <i_7881>:
    80007f7c:	016201b3          	add	gp,tp,s6

0000000080007f80 <i_7882>:
    80007f80:	9cb1a313          	slti	t1,gp,-1589

0000000080007f84 <i_7883>:
    80007f84:	0de15a83          	lhu	s5,222(sp)

0000000080007f88 <i_7884>:
    80007f88:	036afb3b          	remuw	s6,s5,s6

0000000080007f8c <i_7885>:
    80007f8c:	e7610623          	sb	s6,-404(sp)

0000000080007f90 <i_7886>:
    80007f90:	e8611723          	sh	t1,-370(sp)

0000000080007f94 <i_7887>:
    80007f94:	e7013303          	ld	t1,-400(sp)

0000000080007f98 <i_7888>:
    80007f98:	8b800a13          	li	s4,-1864

0000000080007f9c <i_7889>:
    80007f9c:	8c900213          	li	tp,-1847

0000000080007fa0 <i_7890>:
    80007fa0:	01612a23          	sw	s6,20(sp)

0000000080007fa4 <i_7891>:
    80007fa4:	0aa11883          	lh	a7,170(sp)

0000000080007fa8 <i_7892>:
    80007fa8:	e3813d83          	ld	s11,-456(sp)

0000000080007fac <i_7893>:
    80007fac:	f4812a83          	lw	s5,-184(sp)

0000000080007fb0 <i_7894>:
    80007fb0:	fb511b23          	sh	s5,-74(sp)

0000000080007fb4 <i_7895>:
    80007fb4:	001a0a13          	addi	s4,s4,1
    80007fb8:	fe4a44e3          	blt	s4,tp,80007fa0 <i_7890>

0000000080007fbc <i_7896>:
    80007fbc:	17c14c83          	lbu	s9,380(sp)

0000000080007fc0 <i_7897>:
    80007fc0:	e5512223          	sw	s5,-444(sp)

0000000080007fc4 <i_7898>:
    80007fc4:	006cfa63          	bleu	t1,s9,80007fd8 <i_7903>

0000000080007fc8 <i_7899>:
    80007fc8:	11415c83          	lhu	s9,276(sp)

0000000080007fcc <i_7900>:
    80007fcc:	019accb3          	xor	s9,s5,s9

0000000080007fd0 <i_7901>:
    80007fd0:	015a8463          	beq	s5,s5,80007fd8 <i_7903>

0000000080007fd4 <i_7902>:
    80007fd4:	f9512c23          	sw	s5,-104(sp)

0000000080007fd8 <i_7903>:
    80007fd8:	05913423          	sd	s9,72(sp)

0000000080007fdc <i_7904>:
    80007fdc:	1a816a83          	lwu	s5,424(sp)

0000000080007fe0 <i_7905>:
    80007fe0:	403adc9b          	sraiw	s9,s5,0x3

0000000080007fe4 <i_7906>:
    80007fe4:	fd210083          	lb	ra,-46(sp)

0000000080007fe8 <i_7907>:
    80007fe8:	12211883          	lh	a7,290(sp)

0000000080007fec <i_7908>:
    80007fec:	08813883          	ld	a7,136(sp)

0000000080007ff0 <i_7909>:
    80007ff0:	f7015483          	lhu	s1,-144(sp)

0000000080007ff4 <i_7910>:
    80007ff4:	1b912c23          	sw	s9,440(sp)

0000000080007ff8 <i_7911>:
    80007ff8:	4040d89b          	sraiw	a7,ra,0x4

0000000080007ffc <i_7912>:
    80007ffc:	172101a3          	sb	s2,355(sp)

0000000080008000 <i_7913>:
    80008000:	001cb533          	sltu	a0,s9,ra

0000000080008004 <i_7914>:
    80008004:	f1e10423          	sb	t5,-248(sp)

0000000080008008 <i_7915>:
    80008008:	0ac16b03          	lwu	s6,172(sp)

000000008000800c <i_7916>:
    8000800c:	402ddc93          	srai	s9,s11,0x2

0000000080008010 <i_7917>:
    80008010:	e5911a23          	sh	s9,-428(sp)

0000000080008014 <i_7918>:
    80008014:	016b0a63          	beq	s6,s6,80008028 <i_7923>

0000000080008018 <i_7919>:
    80008018:	00191713          	slli	a4,s2,0x1

000000008000801c <i_7920>:
    8000801c:	f2012803          	lw	a6,-224(sp)

0000000080008020 <i_7921>:
    80008020:	6292c293          	xori	t0,t0,1577

0000000080008024 <i_7922>:
    80008024:	a312ce93          	xori	t4,t0,-1487

0000000080008028 <i_7923>:
    80008028:	005cce63          	blt	s9,t0,80008044 <i_7930>

000000008000802c <i_7924>:
    8000802c:	f9e15783          	lhu	a5,-98(sp)

0000000080008030 <i_7925>:
    80008030:	554ea193          	slti	gp,t4,1364

0000000080008034 <i_7926>:
    80008034:	00fe8733          	add	a4,t4,a5

0000000080008038 <i_7927>:
    80008038:	12310ca3          	sb	gp,313(sp)

000000008000803c <i_7928>:
    8000803c:	fd210a03          	lb	s4,-46(sp)

0000000080008040 <i_7929>:
    80008040:	01c75863          	ble	t3,a4,80008050 <i_7933>

0000000080008044 <i_7930>:
    80008044:	5cb7c513          	xori	a0,a5,1483

0000000080008048 <i_7931>:
    80008048:	ea813783          	ld	a5,-344(sp)

000000008000804c <i_7932>:
    8000804c:	08c10223          	sb	a2,132(sp)

0000000080008050 <i_7933>:
    80008050:	02fb49b3          	div	s3,s6,a5

0000000080008054 <i_7934>:
    80008054:	02f78533          	mul	a0,a5,a5

0000000080008058 <i_7935>:
    80008058:	1d815983          	lhu	s3,472(sp)

000000008000805c <i_7936>:
    8000805c:	fab14783          	lbu	a5,-85(sp)

0000000080008060 <i_7937>:
    80008060:	00f00593          	li	a1,15

0000000080008064 <i_7938>:
    80008064:	00b99eb3          	sll	t4,s3,a1

0000000080008068 <i_7939>:
    80008068:	1be15803          	lhu	a6,446(sp)

000000008000806c <i_7940>:
    8000806c:	09e14e03          	lbu	t3,158(sp)

0000000080008070 <i_7941>:
    80008070:	00000013          	nop

0000000080008074 <i_7942>:
    80008074:	00000013          	nop

0000000080008078 <i_7943>:
    80008078:	81400e13          	li	t3,-2028

000000008000807c <i_7944>:
    8000807c:	81800813          	li	a6,-2024

0000000080008080 <i_7945>:
    80008080:	021830b3          	mulhu	ra,a6,ra

0000000080008084 <i_7946>:
    80008084:	fd011d23          	sh	a6,-38(sp)

0000000080008088 <i_7947>:
    80008088:	01013023          	sd	a6,0(sp)

000000008000808c <i_7948>:
    8000808c:	f1016683          	lwu	a3,-240(sp)

0000000080008090 <i_7949>:
    80008090:	00000013          	nop

0000000080008094 <i_7950>:
    80008094:	00000013          	nop

0000000080008098 <i_7951>:
    80008098:	7e600693          	li	a3,2022

000000008000809c <i_7952>:
    8000809c:	7f400093          	li	ra,2036

00000000800080a0 <i_7953>:
    800080a0:	03c15503          	lhu	a0,60(sp)

00000000800080a4 <i_7954>:
    800080a4:	00168693          	addi	a3,a3,1 # 31d83761 <main-0x4e27c89f>
    800080a8:	fe169ce3          	bne	a3,ra,800080a0 <i_7953>

00000000800080ac <i_7955>:
    800080ac:	06b12023          	sw	a1,96(sp)

00000000800080b0 <i_7956>:
    800080b0:	f4815503          	lhu	a0,-184(sp)

00000000800080b4 <i_7957>:
    800080b4:	001e0e13          	addi	t3,t3,1
    800080b8:	fdc874e3          	bleu	t3,a6,80008080 <i_7945>

00000000800080bc <i_7958>:
    800080bc:	f6a10223          	sb	a0,-156(sp)

00000000800080c0 <i_7959>:
    800080c0:	401803bb          	subw	t2,a6,ra

00000000800080c4 <i_7960>:
    800080c4:	00709863          	bne	ra,t2,800080d4 <i_7964>

00000000800080c8 <i_7961>:
    800080c8:	02de6d3b          	remw	s10,t3,a3

00000000800080cc <i_7962>:
    800080cc:	e4c15903          	lhu	s2,-436(sp)

00000000800080d0 <i_7963>:
    800080d0:	1a813303          	ld	t1,424(sp)

00000000800080d4 <i_7964>:
    800080d4:	0105c263          	blt	a1,a6,800080d8 <i_7965>

00000000800080d8 <i_7965>:
    800080d8:	026b853b          	mulw	a0,s7,t1

00000000800080dc <i_7966>:
    800080dc:	f3016a03          	lwu	s4,-208(sp)

00000000800080e0 <i_7967>:
    800080e0:	026eb333          	mulhu	t1,t4,t1

00000000800080e4 <i_7968>:
    800080e4:	ff416a03          	lwu	s4,-12(sp)

00000000800080e8 <i_7969>:
    800080e8:	17110423          	sb	a7,360(sp)

00000000800080ec <i_7970>:
    800080ec:	1d013303          	ld	t1,464(sp)

00000000800080f0 <i_7971>:
    800080f0:	f9415503          	lhu	a0,-108(sp)

00000000800080f4 <i_7972>:
    800080f4:	00a37663          	bleu	a0,t1,80008100 <i_7975>

00000000800080f8 <i_7973>:
    800080f8:	021a50b3          	divu	ra,s4,ra

00000000800080fc <i_7974>:
    800080fc:	ed110ea3          	sb	a7,-291(sp)

0000000080008100 <i_7975>:
    80008100:	01e57863          	bleu	t5,a0,80008110 <i_7979>

0000000080008104 <i_7976>:
    80008104:	14e14e83          	lbu	t4,334(sp)

0000000080008108 <i_7977>:
    80008108:	03ea0063          	beq	s4,t5,80008128 <i_7985>

000000008000810c <i_7978>:
    8000810c:	fec16083          	lwu	ra,-20(sp)

0000000080008110 <i_7979>:
    80008110:	02c14803          	lbu	a6,44(sp)

0000000080008114 <i_7980>:
    80008114:	03f00293          	li	t0,63

0000000080008118 <i_7981>:
    80008118:	005316b3          	sll	a3,t1,t0

000000008000811c <i_7982>:
    8000811c:	f0613c23          	sd	t1,-232(sp)

0000000080008120 <i_7983>:
    80008120:	e3c12223          	sw	t3,-476(sp)

0000000080008124 <i_7984>:
    80008124:	0e112423          	sw	ra,232(sp)

0000000080008128 <i_7985>:
    80008128:	02da0063          	beq	s4,a3,80008148 <i_7993>

000000008000812c <i_7986>:
    8000812c:	e8513c23          	sd	t0,-360(sp)

0000000080008130 <i_7987>:
    80008130:	01f00d13          	li	s10,31

0000000080008134 <i_7988>:
    80008134:	01a8923b          	sllw	tp,a7,s10

0000000080008138 <i_7989>:
    80008138:	0e637193          	andi	gp,t1,230

000000008000813c <i_7990>:
    8000813c:	2500bf13          	sltiu	t5,ra,592

0000000080008140 <i_7991>:
    80008140:	aa31f0b7          	lui	ra,0xaa31f

0000000080008144 <i_7992>:
    80008144:	07a10fa3          	sb	s10,127(sp)

0000000080008148 <i_7993>:
    80008148:	0c110e23          	sb	ra,220(sp)

000000008000814c <i_7994>:
    8000814c:	03e0d33b          	divuw	t1,ra,t5

0000000080008150 <i_7995>:
    80008150:	e7814683          	lbu	a3,-392(sp)

0000000080008154 <i_7996>:
    80008154:	0012fc63          	bleu	ra,t0,8000816c <i_8002>

0000000080008158 <i_7997>:
    80008158:	ede10623          	sb	t5,-308(sp)

000000008000815c <i_7998>:
    8000815c:	f4812183          	lw	gp,-184(sp)

0000000080008160 <i_7999>:
    80008160:	0127a933          	slt	s2,a5,s2

0000000080008164 <i_8000>:
    80008164:	0111f463          	bleu	a7,gp,8000816c <i_8002>

0000000080008168 <i_8001>:
    80008168:	41a20a3b          	subw	s4,tp,s10

000000008000816c <i_8002>:
    8000816c:	40d50ebb          	subw	t4,a0,a3

0000000080008170 <i_8003>:
    80008170:	15813a03          	ld	s4,344(sp)

0000000080008174 <i_8004>:
    80008174:	03a11423          	sh	s10,40(sp)

0000000080008178 <i_8005>:
    80008178:	02dd5733          	divu	a4,s10,a3

000000008000817c <i_8006>:
    8000817c:	1e411f03          	lh	t5,484(sp)

0000000080008180 <i_8007>:
    80008180:	1ac10f23          	sb	a2,446(sp)

0000000080008184 <i_8008>:
    80008184:	00d531b3          	sltu	gp,a0,a3

0000000080008188 <i_8009>:
    80008188:	03da1233          	mulh	tp,s4,t4

000000008000818c <i_8010>:
    8000818c:	02df5063          	ble	a3,t5,800081ac <i_8018>

0000000080008190 <i_8011>:
    80008190:	03d0e7b3          	rem	a5,ra,t4

0000000080008194 <i_8012>:
    80008194:	01f00e93          	li	t4,31

0000000080008198 <i_8013>:
    80008198:	01d510bb          	sllw	ra,a0,t4

000000008000819c <i_8014>:
    8000819c:	0040de9b          	srliw	t4,ra,0x4

00000000800081a0 <i_8015>:
    800081a0:	01de8433          	add	s0,t4,t4

00000000800081a4 <i_8016>:
    800081a4:	fc814983          	lbu	s3,-56(sp)

00000000800081a8 <i_8017>:
    800081a8:	01de8eb3          	add	t4,t4,t4

00000000800081ac <i_8018>:
    800081ac:	0b912c23          	sw	s9,184(sp)

00000000800081b0 <i_8019>:
    800081b0:	e5c15e83          	lhu	t4,-420(sp)

00000000800081b4 <i_8020>:
    800081b4:	0ba14e83          	lbu	t4,186(sp)

00000000800081b8 <i_8021>:
    800081b8:	faa11283          	lh	t0,-86(sp)

00000000800081bc <i_8022>:
    800081bc:	14512223          	sw	t0,324(sp)

00000000800081c0 <i_8023>:
    800081c0:	00f567b3          	or	a5,a0,a5

00000000800081c4 <i_8024>:
    800081c4:	1e815983          	lhu	s3,488(sp)

00000000800081c8 <i_8025>:
    800081c8:	033e9cb3          	mulh	s9,t4,s3

00000000800081cc <i_8026>:
    800081cc:	01daf2b3          	and	t0,s5,t4

00000000800081d0 <i_8027>:
    800081d0:	75c00413          	li	s0,1884

00000000800081d4 <i_8028>:
    800081d4:	76800993          	li	s3,1896

00000000800081d8 <i_8029>:
    800081d8:	02f79b33          	mulh	s6,a5,a5

00000000800081dc <i_8030>:
    800081dc:	02545a3b          	divuw	s4,s0,t0

00000000800081e0 <i_8031>:
    800081e0:	fbd11d23          	sh	t4,-70(sp)

00000000800081e4 <i_8032>:
    800081e4:	01fc8f33          	add	t5,s9,t6

00000000800081e8 <i_8033>:
    800081e8:	07814783          	lbu	a5,120(sp)

00000000800081ec <i_8034>:
    800081ec:	00d40263          	beq	s0,a3,800081f0 <i_8035>

00000000800081f0 <i_8035>:
    800081f0:	03eec463          	blt	t4,t5,80008218 <i_8044>

00000000800081f4 <i_8036>:
    800081f4:	00fe9263          	bne	t4,a5,800081f8 <i_8037>

00000000800081f8 <i_8037>:
    800081f8:	01e6e263          	bltu	a3,t5,800081fc <i_8038>

00000000800081fc <i_8038>:
    800081fc:	01e53eb3          	sltu	t4,a0,t5

0000000080008200 <i_8039>:
    80008200:	efe12223          	sw	t5,-284(sp)

0000000080008204 <i_8040>:
    80008204:	014a4e63          	blt	s4,s4,80008220 <i_8046>

0000000080008208 <i_8041>:
    80008208:	00140413          	addi	s0,s0,1
    8000820c:	fd3446e3          	blt	s0,s3,800081d8 <i_8029>

0000000080008210 <i_8042>:
    80008210:	0085c863          	blt	a1,s0,80008220 <i_8046>

0000000080008214 <i_8043>:
    80008214:	01ba00b3          	add	ra,s4,s11

0000000080008218 <i_8044>:
    80008218:	014a0633          	add	a2,s4,s4

000000008000821c <i_8045>:
    8000821c:	02c0d263          	ble	a2,ra,80008240 <i_8054>

0000000080008220 <i_8046>:
    80008220:	19c16b03          	lwu	s6,412(sp)

0000000080008224 <i_8047>:
    80008224:	09c16403          	lwu	s0,156(sp)

0000000080008228 <i_8048>:
    80008228:	00847663          	bleu	s0,s0,80008234 <i_8051>

000000008000822c <i_8049>:
    8000822c:	12c16e83          	lwu	t4,300(sp)

0000000080008230 <i_8050>:
    80008230:	00810123          	sb	s0,2(sp)

0000000080008234 <i_8051>:
    80008234:	05813b03          	ld	s6,88(sp)

0000000080008238 <i_8052>:
    80008238:	036f443b          	divw	s0,t5,s6

000000008000823c <i_8053>:
    8000823c:	03800413          	li	s0,56

0000000080008240 <i_8054>:
    80008240:	008b56b3          	srl	a3,s6,s0

0000000080008244 <i_8055>:
    80008244:	00000013          	nop

0000000080008248 <i_8056>:
    80008248:	80200b13          	li	s6,-2046

000000008000824c <i_8057>:
    8000824c:	80a00e93          	li	t4,-2038

0000000080008250 <i_8058>:
    80008250:	f5811683          	lh	a3,-168(sp)

0000000080008254 <i_8059>:
    80008254:	00d6e663          	bltu	a3,a3,80008260 <i_8062>

0000000080008258 <i_8060>:
    80008258:	f6d107a3          	sb	a3,-145(sp)

000000008000825c <i_8061>:
    8000825c:	03600313          	li	t1,54

0000000080008260 <i_8062>:
    80008260:	0061d1b3          	srl	gp,gp,t1

0000000080008264 <i_8063>:
    80008264:	00000013          	nop

0000000080008268 <i_8064>:
    80008268:	0366c263          	blt	a3,s6,8000828c <i_8072>

000000008000826c <i_8065>:
    8000826c:	001b0b13          	addi	s6,s6,1
    80008270:	ffdb60e3          	bltu	s6,t4,80008250 <i_8058>

0000000080008274 <i_8066>:
    80008274:	fe013683          	ld	a3,-32(sp)

0000000080008278 <i_8067>:
    80008278:	aea6bc93          	sltiu	s9,a3,-1302

000000008000827c <i_8068>:
    8000827c:	00631e63          	bne	t1,t1,80008298 <i_8075>

0000000080008280 <i_8069>:
    80008280:	0b013303          	ld	t1,176(sp)

0000000080008284 <i_8070>:
    80008284:	40445413          	srai	s0,s0,0x4

0000000080008288 <i_8071>:
    80008288:	912fa313          	slti	t1,t6,-1774

000000008000828c <i_8072>:
    8000828c:	18e10f03          	lb	t5,398(sp)

0000000080008290 <i_8073>:
    80008290:	1aa11303          	lh	t1,426(sp)

0000000080008294 <i_8074>:
    80008294:	0c416e83          	lwu	t4,196(sp)

0000000080008298 <i_8075>:
    80008298:	01ff8fb3          	add	t6,t6,t6

000000008000829c <i_8076>:
    8000829c:	03df54bb          	divuw	s1,t5,t4

00000000800082a0 <i_8077>:
    800082a0:	0c911c23          	sh	s1,216(sp)

00000000800082a4 <i_8078>:
    800082a4:	009a8863          	beq	s5,s1,800082b4 <i_8082>

00000000800082a8 <i_8079>:
    800082a8:	004ed513          	srli	a0,t4,0x4

00000000800082ac <i_8080>:
    800082ac:	00300213          	li	tp,3

00000000800082b0 <i_8081>:
    800082b0:	004f1833          	sll	a6,t5,tp

00000000800082b4 <i_8082>:
    800082b4:	ff411403          	lh	s0,-12(sp)

00000000800082b8 <i_8083>:
    800082b8:	011ff663          	bleu	a7,t6,800082c4 <i_8086>

00000000800082bc <i_8084>:
    800082bc:	01026863          	bltu	tp,a6,800082cc <i_8088>

00000000800082c0 <i_8085>:
    800082c0:	16a11823          	sh	a0,368(sp)

00000000800082c4 <i_8086>:
    800082c4:	eb411f83          	lh	t6,-332(sp)

00000000800082c8 <i_8087>:
    800082c8:	e3c12c83          	lw	s9,-452(sp)

00000000800082cc <i_8088>:
    800082cc:	00000013          	nop

00000000800082d0 <i_8089>:
    800082d0:	ede11f83          	lh	t6,-290(sp)

00000000800082d4 <i_8090>:
    800082d4:	7df00f13          	li	t5,2015

00000000800082d8 <i_8091>:
    800082d8:	7eb00293          	li	t0,2027

00000000800082dc <i_8092>:
    800082dc:	e4016c83          	lwu	s9,-448(sp)

00000000800082e0 <i_8093>:
    800082e0:	ee813f83          	ld	t6,-280(sp)

00000000800082e4 <i_8094>:
    800082e4:	00000013          	nop

00000000800082e8 <i_8095>:
    800082e8:	01fb4c63          	blt	s6,t6,80008300 <i_8100>

00000000800082ec <i_8096>:
    800082ec:	f8414c83          	lbu	s9,-124(sp)

00000000800082f0 <i_8097>:
    800082f0:	001f0f13          	addi	t5,t5,1
    800082f4:	ffe2f4e3          	bleu	t5,t0,800082dc <i_8092>

00000000800082f8 <i_8098>:
    800082f8:	004cdc93          	srli	s9,s9,0x4

00000000800082fc <i_8099>:
    800082fc:	04714683          	lbu	a3,71(sp)

0000000080008300 <i_8100>:
    80008300:	03f40063          	beq	s0,t6,80008320 <i_8108>

0000000080008304 <i_8101>:
    80008304:	e5016b03          	lwu	s6,-432(sp)

0000000080008308 <i_8102>:
    80008308:	fe514f83          	lbu	t6,-27(sp)

000000008000830c <i_8103>:
    8000830c:	1e415f83          	lhu	t6,484(sp)

0000000080008310 <i_8104>:
    80008310:	4038dd9b          	sraiw	s11,a7,0x3

0000000080008314 <i_8105>:
    80008314:	e4e13c23          	sd	a4,-424(sp)

0000000080008318 <i_8106>:
    80008318:	eb416083          	lwu	ra,-332(sp)

000000008000831c <i_8107>:
    8000831c:	10d10a23          	sb	a3,276(sp)

0000000080008320 <i_8108>:
    80008320:	928df693          	andi	a3,s11,-1752

0000000080008324 <i_8109>:
    80008324:	00dd8cb3          	add	s9,s11,a3

0000000080008328 <i_8110>:
    80008328:	01012303          	lw	t1,16(sp)

000000008000832c <i_8111>:
    8000832c:	10a10583          	lb	a1,266(sp)

0000000080008330 <i_8112>:
    80008330:	1af12e23          	sw	a5,444(sp)

0000000080008334 <i_8113>:
    80008334:	02adeebb          	remw	t4,s11,a0

0000000080008338 <i_8114>:
    80008338:	79f00693          	li	a3,1951

000000008000833c <i_8115>:
    8000833c:	7a700d93          	li	s11,1959

0000000080008340 <i_8116>:
    80008340:	06611023          	sh	t1,96(sp)

0000000080008344 <i_8117>:
    80008344:	00168693          	addi	a3,a3,1
    80008348:	ffb69ce3          	bne	a3,s11,80008340 <i_8116>

000000008000834c <i_8118>:
    8000834c:	14c15903          	lhu	s2,332(sp)

0000000080008350 <i_8119>:
    80008350:	02e15983          	lhu	s3,46(sp)

0000000080008354 <i_8120>:
    80008354:	e2813d83          	ld	s11,-472(sp)

0000000080008358 <i_8121>:
    80008358:	03236463          	bltu	t1,s2,80008380 <i_8131>

000000008000835c <i_8122>:
    8000835c:	40698ebb          	subw	t4,s3,t1

0000000080008360 <i_8123>:
    80008360:	e6610323          	sb	t1,-410(sp)

0000000080008364 <i_8124>:
    80008364:	0df13c23          	sd	t6,216(sp)

0000000080008368 <i_8125>:
    80008368:	03fd9f33          	mulh	t5,s11,t6

000000008000836c <i_8126>:
    8000836c:	ebf10903          	lb	s2,-321(sp)

0000000080008370 <i_8127>:
    80008370:	0019599b          	srliw	s3,s2,0x1

0000000080008374 <i_8128>:
    80008374:	15212c23          	sw	s2,344(sp)

0000000080008378 <i_8129>:
    80008378:	00000013          	nop

000000008000837c <i_8130>:
    8000837c:	13710a23          	sb	s7,308(sp)

0000000080008380 <i_8131>:
    80008380:	00000013          	nop

0000000080008384 <i_8132>:
    80008384:	16b12423          	sw	a1,360(sp)

0000000080008388 <i_8133>:
    80008388:	87000f93          	li	t6,-1936

000000008000838c <i_8134>:
    8000838c:	87800d93          	li	s11,-1928

0000000080008390 <i_8135>:
    80008390:	001f8f93          	addi	t6,t6,1
    80008394:	fffddee3          	ble	t6,s11,80008390 <i_8135>

0000000080008398 <i_8136>:
    80008398:	a92f8413          	addi	s0,t6,-1390

000000008000839c <i_8137>:
    8000839c:	4045d59b          	sraiw	a1,a1,0x4

00000000800083a0 <i_8138>:
    800083a0:	ab334e93          	xori	t4,t1,-1357

00000000800083a4 <i_8139>:
    800083a4:	4ae5e593          	ori	a1,a1,1198

00000000800083a8 <i_8140>:
    800083a8:	00f00593          	li	a1,15

00000000800083ac <i_8141>:
    800083ac:	00b591bb          	sllw	gp,a1,a1

00000000800083b0 <i_8142>:
    800083b0:	89f00313          	li	t1,-1889

00000000800083b4 <i_8143>:
    800083b4:	8b300f93          	li	t6,-1869

00000000800083b8 <i_8144>:
    800083b8:	00130313          	addi	t1,t1,1
    800083bc:	fe6fdce3          	ble	t1,t6,800083b4 <i_8143>

00000000800083c0 <i_8145>:
    800083c0:	ef815183          	lhu	gp,-264(sp)

00000000800083c4 <i_8146>:
    800083c4:	4035db13          	srai	s6,a1,0x3

00000000800083c8 <i_8147>:
    800083c8:	0b612223          	sw	s6,164(sp)

00000000800083cc <i_8148>:
    800083cc:	01645863          	ble	s6,s0,800083dc <i_8152>

00000000800083d0 <i_8149>:
    800083d0:	e3b10f83          	lb	t6,-453(sp)

00000000800083d4 <i_8150>:
    800083d4:	03ffdb33          	divu	s6,t6,t6

00000000800083d8 <i_8151>:
    800083d8:	11415f83          	lhu	t6,276(sp)

00000000800083dc <i_8152>:
    800083dc:	02b8e5bb          	remw	a1,a7,a1

00000000800083e0 <i_8153>:
    800083e0:	036f8433          	mul	s0,t6,s6

00000000800083e4 <i_8154>:
    800083e4:	ef815b03          	lhu	s6,-264(sp)

00000000800083e8 <i_8155>:
    800083e8:	e8815f03          	lhu	t5,-376(sp)

00000000800083ec <i_8156>:
    800083ec:	403b5913          	srai	s2,s6,0x3

00000000800083f0 <i_8157>:
    800083f0:	03e908bb          	mulw	a7,s2,t5

00000000800083f4 <i_8158>:
    800083f4:	03efe063          	bltu	t6,t5,80008414 <i_8166>

00000000800083f8 <i_8159>:
    800083f8:	0055dc63          	ble	t0,a1,80008410 <i_8165>

00000000800083fc <i_8160>:
    800083fc:	0288843b          	mulw	s0,a7,s0

0000000080008400 <i_8161>:
    80008400:	0e811023          	sh	s0,224(sp)

0000000080008404 <i_8162>:
    80008404:	00000013          	nop

0000000080008408 <i_8163>:
    80008408:	00000013          	nop

000000008000840c <i_8164>:
    8000840c:	01600213          	li	tp,22

0000000080008410 <i_8165>:
    80008410:	404254bb          	sraw	s1,tp,tp

0000000080008414 <i_8166>:
    80008414:	f2912823          	sw	s1,-208(sp)

0000000080008418 <i_8167>:
    80008418:	15412903          	lw	s2,340(sp)

000000008000841c <i_8168>:
    8000841c:	7a300b13          	li	s6,1955

0000000080008420 <i_8169>:
    80008420:	7ae00593          	li	a1,1966

0000000080008424 <i_8170>:
    80008424:	f6f11d23          	sh	a5,-134(sp)

0000000080008428 <i_8171>:
    80008428:	e9415883          	lhu	a7,-364(sp)

000000008000842c <i_8172>:
    8000842c:	7c800213          	li	tp,1992

0000000080008430 <i_8173>:
    80008430:	7cf00793          	li	a5,1999

0000000080008434 <i_8174>:
    80008434:	12a11883          	lh	a7,298(sp)

0000000080008438 <i_8175>:
    80008438:	00120213          	addi	tp,tp,1 # 1 <main-0x7fffffff>
    8000843c:	fef24ce3          	blt	tp,a5,80008434 <i_8174>

0000000080008440 <i_8176>:
    80008440:	fa410a83          	lb	s5,-92(sp)

0000000080008444 <i_8177>:
    80008444:	03627463          	bleu	s6,tp,8000846c <i_8186>

0000000080008448 <i_8178>:
    80008448:	001b0b13          	addi	s6,s6,1
    8000844c:	fcbb1ce3          	bne	s6,a1,80008424 <i_8170>

0000000080008450 <i_8179>:
    80008450:	ee210483          	lb	s1,-286(sp)

0000000080008454 <i_8180>:
    80008454:	00f00b93          	li	s7,15

0000000080008458 <i_8181>:
    80008458:	4174db3b          	sraw	s6,s1,s7

000000008000845c <i_8182>:
    8000845c:	029be0b3          	rem	ra,s7,s1

0000000080008460 <i_8183>:
    80008460:	ffd14b03          	lbu	s6,-3(sp)

0000000080008464 <i_8184>:
    80008464:	6530bb93          	sltiu	s7,ra,1619

0000000080008468 <i_8185>:
    80008468:	00800d93          	li	s11,8

000000008000846c <i_8186>:
    8000846c:	41b45a3b          	sraw	s4,s0,s11

0000000080008470 <i_8187>:
    80008470:	1b711223          	sh	s7,420(sp)

0000000080008474 <i_8188>:
    80008474:	017a4663          	blt	s4,s7,80008480 <i_8191>

0000000080008478 <i_8189>:
    80008478:	c09df917          	auipc	s2,0xc09df

000000008000847c <i_8190>:
    8000847c:	034a6bb3          	rem	s7,s4,s4

0000000080008480 <i_8191>:
    80008480:	27190b9b          	addiw	s7,s2,625

0000000080008484 <i_8192>:
    80008484:	07414e03          	lbu	t3,116(sp)

0000000080008488 <i_8193>:
    80008488:	ef210023          	sb	s2,-288(sp)

000000008000848c <i_8194>:
    8000848c:	01796263          	bltu	s2,s7,80008490 <i_8195>

0000000080008490 <i_8195>:
    80008490:	02b96433          	rem	s0,s2,a1

0000000080008494 <i_8196>:
    80008494:	edc16903          	lwu	s2,-292(sp)

0000000080008498 <i_8197>:
    80008498:	03c00993          	li	s3,60

000000008000849c <i_8198>:
    8000849c:	01395933          	srl	s2,s2,s3

00000000800084a0 <i_8199>:
    800084a0:	01310783          	lb	a5,19(sp)

00000000800084a4 <i_8200>:
    800084a4:	71d78e9b          	addiw	t4,a5,1821

00000000800084a8 <i_8201>:
    800084a8:	1dd10fa3          	sb	t4,479(sp)

00000000800084ac <i_8202>:
    800084ac:	02c7f433          	remu	s0,a5,a2

00000000800084b0 <i_8203>:
    800084b0:	008e9463          	bne	t4,s0,800084b8 <i_8205>

00000000800084b4 <i_8204>:
    800084b4:	033ec263          	blt	t4,s3,800084d8 <i_8213>

00000000800084b8 <i_8205>:
    800084b8:	b0246e93          	ori	t4,s0,-1278

00000000800084bc <i_8206>:
    800084bc:	03defebb          	remuw	t4,t4,t4

00000000800084c0 <i_8207>:
    800084c0:	01ef7463          	bleu	t5,t5,800084c8 <i_8209>

00000000800084c4 <i_8208>:
    800084c4:	08c12f03          	lw	t5,140(sp)

00000000800084c8 <i_8209>:
    800084c8:	8ea00f17          	auipc	t5,0x8ea00

00000000800084cc <i_8210>:
    800084cc:	01e12823          	sw	t5,16(sp)

00000000800084d0 <i_8211>:
    800084d0:	85dd8f1b          	addiw	t5,s11,-1955

00000000800084d4 <i_8212>:
    800084d4:	0339f9bb          	remuw	s3,s3,s3

00000000800084d8 <i_8213>:
    800084d8:	0049d49b          	srliw	s1,s3,0x4

00000000800084dc <i_8214>:
    800084dc:	0339c9b3          	div	s3,s3,s3

00000000800084e0 <i_8215>:
    800084e0:	0e447413          	andi	s0,s0,228

00000000800084e4 <i_8216>:
    800084e4:	013ae263          	bltu	s5,s3,800084e8 <i_8217>

00000000800084e8 <i_8217>:
    800084e8:	11c15e83          	lhu	t4,284(sp)

00000000800084ec <i_8218>:
    800084ec:	e4411e83          	lh	t4,-444(sp)

00000000800084f0 <i_8219>:
    800084f0:	0cc12e83          	lw	t4,204(sp)

00000000800084f4 <i_8220>:
    800084f4:	ec811323          	sh	s0,-314(sp)

00000000800084f8 <i_8221>:
    800084f8:	01de8463          	beq	t4,t4,80008500 <i_8223>

00000000800084fc <i_8222>:
    800084fc:	17d12623          	sw	t4,364(sp)

0000000080008500 <i_8223>:
    80008500:	0a412f83          	lw	t6,164(sp)

0000000080008504 <i_8224>:
    80008504:	fb813823          	sd	s8,-80(sp)

0000000080008508 <i_8225>:
    80008508:	02015483          	lhu	s1,32(sp)

000000008000850c <i_8226>:
    8000850c:	1c913023          	sd	s1,448(sp)

0000000080008510 <i_8227>:
    80008510:	0238dbb3          	divu	s7,a7,gp

0000000080008514 <i_8228>:
    80008514:	1cc15883          	lhu	a7,460(sp)

0000000080008518 <i_8229>:
    80008518:	00480e63          	beq	a6,tp,80008534 <i_8236>

000000008000851c <i_8230>:
    8000851c:	eb813483          	ld	s1,-328(sp)

0000000080008520 <i_8231>:
    80008520:	f2913023          	sd	s1,-224(sp)

0000000080008524 <i_8232>:
    80008524:	13812e03          	lw	t3,312(sp)

0000000080008528 <i_8233>:
    80008528:	0098fe63          	bleu	s1,a7,80008544 <i_8240>

000000008000852c <i_8234>:
    8000852c:	d0a4ac13          	slti	s8,s1,-758

0000000080008530 <i_8235>:
    80008530:	0d610e03          	lb	t3,214(sp)

0000000080008534 <i_8236>:
    80008534:	17a11583          	lh	a1,378(sp)

0000000080008538 <i_8237>:
    80008538:	1c813883          	ld	a7,456(sp)

000000008000853c <i_8238>:
    8000853c:	01858e63          	beq	a1,s8,80008558 <i_8245>

0000000080008540 <i_8239>:
    80008540:	96288893          	addi	a7,a7,-1694

0000000080008544 <i_8240>:
    80008544:	02b89263          	bne	a7,a1,80008568 <i_8249>

0000000080008548 <i_8241>:
    80008548:	01cadc63          	ble	t3,s5,80008560 <i_8247>

000000008000854c <i_8242>:
    8000854c:	10a11e03          	lh	t3,266(sp)

0000000080008550 <i_8243>:
    80008550:	0f113023          	sd	a7,224(sp)

0000000080008554 <i_8244>:
    80008554:	01cb4863          	blt	s6,t3,80008564 <i_8248>

0000000080008558 <i_8245>:
    80008558:	01b00893          	li	a7,27

000000008000855c <i_8246>:
    8000855c:	01179b3b          	sllw	s6,a5,a7

0000000080008560 <i_8247>:
    80008560:	e1e11683          	lh	a3,-482(sp)

0000000080008564 <i_8248>:
    80008564:	ff610823          	sb	s6,-16(sp)

0000000080008568 <i_8249>:
    80008568:	e7411a83          	lh	s5,-396(sp)

000000008000856c <i_8250>:
    8000856c:	08c16b03          	lwu	s6,140(sp)

0000000080008570 <i_8251>:
    80008570:	75f00e13          	li	t3,1887

0000000080008574 <i_8252>:
    80008574:	76900793          	li	a5,1897

0000000080008578 <i_8253>:
    80008578:	00000013          	nop

000000008000857c <i_8254>:
    8000857c:	0ec11c83          	lh	s9,236(sp)

0000000080008580 <i_8255>:
    80008580:	85000693          	li	a3,-1968

0000000080008584 <i_8256>:
    80008584:	85800193          	li	gp,-1960

0000000080008588 <i_8257>:
    80008588:	f6c11583          	lh	a1,-148(sp)

000000008000858c <i_8258>:
    8000858c:	00000013          	nop

0000000080008590 <i_8259>:
    80008590:	00168693          	addi	a3,a3,1
    80008594:	fe36cae3          	blt	a3,gp,80008588 <i_8257>

0000000080008598 <i_8260>:
    80008598:	10b10c23          	sb	a1,280(sp)

000000008000859c <i_8261>:
    8000859c:	41680833          	sub	a6,a6,s6

00000000800085a0 <i_8262>:
    800085a0:	001e0e13          	addi	t3,t3,1
    800085a4:	fcfe1ae3          	bne	t3,a5,80008578 <i_8253>

00000000800085a8 <i_8263>:
    800085a8:	e7c10b03          	lb	s6,-388(sp)

00000000800085ac <i_8264>:
    800085ac:	019805b3          	add	a1,a6,s9

00000000800085b0 <i_8265>:
    800085b0:	019cf2b3          	and	t0,s9,s9

00000000800085b4 <i_8266>:
    800085b4:	1c311e23          	sh	gp,476(sp)

00000000800085b8 <i_8267>:
    800085b8:	023fc463          	blt	t6,gp,800085e0 <i_8277>

00000000800085bc <i_8268>:
    800085bc:	039ada33          	divu	s4,s5,s9

00000000800085c0 <i_8269>:
    800085c0:	f1812803          	lw	a6,-232(sp)

00000000800085c4 <i_8270>:
    800085c4:	004a5a1b          	srliw	s4,s4,0x4

00000000800085c8 <i_8271>:
    800085c8:	02310fa3          	sb	gp,63(sp)

00000000800085cc <i_8272>:
    800085cc:	f2012d83          	lw	s11,-224(sp)

00000000800085d0 <i_8273>:
    800085d0:	00bf0263          	beq	t5,a1,800085d4 <i_8274>

00000000800085d4 <i_8274>:
    800085d4:	1d013b83          	ld	s7,464(sp)

00000000800085d8 <i_8275>:
    800085d8:	ffb584b7          	lui	s1,0xffb58

00000000800085dc <i_8276>:
    800085dc:	00000013          	nop

00000000800085e0 <i_8277>:
    800085e0:	03b48dbb          	mulw	s11,s1,s11

00000000800085e4 <i_8278>:
    800085e4:	efb11c23          	sh	s11,-264(sp)

00000000800085e8 <i_8279>:
    800085e8:	73a00f13          	li	t5,1850

00000000800085ec <i_8280>:
    800085ec:	73e00713          	li	a4,1854

00000000800085f0 <i_8281>:
    800085f0:	126db693          	sltiu	a3,s11,294

00000000800085f4 <i_8282>:
    800085f4:	00948263          	beq	s1,s1,800085f8 <i_8283>

00000000800085f8 <i_8283>:
    800085f8:	02d4f263          	bleu	a3,s1,8000861c <i_8291>

00000000800085fc <i_8284>:
    800085fc:	0f013483          	ld	s1,240(sp)

0000000080008600 <i_8285>:
    80008600:	f0d12023          	sw	a3,-256(sp)

0000000080008604 <i_8286>:
    80008604:	00000013          	nop

0000000080008608 <i_8287>:
    80008608:	03b2d463          	ble	s11,t0,80008630 <i_8296>

000000008000860c <i_8288>:
    8000860c:	001f0f13          	addi	t5,t5,1 # ea084c9 <main-0x715f7b37>
    80008610:	feef10e3          	bne	t5,a4,800085f0 <i_8281>

0000000080008614 <i_8289>:
    80008614:	00d6fc63          	bleu	a3,a3,8000862c <i_8295>

0000000080008618 <i_8290>:
    80008618:	f3b12623          	sw	s11,-212(sp)

000000008000861c <i_8291>:
    8000861c:	01b4ea63          	bltu	s1,s11,80008630 <i_8296>

0000000080008620 <i_8292>:
    80008620:	40d484bb          	subw	s1,s1,a3

0000000080008624 <i_8293>:
    80008624:	0093b3b3          	sltu	t2,t2,s1

0000000080008628 <i_8294>:
    80008628:	00949663          	bne	s1,s1,80008634 <i_8297>

000000008000862c <i_8295>:
    8000862c:	ebe10503          	lb	a0,-322(sp)

0000000080008630 <i_8296>:
    80008630:	17210c23          	sb	s2,376(sp)

0000000080008634 <i_8297>:
    80008634:	567f4497          	auipc	s1,0x567f4

0000000080008638 <i_8298>:
    80008638:	01200493          	li	s1,18

000000008000863c <i_8299>:
    8000863c:	00949e33          	sll	t3,s1,s1

0000000080008640 <i_8300>:
    80008640:	4024d493          	srai	s1,s1,0x2

0000000080008644 <i_8301>:
    80008644:	00800413          	li	s0,8

0000000080008648 <i_8302>:
    80008648:	408d5d3b          	sraw	s10,s10,s0

000000008000864c <i_8303>:
    8000864c:	029e4ebb          	divw	t4,t3,s1

0000000080008650 <i_8304>:
    80008650:	009e6933          	or	s2,t3,s1

0000000080008654 <i_8305>:
    80008654:	19015683          	lhu	a3,400(sp)

0000000080008658 <i_8306>:
    80008658:	eda10da3          	sb	s10,-293(sp)

000000008000865c <i_8307>:
    8000865c:	0b411e03          	lh	t3,180(sp)

0000000080008660 <i_8308>:
    80008660:	402b5693          	srai	a3,s6,0x2

0000000080008664 <i_8309>:
    80008664:	f2412e03          	lw	t3,-220(sp)

0000000080008668 <i_8310>:
    80008668:	ecc16b03          	lwu	s6,-308(sp)

000000008000866c <i_8311>:
    8000866c:	00c16d83          	lwu	s11,12(sp)

0000000080008670 <i_8312>:
    80008670:	04416683          	lwu	a3,68(sp)

0000000080008674 <i_8313>:
    80008674:	03bde6bb          	remw	a3,s11,s11

0000000080008678 <i_8314>:
    80008678:	12412d83          	lw	s11,292(sp)

000000008000867c <i_8315>:
    8000867c:	17815803          	lhu	a6,376(sp)

0000000080008680 <i_8316>:
    80008680:	01884263          	blt	a6,s8,80008684 <i_8317>

0000000080008684 <i_8317>:
    80008684:	ed614803          	lbu	a6,-298(sp)

0000000080008688 <i_8318>:
    80008688:	010d8a63          	beq	s11,a6,8000869c <i_8323>

000000008000868c <i_8319>:
    8000868c:	03bd9063          	bne	s11,s11,800086ac <i_8327>

0000000080008690 <i_8320>:
    80008690:	03400d93          	li	s11,52

0000000080008694 <i_8321>:
    80008694:	01b3ddb3          	srl	s11,t2,s11

0000000080008698 <i_8322>:
    80008698:	02dd0833          	mul	a6,s10,a3

000000008000869c <i_8323>:
    8000869c:	fd813683          	ld	a3,-40(sp)

00000000800086a0 <i_8324>:
    800086a0:	f3d14e83          	lbu	t4,-195(sp)

00000000800086a4 <i_8325>:
    800086a4:	ec811f83          	lh	t6,-312(sp)

00000000800086a8 <i_8326>:
    800086a8:	f2015f83          	lhu	t6,-224(sp)

00000000800086ac <i_8327>:
    800086ac:	02d695b3          	mulh	a1,a3,a3

00000000800086b0 <i_8328>:
    800086b0:	f2016e83          	lwu	t4,-224(sp)

00000000800086b4 <i_8329>:
    800086b4:	85000d13          	li	s10,-1968

00000000800086b8 <i_8330>:
    800086b8:	85800193          	li	gp,-1960

00000000800086bc <i_8331>:
    800086bc:	03d10623          	sb	t4,44(sp)

00000000800086c0 <i_8332>:
    800086c0:	19215e83          	lhu	t4,402(sp)

00000000800086c4 <i_8333>:
    800086c4:	03dfc463          	blt	t6,t4,800086ec <i_8342>

00000000800086c8 <i_8334>:
    800086c8:	001d0d13          	addi	s10,s10,1
    800086cc:	fe3d68e3          	bltu	s10,gp,800086bc <i_8331>

00000000800086d0 <i_8335>:
    800086d0:	4036d91b          	sraiw	s2,a3,0x3

00000000800086d4 <i_8336>:
    800086d4:	00d00393          	li	t2,13

00000000800086d8 <i_8337>:
    800086d8:	00739ebb          	sllw	t4,t2,t2

00000000800086dc <i_8338>:
    800086dc:	01290a63          	beq	s2,s2,800086f0 <i_8343>

00000000800086e0 <i_8339>:
    800086e0:	032ec263          	blt	t4,s2,80008704 <i_8348>

00000000800086e4 <i_8340>:
    800086e4:	03d94063          	blt	s2,t4,80008704 <i_8348>

00000000800086e8 <i_8341>:
    800086e8:	f0c16c83          	lwu	s9,-244(sp)

00000000800086ec <i_8342>:
    800086ec:	001c9863          	bne	s9,ra,800086fc <i_8346>

00000000800086f0 <i_8343>:
    800086f0:	019cc463          	blt	s9,s9,800086f8 <i_8345>

00000000800086f4 <i_8344>:
    800086f4:	039cdcbb          	divuw	s9,s9,s9

00000000800086f8 <i_8345>:
    800086f8:	01c00c93          	li	s9,28

00000000800086fc <i_8346>:
    800086fc:	019f1f3b          	sllw	t5,t5,s9

0000000080008700 <i_8347>:
    80008700:	05813903          	ld	s2,88(sp)

0000000080008704 <i_8348>:
    80008704:	533faa93          	slti	s5,t6,1331

0000000080008708 <i_8349>:
    80008708:	955ab913          	sltiu	s2,s5,-1707

000000008000870c <i_8350>:
    8000870c:	dc2f6913          	ori	s2,t5,-574

0000000080008710 <i_8351>:
    80008710:	e2d14f83          	lbu	t6,-467(sp)

0000000080008714 <i_8352>:
    80008714:	f8416903          	lwu	s2,-124(sp)

0000000080008718 <i_8353>:
    80008718:	f7215083          	lhu	ra,-142(sp)

000000008000871c <i_8354>:
    8000871c:	021900b3          	mul	ra,s2,ra

0000000080008720 <i_8355>:
    80008720:	01f00393          	li	t2,31

0000000080008724 <i_8356>:
    80008724:	00781833          	sll	a6,a6,t2

0000000080008728 <i_8357>:
    80008728:	03281263          	bne	a6,s2,8000874c <i_8366>

000000008000872c <i_8358>:
    8000872c:	4108083b          	subw	a6,a6,a6

0000000080008730 <i_8359>:
    80008730:	030d8263          	beq	s11,a6,80008754 <i_8368>

0000000080008734 <i_8360>:
    80008734:	18412803          	lw	a6,388(sp)

0000000080008738 <i_8361>:
    80008738:	0033981b          	slliw	a6,t2,0x3

000000008000873c <i_8362>:
    8000873c:	17c15383          	lhu	t2,380(sp)

0000000080008740 <i_8363>:
    80008740:	0018181b          	slliw	a6,a6,0x1

0000000080008744 <i_8364>:
    80008744:	03087063          	bleu	a6,a6,80008764 <i_8372>

0000000080008748 <i_8365>:
    80008748:	e9c11383          	lh	t2,-356(sp)

000000008000874c <i_8366>:
    8000874c:	16713823          	sd	t2,368(sp)

0000000080008750 <i_8367>:
    80008750:	037e1e33          	mulh	t3,t3,s7

0000000080008754 <i_8368>:
    80008754:	027b8bbb          	mulw	s7,s7,t2

0000000080008758 <i_8369>:
    80008758:	003241b3          	xor	gp,tp,gp

000000008000875c <i_8370>:
    8000875c:	f3c12423          	sw	t3,-216(sp)

0000000080008760 <i_8371>:
    80008760:	009e24b3          	slt	s1,t3,s1

0000000080008764 <i_8372>:
    80008764:	fa412e03          	lw	t3,-92(sp)

0000000080008768 <i_8373>:
    80008768:	00319a63          	bne	gp,gp,8000877c <i_8378>

000000008000876c <i_8374>:
    8000876c:	f3815203          	lhu	tp,-200(sp)

0000000080008770 <i_8375>:
    80008770:	016f8bb3          	add	s7,t6,s6

0000000080008774 <i_8376>:
    80008774:	1c611083          	lh	ra,454(sp)

0000000080008778 <i_8377>:
    80008778:	03ce1063          	bne	t3,t3,80008798 <i_8385>

000000008000877c <i_8378>:
    8000877c:	01011803          	lh	a6,16(sp)

0000000080008780 <i_8379>:
    80008780:	00377e63          	bleu	gp,a4,8000879c <i_8386>

0000000080008784 <i_8380>:
    80008784:	f1c12823          	sw	t3,-240(sp)

0000000080008788 <i_8381>:
    80008788:	09b14c03          	lbu	s8,155(sp)

000000008000878c <i_8382>:
    8000878c:	efb10183          	lb	gp,-261(sp)

0000000080008790 <i_8383>:
    80008790:	01200513          	li	a0,18

0000000080008794 <i_8384>:
    80008794:	00a19c33          	sll	s8,gp,a0

0000000080008798 <i_8385>:
    80008798:	d1f441b7          	lui	gp,0xd1f44

000000008000879c <i_8386>:
    8000879c:	3e018b13          	addi	s6,gp,992 # ffffffffd1f443e0 <_end+0xffffffff51f33fcc>

00000000800087a0 <i_8387>:
    800087a0:	0035549b          	srliw	s1,a0,0x3

00000000800087a4 <i_8388>:
    800087a4:	ec54f993          	andi	s3,s1,-315

00000000800087a8 <i_8389>:
    800087a8:	0168e863          	bltu	a7,s6,800087b8 <i_8393>

00000000800087ac <i_8390>:
    800087ac:	03adc063          	blt	s11,s10,800087cc <i_8398>

00000000800087b0 <i_8391>:
    800087b0:	0294d463          	ble	s1,s1,800087d8 <i_8401>

00000000800087b4 <i_8392>:
    800087b4:	03800493          	li	s1,56

00000000800087b8 <i_8393>:
    800087b8:	409b5c33          	sra	s8,s6,s1

00000000800087bc <i_8394>:
    800087bc:	02908463          	beq	ra,s1,800087e4 <i_8404>

00000000800087c0 <i_8395>:
    800087c0:	16a109a3          	sb	a0,371(sp)

00000000800087c4 <i_8396>:
    800087c4:	fa813883          	ld	a7,-88(sp)

00000000800087c8 <i_8397>:
    800087c8:	00212a23          	sw	sp,20(sp)

00000000800087cc <i_8398>:
    800087cc:	03176f3b          	remw	t5,a4,a7

00000000800087d0 <i_8399>:
    800087d0:	00000013          	nop

00000000800087d4 <i_8400>:
    800087d4:	e9312e23          	sw	s3,-356(sp)

00000000800087d8 <i_8401>:
    800087d8:	09815883          	lhu	a7,152(sp)

00000000800087dc <i_8402>:
    800087dc:	00713023          	sd	t2,0(sp)

00000000800087e0 <i_8403>:
    800087e0:	00d00f13          	li	t5,13

00000000800087e4 <i_8404>:
    800087e4:	41e3d3bb          	sraw	t2,t2,t5

00000000800087e8 <i_8405>:
    800087e8:	00000013          	nop

00000000800087ec <i_8406>:
    800087ec:	84500713          	li	a4,-1979

00000000800087f0 <i_8407>:
    800087f0:	84b00993          	li	s3,-1973

00000000800087f4 <i_8408>:
    800087f4:	04111f23          	sh	ra,94(sp)

00000000800087f8 <i_8409>:
    800087f8:	19110123          	sb	a7,386(sp)

00000000800087fc <i_8410>:
    800087fc:	f2013383          	ld	t2,-224(sp)

0000000080008800 <i_8411>:
    80008800:	00000013          	nop

0000000080008804 <i_8412>:
    80008804:	00170713          	addi	a4,a4,1
    80008808:	ff3766e3          	bltu	a4,s3,800087f4 <i_8408>

000000008000880c <i_8413>:
    8000880c:	0db10783          	lb	a5,219(sp)

0000000080008810 <i_8414>:
    80008810:	0313853b          	mulw	a0,t2,a7

0000000080008814 <i_8415>:
    80008814:	02f7b7b3          	mulhu	a5,a5,a5

0000000080008818 <i_8416>:
    80008818:	031506b3          	mul	a3,a0,a7

000000008000881c <i_8417>:
    8000881c:	03416983          	lwu	s3,52(sp)

0000000080008820 <i_8418>:
    80008820:	83700f93          	li	t6,-1993

0000000080008824 <i_8419>:
    80008824:	84400513          	li	a0,-1980

0000000080008828 <i_8420>:
    80008828:	12f12423          	sw	a5,296(sp)

000000008000882c <i_8421>:
    8000882c:	01f9e263          	bltu	s3,t6,80008830 <i_8422>

0000000080008830 <i_8422>:
    80008830:	011984b3          	add	s1,s3,a7

0000000080008834 <i_8423>:
    80008834:	0056c663          	blt	a3,t0,80008840 <i_8426>

0000000080008838 <i_8424>:
    80008838:	04412b83          	lw	s7,68(sp)

000000008000883c <i_8425>:
    8000883c:	00000013          	nop

0000000080008840 <i_8426>:
    80008840:	03800693          	li	a3,56

0000000080008844 <i_8427>:
    80008844:	40ddd933          	sra	s2,s11,a3

0000000080008848 <i_8428>:
    80008848:	06a12e23          	sw	a0,124(sp)

000000008000884c <i_8429>:
    8000884c:	03f3f6b3          	remu	a3,t2,t6

0000000080008850 <i_8430>:
    80008850:	12b10983          	lb	s3,299(sp)

0000000080008854 <i_8431>:
    80008854:	00a00613          	li	a2,10

0000000080008858 <i_8432>:
    80008858:	40c5583b          	sraw	a6,a0,a2

000000008000885c <i_8433>:
    8000885c:	f7e15983          	lhu	s3,-130(sp)

0000000080008860 <i_8434>:
    80008860:	001f8f93          	addi	t6,t6,1
    80008864:	fdf552e3          	ble	t6,a0,80008828 <i_8420>

0000000080008868 <i_8435>:
    80008868:	e7610503          	lb	a0,-394(sp)

000000008000886c <i_8436>:
    8000886c:	8c95081b          	addiw	a6,a0,-1847

0000000080008870 <i_8437>:
    80008870:	02c65833          	divu	a6,a2,a2

0000000080008874 <i_8438>:
    80008874:	f1510603          	lb	a2,-235(sp)

0000000080008878 <i_8439>:
    80008878:	02a57bbb          	remuw	s7,a0,a0

000000008000887c <i_8440>:
    8000887c:	f5011023          	sh	a6,-192(sp)

0000000080008880 <i_8441>:
    80008880:	00abc263          	blt	s7,a0,80008884 <i_8442>

0000000080008884 <i_8442>:
    80008884:	034bf313          	andi	t1,s7,52

0000000080008888 <i_8443>:
    80008888:	65467913          	andi	s2,a2,1620

000000008000888c <i_8444>:
    8000888c:	1e615903          	lhu	s2,486(sp)

0000000080008890 <i_8445>:
    80008890:	00e00293          	li	t0,14

0000000080008894 <i_8446>:
    80008894:	00551d3b          	sllw	s10,a0,t0

0000000080008898 <i_8447>:
    80008898:	e3a101a3          	sb	s10,-477(sp)

000000008000889c <i_8448>:
    8000889c:	e8c11883          	lh	a7,-372(sp)

00000000800088a0 <i_8449>:
    800088a0:	12713c23          	sd	t2,312(sp)

00000000800088a4 <i_8450>:
    800088a4:	9f67d837          	lui	a6,0x9f67d

00000000800088a8 <i_8451>:
    800088a8:	02581263          	bne	a6,t0,800088cc <i_8460>

00000000800088ac <i_8452>:
    800088ac:	fe412703          	lw	a4,-28(sp)

00000000800088b0 <i_8453>:
    800088b0:	08512e23          	sw	t0,156(sp)

00000000800088b4 <i_8454>:
    800088b4:	01d59e63          	bne	a1,t4,800088d0 <i_8461>

00000000800088b8 <i_8455>:
    800088b8:	030eceb3          	div	t4,t4,a6

00000000800088bc <i_8456>:
    800088bc:	07013c23          	sd	a6,120(sp)

00000000800088c0 <i_8457>:
    800088c0:	f0c11e83          	lh	t4,-244(sp)

00000000800088c4 <i_8458>:
    800088c4:	ec615e83          	lhu	t4,-314(sp)

00000000800088c8 <i_8459>:
    800088c8:	004bde93          	srli	t4,s7,0x4

00000000800088cc <i_8460>:
    800088cc:	03dbbab3          	mulhu	s5,s7,t4

00000000800088d0 <i_8461>:
    800088d0:	00000013          	nop

00000000800088d4 <i_8462>:
    800088d4:	e2610e83          	lb	t4,-474(sp)

00000000800088d8 <i_8463>:
    800088d8:	74e00813          	li	a6,1870

00000000800088dc <i_8464>:
    800088dc:	75100b93          	li	s7,1873

00000000800088e0 <i_8465>:
    800088e0:	0252e2bb          	remw	t0,t0,t0

00000000800088e4 <i_8466>:
    800088e4:	ee816a83          	lwu	s5,-280(sp)

00000000800088e8 <i_8467>:
    800088e8:	00180813          	addi	a6,a6,1 # ffffffff9f67d001 <_end+0xffffffff1f66cbed>
    800088ec:	ff784ae3          	blt	a6,s7,800088e0 <i_8465>

00000000800088f0 <i_8468>:
    800088f0:	005a9c63          	bne	s5,t0,80008908 <i_8474>

00000000800088f4 <i_8469>:
    800088f4:	94eaaa93          	slti	s5,s5,-1714

00000000800088f8 <i_8470>:
    800088f8:	01000393          	li	t2,16

00000000800088fc <i_8471>:
    800088fc:	007a94bb          	sllw	s1,s5,t2

0000000080008900 <i_8472>:
    80008900:	03229263          	bne	t0,s2,80008924 <i_8481>

0000000080008904 <i_8473>:
    80008904:	0e512223          	sw	t0,228(sp)

0000000080008908 <i_8474>:
    80008908:	15d14283          	lbu	t0,349(sp)

000000008000890c <i_8475>:
    8000890c:	0094d663          	ble	s1,s1,80008918 <i_8478>

0000000080008910 <i_8476>:
    80008910:	03e2c23b          	divw	tp,t0,t5

0000000080008914 <i_8477>:
    80008914:	0a010903          	lb	s2,160(sp)

0000000080008918 <i_8478>:
    80008918:	12814b03          	lbu	s6,296(sp)

000000008000891c <i_8479>:
    8000891c:	fc412423          	sw	tp,-56(sp)

0000000080008920 <i_8480>:
    80008920:	01700f13          	li	t5,23

0000000080008924 <i_8481>:
    80008924:	41e9563b          	sraw	a2,s2,t5

0000000080008928 <i_8482>:
    80008928:	41638b3b          	subw	s6,t2,s6

000000008000892c <i_8483>:
    8000892c:	036a84b3          	mul	s1,s5,s6

0000000080008930 <i_8484>:
    80008930:	016b7c63          	bleu	s6,s6,80008948 <i_8490>

0000000080008934 <i_8485>:
    80008934:	f1612c23          	sw	s6,-232(sp)

0000000080008938 <i_8486>:
    80008938:	0047d79b          	srliw	a5,a5,0x4

000000008000893c <i_8487>:
    8000893c:	036bdb33          	divu	s6,s7,s6

0000000080008940 <i_8488>:
    80008940:	e4015603          	lhu	a2,-448(sp)

0000000080008944 <i_8489>:
    80008944:	0bd10483          	lb	s1,189(sp)

0000000080008948 <i_8490>:
    80008948:	0e912a23          	sw	s1,244(sp)

000000008000894c <i_8491>:
    8000894c:	10913c23          	sd	s1,280(sp)

0000000080008950 <i_8492>:
    80008950:	00265493          	srli	s1,a2,0x2

0000000080008954 <i_8493>:
    80008954:	fd714483          	lbu	s1,-41(sp)

0000000080008958 <i_8494>:
    80008958:	00964663          	blt	a2,s1,80008964 <i_8497>

000000008000895c <i_8495>:
    8000895c:	0164d663          	ble	s6,s1,80008968 <i_8498>

0000000080008960 <i_8496>:
    80008960:	07812d83          	lw	s11,120(sp)

0000000080008964 <i_8497>:
    80008964:	036711b3          	mulh	gp,a4,s6

0000000080008968 <i_8498>:
    80008968:	0224eb33          	rem	s6,s1,sp

000000008000896c <i_8499>:
    8000896c:	02b4bc33          	mulhu	s8,s1,a1

0000000080008970 <i_8500>:
    80008970:	05612c23          	sw	s6,88(sp)

0000000080008974 <i_8501>:
    80008974:	ec013783          	ld	a5,-320(sp)

0000000080008978 <i_8502>:
    80008978:	f4214d83          	lbu	s11,-190(sp)

000000008000897c <i_8503>:
    8000897c:	02100d93          	li	s11,33

0000000080008980 <i_8504>:
    80008980:	01b25db3          	srl	s11,tp,s11

0000000080008984 <i_8505>:
    80008984:	84700793          	li	a5,-1977

0000000080008988 <i_8506>:
    80008988:	85000993          	li	s3,-1968

000000008000898c <i_8507>:
    8000898c:	01311f23          	sh	s3,30(sp)

0000000080008990 <i_8508>:
    80008990:	01a11c03          	lh	s8,26(sp)

0000000080008994 <i_8509>:
    80008994:	1b016d83          	lwu	s11,432(sp)

0000000080008998 <i_8510>:
    80008998:	f9813c03          	ld	s8,-104(sp)

000000008000899c <i_8511>:
    8000899c:	00178793          	addi	a5,a5,1
    800089a0:	fef9f4e3          	bleu	a5,s3,80008988 <i_8506>

00000000800089a4 <i_8512>:
    800089a4:	018dcc63          	blt	s11,s8,800089bc <i_8518>

00000000800089a8 <i_8513>:
    800089a8:	e4813683          	ld	a3,-440(sp)

00000000800089ac <i_8514>:
    800089ac:	00dc0db3          	add	s11,s8,a3

00000000800089b0 <i_8515>:
    800089b0:	efc11883          	lh	a7,-260(sp)

00000000800089b4 <i_8516>:
    800089b4:	0d812583          	lw	a1,216(sp)

00000000800089b8 <i_8517>:
    800089b8:	fee11c03          	lh	s8,-18(sp)

00000000800089bc <i_8518>:
    800089bc:	029c5463          	ble	s1,s8,800089e4 <i_8528>

00000000800089c0 <i_8519>:
    800089c0:	0116d463          	ble	a7,a3,800089c8 <i_8521>

00000000800089c4 <i_8520>:
    800089c4:	0032d29b          	srliw	t0,t0,0x3

00000000800089c8 <i_8521>:
    800089c8:	f7812a23          	sw	s8,-140(sp)

00000000800089cc <i_8522>:
    800089cc:	e7113023          	sd	a7,-416(sp)

00000000800089d0 <i_8523>:
    800089d0:	0b812603          	lw	a2,184(sp)

00000000800089d4 <i_8524>:
    800089d4:	0288e733          	rem	a4,a7,s0

00000000800089d8 <i_8525>:
    800089d8:	ec714e83          	lbu	t4,-313(sp)

00000000800089dc <i_8526>:
    800089dc:	02300793          	li	a5,35

00000000800089e0 <i_8527>:
    800089e0:	00f8db33          	srl	s6,a7,a5

00000000800089e4 <i_8528>:
    800089e4:	e6811583          	lh	a1,-408(sp)

00000000800089e8 <i_8529>:
    800089e8:	10a15883          	lhu	a7,266(sp)

00000000800089ec <i_8530>:
    800089ec:	f0812883          	lw	a7,-248(sp)

00000000800089f0 <i_8531>:
    800089f0:	00f5f863          	bleu	a5,a1,80008a00 <i_8535>

00000000800089f4 <i_8532>:
    800089f4:	0105f5b3          	and	a1,a1,a6

00000000800089f8 <i_8533>:
    800089f8:	54247793          	andi	a5,s0,1346

00000000800089fc <i_8534>:
    800089fc:	15012503          	lw	a0,336(sp)

0000000080008a00 <i_8535>:
    80008a00:	342caa93          	slti	s5,s9,834

0000000080008a04 <i_8536>:
    80008a04:	f6b12623          	sw	a1,-148(sp)

0000000080008a08 <i_8537>:
    80008a08:	ff214983          	lbu	s3,-14(sp)

0000000080008a0c <i_8538>:
    80008a0c:	17312e23          	sw	s3,380(sp)

0000000080008a10 <i_8539>:
    80008a10:	e2e11c83          	lh	s9,-466(sp)

0000000080008a14 <i_8540>:
    80008a14:	00700c93          	li	s9,7

0000000080008a18 <i_8541>:
    80008a18:	01999dbb          	sllw	s11,s3,s9

0000000080008a1c <i_8542>:
    80008a1c:	73100993          	li	s3,1841

0000000080008a20 <i_8543>:
    80008a20:	74400d13          	li	s10,1860

0000000080008a24 <i_8544>:
    80008a24:	97dce313          	ori	t1,s9,-1667

0000000080008a28 <i_8545>:
    80008a28:	03a35cb3          	divu	s9,t1,s10

0000000080008a2c <i_8546>:
    80008a2c:	0f9102a3          	sb	s9,229(sp)

0000000080008a30 <i_8547>:
    80008a30:	006d0e63          	beq	s10,t1,80008a4c <i_8553>

0000000080008a34 <i_8548>:
    80008a34:	009ddc63          	ble	s1,s11,80008a4c <i_8553>

0000000080008a38 <i_8549>:
    80008a38:	00198993          	addi	s3,s3,1
    80008a3c:	ff3d74e3          	bleu	s3,s10,80008a24 <i_8544>

0000000080008a40 <i_8550>:
    80008a40:	01bcab33          	slt	s6,s9,s11

0000000080008a44 <i_8551>:
    80008a44:	01a32cb3          	slt	s9,t1,s10

0000000080008a48 <i_8552>:
    80008a48:	1d714c03          	lbu	s8,471(sp)

0000000080008a4c <i_8553>:
    80008a4c:	fcc12d83          	lw	s11,-52(sp)

0000000080008a50 <i_8554>:
    80008a50:	01bc7c63          	bleu	s11,s8,80008a68 <i_8560>

0000000080008a54 <i_8555>:
    80008a54:	eb314d83          	lbu	s11,-333(sp)

0000000080008a58 <i_8556>:
    80008a58:	016c6c33          	or	s8,s8,s6

0000000080008a5c <i_8557>:
    80008a5c:	4f34b2b7          	lui	t0,0x4f34b

0000000080008a60 <i_8558>:
    80008a60:	07613423          	sd	s6,104(sp)

0000000080008a64 <i_8559>:
    80008a64:	1d612223          	sw	s6,452(sp)

0000000080008a68 <i_8560>:
    80008a68:	f0813283          	ld	t0,-248(sp)

0000000080008a6c <i_8561>:
    80008a6c:	005d8c63          	beq	s11,t0,80008a84 <i_8567>

0000000080008a70 <i_8562>:
    80008a70:	01e00f93          	li	t6,30

0000000080008a74 <i_8563>:
    80008a74:	01f29dbb          	sllw	s11,t0,t6

0000000080008a78 <i_8564>:
    80008a78:	402ddd9b          	sraiw	s11,s11,0x2

0000000080008a7c <i_8565>:
    80008a7c:	f6111023          	sh	ra,-160(sp)

0000000080008a80 <i_8566>:
    80008a80:	01b0ca63          	blt	ra,s11,80008a94 <i_8571>

0000000080008a84 <i_8567>:
    80008a84:	0010d713          	srli	a4,ra,0x1

0000000080008a88 <i_8568>:
    80008a88:	a0ec4b93          	xori	s7,s8,-1522

0000000080008a8c <i_8569>:
    80008a8c:	00000013          	nop

0000000080008a90 <i_8570>:
    80008a90:	0c415403          	lhu	s0,196(sp)

0000000080008a94 <i_8571>:
    80008a94:	e8415603          	lhu	a2,-380(sp)

0000000080008a98 <i_8572>:
    80008a98:	4039d61b          	sraiw	a2,s3,0x3

0000000080008a9c <i_8573>:
    80008a9c:	85600293          	li	t0,-1962

0000000080008aa0 <i_8574>:
    80008aa0:	85a00713          	li	a4,-1958

0000000080008aa4 <i_8575>:
    80008aa4:	00416783          	lwu	a5,4(sp)

0000000080008aa8 <i_8576>:
    80008aa8:	7998c413          	xori	s0,a7,1945

0000000080008aac <i_8577>:
    80008aac:	02c088bb          	mulw	a7,ra,a2

0000000080008ab0 <i_8578>:
    80008ab0:	0033d39b          	srliw	t2,t2,0x3

0000000080008ab4 <i_8579>:
    80008ab4:	0078b0b3          	sltu	ra,a7,t2

0000000080008ab8 <i_8580>:
    80008ab8:	c020b393          	sltiu	t2,ra,-1022

0000000080008abc <i_8581>:
    80008abc:	f4911923          	sh	s1,-174(sp)

0000000080008ac0 <i_8582>:
    80008ac0:	1b215383          	lhu	t2,434(sp)

0000000080008ac4 <i_8583>:
    80008ac4:	e6a10083          	lb	ra,-406(sp)

0000000080008ac8 <i_8584>:
    80008ac8:	002e191b          	slliw	s2,t3,0x2

0000000080008acc <i_8585>:
    80008acc:	1e011483          	lh	s1,480(sp)

0000000080008ad0 <i_8586>:
    80008ad0:	0aa12623          	sw	a0,172(sp)

0000000080008ad4 <i_8587>:
    80008ad4:	f4c12183          	lw	gp,-180(sp)

0000000080008ad8 <i_8588>:
    80008ad8:	00128293          	addi	t0,t0,1 # 4f34b001 <main-0x30cb4fff>
    80008adc:	fc5754e3          	ble	t0,a4,80008aa4 <i_8575>

0000000080008ae0 <i_8589>:
    80008ae0:	0013991b          	slliw	s2,t2,0x1

0000000080008ae4 <i_8590>:
    80008ae4:	00e4acb3          	slt	s9,s1,a4

0000000080008ae8 <i_8591>:
    80008ae8:	019d0d33          	add	s10,s10,s9

0000000080008aec <i_8592>:
    80008aec:	18813c03          	ld	s8,392(sp)

0000000080008af0 <i_8593>:
    80008af0:	026c2bb3          	mulhsu	s7,s8,t1

0000000080008af4 <i_8594>:
    80008af4:	f2815283          	lhu	t0,-216(sp)

0000000080008af8 <i_8595>:
    80008af8:	ff110a83          	lb	s5,-15(sp)

0000000080008afc <i_8596>:
    80008afc:	00c00c93          	li	s9,12

0000000080008b00 <i_8597>:
    80008b00:	01939bbb          	sllw	s7,t2,s9

0000000080008b04 <i_8598>:
    80008b04:	01798cb3          	add	s9,s3,s7

0000000080008b08 <i_8599>:
    80008b08:	ed911723          	sh	s9,-306(sp)

0000000080008b0c <i_8600>:
    80008b0c:	039cccb3          	div	s9,s9,s9

0000000080008b10 <i_8601>:
    80008b10:	01912e23          	sw	s9,28(sp)

0000000080008b14 <i_8602>:
    80008b14:	00000013          	nop

0000000080008b18 <i_8603>:
    80008b18:	8a100693          	li	a3,-1887

0000000080008b1c <i_8604>:
    80008b1c:	8b500d93          	li	s11,-1867

0000000080008b20 <i_8605>:
    80008b20:	f45103a3          	sb	t0,-185(sp)

0000000080008b24 <i_8606>:
    80008b24:	019c9263          	bne	s9,s9,80008b28 <i_8607>

0000000080008b28 <i_8607>:
    80008b28:	039cc063          	blt	s9,s9,80008b48 <i_8615>

0000000080008b2c <i_8608>:
    80008b2c:	02800c93          	li	s9,40

0000000080008b30 <i_8609>:
    80008b30:	019c9cb3          	sll	s9,s9,s9

0000000080008b34 <i_8610>:
    80008b34:	00345413          	srli	s0,s0,0x3

0000000080008b38 <i_8611>:
    80008b38:	f5914b03          	lbu	s6,-167(sp)

0000000080008b3c <i_8612>:
    80008b3c:	e7411403          	lh	s0,-396(sp)

0000000080008b40 <i_8613>:
    80008b40:	00000013          	nop

0000000080008b44 <i_8614>:
    80008b44:	ff813c83          	ld	s9,-8(sp)

0000000080008b48 <i_8615>:
    80008b48:	403b5f1b          	sraiw	t5,s6,0x3

0000000080008b4c <i_8616>:
    80008b4c:	14813583          	ld	a1,328(sp)

0000000080008b50 <i_8617>:
    80008b50:	038b7263          	bleu	s8,s6,80008b74 <i_8625>

0000000080008b54 <i_8618>:
    80008b54:	00168693          	addi	a3,a3,1
    80008b58:	fcddd4e3          	ble	a3,s11,80008b20 <i_8605>

0000000080008b5c <i_8619>:
    80008b5c:	f5613423          	sd	s6,-184(sp)

0000000080008b60 <i_8620>:
    80008b60:	03f58433          	mul	s0,a1,t6

0000000080008b64 <i_8621>:
    80008b64:	fd914283          	lbu	t0,-39(sp)

0000000080008b68 <i_8622>:
    80008b68:	ce058e1b          	addiw	t3,a1,-800

0000000080008b6c <i_8623>:
    80008b6c:	02844263          	blt	s0,s0,80008b90 <i_8632>

0000000080008b70 <i_8624>:
    80008b70:	eee11f03          	lh	t5,-274(sp)

0000000080008b74 <i_8625>:
    80008b74:	01940e63          	beq	s0,s9,80008b90 <i_8632>

0000000080008b78 <i_8626>:
    80008b78:	016e6c63          	bltu	t3,s6,80008b90 <i_8632>

0000000080008b7c <i_8627>:
    80008b7c:	1eb10223          	sb	a1,484(sp)

0000000080008b80 <i_8628>:
    80008b80:	034e5cbb          	divuw	s9,t3,s4

0000000080008b84 <i_8629>:
    80008b84:	00000013          	nop

0000000080008b88 <i_8630>:
    80008b88:	eb411a03          	lh	s4,-332(sp)

0000000080008b8c <i_8631>:
    80008b8c:	f9c105a3          	sb	t3,-117(sp)

0000000080008b90 <i_8632>:
    80008b90:	031a08bb          	mulw	a7,s4,a7

0000000080008b94 <i_8633>:
    80008b94:	0b013883          	ld	a7,176(sp)

0000000080008b98 <i_8634>:
    80008b98:	80200593          	li	a1,-2046

0000000080008b9c <i_8635>:
    80008b9c:	80d00e13          	li	t3,-2035

0000000080008ba0 <i_8636>:
    80008ba0:	f4114883          	lbu	a7,-191(sp)

0000000080008ba4 <i_8637>:
    80008ba4:	b79c97b7          	lui	a5,0xb79c9

0000000080008ba8 <i_8638>:
    80008ba8:	0157e863          	bltu	a5,s5,80008bb8 <i_8642>

0000000080008bac <i_8639>:
    80008bac:	0398c663          	blt	a7,s9,80008bd8 <i_8649>

0000000080008bb0 <i_8640>:
    80008bb0:	0118e263          	bltu	a7,a7,80008bb4 <i_8641>

0000000080008bb4 <i_8641>:
    80008bb4:	00f88263          	beq	a7,a5,80008bb8 <i_8642>

0000000080008bb8 <i_8642>:
    80008bb8:	09013883          	ld	a7,144(sp)

0000000080008bbc <i_8643>:
    80008bbc:	09111b23          	sh	a7,150(sp)

0000000080008bc0 <i_8644>:
    80008bc0:	00158593          	addi	a1,a1,1
    80008bc4:	fdc5cee3          	blt	a1,t3,80008ba0 <i_8636>

0000000080008bc8 <i_8645>:
    80008bc8:	fb414183          	lbu	gp,-76(sp)

0000000080008bcc <i_8646>:
    80008bcc:	03babd33          	mulhu	s10,s5,s11

0000000080008bd0 <i_8647>:
    80008bd0:	f8412a83          	lw	s5,-124(sp)

0000000080008bd4 <i_8648>:
    80008bd4:	01816503          	lwu	a0,24(sp)

0000000080008bd8 <i_8649>:
    80008bd8:	f8c16d03          	lwu	s10,-116(sp)

0000000080008bdc <i_8650>:
    80008bdc:	02900c13          	li	s8,41

0000000080008be0 <i_8651>:
    80008be0:	018d5fb3          	srl	t6,s10,s8

0000000080008be4 <i_8652>:
    80008be4:	7c600d93          	li	s11,1990

0000000080008be8 <i_8653>:
    80008be8:	7cf00893          	li	a7,1999

0000000080008bec <i_8654>:
    80008bec:	fb615f83          	lhu	t6,-74(sp)

0000000080008bf0 <i_8655>:
    80008bf0:	001d8d93          	addi	s11,s11,1 # 5fa00001 <main-0x205fffff>
    80008bf4:	ffb8fae3          	bleu	s11,a7,80008be8 <i_8653>

0000000080008bf8 <i_8656>:
    80008bf8:	f7812a23          	sw	s8,-140(sp)

0000000080008bfc <i_8657>:
    80008bfc:	9ac50f93          	addi	t6,a0,-1620

0000000080008c00 <i_8658>:
    80008c00:	00d00c13          	li	s8,13

0000000080008c04 <i_8659>:
    80008c04:	018f9abb          	sllw	s5,t6,s8

0000000080008c08 <i_8660>:
    80008c08:	002d4463          	blt	s10,sp,80008c10 <i_8662>

0000000080008c0c <i_8661>:
    80008c0c:	01af8d33          	add	s10,t6,s10

0000000080008c10 <i_8662>:
    80008c10:	e6e15c03          	lhu	s8,-402(sp)

0000000080008c14 <i_8663>:
    80008c14:	01af8fb3          	add	t6,t6,s10

0000000080008c18 <i_8664>:
    80008c18:	018c0d33          	add	s10,s8,s8

0000000080008c1c <i_8665>:
    80008c1c:	00010c03          	lb	s8,0(sp)

0000000080008c20 <i_8666>:
    80008c20:	038d36b3          	mulhu	a3,s10,s8

0000000080008c24 <i_8667>:
    80008c24:	ee813a03          	ld	s4,-280(sp)

0000000080008c28 <i_8668>:
    80008c28:	18913023          	sd	s1,384(sp)

0000000080008c2c <i_8669>:
    80008c2c:	f4811a03          	lh	s4,-184(sp)

0000000080008c30 <i_8670>:
    80008c30:	0cc12a03          	lw	s4,204(sp)

0000000080008c34 <i_8671>:
    80008c34:	17114d03          	lbu	s10,369(sp)

0000000080008c38 <i_8672>:
    80008c38:	f2013803          	ld	a6,-224(sp)

0000000080008c3c <i_8673>:
    80008c3c:	012d4663          	blt	s10,s2,80008c48 <i_8676>

0000000080008c40 <i_8674>:
    80008c40:	ec816903          	lwu	s2,-312(sp)

0000000080008c44 <i_8675>:
    80008c44:	11611483          	lh	s1,278(sp)

0000000080008c48 <i_8676>:
    80008c48:	e7015b83          	lhu	s7,-400(sp)

0000000080008c4c <i_8677>:
    80008c4c:	1adbf637          	lui	a2,0x1adbf

0000000080008c50 <i_8678>:
    80008c50:	037ba833          	mulhsu	a6,s7,s7

0000000080008c54 <i_8679>:
    80008c54:	030bc0bb          	divw	ra,s7,a6

0000000080008c58 <i_8680>:
    80008c58:	00cbfe63          	bleu	a2,s7,80008c74 <i_8687>

0000000080008c5c <i_8681>:
    80008c5c:	03079063          	bne	a5,a6,80008c7c <i_8689>

0000000080008c60 <i_8682>:
    80008c60:	f9714783          	lbu	a5,-105(sp)

0000000080008c64 <i_8683>:
    80008c64:	03008633          	mul	a2,ra,a6

0000000080008c68 <i_8684>:
    80008c68:	0d013b83          	ld	s7,208(sp)

0000000080008c6c <i_8685>:
    80008c6c:	00cb8c63          	beq	s7,a2,80008c84 <i_8691>

0000000080008c70 <i_8686>:
    80008c70:	0030db9b          	srliw	s7,ra,0x3

0000000080008c74 <i_8687>:
    80008c74:	001b9a63          	bne	s7,ra,80008c88 <i_8692>

0000000080008c78 <i_8688>:
    80008c78:	03c08063          	beq	ra,t3,80008c98 <i_8696>

0000000080008c7c <i_8689>:
    80008c7c:	0e314783          	lbu	a5,227(sp)

0000000080008c80 <i_8690>:
    80008c80:	3658fbb7          	lui	s7,0x3658f

0000000080008c84 <i_8691>:
    80008c84:	03712623          	sw	s7,44(sp)

0000000080008c88 <i_8692>:
    80008c88:	1c113c23          	sd	ra,472(sp)

0000000080008c8c <i_8693>:
    80008c8c:	01000813          	li	a6,16

0000000080008c90 <i_8694>:
    80008c90:	41085433          	sra	s0,a6,a6

0000000080008c94 <i_8695>:
    80008c94:	01827a63          	bleu	s8,tp,80008ca8 <i_8700>

0000000080008c98 <i_8696>:
    80008c98:	fc812423          	sw	s0,-56(sp)

0000000080008c9c <i_8697>:
    80008c9c:	40f804b3          	sub	s1,a6,a5

0000000080008ca0 <i_8698>:
    80008ca0:	0177e863          	bltu	a5,s7,80008cb0 <i_8702>

0000000080008ca4 <i_8699>:
    80008ca4:	402bd093          	srai	ra,s7,0x2

0000000080008ca8 <i_8700>:
    80008ca8:	63c67413          	andi	s0,a2,1596

0000000080008cac <i_8701>:
    80008cac:	03780463          	beq	a6,s7,80008cd4 <i_8711>

0000000080008cb0 <i_8702>:
    80008cb0:	017bd463          	ble	s7,s7,80008cb8 <i_8704>

0000000080008cb4 <i_8703>:
    80008cb4:	f2415b83          	lhu	s7,-220(sp)

0000000080008cb8 <i_8704>:
    80008cb8:	011df263          	bleu	a7,s11,80008cbc <i_8705>

0000000080008cbc <i_8705>:
    80008cbc:	e7c16b83          	lwu	s7,-388(sp)

0000000080008cc0 <i_8706>:
    80008cc0:	e4911723          	sh	s1,-434(sp)

0000000080008cc4 <i_8707>:
    80008cc4:	01d00e93          	li	t4,29

0000000080008cc8 <i_8708>:
    80008cc8:	01d4d0bb          	srlw	ra,s1,t4

0000000080008ccc <i_8709>:
    80008ccc:	037be463          	bltu	s7,s7,80008cf4 <i_8719>

0000000080008cd0 <i_8710>:
    80008cd0:	03510283          	lb	t0,53(sp)

0000000080008cd4 <i_8711>:
    80008cd4:	f4511e23          	sh	t0,-164(sp)

0000000080008cd8 <i_8712>:
    80008cd8:	0034dd1b          	srliw	s10,s1,0x3

0000000080008cdc <i_8713>:
    80008cdc:	00118bb3          	add	s7,gp,ra

0000000080008ce0 <i_8714>:
    80008ce0:	a92be493          	ori	s1,s7,-1390

0000000080008ce4 <i_8715>:
    80008ce4:	0091da63          	ble	s1,gp,80008cf8 <i_8720>

0000000080008ce8 <i_8716>:
    80008ce8:	f4911a23          	sh	s1,-172(sp)

0000000080008cec <i_8717>:
    80008cec:	17e15483          	lhu	s1,382(sp)

0000000080008cf0 <i_8718>:
    80008cf0:	6a716b17          	auipc	s6,0x6a716

0000000080008cf4 <i_8719>:
    80008cf4:	00eb5663          	ble	a4,s6,80008d00 <i_8722>

0000000080008cf8 <i_8720>:
    80008cf8:	03774733          	div	a4,a4,s7

0000000080008cfc <i_8721>:
    80008cfc:	036b01bb          	mulw	gp,s6,s6

0000000080008d00 <i_8722>:
    80008d00:	401b5b1b          	sraiw	s6,s6,0x1

0000000080008d04 <i_8723>:
    80008d04:	0031d463          	ble	gp,gp,80008d0c <i_8725>

0000000080008d08 <i_8724>:
    80008d08:	f7016883          	lwu	a7,-144(sp)

0000000080008d0c <i_8725>:
    80008d0c:	1e016803          	lwu	a6,480(sp)

0000000080008d10 <i_8726>:
    80008d10:	0d914483          	lbu	s1,217(sp)

0000000080008d14 <i_8727>:
    80008d14:	8ba00b13          	li	s6,-1862

0000000080008d18 <i_8728>:
    80008d18:	8c600a13          	li	s4,-1850

0000000080008d1c <i_8729>:
    80008d1c:	03e00c13          	li	s8,62

0000000080008d20 <i_8730>:
    80008d20:	41825233          	sra	tp,tp,s8

0000000080008d24 <i_8731>:
    80008d24:	001b0b13          	addi	s6,s6,1 # ea71ecf1 <_end+0x6a70e8dd>
    80008d28:	ff4b1ae3          	bne	s6,s4,80008d1c <i_8729>

0000000080008d2c <i_8732>:
    80008d2c:	00000013          	nop

0000000080008d30 <i_8733>:
    80008d30:	f9013683          	ld	a3,-112(sp)

0000000080008d34 <i_8734>:
    80008d34:	00948e63          	beq	s1,s1,80008d50 <i_8741>

0000000080008d38 <i_8735>:
    80008d38:	10714b83          	lbu	s7,263(sp)

0000000080008d3c <i_8736>:
    80008d3c:	01c52bb3          	slt	s7,a0,t3

0000000080008d40 <i_8737>:
    80008d40:	00d00813          	li	a6,13

0000000080008d44 <i_8738>:
    80008d44:	01041fbb          	sllw	t6,s0,a6

0000000080008d48 <i_8739>:
    80008d48:	f6810423          	sb	s0,-152(sp)

0000000080008d4c <i_8740>:
    80008d4c:	41f98433          	sub	s0,s3,t6

0000000080008d50 <i_8741>:
    80008d50:	08f82893          	slti	a7,a6,143

0000000080008d54 <i_8742>:
    80008d54:	0268c433          	div	s0,a7,t1

0000000080008d58 <i_8743>:
    80008d58:	0118b8b3          	sltu	a7,a7,a7

0000000080008d5c <i_8744>:
    80008d5c:	13012583          	lw	a1,304(sp)

0000000080008d60 <i_8745>:
    80008d60:	15815c83          	lhu	s9,344(sp)

0000000080008d64 <i_8746>:
    80008d64:	0118ec63          	bltu	a7,a7,80008d7c <i_8752>

0000000080008d68 <i_8747>:
    80008d68:	031c8263          	beq	s9,a7,80008d8c <i_8756>

0000000080008d6c <i_8748>:
    80008d6c:	f5c11683          	lh	a3,-164(sp)

0000000080008d70 <i_8749>:
    80008d70:	00bb4933          	xor	s2,s6,a1

0000000080008d74 <i_8750>:
    80008d74:	e3013583          	ld	a1,-464(sp)

0000000080008d78 <i_8751>:
    80008d78:	0124d263          	ble	s2,s1,80008d7c <i_8752>

0000000080008d7c <i_8752>:
    80008d7c:	fd710a83          	lb	s5,-41(sp)

0000000080008d80 <i_8753>:
    80008d80:	01a806b3          	add	a3,a6,s10

0000000080008d84 <i_8754>:
    80008d84:	00000013          	nop

0000000080008d88 <i_8755>:
    80008d88:	fda13823          	sd	s10,-48(sp)

0000000080008d8c <i_8756>:
    80008d8c:	0dd10a03          	lb	s4,221(sp)

0000000080008d90 <i_8757>:
    80008d90:	e8d10e03          	lb	t3,-371(sp)

0000000080008d94 <i_8758>:
    80008d94:	82e00493          	li	s1,-2002

0000000080008d98 <i_8759>:
    80008d98:	83a00893          	li	a7,-1990

0000000080008d9c <i_8760>:
    80008d9c:	0b412683          	lw	a3,180(sp)

0000000080008da0 <i_8761>:
    80008da0:	00000013          	nop

0000000080008da4 <i_8762>:
    80008da4:	8c500913          	li	s2,-1851

0000000080008da8 <i_8763>:
    80008da8:	8ce00813          	li	a6,-1842

0000000080008dac <i_8764>:
    80008dac:	00000013          	nop

0000000080008db0 <i_8765>:
    80008db0:	41068533          	sub	a0,a3,a6

0000000080008db4 <i_8766>:
    80008db4:	01be01b3          	add	gp,t3,s11

0000000080008db8 <i_8767>:
    80008db8:	00000013          	nop

0000000080008dbc <i_8768>:
    80008dbc:	00190913          	addi	s2,s2,1 # 409e7479 <main-0x3f618b87>
    80008dc0:	ff2876e3          	bleu	s2,a6,80008dac <i_8764>

0000000080008dc4 <i_8769>:
    80008dc4:	0271db3b          	divuw	s6,gp,t2

0000000080008dc8 <i_8770>:
    80008dc8:	6dd6891b          	addiw	s2,a3,1757

0000000080008dcc <i_8771>:
    80008dcc:	e9411423          	sh	s4,-376(sp)

0000000080008dd0 <i_8772>:
    80008dd0:	00148493          	addi	s1,s1,1 # d67fc635 <_end+0x567ec221>
    80008dd4:	fc98f4e3          	bleu	s1,a7,80008d9c <i_8760>

0000000080008dd8 <i_8773>:
    80008dd8:	012c8a63          	beq	s9,s2,80008dec <i_8778>

0000000080008ddc <i_8774>:
    80008ddc:	eb412423          	sw	s4,-344(sp)

0000000080008de0 <i_8775>:
    80008de0:	ea313423          	sd	gp,-344(sp)

0000000080008de4 <i_8776>:
    80008de4:	01900b13          	li	s6,25

0000000080008de8 <i_8777>:
    80008de8:	016a5a3b          	srlw	s4,s4,s6

0000000080008dec <i_8778>:
    80008dec:	032a0b33          	mul	s6,s4,s2

0000000080008df0 <i_8779>:
    80008df0:	016a4a63          	blt	s4,s6,80008e04 <i_8784>

0000000080008df4 <i_8780>:
    80008df4:	03296263          	bltu	s2,s2,80008e18 <i_8789>

0000000080008df8 <i_8781>:
    80008df8:	bdda6513          	ori	a0,s4,-1059

0000000080008dfc <i_8782>:
    80008dfc:	07310703          	lb	a4,115(sp)

0000000080008e00 <i_8783>:
    80008e00:	02a8d8b3          	divu	a7,a7,a0

0000000080008e04 <i_8784>:
    80008e04:	01400a13          	li	s4,20

0000000080008e08 <i_8785>:
    80008e08:	41475a33          	sra	s4,a4,s4

0000000080008e0c <i_8786>:
    80008e0c:	00812a03          	lw	s4,8(sp)

0000000080008e10 <i_8787>:
    80008e10:	f1816303          	lwu	t1,-232(sp)

0000000080008e14 <i_8788>:
    80008e14:	6780ea13          	ori	s4,ra,1656

0000000080008e18 <i_8789>:
    80008e18:	00c32633          	slt	a2,t1,a2

0000000080008e1c <i_8790>:
    80008e1c:	407a03b3          	sub	t2,s4,t2

0000000080008e20 <i_8791>:
    80008e20:	7c800913          	li	s2,1992

0000000080008e24 <i_8792>:
    80008e24:	7db00213          	li	tp,2011

0000000080008e28 <i_8793>:
    80008e28:	00190913          	addi	s2,s2,1
    80008e2c:	fe491ee3          	bne	s2,tp,80008e28 <i_8793>

0000000080008e30 <i_8794>:
    80008e30:	02a54063          	blt	a0,a0,80008e50 <i_8802>

0000000080008e34 <i_8795>:
    80008e34:	f5416503          	lwu	a0,-172(sp)

0000000080008e38 <i_8796>:
    80008e38:	f0c12e03          	lw	t3,-244(sp)

0000000080008e3c <i_8797>:
    80008e3c:	f9414503          	lbu	a0,-108(sp)

0000000080008e40 <i_8798>:
    80008e40:	17412a83          	lw	s5,372(sp)

0000000080008e44 <i_8799>:
    80008e44:	00956e63          	bltu	a0,s1,80008e60 <i_8806>

0000000080008e48 <i_8800>:
    80008e48:	01ce0f33          	add	t5,t3,t3

0000000080008e4c <i_8801>:
    80008e4c:	019e6cb3          	or	s9,t3,s9

0000000080008e50 <i_8802>:
    80008e50:	02ae46b3          	div	a3,t3,a0

0000000080008e54 <i_8803>:
    80008e54:	0dc15c83          	lhu	s9,220(sp)

0000000080008e58 <i_8804>:
    80008e58:	01016883          	lwu	a7,16(sp)

0000000080008e5c <i_8805>:
    80008e5c:	0cb14503          	lbu	a0,203(sp)

0000000080008e60 <i_8806>:
    80008e60:	00a6ea63          	bltu	a3,a0,80008e74 <i_8811>

0000000080008e64 <i_8807>:
    80008e64:	00d51e63          	bne	a0,a3,80008e80 <i_8814>

0000000080008e68 <i_8808>:
    80008e68:	411886b3          	sub	a3,a7,a7

0000000080008e6c <i_8809>:
    80008e6c:	00300813          	li	a6,3

0000000080008e70 <i_8810>:
    80008e70:	4105583b          	sraw	a6,a0,a6

0000000080008e74 <i_8811>:
    80008e74:	eb913423          	sd	s9,-344(sp)

0000000080008e78 <i_8812>:
    80008e78:	fe411503          	lh	a0,-28(sp)

0000000080008e7c <i_8813>:
    80008e7c:	00400693          	li	a3,4

0000000080008e80 <i_8814>:
    80008e80:	40d6d6bb          	sraw	a3,a3,a3

0000000080008e84 <i_8815>:
    80008e84:	00000013          	nop

0000000080008e88 <i_8816>:
    80008e88:	84800c93          	li	s9,-1976

0000000080008e8c <i_8817>:
    80008e8c:	85300893          	li	a7,-1965

0000000080008e90 <i_8818>:
    80008e90:	e8414983          	lbu	s3,-380(sp)

0000000080008e94 <i_8819>:
    80008e94:	00a9c263          	blt	s3,a0,80008e98 <i_8820>

0000000080008e98 <i_8820>:
    80008e98:	03768d3b          	mulw	s10,a3,s7

0000000080008e9c <i_8821>:
    80008e9c:	0cd11f23          	sh	a3,222(sp)

0000000080008ea0 <i_8822>:
    80008ea0:	00000013          	nop

0000000080008ea4 <i_8823>:
    80008ea4:	001c8c93          	addi	s9,s9,1
    80008ea8:	ff1c94e3          	bne	s9,a7,80008e90 <i_8818>

0000000080008eac <i_8824>:
    80008eac:	001f9913          	slli	s2,t6,0x1

0000000080008eb0 <i_8825>:
    80008eb0:	0049171b          	slliw	a4,s2,0x4

0000000080008eb4 <i_8826>:
    80008eb4:	00e6f663          	bleu	a4,a3,80008ec0 <i_8829>

0000000080008eb8 <i_8827>:
    80008eb8:	eb211e23          	sh	s2,-324(sp)

0000000080008ebc <i_8828>:
    80008ebc:	01a76263          	bltu	a4,s10,80008ec0 <i_8829>

0000000080008ec0 <i_8829>:
    80008ec0:	ef013583          	ld	a1,-272(sp)

0000000080008ec4 <i_8830>:
    80008ec4:	00b59463          	bne	a1,a1,80008ecc <i_8832>

0000000080008ec8 <i_8831>:
    80008ec8:	faf10203          	lb	tp,-81(sp)

0000000080008ecc <i_8832>:
    80008ecc:	efc15c83          	lhu	s9,-260(sp)

0000000080008ed0 <i_8833>:
    80008ed0:	12016f83          	lwu	t6,288(sp)

0000000080008ed4 <i_8834>:
    80008ed4:	1d416d83          	lwu	s11,468(sp)

0000000080008ed8 <i_8835>:
    80008ed8:	ede10f83          	lb	t6,-290(sp)

0000000080008edc <i_8836>:
    80008edc:	00a00413          	li	s0,10

0000000080008ee0 <i_8837>:
    80008ee0:	00825f33          	srl	t5,tp,s0

0000000080008ee4 <i_8838>:
    80008ee4:	01c90463          	beq	s2,t3,80008eec <i_8840>

0000000080008ee8 <i_8839>:
    80008ee8:	03c9cb3b          	divw	s6,s3,t3

0000000080008eec <i_8840>:
    80008eec:	f3013a83          	ld	s5,-208(sp)

0000000080008ef0 <i_8841>:
    80008ef0:	1b016703          	lwu	a4,432(sp)

0000000080008ef4 <i_8842>:
    80008ef4:	16816983          	lwu	s3,360(sp)

0000000080008ef8 <i_8843>:
    80008ef8:	f3c15783          	lhu	a5,-196(sp)

0000000080008efc <i_8844>:
    80008efc:	015aaa33          	slt	s4,s5,s5

0000000080008f00 <i_8845>:
    80008f00:	86e00a93          	li	s5,-1938

0000000080008f04 <i_8846>:
    80008f04:	87b00993          	li	s3,-1925

0000000080008f08 <i_8847>:
    80008f08:	01499e63          	bne	s3,s4,80008f24 <i_8853>

0000000080008f0c <i_8848>:
    80008f0c:	001a8a93          	addi	s5,s5,1
    80008f10:	ff59fce3          	bleu	s5,s3,80008f08 <i_8847>

0000000080008f14 <i_8849>:
    80008f14:	08f11223          	sh	a5,132(sp)

0000000080008f18 <i_8850>:
    80008f18:	035a1463          	bne	s4,s5,80008f40 <i_8860>

0000000080008f1c <i_8851>:
    80008f1c:	ee412c83          	lw	s9,-284(sp)

0000000080008f20 <i_8852>:
    80008f20:	03471263          	bne	a4,s4,80008f44 <i_8861>

0000000080008f24 <i_8853>:
    80008f24:	0199a9b3          	slt	s3,s3,s9

0000000080008f28 <i_8854>:
    80008f28:	16a47a13          	andi	s4,s0,362

0000000080008f2c <i_8855>:
    80008f2c:	2d4a2e13          	slti	t3,s4,724

0000000080008f30 <i_8856>:
    80008f30:	034ecebb          	divw	t4,t4,s4

0000000080008f34 <i_8857>:
    80008f34:	01110023          	sb	a7,0(sp)

0000000080008f38 <i_8858>:
    80008f38:	f5c15803          	lhu	a6,-164(sp)

0000000080008f3c <i_8859>:
    80008f3c:	034e8bbb          	mulw	s7,t4,s4

0000000080008f40 <i_8860>:
    80008f40:	010c5663          	ble	a6,s8,80008f4c <i_8863>

0000000080008f44 <i_8861>:
    80008f44:	49197317          	auipc	t1,0x49197

0000000080008f48 <i_8862>:
    80008f48:	15d13023          	sd	t4,320(sp)

0000000080008f4c <i_8863>:
    80008f4c:	019a1663          	bne	s4,s9,80008f58 <i_8866>

0000000080008f50 <i_8864>:
    80008f50:	02300313          	li	t1,35

0000000080008f54 <i_8865>:
    80008f54:	40635833          	sra	a6,t1,t1

0000000080008f58 <i_8866>:
    80008f58:	01300513          	li	a0,19

0000000080008f5c <i_8867>:
    80008f5c:	40abd8b3          	sra	a7,s7,a0

0000000080008f60 <i_8868>:
    80008f60:	1b712823          	sw	s7,432(sp)

0000000080008f64 <i_8869>:
    80008f64:	001370b3          	and	ra,t1,ra

0000000080008f68 <i_8870>:
    80008f68:	02a916b3          	mulh	a3,s2,a0

0000000080008f6c <i_8871>:
    80008f6c:	5d1b851b          	addiw	a0,s7,1489

0000000080008f70 <i_8872>:
    80008f70:	f8816703          	lwu	a4,-120(sp)

0000000080008f74 <i_8873>:
    80008f74:	0216f063          	bleu	ra,a3,80008f94 <i_8881>

0000000080008f78 <i_8874>:
    80008f78:	14014683          	lbu	a3,320(sp)

0000000080008f7c <i_8875>:
    80008f7c:	ed015b83          	lhu	s7,-304(sp)

0000000080008f80 <i_8876>:
    80008f80:	01400693          	li	a3,20

0000000080008f84 <i_8877>:
    80008f84:	00d5153b          	sllw	a0,a0,a3

0000000080008f88 <i_8878>:
    80008f88:	eca13423          	sd	a0,-312(sp)

0000000080008f8c <i_8879>:
    80008f8c:	00adca63          	blt	s11,a0,80008fa0 <i_8884>

0000000080008f90 <i_8880>:
    80008f90:	00e57863          	bleu	a4,a0,80008fa0 <i_8884>

0000000080008f94 <i_8881>:
    80008f94:	15412223          	sw	s4,324(sp)

0000000080008f98 <i_8882>:
    80008f98:	02a64463          	blt	a2,a0,80008fc0 <i_8892>

0000000080008f9c <i_8883>:
    80008f9c:	88714513          	xori	a0,sp,-1913

0000000080008fa0 <i_8884>:
    80008fa0:	0b514403          	lbu	s0,181(sp)

0000000080008fa4 <i_8885>:
    80008fa4:	00ad7463          	bleu	a0,s10,80008fac <i_8887>

0000000080008fa8 <i_8886>:
    80008fa8:	1b813503          	ld	a0,440(sp)

0000000080008fac <i_8887>:
    80008fac:	fb013503          	ld	a0,-80(sp)

0000000080008fb0 <i_8888>:
    80008fb0:	001d1d93          	slli	s11,s10,0x1

0000000080008fb4 <i_8889>:
    80008fb4:	00a50863          	beq	a0,a0,80008fc4 <i_8893>

0000000080008fb8 <i_8890>:
    80008fb8:	e5c15503          	lhu	a0,-420(sp)

0000000080008fbc <i_8891>:
    80008fbc:	403dd51b          	sraiw	a0,s11,0x3

0000000080008fc0 <i_8892>:
    80008fc0:	01b54e63          	blt	a0,s11,80008fdc <i_8899>

0000000080008fc4 <i_8893>:
    80008fc4:	03b548b3          	div	a7,a0,s11

0000000080008fc8 <i_8894>:
    80008fc8:	05812183          	lw	gp,88(sp)

0000000080008fcc <i_8895>:
    80008fcc:	e7013d83          	ld	s11,-400(sp)

0000000080008fd0 <i_8896>:
    80008fd0:	09816b83          	lwu	s7,152(sp)

0000000080008fd4 <i_8897>:
    80008fd4:	1491b193          	sltiu	gp,gp,329

0000000080008fd8 <i_8898>:
    80008fd8:	f2810e83          	lb	t4,-216(sp)

0000000080008fdc <i_8899>:
    80008fdc:	03d11023          	sh	t4,32(sp)

0000000080008fe0 <i_8900>:
    80008fe0:	01100513          	li	a0,17

0000000080008fe4 <i_8901>:
    80008fe4:	00abd1bb          	srlw	gp,s7,a0

0000000080008fe8 <i_8902>:
    80008fe8:	ec313023          	sd	gp,-320(sp)

0000000080008fec <i_8903>:
    80008fec:	0ce10ba3          	sb	a4,215(sp)

0000000080008ff0 <i_8904>:
    80008ff0:	001bbab3          	sltu	s5,s7,ra

0000000080008ff4 <i_8905>:
    80008ff4:	e8813383          	ld	t2,-376(sp)

0000000080008ff8 <i_8906>:
    80008ff8:	0b612023          	sw	s6,160(sp)

0000000080008ffc <i_8907>:
    80008ffc:	e6714a83          	lbu	s5,-409(sp)

0000000080009000 <i_8908>:
    80009000:	e7f103a3          	sb	t6,-409(sp)

0000000080009004 <i_8909>:
    80009004:	68f66b17          	auipc	s6,0x68f66

0000000080009008 <i_8910>:
    80009008:	002a9793          	slli	a5,s5,0x2

000000008000900c <i_8911>:
    8000900c:	e2710f23          	sb	t2,-450(sp)

0000000080009010 <i_8912>:
    80009010:	08a11e23          	sh	a0,156(sp)

0000000080009014 <i_8913>:
    80009014:	fd013403          	ld	s0,-48(sp)

0000000080009018 <i_8914>:
    80009018:	00831263          	bne	t1,s0,8000901c <i_8915>

000000008000901c <i_8915>:
    8000901c:	0d813503          	ld	a0,216(sp)

0000000080009020 <i_8916>:
    80009020:	00f00f93          	li	t6,15

0000000080009024 <i_8917>:
    80009024:	01f790bb          	sllw	ra,a5,t6

0000000080009028 <i_8918>:
    80009028:	02112623          	sw	ra,44(sp)

000000008000902c <i_8919>:
    8000902c:	18514b83          	lbu	s7,389(sp)

0000000080009030 <i_8920>:
    80009030:	01254c63          	blt	a0,s2,80009048 <i_8926>

0000000080009034 <i_8921>:
    80009034:	ffa11423          	sh	s10,-24(sp)

0000000080009038 <i_8922>:
    80009038:	00f45463          	ble	a5,s0,80009040 <i_8924>

000000008000903c <i_8923>:
    8000903c:	12a15903          	lhu	s2,298(sp)

0000000080009040 <i_8924>:
    80009040:	01800f93          	li	t6,24

0000000080009044 <i_8925>:
    80009044:	01f9563b          	srlw	a2,s2,t6

0000000080009048 <i_8926>:
    80009048:	bebff213          	andi	tp,t6,-1045

000000008000904c <i_8927>:
    8000904c:	09e10aa3          	sb	t5,149(sp)

0000000080009050 <i_8928>:
    80009050:	536ec197          	auipc	gp,0x536ec

0000000080009054 <i_8929>:
    80009054:	e8815f83          	lhu	t6,-376(sp)

0000000080009058 <i_8930>:
    80009058:	0c813f83          	ld	t6,200(sp)

000000008000905c <i_8931>:
    8000905c:	e3e15f03          	lhu	t5,-450(sp)

0000000080009060 <i_8932>:
    80009060:	06013903          	ld	s2,96(sp)

0000000080009064 <i_8933>:
    80009064:	03e1e463          	bltu	gp,t5,8000908c <i_8943>

0000000080009068 <i_8934>:
    80009068:	0dc12583          	lw	a1,220(sp)

000000008000906c <i_8935>:
    8000906c:	e6615f83          	lhu	t6,-410(sp)

0000000080009070 <i_8936>:
    80009070:	e67f8a13          	addi	s4,t6,-409

0000000080009074 <i_8937>:
    80009074:	01ffffb3          	and	t6,t6,t6

0000000080009078 <i_8938>:
    80009078:	fd412183          	lw	gp,-44(sp)

000000008000907c <i_8939>:
    8000907c:	003a5c63          	ble	gp,s4,80009094 <i_8945>

0000000080009080 <i_8940>:
    80009080:	02200713          	li	a4,34

0000000080009084 <i_8941>:
    80009084:	00e898b3          	sll	a7,a7,a4

0000000080009088 <i_8942>:
    80009088:	002fdf9b          	srliw	t6,t6,0x2

000000008000908c <i_8943>:
    8000908c:	f8711123          	sh	t2,-126(sp)

0000000080009090 <i_8944>:
    80009090:	00e00513          	li	a0,14

0000000080009094 <i_8945>:
    80009094:	00a8d8bb          	srlw	a7,a7,a0

0000000080009098 <i_8946>:
    80009098:	00e8da63          	ble	a4,a7,800090ac <i_8951>

000000008000909c <i_8947>:
    8000909c:	06a13823          	sd	a0,112(sp)

00000000800090a0 <i_8948>:
    800090a0:	f5412983          	lw	s3,-172(sp)

00000000800090a4 <i_8949>:
    800090a4:	02d10883          	lb	a7,45(sp)

00000000800090a8 <i_8950>:
    800090a8:	02f9c063          	blt	s3,a5,800090c8 <i_8958>

00000000800090ac <i_8951>:
    800090ac:	e9c10503          	lb	a0,-356(sp)

00000000800090b0 <i_8952>:
    800090b0:	0189da63          	ble	s8,s3,800090c4 <i_8957>

00000000800090b4 <i_8953>:
    800090b4:	f4211883          	lh	a7,-190(sp)

00000000800090b8 <i_8954>:
    800090b8:	022dfd93          	andi	s11,s11,34

00000000800090bc <i_8955>:
    800090bc:	f9813503          	ld	a0,-104(sp)

00000000800090c0 <i_8956>:
    800090c0:	0238f263          	bleu	gp,a7,800090e4 <i_8965>

00000000800090c4 <i_8957>:
    800090c4:	00857433          	and	s0,a0,s0

00000000800090c8 <i_8958>:
    800090c8:	5498c813          	xori	a6,a7,1353

00000000800090cc <i_8959>:
    800090cc:	e6411383          	lh	t2,-412(sp)

00000000800090d0 <i_8960>:
    800090d0:	002d989b          	slliw	a7,s11,0x2

00000000800090d4 <i_8961>:
    800090d4:	f0412403          	lw	s0,-252(sp)

00000000800090d8 <i_8962>:
    800090d8:	03122233          	mulhsu	tp,tp,a7

00000000800090dc <i_8963>:
    800090dc:	02339263          	bne	t2,gp,80009100 <i_8972>

00000000800090e0 <i_8964>:
    800090e0:	f6712c23          	sw	t2,-136(sp)

00000000800090e4 <i_8965>:
    800090e4:	1d812f03          	lw	t5,472(sp)

00000000800090e8 <i_8966>:
    800090e8:	0049f9b3          	and	s3,s3,tp

00000000800090ec <i_8967>:
    800090ec:	03ef3433          	mulhu	s0,t5,t5

00000000800090f0 <i_8968>:
    800090f0:	0133fc63          	bleu	s3,t2,80009108 <i_8974>

00000000800090f4 <i_8969>:
    800090f4:	032f693b          	remw	s2,t5,s2

00000000800090f8 <i_8970>:
    800090f8:	1b411d03          	lh	s10,436(sp)

00000000800090fc <i_8971>:
    800090fc:	00013f03          	ld	t5,0(sp)

0000000080009100 <i_8972>:
    80009100:	00424e63          	blt	tp,tp,8000911c <i_8979>

0000000080009104 <i_8973>:
    80009104:	f8911a23          	sh	s1,-108(sp)

0000000080009108 <i_8974>:
    80009108:	15812703          	lw	a4,344(sp)

000000008000910c <i_8975>:
    8000910c:	007463b3          	or	t2,s0,t2

0000000080009110 <i_8976>:
    80009110:	eaa14e03          	lbu	t3,-342(sp)

0000000080009114 <i_8977>:
    80009114:	03352c33          	mulhsu	s8,a0,s3

0000000080009118 <i_8978>:
    80009118:	f2a14983          	lbu	s3,-214(sp)

000000008000911c <i_8979>:
    8000911c:	0c711c23          	sh	t2,216(sp)

0000000080009120 <i_8980>:
    80009120:	1f2101a3          	sb	s2,483(sp)

0000000080009124 <i_8981>:
    80009124:	7d500d13          	li	s10,2005

0000000080009128 <i_8982>:
    80009128:	7df00513          	li	a0,2015

000000008000912c <i_8983>:
    8000912c:	001c30b3          	sltu	ra,s8,ra

0000000080009130 <i_8984>:
    80009130:	f4510383          	lb	t2,-187(sp)

0000000080009134 <i_8985>:
    80009134:	fc110923          	sb	ra,-46(sp)

0000000080009138 <i_8986>:
    80009138:	392c049b          	addiw	s1,s8,914

000000008000913c <i_8987>:
    8000913c:	00000013          	nop

0000000080009140 <i_8988>:
    80009140:	1c9101a3          	sb	s1,451(sp)

0000000080009144 <i_8989>:
    80009144:	3a20fd93          	andi	s11,ra,930

0000000080009148 <i_8990>:
    80009148:	001d0d13          	addi	s10,s10,1
    8000914c:	fead40e3          	blt	s10,a0,8000912c <i_8983>

0000000080009150 <i_8991>:
    80009150:	018c6a63          	bltu	s8,s8,80009164 <i_8996>

0000000080009154 <i_8992>:
    80009154:	fb214c03          	lbu	s8,-78(sp)

0000000080009158 <i_8993>:
    80009158:	18e10c03          	lb	s8,398(sp)

000000008000915c <i_8994>:
    8000915c:	03840c3b          	mulw	s8,s0,s8

0000000080009160 <i_8995>:
    80009160:	00fff7b3          	and	a5,t6,a5

0000000080009164 <i_8996>:
    80009164:	c1cc6793          	ori	a5,s8,-996

0000000080009168 <i_8997>:
    80009168:	04416c03          	lwu	s8,68(sp)

000000008000916c <i_8998>:
    8000916c:	7d200093          	li	ra,2002

0000000080009170 <i_8999>:
    80009170:	7dc00f93          	li	t6,2012

0000000080009174 <i_9000>:
    80009174:	00108093          	addi	ra,ra,1 # ffffffffaa31f001 <_end+0xffffffff2a30ebed>
    80009178:	fff09ee3          	bne	ra,t6,80009174 <i_9000>

000000008000917c <i_9001>:
    8000917c:	019c1e63          	bne	s8,s9,80009198 <i_9008>

0000000080009180 <i_9002>:
    80009180:	0187e2b3          	or	t0,a5,s8

0000000080009184 <i_9003>:
    80009184:	04310783          	lb	a5,67(sp)

0000000080009188 <i_9004>:
    80009188:	01a00e93          	li	t4,26

000000008000918c <i_9005>:
    8000918c:	41df51bb          	sraw	gp,t5,t4

0000000080009190 <i_9006>:
    80009190:	00300313          	li	t1,3

0000000080009194 <i_9007>:
    80009194:	006e953b          	sllw	a0,t4,t1

0000000080009198 <i_9008>:
    80009198:	00f10723          	sb	a5,14(sp)

000000008000919c <i_9009>:
    8000919c:	02f6d6bb          	divuw	a3,a3,a5

00000000800091a0 <i_9010>:
    800091a0:	7bb00f13          	li	t5,1979

00000000800091a4 <i_9011>:
    800091a4:	7cc00093          	li	ra,1996

00000000800091a8 <i_9012>:
    800091a8:	11810e83          	lb	t4,280(sp)

00000000800091ac <i_9013>:
    800091ac:	01510903          	lb	s2,21(sp)

00000000800091b0 <i_9014>:
    800091b0:	ff114503          	lbu	a0,-15(sp)

00000000800091b4 <i_9015>:
    800091b4:	00000013          	nop

00000000800091b8 <i_9016>:
    800091b8:	00155863          	ble	ra,a0,800091c8 <i_9020>

00000000800091bc <i_9017>:
    800091bc:	0030971b          	slliw	a4,ra,0x3

00000000800091c0 <i_9018>:
    800091c0:	003c7eb3          	and	t4,s8,gp

00000000800091c4 <i_9019>:
    800091c4:	1aa11303          	lh	t1,426(sp)

00000000800091c8 <i_9020>:
    800091c8:	f3211883          	lh	a7,-206(sp)

00000000800091cc <i_9021>:
    800091cc:	0dd11023          	sh	t4,192(sp)

00000000800091d0 <i_9022>:
    800091d0:	02eec5bb          	divw	a1,t4,a4

00000000800091d4 <i_9023>:
    800091d4:	001f0f13          	addi	t5,t5,1
    800091d8:	fde0f8e3          	bleu	t5,ra,800091a8 <i_9012>

00000000800091dc <i_9024>:
    800091dc:	a3150c9b          	addiw	s9,a0,-1487

00000000800091e0 <i_9025>:
    800091e0:	e6613c23          	sd	t1,-392(sp)

00000000800091e4 <i_9026>:
    800091e4:	7025091b          	addiw	s2,a0,1794

00000000800091e8 <i_9027>:
    800091e8:	b59b8517          	auipc	a0,0xb59b8

00000000800091ec <i_9028>:
    800091ec:	019b1263          	bne	s6,s9,800091f0 <i_9029>

00000000800091f0 <i_9029>:
    800091f0:	09615303          	lhu	t1,150(sp)

00000000800091f4 <i_9030>:
    800091f4:	00bcca63          	blt	s9,a1,80009208 <i_9035>

00000000800091f8 <i_9031>:
    800091f8:	e6911823          	sh	s1,-400(sp)

00000000800091fc <i_9032>:
    800091fc:	03bbd4b3          	divu	s1,s7,s11

0000000080009200 <i_9033>:
    80009200:	029574bb          	remuw	s1,a0,s1

0000000080009204 <i_9034>:
    80009204:	00000013          	nop

0000000080009208 <i_9035>:
    80009208:	12415b83          	lhu	s7,292(sp)

000000008000920c <i_9036>:
    8000920c:	0019191b          	slliw	s2,s2,0x1

0000000080009210 <i_9037>:
    80009210:	7ce00513          	li	a0,1998

0000000080009214 <i_9038>:
    80009214:	7d900293          	li	t0,2009

0000000080009218 <i_9039>:
    80009218:	00200d93          	li	s11,2

000000008000921c <i_9040>:
    8000921c:	41bbdfbb          	sraw	t6,s7,s11

0000000080009220 <i_9041>:
    80009220:	88a00493          	li	s1,-1910

0000000080009224 <i_9042>:
    80009224:	89300a93          	li	s5,-1901

0000000080009228 <i_9043>:
    80009228:	f1314b83          	lbu	s7,-237(sp)

000000008000922c <i_9044>:
    8000922c:	19712023          	sw	s7,384(sp)

0000000080009230 <i_9045>:
    80009230:	019f81b3          	add	gp,t6,s9

0000000080009234 <i_9046>:
    80009234:	00148493          	addi	s1,s1,1
    80009238:	ff54c8e3          	blt	s1,s5,80009228 <i_9043>

000000008000923c <i_9047>:
    8000923c:	0291e7bb          	remw	a5,gp,s1

0000000080009240 <i_9048>:
    80009240:	00150513          	addi	a0,a0,1 # 359c11e9 <main-0x4a63ee17>
    80009244:	fca2dae3          	ble	a0,t0,80009218 <i_9039>

0000000080009248 <i_9049>:
    80009248:	e4c16383          	lwu	t2,-436(sp)

000000008000924c <i_9050>:
    8000924c:	10012c83          	lw	s9,256(sp)

0000000080009250 <i_9051>:
    80009250:	01f4d863          	ble	t6,s1,80009260 <i_9055>

0000000080009254 <i_9052>:
    80009254:	f0710283          	lb	t0,-249(sp)

0000000080009258 <i_9053>:
    80009258:	ea013903          	ld	s2,-352(sp)

000000008000925c <i_9054>:
    8000925c:	00f60733          	add	a4,a2,a5

0000000080009260 <i_9055>:
    80009260:	00674863          	blt	a4,t1,80009270 <i_9059>

0000000080009264 <i_9056>:
    80009264:	01076463          	bltu	a4,a6,8000926c <i_9058>

0000000080009268 <i_9057>:
    80009268:	12810783          	lb	a5,296(sp)

000000008000926c <i_9058>:
    8000926c:	ecf12023          	sw	a5,-320(sp)

0000000080009270 <i_9059>:
    80009270:	f4013703          	ld	a4,-192(sp)

0000000080009274 <i_9060>:
    80009274:	02f731b3          	mulhu	gp,a4,a5

0000000080009278 <i_9061>:
    80009278:	0351eab3          	rem	s5,gp,s5

000000008000927c <i_9062>:
    8000927c:	02e1e733          	rem	a4,gp,a4

0000000080009280 <i_9063>:
    80009280:	015106a3          	sb	s5,13(sp)

0000000080009284 <i_9064>:
    80009284:	1ae11c03          	lh	s8,430(sp)

0000000080009288 <i_9065>:
    80009288:	403181b3          	sub	gp,gp,gp

000000008000928c <i_9066>:
    8000928c:	f0911f23          	sh	s1,-226(sp)

0000000080009290 <i_9067>:
    80009290:	f5415383          	lhu	t2,-172(sp)

0000000080009294 <i_9068>:
    80009294:	003ad393          	srli	t2,s5,0x3

0000000080009298 <i_9069>:
    80009298:	027af263          	bleu	t2,s5,800092bc <i_9078>

000000008000929c <i_9070>:
    8000929c:	2e03ea93          	ori	s5,t2,736

00000000800092a0 <i_9071>:
    800092a0:	0c812383          	lw	t2,200(sp)

00000000800092a4 <i_9072>:
    800092a4:	0113a3b3          	slt	t2,t2,a7

00000000800092a8 <i_9073>:
    800092a8:	0279d063          	ble	t2,s3,800092c8 <i_9081>

00000000800092ac <i_9074>:
    800092ac:	0073d263          	ble	t2,t2,800092b0 <i_9075>

00000000800092b0 <i_9075>:
    800092b0:	0c710ca3          	sb	t2,217(sp)

00000000800092b4 <i_9076>:
    800092b4:	00000013          	nop

00000000800092b8 <i_9077>:
    800092b8:	003ae3b3          	or	t2,s5,gp

00000000800092bc <i_9078>:
    800092bc:	03d3bfb3          	mulhu	t6,t2,t4

00000000800092c0 <i_9079>:
    800092c0:	ee510383          	lb	t2,-283(sp)

00000000800092c4 <i_9080>:
    800092c4:	0c711f23          	sh	t2,222(sp)

00000000800092c8 <i_9081>:
    800092c8:	00000013          	nop

00000000800092cc <i_9082>:
    800092cc:	0331da3b          	divuw	s4,gp,s3

00000000800092d0 <i_9083>:
    800092d0:	8cf00193          	li	gp,-1841

00000000800092d4 <i_9084>:
    800092d4:	8e100b13          	li	s6,-1823

00000000800092d8 <i_9085>:
    800092d8:	00000013          	nop

00000000800092dc <i_9086>:
    800092dc:	00000013          	nop

00000000800092e0 <i_9087>:
    800092e0:	8d400d93          	li	s11,-1836

00000000800092e4 <i_9088>:
    800092e4:	8e700893          	li	a7,-1817

00000000800092e8 <i_9089>:
    800092e8:	003385b3          	add	a1,t2,gp

00000000800092ec <i_9090>:
    800092ec:	001d8d93          	addi	s11,s11,1
    800092f0:	ff1d9ce3          	bne	s11,a7,800092e8 <i_9089>

00000000800092f4 <i_9091>:
    800092f4:	ec312423          	sw	gp,-312(sp)

00000000800092f8 <i_9092>:
    800092f8:	03e1c063          	blt	gp,t5,80009318 <i_9099>

00000000800092fc <i_9093>:
    800092fc:	0d811583          	lh	a1,216(sp)

0000000080009300 <i_9094>:
    80009300:	00118193          	addi	gp,gp,1 # d36f5051 <_end+0x536e4c3d>
    80009304:	fd61cae3          	blt	gp,s6,800092d8 <i_9085>

0000000080009308 <i_9095>:
    80009308:	12c16183          	lwu	gp,300(sp)

000000008000930c <i_9096>:
    8000930c:	82218b1b          	addiw	s6,gp,-2014

0000000080009310 <i_9097>:
    80009310:	02b1c0bb          	divw	ra,gp,a1

0000000080009314 <i_9098>:
    80009314:	00000013          	nop

0000000080009318 <i_9099>:
    80009318:	00000013          	nop

000000008000931c <i_9100>:
    8000931c:	035e61b3          	rem	gp,t3,s5

0000000080009320 <i_9101>:
    80009320:	8a500e13          	li	t3,-1883

0000000080009324 <i_9102>:
    80009324:	8a800693          	li	a3,-1880

0000000080009328 <i_9103>:
    80009328:	02d1c063          	blt	gp,a3,80009348 <i_9111>

000000008000932c <i_9104>:
    8000932c:	0186fc33          	and	s8,a3,s8

0000000080009330 <i_9105>:
    80009330:	00a484b3          	add	s1,s1,a0

0000000080009334 <i_9106>:
    80009334:	0d013423          	sd	a6,200(sp)

0000000080009338 <i_9107>:
    80009338:	407189b3          	sub	s3,gp,t2

000000008000933c <i_9108>:
    8000933c:	02c00793          	li	a5,44

0000000080009340 <i_9109>:
    80009340:	00f9db33          	srl	s6,s3,a5

0000000080009344 <i_9110>:
    80009344:	f7b10083          	lb	ra,-133(sp)

0000000080009348 <i_9111>:
    80009348:	0029d99b          	srliw	s3,s3,0x2

000000008000934c <i_9112>:
    8000934c:	053104a3          	sb	s3,73(sp)

0000000080009350 <i_9113>:
    80009350:	001e0e13          	addi	t3,t3,1
    80009354:	fcde4ae3          	blt	t3,a3,80009328 <i_9103>

0000000080009358 <i_9114>:
    80009358:	001df663          	bleu	ra,s11,80009364 <i_9117>

000000008000935c <i_9115>:
    8000935c:	e2610983          	lb	s3,-474(sp)

0000000080009360 <i_9116>:
    80009360:	07013823          	sd	a6,112(sp)

0000000080009364 <i_9117>:
    80009364:	eb013083          	ld	ra,-336(sp)

0000000080009368 <i_9118>:
    80009368:	b0e2f313          	andi	t1,t0,-1266

000000008000936c <i_9119>:
    8000936c:	8a300a93          	li	s5,-1885

0000000080009370 <i_9120>:
    80009370:	8b300993          	li	s3,-1869

0000000080009374 <i_9121>:
    80009374:	01511f23          	sh	s5,30(sp)

0000000080009378 <i_9122>:
    80009378:	01387663          	bleu	s3,a6,80009384 <i_9125>

000000008000937c <i_9123>:
    8000937c:	17911e23          	sh	s9,380(sp)

0000000080009380 <i_9124>:
    80009380:	4019d793          	srai	a5,s3,0x1

0000000080009384 <i_9125>:
    80009384:	12610aa3          	sb	t1,309(sp)

0000000080009388 <i_9126>:
    80009388:	ec412083          	lw	ra,-316(sp)

000000008000938c <i_9127>:
    8000938c:	13814c83          	lbu	s9,312(sp)

0000000080009390 <i_9128>:
    80009390:	0267f463          	bleu	t1,a5,800093b8 <i_9137>

0000000080009394 <i_9129>:
    80009394:	fbe15683          	lhu	a3,-66(sp)

0000000080009398 <i_9130>:
    80009398:	eed12a23          	sw	a3,-268(sp)

000000008000939c <i_9131>:
    8000939c:	f6c16303          	lwu	t1,-148(sp)

00000000800093a0 <i_9132>:
    800093a0:	001a8a93          	addi	s5,s5,1
    800093a4:	fd59d8e3          	ble	s5,s3,80009374 <i_9121>

00000000800093a8 <i_9133>:
    800093a8:	0196ecb3          	or	s9,a3,s9

00000000800093ac <i_9134>:
    800093ac:	0196e663          	bltu	a3,s9,800093b8 <i_9137>

00000000800093b0 <i_9135>:
    800093b0:	1cc16683          	lwu	a3,460(sp)

00000000800093b4 <i_9136>:
    800093b4:	0196dc63          	ble	s9,a3,800093cc <i_9142>

00000000800093b8 <i_9137>:
    800093b8:	02314403          	lbu	s0,35(sp)

00000000800093bc <i_9138>:
    800093bc:	15412a03          	lw	s4,340(sp)

00000000800093c0 <i_9139>:
    800093c0:	0f413c23          	sd	s4,248(sp)

00000000800093c4 <i_9140>:
    800093c4:	00a3e933          	or	s2,t2,a0

00000000800093c8 <i_9141>:
    800093c8:	13413823          	sd	s4,304(sp)

00000000800093cc <i_9142>:
    800093cc:	00000013          	nop

00000000800093d0 <i_9143>:
    800093d0:	0e812423          	sw	s0,232(sp)

00000000800093d4 <i_9144>:
    800093d4:	86200c93          	li	s9,-1950

00000000800093d8 <i_9145>:
    800093d8:	86400693          	li	a3,-1948

00000000800093dc <i_9146>:
    800093dc:	00000013          	nop

00000000800093e0 <i_9147>:
    800093e0:	ef110203          	lb	tp,-271(sp)

00000000800093e4 <i_9148>:
    800093e4:	72d00f13          	li	t5,1837

00000000800093e8 <i_9149>:
    800093e8:	73b00c13          	li	s8,1851

00000000800093ec <i_9150>:
    800093ec:	032080b3          	mul	ra,ra,s2

00000000800093f0 <i_9151>:
    800093f0:	401c5d1b          	sraiw	s10,s8,0x1

00000000800093f4 <i_9152>:
    800093f4:	001f0f13          	addi	t5,t5,1
    800093f8:	ff8f4ae3          	blt	t5,s8,800093ec <i_9150>

00000000800093fc <i_9153>:
    800093fc:	03a0c733          	div	a4,ra,s10

0000000080009400 <i_9154>:
    80009400:	001c8c93          	addi	s9,s9,1
    80009404:	fcdc9ce3          	bne	s9,a3,800093dc <i_9146>

0000000080009408 <i_9155>:
    80009408:	03af4263          	blt	t5,s10,8000942c <i_9164>

000000008000940c <i_9156>:
    8000940c:	cd392193          	slti	gp,s2,-813

0000000080009410 <i_9157>:
    80009410:	023e9d33          	mulh	s10,t4,gp

0000000080009414 <i_9158>:
    80009414:	00000013          	nop

0000000080009418 <i_9159>:
    80009418:	03d1d433          	divu	s0,gp,t4

000000008000941c <i_9160>:
    8000941c:	00000013          	nop

0000000080009420 <i_9161>:
    80009420:	fe615283          	lhu	t0,-26(sp)

0000000080009424 <i_9162>:
    80009424:	03a46433          	rem	s0,s0,s10

0000000080009428 <i_9163>:
    80009428:	00000013          	nop

000000008000942c <i_9164>:
    8000942c:	1a310aa3          	sb	gp,437(sp)

0000000080009430 <i_9165>:
    80009430:	edc11d03          	lh	s10,-292(sp)

0000000080009434 <i_9166>:
    80009434:	8bf00313          	li	t1,-1857

0000000080009438 <i_9167>:
    80009438:	8c200e93          	li	t4,-1854

000000008000943c <i_9168>:
    8000943c:	16f102a3          	sb	a5,357(sp)

0000000080009440 <i_9169>:
    80009440:	01d18863          	beq	gp,t4,80009450 <i_9173>

0000000080009444 <i_9170>:
    80009444:	003d1093          	slli	ra,s10,0x3

0000000080009448 <i_9171>:
    80009448:	1d012d03          	lw	s10,464(sp)

000000008000944c <i_9172>:
    8000944c:	e6416f03          	lwu	t5,-412(sp)

0000000080009450 <i_9173>:
    80009450:	e4412083          	lw	ra,-444(sp)

0000000080009454 <i_9174>:
    80009454:	f3816d03          	lwu	s10,-200(sp)

0000000080009458 <i_9175>:
    80009458:	03519063          	bne	gp,s5,80009478 <i_9182>

000000008000945c <i_9176>:
    8000945c:	00130313          	addi	t1,t1,1 # c919ff45 <_end+0x4918fb31>
    80009460:	fc6efee3          	bleu	t1,t4,8000943c <i_9168>

0000000080009464 <i_9177>:
    80009464:	fa311a23          	sh	gp,-76(sp)

0000000080009468 <i_9178>:
    80009468:	00118663          	beq	gp,ra,80009474 <i_9181>

000000008000946c <i_9179>:
    8000946c:	021659b3          	divu	s3,a2,ra

0000000080009470 <i_9180>:
    80009470:	fdb13823          	sd	s11,-48(sp)

0000000080009474 <i_9181>:
    80009474:	0029509b          	srliw	ra,s2,0x2

0000000080009478 <i_9182>:
    80009478:	003c1263          	bne	s8,gp,8000947c <i_9183>

000000008000947c <i_9183>:
    8000947c:	013ec663          	blt	t4,s3,80009488 <i_9186>

0000000080009480 <i_9184>:
    80009480:	02d10983          	lb	s3,45(sp)

0000000080009484 <i_9185>:
    80009484:	ee388b13          	addi	s6,a7,-285

0000000080009488 <i_9186>:
    80009488:	02199263          	bne	s3,ra,800094ac <i_9195>

000000008000948c <i_9187>:
    8000948c:	09f11023          	sh	t6,128(sp)

0000000080009490 <i_9188>:
    80009490:	0019c863          	blt	s3,ra,800094a0 <i_9192>

0000000080009494 <i_9189>:
    80009494:	08111623          	sh	ra,140(sp)

0000000080009498 <i_9190>:
    80009498:	00255193          	srli	gp,a0,0x2

000000008000949c <i_9191>:
    8000949c:	0219c463          	blt	s3,ra,800094c4 <i_9201>

00000000800094a0 <i_9192>:
    800094a0:	f2815e83          	lhu	t4,-216(sp)

00000000800094a4 <i_9193>:
    800094a4:	2f1ebc93          	sltiu	s9,t4,753

00000000800094a8 <i_9194>:
    800094a8:	ed913823          	sd	s9,-304(sp)

00000000800094ac <i_9195>:
    800094ac:	fcf10da3          	sb	a5,-37(sp)

00000000800094b0 <i_9196>:
    800094b0:	e1c10203          	lb	tp,-484(sp)

00000000800094b4 <i_9197>:
    800094b4:	01311223          	sh	s3,4(sp)

00000000800094b8 <i_9198>:
    800094b8:	02b00993          	li	s3,43

00000000800094bc <i_9199>:
    800094bc:	4131d633          	sra	a2,gp,s3

00000000800094c0 <i_9200>:
    800094c0:	00000013          	nop

00000000800094c4 <i_9201>:
    800094c4:	fc813f83          	ld	t6,-56(sp)

00000000800094c8 <i_9202>:
    800094c8:	0df11d23          	sh	t6,218(sp)

00000000800094cc <i_9203>:
    800094cc:	75f00913          	li	s2,1887

00000000800094d0 <i_9204>:
    800094d0:	76700993          	li	s3,1895

00000000800094d4 <i_9205>:
    800094d4:	0e416b83          	lwu	s7,228(sp)

00000000800094d8 <i_9206>:
    800094d8:	f9211123          	sh	s2,-126(sp)

00000000800094dc <i_9207>:
    800094dc:	03000213          	li	tp,48

00000000800094e0 <i_9208>:
    800094e0:	004fd233          	srl	tp,t6,tp

00000000800094e4 <i_9209>:
    800094e4:	00000013          	nop

00000000800094e8 <i_9210>:
    800094e8:	e0410d23          	sb	tp,-486(sp)

00000000800094ec <i_9211>:
    800094ec:	ee812f83          	lw	t6,-280(sp)

00000000800094f0 <i_9212>:
    800094f0:	035af233          	remu	tp,s5,s5

00000000800094f4 <i_9213>:
    800094f4:	e5713023          	sd	s7,-448(sp)

00000000800094f8 <i_9214>:
    800094f8:	00000013          	nop

00000000800094fc <i_9215>:
    800094fc:	00420bb3          	add	s7,tp,tp

0000000080009500 <i_9216>:
    80009500:	13511523          	sh	s5,298(sp)

0000000080009504 <i_9217>:
    80009504:	00190913          	addi	s2,s2,1
    80009508:	fd29f6e3          	bleu	s2,s3,800094d4 <i_9205>

000000008000950c <i_9218>:
    8000950c:	e5e10b83          	lb	s7,-418(sp)

0000000080009510 <i_9219>:
    80009510:	02420263          	beq	tp,tp,80009534 <i_9228>

0000000080009514 <i_9220>:
    80009514:	403bd213          	srai	tp,s7,0x3

0000000080009518 <i_9221>:
    80009518:	eb620613          	addi	a2,tp,-330 # fffffffffffffeb6 <_end+0xffffffff7ffefaa2>

000000008000951c <i_9222>:
    8000951c:	fc611203          	lh	tp,-58(sp)

0000000080009520 <i_9223>:
    80009520:	fc412423          	sw	tp,-56(sp)

0000000080009524 <i_9224>:
    80009524:	e4c16603          	lwu	a2,-436(sp)

0000000080009528 <i_9225>:
    80009528:	ee413823          	sd	tp,-272(sp)

000000008000952c <i_9226>:
    8000952c:	f6416303          	lwu	t1,-156(sp)

0000000080009530 <i_9227>:
    80009530:	00421b1b          	slliw	s6,tp,0x4

0000000080009534 <i_9228>:
    80009534:	18c13c23          	sd	a2,408(sp)

0000000080009538 <i_9229>:
    80009538:	fefc8217          	auipc	tp,0xfefc8

000000008000953c <i_9230>:
    8000953c:	02427463          	bleu	tp,tp,80009564 <i_9240>

0000000080009540 <i_9231>:
    80009540:	02426263          	bltu	tp,tp,80009564 <i_9240>

0000000080009544 <i_9232>:
    80009544:	01c00213          	li	tp,28

0000000080009548 <i_9233>:
    80009548:	004b1bbb          	sllw	s7,s6,tp

000000008000954c <i_9234>:
    8000954c:	00426463          	bltu	tp,tp,80009554 <i_9236>

0000000080009550 <i_9235>:
    80009550:	18411823          	sh	tp,400(sp)

0000000080009554 <i_9236>:
    80009554:	e5c12683          	lw	a3,-420(sp)

0000000080009558 <i_9237>:
    80009558:	00db6e63          	bltu	s6,a3,80009574 <i_9244>

000000008000955c <i_9238>:
    8000955c:	0081ce63          	blt	gp,s0,80009578 <i_9245>

0000000080009560 <i_9239>:
    80009560:	0366fb3b          	remuw	s6,a3,s6

0000000080009564 <i_9240>:
    80009564:	02d495b3          	mulh	a1,s1,a3

0000000080009568 <i_9241>:
    80009568:	fc215b03          	lhu	s6,-62(sp)

000000008000956c <i_9242>:
    8000956c:	0e510d03          	lb	s10,229(sp)

0000000080009570 <i_9243>:
    80009570:	e9610023          	sb	s6,-384(sp)

0000000080009574 <i_9244>:
    80009574:	e9813a83          	ld	s5,-360(sp)

0000000080009578 <i_9245>:
    80009578:	fd810623          	sb	s8,-52(sp)

000000008000957c <i_9246>:
    8000957c:	40b68eb3          	sub	t4,a3,a1

0000000080009580 <i_9247>:
    80009580:	16514883          	lbu	a7,357(sp)

0000000080009584 <i_9248>:
    80009584:	02d69533          	mulh	a0,a3,a3

0000000080009588 <i_9249>:
    80009588:	fd6102a3          	sb	s6,-59(sp)

000000008000958c <i_9250>:
    8000958c:	00000013          	nop

0000000080009590 <i_9251>:
    80009590:	e76102a3          	sb	s6,-411(sp)

0000000080009594 <i_9252>:
    80009594:	89500313          	li	t1,-1899

0000000080009598 <i_9253>:
    80009598:	89b00b13          	li	s6,-1893

000000008000959c <i_9254>:
    8000959c:	01a00593          	li	a1,26

00000000800095a0 <i_9255>:
    800095a0:	00b5d5bb          	srlw	a1,a1,a1

00000000800095a4 <i_9256>:
    800095a4:	00000013          	nop

00000000800095a8 <i_9257>:
    800095a8:	fce106a3          	sb	a4,-51(sp)

00000000800095ac <i_9258>:
    800095ac:	0a013c03          	ld	s8,160(sp)

00000000800095b0 <i_9259>:
    800095b0:	18611323          	sh	t1,390(sp)

00000000800095b4 <i_9260>:
    800095b4:	7d736493          	ori	s1,t1,2007

00000000800095b8 <i_9261>:
    800095b8:	f2011a03          	lh	s4,-224(sp)

00000000800095bc <i_9262>:
    800095bc:	18411a03          	lh	s4,388(sp)

00000000800095c0 <i_9263>:
    800095c0:	00130313          	addi	t1,t1,1
    800095c4:	fd634ce3          	blt	t1,s6,8000959c <i_9254>

00000000800095c8 <i_9264>:
    800095c8:	14b10303          	lb	t1,331(sp)

00000000800095cc <i_9265>:
    800095cc:	034a7063          	bleu	s4,s4,800095ec <i_9273>

00000000800095d0 <i_9266>:
    800095d0:	014a0663          	beq	s4,s4,800095dc <i_9269>

00000000800095d4 <i_9267>:
    800095d4:	02b31463          	bne	t1,a1,800095fc <i_9277>

00000000800095d8 <i_9268>:
    800095d8:	01100a13          	li	s4,17

00000000800095dc <i_9269>:
    800095dc:	414dda3b          	sraw	s4,s11,s4

00000000800095e0 <i_9270>:
    800095e0:	e7ba091b          	addiw	s2,s4,-389

00000000800095e4 <i_9271>:
    800095e4:	f4816503          	lwu	a0,-184(sp)

00000000800095e8 <i_9272>:
    800095e8:	0b211283          	lh	t0,178(sp)

00000000800095ec <i_9273>:
    800095ec:	16813a03          	ld	s4,360(sp)

00000000800095f0 <i_9274>:
    800095f0:	61ba4a13          	xori	s4,s4,1563

00000000800095f4 <i_9275>:
    800095f4:	00700513          	li	a0,7

00000000800095f8 <i_9276>:
    800095f8:	40a5553b          	sraw	a0,a0,a0

00000000800095fc <i_9277>:
    800095fc:	02a51063          	bne	a0,a0,8000961c <i_9285>

0000000080009600 <i_9278>:
    80009600:	eea12c23          	sw	a0,-264(sp)

0000000080009604 <i_9279>:
    80009604:	00a55c63          	ble	a0,a0,8000961c <i_9285>

0000000080009608 <i_9280>:
    80009608:	f5016283          	lwu	t0,-176(sp)

000000008000960c <i_9281>:
    8000960c:	e6513c23          	sd	t0,-392(sp)

0000000080009610 <i_9282>:
    80009610:	14416283          	lwu	t0,324(sp)

0000000080009614 <i_9283>:
    80009614:	fdc10903          	lb	s2,-36(sp)

0000000080009618 <i_9284>:
    80009618:	08816703          	lwu	a4,136(sp)

000000008000961c <i_9285>:
    8000961c:	032702bb          	mulw	t0,a4,s2

0000000080009620 <i_9286>:
    80009620:	04e10703          	lb	a4,78(sp)

0000000080009624 <i_9287>:
    80009624:	0259d9bb          	divuw	s3,s3,t0

0000000080009628 <i_9288>:
    80009628:	1d013203          	ld	tp,464(sp)

000000008000962c <i_9289>:
    8000962c:	e2510703          	lb	a4,-475(sp)

0000000080009630 <i_9290>:
    80009630:	fc011a83          	lh	s5,-64(sp)

0000000080009634 <i_9291>:
    80009634:	e5310fa3          	sb	s3,-417(sp)

0000000080009638 <i_9292>:
    80009638:	415709b3          	sub	s3,a4,s5

000000008000963c <i_9293>:
    8000963c:	0169f9b3          	and	s3,s3,s6

0000000080009640 <i_9294>:
    80009640:	0359b833          	mulhu	a6,s3,s5

0000000080009644 <i_9295>:
    80009644:	00000013          	nop

0000000080009648 <i_9296>:
    80009648:	01313823          	sd	s3,16(sp)

000000008000964c <i_9297>:
    8000964c:	8a700993          	li	s3,-1881

0000000080009650 <i_9298>:
    80009650:	8b600a93          	li	s5,-1866

0000000080009654 <i_9299>:
    80009654:	0bc11483          	lh	s1,188(sp)

0000000080009658 <i_9300>:
    80009658:	01a840b3          	xor	ra,a6,s10

000000008000965c <i_9301>:
    8000965c:	061104a3          	sb	ra,105(sp)

0000000080009660 <i_9302>:
    80009660:	00198993          	addi	s3,s3,1
    80009664:	ff59c8e3          	blt	s3,s5,80009654 <i_9299>

0000000080009668 <i_9303>:
    80009668:	01f0e663          	bltu	ra,t6,80009674 <i_9306>

000000008000966c <i_9304>:
    8000966c:	f2d14c03          	lbu	s8,-211(sp)

0000000080009670 <i_9305>:
    80009670:	0180e663          	bltu	ra,s8,8000967c <i_9308>

0000000080009674 <i_9306>:
    80009674:	1d416583          	lwu	a1,468(sp)

0000000080009678 <i_9307>:
    80009678:	12418997          	auipc	s3,0x12418

000000008000967c <i_9308>:
    8000967c:	009aca63          	blt	s5,s1,80009690 <i_9313>

0000000080009680 <i_9309>:
    80009680:	0305c0bb          	divw	ra,a1,a6

0000000080009684 <i_9310>:
    80009684:	f9714703          	lbu	a4,-105(sp)

0000000080009688 <i_9311>:
    80009688:	e8912a23          	sw	s1,-364(sp)

000000008000968c <i_9312>:
    8000968c:	11110e83          	lb	t4,273(sp)

0000000080009690 <i_9313>:
    80009690:	1a416583          	lwu	a1,420(sp)

0000000080009694 <i_9314>:
    80009694:	00000013          	nop

0000000080009698 <i_9315>:
    80009698:	01600513          	li	a0,22

000000008000969c <i_9316>:
    8000969c:	00ac50bb          	srlw	ra,s8,a0

00000000800096a0 <i_9317>:
    800096a0:	84700c13          	li	s8,-1977

00000000800096a4 <i_9318>:
    800096a4:	85a00f93          	li	t6,-1958

00000000800096a8 <i_9319>:
    800096a8:	418c0233          	sub	tp,s8,s8

00000000800096ac <i_9320>:
    800096ac:	02a5553b          	divuw	a0,a0,a0

00000000800096b0 <i_9321>:
    800096b0:	e9813883          	ld	a7,-360(sp)

00000000800096b4 <i_9322>:
    800096b4:	fac14083          	lbu	ra,-84(sp)

00000000800096b8 <i_9323>:
    800096b8:	01157e63          	bleu	a7,a0,800096d4 <i_9329>

00000000800096bc <i_9324>:
    800096bc:	11012203          	lw	tp,272(sp)

00000000800096c0 <i_9325>:
    800096c0:	00b00393          	li	t2,11

00000000800096c4 <i_9326>:
    800096c4:	4075523b          	sraw	tp,a0,t2

00000000800096c8 <i_9327>:
    800096c8:	001c0c13          	addi	s8,s8,1 # ffffffff84be5001 <_end+0xffffffff04bd4bed>
    800096cc:	fdfc4ce3          	blt	s8,t6,800096a4 <i_9318>

00000000800096d0 <i_9328>:
    800096d0:	00239613          	slli	a2,t2,0x2

00000000800096d4 <i_9329>:
    800096d4:	ea310683          	lb	a3,-349(sp)

00000000800096d8 <i_9330>:
    800096d8:	1c713023          	sd	t2,448(sp)

00000000800096dc <i_9331>:
    800096dc:	02caf463          	bleu	a2,s5,80009704 <i_9341>

00000000800096e0 <i_9332>:
    800096e0:	1d112023          	sw	a7,448(sp)

00000000800096e4 <i_9333>:
    800096e4:	18e12c17          	auipc	s8,0x18e12

00000000800096e8 <i_9334>:
    800096e8:	13610a83          	lb	s5,310(sp)

00000000800096ec <i_9335>:
    800096ec:	402c589b          	sraiw	a7,s8,0x2

00000000800096f0 <i_9336>:
    800096f0:	19812c23          	sw	s8,408(sp)

00000000800096f4 <i_9337>:
    800096f4:	02ca8063          	beq	s5,a2,80009714 <i_9345>

00000000800096f8 <i_9338>:
    800096f8:	0298db33          	divu	s6,a7,s1

00000000800096fc <i_9339>:
    800096fc:	ed613823          	sd	s6,-304(sp)

0000000080009700 <i_9340>:
    80009700:	e5414983          	lbu	s3,-428(sp)

0000000080009704 <i_9341>:
    80009704:	015c6a63          	bltu	s8,s5,80009718 <i_9346>

0000000080009708 <i_9342>:
    80009708:	01214a83          	lbu	s5,18(sp)

000000008000970c <i_9343>:
    8000970c:	03b9c8b3          	div	a7,s3,s11

0000000080009710 <i_9344>:
    80009710:	fd510a03          	lb	s4,-43(sp)

0000000080009714 <i_9345>:
    80009714:	facef9b7          	lui	s3,0xfacef

0000000080009718 <i_9346>:
    80009718:	01800993          	li	s3,24

000000008000971c <i_9347>:
    8000971c:	0139d533          	srl	a0,s3,s3

0000000080009720 <i_9348>:
    80009720:	03354533          	div	a0,a0,s3

0000000080009724 <i_9349>:
    80009724:	07513423          	sd	s5,104(sp)

0000000080009728 <i_9350>:
    80009728:	ef811e83          	lh	t4,-264(sp)

000000008000972c <i_9351>:
    8000972c:	03d00a93          	li	s5,61

0000000080009730 <i_9352>:
    80009730:	415956b3          	sra	a3,s2,s5

0000000080009734 <i_9353>:
    80009734:	01568e63          	beq	a3,s5,80009750 <i_9360>

0000000080009738 <i_9354>:
    80009738:	0b015b03          	lhu	s6,176(sp)

000000008000973c <i_9355>:
    8000973c:	00000013          	nop

0000000080009740 <i_9356>:
    80009740:	41518b3b          	subw	s6,gp,s5

0000000080009744 <i_9357>:
    80009744:	023a8933          	mul	s2,s5,gp

0000000080009748 <i_9358>:
    80009748:	03219933          	mulh	s2,gp,s2

000000008000974c <i_9359>:
    8000974c:	00000013          	nop

0000000080009750 <i_9360>:
    80009750:	eb016a03          	lwu	s4,-336(sp)

0000000080009754 <i_9361>:
    80009754:	fb613c23          	sd	s6,-72(sp)

0000000080009758 <i_9362>:
    80009758:	80600a93          	li	s5,-2042

000000008000975c <i_9363>:
    8000975c:	81a00193          	li	gp,-2022

0000000080009760 <i_9364>:
    80009760:	00000013          	nop

0000000080009764 <i_9365>:
    80009764:	1b416a03          	lwu	s4,436(sp)

0000000080009768 <i_9366>:
    80009768:	c3eb8b1b          	addiw	s6,s7,-962

000000008000976c <i_9367>:
    8000976c:	03c76e33          	rem	t3,a4,t3

0000000080009770 <i_9368>:
    80009770:	00b87cb3          	and	s9,a6,a1

0000000080009774 <i_9369>:
    80009774:	0d611803          	lh	a6,214(sp)

0000000080009778 <i_9370>:
    80009778:	2f552497          	auipc	s1,0x2f552

000000008000977c <i_9371>:
    8000977c:	10fcae13          	slti	t3,s9,271

0000000080009780 <i_9372>:
    80009780:	0349e0b3          	rem	ra,s3,s4

0000000080009784 <i_9373>:
    80009784:	001a8a93          	addi	s5,s5,1
    80009788:	fd51dce3          	ble	s5,gp,80009760 <i_9364>

000000008000978c <i_9374>:
    8000978c:	fb816283          	lwu	t0,-72(sp)

0000000080009790 <i_9375>:
    80009790:	eb811603          	lh	a2,-328(sp)

0000000080009794 <i_9376>:
    80009794:	1a811d83          	lh	s11,424(sp)

0000000080009798 <i_9377>:
    80009798:	00991663          	bne	s2,s1,800097a4 <i_9380>

000000008000979c <i_9378>:
    8000979c:	01000e13          	li	t3,16

00000000800097a0 <i_9379>:
    800097a0:	01c6593b          	srlw	s2,a2,t3

00000000800097a4 <i_9380>:
    800097a4:	00712623          	sw	t2,12(sp)

00000000800097a8 <i_9381>:
    800097a8:	16012703          	lw	a4,352(sp)

00000000800097ac <i_9382>:
    800097ac:	0d1c99b7          	lui	s3,0xd1c9

00000000800097b0 <i_9383>:
    800097b0:	00000013          	nop

00000000800097b4 <i_9384>:
    800097b4:	82500713          	li	a4,-2011

00000000800097b8 <i_9385>:
    800097b8:	82b00d93          	li	s11,-2005

00000000800097bc <i_9386>:
    800097bc:	f7b11f23          	sh	s11,-130(sp)

00000000800097c0 <i_9387>:
    800097c0:	0b310e03          	lb	t3,179(sp)

00000000800097c4 <i_9388>:
    800097c4:	efc12023          	sw	t3,-288(sp)

00000000800097c8 <i_9389>:
    800097c8:	01700493          	li	s1,23

00000000800097cc <i_9390>:
    800097cc:	009e1c33          	sll	s8,t3,s1

00000000800097d0 <i_9391>:
    800097d0:	01a00193          	li	gp,26

00000000800097d4 <i_9392>:
    800097d4:	003d9333          	sll	t1,s11,gp

00000000800097d8 <i_9393>:
    800097d8:	4041de1b          	sraiw	t3,gp,0x4

00000000800097dc <i_9394>:
    800097dc:	12415e03          	lhu	t3,292(sp)

00000000800097e0 <i_9395>:
    800097e0:	fc610b23          	sb	t1,-42(sp)

00000000800097e4 <i_9396>:
    800097e4:	00170713          	addi	a4,a4,1
    800097e8:	fceddae3          	ble	a4,s11,800097bc <i_9386>

00000000800097ec <i_9397>:
    800097ec:	fc011e03          	lh	t3,-64(sp)

00000000800097f0 <i_9398>:
    800097f0:	e46102a3          	sb	t1,-443(sp)

00000000800097f4 <i_9399>:
    800097f4:	02336263          	bltu	t1,gp,80009818 <i_9408>

00000000800097f8 <i_9400>:
    800097f8:	03e37463          	bleu	t5,t1,80009820 <i_9410>

00000000800097fc <i_9401>:
    800097fc:	03ce0333          	mul	t1,t3,t3

0000000080009800 <i_9402>:
    80009800:	0269f263          	bleu	t1,s3,80009824 <i_9411>

0000000080009804 <i_9403>:
    80009804:	11c12423          	sw	t3,264(sp)

0000000080009808 <i_9404>:
    80009808:	cdbd5497          	auipc	s1,0xcdbd5

000000008000980c <i_9405>:
    8000980c:	eda11403          	lh	s0,-294(sp)

0000000080009810 <i_9406>:
    80009810:	01d49663          	bne	s1,t4,8000981c <i_9409>

0000000080009814 <i_9407>:
    80009814:	01c41a63          	bne	s0,t3,80009828 <i_9412>

0000000080009818 <i_9408>:
    80009818:	1c012483          	lw	s1,448(sp)

000000008000981c <i_9409>:
    8000981c:	410303b3          	sub	t2,t1,a6

0000000080009820 <i_9410>:
    80009820:	e6710723          	sb	t2,-402(sp)

0000000080009824 <i_9411>:
    80009824:	02f4c2b3          	div	t0,s1,a5

0000000080009828 <i_9412>:
    80009828:	08016183          	lwu	gp,128(sp)

000000008000982c <i_9413>:
    8000982c:	025424b3          	mulhsu	s1,s0,t0

0000000080009830 <i_9414>:
    80009830:	f1611403          	lh	s0,-234(sp)

0000000080009834 <i_9415>:
    80009834:	0293f063          	bleu	s1,t2,80009854 <i_9423>

0000000080009838 <i_9416>:
    80009838:	03f00a13          	li	s4,63

000000008000983c <i_9417>:
    8000983c:	414e5833          	sra	a6,t3,s4

0000000080009840 <i_9418>:
    80009840:	0073e463          	bltu	t2,t2,80009848 <i_9420>

0000000080009844 <i_9419>:
    80009844:	11a15603          	lhu	a2,282(sp)

0000000080009848 <i_9420>:
    80009848:	e7914603          	lbu	a2,-391(sp)

000000008000984c <i_9421>:
    8000984c:	00000013          	nop

0000000080009850 <i_9422>:
    80009850:	fc812d03          	lw	s10,-56(sp)

0000000080009854 <i_9423>:
    80009854:	bffaa893          	slti	a7,s5,-1025

0000000080009858 <i_9424>:
    80009858:	e6816a83          	lwu	s5,-408(sp)

000000008000985c <i_9425>:
    8000985c:	74400593          	li	a1,1860

0000000080009860 <i_9426>:
    80009860:	74f00e93          	li	t4,1871

0000000080009864 <i_9427>:
    80009864:	01300f93          	li	t6,19

0000000080009868 <i_9428>:
    80009868:	01f85abb          	srlw	s5,a6,t6

000000008000986c <i_9429>:
    8000986c:	18012803          	lw	a6,384(sp)

0000000080009870 <i_9430>:
    80009870:	0c813a83          	ld	s5,200(sp)

0000000080009874 <i_9431>:
    80009874:	0ea15e03          	lhu	t3,234(sp)

0000000080009878 <i_9432>:
    80009878:	14013d03          	ld	s10,320(sp)

000000008000987c <i_9433>:
    8000987c:	e8014e03          	lbu	t3,-384(sp)

0000000080009880 <i_9434>:
    80009880:	03cd5abb          	divuw	s5,s10,t3

0000000080009884 <i_9435>:
    80009884:	01da8ab3          	add	s5,s5,t4

0000000080009888 <i_9436>:
    80009888:	efdd0a93          	addi	s5,s10,-259

000000008000988c <i_9437>:
    8000988c:	00158593          	addi	a1,a1,1
    80009890:	fcbedae3          	ble	a1,t4,80009864 <i_9427>

0000000080009894 <i_9438>:
    80009894:	05813d03          	ld	s10,88(sp)

0000000080009898 <i_9439>:
    80009898:	1be10703          	lb	a4,446(sp)

000000008000989c <i_9440>:
    8000989c:	019d9863          	bne	s11,s9,800098ac <i_9444>

00000000800098a0 <i_9441>:
    800098a0:	f1a15c03          	lhu	s8,-230(sp)

00000000800098a4 <i_9442>:
    800098a4:	e3c13c23          	sd	t3,-456(sp)

00000000800098a8 <i_9443>:
    800098a8:	03610623          	sb	s6,44(sp)

00000000800098ac <i_9444>:
    800098ac:	418d0ab3          	sub	s5,s10,s8

00000000800098b0 <i_9445>:
    800098b0:	1d914983          	lbu	s3,473(sp)

00000000800098b4 <i_9446>:
    800098b4:	035d0d33          	mul	s10,s10,s5

00000000800098b8 <i_9447>:
    800098b8:	00e30263          	beq	t1,a4,800098bc <i_9448>

00000000800098bc <i_9448>:
    800098bc:	77aa8a93          	addi	s5,s5,1914

00000000800098c0 <i_9449>:
    800098c0:	01a95c63          	ble	s10,s2,800098d8 <i_9455>

00000000800098c4 <i_9450>:
    800098c4:	00110783          	lb	a5,1(sp)

00000000800098c8 <i_9451>:
    800098c8:	01d70e63          	beq	a4,t4,800098e4 <i_9458>

00000000800098cc <i_9452>:
    800098cc:	f7e11903          	lh	s2,-130(sp)

00000000800098d0 <i_9453>:
    800098d0:	02ceafb3          	mulhsu	t6,t4,a2

00000000800098d4 <i_9454>:
    800098d4:	fb014a03          	lbu	s4,-80(sp)

00000000800098d8 <i_9455>:
    800098d8:	03def1b3          	remu	gp,t4,t4

00000000800098dc <i_9456>:
    800098dc:	03090fb3          	mul	t6,s2,a6

00000000800098e0 <i_9457>:
    800098e0:	402f5493          	srai	s1,t5,0x2

00000000800098e4 <i_9458>:
    800098e4:	0051c2b3          	xor	t0,gp,t0

00000000800098e8 <i_9459>:
    800098e8:	00000013          	nop

00000000800098ec <i_9460>:
    800098ec:	8b200913          	li	s2,-1870

00000000800098f0 <i_9461>:
    800098f0:	8bf00e93          	li	t4,-1857

00000000800098f4 <i_9462>:
    800098f4:	0051f9b3          	and	s3,gp,t0

00000000800098f8 <i_9463>:
    800098f8:	024fd8b3          	divu	a7,t6,tp

00000000800098fc <i_9464>:
    800098fc:	00000013          	nop

0000000080009900 <i_9465>:
    80009900:	00000013          	nop

0000000080009904 <i_9466>:
    80009904:	e3d10ba3          	sb	t4,-457(sp)

0000000080009908 <i_9467>:
    80009908:	41d90fb3          	sub	t6,s2,t4

000000008000990c <i_9468>:
    8000990c:	69c2a793          	slti	a5,t0,1692

0000000080009910 <i_9469>:
    80009910:	00190913          	addi	s2,s2,1
    80009914:	ff2ef0e3          	bleu	s2,t4,800098f4 <i_9462>

0000000080009918 <i_9470>:
    80009918:	0318cdbb          	divw	s11,a7,a7

000000008000991c <i_9471>:
    8000991c:	f7415383          	lhu	t2,-140(sp)

0000000080009920 <i_9472>:
    80009920:	e8510e23          	sb	t0,-356(sp)

0000000080009924 <i_9473>:
    80009924:	41df8dbb          	subw	s11,t6,t4

0000000080009928 <i_9474>:
    80009928:	02fd9063          	bne	s11,a5,80009948 <i_9482>

000000008000992c <i_9475>:
    8000992c:	03bf883b          	mulw	a6,t6,s11

0000000080009930 <i_9476>:
    80009930:	f9813383          	ld	t2,-104(sp)

0000000080009934 <i_9477>:
    80009934:	e6511223          	sh	t0,-412(sp)

0000000080009938 <i_9478>:
    80009938:	405288bb          	subw	a7,t0,t0

000000008000993c <i_9479>:
    8000993c:	02314e03          	lbu	t3,35(sp)

0000000080009940 <i_9480>:
    80009940:	01d3c263          	blt	t2,t4,80009944 <i_9481>

0000000080009944 <i_9481>:
    80009944:	06013583          	ld	a1,96(sp)

0000000080009948 <i_9482>:
    80009948:	dd148c9b          	addiw	s9,s1,-559

000000008000994c <i_9483>:
    8000994c:	009a4e63          	blt	s4,s1,80009968 <i_9490>

0000000080009950 <i_9484>:
    80009950:	007dc463          	blt	s11,t2,80009958 <i_9486>

0000000080009954 <i_9485>:
    80009954:	e5411403          	lh	s0,-428(sp)

0000000080009958 <i_9486>:
    80009958:	408d8dbb          	subw	s11,s11,s0

000000008000995c <i_9487>:
    8000995c:	03bdc063          	blt	s11,s11,8000997c <i_9495>

0000000080009960 <i_9488>:
    80009960:	e2013a03          	ld	s4,-480(sp)

0000000080009964 <i_9489>:
    80009964:	05412e23          	sw	s4,92(sp)

0000000080009968 <i_9490>:
    80009968:	02300493          	li	s1,35

000000008000996c <i_9491>:
    8000996c:	009e5e33          	srl	t3,t3,s1

0000000080009970 <i_9492>:
    80009970:	09e10d03          	lb	s10,158(sp)

0000000080009974 <i_9493>:
    80009974:	fd016483          	lwu	s1,-48(sp)

0000000080009978 <i_9494>:
    80009978:	4034d61b          	sraiw	a2,s1,0x3

000000008000997c <i_9495>:
    8000997c:	008d8cb3          	add	s9,s11,s0

0000000080009980 <i_9496>:
    80009980:	03c476b3          	remu	a3,s0,t3

0000000080009984 <i_9497>:
    80009984:	004a571b          	srliw	a4,s4,0x4

0000000080009988 <i_9498>:
    80009988:	f5b11023          	sh	s11,-192(sp)

000000008000998c <i_9499>:
    8000998c:	038a6463          	bltu	s4,s8,800099b4 <i_9509>

0000000080009990 <i_9500>:
    80009990:	fd412623          	sw	s4,-52(sp)

0000000080009994 <i_9501>:
    80009994:	f3211e03          	lh	t3,-206(sp)

0000000080009998 <i_9502>:
    80009998:	02eff7bb          	remuw	a5,t6,a4

000000008000999c <i_9503>:
    8000999c:	1a816d83          	lwu	s11,424(sp)

00000000800099a0 <i_9504>:
    800099a0:	02f00593          	li	a1,47

00000000800099a4 <i_9505>:
    800099a4:	40b7da33          	sra	s4,a5,a1

00000000800099a8 <i_9506>:
    800099a8:	03b5d73b          	divuw	a4,a1,s11

00000000800099ac <i_9507>:
    800099ac:	e3611623          	sh	s6,-468(sp)

00000000800099b0 <i_9508>:
    800099b0:	68a73313          	sltiu	t1,a4,1674

00000000800099b4 <i_9509>:
    800099b4:	f4c12703          	lw	a4,-180(sp)

00000000800099b8 <i_9510>:
    800099b8:	02c00b13          	li	s6,44

00000000800099bc <i_9511>:
    800099bc:	01675b33          	srl	s6,a4,s6

00000000800099c0 <i_9512>:
    800099c0:	0b815703          	lhu	a4,184(sp)

00000000800099c4 <i_9513>:
    800099c4:	08c12483          	lw	s1,140(sp)

00000000800099c8 <i_9514>:
    800099c8:	009b7263          	bleu	s1,s6,800099cc <i_9515>

00000000800099cc <i_9515>:
    800099cc:	00500093          	li	ra,5

00000000800099d0 <i_9516>:
    800099d0:	0014933b          	sllw	t1,s1,ra

00000000800099d4 <i_9517>:
    800099d4:	0ee12e23          	sw	a4,252(sp)

00000000800099d8 <i_9518>:
    800099d8:	859a6093          	ori	ra,s4,-1959

00000000800099dc <i_9519>:
    800099dc:	ea012303          	lw	t1,-352(sp)

00000000800099e0 <i_9520>:
    800099e0:	eec11303          	lh	t1,-276(sp)

00000000800099e4 <i_9521>:
    800099e4:	05013283          	ld	t0,80(sp)

00000000800099e8 <i_9522>:
    800099e8:	00000013          	nop

00000000800099ec <i_9523>:
    800099ec:	87f00a13          	li	s4,-1921

00000000800099f0 <i_9524>:
    800099f0:	88d00713          	li	a4,-1907

00000000800099f4 <i_9525>:
    800099f4:	0d415203          	lhu	tp,212(sp)

00000000800099f8 <i_9526>:
    800099f8:	001a0a13          	addi	s4,s4,1
    800099fc:	ff475ce3          	ble	s4,a4,800099f4 <i_9525>

0000000080009a00 <i_9527>:
    80009a00:	f5411c23          	sh	s4,-168(sp)

0000000080009a04 <i_9528>:
    80009a04:	00631e63          	bne	t1,t1,80009a20 <i_9535>

0000000080009a08 <i_9529>:
    80009a08:	02431463          	bne	t1,tp,80009a30 <i_9539>

0000000080009a0c <i_9530>:
    80009a0c:	fa513423          	sd	t0,-88(sp)

0000000080009a10 <i_9531>:
    80009a10:	fa913c23          	sd	s1,-72(sp)

0000000080009a14 <i_9532>:
    80009a14:	005101a3          	sb	t0,3(sp)

0000000080009a18 <i_9533>:
    80009a18:	024340b3          	div	ra,t1,tp

0000000080009a1c <i_9534>:
    80009a1c:	02e15303          	lhu	t1,46(sp)

0000000080009a20 <i_9535>:
    80009a20:	f8113823          	sd	ra,-112(sp)

0000000080009a24 <i_9536>:
    80009a24:	00117863          	bleu	ra,sp,80009a34 <i_9540>

0000000080009a28 <i_9537>:
    80009a28:	1a6104a3          	sb	t1,425(sp)

0000000080009a2c <i_9538>:
    80009a2c:	0fc12783          	lw	a5,252(sp)

0000000080009a30 <i_9539>:
    80009a30:	01300313          	li	t1,19

0000000080009a34 <i_9540>:
    80009a34:	00635333          	srl	t1,t1,t1

0000000080009a38 <i_9541>:
    80009a38:	00f78233          	add	tp,a5,a5

0000000080009a3c <i_9542>:
    80009a3c:	a648c793          	xori	a5,a7,-1436

0000000080009a40 <i_9543>:
    80009a40:	0032d293          	srli	t0,t0,0x3

0000000080009a44 <i_9544>:
    80009a44:	e6810283          	lb	t0,-408(sp)

0000000080009a48 <i_9545>:
    80009a48:	036397b3          	mulh	a5,t2,s6

0000000080009a4c <i_9546>:
    80009a4c:	e4d2a213          	slti	tp,t0,-435

0000000080009a50 <i_9547>:
    80009a50:	0057ec63          	bltu	a5,t0,80009a68 <i_9553>

0000000080009a54 <i_9548>:
    80009a54:	403ed793          	srai	a5,t4,0x3

0000000080009a58 <i_9549>:
    80009a58:	1cf10c23          	sb	a5,472(sp)

0000000080009a5c <i_9550>:
    80009a5c:	02f2d23b          	divuw	tp,t0,a5

0000000080009a60 <i_9551>:
    80009a60:	0197fc63          	bleu	s9,a5,80009a78 <i_9557>

0000000080009a64 <i_9552>:
    80009a64:	40425293          	srai	t0,tp,0x4

0000000080009a68 <i_9553>:
    80009a68:	01521663          	bne	tp,s5,80009a74 <i_9556>

0000000080009a6c <i_9554>:
    80009a6c:	f7c10c83          	lb	s9,-132(sp)

0000000080009a70 <i_9555>:
    80009a70:	eb911723          	sh	s9,-338(sp)

0000000080009a74 <i_9556>:
    80009a74:	1e413423          	sd	tp,488(sp)

0000000080009a78 <i_9557>:
    80009a78:	06c16203          	lwu	tp,108(sp)

0000000080009a7c <i_9558>:
    80009a7c:	002b5393          	srli	t2,s6,0x2

0000000080009a80 <i_9559>:
    80009a80:	ed214603          	lbu	a2,-302(sp)

0000000080009a84 <i_9560>:
    80009a84:	00767db3          	and	s11,a2,t2

0000000080009a88 <i_9561>:
    80009a88:	03bd83b3          	mul	t2,s11,s11

0000000080009a8c <i_9562>:
    80009a8c:	18c11383          	lh	t2,396(sp)

0000000080009a90 <i_9563>:
    80009a90:	02cdc063          	blt	s11,a2,80009ab0 <i_9571>

0000000080009a94 <i_9564>:
    80009a94:	00767a63          	bleu	t2,a2,80009aa8 <i_9569>

0000000080009a98 <i_9565>:
    80009a98:	0273f063          	bleu	t2,t2,80009ab8 <i_9573>

0000000080009a9c <i_9566>:
    80009a9c:	01b39663          	bne	t2,s11,80009aa8 <i_9569>

0000000080009aa0 <i_9567>:
    80009aa0:	03bdcdb3          	div	s11,s11,s11

0000000080009aa4 <i_9568>:
    80009aa4:	00000013          	nop

0000000080009aa8 <i_9569>:
    80009aa8:	039c86b3          	mul	a3,s9,s9

0000000080009aac <i_9570>:
    80009aac:	ee6be197          	auipc	gp,0xee6be

0000000080009ab0 <i_9571>:
    80009ab0:	0c411183          	lh	gp,196(sp)

0000000080009ab4 <i_9572>:
    80009ab4:	11211a83          	lh	s5,274(sp)

0000000080009ab8 <i_9573>:
    80009ab8:	03ccde33          	divu	t3,s9,t3

0000000080009abc <i_9574>:
    80009abc:	01400513          	li	a0,20

0000000080009ac0 <i_9575>:
    80009ac0:	00acd1bb          	srlw	gp,s9,a0

0000000080009ac4 <i_9576>:
    80009ac4:	78c00c93          	li	s9,1932

0000000080009ac8 <i_9577>:
    80009ac8:	79800813          	li	a6,1944

0000000080009acc <i_9578>:
    80009acc:	97a97197          	auipc	gp,0x97a97

0000000080009ad0 <i_9579>:
    80009ad0:	ebc11f23          	sh	t3,-322(sp)

0000000080009ad4 <i_9580>:
    80009ad4:	00000013          	nop

0000000080009ad8 <i_9581>:
    80009ad8:	01c62633          	slt	a2,a2,t3

0000000080009adc <i_9582>:
    80009adc:	001c8c93          	addi	s9,s9,1
    80009ae0:	ff9854e3          	ble	s9,a6,80009ac8 <i_9577>

0000000080009ae4 <i_9583>:
    80009ae4:	fec11b23          	sh	a2,-10(sp)

0000000080009ae8 <i_9584>:
    80009ae8:	14c16a03          	lwu	s4,332(sp)

0000000080009aec <i_9585>:
    80009aec:	e5813a03          	ld	s4,-424(sp)

0000000080009af0 <i_9586>:
    80009af0:	02ca0633          	mul	a2,s4,a2

0000000080009af4 <i_9587>:
    80009af4:	00c60433          	add	s0,a2,a2

0000000080009af8 <i_9588>:
    80009af8:	eba13823          	sd	s10,-336(sp)

0000000080009afc <i_9589>:
    80009afc:	e7412a23          	sw	s4,-396(sp)

0000000080009b00 <i_9590>:
    80009b00:	8e3e0893          	addi	a7,t3,-1821

0000000080009b04 <i_9591>:
    80009b04:	f6d102a3          	sb	a3,-155(sp)

0000000080009b08 <i_9592>:
    80009b08:	1a713823          	sd	t2,432(sp)

0000000080009b0c <i_9593>:
    80009b0c:	fd412f03          	lw	t5,-44(sp)

0000000080009b10 <i_9594>:
    80009b10:	f1013a83          	ld	s5,-240(sp)

0000000080009b14 <i_9595>:
    80009b14:	06c10ba3          	sb	a2,119(sp)

0000000080009b18 <i_9596>:
    80009b18:	f9015383          	lhu	t2,-112(sp)

0000000080009b1c <i_9597>:
    80009b1c:	01f00393          	li	t2,31

0000000080009b20 <i_9598>:
    80009b20:	407ad3bb          	sraw	t2,s5,t2

0000000080009b24 <i_9599>:
    80009b24:	0273d463          	ble	t2,t2,80009b4c <i_9609>

0000000080009b28 <i_9600>:
    80009b28:	00000013          	nop

0000000080009b2c <i_9601>:
    80009b2c:	00c00693          	li	a3,12

0000000080009b30 <i_9602>:
    80009b30:	00d696bb          	sllw	a3,a3,a3

0000000080009b34 <i_9603>:
    80009b34:	00000013          	nop

0000000080009b38 <i_9604>:
    80009b38:	ea010b03          	lb	s6,-352(sp)

0000000080009b3c <i_9605>:
    80009b3c:	ec813283          	ld	t0,-312(sp)

0000000080009b40 <i_9606>:
    80009b40:	00000013          	nop

0000000080009b44 <i_9607>:
    80009b44:	14d13c23          	sd	a3,344(sp)

0000000080009b48 <i_9608>:
    80009b48:	02d282b3          	mul	t0,t0,a3

0000000080009b4c <i_9609>:
    80009b4c:	00000013          	nop

0000000080009b50 <i_9610>:
    80009b50:	00000013          	nop

0000000080009b54 <i_9611>:
    80009b54:	76400f13          	li	t5,1892

0000000080009b58 <i_9612>:
    80009b58:	76c00393          	li	t2,1900

0000000080009b5c <i_9613>:
    80009b5c:	01012183          	lw	gp,16(sp)

0000000080009b60 <i_9614>:
    80009b60:	00000013          	nop

0000000080009b64 <i_9615>:
    80009b64:	0ad12423          	sw	a3,168(sp)

0000000080009b68 <i_9616>:
    80009b68:	00000013          	nop

0000000080009b6c <i_9617>:
    80009b6c:	15812603          	lw	a2,344(sp)

0000000080009b70 <i_9618>:
    80009b70:	001f0f13          	addi	t5,t5,1
    80009b74:	ffe3f4e3          	bleu	t5,t2,80009b5c <i_9613>

0000000080009b78 <i_9619>:
    80009b78:	00c1b633          	sltu	a2,gp,a2

0000000080009b7c <i_9620>:
    80009b7c:	02c62233          	mulhsu	tp,a2,a2

0000000080009b80 <i_9621>:
    80009b80:	1846e693          	ori	a3,a3,388

0000000080009b84 <i_9622>:
    80009b84:	ea510623          	sb	t0,-340(sp)

0000000080009b88 <i_9623>:
    80009b88:	00d65463          	ble	a3,a2,80009b90 <i_9625>

0000000080009b8c <i_9624>:
    80009b8c:	00000013          	nop

0000000080009b90 <i_9625>:
    80009b90:	10510683          	lb	a3,261(sp)

0000000080009b94 <i_9626>:
    80009b94:	02d436b3          	mulhu	a3,s0,a3

0000000080009b98 <i_9627>:
    80009b98:	8af00293          	li	t0,-1873

0000000080009b9c <i_9628>:
    80009b9c:	8b200413          	li	s0,-1870

0000000080009ba0 <i_9629>:
    80009ba0:	02e6c1b3          	div	gp,a3,a4

0000000080009ba4 <i_9630>:
    80009ba4:	fcd11f23          	sh	a3,-34(sp)

0000000080009ba8 <i_9631>:
    80009ba8:	00388663          	beq	a7,gp,80009bb4 <i_9634>

0000000080009bac <i_9632>:
    80009bac:	00318ab3          	add	s5,gp,gp

0000000080009bb0 <i_9633>:
    80009bb0:	3941819b          	addiw	gp,gp,916

0000000080009bb4 <i_9634>:
    80009bb4:	09512423          	sw	s5,136(sp)

0000000080009bb8 <i_9635>:
    80009bb8:	ca886197          	auipc	gp,0xca886

0000000080009bbc <i_9636>:
    80009bbc:	023ab1b3          	mulhu	gp,s5,gp

0000000080009bc0 <i_9637>:
    80009bc0:	015a8ab3          	add	s5,s5,s5

0000000080009bc4 <i_9638>:
    80009bc4:	015181b3          	add	gp,gp,s5

0000000080009bc8 <i_9639>:
    80009bc8:	00000013          	nop

0000000080009bcc <i_9640>:
    80009bcc:	04313c23          	sd	gp,88(sp)

0000000080009bd0 <i_9641>:
    80009bd0:	00128293          	addi	t0,t0,1
    80009bd4:	fc82e6e3          	bltu	t0,s0,80009ba0 <i_9629>

0000000080009bd8 <i_9642>:
    80009bd8:	0e610a83          	lb	s5,230(sp)

0000000080009bdc <i_9643>:
    80009bdc:	04210803          	lb	a6,66(sp)

0000000080009be0 <i_9644>:
    80009be0:	035c6c33          	rem	s8,s8,s5

0000000080009be4 <i_9645>:
    80009be4:	04012a83          	lw	s5,64(sp)

0000000080009be8 <i_9646>:
    80009be8:	015c6463          	bltu	s8,s5,80009bf0 <i_9648>

0000000080009bec <i_9647>:
    80009bec:	01080263          	beq	a6,a6,80009bf0 <i_9648>

0000000080009bf0 <i_9648>:
    80009bf0:	0f813023          	sd	s8,224(sp)

0000000080009bf4 <i_9649>:
    80009bf4:	8cce8a9b          	addiw	s5,t4,-1844

0000000080009bf8 <i_9650>:
    80009bf8:	13b14803          	lbu	a6,315(sp)

0000000080009bfc <i_9651>:
    80009bfc:	01083eb3          	sltu	t4,a6,a6

0000000080009c00 <i_9652>:
    80009c00:	84100193          	li	gp,-1983

0000000080009c04 <i_9653>:
    80009c04:	84400f93          	li	t6,-1980

0000000080009c08 <i_9654>:
    80009c08:	036d6d33          	rem	s10,s10,s6

0000000080009c0c <i_9655>:
    80009c0c:	01fff463          	bleu	t6,t6,80009c14 <i_9657>

0000000080009c10 <i_9656>:
    80009c10:	03f82bb3          	mulhsu	s7,a6,t6

0000000080009c14 <i_9657>:
    80009c14:	0d413823          	sd	s4,208(sp)

0000000080009c18 <i_9658>:
    80009c18:	08a15703          	lhu	a4,138(sp)

0000000080009c1c <i_9659>:
    80009c1c:	00000013          	nop

0000000080009c20 <i_9660>:
    80009c20:	00118193          	addi	gp,gp,1 # 4a88fbb9 <main-0x35770447>
    80009c24:	fff192e3          	bne	gp,t6,80009c08 <i_9654>

0000000080009c28 <i_9661>:
    80009c28:	e4e12823          	sw	a4,-432(sp)

0000000080009c2c <i_9662>:
    80009c2c:	00000013          	nop

0000000080009c30 <i_9663>:
    80009c30:	021d6ebb          	remw	t4,s10,ra

0000000080009c34 <i_9664>:
    80009c34:	74b00d13          	li	s10,1867

0000000080009c38 <i_9665>:
    80009c38:	74d00993          	li	s3,1869

0000000080009c3c <i_9666>:
    80009c3c:	03dd7ebb          	remuw	t4,s10,t4

0000000080009c40 <i_9667>:
    80009c40:	002e9e9b          	slliw	t4,t4,0x2

0000000080009c44 <i_9668>:
    80009c44:	0118a8b3          	slt	a7,a7,a7

0000000080009c48 <i_9669>:
    80009c48:	0a815883          	lhu	a7,168(sp)

0000000080009c4c <i_9670>:
    80009c4c:	00000013          	nop

0000000080009c50 <i_9671>:
    80009c50:	002f581b          	srliw	a6,t5,0x2

0000000080009c54 <i_9672>:
    80009c54:	001d0d13          	addi	s10,s10,1
    80009c58:	ffa9f2e3          	bleu	s10,s3,80009c3c <i_9666>

0000000080009c5c <i_9673>:
    80009c5c:	00e8fa63          	bleu	a4,a7,80009c70 <i_9678>

0000000080009c60 <i_9674>:
    80009c60:	02eee463          	bltu	t4,a4,80009c88 <i_9684>

0000000080009c64 <i_9675>:
    80009c64:	4ee98493          	addi	s1,s3,1262 # d1c94ee <main-0x72e36b12>

0000000080009c68 <i_9676>:
    80009c68:	0293beb3          	mulhu	t4,t2,s1

0000000080009c6c <i_9677>:
    80009c6c:	1ae15e83          	lhu	t4,430(sp)

0000000080009c70 <i_9678>:
    80009c70:	ee013d03          	ld	s10,-288(sp)

0000000080009c74 <i_9679>:
    80009c74:	003ed493          	srli	s1,t4,0x3

0000000080009c78 <i_9680>:
    80009c78:	07d12823          	sw	t4,112(sp)

0000000080009c7c <i_9681>:
    80009c7c:	b4ae8513          	addi	a0,t4,-1206

0000000080009c80 <i_9682>:
    80009c80:	e2411783          	lh	a5,-476(sp)

0000000080009c84 <i_9683>:
    80009c84:	e3a15e83          	lhu	t4,-454(sp)

0000000080009c88 <i_9684>:
    80009c88:	0346da33          	divu	s4,a3,s4

0000000080009c8c <i_9685>:
    80009c8c:	00000013          	nop

0000000080009c90 <i_9686>:
    80009c90:	85700993          	li	s3,-1961

0000000080009c94 <i_9687>:
    80009c94:	86400713          	li	a4,-1948

0000000080009c98 <i_9688>:
    80009c98:	00000013          	nop

0000000080009c9c <i_9689>:
    80009c9c:	19d11b23          	sh	t4,406(sp)

0000000080009ca0 <i_9690>:
    80009ca0:	e2816803          	lwu	a6,-472(sp)

0000000080009ca4 <i_9691>:
    80009ca4:	12415e83          	lhu	t4,292(sp)

0000000080009ca8 <i_9692>:
    80009ca8:	eae11503          	lh	a0,-338(sp)

0000000080009cac <i_9693>:
    80009cac:	f8a11123          	sh	a0,-126(sp)

0000000080009cb0 <i_9694>:
    80009cb0:	00198993          	addi	s3,s3,1
    80009cb4:	fee992e3          	bne	s3,a4,80009c98 <i_9688>

0000000080009cb8 <i_9695>:
    80009cb8:	01485463          	ble	s4,a6,80009cc0 <i_9697>

0000000080009cbc <i_9696>:
    80009cbc:	07015383          	lhu	t2,112(sp)

0000000080009cc0 <i_9697>:
    80009cc0:	02a7d263          	ble	a0,a5,80009ce4 <i_9706>

0000000080009cc4 <i_9698>:
    80009cc4:	01300d93          	li	s11,19

0000000080009cc8 <i_9699>:
    80009cc8:	41b75733          	sra	a4,a4,s11

0000000080009ccc <i_9700>:
    80009ccc:	14713423          	sd	t2,328(sp)

0000000080009cd0 <i_9701>:
    80009cd0:	f7c16783          	lwu	a5,-132(sp)

0000000080009cd4 <i_9702>:
    80009cd4:	00000013          	nop

0000000080009cd8 <i_9703>:
    80009cd8:	00000013          	nop

0000000080009cdc <i_9704>:
    80009cdc:	e6012383          	lw	t2,-416(sp)

0000000080009ce0 <i_9705>:
    80009ce0:	00000013          	nop

0000000080009ce4 <i_9706>:
    80009ce4:	fe013183          	ld	gp,-32(sp)

0000000080009ce8 <i_9707>:
    80009ce8:	4023d19b          	sraiw	gp,t2,0x2

0000000080009cec <i_9708>:
    80009cec:	76f00213          	li	tp,1903

0000000080009cf0 <i_9709>:
    80009cf0:	78100a13          	li	s4,1921

0000000080009cf4 <i_9710>:
    80009cf4:	00120213          	addi	tp,tp,1 # 7efd1539 <main-0x102eac7>
    80009cf8:	ff426ee3          	bltu	tp,s4,80009cf4 <i_9710>

0000000080009cfc <i_9711>:
    80009cfc:	04614383          	lbu	t2,70(sp)

0000000080009d00 <i_9712>:
    80009d00:	0ee11883          	lh	a7,238(sp)

0000000080009d04 <i_9713>:
    80009d04:	00000013          	nop

0000000080009d08 <i_9714>:
    80009d08:	77c00393          	li	t2,1916

0000000080009d0c <i_9715>:
    80009d0c:	78c00513          	li	a0,1932

0000000080009d10 <i_9716>:
    80009d10:	01a00413          	li	s0,26

0000000080009d14 <i_9717>:
    80009d14:	4084543b          	sraw	s0,s0,s0

0000000080009d18 <i_9718>:
    80009d18:	84b00e13          	li	t3,-1973

0000000080009d1c <i_9719>:
    80009d1c:	85d00493          	li	s1,-1955

0000000080009d20 <i_9720>:
    80009d20:	1a013603          	ld	a2,416(sp)

0000000080009d24 <i_9721>:
    80009d24:	001e0e13          	addi	t3,t3,1
    80009d28:	fe9e4ce3          	blt	t3,s1,80009d20 <i_9720>

0000000080009d2c <i_9722>:
    80009d2c:	03c537b3          	mulhu	a5,a0,t3

0000000080009d30 <i_9723>:
    80009d30:	f9c10f03          	lb	t5,-100(sp)

0000000080009d34 <i_9724>:
    80009d34:	00138393          	addi	t2,t2,1
    80009d38:	fc757ce3          	bleu	t2,a0,80009d10 <i_9716>

0000000080009d3c <i_9725>:
    80009d3c:	a1f7c613          	xori	a2,a5,-1505

0000000080009d40 <i_9726>:
    80009d40:	00664663          	blt	a2,t1,80009d4c <i_9729>

0000000080009d44 <i_9727>:
    80009d44:	e2412783          	lw	a5,-476(sp)

0000000080009d48 <i_9728>:
    80009d48:	02bf7263          	bleu	a1,t5,80009d6c <i_9737>

0000000080009d4c <i_9729>:
    80009d4c:	02b655b3          	divu	a1,a2,a1

0000000080009d50 <i_9730>:
    80009d50:	e6414883          	lbu	a7,-412(sp)

0000000080009d54 <i_9731>:
    80009d54:	031f6263          	bltu	t5,a7,80009d78 <i_9740>

0000000080009d58 <i_9732>:
    80009d58:	05013583          	ld	a1,80(sp)

0000000080009d5c <i_9733>:
    80009d5c:	f0813183          	ld	gp,-248(sp)

0000000080009d60 <i_9734>:
    80009d60:	fac16b03          	lwu	s6,-84(sp)

0000000080009d64 <i_9735>:
    80009d64:	f1611423          	sh	s6,-248(sp)

0000000080009d68 <i_9736>:
    80009d68:	e7412483          	lw	s1,-396(sp)

0000000080009d6c <i_9737>:
    80009d6c:	ecc16483          	lwu	s1,-308(sp)

0000000080009d70 <i_9738>:
    80009d70:	00000013          	nop

0000000080009d74 <i_9739>:
    80009d74:	00000013          	nop

0000000080009d78 <i_9740>:
    80009d78:	00000013          	nop

0000000080009d7c <i_9741>:
    80009d7c:	029de1bb          	remw	gp,s11,s1

0000000080009d80 <i_9742>:
    80009d80:	82d00893          	li	a7,-2003

0000000080009d84 <i_9743>:
    80009d84:	83f00d13          	li	s10,-1985

0000000080009d88 <i_9744>:
    80009d88:	9352c237          	lui	tp,0x9352c

0000000080009d8c <i_9745>:
    80009d8c:	e8a11483          	lh	s1,-374(sp)

0000000080009d90 <i_9746>:
    80009d90:	00924233          	xor	tp,tp,s1

0000000080009d94 <i_9747>:
    80009d94:	87f26a13          	ori	s4,tp,-1921

0000000080009d98 <i_9748>:
    80009d98:	00188893          	addi	a7,a7,1
    80009d9c:	ffa8c6e3          	blt	a7,s10,80009d88 <i_9744>

0000000080009da0 <i_9749>:
    80009da0:	01027a63          	bleu	a6,tp,80009db4 <i_9754>

0000000080009da4 <i_9750>:
    80009da4:	03f00a93          	li	s5,63

0000000080009da8 <i_9751>:
    80009da8:	415cd2b3          	sra	t0,s9,s5

0000000080009dac <i_9752>:
    80009dac:	e2411b23          	sh	tp,-458(sp)

0000000080009db0 <i_9753>:
    80009db0:	0da11a03          	lh	s4,218(sp)

0000000080009db4 <i_9754>:
    80009db4:	00949863          	bne	s1,s1,80009dc4 <i_9758>

0000000080009db8 <i_9755>:
    80009db8:	0a413823          	sd	tp,176(sp)

0000000080009dbc <i_9756>:
    80009dbc:	00488863          	beq	a7,tp,80009dcc <i_9760>

0000000080009dc0 <i_9757>:
    80009dc0:	01a15303          	lhu	t1,26(sp)

0000000080009dc4 <i_9758>:
    80009dc4:	fe313c23          	sd	gp,-8(sp)

0000000080009dc8 <i_9759>:
    80009dc8:	0252e93b          	remw	s2,t0,t0

0000000080009dcc <i_9760>:
    80009dcc:	1b013a83          	ld	s5,432(sp)

0000000080009dd0 <i_9761>:
    80009dd0:	004fc263          	blt	t6,tp,80009dd4 <i_9762>

0000000080009dd4 <i_9762>:
    80009dd4:	e7816203          	lwu	tp,-392(sp)

0000000080009dd8 <i_9763>:
    80009dd8:	03435063          	ble	s4,t1,80009df8 <i_9771>

0000000080009ddc <i_9764>:
    80009ddc:	0044e863          	bltu	s1,tp,80009dec <i_9768>

0000000080009de0 <i_9765>:
    80009de0:	0b512e23          	sw	s5,188(sp)

0000000080009de4 <i_9766>:
    80009de4:	a5b97213          	andi	tp,s2,-1445

0000000080009de8 <i_9767>:
    80009de8:	0b710403          	lb	s0,183(sp)

0000000080009dec <i_9768>:
    80009dec:	1e412023          	sw	tp,480(sp)

0000000080009df0 <i_9769>:
    80009df0:	1aa15983          	lhu	s3,426(sp)

0000000080009df4 <i_9770>:
    80009df4:	ed313823          	sd	s3,-304(sp)

0000000080009df8 <i_9771>:
    80009df8:	01241463          	bne	s0,s2,80009e00 <i_9773>

0000000080009dfc <i_9772>:
    80009dfc:	00825463          	ble	s0,tp,80009e04 <i_9774>

0000000080009e00 <i_9773>:
    80009e00:	0339ebbb          	remw	s7,s3,s3

0000000080009e04 <i_9774>:
    80009e04:	02899433          	mulh	s0,s3,s0

0000000080009e08 <i_9775>:
    80009e08:	02651333          	mulh	t1,a0,t1

0000000080009e0c <i_9776>:
    80009e0c:	87d00213          	li	tp,-1923

0000000080009e10 <i_9777>:
    80009e10:	88f00993          	li	s3,-1905

0000000080009e14 <i_9778>:
    80009e14:	e6811223          	sh	s0,-412(sp)

0000000080009e18 <i_9779>:
    80009e18:	028bc333          	div	t1,s7,s0

0000000080009e1c <i_9780>:
    80009e1c:	be4ca413          	slti	s0,s9,-1052

0000000080009e20 <i_9781>:
    80009e20:	1be11303          	lh	t1,446(sp)

0000000080009e24 <i_9782>:
    80009e24:	00120213          	addi	tp,tp,1 # ffffffff9352c001 <_end+0xffffffff1351bbed>
    80009e28:	fe49f6e3          	bleu	tp,s3,80009e14 <i_9778>

0000000080009e2c <i_9783>:
    80009e2c:	ef010283          	lb	t0,-272(sp)

0000000080009e30 <i_9784>:
    80009e30:	f8012b83          	lw	s7,-128(sp)

0000000080009e34 <i_9785>:
    80009e34:	f8611323          	sh	t1,-122(sp)

0000000080009e38 <i_9786>:
    80009e38:	0d211903          	lh	s2,210(sp)

0000000080009e3c <i_9787>:
    80009e3c:	017b8c63          	beq	s7,s7,80009e54 <i_9793>

0000000080009e40 <i_9788>:
    80009e40:	e6210703          	lb	a4,-414(sp)

0000000080009e44 <i_9789>:
    80009e44:	7b320337          	lui	t1,0x7b320

0000000080009e48 <i_9790>:
    80009e48:	01ce4663          	blt	t3,t3,80009e54 <i_9793>

0000000080009e4c <i_9791>:
    80009e4c:	1c810ba3          	sb	s0,471(sp)

0000000080009e50 <i_9792>:
    80009e50:	02abebbb          	remw	s7,s7,a0

0000000080009e54 <i_9793>:
    80009e54:	f0811923          	sh	s0,-238(sp)

0000000080009e58 <i_9794>:
    80009e58:	a5797293          	andi	t0,s2,-1449

0000000080009e5c <i_9795>:
    80009e5c:	f2016a03          	lwu	s4,-224(sp)

0000000080009e60 <i_9796>:
    80009e60:	7c800913          	li	s2,1992

0000000080009e64 <i_9797>:
    80009e64:	7ce00c93          	li	s9,1998

0000000080009e68 <i_9798>:
    80009e68:	01235663          	ble	s2,t1,80009e74 <i_9801>

0000000080009e6c <i_9799>:
    80009e6c:	e2613023          	sd	t1,-480(sp)

0000000080009e70 <i_9800>:
    80009e70:	ecc16303          	lwu	t1,-308(sp)

0000000080009e74 <i_9801>:
    80009e74:	fc411703          	lh	a4,-60(sp)

0000000080009e78 <i_9802>:
    80009e78:	eba11a03          	lh	s4,-326(sp)

0000000080009e7c <i_9803>:
    80009e7c:	01467663          	bleu	s4,a2,80009e88 <i_9806>

0000000080009e80 <i_9804>:
    80009e80:	1e6103a3          	sb	t1,487(sp)

0000000080009e84 <i_9805>:
    80009e84:	1ce11223          	sh	a4,452(sp)

0000000080009e88 <i_9806>:
    80009e88:	03435063          	ble	s4,t1,80009ea8 <i_9813>

0000000080009e8c <i_9807>:
    80009e8c:	00da6333          	or	t1,s4,a3

0000000080009e90 <i_9808>:
    80009e90:	00190913          	addi	s2,s2,1
    80009e94:	fd996ae3          	bltu	s2,s9,80009e68 <i_9798>

0000000080009e98 <i_9809>:
    80009e98:	00636463          	bltu	t1,t1,80009ea0 <i_9811>

0000000080009e9c <i_9810>:
    80009e9c:	02677063          	bleu	t1,a4,80009ebc <i_9818>

0000000080009ea0 <i_9811>:
    80009ea0:	00ea5463          	ble	a4,s4,80009ea8 <i_9813>

0000000080009ea4 <i_9812>:
    80009ea4:	ef410223          	sb	s4,-284(sp)

0000000080009ea8 <i_9813>:
    80009ea8:	f9314403          	lbu	s0,-109(sp)

0000000080009eac <i_9814>:
    80009eac:	16810323          	sb	s0,358(sp)

0000000080009eb0 <i_9815>:
    80009eb0:	00ea7e63          	bleu	a4,s4,80009ecc <i_9822>

0000000080009eb4 <i_9816>:
    80009eb4:	0c613c23          	sd	t1,216(sp)

0000000080009eb8 <i_9817>:
    80009eb8:	18215a03          	lhu	s4,386(sp)

0000000080009ebc <i_9818>:
    80009ebc:	00830463          	beq	t1,s0,80009ec4 <i_9820>

0000000080009ec0 <i_9819>:
    80009ec0:	fc012303          	lw	t1,-64(sp)

0000000080009ec4 <i_9820>:
    80009ec4:	00635a63          	ble	t1,t1,80009ed8 <i_9825>

0000000080009ec8 <i_9821>:
    80009ec8:	18c12303          	lw	t1,396(sp)

0000000080009ecc <i_9822>:
    80009ecc:	00635663          	ble	t1,t1,80009ed8 <i_9825>

0000000080009ed0 <i_9823>:
    80009ed0:	006f7863          	bleu	t1,t5,80009ee0 <i_9827>

0000000080009ed4 <i_9824>:
    80009ed4:	03912223          	sw	s9,36(sp)

0000000080009ed8 <i_9825>:
    80009ed8:	15016903          	lwu	s2,336(sp)

0000000080009edc <i_9826>:
    80009edc:	07415303          	lhu	t1,116(sp)

0000000080009ee0 <i_9827>:
    80009ee0:	037cf6b3          	remu	a3,s9,s7

0000000080009ee4 <i_9828>:
    80009ee4:	09412403          	lw	s0,148(sp)

0000000080009ee8 <i_9829>:
    80009ee8:	00d69c63          	bne	a3,a3,80009f00 <i_9835>

0000000080009eec <i_9830>:
    80009eec:	15016803          	lwu	a6,336(sp)

0000000080009ef0 <i_9831>:
    80009ef0:	01085a63          	ble	a6,a6,80009f04 <i_9836>

0000000080009ef4 <i_9832>:
    80009ef4:	0056ea63          	bltu	a3,t0,80009f08 <i_9837>

0000000080009ef8 <i_9833>:
    80009ef8:	f9813a03          	ld	s4,-104(sp)

0000000080009efc <i_9834>:
    80009efc:	d3942893          	slti	a7,s0,-711

0000000080009f00 <i_9835>:
    80009f00:	0118f9b3          	and	s3,a7,a7

0000000080009f04 <i_9836>:
    80009f04:	0258ddbb          	divuw	s11,a7,t0

0000000080009f08 <i_9837>:
    80009f08:	f6813803          	ld	a6,-152(sp)

0000000080009f0c <i_9838>:
    80009f0c:	0a813883          	ld	a7,168(sp)

0000000080009f10 <i_9839>:
    80009f10:	01185263          	ble	a7,a6,80009f14 <i_9840>

0000000080009f14 <i_9840>:
    80009f14:	f4013883          	ld	a7,-192(sp)

0000000080009f18 <i_9841>:
    80009f18:	11c14f83          	lbu	t6,284(sp)

0000000080009f1c <i_9842>:
    80009f1c:	e7011523          	sh	a6,-406(sp)

0000000080009f20 <i_9843>:
    80009f20:	0108c463          	blt	a7,a6,80009f28 <i_9845>

0000000080009f24 <i_9844>:
    80009f24:	e9a11a23          	sh	s10,-364(sp)

0000000080009f28 <i_9845>:
    80009f28:	03f2c063          	blt	t0,t6,80009f48 <i_9853>

0000000080009f2c <i_9846>:
    80009f2c:	03a00813          	li	a6,58

0000000080009f30 <i_9847>:
    80009f30:	0106d7b3          	srl	a5,a3,a6

0000000080009f34 <i_9848>:
    80009f34:	00f5de63          	ble	a5,a1,80009f50 <i_9855>

0000000080009f38 <i_9849>:
    80009f38:	02dfc063          	blt	t6,a3,80009f58 <i_9857>

0000000080009f3c <i_9850>:
    80009f3c:	f9a13c23          	sd	s10,-104(sp)

0000000080009f40 <i_9851>:
    80009f40:	f8f10e03          	lb	t3,-113(sp)

0000000080009f44 <i_9852>:
    80009f44:	ec011e03          	lh	t3,-320(sp)

0000000080009f48 <i_9853>:
    80009f48:	0036d493          	srli	s1,a3,0x3

0000000080009f4c <i_9854>:
    80009f4c:	02b8eb33          	rem	s6,a7,a1

0000000080009f50 <i_9855>:
    80009f50:	1ad12823          	sw	a3,432(sp)

0000000080009f54 <i_9856>:
    80009f54:	00000013          	nop

0000000080009f58 <i_9857>:
    80009f58:	00000013          	nop

0000000080009f5c <i_9858>:
    80009f5c:	00000013          	nop

0000000080009f60 <i_9859>:
    80009f60:	74400693          	li	a3,1860

0000000080009f64 <i_9860>:
    80009f64:	74b00193          	li	gp,1867

0000000080009f68 <i_9861>:
    80009f68:	02a8cfb3          	div	t6,a7,a0

0000000080009f6c <i_9862>:
    80009f6c:	1d412483          	lw	s1,468(sp)

0000000080009f70 <i_9863>:
    80009f70:	00000013          	nop

0000000080009f74 <i_9864>:
    80009f74:	00168693          	addi	a3,a3,1
    80009f78:	fe3698e3          	bne	a3,gp,80009f68 <i_9861>

0000000080009f7c <i_9865>:
    80009f7c:	12e12c23          	sw	a4,312(sp)

0000000080009f80 <i_9866>:
    80009f80:	02fff7b3          	remu	a5,t6,a5

0000000080009f84 <i_9867>:
    80009f84:	02f2623b          	remw	tp,tp,a5

0000000080009f88 <i_9868>:
    80009f88:	3a27af93          	slti	t6,a5,930

0000000080009f8c <i_9869>:
    80009f8c:	13c11183          	lh	gp,316(sp)

0000000080009f90 <i_9870>:
    80009f90:	003fe233          	or	tp,t6,gp

0000000080009f94 <i_9871>:
    80009f94:	00313023          	sd	gp,0(sp)

0000000080009f98 <i_9872>:
    80009f98:	003fec63          	bltu	t6,gp,80009fb0 <i_9878>

0000000080009f9c <i_9873>:
    80009f9c:	06611183          	lh	gp,102(sp)

0000000080009fa0 <i_9874>:
    80009fa0:	0df12223          	sw	t6,196(sp)

0000000080009fa4 <i_9875>:
    80009fa4:	03fc7063          	bleu	t6,s8,80009fc4 <i_9883>

0000000080009fa8 <i_9876>:
    80009fa8:	f5910503          	lb	a0,-167(sp)

0000000080009fac <i_9877>:
    80009fac:	ec013c03          	ld	s8,-320(sp)

0000000080009fb0 <i_9878>:
    80009fb0:	ed011703          	lh	a4,-304(sp)

0000000080009fb4 <i_9879>:
    80009fb4:	00a43433          	sltu	s0,s0,a0

0000000080009fb8 <i_9880>:
    80009fb8:	09a15803          	lhu	a6,154(sp)

0000000080009fbc <i_9881>:
    80009fbc:	08c12f83          	lw	t6,140(sp)

0000000080009fc0 <i_9882>:
    80009fc0:	5fee0213          	addi	tp,t3,1534

0000000080009fc4 <i_9883>:
    80009fc4:	f3e11783          	lh	a5,-194(sp)

0000000080009fc8 <i_9884>:
    80009fc8:	ec611c03          	lh	s8,-314(sp)

0000000080009fcc <i_9885>:
    80009fcc:	78500e13          	li	t3,1925

0000000080009fd0 <i_9886>:
    80009fd0:	78d00913          	li	s2,1933

0000000080009fd4 <i_9887>:
    80009fd4:	01886263          	bltu	a6,s8,80009fd8 <i_9888>

0000000080009fd8 <i_9888>:
    80009fd8:	f9c11a83          	lh	s5,-100(sp)

0000000080009fdc <i_9889>:
    80009fdc:	010c6ab3          	or	s5,s8,a6

0000000080009fe0 <i_9890>:
    80009fe0:	00000013          	nop

0000000080009fe4 <i_9891>:
    80009fe4:	001e0e13          	addi	t3,t3,1
    80009fe8:	ff2e66e3          	bltu	t3,s2,80009fd4 <i_9887>

0000000080009fec <i_9892>:
    80009fec:	01416903          	lwu	s2,20(sp)

0000000080009ff0 <i_9893>:
    80009ff0:	0eb10603          	lb	a2,235(sp)

0000000080009ff4 <i_9894>:
    80009ff4:	19512823          	sw	s5,400(sp)

0000000080009ff8 <i_9895>:
    80009ff8:	e4a15a83          	lhu	s5,-438(sp)

0000000080009ffc <i_9896>:
    80009ffc:	e4813183          	ld	gp,-440(sp)

000000008000a000 <i_9897>:
    8000a000:	e9c14903          	lbu	s2,-356(sp)

000000008000a004 <i_9898>:
    8000a004:	f6c10023          	sb	a2,-160(sp)

000000008000a008 <i_9899>:
    8000a008:	87e00613          	li	a2,-1922

000000008000a00c <i_9900>:
    8000a00c:	88800193          	li	gp,-1912

000000008000a010 <i_9901>:
    8000a010:	18c12a23          	sw	a2,404(sp)

000000008000a014 <i_9902>:
    8000a014:	03218c3b          	mulw	s8,gp,s2

000000008000a018 <i_9903>:
    8000a018:	00160613          	addi	a2,a2,1 # 1adbf001 <main-0x65240fff>
    8000a01c:	fec1fae3          	bleu	a2,gp,8000a010 <i_9901>

000000008000a020 <i_9904>:
    8000a020:	ce46061b          	addiw	a2,a2,-796

000000008000a024 <i_9905>:
    8000a024:	02c60263          	beq	a2,a2,8000a048 <i_9914>

000000008000a028 <i_9906>:
    8000a028:	03808533          	mul	a0,ra,s8

000000008000a02c <i_9907>:
    8000a02c:	07012283          	lw	t0,112(sp)

000000008000a030 <i_9908>:
    8000a030:	02611503          	lh	a0,38(sp)

000000008000a034 <i_9909>:
    8000a034:	f7e13423          	sd	t5,-152(sp)

000000008000a038 <i_9910>:
    8000a038:	0e313c23          	sd	gp,248(sp)

000000008000a03c <i_9911>:
    8000a03c:	11015283          	lhu	t0,272(sp)

000000008000a040 <i_9912>:
    8000a040:	02e2df33          	divu	t5,t0,a4

000000008000a044 <i_9913>:
    8000a044:	5bc2821b          	addiw	tp,t0,1468

000000008000a048 <i_9914>:
    8000a048:	0392e23b          	remw	tp,t0,s9

000000008000a04c <i_9915>:
    8000a04c:	fa813183          	ld	gp,-88(sp)

000000008000a050 <i_9916>:
    8000a050:	87100393          	li	t2,-1935

000000008000a054 <i_9917>:
    8000a054:	87700713          	li	a4,-1929

000000008000a058 <i_9918>:
    8000a058:	00427e63          	bleu	tp,tp,8000a074 <i_9925>

000000008000a05c <i_9919>:
    8000a05c:	e6013f83          	ld	t6,-416(sp)

000000008000a060 <i_9920>:
    8000a060:	e4313823          	sd	gp,-432(sp)

000000008000a064 <i_9921>:
    8000a064:	f9914283          	lbu	t0,-103(sp)

000000008000a068 <i_9922>:
    8000a068:	03114903          	lbu	s2,49(sp)

000000008000a06c <i_9923>:
    8000a06c:	f7f13023          	sd	t6,-160(sp)

000000008000a070 <i_9924>:
    8000a070:	0211e0bb          	remw	ra,gp,ra

000000008000a074 <i_9925>:
    8000a074:	00000013          	nop

000000008000a078 <i_9926>:
    8000a078:	00000013          	nop

000000008000a07c <i_9927>:
    8000a07c:	03a09d33          	mulh	s10,ra,s10

000000008000a080 <i_9928>:
    8000a080:	08210903          	lb	s2,130(sp)

000000008000a084 <i_9929>:
    8000a084:	023d1463          	bne	s10,gp,8000a0ac <i_9938>

000000008000a088 <i_9930>:
    8000a088:	00138393          	addi	t2,t2,1
    8000a08c:	fc7756e3          	ble	t2,a4,8000a058 <i_9918>

000000008000a090 <i_9931>:
    8000a090:	1d514283          	lbu	t0,469(sp)

000000008000a094 <i_9932>:
    8000a094:	403f81bb          	subw	gp,t6,gp

000000008000a098 <i_9933>:
    8000a098:	017d7193          	andi	gp,s10,23

000000008000a09c <i_9934>:
    8000a09c:	eac12503          	lw	a0,-340(sp)

000000008000a0a0 <i_9935>:
    8000a0a0:	0fc12683          	lw	a3,252(sp)

000000008000a0a4 <i_9936>:
    8000a0a4:	f7e11d83          	lh	s11,-130(sp)

000000008000a0a8 <i_9937>:
    8000a0a8:	00000013          	nop

000000008000a0ac <i_9938>:
    8000a0ac:	02e15303          	lhu	t1,46(sp)

000000008000a0b0 <i_9939>:
    8000a0b0:	e2913823          	sd	s1,-464(sp)

000000008000a0b4 <i_9940>:
    8000a0b4:	86c00d13          	li	s10,-1940

000000008000a0b8 <i_9941>:
    8000a0b8:	87a00b93          	li	s7,-1926

000000008000a0bc <i_9942>:
    8000a0bc:	01615883          	lhu	a7,22(sp)

000000008000a0c0 <i_9943>:
    8000a0c0:	1bb12c23          	sw	s11,440(sp)

000000008000a0c4 <i_9944>:
    8000a0c4:	0b815883          	lhu	a7,184(sp)

000000008000a0c8 <i_9945>:
    8000a0c8:	0052ee33          	or	t3,t0,t0

000000008000a0cc <i_9946>:
    8000a0cc:	f3813283          	ld	t0,-200(sp)

000000008000a0d0 <i_9947>:
    8000a0d0:	01c2f2b3          	and	t0,t0,t3

000000008000a0d4 <i_9948>:
    8000a0d4:	f8815283          	lhu	t0,-120(sp)

000000008000a0d8 <i_9949>:
    8000a0d8:	001d0d13          	addi	s10,s10,1
    8000a0dc:	ff7d60e3          	bltu	s10,s7,8000a0bc <i_9942>

000000008000a0e0 <i_9950>:
    8000a0e0:	e5416e03          	lwu	t3,-428(sp)

000000008000a0e4 <i_9951>:
    8000a0e4:	03111923          	sh	a7,50(sp)

000000008000a0e8 <i_9952>:
    8000a0e8:	032e1433          	mulh	s0,t3,s2

000000008000a0ec <i_9953>:
    8000a0ec:	4058893b          	subw	s2,a7,t0

000000008000a0f0 <i_9954>:
    8000a0f0:	0128cc63          	blt	a7,s2,8000a108 <i_9960>

000000008000a0f4 <i_9955>:
    8000a0f4:	f7199917          	auipc	s2,0xf7199

000000008000a0f8 <i_9956>:
    8000a0f8:	00491913          	slli	s2,s2,0x4

000000008000a0fc <i_9957>:
    8000a0fc:	40c40933          	sub	s2,s0,a2

000000008000a100 <i_9958>:
    8000a100:	032aa433          	mulhsu	s0,s5,s2

000000008000a104 <i_9959>:
    8000a104:	19212623          	sw	s2,396(sp)

000000008000a108 <i_9960>:
    8000a108:	0046539b          	srliw	t2,a2,0x4

000000008000a10c <i_9961>:
    8000a10c:	0f510c23          	sb	s5,248(sp)

000000008000a110 <i_9962>:
    8000a110:	84500613          	li	a2,-1979

000000008000a114 <i_9963>:
    8000a114:	84b00a93          	li	s5,-1973

000000008000a118 <i_9964>:
    8000a118:	00160613          	addi	a2,a2,1
    8000a11c:	ff566ee3          	bltu	a2,s5,8000a118 <i_9964>

000000008000a120 <i_9965>:
    8000a120:	00c3e863          	bltu	t2,a2,8000a130 <i_9969>

000000008000a124 <i_9966>:
    8000a124:	14813e83          	ld	t4,328(sp)

000000008000a128 <i_9967>:
    8000a128:	0033d913          	srli	s2,t2,0x3

000000008000a12c <i_9968>:
    8000a12c:	0323e433          	rem	s0,t2,s2

000000008000a130 <i_9969>:
    8000a130:	10811523          	sh	s0,266(sp)

000000008000a134 <i_9970>:
    8000a134:	00000013          	nop

000000008000a138 <i_9971>:
    8000a138:	7a800213          	li	tp,1960

000000008000a13c <i_9972>:
    8000a13c:	7b000e93          	li	t4,1968

000000008000a140 <i_9973>:
    8000a140:	01b3bdb3          	sltu	s11,t2,s11

000000008000a144 <i_9974>:
    8000a144:	00874db3          	xor	s11,a4,s0

000000008000a148 <i_9975>:
    8000a148:	00300b13          	li	s6,3

000000008000a14c <i_9976>:
    8000a14c:	0164193b          	sllw	s2,s0,s6

000000008000a150 <i_9977>:
    8000a150:	00120213          	addi	tp,tp,1 # 1 <main-0x7fffffff>
    8000a154:	ffd246e3          	blt	tp,t4,8000a140 <i_9973>

000000008000a158 <i_9978>:
    8000a158:	1d310e03          	lb	t3,467(sp)

000000008000a15c <i_9979>:
    8000a15c:	f0c13423          	sd	a2,-248(sp)

000000008000a160 <i_9980>:
    8000a160:	03c67633          	remu	a2,a2,t3

000000008000a164 <i_9981>:
    8000a164:	10c13423          	sd	a2,264(sp)

000000008000a168 <i_9982>:
    8000a168:	01013503          	ld	a0,16(sp)

000000008000a16c <i_9983>:
    8000a16c:	87500193          	li	gp,-1931

000000008000a170 <i_9984>:
    8000a170:	88800613          	li	a2,-1912

000000008000a174 <i_9985>:
    8000a174:	02a61463          	bne	a2,a0,8000a19c <i_9995>

000000008000a178 <i_9986>:
    8000a178:	fbc16b03          	lwu	s6,-68(sp)

000000008000a17c <i_9987>:
    8000a17c:	00c59463          	bne	a1,a2,8000a184 <i_9989>

000000008000a180 <i_9988>:
    8000a180:	41560e3b          	subw	t3,a2,s5

000000008000a184 <i_9989>:
    8000a184:	01e56c63          	bltu	a0,t5,8000a19c <i_9995>

000000008000a188 <i_9990>:
    8000a188:	10d14503          	lbu	a0,269(sp)

000000008000a18c <i_9991>:
    8000a18c:	0ca15503          	lhu	a0,202(sp)

000000008000a190 <i_9992>:
    8000a190:	f2c16c83          	lwu	s9,-212(sp)

000000008000a194 <i_9993>:
    8000a194:	00434233          	xor	tp,t1,tp

000000008000a198 <i_9994>:
    8000a198:	1c416683          	lwu	a3,452(sp)

000000008000a19c <i_9995>:
    8000a19c:	0f015983          	lhu	s3,240(sp)

000000008000a1a0 <i_9996>:
    8000a1a0:	13313423          	sd	s3,296(sp)

000000008000a1a4 <i_9997>:
    8000a1a4:	0359f233          	remu	tp,s3,s5

000000008000a1a8 <i_9998>:
    8000a1a8:	00000013          	nop

000000008000a1ac <i_9999>:
    8000a1ac:	00118193          	addi	gp,gp,1
    8000a1b0:	fc3672e3          	bleu	gp,a2,8000a174 <i_9985>

000000008000a1b4 <i_10000>:
    8000a1b4:	00000013          	nop

000000008000a1b8 <i_10001>:
    8000a1b8:	01e9ea63          	bltu	s3,t5,8000a1cc <i_10006>

000000008000a1bc <i_10002>:
    8000a1bc:	1d610983          	lb	s3,470(sp)

000000008000a1c0 <i_10003>:
    8000a1c0:	01e1cc63          	blt	gp,t5,8000a1d8 <i_10009>

000000008000a1c4 <i_10004>:
    8000a1c4:	0239d9b3          	divu	s3,s3,gp

000000008000a1c8 <i_10005>:
    8000a1c8:	ef012903          	lw	s2,-272(sp)

000000008000a1cc <i_10006>:
    8000a1cc:	01060833          	add	a6,a2,a6

000000008000a1d0 <i_10007>:
    8000a1d0:	013630b3          	sltu	ra,a2,s3

000000008000a1d4 <i_10008>:
    8000a1d4:	1bc15d83          	lhu	s11,444(sp)

000000008000a1d8 <i_10009>:
    8000a1d8:	0019b0b3          	sltu	ra,s3,ra

000000008000a1dc <i_10010>:
    8000a1dc:	00000013          	nop

000000008000a1e0 <i_10011>:
    8000a1e0:	8cd00193          	li	gp,-1843

000000008000a1e4 <i_10012>:
    8000a1e4:	8d200613          	li	a2,-1838

000000008000a1e8 <i_10013>:
    8000a1e8:	025de333          	rem	t1,s11,t0

000000008000a1ec <i_10014>:
    8000a1ec:	e3013283          	ld	t0,-464(sp)

000000008000a1f0 <i_10015>:
    8000a1f0:	0a513023          	sd	t0,160(sp)

000000008000a1f4 <i_10016>:
    8000a1f4:	44a35437          	lui	s0,0x44a35

000000008000a1f8 <i_10017>:
    8000a1f8:	00118193          	addi	gp,gp,1
    8000a1fc:	fec196e3          	bne	gp,a2,8000a1e8 <i_10013>

000000008000a200 <i_10018>:
    8000a200:	1c611d83          	lh	s11,454(sp)

000000008000a204 <i_10019>:
    8000a204:	eb415303          	lhu	t1,-332(sp)

000000008000a208 <i_10020>:
    8000a208:	75b00713          	li	a4,1883

000000008000a20c <i_10021>:
    8000a20c:	76100693          	li	a3,1889

000000008000a210 <i_10022>:
    8000a210:	03b75463          	ble	s11,a4,8000a238 <i_10032>

000000008000a214 <i_10023>:
    8000a214:	f2c12d83          	lw	s11,-212(sp)

000000008000a218 <i_10024>:
    8000a218:	e46109a3          	sb	t1,-429(sp)

000000008000a21c <i_10025>:
    8000a21c:	f8812483          	lw	s1,-120(sp)

000000008000a220 <i_10026>:
    8000a220:	02b00793          	li	a5,43

000000008000a224 <i_10027>:
    8000a224:	40fdde33          	sra	t3,s11,a5

000000008000a228 <i_10028>:
    8000a228:	00000013          	nop

000000008000a22c <i_10029>:
    8000a22c:	10416283          	lwu	t0,260(sp)

000000008000a230 <i_10030>:
    8000a230:	00d4c463          	blt	s1,a3,8000a238 <i_10032>

000000008000a234 <i_10031>:
    8000a234:	00931263          	bne	t1,s1,8000a238 <i_10032>

000000008000a238 <i_10032>:
    8000a238:	00500493          	li	s1,5

000000008000a23c <i_10033>:
    8000a23c:	4093563b          	sraw	a2,t1,s1

000000008000a240 <i_10034>:
    8000a240:	02c4e663          	bltu	s1,a2,8000a26c <i_10044>

000000008000a244 <i_10035>:
    8000a244:	0036149b          	slliw	s1,a2,0x3

000000008000a248 <i_10036>:
    8000a248:	1c610603          	lb	a2,454(sp)

000000008000a24c <i_10037>:
    8000a24c:	fec13423          	sd	a2,-24(sp)

000000008000a250 <i_10038>:
    8000a250:	00170713          	addi	a4,a4,1
    8000a254:	fad76ee3          	bltu	a4,a3,8000a210 <i_10022>

000000008000a258 <i_10039>:
    8000a258:	02c4c63b          	divw	a2,s1,a2

000000008000a25c <i_10040>:
    8000a25c:	00c4f863          	bleu	a2,s1,8000a26c <i_10044>

000000008000a260 <i_10041>:
    8000a260:	efc16603          	lwu	a2,-260(sp)

000000008000a264 <i_10042>:
    8000a264:	03c4de3b          	divuw	t3,s1,t3

000000008000a268 <i_10043>:
    8000a268:	00ee8c63          	beq	t4,a4,8000a280 <i_10049>

000000008000a26c <i_10044>:
    8000a26c:	ee913423          	sd	s1,-280(sp)

000000008000a270 <i_10045>:
    8000a270:	009e5a63          	ble	s1,t3,8000a284 <i_10050>

000000008000a274 <i_10046>:
    8000a274:	00ce4e33          	xor	t3,t3,a2

000000008000a278 <i_10047>:
    8000a278:	f4911523          	sh	s1,-182(sp)

000000008000a27c <i_10048>:
    8000a27c:	02c16483          	lwu	s1,44(sp)

000000008000a280 <i_10049>:
    8000a280:	ed410ca3          	sb	s4,-295(sp)

000000008000a284 <i_10050>:
    8000a284:	f8110d23          	sb	ra,-102(sp)

000000008000a288 <i_10051>:
    8000a288:	fca107a3          	sb	a0,-49(sp)

000000008000a28c <i_10052>:
    8000a28c:	0b011e03          	lh	t3,176(sp)

000000008000a290 <i_10053>:
    8000a290:	00000013          	nop

000000008000a294 <i_10054>:
    8000a294:	ea211783          	lh	a5,-350(sp)

000000008000a298 <i_10055>:
    8000a298:	7c000493          	li	s1,1984

000000008000a29c <i_10056>:
    8000a29c:	7c500093          	li	ra,1989

000000008000a2a0 <i_10057>:
    8000a2a0:	05b20e17          	auipc	t3,0x5b20

000000008000a2a4 <i_10058>:
    8000a2a4:	e2015e03          	lhu	t3,-480(sp)

000000008000a2a8 <i_10059>:
    8000a2a8:	04610403          	lb	s0,70(sp)

000000008000a2ac <i_10060>:
    8000a2ac:	1db10983          	lb	s3,475(sp)

000000008000a2b0 <i_10061>:
    8000a2b0:	2877c793          	xori	a5,a5,647

000000008000a2b4 <i_10062>:
    8000a2b4:	fc166e37          	lui	t3,0xfc166

000000008000a2b8 <i_10063>:
    8000a2b8:	e4813e03          	ld	t3,-440(sp)

000000008000a2bc <i_10064>:
    8000a2bc:	f3813783          	ld	a5,-200(sp)

000000008000a2c0 <i_10065>:
    8000a2c0:	0a210783          	lb	a5,162(sp)

000000008000a2c4 <i_10066>:
    8000a2c4:	1c815e03          	lhu	t3,456(sp)

000000008000a2c8 <i_10067>:
    8000a2c8:	033ea7b3          	mulhsu	a5,t4,s3

000000008000a2cc <i_10068>:
    8000a2cc:	03c9efbb          	remw	t6,s3,t3

000000008000a2d0 <i_10069>:
    8000a2d0:	ef815503          	lhu	a0,-264(sp)

000000008000a2d4 <i_10070>:
    8000a2d4:	c53fc993          	xori	s3,t6,-941

000000008000a2d8 <i_10071>:
    8000a2d8:	e9f11723          	sh	t6,-370(sp)

000000008000a2dc <i_10072>:
    8000a2dc:	0aa12823          	sw	a0,176(sp)

000000008000a2e0 <i_10073>:
    8000a2e0:	00148493          	addi	s1,s1,1 # 4dbde809 <main-0x324217f7>
    8000a2e4:	fa14cee3          	blt	s1,ra,8000a2a0 <i_10057>

000000008000a2e8 <i_10074>:
    8000a2e8:	e4813083          	ld	ra,-440(sp)

000000008000a2ec <i_10075>:
    8000a2ec:	15013c03          	ld	s8,336(sp)

000000008000a2f0 <i_10076>:
    8000a2f0:	013c6863          	bltu	s8,s3,8000a300 <i_10080>

000000008000a2f4 <i_10077>:
    8000a2f4:	01f9de63          	ble	t6,s3,8000a310 <i_10084>

000000008000a2f8 <i_10078>:
    8000a2f8:	01000093          	li	ra,16

000000008000a2fc <i_10079>:
    8000a2fc:	00151333          	sll	t1,a0,ra

000000008000a300 <i_10080>:
    8000a300:	02b00993          	li	s3,43

000000008000a304 <i_10081>:
    8000a304:	013c1833          	sll	a6,s8,s3

000000008000a308 <i_10082>:
    8000a308:	f0412c03          	lw	s8,-252(sp)

000000008000a30c <i_10083>:
    8000a30c:	01013303          	ld	t1,16(sp)

000000008000a310 <i_10084>:
    8000a310:	026c033b          	mulw	t1,s8,t1

000000008000a314 <i_10085>:
    8000a314:	00314c83          	lbu	s9,3(sp)

000000008000a318 <i_10086>:
    8000a318:	17013c23          	sd	a6,376(sp)

000000008000a31c <i_10087>:
    8000a31c:	09816a03          	lwu	s4,152(sp)

000000008000a320 <i_10088>:
    8000a320:	1bb10403          	lb	s0,443(sp)

000000008000a324 <i_10089>:
    8000a324:	01d85a63          	ble	t4,a6,8000a338 <i_10094>

000000008000a328 <i_10090>:
    8000a328:	02840cbb          	mulw	s9,s0,s0

000000008000a32c <i_10091>:
    8000a32c:	0bc16403          	lwu	s0,188(sp)

000000008000a330 <i_10092>:
    8000a330:	419484bb          	subw	s1,s1,s9

000000008000a334 <i_10093>:
    8000a334:	03913423          	sd	s9,40(sp)

000000008000a338 <i_10094>:
    8000a338:	00844e33          	xor	t3,s0,s0

000000008000a33c <i_10095>:
    8000a33c:	01d4f263          	bleu	t4,s1,8000a340 <i_10096>

000000008000a340 <i_10096>:
    8000a340:	15215a03          	lhu	s4,338(sp)

000000008000a344 <i_10097>:
    8000a344:	09013e03          	ld	t3,144(sp)

000000008000a348 <i_10098>:
    8000a348:	408c8cbb          	subw	s9,s9,s0

000000008000a34c <i_10099>:
    8000a34c:	02f00793          	li	a5,47

000000008000a350 <i_10100>:
    8000a350:	00fede33          	srl	t3,t4,a5

000000008000a354 <i_10101>:
    8000a354:	01c7f7b3          	and	a5,a5,t3

000000008000a358 <i_10102>:
    8000a358:	0ec12e83          	lw	t4,236(sp)

000000008000a35c <i_10103>:
    8000a35c:	01478863          	beq	a5,s4,8000a36c <i_10107>

000000008000a360 <i_10104>:
    8000a360:	00914d83          	lbu	s11,9(sp)

000000008000a364 <i_10105>:
    8000a364:	003e5f93          	srli	t6,t3,0x3

000000008000a368 <i_10106>:
    8000a368:	0c016283          	lwu	t0,192(sp)

000000008000a36c <i_10107>:
    8000a36c:	03479633          	mulh	a2,a5,s4

000000008000a370 <i_10108>:
    8000a370:	031fd263          	ble	a7,t6,8000a394 <i_10117>

000000008000a374 <i_10109>:
    8000a374:	001a5e1b          	srliw	t3,s4,0x1

000000008000a378 <i_10110>:
    8000a378:	0052fe63          	bleu	t0,t0,8000a394 <i_10117>

000000008000a37c <i_10111>:
    8000a37c:	02967333          	remu	t1,a2,s1

000000008000a380 <i_10112>:
    8000a380:	00000013          	nop

000000008000a384 <i_10113>:
    8000a384:	1c016e03          	lwu	t3,448(sp)

000000008000a388 <i_10114>:
    8000a388:	00000013          	nop

000000008000a38c <i_10115>:
    8000a38c:	00000013          	nop

000000008000a390 <i_10116>:
    8000a390:	00000013          	nop

000000008000a394 <i_10117>:
    8000a394:	01f00b93          	li	s7,31

000000008000a398 <i_10118>:
    8000a398:	01731c3b          	sllw	s8,t1,s7

000000008000a39c <i_10119>:
    8000a39c:	7da00293          	li	t0,2010

000000008000a3a0 <i_10120>:
    8000a3a0:	7e600613          	li	a2,2022

000000008000a3a4 <i_10121>:
    8000a3a4:	ef713c23          	sd	s7,-264(sp)

000000008000a3a8 <i_10122>:
    8000a3a8:	00128293          	addi	t0,t0,1
    8000a3ac:	fec2ece3          	bltu	t0,a2,8000a3a4 <i_10121>

000000008000a3b0 <i_10123>:
    8000a3b0:	f8411c03          	lh	s8,-124(sp)

000000008000a3b4 <i_10124>:
    8000a3b4:	4f8c6e13          	ori	t3,s8,1272

000000008000a3b8 <i_10125>:
    8000a3b8:	025650bb          	divuw	ra,a2,t0

000000008000a3bc <i_10126>:
    8000a3bc:	e8211b83          	lh	s7,-382(sp)

000000008000a3c0 <i_10127>:
    8000a3c0:	10811a03          	lh	s4,264(sp)

000000008000a3c4 <i_10128>:
    8000a3c4:	004c541b          	srliw	s0,s8,0x4

000000008000a3c8 <i_10129>:
    8000a3c8:	03cbd463          	ble	t3,s7,8000a3f0 <i_10139>

000000008000a3cc <i_10130>:
    8000a3cc:	02016083          	lwu	ra,32(sp)

000000008000a3d0 <i_10131>:
    8000a3d0:	12811b83          	lh	s7,296(sp)

000000008000a3d4 <i_10132>:
    8000a3d4:	e4414083          	lbu	ra,-444(sp)

000000008000a3d8 <i_10133>:
    8000a3d8:	f3614a03          	lbu	s4,-202(sp)

000000008000a3dc <i_10134>:
    8000a3dc:	01700093          	li	ra,23

000000008000a3e0 <i_10135>:
    8000a3e0:	001a1a3b          	sllw	s4,s4,ra

000000008000a3e4 <i_10136>:
    8000a3e4:	01242cb3          	slt	s9,s0,s2

000000008000a3e8 <i_10137>:
    8000a3e8:	e5714083          	lbu	ra,-425(sp)

000000008000a3ec <i_10138>:
    8000a3ec:	00000013          	nop

000000008000a3f0 <i_10139>:
    8000a3f0:	00700693          	li	a3,7

000000008000a3f4 <i_10140>:
    8000a3f4:	40d0da3b          	sraw	s4,ra,a3

000000008000a3f8 <i_10141>:
    8000a3f8:	78300893          	li	a7,1923

000000008000a3fc <i_10142>:
    8000a3fc:	79600b93          	li	s7,1942

000000008000a400 <i_10143>:
    8000a400:	00b08cb3          	add	s9,ra,a1

000000008000a404 <i_10144>:
    8000a404:	01e00a13          	li	s4,30

000000008000a408 <i_10145>:
    8000a408:	414cd533          	sra	a0,s9,s4

000000008000a40c <i_10146>:
    8000a40c:	89b00e13          	li	t3,-1893

000000008000a410 <i_10147>:
    8000a410:	8a200593          	li	a1,-1886

000000008000a414 <i_10148>:
    8000a414:	03950263          	beq	a0,s9,8000a438 <i_10155>

000000008000a418 <i_10149>:
    8000a418:	001e0e13          	addi	t3,t3,1 # fffffffffc166001 <_end+0xffffffff7c155bed>
    8000a41c:	ffc59ae3          	bne	a1,t3,8000a410 <i_10147>

000000008000a420 <i_10150>:
    8000a420:	0346e7b3          	rem	a5,a3,s4

000000008000a424 <i_10151>:
    8000a424:	00188893          	addi	a7,a7,1
    8000a428:	fd1bdce3          	ble	a7,s7,8000a400 <i_10143>

000000008000a42c <i_10152>:
    8000a42c:	78bdfe13          	andi	t3,s11,1931

000000008000a430 <i_10153>:
    8000a430:	f2013a03          	ld	s4,-224(sp)

000000008000a434 <i_10154>:
    8000a434:	034e7a3b          	remuw	s4,t3,s4

000000008000a438 <i_10155>:
    8000a438:	f6111c23          	sh	ra,-136(sp)

000000008000a43c <i_10156>:
    8000a43c:	1e814083          	lbu	ra,488(sp)

000000008000a440 <i_10157>:
    8000a440:	17413823          	sd	s4,368(sp)

000000008000a444 <i_10158>:
    8000a444:	7dc00a13          	li	s4,2012

000000008000a448 <i_10159>:
    8000a448:	7df00393          	li	t2,2015

000000008000a44c <i_10160>:
    8000a44c:	0a816083          	lwu	ra,168(sp)

000000008000a450 <i_10161>:
    8000a450:	01108263          	beq	ra,a7,8000a454 <i_10162>

000000008000a454 <i_10162>:
    8000a454:	4030d093          	srai	ra,ra,0x3

000000008000a458 <i_10163>:
    8000a458:	001f1463          	bne	t5,ra,8000a460 <i_10165>

000000008000a45c <i_10164>:
    8000a45c:	fe1106a3          	sb	ra,-19(sp)

000000008000a460 <i_10165>:
    8000a460:	00a0f463          	bleu	a0,ra,8000a468 <i_10167>

000000008000a464 <i_10166>:
    8000a464:	fc615983          	lhu	s3,-58(sp)

000000008000a468 <i_10167>:
    8000a468:	083afe97          	auipc	t4,0x83af

000000008000a46c <i_10168>:
    8000a46c:	f6e11703          	lh	a4,-146(sp)

000000008000a470 <i_10169>:
    8000a470:	01ac7d33          	and	s10,s8,s10

000000008000a474 <i_10170>:
    8000a474:	e8110623          	sb	ra,-372(sp)

000000008000a478 <i_10171>:
    8000a478:	fc110a23          	sb	ra,-44(sp)

000000008000a47c <i_10172>:
    8000a47c:	00e00093          	li	ra,14

000000008000a480 <i_10173>:
    8000a480:	0010d0bb          	srlw	ra,ra,ra

000000008000a484 <i_10174>:
    8000a484:	001a0a13          	addi	s4,s4,1
    8000a488:	fc7a12e3          	bne	s4,t2,8000a44c <i_10160>

000000008000a48c <i_10175>:
    8000a48c:	03a7653b          	remw	a0,a4,s10

000000008000a490 <i_10176>:
    8000a490:	02351063          	bne	a0,gp,8000a4b0 <i_10184>

000000008000a494 <i_10177>:
    8000a494:	0e710203          	lb	tp,231(sp)

000000008000a498 <i_10178>:
    8000a498:	f7610ea3          	sb	s6,-131(sp)

000000008000a49c <i_10179>:
    8000a49c:	00e50a63          	beq	a0,a4,8000a4b0 <i_10184>

000000008000a4a0 <i_10180>:
    8000a4a0:	e5015183          	lhu	gp,-432(sp)

000000008000a4a4 <i_10181>:
    8000a4a4:	00015603          	lhu	a2,0(sp)

000000008000a4a8 <i_10182>:
    8000a4a8:	00ad1263          	bne	s10,a0,8000a4ac <i_10183>

000000008000a4ac <i_10183>:
    8000a4ac:	f9210683          	lb	a3,-110(sp)

000000008000a4b0 <i_10184>:
    8000a4b0:	0bb10e23          	sb	s11,188(sp)

000000008000a4b4 <i_10185>:
    8000a4b4:	00000013          	nop

000000008000a4b8 <i_10186>:
    8000a4b8:	0036579b          	srliw	a5,a2,0x3

000000008000a4bc <i_10187>:
    8000a4bc:	7ab00093          	li	ra,1963

000000008000a4c0 <i_10188>:
    8000a4c0:	7bc00213          	li	tp,1980

000000008000a4c4 <i_10189>:
    8000a4c4:	e7013783          	ld	a5,-400(sp)

000000008000a4c8 <i_10190>:
    8000a4c8:	00426463          	bltu	tp,tp,8000a4d0 <i_10192>

000000008000a4cc <i_10191>:
    8000a4cc:	f4010783          	lb	a5,-192(sp)

000000008000a4d0 <i_10192>:
    8000a4d0:	02d7f633          	remu	a2,a5,a3

000000008000a4d4 <i_10193>:
    8000a4d4:	03e8df3b          	divuw	t5,a7,t5

000000008000a4d8 <i_10194>:
    8000a4d8:	02c68f3b          	mulw	t5,a3,a2

000000008000a4dc <i_10195>:
    8000a4dc:	02d6f063          	bleu	a3,a3,8000a4fc <i_10202>

000000008000a4e0 <i_10196>:
    8000a4e0:	00108093          	addi	ra,ra,1
    8000a4e4:	fe40e0e3          	bltu	ra,tp,8000a4c4 <i_10189>

000000008000a4e8 <i_10197>:
    8000a4e8:	04c11023          	sh	a2,64(sp)

000000008000a4ec <i_10198>:
    8000a4ec:	03e6663b          	remw	a2,a2,t5

000000008000a4f0 <i_10199>:
    8000a4f0:	e4c12603          	lw	a2,-436(sp)

000000008000a4f4 <i_10200>:
    8000a4f4:	19811503          	lh	a0,408(sp)

000000008000a4f8 <i_10201>:
    8000a4f8:	11a11c83          	lh	s9,282(sp)

000000008000a4fc <i_10202>:
    8000a4fc:	0047961b          	slliw	a2,a5,0x4

000000008000a500 <i_10203>:
    8000a500:	0e014203          	lbu	tp,224(sp)

000000008000a504 <i_10204>:
    8000a504:	f2412e23          	sw	tp,-196(sp)

000000008000a508 <i_10205>:
    8000a508:	03bde063          	bltu	s11,s11,8000a528 <i_10213>

000000008000a50c <i_10206>:
    8000a50c:	01d51463          	bne	a0,t4,8000a514 <i_10208>

000000008000a510 <i_10207>:
    8000a510:	031dd063          	ble	a7,s11,8000a530 <i_10215>

000000008000a514 <i_10208>:
    8000a514:	02a2453b          	divw	a0,tp,a0

000000008000a518 <i_10209>:
    8000a518:	002ddc93          	srli	s9,s11,0x2

000000008000a51c <i_10210>:
    8000a51c:	00000013          	nop

000000008000a520 <i_10211>:
    8000a520:	fcc10a03          	lb	s4,-52(sp)

000000008000a524 <i_10212>:
    8000a524:	ec610c83          	lb	s9,-314(sp)

000000008000a528 <i_10213>:
    8000a528:	00000013          	nop

000000008000a52c <i_10214>:
    8000a52c:	0ae14503          	lbu	a0,174(sp)

000000008000a530 <i_10215>:
    8000a530:	00000013          	nop

000000008000a534 <i_10216>:
    8000a534:	001c9c9b          	slliw	s9,s9,0x1

000000008000a538 <i_10217>:
    8000a538:	8c700d93          	li	s11,-1849

000000008000a53c <i_10218>:
    8000a53c:	8d900693          	li	a3,-1831

000000008000a540 <i_10219>:
    8000a540:	f3912623          	sw	s9,-212(sp)

000000008000a544 <i_10220>:
    8000a544:	001d8d93          	addi	s11,s11,1
    8000a548:	ffb6fce3          	bleu	s11,a3,8000a540 <i_10219>

000000008000a54c <i_10221>:
    8000a54c:	019c8eb3          	add	t4,s9,s9

000000008000a550 <i_10222>:
    8000a550:	08013c83          	ld	s9,128(sp)

000000008000a554 <i_10223>:
    8000a554:	f3410823          	sb	s4,-208(sp)

000000008000a558 <i_10224>:
    8000a558:	ff813c83          	ld	s9,-8(sp)

000000008000a55c <i_10225>:
    8000a55c:	01700893          	li	a7,23

000000008000a560 <i_10226>:
    8000a560:	011cd4bb          	srlw	s1,s9,a7

000000008000a564 <i_10227>:
    8000a564:	0e813e03          	ld	t3,232(sp)

000000008000a568 <i_10228>:
    8000a568:	005cf263          	bleu	t0,s9,8000a56c <i_10229>

000000008000a56c <i_10229>:
    8000a56c:	030cf7b3          	remu	a5,s9,a6

000000008000a570 <i_10230>:
    8000a570:	ea813503          	ld	a0,-344(sp)

000000008000a574 <i_10231>:
    8000a574:	11e11d83          	lh	s11,286(sp)

000000008000a578 <i_10232>:
    8000a578:	ed1109a3          	sb	a7,-301(sp)

000000008000a57c <i_10233>:
    8000a57c:	01d10483          	lb	s1,29(sp)

000000008000a580 <i_10234>:
    8000a580:	01300d93          	li	s11,19

000000008000a584 <i_10235>:
    8000a584:	01b51f3b          	sllw	t5,a0,s11

000000008000a588 <i_10236>:
    8000a588:	017f4463          	blt	t5,s7,8000a590 <i_10238>

000000008000a58c <i_10237>:
    8000a58c:	fdb12023          	sw	s11,-64(sp)

000000008000a590 <i_10238>:
    8000a590:	ecf14503          	lbu	a0,-305(sp)

000000008000a594 <i_10239>:
    8000a594:	41748bb3          	sub	s7,s1,s7

000000008000a598 <i_10240>:
    8000a598:	01736c63          	bltu	t1,s7,8000a5b0 <i_10246>

000000008000a59c <i_10241>:
    8000a59c:	6fcbe893          	ori	a7,s7,1788

000000008000a5a0 <i_10242>:
    8000a5a0:	ed811603          	lh	a2,-296(sp)

000000008000a5a4 <i_10243>:
    8000a5a4:	81567b93          	andi	s7,a2,-2027

000000008000a5a8 <i_10244>:
    8000a5a8:	02c55463          	ble	a2,a0,8000a5d0 <i_10254>

000000008000a5ac <i_10245>:
    8000a5ac:	02d64533          	div	a0,a2,a3

000000008000a5b0 <i_10246>:
    8000a5b0:	025be63b          	remw	a2,s7,t0

000000008000a5b4 <i_10247>:
    8000a5b4:	1a816883          	lwu	a7,424(sp)

000000008000a5b8 <i_10248>:
    8000a5b8:	0f712023          	sw	s7,224(sp)

000000008000a5bc <i_10249>:
    8000a5bc:	00c66633          	or	a2,a2,a2

000000008000a5c0 <i_10250>:
    8000a5c0:	033898b3          	mulh	a7,a7,s3

000000008000a5c4 <i_10251>:
    8000a5c4:	02f7f7bb          	remuw	a5,a5,a5

000000008000a5c8 <i_10252>:
    8000a5c8:	02c7a633          	mulhsu	a2,a5,a2

000000008000a5cc <i_10253>:
    8000a5cc:	00000013          	nop

000000008000a5d0 <i_10254>:
    8000a5d0:	00000013          	nop

000000008000a5d4 <i_10255>:
    8000a5d4:	fe68f413          	andi	s0,a7,-26

000000008000a5d8 <i_10256>:
    8000a5d8:	74900b93          	li	s7,1865

000000008000a5dc <i_10257>:
    8000a5dc:	75100513          	li	a0,1873

000000008000a5e0 <i_10258>:
    8000a5e0:	f3513c23          	sd	s5,-200(sp)

000000008000a5e4 <i_10259>:
    8000a5e4:	0ac13423          	sd	a2,168(sp)

000000008000a5e8 <i_10260>:
    8000a5e8:	00000013          	nop

000000008000a5ec <i_10261>:
    8000a5ec:	ecf13c23          	sd	a5,-296(sp)

000000008000a5f0 <i_10262>:
    8000a5f0:	13110123          	sb	a7,290(sp)

000000008000a5f4 <i_10263>:
    8000a5f4:	e6a15403          	lhu	s0,-406(sp)

000000008000a5f8 <i_10264>:
    8000a5f8:	001b8b93          	addi	s7,s7,1 # 3658f001 <main-0x49a70fff>
    8000a5fc:	feab92e3          	bne	s7,a0,8000a5e0 <i_10258>

000000008000a600 <i_10265>:
    8000a600:	031a9263          	bne	s5,a7,8000a624 <i_10274>

000000008000a604 <i_10266>:
    8000a604:	05011a03          	lh	s4,80(sp)

000000008000a608 <i_10267>:
    8000a608:	00faf5b3          	and	a1,s5,a5

000000008000a60c <i_10268>:
    8000a60c:	e6811d03          	lh	s10,-408(sp)

000000008000a610 <i_10269>:
    8000a610:	00000013          	nop

000000008000a614 <i_10270>:
    8000a614:	00000013          	nop

000000008000a618 <i_10271>:
    8000a618:	14f11623          	sh	a5,332(sp)

000000008000a61c <i_10272>:
    8000a61c:	6af66913          	ori	s2,a2,1711

000000008000a620 <i_10273>:
    8000a620:	01100793          	li	a5,17

000000008000a624 <i_10274>:
    8000a624:	00f8d4b3          	srl	s1,a7,a5

000000008000a628 <i_10275>:
    8000a628:	f8e11483          	lh	s1,-114(sp)

000000008000a62c <i_10276>:
    8000a62c:	87800893          	li	a7,-1928

000000008000a630 <i_10277>:
    8000a630:	87b00593          	li	a1,-1925

000000008000a634 <i_10278>:
    8000a634:	eb614603          	lbu	a2,-330(sp)

000000008000a638 <i_10279>:
    8000a638:	00000013          	nop

000000008000a63c <i_10280>:
    8000a63c:	02f6693b          	remw	s2,a2,a5

000000008000a640 <i_10281>:
    8000a640:	086109a3          	sb	t1,147(sp)

000000008000a644 <i_10282>:
    8000a644:	47167613          	andi	a2,a2,1137

000000008000a648 <i_10283>:
    8000a648:	0ac10523          	sb	a2,170(sp)

000000008000a64c <i_10284>:
    8000a64c:	00000013          	nop

000000008000a650 <i_10285>:
    8000a650:	03264263          	blt	a2,s2,8000a674 <i_10293>

000000008000a654 <i_10286>:
    8000a654:	03294263          	blt	s2,s2,8000a678 <i_10294>

000000008000a658 <i_10287>:
    8000a658:	00188893          	addi	a7,a7,1
    8000a65c:	fcb8cce3          	blt	a7,a1,8000a634 <i_10278>

000000008000a660 <i_10288>:
    8000a660:	02f94463          	blt	s2,a5,8000a688 <i_10298>

000000008000a664 <i_10289>:
    8000a664:	00200593          	li	a1,2

000000008000a668 <i_10290>:
    8000a668:	00bc543b          	srlw	s0,s8,a1

000000008000a66c <i_10291>:
    8000a66c:	14f10e23          	sb	a5,348(sp)

000000008000a670 <i_10292>:
    8000a670:	ef013903          	ld	s2,-272(sp)

000000008000a674 <i_10293>:
    8000a674:	01214933          	xor	s2,sp,s2

000000008000a678 <i_10294>:
    8000a678:	412782b3          	sub	t0,a5,s2

000000008000a67c <i_10295>:
    8000a67c:	0de11603          	lh	a2,222(sp)

000000008000a680 <i_10296>:
    8000a680:	eac10323          	sb	a2,-346(sp)

000000008000a684 <i_10297>:
    8000a684:	8ee67093          	andi	ra,a2,-1810

000000008000a688 <i_10298>:
    8000a688:	02c0cfbb          	divw	t6,ra,a2

000000008000a68c <i_10299>:
    8000a68c:	b0db0713          	addi	a4,s6,-1267 # e8f6eb11 <_end+0x68f5e6fd>

000000008000a690 <i_10300>:
    8000a690:	02816603          	lwu	a2,40(sp)

000000008000a694 <i_10301>:
    8000a694:	0d813603          	ld	a2,216(sp)

000000008000a698 <i_10302>:
    8000a698:	f3411783          	lh	a5,-204(sp)

000000008000a69c <i_10303>:
    8000a69c:	1ce10803          	lb	a6,462(sp)

000000008000a6a0 <i_10304>:
    8000a6a0:	89400713          	li	a4,-1900

000000008000a6a4 <i_10305>:
    8000a6a4:	8a400b13          	li	s6,-1884

000000008000a6a8 <i_10306>:
    8000a6a8:	00170713          	addi	a4,a4,1
    8000a6ac:	ff671ee3          	bne	a4,s6,8000a6a8 <i_10306>

000000008000a6b0 <i_10307>:
    8000a6b0:	00260633          	add	a2,a2,sp

000000008000a6b4 <i_10308>:
    8000a6b4:	c7845a97          	auipc	s5,0xc7845

000000008000a6b8 <i_10309>:
    8000a6b8:	015a8a63          	beq	s5,s5,8000a6cc <i_10314>

000000008000a6bc <i_10310>:
    8000a6bc:	07811883          	lh	a7,120(sp)

000000008000a6c0 <i_10311>:
    8000a6c0:	4977ad93          	slti	s11,a5,1175

000000008000a6c4 <i_10312>:
    8000a6c4:	02500593          	li	a1,37

000000008000a6c8 <i_10313>:
    8000a6c8:	00b855b3          	srl	a1,a6,a1

000000008000a6cc <i_10314>:
    8000a6cc:	02a7f533          	remu	a0,a5,a0

000000008000a6d0 <i_10315>:
    8000a6d0:	00000013          	nop

000000008000a6d4 <i_10316>:
    8000a6d4:	8c100a93          	li	s5,-1855

000000008000a6d8 <i_10317>:
    8000a6d8:	8c700793          	li	a5,-1849

000000008000a6dc <i_10318>:
    8000a6dc:	02a8a633          	mulhsu	a2,a7,a0

000000008000a6e0 <i_10319>:
    8000a6e0:	001a8a93          	addi	s5,s5,1 # 4784f6b5 <main-0x387b094b>
    8000a6e4:	fefaece3          	bltu	s5,a5,8000a6dc <i_10318>

000000008000a6e8 <i_10320>:
    8000a6e8:	f5d11c23          	sh	t4,-168(sp)

000000008000a6ec <i_10321>:
    8000a6ec:	e5810d83          	lb	s11,-424(sp)

000000008000a6f0 <i_10322>:
    8000a6f0:	015acc63          	blt	s5,s5,8000a708 <i_10328>

000000008000a6f4 <i_10323>:
    8000a6f4:	00fae463          	bltu	s5,a5,8000a6fc <i_10325>

000000008000a6f8 <i_10324>:
    8000a6f8:	1c811783          	lh	a5,456(sp)

000000008000a6fc <i_10325>:
    8000a6fc:	15811903          	lh	s2,344(sp)

000000008000a700 <i_10326>:
    8000a700:	03285b3b          	divuw	s6,a6,s2

000000008000a704 <i_10327>:
    8000a704:	ef812883          	lw	a7,-264(sp)

000000008000a708 <i_10328>:
    8000a708:	0357c7bb          	divw	a5,a5,s5

000000008000a70c <i_10329>:
    8000a70c:	01158863          	beq	a1,a7,8000a71c <i_10333>

000000008000a710 <i_10330>:
    8000a710:	40ab0b33          	sub	s6,s6,a0

000000008000a714 <i_10331>:
    8000a714:	05812083          	lw	ra,88(sp)

000000008000a718 <i_10332>:
    8000a718:	00800e93          	li	t4,8

000000008000a71c <i_10333>:
    8000a71c:	41db58bb          	sraw	a7,s6,t4

000000008000a720 <i_10334>:
    8000a720:	00e4f4b3          	and	s1,s1,a4

000000008000a724 <i_10335>:
    8000a724:	00149093          	slli	ra,s1,0x1

000000008000a728 <i_10336>:
    8000a728:	e5d14483          	lbu	s1,-419(sp)

000000008000a72c <i_10337>:
    8000a72c:	e6013b83          	ld	s7,-416(sp)

000000008000a730 <i_10338>:
    8000a730:	e3811a23          	sh	s8,-460(sp)

000000008000a734 <i_10339>:
    8000a734:	e7813e83          	ld	t4,-392(sp)

000000008000a738 <i_10340>:
    8000a738:	08013e83          	ld	t4,128(sp)

000000008000a73c <i_10341>:
    8000a73c:	02300893          	li	a7,35

000000008000a740 <i_10342>:
    8000a740:	011e9a33          	sll	s4,t4,a7

000000008000a744 <i_10343>:
    8000a744:	014bb333          	sltu	t1,s7,s4

000000008000a748 <i_10344>:
    8000a748:	00231393          	slli	t2,t1,0x2

000000008000a74c <i_10345>:
    8000a74c:	e6812783          	lw	a5,-408(sp)

000000008000a750 <i_10346>:
    8000a750:	02779bb3          	mulh	s7,a5,t2

000000008000a754 <i_10347>:
    8000a754:	00fef263          	bleu	a5,t4,8000a758 <i_10348>

000000008000a758 <i_10348>:
    8000a758:	006e8263          	beq	t4,t1,8000a75c <i_10349>

000000008000a75c <i_10349>:
    8000a75c:	03dc053b          	mulw	a0,s8,t4

000000008000a760 <i_10350>:
    8000a760:	03d00313          	li	t1,61

000000008000a764 <i_10351>:
    8000a764:	406edeb3          	sra	t4,t4,t1

000000008000a768 <i_10352>:
    8000a768:	86d00c13          	li	s8,-1939

000000008000a76c <i_10353>:
    8000a76c:	87800a13          	li	s4,-1928

000000008000a770 <i_10354>:
    8000a770:	01174c63          	blt	a4,a7,8000a788 <i_10360>

000000008000a774 <i_10355>:
    8000a774:	03da62b3          	rem	t0,s4,t4

000000008000a778 <i_10356>:
    8000a778:	00561463          	bne	a2,t0,8000a780 <i_10358>

000000008000a77c <i_10357>:
    8000a77c:	00fe8a63          	beq	t4,a5,8000a790 <i_10362>

000000008000a780 <i_10358>:
    8000a780:	037c51bb          	divuw	gp,s8,s7

000000008000a784 <i_10359>:
    8000a784:	00000013          	nop

000000008000a788 <i_10360>:
    8000a788:	f0816703          	lwu	a4,-248(sp)

000000008000a78c <i_10361>:
    8000a78c:	00000013          	nop

000000008000a790 <i_10362>:
    8000a790:	04813383          	ld	t2,72(sp)

000000008000a794 <i_10363>:
    8000a794:	e3412083          	lw	ra,-460(sp)

000000008000a798 <i_10364>:
    8000a798:	001f1093          	slli	ra,t5,0x1

000000008000a79c <i_10365>:
    8000a79c:	003a1e63          	bne	s4,gp,8000a7b8 <i_10371>

000000008000a7a0 <i_10366>:
    8000a7a0:	001c0c13          	addi	s8,s8,1 # 98e1b6e5 <_end+0x18e0b2d1>
    8000a7a4:	fd8a54e3          	ble	s8,s4,8000a76c <i_10353>

000000008000a7a8 <i_10367>:
    8000a7a8:	02012f03          	lw	t5,32(sp)

000000008000a7ac <i_10368>:
    8000a7ac:	a94e0693          	addi	a3,t3,-1388

000000008000a7b0 <i_10369>:
    8000a7b0:	19412683          	lw	a3,404(sp)

000000008000a7b4 <i_10370>:
    8000a7b4:	f3c12e83          	lw	t4,-196(sp)

000000008000a7b8 <i_10371>:
    8000a7b8:	01e6f463          	bleu	t5,a3,8000a7c0 <i_10373>

000000008000a7bc <i_10372>:
    8000a7bc:	004c5c13          	srli	s8,s8,0x4

000000008000a7c0 <i_10373>:
    8000a7c0:	fd816603          	lwu	a2,-40(sp)

000000008000a7c4 <i_10374>:
    8000a7c4:	02dc46b3          	div	a3,s8,a3

000000008000a7c8 <i_10375>:
    8000a7c8:	e693c393          	xori	t2,t2,-407

000000008000a7cc <i_10376>:
    8000a7cc:	00792933          	slt	s2,s2,t2

000000008000a7d0 <i_10377>:
    8000a7d0:	0b012983          	lw	s3,176(sp)

000000008000a7d4 <i_10378>:
    8000a7d4:	13615183          	lhu	gp,310(sp)

000000008000a7d8 <i_10379>:
    8000a7d8:	f6e10483          	lb	s1,-146(sp)

000000008000a7dc <i_10380>:
    8000a7dc:	87d00613          	li	a2,-1923

000000008000a7e0 <i_10381>:
    8000a7e0:	88300313          	li	t1,-1917

000000008000a7e4 <i_10382>:
    8000a7e4:	41b6023b          	subw	tp,a2,s11

000000008000a7e8 <i_10383>:
    8000a7e8:	00a00593          	li	a1,10

000000008000a7ec <i_10384>:
    8000a7ec:	00b1d1bb          	srlw	gp,gp,a1

000000008000a7f0 <i_10385>:
    8000a7f0:	08615903          	lhu	s2,134(sp)

000000008000a7f4 <i_10386>:
    8000a7f4:	00425a63          	ble	tp,tp,8000a808 <i_10391>

000000008000a7f8 <i_10387>:
    8000a7f8:	16914483          	lbu	s1,361(sp)

000000008000a7fc <i_10388>:
    8000a7fc:	cdd4f993          	andi	s3,s1,-803

000000008000a800 <i_10389>:
    8000a800:	14013283          	ld	t0,320(sp)

000000008000a804 <i_10390>:
    8000a804:	00b27463          	bleu	a1,tp,8000a80c <i_10392>

000000008000a808 <i_10391>:
    8000a808:	e5a15583          	lhu	a1,-422(sp)

000000008000a80c <i_10392>:
    8000a80c:	12211023          	sh	sp,288(sp)

000000008000a810 <i_10393>:
    8000a810:	12511823          	sh	t0,304(sp)

000000008000a814 <i_10394>:
    8000a814:	18310c03          	lb	s8,387(sp)

000000008000a818 <i_10395>:
    8000a818:	0b812623          	sw	s8,172(sp)

000000008000a81c <i_10396>:
    8000a81c:	17312023          	sw	s3,352(sp)

000000008000a820 <i_10397>:
    8000a820:	08415703          	lhu	a4,132(sp)

000000008000a824 <i_10398>:
    8000a824:	00160613          	addi	a2,a2,1
    8000a828:	fa664ee3          	blt	a2,t1,8000a7e4 <i_10382>

000000008000a82c <i_10399>:
    8000a82c:	00275c13          	srli	s8,a4,0x2

000000008000a830 <i_10400>:
    8000a830:	f193ec13          	ori	s8,t2,-231

000000008000a834 <i_10401>:
    8000a834:	00000013          	nop

000000008000a838 <i_10402>:
    8000a838:	87c00e93          	li	t4,-1924

000000008000a83c <i_10403>:
    8000a83c:	88800593          	li	a1,-1912

000000008000a840 <i_10404>:
    8000a840:	f8813c03          	ld	s8,-120(sp)

000000008000a844 <i_10405>:
    8000a844:	1c013383          	ld	t2,448(sp)

000000008000a848 <i_10406>:
    8000a848:	0273a3b3          	mulhsu	t2,t2,t2

000000008000a84c <i_10407>:
    8000a84c:	00b3d663          	ble	a1,t2,8000a858 <i_10410>

000000008000a850 <i_10408>:
    8000a850:	13412183          	lw	gp,308(sp)

000000008000a854 <i_10409>:
    8000a854:	00000013          	nop

000000008000a858 <i_10410>:
    8000a858:	01c5fc63          	bleu	t3,a1,8000a870 <i_10415>

000000008000a85c <i_10411>:
    8000a85c:	f4816183          	lwu	gp,-184(sp)

000000008000a860 <i_10412>:
    8000a860:	001e8e93          	addi	t4,t4,1 # 883b9469 <_end+0x83a9055>
    8000a864:	fdd59ee3          	bne	a1,t4,8000a840 <i_10404>

000000008000a868 <i_10413>:
    8000a868:	0238493b          	divw	s2,a6,gp

000000008000a86c <i_10414>:
    8000a86c:	f1e11183          	lh	gp,-226(sp)

000000008000a870 <i_10415>:
    8000a870:	00d00193          	li	gp,13

000000008000a874 <i_10416>:
    8000a874:	00319c33          	sll	s8,gp,gp

000000008000a878 <i_10417>:
    8000a878:	03beb1b3          	mulhu	gp,t4,s11

000000008000a87c <i_10418>:
    8000a87c:	eba10c03          	lb	s8,-326(sp)

000000008000a880 <i_10419>:
    8000a880:	00398663          	beq	s3,gp,8000a88c <i_10422>

000000008000a884 <i_10420>:
    8000a884:	e5811623          	sh	s8,-436(sp)

000000008000a888 <i_10421>:
    8000a888:	0039591b          	srliw	s2,s2,0x3

000000008000a88c <i_10422>:
    8000a88c:	01296e63          	bltu	s2,s2,8000a8a8 <i_10429>

000000008000a890 <i_10423>:
    8000a890:	fcd13823          	sd	a3,-48(sp)

000000008000a894 <i_10424>:
    8000a894:	11213423          	sd	s2,264(sp)

000000008000a898 <i_10425>:
    8000a898:	96190913          	addi	s2,s2,-1695 # 771a2a55 <main-0x8e5d5ab>

000000008000a89c <i_10426>:
    8000a89c:	03290263          	beq	s2,s2,8000a8c0 <i_10435>

000000008000a8a0 <i_10427>:
    8000a8a0:	16011903          	lh	s2,352(sp)

000000008000a8a4 <i_10428>:
    8000a8a4:	e5c12f03          	lw	t5,-420(sp)

000000008000a8a8 <i_10429>:
    8000a8a8:	01291263          	bne	s2,s2,8000a8ac <i_10430>

000000008000a8ac <i_10430>:
    8000a8ac:	15c16f03          	lwu	t5,348(sp)

000000008000a8b0 <i_10431>:
    8000a8b0:	01290a63          	beq	s2,s2,8000a8c4 <i_10436>

000000008000a8b4 <i_10432>:
    8000a8b4:	d5692f13          	slti	t5,s2,-682

000000008000a8b8 <i_10433>:
    8000a8b8:	31df6f93          	ori	t6,t5,797

000000008000a8bc <i_10434>:
    8000a8bc:	032ade3b          	divuw	t3,s5,s2

000000008000a8c0 <i_10435>:
    8000a8c0:	006e0663          	beq	t3,t1,8000a8cc <i_10438>

000000008000a8c4 <i_10436>:
    8000a8c4:	f6e11e03          	lh	t3,-146(sp)

000000008000a8c8 <i_10437>:
    8000a8c8:	edc16e03          	lwu	t3,-292(sp)

000000008000a8cc <i_10438>:
    8000a8cc:	1f311023          	sh	s3,480(sp)

000000008000a8d0 <i_10439>:
    8000a8d0:	00000013          	nop

000000008000a8d4 <i_10440>:
    8000a8d4:	8ab00313          	li	t1,-1877

000000008000a8d8 <i_10441>:
    8000a8d8:	8b100993          	li	s3,-1871

000000008000a8dc <i_10442>:
    8000a8dc:	03f98063          	beq	s3,t6,8000a8fc <i_10450>

000000008000a8e0 <i_10443>:
    8000a8e0:	00000013          	nop

000000008000a8e4 <i_10444>:
    8000a8e4:	01c99e63          	bne	s3,t3,8000a900 <i_10451>

000000008000a8e8 <i_10445>:
    8000a8e8:	09013483          	ld	s1,144(sp)

000000008000a8ec <i_10446>:
    8000a8ec:	1aa10e03          	lb	t3,426(sp)

000000008000a8f0 <i_10447>:
    8000a8f0:	0094e863          	bltu	s1,s1,8000a900 <i_10451>

000000008000a8f4 <i_10448>:
    8000a8f4:	03537b33          	remu	s6,t1,s5

000000008000a8f8 <i_10449>:
    8000a8f8:	c02e0413          	addi	s0,t3,-1022

000000008000a8fc <i_10450>:
    8000a8fc:	ec913023          	sd	s1,-320(sp)

000000008000a900 <i_10451>:
    8000a900:	0d314683          	lbu	a3,211(sp)

000000008000a904 <i_10452>:
    8000a904:	06d13023          	sd	a3,96(sp)

000000008000a908 <i_10453>:
    8000a908:	00130313          	addi	t1,t1,1 # 7b320001 <main-0x4cdffff>
    8000a90c:	fd3318e3          	bne	t1,s3,8000a8dc <i_10442>

000000008000a910 <i_10454>:
    8000a910:	e8813b03          	ld	s6,-376(sp)

000000008000a914 <i_10455>:
    8000a914:	36e47813          	andi	a6,s0,878

000000008000a918 <i_10456>:
    8000a918:	18815d03          	lhu	s10,392(sp)

000000008000a91c <i_10457>:
    8000a91c:	0cc16b03          	lwu	s6,204(sp)

000000008000a920 <i_10458>:
    8000a920:	e6514b03          	lbu	s6,-411(sp)

000000008000a924 <i_10459>:
    8000a924:	01686a63          	bltu	a6,s6,8000a938 <i_10464>

000000008000a928 <i_10460>:
    8000a928:	03ad0263          	beq	s10,s10,8000a94c <i_10469>

000000008000a92c <i_10461>:
    8000a92c:	004d1d13          	slli	s10,s10,0x4

000000008000a930 <i_10462>:
    8000a930:	01100513          	li	a0,17

000000008000a934 <i_10463>:
    8000a934:	00ab1a3b          	sllw	s4,s6,a0

000000008000a938 <i_10464>:
    8000a938:	01aa6c63          	bltu	s4,s10,8000a950 <i_10470>

000000008000a93c <i_10465>:
    8000a93c:	ff210d03          	lb	s10,-14(sp)

000000008000a940 <i_10466>:
    8000a940:	014d3d33          	sltu	s10,s10,s4

000000008000a944 <i_10467>:
    8000a944:	15813983          	ld	s3,344(sp)

000000008000a948 <i_10468>:
    8000a948:	01ad3d33          	sltu	s10,s10,s10

000000008000a94c <i_10469>:
    8000a94c:	014a08b3          	add	a7,s4,s4

000000008000a950 <i_10470>:
    8000a950:	01a98d33          	add	s10,s3,s10

000000008000a954 <i_10471>:
    8000a954:	07c12803          	lw	a6,124(sp)

000000008000a958 <i_10472>:
    8000a958:	e3a10a23          	sb	s10,-460(sp)

000000008000a95c <i_10473>:
    8000a95c:	01e00d13          	li	s10,30

000000008000a960 <i_10474>:
    8000a960:	41ad58bb          	sraw	a7,s10,s10

000000008000a964 <i_10475>:
    8000a964:	401d569b          	sraiw	a3,s10,0x1

000000008000a968 <i_10476>:
    8000a968:	03ad7d33          	remu	s10,s10,s10

000000008000a96c <i_10477>:
    8000a96c:	4423cc93          	xori	s9,t2,1090

000000008000a970 <i_10478>:
    8000a970:	e6113823          	sd	ra,-400(sp)

000000008000a974 <i_10479>:
    8000a974:	00d99c63          	bne	s3,a3,8000a98c <i_10485>

000000008000a978 <i_10480>:
    8000a978:	fba100a3          	sb	s10,-95(sp)

000000008000a97c <i_10481>:
    8000a97c:	01aad463          	ble	s10,s5,8000a984 <i_10483>

000000008000a980 <i_10482>:
    8000a980:	12b14583          	lbu	a1,299(sp)

000000008000a984 <i_10483>:
    8000a984:	16615c83          	lhu	s9,358(sp)

000000008000a988 <i_10484>:
    8000a988:	00ee4d33          	xor	s10,t3,a4

000000008000a98c <i_10485>:
    8000a98c:	0da11c23          	sh	s10,216(sp)

000000008000a990 <i_10486>:
    8000a990:	01a59a63          	bne	a1,s10,8000a9a4 <i_10491>

000000008000a994 <i_10487>:
    8000a994:	01300593          	li	a1,19

000000008000a998 <i_10488>:
    8000a998:	00b596bb          	sllw	a3,a1,a1

000000008000a99c <i_10489>:
    8000a99c:	06016583          	lwu	a1,96(sp)

000000008000a9a0 <i_10490>:
    8000a9a0:	02b59263          	bne	a1,a1,8000a9c4 <i_10499>

000000008000a9a4 <i_10491>:
    8000a9a4:	6cd58b9b          	addiw	s7,a1,1741

000000008000a9a8 <i_10492>:
    8000a9a8:	f2812f03          	lw	t5,-216(sp)

000000008000a9ac <i_10493>:
    8000a9ac:	14016b83          	lwu	s7,320(sp)

000000008000a9b0 <i_10494>:
    8000a9b0:	19712a23          	sw	s7,404(sp)

000000008000a9b4 <i_10495>:
    8000a9b4:	f2415a83          	lhu	s5,-220(sp)

000000008000a9b8 <i_10496>:
    8000a9b8:	0e010183          	lb	gp,224(sp)

000000008000a9bc <i_10497>:
    8000a9bc:	0e812983          	lw	s3,232(sp)

000000008000a9c0 <i_10498>:
    8000a9c0:	0c311223          	sh	gp,196(sp)

000000008000a9c4 <i_10499>:
    8000a9c4:	0a016383          	lwu	t2,160(sp)

000000008000a9c8 <i_10500>:
    8000a9c8:	f2312823          	sw	gp,-208(sp)

000000008000a9cc <i_10501>:
    8000a9cc:	4039da9b          	sraiw	s5,s3,0x3

000000008000a9d0 <i_10502>:
    8000a9d0:	0153de63          	ble	s5,t2,8000a9ec <i_10509>

000000008000a9d4 <i_10503>:
    8000a9d4:	16910383          	lb	t2,361(sp)

000000008000a9d8 <i_10504>:
    8000a9d8:	e9e14983          	lbu	s3,-354(sp)

000000008000a9dc <i_10505>:
    8000a9dc:	c5f9c993          	xori	s3,s3,-929

000000008000a9e0 <i_10506>:
    8000a9e0:	f8011383          	lh	t2,-128(sp)

000000008000a9e4 <i_10507>:
    8000a9e4:	013849b3          	xor	s3,a6,s3

000000008000a9e8 <i_10508>:
    8000a9e8:	07416903          	lwu	s2,116(sp)

000000008000a9ec <i_10509>:
    8000a9ec:	eb313c23          	sd	s3,-328(sp)

000000008000a9f0 <i_10510>:
    8000a9f0:	f0e11d83          	lh	s11,-242(sp)

000000008000a9f4 <i_10511>:
    8000a9f4:	0329debb          	divuw	t4,s3,s2

000000008000a9f8 <i_10512>:
    8000a9f8:	03391933          	mulh	s2,s2,s3

000000008000a9fc <i_10513>:
    8000a9fc:	03382eb3          	mulhsu	t4,a6,s3

000000008000aa00 <i_10514>:
    8000aa00:	8b500993          	li	s3,-1867

000000008000aa04 <i_10515>:
    8000aa04:	8c300813          	li	a6,-1853

000000008000aa08 <i_10516>:
    8000aa08:	012ee663          	bltu	t4,s2,8000aa14 <i_10519>

000000008000aa0c <i_10517>:
    8000aa0c:	01bc4663          	blt	s8,s11,8000aa18 <i_10520>

000000008000aa10 <i_10518>:
    8000aa10:	00195e93          	srli	t4,s2,0x1

000000008000aa14 <i_10519>:
    8000aa14:	00000013          	nop

000000008000aa18 <i_10520>:
    8000aa18:	03284663          	blt	a6,s2,8000aa44 <i_10530>

000000008000aa1c <i_10521>:
    8000aa1c:	00000013          	nop

000000008000aa20 <i_10522>:
    8000aa20:	0e610303          	lb	t1,230(sp)

000000008000aa24 <i_10523>:
    8000aa24:	00e00c93          	li	s9,14

000000008000aa28 <i_10524>:
    8000aa28:	419ddc33          	sra	s8,s11,s9

000000008000aa2c <i_10525>:
    8000aa2c:	16e15083          	lhu	ra,366(sp)

000000008000aa30 <i_10526>:
    8000aa30:	efe10903          	lb	s2,-258(sp)

000000008000aa34 <i_10527>:
    8000aa34:	00198993          	addi	s3,s3,1
    8000aa38:	fd09c8e3          	blt	s3,a6,8000aa08 <i_10516>

000000008000aa3c <i_10528>:
    8000aa3c:	e4713423          	sd	t2,-440(sp)

000000008000aa40 <i_10529>:
    8000aa40:	13810083          	lb	ra,312(sp)

000000008000aa44 <i_10530>:
    8000aa44:	ec112c23          	sw	ra,-296(sp)

000000008000aa48 <i_10531>:
    8000aa48:	0a097793          	andi	a5,s2,160

000000008000aa4c <i_10532>:
    8000aa4c:	33c7f393          	andi	t2,a5,828

000000008000aa50 <i_10533>:
    8000aa50:	0273d263          	ble	t2,t2,8000aa74 <i_10542>

000000008000aa54 <i_10534>:
    8000aa54:	01e15783          	lhu	a5,30(sp)

000000008000aa58 <i_10535>:
    8000aa58:	14111f23          	sh	ra,350(sp)

000000008000aa5c <i_10536>:
    8000aa5c:	06f14783          	lbu	a5,111(sp)

000000008000aa60 <i_10537>:
    8000aa60:	1b611083          	lh	ra,438(sp)

000000008000aa64 <i_10538>:
    8000aa64:	02f3d063          	ble	a5,t2,8000aa84 <i_10546>

000000008000aa68 <i_10539>:
    8000aa68:	035f4263          	blt	t5,s5,8000aa8c <i_10548>

000000008000aa6c <i_10540>:
    8000aa6c:	0a013383          	ld	t2,160(sp)

000000008000aa70 <i_10541>:
    8000aa70:	00f09e63          	bne	ra,a5,8000aa8c <i_10548>

000000008000aa74 <i_10542>:
    8000aa74:	0210d463          	ble	ra,ra,8000aa9c <i_10552>

000000008000aa78 <i_10543>:
    8000aa78:	40175b93          	srai	s7,a4,0x1

000000008000aa7c <i_10544>:
    8000aa7c:	01c00613          	li	a2,28

000000008000aa80 <i_10545>:
    8000aa80:	00c3933b          	sllw	t1,t2,a2

000000008000aa84 <i_10546>:
    8000aa84:	e6711f23          	sh	t2,-386(sp)

000000008000aa88 <i_10547>:
    8000aa88:	00167e63          	bleu	ra,a2,8000aaa4 <i_10554>

000000008000aa8c <i_10548>:
    8000aa8c:	017ace63          	blt	s5,s7,8000aaa8 <i_10555>

000000008000aa90 <i_10549>:
    8000aa90:	1a611723          	sh	t1,430(sp)

000000008000aa94 <i_10550>:
    8000aa94:	1cc12a23          	sw	a2,468(sp)

000000008000aa98 <i_10551>:
    8000aa98:	004b9e93          	slli	t4,s7,0x4

000000008000aa9c <i_10552>:
    8000aa9c:	e8713c23          	sd	t2,-360(sp)

000000008000aaa0 <i_10553>:
    8000aaa0:	01512423          	sw	s5,8(sp)

000000008000aaa4 <i_10554>:
    8000aaa4:	ea013903          	ld	s2,-352(sp)

000000008000aaa8 <i_10555>:
    8000aaa8:	f1611e83          	lh	t4,-234(sp)

000000008000aaac <i_10556>:
    8000aaac:	02c11903          	lh	s2,44(sp)

000000008000aab0 <i_10557>:
    8000aab0:	84e00f93          	li	t6,-1970

000000008000aab4 <i_10558>:
    8000aab4:	85600c93          	li	s9,-1962

000000008000aab8 <i_10559>:
    8000aab8:	001f8f93          	addi	t6,t6,1
    8000aabc:	ff9fcee3          	blt	t6,s9,8000aab8 <i_10559>

000000008000aac0 <i_10560>:
    8000aac0:	0370ebbb          	remw	s7,ra,s7

000000008000aac4 <i_10561>:
    8000aac4:	03414c03          	lbu	s8,52(sp)

000000008000aac8 <i_10562>:
    8000aac8:	002c5613          	srli	a2,s8,0x2

000000008000aacc <i_10563>:
    8000aacc:	89b00693          	li	a3,-1893

000000008000aad0 <i_10564>:
    8000aad0:	8a000413          	li	s0,-1888

000000008000aad4 <i_10565>:
    8000aad4:	02d67063          	bleu	a3,a2,8000aaf4 <i_10573>

000000008000aad8 <i_10566>:
    8000aad8:	f3510303          	lb	t1,-203(sp)

000000008000aadc <i_10567>:
    8000aadc:	1be11603          	lh	a2,446(sp)

000000008000aae0 <i_10568>:
    8000aae0:	07511423          	sh	s5,104(sp)

000000008000aae4 <i_10569>:
    8000aae4:	1b813a83          	ld	s5,440(sp)

000000008000aae8 <i_10570>:
    8000aae8:	00000013          	nop

000000008000aaec <i_10571>:
    8000aaec:	02961d33          	mulh	s10,a2,s1

000000008000aaf0 <i_10572>:
    8000aaf0:	03a28eb3          	mul	t4,t0,s10

000000008000aaf4 <i_10573>:
    8000aaf4:	e4414c03          	lbu	s8,-444(sp)

000000008000aaf8 <i_10574>:
    8000aaf8:	0df14a03          	lbu	s4,223(sp)

000000008000aafc <i_10575>:
    8000aafc:	00168693          	addi	a3,a3,1
    8000ab00:	fc86cae3          	blt	a3,s0,8000aad4 <i_10565>

000000008000ab04 <i_10576>:
    8000ab04:	1cf10a03          	lb	s4,463(sp)

000000008000ab08 <i_10577>:
    8000ab08:	e8015783          	lhu	a5,-384(sp)

000000008000ab0c <i_10578>:
    8000ab0c:	0f410023          	sb	s4,224(sp)

000000008000ab10 <i_10579>:
    8000ab10:	018a9863          	bne	s5,s8,8000ab20 <i_10583>

000000008000ab14 <i_10580>:
    8000ab14:	09114c03          	lbu	s8,145(sp)

000000008000ab18 <i_10581>:
    8000ab18:	01a64663          	blt	a2,s10,8000ab24 <i_10584>

000000008000ab1c <i_10582>:
    8000ab1c:	01dd9263          	bne	s11,t4,8000ab20 <i_10583>

000000008000ab20 <i_10583>:
    8000ab20:	05c11f83          	lh	t6,92(sp)

000000008000ab24 <i_10584>:
    8000ab24:	e3412d83          	lw	s11,-460(sp)

000000008000ab28 <i_10585>:
    8000ab28:	01befeb3          	and	t4,t4,s11

000000008000ab2c <i_10586>:
    8000ab2c:	03dfd063          	ble	t4,t6,8000ab4c <i_10594>

000000008000ab30 <i_10587>:
    8000ab30:	41fd8fb3          	sub	t6,s11,t6

000000008000ab34 <i_10588>:
    8000ab34:	03decebb          	divw	t4,t4,t4

000000008000ab38 <i_10589>:
    8000ab38:	001d9c13          	slli	s8,s11,0x1

000000008000ab3c <i_10590>:
    8000ab3c:	e9e12423          	sw	t5,-376(sp)

000000008000ab40 <i_10591>:
    8000ab40:	03ded463          	ble	t4,t4,8000ab68 <i_10601>

000000008000ab44 <i_10592>:
    8000ab44:	ef212623          	sw	s2,-276(sp)

000000008000ab48 <i_10593>:
    8000ab48:	03dcccbb          	divw	s9,s9,t4

000000008000ab4c <i_10594>:
    8000ab4c:	fbb10c03          	lb	s8,-69(sp)

000000008000ab50 <i_10595>:
    8000ab50:	08c16883          	lwu	a7,140(sp)

000000008000ab54 <i_10596>:
    8000ab54:	1dd11823          	sh	t4,464(sp)

000000008000ab58 <i_10597>:
    8000ab58:	03dc1c33          	mulh	s8,s8,t4

000000008000ab5c <i_10598>:
    8000ab5c:	4121be97          	auipc	t4,0x4121b

000000008000ab60 <i_10599>:
    8000ab60:	08c13823          	sd	a2,144(sp)

000000008000ab64 <i_10600>:
    8000ab64:	031e8ab3          	mul	s5,t4,a7

000000008000ab68 <i_10601>:
    8000ab68:	e8e13423          	sd	a4,-376(sp)

000000008000ab6c <i_10602>:
    8000ab6c:	003cdc93          	srli	s9,s9,0x3

000000008000ab70 <i_10603>:
    8000ab70:	015cca63          	blt	s9,s5,8000ab84 <i_10608>

000000008000ab74 <i_10604>:
    8000ab74:	03600c93          	li	s9,54

000000008000ab78 <i_10605>:
    8000ab78:	019cdf33          	srl	t5,s9,s9

000000008000ab7c <i_10606>:
    8000ab7c:	1c114a83          	lbu	s5,449(sp)

000000008000ab80 <i_10607>:
    8000ab80:	01ef00b3          	add	ra,t5,t5

000000008000ab84 <i_10608>:
    8000ab84:	750ddc97          	auipc	s9,0x750dd

000000008000ab88 <i_10609>:
    8000ab88:	0390e063          	bltu	ra,s9,8000aba8 <i_10617>

000000008000ab8c <i_10610>:
    8000ab8c:	001ce663          	bltu	s9,ra,8000ab98 <i_10613>

000000008000ab90 <i_10611>:
    8000ab90:	00bccb33          	xor	s6,s9,a1

000000008000ab94 <i_10612>:
    8000ab94:	f8c15c83          	lhu	s9,-116(sp)

000000008000ab98 <i_10613>:
    8000ab98:	01c7f263          	bleu	t3,a5,8000ab9c <i_10614>

000000008000ab9c <i_10614>:
    8000ab9c:	02c00b13          	li	s6,44

000000008000aba0 <i_10615>:
    8000aba0:	416e5e33          	sra	t3,t3,s6

000000008000aba4 <i_10616>:
    8000aba4:	f9310d03          	lb	s10,-109(sp)

000000008000aba8 <i_10617>:
    8000aba8:	1dc13c23          	sd	t3,472(sp)

000000008000abac <i_10618>:
    8000abac:	02011d03          	lh	s10,32(sp)

000000008000abb0 <i_10619>:
    8000abb0:	03816e03          	lwu	t3,56(sp)

000000008000abb4 <i_10620>:
    8000abb4:	1b314e03          	lbu	t3,435(sp)

000000008000abb8 <i_10621>:
    8000abb8:	82300413          	li	s0,-2013

000000008000abbc <i_10622>:
    8000abbc:	83600893          	li	a7,-1994

000000008000abc0 <i_10623>:
    8000abc0:	00140413          	addi	s0,s0,1 # 44a35001 <main-0x3b5cafff>
    8000abc4:	fe88dee3          	ble	s0,a7,8000abc0 <i_10623>

000000008000abc8 <i_10624>:
    8000abc8:	2a84041b          	addiw	s0,s0,680

000000008000abcc <i_10625>:
    8000abcc:	41f40fbb          	subw	t6,s0,t6

000000008000abd0 <i_10626>:
    8000abd0:	01f88a33          	add	s4,a7,t6

000000008000abd4 <i_10627>:
    8000abd4:	ef013a03          	ld	s4,-272(sp)

000000008000abd8 <i_10628>:
    8000abd8:	ca342813          	slti	a6,s0,-861

000000008000abdc <i_10629>:
    8000abdc:	03f55c33          	divu	s8,a0,t6

000000008000abe0 <i_10630>:
    8000abe0:	008fda63          	ble	s0,t6,8000abf4 <i_10635>

000000008000abe4 <i_10631>:
    8000abe4:	18015383          	lhu	t2,384(sp)

000000008000abe8 <i_10632>:
    8000abe8:	06016803          	lwu	a6,96(sp)

000000008000abec <i_10633>:
    8000abec:	1a412c83          	lw	s9,420(sp)

000000008000abf0 <i_10634>:
    8000abf0:	009806b3          	add	a3,a6,s1

000000008000abf4 <i_10635>:
    8000abf4:	05912623          	sw	s9,76(sp)

000000008000abf8 <i_10636>:
    8000abf8:	0f1a6d97          	auipc	s11,0xf1a6

000000008000abfc <i_10637>:
    8000abfc:	7a300193          	li	gp,1955

000000008000ac00 <i_10638>:
    8000ac00:	7af00393          	li	t2,1967

000000008000ac04 <i_10639>:
    8000ac04:	fd911f23          	sh	s9,-34(sp)

000000008000ac08 <i_10640>:
    8000ac08:	030d5463          	ble	a6,s10,8000ac30 <i_10649>

000000008000ac0c <i_10641>:
    8000ac0c:	513b2e13          	slti	t3,s6,1299

000000008000ac10 <i_10642>:
    8000ac10:	01d00e93          	li	t4,29

000000008000ac14 <i_10643>:
    8000ac14:	01d696b3          	sll	a3,a3,t4

000000008000ac18 <i_10644>:
    8000ac18:	00118193          	addi	gp,gp,1
    8000ac1c:	fe7194e3          	bne	gp,t2,8000ac04 <i_10639>

000000008000ac20 <i_10645>:
    8000ac20:	01012c03          	lw	s8,16(sp)

000000008000ac24 <i_10646>:
    8000ac24:	e5814883          	lbu	a7,-424(sp)

000000008000ac28 <i_10647>:
    8000ac28:	11014f03          	lbu	t5,272(sp)

000000008000ac2c <i_10648>:
    8000ac2c:	091104a3          	sb	a7,137(sp)

000000008000ac30 <i_10649>:
    8000ac30:	0f813c03          	ld	s8,248(sp)

000000008000ac34 <i_10650>:
    8000ac34:	03c00e93          	li	t4,60

000000008000ac38 <i_10651>:
    8000ac38:	01de14b3          	sll	s1,t3,t4

000000008000ac3c <i_10652>:
    8000ac3c:	1a912c23          	sw	s1,440(sp)

000000008000ac40 <i_10653>:
    8000ac40:	e4910723          	sb	s1,-434(sp)

000000008000ac44 <i_10654>:
    8000ac44:	01d12623          	sw	t4,12(sp)

000000008000ac48 <i_10655>:
    8000ac48:	3a8432b7          	lui	t0,0x3a843

000000008000ac4c <i_10656>:
    8000ac4c:	8ce00493          	li	s1,-1842

000000008000ac50 <i_10657>:
    8000ac50:	8d800e13          	li	t3,-1832

000000008000ac54 <i_10658>:
    8000ac54:	01c28463          	beq	t0,t3,8000ac5c <i_10660>

000000008000ac58 <i_10659>:
    8000ac58:	18415283          	lhu	t0,388(sp)

000000008000ac5c <i_10660>:
    8000ac5c:	00c00713          	li	a4,12

000000008000ac60 <i_10661>:
    8000ac60:	00e9d5bb          	srlw	a1,s3,a4

000000008000ac64 <i_10662>:
    8000ac64:	f3416503          	lwu	a0,-204(sp)

000000008000ac68 <i_10663>:
    8000ac68:	bcf54f93          	xori	t6,a0,-1073

000000008000ac6c <i_10664>:
    8000ac6c:	00b54263          	blt	a0,a1,8000ac70 <i_10665>

000000008000ac70 <i_10665>:
    8000ac70:	01f00f93          	li	t6,31

000000008000ac74 <i_10666>:
    8000ac74:	01f3dd33          	srl	s10,t2,t6

000000008000ac78 <i_10667>:
    8000ac78:	00148493          	addi	s1,s1,1
    8000ac7c:	fdc49ce3          	bne	s1,t3,8000ac54 <i_10658>

000000008000ac80 <i_10668>:
    8000ac80:	01800f93          	li	t6,24

000000008000ac84 <i_10669>:
    8000ac84:	01fd13bb          	sllw	t2,s10,t6

000000008000ac88 <i_10670>:
    8000ac88:	11011f83          	lh	t6,272(sp)

000000008000ac8c <i_10671>:
    8000ac8c:	7ad70e93          	addi	t4,a4,1965

000000008000ac90 <i_10672>:
    8000ac90:	00cf8863          	beq	t6,a2,8000aca0 <i_10676>

000000008000ac94 <i_10673>:
    8000ac94:	01fed863          	ble	t6,t4,8000aca4 <i_10677>

000000008000ac98 <i_10674>:
    8000ac98:	f4c14f83          	lbu	t6,-180(sp)

000000008000ac9c <i_10675>:
    8000ac9c:	fd310e83          	lb	t4,-45(sp)

000000008000aca0 <i_10676>:
    8000aca0:	03ffd263          	ble	t6,t6,8000acc4 <i_10685>

000000008000aca4 <i_10677>:
    8000aca4:	f8a11483          	lh	s1,-118(sp)

000000008000aca8 <i_10678>:
    8000aca8:	0bf11223          	sh	t6,164(sp)

000000008000acac <i_10679>:
    8000acac:	01700f93          	li	t6,23

000000008000acb0 <i_10680>:
    8000acb0:	01ffd33b          	srlw	t1,t6,t6

000000008000acb4 <i_10681>:
    8000acb4:	f8612023          	sw	t1,-128(sp)

000000008000acb8 <i_10682>:
    8000acb8:	00000013          	nop

000000008000acbc <i_10683>:
    8000acbc:	0215ae33          	mulhsu	t3,a1,ra

000000008000acc0 <i_10684>:
    8000acc0:	0a012883          	lw	a7,160(sp)

000000008000acc4 <i_10685>:
    8000acc4:	00000013          	nop

000000008000acc8 <i_10686>:
    8000acc8:	12816b03          	lwu	s6,296(sp)

000000008000accc <i_10687>:
    8000accc:	7b600593          	li	a1,1974

000000008000acd0 <i_10688>:
    8000acd0:	7ca00093          	li	ra,1994

000000008000acd4 <i_10689>:
    8000acd4:	0016f463          	bleu	ra,a3,8000acdc <i_10691>

000000008000acd8 <i_10690>:
    8000acd8:	1b612c23          	sw	s6,440(sp)

000000008000acdc <i_10691>:
    8000acdc:	00b8c863          	blt	a7,a1,8000acec <i_10695>

000000008000ace0 <i_10692>:
    8000ace0:	0066ca63          	blt	a3,t1,8000acf4 <i_10697>

000000008000ace4 <i_10693>:
    8000ace4:	0ac16803          	lwu	a6,172(sp)

000000008000ace8 <i_10694>:
    8000ace8:	ec816703          	lwu	a4,-312(sp)

000000008000acec <i_10695>:
    8000acec:	e7110123          	sb	a7,-414(sp)

000000008000acf0 <i_10696>:
    8000acf0:	00000013          	nop

000000008000acf4 <i_10697>:
    8000acf4:	0c414703          	lbu	a4,196(sp)

000000008000acf8 <i_10698>:
    8000acf8:	f5e15703          	lhu	a4,-162(sp)

000000008000acfc <i_10699>:
    8000acfc:	11e10b03          	lb	s6,286(sp)

000000008000ad00 <i_10700>:
    8000ad00:	00158593          	addi	a1,a1,1
    8000ad04:	fcb0f8e3          	bleu	a1,ra,8000acd4 <i_10689>

000000008000ad08 <i_10701>:
    8000ad08:	00900b93          	li	s7,9

000000008000ad0c <i_10702>:
    8000ad0c:	01775fbb          	srlw	t6,a4,s7

000000008000ad10 <i_10703>:
    8000ad10:	fce12623          	sw	a4,-52(sp)

000000008000ad14 <i_10704>:
    8000ad14:	01894863          	blt	s2,s8,8000ad24 <i_10708>

000000008000ad18 <i_10705>:
    8000ad18:	e4615c03          	lhu	s8,-442(sp)

000000008000ad1c <i_10706>:
    8000ad1c:	f9612e23          	sw	s6,-100(sp)

000000008000ad20 <i_10707>:
    8000ad20:	01681a63          	bne	a6,s6,8000ad34 <i_10712>

000000008000ad24 <i_10708>:
    8000ad24:	006d0e63          	beq	s10,t1,8000ad40 <i_10715>

000000008000ad28 <i_10709>:
    8000ad28:	011e0463          	beq	t3,a7,8000ad30 <i_10711>

000000008000ad2c <i_10710>:
    8000ad2c:	00000013          	nop

000000008000ad30 <i_10711>:
    8000ad30:	f4214e03          	lbu	t3,-190(sp)

000000008000ad34 <i_10712>:
    8000ad34:	01000913          	li	s2,16

000000008000ad38 <i_10713>:
    8000ad38:	412e5e3b          	sraw	t3,t3,s2

000000008000ad3c <i_10714>:
    8000ad3c:	f5015883          	lhu	a7,-176(sp)

000000008000ad40 <i_10715>:
    8000ad40:	f6811d23          	sh	s0,-134(sp)

000000008000ad44 <i_10716>:
    8000ad44:	00000013          	nop

000000008000ad48 <i_10717>:
    8000ad48:	8c400413          	li	s0,-1852

000000008000ad4c <i_10718>:
    8000ad4c:	8cb00d13          	li	s10,-1845

000000008000ad50 <i_10719>:
    8000ad50:	09c10a23          	sb	t3,148(sp)

000000008000ad54 <i_10720>:
    8000ad54:	03a8d063          	ble	s10,a7,8000ad74 <i_10727>

000000008000ad58 <i_10721>:
    8000ad58:	03197663          	bleu	a7,s2,8000ad84 <i_10731>

000000008000ad5c <i_10722>:
    8000ad5c:	00140413          	addi	s0,s0,1
    8000ad60:	ffa448e3          	blt	s0,s10,8000ad50 <i_10719>

000000008000ad64 <i_10723>:
    8000ad64:	0128a933          	slt	s2,a7,s2

000000008000ad68 <i_10724>:
    8000ad68:	14512823          	sw	t0,336(sp)

000000008000ad6c <i_10725>:
    8000ad6c:	0108c8b3          	xor	a7,a7,a6

000000008000ad70 <i_10726>:
    8000ad70:	03012883          	lw	a7,48(sp)

000000008000ad74 <i_10727>:
    8000ad74:	15110323          	sb	a7,326(sp)

000000008000ad78 <i_10728>:
    8000ad78:	fb1101a3          	sb	a7,-93(sp)

000000008000ad7c <i_10729>:
    8000ad7c:	e5213c23          	sd	s2,-424(sp)

000000008000ad80 <i_10730>:
    8000ad80:	10812203          	lw	tp,264(sp)

000000008000ad84 <i_10731>:
    8000ad84:	0058f263          	bleu	t0,a7,8000ad88 <i_10732>

000000008000ad88 <i_10732>:
    8000ad88:	03121933          	mulh	s2,tp,a7

000000008000ad8c <i_10733>:
    8000ad8c:	e9812c03          	lw	s8,-360(sp)

000000008000ad90 <i_10734>:
    8000ad90:	03289063          	bne	a7,s2,8000adb0 <i_10742>

000000008000ad94 <i_10735>:
    8000ad94:	04e10903          	lb	s2,78(sp)

000000008000ad98 <i_10736>:
    8000ad98:	1cf11b23          	sh	a5,470(sp)

000000008000ad9c <i_10737>:
    8000ad9c:	e2012603          	lw	a2,-480(sp)

000000008000ada0 <i_10738>:
    8000ada0:	23fc0813          	addi	a6,s8,575

000000008000ada4 <i_10739>:
    8000ada4:	01100f93          	li	t6,17

000000008000ada8 <i_10740>:
    8000ada8:	01f617b3          	sll	a5,a2,t6

000000008000adac <i_10741>:
    8000adac:	02013f83          	ld	t6,32(sp)

000000008000adb0 <i_10742>:
    8000adb0:	00000013          	nop

000000008000adb4 <i_10743>:
    8000adb4:	0e015903          	lhu	s2,224(sp)

000000008000adb8 <i_10744>:
    8000adb8:	7a600713          	li	a4,1958

000000008000adbc <i_10745>:
    8000adbc:	7ba00213          	li	tp,1978

000000008000adc0 <i_10746>:
    8000adc0:	e8e10da3          	sb	a4,-357(sp)

000000008000adc4 <i_10747>:
    8000adc4:	00000013          	nop

000000008000adc8 <i_10748>:
    8000adc8:	f1212423          	sw	s2,-248(sp)

000000008000adcc <i_10749>:
    8000adcc:	eba12423          	sw	s10,-344(sp)

000000008000add0 <i_10750>:
    8000add0:	00000013          	nop

000000008000add4 <i_10751>:
    8000add4:	00170713          	addi	a4,a4,1
    8000add8:	fe4744e3          	blt	a4,tp,8000adc0 <i_10746>

000000008000addc <i_10752>:
    8000addc:	06816e03          	lwu	t3,104(sp)

000000008000ade0 <i_10753>:
    8000ade0:	03cfee33          	rem	t3,t6,t3

000000008000ade4 <i_10754>:
    8000ade4:	82700613          	li	a2,-2009

000000008000ade8 <i_10755>:
    8000ade8:	83300f93          	li	t6,-1997

000000008000adec <i_10756>:
    8000adec:	02e70063          	beq	a4,a4,8000ae0c <i_10764>

000000008000adf0 <i_10757>:
    8000adf0:	01fe4c63          	blt	t3,t6,8000ae08 <i_10763>

000000008000adf4 <i_10758>:
    8000adf4:	1e410703          	lb	a4,484(sp)

000000008000adf8 <i_10759>:
    8000adf8:	e3415e03          	lhu	t3,-460(sp)

000000008000adfc <i_10760>:
    8000adfc:	f3c10023          	sb	t3,-224(sp)

000000008000ae00 <i_10761>:
    8000ae00:	00014f03          	lbu	t5,0(sp)

000000008000ae04 <i_10762>:
    8000ae04:	00000013          	nop

000000008000ae08 <i_10763>:
    8000ae08:	0e311e23          	sh	gp,252(sp)

000000008000ae0c <i_10764>:
    8000ae0c:	01ce4bb3          	xor	s7,t3,t3

000000008000ae10 <i_10765>:
    8000ae10:	e9013183          	ld	gp,-368(sp)

000000008000ae14 <i_10766>:
    8000ae14:	03013c83          	ld	s9,48(sp)

000000008000ae18 <i_10767>:
    8000ae18:	e9a15503          	lhu	a0,-358(sp)

000000008000ae1c <i_10768>:
    8000ae1c:	2ab57493          	andi	s1,a0,683

000000008000ae20 <i_10769>:
    8000ae20:	00900493          	li	s1,9

000000008000ae24 <i_10770>:
    8000ae24:	409bdbbb          	sraw	s7,s7,s1

000000008000ae28 <i_10771>:
    8000ae28:	00160613          	addi	a2,a2,1
    8000ae2c:	fdf640e3          	blt	a2,t6,8000adec <i_10756>

000000008000ae30 <i_10772>:
    8000ae30:	07a11483          	lh	s1,122(sp)

000000008000ae34 <i_10773>:
    8000ae34:	03800513          	li	a0,56

000000008000ae38 <i_10774>:
    8000ae38:	00a51533          	sll	a0,a0,a0

000000008000ae3c <i_10775>:
    8000ae3c:	73c00c93          	li	s9,1852

000000008000ae40 <i_10776>:
    8000ae40:	74a00493          	li	s1,1866

000000008000ae44 <i_10777>:
    8000ae44:	1e816503          	lwu	a0,488(sp)

000000008000ae48 <i_10778>:
    8000ae48:	00ace533          	or	a0,s9,a0

000000008000ae4c <i_10779>:
    8000ae4c:	0399e9b3          	rem	s3,s3,s9

000000008000ae50 <i_10780>:
    8000ae50:	2bb9be93          	sltiu	t4,s3,699

000000008000ae54 <i_10781>:
    8000ae54:	01cc9a63          	bne	s9,t3,8000ae68 <i_10786>

000000008000ae58 <i_10782>:
    8000ae58:	05c50d93          	addi	s11,a0,92

000000008000ae5c <i_10783>:
    8000ae5c:	03954d3b          	divw	s10,a0,s9

000000008000ae60 <i_10784>:
    8000ae60:	f3911c23          	sh	s9,-200(sp)

000000008000ae64 <i_10785>:
    8000ae64:	00000013          	nop

000000008000ae68 <i_10786>:
    8000ae68:	e6811e83          	lh	t4,-408(sp)

000000008000ae6c <i_10787>:
    8000ae6c:	fc111f23          	sh	ra,-34(sp)

000000008000ae70 <i_10788>:
    8000ae70:	ffd12423          	sw	t4,-24(sp)

000000008000ae74 <i_10789>:
    8000ae74:	07412083          	lw	ra,116(sp)

000000008000ae78 <i_10790>:
    8000ae78:	001c8c93          	addi	s9,s9,1 # f50e7b85 <_end+0x750d7771>
    8000ae7c:	fc9ce4e3          	bltu	s9,s1,8000ae44 <i_10777>

000000008000ae80 <i_10791>:
    8000ae80:	01b0cd33          	xor	s10,ra,s11

000000008000ae84 <i_10792>:
    8000ae84:	02c11903          	lh	s2,44(sp)

000000008000ae88 <i_10793>:
    8000ae88:	fc112a23          	sw	ra,-44(sp)

000000008000ae8c <i_10794>:
    8000ae8c:	7da00d93          	li	s11,2010

000000008000ae90 <i_10795>:
    8000ae90:	7e000093          	li	ra,2016

000000008000ae94 <i_10796>:
    8000ae94:	02195d3b          	divuw	s10,s2,ra

000000008000ae98 <i_10797>:
    8000ae98:	03a95063          	ble	s10,s2,8000aeb8 <i_10805>

000000008000ae9c <i_10798>:
    8000ae9c:	f4412883          	lw	a7,-188(sp)

000000008000aea0 <i_10799>:
    8000aea0:	09012703          	lw	a4,144(sp)

000000008000aea4 <i_10800>:
    8000aea4:	09012e83          	lw	t4,144(sp)

000000008000aea8 <i_10801>:
    8000aea8:	11b10423          	sb	s11,264(sp)

000000008000aeac <i_10802>:
    8000aeac:	f9011703          	lh	a4,-112(sp)

000000008000aeb0 <i_10803>:
    8000aeb0:	03b74333          	div	t1,a4,s11

000000008000aeb4 <i_10804>:
    8000aeb4:	02b74fbb          	divw	t6,a4,a1

000000008000aeb8 <i_10805>:
    8000aeb8:	01fe7733          	and	a4,t3,t6

000000008000aebc <i_10806>:
    8000aebc:	00000013          	nop

000000008000aec0 <i_10807>:
    8000aec0:	001d8d93          	addi	s11,s11,1 # 8f1b0bf9 <_end+0xf1a07e5>
    8000aec4:	fdb0f8e3          	bleu	s11,ra,8000ae94 <i_10796>

000000008000aec8 <i_10808>:
    8000aec8:	00171c93          	slli	s9,a4,0x1

000000008000aecc <i_10809>:
    8000aecc:	f5f12a23          	sw	t6,-172(sp)

000000008000aed0 <i_10810>:
    8000aed0:	019cec63          	bltu	s9,s9,8000aee8 <i_10816>

000000008000aed4 <i_10811>:
    8000aed4:	01ff9463          	bne	t6,t6,8000aedc <i_10813>

000000008000aed8 <i_10812>:
    8000aed8:	ffc14503          	lbu	a0,-4(sp)

000000008000aedc <i_10813>:
    8000aedc:	19413c23          	sd	s4,408(sp)

000000008000aee0 <i_10814>:
    8000aee0:	e2012f83          	lw	t6,-480(sp)

000000008000aee4 <i_10815>:
    8000aee4:	00afce63          	blt	t6,a0,8000af00 <i_10822>

000000008000aee8 <i_10816>:
    8000aee8:	10013603          	ld	a2,256(sp)

000000008000aeec <i_10817>:
    8000aeec:	0f016983          	lwu	s3,240(sp)

000000008000aef0 <i_10818>:
    8000aef0:	0027561b          	srliw	a2,a4,0x2

000000008000aef4 <i_10819>:
    8000aef4:	f2813603          	ld	a2,-216(sp)

000000008000aef8 <i_10820>:
    8000aef8:	10e10623          	sb	a4,268(sp)

000000008000aefc <i_10821>:
    8000aefc:	eca12a23          	sw	a0,-300(sp)

000000008000af00 <i_10822>:
    8000af00:	01974e63          	blt	a4,s9,8000af1c <i_10829>

000000008000af04 <i_10823>:
    8000af04:	1bf11623          	sh	t6,428(sp)

000000008000af08 <i_10824>:
    8000af08:	05c15503          	lhu	a0,92(sp)

000000008000af0c <i_10825>:
    8000af0c:	fc615083          	lhu	ra,-58(sp)

000000008000af10 <i_10826>:
    8000af10:	00355b13          	srli	s6,a0,0x3

000000008000af14 <i_10827>:
    8000af14:	0017a7b3          	slt	a5,a5,ra

000000008000af18 <i_10828>:
    8000af18:	03f00513          	li	a0,63

000000008000af1c <i_10829>:
    8000af1c:	40a0d0b3          	sra	ra,ra,a0

000000008000af20 <i_10830>:
    8000af20:	00900093          	li	ra,9

000000008000af24 <i_10831>:
    8000af24:	401250b3          	sra	ra,tp,ra

000000008000af28 <i_10832>:
    8000af28:	7e200393          	li	t2,2018

000000008000af2c <i_10833>:
    8000af2c:	7ee00213          	li	tp,2030

000000008000af30 <i_10834>:
    8000af30:	00a50433          	add	s0,a0,a0

000000008000af34 <i_10835>:
    8000af34:	02f91463          	bne	s2,a5,8000af5c <i_10844>

000000008000af38 <i_10836>:
    8000af38:	13012503          	lw	a0,304(sp)

000000008000af3c <i_10837>:
    8000af3c:	028460bb          	remw	ra,s0,s0

000000008000af40 <i_10838>:
    8000af40:	06068c93          	addi	s9,a3,96

000000008000af44 <i_10839>:
    8000af44:	00000013          	nop

000000008000af48 <i_10840>:
    8000af48:	02a65663          	ble	a0,a2,8000af74 <i_10850>

000000008000af4c <i_10841>:
    8000af4c:	00138393          	addi	t2,t2,1
    8000af50:	fc725ee3          	ble	t2,tp,8000af2c <i_10833>

000000008000af54 <i_10842>:
    8000af54:	eea12623          	sw	a0,-276(sp)

000000008000af58 <i_10843>:
    8000af58:	becce993          	ori	s3,s9,-1044

000000008000af5c <i_10844>:
    8000af5c:	f9813383          	ld	t2,-104(sp)

000000008000af60 <i_10845>:
    8000af60:	fd9104a3          	sb	s9,-55(sp)

000000008000af64 <i_10846>:
    8000af64:	11312023          	sw	s3,256(sp)

000000008000af68 <i_10847>:
    8000af68:	e7811c83          	lh	s9,-392(sp)

000000008000af6c <i_10848>:
    8000af6c:	1a711823          	sh	t2,432(sp)

000000008000af70 <i_10849>:
    8000af70:	09312823          	sw	s3,144(sp)

000000008000af74 <i_10850>:
    8000af74:	f7911823          	sh	s9,-144(sp)

000000008000af78 <i_10851>:
    8000af78:	0133fc63          	bleu	s3,t2,8000af90 <i_10857>

000000008000af7c <i_10852>:
    8000af7c:	01339863          	bne	t2,s3,8000af8c <i_10856>

000000008000af80 <i_10853>:
    8000af80:	00100593          	li	a1,1

000000008000af84 <i_10854>:
    8000af84:	00b612bb          	sllw	t0,a2,a1

000000008000af88 <i_10855>:
    8000af88:	7d33c413          	xori	s0,t2,2003

000000008000af8c <i_10856>:
    8000af8c:	57d44613          	xori	a2,s0,1405

000000008000af90 <i_10857>:
    8000af90:	03ab9c33          	mulh	s8,s7,s10

000000008000af94 <i_10858>:
    8000af94:	62cbbb93          	sltiu	s7,s7,1580

000000008000af98 <i_10859>:
    8000af98:	02ea673b          	remw	a4,s4,a4

000000008000af9c <i_10860>:
    8000af9c:	01400c13          	li	s8,20

000000008000afa0 <i_10861>:
    8000afa0:	41875c33          	sra	s8,a4,s8

000000008000afa4 <i_10862>:
    8000afa4:	01200713          	li	a4,18

000000008000afa8 <i_10863>:
    8000afa8:	00ec19b3          	sll	s3,s8,a4

000000008000afac <i_10864>:
    8000afac:	ea614883          	lbu	a7,-346(sp)

000000008000afb0 <i_10865>:
    8000afb0:	f4e10023          	sb	a4,-192(sp)

000000008000afb4 <i_10866>:
    8000afb4:	82b00093          	li	ra,-2005

000000008000afb8 <i_10867>:
    8000afb8:	83a00793          	li	a5,-1990

000000008000afbc <i_10868>:
    8000afbc:	0360cab3          	div	s5,ra,s6

000000008000afc0 <i_10869>:
    8000afc0:	01ead863          	ble	t5,s5,8000afd0 <i_10873>

000000008000afc4 <i_10870>:
    8000afc4:	415709b3          	sub	s3,a4,s5

000000008000afc8 <i_10871>:
    8000afc8:	f0816b83          	lwu	s7,-248(sp)

000000008000afcc <i_10872>:
    8000afcc:	021728b3          	mulhsu	a7,a4,ra

000000008000afd0 <i_10873>:
    8000afd0:	01811583          	lh	a1,24(sp)

000000008000afd4 <i_10874>:
    8000afd4:	19611703          	lh	a4,406(sp)

000000008000afd8 <i_10875>:
    8000afd8:	00b13c23          	sd	a1,24(sp)

000000008000afdc <i_10876>:
    8000afdc:	02e89463          	bne	a7,a4,8000b004 <i_10885>

000000008000afe0 <i_10877>:
    8000afe0:	00000013          	nop

000000008000afe4 <i_10878>:
    8000afe4:	02476463          	bltu	a4,tp,8000b00c <i_10887>

000000008000afe8 <i_10879>:
    8000afe8:	00000013          	nop

000000008000afec <i_10880>:
    8000afec:	00108093          	addi	ra,ra,1
    8000aff0:	fc17d6e3          	ble	ra,a5,8000afbc <i_10868>

000000008000aff4 <i_10881>:
    8000aff4:	16412703          	lw	a4,356(sp)

000000008000aff8 <i_10882>:
    8000aff8:	08c12203          	lw	tp,140(sp)

000000008000affc <i_10883>:
    8000affc:	00b75463          	ble	a1,a4,8000b004 <i_10885>

000000008000b000 <i_10884>:
    8000b000:	03b7723b          	remuw	tp,a4,s11

000000008000b004 <i_10885>:
    8000b004:	02d00713          	li	a4,45

000000008000b008 <i_10886>:
    8000b008:	40e5d633          	sra	a2,a1,a4

000000008000b00c <i_10887>:
    8000b00c:	02477c3b          	remuw	s8,a4,tp

000000008000b010 <i_10888>:
    8000b010:	04415a03          	lhu	s4,68(sp)

000000008000b014 <i_10889>:
    8000b014:	01110703          	lb	a4,17(sp)

000000008000b018 <i_10890>:
    8000b018:	07c12603          	lw	a2,124(sp)

000000008000b01c <i_10891>:
    8000b01c:	00a00613          	li	a2,10

000000008000b020 <i_10892>:
    8000b020:	40c6563b          	sraw	a2,a2,a2

000000008000b024 <i_10893>:
    8000b024:	f6811083          	lh	ra,-152(sp)

000000008000b028 <i_10894>:
    8000b028:	03c0d1b3          	divu	gp,ra,t3

000000008000b02c <i_10895>:
    8000b02c:	14113823          	sd	ra,336(sp)

000000008000b030 <i_10896>:
    8000b030:	02c1cdb3          	div	s11,gp,a2

000000008000b034 <i_10897>:
    8000b034:	f0812083          	lw	ra,-248(sp)

000000008000b038 <i_10898>:
    8000b038:	09310903          	lb	s2,147(sp)

000000008000b03c <i_10899>:
    8000b03c:	07e18d13          	addi	s10,gp,126

000000008000b040 <i_10900>:
    8000b040:	dc2d2613          	slti	a2,s10,-574

000000008000b044 <i_10901>:
    8000b044:	00c95863          	ble	a2,s2,8000b054 <i_10905>

000000008000b048 <i_10902>:
    8000b048:	01013883          	ld	a7,16(sp)

000000008000b04c <i_10903>:
    8000b04c:	06016383          	lwu	t2,96(sp)

000000008000b050 <i_10904>:
    8000b050:	1b615883          	lhu	a7,438(sp)

000000008000b054 <i_10905>:
    8000b054:	f3416903          	lwu	s2,-204(sp)

000000008000b058 <i_10906>:
    8000b058:	0328c6bb          	divw	a3,a7,s2

000000008000b05c <i_10907>:
    8000b05c:	f3c16183          	lwu	gp,-196(sp)

000000008000b060 <i_10908>:
    8000b060:	0e313823          	sd	gp,240(sp)

000000008000b064 <i_10909>:
    8000b064:	11113423          	sd	a7,264(sp)

000000008000b068 <i_10910>:
    8000b068:	00f90c33          	add	s8,s2,a5

000000008000b06c <i_10911>:
    8000b06c:	00797e63          	bleu	t2,s2,8000b088 <i_10918>

000000008000b070 <i_10912>:
    8000b070:	027c0263          	beq	s8,t2,8000b094 <i_10921>

000000008000b074 <i_10913>:
    8000b074:	0f812c03          	lw	s8,248(sp)

000000008000b078 <i_10914>:
    8000b078:	01814403          	lbu	s0,24(sp)

000000008000b07c <i_10915>:
    8000b07c:	7dc1c193          	xori	gp,gp,2012

000000008000b080 <i_10916>:
    8000b080:	05016383          	lwu	t2,80(sp)

000000008000b084 <i_10917>:
    8000b084:	16312c23          	sw	gp,376(sp)

000000008000b088 <i_10918>:
    8000b088:	0023ee63          	bltu	t2,sp,8000b0a4 <i_10925>

000000008000b08c <i_10919>:
    8000b08c:	0013d393          	srli	t2,t2,0x1

000000008000b090 <i_10920>:
    8000b090:	027383bb          	mulw	t2,t2,t2

000000008000b094 <i_10921>:
    8000b094:	19812b03          	lw	s6,408(sp)

000000008000b098 <i_10922>:
    8000b098:	00709c63          	bne	ra,t2,8000b0b0 <i_10928>

000000008000b09c <i_10923>:
    8000b09c:	e8812083          	lw	ra,-376(sp)

000000008000b0a0 <i_10924>:
    8000b0a0:	04f10903          	lb	s2,79(sp)

000000008000b0a4 <i_10925>:
    8000b0a4:	fe813683          	ld	a3,-24(sp)

000000008000b0a8 <i_10926>:
    8000b0a8:	ed811f23          	sh	s8,-290(sp)

000000008000b0ac <i_10927>:
    8000b0ac:	eec11d03          	lh	s10,-276(sp)

000000008000b0b0 <i_10928>:
    8000b0b0:	f5612e23          	sw	s6,-164(sp)

000000008000b0b4 <i_10929>:
    8000b0b4:	030976bb          	remuw	a3,s2,a6

000000008000b0b8 <i_10930>:
    8000b0b8:	e5416383          	lwu	t2,-428(sp)

000000008000b0bc <i_10931>:
    8000b0bc:	01a3e463          	bltu	t2,s10,8000b0c4 <i_10933>

000000008000b0c0 <i_10932>:
    8000b0c0:	f0c12683          	lw	a3,-244(sp)

000000008000b0c4 <i_10933>:
    8000b0c4:	f6013c03          	ld	s8,-160(sp)

000000008000b0c8 <i_10934>:
    8000b0c8:	04089637          	lui	a2,0x4089

000000008000b0cc <i_10935>:
    8000b0cc:	85f00393          	li	t2,-1953

000000008000b0d0 <i_10936>:
    8000b0d0:	86600d13          	li	s10,-1946

000000008000b0d4 <i_10937>:
    8000b0d4:	0e011683          	lh	a3,224(sp)

000000008000b0d8 <i_10938>:
    8000b0d8:	e8c12983          	lw	s3,-372(sp)

000000008000b0dc <i_10939>:
    8000b0dc:	ec013783          	ld	a5,-320(sp)

000000008000b0e0 <i_10940>:
    8000b0e0:	03a95633          	divu	a2,s2,s10

000000008000b0e4 <i_10941>:
    8000b0e4:	002c5613          	srli	a2,s8,0x2

000000008000b0e8 <i_10942>:
    8000b0e8:	12d10783          	lb	a5,301(sp)

000000008000b0ec <i_10943>:
    8000b0ec:	00138393          	addi	t2,t2,1
    8000b0f0:	ffa3c2e3          	blt	t2,s10,8000b0d4 <i_10937>

000000008000b0f4 <i_10944>:
    8000b0f4:	10e11e03          	lh	t3,270(sp)

000000008000b0f8 <i_10945>:
    8000b0f8:	fe013703          	ld	a4,-32(sp)

000000008000b0fc <i_10946>:
    8000b0fc:	0307a833          	mulhsu	a6,a5,a6

000000008000b100 <i_10947>:
    8000b100:	18712423          	sw	t2,392(sp)

000000008000b104 <i_10948>:
    8000b104:	02c7c3b3          	div	t2,a5,a2

000000008000b108 <i_10949>:
    8000b108:	e3414883          	lbu	a7,-460(sp)

000000008000b10c <i_10950>:
    8000b10c:	e3914783          	lbu	a5,-455(sp)

000000008000b110 <i_10951>:
    8000b110:	e8416383          	lwu	t2,-380(sp)

000000008000b114 <i_10952>:
    8000b114:	f8711223          	sh	t2,-124(sp)

000000008000b118 <i_10953>:
    8000b118:	4026db1b          	sraiw	s6,a3,0x2

000000008000b11c <i_10954>:
    8000b11c:	ea811923          	sh	s0,-334(sp)

000000008000b120 <i_10955>:
    8000b120:	181103a3          	sb	ra,391(sp)

000000008000b124 <i_10956>:
    8000b124:	86700413          	li	s0,-1945

000000008000b128 <i_10957>:
    8000b128:	87600393          	li	t2,-1930

000000008000b12c <i_10958>:
    8000b12c:	0243d23b          	divuw	tp,t2,tp

000000008000b130 <i_10959>:
    8000b130:	09611f83          	lh	t6,150(sp)

000000008000b134 <i_10960>:
    8000b134:	8c000f13          	li	t5,-1856

000000008000b138 <i_10961>:
    8000b138:	8c600b13          	li	s6,-1850

000000008000b13c <i_10962>:
    8000b13c:	001f0f13          	addi	t5,t5,1
    8000b140:	ffeb5ee3          	ble	t5,s6,8000b13c <i_10962>

000000008000b144 <i_10963>:
    8000b144:	e3415783          	lhu	a5,-460(sp)

000000008000b148 <i_10964>:
    8000b148:	00000013          	nop

000000008000b14c <i_10965>:
    8000b14c:	77f00613          	li	a2,1919

000000008000b150 <i_10966>:
    8000b150:	78c00a13          	li	s4,1932

000000008000b154 <i_10967>:
    8000b154:	e7c13c23          	sd	t3,-392(sp)

000000008000b158 <i_10968>:
    8000b158:	ecf13823          	sd	a5,-304(sp)

000000008000b15c <i_10969>:
    8000b15c:	00000013          	nop

000000008000b160 <i_10970>:
    8000b160:	02f78663          	beq	a5,a5,8000b18c <i_10979>

000000008000b164 <i_10971>:
    8000b164:	00160613          	addi	a2,a2,1 # 4089001 <main-0x7bf76fff>
    8000b168:	ff4666e3          	bltu	a2,s4,8000b154 <i_10967>

000000008000b16c <i_10972>:
    8000b16c:	02fe7463          	bleu	a5,t3,8000b194 <i_10981>

000000008000b170 <i_10973>:
    8000b170:	0237d2bb          	divuw	t0,a5,gp

000000008000b174 <i_10974>:
    8000b174:	00140413          	addi	s0,s0,1
    8000b178:	fa83dae3          	ble	s0,t2,8000b12c <i_10958>

000000008000b17c <i_10975>:
    8000b17c:	11b10403          	lb	s0,283(sp)

000000008000b180 <i_10976>:
    8000b180:	00576e63          	bltu	a4,t0,8000b19c <i_10983>

000000008000b184 <i_10977>:
    8000b184:	008e4663          	blt	t3,s0,8000b190 <i_10980>

000000008000b188 <i_10978>:
    8000b188:	1a012783          	lw	a5,416(sp)

000000008000b18c <i_10979>:
    8000b18c:	028452b3          	divu	t0,s0,s0

000000008000b190 <i_10980>:
    8000b190:	01986663          	bltu	a6,s9,8000b19c <i_10983>

000000008000b194 <i_10981>:
    8000b194:	02511323          	sh	t0,38(sp)

000000008000b198 <i_10982>:
    8000b198:	16510123          	sb	t0,354(sp)

000000008000b19c <i_10983>:
    8000b19c:	0052ee63          	bltu	t0,t0,8000b1b8 <i_10990>

000000008000b1a0 <i_10984>:
    8000b1a0:	0059f663          	bleu	t0,s3,8000b1ac <i_10987>

000000008000b1a4 <i_10985>:
    8000b1a4:	2f7c2293          	slti	t0,s8,759

000000008000b1a8 <i_10986>:
    8000b1a8:	03746533          	rem	a0,s0,s7

000000008000b1ac <i_10987>:
    8000b1ac:	01500313          	li	t1,21

000000008000b1b0 <i_10988>:
    8000b1b0:	0062953b          	sllw	a0,t0,t1

000000008000b1b4 <i_10989>:
    8000b1b4:	eb910503          	lb	a0,-327(sp)

000000008000b1b8 <i_10990>:
    8000b1b8:	f8a109a3          	sb	a0,-109(sp)

000000008000b1bc <i_10991>:
    8000b1bc:	fca13423          	sd	a0,-56(sp)

000000008000b1c0 <i_10992>:
    8000b1c0:	75200313          	li	t1,1874

000000008000b1c4 <i_10993>:
    8000b1c4:	75800893          	li	a7,1880

000000008000b1c8 <i_10994>:
    8000b1c8:	0045569b          	srliw	a3,a0,0x4

000000008000b1cc <i_10995>:
    8000b1cc:	00000013          	nop

000000008000b1d0 <i_10996>:
    8000b1d0:	00441a93          	slli	s5,s0,0x4

000000008000b1d4 <i_10997>:
    8000b1d4:	00500a93          	li	s5,5

000000008000b1d8 <i_10998>:
    8000b1d8:	015b5b3b          	srlw	s6,s6,s5

000000008000b1dc <i_10999>:
    8000b1dc:	04815d03          	lhu	s10,72(sp)

000000008000b1e0 <i_11000>:
    8000b1e0:	00514f03          	lbu	t5,5(sp)

000000008000b1e4 <i_11001>:
    8000b1e4:	03016283          	lwu	t0,48(sp)

000000008000b1e8 <i_11002>:
    8000b1e8:	03af5663          	ble	s10,t5,8000b214 <i_11012>

000000008000b1ec <i_11003>:
    8000b1ec:	00130313          	addi	t1,t1,1
    8000b1f0:	fd131ce3          	bne	t1,a7,8000b1c8 <i_10994>

000000008000b1f4 <i_11004>:
    8000b1f4:	eba10523          	sb	s10,-342(sp)

000000008000b1f8 <i_11005>:
    8000b1f8:	15811c03          	lh	s8,344(sp)

000000008000b1fc <i_11006>:
    8000b1fc:	e3b10f03          	lb	t5,-453(sp)

000000008000b200 <i_11007>:
    8000b200:	1b813203          	ld	tp,440(sp)

000000008000b204 <i_11008>:
    8000b204:	0a015d03          	lhu	s10,160(sp)

000000008000b208 <i_11009>:
    8000b208:	018c6263          	bltu	s8,s8,8000b20c <i_11010>

000000008000b20c <i_11010>:
    8000b20c:	00847433          	and	s0,s0,s0

000000008000b210 <i_11011>:
    8000b210:	01f00413          	li	s0,31

000000008000b214 <i_11012>:
    8000b214:	008c1b3b          	sllw	s6,s8,s0

000000008000b218 <i_11013>:
    8000b218:	0e813b03          	ld	s6,232(sp)

000000008000b21c <i_11014>:
    8000b21c:	008b4a63          	blt	s6,s0,8000b230 <i_11019>

000000008000b220 <i_11015>:
    8000b220:	02847063          	bleu	s0,s0,8000b240 <i_11023>

000000008000b224 <i_11016>:
    8000b224:	048105a3          	sb	s0,75(sp)

000000008000b228 <i_11017>:
    8000b228:	1ba104a3          	sb	s10,425(sp)

000000008000b22c <i_11018>:
    8000b22c:	fb612023          	sw	s6,-96(sp)

000000008000b230 <i_11019>:
    8000b230:	fa7104a3          	sb	t2,-87(sp)

000000008000b234 <i_11020>:
    8000b234:	fec15683          	lhu	a3,-20(sp)

000000008000b238 <i_11021>:
    8000b238:	07613c23          	sd	s6,120(sp)

000000008000b23c <i_11022>:
    8000b23c:	036bbbb3          	mulhu	s7,s7,s6

000000008000b240 <i_11023>:
    8000b240:	12811923          	sh	s0,306(sp)

000000008000b244 <i_11024>:
    8000b244:	0a8105a3          	sb	s0,171(sp)

000000008000b248 <i_11025>:
    8000b248:	8d100613          	li	a2,-1839

000000008000b24c <i_11026>:
    8000b24c:	8d900913          	li	s2,-1831

000000008000b250 <i_11027>:
    8000b250:	00160613          	addi	a2,a2,1
    8000b254:	ff264ee3          	blt	a2,s2,8000b250 <i_11027>

000000008000b258 <i_11028>:
    8000b258:	04810023          	sb	s0,64(sp)

000000008000b25c <i_11029>:
    8000b25c:	00c88f33          	add	t5,a7,a2

000000008000b260 <i_11030>:
    8000b260:	8cc00893          	li	a7,-1844

000000008000b264 <i_11031>:
    8000b264:	8d500413          	li	s0,-1835

000000008000b268 <i_11032>:
    8000b268:	00000013          	nop

000000008000b26c <i_11033>:
    8000b26c:	008f04b3          	add	s1,t5,s0

000000008000b270 <i_11034>:
    8000b270:	0374d0bb          	divuw	ra,s1,s7

000000008000b274 <i_11035>:
    8000b274:	043104a3          	sb	gp,73(sp)

000000008000b278 <i_11036>:
    8000b278:	10e15903          	lhu	s2,270(sp)

000000008000b27c <i_11037>:
    8000b27c:	00188893          	addi	a7,a7,1
    8000b280:	fe8894e3          	bne	a7,s0,8000b268 <i_11032>

000000008000b284 <i_11038>:
    8000b284:	0f816703          	lwu	a4,248(sp)

000000008000b288 <i_11039>:
    8000b288:	e6e11203          	lh	tp,-402(sp)

000000008000b28c <i_11040>:
    8000b28c:	03e4bd33          	mulhu	s10,s1,t5

000000008000b290 <i_11041>:
    8000b290:	00494a63          	blt	s2,tp,8000b2a4 <i_11046>

000000008000b294 <i_11042>:
    8000b294:	00000013          	nop

000000008000b298 <i_11043>:
    8000b298:	11013403          	ld	s0,272(sp)

000000008000b29c <i_11044>:
    8000b29c:	01a57933          	and	s2,a0,s10

000000008000b2a0 <i_11045>:
    8000b2a0:	00000013          	nop

000000008000b2a4 <i_11046>:
    8000b2a4:	f1416303          	lwu	t1,-236(sp)

000000008000b2a8 <i_11047>:
    8000b2a8:	41c40cb3          	sub	s9,s0,t3

000000008000b2ac <i_11048>:
    8000b2ac:	84c00513          	li	a0,-1972

000000008000b2b0 <i_11049>:
    8000b2b0:	85c00493          	li	s1,-1956

000000008000b2b4 <i_11050>:
    8000b2b4:	00000013          	nop

000000008000b2b8 <i_11051>:
    8000b2b8:	3f033413          	sltiu	s0,t1,1008

000000008000b2bc <i_11052>:
    8000b2bc:	02842e33          	mulhsu	t3,s0,s0

000000008000b2c0 <i_11053>:
    8000b2c0:	09911323          	sh	s9,134(sp)

000000008000b2c4 <i_11054>:
    8000b2c4:	13813303          	ld	t1,312(sp)

000000008000b2c8 <i_11055>:
    8000b2c8:	f5813403          	ld	s0,-168(sp)

000000008000b2cc <i_11056>:
    8000b2cc:	02836663          	bltu	t1,s0,8000b2f8 <i_11066>

000000008000b2d0 <i_11057>:
    8000b2d0:	00150513          	addi	a0,a0,1
    8000b2d4:	fe9540e3          	blt	a0,s1,8000b2b4 <i_11050>

000000008000b2d8 <i_11058>:
    8000b2d8:	028e7463          	bleu	s0,t3,8000b300 <i_11068>

000000008000b2dc <i_11059>:
    8000b2dc:	01c40263          	beq	s0,t3,8000b2e0 <i_11060>

000000008000b2e0 <i_11060>:
    8000b2e0:	edc14a03          	lbu	s4,-292(sp)

000000008000b2e4 <i_11061>:
    8000b2e4:	01ca0663          	beq	s4,t3,8000b2f0 <i_11064>

000000008000b2e8 <i_11062>:
    8000b2e8:	0bc10123          	sb	t3,162(sp)

000000008000b2ec <i_11063>:
    8000b2ec:	00000013          	nop

000000008000b2f0 <i_11064>:
    8000b2f0:	0344b3b3          	mulhu	t2,s1,s4

000000008000b2f4 <i_11065>:
    8000b2f4:	00000013          	nop

000000008000b2f8 <i_11066>:
    8000b2f8:	00000013          	nop

000000008000b2fc <i_11067>:
    8000b2fc:	0c811303          	lh	t1,200(sp)

000000008000b300 <i_11068>:
    8000b300:	0353a233          	mulhsu	tp,t2,s5

000000008000b304 <i_11069>:
    8000b304:	00000013          	nop

000000008000b308 <i_11070>:
    8000b308:	77900413          	li	s0,1913

000000008000b30c <i_11071>:
    8000b30c:	77d00513          	li	a0,1917

000000008000b310 <i_11072>:
    8000b310:	17014383          	lbu	t2,368(sp)

000000008000b314 <i_11073>:
    8000b314:	ec611523          	sh	t1,-310(sp)

000000008000b318 <i_11074>:
    8000b318:	88600313          	li	t1,-1914

000000008000b31c <i_11075>:
    8000b31c:	89100a93          	li	s5,-1903

000000008000b320 <i_11076>:
    8000b320:	00130313          	addi	t1,t1,1
    8000b324:	fe6adee3          	ble	t1,s5,8000b320 <i_11076>

000000008000b328 <i_11077>:
    8000b328:	0a613023          	sd	t1,160(sp)

000000008000b32c <i_11078>:
    8000b32c:	0f114303          	lbu	t1,241(sp)

000000008000b330 <i_11079>:
    8000b330:	fdc12383          	lw	t2,-36(sp)

000000008000b334 <i_11080>:
    8000b334:	0c712e23          	sw	t2,220(sp)

000000008000b338 <i_11081>:
    8000b338:	006383b3          	add	t2,t2,t1

000000008000b33c <i_11082>:
    8000b33c:	0041cc63          	blt	gp,tp,8000b354 <i_11087>

000000008000b340 <i_11083>:
    8000b340:	00140413          	addi	s0,s0,1
    8000b344:	fca446e3          	blt	s0,a0,8000b310 <i_11072>

000000008000b348 <i_11084>:
    8000b348:	0264d3bb          	divuw	t2,s1,t1

000000008000b34c <i_11085>:
    8000b34c:	006c0333          	add	t1,s8,t1

000000008000b350 <i_11086>:
    8000b350:	bd9686b7          	lui	a3,0xbd968

000000008000b354 <i_11087>:
    8000b354:	02600b13          	li	s6,38

000000008000b358 <i_11088>:
    8000b358:	016fdfb3          	srl	t6,t6,s6

000000008000b35c <i_11089>:
    8000b35c:	04613c23          	sd	t1,88(sp)

000000008000b360 <i_11090>:
    8000b360:	1bc12b03          	lw	s6,444(sp)

000000008000b364 <i_11091>:
    8000b364:	e7811583          	lh	a1,-392(sp)

000000008000b368 <i_11092>:
    8000b368:	fe611b23          	sh	t1,-10(sp)

000000008000b36c <i_11093>:
    8000b36c:	00620863          	beq	tp,t1,8000b37c <i_11097>

000000008000b370 <i_11094>:
    8000b370:	1ce101a3          	sb	a4,451(sp)

000000008000b374 <i_11095>:
    8000b374:	fb016303          	lwu	t1,-80(sp)

000000008000b378 <i_11096>:
    8000b378:	00c00a93          	li	s5,12

000000008000b37c <i_11097>:
    8000b37c:	015adabb          	srlw	s5,s5,s5

000000008000b380 <i_11098>:
    8000b380:	07512823          	sw	s5,112(sp)

000000008000b384 <i_11099>:
    8000b384:	035a9ab3          	mulh	s5,s5,s5

000000008000b388 <i_11100>:
    8000b388:	006e3ab3          	sltu	s5,t3,t1

000000008000b38c <i_11101>:
    8000b38c:	0e215303          	lhu	t1,226(sp)

000000008000b390 <i_11102>:
    8000b390:	ed013303          	ld	t1,-304(sp)

000000008000b394 <i_11103>:
    8000b394:	006ad463          	ble	t1,s5,8000b39c <i_11105>

000000008000b398 <i_11104>:
    8000b398:	3a234e13          	xori	t3,t1,930

000000008000b39c <i_11105>:
    8000b39c:	f6612c23          	sw	t1,-136(sp)

000000008000b3a0 <i_11106>:
    8000b3a0:	028e6333          	rem	t1,t3,s0

000000008000b3a4 <i_11107>:
    8000b3a4:	01cc9863          	bne	s9,t3,8000b3b4 <i_11111>

000000008000b3a8 <i_11108>:
    8000b3a8:	cbe36a93          	ori	s5,t1,-834

000000008000b3ac <i_11109>:
    8000b3ac:	f3b10c83          	lb	s9,-197(sp)

000000008000b3b0 <i_11110>:
    8000b3b0:	40335613          	srai	a2,t1,0x3

000000008000b3b4 <i_11111>:
    8000b3b4:	0f913423          	sd	s9,232(sp)

000000008000b3b8 <i_11112>:
    8000b3b8:	00000013          	nop

000000008000b3bc <i_11113>:
    8000b3bc:	7c800793          	li	a5,1992

000000008000b3c0 <i_11114>:
    8000b3c0:	7d200e93          	li	t4,2002

000000008000b3c4 <i_11115>:
    8000b3c4:	14c11523          	sh	a2,330(sp)

000000008000b3c8 <i_11116>:
    8000b3c8:	00178793          	addi	a5,a5,1 # ffffffffb79c9001 <_end+0xffffffff379b8bed>
    8000b3cc:	fefefce3          	bleu	a5,t4,8000b3c4 <i_11115>

000000008000b3d0 <i_11117>:
    8000b3d0:	e7815503          	lhu	a0,-392(sp)

000000008000b3d4 <i_11118>:
    8000b3d4:	05f14303          	lbu	t1,95(sp)

000000008000b3d8 <i_11119>:
    8000b3d8:	4038df9b          	sraiw	t6,a7,0x3

000000008000b3dc <i_11120>:
    8000b3dc:	e4e10123          	sb	a4,-446(sp)

000000008000b3e0 <i_11121>:
    8000b3e0:	1bc10983          	lb	s3,444(sp)

000000008000b3e4 <i_11122>:
    8000b3e4:	fb310fa3          	sb	s3,-65(sp)

000000008000b3e8 <i_11123>:
    8000b3e8:	fd613823          	sd	s6,-48(sp)

000000008000b3ec <i_11124>:
    8000b3ec:	01ce6e63          	bltu	t3,t3,8000b408 <i_11131>

000000008000b3f0 <i_11125>:
    8000b3f0:	033e4e3b          	divw	t3,t3,s3

000000008000b3f4 <i_11126>:
    8000b3f4:	01391863          	bne	s2,s3,8000b404 <i_11130>

000000008000b3f8 <i_11127>:
    8000b3f8:	01399e63          	bne	s3,s3,8000b414 <i_11134>

000000008000b3fc <i_11128>:
    8000b3fc:	03cd8e3b          	mulw	t3,s11,t3

000000008000b400 <i_11129>:
    8000b400:	f5611603          	lh	a2,-170(sp)

000000008000b404 <i_11130>:
    8000b404:	3d0e0613          	addi	a2,t3,976

000000008000b408 <i_11131>:
    8000b408:	03ce3e33          	mulhu	t3,t3,t3

000000008000b40c <i_11132>:
    8000b40c:	eb412e03          	lw	t3,-332(sp)

000000008000b410 <i_11133>:
    8000b410:	00ce7463          	bleu	a2,t3,8000b418 <i_11135>

000000008000b414 <i_11134>:
    8000b414:	0dc12023          	sw	t3,192(sp)

000000008000b418 <i_11135>:
    8000b418:	fec12623          	sw	a2,-20(sp)

000000008000b41c <i_11136>:
    8000b41c:	f9c12a23          	sw	t3,-108(sp)

000000008000b420 <i_11137>:
    8000b420:	00611f03          	lh	t5,6(sp)

000000008000b424 <i_11138>:
    8000b424:	01411f03          	lh	t5,20(sp)

000000008000b428 <i_11139>:
    8000b428:	013e7e63          	bleu	s3,t3,8000b444 <i_11146>

000000008000b42c <i_11140>:
    8000b42c:	01c60c63          	beq	a2,t3,8000b444 <i_11146>

000000008000b430 <i_11141>:
    8000b430:	14414303          	lbu	t1,324(sp)

000000008000b434 <i_11142>:
    8000b434:	01334a63          	blt	t1,s3,8000b448 <i_11147>

000000008000b438 <i_11143>:
    8000b438:	0dc105a3          	sb	t3,203(sp)

000000008000b43c <i_11144>:
    8000b43c:	18e11683          	lh	a3,398(sp)

000000008000b440 <i_11145>:
    8000b440:	012e6863          	bltu	t3,s2,8000b450 <i_11149>

000000008000b444 <i_11146>:
    8000b444:	e7c11683          	lh	a3,-388(sp)

000000008000b448 <i_11147>:
    8000b448:	01ed0263          	beq	s10,t5,8000b44c <i_11148>

000000008000b44c <i_11148>:
    8000b44c:	e2411683          	lh	a3,-476(sp)

000000008000b450 <i_11149>:
    8000b450:	02ccc33b          	divw	t1,s9,a2

000000008000b454 <i_11150>:
    8000b454:	e6d11b23          	sh	a3,-394(sp)

000000008000b458 <i_11151>:
    8000b458:	002e0663          	beq	t3,sp,8000b464 <i_11154>

000000008000b45c <i_11152>:
    8000b45c:	08114483          	lbu	s1,129(sp)

000000008000b460 <i_11153>:
    8000b460:	01300e13          	li	t3,19

000000008000b464 <i_11154>:
    8000b464:	01c699b3          	sll	s3,a3,t3

000000008000b468 <i_11155>:
    8000b468:	4016d993          	srai	s3,a3,0x1

000000008000b46c <i_11156>:
    8000b46c:	1ce15303          	lhu	t1,462(sp)

000000008000b470 <i_11157>:
    8000b470:	fc812683          	lw	a3,-56(sp)

000000008000b474 <i_11158>:
    8000b474:	e5037613          	andi	a2,t1,-432

000000008000b478 <i_11159>:
    8000b478:	fc610aa3          	sb	t1,-43(sp)

000000008000b47c <i_11160>:
    8000b47c:	40d90933          	sub	s2,s2,a3

000000008000b480 <i_11161>:
    8000b480:	02c6f063          	bleu	a2,a3,8000b4a0 <i_11169>

000000008000b484 <i_11162>:
    8000b484:	00291613          	slli	a2,s2,0x2

000000008000b488 <i_11163>:
    8000b488:	a78a8913          	addi	s2,s5,-1416

000000008000b48c <i_11164>:
    8000b48c:	02100a93          	li	s5,33

000000008000b490 <i_11165>:
    8000b490:	015997b3          	sll	a5,s3,s5

000000008000b494 <i_11166>:
    8000b494:	415a8ab3          	sub	s5,s5,s5

000000008000b498 <i_11167>:
    8000b498:	f1a14783          	lbu	a5,-230(sp)

000000008000b49c <i_11168>:
    8000b49c:	03592933          	mulhsu	s2,s2,s5

000000008000b4a0 <i_11169>:
    8000b4a0:	01497263          	bleu	s4,s2,8000b4a4 <i_11170>

000000008000b4a4 <i_11170>:
    8000b4a4:	01212c23          	sw	s2,24(sp)

000000008000b4a8 <i_11171>:
    8000b4a8:	02012903          	lw	s2,32(sp)

000000008000b4ac <i_11172>:
    8000b4ac:	00fd8863          	beq	s11,a5,8000b4bc <i_11176>

000000008000b4b0 <i_11173>:
    8000b4b0:	19814383          	lbu	t2,408(sp)

000000008000b4b4 <i_11174>:
    8000b4b4:	11213423          	sd	s2,264(sp)

000000008000b4b8 <i_11175>:
    8000b4b8:	eae10783          	lb	a5,-338(sp)

000000008000b4bc <i_11176>:
    8000b4bc:	00796263          	bltu	s2,t2,8000b4c0 <i_11177>

000000008000b4c0 <i_11177>:
    8000b4c0:	00900893          	li	a7,9

000000008000b4c4 <i_11178>:
    8000b4c4:	411ad3bb          	sraw	t2,s5,a7

000000008000b4c8 <i_11179>:
    8000b4c8:	14415883          	lhu	a7,324(sp)

000000008000b4cc <i_11180>:
    8000b4cc:	e5615d83          	lhu	s11,-426(sp)

000000008000b4d0 <i_11181>:
    8000b4d0:	008ae8b3          	or	a7,s5,s0

000000008000b4d4 <i_11182>:
    8000b4d4:	00f7c663          	blt	a5,a5,8000b4e0 <i_11185>

000000008000b4d8 <i_11183>:
    8000b4d8:	0a615183          	lhu	gp,166(sp)

000000008000b4dc <i_11184>:
    8000b4dc:	011af463          	bleu	a7,s5,8000b4e4 <i_11186>

000000008000b4e0 <i_11185>:
    8000b4e0:	17815783          	lhu	a5,376(sp)

000000008000b4e4 <i_11186>:
    8000b4e4:	003df463          	bleu	gp,s11,8000b4ec <i_11188>

000000008000b4e8 <i_11187>:
    8000b4e8:	02f7d8b3          	divu	a7,a5,a5

000000008000b4ec <i_11188>:
    8000b4ec:	02378263          	beq	a5,gp,8000b510 <i_11197>

000000008000b4f0 <i_11189>:
    8000b4f0:	00f1fc63          	bleu	a5,gp,8000b508 <i_11195>

000000008000b4f4 <i_11190>:
    8000b4f4:	01500f13          	li	t5,21

000000008000b4f8 <i_11191>:
    8000b4f8:	01e292b3          	sll	t0,t0,t5

000000008000b4fc <i_11192>:
    8000b4fc:	01178533          	add	a0,a5,a7

000000008000b500 <i_11193>:
    8000b500:	f6812203          	lw	tp,-152(sp)

000000008000b504 <i_11194>:
    8000b504:	00219193          	slli	gp,gp,0x2

000000008000b508 <i_11195>:
    8000b508:	0a312023          	sw	gp,160(sp)

000000008000b50c <i_11196>:
    8000b50c:	f2513c23          	sd	t0,-200(sp)

000000008000b510 <i_11197>:
    8000b510:	00a74863          	blt	a4,a0,8000b520 <i_11201>

000000008000b514 <i_11198>:
    8000b514:	12013e03          	ld	t3,288(sp)

000000008000b518 <i_11199>:
    8000b518:	fbe14283          	lbu	t0,-66(sp)

000000008000b51c <i_11200>:
    8000b51c:	005a9463          	bne	s5,t0,8000b524 <i_11202>

000000008000b520 <i_11201>:
    8000b520:	0051de63          	ble	t0,gp,8000b53c <i_11208>

000000008000b524 <i_11202>:
    8000b524:	4059093b          	subw	s2,s2,t0

000000008000b528 <i_11203>:
    8000b528:	fe5103a3          	sb	t0,-25(sp)

000000008000b52c <i_11204>:
    8000b52c:	08b14283          	lbu	t0,139(sp)

000000008000b530 <i_11205>:
    8000b530:	412900b3          	sub	ra,s2,s2

000000008000b534 <i_11206>:
    8000b534:	f0511323          	sh	t0,-250(sp)

000000008000b538 <i_11207>:
    8000b538:	17a13823          	sd	s10,368(sp)

000000008000b53c <i_11208>:
    8000b53c:	f3012b03          	lw	s6,-208(sp)

000000008000b540 <i_11209>:
    8000b540:	00000013          	nop

000000008000b544 <i_11210>:
    8000b544:	7b800913          	li	s2,1976

000000008000b548 <i_11211>:
    8000b548:	7cc00d13          	li	s10,1996

000000008000b54c <i_11212>:
    8000b54c:	00190913          	addi	s2,s2,1
    8000b550:	ffa91ee3          	bne	s2,s10,8000b54c <i_11212>

000000008000b554 <i_11213>:
    8000b554:	026dc063          	blt	s11,t1,8000b574 <i_11221>

000000008000b558 <i_11214>:
    8000b558:	15b14083          	lbu	ra,347(sp)

000000008000b55c <i_11215>:
    8000b55c:	fc710c83          	lb	s9,-57(sp)

000000008000b560 <i_11216>:
    8000b560:	06714303          	lbu	t1,103(sp)

000000008000b564 <i_11217>:
    8000b564:	00e37333          	and	t1,t1,a4

000000008000b568 <i_11218>:
    8000b568:	00000013          	nop

000000008000b56c <i_11219>:
    8000b56c:	e9110303          	lb	t1,-367(sp)

000000008000b570 <i_11220>:
    8000b570:	04613823          	sd	t1,80(sp)

000000008000b574 <i_11221>:
    8000b574:	00000013          	nop

000000008000b578 <i_11222>:
    8000b578:	00000013          	nop

000000008000b57c <i_11223>:
    8000b57c:	84b00d13          	li	s10,-1973

000000008000b580 <i_11224>:
    8000b580:	84f00b13          	li	s6,-1969

000000008000b584 <i_11225>:
    8000b584:	406309bb          	subw	s3,t1,t1

000000008000b588 <i_11226>:
    8000b588:	07310aa3          	sb	s3,117(sp)

000000008000b58c <i_11227>:
    8000b58c:	1d714a83          	lbu	s5,471(sp)

000000008000b590 <i_11228>:
    8000b590:	001d0d13          	addi	s10,s10,1
    8000b594:	ff6d68e3          	bltu	s10,s6,8000b584 <i_11225>

000000008000b598 <i_11229>:
    8000b598:	fc611223          	sh	t1,-60(sp)

000000008000b59c <i_11230>:
    8000b59c:	f26106a3          	sb	t1,-211(sp)

000000008000b5a0 <i_11231>:
    8000b5a0:	73100313          	li	t1,1841

000000008000b5a4 <i_11232>:
    8000b5a4:	74200a13          	li	s4,1858

000000008000b5a8 <i_11233>:
    8000b5a8:	74cc6713          	ori	a4,s8,1868

000000008000b5ac <i_11234>:
    8000b5ac:	ac0d5b17          	auipc	s6,0xac0d5

000000008000b5b0 <i_11235>:
    8000b5b0:	010f20b3          	slt	ra,t5,a6

000000008000b5b4 <i_11236>:
    8000b5b4:	f1513423          	sd	s5,-248(sp)

000000008000b5b8 <i_11237>:
    8000b5b8:	02e705b3          	mul	a1,a4,a4

000000008000b5bc <i_11238>:
    8000b5bc:	021b7063          	bleu	ra,s6,8000b5dc <i_11245>

000000008000b5c0 <i_11239>:
    8000b5c0:	05814083          	lbu	ra,88(sp)

000000008000b5c4 <i_11240>:
    8000b5c4:	ee012683          	lw	a3,-288(sp)

000000008000b5c8 <i_11241>:
    8000b5c8:	00200d93          	li	s11,2

000000008000b5cc <i_11242>:
    8000b5cc:	01b69ebb          	sllw	t4,a3,s11

000000008000b5d0 <i_11243>:
    8000b5d0:	00130313          	addi	t1,t1,1
    8000b5d4:	fd431ae3          	bne	t1,s4,8000b5a8 <i_11233>

000000008000b5d8 <i_11244>:
    8000b5d8:	00319693          	slli	a3,gp,0x3

000000008000b5dc <i_11245>:
    8000b5dc:	03b1e063          	bltu	gp,s11,8000b5fc <i_11253>

000000008000b5e0 <i_11246>:
    8000b5e0:	e3416383          	lwu	t2,-460(sp)

000000008000b5e4 <i_11247>:
    8000b5e4:	00d10d23          	sb	a3,26(sp)

000000008000b5e8 <i_11248>:
    8000b5e8:	e5813823          	sd	s8,-432(sp)

000000008000b5ec <i_11249>:
    8000b5ec:	10815c03          	lhu	s8,264(sp)

000000008000b5f0 <i_11250>:
    8000b5f0:	17013383          	ld	t2,368(sp)

000000008000b5f4 <i_11251>:
    8000b5f4:	add3c293          	xori	t0,t2,-1315

000000008000b5f8 <i_11252>:
    8000b5f8:	001c571b          	srliw	a4,s8,0x1

000000008000b5fc <i_11253>:
    8000b5fc:	00713023          	sd	t2,0(sp)

000000008000b600 <i_11254>:
    8000b600:	02efacb3          	mulhsu	s9,t6,a4

000000008000b604 <i_11255>:
    8000b604:	0247e063          	bltu	a5,tp,8000b624 <i_11263>

000000008000b608 <i_11256>:
    8000b608:	f6713823          	sd	t2,-144(sp)

000000008000b60c <i_11257>:
    8000b60c:	003cd41b          	srliw	s0,s9,0x3

000000008000b610 <i_11258>:
    8000b610:	01875c63          	ble	s8,a4,8000b628 <i_11264>

000000008000b614 <i_11259>:
    8000b614:	10d109a3          	sb	a3,275(sp)

000000008000b618 <i_11260>:
    8000b618:	018cfa63          	bleu	s8,s9,8000b62c <i_11265>

000000008000b61c <i_11261>:
    8000b61c:	039c86b3          	mul	a3,s9,s9

000000008000b620 <i_11262>:
    8000b620:	2c45dc97          	auipc	s9,0x2c45d

000000008000b624 <i_11263>:
    8000b624:	01800413          	li	s0,24

000000008000b628 <i_11264>:
    8000b628:	008e9ebb          	sllw	t4,t4,s0

000000008000b62c <i_11265>:
    8000b62c:	019cc263          	blt	s9,s9,8000b630 <i_11266>

000000008000b630 <i_11266>:
    8000b630:	01526a63          	bltu	tp,s5,8000b644 <i_11271>

000000008000b634 <i_11267>:
    8000b634:	008cce63          	blt	s9,s0,8000b650 <i_11274>

000000008000b638 <i_11268>:
    8000b638:	028a9ab3          	mulh	s5,s5,s0

000000008000b63c <i_11269>:
    8000b63c:	1b1eba93          	sltiu	s5,t4,433

000000008000b640 <i_11270>:
    8000b640:	eb614083          	lbu	ra,-330(sp)

000000008000b644 <i_11271>:
    8000b644:	007fbeb3          	sltu	t4,t6,t2

000000008000b648 <i_11272>:
    8000b648:	03c00f93          	li	t6,60

000000008000b64c <i_11273>:
    8000b64c:	01fe9433          	sll	s0,t4,t6

000000008000b650 <i_11274>:
    8000b650:	021ed263          	ble	ra,t4,8000b674 <i_11283>

000000008000b654 <i_11275>:
    8000b654:	fd410d83          	lb	s11,-44(sp)

000000008000b658 <i_11276>:
    8000b658:	03dfc6bb          	divw	a3,t6,t4

000000008000b65c <i_11277>:
    8000b65c:	fdb10923          	sb	s11,-46(sp)

000000008000b660 <i_11278>:
    8000b660:	faa14683          	lbu	a3,-86(sp)

000000008000b664 <i_11279>:
    8000b664:	11016e83          	lwu	t4,272(sp)

000000008000b668 <i_11280>:
    8000b668:	40265e9b          	sraiw	t4,a2,0x2

000000008000b66c <i_11281>:
    8000b66c:	03b62633          	mulhsu	a2,a2,s11

000000008000b670 <i_11282>:
    8000b670:	edd10ba3          	sb	t4,-297(sp)

000000008000b674 <i_11283>:
    8000b674:	004dda1b          	srliw	s4,s11,0x4

000000008000b678 <i_11284>:
    8000b678:	08816e03          	lwu	t3,136(sp)

000000008000b67c <i_11285>:
    8000b67c:	72c00613          	li	a2,1836

000000008000b680 <i_11286>:
    8000b680:	73c00d93          	li	s11,1852

000000008000b684 <i_11287>:
    8000b684:	cc8a0e93          	addi	t4,s4,-824

000000008000b688 <i_11288>:
    8000b688:	e2414b03          	lbu	s6,-476(sp)

000000008000b68c <i_11289>:
    8000b68c:	ff510ea3          	sb	s5,-3(sp)

000000008000b690 <i_11290>:
    8000b690:	00500a13          	li	s4,5

000000008000b694 <i_11291>:
    8000b694:	014b1eb3          	sll	t4,s6,s4

000000008000b698 <i_11292>:
    8000b698:	00800893          	li	a7,8

000000008000b69c <i_11293>:
    8000b69c:	011a5bbb          	srlw	s7,s4,a7

000000008000b6a0 <i_11294>:
    8000b6a0:	014ee263          	bltu	t4,s4,8000b6a4 <i_11295>

000000008000b6a4 <i_11295>:
    8000b6a4:	00000013          	nop

000000008000b6a8 <i_11296>:
    8000b6a8:	41188eb3          	sub	t4,a7,a7

000000008000b6ac <i_11297>:
    8000b6ac:	f3c11e83          	lh	t4,-196(sp)

000000008000b6b0 <i_11298>:
    8000b6b0:	9f35051b          	addiw	a0,a0,-1549

000000008000b6b4 <i_11299>:
    8000b6b4:	00600213          	li	tp,6

000000008000b6b8 <i_11300>:
    8000b6b8:	004e153b          	sllw	a0,t3,tp

000000008000b6bc <i_11301>:
    8000b6bc:	00160613          	addi	a2,a2,1
    8000b6c0:	fccdd2e3          	ble	a2,s11,8000b684 <i_11287>

000000008000b6c4 <i_11302>:
    8000b6c4:	ff611323          	sh	s6,-26(sp)

000000008000b6c8 <i_11303>:
    8000b6c8:	01025e63          	ble	a6,tp,8000b6e4 <i_11310>

000000008000b6cc <i_11304>:
    8000b6cc:	f3d102a3          	sb	t4,-219(sp)

000000008000b6d0 <i_11305>:
    8000b6d0:	0348f8bb          	remuw	a7,a7,s4

000000008000b6d4 <i_11306>:
    8000b6d4:	01b00e93          	li	t4,27

000000008000b6d8 <i_11307>:
    8000b6d8:	01d69bbb          	sllw	s7,a3,t4

000000008000b6dc <i_11308>:
    8000b6dc:	a018b513          	sltiu	a0,a7,-1535

000000008000b6e0 <i_11309>:
    8000b6e0:	0d416a03          	lwu	s4,212(sp)

000000008000b6e4 <i_11310>:
    8000b6e4:	efd12e23          	sw	t4,-260(sp)

000000008000b6e8 <i_11311>:
    8000b6e8:	ede15583          	lhu	a1,-290(sp)

000000008000b6ec <i_11312>:
    8000b6ec:	74a00693          	li	a3,1866

000000008000b6f0 <i_11313>:
    8000b6f0:	75900b13          	li	s6,1881

000000008000b6f4 <i_11314>:
    8000b6f4:	40185813          	srai	a6,a6,0x1

000000008000b6f8 <i_11315>:
    8000b6f8:	00181893          	slli	a7,a6,0x1

000000008000b6fc <i_11316>:
    8000b6fc:	0b414e03          	lbu	t3,180(sp)

000000008000b700 <i_11317>:
    8000b700:	f9110823          	sb	a7,-112(sp)

000000008000b704 <i_11318>:
    8000b704:	00411203          	lh	tp,4(sp)

000000008000b708 <i_11319>:
    8000b708:	0018a3b3          	slt	t2,a7,ra

000000008000b70c <i_11320>:
    8000b70c:	fb615883          	lhu	a7,-74(sp)

000000008000b710 <i_11321>:
    8000b710:	00168693          	addi	a3,a3,1 # ffffffffbd968001 <_end+0xffffffff3d957bed>
    8000b714:	fedb70e3          	bleu	a3,s6,8000b6f4 <i_11314>

000000008000b718 <i_11322>:
    8000b718:	0273c063          	blt	t2,t2,8000b738 <i_11330>

000000008000b71c <i_11323>:
    8000b71c:	e2713423          	sd	t2,-472(sp)

000000008000b720 <i_11324>:
    8000b720:	3423ad93          	slti	s11,t2,834

000000008000b724 <i_11325>:
    8000b724:	49aca2b7          	lui	t0,0x49aca

000000008000b728 <i_11326>:
    8000b728:	14413c23          	sd	tp,344(sp)

000000008000b72c <i_11327>:
    8000b72c:	05611383          	lh	t2,86(sp)

000000008000b730 <i_11328>:
    8000b730:	0a012283          	lw	t0,160(sp)

000000008000b734 <i_11329>:
    8000b734:	d073b393          	sltiu	t2,t2,-761

000000008000b738 <i_11330>:
    8000b738:	0052da63          	ble	t0,t0,8000b74c <i_11335>

000000008000b73c <i_11331>:
    8000b73c:	04815283          	lhu	t0,72(sp)

000000008000b740 <i_11332>:
    8000b740:	f3816283          	lwu	t0,-200(sp)

000000008000b744 <i_11333>:
    8000b744:	018285b3          	add	a1,t0,s8

000000008000b748 <i_11334>:
    8000b748:	00000013          	nop

000000008000b74c <i_11335>:
    8000b74c:	f1813883          	ld	a7,-232(sp)

000000008000b750 <i_11336>:
    8000b750:	00000013          	nop

000000008000b754 <i_11337>:
    8000b754:	7c500393          	li	t2,1989

000000008000b758 <i_11338>:
    8000b758:	7d800293          	li	t0,2008

000000008000b75c <i_11339>:
    8000b75c:	08512e23          	sw	t0,156(sp)

000000008000b760 <i_11340>:
    8000b760:	0315f063          	bleu	a7,a1,8000b780 <i_11348>

000000008000b764 <i_11341>:
    8000b764:	13f10403          	lb	s0,319(sp)

000000008000b768 <i_11342>:
    8000b768:	01000b93          	li	s7,16

000000008000b76c <i_11343>:
    8000b76c:	017398bb          	sllw	a7,t2,s7

000000008000b770 <i_11344>:
    8000b770:	f5215583          	lhu	a1,-174(sp)

000000008000b774 <i_11345>:
    8000b774:	0087bcb3          	sltu	s9,a5,s0

000000008000b778 <i_11346>:
    8000b778:	e2a14d83          	lbu	s11,-470(sp)

000000008000b77c <i_11347>:
    8000b77c:	2f0de793          	ori	a5,s11,752

000000008000b780 <i_11348>:
    8000b780:	03bbabb3          	mulhsu	s7,s7,s11

000000008000b784 <i_11349>:
    8000b784:	037df263          	bleu	s7,s11,8000b7a8 <i_11357>

000000008000b788 <i_11350>:
    8000b788:	e4813a03          	ld	s4,-440(sp)

000000008000b78c <i_11351>:
    8000b78c:	00200593          	li	a1,2

000000008000b790 <i_11352>:
    8000b790:	00bb95bb          	sllw	a1,s7,a1

000000008000b794 <i_11353>:
    8000b794:	00138393          	addi	t2,t2,1
    8000b798:	fc72f2e3          	bleu	t2,t0,8000b75c <i_11339>

000000008000b79c <i_11354>:
    8000b79c:	e9211303          	lh	t1,-366(sp)

000000008000b7a0 <i_11355>:
    8000b7a0:	00bbdc63          	ble	a1,s7,8000b7b8 <i_11361>

000000008000b7a4 <i_11356>:
    8000b7a4:	02634333          	div	t1,t1,t1

000000008000b7a8 <i_11357>:
    8000b7a8:	02630c3b          	mulw	s8,t1,t1

000000008000b7ac <i_11358>:
    8000b7ac:	00d6bbb3          	sltu	s7,a3,a3

000000008000b7b0 <i_11359>:
    8000b7b0:	ffb10183          	lb	gp,-5(sp)

000000008000b7b4 <i_11360>:
    8000b7b4:	02613023          	sd	t1,32(sp)

000000008000b7b8 <i_11361>:
    8000b7b8:	01100193          	li	gp,17

000000008000b7bc <i_11362>:
    8000b7bc:	003199bb          	sllw	s3,gp,gp

000000008000b7c0 <i_11363>:
    8000b7c0:	8a100693          	li	a3,-1887

000000008000b7c4 <i_11364>:
    8000b7c4:	8ab00313          	li	t1,-1877

000000008000b7c8 <i_11365>:
    8000b7c8:	02b00193          	li	gp,43

000000008000b7cc <i_11366>:
    8000b7cc:	4039d1b3          	sra	gp,s3,gp

000000008000b7d0 <i_11367>:
    8000b7d0:	89200593          	li	a1,-1902

000000008000b7d4 <i_11368>:
    8000b7d4:	89400913          	li	s2,-1900

000000008000b7d8 <i_11369>:
    8000b7d8:	003181b3          	add	gp,gp,gp

000000008000b7dc <i_11370>:
    8000b7dc:	00158593          	addi	a1,a1,1
    8000b7e0:	ff25ece3          	bltu	a1,s2,8000b7d8 <i_11369>

000000008000b7e4 <i_11371>:
    8000b7e4:	ed710183          	lb	gp,-297(sp)

000000008000b7e8 <i_11372>:
    8000b7e8:	403188b3          	sub	a7,gp,gp

000000008000b7ec <i_11373>:
    8000b7ec:	0031c1b3          	xor	gp,gp,gp

000000008000b7f0 <i_11374>:
    8000b7f0:	00168693          	addi	a3,a3,1
    8000b7f4:	fcd37ae3          	bleu	a3,t1,8000b7c8 <i_11365>

000000008000b7f8 <i_11375>:
    8000b7f8:	e6514183          	lbu	gp,-411(sp)

000000008000b7fc <i_11376>:
    8000b7fc:	02340063          	beq	s0,gp,8000b81c <i_11384>

000000008000b800 <i_11377>:
    8000b800:	4018d19b          	sraiw	gp,a7,0x1

000000008000b804 <i_11378>:
    8000b804:	0311e463          	bltu	gp,a7,8000b82c <i_11388>

000000008000b808 <i_11379>:
    8000b808:	027183bb          	mulw	t2,gp,t2

000000008000b80c <i_11380>:
    8000b80c:	00514883          	lbu	a7,5(sp)

000000008000b810 <i_11381>:
    8000b810:	edc16583          	lwu	a1,-292(sp)

000000008000b814 <i_11382>:
    8000b814:	039cbcb3          	mulhu	s9,s9,s9

000000008000b818 <i_11383>:
    8000b818:	00900e93          	li	t4,9

000000008000b81c <i_11384>:
    8000b81c:	01d5d9bb          	srlw	s3,a1,t4

000000008000b820 <i_11385>:
    8000b820:	013ef663          	bleu	s3,t4,8000b82c <i_11388>

000000008000b824 <i_11386>:
    8000b824:	ee615883          	lhu	a7,-282(sp)

000000008000b828 <i_11387>:
    8000b828:	1be11883          	lh	a7,446(sp)

000000008000b82c <i_11388>:
    8000b82c:	401ede93          	srai	t4,t4,0x1

000000008000b830 <i_11389>:
    8000b830:	011e8eb3          	add	t4,t4,a7

000000008000b834 <i_11390>:
    8000b834:	00a00e93          	li	t4,10

000000008000b838 <i_11391>:
    8000b838:	01de9ebb          	sllw	t4,t4,t4

000000008000b83c <i_11392>:
    8000b83c:	15013283          	ld	t0,336(sp)

000000008000b840 <i_11393>:
    8000b840:	f2712223          	sw	t2,-220(sp)

000000008000b844 <i_11394>:
    8000b844:	00fee463          	bltu	t4,a5,8000b84c <i_11396>

000000008000b848 <i_11395>:
    8000b848:	f0611803          	lh	a6,-250(sp)

000000008000b84c <i_11396>:
    8000b84c:	01296c63          	bltu	s2,s2,8000b864 <i_11402>

000000008000b850 <i_11397>:
    8000b850:	0038179b          	slliw	a5,a6,0x3

000000008000b854 <i_11398>:
    8000b854:	04b10903          	lb	s2,75(sp)

000000008000b858 <i_11399>:
    8000b858:	08816383          	lwu	t2,136(sp)

000000008000b85c <i_11400>:
    8000b85c:	030789b3          	mul	s3,a5,a6

000000008000b860 <i_11401>:
    8000b860:	01013903          	ld	s2,16(sp)

000000008000b864 <i_11402>:
    8000b864:	17215383          	lhu	t2,370(sp)

000000008000b868 <i_11403>:
    8000b868:	0123c933          	xor	s2,t2,s2

000000008000b86c <i_11404>:
    8000b86c:	0cc12383          	lw	t2,204(sp)

000000008000b870 <i_11405>:
    8000b870:	03324063          	blt	tp,s3,8000b890 <i_11413>

000000008000b874 <i_11406>:
    8000b874:	0365e5bb          	remw	a1,a1,s6

000000008000b878 <i_11407>:
    8000b878:	01400b13          	li	s6,20

000000008000b87c <i_11408>:
    8000b87c:	016117bb          	sllw	a5,sp,s6

000000008000b880 <i_11409>:
    8000b880:	00f7c463          	blt	a5,a5,8000b888 <i_11411>

000000008000b884 <i_11410>:
    8000b884:	016b6463          	bltu	s6,s6,8000b88c <i_11412>

000000008000b888 <i_11411>:
    8000b888:	ff813503          	ld	a0,-8(sp)

000000008000b88c <i_11412>:
    8000b88c:	0025159b          	slliw	a1,a0,0x2

000000008000b890 <i_11413>:
    8000b890:	f6a108a3          	sb	a0,-143(sp)

000000008000b894 <i_11414>:
    8000b894:	9d0a4513          	xori	a0,s4,-1584

000000008000b898 <i_11415>:
    8000b898:	f3810183          	lb	gp,-200(sp)

000000008000b89c <i_11416>:
    8000b89c:	7a700b13          	li	s6,1959

000000008000b8a0 <i_11417>:
    8000b8a0:	7b900a13          	li	s4,1977

000000008000b8a4 <i_11418>:
    8000b8a4:	e1a15c03          	lhu	s8,-486(sp)

000000008000b8a8 <i_11419>:
    8000b8a8:	16412783          	lw	a5,356(sp)

000000008000b8ac <i_11420>:
    8000b8ac:	18914083          	lbu	ra,393(sp)

000000008000b8b0 <i_11421>:
    8000b8b0:	02184833          	div	a6,a6,ra

000000008000b8b4 <i_11422>:
    8000b8b4:	f4f12023          	sw	a5,-192(sp)

000000008000b8b8 <i_11423>:
    8000b8b8:	00219f1b          	slliw	t5,gp,0x2

000000008000b8bc <i_11424>:
    8000b8bc:	e9611803          	lh	a6,-362(sp)

000000008000b8c0 <i_11425>:
    8000b8c0:	0e415c83          	lhu	s9,228(sp)

000000008000b8c4 <i_11426>:
    8000b8c4:	039bc463          	blt	s7,s9,8000b8ec <i_11435>

000000008000b8c8 <i_11427>:
    8000b8c8:	ef815503          	lhu	a0,-264(sp)

000000008000b8cc <i_11428>:
    8000b8cc:	001b0b13          	addi	s6,s6,1 # 2c0e05ad <main-0x53f1fa53>
    8000b8d0:	fd6a5ae3          	ble	s6,s4,8000b8a4 <i_11418>

000000008000b8d4 <i_11429>:
    8000b8d4:	01e839b3          	sltu	s3,a6,t5

000000008000b8d8 <i_11430>:
    8000b8d8:	2e49af13          	slti	t5,s3,740

000000008000b8dc <i_11431>:
    8000b8dc:	01395463          	ble	s3,s2,8000b8e4 <i_11433>

000000008000b8e0 <i_11432>:
    8000b8e0:	00700d93          	li	s11,7

000000008000b8e4 <i_11433>:
    8000b8e4:	01b99cbb          	sllw	s9,s3,s11

000000008000b8e8 <i_11434>:
    8000b8e8:	01700a93          	li	s5,23

000000008000b8ec <i_11435>:
    8000b8ec:	4159d9b3          	sra	s3,s3,s5

000000008000b8f0 <i_11436>:
    8000b8f0:	033ce9b3          	rem	s3,s9,s3

000000008000b8f4 <i_11437>:
    8000b8f4:	06d10ea3          	sb	a3,125(sp)

000000008000b8f8 <i_11438>:
    8000b8f8:	015a9c63          	bne	s5,s5,8000b910 <i_11444>

000000008000b8fc <i_11439>:
    8000b8fc:	dee82813          	slti	a6,a6,-530

000000008000b900 <i_11440>:
    8000b900:	01b3e533          	or	a0,t2,s11

000000008000b904 <i_11441>:
    8000b904:	012f7863          	bleu	s2,t5,8000b914 <i_11445>

000000008000b908 <i_11442>:
    8000b908:	03bafe3b          	remuw	t3,s5,s11

000000008000b90c <i_11443>:
    8000b90c:	13013a03          	ld	s4,304(sp)

000000008000b910 <i_11444>:
    8000b910:	019dedb3          	or	s11,s11,s9

000000008000b914 <i_11445>:
    8000b914:	01b50863          	beq	a0,s11,8000b924 <i_11449>

000000008000b918 <i_11446>:
    8000b918:	00aa2833          	slt	a6,s4,a0

000000008000b91c <i_11447>:
    8000b91c:	02813d83          	ld	s11,40(sp)

000000008000b920 <i_11448>:
    8000b920:	01c54e63          	blt	a0,t3,8000b93c <i_11455>

000000008000b924 <i_11449>:
    8000b924:	a3c51517          	auipc	a0,0xa3c51

000000008000b928 <i_11450>:
    8000b928:	02383fb3          	mulhu	t6,a6,gp

000000008000b92c <i_11451>:
    8000b92c:	12a102a3          	sb	a0,293(sp)

000000008000b930 <i_11452>:
    8000b930:	0d210ba3          	sb	s2,215(sp)

000000008000b934 <i_11453>:
    8000b934:	e1211d23          	sh	s2,-486(sp)

000000008000b938 <i_11454>:
    8000b938:	1d012423          	sw	a6,456(sp)

000000008000b93c <i_11455>:
    8000b93c:	02d68463          	beq	a3,a3,8000b964 <i_11465>

000000008000b940 <i_11456>:
    8000b940:	403b5d93          	srai	s11,s6,0x3

000000008000b944 <i_11457>:
    8000b944:	01500c13          	li	s8,21

000000008000b948 <i_11458>:
    8000b948:	01885833          	srl	a6,a6,s8

000000008000b94c <i_11459>:
    8000b94c:	e9c15a03          	lhu	s4,-356(sp)

000000008000b950 <i_11460>:
    8000b950:	00000013          	nop

000000008000b954 <i_11461>:
    8000b954:	00000013          	nop

000000008000b958 <i_11462>:
    8000b958:	e3013283          	ld	t0,-464(sp)

000000008000b95c <i_11463>:
    8000b95c:	e5812223          	sw	s8,-444(sp)

000000008000b960 <i_11464>:
    8000b960:	f0312a23          	sw	gp,-236(sp)

000000008000b964 <i_11465>:
    8000b964:	00000013          	nop

000000008000b968 <i_11466>:
    8000b968:	260a3713          	sltiu	a4,s4,608

000000008000b96c <i_11467>:
    8000b96c:	8a600693          	li	a3,-1882

000000008000b970 <i_11468>:
    8000b970:	8b600b13          	li	s6,-1866

000000008000b974 <i_11469>:
    8000b974:	00700d93          	li	s11,7

000000008000b978 <i_11470>:
    8000b978:	01b393bb          	sllw	t2,t2,s11

000000008000b97c <i_11471>:
    8000b97c:	ff016d83          	lwu	s11,-16(sp)

000000008000b980 <i_11472>:
    8000b980:	00168693          	addi	a3,a3,1
    8000b984:	fedb78e3          	bleu	a3,s6,8000b974 <i_11469>

000000008000b988 <i_11473>:
    8000b988:	02739263          	bne	t2,t2,8000b9ac <i_11482>

000000008000b98c <i_11474>:
    8000b98c:	16710623          	sb	t2,364(sp)

000000008000b990 <i_11475>:
    8000b990:	ccc3e913          	ori	s2,t2,-820

000000008000b994 <i_11476>:
    8000b994:	e5e11223          	sh	t5,-444(sp)

000000008000b998 <i_11477>:
    8000b998:	f6713823          	sd	t2,-144(sp)

000000008000b99c <i_11478>:
    8000b99c:	00000013          	nop

000000008000b9a0 <i_11479>:
    8000b9a0:	01416903          	lwu	s2,20(sp)

000000008000b9a4 <i_11480>:
    8000b9a4:	fcc14a83          	lbu	s5,-52(sp)

000000008000b9a8 <i_11481>:
    8000b9a8:	eb015e83          	lhu	t4,-336(sp)

000000008000b9ac <i_11482>:
    8000b9ac:	00000013          	nop

000000008000b9b0 <i_11483>:
    8000b9b0:	fb8eb293          	sltiu	t0,t4,-72

000000008000b9b4 <i_11484>:
    8000b9b4:	85200313          	li	t1,-1966

000000008000b9b8 <i_11485>:
    8000b9b8:	85d00f13          	li	t5,-1955

000000008000b9bc <i_11486>:
    8000b9bc:	00000013          	nop

000000008000b9c0 <i_11487>:
    8000b9c0:	05c16703          	lwu	a4,92(sp)

000000008000b9c4 <i_11488>:
    8000b9c4:	84800913          	li	s2,-1976

000000008000b9c8 <i_11489>:
    8000b9c8:	85100e13          	li	t3,-1967

000000008000b9cc <i_11490>:
    8000b9cc:	01910223          	sb	s9,4(sp)

000000008000b9d0 <i_11491>:
    8000b9d0:	01b90533          	add	a0,s2,s11

000000008000b9d4 <i_11492>:
    8000b9d4:	00190913          	addi	s2,s2,1
    8000b9d8:	ff2e7ae3          	bleu	s2,t3,8000b9cc <i_11490>

000000008000b9dc <i_11493>:
    8000b9dc:	d472e393          	ori	t2,t0,-697

000000008000b9e0 <i_11494>:
    8000b9e0:	1a416083          	lwu	ra,420(sp)

000000008000b9e4 <i_11495>:
    8000b9e4:	00130313          	addi	t1,t1,1
    8000b9e8:	fc6f7ae3          	bleu	t1,t5,8000b9bc <i_11486>

000000008000b9ec <i_11496>:
    8000b9ec:	1313ed93          	ori	s11,t2,305

000000008000b9f0 <i_11497>:
    8000b9f0:	01b00d13          	li	s10,27

000000008000b9f4 <i_11498>:
    8000b9f4:	01a393b3          	sll	t2,t2,s10

000000008000b9f8 <i_11499>:
    8000b9f8:	02c7e7bb          	remw	a5,a5,a2

000000008000b9fc <i_11500>:
    8000b9fc:	0ce15383          	lhu	t2,206(sp)

000000008000ba00 <i_11501>:
    8000ba00:	004d3bb3          	sltu	s7,s10,tp

000000008000ba04 <i_11502>:
    8000ba04:	03d00d93          	li	s11,61

000000008000ba08 <i_11503>:
    8000ba08:	01b090b3          	sll	ra,ra,s11

000000008000ba0c <i_11504>:
    8000ba0c:	18015a03          	lhu	s4,384(sp)

000000008000ba10 <i_11505>:
    8000ba10:	401387bb          	subw	a5,t2,ra

000000008000ba14 <i_11506>:
    8000ba14:	82200093          	li	ra,-2014

000000008000ba18 <i_11507>:
    8000ba18:	82d00393          	li	t2,-2003

000000008000ba1c <i_11508>:
    8000ba1c:	0344443b          	divw	s0,s0,s4

000000008000ba20 <i_11509>:
    8000ba20:	00000013          	nop

000000008000ba24 <i_11510>:
    8000ba24:	0277fd33          	remu	s10,a5,t2

000000008000ba28 <i_11511>:
    8000ba28:	19012b83          	lw	s7,400(sp)

000000008000ba2c <i_11512>:
    8000ba2c:	00108093          	addi	ra,ra,1
    8000ba30:	fe13f6e3          	bleu	ra,t2,8000ba1c <i_11508>

000000008000ba34 <i_11513>:
    8000ba34:	00176a63          	bltu	a4,ra,8000ba48 <i_11518>

000000008000ba38 <i_11514>:
    8000ba38:	10710fa3          	sb	t2,287(sp)

000000008000ba3c <i_11515>:
    8000ba3c:	02d2c73b          	divw	a4,t0,a3

000000008000ba40 <i_11516>:
    8000ba40:	0ec16283          	lwu	t0,236(sp)

000000008000ba44 <i_11517>:
    8000ba44:	e9312a23          	sw	s3,-364(sp)

000000008000ba48 <i_11518>:
    8000ba48:	08c15b03          	lhu	s6,140(sp)

000000008000ba4c <i_11519>:
    8000ba4c:	14415683          	lhu	a3,324(sp)

000000008000ba50 <i_11520>:
    8000ba50:	03297933          	remu	s2,s2,s2

000000008000ba54 <i_11521>:
    8000ba54:	0a010903          	lb	s2,160(sp)

000000008000ba58 <i_11522>:
    8000ba58:	07c10903          	lb	s2,124(sp)

000000008000ba5c <i_11523>:
    8000ba5c:	01291263          	bne	s2,s2,8000ba60 <i_11524>

000000008000ba60 <i_11524>:
    8000ba60:	bca76613          	ori	a2,a4,-1078

000000008000ba64 <i_11525>:
    8000ba64:	ed514e83          	lbu	t4,-299(sp)

000000008000ba68 <i_11526>:
    8000ba68:	40495693          	srai	a3,s2,0x4

000000008000ba6c <i_11527>:
    8000ba6c:	0a910323          	sb	s1,166(sp)

000000008000ba70 <i_11528>:
    8000ba70:	e5c6cd93          	xori	s11,a3,-420

000000008000ba74 <i_11529>:
    8000ba74:	88b00913          	li	s2,-1909

000000008000ba78 <i_11530>:
    8000ba78:	89e00693          	li	a3,-1890

000000008000ba7c <i_11531>:
    8000ba7c:	47176397          	auipc	t2,0x47176

000000008000ba80 <i_11532>:
    8000ba80:	00c921b3          	slt	gp,s2,a2

000000008000ba84 <i_11533>:
    8000ba84:	00d6d663          	ble	a3,a3,8000ba90 <i_11536>

000000008000ba88 <i_11534>:
    8000ba88:	01100093          	li	ra,17

000000008000ba8c <i_11535>:
    8000ba8c:	001913bb          	sllw	t2,s2,ra

000000008000ba90 <i_11536>:
    8000ba90:	07213023          	sd	s2,96(sp)

000000008000ba94 <i_11537>:
    8000ba94:	0ac12c03          	lw	s8,172(sp)

000000008000ba98 <i_11538>:
    8000ba98:	f4510c03          	lb	s8,-187(sp)

000000008000ba9c <i_11539>:
    8000ba9c:	e5210b83          	lb	s7,-430(sp)

000000008000baa0 <i_11540>:
    8000baa0:	f5710ba3          	sb	s7,-169(sp)

000000008000baa4 <i_11541>:
    8000baa4:	1ca15d83          	lhu	s11,458(sp)

000000008000baa8 <i_11542>:
    8000baa8:	03bc5463          	ble	s11,s8,8000bad0 <i_11551>

000000008000baac <i_11543>:
    8000baac:	00000013          	nop

000000008000bab0 <i_11544>:
    8000bab0:	fa011c83          	lh	s9,-96(sp)

000000008000bab4 <i_11545>:
    8000bab4:	02ac0463          	beq	s8,a0,8000badc <i_11554>

000000008000bab8 <i_11546>:
    8000bab8:	00190913          	addi	s2,s2,1
    8000babc:	fcd940e3          	blt	s2,a3,8000ba7c <i_11531>

000000008000bac0 <i_11547>:
    8000bac0:	fb813303          	ld	t1,-72(sp)

000000008000bac4 <i_11548>:
    8000bac4:	e6a15b03          	lhu	s6,-406(sp)

000000008000bac8 <i_11549>:
    8000bac8:	01348333          	add	t1,s1,s3

000000008000bacc <i_11550>:
    8000bacc:	fd613423          	sd	s6,-56(sp)

000000008000bad0 <i_11551>:
    8000bad0:	029c0263          	beq	s8,s1,8000baf4 <i_11560>

000000008000bad4 <i_11552>:
    8000bad4:	f0c16c83          	lwu	s9,-244(sp)

000000008000bad8 <i_11553>:
    8000bad8:	f3c11983          	lh	s3,-196(sp)

000000008000badc <i_11554>:
    8000badc:	15911123          	sh	s9,322(sp)

000000008000bae0 <i_11555>:
    8000bae0:	0269c0bb          	divw	ra,s3,t1

000000008000bae4 <i_11556>:
    8000bae4:	00441e63          	bne	s0,tp,8000bb00 <i_11563>

000000008000bae8 <i_11557>:
    8000bae8:	00000013          	nop

000000008000baec <i_11558>:
    8000baec:	00000013          	nop

000000008000baf0 <i_11559>:
    8000baf0:	07416283          	lwu	t0,116(sp)

000000008000baf4 <i_11560>:
    8000baf4:	0bd13023          	sd	t4,160(sp)

000000008000baf8 <i_11561>:
    8000baf8:	fbb12223          	sw	s11,-92(sp)

000000008000bafc <i_11562>:
    8000bafc:	0c013183          	ld	gp,192(sp)

000000008000bb00 <i_11563>:
    8000bb00:	025d8a33          	mul	s4,s11,t0

000000008000bb04 <i_11564>:
    8000bb04:	00f00693          	li	a3,15

000000008000bb08 <i_11565>:
    8000bb08:	00de56b3          	srl	a3,t3,a3

000000008000bb0c <i_11566>:
    8000bb0c:	7d700d93          	li	s11,2007

000000008000bb10 <i_11567>:
    8000bb10:	7de00e93          	li	t4,2014

000000008000bb14 <i_11568>:
    8000bb14:	0346e463          	bltu	a3,s4,8000bb3c <i_11577>

000000008000bb18 <i_11569>:
    8000bb18:	03600693          	li	a3,54

000000008000bb1c <i_11570>:
    8000bb1c:	00dfda33          	srl	s4,t6,a3

000000008000bb20 <i_11571>:
    8000bb20:	001d8d93          	addi	s11,s11,1
    8000bb24:	ffdd96e3          	bne	s11,t4,8000bb10 <i_11567>

000000008000bb28 <i_11572>:
    8000bb28:	14d12c23          	sw	a3,344(sp)

000000008000bb2c <i_11573>:
    8000bb2c:	f6c12903          	lw	s2,-148(sp)

000000008000bb30 <i_11574>:
    8000bb30:	12012903          	lw	s2,288(sp)

000000008000bb34 <i_11575>:
    8000bb34:	03012903          	lw	s2,48(sp)

000000008000bb38 <i_11576>:
    8000bb38:	f2d13c23          	sd	a3,-200(sp)

000000008000bb3c <i_11577>:
    8000bb3c:	e9212023          	sw	s2,-384(sp)

000000008000bb40 <i_11578>:
    8000bb40:	012a6e63          	bltu	s4,s2,8000bb5c <i_11585>

000000008000bb44 <i_11579>:
    8000bb44:	032c5c33          	divu	s8,s8,s2

000000008000bb48 <i_11580>:
    8000bb48:	e2f14683          	lbu	a3,-465(sp)

000000008000bb4c <i_11581>:
    8000bb4c:	08d11623          	sh	a3,140(sp)

000000008000bb50 <i_11582>:
    8000bb50:	002e9a13          	slli	s4,t4,0x2

000000008000bb54 <i_11583>:
    8000bb54:	f1813423          	sd	s8,-248(sp)

000000008000bb58 <i_11584>:
    8000bb58:	023941b3          	div	gp,s2,gp

000000008000bb5c <i_11585>:
    8000bb5c:	00e1f933          	and	s2,gp,a4

000000008000bb60 <i_11586>:
    8000bb60:	012c2ab3          	slt	s5,s8,s2

000000008000bb64 <i_11587>:
    8000bb64:	00000013          	nop

000000008000bb68 <i_11588>:
    8000bb68:	015aaab3          	slt	s5,s5,s5

000000008000bb6c <i_11589>:
    8000bb6c:	87200713          	li	a4,-1934

000000008000bb70 <i_11590>:
    8000bb70:	87a00093          	li	ra,-1926

000000008000bb74 <i_11591>:
    8000bb74:	00000013          	nop

000000008000bb78 <i_11592>:
    8000bb78:	032ae93b          	remw	s2,s5,s2

000000008000bb7c <i_11593>:
    8000bb7c:	87a00293          	li	t0,-1926

000000008000bb80 <i_11594>:
    8000bb80:	88300593          	li	a1,-1917

000000008000bb84 <i_11595>:
    8000bb84:	03297933          	remu	s2,s2,s2

000000008000bb88 <i_11596>:
    8000bb88:	00000013          	nop

000000008000bb8c <i_11597>:
    8000bb8c:	00b77463          	bleu	a1,a4,8000bb94 <i_11599>

000000008000bb90 <i_11598>:
    8000bb90:	e4816303          	lwu	t1,-440(sp)

000000008000bb94 <i_11599>:
    8000bb94:	f3512623          	sw	s5,-212(sp)

000000008000bb98 <i_11600>:
    8000bb98:	0cb13023          	sd	a1,192(sp)

000000008000bb9c <i_11601>:
    8000bb9c:	00128293          	addi	t0,t0,1 # 49aca001 <main-0x36535fff>
    8000bba0:	feb2c2e3          	blt	t0,a1,8000bb84 <i_11595>

000000008000bba4 <i_11602>:
    8000bba4:	e9012883          	lw	a7,-368(sp)

000000008000bba8 <i_11603>:
    8000bba8:	03221063          	bne	tp,s2,8000bbc8 <i_11610>

000000008000bbac <i_11604>:
    8000bbac:	00170713          	addi	a4,a4,1
    8000bbb0:	fce0d2e3          	ble	a4,ra,8000bb74 <i_11591>

000000008000bbb4 <i_11605>:
    8000bbb4:	07310903          	lb	s2,115(sp)

000000008000bbb8 <i_11606>:
    8000bbb8:	00691c63          	bne	s2,t1,8000bbd0 <i_11612>

000000008000bbbc <i_11607>:
    8000bbbc:	10611a23          	sh	t1,276(sp)

000000008000bbc0 <i_11608>:
    8000bbc0:	f7211423          	sh	s2,-152(sp)

000000008000bbc4 <i_11609>:
    8000bbc4:	5d0c8893          	addi	a7,s9,1488 # ac468bf0 <_end+0x2c4587dc>

000000008000bbc8 <i_11610>:
    8000bbc8:	07413823          	sd	s4,112(sp)

000000008000bbcc <i_11611>:
    8000bbcc:	00000013          	nop

000000008000bbd0 <i_11612>:
    8000bbd0:	1c314d03          	lbu	s10,451(sp)

000000008000bbd4 <i_11613>:
    8000bbd4:	0016d693          	srli	a3,a3,0x1

000000008000bbd8 <i_11614>:
    8000bbd8:	8a900913          	li	s2,-1879

000000008000bbdc <i_11615>:
    8000bbdc:	8ba00a13          	li	s4,-1862

000000008000bbe0 <i_11616>:
    8000bbe0:	16d11c23          	sh	a3,376(sp)

000000008000bbe4 <i_11617>:
    8000bbe4:	1a211683          	lh	a3,418(sp)

000000008000bbe8 <i_11618>:
    8000bbe8:	eee15883          	lhu	a7,-274(sp)

000000008000bbec <i_11619>:
    8000bbec:	41990d33          	sub	s10,s2,s9

000000008000bbf0 <i_11620>:
    8000bbf0:	00da7533          	and	a0,s4,a3

000000008000bbf4 <i_11621>:
    8000bbf4:	00190913          	addi	s2,s2,1
    8000bbf8:	ff4914e3          	bne	s2,s4,8000bbe0 <i_11616>

000000008000bbfc <i_11622>:
    8000bbfc:	0328e063          	bltu	a7,s2,8000bc1c <i_11630>

000000008000bc00 <i_11623>:
    8000bc00:	f6016483          	lwu	s1,-160(sp)

000000008000bc04 <i_11624>:
    8000bc04:	03154ebb          	divw	t4,a0,a7

000000008000bc08 <i_11625>:
    8000bc08:	401a5313          	srai	t1,s4,0x1

000000008000bc0c <i_11626>:
    8000bc0c:	026f2933          	mulhsu	s2,t5,t1

000000008000bc10 <i_11627>:
    8000bc10:	0043531b          	srliw	t1,t1,0x4

000000008000bc14 <i_11628>:
    8000bc14:	00d00613          	li	a2,13

000000008000bc18 <i_11629>:
    8000bc18:	40c35f3b          	sraw	t5,t1,a2

000000008000bc1c <i_11630>:
    8000bc1c:	e3611503          	lh	a0,-458(sp)

000000008000bc20 <i_11631>:
    8000bc20:	00700913          	li	s2,7

000000008000bc24 <i_11632>:
    8000bc24:	41265933          	sra	s2,a2,s2

000000008000bc28 <i_11633>:
    8000bc28:	ec814803          	lbu	a6,-312(sp)

000000008000bc2c <i_11634>:
    8000bc2c:	03097463          	bleu	a6,s2,8000bc54 <i_11644>

000000008000bc30 <i_11635>:
    8000bc30:	06c104a3          	sb	a2,105(sp)

000000008000bc34 <i_11636>:
    8000bc34:	00000013          	nop

000000008000bc38 <i_11637>:
    8000bc38:	02a85433          	divu	s0,a6,a0

000000008000bc3c <i_11638>:
    8000bc3c:	0f214283          	lbu	t0,242(sp)

000000008000bc40 <i_11639>:
    8000bc40:	15d10803          	lb	a6,349(sp)

000000008000bc44 <i_11640>:
    8000bc44:	a7ef0f13          	addi	t5,t5,-1410

000000008000bc48 <i_11641>:
    8000bc48:	1b013803          	ld	a6,432(sp)

000000008000bc4c <i_11642>:
    8000bc4c:	00000013          	nop

000000008000bc50 <i_11643>:
    8000bc50:	04016d83          	lwu	s11,64(sp)

000000008000bc54 <i_11644>:
    8000bc54:	0e813c03          	ld	s8,232(sp)

000000008000bc58 <i_11645>:
    8000bc58:	002f5f13          	srli	t5,t5,0x2

000000008000bc5c <i_11646>:
    8000bc5c:	7dc00613          	li	a2,2012

000000008000bc60 <i_11647>:
    8000bc60:	7de00913          	li	s2,2014

000000008000bc64 <i_11648>:
    8000bc64:	aa692f37          	lui	t5,0xaa692

000000008000bc68 <i_11649>:
    8000bc68:	13e11b23          	sh	t5,310(sp)

000000008000bc6c <i_11650>:
    8000bc6c:	001f1c1b          	slliw	s8,t5,0x1

000000008000bc70 <i_11651>:
    8000bc70:	00000013          	nop

000000008000bc74 <i_11652>:
    8000bc74:	00160613          	addi	a2,a2,1
    8000bc78:	ff2616e3          	bne	a2,s2,8000bc64 <i_11648>

000000008000bc7c <i_11653>:
    8000bc7c:	00000013          	nop

000000008000bc80 <i_11654>:
    8000bc80:	50b6869b          	addiw	a3,a3,1291

000000008000bc84 <i_11655>:
    8000bc84:	f5812a03          	lw	s4,-168(sp)

000000008000bc88 <i_11656>:
    8000bc88:	ee814783          	lbu	a5,-280(sp)

000000008000bc8c <i_11657>:
    8000bc8c:	038f5463          	ble	s8,t5,8000bcb4 <i_11667>

000000008000bc90 <i_11658>:
    8000bc90:	02d3d263          	ble	a3,t2,8000bcb4 <i_11667>

000000008000bc94 <i_11659>:
    8000bc94:	fa614683          	lbu	a3,-90(sp)

000000008000bc98 <i_11660>:
    8000bc98:	00000013          	nop

000000008000bc9c <i_11661>:
    8000bc9c:	00f00b93          	li	s7,15

000000008000bca0 <i_11662>:
    8000bca0:	4174543b          	sraw	s0,s0,s7

000000008000bca4 <i_11663>:
    8000bca4:	02846433          	rem	s0,s0,s0

000000008000bca8 <i_11664>:
    8000bca8:	0287e7bb          	remw	a5,a5,s0

000000008000bcac <i_11665>:
    8000bcac:	024bfcbb          	remuw	s9,s7,tp

000000008000bcb0 <i_11666>:
    8000bcb0:	00000013          	nop

000000008000bcb4 <i_11667>:
    8000bcb4:	fe611b83          	lh	s7,-26(sp)

000000008000bcb8 <i_11668>:
    8000bcb8:	00000013          	nop

000000008000bcbc <i_11669>:
    8000bcbc:	83700693          	li	a3,-1993

000000008000bcc0 <i_11670>:
    8000bcc0:	84100913          	li	s2,-1983

000000008000bcc4 <i_11671>:
    8000bcc4:	f6013403          	ld	s0,-160(sp)

000000008000bcc8 <i_11672>:
    8000bcc8:	0ff10403          	lb	s0,255(sp)

000000008000bccc <i_11673>:
    8000bccc:	17411803          	lh	a6,372(sp)

000000008000bcd0 <i_11674>:
    8000bcd0:	004c9493          	slli	s1,s9,0x4

000000008000bcd4 <i_11675>:
    8000bcd4:	4407c193          	xori	gp,a5,1088

000000008000bcd8 <i_11676>:
    8000bcd8:	10013183          	ld	gp,256(sp)

000000008000bcdc <i_11677>:
    8000bcdc:	00168693          	addi	a3,a3,1
    8000bce0:	fed912e3          	bne	s2,a3,8000bcc4 <i_11671>

000000008000bce4 <i_11678>:
    8000bce4:	0034ffb3          	and	t6,s1,gp

000000008000bce8 <i_11679>:
    8000bce8:	03f787b3          	mul	a5,a5,t6

000000008000bcec <i_11680>:
    8000bcec:	7e000493          	li	s1,2016

000000008000bcf0 <i_11681>:
    8000bcf0:	7f000393          	li	t2,2032

000000008000bcf4 <i_11682>:
    8000bcf4:	02f7f1bb          	remuw	gp,a5,a5

000000008000bcf8 <i_11683>:
    8000bcf8:	e2c15c83          	lhu	s9,-468(sp)

000000008000bcfc <i_11684>:
    8000bcfc:	8b000793          	li	a5,-1872

000000008000bd00 <i_11685>:
    8000bd00:	8b600f93          	li	t6,-1866

000000008000bd04 <i_11686>:
    8000bd04:	02379663          	bne	a5,gp,8000bd30 <i_11696>

000000008000bd08 <i_11687>:
    8000bd08:	039cc463          	blt	s9,s9,8000bd30 <i_11696>

000000008000bd0c <i_11688>:
    8000bd0c:	e4215603          	lhu	a2,-446(sp)

000000008000bd10 <i_11689>:
    8000bd10:	00000013          	nop

000000008000bd14 <i_11690>:
    8000bd14:	fc016283          	lwu	t0,-64(sp)

000000008000bd18 <i_11691>:
    8000bd18:	00178793          	addi	a5,a5,1
    8000bd1c:	fff7e4e3          	bltu	a5,t6,8000bd04 <i_11686>

000000008000bd20 <i_11692>:
    8000bd20:	023cf463          	bleu	gp,s9,8000bd48 <i_11701>

000000008000bd24 <i_11693>:
    8000bd24:	f2416283          	lwu	t0,-220(sp)

000000008000bd28 <i_11694>:
    8000bd28:	00319c13          	slli	s8,gp,0x3

000000008000bd2c <i_11695>:
    8000bd2c:	0b611183          	lh	gp,182(sp)

000000008000bd30 <i_11696>:
    8000bd30:	00000013          	nop

000000008000bd34 <i_11697>:
    8000bd34:	0392cfbb          	divw	t6,t0,s9

000000008000bd38 <i_11698>:
    8000bd38:	00148493          	addi	s1,s1,1
    8000bd3c:	fa93dce3          	ble	s1,t2,8000bcf4 <i_11682>

000000008000bd40 <i_11699>:
    8000bd40:	00f10ea3          	sb	a5,29(sp)

000000008000bd44 <i_11700>:
    8000bd44:	0191c863          	blt	gp,s9,8000bd54 <i_11704>

000000008000bd48 <i_11701>:
    8000bd48:	fc811403          	lh	s0,-56(sp)

000000008000bd4c <i_11702>:
    8000bd4c:	02c1e063          	bltu	gp,a2,8000bd6c <i_11710>

000000008000bd50 <i_11703>:
    8000bd50:	039193b3          	mulh	t2,gp,s9

000000008000bd54 <i_11704>:
    8000bd54:	01ff85b3          	add	a1,t6,t6

000000008000bd58 <i_11705>:
    8000bd58:	005fffb3          	and	t6,t6,t0

000000008000bd5c <i_11706>:
    8000bd5c:	01300593          	li	a1,19

000000008000bd60 <i_11707>:
    8000bd60:	00b59cbb          	sllw	s9,a1,a1

000000008000bd64 <i_11708>:
    8000bd64:	ef913023          	sd	s9,-288(sp)

000000008000bd68 <i_11709>:
    8000bd68:	402d5493          	srai	s1,s10,0x2

000000008000bd6c <i_11710>:
    8000bd6c:	02b38263          	beq	t2,a1,8000bd90 <i_11719>

000000008000bd70 <i_11711>:
    8000bd70:	03c00a13          	li	s4,60

000000008000bd74 <i_11712>:
    8000bd74:	01449d33          	sll	s10,s1,s4

000000008000bd78 <i_11713>:
    8000bd78:	ef615483          	lhu	s1,-266(sp)

000000008000bd7c <i_11714>:
    8000bd7c:	01a48a33          	add	s4,s1,s10

000000008000bd80 <i_11715>:
    8000bd80:	fc010603          	lb	a2,-64(sp)

000000008000bd84 <i_11716>:
    8000bd84:	024d7ebb          	remuw	t4,s10,tp

000000008000bd88 <i_11717>:
    8000bd88:	0b314303          	lbu	t1,179(sp)

000000008000bd8c <i_11718>:
    8000bd8c:	00000013          	nop

000000008000bd90 <i_11719>:
    8000bd90:	02d7d633          	divu	a2,a5,a3

000000008000bd94 <i_11720>:
    8000bd94:	00e14e83          	lbu	t4,14(sp)

000000008000bd98 <i_11721>:
    8000bd98:	79400493          	li	s1,1940

000000008000bd9c <i_11722>:
    8000bd9c:	79a00d13          	li	s10,1946

000000008000bda0 <i_11723>:
    8000bda0:	eba10da3          	sb	s10,-325(sp)

000000008000bda4 <i_11724>:
    8000bda4:	005d6263          	bltu	s10,t0,8000bda8 <i_11725>

000000008000bda8 <i_11725>:
    8000bda8:	05816883          	lwu	a7,88(sp)

000000008000bdac <i_11726>:
    8000bdac:	edf14783          	lbu	a5,-289(sp)

000000008000bdb0 <i_11727>:
    8000bdb0:	ee013783          	ld	a5,-288(sp)

000000008000bdb4 <i_11728>:
    8000bdb4:	01be9e63          	bne	t4,s11,8000bdd0 <i_11734>

000000008000bdb8 <i_11729>:
    8000bdb8:	10a15e83          	lhu	t4,266(sp)

000000008000bdbc <i_11730>:
    8000bdbc:	00148493          	addi	s1,s1,1
    8000bdc0:	ffa4e0e3          	bltu	s1,s10,8000bda0 <i_11723>

000000008000bdc4 <i_11731>:
    8000bdc4:	00000013          	nop

000000008000bdc8 <i_11732>:
    8000bdc8:	eee12023          	sw	a4,-288(sp)

000000008000bdcc <i_11733>:
    8000bdcc:	00000013          	nop

000000008000bdd0 <i_11734>:
    8000bdd0:	e4710b03          	lb	s6,-441(sp)

000000008000bdd4 <i_11735>:
    8000bdd4:	00000013          	nop

000000008000bdd8 <i_11736>:
    8000bdd8:	82800893          	li	a7,-2008

000000008000bddc <i_11737>:
    8000bddc:	82e00713          	li	a4,-2002

000000008000bde0 <i_11738>:
    8000bde0:	036b1eb3          	mulh	t4,s6,s6

000000008000bde4 <i_11739>:
    8000bde4:	41d885b3          	sub	a1,a7,t4

000000008000bde8 <i_11740>:
    8000bde8:	01a00793          	li	a5,26

000000008000bdec <i_11741>:
    8000bdec:	00f71e3b          	sllw	t3,a4,a5

000000008000bdf0 <i_11742>:
    8000bdf0:	02b79663          	bne	a5,a1,8000be1c <i_11752>

000000008000bdf4 <i_11743>:
    8000bdf4:	00188893          	addi	a7,a7,1
    8000bdf8:	fee8c4e3          	blt	a7,a4,8000bde0 <i_11738>

000000008000bdfc <i_11744>:
    8000bdfc:	00f58533          	add	a0,a1,a5

000000008000be00 <i_11745>:
    8000be00:	ebc16783          	lwu	a5,-324(sp)

000000008000be04 <i_11746>:
    8000be04:	026e77bb          	remuw	a5,t3,t1

000000008000be08 <i_11747>:
    8000be08:	e2c10783          	lb	a5,-468(sp)

000000008000be0c <i_11748>:
    8000be0c:	17615783          	lhu	a5,374(sp)

000000008000be10 <i_11749>:
    8000be10:	fef10623          	sb	a5,-20(sp)

000000008000be14 <i_11750>:
    8000be14:	09c16783          	lwu	a5,156(sp)

000000008000be18 <i_11751>:
    8000be18:	eaf11223          	sh	a5,-348(sp)

000000008000be1c <i_11752>:
    8000be1c:	00f7f463          	bleu	a5,a5,8000be24 <i_11754>

000000008000be20 <i_11753>:
    8000be20:	02f7e063          	bltu	a5,a5,8000be40 <i_11761>

000000008000be24 <i_11754>:
    8000be24:	00420663          	beq	tp,tp,8000be30 <i_11757>

000000008000be28 <i_11755>:
    8000be28:	db27c793          	xori	a5,a5,-590

000000008000be2c <i_11756>:
    8000be2c:	01200793          	li	a5,18

000000008000be30 <i_11757>:
    8000be30:	00f79dbb          	sllw	s11,a5,a5

000000008000be34 <i_11758>:
    8000be34:	153b87b7          	lui	a5,0x153b8

000000008000be38 <i_11759>:
    8000be38:	0e811803          	lh	a6,232(sp)

000000008000be3c <i_11760>:
    8000be3c:	01214783          	lbu	a5,18(sp)

000000008000be40 <i_11761>:
    8000be40:	00fdce63          	blt	s11,a5,8000be5c <i_11768>

000000008000be44 <i_11762>:
    8000be44:	04014183          	lbu	gp,64(sp)

000000008000be48 <i_11763>:
    8000be48:	02b1d833          	divu	a6,gp,a1

000000008000be4c <i_11764>:
    8000be4c:	00000013          	nop

000000008000be50 <i_11765>:
    8000be50:	00000013          	nop

000000008000be54 <i_11766>:
    8000be54:	1ab12c23          	sw	a1,440(sp)

000000008000be58 <i_11767>:
    8000be58:	00000013          	nop

000000008000be5c <i_11768>:
    8000be5c:	00000013          	nop

000000008000be60 <i_11769>:
    8000be60:	fd215a83          	lhu	s5,-46(sp)

000000008000be64 <i_11770>:
    8000be64:	77400793          	li	a5,1908

000000008000be68 <i_11771>:
    8000be68:	77600593          	li	a1,1910

000000008000be6c <i_11772>:
    8000be6c:	00000013          	nop

000000008000be70 <i_11773>:
    8000be70:	01544663          	blt	s0,s5,8000be7c <i_11776>

000000008000be74 <i_11774>:
    8000be74:	e1c16183          	lwu	gp,-484(sp)

000000008000be78 <i_11775>:
    8000be78:	1c814203          	lbu	tp,456(sp)

000000008000be7c <i_11776>:
    8000be7c:	0107b3b3          	sltu	t2,a5,a6

000000008000be80 <i_11777>:
    8000be80:	021780b3          	mul	ra,a5,ra

000000008000be84 <i_11778>:
    8000be84:	05812803          	lw	a6,88(sp)

000000008000be88 <i_11779>:
    8000be88:	f7012623          	sw	a6,-148(sp)

000000008000be8c <i_11780>:
    8000be8c:	01200b93          	li	s7,18

000000008000be90 <i_11781>:
    8000be90:	017090b3          	sll	ra,ra,s7

000000008000be94 <i_11782>:
    8000be94:	00178793          	addi	a5,a5,1 # 153b8001 <main-0x6ac47fff>
    8000be98:	fcb7eae3          	bltu	a5,a1,8000be6c <i_11772>

000000008000be9c <i_11783>:
    8000be9c:	1ce15f03          	lhu	t5,462(sp)

000000008000bea0 <i_11784>:
    8000bea0:	e8310aa3          	sb	gp,-363(sp)

000000008000bea4 <i_11785>:
    8000bea4:	01c00f13          	li	t5,28

000000008000bea8 <i_11786>:
    8000bea8:	41ef5d33          	sra	s10,t5,t5

000000008000beac <i_11787>:
    8000beac:	7c600093          	li	ra,1990

000000008000beb0 <i_11788>:
    8000beb0:	7ce00193          	li	gp,1998

000000008000beb4 <i_11789>:
    8000beb4:	01e18333          	add	t1,gp,t5

000000008000beb8 <i_11790>:
    8000beb8:	07010d03          	lb	s10,112(sp)

000000008000bebc <i_11791>:
    8000bebc:	e7810503          	lb	a0,-392(sp)

000000008000bec0 <i_11792>:
    8000bec0:	03a11623          	sh	s10,44(sp)

000000008000bec4 <i_11793>:
    8000bec4:	7d000f13          	li	t5,2000

000000008000bec8 <i_11794>:
    8000bec8:	7d900913          	li	s2,2009

000000008000becc <i_11795>:
    8000becc:	0e016603          	lwu	a2,224(sp)

000000008000bed0 <i_11796>:
    8000bed0:	001f0f13          	addi	t5,t5,1 # ffffffffaa692001 <_end+0xffffffff2a681bed>
    8000bed4:	ff2f6ce3          	bltu	t5,s2,8000becc <i_11795>

000000008000bed8 <i_11797>:
    8000bed8:	e5a10503          	lb	a0,-422(sp)

000000008000bedc <i_11798>:
    8000bedc:	00000013          	nop

000000008000bee0 <i_11799>:
    8000bee0:	03b31063          	bne	t1,s11,8000bf00 <i_11806>

000000008000bee4 <i_11800>:
    8000bee4:	11411383          	lh	t2,276(sp)

000000008000bee8 <i_11801>:
    8000bee8:	01b38db3          	add	s11,t2,s11

000000008000beec <i_11802>:
    8000beec:	00a55e63          	ble	a0,a0,8000bf08 <i_11808>

000000008000bef0 <i_11803>:
    8000bef0:	00108093          	addi	ra,ra,1
    8000bef4:	fc11f0e3          	bleu	ra,gp,8000beb4 <i_11789>

000000008000bef8 <i_11804>:
    8000bef8:	64752513          	slti	a0,a0,1607

000000008000befc <i_11805>:
    8000befc:	007def33          	or	t5,s11,t2

000000008000bf00 <i_11806>:
    8000bf00:	31fe039b          	addiw	t2,t3,799

000000008000bf04 <i_11807>:
    8000bf04:	027f5463          	ble	t2,t5,8000bf2c <i_11817>

000000008000bf08 <i_11808>:
    8000bf08:	ed18af17          	auipc	t5,0xed18a

000000008000bf0c <i_11809>:
    8000bf0c:	01b76433          	or	s0,a4,s11

000000008000bf10 <i_11810>:
    8000bf10:	01ed9863          	bne	s11,t5,8000bf20 <i_11814>

000000008000bf14 <i_11811>:
    8000bf14:	15011e83          	lh	t4,336(sp)

000000008000bf18 <i_11812>:
    8000bf18:	01ede463          	bltu	s11,t5,8000bf20 <i_11814>

000000008000bf1c <i_11813>:
    8000bf1c:	03df0463          	beq	t5,t4,8000bf44 <i_11823>

000000008000bf20 <i_11814>:
    8000bf20:	00000013          	nop

000000008000bf24 <i_11815>:
    8000bf24:	ef611223          	sh	s6,-284(sp)

000000008000bf28 <i_11816>:
    8000bf28:	1dd13023          	sd	t4,448(sp)

000000008000bf2c <i_11817>:
    8000bf2c:	03e45433          	divu	s0,s0,t5

000000008000bf30 <i_11818>:
    8000bf30:	3884f913          	andi	s2,s1,904

000000008000bf34 <i_11819>:
    8000bf34:	00000013          	nop

000000008000bf38 <i_11820>:
    8000bf38:	00000013          	nop

000000008000bf3c <i_11821>:
    8000bf3c:	0294f93b          	remuw	s2,s1,s1

000000008000bf40 <i_11822>:
    8000bf40:	fad12023          	sw	a3,-96(sp)

000000008000bf44 <i_11823>:
    8000bf44:	1a912423          	sw	s1,424(sp)

000000008000bf48 <i_11824>:
    8000bf48:	15212823          	sw	s2,336(sp)

000000008000bf4c <i_11825>:
    8000bf4c:	7f400f13          	li	t5,2036

000000008000bf50 <i_11826>:
    8000bf50:	7f900493          	li	s1,2041

000000008000bf54 <i_11827>:
    8000bf54:	001f0f13          	addi	t5,t5,1 # 6d195f09 <main-0x12e6a0f7>
    8000bf58:	ffe4fee3          	bleu	t5,s1,8000bf54 <i_11827>

000000008000bf5c <i_11828>:
    8000bf5c:	01294533          	xor	a0,s2,s2

000000008000bf60 <i_11829>:
    8000bf60:	fd211423          	sh	s2,-56(sp)

000000008000bf64 <i_11830>:
    8000bf64:	009e1e63          	bne	t3,s1,8000bf80 <i_11837>

000000008000bf68 <i_11831>:
    8000bf68:	15c13c23          	sd	t3,344(sp)

000000008000bf6c <i_11832>:
    8000bf6c:	03c5753b          	remuw	a0,a0,t3

000000008000bf70 <i_11833>:
    8000bf70:	18a101a3          	sb	a0,387(sp)

000000008000bf74 <i_11834>:
    8000bf74:	8f654713          	xori	a4,a0,-1802

000000008000bf78 <i_11835>:
    8000bf78:	00000013          	nop

000000008000bf7c <i_11836>:
    8000bf7c:	f9813b83          	ld	s7,-104(sp)

000000008000bf80 <i_11837>:
    8000bf80:	403e5b9b          	sraiw	s7,t3,0x3

000000008000bf84 <i_11838>:
    8000bf84:	00000013          	nop

000000008000bf88 <i_11839>:
    8000bf88:	7c300493          	li	s1,1987

000000008000bf8c <i_11840>:
    8000bf8c:	7cc00e13          	li	t3,1996

000000008000bf90 <i_11841>:
    8000bf90:	15710503          	lb	a0,343(sp)

000000008000bf94 <i_11842>:
    8000bf94:	00000013          	nop

000000008000bf98 <i_11843>:
    8000bf98:	021a1063          	bne	s4,ra,8000bfb8 <i_11850>

000000008000bf9c <i_11844>:
    8000bf9c:	00148493          	addi	s1,s1,1
    8000bfa0:	fe9e58e3          	ble	s1,t3,8000bf90 <i_11841>

000000008000bfa4 <i_11845>:
    8000bfa4:	eae13823          	sd	a4,-336(sp)

000000008000bfa8 <i_11846>:
    8000bfa8:	fc816503          	lwu	a0,-56(sp)

000000008000bfac <i_11847>:
    8000bfac:	00000013          	nop

000000008000bfb0 <i_11848>:
    8000bfb0:	00000013          	nop

000000008000bfb4 <i_11849>:
    8000bfb4:	007a6233          	or	tp,s4,t2

000000008000bfb8 <i_11850>:
    8000bfb8:	f5a10983          	lb	s3,-166(sp)

000000008000bfbc <i_11851>:
    8000bfbc:	1d416b83          	lwu	s7,468(sp)

000000008000bfc0 <i_11852>:
    8000bfc0:	84d00f13          	li	t5,-1971

000000008000bfc4 <i_11853>:
    8000bfc4:	86000393          	li	t2,-1952

000000008000bfc8 <i_11854>:
    8000bfc8:	0e215e03          	lhu	t3,226(sp)

000000008000bfcc <i_11855>:
    8000bfcc:	fa713023          	sd	t2,-96(sp)

000000008000bfd0 <i_11856>:
    8000bfd0:	1bc11023          	sh	t3,416(sp)

000000008000bfd4 <i_11857>:
    8000bfd4:	00000013          	nop

000000008000bfd8 <i_11858>:
    8000bfd8:	024f59b3          	divu	s3,t5,tp

000000008000bfdc <i_11859>:
    8000bfdc:	013bde63          	ble	s3,s7,8000bff8 <i_11865>

000000008000bfe0 <i_11860>:
    8000bfe0:	01c4e433          	or	s0,s1,t3

000000008000bfe4 <i_11861>:
    8000bfe4:	0dd14483          	lbu	s1,221(sp)

000000008000bfe8 <i_11862>:
    8000bfe8:	001f0f13          	addi	t5,t5,1
    8000bfec:	fc7f6ee3          	bltu	t5,t2,8000bfc8 <i_11854>

000000008000bff0 <i_11863>:
    8000bff0:	06013a03          	ld	s4,96(sp)

000000008000bff4 <i_11864>:
    8000bff4:	03445ebb          	divuw	t4,s0,s4

000000008000bff8 <i_11865>:
    8000bff8:	f7c11f03          	lh	t5,-132(sp)

000000008000bffc <i_11866>:
    8000bffc:	02600993          	li	s3,38

000000008000c000 <i_11867>:
    8000c000:	01345ab3          	srl	s5,s0,s3

000000008000c004 <i_11868>:
    8000c004:	0359f063          	bleu	s5,s3,8000c024 <i_11876>

000000008000c008 <i_11869>:
    8000c008:	e6c12e03          	lw	t3,-404(sp)

000000008000c00c <i_11870>:
    8000c00c:	ee813823          	sd	s0,-272(sp)

000000008000c010 <i_11871>:
    8000c010:	028eaab3          	mulhsu	s5,t4,s0

000000008000c014 <i_11872>:
    8000c014:	01700493          	li	s1,23

000000008000c018 <i_11873>:
    8000c018:	00991a3b          	sllw	s4,s2,s1

000000008000c01c <i_11874>:
    8000c01c:	0dc16783          	lwu	a5,220(sp)

000000008000c020 <i_11875>:
    8000c020:	f5313c23          	sd	s3,-168(sp)

000000008000c024 <i_11876>:
    8000c024:	eca11f23          	sh	a0,-290(sp)

000000008000c028 <i_11877>:
    8000c028:	babc0393          	addi	t2,s8,-1109

000000008000c02c <i_11878>:
    8000c02c:	80600993          	li	s3,-2042

000000008000c030 <i_11879>:
    8000c030:	80a00d13          	li	s10,-2038

000000008000c034 <i_11880>:
    8000c034:	18013083          	ld	ra,384(sp)

000000008000c038 <i_11881>:
    8000c038:	00198993          	addi	s3,s3,1
    8000c03c:	ff3d5ce3          	ble	s3,s10,8000c034 <i_11880>

000000008000c040 <i_11882>:
    8000c040:	02900213          	li	tp,41

000000008000c044 <i_11883>:
    8000c044:	4047d233          	sra	tp,a5,tp

000000008000c048 <i_11884>:
    8000c048:	01bad263          	ble	s11,s5,8000c04c <i_11885>

000000008000c04c <i_11885>:
    8000c04c:	e8211b83          	lh	s7,-382(sp)

000000008000c050 <i_11886>:
    8000c050:	f5d104a3          	sb	t4,-183(sp)

000000008000c054 <i_11887>:
    8000c054:	00b00c93          	li	s9,11

000000008000c058 <i_11888>:
    8000c058:	4190d3b3          	sra	t2,ra,s9

000000008000c05c <i_11889>:
    8000c05c:	efc70e9b          	addiw	t4,a4,-260

000000008000c060 <i_11890>:
    8000c060:	01d173b3          	and	t2,sp,t4

000000008000c064 <i_11891>:
    8000c064:	f7d104a3          	sb	t4,-151(sp)

000000008000c068 <i_11892>:
    8000c068:	03500b13          	li	s6,53

000000008000c06c <i_11893>:
    8000c06c:	016090b3          	sll	ra,ra,s6

000000008000c070 <i_11894>:
    8000c070:	12813203          	ld	tp,296(sp)

000000008000c074 <i_11895>:
    8000c074:	1f911123          	sh	s9,482(sp)

000000008000c078 <i_11896>:
    8000c078:	00f00893          	li	a7,15

000000008000c07c <i_11897>:
    8000c07c:	011b10b3          	sll	ra,s6,a7

000000008000c080 <i_11898>:
    8000c080:	01389463          	bne	a7,s3,8000c088 <i_11900>

000000008000c084 <i_11899>:
    8000c084:	1d816903          	lwu	s2,472(sp)

000000008000c088 <i_11900>:
    8000c088:	fbf14483          	lbu	s1,-65(sp)

000000008000c08c <i_11901>:
    8000c08c:	02410e23          	sb	tp,60(sp)

000000008000c090 <i_11902>:
    8000c090:	f3e15f03          	lhu	t5,-194(sp)

000000008000c094 <i_11903>:
    8000c094:	00152533          	slt	a0,a0,ra

000000008000c098 <i_11904>:
    8000c098:	02c12503          	lw	a0,44(sp)

000000008000c09c <i_11905>:
    8000c09c:	02a542bb          	divw	t0,a0,a0

000000008000c0a0 <i_11906>:
    8000c0a0:	005f4c63          	blt	t5,t0,8000c0b8 <i_11912>

000000008000c0a4 <i_11907>:
    8000c0a4:	f7e10f23          	sb	t5,-130(sp)

000000008000c0a8 <i_11908>:
    8000c0a8:	04512023          	sw	t0,64(sp)

000000008000c0ac <i_11909>:
    8000c0ac:	005d7263          	bleu	t0,s10,8000c0b0 <i_11910>

000000008000c0b0 <i_11910>:
    8000c0b0:	02628f33          	mul	t5,t0,t1

000000008000c0b4 <i_11911>:
    8000c0b4:	e7010f03          	lb	t5,-400(sp)

000000008000c0b8 <i_11912>:
    8000c0b8:	00000013          	nop

000000008000c0bc <i_11913>:
    8000c0bc:	fe414f03          	lbu	t5,-28(sp)

000000008000c0c0 <i_11914>:
    8000c0c0:	84400293          	li	t0,-1980

000000008000c0c4 <i_11915>:
    8000c0c4:	85300513          	li	a0,-1965

000000008000c0c8 <i_11916>:
    8000c0c8:	01ef00b3          	add	ra,t5,t5

000000008000c0cc <i_11917>:
    8000c0cc:	e2414f03          	lbu	t5,-476(sp)

000000008000c0d0 <i_11918>:
    8000c0d0:	00128293          	addi	t0,t0,1
    8000c0d4:	fe557ae3          	bleu	t0,a0,8000c0c8 <i_11916>

000000008000c0d8 <i_11919>:
    8000c0d8:	022f7f3b          	remuw	t5,t5,sp

000000008000c0dc <i_11920>:
    8000c0dc:	f5c16683          	lwu	a3,-164(sp)

000000008000c0e0 <i_11921>:
    8000c0e0:	0fb4a493          	slti	s1,s1,251

000000008000c0e4 <i_11922>:
    8000c0e4:	03114f03          	lbu	t5,49(sp)

000000008000c0e8 <i_11923>:
    8000c0e8:	ce8f4517          	auipc	a0,0xce8f4

000000008000c0ec <i_11924>:
    8000c0ec:	7df00a13          	li	s4,2015

000000008000c0f0 <i_11925>:
    8000c0f0:	7e900693          	li	a3,2025

000000008000c0f4 <i_11926>:
    8000c0f4:	01e54533          	xor	a0,a0,t5

000000008000c0f8 <i_11927>:
    8000c0f8:	404ddd9b          	sraiw	s11,s11,0x4

000000008000c0fc <i_11928>:
    8000c0fc:	f7e11623          	sh	t5,-148(sp)

000000008000c100 <i_11929>:
    8000c100:	50b4bc97          	auipc	s9,0x50b4b

000000008000c104 <i_11930>:
    8000c104:	03bcd063          	ble	s11,s9,8000c124 <i_11938>

000000008000c108 <i_11931>:
    8000c108:	f3714183          	lbu	gp,-201(sp)

000000008000c10c <i_11932>:
    8000c10c:	87652d93          	slti	s11,a0,-1930

000000008000c110 <i_11933>:
    8000c110:	0325693b          	remw	s2,a0,s2

000000008000c114 <i_11934>:
    8000c114:	e6a15183          	lhu	gp,-406(sp)

000000008000c118 <i_11935>:
    8000c118:	f8e13c23          	sd	a4,-104(sp)

000000008000c11c <i_11936>:
    8000c11c:	87c70713          	addi	a4,a4,-1924

000000008000c120 <i_11937>:
    8000c120:	01800193          	li	gp,24

000000008000c124 <i_11938>:
    8000c124:	403651b3          	sra	gp,a2,gp

000000008000c128 <i_11939>:
    8000c128:	1311a993          	slti	s3,gp,305

000000008000c12c <i_11940>:
    8000c12c:	01398333          	add	t1,s3,s3

000000008000c130 <i_11941>:
    8000c130:	02e99063          	bne	s3,a4,8000c150 <i_11948>

000000008000c134 <i_11942>:
    8000c134:	001a0a13          	addi	s4,s4,1
    8000c138:	fb46fee3          	bleu	s4,a3,8000c0f4 <i_11926>

000000008000c13c <i_11943>:
    8000c13c:	06311223          	sh	gp,100(sp)

000000008000c140 <i_11944>:
    8000c140:	0f5c6313          	ori	t1,s8,245

000000008000c144 <i_11945>:
    8000c144:	e569be93          	sltiu	t4,s3,-426

000000008000c148 <i_11946>:
    8000c148:	e63103a3          	sb	gp,-409(sp)

000000008000c14c <i_11947>:
    8000c14c:	06013e03          	ld	t3,96(sp)

000000008000c150 <i_11948>:
    8000c150:	015c0c33          	add	s8,s8,s5

000000008000c154 <i_11949>:
    8000c154:	e2016203          	lwu	tp,-480(sp)

000000008000c158 <i_11950>:
    8000c158:	8a800813          	li	a6,-1880

000000008000c15c <i_11951>:
    8000c15c:	8ba00b93          	li	s7,-1862

000000008000c160 <i_11952>:
    8000c160:	0a411723          	sh	tp,174(sp)

000000008000c164 <i_11953>:
    8000c164:	f2611783          	lh	a5,-218(sp)

000000008000c168 <i_11954>:
    8000c168:	1db10a23          	sb	s11,468(sp)

000000008000c16c <i_11955>:
    8000c16c:	00000013          	nop

000000008000c170 <i_11956>:
    8000c170:	017c73b3          	and	t2,s8,s7

000000008000c174 <i_11957>:
    8000c174:	00180813          	addi	a6,a6,1
    8000c178:	ff7864e3          	bltu	a6,s7,8000c160 <i_11952>

000000008000c17c <i_11958>:
    8000c17c:	e7714b83          	lbu	s7,-393(sp)

000000008000c180 <i_11959>:
    8000c180:	029c5263          	ble	s1,s8,8000c1a4 <i_11968>

000000008000c184 <i_11960>:
    8000c184:	02f9f9b3          	remu	s3,s3,a5

000000008000c188 <i_11961>:
    8000c188:	037b9463          	bne	s7,s7,8000c1b0 <i_11971>

000000008000c18c <i_11962>:
    8000c18c:	027c7063          	bleu	t2,s8,8000c1ac <i_11970>

000000008000c190 <i_11963>:
    8000c190:	00c13c23          	sd	a2,24(sp)

000000008000c194 <i_11964>:
    8000c194:	e5016c03          	lwu	s8,-432(sp)

000000008000c198 <i_11965>:
    8000c198:	03589ab3          	mulh	s5,a7,s5

000000008000c19c <i_11966>:
    8000c19c:	00000013          	nop

000000008000c1a0 <i_11967>:
    8000c1a0:	1b111323          	sh	a7,422(sp)

000000008000c1a4 <i_11968>:
    8000c1a4:	f7310183          	lb	gp,-141(sp)

000000008000c1a8 <i_11969>:
    8000c1a8:	40d98abb          	subw	s5,s3,a3

000000008000c1ac <i_11970>:
    8000c1ac:	17813823          	sd	s8,368(sp)

000000008000c1b0 <i_11971>:
    8000c1b0:	17813423          	sd	s8,360(sp)

000000008000c1b4 <i_11972>:
    8000c1b4:	0ff10883          	lb	a7,255(sp)

000000008000c1b8 <i_11973>:
    8000c1b8:	7e900393          	li	t2,2025

000000008000c1bc <i_11974>:
    8000c1bc:	7f000693          	li	a3,2032

000000008000c1c0 <i_11975>:
    8000c1c0:	00138393          	addi	t2,t2,1 # c7181a7d <_end+0x47171669>
    8000c1c4:	fed3eee3          	bltu	t2,a3,8000c1c0 <i_11975>

000000008000c1c8 <i_11976>:
    8000c1c8:	03d3c6b3          	div	a3,t2,t4

000000008000c1cc <i_11977>:
    8000c1cc:	f0311723          	sh	gp,-242(sp)

000000008000c1d0 <i_11978>:
    8000c1d0:	402ad39b          	sraiw	t2,s5,0x2

000000008000c1d4 <i_11979>:
    8000c1d4:	ea712423          	sw	t2,-344(sp)

000000008000c1d8 <i_11980>:
    8000c1d8:	0153f463          	bleu	s5,t2,8000c1e0 <i_11982>

000000008000c1dc <i_11981>:
    8000c1dc:	0af72713          	slti	a4,a4,175

000000008000c1e0 <i_11982>:
    8000c1e0:	fbe14703          	lbu	a4,-66(sp)

000000008000c1e4 <i_11983>:
    8000c1e4:	19412223          	sw	s4,388(sp)

000000008000c1e8 <i_11984>:
    8000c1e8:	16813f83          	ld	t6,360(sp)

000000008000c1ec <i_11985>:
    8000c1ec:	e8e13023          	sd	a4,-384(sp)

000000008000c1f0 <i_11986>:
    8000c1f0:	36ffb3b7          	lui	t2,0x36ffb

000000008000c1f4 <i_11987>:
    8000c1f4:	10e12023          	sw	a4,256(sp)

000000008000c1f8 <i_11988>:
    8000c1f8:	00781663          	bne	a6,t2,8000c204 <i_11991>

000000008000c1fc <i_11989>:
    8000c1fc:	f6812803          	lw	a6,-152(sp)

000000008000c200 <i_11990>:
    8000c200:	03f30533          	mul	a0,t1,t6

000000008000c204 <i_11991>:
    8000c204:	73a3eb13          	ori	s6,t2,1850

000000008000c208 <i_11992>:
    8000c208:	f3f13823          	sd	t6,-208(sp)

000000008000c20c <i_11993>:
    8000c20c:	f7611223          	sh	s6,-156(sp)

000000008000c210 <i_11994>:
    8000c210:	03e3ff3b          	remuw	t5,t2,t5

000000008000c214 <i_11995>:
    8000c214:	868b0f17          	auipc	t5,0x868b0

000000008000c218 <i_11996>:
    8000c218:	0d613823          	sd	s6,208(sp)

000000008000c21c <i_11997>:
    8000c21c:	1d611f03          	lh	t5,470(sp)

000000008000c220 <i_11998>:
    8000c220:	e9e13823          	sd	t5,-368(sp)

000000008000c224 <i_11999>:
    8000c224:	01efaf33          	slt	t5,t6,t5

000000008000c228 <i_12000>:
    8000c228:	00000013          	nop

000000008000c22c <i_12001>:
    8000c22c:	00000013          	nop

000000008000c230 <i_12002>:
    8000c230:	00000013          	nop

000000008000c234 <i_12003>:
    8000c234:	00000013          	nop

000000008000c238 <i_12004>:
    8000c238:	00000013          	nop

000000008000c23c <i_12005>:
    8000c23c:	00000013          	nop

000000008000c240 <i_12006>:
    8000c240:	00000013          	nop

000000008000c244 <i_12007>:
    8000c244:	00000013          	nop

000000008000c248 <i_12008>:
    8000c248:	00000013          	nop

000000008000c24c <i_12009>:
    8000c24c:	00000013          	nop
    8000c250:	0040006f          	j	8000c254 <tohost_exit>

000000008000c254 <tohost_exit>:
    8000c254:	00100113          	li	sp,1
    8000c258:	01f11113          	slli	sp,sp,0x1f
    8000c25c:	000101b7          	lui	gp,0x10
    8000c260:	00310133          	add	sp,sp,gp
    8000c264:	00100713          	li	a4,1
    8000c268:	40e12023          	sw	a4,1024(sp)

000000008000c26c <loop>:
    8000c26c:	0000006f          	j	8000c26c <loop>
    8000c270:	0000                	unimp
	...

Disassembly of section .data:

0000000080010000 <data>:
    80010000:	ff52                	sd	s4,440(sp)
    80010002:	0cad                	addi	s9,s9,11
    80010004:	c94663fb          	0xc94663fb
    80010008:	23746f3b          	0x23746f3b
    8001000c:	1ea6e03b          	0x1ea6e03b
    80010010:	469f 27c1 e6cf      	0xe6cf27c1469f
    80010016:	fb96                	sd	t0,496(sp)
    80010018:	1934                	addi	a3,sp,184
    8001001a:	02f5                	addi	t0,t0,29
    8001001c:	a16d                	j	800104c6 <_end+0xb2>
    8001001e:	0c51                	addi	s8,s8,20
    80010020:	c2c1                	beqz	a3,800100a0 <data+0xa0>
    80010022:	ca508e0b          	0xca508e0b
    80010026:	9de88c2b          	0x9de88c2b
    8001002a:	d87d                	beqz	s0,80010020 <data+0x20>
    8001002c:	018a                	slli	gp,gp,0x2
    8001002e:	89e9                	andi	a1,a1,26
    80010030:	7f22                	ld	t5,40(sp)
    80010032:	1639                	addi	a2,a2,-18
    80010034:	bf14                	fsd	fa3,56(a4)
    80010036:	6085                	lui	ra,0x1
    80010038:	3581                	addiw	a1,a1,-32
    8001003a:	1cec                	addi	a1,sp,636
    8001003c:	eba9                	bnez	a5,8001008e <data+0x8e>
    8001003e:	3fac                	fld	fa1,120(a5)
    80010040:	0b28                	addi	a0,sp,408
    80010042:	d3b99b4f          	fnmadd.d	fs6,fs3,fs11,fs10,rtz
    80010046:	4e49                	li	t3,18
    80010048:	fa7a                	sd	t5,304(sp)
    8001004a:	0f98                	addi	a4,sp,976
    8001004c:	d164c5c3          	fmadd.s	fa1,fs1,fs6,fs10,rmm
    80010050:	6825                	lui	a6,0x9
    80010052:	82c4                	0x82c4
    80010054:	4ef1                	li	t4,28
    80010056:	da1d                	beqz	a2,8000ff8c <loop+0x3d20>
    80010058:	1d90                	addi	a2,sp,752
    8001005a:	3bc1                	addiw	s7,s7,-16
    8001005c:	a171                	j	800104e8 <_end+0xd4>
    8001005e:	e791                	bnez	a5,8001006a <data+0x6a>
    80010060:	62d6                	ld	t0,336(sp)
    80010062:	ff15                	bnez	a4,8000ff9e <loop+0x3d32>
    80010064:	f4b6                	sd	a3,104(sp)
    80010066:	bc38d623          	0xbc38d623
    8001006a:	4a5d                	li	s4,23
    8001006c:	8c96                	mv	s9,t0
    8001006e:	c05f 50ff 9ce0      	0x9ce050ffc05f
    80010074:	c001                	beqz	s0,80010074 <data+0x74>
    80010076:	b488                	fsd	fa0,40(s1)
    80010078:	1d31                	addi	s10,s10,-20
    8001007a:	6ae2                	ld	s5,24(sp)
    8001007c:	1880                	addi	s0,sp,112
    8001007e:	b7f9                	j	8001004c <data+0x4c>
    80010080:	226afaf3          	csrrci	s5,0x226,21
    80010084:	91de                	add	gp,gp,s7
    80010086:	8c8f728b          	0x8c8f728b
    8001008a:	cc38                	sw	a4,88(s0)
    8001008c:	41ad                	li	gp,11
    8001008e:	c065                	beqz	s0,8001016e <data+0x16e>
    80010090:	6261                	lui	tp,0x18
    80010092:	c9c2                	sw	a6,208(sp)
    80010094:	da0c                	sw	a1,48(a2)
    80010096:	b20e                	fsd	ft3,288(sp)
    80010098:	211c                	fld	fa5,0(a0)
    8001009a:	d434                	sw	a3,104(s0)
    8001009c:	65a9bed7          	0x65a9bed7
    800100a0:	0eda                	slli	t4,t4,0x16
    800100a2:	0aca                	slli	s5,s5,0x12
    800100a4:	a627d177          	0xa627d177
    800100a8:	6a2e                	ld	s4,200(sp)
    800100aa:	0016d2eb          	0x16d2eb
    800100ae:	a0ba                	fsd	fa4,64(sp)
    800100b0:	93f5                	srli	a5,a5,0x3d
    800100b2:	cdb1                	beqz	a1,8001010e <data+0x10e>
    800100b4:	3bc0                	fld	fs0,176(a5)
    800100b6:	9c8e                	add	s9,s9,gp
    800100b8:	0408                	addi	a0,sp,512
    800100ba:	36a26bf7          	0x36a26bf7
    800100be:	0b49                	addi	s6,s6,18
    800100c0:	af07bc8b          	0xaf07bc8b
    800100c4:	e581                	bnez	a1,800100cc <data+0xcc>
    800100c6:	2d5d                	addiw	s10,s10,23
    800100c8:	ff82                	sd	zero,504(sp)
    800100ca:	aedd                	j	800104c0 <_end+0xac>
    800100cc:	1ad1                	addi	s5,s5,-12
    800100ce:	f128                	sd	a0,96(a0)
    800100d0:	3c50                	fld	fa2,184(s0)
    800100d2:	b889                	j	8000f924 <loop+0x36b8>
    800100d4:	20d4                	fld	fa3,128(s1)
    800100d6:	44ec                	lw	a1,76(s1)
    800100d8:	72d8                	ld	a4,160(a3)
    800100da:	290d                	addiw	s2,s2,3
    800100dc:	994dc757          	0x994dc757
    800100e0:	1b6a                	slli	s6,s6,0x3a
    800100e2:	f38e                	sd	gp,480(sp)
    800100e4:	91b0                	0x91b0
    800100e6:	ac46                	fsd	fa7,24(sp)
    800100e8:	c6ae                	sw	a1,76(sp)
    800100ea:	d175                	beqz	a0,800100ce <data+0xce>
    800100ec:	91ffebd3          	0x91ffebd3
    800100f0:	3de0                	fld	fs0,248(a1)
    800100f2:	3d5e                	fld	fs10,496(sp)
    800100f4:	7461                	lui	s0,0xffff8
    800100f6:	6cac                	ld	a1,88(s1)
    800100f8:	6f34                	ld	a3,88(a4)
    800100fa:	e2fe                	sd	t6,320(sp)
    800100fc:	1109                	addi	sp,sp,-30
    800100fe:	264a                	fld	fa2,144(sp)
    80010100:	646a                	ld	s0,152(sp)
    80010102:	aa177f43          	fmadd.d	ft10,fa4,ft1,fs5
    80010106:	d24a                	sw	s2,36(sp)
    80010108:	9c8b5bdb          	0x9c8b5bdb
    8001010c:	fc2f2313          	slti	t1,t5,-62
    80010110:	bca1                	j	8000fb68 <loop+0x38fc>
    80010112:	6731                	lui	a4,0xc
    80010114:	3c0d                	addiw	s8,s8,-29
    80010116:	211a                	fld	ft2,384(sp)
    80010118:	7c40                	ld	s0,184(s0)
    8001011a:	3a71                	addiw	s4,s4,-4
    8001011c:	d08d                	beqz	s1,8001003e <data+0x3e>
    8001011e:	23a6                	fld	ft7,72(sp)
    80010120:	56ca                	lw	a3,176(sp)
    80010122:	6ce43d47          	0x6ce43d47
    80010126:	4190                	lw	a2,0(a1)
    80010128:	1a20                	addi	s0,sp,312
    8001012a:	11f2                	slli	gp,gp,0x3c
    8001012c:	9709                	srai	a4,a4,0x22
    8001012e:	8291f8fb          	0x8291f8fb
    80010132:	e38e                	sd	gp,448(sp)
    80010134:	6b48                	ld	a0,144(a4)
    80010136:	b3b0                	fsd	fa2,96(a5)
    80010138:	b00d                	j	8000f95a <loop+0x36ee>
    8001013a:	44b4                	lw	a3,72(s1)
    8001013c:	b194                	fsd	fa3,32(a1)
    8001013e:	8c583bf3          	csrrc	s7,0x8c5,a6
    80010142:	69d1                	lui	s3,0x14
    80010144:	48fc                	lw	a5,84(s1)
    80010146:	93ebbd7b          	0x93ebbd7b
    8001014a:	6d04                	ld	s1,24(a0)
    8001014c:	f1ff                	0xf1ff
    8001014e:	bc1a                	fsd	ft6,56(sp)
    80010150:	9844                	0x9844
    80010152:	0705                	addi	a4,a4,1
    80010154:	f56a                	sd	s10,168(sp)
    80010156:	9e59                	0x9e59
    80010158:	7735d243          	fmadd.q	ft4,fa1,fs3,fa4,unknown
    8001015c:	9245                	srli	a2,a2,0x31
    8001015e:	416d                	li	sp,27
    80010160:	2d2c                	fld	fa1,88(a0)
    80010162:	91c0                	0x91c0
    80010164:	ba30                	fsd	fa2,112(a2)
    80010166:	40aa                	lw	ra,136(sp)
    80010168:	0b68                	addi	a0,sp,412
    8001016a:	1a7d                	addi	s4,s4,-1
    8001016c:	c25437cb          	fnmsub.d	fa5,fs0,ft5,fs8,rup
    80010170:	cac6                	sw	a7,84(sp)
    80010172:	b098                	fsd	fa4,32(s1)
    80010174:	9bff                	0x9bff
    80010176:	b7a8                	fsd	fa0,104(a5)
    80010178:	cd46                	sw	a7,152(sp)
    8001017a:	4ddf 543e 4645      	0x4645543e4ddf
    80010180:	3585                	addiw	a1,a1,-31
    80010182:	ac97f4e3          	bleu	s1,a5,8000fc4a <loop+0x39de>
    80010186:	1006                	c.slli	zero,0x21
    80010188:	828e68b7          	lui	a7,0x828e6
    8001018c:	9bc8                	0x9bc8
    8001018e:	7634                	ld	a3,104(a2)
    80010190:	49449143          	fmadd.s	ft2,fs1,fs4,fs1,rtz
    80010194:	f50a                	sd	sp,168(sp)
    80010196:	1001f767          	0x1001f767
    8001019a:	dcd46e5b          	0xdcd46e5b
    8001019e:	e735                	bnez	a4,8001020a <data+0x20a>
    800101a0:	9bb2                	add	s7,s7,a2
    800101a2:	0280                	addi	s0,sp,320
    800101a4:	9e2cf65b          	0x9e2cf65b
    800101a8:	8be4                	0x8be4
    800101aa:	e7b1                	bnez	a5,800101f6 <data+0x1f6>
    800101ac:	b118                	fsd	fa4,32(a0)
    800101ae:	646a                	ld	s0,152(sp)
    800101b0:	2bb4                	fld	fa3,80(a5)
    800101b2:	1230                	addi	a2,sp,296
    800101b4:	c412                	sw	tp,8(sp)
    800101b6:	801d                	srli	s0,s0,0x7
    800101b8:	3ee0                	fld	fs0,248(a3)
    800101ba:	d9f9                	beqz	a1,80010190 <data+0x190>
    800101bc:	8818                	0x8818
    800101be:	91561227          	0x91561227
    800101c2:	4f65                	li	t5,25
    800101c4:	4634                	lw	a3,72(a2)
    800101c6:	92b5                	srli	a3,a3,0x2d
    800101c8:	7236                	ld	tp,360(sp)
    800101ca:	30dc                	fld	fa5,160(s1)
    800101cc:	e9f0                	sd	a2,208(a1)
    800101ce:	a8c03063          	0xa8c03063
    800101d2:	6726                	ld	a4,72(sp)
    800101d4:	dd14                	sw	a3,56(a0)
    800101d6:	936c                	0x936c
    800101d8:	c0bc                	sw	a5,64(s1)
    800101da:	f4f5                	bnez	s1,800101c6 <data+0x1c6>
    800101dc:	e751                	bnez	a4,80010268 <data+0x268>
    800101de:	75ba                	ld	a1,424(sp)
    800101e0:	f209                	bnez	a2,800100e2 <data+0xe2>
    800101e2:	a45a                	fsd	fs6,8(sp)
    800101e4:	4752                	lw	a4,20(sp)
    800101e6:	50ee                	lw	ra,248(sp)
    800101e8:	7ece43a7          	fsq	fa2,2023(t3)
    800101ec:	f6e8                	sd	a0,232(a3)
    800101ee:	985d                	andi	s0,s0,-9
    800101f0:	7a8ee8a7          	0x7a8ee8a7
    800101f4:	5a8c                	lw	a1,48(a3)
    800101f6:	95f4                	0x95f4
    800101f8:	b7de                	fsd	fs7,488(sp)
    800101fa:	5359                	li	t1,-10
    800101fc:	2ca1                	addiw	s9,s9,8
    800101fe:	a571                	j	8001088a <_end+0x476>
    80010200:	06fd                	addi	a3,a3,31
    80010202:	8a9e4c03          	lbu	s8,-1879(t3)
    80010206:	113d                	addi	sp,sp,-17
    80010208:	584db877          	0x584db877
    8001020c:	54ce                	lw	s1,240(sp)
    8001020e:	5500                	lw	s0,40(a0)
    80010210:	4e4e                	lw	t3,208(sp)
    80010212:	6864                	ld	s1,208(s0)
    80010214:	f279                	bnez	a2,800101da <data+0x1da>
    80010216:	d9da                	sw	s6,240(sp)
    80010218:	3dd8                	fld	fa4,184(a1)
    8001021a:	7e3d                	lui	t3,0xfffef
    8001021c:	d926                	sw	s1,176(sp)
    8001021e:	fb5bcca3          	0xfb5bcca3
    80010222:	c3f2                	sw	t3,196(sp)
    80010224:	8883c8c7          	fmsub.s	fa7,ft7,fs0,fa7,rmm
    80010228:	e141                	bnez	a0,800102a8 <data+0x2a8>
    8001022a:	92e9                	srli	a3,a3,0x3a
    8001022c:	e959                	bnez	a0,800102c2 <data+0x2c2>
    8001022e:	3760                	fld	fs0,232(a4)
    80010230:	ac8d                	j	800104a2 <_end+0x8e>
    80010232:	fbd91bb3          	0xfbd91bb3
    80010236:	2b14                	fld	fa3,16(a4)
    80010238:	82fa                	mv	t0,t5
    8001023a:	6145d947          	fmsub.s	fs2,fa1,fs4,fa2,unknown
    8001023e:	e10c64bf 0155c39f 	0x155c39fe10c64bf
    80010246:	6cd8                	ld	a4,152(s1)
    80010248:	db5d                	beqz	a4,800101fe <data+0x1fe>
    8001024a:	efb9                	bnez	a5,800102a8 <data+0x2a8>
    8001024c:	2470                	fld	fa2,200(s0)
    8001024e:	7ac2                	ld	s5,48(sp)
    80010250:	d898                	sw	a4,48(s1)
    80010252:	4cbe                	lw	s9,204(sp)
    80010254:	fa26                	sd	s1,304(sp)
    80010256:	6f96                	ld	t6,320(sp)
    80010258:	b8d4                	fsd	fa3,176(s1)
    8001025a:	a561                	j	800108e2 <_end+0x4ce>
    8001025c:	d51d                	beqz	a0,8001018a <data+0x18a>
    8001025e:	96c6                	add	a3,a3,a7
    80010260:	79ae                	ld	s3,232(sp)
    80010262:	b2be                	fsd	fa5,352(sp)
    80010264:	b0a4                	fsd	fs1,96(s1)
    80010266:	0b65                	addi	s6,s6,25
    80010268:	ac4e                	fsd	fs3,24(sp)
    8001026a:	9f71                	0x9f71
    8001026c:	a76d                	j	80010a16 <_end+0x602>
    8001026e:	3a94c60b          	0x3a94c60b
    80010272:	7c36                	ld	s8,360(sp)
    80010274:	951a                	add	a0,a0,t1
    80010276:	b9ae                	fsd	fa1,240(sp)
    80010278:	c7f8                	sw	a4,76(a5)
    8001027a:	edc1                	bnez	a1,80010312 <data+0x312>
    8001027c:	43e0                	lw	s0,68(a5)
    8001027e:	517e                	lw	sp,252(sp)
    80010280:	972d                	srai	a4,a4,0x2b
    80010282:	ebf5                	bnez	a5,80010376 <data+0x376>
    80010284:	9c817e47          	0x9c817e47
    80010288:	f1b4                	sd	a3,96(a1)
    8001028a:	c0e9954f          	fnmadd.s	fa0,fs3,fa4,fs8,rtz
    8001028e:	520a                	lw	tp,160(sp)
    80010290:	6de8                	ld	a0,216(a1)
    80010292:	298c                	fld	fa1,16(a1)
    80010294:	6c9e                	ld	s9,448(sp)
    80010296:	15e4                	addi	s1,sp,748
    80010298:	aedd                	j	8001068e <_end+0x27a>
    8001029a:	2ed1                	addiw	t4,t4,20
    8001029c:	e17e                	sd	t6,128(sp)
    8001029e:	26ca                	fld	fa3,144(sp)
    800102a0:	a82dbe07          	fld	ft8,-1406(s11)
    800102a4:	5b85                	li	s7,-31
    800102a6:	f5d4                	sd	a3,168(a1)
    800102a8:	9a24                	0x9a24
    800102aa:	822c243b          	0x822c243b
    800102ae:	5895                	li	a7,-27
    800102b0:	a9d04ccf          	fnmadd.s	fs9,ft0,ft9,fs5,rmm
    800102b4:	2749                	addiw	a4,a4,18
    800102b6:	ee61                	bnez	a2,8001038e <data+0x38e>
    800102b8:	8a69                	andi	a2,a2,26
    800102ba:	50fa                	lw	ra,188(sp)
    800102bc:	4f61                	li	t5,24
    800102be:	c545                	beqz	a0,80010366 <data+0x366>
    800102c0:	8256                	mv	tp,s5
    800102c2:	1838                	addi	a4,sp,56
    800102c4:	b740                	fsd	fs0,168(a4)
    800102c6:	6d25                	lui	s10,0x9
    800102c8:	0de0                	addi	s0,sp,732
    800102ca:	07d81323          	sh	t4,102(a6) # 9066 <main-0x7fff6f9a>
    800102ce:	1c85                	addi	s9,s9,-31
    800102d0:	09a2                	slli	s3,s3,0x8
    800102d2:	de9e                	sw	t2,124(sp)
    800102d4:	482ff2ef          	jal	t0,8010f756 <_end+0xff342>
    800102d8:	a896885b          	0xa896885b
    800102dc:	018b4f47          	fmsub.s	ft10,fs6,fs8,ft0,rmm
    800102e0:	1f62                	slli	t5,t5,0x38
    800102e2:	72bd                	lui	t0,0xfffef
    800102e4:	be16                	fsd	ft5,312(sp)
    800102e6:	4095                	li	ra,5
    800102e8:	2c9d                	addiw	s9,s9,7
    800102ea:	99131db3          	0x99131db3
    800102ee:	8499b637          	lui	a2,0x8499b
    800102f2:	5340                	lw	s0,36(a4)
    800102f4:	d260                	sw	s0,100(a2)
    800102f6:	d77f                	0xd77f
    800102f8:	09be                	slli	s3,s3,0xf
    800102fa:	5e7d                	li	t3,-1
    800102fc:	befa                	fsd	ft10,376(sp)
    800102fe:	271a                	fld	fa4,384(sp)
    80010300:	fb2f59ef          	jal	s3,80005ab2 <i_5599+0x2>
    80010304:	16bad6a7          	0x16bad6a7
    80010308:	15c8                	addi	a0,sp,740
    8001030a:	01f23efb          	0x1f23efb
    8001030e:	e2f4                	sd	a3,192(a3)
    80010310:	966e                	add	a2,a2,s11
    80010312:	dd39                	beqz	a0,80010270 <data+0x270>
    80010314:	4878be2b          	0x4878be2b
    80010318:	7d11                	lui	s10,0xfffe4
    8001031a:	8b71                	andi	a4,a4,28
    8001031c:	df50                	sw	a2,60(a4)
    8001031e:	6e6d                	lui	t3,0x1b
    80010320:	aab2                	fsd	fa2,336(sp)
    80010322:	63d17237          	lui	tp,0x63d17
    80010326:	eafa                	sd	t5,336(sp)
    80010328:	5958                	lw	a4,52(a0)
    8001032a:	aa8f3a43          	fmadd.d	fs4,ft10,fs0,fs5,rup
    8001032e:	96c7f48f          	0x96c7f48f
    80010332:	a3f0                	fsd	fa2,192(a5)
    80010334:	5634                	lw	a3,104(a2)
    80010336:	f848                	sd	a0,176(s0)
    80010338:	ee0a                	sd	sp,280(sp)
    8001033a:	5914                	lw	a3,48(a0)
    8001033c:	b6a4                	fsd	fs1,104(a3)
    8001033e:	18dba73b          	0x18dba73b
    80010342:	f0d1                	bnez	s1,800102c6 <data+0x2c6>
    80010344:	17825af3          	csrrwi	s5,0x178,4
    80010348:	a275                	j	800104f4 <_end+0xe0>
    8001034a:	9e39                	addw	a2,a2,a4
    8001034c:	a35e                	fsd	fs7,384(sp)
    8001034e:	3c6bcaf7          	0x3c6bcaf7
    80010352:	dba9                	beqz	a5,800102a4 <data+0x2a4>
    80010354:	269a                	fld	fa3,384(sp)
    80010356:	e912                	sd	tp,144(sp)
    80010358:	0cdd                	addi	s9,s9,23
    8001035a:	c698                	sw	a4,8(a3)
    8001035c:	5fd80f67          	jalr	t5,1533(a6)
    80010360:	ac5e                	fsd	fs7,24(sp)
    80010362:	882347c3          	fmadd.s	fa5,ft6,ft2,fa7,rmm
    80010366:	fb14                	sd	a3,48(a4)
    80010368:	e908                	sd	a0,16(a0)
    8001036a:	133e                	slli	t1,t1,0x2f
    8001036c:	d7d1                	beqz	a5,800102f8 <data+0x2f8>
    8001036e:	399c                	fld	fa5,48(a1)
    80010370:	73dc                	ld	a5,160(a5)
    80010372:	583d                	li	a6,-17
    80010374:	d2416053          	0xd2416053
    80010378:	7973689b          	0x7973689b
    8001037c:	37dd                	addiw	a5,a5,-9
    8001037e:	3218                	fld	fa4,32(a2)
    80010380:	a25c                	fsd	fa5,128(a2)
    80010382:	f2fd                	bnez	a3,80010368 <data+0x368>
    80010384:	d78a                	sw	sp,236(sp)
    80010386:	292d                	addiw	s2,s2,11
    80010388:	c782                	sw	zero,204(sp)
    8001038a:	e484634f          	0xe484634f
    8001038e:	db7f                	0xdb7f
    80010390:	8992                	mv	s3,tp
    80010392:	e641                	bnez	a2,8001041a <_end+0x6>
    80010394:	01cd                	addi	gp,gp,19
    80010396:	ce04                	sw	s1,24(a2)
    80010398:	2c2ccb87          	flq	fs7,706(s9) # d0b573c2 <_end+0x50b46fae>
    8001039c:	29c39313          	0x29c39313
    800103a0:	b0f6                	fsd	ft9,96(sp)
    800103a2:	e800                	sd	s0,16(s0)
    800103a4:	9898                	0x9898
    800103a6:	a722                	fsd	fs0,392(sp)
    800103a8:	cd773317          	auipc	t1,0xcd773
    800103ac:	d2cc                	sw	a1,36(a3)
    800103ae:	7120                	ld	s0,96(a0)
    800103b0:	4390                	lw	a2,0(a5)
    800103b2:	5e62                	lw	t3,56(sp)
    800103b4:	e5bbfb5b          	0xe5bbfb5b
    800103b8:	7c95                	lui	s9,0xfffe5
    800103ba:	892d                	andi	a0,a0,11
    800103bc:	d2e8                	sw	a0,100(a3)
    800103be:	4250                	lw	a2,4(a2)
    800103c0:	10ec                	addi	a1,sp,108
    800103c2:	57d9630f          	0x57d9630f
    800103c6:	3c6e                	fld	fs8,248(sp)
    800103c8:	3385                	addiw	t2,t2,-31
    800103ca:	d78c                	sw	a1,40(a5)
    800103cc:	97c5dd33          	0x97c5dd33
    800103d0:	112490af          	0x112490af
    800103d4:	e9cd9b2b          	0xe9cd9b2b
    800103d8:	2f74                	fld	fa3,216(a4)
    800103da:	27153d7b          	0x27153d7b
    800103de:	17bc                	addi	a5,sp,1000
    800103e0:	bdb2                	fsd	fa2,248(sp)
    800103e2:	2b25                	addiw	s6,s6,9
    800103e4:	58bc0623          	sb	a1,1420(s8)
    800103e8:	3b02                	fld	fs6,32(sp)
    800103ea:	49e8                	lw	a0,84(a1)
    800103ec:	a258                	fsd	fa4,128(a2)
    800103ee:	e4e2                	sd	s8,72(sp)
    800103f0:	6321055b          	0x6321055b
    800103f4:	b87f                	0xb87f
    800103f6:	fd5c                	sd	a5,184(a0)
    800103f8:	128c                	addi	a1,sp,352
    800103fa:	717c                	ld	a5,224(a0)
    800103fc:	c781                	beqz	a5,80010404 <tohost+0x4>
    800103fe:	ac5f        	0xac5f

Disassembly of section .tohost:

0000000080010400 <tohost>:
	...

0000000080010410 <fromhost>:
    80010410:	0000                	unimp
	...
