
output.riscv:     file format elf64-littleriscv


Disassembly of section .text:

0000000080000000 <main>:
    80000000:	40000137          	lui	sp,0x40000
    80000004:	00111113          	slli	sp,sp,0x1
    80000008:	000101b7          	lui	gp,0x10
    8000000c:	00310133          	add	sp,sp,gp
    80000010:	000032b7          	lui	t0,0x3
    80000014:	3002a073          	csrs	mstatus,t0
    80000018:	09f00293          	li	t0,159
    8000001c:	0032a073          	csrs	fcsr,t0
    80000020:	00813083          	ld	ra,8(sp) # 40000008 <main-0x3ffffff8>
    80000024:	01813183          	ld	gp,24(sp)
    80000028:	02013203          	ld	tp,32(sp)
    8000002c:	02813283          	ld	t0,40(sp)
    80000030:	03013303          	ld	t1,48(sp)
    80000034:	03813383          	ld	t2,56(sp)
    80000038:	04013403          	ld	s0,64(sp)
    8000003c:	04813483          	ld	s1,72(sp)
    80000040:	05013503          	ld	a0,80(sp)
    80000044:	05813583          	ld	a1,88(sp)
    80000048:	06013603          	ld	a2,96(sp)
    8000004c:	06813683          	ld	a3,104(sp)
    80000050:	07013703          	ld	a4,112(sp)
    80000054:	07813783          	ld	a5,120(sp)
    80000058:	08013803          	ld	a6,128(sp)
    8000005c:	08813883          	ld	a7,136(sp)
    80000060:	09013903          	ld	s2,144(sp)
    80000064:	09813983          	ld	s3,152(sp)
    80000068:	0a013a03          	ld	s4,160(sp)
    8000006c:	0a813a83          	ld	s5,168(sp)
    80000070:	0b013b03          	ld	s6,176(sp)
    80000074:	0b813b83          	ld	s7,184(sp)
    80000078:	0c013c03          	ld	s8,192(sp)
    8000007c:	0c813c83          	ld	s9,200(sp)
    80000080:	0d013d03          	ld	s10,208(sp)
    80000084:	0d813d83          	ld	s11,216(sp)
    80000088:	0e013e03          	ld	t3,224(sp)
    8000008c:	0e813e83          	ld	t4,232(sp)
    80000090:	0f013f03          	ld	t5,240(sp)
    80000094:	0f813f83          	ld	t6,248(sp)

0000000080000098 <i_0>:
    80000098:	00000013          	nop

000000008000009c <i_1>:
    8000009c:	00f00213          	li	tp,15

00000000800000a0 <i_2>:
    800000a0:	404a5533          	sra	a0,s4,tp

00000000800000a4 <i_3>:
    800000a4:	80f00e13          	li	t3,-2033

00000000800000a8 <i_4>:
    800000a8:	81a00693          	li	a3,-2022

00000000800000ac <i_5>:
    800000ac:	03457463          	bleu	s4,a0,800000d4 <i_14>

00000000800000b0 <i_6>:
    800000b0:	001e0e13          	addi	t3,t3,1
    800000b4:	ffc6fae3          	bleu	t3,a3,800000a8 <i_4>

00000000800000b8 <i_7>:
    800000b8:	01400193          	li	gp,20

00000000800000bc <i_8>:
    800000bc:	40355a3b          	sraw	s4,a0,gp

00000000800000c0 <i_9>:
    800000c0:	edf11e23          	sh	t6,-292(sp)

00000000800000c4 <i_10>:
    800000c4:	004d6463          	bltu	s10,tp,800000cc <i_12>

00000000800000c8 <i_11>:
    800000c8:	014f6a33          	or	s4,t5,s4

00000000800000cc <i_12>:
    800000cc:	1a510c23          	sb	t0,440(sp)

00000000800000d0 <i_13>:
    800000d0:	ea110923          	sb	ra,-334(sp)

00000000800000d4 <i_14>:
    800000d4:	ed211d23          	sh	s2,-294(sp)

00000000800000d8 <i_15>:
    800000d8:	07816283          	lwu	t0,120(sp)

00000000800000dc <i_16>:
    800000dc:	41b28cb3          	sub	s9,t0,s11

00000000800000e0 <i_17>:
    800000e0:	01000213          	li	tp,16

00000000800000e4 <i_18>:
    800000e4:	404a583b          	sraw	a6,s4,tp

00000000800000e8 <i_19>:
    800000e8:	edc12783          	lw	a5,-292(sp)

00000000800000ec <i_20>:
    800000ec:	07e15a03          	lhu	s4,126(sp)

00000000800000f0 <i_21>:
    800000f0:	f74106a3          	sb	s4,-147(sp)

00000000800000f4 <i_22>:
    800000f4:	1135c797          	auipc	a5,0x1135c

00000000800000f8 <i_23>:
    800000f8:	1bc10e83          	lb	t4,444(sp)

00000000800000fc <i_24>:
    800000fc:	01487663          	bleu	s4,a6,80000108 <i_27>

0000000080000100 <i_25>:
    80000100:	f5013603          	ld	a2,-176(sp)

0000000080000104 <i_26>:
    80000104:	fb314283          	lbu	t0,-77(sp)

0000000080000108 <i_27>:
    80000108:	027ef53b          	remuw	a0,t4,t2

000000008000010c <i_28>:
    8000010c:	e4615783          	lhu	a5,-442(sp)

0000000080000110 <i_29>:
    80000110:	04114603          	lbu	a2,65(sp)

0000000080000114 <i_30>:
    80000114:	18610f23          	sb	t1,414(sp)

0000000080000118 <i_31>:
    80000118:	fee11083          	lh	ra,-18(sp)

000000008000011c <i_32>:
    8000011c:	02016a83          	lwu	s5,32(sp)

0000000080000120 <i_33>:
    80000120:	0153b0b3          	sltu	ra,t2,s5

0000000080000124 <i_34>:
    80000124:	ffb10a83          	lb	s5,-5(sp)

0000000080000128 <i_35>:
    80000128:	01500493          	li	s1,21

000000008000012c <i_36>:
    8000012c:	409654bb          	sraw	s1,a2,s1

0000000080000130 <i_37>:
    80000130:	88300413          	li	s0,-1917

0000000080000134 <i_38>:
    80000134:	89400793          	li	a5,-1900

0000000080000138 <i_39>:
    80000138:	11f10d83          	lb	s11,287(sp)

000000008000013c <i_40>:
    8000013c:	0ec11e83          	lh	t4,236(sp)

0000000080000140 <i_41>:
    80000140:	01ad5463          	ble	s10,s10,80000148 <i_43>

0000000080000144 <i_42>:
    80000144:	fb412d83          	lw	s11,-76(sp)

0000000080000148 <i_43>:
    80000148:	c439a993          	slti	s3,s3,-957

000000008000014c <i_44>:
    8000014c:	0139f9b3          	and	s3,s3,s3

0000000080000150 <i_45>:
    80000150:	00140413          	addi	s0,s0,1
    80000154:	fef410e3          	bne	s0,a5,80000134 <i_38>

0000000080000158 <i_46>:
    80000158:	00000013          	nop

000000008000015c <i_47>:
    8000015c:	e2a15983          	lhu	s3,-470(sp)

0000000080000160 <i_48>:
    80000160:	7e700d93          	li	s11,2023

0000000080000164 <i_49>:
    80000164:	7f400c13          	li	s8,2036

0000000080000168 <i_50>:
    80000168:	e7812623          	sw	s8,-404(sp)

000000008000016c <i_51>:
    8000016c:	028989b3          	mul	s3,s3,s0

0000000080000170 <i_52>:
    80000170:	62edf993          	andi	s3,s11,1582

0000000080000174 <i_53>:
    80000174:	004d9593          	slli	a1,s11,0x4

0000000080000178 <i_54>:
    80000178:	001d8d93          	addi	s11,s11,1
    8000017c:	ffbc56e3          	ble	s11,s8,80000168 <i_50>

0000000080000180 <i_55>:
    80000180:	f7c16603          	lwu	a2,-132(sp)

0000000080000184 <i_56>:
    80000184:	01b6f663          	bleu	s11,a3,80000190 <i_59>

0000000080000188 <i_57>:
    80000188:	07314983          	lbu	s3,115(sp)

000000008000018c <i_58>:
    8000018c:	05311f23          	sh	s3,94(sp)

0000000080000190 <i_59>:
    80000190:	1ac10223          	sb	a2,420(sp)

0000000080000194 <i_60>:
    80000194:	89037b13          	andi	s6,t1,-1904

0000000080000198 <i_61>:
    80000198:	74c00c13          	li	s8,1868

000000008000019c <i_62>:
    8000019c:	75100d93          	li	s11,1873

00000000800001a0 <i_63>:
    800001a0:	f3a10783          	lb	a5,-198(sp)

00000000800001a4 <i_64>:
    800001a4:	00f38633          	add	a2,t2,a5

00000000800001a8 <i_65>:
    800001a8:	00000013          	nop

00000000800001ac <i_66>:
    800001ac:	001c0c13          	addi	s8,s8,1
    800001b0:	ff8dd8e3          	ble	s8,s11,800001a0 <i_63>

00000000800001b4 <i_67>:
    800001b4:	12c16783          	lwu	a5,300(sp)

00000000800001b8 <i_68>:
    800001b8:	02900993          	li	s3,41

00000000800001bc <i_69>:
    800001bc:	0137d0b3          	srl	ra,a5,s3

00000000800001c0 <i_70>:
    800001c0:	f2a14983          	lbu	s3,-214(sp)

00000000800001c4 <i_71>:
    800001c4:	fc610783          	lb	a5,-58(sp)

00000000800001c8 <i_72>:
    800001c8:	01300193          	li	gp,19

00000000800001cc <i_73>:
    800001cc:	003997b3          	sll	a5,s3,gp

00000000800001d0 <i_74>:
    800001d0:	ea913c23          	sd	s1,-328(sp)

00000000800001d4 <i_75>:
    800001d4:	ff914a83          	lbu	s5,-7(sp)

00000000800001d8 <i_76>:
    800001d8:	03379463          	bne	a5,s3,80000200 <i_86>

00000000800001dc <i_77>:
    800001dc:	0211b433          	mulhu	s0,gp,ra

00000000800001e0 <i_78>:
    800001e0:	00138663          	beq	t2,ra,800001ec <i_81>

00000000800001e4 <i_79>:
    800001e4:	00f7e263          	bltu	a5,a5,800001e8 <i_80>

00000000800001e8 <i_80>:
    800001e8:	e9410d03          	lb	s10,-364(sp)

00000000800001ec <i_81>:
    800001ec:	f2012b03          	lw	s6,-224(sp)

00000000800001f0 <i_82>:
    800001f0:	95a9e393          	ori	t2,s3,-1702

00000000800001f4 <i_83>:
    800001f4:	01019663          	bne	gp,a6,80000200 <i_86>

00000000800001f8 <i_84>:
    800001f8:	00000013          	nop

00000000800001fc <i_85>:
    800001fc:	90d1f193          	andi	gp,gp,-1779

0000000080000200 <i_86>:
    80000200:	eb611a23          	sh	s6,-332(sp)

0000000080000204 <i_87>:
    80000204:	0231d1b3          	divu	gp,gp,gp

0000000080000208 <i_88>:
    80000208:	84e00d13          	li	s10,-1970

000000008000020c <i_89>:
    8000020c:	85800993          	li	s3,-1960

0000000080000210 <i_90>:
    80000210:	0031d463          	ble	gp,gp,80000218 <i_92>

0000000080000214 <i_91>:
    80000214:	12d12423          	sw	a3,296(sp)

0000000080000218 <i_92>:
    80000218:	e2312223          	sw	gp,-476(sp)

000000008000021c <i_93>:
    8000021c:	0e312a23          	sw	gp,244(sp)

0000000080000220 <i_94>:
    80000220:	02845063          	ble	s0,s0,80000240 <i_102>

0000000080000224 <i_95>:
    80000224:	007d8f33          	add	t5,s11,t2

0000000080000228 <i_96>:
    80000228:	00415d83          	lhu	s11,4(sp)

000000008000022c <i_97>:
    8000022c:	e1d14d83          	lbu	s11,-483(sp)

0000000080000230 <i_98>:
    80000230:	0a811d83          	lh	s11,168(sp)

0000000080000234 <i_99>:
    80000234:	00c00f13          	li	t5,12

0000000080000238 <i_100>:
    80000238:	41eeda33          	sra	s4,t4,t5

000000008000023c <i_101>:
    8000023c:	fe214f03          	lbu	t5,-30(sp)

0000000080000240 <i_102>:
    80000240:	03bdfeb3          	remu	t4,s11,s11

0000000080000244 <i_103>:
    80000244:	e9411c23          	sh	s4,-360(sp)

0000000080000248 <i_104>:
    80000248:	001d0d13          	addi	s10,s10,1
    8000024c:	fda9d2e3          	ble	s10,s3,80000210 <i_90>

0000000080000250 <i_105>:
    80000250:	e7013603          	ld	a2,-400(sp)

0000000080000254 <i_106>:
    80000254:	00f00e13          	li	t3,15

0000000080000258 <i_107>:
    80000258:	41c8583b          	sraw	a6,a6,t3

000000008000025c <i_108>:
    8000025c:	41bd8833          	sub	a6,s11,s11

0000000080000260 <i_109>:
    80000260:	59ce4813          	xori	a6,t3,1436

0000000080000264 <i_110>:
    80000264:	01a00813          	li	a6,26

0000000080000268 <i_111>:
    80000268:	4104543b          	sraw	s0,s0,a6

000000008000026c <i_112>:
    8000026c:	0ac16d83          	lwu	s11,172(sp)

0000000080000270 <i_113>:
    80000270:	00279593          	slli	a1,a5,0x2

0000000080000274 <i_114>:
    80000274:	009dfa63          	bleu	s1,s11,80000288 <i_119>

0000000080000278 <i_115>:
    80000278:	090101a3          	sb	a6,131(sp)

000000008000027c <i_116>:
    8000027c:	1b011b23          	sh	a6,438(sp)

0000000080000280 <i_117>:
    80000280:	00b69263          	bne	a3,a1,80000284 <i_118>

0000000080000284 <i_118>:
    80000284:	1c013583          	ld	a1,448(sp)

0000000080000288 <i_119>:
    80000288:	008d9263          	bne	s11,s0,8000028c <i_120>

000000008000028c <i_120>:
    8000028c:	ec012803          	lw	a6,-320(sp)

0000000080000290 <i_121>:
    80000290:	0cc11583          	lh	a1,204(sp)

0000000080000294 <i_122>:
    80000294:	01811d83          	lh	s11,24(sp)

0000000080000298 <i_123>:
    80000298:	7a644337          	lui	t1,0x7a644

000000008000029c <i_124>:
    8000029c:	04b11323          	sh	a1,70(sp)

00000000800002a0 <i_125>:
    800002a0:	00000013          	nop

00000000800002a4 <i_126>:
    800002a4:	8d300d93          	li	s11,-1837

00000000800002a8 <i_127>:
    800002a8:	8db00513          	li	a0,-1829

00000000800002ac <i_128>:
    800002ac:	03b8483b          	divw	a6,a6,s11

00000000800002b0 <i_129>:
    800002b0:	f7a10683          	lb	a3,-134(sp)

00000000800002b4 <i_130>:
    800002b4:	ee214a83          	lbu	s5,-286(sp)

00000000800002b8 <i_131>:
    800002b8:	ee410d13          	addi	s10,sp,-284

00000000800002bc <i_132>:
    800002bc:	cf753593          	sltiu	a1,a0,-777

00000000800002c0 <i_133>:
    800002c0:	001d8d93          	addi	s11,s11,1
    800002c4:	feade4e3          	bltu	s11,a0,800002ac <i_128>

00000000800002c8 <i_134>:
    800002c8:	004a8c33          	add	s8,s5,tp

00000000800002cc <i_135>:
    800002cc:	02ca9c33          	mulh	s8,s5,a2

00000000800002d0 <i_136>:
    800002d0:	40ac0c33          	sub	s8,s8,a0

00000000800002d4 <i_137>:
    800002d4:	0276d0b3          	divu	ra,a3,t2

00000000800002d8 <i_138>:
    800002d8:	06c11523          	sh	a2,106(sp)

00000000800002dc <i_139>:
    800002dc:	4a18bc37          	lui	s8,0x4a18b

00000000800002e0 <i_140>:
    800002e0:	1ad10da3          	sb	a3,443(sp)

00000000800002e4 <i_141>:
    800002e4:	16012583          	lw	a1,352(sp)

00000000800002e8 <i_142>:
    800002e8:	16816303          	lwu	t1,360(sp)

00000000800002ec <i_143>:
    800002ec:	41730f3b          	subw	t5,t1,s7

00000000800002f0 <i_144>:
    800002f0:	4043529b          	sraiw	t0,t1,0x4

00000000800002f4 <i_145>:
    800002f4:	01300213          	li	tp,19

00000000800002f8 <i_146>:
    800002f8:	4042d33b          	sraw	t1,t0,tp

00000000800002fc <i_147>:
    800002fc:	79d00c93          	li	s9,1949

0000000080000300 <i_148>:
    80000300:	7b100393          	li	t2,1969

0000000080000304 <i_149>:
    80000304:	0252e263          	bltu	t0,t0,80000328 <i_157>

0000000080000308 <i_150>:
    80000308:	03874c3b          	divw	s8,a4,s8

000000008000030c <i_151>:
    8000030c:	11811f23          	sh	s8,286(sp)

0000000080000310 <i_152>:
    80000310:	025cf663          	bleu	t0,s9,8000033c <i_162>

0000000080000314 <i_153>:
    80000314:	16411f23          	sh	tp,382(sp)

0000000080000318 <i_154>:
    80000318:	001c8c93          	addi	s9,s9,1
    8000031c:	ff93d2e3          	ble	s9,t2,80000300 <i_148>

0000000080000320 <i_155>:
    80000320:	f4012283          	lw	t0,-192(sp)

0000000080000324 <i_156>:
    80000324:	f4015303          	lhu	t1,-192(sp)

0000000080000328 <i_157>:
    80000328:	0d012383          	lw	t2,208(sp)

000000008000032c <i_158>:
    8000032c:	7aa22213          	slti	tp,tp,1962

0000000080000330 <i_159>:
    80000330:	024245bb          	divw	a1,tp,tp

0000000080000334 <i_160>:
    80000334:	40458bb3          	sub	s7,a1,tp

0000000080000338 <i_161>:
    80000338:	5c627213          	andi	tp,tp,1478

000000008000033c <i_162>:
    8000033c:	00220663          	beq	tp,sp,80000348 <i_165>

0000000080000340 <i_163>:
    80000340:	fce10203          	lb	tp,-50(sp)

0000000080000344 <i_164>:
    80000344:	004bec63          	bltu	s7,tp,8000035c <i_170>

0000000080000348 <i_165>:
    80000348:	024cfe3b          	remuw	t3,s9,tp

000000008000034c <i_166>:
    8000034c:	0c615e83          	lhu	t4,198(sp)

0000000080000350 <i_167>:
    80000350:	f2f13423          	sd	a5,-216(sp)

0000000080000354 <i_168>:
    80000354:	1a611723          	sh	t1,430(sp)

0000000080000358 <i_169>:
    80000358:	f9013c83          	ld	s9,-112(sp)

000000008000035c <i_170>:
    8000035c:	12c16403          	lwu	s0,300(sp)

0000000080000360 <i_171>:
    80000360:	40345c13          	srai	s8,s0,0x3

0000000080000364 <i_172>:
    80000364:	00500c13          	li	s8,5

0000000080000368 <i_173>:
    80000368:	01865433          	srl	s0,a2,s8

000000008000036c <i_174>:
    8000036c:	83a00b93          	li	s7,-1990

0000000080000370 <i_175>:
    80000370:	84900613          	li	a2,-1975

0000000080000374 <i_176>:
    80000374:	f1016d83          	lwu	s11,-240(sp)

0000000080000378 <i_177>:
    80000378:	00000013          	nop

000000008000037c <i_178>:
    8000037c:	002bdc93          	srli	s9,s7,0x2

0000000080000380 <i_179>:
    80000380:	8febfd93          	andi	s11,s7,-1794

0000000080000384 <i_180>:
    80000384:	001b8b93          	addi	s7,s7,1
    80000388:	fecbe4e3          	bltu	s7,a2,80000370 <i_175>

000000008000038c <i_181>:
    8000038c:	18412c83          	lw	s9,388(sp)

0000000080000390 <i_182>:
    80000390:	17810aa3          	sb	s8,373(sp)

0000000080000394 <i_183>:
    80000394:	e6a109a3          	sb	a0,-397(sp)

0000000080000398 <i_184>:
    80000398:	08815b83          	lhu	s7,136(sp)

000000008000039c <i_185>:
    8000039c:	025dd463          	ble	t0,s11,800003c4 <i_195>

00000000800003a0 <i_186>:
    800003a0:	01d1d463          	ble	t4,gp,800003a8 <i_188>

00000000800003a4 <i_187>:
    800003a4:	fbc12183          	lw	gp,-68(sp)

00000000800003a8 <i_188>:
    800003a8:	003d8c63          	beq	s11,gp,800003c0 <i_194>

00000000800003ac <i_189>:
    800003ac:	003babb3          	slt	s7,s7,gp

00000000800003b0 <i_190>:
    800003b0:	eb110503          	lb	a0,-335(sp)

00000000800003b4 <i_191>:
    800003b4:	0034fa63          	bleu	gp,s1,800003c8 <i_196>

00000000800003b8 <i_192>:
    800003b8:	026502b3          	mul	t0,a0,t1

00000000800003bc <i_193>:
    800003bc:	b2950d13          	addi	s10,a0,-1239

00000000800003c0 <i_194>:
    800003c0:	025983bb          	mulw	t2,s3,t0

00000000800003c4 <i_195>:
    800003c4:	16511423          	sh	t0,360(sp)

00000000800003c8 <i_196>:
    800003c8:	01ee6e33          	or	t3,t3,t5

00000000800003cc <i_197>:
    800003cc:	00a1fa63          	bleu	a0,gp,800003e0 <i_202>

00000000800003d0 <i_198>:
    800003d0:	06110d03          	lb	s10,97(sp)

00000000800003d4 <i_199>:
    800003d4:	02dd76bb          	remuw	a3,s10,a3

00000000800003d8 <i_200>:
    800003d8:	027396b3          	mulh	a3,t2,t2

00000000800003dc <i_201>:
    800003dc:	eca10223          	sb	a0,-316(sp)

00000000800003e0 <i_202>:
    800003e0:	00700393          	li	t2,7

00000000800003e4 <i_203>:
    800003e4:	007e5a3b          	srlw	s4,t3,t2

00000000800003e8 <i_204>:
    800003e8:	0016d39b          	srliw	t2,a3,0x1

00000000800003ec <i_205>:
    800003ec:	e42a7393          	andi	t2,s4,-446

00000000800003f0 <i_206>:
    800003f0:	01400693          	li	a3,20

00000000800003f4 <i_207>:
    800003f4:	00d69d3b          	sllw	s10,a3,a3

00000000800003f8 <i_208>:
    800003f8:	77d00413          	li	s0,1917

00000000800003fc <i_209>:
    800003fc:	78f00a13          	li	s4,1935

0000000080000400 <i_210>:
    80000400:	10812423          	sw	s0,264(sp)

0000000080000404 <i_211>:
    80000404:	f0d10423          	sb	a3,-248(sp)

0000000080000408 <i_212>:
    80000408:	0a510683          	lb	a3,165(sp)

000000008000040c <i_213>:
    8000040c:	00dd0863          	beq	s10,a3,8000041c <i_217>

0000000080000410 <i_214>:
    80000410:	01a6d263          	ble	s10,a3,80000414 <i_215>

0000000080000414 <i_215>:
    80000414:	02d18663          	beq	gp,a3,80000440 <i_225>

0000000080000418 <i_216>:
    80000418:	14416d83          	lwu	s11,324(sp)

000000008000041c <i_217>:
    8000041c:	18edfb93          	andi	s7,s11,398

0000000080000420 <i_218>:
    80000420:	00dd8db3          	add	s11,s11,a3

0000000080000424 <i_219>:
    80000424:	00140413          	addi	s0,s0,1
    80000428:	fd444ce3          	blt	s0,s4,80000400 <i_210>

000000008000042c <i_220>:
    8000042c:	407b8d33          	sub	s10,s7,t2

0000000080000430 <i_221>:
    80000430:	0ad10223          	sb	a3,164(sp)

0000000080000434 <i_222>:
    80000434:	01e00613          	li	a2,30

0000000080000438 <i_223>:
    80000438:	00c3d53b          	srlw	a0,t2,a2

000000008000043c <i_224>:
    8000043c:	f4a13c23          	sd	a0,-168(sp)

0000000080000440 <i_225>:
    80000440:	e6416083          	lwu	ra,-412(sp)

0000000080000444 <i_226>:
    80000444:	07211983          	lh	s3,114(sp)

0000000080000448 <i_227>:
    80000448:	04010503          	lb	a0,64(sp)

000000008000044c <i_228>:
    8000044c:	eca10823          	sb	a0,-304(sp)

0000000080000450 <i_229>:
    80000450:	4039d29b          	sraiw	t0,s3,0x3

0000000080000454 <i_230>:
    80000454:	ee412503          	lw	a0,-284(sp)

0000000080000458 <i_231>:
    80000458:	12510ba3          	sb	t0,311(sp)

000000008000045c <i_232>:
    8000045c:	12514283          	lbu	t0,293(sp)

0000000080000460 <i_233>:
    80000460:	e4a13423          	sd	a0,-440(sp)

0000000080000464 <i_234>:
    80000464:	ff416d03          	lwu	s10,-12(sp)

0000000080000468 <i_235>:
    80000468:	fcc12503          	lw	a0,-52(sp)

000000008000046c <i_236>:
    8000046c:	01c00213          	li	tp,28

0000000080000470 <i_237>:
    80000470:	004d523b          	srlw	tp,s10,tp

0000000080000474 <i_238>:
    80000474:	e7c12d03          	lw	s10,-388(sp)

0000000080000478 <i_239>:
    80000478:	038d5c33          	divu	s8,s10,s8

000000008000047c <i_240>:
    8000047c:	002a9a9b          	slliw	s5,s5,0x2

0000000080000480 <i_241>:
    80000480:	03af8db3          	mul	s11,t6,s10

0000000080000484 <i_242>:
    80000484:	856dea93          	ori	s5,s11,-1962

0000000080000488 <i_243>:
    80000488:	03b40dbb          	mulw	s11,s0,s11

000000008000048c <i_244>:
    8000048c:	001dd613          	srli	a2,s11,0x1

0000000080000490 <i_245>:
    80000490:	40365d9b          	sraiw	s11,a2,0x3

0000000080000494 <i_246>:
    80000494:	07b14303          	lbu	t1,123(sp)

0000000080000498 <i_247>:
    80000498:	02331063          	bne	t1,gp,800004b8 <i_255>

000000008000049c <i_248>:
    8000049c:	003b31b3          	sltu	gp,s6,gp

00000000800004a0 <i_249>:
    800004a0:	00000013          	nop

00000000800004a4 <i_250>:
    800004a4:	03f3633b          	remw	t1,t1,t6

00000000800004a8 <i_251>:
    800004a8:	fcc10c83          	lb	s9,-52(sp)

00000000800004ac <i_252>:
    800004ac:	0e814c03          	lbu	s8,232(sp)

00000000800004b0 <i_253>:
    800004b0:	0a412c03          	lw	s8,164(sp)

00000000800004b4 <i_254>:
    800004b4:	ed813423          	sd	s8,-312(sp)

00000000800004b8 <i_255>:
    800004b8:	038c0c33          	mul	s8,s8,s8

00000000800004bc <i_256>:
    800004bc:	f7310a03          	lb	s4,-141(sp)

00000000800004c0 <i_257>:
    800004c0:	77000613          	li	a2,1904

00000000800004c4 <i_258>:
    800004c4:	78000e93          	li	t4,1920

00000000800004c8 <i_259>:
    800004c8:	0cc15c03          	lhu	s8,204(sp)

00000000800004cc <i_260>:
    800004cc:	1d513c23          	sd	s5,472(sp)

00000000800004d0 <i_261>:
    800004d0:	7d300d93          	li	s11,2003

00000000800004d4 <i_262>:
    800004d4:	7e500b13          	li	s6,2021

00000000800004d8 <i_263>:
    800004d8:	fac15c03          	lhu	s8,-84(sp)

00000000800004dc <i_264>:
    800004dc:	001d8d93          	addi	s11,s11,1
    800004e0:	ffbb7ce3          	bleu	s11,s6,800004d8 <i_263>

00000000800004e4 <i_265>:
    800004e4:	17813823          	sd	s8,368(sp)

00000000800004e8 <i_266>:
    800004e8:	00160613          	addi	a2,a2,1
    800004ec:	fdd64ee3          	blt	a2,t4,800004c8 <i_259>

00000000800004f0 <i_267>:
    800004f0:	0180da63          	ble	s8,ra,80000504 <i_272>

00000000800004f4 <i_268>:
    800004f4:	038c0263          	beq	s8,s8,80000518 <i_277>

00000000800004f8 <i_269>:
    800004f8:	00000013          	nop

00000000800004fc <i_270>:
    800004fc:	1e016a03          	lwu	s4,480(sp)

0000000080000500 <i_271>:
    80000500:	016c0b33          	add	s6,s8,s6

0000000080000504 <i_272>:
    80000504:	18e15b03          	lhu	s6,398(sp)

0000000080000508 <i_273>:
    80000508:	00000013          	nop

000000008000050c <i_274>:
    8000050c:	f7811a83          	lh	s5,-136(sp)

0000000080000510 <i_275>:
    80000510:	004c5f1b          	srliw	t5,s8,0x4

0000000080000514 <i_276>:
    80000514:	1e214783          	lbu	a5,482(sp)

0000000080000518 <i_277>:
    80000518:	fe016283          	lwu	t0,-32(sp)

000000008000051c <i_278>:
    8000051c:	44bd6d13          	ori	s10,s10,1099

0000000080000520 <i_279>:
    80000520:	78700c13          	li	s8,1927

0000000080000524 <i_280>:
    80000524:	79600193          	li	gp,1942

0000000080000528 <i_281>:
    80000528:	03819bb3          	mulh	s7,gp,s8

000000008000052c <i_282>:
    8000052c:	00fc5463          	ble	a5,s8,80000534 <i_284>

0000000080000530 <i_283>:
    80000530:	12014783          	lbu	a5,288(sp)

0000000080000534 <i_284>:
    80000534:	05c11783          	lh	a5,92(sp)

0000000080000538 <i_285>:
    80000538:	02f6c7b3          	div	a5,a3,a5

000000008000053c <i_286>:
    8000053c:	017a2eb3          	slt	t4,s4,s7

0000000080000540 <i_287>:
    80000540:	001c0c13          	addi	s8,s8,1 # 4a18b001 <main-0x35e74fff>
    80000544:	fe3c62e3          	bltu	s8,gp,80000528 <i_281>

0000000080000548 <i_288>:
    80000548:	00f79c63          	bne	a5,a5,80000560 <i_294>

000000008000054c <i_289>:
    8000054c:	00013303          	ld	t1,0(sp)

0000000080000550 <i_290>:
    80000550:	00db8333          	add	t1,s7,a3

0000000080000554 <i_291>:
    80000554:	0377733b          	remuw	t1,a4,s7

0000000080000558 <i_292>:
    80000558:	0fc11183          	lh	gp,252(sp)

000000008000055c <i_293>:
    8000055c:	10380c93          	addi	s9,a6,259

0000000080000560 <i_294>:
    80000560:	003c6533          	or	a0,s8,gp

0000000080000564 <i_295>:
    80000564:	e2414383          	lbu	t2,-476(sp)

0000000080000568 <i_296>:
    80000568:	8a500813          	li	a6,-1883

000000008000056c <i_297>:
    8000056c:	8a800b93          	li	s7,-1880

0000000080000570 <i_298>:
    80000570:	35cc819b          	addiw	gp,s9,860

0000000080000574 <i_299>:
    80000574:	403b8cbb          	subw	s9,s7,gp

0000000080000578 <i_300>:
    80000578:	006cc463          	blt	s9,t1,80000580 <i_302>

000000008000057c <i_301>:
    8000057c:	00785663          	ble	t2,a6,80000588 <i_304>

0000000080000580 <i_302>:
    80000580:	72b0ec97          	auipc	s9,0x72b0e

0000000080000584 <i_303>:
    80000584:	0071f9b3          	and	s3,gp,t2

0000000080000588 <i_304>:
    80000588:	023399b3          	mulh	s3,t2,gp

000000008000058c <i_305>:
    8000058c:	18312a23          	sw	gp,404(sp)

0000000080000590 <i_306>:
    80000590:	00180813          	addi	a6,a6,1
    80000594:	fd784ee3          	blt	a6,s7,80000570 <i_298>

0000000080000598 <i_307>:
    80000598:	00739e63          	bne	t2,t2,800005b4 <i_314>

000000008000059c <i_308>:
    8000059c:	f1711423          	sh	s7,-248(sp)

00000000800005a0 <i_309>:
    800005a0:	0bc12e23          	sw	t3,188(sp)

00000000800005a4 <i_310>:
    800005a4:	019c84b3          	add	s1,s9,s9

00000000800005a8 <i_311>:
    800005a8:	15710f23          	sb	s7,350(sp)

00000000800005ac <i_312>:
    800005ac:	fdf10d03          	lb	s10,-33(sp)

00000000800005b0 <i_313>:
    800005b0:	027e8063          	beq	t4,t2,800005d0 <i_321>

00000000800005b4 <i_314>:
    800005b4:	35886513          	ori	a0,a6,856

00000000800005b8 <i_315>:
    800005b8:	f1811b83          	lh	s7,-232(sp)

00000000800005bc <i_316>:
    800005bc:	02556633          	rem	a2,a0,t0

00000000800005c0 <i_317>:
    800005c0:	00a56bb3          	or	s7,a0,a0

00000000800005c4 <i_318>:
    800005c4:	fc512223          	sw	t0,-60(sp)

00000000800005c8 <i_319>:
    800005c8:	e6016603          	lwu	a2,-416(sp)

00000000800005cc <i_320>:
    800005cc:	ebd10323          	sb	t4,-346(sp)

00000000800005d0 <i_321>:
    800005d0:	01d9ea63          	bltu	s3,t4,800005e4 <i_326>

00000000800005d4 <i_322>:
    800005d4:	11a10c83          	lb	s9,282(sp)

00000000800005d8 <i_323>:
    800005d8:	01d57eb3          	and	t4,a0,t4

00000000800005dc <i_324>:
    800005dc:	033cd4bb          	divuw	s1,s9,s3

00000000800005e0 <i_325>:
    800005e0:	00289c9b          	slliw	s9,a7,0x2

00000000800005e4 <i_326>:
    800005e4:	019c8a63          	beq	s9,s9,800005f8 <i_331>

00000000800005e8 <i_327>:
    800005e8:	00a3e463          	bltu	t2,a0,800005f0 <i_329>

00000000800005ec <i_328>:
    800005ec:	019efc63          	bleu	s9,t4,80000604 <i_334>

00000000800005f0 <i_329>:
    800005f0:	f0012503          	lw	a0,-256(sp)

00000000800005f4 <i_330>:
    800005f4:	00000013          	nop

00000000800005f8 <i_331>:
    800005f8:	fb813503          	ld	a0,-72(sp)

00000000800005fc <i_332>:
    800005fc:	0e710023          	sb	t2,224(sp)

0000000080000600 <i_333>:
    80000600:	04a13c23          	sd	a0,88(sp)

0000000080000604 <i_334>:
    80000604:	0e811c83          	lh	s9,232(sp)

0000000080000608 <i_335>:
    80000608:	1c610603          	lb	a2,454(sp)

000000008000060c <i_336>:
    8000060c:	75100b93          	li	s7,1873

0000000080000610 <i_337>:
    80000610:	75c00393          	li	t2,1884

0000000080000614 <i_338>:
    80000614:	02a56cb3          	rem	s9,a0,a0

0000000080000618 <i_339>:
    80000618:	00000013          	nop

000000008000061c <i_340>:
    8000061c:	80800293          	li	t0,-2040

0000000080000620 <i_341>:
    80000620:	81900493          	li	s1,-2023

0000000080000624 <i_342>:
    80000624:	0124c333          	xor	t1,s1,s2

0000000080000628 <i_343>:
    80000628:	fd812e03          	lw	t3,-40(sp)

000000008000062c <i_344>:
    8000062c:	00128293          	addi	t0,t0,1 # 3001 <main-0x7fffcfff>
    80000630:	fe92eae3          	bltu	t0,s1,80000624 <i_342>

0000000080000634 <i_345>:
    80000634:	00900c93          	li	s9,9

0000000080000638 <i_346>:
    80000638:	019312bb          	sllw	t0,t1,s9

000000008000063c <i_347>:
    8000063c:	001b8b93          	addi	s7,s7,1
    80000640:	fd739ae3          	bne	t2,s7,80000614 <i_338>

0000000080000644 <i_348>:
    80000644:	026cec3b          	remw	s8,s9,t1

0000000080000648 <i_349>:
    80000648:	00000013          	nop

000000008000064c <i_350>:
    8000064c:	73600293          	li	t0,1846

0000000080000650 <i_351>:
    80000650:	74a00313          	li	t1,1866

0000000080000654 <i_352>:
    80000654:	00669e63          	bne	a3,t1,80000670 <i_359>

0000000080000658 <i_353>:
    80000658:	01d00693          	li	a3,29

000000008000065c <i_354>:
    8000065c:	00d295bb          	sllw	a1,t0,a3

0000000080000660 <i_355>:
    80000660:	11c12823          	sw	t3,272(sp)

0000000080000664 <i_356>:
    80000664:	026e4533          	div	a0,t3,t1

0000000080000668 <i_357>:
    80000668:	03c2e0b3          	rem	ra,t0,t3

000000008000066c <i_358>:
    8000066c:	ebc11083          	lh	ra,-324(sp)

0000000080000670 <i_359>:
    80000670:	00000013          	nop

0000000080000674 <i_360>:
    80000674:	00000013          	nop

0000000080000678 <i_361>:
    80000678:	87200e13          	li	t3,-1934

000000008000067c <i_362>:
    8000067c:	87a00b13          	li	s6,-1926

0000000080000680 <i_363>:
    80000680:	001e0e13          	addi	t3,t3,1
    80000684:	ff6e6ee3          	bltu	t3,s6,80000680 <i_363>

0000000080000688 <i_364>:
    80000688:	e4813983          	ld	s3,-440(sp)

000000008000068c <i_365>:
    8000068c:	f5310823          	sb	s3,-176(sp)

0000000080000690 <i_366>:
    80000690:	0c415583          	lhu	a1,196(sp)

0000000080000694 <i_367>:
    80000694:	0c113c23          	sd	ra,216(sp)

0000000080000698 <i_368>:
    80000698:	00128293          	addi	t0,t0,1
    8000069c:	fa535ce3          	ble	t0,t1,80000654 <i_352>

00000000800006a0 <i_369>:
    800006a0:	f5210783          	lb	a5,-174(sp)

00000000800006a4 <i_370>:
    800006a4:	019e5c63          	ble	s9,t3,800006bc <i_376>

00000000800006a8 <i_371>:
    800006a8:	038286b3          	mul	a3,t0,s8

00000000800006ac <i_372>:
    800006ac:	07014c83          	lbu	s9,112(sp)

00000000800006b0 <i_373>:
    800006b0:	1f910123          	sb	s9,482(sp)

00000000800006b4 <i_374>:
    800006b4:	11f10183          	lb	gp,287(sp)

00000000800006b8 <i_375>:
    800006b8:	fe016c03          	lwu	s8,-32(sp)

00000000800006bc <i_376>:
    800006bc:	01818c33          	add	s8,gp,s8

00000000800006c0 <i_377>:
    800006c0:	18016c03          	lwu	s8,384(sp)

00000000800006c4 <i_378>:
    800006c4:	78000293          	li	t0,1920

00000000800006c8 <i_379>:
    800006c8:	79400b13          	li	s6,1940

00000000800006cc <i_380>:
    800006cc:	02eb5797          	auipc	a5,0x2eb5

00000000800006d0 <i_381>:
    800006d0:	00128293          	addi	t0,t0,1
    800006d4:	fe5b1ce3          	bne	s6,t0,800006cc <i_380>

00000000800006d8 <i_382>:
    800006d8:	00fc6c63          	bltu	s8,a5,800006f0 <i_388>

00000000800006dc <i_383>:
    800006dc:	1b412303          	lw	t1,436(sp)

00000000800006e0 <i_384>:
    800006e0:	00000013          	nop

00000000800006e4 <i_385>:
    800006e4:	00000013          	nop

00000000800006e8 <i_386>:
    800006e8:	fd210c03          	lb	s8,-46(sp)

00000000800006ec <i_387>:
    800006ec:	00000013          	nop

00000000800006f0 <i_388>:
    800006f0:	00000013          	nop

00000000800006f4 <i_389>:
    800006f4:	030c3333          	mulhu	t1,s8,a6

00000000800006f8 <i_390>:
    800006f8:	73a00193          	li	gp,1850

00000000800006fc <i_391>:
    800006fc:	74c00293          	li	t0,1868

0000000080000700 <i_392>:
    80000700:	eb013423          	sd	a6,-344(sp)

0000000080000704 <i_393>:
    80000704:	1c013803          	ld	a6,448(sp)

0000000080000708 <i_394>:
    80000708:	f4013a83          	ld	s5,-192(sp)

000000008000070c <i_395>:
    8000070c:	03f34663          	blt	t1,t6,80000738 <i_405>

0000000080000710 <i_396>:
    80000710:	00131a1b          	slliw	s4,t1,0x1

0000000080000714 <i_397>:
    80000714:	00118193          	addi	gp,gp,1 # 10001 <main-0x7ffeffff>
    80000718:	fe51e4e3          	bltu	gp,t0,80000700 <i_392>

000000008000071c <i_398>:
    8000071c:	ed012a83          	lw	s5,-304(sp)

0000000080000720 <i_399>:
    80000720:	1ac11423          	sh	a2,424(sp)

0000000080000724 <i_400>:
    80000724:	00c30833          	add	a6,t1,a2

0000000080000728 <i_401>:
    80000728:	02816e83          	lwu	t4,40(sp)

000000008000072c <i_402>:
    8000072c:	62b32813          	slti	a6,t1,1579

0000000080000730 <i_403>:
    80000730:	01713c23          	sd	s7,24(sp)

0000000080000734 <i_404>:
    80000734:	ebb14b83          	lbu	s7,-325(sp)

0000000080000738 <i_405>:
    80000738:	0263633b          	remw	t1,t1,t1

000000008000073c <i_406>:
    8000073c:	15016d03          	lwu	s10,336(sp)

0000000080000740 <i_407>:
    80000740:	7b300c13          	li	s8,1971

0000000080000744 <i_408>:
    80000744:	7c500613          	li	a2,1989

0000000080000748 <i_409>:
    80000748:	00000013          	nop

000000008000074c <i_410>:
    8000074c:	004d7263          	bleu	tp,s10,80000750 <i_411>

0000000080000750 <i_411>:
    80000750:	026bceb3          	div	t4,s7,t1

0000000080000754 <i_412>:
    80000754:	08611b23          	sh	t1,150(sp)

0000000080000758 <i_413>:
    80000758:	ece14e83          	lbu	t4,-306(sp)

000000008000075c <i_414>:
    8000075c:	53480b17          	auipc	s6,0x53480

0000000080000760 <i_415>:
    80000760:	fca11203          	lh	tp,-54(sp)

0000000080000764 <i_416>:
    80000764:	001c0c13          	addi	s8,s8,1
    80000768:	ff8610e3          	bne	a2,s8,80000748 <i_409>

000000008000076c <i_417>:
    8000076c:	03ad6833          	rem	a6,s10,s10

0000000080000770 <i_418>:
    80000770:	03c12d03          	lw	s10,60(sp)

0000000080000774 <i_419>:
    80000774:	02437eb3          	remu	t4,t1,tp

0000000080000778 <i_420>:
    80000778:	7da00213          	li	tp,2010

000000008000077c <i_421>:
    8000077c:	7e800313          	li	t1,2024

0000000080000780 <i_422>:
    80000780:	01eef833          	and	a6,t4,t5

0000000080000784 <i_423>:
    80000784:	024103a3          	sb	tp,39(sp)

0000000080000788 <i_424>:
    80000788:	01da1a63          	bne	s4,t4,8000079c <i_429>

000000008000078c <i_425>:
    8000078c:	00479863          	bne	a5,tp,8000079c <i_429>

0000000080000790 <i_426>:
    80000790:	02634cb3          	div	s9,t1,t1

0000000080000794 <i_427>:
    80000794:	03400b13          	li	s6,52

0000000080000798 <i_428>:
    80000798:	016817b3          	sll	a5,a6,s6

000000008000079c <i_429>:
    8000079c:	01a00413          	li	s0,26

00000000800007a0 <i_430>:
    800007a0:	008c97bb          	sllw	a5,s9,s0

00000000800007a4 <i_431>:
    800007a4:	02600e93          	li	t4,38

00000000800007a8 <i_432>:
    800007a8:	41d85b33          	sra	s6,a6,t4

00000000800007ac <i_433>:
    800007ac:	00120213          	addi	tp,tp,1 # 1 <main-0x7fffffff>
    800007b0:	fc6268e3          	bltu	tp,t1,80000780 <i_422>

00000000800007b4 <i_434>:
    800007b4:	03100693          	li	a3,49

00000000800007b8 <i_435>:
    800007b8:	40dedcb3          	sra	s9,t4,a3

00000000800007bc <i_436>:
    800007bc:	e9610f23          	sb	s6,-354(sp)

00000000800007c0 <i_437>:
    800007c0:	3b10bc93          	sltiu	s9,ra,945

00000000800007c4 <i_438>:
    800007c4:	01911663          	bne	sp,s9,800007d0 <i_441>

00000000800007c8 <i_439>:
    800007c8:	f6914683          	lbu	a3,-151(sp)

00000000800007cc <i_440>:
    800007cc:	03611283          	lh	t0,54(sp)

00000000800007d0 <i_441>:
    800007d0:	0276c83b          	divw	a6,a3,t2

00000000800007d4 <i_442>:
    800007d4:	e3a11303          	lh	t1,-454(sp)

00000000800007d8 <i_443>:
    800007d8:	8d300393          	li	t2,-1837

00000000800007dc <i_444>:
    800007dc:	8d800213          	li	tp,-1832

00000000800007e0 <i_445>:
    800007e0:	e1a11683          	lh	a3,-486(sp)

00000000800007e4 <i_446>:
    800007e4:	0018531b          	srliw	t1,a6,0x1

00000000800007e8 <i_447>:
    800007e8:	09a11e03          	lh	t3,154(sp)

00000000800007ec <i_448>:
    800007ec:	fa611923          	sh	t1,-78(sp)

00000000800007f0 <i_449>:
    800007f0:	00000013          	nop

00000000800007f4 <i_450>:
    800007f4:	02681463          	bne	a6,t1,8000081c <i_459>

00000000800007f8 <i_451>:
    800007f8:	fe610da3          	sb	t1,-5(sp)

00000000800007fc <i_452>:
    800007fc:	00138393          	addi	t2,t2,1
    80000800:	fe43c0e3          	blt	t2,tp,800007e0 <i_445>

0000000080000804 <i_453>:
    80000804:	02c10d83          	lb	s11,44(sp)

0000000080000808 <i_454>:
    80000808:	07e11303          	lh	t1,126(sp)

000000008000080c <i_455>:
    8000080c:	03b3c063          	blt	t2,s11,8000082c <i_463>

0000000080000810 <i_456>:
    80000810:	01bd9263          	bne	s11,s11,80000814 <i_457>

0000000080000814 <i_457>:
    80000814:	fe613823          	sd	t1,-16(sp)

0000000080000818 <i_458>:
    80000818:	03b5e463          	bltu	a1,s11,80000840 <i_468>

000000008000081c <i_459>:
    8000081c:	10416d83          	lwu	s11,260(sp)

0000000080000820 <i_460>:
    80000820:	01cc9e63          	bne	s9,t3,8000083c <i_467>

0000000080000824 <i_461>:
    80000824:	0bc107a3          	sb	t3,175(sp)

0000000080000828 <i_462>:
    80000828:	03bd9db3          	mulh	s11,s11,s11

000000008000082c <i_463>:
    8000082c:	03534e3b          	divw	t3,t1,s5

0000000080000830 <i_464>:
    80000830:	01ee6ab3          	or	s5,t3,t5

0000000080000834 <i_465>:
    80000834:	01caea63          	bltu	s5,t3,80000848 <i_470>

0000000080000838 <i_466>:
    80000838:	10412d83          	lw	s11,260(sp)

000000008000083c <i_467>:
    8000083c:	01600d93          	li	s11,22

0000000080000840 <i_468>:
    80000840:	01be1e3b          	sllw	t3,t3,s11

0000000080000844 <i_469>:
    80000844:	01e58263          	beq	a1,t5,80000848 <i_470>

0000000080000848 <i_470>:
    80000848:	015f0263          	beq	t5,s5,8000084c <i_471>

000000008000084c <i_471>:
    8000084c:	015e6863          	bltu	t3,s5,8000085c <i_475>

0000000080000850 <i_472>:
    80000850:	0f416e03          	lwu	t3,244(sp)

0000000080000854 <i_473>:
    80000854:	f3c12623          	sw	t3,-212(sp)

0000000080000858 <i_474>:
    80000858:	01c12c23          	sw	t3,24(sp)

000000008000085c <i_475>:
    8000085c:	1ab10c03          	lb	s8,427(sp)

0000000080000860 <i_476>:
    80000860:	e8714e03          	lbu	t3,-377(sp)

0000000080000864 <i_477>:
    80000864:	01c51863          	bne	a0,t3,80000874 <i_481>

0000000080000868 <i_478>:
    80000868:	eda11e03          	lh	t3,-294(sp)

000000008000086c <i_479>:
    8000086c:	d5ee2c13          	slti	s8,t3,-674

0000000080000870 <i_480>:
    80000870:	01caec63          	bltu	s5,t3,80000888 <i_486>

0000000080000874 <i_481>:
    80000874:	03cdc9bb          	divw	s3,s11,t3

0000000080000878 <i_482>:
    80000878:	fe416d83          	lwu	s11,-28(sp)

000000008000087c <i_483>:
    8000087c:	15b13423          	sd	s11,328(sp)

0000000080000880 <i_484>:
    80000880:	0ae15d83          	lhu	s11,174(sp)

0000000080000884 <i_485>:
    80000884:	8d3b5c37          	lui	s8,0x8d3b5

0000000080000888 <i_486>:
    80000888:	03ce0dbb          	mulw	s11,t3,t3

000000008000088c <i_487>:
    8000088c:	00000013          	nop

0000000080000890 <i_488>:
    80000890:	8b900993          	li	s3,-1863

0000000080000894 <i_489>:
    80000894:	8c600a93          	li	s5,-1850

0000000080000898 <i_490>:
    80000898:	e4414683          	lbu	a3,-444(sp)

000000008000089c <i_491>:
    8000089c:	01100b93          	li	s7,17

00000000800008a0 <i_492>:
    800008a0:	017e1bbb          	sllw	s7,t3,s7

00000000800008a4 <i_493>:
    800008a4:	19811d23          	sh	s8,410(sp)

00000000800008a8 <i_494>:
    800008a8:	00000013          	nop

00000000800008ac <i_495>:
    800008ac:	00198993          	addi	s3,s3,1
    800008b0:	ff3ad4e3          	ble	s3,s5,80000898 <i_490>

00000000800008b4 <i_496>:
    800008b4:	ef811b23          	sh	s8,-266(sp)

00000000800008b8 <i_497>:
    800008b8:	03811023          	sh	s8,32(sp)

00000000800008bc <i_498>:
    800008bc:	0376a6b3          	mulhsu	a3,a3,s7

00000000800008c0 <i_499>:
    800008c0:	01c12603          	lw	a2,28(sp)

00000000800008c4 <i_500>:
    800008c4:	0306d063          	ble	a6,a3,800008e4 <i_508>

00000000800008c8 <i_501>:
    800008c8:	02c6d263          	ble	a2,a3,800008ec <i_510>

00000000800008cc <i_502>:
    800008cc:	02c61263          	bne	a2,a2,800008f0 <i_511>

00000000800008d0 <i_503>:
    800008d0:	8f5d9d97          	auipc	s11,0x8f5d9

00000000800008d4 <i_504>:
    800008d4:	415686bb          	subw	a3,a3,s5

00000000800008d8 <i_505>:
    800008d8:	f0913823          	sd	s1,-240(sp)

00000000800008dc <i_506>:
    800008dc:	f3b11923          	sh	s11,-206(sp)

00000000800008e0 <i_507>:
    800008e0:	00700613          	li	a2,7

00000000800008e4 <i_508>:
    800008e4:	00c65cbb          	srlw	s9,a2,a2

00000000800008e8 <i_509>:
    800008e8:	00012483          	lw	s1,0(sp)

00000000800008ec <i_510>:
    800008ec:	02813983          	ld	s3,40(sp)

00000000800008f0 <i_511>:
    800008f0:	013a05b3          	add	a1,s4,s3

00000000800008f4 <i_512>:
    800008f4:	003dd793          	srli	a5,s11,0x3

00000000800008f8 <i_513>:
    800008f8:	7c600a13          	li	s4,1990

00000000800008fc <i_514>:
    800008fc:	7cb00c93          	li	s9,1995

0000000080000900 <i_515>:
    80000900:	e3910403          	lb	s0,-455(sp)

0000000080000904 <i_516>:
    80000904:	bbe95637          	lui	a2,0xbbe95

0000000080000908 <i_517>:
    80000908:	001a0a13          	addi	s4,s4,1
    8000090c:	ff9a4ae3          	blt	s4,s9,80000900 <i_515>

0000000080000910 <i_518>:
    80000910:	ffd10c03          	lb	s8,-3(sp)

0000000080000914 <i_519>:
    80000914:	4021d21b          	sraiw	tp,gp,0x2

0000000080000918 <i_520>:
    80000918:	1a415e83          	lhu	t4,420(sp)

000000008000091c <i_521>:
    8000091c:	f2215083          	lhu	ra,-222(sp)

0000000080000920 <i_522>:
    80000920:	e2815583          	lhu	a1,-472(sp)

0000000080000924 <i_523>:
    80000924:	00884f33          	xor	t5,a6,s0

0000000080000928 <i_524>:
    80000928:	03e25463          	ble	t5,tp,80000950 <i_534>

000000008000092c <i_525>:
    8000092c:	06016383          	lwu	t2,96(sp)

0000000080000930 <i_526>:
    80000930:	17412d03          	lw	s10,372(sp)

0000000080000934 <i_527>:
    80000934:	11e13823          	sd	t5,272(sp)

0000000080000938 <i_528>:
    80000938:	f6816e03          	lwu	t3,-152(sp)

000000008000093c <i_529>:
    8000093c:	404e5c9b          	sraiw	s9,t3,0x4

0000000080000940 <i_530>:
    80000940:	00d1ea63          	bltu	gp,a3,80000954 <i_535>

0000000080000944 <i_531>:
    80000944:	768f0f1b          	addiw	t5,t5,1896

0000000080000948 <i_532>:
    80000948:	0013cc63          	blt	t2,ra,80000960 <i_538>

000000008000094c <i_533>:
    8000094c:	03012d03          	lw	s10,48(sp)

0000000080000950 <i_534>:
    80000950:	1da13c23          	sd	s10,472(sp)

0000000080000954 <i_535>:
    80000954:	d790c093          	xori	ra,ra,-647

0000000080000958 <i_536>:
    80000958:	fd114183          	lbu	gp,-47(sp)

000000008000095c <i_537>:
    8000095c:	16615203          	lhu	tp,358(sp)

0000000080000960 <i_538>:
    80000960:	01220663          	beq	tp,s2,8000096c <i_541>

0000000080000964 <i_539>:
    80000964:	e6413023          	sd	tp,-416(sp)

0000000080000968 <i_540>:
    80000968:	90676213          	ori	tp,a4,-1786

000000008000096c <i_541>:
    8000096c:	00325663          	ble	gp,tp,80000978 <i_544>

0000000080000970 <i_542>:
    80000970:	03520abb          	mulw	s5,tp,s5

0000000080000974 <i_543>:
    80000974:	eee10a83          	lb	s5,-274(sp)

0000000080000978 <i_544>:
    80000978:	4bfa821b          	addiw	tp,s5,1215

000000008000097c <i_545>:
    8000097c:	fc013203          	ld	tp,-64(sp)

0000000080000980 <i_546>:
    80000980:	024a9233          	mulh	tp,s5,tp

0000000080000984 <i_547>:
    80000984:	015989b3          	add	s3,s3,s5

0000000080000988 <i_548>:
    80000988:	f1212c23          	sw	s2,-232(sp)

000000008000098c <i_549>:
    8000098c:	01320a63          	beq	tp,s3,800009a0 <i_554>

0000000080000990 <i_550>:
    80000990:	0b311e23          	sh	s3,188(sp)

0000000080000994 <i_551>:
    80000994:	03a15a83          	lhu	s5,58(sp)

0000000080000998 <i_552>:
    80000998:	4743839b          	addiw	t2,t2,1140

000000008000099c <i_553>:
    8000099c:	01621863          	bne	tp,s6,800009ac <i_557>

00000000800009a0 <i_554>:
    800009a0:	fea11223          	sh	a0,-28(sp)

00000000800009a4 <i_555>:
    800009a4:	0339e063          	bltu	s3,s3,800009c4 <i_563>

00000000800009a8 <i_556>:
    800009a8:	f2411823          	sh	tp,-208(sp)

00000000800009ac <i_557>:
    800009ac:	f2812d83          	lw	s11,-216(sp)

00000000800009b0 <i_558>:
    800009b0:	03599463          	bne	s3,s5,800009d8 <i_568>

00000000800009b4 <i_559>:
    800009b4:	0029d993          	srli	s3,s3,0x2

00000000800009b8 <i_560>:
    800009b8:	f5c16503          	lwu	a0,-164(sp)

00000000800009bc <i_561>:
    800009bc:	e2813283          	ld	t0,-472(sp)

00000000800009c0 <i_562>:
    800009c0:	1b513c23          	sd	s5,440(sp)

00000000800009c4 <i_563>:
    800009c4:	01598ab3          	add	s5,s3,s5

00000000800009c8 <i_564>:
    800009c8:	f4010e83          	lb	t4,-192(sp)

00000000800009cc <i_565>:
    800009cc:	02711423          	sh	t2,40(sp)

00000000800009d0 <i_566>:
    800009d0:	fb512023          	sw	s5,-96(sp)

00000000800009d4 <i_567>:
    800009d4:	b790839b          	addiw	t2,ra,-1159

00000000800009d8 <i_568>:
    800009d8:	05011383          	lh	t2,80(sp)

00000000800009dc <i_569>:
    800009dc:	e8712a23          	sw	t2,-364(sp)

00000000800009e0 <i_570>:
    800009e0:	83900a13          	li	s4,-1991

00000000800009e4 <i_571>:
    800009e4:	84d00093          	li	ra,-1971

00000000800009e8 <i_572>:
    800009e8:	001a0a13          	addi	s4,s4,1
    800009ec:	fe1a1ee3          	bne	s4,ra,800009e8 <i_572>

00000000800009f0 <i_573>:
    800009f0:	06012383          	lw	t2,96(sp)

00000000800009f4 <i_574>:
    800009f4:	00400393          	li	t2,4

00000000800009f8 <i_575>:
    800009f8:	007393bb          	sllw	t2,t2,t2

00000000800009fc <i_576>:
    800009fc:	01700393          	li	t2,23

0000000080000a00 <i_577>:
    80000a00:	4073ddbb          	sraw	s11,t2,t2

0000000080000a04 <i_578>:
    80000a04:	ef014583          	lbu	a1,-272(sp)

0000000080000a08 <i_579>:
    80000a08:	05c9a513          	slti	a0,s3,92

0000000080000a0c <i_580>:
    80000a0c:	01b12023          	sw	s11,0(sp)

0000000080000a10 <i_581>:
    80000a10:	c23a1c17          	auipc	s8,0xc23a1

0000000080000a14 <i_582>:
    80000a14:	84e00d13          	li	s10,-1970

0000000080000a18 <i_583>:
    80000a18:	86100a13          	li	s4,-1951

0000000080000a1c <i_584>:
    80000a1c:	e27101a3          	sb	t2,-477(sp)

0000000080000a20 <i_585>:
    80000a20:	eea15d83          	lhu	s11,-278(sp)

0000000080000a24 <i_586>:
    80000a24:	f0b13c23          	sd	a1,-232(sp)

0000000080000a28 <i_587>:
    80000a28:	11811583          	lh	a1,280(sp)

0000000080000a2c <i_588>:
    80000a2c:	18b11f23          	sh	a1,414(sp)

0000000080000a30 <i_589>:
    80000a30:	001d0d13          	addi	s10,s10,1
    80000a34:	ff4d14e3          	bne	s10,s4,80000a1c <i_584>

0000000080000a38 <i_590>:
    80000a38:	80c2cd37          	lui	s10,0x80c2c

0000000080000a3c <i_591>:
    80000a3c:	01640e63          	beq	s0,s6,80000a58 <i_598>

0000000080000a40 <i_592>:
    80000a40:	02b5ab33          	mulhsu	s6,a1,a1

0000000080000a44 <i_593>:
    80000a44:	ef813b03          	ld	s6,-264(sp)

0000000080000a48 <i_594>:
    80000a48:	036b55bb          	divuw	a1,s6,s6

0000000080000a4c <i_595>:
    80000a4c:	036b31b3          	mulhu	gp,s6,s6

0000000080000a50 <i_596>:
    80000a50:	4025d613          	srai	a2,a1,0x2

0000000080000a54 <i_597>:
    80000a54:	0021db13          	srli	s6,gp,0x2

0000000080000a58 <i_598>:
    80000a58:	fec13023          	sd	a2,-32(sp)

0000000080000a5c <i_599>:
    80000a5c:	02364463          	blt	a2,gp,80000a84 <i_609>

0000000080000a60 <i_600>:
    80000a60:	003b5e63          	ble	gp,s6,80000a7c <i_607>

0000000080000a64 <i_601>:
    80000a64:	ee111623          	sh	ra,-276(sp)

0000000080000a68 <i_602>:
    80000a68:	f9914a03          	lbu	s4,-103(sp)

0000000080000a6c <i_603>:
    80000a6c:	00367e63          	bleu	gp,a2,80000a88 <i_610>

0000000080000a70 <i_604>:
    80000a70:	4021de9b          	sraiw	t4,gp,0x2

0000000080000a74 <i_605>:
    80000a74:	003e9a63          	bne	t4,gp,80000a88 <i_610>

0000000080000a78 <i_606>:
    80000a78:	19d12e23          	sw	t4,412(sp)

0000000080000a7c <i_607>:
    80000a7c:	01d1f863          	bleu	t4,gp,80000a8c <i_611>

0000000080000a80 <i_608>:
    80000a80:	9a963613          	sltiu	a2,a2,-1623

0000000080000a84 <i_609>:
    80000a84:	06015a83          	lhu	s5,96(sp)

0000000080000a88 <i_610>:
    80000a88:	00d78c63          	beq	a5,a3,80000aa0 <i_616>

0000000080000a8c <i_611>:
    80000a8c:	00cb0633          	add	a2,s6,a2

0000000080000a90 <i_612>:
    80000a90:	ece11203          	lh	tp,-306(sp)

0000000080000a94 <i_613>:
    80000a94:	17512c23          	sw	s5,376(sp)

0000000080000a98 <i_614>:
    80000a98:	f6314b03          	lbu	s6,-157(sp)

0000000080000a9c <i_615>:
    80000a9c:	00ce9e63          	bne	t4,a2,80000ab8 <i_622>

0000000080000aa0 <i_616>:
    80000aa0:	02cb7063          	bleu	a2,s6,80000ac0 <i_624>

0000000080000aa4 <i_617>:
    80000aa4:	00c65e63          	ble	a2,a2,80000ac0 <i_624>

0000000080000aa8 <i_618>:
    80000aa8:	0d512e23          	sw	s5,220(sp)

0000000080000aac <i_619>:
    80000aac:	19c12283          	lw	t0,412(sp)

0000000080000ab0 <i_620>:
    80000ab0:	00265e9b          	srliw	t4,a2,0x2

0000000080000ab4 <i_621>:
    80000ab4:	16a11603          	lh	a2,362(sp)

0000000080000ab8 <i_622>:
    80000ab8:	0022dc13          	srli	s8,t0,0x2

0000000080000abc <i_623>:
    80000abc:	03d0ea33          	rem	s4,ra,t4

0000000080000ac0 <i_624>:
    80000ac0:	15011a03          	lh	s4,336(sp)

0000000080000ac4 <i_625>:
    80000ac4:	1b814083          	lbu	ra,440(sp)

0000000080000ac8 <i_626>:
    80000ac8:	402c519b          	sraiw	gp,s8,0x2

0000000080000acc <i_627>:
    80000acc:	e4013f03          	ld	t5,-448(sp)

0000000080000ad0 <i_628>:
    80000ad0:	02df34b3          	mulhu	s1,t5,a3

0000000080000ad4 <i_629>:
    80000ad4:	029c0233          	mul	tp,s8,s1

0000000080000ad8 <i_630>:
    80000ad8:	01885c63          	ble	s8,a6,80000af0 <i_636>

0000000080000adc <i_631>:
    80000adc:	16416083          	lwu	ra,356(sp)

0000000080000ae0 <i_632>:
    80000ae0:	15412623          	sw	s4,332(sp)

0000000080000ae4 <i_633>:
    80000ae4:	f8112c23          	sw	ra,-104(sp)

0000000080000ae8 <i_634>:
    80000ae8:	45bc6e93          	ori	t4,s8,1115

0000000080000aec <i_635>:
    80000aec:	ea312823          	sw	gp,-336(sp)

0000000080000af0 <i_636>:
    80000af0:	00209a13          	slli	s4,ra,0x2

0000000080000af4 <i_637>:
    80000af4:	19612423          	sw	s6,392(sp)

0000000080000af8 <i_638>:
    80000af8:	00318663          	beq	gp,gp,80000b04 <i_641>

0000000080000afc <i_639>:
    80000afc:	01700e93          	li	t4,23

0000000080000b00 <i_640>:
    80000b00:	01da11bb          	sllw	gp,s4,t4

0000000080000b04 <i_641>:
    80000b04:	ff811a03          	lh	s4,-8(sp)

0000000080000b08 <i_642>:
    80000b08:	03ee9263          	bne	t4,t5,80000b2c <i_651>

0000000080000b0c <i_643>:
    80000b0c:	023191b3          	mulh	gp,gp,gp

0000000080000b10 <i_644>:
    80000b10:	0145e463          	bltu	a1,s4,80000b18 <i_646>

0000000080000b14 <i_645>:
    80000b14:	f8811783          	lh	a5,-120(sp)

0000000080000b18 <i_646>:
    80000b18:	10f11e23          	sh	a5,284(sp)

0000000080000b1c <i_647>:
    80000b1c:	fb415a03          	lhu	s4,-76(sp)

0000000080000b20 <i_648>:
    80000b20:	00000013          	nop

0000000080000b24 <i_649>:
    80000b24:	034a0a33          	mul	s4,s4,s4

0000000080000b28 <i_650>:
    80000b28:	403a5e1b          	sraiw	t3,s4,0x3

0000000080000b2c <i_651>:
    80000b2c:	00000013          	nop

0000000080000b30 <i_652>:
    80000b30:	034e5a33          	divu	s4,t3,s4

0000000080000b34 <i_653>:
    80000b34:	7bf00513          	li	a0,1983

0000000080000b38 <i_654>:
    80000b38:	7c900793          	li	a5,1993

0000000080000b3c <i_655>:
    80000b3c:	037febbb          	remw	s7,t6,s7

0000000080000b40 <i_656>:
    80000b40:	f2c16b83          	lwu	s7,-212(sp)

0000000080000b44 <i_657>:
    80000b44:	00000013          	nop

0000000080000b48 <i_658>:
    80000b48:	038a4263          	blt	s4,s8,80000b6c <i_666>

0000000080000b4c <i_659>:
    80000b4c:	623a069b          	addiw	a3,s4,1571

0000000080000b50 <i_660>:
    80000b50:	00150513          	addi	a0,a0,1
    80000b54:	fea7d4e3          	ble	a0,a5,80000b3c <i_655>

0000000080000b58 <i_661>:
    80000b58:	00669c63          	bne	a3,t1,80000b70 <i_667>

0000000080000b5c <i_662>:
    80000b5c:	15413823          	sd	s4,336(sp)

0000000080000b60 <i_663>:
    80000b60:	014a0a33          	add	s4,s4,s4

0000000080000b64 <i_664>:
    80000b64:	8e563613          	sltiu	a2,a2,-1819

0000000080000b68 <i_665>:
    80000b68:	039379b3          	remu	s3,t1,s9

0000000080000b6c <i_666>:
    80000b6c:	e8613c23          	sd	t1,-360(sp)

0000000080000b70 <i_667>:
    80000b70:	00000013          	nop

0000000080000b74 <i_668>:
    80000b74:	4019d41b          	sraiw	s0,s3,0x1

0000000080000b78 <i_669>:
    80000b78:	7e500c13          	li	s8,2021

0000000080000b7c <i_670>:
    80000b7c:	7ee00313          	li	t1,2030

0000000080000b80 <i_671>:
    80000b80:	001c0c13          	addi	s8,s8,1 # 423a1a11 <main-0x3dc5e5ef>
    80000b84:	ff831ee3          	bne	t1,s8,80000b80 <i_671>

0000000080000b88 <i_672>:
    80000b88:	fd012403          	lw	s0,-48(sp)

0000000080000b8c <i_673>:
    80000b8c:	03a4623b          	remw	tp,s0,s10

0000000080000b90 <i_674>:
    80000b90:	02847263          	bleu	s0,s0,80000bb4 <i_683>

0000000080000b94 <i_675>:
    80000b94:	4014d41b          	sraiw	s0,s1,0x1

0000000080000b98 <i_676>:
    80000b98:	ff416403          	lwu	s0,-12(sp)

0000000080000b9c <i_677>:
    80000b9c:	e4810e23          	sb	s0,-420(sp)

0000000080000ba0 <i_678>:
    80000ba0:	f174e693          	ori	a3,s1,-233

0000000080000ba4 <i_679>:
    80000ba4:	00846a63          	bltu	s0,s0,80000bb8 <i_684>

0000000080000ba8 <i_680>:
    80000ba8:	9695a6b7          	lui	a3,0x9695a

0000000080000bac <i_681>:
    80000bac:	fd212a23          	sw	s2,-44(sp)

0000000080000bb0 <i_682>:
    80000bb0:	5cb47a13          	andi	s4,s0,1483

0000000080000bb4 <i_683>:
    80000bb4:	e6c11983          	lh	s3,-404(sp)

0000000080000bb8 <i_684>:
    80000bb8:	a71fc213          	xori	tp,t6,-1423

0000000080000bbc <i_685>:
    80000bbc:	e8413c23          	sd	tp,-360(sp)

0000000080000bc0 <i_686>:
    80000bc0:	00845863          	ble	s0,s0,80000bd0 <i_690>

0000000080000bc4 <i_687>:
    80000bc4:	0f714e83          	lbu	t4,247(sp)

0000000080000bc8 <i_688>:
    80000bc8:	17c12203          	lw	tp,380(sp)

0000000080000bcc <i_689>:
    80000bcc:	004eea63          	bltu	t4,tp,80000be0 <i_694>

0000000080000bd0 <i_690>:
    80000bd0:	10e15803          	lhu	a6,270(sp)

0000000080000bd4 <i_691>:
    80000bd4:	f9811c03          	lh	s8,-104(sp)

0000000080000bd8 <i_692>:
    80000bd8:	00f00213          	li	tp,15

0000000080000bdc <i_693>:
    80000bdc:	40425ab3          	sra	s5,tp,tp

0000000080000be0 <i_694>:
    80000be0:	fa411d03          	lh	s10,-92(sp)

0000000080000be4 <i_695>:
    80000be4:	09314e03          	lbu	t3,147(sp)

0000000080000be8 <i_696>:
    80000be8:	1a413423          	sd	tp,424(sp)

0000000080000bec <i_697>:
    80000bec:	83100213          	li	tp,-1999

0000000080000bf0 <i_698>:
    80000bf0:	83b00b13          	li	s6,-1989

0000000080000bf4 <i_699>:
    80000bf4:	3fc64e13          	xori	t3,a2,1020

0000000080000bf8 <i_700>:
    80000bf8:	00120213          	addi	tp,tp,1 # 1 <main-0x7fffffff>
    80000bfc:	ff626ce3          	bltu	tp,s6,80000bf4 <i_699>

0000000080000c00 <i_701>:
    80000c00:	e1f10283          	lb	t0,-481(sp)

0000000080000c04 <i_702>:
    80000c04:	1a410ca3          	sb	tp,441(sp)

0000000080000c08 <i_703>:
    80000c08:	00428533          	add	a0,t0,tp

0000000080000c0c <i_704>:
    80000c0c:	00a00e93          	li	t4,10

0000000080000c10 <i_705>:
    80000c10:	01ded23b          	srlw	tp,t4,t4

0000000080000c14 <i_706>:
    80000c14:	00454e63          	blt	a0,tp,80000c30 <i_713>

0000000080000c18 <i_707>:
    80000c18:	ffe15203          	lhu	tp,-2(sp)

0000000080000c1c <i_708>:
    80000c1c:	f1d11523          	sh	t4,-246(sp)

0000000080000c20 <i_709>:
    80000c20:	004a6c63          	bltu	s4,tp,80000c38 <i_715>

0000000080000c24 <i_710>:
    80000c24:	03214a03          	lbu	s4,50(sp)

0000000080000c28 <i_711>:
    80000c28:	ee214d03          	lbu	s10,-286(sp)

0000000080000c2c <i_712>:
    80000c2c:	024a3eb3          	mulhu	t4,s4,tp

0000000080000c30 <i_713>:
    80000c30:	0ba12e23          	sw	s10,188(sp)

0000000080000c34 <i_714>:
    80000c34:	03da4eb3          	div	t4,s4,t4

0000000080000c38 <i_715>:
    80000c38:	006b9c63          	bne	s7,t1,80000c50 <i_721>

0000000080000c3c <i_716>:
    80000c3c:	03dcfd3b          	remuw	s10,s9,t4

0000000080000c40 <i_717>:
    80000c40:	101d4313          	xori	t1,s10,257

0000000080000c44 <i_718>:
    80000c44:	0e410603          	lb	a2,228(sp)

0000000080000c48 <i_719>:
    80000c48:	07711523          	sh	s7,106(sp)

0000000080000c4c <i_720>:
    80000c4c:	00000013          	nop

0000000080000c50 <i_721>:
    80000c50:	41af82b3          	sub	t0,t6,s10

0000000080000c54 <i_722>:
    80000c54:	00000013          	nop

0000000080000c58 <i_723>:
    80000c58:	83700d13          	li	s10,-1993

0000000080000c5c <i_724>:
    80000c5c:	84300b93          	li	s7,-1981

0000000080000c60 <i_725>:
    80000c60:	007be263          	bltu	s7,t2,80000c64 <i_726>

0000000080000c64 <i_726>:
    80000c64:	f8016f03          	lwu	t5,-128(sp)

0000000080000c68 <i_727>:
    80000c68:	12613423          	sd	t1,296(sp)

0000000080000c6c <i_728>:
    80000c6c:	01b00993          	li	s3,27

0000000080000c70 <i_729>:
    80000c70:	0132d2bb          	srlw	t0,t0,s3

0000000080000c74 <i_730>:
    80000c74:	f9810c83          	lb	s9,-104(sp)

0000000080000c78 <i_731>:
    80000c78:	4032d993          	srai	s3,t0,0x3

0000000080000c7c <i_732>:
    80000c7c:	0069c863          	blt	s3,t1,80000c8c <i_736>

0000000080000c80 <i_733>:
    80000c80:	11912223          	sw	s9,260(sp)

0000000080000c84 <i_734>:
    80000c84:	e8510d23          	sb	t0,-358(sp)

0000000080000c88 <i_735>:
    80000c88:	028a0263          	beq	s4,s0,80000cac <i_743>

0000000080000c8c <i_736>:
    80000c8c:	00000013          	nop

0000000080000c90 <i_737>:
    80000c90:	f0513023          	sd	t0,-256(sp)

0000000080000c94 <i_738>:
    80000c94:	fc510ca3          	sb	t0,-39(sp)

0000000080000c98 <i_739>:
    80000c98:	001d0d13          	addi	s10,s10,1 # ffffffff80c2c001 <_end+0xffffffff00c1bbed>
    80000c9c:	fd7d42e3          	blt	s10,s7,80000c60 <i_725>

0000000080000ca0 <i_740>:
    80000ca0:	1a511223          	sh	t0,420(sp)

0000000080000ca4 <i_741>:
    80000ca4:	00b00413          	li	s0,11

0000000080000ca8 <i_742>:
    80000ca8:	008f1f3b          	sllw	t5,t5,s0

0000000080000cac <i_743>:
    80000cac:	12a14a03          	lbu	s4,298(sp)

0000000080000cb0 <i_744>:
    80000cb0:	014a21b3          	slt	gp,s4,s4

0000000080000cb4 <i_745>:
    80000cb4:	0079f5b3          	and	a1,s3,t2

0000000080000cb8 <i_746>:
    80000cb8:	03a549b3          	div	s3,a0,s10

0000000080000cbc <i_747>:
    80000cbc:	8a600393          	li	t2,-1882

0000000080000cc0 <i_748>:
    80000cc0:	8b800093          	li	ra,-1864

0000000080000cc4 <i_749>:
    80000cc4:	14712223          	sw	t2,324(sp)

0000000080000cc8 <i_750>:
    80000cc8:	17010a03          	lb	s4,368(sp)

0000000080000ccc <i_751>:
    80000ccc:	ea710da3          	sb	t2,-325(sp)

0000000080000cd0 <i_752>:
    80000cd0:	01e381b3          	add	gp,t2,t5

0000000080000cd4 <i_753>:
    80000cd4:	00138393          	addi	t2,t2,1
    80000cd8:	fe13e6e3          	bltu	t2,ra,80000cc4 <i_749>

0000000080000cdc <i_754>:
    80000cdc:	013c8cb3          	add	s9,s9,s3

0000000080000ce0 <i_755>:
    80000ce0:	01766233          	or	tp,a2,s7

0000000080000ce4 <i_756>:
    80000ce4:	84500e93          	li	t4,-1979

0000000080000ce8 <i_757>:
    80000ce8:	85200b93          	li	s7,-1966

0000000080000cec <i_758>:
    80000cec:	ee811623          	sh	s0,-276(sp)

0000000080000cf0 <i_759>:
    80000cf0:	0b013683          	ld	a3,176(sp)

0000000080000cf4 <i_760>:
    80000cf4:	1b413423          	sd	s4,424(sp)

0000000080000cf8 <i_761>:
    80000cf8:	0a712223          	sw	t2,164(sp)

0000000080000cfc <i_762>:
    80000cfc:	284a6c93          	ori	s9,s4,644

0000000080000d00 <i_763>:
    80000d00:	17e12e23          	sw	t5,380(sp)

0000000080000d04 <i_764>:
    80000d04:	0292743b          	remuw	s0,tp,s1

0000000080000d08 <i_765>:
    80000d08:	03e5ba33          	mulhu	s4,a1,t5

0000000080000d0c <i_766>:
    80000d0c:	f8013a83          	ld	s5,-128(sp)

0000000080000d10 <i_767>:
    80000d10:	ef211503          	lh	a0,-270(sp)

0000000080000d14 <i_768>:
    80000d14:	02611983          	lh	s3,38(sp)

0000000080000d18 <i_769>:
    80000d18:	027a8463          	beq	s5,t2,80000d40 <i_778>

0000000080000d1c <i_770>:
    80000d1c:	02a54663          	blt	a0,a0,80000d48 <i_780>

0000000080000d20 <i_771>:
    80000d20:	02a91063          	bne	s2,a0,80000d40 <i_778>

0000000080000d24 <i_772>:
    80000d24:	001e8e93          	addi	t4,t4,1
    80000d28:	fd7e92e3          	bne	t4,s7,80000cec <i_758>

0000000080000d2c <i_773>:
    80000d2c:	e9010503          	lb	a0,-368(sp)

0000000080000d30 <i_774>:
    80000d30:	0295e53b          	remw	a0,a1,s1

0000000080000d34 <i_775>:
    80000d34:	00ac9c63          	bne	s9,a0,80000d4c <i_781>

0000000080000d38 <i_776>:
    80000d38:	f2013c83          	ld	s9,-224(sp)

0000000080000d3c <i_777>:
    80000d3c:	00c00a13          	li	s4,12

0000000080000d40 <i_778>:
    80000d40:	41455a3b          	sraw	s4,a0,s4

0000000080000d44 <i_779>:
    80000d44:	1cc12503          	lw	a0,460(sp)

0000000080000d48 <i_780>:
    80000d48:	fdc15403          	lhu	s0,-36(sp)

0000000080000d4c <i_781>:
    80000d4c:	ca446993          	ori	s3,s0,-860

0000000080000d50 <i_782>:
    80000d50:	00c12983          	lw	s3,12(sp)

0000000080000d54 <i_783>:
    80000d54:	8c400513          	li	a0,-1852

0000000080000d58 <i_784>:
    80000d58:	8c900c93          	li	s9,-1847

0000000080000d5c <i_785>:
    80000d5c:	fb313423          	sd	s3,-88(sp)

0000000080000d60 <i_786>:
    80000d60:	e4015403          	lhu	s0,-448(sp)

0000000080000d64 <i_787>:
    80000d64:	0339d7bb          	divuw	a5,s3,s3

0000000080000d68 <i_788>:
    80000d68:	0339e43b          	remw	s0,s3,s3

0000000080000d6c <i_789>:
    80000d6c:	00150513          	addi	a0,a0,1
    80000d70:	feac96e3          	bne	s9,a0,80000d5c <i_785>

0000000080000d74 <i_790>:
    80000d74:	008439b3          	sltu	s3,s0,s0

0000000080000d78 <i_791>:
    80000d78:	15615403          	lhu	s0,342(sp)

0000000080000d7c <i_792>:
    80000d7c:	fcd10403          	lb	s0,-51(sp)

0000000080000d80 <i_793>:
    80000d80:	013e6e33          	or	t3,t3,s3

0000000080000d84 <i_794>:
    80000d84:	00000013          	nop

0000000080000d88 <i_795>:
    80000d88:	80d00093          	li	ra,-2035

0000000080000d8c <i_796>:
    80000d8c:	81e00413          	li	s0,-2018

0000000080000d90 <i_797>:
    80000d90:	eb013983          	ld	s3,-336(sp)

0000000080000d94 <i_798>:
    80000d94:	00000013          	nop

0000000080000d98 <i_799>:
    80000d98:	f6913823          	sd	s1,-144(sp)

0000000080000d9c <i_800>:
    80000d9c:	1e614203          	lbu	tp,486(sp)

0000000080000da0 <i_801>:
    80000da0:	f9c15a03          	lhu	s4,-100(sp)

0000000080000da4 <i_802>:
    80000da4:	0214d1b3          	divu	gp,s1,ra

0000000080000da8 <i_803>:
    80000da8:	ff211483          	lh	s1,-14(sp)

0000000080000dac <i_804>:
    80000dac:	00108093          	addi	ra,ra,1
    80000db0:	fe1450e3          	ble	ra,s0,80000d90 <i_797>

0000000080000db4 <i_805>:
    80000db4:	0b015503          	lhu	a0,176(sp)

0000000080000db8 <i_806>:
    80000db8:	edd10503          	lb	a0,-291(sp)

0000000080000dbc <i_807>:
    80000dbc:	02a11923          	sh	a0,50(sp)

0000000080000dc0 <i_808>:
    80000dc0:	15410323          	sb	s4,326(sp)

0000000080000dc4 <i_809>:
    80000dc4:	00a5ca63          	blt	a1,a0,80000dd8 <i_814>

0000000080000dc8 <i_810>:
    80000dc8:	034a5063          	ble	s4,s4,80000de8 <i_818>

0000000080000dcc <i_811>:
    80000dcc:	00000013          	nop

0000000080000dd0 <i_812>:
    80000dd0:	00000013          	nop

0000000080000dd4 <i_813>:
    80000dd4:	00000013          	nop

0000000080000dd8 <i_814>:
    80000dd8:	e9710e03          	lb	t3,-361(sp)

0000000080000ddc <i_815>:
    80000ddc:	414e0a3b          	subw	s4,t3,s4

0000000080000de0 <i_816>:
    80000de0:	054105a3          	sb	s4,75(sp)

0000000080000de4 <i_817>:
    80000de4:	18b80813          	addi	a6,a6,395

0000000080000de8 <i_818>:
    80000de8:	fd511923          	sh	s5,-46(sp)

0000000080000dec <i_819>:
    80000dec:	13a13423          	sd	s10,296(sp)

0000000080000df0 <i_820>:
    80000df0:	7d900d13          	li	s10,2009

0000000080000df4 <i_821>:
    80000df4:	7db00413          	li	s0,2011

0000000080000df8 <i_822>:
    80000df8:	00a00813          	li	a6,10

0000000080000dfc <i_823>:
    80000dfc:	010a5a3b          	srlw	s4,s4,a6

0000000080000e00 <i_824>:
    80000e00:	001d0d13          	addi	s10,s10,1
    80000e04:	ffa45ae3          	ble	s10,s0,80000df8 <i_822>

0000000080000e08 <i_825>:
    80000e08:	010a0c63          	beq	s4,a6,80000e20 <i_831>

0000000080000e0c <i_826>:
    80000e0c:	014a5e63          	ble	s4,s4,80000e28 <i_833>

0000000080000e10 <i_827>:
    80000e10:	401ada93          	srai	s5,s5,0x1

0000000080000e14 <i_828>:
    80000e14:	01ad0d33          	add	s10,s10,s10

0000000080000e18 <i_829>:
    80000e18:	10910723          	sb	s1,270(sp)

0000000080000e1c <i_830>:
    80000e1c:	03aa7bb3          	remu	s7,s4,s10

0000000080000e20 <i_831>:
    80000e20:	01300a93          	li	s5,19

0000000080000e24 <i_832>:
    80000e24:	415a5bb3          	sra	s7,s4,s5

0000000080000e28 <i_833>:
    80000e28:	ff011603          	lh	a2,-16(sp)

0000000080000e2c <i_834>:
    80000e2c:	01aa1e63          	bne	s4,s10,80000e48 <i_841>

0000000080000e30 <i_835>:
    80000e30:	015bc863          	blt	s7,s5,80000e40 <i_839>

0000000080000e34 <i_836>:
    80000e34:	66567b93          	andi	s7,a2,1637

0000000080000e38 <i_837>:
    80000e38:	039bfe33          	remu	t3,s7,s9

0000000080000e3c <i_838>:
    80000e3c:	02cbd633          	divu	a2,s7,a2

0000000080000e40 <i_839>:
    80000e40:	04e10b83          	lb	s7,78(sp)

0000000080000e44 <i_840>:
    80000e44:	01100e13          	li	t3,17

0000000080000e48 <i_841>:
    80000e48:	01ce5bb3          	srl	s7,t3,t3

0000000080000e4c <i_842>:
    80000e4c:	1d712e23          	sw	s7,476(sp)

0000000080000e50 <i_843>:
    80000e50:	13c108a3          	sb	t3,305(sp)

0000000080000e54 <i_844>:
    80000e54:	519b8b9b          	addiw	s7,s7,1305

0000000080000e58 <i_845>:
    80000e58:	06812b83          	lw	s7,104(sp)

0000000080000e5c <i_846>:
    80000e5c:	1c014b83          	lbu	s7,448(sp)

0000000080000e60 <i_847>:
    80000e60:	017e7e33          	and	t3,t3,s7

0000000080000e64 <i_848>:
    80000e64:	ede11b83          	lh	s7,-290(sp)

0000000080000e68 <i_849>:
    80000e68:	4042db93          	srai	s7,t0,0x4

0000000080000e6c <i_850>:
    80000e6c:	19713823          	sd	s7,400(sp)

0000000080000e70 <i_851>:
    80000e70:	11713423          	sd	s7,264(sp)

0000000080000e74 <i_852>:
    80000e74:	403b8bbb          	subw	s7,s7,gp

0000000080000e78 <i_853>:
    80000e78:	595b8b13          	addi	s6,s7,1429

0000000080000e7c <i_854>:
    80000e7c:	017bda63          	ble	s7,s7,80000e90 <i_859>

0000000080000e80 <i_855>:
    80000e80:	b85cfb97          	auipc	s7,0xb85cf

0000000080000e84 <i_856>:
    80000e84:	598b041b          	addiw	s0,s6,1432

0000000080000e88 <i_857>:
    80000e88:	0b910403          	lb	s0,185(sp)

0000000080000e8c <i_858>:
    80000e8c:	005e9663          	bne	t4,t0,80000e98 <i_861>

0000000080000e90 <i_859>:
    80000e90:	0e114b83          	lbu	s7,225(sp)

0000000080000e94 <i_860>:
    80000e94:	0282f463          	bleu	s0,t0,80000ebc <i_870>

0000000080000e98 <i_861>:
    80000e98:	01740c63          	beq	s0,s7,80000eb0 <i_867>

0000000080000e9c <i_862>:
    80000e9c:	408b84b3          	sub	s1,s7,s0

0000000080000ea0 <i_863>:
    80000ea0:	10813403          	ld	s0,264(sp)

0000000080000ea4 <i_864>:
    80000ea4:	0294d463          	ble	s1,s1,80000ecc <i_874>

0000000080000ea8 <i_865>:
    80000ea8:	f0912a23          	sw	s1,-236(sp)

0000000080000eac <i_866>:
    80000eac:	01342bb3          	slt	s7,s0,s3

0000000080000eb0 <i_867>:
    80000eb0:	1b92c413          	xori	s0,t0,441

0000000080000eb4 <i_868>:
    80000eb4:	1da15283          	lhu	t0,474(sp)

0000000080000eb8 <i_869>:
    80000eb8:	18314303          	lbu	t1,387(sp)

0000000080000ebc <i_870>:
    80000ebc:	f2612a23          	sw	t1,-204(sp)

0000000080000ec0 <i_871>:
    80000ec0:	025362bb          	remw	t0,t1,t0

0000000080000ec4 <i_872>:
    80000ec4:	00415f13          	srli	t5,sp,0x4

0000000080000ec8 <i_873>:
    80000ec8:	11615283          	lhu	t0,278(sp)

0000000080000ecc <i_874>:
    80000ecc:	61ef0293          	addi	t0,t5,1566

0000000080000ed0 <i_875>:
    80000ed0:	00000013          	nop

0000000080000ed4 <i_876>:
    80000ed4:	86700593          	li	a1,-1945

0000000080000ed8 <i_877>:
    80000ed8:	87600993          	li	s3,-1930

0000000080000edc <i_878>:
    80000edc:	02512623          	sw	t0,44(sp)

0000000080000ee0 <i_879>:
    80000ee0:	ff914803          	lbu	a6,-7(sp)

0000000080000ee4 <i_880>:
    80000ee4:	00100b13          	li	s6,1

0000000080000ee8 <i_881>:
    80000ee8:	01661c3b          	sllw	s8,a2,s6

0000000080000eec <i_882>:
    80000eec:	030b8263          	beq	s7,a6,80000f10 <i_890>

0000000080000ef0 <i_883>:
    80000ef0:	02c12803          	lw	a6,44(sp)

0000000080000ef4 <i_884>:
    80000ef4:	00158593          	addi	a1,a1,1
    80000ef8:	ff35e2e3          	bltu	a1,s3,80000edc <i_878>

0000000080000efc <i_885>:
    80000efc:	01e80e63          	beq	a6,t5,80000f18 <i_892>

0000000080000f00 <i_886>:
    80000f00:	03081c33          	mulh	s8,a6,a6

0000000080000f04 <i_887>:
    80000f04:	009baa33          	slt	s4,s7,s1

0000000080000f08 <i_888>:
    80000f08:	03449d33          	mulh	s10,s1,s4

0000000080000f0c <i_889>:
    80000f0c:	f2812183          	lw	gp,-216(sp)

0000000080000f10 <i_890>:
    80000f10:	0f012623          	sw	a6,236(sp)

0000000080000f14 <i_891>:
    80000f14:	f311fd13          	andi	s10,gp,-207

0000000080000f18 <i_892>:
    80000f18:	00f00493          	li	s1,15

0000000080000f1c <i_893>:
    80000f1c:	409e5e3b          	sraw	t3,t3,s1

0000000080000f20 <i_894>:
    80000f20:	ea310783          	lb	a5,-349(sp)

0000000080000f24 <i_895>:
    80000f24:	00a00f13          	li	t5,10

0000000080000f28 <i_896>:
    80000f28:	01e79e33          	sll	t3,a5,t5

0000000080000f2c <i_897>:
    80000f2c:	1db14b83          	lbu	s7,475(sp)

0000000080000f30 <i_898>:
    80000f30:	13011483          	lh	s1,304(sp)

0000000080000f34 <i_899>:
    80000f34:	01cc5a63          	ble	t3,s8,80000f48 <i_904>

0000000080000f38 <i_900>:
    80000f38:	029e1d33          	mulh	s10,t3,s1

0000000080000f3c <i_901>:
    80000f3c:	01e58a63          	beq	a1,t5,80000f50 <i_906>

0000000080000f40 <i_902>:
    80000f40:	029f79bb          	remuw	s3,t5,s1

0000000080000f44 <i_903>:
    80000f44:	e1a11f03          	lh	t5,-486(sp)

0000000080000f48 <i_904>:
    80000f48:	41cf0e33          	sub	t3,t5,t3

0000000080000f4c <i_905>:
    80000f4c:	0de11623          	sh	t5,204(sp)

0000000080000f50 <i_906>:
    80000f50:	15013f03          	ld	t5,336(sp)

0000000080000f54 <i_907>:
    80000f54:	19e107a3          	sb	t5,399(sp)

0000000080000f58 <i_908>:
    80000f58:	013f5a63          	ble	s3,t5,80000f6c <i_913>

0000000080000f5c <i_909>:
    80000f5c:	028f5263          	ble	s0,t5,80000f80 <i_918>

0000000080000f60 <i_910>:
    80000f60:	01200d13          	li	s10,18

0000000080000f64 <i_911>:
    80000f64:	01af54bb          	srlw	s1,t5,s10

0000000080000f68 <i_912>:
    80000f68:	03dd4eb3          	div	t4,s10,t4

0000000080000f6c <i_913>:
    80000f6c:	409481b3          	sub	gp,s1,s1

0000000080000f70 <i_914>:
    80000f70:	fba12623          	sw	s10,-84(sp)

0000000080000f74 <i_915>:
    80000f74:	f7a11423          	sh	s10,-152(sp)

0000000080000f78 <i_916>:
    80000f78:	00000013          	nop

0000000080000f7c <i_917>:
    80000f7c:	f9114983          	lbu	s3,-111(sp)

0000000080000f80 <i_918>:
    80000f80:	11013783          	ld	a5,272(sp)

0000000080000f84 <i_919>:
    80000f84:	c20c7793          	andi	a5,s8,-992

0000000080000f88 <i_920>:
    80000f88:	7b000c13          	li	s8,1968

0000000080000f8c <i_921>:
    80000f8c:	7c300393          	li	t2,1987

0000000080000f90 <i_922>:
    80000f90:	f6013e83          	ld	t4,-160(sp)

0000000080000f94 <i_923>:
    80000f94:	00000013          	nop

0000000080000f98 <i_924>:
    80000f98:	0af12c23          	sw	a5,184(sp)

0000000080000f9c <i_925>:
    80000f9c:	17010783          	lb	a5,368(sp)

0000000080000fa0 <i_926>:
    80000fa0:	00deec63          	bltu	t4,a3,80000fb8 <i_931>

0000000080000fa4 <i_927>:
    80000fa4:	00000013          	nop

0000000080000fa8 <i_928>:
    80000fa8:	001c0c13          	addi	s8,s8,1
    80000fac:	ff83d2e3          	ble	s8,t2,80000f90 <i_922>

0000000080000fb0 <i_929>:
    80000fb0:	ec012c03          	lw	s8,-320(sp)

0000000080000fb4 <i_930>:
    80000fb4:	18d10e83          	lb	t4,397(sp)

0000000080000fb8 <i_931>:
    80000fb8:	0c814383          	lbu	t2,200(sp)

0000000080000fbc <i_932>:
    80000fbc:	027c9263          	bne	s9,t2,80000fe0 <i_941>

0000000080000fc0 <i_933>:
    80000fc0:	14c15d83          	lhu	s11,332(sp)

0000000080000fc4 <i_934>:
    80000fc4:	03e10d83          	lb	s11,62(sp)

0000000080000fc8 <i_935>:
    80000fc8:	015dad13          	slti	s10,s11,21

0000000080000fcc <i_936>:
    80000fcc:	41a789bb          	subw	s3,a5,s10

0000000080000fd0 <i_937>:
    80000fd0:	fc412203          	lw	tp,-60(sp)

0000000080000fd4 <i_938>:
    80000fd4:	0077d863          	ble	t2,a5,80000fe4 <i_942>

0000000080000fd8 <i_939>:
    80000fd8:	0387f23b          	remuw	tp,a5,s8

0000000080000fdc <i_940>:
    80000fdc:	029d9063          	bne	s11,s1,80000ffc <i_948>

0000000080000fe0 <i_941>:
    80000fe0:	01978463          	beq	a5,s9,80000fe8 <i_943>

0000000080000fe4 <i_942>:
    80000fe4:	c16d3213          	sltiu	tp,s10,-1002

0000000080000fe8 <i_943>:
    80000fe8:	b409cd13          	xori	s10,s3,-1216

0000000080000fec <i_944>:
    80000fec:	e3016803          	lwu	a6,-464(sp)

0000000080000ff0 <i_945>:
    80000ff0:	e9610803          	lb	a6,-362(sp)

0000000080000ff4 <i_946>:
    80000ff4:	f4412803          	lw	a6,-188(sp)

0000000080000ff8 <i_947>:
    80000ff8:	01dd8e33          	add	t3,s11,t4

0000000080000ffc <i_948>:
    80000ffc:	1cf13823          	sd	a5,464(sp)

0000000080001000 <i_949>:
    80001000:	01c83eb3          	sltu	t4,a6,t3

0000000080001004 <i_950>:
    80001004:	03a79263          	bne	a5,s10,80001028 <i_959>

0000000080001008 <i_951>:
    80001008:	02615203          	lhu	tp,38(sp)

000000008000100c <i_952>:
    8000100c:	08e15683          	lhu	a3,142(sp)

0000000080001010 <i_953>:
    80001010:	010e8263          	beq	t4,a6,80001014 <i_954>

0000000080001014 <i_954>:
    80001014:	15c11d23          	sh	t3,346(sp)

0000000080001018 <i_955>:
    80001018:	008ccdb3          	xor	s11,s9,s0

000000008000101c <i_956>:
    8000101c:	e4f13c23          	sd	a5,-424(sp)

0000000080001020 <i_957>:
    80001020:	010c6cb3          	or	s9,s8,a6

0000000080001024 <i_958>:
    80001024:	eb812983          	lw	s3,-328(sp)

0000000080001028 <i_959>:
    80001028:	4037d49b          	sraiw	s1,a5,0x3

000000008000102c <i_960>:
    8000102c:	0104fe63          	bleu	a6,s1,80001048 <i_967>

0000000080001030 <i_961>:
    80001030:	e3f12023          	sw	t6,-480(sp)

0000000080001034 <i_962>:
    80001034:	bb638413          	addi	s0,t2,-1098

0000000080001038 <i_963>:
    80001038:	00897463          	bleu	s0,s2,80001040 <i_965>

000000008000103c <i_964>:
    8000103c:	65d4f393          	andi	t2,s1,1629

0000000080001040 <i_965>:
    80001040:	0083d263          	ble	s0,t2,80001044 <i_966>

0000000080001044 <i_966>:
    80001044:	f2c15383          	lhu	t2,-212(sp)

0000000080001048 <i_967>:
    80001048:	f5c15983          	lhu	s3,-164(sp)

000000008000104c <i_968>:
    8000104c:	0073acb3          	slt	s9,t2,t2

0000000080001050 <i_969>:
    80001050:	087104a3          	sb	t2,137(sp)

0000000080001054 <i_970>:
    80001054:	013cf463          	bleu	s3,s9,8000105c <i_972>

0000000080001058 <i_971>:
    80001058:	f6c12c83          	lw	s9,-148(sp)

000000008000105c <i_972>:
    8000105c:	039e7063          	bleu	s9,t3,8000107c <i_980>

0000000080001060 <i_973>:
    80001060:	9a9fcc97          	auipc	s9,0x9a9fc

0000000080001064 <i_974>:
    80001064:	019cacb3          	slt	s9,s9,s9

0000000080001068 <i_975>:
    80001068:	01510f23          	sb	s5,30(sp)

000000008000106c <i_976>:
    8000106c:	09c13423          	sd	t3,136(sp)

0000000080001070 <i_977>:
    80001070:	e9c12e23          	sw	t3,-356(sp)

0000000080001074 <i_978>:
    80001074:	03600c93          	li	s9,54

0000000080001078 <i_979>:
    80001078:	419cdcb3          	sra	s9,s9,s9

000000008000107c <i_980>:
    8000107c:	030cd833          	divu	a6,s9,a6

0000000080001080 <i_981>:
    80001080:	fd911a23          	sh	s9,-44(sp)

0000000080001084 <i_982>:
    80001084:	41c90ebb          	subw	t4,s2,t3

0000000080001088 <i_983>:
    80001088:	030cbcb3          	mulhu	s9,s9,a6

000000008000108c <i_984>:
    8000108c:	e8615403          	lhu	s0,-378(sp)

0000000080001090 <i_985>:
    80001090:	5cbe3c93          	sltiu	s9,t3,1483

0000000080001094 <i_986>:
    80001094:	039c843b          	mulw	s0,s9,s9

0000000080001098 <i_987>:
    80001098:	02900193          	li	gp,41

000000008000109c <i_988>:
    8000109c:	40345cb3          	sra	s9,s0,gp

00000000800010a0 <i_989>:
    800010a0:	0027d413          	srli	s0,a5,0x2

00000000800010a4 <i_990>:
    800010a4:	0b414403          	lbu	s0,180(sp)

00000000800010a8 <i_991>:
    800010a8:	f8813423          	sd	s0,-120(sp)

00000000800010ac <i_992>:
    800010ac:	00846663          	bltu	s0,s0,800010b8 <i_995>

00000000800010b0 <i_993>:
    800010b0:	0281c063          	blt	gp,s0,800010d0 <i_1001>

00000000800010b4 <i_994>:
    800010b4:	0021d193          	srli	gp,gp,0x2

00000000800010b8 <i_995>:
    800010b8:	05c16e83          	lwu	t4,92(sp)

00000000800010bc <i_996>:
    800010bc:	01900193          	li	gp,25

00000000800010c0 <i_997>:
    800010c0:	40395b33          	sra	s6,s2,gp

00000000800010c4 <i_998>:
    800010c4:	e4813283          	ld	t0,-440(sp)

00000000800010c8 <i_999>:
    800010c8:	0234a1b3          	mulhsu	gp,s1,gp

00000000800010cc <i_1000>:
    800010cc:	ee814183          	lbu	gp,-280(sp)

00000000800010d0 <i_1001>:
    800010d0:	00000013          	nop

00000000800010d4 <i_1002>:
    800010d4:	04910183          	lb	gp,73(sp)

00000000800010d8 <i_1003>:
    800010d8:	76600313          	li	t1,1894

00000000800010dc <i_1004>:
    800010dc:	76b00413          	li	s0,1899

00000000800010e0 <i_1005>:
    800010e0:	fe013f03          	ld	t5,-32(sp)

00000000800010e4 <i_1006>:
    800010e4:	03e1d2b3          	divu	t0,gp,t5

00000000800010e8 <i_1007>:
    800010e8:	00000013          	nop

00000000800010ec <i_1008>:
    800010ec:	0231c63b          	divw	a2,gp,gp

00000000800010f0 <i_1009>:
    800010f0:	e9e10ca3          	sb	t5,-359(sp)

00000000800010f4 <i_1010>:
    800010f4:	00130313          	addi	t1,t1,1 # 7a644001 <main-0x59bbfff>
    800010f8:	fe6474e3          	bleu	t1,s0,800010e0 <i_1005>

00000000800010fc <i_1011>:
    800010fc:	40c601bb          	subw	gp,a2,a2

0000000080001100 <i_1012>:
    80001100:	001f561b          	srliw	a2,t5,0x1

0000000080001104 <i_1013>:
    80001104:	00b1de63          	ble	a1,gp,80001120 <i_1020>

0000000080001108 <i_1014>:
    80001108:	02ef0063          	beq	t5,a4,80001128 <i_1022>

000000008000110c <i_1015>:
    8000110c:	6fdc7a13          	andi	s4,s8,1789

0000000080001110 <i_1016>:
    80001110:	00600813          	li	a6,6

0000000080001114 <i_1017>:
    80001114:	41065a3b          	sraw	s4,a2,a6

0000000080001118 <i_1018>:
    80001118:	0101de63          	ble	a6,gp,80001134 <i_1025>

000000008000111c <i_1019>:
    8000111c:	0ac12a23          	sw	a2,180(sp)

0000000080001120 <i_1020>:
    80001120:	f0c12603          	lw	a2,-244(sp)

0000000080001124 <i_1021>:
    80001124:	15aa3e13          	sltiu	t3,s4,346

0000000080001128 <i_1022>:
    80001128:	00000013          	nop

000000008000112c <i_1023>:
    8000112c:	00365d13          	srli	s10,a2,0x3

0000000080001130 <i_1024>:
    80001130:	009d7433          	and	s0,s10,s1

0000000080001134 <i_1025>:
    80001134:	fde12023          	sw	t5,-64(sp)

0000000080001138 <i_1026>:
    80001138:	ed811b03          	lh	s6,-296(sp)

000000008000113c <i_1027>:
    8000113c:	75c00613          	li	a2,1884

0000000080001140 <i_1028>:
    80001140:	76600813          	li	a6,1894

0000000080001144 <i_1029>:
    80001144:	ed012e23          	sw	a6,-292(sp)

0000000080001148 <i_1030>:
    80001148:	00160613          	addi	a2,a2,1 # ffffffffbbe95001 <_end+0xffffffff3be84bed>
    8000114c:	ff064ce3          	blt	a2,a6,80001144 <i_1029>

0000000080001150 <i_1031>:
    80001150:	024e023b          	mulw	tp,t3,tp

0000000080001154 <i_1032>:
    80001154:	030b0463          	beq	s6,a6,8000117c <i_1042>

0000000080001158 <i_1033>:
    80001158:	01ee5863          	ble	t5,t3,80001168 <i_1037>

000000008000115c <i_1034>:
    8000115c:	00219193          	slli	gp,gp,0x2

0000000080001160 <i_1035>:
    80001160:	1cd11023          	sh	a3,448(sp)

0000000080001164 <i_1036>:
    80001164:	08416683          	lwu	a3,132(sp)

0000000080001168 <i_1037>:
    80001168:	f5013783          	ld	a5,-176(sp)

000000008000116c <i_1038>:
    8000116c:	15416b03          	lwu	s6,340(sp)

0000000080001170 <i_1039>:
    80001170:	001b1b13          	slli	s6,s6,0x1

0000000080001174 <i_1040>:
    80001174:	16411583          	lh	a1,356(sp)

0000000080001178 <i_1041>:
    80001178:	0367e7b3          	rem	a5,a5,s6

000000008000117c <i_1042>:
    8000117c:	00f7ee33          	or	t3,a5,a5

0000000080001180 <i_1043>:
    80001180:	01e00813          	li	a6,30

0000000080001184 <i_1044>:
    80001184:	01079a3b          	sllw	s4,a5,a6

0000000080001188 <i_1045>:
    80001188:	03c78063          	beq	a5,t3,800011a8 <i_1053>

000000008000118c <i_1046>:
    8000118c:	0f6107a3          	sb	s6,239(sp)

0000000080001190 <i_1047>:
    80001190:	fef13823          	sd	a5,-16(sp)

0000000080001194 <i_1048>:
    80001194:	01cb4863          	blt	s6,t3,800011a4 <i_1052>

0000000080001198 <i_1049>:
    80001198:	02fb01bb          	mulw	gp,s6,a5

000000008000119c <i_1050>:
    8000119c:	05411b03          	lh	s6,84(sp)

00000000800011a0 <i_1051>:
    800011a0:	02012183          	lw	gp,32(sp)

00000000800011a4 <i_1052>:
    800011a4:	f4313823          	sd	gp,-176(sp)

00000000800011a8 <i_1053>:
    800011a8:	ec311723          	sh	gp,-306(sp)

00000000800011ac <i_1054>:
    800011ac:	01e1f533          	and	a0,gp,t5

00000000800011b0 <i_1055>:
    800011b0:	183108a3          	sb	gp,401(sp)

00000000800011b4 <i_1056>:
    800011b4:	edc16183          	lwu	gp,-292(sp)

00000000800011b8 <i_1057>:
    800011b8:	03a15183          	lhu	gp,58(sp)

00000000800011bc <i_1058>:
    800011bc:	018b6463          	bltu	s6,s8,800011c4 <i_1060>

00000000800011c0 <i_1059>:
    800011c0:	01b9edb3          	or	s11,s3,s11

00000000800011c4 <i_1060>:
    800011c4:	02755533          	divu	a0,a0,t2

00000000800011c8 <i_1061>:
    800011c8:	16a13023          	sd	a0,352(sp)

00000000800011cc <i_1062>:
    800011cc:	1e69ec93          	ori	s9,s3,486

00000000800011d0 <i_1063>:
    800011d0:	03000e13          	li	t3,48

00000000800011d4 <i_1064>:
    800011d4:	01cad7b3          	srl	a5,s5,t3

00000000800011d8 <i_1065>:
    800011d8:	89000a93          	li	s5,-1904

00000000800011dc <i_1066>:
    800011dc:	8a000813          	li	a6,-1888

00000000800011e0 <i_1067>:
    800011e0:	001a8a93          	addi	s5,s5,1
    800011e4:	ff0a9ce3          	bne	s5,a6,800011dc <i_1066>

00000000800011e8 <i_1068>:
    800011e8:	e3c10f03          	lb	t5,-452(sp)

00000000800011ec <i_1069>:
    800011ec:	f2816383          	lwu	t2,-216(sp)

00000000800011f0 <i_1070>:
    800011f0:	03300793          	li	a5,51

00000000800011f4 <i_1071>:
    800011f4:	00fadc33          	srl	s8,s5,a5

00000000800011f8 <i_1072>:
    800011f8:	03befeb3          	remu	t4,t4,s11

00000000800011fc <i_1073>:
    800011fc:	07816183          	lwu	gp,120(sp)

0000000080001200 <i_1074>:
    80001200:	00000013          	nop

0000000080001204 <i_1075>:
    80001204:	73b00393          	li	t2,1851

0000000080001208 <i_1076>:
    80001208:	74300413          	li	s0,1859

000000008000120c <i_1077>:
    8000120c:	00db26b3          	slt	a3,s6,a3

0000000080001210 <i_1078>:
    80001210:	f0016303          	lwu	t1,-256(sp)

0000000080001214 <i_1079>:
    80001214:	7e100e13          	li	t3,2017

0000000080001218 <i_1080>:
    80001218:	7e800c93          	li	s9,2024

000000008000121c <i_1081>:
    8000121c:	f9812683          	lw	a3,-104(sp)

0000000080001220 <i_1082>:
    80001220:	001e0e13          	addi	t3,t3,1
    80001224:	ffccfce3          	bleu	t3,s9,8000121c <i_1081>

0000000080001228 <i_1083>:
    80001228:	10c11203          	lh	tp,268(sp)

000000008000122c <i_1084>:
    8000122c:	00138393          	addi	t2,t2,1
    80001230:	fc839ee3          	bne	t2,s0,8000120c <i_1077>

0000000080001234 <i_1085>:
    80001234:	146103a3          	sb	t1,327(sp)

0000000080001238 <i_1086>:
    80001238:	0c611923          	sh	t1,210(sp)

000000008000123c <i_1087>:
    8000123c:	16c16203          	lwu	tp,364(sp)

0000000080001240 <i_1088>:
    80001240:	08a27e93          	andi	t4,tp,138

0000000080001244 <i_1089>:
    80001244:	00d6f6b3          	and	a3,a3,a3

0000000080001248 <i_1090>:
    80001248:	0056c863          	blt	a3,t0,80001258 <i_1094>

000000008000124c <i_1091>:
    8000124c:	00436c63          	bltu	t1,tp,80001264 <i_1097>

0000000080001250 <i_1092>:
    80001250:	19011283          	lh	t0,400(sp)

0000000080001254 <i_1093>:
    80001254:	01c12203          	lw	tp,28(sp)

0000000080001258 <i_1094>:
    80001258:	0032da93          	srli	s5,t0,0x3

000000008000125c <i_1095>:
    8000125c:	024e523b          	divuw	tp,t3,tp

0000000080001260 <i_1096>:
    80001260:	00425a63          	ble	tp,tp,80001274 <i_1101>

0000000080001264 <i_1097>:
    80001264:	02424463          	blt	tp,tp,8000128c <i_1107>

0000000080001268 <i_1098>:
    80001268:	15811a83          	lh	s5,344(sp)

000000008000126c <i_1099>:
    8000126c:	26826793          	ori	a5,tp,616

0000000080001270 <i_1100>:
    80001270:	01524863          	blt	tp,s5,80001280 <i_1104>

0000000080001274 <i_1101>:
    80001274:	02412623          	sw	tp,44(sp)

0000000080001278 <i_1102>:
    80001278:	0047da93          	srli	s5,a5,0x4

000000008000127c <i_1103>:
    8000127c:	e7013a83          	ld	s5,-400(sp)

0000000080001280 <i_1104>:
    80001280:	06412623          	sw	tp,108(sp)

0000000080001284 <i_1105>:
    80001284:	d4222ab7          	lui	s5,0xd4222

0000000080001288 <i_1106>:
    80001288:	035adab3          	divu	s5,s5,s5

000000008000128c <i_1107>:
    8000128c:	0b510ca3          	sb	s5,185(sp)

0000000080001290 <i_1108>:
    80001290:	0f512223          	sw	s5,228(sp)

0000000080001294 <i_1109>:
    80001294:	85400213          	li	tp,-1964

0000000080001298 <i_1110>:
    80001298:	86500793          	li	a5,-1947

000000008000129c <i_1111>:
    8000129c:	00000013          	nop

00000000800012a0 <i_1112>:
    800012a0:	035a9663          	bne	s5,s5,800012cc <i_1122>

00000000800012a4 <i_1113>:
    800012a4:	002a9693          	slli	a3,s5,0x2

00000000800012a8 <i_1114>:
    800012a8:	02daeab3          	rem	s5,s5,a3

00000000800012ac <i_1115>:
    800012ac:	00000013          	nop

00000000800012b0 <i_1116>:
    800012b0:	05510423          	sb	s5,72(sp)

00000000800012b4 <i_1117>:
    800012b4:	00120213          	addi	tp,tp,1 # 1 <main-0x7fffffff>
    800012b8:	fef242e3          	blt	tp,a5,8000129c <i_1111>

00000000800012bc <i_1118>:
    800012bc:	035ac263          	blt	s5,s5,800012e0 <i_1127>

00000000800012c0 <i_1119>:
    800012c0:	009ae4b3          	or	s1,s5,s1

00000000800012c4 <i_1120>:
    800012c4:	40948abb          	subw	s5,s1,s1

00000000800012c8 <i_1121>:
    800012c8:	0374e4bb          	remw	s1,s1,s7

00000000800012cc <i_1122>:
    800012cc:	0d811483          	lh	s1,216(sp)

00000000800012d0 <i_1123>:
    800012d0:	f7711623          	sh	s7,-148(sp)

00000000800012d4 <i_1124>:
    800012d4:	1c813683          	ld	a3,456(sp)

00000000800012d8 <i_1125>:
    800012d8:	e2d10223          	sb	a3,-476(sp)

00000000800012dc <i_1126>:
    800012dc:	00000013          	nop

00000000800012e0 <i_1127>:
    800012e0:	e5b10a83          	lb	s5,-421(sp)

00000000800012e4 <i_1128>:
    800012e4:	17412c03          	lw	s8,372(sp)

00000000800012e8 <i_1129>:
    800012e8:	7eb00e13          	li	t3,2027

00000000800012ec <i_1130>:
    800012ec:	7ed00b93          	li	s7,2029

00000000800012f0 <i_1131>:
    800012f0:	02d6f463          	bleu	a3,a3,80001318 <i_1140>

00000000800012f4 <i_1132>:
    800012f4:	1a911823          	sh	s1,432(sp)

00000000800012f8 <i_1133>:
    800012f8:	02de1463          	bne	t3,a3,80001320 <i_1142>

00000000800012fc <i_1134>:
    800012fc:	f4013a83          	ld	s5,-192(sp)

0000000080001300 <i_1135>:
    80001300:	001e0e13          	addi	t3,t3,1
    80001304:	ff7e46e3          	blt	t3,s7,800012f0 <i_1131>

0000000080001308 <i_1136>:
    80001308:	17416c83          	lwu	s9,372(sp)

000000008000130c <i_1137>:
    8000130c:	403cde1b          	sraiw	t3,s9,0x3

0000000080001310 <i_1138>:
    80001310:	03ce0463          	beq	t3,t3,80001338 <i_1148>

0000000080001314 <i_1139>:
    80001314:	01c15383          	lhu	t2,28(sp)

0000000080001318 <i_1140>:
    80001318:	01512223          	sw	s5,4(sp)

000000008000131c <i_1141>:
    8000131c:	03c385bb          	mulw	a1,t2,t3

0000000080001320 <i_1142>:
    80001320:	13713c23          	sd	s7,312(sp)

0000000080001324 <i_1143>:
    80001324:	00b58263          	beq	a1,a1,80001328 <i_1144>

0000000080001328 <i_1144>:
    80001328:	003a921b          	slliw	tp,s5,0x3

000000008000132c <i_1145>:
    8000132c:	01ce1e63          	bne	t3,t3,80001348 <i_1152>

0000000080001330 <i_1146>:
    80001330:	01526c63          	bltu	tp,s5,80001348 <i_1152>

0000000080001334 <i_1147>:
    80001334:	00badc63          	ble	a1,s5,8000134c <i_1153>

0000000080001338 <i_1148>:
    80001338:	02e10203          	lb	tp,46(sp)

000000008000133c <i_1149>:
    8000133c:	14016a83          	lwu	s5,320(sp)

0000000080001340 <i_1150>:
    80001340:	03526633          	rem	a2,tp,s5

0000000080001344 <i_1151>:
    80001344:	eab10323          	sb	a1,-346(sp)

0000000080001348 <i_1152>:
    80001348:	e3a11d83          	lh	s11,-454(sp)

000000008000134c <i_1153>:
    8000134c:	01730e63          	beq	t1,s7,80001368 <i_1160>

0000000080001350 <i_1154>:
    80001350:	01b00513          	li	a0,27

0000000080001354 <i_1155>:
    80001354:	40a5d5bb          	sraw	a1,a1,a0

0000000080001358 <i_1156>:
    80001358:	00a2de63          	ble	a0,t0,80001374 <i_1163>

000000008000135c <i_1157>:
    8000135c:	0a814583          	lbu	a1,168(sp)

0000000080001360 <i_1158>:
    80001360:	03ef3e33          	mulhu	t3,t5,t5

0000000080001364 <i_1159>:
    80001364:	0255f833          	remu	a6,a1,t0

0000000080001368 <i_1160>:
    80001368:	00b08533          	add	a0,ra,a1

000000008000136c <i_1161>:
    8000136c:	2db50b9b          	addiw	s7,a0,731

0000000080001370 <i_1162>:
    80001370:	00000013          	nop

0000000080001374 <i_1163>:
    80001374:	40eb84bb          	subw	s1,s7,a4

0000000080001378 <i_1164>:
    80001378:	02559b33          	mulh	s6,a1,t0

000000008000137c <i_1165>:
    8000137c:	78800293          	li	t0,1928

0000000080001380 <i_1166>:
    80001380:	79200f13          	li	t5,1938

0000000080001384 <i_1167>:
    80001384:	00000013          	nop

0000000080001388 <i_1168>:
    80001388:	00000013          	nop

000000008000138c <i_1169>:
    8000138c:	01c2e7b3          	or	a5,t0,t3

0000000080001390 <i_1170>:
    80001390:	679cfe17          	auipc	t3,0x679cf

0000000080001394 <i_1171>:
    80001394:	02fe77bb          	remuw	a5,t3,a5

0000000080001398 <i_1172>:
    80001398:	02fb50bb          	divuw	ra,s6,a5

000000008000139c <i_1173>:
    8000139c:	00128293          	addi	t0,t0,1
    800013a0:	fe5f72e3          	bleu	t0,t5,80001384 <i_1167>

00000000800013a4 <i_1174>:
    800013a4:	036e6063          	bltu	t3,s6,800013c4 <i_1182>

00000000800013a8 <i_1175>:
    800013a8:	00200a13          	li	s4,2

00000000800013ac <i_1176>:
    800013ac:	014b1b3b          	sllw	s6,s6,s4

00000000800013b0 <i_1177>:
    800013b0:	01ca4c63          	blt	s4,t3,800013c8 <i_1183>

00000000800013b4 <i_1178>:
    800013b4:	001a05b3          	add	a1,s4,ra

00000000800013b8 <i_1179>:
    800013b8:	07a10083          	lb	ra,122(sp)

00000000800013bc <i_1180>:
    800013bc:	e2016083          	lwu	ra,-480(sp)

00000000800013c0 <i_1181>:
    800013c0:	04814a83          	lbu	s5,72(sp)

00000000800013c4 <i_1182>:
    800013c4:	e16a8d13          	addi	s10,s5,-490 # ffffffffd4221e16 <_end+0xffffffff54211a02>

00000000800013c8 <i_1183>:
    800013c8:	11412c83          	lw	s9,276(sp)

00000000800013cc <i_1184>:
    800013cc:	0acc8093          	addi	ra,s9,172 # 1a9fd10c <main-0x65602ef4>

00000000800013d0 <i_1185>:
    800013d0:	01916db3          	or	s11,sp,s9

00000000800013d4 <i_1186>:
    800013d4:	860c8c93          	addi	s9,s9,-1952

00000000800013d8 <i_1187>:
    800013d8:	f7016f03          	lwu	t5,-144(sp)

00000000800013dc <i_1188>:
    800013dc:	03249263          	bne	s1,s2,80001400 <i_1197>

00000000800013e0 <i_1189>:
    800013e0:	013e6863          	bltu	t3,s3,800013f0 <i_1193>

00000000800013e4 <i_1190>:
    800013e4:	01300313          	li	t1,19

00000000800013e8 <i_1191>:
    800013e8:	006f143b          	sllw	s0,t5,t1

00000000800013ec <i_1192>:
    800013ec:	c28cac13          	slti	s8,s9,-984

00000000800013f0 <i_1193>:
    800013f0:	e4411b03          	lh	s6,-444(sp)

00000000800013f4 <i_1194>:
    800013f4:	bfb47413          	andi	s0,s0,-1029

00000000800013f8 <i_1195>:
    800013f8:	10816c83          	lwu	s9,264(sp)

00000000800013fc <i_1196>:
    800013fc:	6a7e7bb7          	lui	s7,0x6a7e7

0000000080001400 <i_1197>:
    80001400:	019bb1b3          	sltu	gp,s7,s9

0000000080001404 <i_1198>:
    80001404:	f1615483          	lhu	s1,-234(sp)

0000000080001408 <i_1199>:
    80001408:	77700f13          	li	t5,1911

000000008000140c <i_1200>:
    8000140c:	78b00693          	li	a3,1931

0000000080001410 <i_1201>:
    80001410:	001f0f13          	addi	t5,t5,1
    80001414:	fedf1ee3          	bne	t5,a3,80001410 <i_1201>

0000000080001418 <i_1202>:
    80001418:	023b4263          	blt	s6,gp,8000143c <i_1211>

000000008000141c <i_1203>:
    8000141c:	f6215283          	lhu	t0,-158(sp)

0000000080001420 <i_1204>:
    80001420:	01e2ec63          	bltu	t0,t5,80001438 <i_1210>

0000000080001424 <i_1205>:
    80001424:	01968663          	beq	a3,s9,80001430 <i_1208>

0000000080001428 <i_1206>:
    80001428:	00249c9b          	slliw	s9,s1,0x2

000000008000142c <i_1207>:
    8000142c:	fe813803          	ld	a6,-24(sp)

0000000080001430 <i_1208>:
    80001430:	0b012783          	lw	a5,176(sp)

0000000080001434 <i_1209>:
    80001434:	e8512223          	sw	t0,-380(sp)

0000000080001438 <i_1210>:
    80001438:	5082e813          	ori	a6,t0,1288

000000008000143c <i_1211>:
    8000143c:	0f011423          	sh	a6,232(sp)

0000000080001440 <i_1212>:
    80001440:	1ce11f23          	sh	a4,478(sp)

0000000080001444 <i_1213>:
    80001444:	0252c43b          	divw	s0,t0,t0

0000000080001448 <i_1214>:
    80001448:	fc5105a3          	sb	t0,-53(sp)

000000008000144c <i_1215>:
    8000144c:	01acca63          	blt	s9,s10,80001460 <i_1220>

0000000080001450 <i_1216>:
    80001450:	fa813823          	sd	s0,-80(sp)

0000000080001454 <i_1217>:
    80001454:	00f282b3          	add	t0,t0,a5

0000000080001458 <i_1218>:
    80001458:	ee611283          	lh	t0,-282(sp)

000000008000145c <i_1219>:
    8000145c:	1ac15403          	lhu	s0,428(sp)

0000000080001460 <i_1220>:
    80001460:	03c2ee33          	rem	t3,t0,t3

0000000080001464 <i_1221>:
    80001464:	001e5693          	srli	a3,t3,0x1

0000000080001468 <i_1222>:
    80001468:	408e02b3          	sub	t0,t3,s0

000000008000146c <i_1223>:
    8000146c:	025e5463          	ble	t0,t3,80001494 <i_1233>

0000000080001470 <i_1224>:
    80001470:	07410483          	lb	s1,116(sp)

0000000080001474 <i_1225>:
    80001474:	01ce0cb3          	add	s9,t3,t3

0000000080001478 <i_1226>:
    80001478:	005e84b3          	add	s1,t4,t0

000000008000147c <i_1227>:
    8000147c:	e8410e03          	lb	t3,-380(sp)

0000000080001480 <i_1228>:
    80001480:	0026561b          	srliw	a2,a2,0x2

0000000080001484 <i_1229>:
    80001484:	0252a5b3          	mulhsu	a1,t0,t0

0000000080001488 <i_1230>:
    80001488:	19910523          	sb	s9,394(sp)

000000008000148c <i_1231>:
    8000148c:	02c46cbb          	remw	s9,s0,a2

0000000080001490 <i_1232>:
    80001490:	ea511323          	sh	t0,-346(sp)

0000000080001494 <i_1233>:
    80001494:	009e1e63          	bne	t3,s1,800014b0 <i_1240>

0000000080001498 <i_1234>:
    80001498:	00d99c63          	bne	s3,a3,800014b0 <i_1240>

000000008000149c <i_1235>:
    8000149c:	02d4ddb3          	divu	s11,s1,a3

00000000800014a0 <i_1236>:
    800014a0:	01b5ea63          	bltu	a1,s11,800014b4 <i_1241>

00000000800014a4 <i_1237>:
    800014a4:	01f00813          	li	a6,31

00000000800014a8 <i_1238>:
    800014a8:	410dddbb          	sraw	s11,s11,a6

00000000800014ac <i_1239>:
    800014ac:	03011783          	lh	a5,48(sp)

00000000800014b0 <i_1240>:
    800014b0:	01b79263          	bne	a5,s11,800014b4 <i_1241>

00000000800014b4 <i_1241>:
    800014b4:	0033199b          	slliw	s3,t1,0x3

00000000800014b8 <i_1242>:
    800014b8:	ee013d83          	ld	s11,-288(sp)

00000000800014bc <i_1243>:
    800014bc:	16215303          	lhu	t1,354(sp)

00000000800014c0 <i_1244>:
    800014c0:	00431593          	slli	a1,t1,0x4

00000000800014c4 <i_1245>:
    800014c4:	7daa0793          	addi	a5,s4,2010

00000000800014c8 <i_1246>:
    800014c8:	704a7313          	andi	t1,s4,1796

00000000800014cc <i_1247>:
    800014cc:	7b100193          	li	gp,1969

00000000800014d0 <i_1248>:
    800014d0:	7b700a13          	li	s4,1975

00000000800014d4 <i_1249>:
    800014d4:	dfca6593          	ori	a1,s4,-516

00000000800014d8 <i_1250>:
    800014d8:	06f13023          	sd	a5,96(sp)

00000000800014dc <i_1251>:
    800014dc:	00000013          	nop

00000000800014e0 <i_1252>:
    800014e0:	0125f463          	bleu	s2,a1,800014e8 <i_1254>

00000000800014e4 <i_1253>:
    800014e4:	4165833b          	subw	t1,a1,s6

00000000800014e8 <i_1254>:
    800014e8:	006c7c63          	bleu	t1,s8,80001500 <i_1259>

00000000800014ec <i_1255>:
    800014ec:	01030833          	add	a6,t1,a6

00000000800014f0 <i_1256>:
    800014f0:	00118193          	addi	gp,gp,1
    800014f4:	ff41e0e3          	bltu	gp,s4,800014d4 <i_1249>

00000000800014f8 <i_1257>:
    800014f8:	ff012583          	lw	a1,-16(sp)

00000000800014fc <i_1258>:
    800014fc:	02b86833          	rem	a6,a6,a1

0000000080001500 <i_1259>:
    80001500:	02b5cb3b          	divw	s6,a1,a1

0000000080001504 <i_1260>:
    80001504:	00bb0c63          	beq	s6,a1,8000151c <i_1266>

0000000080001508 <i_1261>:
    80001508:	0bc11583          	lh	a1,188(sp)

000000008000150c <i_1262>:
    8000150c:	00b85263          	ble	a1,a6,80001510 <i_1263>

0000000080001510 <i_1263>:
    80001510:	010b4263          	blt	s6,a6,80001514 <i_1264>

0000000080001514 <i_1264>:
    80001514:	ff412d03          	lw	s10,-12(sp)

0000000080001518 <i_1265>:
    80001518:	00b58233          	add	tp,a1,a1

000000008000151c <i_1266>:
    8000151c:	ec013c83          	ld	s9,-320(sp)

0000000080001520 <i_1267>:
    80001520:	02b8e463          	bltu	a7,a1,80001548 <i_1277>

0000000080001524 <i_1268>:
    80001524:	f3910983          	lb	s3,-199(sp)

0000000080001528 <i_1269>:
    80001528:	01584263          	blt	a6,s5,8000152c <i_1270>

000000008000152c <i_1270>:
    8000152c:	0d012e23          	sw	a6,220(sp)

0000000080001530 <i_1271>:
    80001530:	10014a83          	lbu	s5,256(sp)

0000000080001534 <i_1272>:
    80001534:	01e00813          	li	a6,30

0000000080001538 <i_1273>:
    80001538:	01009c3b          	sllw	s8,ra,a6

000000008000153c <i_1274>:
    8000153c:	01aa9863          	bne	s5,s10,8000154c <i_1278>

0000000080001540 <i_1275>:
    80001540:	fe011803          	lh	a6,-32(sp)

0000000080001544 <i_1276>:
    80001544:	eda11c83          	lh	s9,-294(sp)

0000000080001548 <i_1277>:
    80001548:	f0416f03          	lwu	t5,-252(sp)

000000008000154c <i_1278>:
    8000154c:	0f712023          	sw	s7,224(sp)

0000000080001550 <i_1279>:
    80001550:	036acc3b          	divw	s8,s5,s6

0000000080001554 <i_1280>:
    80001554:	83f00e93          	li	t4,-1985

0000000080001558 <i_1281>:
    80001558:	84600413          	li	s0,-1978

000000008000155c <i_1282>:
    8000155c:	1b011c83          	lh	s9,432(sp)

0000000080001560 <i_1283>:
    80001560:	115106a3          	sb	s5,269(sp)

0000000080001564 <i_1284>:
    80001564:	18912423          	sw	s1,392(sp)

0000000080001568 <i_1285>:
    80001568:	00000013          	nop

000000008000156c <i_1286>:
    8000156c:	fd410483          	lb	s1,-44(sp)

0000000080001570 <i_1287>:
    80001570:	0384c4b3          	div	s1,s1,s8

0000000080001574 <i_1288>:
    80001574:	001e8e93          	addi	t4,t4,1
    80001578:	fe8e92e3          	bne	t4,s0,8000155c <i_1282>

000000008000157c <i_1289>:
    8000157c:	01788bb3          	add	s7,a7,s7

0000000080001580 <i_1290>:
    80001580:	037a17b3          	mulh	a5,s4,s7

0000000080001584 <i_1291>:
    80001584:	08514203          	lbu	tp,133(sp)

0000000080001588 <i_1292>:
    80001588:	03a79463          	bne	a5,s10,800015b0 <i_1302>

000000008000158c <i_1293>:
    8000158c:	e9811423          	sh	s8,-376(sp)

0000000080001590 <i_1294>:
    80001590:	6f876793          	ori	a5,a4,1784

0000000080001594 <i_1295>:
    80001594:	02420063          	beq	tp,tp,800015b4 <i_1303>

0000000080001598 <i_1296>:
    80001598:	41de87b3          	sub	a5,t4,t4

000000008000159c <i_1297>:
    8000159c:	7c624213          	xori	tp,tp,1990

00000000800015a0 <i_1298>:
    800015a0:	0cf109a3          	sb	a5,211(sp)

00000000800015a4 <i_1299>:
    800015a4:	0046d69b          	srliw	a3,a3,0x4

00000000800015a8 <i_1300>:
    800015a8:	00f6ce63          	blt	a3,a5,800015c4 <i_1307>

00000000800015ac <i_1301>:
    800015ac:	f9012e83          	lw	t4,-112(sp)

00000000800015b0 <i_1302>:
    800015b0:	01eebd33          	sltu	s10,t4,t5

00000000800015b4 <i_1303>:
    800015b4:	f2d12023          	sw	a3,-224(sp)

00000000800015b8 <i_1304>:
    800015b8:	15412e83          	lw	t4,340(sp)

00000000800015bc <i_1305>:
    800015bc:	a2a607b7          	lui	a5,0xa2a60

00000000800015c0 <i_1306>:
    800015c0:	03ae8dbb          	mulw	s11,t4,s10

00000000800015c4 <i_1307>:
    800015c4:	02bdd5bb          	divuw	a1,s11,a1

00000000800015c8 <i_1308>:
    800015c8:	0025909b          	slliw	ra,a1,0x2

00000000800015cc <i_1309>:
    800015cc:	0e911b23          	sh	s1,246(sp)

00000000800015d0 <i_1310>:
    800015d0:	fa1106a3          	sb	ra,-83(sp)

00000000800015d4 <i_1311>:
    800015d4:	0ce15083          	lhu	ra,206(sp)

00000000800015d8 <i_1312>:
    800015d8:	01ad7833          	and	a6,s10,s10

00000000800015dc <i_1313>:
    800015dc:	1e614d03          	lbu	s10,486(sp)

00000000800015e0 <i_1314>:
    800015e0:	403d5593          	srai	a1,s10,0x3

00000000800015e4 <i_1315>:
    800015e4:	f8a10783          	lb	a5,-118(sp)

00000000800015e8 <i_1316>:
    800015e8:	e4e11803          	lh	a6,-434(sp)

00000000800015ec <i_1317>:
    800015ec:	00f58263          	beq	a1,a5,800015f0 <i_1318>

00000000800015f0 <i_1318>:
    800015f0:	00700d13          	li	s10,7

00000000800015f4 <i_1319>:
    800015f4:	41a7dc33          	sra	s8,a5,s10

00000000800015f8 <i_1320>:
    800015f8:	0f411e83          	lh	t4,244(sp)

00000000800015fc <i_1321>:
    800015fc:	03ad0cbb          	mulw	s9,s10,s10

0000000080001600 <i_1322>:
    80001600:	039ee0bb          	remw	ra,t4,s9

0000000080001604 <i_1323>:
    80001604:	37e87093          	andi	ra,a6,894

0000000080001608 <i_1324>:
    80001608:	0ba10423          	sb	s10,168(sp)

000000008000160c <i_1325>:
    8000160c:	f0cffb93          	andi	s7,t6,-244

0000000080001610 <i_1326>:
    80001610:	11810b03          	lb	s6,280(sp)

0000000080001614 <i_1327>:
    80001614:	004b581b          	srliw	a6,s6,0x4

0000000080001618 <i_1328>:
    80001618:	eeba0a13          	addi	s4,s4,-277

000000008000161c <i_1329>:
    8000161c:	016a5863          	ble	s6,s4,8000162c <i_1333>

0000000080001620 <i_1330>:
    80001620:	09158593          	addi	a1,a1,145

0000000080001624 <i_1331>:
    80001624:	e6015a83          	lhu	s5,-416(sp)

0000000080001628 <i_1332>:
    80001628:	19410623          	sb	s4,396(sp)

000000008000162c <i_1333>:
    8000162c:	f8813b83          	ld	s7,-120(sp)

0000000080001630 <i_1334>:
    80001630:	01d00193          	li	gp,29

0000000080001634 <i_1335>:
    80001634:	003a91bb          	sllw	gp,s5,gp

0000000080001638 <i_1336>:
    80001638:	0e310b23          	sb	gp,246(sp)

000000008000163c <i_1337>:
    8000163c:	fc313423          	sd	gp,-56(sp)

0000000080001640 <i_1338>:
    80001640:	17914d03          	lbu	s10,377(sp)

0000000080001644 <i_1339>:
    80001644:	ea112623          	sw	ra,-340(sp)

0000000080001648 <i_1340>:
    80001648:	02be9263          	bne	t4,a1,8000166c <i_1349>

000000008000164c <i_1341>:
    8000164c:	14314803          	lbu	a6,323(sp)

0000000080001650 <i_1342>:
    80001650:	01800a13          	li	s4,24

0000000080001654 <i_1343>:
    80001654:	4145de3b          	sraw	t3,a1,s4

0000000080001658 <i_1344>:
    80001658:	01f69e63          	bne	a3,t6,80001674 <i_1351>

000000008000165c <i_1345>:
    8000165c:	0c7102a3          	sb	t2,197(sp)

0000000080001660 <i_1346>:
    80001660:	01408a63          	beq	ra,s4,80001674 <i_1351>

0000000080001664 <i_1347>:
    80001664:	01735663          	ble	s7,t1,80001670 <i_1350>

0000000080001668 <i_1348>:
    80001668:	414d0e33          	sub	t3,s10,s4

000000008000166c <i_1349>:
    8000166c:	023e0533          	mul	a0,t3,gp

0000000080001670 <i_1350>:
    80001670:	f4816183          	lwu	gp,-184(sp)

0000000080001674 <i_1351>:
    80001674:	04a104a3          	sb	a0,73(sp)

0000000080001678 <i_1352>:
    80001678:	07813e03          	ld	t3,120(sp)

000000008000167c <i_1353>:
    8000167c:	0ea11723          	sh	a0,238(sp)

0000000080001680 <i_1354>:
    80001680:	0031ee33          	or	t3,gp,gp

0000000080001684 <i_1355>:
    80001684:	004e5e1b          	srliw	t3,t3,0x4

0000000080001688 <i_1356>:
    80001688:	01c18663          	beq	gp,t3,80001694 <i_1359>

000000008000168c <i_1357>:
    8000168c:	01ce4263          	blt	t3,t3,80001690 <i_1358>

0000000080001690 <i_1358>:
    80001690:	026d11b7          	lui	gp,0x26d1

0000000080001694 <i_1359>:
    80001694:	f2a15e03          	lhu	t3,-214(sp)

0000000080001698 <i_1360>:
    80001698:	01ce6e33          	or	t3,t3,t3

000000008000169c <i_1361>:
    8000169c:	01ce5c63          	ble	t3,t3,800016b4 <i_1367>

00000000800016a0 <i_1362>:
    800016a0:	00418263          	beq	gp,tp,800016a4 <i_1363>

00000000800016a4 <i_1363>:
    800016a4:	f9c13023          	sd	t3,-128(sp)

00000000800016a8 <i_1364>:
    800016a8:	fbc11323          	sh	t3,-90(sp)

00000000800016ac <i_1365>:
    800016ac:	40145413          	srai	s0,s0,0x1

00000000800016b0 <i_1366>:
    800016b0:	003e7463          	bleu	gp,t3,800016b8 <i_1368>

00000000800016b4 <i_1367>:
    800016b4:	01ce7e33          	and	t3,t3,t3

00000000800016b8 <i_1368>:
    800016b8:	1d310b83          	lb	s7,467(sp)

00000000800016bc <i_1369>:
    800016bc:	037bfe3b          	remuw	t3,s7,s7

00000000800016c0 <i_1370>:
    800016c0:	017e7b33          	and	s6,t3,s7

00000000800016c4 <i_1371>:
    800016c4:	e9615a83          	lhu	s5,-362(sp)

00000000800016c8 <i_1372>:
    800016c8:	01cbcbb3          	xor	s7,s7,t3

00000000800016cc <i_1373>:
    800016cc:	e8211583          	lh	a1,-382(sp)

00000000800016d0 <i_1374>:
    800016d0:	036e7bbb          	remuw	s7,t3,s6

00000000800016d4 <i_1375>:
    800016d4:	037e4063          	blt	t3,s7,800016f4 <i_1383>

00000000800016d8 <i_1376>:
    800016d8:	197102a3          	sb	s7,389(sp)

00000000800016dc <i_1377>:
    800016dc:	02500b93          	li	s7,37

00000000800016e0 <i_1378>:
    800016e0:	417bda33          	sra	s4,s7,s7

00000000800016e4 <i_1379>:
    800016e4:	1d813783          	ld	a5,472(sp)

00000000800016e8 <i_1380>:
    800016e8:	75acba13          	sltiu	s4,s9,1882

00000000800016ec <i_1381>:
    800016ec:	0017979b          	slliw	a5,a5,0x1

00000000800016f0 <i_1382>:
    800016f0:	0145b7b3          	sltu	a5,a1,s4

00000000800016f4 <i_1383>:
    800016f4:	fbc12c83          	lw	s9,-68(sp)

00000000800016f8 <i_1384>:
    800016f8:	019b6663          	bltu	s6,s9,80001704 <i_1387>

00000000800016fc <i_1385>:
    800016fc:	03d7ea3b          	remw	s4,a5,t4

0000000080001700 <i_1386>:
    80001700:	418c8c33          	sub	s8,s9,s8

0000000080001704 <i_1387>:
    80001704:	004a5c9b          	srliw	s9,s4,0x4

0000000080001708 <i_1388>:
    80001708:	fe214c83          	lbu	s9,-30(sp)

000000008000170c <i_1389>:
    8000170c:	f4710aa3          	sb	t2,-171(sp)

0000000080001710 <i_1390>:
    80001710:	01408c63          	beq	ra,s4,80001728 <i_1396>

0000000080001714 <i_1391>:
    80001714:	03015c03          	lhu	s8,48(sp)

0000000080001718 <i_1392>:
    80001718:	010df0b3          	and	ra,s11,a6

000000008000171c <i_1393>:
    8000171c:	00111523          	sh	ra,10(sp)

0000000080001720 <i_1394>:
    80001720:	f7e5adb7          	lui	s11,0xf7e5a

0000000080001724 <i_1395>:
    80001724:	011c4263          	blt	s8,a7,80001728 <i_1396>

0000000080001728 <i_1396>:
    80001728:	1be11b83          	lh	s7,446(sp)

000000008000172c <i_1397>:
    8000172c:	0bc15b83          	lhu	s7,188(sp)

0000000080001730 <i_1398>:
    80001730:	14c16b83          	lwu	s7,332(sp)

0000000080001734 <i_1399>:
    80001734:	e4c12b83          	lw	s7,-436(sp)

0000000080001738 <i_1400>:
    80001738:	fe016b83          	lwu	s7,-32(sp)

000000008000173c <i_1401>:
    8000173c:	017bce63          	blt	s7,s7,80001758 <i_1408>

0000000080001740 <i_1402>:
    80001740:	42adaa13          	slti	s4,s11,1066

0000000080001744 <i_1403>:
    80001744:	02c10d03          	lb	s10,44(sp)

0000000080001748 <i_1404>:
    80001748:	006bc663          	blt	s7,t1,80001754 <i_1407>

000000008000174c <i_1405>:
    8000174c:	01fd02b3          	add	t0,s10,t6

0000000080001750 <i_1406>:
    80001750:	00429d1b          	slliw	s10,t0,0x4

0000000080001754 <i_1407>:
    80001754:	00a00d93          	li	s11,10

0000000080001758 <i_1408>:
    80001758:	41bbda3b          	sraw	s4,s7,s11

000000008000175c <i_1409>:
    8000175c:	02813403          	ld	s0,40(sp)

0000000080001760 <i_1410>:
    80001760:	01abe263          	bltu	s7,s10,80001764 <i_1411>

0000000080001764 <i_1411>:
    80001764:	290a4413          	xori	s0,s4,656

0000000080001768 <i_1412>:
    80001768:	14314d03          	lbu	s10,323(sp)

000000008000176c <i_1413>:
    8000176c:	03945263          	ble	s9,s0,80001790 <i_1422>

0000000080001770 <i_1414>:
    80001770:	f2812303          	lw	t1,-216(sp)

0000000080001774 <i_1415>:
    80001774:	001bdb9b          	srliw	s7,s7,0x1

0000000080001778 <i_1416>:
    80001778:	e9c16303          	lwu	t1,-356(sp)

000000008000177c <i_1417>:
    8000177c:	404d5d1b          	sraiw	s10,s10,0x4

0000000080001780 <i_1418>:
    80001780:	03a31f33          	mulh	t5,t1,s10

0000000080001784 <i_1419>:
    80001784:	f3314d03          	lbu	s10,-205(sp)

0000000080001788 <i_1420>:
    80001788:	f2816a03          	lwu	s4,-216(sp)

000000008000178c <i_1421>:
    8000178c:	10412083          	lw	ra,260(sp)

0000000080001790 <i_1422>:
    80001790:	06014303          	lbu	t1,96(sp)

0000000080001794 <i_1423>:
    80001794:	a7ba3d13          	sltiu	s10,s4,-1413

0000000080001798 <i_1424>:
    80001798:	006d6663          	bltu	s10,t1,800017a4 <i_1427>

000000008000179c <i_1425>:
    8000179c:	ec415e03          	lhu	t3,-316(sp)

00000000800017a0 <i_1426>:
    800017a0:	1d412803          	lw	a6,468(sp)

00000000800017a4 <i_1427>:
    800017a4:	fde11923          	sh	t5,-46(sp)

00000000800017a8 <i_1428>:
    800017a8:	f8e11503          	lh	a0,-114(sp)

00000000800017ac <i_1429>:
    800017ac:	01ae6e63          	bltu	t3,s10,800017c8 <i_1436>

00000000800017b0 <i_1430>:
    800017b0:	e7e56513          	ori	a0,a0,-386

00000000800017b4 <i_1431>:
    800017b4:	0340f833          	remu	a6,ra,s4

00000000800017b8 <i_1432>:
    800017b8:	1b713423          	sd	s7,424(sp)

00000000800017bc <i_1433>:
    800017bc:	0266ed3b          	remw	s10,a3,t1

00000000800017c0 <i_1434>:
    800017c0:	03e354bb          	divuw	s1,t1,t5

00000000800017c4 <i_1435>:
    800017c4:	ff0106a3          	sb	a6,-19(sp)

00000000800017c8 <i_1436>:
    800017c8:	05e104a3          	sb	t5,73(sp)

00000000800017cc <i_1437>:
    800017cc:	f5416f03          	lwu	t5,-172(sp)

00000000800017d0 <i_1438>:
    800017d0:	01900213          	li	tp,25

00000000800017d4 <i_1439>:
    800017d4:	40435833          	sra	a6,t1,tp

00000000800017d8 <i_1440>:
    800017d8:	03020f3b          	mulw	t5,tp,a6

00000000800017dc <i_1441>:
    800017dc:	00484663          	blt	a6,tp,800017e8 <i_1444>

00000000800017e0 <i_1442>:
    800017e0:	e3013c23          	sd	a6,-456(sp)

00000000800017e4 <i_1443>:
    800017e4:	f0411623          	sh	tp,-244(sp)

00000000800017e8 <i_1444>:
    800017e8:	f4812383          	lw	t2,-184(sp)

00000000800017ec <i_1445>:
    800017ec:	fd813383          	ld	t2,-40(sp)

00000000800017f0 <i_1446>:
    800017f0:	fba10203          	lb	tp,-70(sp)

00000000800017f4 <i_1447>:
    800017f4:	e6512223          	sw	t0,-412(sp)

00000000800017f8 <i_1448>:
    800017f8:	0073c463          	blt	t2,t2,80001800 <i_1450>

00000000800017fc <i_1449>:
    800017fc:	00800313          	li	t1,8

0000000080001800 <i_1450>:
    80001800:	4063d3bb          	sraw	t2,t2,t1

0000000080001804 <i_1451>:
    80001804:	fc710d23          	sb	t2,-38(sp)

0000000080001808 <i_1452>:
    80001808:	fc612823          	sw	t1,-48(sp)

000000008000180c <i_1453>:
    8000180c:	00a00393          	li	t2,10

0000000080001810 <i_1454>:
    80001810:	4073d3b3          	sra	t2,t2,t2

0000000080001814 <i_1455>:
    80001814:	007487b3          	add	a5,s1,t2

0000000080001818 <i_1456>:
    80001818:	00636463          	bltu	t1,t1,80001820 <i_1458>

000000008000181c <i_1457>:
    8000181c:	ee612423          	sw	t1,-280(sp)

0000000080001820 <i_1458>:
    80001820:	007ff863          	bleu	t2,t6,80001830 <i_1462>

0000000080001824 <i_1459>:
    80001824:	0ba14483          	lbu	s1,186(sp)

0000000080001828 <i_1460>:
    80001828:	00f34a63          	blt	t1,a5,8000183c <i_1465>

000000008000182c <i_1461>:
    8000182c:	08714483          	lbu	s1,135(sp)

0000000080001830 <i_1462>:
    80001830:	0142c463          	blt	t0,s4,80001838 <i_1464>

0000000080001834 <i_1463>:
    80001834:	fdd107a3          	sb	t4,-49(sp)

0000000080001838 <i_1464>:
    80001838:	08913c23          	sd	s1,152(sp)

000000008000183c <i_1465>:
    8000183c:	e3c12483          	lw	s1,-452(sp)

0000000080001840 <i_1466>:
    80001840:	00bb4b33          	xor	s6,s6,a1

0000000080001844 <i_1467>:
    80001844:	8cc00613          	li	a2,-1844

0000000080001848 <i_1468>:
    80001848:	8d300793          	li	a5,-1837

000000008000184c <i_1469>:
    8000184c:	0167fe63          	bleu	s6,a5,80001868 <i_1476>

0000000080001850 <i_1470>:
    80001850:	15b14483          	lbu	s1,347(sp)

0000000080001854 <i_1471>:
    80001854:	00460c63          	beq	a2,tp,8000186c <i_1477>

0000000080001858 <i_1472>:
    80001858:	07b7049b          	addiw	s1,a4,123

000000008000185c <i_1473>:
    8000185c:	fa816483          	lwu	s1,-88(sp)

0000000080001860 <i_1474>:
    80001860:	0094e6b3          	or	a3,s1,s1

0000000080001864 <i_1475>:
    80001864:	08c12583          	lw	a1,140(sp)

0000000080001868 <i_1476>:
    80001868:	1d012d03          	lw	s10,464(sp)

000000008000186c <i_1477>:
    8000186c:	00d245b3          	xor	a1,tp,a3

0000000080001870 <i_1478>:
    80001870:	402b5a1b          	sraiw	s4,s6,0x2

0000000080001874 <i_1479>:
    80001874:	00000013          	nop

0000000080001878 <i_1480>:
    80001878:	f1b14b83          	lbu	s7,-229(sp)

000000008000187c <i_1481>:
    8000187c:	00160613          	addi	a2,a2,1
    80001880:	fcc7d6e3          	ble	a2,a5,8000184c <i_1469>

0000000080001884 <i_1482>:
    80001884:	ea412a03          	lw	s4,-348(sp)

0000000080001888 <i_1483>:
    80001888:	f7711223          	sh	s7,-156(sp)

000000008000188c <i_1484>:
    8000188c:	014a05b3          	add	a1,s4,s4

0000000080001890 <i_1485>:
    80001890:	031a75b3          	remu	a1,s4,a7

0000000080001894 <i_1486>:
    80001894:	02a14083          	lbu	ra,42(sp)

0000000080001898 <i_1487>:
    80001898:	009b87b3          	add	a5,s7,s1

000000008000189c <i_1488>:
    8000189c:	022a47bb          	divw	a5,s4,sp

00000000800018a0 <i_1489>:
    800018a0:	ff413023          	sd	s4,-32(sp)

00000000800018a4 <i_1490>:
    800018a4:	38d841b7          	lui	gp,0x38d84

00000000800018a8 <i_1491>:
    800018a8:	08310223          	sb	gp,132(sp)

00000000800018ac <i_1492>:
    800018ac:	57ad2193          	slti	gp,s10,1402

00000000800018b0 <i_1493>:
    800018b0:	08a15183          	lhu	gp,138(sp)

00000000800018b4 <i_1494>:
    800018b4:	0031da63          	ble	gp,gp,800018c8 <i_1499>

00000000800018b8 <i_1495>:
    800018b8:	00000013          	nop

00000000800018bc <i_1496>:
    800018bc:	03ce0ebb          	mulw	t4,t3,t3

00000000800018c0 <i_1497>:
    800018c0:	023100a3          	sb	gp,33(sp)

00000000800018c4 <i_1498>:
    800018c4:	10514b83          	lbu	s7,261(sp)

00000000800018c8 <i_1499>:
    800018c8:	1cc12f03          	lw	t5,460(sp)

00000000800018cc <i_1500>:
    800018cc:	1b6b3e93          	sltiu	t4,s6,438

00000000800018d0 <i_1501>:
    800018d0:	7bb00193          	li	gp,1979

00000000800018d4 <i_1502>:
    800018d4:	7c300e13          	li	t3,1987

00000000800018d8 <i_1503>:
    800018d8:	03ef5f3b          	divuw	t5,t5,t5

00000000800018dc <i_1504>:
    800018dc:	e9414d83          	lbu	s11,-364(sp)

00000000800018e0 <i_1505>:
    800018e0:	03b4f3bb          	remuw	t2,s1,s11

00000000800018e4 <i_1506>:
    800018e4:	0e310723          	sb	gp,238(sp)

00000000800018e8 <i_1507>:
    800018e8:	0371fdb3          	remu	s11,gp,s7

00000000800018ec <i_1508>:
    800018ec:	00118193          	addi	gp,gp,1 # 38d84001 <main-0x4727bfff>
    800018f0:	fe3e74e3          	bleu	gp,t3,800018d8 <i_1503>

00000000800018f4 <i_1509>:
    800018f4:	0373ee33          	rem	t3,t2,s7

00000000800018f8 <i_1510>:
    800018f8:	00366663          	bltu	a2,gp,80001904 <i_1513>

00000000800018fc <i_1511>:
    800018fc:	77b3fe13          	andi	t3,t2,1915

0000000080001900 <i_1512>:
    80001900:	00cc7a63          	bleu	a2,s8,80001914 <i_1517>

0000000080001904 <i_1513>:
    80001904:	19816603          	lwu	a2,408(sp)

0000000080001908 <i_1514>:
    80001908:	18c12423          	sw	a2,392(sp)

000000008000190c <i_1515>:
    8000190c:	02cc6633          	rem	a2,s8,a2

0000000080001910 <i_1516>:
    80001910:	463c039b          	addiw	t2,s8,1123

0000000080001914 <i_1517>:
    80001914:	e3013c03          	ld	s8,-464(sp)

0000000080001918 <i_1518>:
    80001918:	0183f663          	bleu	s8,t2,80001924 <i_1521>

000000008000191c <i_1519>:
    8000191c:	03841433          	mulh	s0,s0,s8

0000000080001920 <i_1520>:
    80001920:	02745b33          	divu	s6,s0,t2

0000000080001924 <i_1521>:
    80001924:	036b6433          	rem	s0,s6,s6

0000000080001928 <i_1522>:
    80001928:	0389a9b3          	mulhsu	s3,s3,s8

000000008000192c <i_1523>:
    8000192c:	00c41a63          	bne	s0,a2,80001940 <i_1528>

0000000080001930 <i_1524>:
    80001930:	007c0c33          	add	s8,s8,t2

0000000080001934 <i_1525>:
    80001934:	03344463          	blt	s0,s3,8000195c <i_1535>

0000000080001938 <i_1526>:
    80001938:	02c61063          	bne	a2,a2,80001958 <i_1534>

000000008000193c <i_1527>:
    8000193c:	18013c83          	ld	s9,384(sp)

0000000080001940 <i_1528>:
    80001940:	00000013          	nop

0000000080001944 <i_1529>:
    80001944:	00000013          	nop

0000000080001948 <i_1530>:
    80001948:	00299d93          	slli	s11,s3,0x2

000000008000194c <i_1531>:
    8000194c:	00000013          	nop

0000000080001950 <i_1532>:
    80001950:	01900993          	li	s3,25

0000000080001954 <i_1533>:
    80001954:	01345dbb          	srlw	s11,s0,s3

0000000080001958 <i_1534>:
    80001958:	07a10383          	lb	t2,122(sp)

000000008000195c <i_1535>:
    8000195c:	00000013          	nop

0000000080001960 <i_1536>:
    80001960:	00600593          	li	a1,6

0000000080001964 <i_1537>:
    80001964:	00b090bb          	sllw	ra,ra,a1

0000000080001968 <i_1538>:
    80001968:	78e00193          	li	gp,1934

000000008000196c <i_1539>:
    8000196c:	79500413          	li	s0,1941

0000000080001970 <i_1540>:
    80001970:	fc411383          	lh	t2,-60(sp)

0000000080001974 <i_1541>:
    80001974:	ecb12223          	sw	a1,-316(sp)

0000000080001978 <i_1542>:
    80001978:	01d00a13          	li	s4,29

000000008000197c <i_1543>:
    8000197c:	414dddb3          	sra	s11,s11,s4

0000000080001980 <i_1544>:
    80001980:	004a5093          	srli	ra,s4,0x4

0000000080001984 <i_1545>:
    80001984:	01708bb3          	add	s7,ra,s7

0000000080001988 <i_1546>:
    80001988:	e8812b83          	lw	s7,-376(sp)

000000008000198c <i_1547>:
    8000198c:	00118193          	addi	gp,gp,1
    80001990:	fc81eee3          	bltu	gp,s0,8000196c <i_1539>

0000000080001994 <i_1548>:
    80001994:	e3211603          	lh	a2,-462(sp)

0000000080001998 <i_1549>:
    80001998:	01ac7a63          	bleu	s10,s8,800019ac <i_1554>

000000008000199c <i_1550>:
    8000199c:	014ed463          	ble	s4,t4,800019a4 <i_1552>

00000000800019a0 <i_1551>:
    800019a0:	06412f03          	lw	t5,100(sp)

00000000800019a4 <i_1552>:
    800019a4:	01761663          	bne	a2,s7,800019b0 <i_1555>

00000000800019a8 <i_1553>:
    800019a8:	f3813a03          	ld	s4,-200(sp)

00000000800019ac <i_1554>:
    800019ac:	f0914983          	lbu	s3,-247(sp)

00000000800019b0 <i_1555>:
    800019b0:	f2815d03          	lhu	s10,-216(sp)

00000000800019b4 <i_1556>:
    800019b4:	013a7463          	bleu	s3,s4,800019bc <i_1558>

00000000800019b8 <i_1557>:
    800019b8:	cdad059b          	addiw	a1,s10,-806

00000000800019bc <i_1558>:
    800019bc:	00b5e463          	bltu	a1,a1,800019c4 <i_1560>

00000000800019c0 <i_1559>:
    800019c0:	01a9ef33          	or	t5,s3,s10

00000000800019c4 <i_1560>:
    800019c4:	00bd4d33          	xor	s10,s10,a1

00000000800019c8 <i_1561>:
    800019c8:	03e5e063          	bltu	a1,t5,800019e8 <i_1569>

00000000800019cc <i_1562>:
    800019cc:	f3c16d03          	lwu	s10,-196(sp)

00000000800019d0 <i_1563>:
    800019d0:	01411b03          	lh	s6,20(sp)

00000000800019d4 <i_1564>:
    800019d4:	01700c13          	li	s8,23

00000000800019d8 <i_1565>:
    800019d8:	018edeb3          	srl	t4,t4,s8

00000000800019dc <i_1566>:
    800019dc:	01ac6463          	bltu	s8,s10,800019e4 <i_1568>

00000000800019e0 <i_1567>:
    800019e0:	038eeeb3          	rem	t4,t4,s8

00000000800019e4 <i_1568>:
    800019e4:	eb811523          	sh	s8,-342(sp)

00000000800019e8 <i_1569>:
    800019e8:	0f013c03          	ld	s8,240(sp)

00000000800019ec <i_1570>:
    800019ec:	f1a11c03          	lh	s8,-230(sp)

00000000800019f0 <i_1571>:
    800019f0:	1c816803          	lwu	a6,456(sp)

00000000800019f4 <i_1572>:
    800019f4:	1d813423          	sd	s8,456(sp)

00000000800019f8 <i_1573>:
    800019f8:	f3812c03          	lw	s8,-200(sp)

00000000800019fc <i_1574>:
    800019fc:	12c12223          	sw	a2,292(sp)

0000000080001a00 <i_1575>:
    80001a00:	401c5c1b          	sraiw	s8,s8,0x1

0000000080001a04 <i_1576>:
    80001a04:	130106a3          	sb	a6,301(sp)

0000000080001a08 <i_1577>:
    80001a08:	f5013023          	sd	a6,-192(sp)

0000000080001a0c <i_1578>:
    80001a0c:	40185813          	srai	a6,a6,0x1

0000000080001a10 <i_1579>:
    80001a10:	003eda9b          	srliw	s5,t4,0x3

0000000080001a14 <i_1580>:
    80001a14:	f4416803          	lwu	a6,-188(sp)

0000000080001a18 <i_1581>:
    80001a18:	0e013803          	ld	a6,224(sp)

0000000080001a1c <i_1582>:
    80001a1c:	07811e23          	sh	s8,124(sp)

0000000080001a20 <i_1583>:
    80001a20:	01878663          	beq	a5,s8,80001a2c <i_1586>

0000000080001a24 <i_1584>:
    80001a24:	e8514803          	lbu	a6,-379(sp)

0000000080001a28 <i_1585>:
    80001a28:	030877bb          	remuw	a5,a6,a6

0000000080001a2c <i_1586>:
    80001a2c:	00200813          	li	a6,2

0000000080001a30 <i_1587>:
    80001a30:	010a9ab3          	sll	s5,s5,a6

0000000080001a34 <i_1588>:
    80001a34:	03100313          	li	t1,49

0000000080001a38 <i_1589>:
    80001a38:	406ad7b3          	sra	a5,s5,t1

0000000080001a3c <i_1590>:
    80001a3c:	73200813          	li	a6,1842

0000000080001a40 <i_1591>:
    80001a40:	73500a93          	li	s5,1845

0000000080001a44 <i_1592>:
    80001a44:	005802b3          	add	t0,a6,t0

0000000080001a48 <i_1593>:
    80001a48:	e7813283          	ld	t0,-392(sp)

0000000080001a4c <i_1594>:
    80001a4c:	f8e11283          	lh	t0,-114(sp)

0000000080001a50 <i_1595>:
    80001a50:	00528c63          	beq	t0,t0,80001a68 <i_1601>

0000000080001a54 <i_1596>:
    80001a54:	01700793          	li	a5,23

0000000080001a58 <i_1597>:
    80001a58:	40f2d2b3          	sra	t0,t0,a5

0000000080001a5c <i_1598>:
    80001a5c:	fc512023          	sw	t0,-64(sp)

0000000080001a60 <i_1599>:
    80001a60:	0012d613          	srli	a2,t0,0x1

0000000080001a64 <i_1600>:
    80001a64:	fdc11e03          	lh	t3,-36(sp)

0000000080001a68 <i_1601>:
    80001a68:	1dc12823          	sw	t3,464(sp)

0000000080001a6c <i_1602>:
    80001a6c:	4222f093          	andi	ra,t0,1058

0000000080001a70 <i_1603>:
    80001a70:	00180813          	addi	a6,a6,1
    80001a74:	fd5868e3          	bltu	a6,s5,80001a44 <i_1592>

0000000080001a78 <i_1604>:
    80001a78:	01800293          	li	t0,24

0000000080001a7c <i_1605>:
    80001a7c:	0052d2bb          	srlw	t0,t0,t0

0000000080001a80 <i_1606>:
    80001a80:	02513423          	sd	t0,40(sp)

0000000080001a84 <i_1607>:
    80001a84:	0050e463          	bltu	ra,t0,80001a8c <i_1609>

0000000080001a88 <i_1608>:
    80001a88:	14710283          	lb	t0,327(sp)

0000000080001a8c <i_1609>:
    80001a8c:	ecd13c23          	sd	a3,-296(sp)

0000000080001a90 <i_1610>:
    80001a90:	f1813283          	ld	t0,-232(sp)

0000000080001a94 <i_1611>:
    80001a94:	0e812d03          	lw	s10,232(sp)

0000000080001a98 <i_1612>:
    80001a98:	03a2b2b3          	mulhu	t0,t0,s10

0000000080001a9c <i_1613>:
    80001a9c:	0052dc63          	ble	t0,t0,80001ab4 <i_1619>

0000000080001aa0 <i_1614>:
    80001aa0:	f8512c23          	sw	t0,-104(sp)

0000000080001aa4 <i_1615>:
    80001aa4:	02a2fe3b          	remuw	t3,t0,a0

0000000080001aa8 <i_1616>:
    80001aa8:	025cb2b3          	mulhu	t0,s9,t0

0000000080001aac <i_1617>:
    80001aac:	e5415c83          	lhu	s9,-428(sp)

0000000080001ab0 <i_1618>:
    80001ab0:	404cd51b          	sraiw	a0,s9,0x4

0000000080001ab4 <i_1619>:
    80001ab4:	9c32c513          	xori	a0,t0,-1597

0000000080001ab8 <i_1620>:
    80001ab8:	ef112e23          	sw	a7,-260(sp)

0000000080001abc <i_1621>:
    80001abc:	00a2fa63          	bleu	a0,t0,80001ad0 <i_1626>

0000000080001ac0 <i_1622>:
    80001ac0:	41ef0f33          	sub	t5,t5,t5

0000000080001ac4 <i_1623>:
    80001ac4:	11615483          	lhu	s1,278(sp)

0000000080001ac8 <i_1624>:
    80001ac8:	009c9463          	bne	s9,s1,80001ad0 <i_1626>

0000000080001acc <i_1625>:
    80001acc:	2ece2f37          	lui	t5,0x2ece2

0000000080001ad0 <i_1626>:
    80001ad0:	922d3293          	sltiu	t0,s10,-1758

0000000080001ad4 <i_1627>:
    80001ad4:	02b00813          	li	a6,43

0000000080001ad8 <i_1628>:
    80001ad8:	010f5e33          	srl	t3,t5,a6

0000000080001adc <i_1629>:
    80001adc:	7e500793          	li	a5,2021

0000000080001ae0 <i_1630>:
    80001ae0:	7ec00d13          	li	s10,2028

0000000080001ae4 <i_1631>:
    80001ae4:	01e485b3          	add	a1,s1,t5

0000000080001ae8 <i_1632>:
    80001ae8:	03e27f33          	remu	t5,tp,t5

0000000080001aec <i_1633>:
    80001aec:	e7016c83          	lwu	s9,-400(sp)

0000000080001af0 <i_1634>:
    80001af0:	00578a63          	beq	a5,t0,80001b04 <i_1639>

0000000080001af4 <i_1635>:
    80001af4:	03ef7f3b          	remuw	t5,t5,t5

0000000080001af8 <i_1636>:
    80001af8:	019f62b3          	or	t0,t5,s9

0000000080001afc <i_1637>:
    80001afc:	07f14f03          	lbu	t5,127(sp)

0000000080001b00 <i_1638>:
    80001b00:	00000013          	nop

0000000080001b04 <i_1639>:
    80001b04:	fcc11583          	lh	a1,-52(sp)

0000000080001b08 <i_1640>:
    80001b08:	029f5263          	ble	s1,t5,80001b2c <i_1648>

0000000080001b0c <i_1641>:
    80001b0c:	00178793          	addi	a5,a5,1 # ffffffffa2a60001 <_end+0xffffffff22a4fbed>
    80001b10:	fda7c8e3          	blt	a5,s10,80001ae0 <i_1630>

0000000080001b14 <i_1642>:
    80001b14:	02bf19b3          	mulh	s3,t5,a1

0000000080001b18 <i_1643>:
    80001b18:	e9812f03          	lw	t5,-360(sp)

0000000080001b1c <i_1644>:
    80001b1c:	00b2c463          	blt	t0,a1,80001b24 <i_1646>

0000000080001b20 <i_1645>:
    80001b20:	013f45b3          	xor	a1,t5,s3

0000000080001b24 <i_1646>:
    80001b24:	08210823          	sb	sp,144(sp)

0000000080001b28 <i_1647>:
    80001b28:	00bdfc63          	bleu	a1,s11,80001b40 <i_1653>

0000000080001b2c <i_1648>:
    80001b2c:	f3412c83          	lw	s9,-204(sp)

0000000080001b30 <i_1649>:
    80001b30:	00b59863          	bne	a1,a1,80001b40 <i_1653>

0000000080001b34 <i_1650>:
    80001b34:	1ba15e03          	lhu	t3,442(sp)

0000000080001b38 <i_1651>:
    80001b38:	f2415583          	lhu	a1,-220(sp)

0000000080001b3c <i_1652>:
    80001b3c:	e4012b83          	lw	s7,-448(sp)

0000000080001b40 <i_1653>:
    80001b40:	ff412b83          	lw	s7,-12(sp)

0000000080001b44 <i_1654>:
    80001b44:	f9013783          	ld	a5,-112(sp)

0000000080001b48 <i_1655>:
    80001b48:	f7416d83          	lwu	s11,-140(sp)

0000000080001b4c <i_1656>:
    80001b4c:	01ba0db3          	add	s11,s4,s11

0000000080001b50 <i_1657>:
    80001b50:	81e00c93          	li	s9,-2018

0000000080001b54 <i_1658>:
    80001b54:	83100a13          	li	s4,-1999

0000000080001b58 <i_1659>:
    80001b58:	00fa0263          	beq	s4,a5,80001b5c <i_1660>

0000000080001b5c <i_1660>:
    80001b5c:	e6c12e83          	lw	t4,-404(sp)

0000000080001b60 <i_1661>:
    80001b60:	02f5c063          	blt	a1,a5,80001b80 <i_1668>

0000000080001b64 <i_1662>:
    80001b64:	02aedeb3          	divu	t4,t4,a0

0000000080001b68 <i_1663>:
    80001b68:	00000013          	nop

0000000080001b6c <i_1664>:
    80001b6c:	e9413423          	sd	s4,-376(sp)

0000000080001b70 <i_1665>:
    80001b70:	001c8c93          	addi	s9,s9,1
    80001b74:	ff9a72e3          	bleu	s9,s4,80001b58 <i_1659>

0000000080001b78 <i_1666>:
    80001b78:	ebc16783          	lwu	a5,-324(sp)

0000000080001b7c <i_1667>:
    80001b7c:	00611e03          	lh	t3,6(sp)

0000000080001b80 <i_1668>:
    80001b80:	14f10a83          	lb	s5,335(sp)

0000000080001b84 <i_1669>:
    80001b84:	02f9ddb3          	divu	s11,s3,a5

0000000080001b88 <i_1670>:
    80001b88:	11b12423          	sw	s11,264(sp)

0000000080001b8c <i_1671>:
    80001b8c:	03dd8dbb          	mulw	s11,s11,t4

0000000080001b90 <i_1672>:
    80001b90:	1bc14203          	lbu	tp,444(sp)

0000000080001b94 <i_1673>:
    80001b94:	00000013          	nop

0000000080001b98 <i_1674>:
    80001b98:	8d200793          	li	a5,-1838

0000000080001b9c <i_1675>:
    80001b9c:	8e200f13          	li	t5,-1822

0000000080001ba0 <i_1676>:
    80001ba0:	035d8db3          	mul	s11,s11,s5

0000000080001ba4 <i_1677>:
    80001ba4:	e5c16d83          	lwu	s11,-420(sp)

0000000080001ba8 <i_1678>:
    80001ba8:	0ea11983          	lh	s3,234(sp)

0000000080001bac <i_1679>:
    80001bac:	023252bb          	divuw	t0,tp,gp

0000000080001bb0 <i_1680>:
    80001bb0:	005f5c63          	ble	t0,t5,80001bc8 <i_1685>

0000000080001bb4 <i_1681>:
    80001bb4:	00178793          	addi	a5,a5,1
    80001bb8:	ffe7c4e3          	blt	a5,t5,80001ba0 <i_1676>

0000000080001bbc <i_1682>:
    80001bbc:	00000013          	nop

0000000080001bc0 <i_1683>:
    80001bc0:	00813f03          	ld	t5,8(sp)

0000000080001bc4 <i_1684>:
    80001bc4:	03e12223          	sw	t5,36(sp)

0000000080001bc8 <i_1685>:
    80001bc8:	00500f13          	li	t5,5

0000000080001bcc <i_1686>:
    80001bcc:	41e9de3b          	sraw	t3,s3,t5

0000000080001bd0 <i_1687>:
    80001bd0:	01ee5663          	ble	t5,t3,80001bdc <i_1690>

0000000080001bd4 <i_1688>:
    80001bd4:	037f7463          	bleu	s7,t5,80001bfc <i_1698>

0000000080001bd8 <i_1689>:
    80001bd8:	e7e13823          	sd	t5,-400(sp)

0000000080001bdc <i_1690>:
    80001bdc:	f1314e83          	lbu	t4,-237(sp)

0000000080001be0 <i_1691>:
    80001be0:	19e10503          	lb	a0,414(sp)

0000000080001be4 <i_1692>:
    80001be4:	00af0ab3          	add	s5,t5,a0

0000000080001be8 <i_1693>:
    80001be8:	00000013          	nop

0000000080001bec <i_1694>:
    80001bec:	015f7cb3          	and	s9,t5,s5

0000000080001bf0 <i_1695>:
    80001bf0:	00000013          	nop

0000000080001bf4 <i_1696>:
    80001bf4:	00351793          	slli	a5,a0,0x3

0000000080001bf8 <i_1697>:
    80001bf8:	a33e6513          	ori	a0,t3,-1485

0000000080001bfc <i_1698>:
    80001bfc:	11910e23          	sb	s9,284(sp)

0000000080001c00 <i_1699>:
    80001c00:	015f4233          	xor	tp,t5,s5

0000000080001c04 <i_1700>:
    80001c04:	7ba00e13          	li	t3,1978

0000000080001c08 <i_1701>:
    80001c08:	7c000f13          	li	t5,1984

0000000080001c0c <i_1702>:
    80001c0c:	00978263          	beq	a5,s1,80001c10 <i_1703>

0000000080001c10 <i_1703>:
    80001c10:	13114a83          	lbu	s5,305(sp)

0000000080001c14 <i_1704>:
    80001c14:	516eac13          	slti	s8,t4,1302

0000000080001c18 <i_1705>:
    80001c18:	001e0e13          	addi	t3,t3,1 # e79d0391 <_end+0x679bff7d>
    80001c1c:	ffee68e3          	bltu	t3,t5,80001c0c <i_1702>

0000000080001c20 <i_1706>:
    80001c20:	0a810e03          	lb	t3,168(sp)

0000000080001c24 <i_1707>:
    80001c24:	02fa9c33          	mulh	s8,s5,a5

0000000080001c28 <i_1708>:
    80001c28:	002f1a93          	slli	s5,t5,0x2

0000000080001c2c <i_1709>:
    80001c2c:	025e7063          	bleu	t0,t3,80001c4c <i_1717>

0000000080001c30 <i_1710>:
    80001c30:	01800993          	li	s3,24

0000000080001c34 <i_1711>:
    80001c34:	013f1333          	sll	t1,t5,s3

0000000080001c38 <i_1712>:
    80001c38:	10c16803          	lwu	a6,268(sp)

0000000080001c3c <i_1713>:
    80001c3c:	e4a14f03          	lbu	t5,-438(sp)

0000000080001c40 <i_1714>:
    80001c40:	e5e11a83          	lh	s5,-418(sp)

0000000080001c44 <i_1715>:
    80001c44:	010fd463          	ble	a6,t6,80001c4c <i_1717>

0000000080001c48 <i_1716>:
    80001c48:	f5412583          	lw	a1,-172(sp)

0000000080001c4c <i_1717>:
    80001c4c:	01398c63          	beq	s3,s3,80001c64 <i_1723>

0000000080001c50 <i_1718>:
    80001c50:	f6e13023          	sd	a4,-160(sp)

0000000080001c54 <i_1719>:
    80001c54:	030ad463          	ble	a6,s5,80001c7c <i_1729>

0000000080001c58 <i_1720>:
    80001c58:	ff512623          	sw	s5,-20(sp)

0000000080001c5c <i_1721>:
    80001c5c:	f7e11923          	sh	t5,-142(sp)

0000000080001c60 <i_1722>:
    80001c60:	01e81863          	bne	a6,t5,80001c70 <i_1726>

0000000080001c64 <i_1723>:
    80001c64:	0f512a23          	sw	s5,244(sp)

0000000080001c68 <i_1724>:
    80001c68:	ec016c83          	lwu	s9,-320(sp)

0000000080001c6c <i_1725>:
    80001c6c:	fb410603          	lb	a2,-76(sp)

0000000080001c70 <i_1726>:
    80001c70:	12210503          	lb	a0,290(sp)

0000000080001c74 <i_1727>:
    80001c74:	01565263          	ble	s5,a2,80001c78 <i_1728>

0000000080001c78 <i_1728>:
    80001c78:	fba15303          	lhu	t1,-70(sp)

0000000080001c7c <i_1729>:
    80001c7c:	026f4533          	div	a0,t5,t1

0000000080001c80 <i_1730>:
    80001c80:	1c815e83          	lhu	t4,456(sp)

0000000080001c84 <i_1731>:
    80001c84:	00ae8eb3          	add	t4,t4,a0

0000000080001c88 <i_1732>:
    80001c88:	01de8863          	beq	t4,t4,80001c98 <i_1736>

0000000080001c8c <i_1733>:
    80001c8c:	1d813e83          	ld	t4,472(sp)

0000000080001c90 <i_1734>:
    80001c90:	0bd11123          	sh	t4,162(sp)

0000000080001c94 <i_1735>:
    80001c94:	01dedc63          	ble	t4,t4,80001cac <i_1741>

0000000080001c98 <i_1736>:
    80001c98:	13812983          	lw	s3,312(sp)

0000000080001c9c <i_1737>:
    80001c9c:	17510503          	lb	a0,373(sp)

0000000080001ca0 <i_1738>:
    80001ca0:	fba13c23          	sd	s10,-72(sp)

0000000080001ca4 <i_1739>:
    80001ca4:	fcc12203          	lw	tp,-52(sp)

0000000080001ca8 <i_1740>:
    80001ca8:	19910083          	lb	ra,409(sp)

0000000080001cac <i_1741>:
    80001cac:	0a411d23          	sh	tp,186(sp)

0000000080001cb0 <i_1742>:
    80001cb0:	cad56193          	ori	gp,a0,-851

0000000080001cb4 <i_1743>:
    80001cb4:	76e00e93          	li	t4,1902

0000000080001cb8 <i_1744>:
    80001cb8:	77500d13          	li	s10,1909

0000000080001cbc <i_1745>:
    80001cbc:	edc12a03          	lw	s4,-292(sp)

0000000080001cc0 <i_1746>:
    80001cc0:	0138ea33          	or	s4,a7,s3

0000000080001cc4 <i_1747>:
    80001cc4:	f0015803          	lhu	a6,-256(sp)

0000000080001cc8 <i_1748>:
    80001cc8:	e5815983          	lhu	s3,-424(sp)

0000000080001ccc <i_1749>:
    80001ccc:	ed013983          	ld	s3,-304(sp)

0000000080001cd0 <i_1750>:
    80001cd0:	11012623          	sw	a6,268(sp)

0000000080001cd4 <i_1751>:
    80001cd4:	001e8e93          	addi	t4,t4,1
    80001cd8:	ffaec2e3          	blt	t4,s10,80001cbc <i_1745>

0000000080001cdc <i_1752>:
    80001cdc:	e3713423          	sd	s7,-472(sp)

0000000080001ce0 <i_1753>:
    80001ce0:	6dea0813          	addi	a6,s4,1758

0000000080001ce4 <i_1754>:
    80001ce4:	0133c663          	blt	t2,s3,80001cf0 <i_1757>

0000000080001ce8 <i_1755>:
    80001ce8:	010a1463          	bne	s4,a6,80001cf0 <i_1757>

0000000080001cec <i_1756>:
    80001cec:	13312a23          	sw	s3,308(sp)

0000000080001cf0 <i_1757>:
    80001cf0:	00000013          	nop

0000000080001cf4 <i_1758>:
    80001cf4:	0299d4b3          	divu	s1,s3,s1

0000000080001cf8 <i_1759>:
    80001cf8:	8bc00813          	li	a6,-1860

0000000080001cfc <i_1760>:
    80001cfc:	8c500c93          	li	s9,-1851

0000000080001d00 <i_1761>:
    80001d00:	00180813          	addi	a6,a6,1
    80001d04:	ff0cdee3          	ble	a6,s9,80001d00 <i_1761>

0000000080001d08 <i_1762>:
    80001d08:	02d00513          	li	a0,45

0000000080001d0c <i_1763>:
    80001d0c:	00a399b3          	sll	s3,t2,a0

0000000080001d10 <i_1764>:
    80001d10:	7ea00393          	li	t2,2026

0000000080001d14 <i_1765>:
    80001d14:	7fa00493          	li	s1,2042

0000000080001d18 <i_1766>:
    80001d18:	0b415983          	lhu	s3,180(sp)

0000000080001d1c <i_1767>:
    80001d1c:	03354663          	blt	a0,s3,80001d48 <i_1777>

0000000080001d20 <i_1768>:
    80001d20:	1ca9e993          	ori	s3,s3,458

0000000080001d24 <i_1769>:
    80001d24:	19311a23          	sh	s3,404(sp)

0000000080001d28 <i_1770>:
    80001d28:	00a54533          	xor	a0,a0,a0

0000000080001d2c <i_1771>:
    80001d2c:	03355333          	divu	t1,a0,s3

0000000080001d30 <i_1772>:
    80001d30:	fe214983          	lbu	s3,-30(sp)

0000000080001d34 <i_1773>:
    80001d34:	0ea12223          	sw	a0,228(sp)

0000000080001d38 <i_1774>:
    80001d38:	00138393          	addi	t2,t2,1
    80001d3c:	fc749ee3          	bne	s1,t2,80001d18 <i_1766>

0000000080001d40 <i_1775>:
    80001d40:	f2416603          	lwu	a2,-220(sp)

0000000080001d44 <i_1776>:
    80001d44:	01349863          	bne	s1,s3,80001d54 <i_1780>

0000000080001d48 <i_1777>:
    80001d48:	00c13023          	sd	a2,0(sp)

0000000080001d4c <i_1778>:
    80001d4c:	0333a833          	mulhsu	a6,t2,s3

0000000080001d50 <i_1779>:
    80001d50:	00c4c633          	xor	a2,s1,a2

0000000080001d54 <i_1780>:
    80001d54:	18a14c03          	lbu	s8,394(sp)

0000000080001d58 <i_1781>:
    80001d58:	00000013          	nop

0000000080001d5c <i_1782>:
    80001d5c:	77a00393          	li	t2,1914

0000000080001d60 <i_1783>:
    80001d60:	78600493          	li	s1,1926

0000000080001d64 <i_1784>:
    80001d64:	03860533          	mul	a0,a2,s8

0000000080001d68 <i_1785>:
    80001d68:	9f1f3c13          	sltiu	s8,t5,-1551

0000000080001d6c <i_1786>:
    80001d6c:	00a4ea33          	or	s4,s1,a0

0000000080001d70 <i_1787>:
    80001d70:	00138393          	addi	t2,t2,1
    80001d74:	fe93e8e3          	bltu	t2,s1,80001d64 <i_1784>

0000000080001d78 <i_1788>:
    80001d78:	19811023          	sh	s8,384(sp)

0000000080001d7c <i_1789>:
    80001d7c:	00013c03          	ld	s8,0(sp)

0000000080001d80 <i_1790>:
    80001d80:	10013a03          	ld	s4,256(sp)

0000000080001d84 <i_1791>:
    80001d84:	01551c63          	bne	a0,s5,80001d9c <i_1797>

0000000080001d88 <i_1792>:
    80001d88:	01457c63          	bleu	s4,a0,80001da0 <i_1798>

0000000080001d8c <i_1793>:
    80001d8c:	f2011a83          	lh	s5,-224(sp)

0000000080001d90 <i_1794>:
    80001d90:	11811a83          	lh	s5,280(sp)

0000000080001d94 <i_1795>:
    80001d94:	03ea8833          	mul	a6,s5,t5

0000000080001d98 <i_1796>:
    80001d98:	00000013          	nop

0000000080001d9c <i_1797>:
    80001d9c:	f54f6f13          	ori	t5,t5,-172

0000000080001da0 <i_1798>:
    80001da0:	01eab9b3          	sltu	s3,s5,t5

0000000080001da4 <i_1799>:
    80001da4:	0016da13          	srli	s4,a3,0x1

0000000080001da8 <i_1800>:
    80001da8:	7c300c13          	li	s8,1987

0000000080001dac <i_1801>:
    80001dac:	7d600693          	li	a3,2006

0000000080001db0 <i_1802>:
    80001db0:	034a49b3          	div	s3,s4,s4

0000000080001db4 <i_1803>:
    80001db4:	035f6663          	bltu	t5,s5,80001de0 <i_1813>

0000000080001db8 <i_1804>:
    80001db8:	001c0c13          	addi	s8,s8,1
    80001dbc:	ff86dae3          	ble	s8,a3,80001db0 <i_1802>

0000000080001dc0 <i_1805>:
    80001dc0:	02b14603          	lbu	a2,43(sp)

0000000080001dc4 <i_1806>:
    80001dc4:	01d00313          	li	t1,29

0000000080001dc8 <i_1807>:
    80001dc8:	006819bb          	sllw	s3,a6,t1

0000000080001dcc <i_1808>:
    80001dcc:	00200313          	li	t1,2

0000000080001dd0 <i_1809>:
    80001dd0:	006993bb          	sllw	t2,s3,t1

0000000080001dd4 <i_1810>:
    80001dd4:	e5013683          	ld	a3,-432(sp)

0000000080001dd8 <i_1811>:
    80001dd8:	05813e83          	ld	t4,88(sp)

0000000080001ddc <i_1812>:
    80001ddc:	0355d263          	ble	s5,a1,80001e00 <i_1821>

0000000080001de0 <i_1813>:
    80001de0:	02c69c33          	mulh	s8,a3,a2

0000000080001de4 <i_1814>:
    80001de4:	035ad833          	divu	a6,s5,s5

0000000080001de8 <i_1815>:
    80001de8:	f9e11203          	lh	tp,-98(sp)

0000000080001dec <i_1816>:
    80001dec:	00bc6333          	or	t1,s8,a1

0000000080001df0 <i_1817>:
    80001df0:	e9813c03          	ld	s8,-360(sp)

0000000080001df4 <i_1818>:
    80001df4:	030c7c3b          	remuw	s8,s8,a6

0000000080001df8 <i_1819>:
    80001df8:	01000813          	li	a6,16

0000000080001dfc <i_1820>:
    80001dfc:	410c5e3b          	sraw	t3,s8,a6

0000000080001e00 <i_1821>:
    80001e00:	038c5063          	ble	s8,s8,80001e20 <i_1829>

0000000080001e04 <i_1822>:
    80001e04:	0041919b          	slliw	gp,gp,0x4

0000000080001e08 <i_1823>:
    80001e08:	01e18863          	beq	gp,t5,80001e18 <i_1827>

0000000080001e0c <i_1824>:
    80001e0c:	f1812183          	lw	gp,-232(sp)

0000000080001e10 <i_1825>:
    80001e10:	08c10983          	lb	s3,140(sp)

0000000080001e14 <i_1826>:
    80001e14:	0c016c83          	lwu	s9,192(sp)

0000000080001e18 <i_1827>:
    80001e18:	00000013          	nop

0000000080001e1c <i_1828>:
    80001e1c:	5fd08093          	addi	ra,ra,1533

0000000080001e20 <i_1829>:
    80001e20:	00000013          	nop

0000000080001e24 <i_1830>:
    80001e24:	00b00993          	li	s3,11

0000000080001e28 <i_1831>:
    80001e28:	4131d0bb          	sraw	ra,gp,s3

0000000080001e2c <i_1832>:
    80001e2c:	87100593          	li	a1,-1935

0000000080001e30 <i_1833>:
    80001e30:	88400193          	li	gp,-1916

0000000080001e34 <i_1834>:
    80001e34:	01098833          	add	a6,s3,a6

0000000080001e38 <i_1835>:
    80001e38:	e7310a23          	sb	s3,-396(sp)

0000000080001e3c <i_1836>:
    80001e3c:	02114e03          	lbu	t3,33(sp)

0000000080001e40 <i_1837>:
    80001e40:	fe813d03          	ld	s10,-24(sp)

0000000080001e44 <i_1838>:
    80001e44:	d3675397          	auipc	t2,0xd3675

0000000080001e48 <i_1839>:
    80001e48:	f4711a23          	sh	t2,-172(sp)

0000000080001e4c <i_1840>:
    80001e4c:	00158593          	addi	a1,a1,1
    80001e50:	fe35e0e3          	bltu	a1,gp,80001e30 <i_1833>

0000000080001e54 <i_1841>:
    80001e54:	004d5d93          	srli	s11,s10,0x4

0000000080001e58 <i_1842>:
    80001e58:	01bd85b3          	add	a1,s11,s11

0000000080001e5c <i_1843>:
    80001e5c:	00e59263          	bne	a1,a4,80001e60 <i_1844>

0000000080001e60 <i_1844>:
    80001e60:	00400c93          	li	s9,4

0000000080001e64 <i_1845>:
    80001e64:	419fdc3b          	sraw	s8,t6,s9

0000000080001e68 <i_1846>:
    80001e68:	01a59e63          	bne	a1,s10,80001e84 <i_1853>

0000000080001e6c <i_1847>:
    80001e6c:	0265c063          	blt	a1,t1,80001e8c <i_1855>

0000000080001e70 <i_1848>:
    80001e70:	e3911823          	sh	s9,-464(sp)

0000000080001e74 <i_1849>:
    80001e74:	ad9526b7          	lui	a3,0xad952

0000000080001e78 <i_1850>:
    80001e78:	1b8103a3          	sb	s8,423(sp)

0000000080001e7c <i_1851>:
    80001e7c:	419c8cbb          	subw	s9,s9,s9

0000000080001e80 <i_1852>:
    80001e80:	f0813c03          	ld	s8,-248(sp)

0000000080001e84 <i_1853>:
    80001e84:	0e615403          	lhu	s0,230(sp)

0000000080001e88 <i_1854>:
    80001e88:	00dcdc63          	ble	a3,s9,80001ea0 <i_1860>

0000000080001e8c <i_1855>:
    80001e8c:	1c012c83          	lw	s9,448(sp)

0000000080001e90 <i_1856>:
    80001e90:	f7c11a23          	sh	t3,-140(sp)

0000000080001e94 <i_1857>:
    80001e94:	05012e03          	lw	t3,80(sp)

0000000080001e98 <i_1858>:
    80001e98:	0079fa63          	bleu	t2,s3,80001eac <i_1863>

0000000080001e9c <i_1859>:
    80001e9c:	41c989bb          	subw	s3,s3,t3

0000000080001ea0 <i_1860>:
    80001ea0:	1ac12b83          	lw	s7,428(sp)

0000000080001ea4 <i_1861>:
    80001ea4:	01786463          	bltu	a6,s7,80001eac <i_1863>

0000000080001ea8 <i_1862>:
    80001ea8:	05013983          	ld	s3,80(sp)

0000000080001eac <i_1863>:
    80001eac:	0a812823          	sw	s0,176(sp)

0000000080001eb0 <i_1864>:
    80001eb0:	8c1bb213          	sltiu	tp,s7,-1855

0000000080001eb4 <i_1865>:
    80001eb4:	fb416b83          	lwu	s7,-76(sp)

0000000080001eb8 <i_1866>:
    80001eb8:	ff710423          	sb	s7,-24(sp)

0000000080001ebc <i_1867>:
    80001ebc:	00424233          	xor	tp,tp,tp

0000000080001ec0 <i_1868>:
    80001ec0:	74800b93          	li	s7,1864

0000000080001ec4 <i_1869>:
    80001ec4:	75400413          	li	s0,1876

0000000080001ec8 <i_1870>:
    80001ec8:	00b00213          	li	tp,11

0000000080001ecc <i_1871>:
    80001ecc:	004b923b          	sllw	tp,s7,tp

0000000080001ed0 <i_1872>:
    80001ed0:	9ea26213          	ori	tp,tp,-1558

0000000080001ed4 <i_1873>:
    80001ed4:	ea413023          	sd	tp,-352(sp)

0000000080001ed8 <i_1874>:
    80001ed8:	1a215203          	lhu	tp,418(sp)

0000000080001edc <i_1875>:
    80001edc:	c844a393          	slti	t2,s1,-892

0000000080001ee0 <i_1876>:
    80001ee0:	ec413423          	sd	tp,-312(sp)

0000000080001ee4 <i_1877>:
    80001ee4:	02f00193          	li	gp,47

0000000080001ee8 <i_1878>:
    80001ee8:	403253b3          	sra	t2,tp,gp

0000000080001eec <i_1879>:
    80001eec:	1e615783          	lhu	a5,486(sp)

0000000080001ef0 <i_1880>:
    80001ef0:	00b00593          	li	a1,11

0000000080001ef4 <i_1881>:
    80001ef4:	40b1dcb3          	sra	s9,gp,a1

0000000080001ef8 <i_1882>:
    80001ef8:	00a5f233          	and	tp,a1,a0

0000000080001efc <i_1883>:
    80001efc:	03958663          	beq	a1,s9,80001f28 <i_1893>

0000000080001f00 <i_1884>:
    80001f00:	1a812a83          	lw	s5,424(sp)

0000000080001f04 <i_1885>:
    80001f04:	039adc33          	divu	s8,s5,s9

0000000080001f08 <i_1886>:
    80001f08:	001b8b93          	addi	s7,s7,1 # 6a7e7001 <main-0x15818fff>
    80001f0c:	fa8bcee3          	blt	s7,s0,80001ec8 <i_1870>

0000000080001f10 <i_1887>:
    80001f10:	018ae2b3          	or	t0,s5,s8

0000000080001f14 <i_1888>:
    80001f14:	019a8663          	beq	s5,s9,80001f20 <i_1891>

0000000080001f18 <i_1889>:
    80001f18:	e1811c23          	sh	s8,-488(sp)

0000000080001f1c <i_1890>:
    80001f1c:	00b29a63          	bne	t0,a1,80001f30 <i_1895>

0000000080001f20 <i_1891>:
    80001f20:	ee812c83          	lw	s9,-280(sp)

0000000080001f24 <i_1892>:
    80001f24:	00000013          	nop

0000000080001f28 <i_1893>:
    80001f28:	029c7db3          	remu	s11,s8,s1

0000000080001f2c <i_1894>:
    80001f2c:	10512c23          	sw	t0,280(sp)

0000000080001f30 <i_1895>:
    80001f30:	01e00293          	li	t0,30

0000000080001f34 <i_1896>:
    80001f34:	0055dbbb          	srlw	s7,a1,t0

0000000080001f38 <i_1897>:
    80001f38:	77a00493          	li	s1,1914

0000000080001f3c <i_1898>:
    80001f3c:	78b00c13          	li	s8,1931

0000000080001f40 <i_1899>:
    80001f40:	e3016d83          	lwu	s11,-464(sp)

0000000080001f44 <i_1900>:
    80001f44:	1bb11823          	sh	s11,432(sp)

0000000080001f48 <i_1901>:
    80001f48:	22e87813          	andi	a6,a6,558

0000000080001f4c <i_1902>:
    80001f4c:	02c73333          	mulhu	t1,a4,a2

0000000080001f50 <i_1903>:
    80001f50:	e4e11403          	lh	s0,-434(sp)

0000000080001f54 <i_1904>:
    80001f54:	00148493          	addi	s1,s1,1
    80001f58:	ff8494e3          	bne	s1,s8,80001f40 <i_1899>

0000000080001f5c <i_1905>:
    80001f5c:	004d9293          	slli	t0,s11,0x4

0000000080001f60 <i_1906>:
    80001f60:	00c43633          	sltu	a2,s0,a2

0000000080001f64 <i_1907>:
    80001f64:	0c012303          	lw	t1,192(sp)

0000000080001f68 <i_1908>:
    80001f68:	09110c23          	sb	a7,152(sp)

0000000080001f6c <i_1909>:
    80001f6c:	f6d10e83          	lb	t4,-147(sp)

0000000080001f70 <i_1910>:
    80001f70:	0a411303          	lh	t1,164(sp)

0000000080001f74 <i_1911>:
    80001f74:	0069c863          	blt	s3,t1,80001f84 <i_1915>

0000000080001f78 <i_1912>:
    80001f78:	ed710303          	lb	t1,-297(sp)

0000000080001f7c <i_1913>:
    80001f7c:	12013303          	ld	t1,288(sp)

0000000080001f80 <i_1914>:
    80001f80:	15812083          	lw	ra,344(sp)

0000000080001f84 <i_1915>:
    80001f84:	ffc12a23          	sw	t3,-12(sp)

0000000080001f88 <i_1916>:
    80001f88:	e5b10e03          	lb	t3,-421(sp)

0000000080001f8c <i_1917>:
    80001f8c:	640e0e1b          	addiw	t3,t3,1600

0000000080001f90 <i_1918>:
    80001f90:	7c300093          	li	ra,1987

0000000080001f94 <i_1919>:
    80001f94:	7c800313          	li	t1,1992

0000000080001f98 <i_1920>:
    80001f98:	ba90a413          	slti	s0,ra,-1111

0000000080001f9c <i_1921>:
    80001f9c:	60b95537          	lui	a0,0x60b95

0000000080001fa0 <i_1922>:
    80001fa0:	00012e03          	lw	t3,0(sp)

0000000080001fa4 <i_1923>:
    80001fa4:	ef415403          	lhu	s0,-268(sp)

0000000080001fa8 <i_1924>:
    80001fa8:	00a10983          	lb	s3,10(sp)

0000000080001fac <i_1925>:
    80001fac:	e3a11983          	lh	s3,-454(sp)

0000000080001fb0 <i_1926>:
    80001fb0:	0289d43b          	divuw	s0,s3,s0

0000000080001fb4 <i_1927>:
    80001fb4:	00108093          	addi	ra,ra,1
    80001fb8:	fe6090e3          	bne	ra,t1,80001f98 <i_1920>

0000000080001fbc <i_1928>:
    80001fbc:	f2e11a03          	lh	s4,-210(sp)

0000000080001fc0 <i_1929>:
    80001fc0:	00999e63          	bne	s3,s1,80001fdc <i_1936>

0000000080001fc4 <i_1930>:
    80001fc4:	00a45c63          	ble	a0,s0,80001fdc <i_1936>

0000000080001fc8 <i_1931>:
    80001fc8:	03500c13          	li	s8,53

0000000080001fcc <i_1932>:
    80001fcc:	018d9433          	sll	s0,s11,s8

0000000080001fd0 <i_1933>:
    80001fd0:	0319e063          	bltu	s3,a7,80001ff0 <i_1941>

0000000080001fd4 <i_1934>:
    80001fd4:	0cc12a03          	lw	s4,204(sp)

0000000080001fd8 <i_1935>:
    80001fd8:	10215a03          	lhu	s4,258(sp)

0000000080001fdc <i_1936>:
    80001fdc:	ea39b393          	sltiu	t2,s3,-349

0000000080001fe0 <i_1937>:
    80001fe0:	17a10983          	lb	s3,378(sp)

0000000080001fe4 <i_1938>:
    80001fe4:	f7815983          	lhu	s3,-136(sp)

0000000080001fe8 <i_1939>:
    80001fe8:	f6c16c03          	lwu	s8,-148(sp)

0000000080001fec <i_1940>:
    80001fec:	01898863          	beq	s3,s8,80001ffc <i_1944>

0000000080001ff0 <i_1941>:
    80001ff0:	ee813303          	ld	t1,-280(sp)

0000000080001ff4 <i_1942>:
    80001ff4:	018b45b3          	xor	a1,s6,s8

0000000080001ff8 <i_1943>:
    80001ff8:	03330263          	beq	t1,s3,8000201c <i_1952>

0000000080001ffc <i_1944>:
    80001ffc:	7d65821b          	addiw	tp,a1,2006

0000000080002000 <i_1945>:
    80002000:	4043521b          	sraiw	tp,t1,0x4

0000000080002004 <i_1946>:
    80002004:	00700793          	li	a5,7

0000000080002008 <i_1947>:
    80002008:	00f59333          	sll	t1,a1,a5

000000008000200c <i_1948>:
    8000200c:	00400613          	li	a2,4

0000000080002010 <i_1949>:
    80002010:	40cf543b          	sraw	s0,t5,a2

0000000080002014 <i_1950>:
    80002014:	f6f12823          	sw	a5,-144(sp)

0000000080002018 <i_1951>:
    80002018:	00f59863          	bne	a1,a5,80002028 <i_1955>

000000008000201c <i_1952>:
    8000201c:	00835463          	ble	s0,t1,80002024 <i_1954>

0000000080002020 <i_1953>:
    80002020:	00f67e63          	bleu	a5,a2,8000203c <i_1960>

0000000080002024 <i_1954>:
    80002024:	0037d693          	srli	a3,a5,0x3

0000000080002028 <i_1955>:
    80002028:	15110c83          	lb	s9,337(sp)

000000008000202c <i_1956>:
    8000202c:	00860c63          	beq	a2,s0,80002044 <i_1962>

0000000080002030 <i_1957>:
    80002030:	02b58633          	mul	a2,a1,a1

0000000080002034 <i_1958>:
    80002034:	eef11623          	sh	a5,-276(sp)

0000000080002038 <i_1959>:
    80002038:	1ac13023          	sd	a2,416(sp)

000000008000203c <i_1960>:
    8000203c:	00000013          	nop

0000000080002040 <i_1961>:
    80002040:	40265613          	srai	a2,a2,0x2

0000000080002044 <i_1962>:
    80002044:	02c60db3          	mul	s11,a2,a2

0000000080002048 <i_1963>:
    80002048:	04615d83          	lhu	s11,70(sp)

000000008000204c <i_1964>:
    8000204c:	73a00413          	li	s0,1850

0000000080002050 <i_1965>:
    80002050:	74e00993          	li	s3,1870

0000000080002054 <i_1966>:
    80002054:	e4c11023          	sh	a2,-448(sp)

0000000080002058 <i_1967>:
    80002058:	0c5108a3          	sb	t0,209(sp)

000000008000205c <i_1968>:
    8000205c:	e5014b03          	lbu	s6,-432(sp)

0000000080002060 <i_1969>:
    80002060:	88c00613          	li	a2,-1908

0000000080002064 <i_1970>:
    80002064:	89400d93          	li	s11,-1900

0000000080002068 <i_1971>:
    80002068:	fbb11423          	sh	s11,-88(sp)

000000008000206c <i_1972>:
    8000206c:	03666c3b          	remw	s8,a2,s6

0000000080002070 <i_1973>:
    80002070:	00160613          	addi	a2,a2,1
    80002074:	ffb64ae3          	blt	a2,s11,80002068 <i_1971>

0000000080002078 <i_1974>:
    80002078:	ee4aea93          	ori	s5,s5,-284

000000008000207c <i_1975>:
    8000207c:	f1c12b83          	lw	s7,-228(sp)

0000000080002080 <i_1976>:
    80002080:	00140413          	addi	s0,s0,1
    80002084:	fd3468e3          	bltu	s0,s3,80002054 <i_1966>

0000000080002088 <i_1977>:
    80002088:	00813603          	ld	a2,8(sp)

000000008000208c <i_1978>:
    8000208c:	03562ab3          	mulhsu	s5,a2,s5

0000000080002090 <i_1979>:
    80002090:	017af463          	bleu	s7,s5,80002098 <i_1981>

0000000080002094 <i_1980>:
    80002094:	03534abb          	divw	s5,t1,s5

0000000080002098 <i_1981>:
    80002098:	00435313          	srli	t1,t1,0x4

000000008000209c <i_1982>:
    8000209c:	026ae263          	bltu	s5,t1,800020c0 <i_1991>

00000000800020a0 <i_1983>:
    800020a0:	17a10303          	lb	t1,378(sp)

00000000800020a4 <i_1984>:
    800020a4:	02633333          	mulhu	t1,t1,t1

00000000800020a8 <i_1985>:
    800020a8:	00635a63          	ble	t1,t1,800020bc <i_1990>

00000000800020ac <i_1986>:
    800020ac:	00637e63          	bleu	t1,t1,800020c8 <i_1993>

00000000800020b0 <i_1987>:
    800020b0:	02634263          	blt	t1,t1,800020d4 <i_1996>

00000000800020b4 <i_1988>:
    800020b4:	00635863          	ble	t1,t1,800020c4 <i_1992>

00000000800020b8 <i_1989>:
    800020b8:	01400613          	li	a2,20

00000000800020bc <i_1990>:
    800020bc:	00c3523b          	srlw	tp,t1,a2

00000000800020c0 <i_1991>:
    800020c0:	fcc12383          	lw	t2,-52(sp)

00000000800020c4 <i_1992>:
    800020c4:	00145213          	srli	tp,s0,0x1

00000000800020c8 <i_1993>:
    800020c8:	aa930313          	addi	t1,t1,-1367

00000000800020cc <i_1994>:
    800020cc:	ee013783          	ld	a5,-288(sp)

00000000800020d0 <i_1995>:
    800020d0:	04812783          	lw	a5,72(sp)

00000000800020d4 <i_1996>:
    800020d4:	f2611423          	sh	t1,-216(sp)

00000000800020d8 <i_1997>:
    800020d8:	00f30463          	beq	t1,a5,800020e0 <i_1999>

00000000800020dc <i_1998>:
    800020dc:	00c24e63          	blt	tp,a2,800020f8 <i_2005>

00000000800020e0 <i_1999>:
    800020e0:	06615783          	lhu	a5,102(sp)

00000000800020e4 <i_2000>:
    800020e4:	e6411223          	sh	tp,-412(sp)

00000000800020e8 <i_2001>:
    800020e8:	81d62a13          	slti	s4,a2,-2019

00000000800020ec <i_2002>:
    800020ec:	0022149b          	slliw	s1,tp,0x2

00000000800020f0 <i_2003>:
    800020f0:	02f7f063          	bleu	a5,a5,80002110 <i_2011>

00000000800020f4 <i_2004>:
    800020f4:	0c710da3          	sb	t2,219(sp)

00000000800020f8 <i_2005>:
    800020f8:	28676337          	lui	t1,0x28676

00000000800020fc <i_2006>:
    800020fc:	0103f663          	bleu	a6,t2,80002108 <i_2009>

0000000080002100 <i_2007>:
    80002100:	02636063          	bltu	t1,t1,80002120 <i_2015>

0000000080002104 <i_2008>:
    80002104:	009a0863          	beq	s4,s1,80002114 <i_2012>

0000000080002108 <i_2009>:
    80002108:	02f36abb          	remw	s5,t1,a5

000000008000210c <i_2010>:
    8000210c:	03413423          	sd	s4,40(sp)

0000000080002110 <i_2011>:
    80002110:	10214e83          	lbu	t4,258(sp)

0000000080002114 <i_2012>:
    80002114:	03813983          	ld	s3,56(sp)

0000000080002118 <i_2013>:
    80002118:	19416203          	lwu	tp,404(sp)

000000008000211c <i_2014>:
    8000211c:	01d95c63          	ble	t4,s2,80002134 <i_2020>

0000000080002120 <i_2015>:
    80002120:	01deeab3          	or	s5,t4,t4

0000000080002124 <i_2016>:
    80002124:	b78eee93          	ori	t4,t4,-1160

0000000080002128 <i_2017>:
    80002128:	eee11183          	lh	gp,-274(sp)

000000008000212c <i_2018>:
    8000212c:	fcbff213          	andi	tp,t6,-53

0000000080002130 <i_2019>:
    80002130:	00000013          	nop

0000000080002134 <i_2020>:
    80002134:	e8910203          	lb	tp,-375(sp)

0000000080002138 <i_2021>:
    80002138:	ec312423          	sw	gp,-312(sp)

000000008000213c <i_2022>:
    8000213c:	72e00293          	li	t0,1838

0000000080002140 <i_2023>:
    80002140:	74100b93          	li	s7,1857

0000000080002144 <i_2024>:
    80002144:	40420233          	sub	tp,tp,tp

0000000080002148 <i_2025>:
    80002148:	02300a13          	li	s4,35

000000008000214c <i_2026>:
    8000214c:	41425233          	sra	tp,tp,s4

0000000080002150 <i_2027>:
    80002150:	75100e93          	li	t4,1873

0000000080002154 <i_2028>:
    80002154:	75b00193          	li	gp,1883

0000000080002158 <i_2029>:
    80002158:	001e8e93          	addi	t4,t4,1
    8000215c:	fe3ecce3          	blt	t4,gp,80002154 <i_2028>

0000000080002160 <i_2030>:
    80002160:	00420a63          	beq	tp,tp,80002174 <i_2034>

0000000080002164 <i_2031>:
    80002164:	00128293          	addi	t0,t0,1
    80002168:	fd729ee3          	bne	t0,s7,80002144 <i_2024>

000000008000216c <i_2032>:
    8000216c:	06412423          	sw	tp,104(sp)

0000000080002170 <i_2033>:
    80002170:	f5c12203          	lw	tp,-164(sp)

0000000080002174 <i_2034>:
    80002174:	002ed21b          	srliw	tp,t4,0x2

0000000080002178 <i_2035>:
    80002178:	11e11a23          	sh	t5,276(sp)

000000008000217c <i_2036>:
    8000217c:	03edef3b          	remw	t5,s11,t5

0000000080002180 <i_2037>:
    80002180:	03ef5db3          	divu	s11,t5,t5

0000000080002184 <i_2038>:
    80002184:	01ef7463          	bleu	t5,t5,8000218c <i_2040>

0000000080002188 <i_2039>:
    80002188:	41ea0bb3          	sub	s7,s4,t5

000000008000218c <i_2040>:
    8000218c:	01fd8a63          	beq	s11,t6,800021a0 <i_2045>

0000000080002190 <i_2041>:
    80002190:	c7cbff13          	andi	t5,s7,-900

0000000080002194 <i_2042>:
    80002194:	01ebc7b3          	xor	a5,s7,t5

0000000080002198 <i_2043>:
    80002198:	017bda63          	ble	s7,s7,800021ac <i_2048>

000000008000219c <i_2044>:
    8000219c:	01bf1663          	bne	t5,s11,800021a8 <i_2047>

00000000800021a0 <i_2045>:
    800021a0:	011f7863          	bleu	a7,t5,800021b0 <i_2049>

00000000800021a4 <i_2046>:
    800021a4:	0ca10b03          	lb	s6,202(sp)

00000000800021a8 <i_2047>:
    800021a8:	14611283          	lh	t0,326(sp)

00000000800021ac <i_2048>:
    800021ac:	018b6663          	bltu	s6,s8,800021b8 <i_2051>

00000000800021b0 <i_2049>:
    800021b0:	00300613          	li	a2,3

00000000800021b4 <i_2050>:
    800021b4:	00c797bb          	sllw	a5,a5,a2

00000000800021b8 <i_2051>:
    800021b8:	22fd0c13          	addi	s8,s10,559

00000000800021bc <i_2052>:
    800021bc:	ad5dff37          	lui	t5,0xad5df

00000000800021c0 <i_2053>:
    800021c0:	01059663          	bne	a1,a6,800021cc <i_2056>

00000000800021c4 <i_2054>:
    800021c4:	002f1e9b          	slliw	t4,t5,0x2

00000000800021c8 <i_2055>:
    800021c8:	04812983          	lw	s3,72(sp)

00000000800021cc <i_2056>:
    800021cc:	e5e11283          	lh	t0,-418(sp)

00000000800021d0 <i_2057>:
    800021d0:	00429293          	slli	t0,t0,0x4

00000000800021d4 <i_2058>:
    800021d4:	e4511323          	sh	t0,-442(sp)

00000000800021d8 <i_2059>:
    800021d8:	ee943337          	lui	t1,0xee943

00000000800021dc <i_2060>:
    800021dc:	0132c5b3          	xor	a1,t0,s3

00000000800021e0 <i_2061>:
    800021e0:	0ec12303          	lw	t1,236(sp)

00000000800021e4 <i_2062>:
    800021e4:	ee511f23          	sh	t0,-258(sp)

00000000800021e8 <i_2063>:
    800021e8:	10510623          	sb	t0,268(sp)

00000000800021ec <i_2064>:
    800021ec:	12813583          	ld	a1,296(sp)

00000000800021f0 <i_2065>:
    800021f0:	00000013          	nop

00000000800021f4 <i_2066>:
    800021f4:	00000013          	nop

00000000800021f8 <i_2067>:
    800021f8:	80700a13          	li	s4,-2041

00000000800021fc <i_2068>:
    800021fc:	81000593          	li	a1,-2032

0000000080002200 <i_2069>:
    80002200:	15c11203          	lh	tp,348(sp)

0000000080002204 <i_2070>:
    80002204:	09e10c83          	lb	s9,158(sp)

0000000080002208 <i_2071>:
    80002208:	0255d263          	ble	t0,a1,8000222c <i_2079>

000000008000220c <i_2072>:
    8000220c:	00000013          	nop

0000000080002210 <i_2073>:
    80002210:	4fcbcb93          	xori	s7,s7,1276

0000000080002214 <i_2074>:
    80002214:	017bbbb3          	sltu	s7,s7,s7

0000000080002218 <i_2075>:
    80002218:	02421663          	bne	tp,tp,80002244 <i_2085>

000000008000221c <i_2076>:
    8000221c:	001a0a13          	addi	s4,s4,1
    80002220:	ff45d0e3          	ble	s4,a1,80002200 <i_2069>

0000000080002224 <i_2077>:
    80002224:	07e11a83          	lh	s5,126(sp)

0000000080002228 <i_2078>:
    80002228:	03762633          	mulhsu	a2,a2,s7

000000008000222c <i_2079>:
    8000222c:	019cec63          	bltu	s9,s9,80002244 <i_2085>

0000000080002230 <i_2080>:
    80002230:	03000c93          	li	s9,48

0000000080002234 <i_2081>:
    80002234:	419cdab3          	sra	s5,s9,s9

0000000080002238 <i_2082>:
    80002238:	1bc15083          	lhu	ra,444(sp)

000000008000223c <i_2083>:
    8000223c:	00000013          	nop

0000000080002240 <i_2084>:
    80002240:	17710f23          	sb	s7,382(sp)

0000000080002244 <i_2085>:
    80002244:	00000013          	nop

0000000080002248 <i_2086>:
    80002248:	00000013          	nop

000000008000224c <i_2087>:
    8000224c:	80c00c93          	li	s9,-2036

0000000080002250 <i_2088>:
    80002250:	80f00b93          	li	s7,-2033

0000000080002254 <i_2089>:
    80002254:	0390e063          	bltu	ra,s9,80002274 <i_2097>

0000000080002258 <i_2090>:
    80002258:	001cce63          	blt	s9,ra,80002274 <i_2097>

000000008000225c <i_2091>:
    8000225c:	f9913823          	sd	s9,-112(sp)

0000000080002260 <i_2092>:
    80002260:	1d80ef13          	ori	t5,ra,472

0000000080002264 <i_2093>:
    80002264:	ef611503          	lh	a0,-266(sp)

0000000080002268 <i_2094>:
    80002268:	01100f13          	li	t5,17

000000008000226c <i_2095>:
    8000226c:	01ee5e3b          	srlw	t3,t3,t5

0000000080002270 <i_2096>:
    80002270:	04b14e03          	lbu	t3,75(sp)

0000000080002274 <i_2097>:
    80002274:	01aafd33          	and	s10,s5,s10

0000000080002278 <i_2098>:
    80002278:	ff214a83          	lbu	s5,-14(sp)

000000008000227c <i_2099>:
    8000227c:	04c12f03          	lw	t5,76(sp)

0000000080002280 <i_2100>:
    80002280:	17c11e23          	sh	t3,380(sp)

0000000080002284 <i_2101>:
    80002284:	001c8c93          	addi	s9,s9,1
    80002288:	fd7ce6e3          	bltu	s9,s7,80002254 <i_2089>

000000008000228c <i_2102>:
    8000228c:	13016603          	lwu	a2,304(sp)

0000000080002290 <i_2103>:
    80002290:	01ee0863          	beq	t3,t5,800022a0 <i_2107>

0000000080002294 <i_2104>:
    80002294:	03510403          	lb	s0,53(sp)

0000000080002298 <i_2105>:
    80002298:	02cd0263          	beq	s10,a2,800022bc <i_2114>

000000008000229c <i_2106>:
    8000229c:	02c44263          	blt	s0,a2,800022c0 <i_2115>

00000000800022a0 <i_2107>:
    800022a0:	e2815e03          	lhu	t3,-472(sp)

00000000800022a4 <i_2108>:
    800022a4:	1a811d83          	lh	s11,424(sp)

00000000800022a8 <i_2109>:
    800022a8:	4156083b          	subw	a6,a2,s5

00000000800022ac <i_2110>:
    800022ac:	010e7663          	bleu	a6,t3,800022b8 <i_2113>

00000000800022b0 <i_2111>:
    800022b0:	01bd8833          	add	a6,s11,s11

00000000800022b4 <i_2112>:
    800022b4:	02d8053b          	mulw	a0,a6,a3

00000000800022b8 <i_2113>:
    800022b8:	f2013483          	ld	s1,-224(sp)

00000000800022bc <i_2114>:
    800022bc:	0f011323          	sh	a6,230(sp)

00000000800022c0 <i_2115>:
    800022c0:	f8412c03          	lw	s8,-124(sp)

00000000800022c4 <i_2116>:
    800022c4:	01c00813          	li	a6,28

00000000800022c8 <i_2117>:
    800022c8:	410dddb3          	sra	s11,s11,a6

00000000800022cc <i_2118>:
    800022cc:	75400d13          	li	s10,1876

00000000800022d0 <i_2119>:
    800022d0:	75700493          	li	s1,1879

00000000800022d4 <i_2120>:
    800022d4:	7936df17          	auipc	t5,0x7936d

00000000800022d8 <i_2121>:
    800022d8:	e1c16283          	lwu	t0,-484(sp)

00000000800022dc <i_2122>:
    800022dc:	05211523          	sh	s2,74(sp)

00000000800022e0 <i_2123>:
    800022e0:	41648b3b          	subw	s6,s1,s6

00000000800022e4 <i_2124>:
    800022e4:	e8c14b03          	lbu	s6,-372(sp)

00000000800022e8 <i_2125>:
    800022e8:	01ada533          	slt	a0,s11,s10

00000000800022ec <i_2126>:
    800022ec:	001d0d13          	addi	s10,s10,1
    800022f0:	ffa4d0e3          	ble	s10,s1,800022d0 <i_2119>

00000000800022f4 <i_2127>:
    800022f4:	13416303          	lwu	t1,308(sp)

00000000800022f8 <i_2128>:
    800022f8:	02ab3b33          	mulhu	s6,s6,a0

00000000800022fc <i_2129>:
    800022fc:	00db0463          	beq	s6,a3,80002304 <i_2131>

0000000080002300 <i_2130>:
    80002300:	02812d03          	lw	s10,40(sp)

0000000080002304 <i_2131>:
    80002304:	ecf10a03          	lb	s4,-305(sp)

0000000080002308 <i_2132>:
    80002308:	f3a11803          	lh	a6,-198(sp)

000000008000230c <i_2133>:
    8000230c:	0f813a03          	ld	s4,248(sp)

0000000080002310 <i_2134>:
    80002310:	13412e23          	sw	s4,316(sp)

0000000080002314 <i_2135>:
    80002314:	1d013a03          	ld	s4,464(sp)

0000000080002318 <i_2136>:
    80002318:	ea110a83          	lb	s5,-351(sp)

000000008000231c <i_2137>:
    8000231c:	410a8cbb          	subw	s9,s5,a6

0000000080002320 <i_2138>:
    80002320:	e9012023          	sw	a6,-384(sp)

0000000080002324 <i_2139>:
    80002324:	039abf33          	mulhu	t5,s5,s9

0000000080002328 <i_2140>:
    80002328:	03ea1263          	bne	s4,t5,8000234c <i_2149>

000000008000232c <i_2141>:
    8000232c:	03b00993          	li	s3,59

0000000080002330 <i_2142>:
    80002330:	4133d533          	sra	a0,t2,s3

0000000080002334 <i_2143>:
    80002334:	01957863          	bleu	s9,a0,80002344 <i_2147>

0000000080002338 <i_2144>:
    80002338:	00011503          	lh	a0,0(sp)

000000008000233c <i_2145>:
    8000233c:	eea11723          	sh	a0,-274(sp)

0000000080002340 <i_2146>:
    80002340:	0c812983          	lw	s3,200(sp)

0000000080002344 <i_2147>:
    80002344:	03d00413          	li	s0,61

0000000080002348 <i_2148>:
    80002348:	00855433          	srl	s0,a0,s0

000000008000234c <i_2149>:
    8000234c:	e6214403          	lbu	s0,-414(sp)

0000000080002350 <i_2150>:
    80002350:	f3914983          	lbu	s3,-199(sp)

0000000080002354 <i_2151>:
    80002354:	73300a13          	li	s4,1843

0000000080002358 <i_2152>:
    80002358:	74000513          	li	a0,1856

000000008000235c <i_2153>:
    8000235c:	038a6463          	bltu	s4,s8,80002384 <i_2163>

0000000080002360 <i_2154>:
    80002360:	00da06b3          	add	a3,s4,a3

0000000080002364 <i_2155>:
    80002364:	0b413823          	sd	s4,176(sp)

0000000080002368 <i_2156>:
    80002368:	fc812623          	sw	s0,-52(sp)

000000008000236c <i_2157>:
    8000236c:	034683bb          	mulw	t2,a3,s4

0000000080002370 <i_2158>:
    80002370:	00747e63          	bleu	t2,s0,8000238c <i_2165>

0000000080002374 <i_2159>:
    80002374:	cd07a417          	auipc	s0,0xcd07a

0000000080002378 <i_2160>:
    80002378:	77938093          	addi	ra,t2,1913 # 536775bd <main-0x2c988a43>

000000008000237c <i_2161>:
    8000237c:	02345463          	ble	gp,s0,800023a4 <i_2170>

0000000080002380 <i_2162>:
    80002380:	ede11b83          	lh	s7,-290(sp)

0000000080002384 <i_2163>:
    80002384:	02d470b3          	remu	ra,s0,a3

0000000080002388 <i_2164>:
    80002388:	8313ea93          	ori	s5,t2,-1999

000000008000238c <i_2165>:
    8000238c:	02768663          	beq	a3,t2,800023b8 <i_2175>

0000000080002390 <i_2166>:
    80002390:	f4415403          	lhu	s0,-188(sp)

0000000080002394 <i_2167>:
    80002394:	001a0a13          	addi	s4,s4,1
    80002398:	fd4572e3          	bleu	s4,a0,8000235c <i_2153>

000000008000239c <i_2168>:
    8000239c:	24237497          	auipc	s1,0x24237

00000000800023a0 <i_2169>:
    800023a0:	00148463          	beq	s1,ra,800023a8 <i_2171>

00000000800023a4 <i_2170>:
    800023a4:	1b016383          	lwu	t2,432(sp)

00000000800023a8 <i_2171>:
    800023a8:	ff013683          	ld	a3,-16(sp)

00000000800023ac <i_2172>:
    800023ac:	e8013b03          	ld	s6,-384(sp)

00000000800023b0 <i_2173>:
    800023b0:	009bbbb3          	sltu	s7,s7,s1

00000000800023b4 <i_2174>:
    800023b4:	0073cb33          	xor	s6,t2,t2

00000000800023b8 <i_2175>:
    800023b8:	0293c4bb          	divw	s1,t2,s1

00000000800023bc <i_2176>:
    800023bc:	016b0e33          	add	t3,s6,s6

00000000800023c0 <i_2177>:
    800023c0:	0169fc63          	bleu	s6,s3,800023d8 <i_2183>

00000000800023c4 <i_2178>:
    800023c4:	027b9eb3          	mulh	t4,s7,t2

00000000800023c8 <i_2179>:
    800023c8:	00012a83          	lw	s5,0(sp)

00000000800023cc <i_2180>:
    800023cc:	f9416f03          	lwu	t5,-108(sp)

00000000800023d0 <i_2181>:
    800023d0:	00de9c63          	bne	t4,a3,800023e8 <i_2187>

00000000800023d4 <i_2182>:
    800023d4:	e4410e03          	lb	t3,-444(sp)

00000000800023d8 <i_2183>:
    800023d8:	06314b03          	lbu	s6,99(sp)

00000000800023dc <i_2184>:
    800023dc:	e9812083          	lw	ra,-360(sp)

00000000800023e0 <i_2185>:
    800023e0:	59eb0e9b          	addiw	t4,s6,1438

00000000800023e4 <i_2186>:
    800023e4:	fbba3637          	lui	a2,0xfbba3

00000000800023e8 <i_2187>:
    800023e8:	fe710323          	sb	t2,-26(sp)

00000000800023ec <i_2188>:
    800023ec:	9545051b          	addiw	a0,a0,-1708

00000000800023f0 <i_2189>:
    800023f0:	40a5053b          	subw	a0,a0,a0

00000000800023f4 <i_2190>:
    800023f4:	1da57513          	andi	a0,a0,474

00000000800023f8 <i_2191>:
    800023f8:	17210803          	lb	a6,370(sp)

00000000800023fc <i_2192>:
    800023fc:	25e56813          	ori	a6,a0,606

0000000080002400 <i_2193>:
    80002400:	81500513          	li	a0,-2027

0000000080002404 <i_2194>:
    80002404:	81e00a93          	li	s5,-2018

0000000080002408 <i_2195>:
    80002408:	fb412803          	lw	a6,-76(sp)

000000008000240c <i_2196>:
    8000240c:	01083833          	sltu	a6,a6,a6

0000000080002410 <i_2197>:
    80002410:	00000013          	nop

0000000080002414 <i_2198>:
    80002414:	02b12023          	sw	a1,32(sp)

0000000080002418 <i_2199>:
    80002418:	03084663          	blt	a6,a6,80002444 <i_2209>

000000008000241c <i_2200>:
    8000241c:	1a7b5b17          	auipc	s6,0x1a7b5

0000000080002420 <i_2201>:
    80002420:	03684463          	blt	a6,s6,80002448 <i_2210>

0000000080002424 <i_2202>:
    80002424:	f2215b83          	lhu	s7,-222(sp)

0000000080002428 <i_2203>:
    80002428:	004b1313          	slli	t1,s6,0x4

000000008000242c <i_2204>:
    8000242c:	00150513          	addi	a0,a0,1 # 60b95001 <main-0x1f46afff>
    80002430:	fd556ce3          	bltu	a0,s5,80002408 <i_2195>

0000000080002434 <i_2205>:
    80002434:	1de14c83          	lbu	s9,478(sp)

0000000080002438 <i_2206>:
    80002438:	01627333          	and	t1,tp,s6

000000008000243c <i_2207>:
    8000243c:	01678c63          	beq	a5,s6,80002454 <i_2213>

0000000080002440 <i_2208>:
    80002440:	010dfa63          	bleu	a6,s11,80002454 <i_2213>

0000000080002444 <i_2209>:
    80002444:	fec10e03          	lb	t3,-20(sp)

0000000080002448 <i_2210>:
    80002448:	03930e3b          	mulw	t3,t1,s9

000000008000244c <i_2211>:
    8000244c:	01c1fc63          	bleu	t3,gp,80002464 <i_2217>

0000000080002450 <i_2212>:
    80002450:	9af66237          	lui	tp,0x9af66

0000000080002454 <i_2213>:
    80002454:	872e7393          	andi	t2,t3,-1934

0000000080002458 <i_2214>:
    80002458:	1c211123          	sh	sp,450(sp)

000000008000245c <i_2215>:
    8000245c:	003d8bb3          	add	s7,s11,gp

0000000080002460 <i_2216>:
    80002460:	003b9b13          	slli	s6,s7,0x3

0000000080002464 <i_2217>:
    80002464:	416b0bbb          	subw	s7,s6,s6

0000000080002468 <i_2218>:
    80002468:	e43102a3          	sb	gp,-443(sp)

000000008000246c <i_2219>:
    8000246c:	73b00d93          	li	s11,1851

0000000080002470 <i_2220>:
    80002470:	74b00193          	li	gp,1867

0000000080002474 <i_2221>:
    80002474:	4012d29b          	sraiw	t0,t0,0x1

0000000080002478 <i_2222>:
    80002478:	001e1e93          	slli	t4,t3,0x1

000000008000247c <i_2223>:
    8000247c:	7eb00e13          	li	t3,2027

0000000080002480 <i_2224>:
    80002480:	7f300b13          	li	s6,2035

0000000080002484 <i_2225>:
    80002484:	1b613c23          	sd	s6,440(sp)

0000000080002488 <i_2226>:
    80002488:	001e0e13          	addi	t3,t3,1
    8000248c:	ffcb5ce3          	ble	t3,s6,80002484 <i_2225>

0000000080002490 <i_2227>:
    80002490:	0052ce63          	blt	t0,t0,800024ac <i_2233>

0000000080002494 <i_2228>:
    80002494:	566acb17          	auipc	s6,0x566ac

0000000080002498 <i_2229>:
    80002498:	e4513c23          	sd	t0,-424(sp)

000000008000249c <i_2230>:
    8000249c:	001d8d93          	addi	s11,s11,1 # fffffffff7e5a001 <_end+0xffffffff77e49bed>
    800024a0:	fc3deae3          	bltu	s11,gp,80002474 <i_2221>

00000000800024a4 <i_2231>:
    800024a4:	00000013          	nop

00000000800024a8 <i_2232>:
    800024a8:	f7816e83          	lwu	t4,-136(sp)

00000000800024ac <i_2233>:
    800024ac:	e7011203          	lh	tp,-400(sp)

00000000800024b0 <i_2234>:
    800024b0:	1eb33093          	sltiu	ra,t1,491

00000000800024b4 <i_2235>:
    800024b4:	001ed863          	ble	ra,t4,800024c4 <i_2239>

00000000800024b8 <i_2236>:
    800024b8:	e1c15303          	lhu	t1,-484(sp)

00000000800024bc <i_2237>:
    800024bc:	1d812b83          	lw	s7,472(sp)

00000000800024c0 <i_2238>:
    800024c0:	06013383          	ld	t2,96(sp)

00000000800024c4 <i_2239>:
    800024c4:	01200793          	li	a5,18

00000000800024c8 <i_2240>:
    800024c8:	40f6563b          	sraw	a2,a2,a5

00000000800024cc <i_2241>:
    800024cc:	83c00193          	li	gp,-1988

00000000800024d0 <i_2242>:
    800024d0:	84a00313          	li	t1,-1974

00000000800024d4 <i_2243>:
    800024d4:	e8813483          	ld	s1,-376(sp)

00000000800024d8 <i_2244>:
    800024d8:	ef513023          	sd	s5,-288(sp)

00000000800024dc <i_2245>:
    800024dc:	11314383          	lbu	t2,275(sp)

00000000800024e0 <i_2246>:
    800024e0:	50aaa613          	slti	a2,s5,1290

00000000800024e4 <i_2247>:
    800024e4:	00100593          	li	a1,1

00000000800024e8 <i_2248>:
    800024e8:	00b7d7bb          	srlw	a5,a5,a1

00000000800024ec <i_2249>:
    800024ec:	f2012a03          	lw	s4,-224(sp)

00000000800024f0 <i_2250>:
    800024f0:	02760063          	beq	a2,t2,80002510 <i_2257>

00000000800024f4 <i_2251>:
    800024f4:	0a013603          	ld	a2,160(sp)

00000000800024f8 <i_2252>:
    800024f8:	03c00093          	li	ra,60

00000000800024fc <i_2253>:
    800024fc:	4013d3b3          	sra	t2,t2,ra

0000000080002500 <i_2254>:
    80002500:	00118193          	addi	gp,gp,1
    80002504:	fc61c8e3          	blt	gp,t1,800024d4 <i_2243>

0000000080002508 <i_2255>:
    80002508:	19412a23          	sw	s4,404(sp)

000000008000250c <i_2256>:
    8000250c:	0140de63          	ble	s4,ra,80002528 <i_2263>

0000000080002510 <i_2257>:
    80002510:	0010de63          	ble	ra,ra,8000252c <i_2264>

0000000080002514 <i_2258>:
    80002514:	fbc12383          	lw	t2,-68(sp)

0000000080002518 <i_2259>:
    80002518:	00000013          	nop

000000008000251c <i_2260>:
    8000251c:	02838db3          	mul	s11,t2,s0

0000000080002520 <i_2261>:
    80002520:	eb210083          	lb	ra,-334(sp)

0000000080002524 <i_2262>:
    80002524:	f1813e83          	ld	t4,-232(sp)

0000000080002528 <i_2263>:
    80002528:	00000013          	nop

000000008000252c <i_2264>:
    8000252c:	9d31bd93          	sltiu	s11,gp,-1581

0000000080002530 <i_2265>:
    80002530:	eec16603          	lwu	a2,-276(sp)

0000000080002534 <i_2266>:
    80002534:	7ae00413          	li	s0,1966

0000000080002538 <i_2267>:
    80002538:	7b100593          	li	a1,1969

000000008000253c <i_2268>:
    8000253c:	19815603          	lhu	a2,408(sp)

0000000080002540 <i_2269>:
    80002540:	0ce11183          	lh	gp,206(sp)

0000000080002544 <i_2270>:
    80002544:	e0312e23          	sw	gp,-484(sp)

0000000080002548 <i_2271>:
    80002548:	02c66eb3          	rem	t4,a2,a2

000000008000254c <i_2272>:
    8000254c:	01be9263          	bne	t4,s11,80002550 <i_2273>

0000000080002550 <i_2273>:
    80002550:	0b012603          	lw	a2,176(sp)

0000000080002554 <i_2274>:
    80002554:	03a00613          	li	a2,58

0000000080002558 <i_2275>:
    80002558:	00c65ab3          	srl	s5,a2,a2

000000008000255c <i_2276>:
    8000255c:	00ce6c63          	bltu	t3,a2,80002574 <i_2281>

0000000080002560 <i_2277>:
    80002560:	00140413          	addi	s0,s0,1 # 4d07c375 <main-0x32f83c8b>
    80002564:	fc85fce3          	bleu	s0,a1,8000253c <i_2268>

0000000080002568 <i_2278>:
    80002568:	0e311923          	sh	gp,242(sp)

000000008000256c <i_2279>:
    8000256c:	01314603          	lbu	a2,19(sp)

0000000080002570 <i_2280>:
    80002570:	03d60463          	beq	a2,t4,80002598 <i_2290>

0000000080002574 <i_2281>:
    80002574:	e2c12c23          	sw	a2,-456(sp)

0000000080002578 <i_2282>:
    80002578:	1e911023          	sh	s1,480(sp)

000000008000257c <i_2283>:
    8000257c:	0351fbbb          	remuw	s7,gp,s5

0000000080002580 <i_2284>:
    80002580:	00bde463          	bltu	s11,a1,80002588 <i_2286>

0000000080002584 <i_2285>:
    80002584:	03bafcbb          	remuw	s9,s5,s11

0000000080002588 <i_2286>:
    80002588:	03da91b3          	mulh	gp,s5,t4

000000008000258c <i_2287>:
    8000258c:	02815803          	lhu	a6,40(sp)

0000000080002590 <i_2288>:
    80002590:	403b8bb3          	sub	s7,s7,gp

0000000080002594 <i_2289>:
    80002594:	0321e263          	bltu	gp,s2,800025b8 <i_2298>

0000000080002598 <i_2290>:
    80002598:	028c91b3          	mulh	gp,s9,s0

000000008000259c <i_2291>:
    8000259c:	01086463          	bltu	a6,a6,800025a4 <i_2293>

00000000800025a0 <i_2292>:
    800025a0:	05d10e83          	lb	t4,93(sp)

00000000800025a4 <i_2293>:
    800025a4:	02f00a93          	li	s5,47

00000000800025a8 <i_2294>:
    800025a8:	015211b3          	sll	gp,tp,s5

00000000800025ac <i_2295>:
    800025ac:	0031b0b3          	sltu	ra,gp,gp

00000000800025b0 <i_2296>:
    800025b0:	01910023          	sb	s9,0(sp)

00000000800025b4 <i_2297>:
    800025b4:	ec313423          	sd	gp,-312(sp)

00000000800025b8 <i_2298>:
    800025b8:	1b416183          	lwu	gp,436(sp)

00000000800025bc <i_2299>:
    800025bc:	0a611d03          	lh	s10,166(sp)

00000000800025c0 <i_2300>:
    800025c0:	00108863          	beq	ra,ra,800025d0 <i_2304>

00000000800025c4 <i_2301>:
    800025c4:	039cf463          	bleu	s9,s9,800025ec <i_2311>

00000000800025c8 <i_2302>:
    800025c8:	e3614e83          	lbu	t4,-458(sp)

00000000800025cc <i_2303>:
    800025cc:	01586863          	bltu	a6,s5,800025dc <i_2307>

00000000800025d0 <i_2304>:
    800025d0:	fba12623          	sw	s10,-84(sp)

00000000800025d4 <i_2305>:
    800025d4:	f8111223          	sh	ra,-124(sp)

00000000800025d8 <i_2306>:
    800025d8:	0031f663          	bleu	gp,gp,800025e4 <i_2309>

00000000800025dc <i_2307>:
    800025dc:	00f00d13          	li	s10,15

00000000800025e0 <i_2308>:
    800025e0:	41ad5d33          	sra	s10,s10,s10

00000000800025e4 <i_2309>:
    800025e4:	00000013          	nop

00000000800025e8 <i_2310>:
    800025e8:	e6c11d03          	lh	s10,-404(sp)

00000000800025ec <i_2311>:
    800025ec:	00000013          	nop

00000000800025f0 <i_2312>:
    800025f0:	03ad6d33          	rem	s10,s10,s10

00000000800025f4 <i_2313>:
    800025f4:	7c400093          	li	ra,1988

00000000800025f8 <i_2314>:
    800025f8:	7ca00613          	li	a2,1994

00000000800025fc <i_2315>:
    800025fc:	01013b83          	ld	s7,16(sp)

0000000080002600 <i_2316>:
    80002600:	00108093          	addi	ra,ra,1
    80002604:	fe167ce3          	bleu	ra,a2,800025fc <i_2315>

0000000080002608 <i_2317>:
    80002608:	13c16603          	lwu	a2,316(sp)

000000008000260c <i_2318>:
    8000260c:	001b9b93          	slli	s7,s7,0x1

0000000080002610 <i_2319>:
    80002610:	fac11723          	sh	a2,-82(sp)

0000000080002614 <i_2320>:
    80002614:	017f3f33          	sltu	t5,t5,s7

0000000080002618 <i_2321>:
    80002618:	00000013          	nop

000000008000261c <i_2322>:
    8000261c:	004fd613          	srli	a2,t6,0x4

0000000080002620 <i_2323>:
    80002620:	87800d13          	li	s10,-1928

0000000080002624 <i_2324>:
    80002624:	88500a93          	li	s5,-1915

0000000080002628 <i_2325>:
    80002628:	401ad793          	srai	a5,s5,0x1

000000008000262c <i_2326>:
    8000262c:	001d0d13          	addi	s10,s10,1
    80002630:	ff5d4ce3          	blt	s10,s5,80002628 <i_2325>

0000000080002634 <i_2327>:
    80002634:	011d7463          	bleu	a7,s10,8000263c <i_2329>

0000000080002638 <i_2328>:
    80002638:	0a911823          	sh	s1,176(sp)

000000008000263c <i_2329>:
    8000263c:	03816c83          	lwu	s9,56(sp)

0000000080002640 <i_2330>:
    80002640:	f1012c03          	lw	s8,-240(sp)

0000000080002644 <i_2331>:
    80002644:	78500493          	li	s1,1925

0000000080002648 <i_2332>:
    80002648:	79400a93          	li	s5,1940

000000008000264c <i_2333>:
    8000264c:	407587bb          	subw	a5,a1,t2

0000000080002650 <i_2334>:
    80002650:	edb14083          	lbu	ra,-293(sp)

0000000080002654 <i_2335>:
    80002654:	83d00393          	li	t2,-1987

0000000080002658 <i_2336>:
    80002658:	84a00e93          	li	t4,-1974

000000008000265c <i_2337>:
    8000265c:	00816d03          	lwu	s10,8(sp)

0000000080002660 <i_2338>:
    80002660:	0030da13          	srli	s4,ra,0x3

0000000080002664 <i_2339>:
    80002664:	00138393          	addi	t2,t2,1
    80002668:	fe7edae3          	ble	t2,t4,8000265c <i_2337>

000000008000266c <i_2340>:
    8000266c:	037a0063          	beq	s4,s7,8000268c <i_2347>

0000000080002670 <i_2341>:
    80002670:	82444e37          	lui	t3,0x82444

0000000080002674 <i_2342>:
    80002674:	00148493          	addi	s1,s1,1 # a423939d <_end+0x24228f89>
    80002678:	fd54eae3          	bltu	s1,s5,8000264c <i_2333>

000000008000267c <i_2343>:
    8000267c:	0298d463          	ble	s1,a7,800026a4 <i_2353>

0000000080002680 <i_2344>:
    80002680:	17213c23          	sd	s2,376(sp)

0000000080002684 <i_2345>:
    80002684:	e8913c23          	sd	s1,-360(sp)

0000000080002688 <i_2346>:
    80002688:	019c2eb3          	slt	t4,s8,s9

000000008000268c <i_2347>:
    8000268c:	01600393          	li	t2,22

0000000080002690 <i_2348>:
    80002690:	407c5f3b          	sraw	t5,s8,t2

0000000080002694 <i_2349>:
    80002694:	01700c13          	li	s8,23

0000000080002698 <i_2350>:
    80002698:	018ddc3b          	srlw	s8,s11,s8

000000008000269c <i_2351>:
    8000269c:	ee913823          	sd	s1,-272(sp)

00000000800026a0 <i_2352>:
    800026a0:	14c11583          	lh	a1,332(sp)

00000000800026a4 <i_2353>:
    800026a4:	02100993          	li	s3,33

00000000800026a8 <i_2354>:
    800026a8:	01369b33          	sll	s6,a3,s3

00000000800026ac <i_2355>:
    800026ac:	fb611123          	sh	s6,-94(sp)

00000000800026b0 <i_2356>:
    800026b0:	03dc7eb3          	remu	t4,s8,t4

00000000800026b4 <i_2357>:
    800026b4:	ea310083          	lb	ra,-349(sp)

00000000800026b8 <i_2358>:
    800026b8:	01e58e63          	beq	a1,t5,800026d4 <i_2365>

00000000800026bc <i_2359>:
    800026bc:	0115f263          	bleu	a7,a1,800026c0 <i_2360>

00000000800026c0 <i_2360>:
    800026c0:	40758ab3          	sub	s5,a1,t2

00000000800026c4 <i_2361>:
    800026c4:	0010a5b3          	slt	a1,ra,ra

00000000800026c8 <i_2362>:
    800026c8:	1f510023          	sb	s5,480(sp)

00000000800026cc <i_2363>:
    800026cc:	04110e23          	sb	ra,92(sp)

00000000800026d0 <i_2364>:
    800026d0:	037b9ab3          	mulh	s5,s7,s7

00000000800026d4 <i_2365>:
    800026d4:	00000013          	nop

00000000800026d8 <i_2366>:
    800026d8:	e2013a83          	ld	s5,-480(sp)

00000000800026dc <i_2367>:
    800026dc:	8a600093          	li	ra,-1882

00000000800026e0 <i_2368>:
    800026e0:	8b300b93          	li	s7,-1869

00000000800026e4 <i_2369>:
    800026e4:	0156aab3          	slt	s5,a3,s5

00000000800026e8 <i_2370>:
    800026e8:	2e2b8c13          	addi	s8,s7,738

00000000800026ec <i_2371>:
    800026ec:	0d511c23          	sh	s5,216(sp)

00000000800026f0 <i_2372>:
    800026f0:	0a812a83          	lw	s5,168(sp)

00000000800026f4 <i_2373>:
    800026f4:	00000013          	nop

00000000800026f8 <i_2374>:
    800026f8:	00108093          	addi	ra,ra,1
    800026fc:	fe1bf4e3          	bleu	ra,s7,800026e4 <i_2369>

0000000080002700 <i_2375>:
    80002700:	03513823          	sd	s5,48(sp)

0000000080002704 <i_2376>:
    80002704:	015ac463          	blt	s5,s5,8000270c <i_2378>

0000000080002708 <i_2377>:
    80002708:	035a9263          	bne	s5,s5,8000272c <i_2386>

000000008000270c <i_2378>:
    8000270c:	03813a83          	ld	s5,56(sp)

0000000080002710 <i_2379>:
    80002710:	e3610a83          	lb	s5,-458(sp)

0000000080002714 <i_2380>:
    80002714:	0e813a83          	ld	s5,232(sp)

0000000080002718 <i_2381>:
    80002718:	7f2e8b93          	addi	s7,t4,2034

000000008000271c <i_2382>:
    8000271c:	0c611083          	lh	ra,198(sp)

0000000080002720 <i_2383>:
    80002720:	03ac0d3b          	mulw	s10,s8,s10

0000000080002724 <i_2384>:
    80002724:	f9512423          	sw	s5,-120(sp)

0000000080002728 <i_2385>:
    80002728:	017af263          	bleu	s7,s5,8000272c <i_2386>

000000008000272c <i_2386>:
    8000272c:	1fa12023          	sw	s10,480(sp)

0000000080002730 <i_2387>:
    80002730:	f3a12223          	sw	s10,-220(sp)

0000000080002734 <i_2388>:
    80002734:	0043949b          	slliw	s1,t2,0x4

0000000080002738 <i_2389>:
    80002738:	05c15a03          	lhu	s4,92(sp)

000000008000273c <i_2390>:
    8000273c:	8b700d13          	li	s10,-1865

0000000080002740 <i_2391>:
    80002740:	8cb00093          	li	ra,-1845

0000000080002744 <i_2392>:
    80002744:	10d14b83          	lbu	s7,269(sp)

0000000080002748 <i_2393>:
    80002748:	e9e11483          	lh	s1,-354(sp)

000000008000274c <i_2394>:
    8000274c:	0b411c23          	sh	s4,184(sp)

0000000080002750 <i_2395>:
    80002750:	fbe13423          	sd	t5,-88(sp)

0000000080002754 <i_2396>:
    80002754:	ed415503          	lhu	a0,-300(sp)

0000000080002758 <i_2397>:
    80002758:	f6016503          	lwu	a0,-160(sp)

000000008000275c <i_2398>:
    8000275c:	00ad7263          	bleu	a0,s10,80002760 <i_2399>

0000000080002760 <i_2399>:
    80002760:	1a815683          	lhu	a3,424(sp)

0000000080002764 <i_2400>:
    80002764:	ecd13023          	sd	a3,-320(sp)

0000000080002768 <i_2401>:
    80002768:	001d0d13          	addi	s10,s10,1
    8000276c:	fda0dce3          	ble	s10,ra,80002744 <i_2392>

0000000080002770 <i_2402>:
    80002770:	fd412e23          	sw	s4,-36(sp)

0000000080002774 <i_2403>:
    80002774:	16813503          	ld	a0,360(sp)

0000000080002778 <i_2404>:
    80002778:	10a13423          	sd	a0,264(sp)

000000008000277c <i_2405>:
    8000277c:	18110c83          	lb	s9,385(sp)

0000000080002780 <i_2406>:
    80002780:	e9812503          	lw	a0,-360(sp)

0000000080002784 <i_2407>:
    80002784:	7a500c13          	li	s8,1957

0000000080002788 <i_2408>:
    80002788:	7ab00413          	li	s0,1963

000000008000278c <i_2409>:
    8000278c:	d6340b13          	addi	s6,s0,-669

0000000080002790 <i_2410>:
    80002790:	00300513          	li	a0,3

0000000080002794 <i_2411>:
    80002794:	00a554bb          	srlw	s1,a0,a0

0000000080002798 <i_2412>:
    80002798:	ea813503          	ld	a0,-344(sp)

000000008000279c <i_2413>:
    8000279c:	0c010503          	lb	a0,192(sp)

00000000800027a0 <i_2414>:
    800027a0:	02a8d4b3          	divu	s1,a7,a0

00000000800027a4 <i_2415>:
    800027a4:	fe011683          	lh	a3,-32(sp)

00000000800027a8 <i_2416>:
    800027a8:	001c0c13          	addi	s8,s8,1
    800027ac:	fe8c60e3          	bltu	s8,s0,8000278c <i_2409>

00000000800027b0 <i_2417>:
    800027b0:	02c707b3          	mul	a5,a4,a2

00000000800027b4 <i_2418>:
    800027b4:	ecf13423          	sd	a5,-312(sp)

00000000800027b8 <i_2419>:
    800027b8:	00f48c63          	beq	s1,a5,800027d0 <i_2425>

00000000800027bc <i_2420>:
    800027bc:	00a57663          	bleu	a0,a0,800027c8 <i_2423>

00000000800027c0 <i_2421>:
    800027c0:	ef015783          	lhu	a5,-272(sp)

00000000800027c4 <i_2422>:
    800027c4:	00f6b7b3          	sltu	a5,a3,a5

00000000800027c8 <i_2423>:
    800027c8:	14813a83          	ld	s5,328(sp)

00000000800027cc <i_2424>:
    800027cc:	00f7f7b3          	and	a5,a5,a5

00000000800027d0 <i_2425>:
    800027d0:	18f13c23          	sd	a5,408(sp)

00000000800027d4 <i_2426>:
    800027d4:	1cf12c23          	sw	a5,472(sp)

00000000800027d8 <i_2427>:
    800027d8:	fa416783          	lwu	a5,-92(sp)

00000000800027dc <i_2428>:
    800027dc:	41578abb          	subw	s5,a5,s5

00000000800027e0 <i_2429>:
    800027e0:	03d62eb3          	mulhsu	t4,a2,t4

00000000800027e4 <i_2430>:
    800027e4:	ed514a83          	lbu	s5,-299(sp)

00000000800027e8 <i_2431>:
    800027e8:	00f7a7b3          	slt	a5,a5,a5

00000000800027ec <i_2432>:
    800027ec:	c357cc13          	xori	s8,a5,-971

00000000800027f0 <i_2433>:
    800027f0:	015ed263          	ble	s5,t4,800027f4 <i_2434>

00000000800027f4 <i_2434>:
    800027f4:	00fc4e63          	blt	s8,a5,80002810 <i_2441>

00000000800027f8 <i_2435>:
    800027f8:	031ec7bb          	divw	a5,t4,a7

00000000800027fc <i_2436>:
    800027fc:	00faebb3          	or	s7,s5,a5

0000000080002800 <i_2437>:
    80002800:	f4f13c23          	sd	a5,-168(sp)

0000000080002804 <i_2438>:
    80002804:	e6f11223          	sh	a5,-412(sp)

0000000080002808 <i_2439>:
    80002808:	06c11e83          	lh	t4,108(sp)

000000008000280c <i_2440>:
    8000280c:	01e7c7b3          	xor	a5,a5,t5

0000000080002810 <i_2441>:
    80002810:	f0f11a23          	sh	a5,-236(sp)

0000000080002814 <i_2442>:
    80002814:	0ac11e03          	lh	t3,172(sp)

0000000080002818 <i_2443>:
    80002818:	88b00f13          	li	t5,-1909

000000008000281c <i_2444>:
    8000281c:	89000813          	li	a6,-1904

0000000080002820 <i_2445>:
    80002820:	01a00213          	li	tp,26

0000000080002824 <i_2446>:
    80002824:	004e5233          	srl	tp,t3,tp

0000000080002828 <i_2447>:
    80002828:	f5d14e03          	lbu	t3,-163(sp)

000000008000282c <i_2448>:
    8000282c:	0e615e03          	lhu	t3,230(sp)

0000000080002830 <i_2449>:
    80002830:	0c012e03          	lw	t3,192(sp)

0000000080002834 <i_2450>:
    80002834:	03a42e33          	mulhsu	t3,s0,s10

0000000080002838 <i_2451>:
    80002838:	f3410e03          	lb	t3,-204(sp)

000000008000283c <i_2452>:
    8000283c:	01ce7a63          	bleu	t3,t3,80002850 <i_2456>

0000000080002840 <i_2453>:
    80002840:	001f0f13          	addi	t5,t5,1 # f936f2d5 <_end+0x7935eec1>
    80002844:	fd0f6ee3          	bltu	t5,a6,80002820 <i_2445>

0000000080002848 <i_2454>:
    80002848:	00300993          	li	s3,3

000000008000284c <i_2455>:
    8000284c:	413451bb          	sraw	gp,s0,s3

0000000080002850 <i_2456>:
    80002850:	0081f663          	bleu	s0,gp,8000285c <i_2459>

0000000080002854 <i_2457>:
    80002854:	00300193          	li	gp,3

0000000080002858 <i_2458>:
    80002858:	003d1d3b          	sllw	s10,s10,gp

000000008000285c <i_2459>:
    8000285c:	0131fe63          	bleu	s3,gp,80002878 <i_2466>

0000000080002860 <i_2460>:
    80002860:	eba13c23          	sd	s10,-328(sp)

0000000080002864 <i_2461>:
    80002864:	0031fa63          	bleu	gp,gp,80002878 <i_2466>

0000000080002868 <i_2462>:
    80002868:	01ce0c63          	beq	t3,t3,80002880 <i_2468>

000000008000286c <i_2463>:
    8000286c:	04312223          	sw	gp,68(sp)

0000000080002870 <i_2464>:
    80002870:	01c27463          	bleu	t3,tp,80002878 <i_2466>

0000000080002874 <i_2465>:
    80002874:	e1e11e03          	lh	t3,-482(sp)

0000000080002878 <i_2466>:
    80002878:	00341e63          	bne	s0,gp,80002894 <i_2473>

000000008000287c <i_2467>:
    8000287c:	004d1693          	slli	a3,s10,0x4

0000000080002880 <i_2468>:
    80002880:	0b812f03          	lw	t5,184(sp)

0000000080002884 <i_2469>:
    80002884:	003e1f13          	slli	t5,t3,0x3

0000000080002888 <i_2470>:
    80002888:	f1d14983          	lbu	s3,-227(sp)

000000008000288c <i_2471>:
    8000288c:	03e1acb3          	mulhsu	s9,gp,t5

0000000080002890 <i_2472>:
    80002890:	16c15f03          	lhu	t5,364(sp)

0000000080002894 <i_2473>:
    80002894:	0b311423          	sh	s3,168(sp)

0000000080002898 <i_2474>:
    80002898:	fbe13823          	sd	t5,-80(sp)

000000008000289c <i_2475>:
    8000289c:	82500e93          	li	t4,-2011

00000000800028a0 <i_2476>:
    800028a0:	83600193          	li	gp,-1994

00000000800028a4 <i_2477>:
    800028a4:	00900213          	li	tp,9

00000000800028a8 <i_2478>:
    800028a8:	404cda3b          	sraw	s4,s9,tp

00000000800028ac <i_2479>:
    800028ac:	ee414c83          	lbu	s9,-284(sp)

00000000800028b0 <i_2480>:
    800028b0:	001e8e93          	addi	t4,t4,1
    800028b4:	ffd1d8e3          	ble	t4,gp,800028a4 <i_2477>

00000000800028b8 <i_2481>:
    800028b8:	024f7263          	bleu	tp,t5,800028dc <i_2490>

00000000800028bc <i_2482>:
    800028bc:	f8314303          	lbu	t1,-125(sp)

00000000800028c0 <i_2483>:
    800028c0:	035cfab3          	remu	s5,s9,s5

00000000800028c4 <i_2484>:
    800028c4:	0bb102a3          	sb	s11,165(sp)

00000000800028c8 <i_2485>:
    800028c8:	00635663          	ble	t1,t1,800028d4 <i_2488>

00000000800028cc <i_2486>:
    800028cc:	e6611f03          	lh	t5,-410(sp)

00000000800028d0 <i_2487>:
    800028d0:	0152e863          	bltu	t0,s5,800028e0 <i_2491>

00000000800028d4 <i_2488>:
    800028d4:	03774463          	blt	a4,s7,800028fc <i_2498>

00000000800028d8 <i_2489>:
    800028d8:	0f312c23          	sw	s3,248(sp)

00000000800028dc <i_2490>:
    800028dc:	00f00a93          	li	s5,15

00000000800028e0 <i_2491>:
    800028e0:	0159d233          	srl	tp,s3,s5

00000000800028e4 <i_2492>:
    800028e4:	f4413823          	sd	tp,-176(sp)

00000000800028e8 <i_2493>:
    800028e8:	003f0263          	beq	t5,gp,800028ec <i_2494>

00000000800028ec <i_2494>:
    800028ec:	03ead1b3          	divu	gp,s5,t5

00000000800028f0 <i_2495>:
    800028f0:	10812183          	lw	gp,264(sp)

00000000800028f4 <i_2496>:
    800028f4:	13815683          	lhu	a3,312(sp)

00000000800028f8 <i_2497>:
    800028f8:	00daec63          	bltu	s5,a3,80002910 <i_2503>

00000000800028fc <i_2498>:
    800028fc:	03519ab3          	mulh	s5,gp,s5

0000000080002900 <i_2499>:
    80002900:	0356e463          	bltu	a3,s5,80002928 <i_2509>

0000000080002904 <i_2500>:
    80002904:	4036de1b          	sraiw	t3,a3,0x3

0000000080002908 <i_2501>:
    80002908:	0ea15a83          	lhu	s5,234(sp)

000000008000290c <i_2502>:
    8000290c:	02813e03          	ld	t3,40(sp)

0000000080002910 <i_2503>:
    80002910:	03e11023          	sh	t5,32(sp)

0000000080002914 <i_2504>:
    80002914:	1dc11a23          	sh	t3,468(sp)

0000000080002918 <i_2505>:
    80002918:	03ee1233          	mulh	tp,t3,t5

000000008000291c <i_2506>:
    8000291c:	0f412e23          	sw	s4,252(sp)

0000000080002920 <i_2507>:
    80002920:	00424663          	blt	tp,tp,8000292c <i_2510>

0000000080002924 <i_2508>:
    80002924:	01b00a93          	li	s5,27

0000000080002928 <i_2509>:
    80002928:	015f10bb          	sllw	ra,t5,s5

000000008000292c <i_2510>:
    8000292c:	01ef0863          	beq	t5,t5,8000293c <i_2514>

0000000080002930 <i_2511>:
    80002930:	e8815303          	lhu	t1,-376(sp)

0000000080002934 <i_2512>:
    80002934:	0cc11f03          	lh	t5,204(sp)

0000000080002938 <i_2513>:
    80002938:	01ea9263          	bne	s5,t5,8000293c <i_2514>

000000008000293c <i_2514>:
    8000293c:	e8610323          	sb	t1,-378(sp)

0000000080002940 <i_2515>:
    80002940:	03e60263          	beq	a2,t5,80002964 <i_2524>

0000000080002944 <i_2516>:
    80002944:	0c815f03          	lhu	t5,200(sp)

0000000080002948 <i_2517>:
    80002948:	1d611803          	lh	a6,470(sp)

000000008000294c <i_2518>:
    8000294c:	17e13823          	sd	t5,368(sp)

0000000080002950 <i_2519>:
    80002950:	0ba11483          	lh	s1,186(sp)

0000000080002954 <i_2520>:
    80002954:	00935a63          	ble	s1,t1,80002968 <i_2525>

0000000080002958 <i_2521>:
    80002958:	40335d13          	srai	s10,t1,0x3

000000008000295c <i_2522>:
    8000295c:	03200813          	li	a6,50

0000000080002960 <i_2523>:
    80002960:	0104d4b3          	srl	s1,s1,a6

0000000080002964 <i_2524>:
    80002964:	eb012483          	lw	s1,-336(sp)

0000000080002968 <i_2525>:
    80002968:	dd987d13          	andi	s10,a6,-551

000000008000296c <i_2526>:
    8000296c:	0044de93          	srli	t4,s1,0x4

0000000080002970 <i_2527>:
    80002970:	01dec463          	blt	t4,t4,80002978 <i_2529>

0000000080002974 <i_2528>:
    80002974:	0d013483          	ld	s1,208(sp)

0000000080002978 <i_2529>:
    80002978:	01ad6263          	bltu	s10,s10,8000297c <i_2530>

000000008000297c <i_2530>:
    8000297c:	00200d13          	li	s10,2

0000000080002980 <i_2531>:
    80002980:	01a85abb          	srlw	s5,a6,s10

0000000080002984 <i_2532>:
    80002984:	418f0d33          	sub	s10,t5,s8

0000000080002988 <i_2533>:
    80002988:	ff811723          	sh	s8,-18(sp)

000000008000298c <i_2534>:
    8000298c:	7c000293          	li	t0,1984

0000000080002990 <i_2535>:
    80002990:	7ca00c13          	li	s8,1994

0000000080002994 <i_2536>:
    80002994:	018d4e63          	blt	s10,s8,800029b0 <i_2543>

0000000080002998 <i_2537>:
    80002998:	012c5663          	ble	s2,s8,800029a4 <i_2540>

000000008000299c <i_2538>:
    8000299c:	efa11983          	lh	s3,-262(sp)

00000000800029a0 <i_2539>:
    800029a0:	f9813d83          	ld	s11,-104(sp)

00000000800029a4 <i_2540>:
    800029a4:	1ca10603          	lb	a2,458(sp)

00000000800029a8 <i_2541>:
    800029a8:	03866cb3          	rem	s9,a2,s8

00000000800029ac <i_2542>:
    800029ac:	00600b93          	li	s7,6

00000000800029b0 <i_2543>:
    800029b0:	4179d63b          	sraw	a2,s3,s7

00000000800029b4 <i_2544>:
    800029b4:	f9010583          	lb	a1,-112(sp)

00000000800029b8 <i_2545>:
    800029b8:	f7015d03          	lhu	s10,-144(sp)

00000000800029bc <i_2546>:
    800029bc:	f4e11603          	lh	a2,-178(sp)

00000000800029c0 <i_2547>:
    800029c0:	00128293          	addi	t0,t0,1
    800029c4:	fd82e8e3          	bltu	t0,s8,80002994 <i_2536>

00000000800029c8 <i_2548>:
    800029c8:	03711923          	sh	s7,50(sp)

00000000800029cc <i_2549>:
    800029cc:	aa9df417          	auipc	s0,0xaa9df

00000000800029d0 <i_2550>:
    800029d0:	02128633          	mul	a2,t0,ra

00000000800029d4 <i_2551>:
    800029d4:	0601af37          	lui	t5,0x601a

00000000800029d8 <i_2552>:
    800029d8:	035f4abb          	divw	s5,t5,s5

00000000800029dc <i_2553>:
    800029dc:	0e1fbe17          	auipc	t3,0xe1fb

00000000800029e0 <i_2554>:
    800029e0:	e5e11923          	sh	t5,-430(sp)

00000000800029e4 <i_2555>:
    800029e4:	015e60b3          	or	ra,t3,s5

00000000800029e8 <i_2556>:
    800029e8:	003f9d13          	slli	s10,t6,0x3

00000000800029ec <i_2557>:
    800029ec:	03015383          	lhu	t2,48(sp)

00000000800029f0 <i_2558>:
    800029f0:	03c21463          	bne	tp,t3,80002a18 <i_2568>

00000000800029f4 <i_2559>:
    800029f4:	0241f23b          	remuw	tp,gp,tp

00000000800029f8 <i_2560>:
    800029f8:	fba12823          	sw	s10,-80(sp)

00000000800029fc <i_2561>:
    800029fc:	e6d14d03          	lbu	s10,-403(sp)

0000000080002a00 <i_2562>:
    80002a00:	f2e15203          	lhu	tp,-210(sp)

0000000080002a04 <i_2563>:
    80002a04:	16013e03          	ld	t3,352(sp)

0000000080002a08 <i_2564>:
    80002a08:	030e0463          	beq	t3,a6,80002a30 <i_2574>

0000000080002a0c <i_2565>:
    80002a0c:	14712623          	sw	t2,332(sp)

0000000080002a10 <i_2566>:
    80002a10:	004fd093          	srli	ra,t6,0x4

0000000080002a14 <i_2567>:
    80002a14:	14712e23          	sw	t2,348(sp)

0000000080002a18 <i_2568>:
    80002a18:	01310383          	lb	t2,19(sp)

0000000080002a1c <i_2569>:
    80002a1c:	03c0e263          	bltu	ra,t3,80002a40 <i_2578>

0000000080002a20 <i_2570>:
    80002a20:	0220d2bb          	divuw	t0,ra,sp

0000000080002a24 <i_2571>:
    80002a24:	03ce5263          	ble	t3,t3,80002a48 <i_2580>

0000000080002a28 <i_2572>:
    80002a28:	0052eeb3          	or	t4,t0,t0

0000000080002a2c <i_2573>:
    80002a2c:	cabecb13          	xori	s6,t4,-853

0000000080002a30 <i_2574>:
    80002a30:	00560a63          	beq	a2,t0,80002a44 <i_2579>

0000000080002a34 <i_2575>:
    80002a34:	08416083          	lwu	ra,132(sp)

0000000080002a38 <i_2576>:
    80002a38:	01cd6263          	bltu	s10,t3,80002a3c <i_2577>

0000000080002a3c <i_2577>:
    80002a3c:	03dd4d33          	div	s10,s10,t4

0000000080002a40 <i_2578>:
    80002a40:	13d13023          	sd	t4,288(sp)

0000000080002a44 <i_2579>:
    80002a44:	01d90eb3          	add	t4,s2,t4

0000000080002a48 <i_2580>:
    80002a48:	01639663          	bne	t2,s6,80002a54 <i_2583>

0000000080002a4c <i_2581>:
    80002a4c:	033e89bb          	mulw	s3,t4,s3

0000000080002a50 <i_2582>:
    80002a50:	036b0063          	beq	s6,s6,80002a70 <i_2590>

0000000080002a54 <i_2583>:
    80002a54:	03d9853b          	mulw	a0,s3,t4

0000000080002a58 <i_2584>:
    80002a58:	ea610603          	lb	a2,-346(sp)

0000000080002a5c <i_2585>:
    80002a5c:	0309a9b3          	mulhsu	s3,s3,a6

0000000080002a60 <i_2586>:
    80002a60:	0339e063          	bltu	s3,s3,80002a80 <i_2594>

0000000080002a64 <i_2587>:
    80002a64:	f9214d03          	lbu	s10,-110(sp)

0000000080002a68 <i_2588>:
    80002a68:	ed016783          	lwu	a5,-304(sp)

0000000080002a6c <i_2589>:
    80002a6c:	fe416583          	lwu	a1,-28(sp)

0000000080002a70 <i_2590>:
    80002a70:	00451c1b          	slliw	s8,a0,0x4

0000000080002a74 <i_2591>:
    80002a74:	4ce6c617          	auipc	a2,0x4ce6c

0000000080002a78 <i_2592>:
    80002a78:	0151c233          	xor	tp,gp,s5

0000000080002a7c <i_2593>:
    80002a7c:	1d816983          	lwu	s3,472(sp)

0000000080002a80 <i_2594>:
    80002a80:	19013583          	ld	a1,400(sp)

0000000080002a84 <i_2595>:
    80002a84:	0d412f03          	lw	t5,212(sp)

0000000080002a88 <i_2596>:
    80002a88:	89b98513          	addi	a0,s3,-1893

0000000080002a8c <i_2597>:
    80002a8c:	01e98663          	beq	s3,t5,80002a98 <i_2600>

0000000080002a90 <i_2598>:
    80002a90:	18412583          	lw	a1,388(sp)

0000000080002a94 <i_2599>:
    80002a94:	fd1101a3          	sb	a7,-61(sp)

0000000080002a98 <i_2600>:
    80002a98:	033c6263          	bltu	s8,s3,80002abc <i_2609>

0000000080002a9c <i_2601>:
    80002a9c:	0189d263          	ble	s8,s3,80002aa0 <i_2602>

0000000080002aa0 <i_2602>:
    80002aa0:	13a10ba3          	sb	s10,311(sp)

0000000080002aa4 <i_2603>:
    80002aa4:	fe012b83          	lw	s7,-32(sp)

0000000080002aa8 <i_2604>:
    80002aa8:	ef812423          	sw	s8,-280(sp)

0000000080002aac <i_2605>:
    80002aac:	03812303          	lw	t1,56(sp)

0000000080002ab0 <i_2606>:
    80002ab0:	00a36533          	or	a0,t1,a0

0000000080002ab4 <i_2607>:
    80002ab4:	00a10fa3          	sb	a0,31(sp)

0000000080002ab8 <i_2608>:
    80002ab8:	03751263          	bne	a0,s7,80002adc <i_2617>

0000000080002abc <i_2609>:
    80002abc:	00654463          	blt	a0,t1,80002ac4 <i_2611>

0000000080002ac0 <i_2610>:
    80002ac0:	f0f14b83          	lbu	s7,-241(sp)

0000000080002ac4 <i_2611>:
    80002ac4:	00000013          	nop

0000000080002ac8 <i_2612>:
    80002ac8:	fb813603          	ld	a2,-72(sp)

0000000080002acc <i_2613>:
    80002acc:	15c11283          	lh	t0,348(sp)

0000000080002ad0 <i_2614>:
    80002ad0:	08015603          	lhu	a2,128(sp)

0000000080002ad4 <i_2615>:
    80002ad4:	13813283          	ld	t0,312(sp)

0000000080002ad8 <i_2616>:
    80002ad8:	0062ecb3          	or	s9,t0,t1

0000000080002adc <i_2617>:
    80002adc:	00000013          	nop

0000000080002ae0 <i_2618>:
    80002ae0:	00000013          	nop

0000000080002ae4 <i_2619>:
    80002ae4:	7a100513          	li	a0,1953

0000000080002ae8 <i_2620>:
    80002ae8:	7aa00a13          	li	s4,1962

0000000080002aec <i_2621>:
    80002aec:	17911723          	sh	s9,366(sp)

0000000080002af0 <i_2622>:
    80002af0:	00150513          	addi	a0,a0,1
    80002af4:	feaa7ce3          	bleu	a0,s4,80002aec <i_2621>

0000000080002af8 <i_2623>:
    80002af8:	018cacb3          	slt	s9,s9,s8

0000000080002afc <i_2624>:
    80002afc:	17013c83          	ld	s9,368(sp)

0000000080002b00 <i_2625>:
    80002b00:	039c9cb3          	mulh	s9,s9,s9

0000000080002b04 <i_2626>:
    80002b04:	1b910a23          	sb	s9,436(sp)

0000000080002b08 <i_2627>:
    80002b08:	404cdc93          	srai	s9,s9,0x4

0000000080002b0c <i_2628>:
    80002b0c:	019cd863          	ble	s9,s9,80002b1c <i_2632>

0000000080002b10 <i_2629>:
    80002b10:	ed910823          	sb	s9,-304(sp)

0000000080002b14 <i_2630>:
    80002b14:	01c00a13          	li	s4,28

0000000080002b18 <i_2631>:
    80002b18:	014cd0bb          	srlw	ra,s9,s4

0000000080002b1c <i_2632>:
    80002b1c:	e4a14c83          	lbu	s9,-438(sp)

0000000080002b20 <i_2633>:
    80002b20:	13615e83          	lhu	t4,310(sp)

0000000080002b24 <i_2634>:
    80002b24:	f7816d83          	lwu	s11,-136(sp)

0000000080002b28 <i_2635>:
    80002b28:	ed813c23          	sd	s8,-296(sp)

0000000080002b2c <i_2636>:
    80002b2c:	1da11c83          	lh	s9,474(sp)

0000000080002b30 <i_2637>:
    80002b30:	03bef0bb          	remuw	ra,t4,s11

0000000080002b34 <i_2638>:
    80002b34:	e9114403          	lbu	s0,-367(sp)

0000000080002b38 <i_2639>:
    80002b38:	0c810323          	sb	s0,198(sp)

0000000080002b3c <i_2640>:
    80002b3c:	ed812d03          	lw	s10,-296(sp)

0000000080002b40 <i_2641>:
    80002b40:	01812d03          	lw	s10,24(sp)

0000000080002b44 <i_2642>:
    80002b44:	fba11523          	sh	s10,-86(sp)

0000000080002b48 <i_2643>:
    80002b48:	0fb13c23          	sd	s11,248(sp)

0000000080002b4c <i_2644>:
    80002b4c:	008d7c63          	bleu	s0,s10,80002b64 <i_2650>

0000000080002b50 <i_2645>:
    80002b50:	028699b3          	mulh	s3,a3,s0

0000000080002b54 <i_2646>:
    80002b54:	021dadb3          	mulhsu	s11,s11,ra

0000000080002b58 <i_2647>:
    80002b58:	00000013          	nop

0000000080002b5c <i_2648>:
    80002b5c:	00000013          	nop

0000000080002b60 <i_2649>:
    80002b60:	01300d93          	li	s11,19

0000000080002b64 <i_2650>:
    80002b64:	41b55233          	sra	tp,a0,s11

0000000080002b68 <i_2651>:
    80002b68:	00359d9b          	slliw	s11,a1,0x3

0000000080002b6c <i_2652>:
    80002b6c:	7b600e13          	li	t3,1974

0000000080002b70 <i_2653>:
    80002b70:	7ba00993          	li	s3,1978

0000000080002b74 <i_2654>:
    80002b74:	f0611d83          	lh	s11,-250(sp)

0000000080002b78 <i_2655>:
    80002b78:	e8412c23          	sw	tp,-360(sp)

0000000080002b7c <i_2656>:
    80002b7c:	00000013          	nop

0000000080002b80 <i_2657>:
    80002b80:	00000013          	nop

0000000080002b84 <i_2658>:
    80002b84:	79300813          	li	a6,1939

0000000080002b88 <i_2659>:
    80002b88:	79900213          	li	tp,1945

0000000080002b8c <i_2660>:
    80002b8c:	01b13c23          	sd	s11,24(sp)

0000000080002b90 <i_2661>:
    80002b90:	e7011a03          	lh	s4,-400(sp)

0000000080002b94 <i_2662>:
    80002b94:	00180813          	addi	a6,a6,1
    80002b98:	fe484ae3          	blt	a6,tp,80002b8c <i_2660>

0000000080002b9c <i_2663>:
    80002b9c:	ea813a83          	ld	s5,-344(sp)

0000000080002ba0 <i_2664>:
    80002ba0:	03bdbab3          	mulhu	s5,s11,s11

0000000080002ba4 <i_2665>:
    80002ba4:	e5413823          	sd	s4,-432(sp)

0000000080002ba8 <i_2666>:
    80002ba8:	03511223          	sh	s5,36(sp)

0000000080002bac <i_2667>:
    80002bac:	001e0e13          	addi	t3,t3,1 # 8e1fd9dd <_end+0xe1ed5c9>
    80002bb0:	fd3e62e3          	bltu	t3,s3,80002b74 <i_2654>

0000000080002bb4 <i_2668>:
    80002bb4:	0d513c23          	sd	s5,216(sp)

0000000080002bb8 <i_2669>:
    80002bb8:	01590a33          	add	s4,s2,s5

0000000080002bbc <i_2670>:
    80002bbc:	17013803          	ld	a6,368(sp)

0000000080002bc0 <i_2671>:
    80002bc0:	0b513823          	sd	s5,176(sp)

0000000080002bc4 <i_2672>:
    80002bc4:	035a6063          	bltu	s4,s5,80002be4 <i_2680>

0000000080002bc8 <i_2673>:
    80002bc8:	00f00613          	li	a2,15

0000000080002bcc <i_2674>:
    80002bcc:	00ca96bb          	sllw	a3,s5,a2

0000000080002bd0 <i_2675>:
    80002bd0:	eb5102a3          	sb	s5,-347(sp)

0000000080002bd4 <i_2676>:
    80002bd4:	0ac12503          	lw	a0,172(sp)

0000000080002bd8 <i_2677>:
    80002bd8:	01410603          	lb	a2,20(sp)

0000000080002bdc <i_2678>:
    80002bdc:	02d6e0bb          	remw	ra,a3,a3

0000000080002be0 <i_2679>:
    80002be0:	f8a11603          	lh	a2,-118(sp)

0000000080002be4 <i_2680>:
    80002be4:	12c12223          	sw	a2,292(sp)

0000000080002be8 <i_2681>:
    80002be8:	18415e83          	lhu	t4,388(sp)

0000000080002bec <i_2682>:
    80002bec:	19412683          	lw	a3,404(sp)

0000000080002bf0 <i_2683>:
    80002bf0:	00cef263          	bleu	a2,t4,80002bf4 <i_2684>

0000000080002bf4 <i_2684>:
    80002bf4:	ffe11383          	lh	t2,-2(sp)

0000000080002bf8 <i_2685>:
    80002bf8:	e7d13023          	sd	t4,-416(sp)

0000000080002bfc <i_2686>:
    80002bfc:	03d9f263          	bleu	t4,s3,80002c20 <i_2695>

0000000080002c00 <i_2687>:
    80002c00:	04513823          	sd	t0,80(sp)

0000000080002c04 <i_2688>:
    80002c04:	ef312023          	sw	s3,-288(sp)

0000000080002c08 <i_2689>:
    80002c08:	eb615283          	lhu	t0,-330(sp)

0000000080002c0c <i_2690>:
    80002c0c:	13c12a83          	lw	s5,316(sp)

0000000080002c10 <i_2691>:
    80002c10:	05510323          	sb	s5,70(sp)

0000000080002c14 <i_2692>:
    80002c14:	00000013          	nop

0000000080002c18 <i_2693>:
    80002c18:	ea811a83          	lh	s5,-344(sp)

0000000080002c1c <i_2694>:
    80002c1c:	00000013          	nop

0000000080002c20 <i_2695>:
    80002c20:	0035109b          	slliw	ra,a0,0x3

0000000080002c24 <i_2696>:
    80002c24:	00000013          	nop

0000000080002c28 <i_2697>:
    80002c28:	85000613          	li	a2,-1968

0000000080002c2c <i_2698>:
    80002c2c:	86000513          	li	a0,-1952

0000000080002c30 <i_2699>:
    80002c30:	01400c93          	li	s9,20

0000000080002c34 <i_2700>:
    80002c34:	019819b3          	sll	s3,a6,s9

0000000080002c38 <i_2701>:
    80002c38:	001cbab3          	sltu	s5,s9,ra

0000000080002c3c <i_2702>:
    80002c3c:	00160613          	addi	a2,a2,1 # cce6ea75 <_end+0x4ce5e661>
    80002c40:	fea618e3          	bne	a2,a0,80002c30 <i_2699>

0000000080002c44 <i_2703>:
    80002c44:	00000013          	nop

0000000080002c48 <i_2704>:
    80002c48:	018cec33          	or	s8,s9,s8

0000000080002c4c <i_2705>:
    80002c4c:	f2812d03          	lw	s10,-216(sp)

0000000080002c50 <i_2706>:
    80002c50:	00ac8833          	add	a6,s9,a0

0000000080002c54 <i_2707>:
    80002c54:	f4111723          	sh	ra,-178(sp)

0000000080002c58 <i_2708>:
    80002c58:	00bce663          	bltu	s9,a1,80002c64 <i_2711>

0000000080002c5c <i_2709>:
    80002c5c:	03300493          	li	s1,51

0000000080002c60 <i_2710>:
    80002c60:	009c5833          	srl	a6,s8,s1

0000000080002c64 <i_2711>:
    80002c64:	019d1e63          	bne	s10,s9,80002c80 <i_2718>

0000000080002c68 <i_2712>:
    80002c68:	00000013          	nop

0000000080002c6c <i_2713>:
    80002c6c:	e3015c83          	lhu	s9,-464(sp)

0000000080002c70 <i_2714>:
    80002c70:	fa815483          	lhu	s1,-88(sp)

0000000080002c74 <i_2715>:
    80002c74:	0b510483          	lb	s1,181(sp)

0000000080002c78 <i_2716>:
    80002c78:	1a811803          	lh	a6,424(sp)

0000000080002c7c <i_2717>:
    80002c7c:	00000013          	nop

0000000080002c80 <i_2718>:
    80002c80:	00449093          	slli	ra,s1,0x4

0000000080002c84 <i_2719>:
    80002c84:	0017d99b          	srliw	s3,a5,0x1

0000000080002c88 <i_2720>:
    80002c88:	7e300d13          	li	s10,2019

0000000080002c8c <i_2721>:
    80002c8c:	7ec00513          	li	a0,2028

0000000080002c90 <i_2722>:
    80002c90:	ebc14983          	lbu	s3,-324(sp)

0000000080002c94 <i_2723>:
    80002c94:	e4013c83          	ld	s9,-448(sp)

0000000080002c98 <i_2724>:
    80002c98:	03ac8f33          	mul	t5,s9,s10

0000000080002c9c <i_2725>:
    80002c9c:	001d0d13          	addi	s10,s10,1
    80002ca0:	ffa558e3          	ble	s10,a0,80002c90 <i_2722>

0000000080002ca4 <i_2726>:
    80002ca4:	03310a23          	sb	s3,52(sp)

0000000080002ca8 <i_2727>:
    80002ca8:	e4b10983          	lb	s3,-437(sp)

0000000080002cac <i_2728>:
    80002cac:	0399f9b3          	remu	s3,s3,s9

0000000080002cb0 <i_2729>:
    80002cb0:	01313023          	sd	s3,0(sp)

0000000080002cb4 <i_2730>:
    80002cb4:	01f00f13          	li	t5,31

0000000080002cb8 <i_2731>:
    80002cb8:	01e199bb          	sllw	s3,gp,t5

0000000080002cbc <i_2732>:
    80002cbc:	e5811d03          	lh	s10,-424(sp)

0000000080002cc0 <i_2733>:
    80002cc0:	03af26b3          	mulhsu	a3,t5,s10

0000000080002cc4 <i_2734>:
    80002cc4:	eef61f17          	auipc	t5,0xeef61

0000000080002cc8 <i_2735>:
    80002cc8:	07311223          	sh	s3,100(sp)

0000000080002ccc <i_2736>:
    80002ccc:	01ef0333          	add	t1,t5,t5

0000000080002cd0 <i_2737>:
    80002cd0:	013d1863          	bne	s10,s3,80002ce0 <i_2741>

0000000080002cd4 <i_2738>:
    80002cd4:	c3a68693          	addi	a3,a3,-966 # ffffffffad951c3a <_end+0xffffffff2d941826>

0000000080002cd8 <i_2739>:
    80002cd8:	05815583          	lhu	a1,88(sp)

0000000080002cdc <i_2740>:
    80002cdc:	bf41819b          	addiw	gp,gp,-1036

0000000080002ce0 <i_2741>:
    80002ce0:	006f0263          	beq	t5,t1,80002ce4 <i_2742>

0000000080002ce4 <i_2742>:
    80002ce4:	e7e13823          	sd	t5,-400(sp)

0000000080002ce8 <i_2743>:
    80002ce8:	02bf6463          	bltu	t5,a1,80002d10 <i_2753>

0000000080002cec <i_2744>:
    80002cec:	16d13423          	sd	a3,360(sp)

0000000080002cf0 <i_2745>:
    80002cf0:	eb313823          	sd	s3,-336(sp)

0000000080002cf4 <i_2746>:
    80002cf4:	02bf77bb          	remuw	a5,t5,a1

0000000080002cf8 <i_2747>:
    80002cf8:	41d686b3          	sub	a3,a3,t4

0000000080002cfc <i_2748>:
    80002cfc:	00f7f463          	bleu	a5,a5,80002d04 <i_2750>

0000000080002d00 <i_2749>:
    80002d00:	02f7e7b3          	rem	a5,a5,a5

0000000080002d04 <i_2750>:
    80002d04:	fea11b03          	lh	s6,-22(sp)

0000000080002d08 <i_2751>:
    80002d08:	0ad13823          	sd	a3,176(sp)

0000000080002d0c <i_2752>:
    80002d0c:	00000013          	nop

0000000080002d10 <i_2753>:
    80002d10:	003dfc33          	and	s8,s11,gp

0000000080002d14 <i_2754>:
    80002d14:	13812823          	sw	s8,304(sp)

0000000080002d18 <i_2755>:
    80002d18:	8a600e93          	li	t4,-1882

0000000080002d1c <i_2756>:
    80002d1c:	8b900193          	li	gp,-1863

0000000080002d20 <i_2757>:
    80002d20:	02f98263          	beq	s3,a5,80002d44 <i_2765>

0000000080002d24 <i_2758>:
    80002d24:	1b812303          	lw	t1,440(sp)

0000000080002d28 <i_2759>:
    80002d28:	038b443b          	divw	s0,s6,s8

0000000080002d2c <i_2760>:
    80002d2c:	001e8e93          	addi	t4,t4,1
    80002d30:	ffd198e3          	bne	gp,t4,80002d20 <i_2757>

0000000080002d34 <i_2761>:
    80002d34:	006c1463          	bne	s8,t1,80002d3c <i_2763>

0000000080002d38 <i_2762>:
    80002d38:	02de8063          	beq	t4,a3,80002d58 <i_2770>

0000000080002d3c <i_2763>:
    80002d3c:	03896b33          	rem	s6,s2,s8

0000000080002d40 <i_2764>:
    80002d40:	eca15683          	lhu	a3,-310(sp)

0000000080002d44 <i_2765>:
    80002d44:	00500c13          	li	s8,5

0000000080002d48 <i_2766>:
    80002d48:	418456bb          	sraw	a3,s0,s8

0000000080002d4c <i_2767>:
    80002d4c:	4026d61b          	sraiw	a2,a3,0x2

0000000080002d50 <i_2768>:
    80002d50:	03813a03          	ld	s4,56(sp)

0000000080002d54 <i_2769>:
    80002d54:	0298043b          	mulw	s0,a6,s1

0000000080002d58 <i_2770>:
    80002d58:	014a7863          	bleu	s4,s4,80002d68 <i_2774>

0000000080002d5c <i_2771>:
    80002d5c:	00465c93          	srli	s9,a2,0x4

0000000080002d60 <i_2772>:
    80002d60:	1a512623          	sw	t0,428(sp)

0000000080002d64 <i_2773>:
    80002d64:	02340833          	mul	a6,s0,gp

0000000080002d68 <i_2774>:
    80002d68:	10816083          	lwu	ra,264(sp)

0000000080002d6c <i_2775>:
    80002d6c:	00485d1b          	srliw	s10,a6,0x4

0000000080002d70 <i_2776>:
    80002d70:	87000193          	li	gp,-1936

0000000080002d74 <i_2777>:
    80002d74:	87600613          	li	a2,-1930

0000000080002d78 <i_2778>:
    80002d78:	d77d4413          	xori	s0,s10,-649

0000000080002d7c <i_2779>:
    80002d7c:	03a0f433          	remu	s0,ra,s10

0000000080002d80 <i_2780>:
    80002d80:	01416f03          	lwu	t5,20(sp)

0000000080002d84 <i_2781>:
    80002d84:	0044509b          	srliw	ra,s0,0x4

0000000080002d88 <i_2782>:
    80002d88:	00000013          	nop

0000000080002d8c <i_2783>:
    80002d8c:	11d10fa3          	sb	t4,287(sp)

0000000080002d90 <i_2784>:
    80002d90:	fd812803          	lw	a6,-40(sp)

0000000080002d94 <i_2785>:
    80002d94:	ffa11523          	sh	s10,-22(sp)

0000000080002d98 <i_2786>:
    80002d98:	00118193          	addi	gp,gp,1
    80002d9c:	fcc1eee3          	bltu	gp,a2,80002d78 <i_2778>

0000000080002da0 <i_2787>:
    80002da0:	ea810b83          	lb	s7,-344(sp)

0000000080002da4 <i_2788>:
    80002da4:	02ff063b          	mulw	a2,t5,a5

0000000080002da8 <i_2789>:
    80002da8:	fa012383          	lw	t2,-96(sp)

0000000080002dac <i_2790>:
    80002dac:	00c86f33          	or	t5,a6,a2

0000000080002db0 <i_2791>:
    80002db0:	00745663          	ble	t2,s0,80002dbc <i_2794>

0000000080002db4 <i_2792>:
    80002db4:	02759433          	mulh	s0,a1,t2

0000000080002db8 <i_2793>:
    80002db8:	08711023          	sh	t2,128(sp)

0000000080002dbc <i_2794>:
    80002dbc:	02c6423b          	divw	tp,a2,a2

0000000080002dc0 <i_2795>:
    80002dc0:	0043c663          	blt	t2,tp,80002dcc <i_2798>

0000000080002dc4 <i_2796>:
    80002dc4:	81c43493          	sltiu	s1,s0,-2020

0000000080002dc8 <i_2797>:
    80002dc8:	55f43b93          	sltiu	s7,s0,1375

0000000080002dcc <i_2798>:
    80002dcc:	08c12423          	sw	a2,136(sp)

0000000080002dd0 <i_2799>:
    80002dd0:	009f9263          	bne	t6,s1,80002dd4 <i_2800>

0000000080002dd4 <i_2800>:
    80002dd4:	4023d413          	srai	s0,t2,0x2

0000000080002dd8 <i_2801>:
    80002dd8:	0042ec63          	bltu	t0,tp,80002df0 <i_2807>

0000000080002ddc <i_2802>:
    80002ddc:	007a8633          	add	a2,s5,t2

0000000080002de0 <i_2803>:
    80002de0:	10416283          	lwu	t0,260(sp)

0000000080002de4 <i_2804>:
    80002de4:	08215c83          	lhu	s9,130(sp)

0000000080002de8 <i_2805>:
    80002de8:	f4013403          	ld	s0,-192(sp)

0000000080002dec <i_2806>:
    80002dec:	00546cb3          	or	s9,s0,t0

0000000080002df0 <i_2807>:
    80002df0:	0392b833          	mulhu	a6,t0,s9

0000000080002df4 <i_2808>:
    80002df4:	c378c493          	xori	s1,a7,-969

0000000080002df8 <i_2809>:
    80002df8:	0054c663          	blt	s1,t0,80002e04 <i_2812>

0000000080002dfc <i_2810>:
    80002dfc:	008d9463          	bne	s11,s0,80002e04 <i_2812>

0000000080002e00 <i_2811>:
    80002e00:	03c855bb          	divuw	a1,a6,t3

0000000080002e04 <i_2812>:
    80002e04:	019b9263          	bne	s7,s9,80002e08 <i_2813>

0000000080002e08 <i_2813>:
    80002e08:	03949463          	bne	s1,s9,80002e30 <i_2823>

0000000080002e0c <i_2814>:
    80002e0c:	008b4263          	blt	s6,s0,80002e10 <i_2815>

0000000080002e10 <i_2815>:
    80002e10:	008be863          	bltu	s7,s0,80002e20 <i_2819>

0000000080002e14 <i_2816>:
    80002e14:	0192d263          	ble	s9,t0,80002e18 <i_2817>

0000000080002e18 <i_2817>:
    80002e18:	19a14c83          	lbu	s9,410(sp)

0000000080002e1c <i_2818>:
    80002e1c:	00800493          	li	s1,8

0000000080002e20 <i_2819>:
    80002e20:	4095dd33          	sra	s10,a1,s1

0000000080002e24 <i_2820>:
    80002e24:	00000013          	nop

0000000080002e28 <i_2821>:
    80002e28:	00012483          	lw	s1,0(sp)

0000000080002e2c <i_2822>:
    80002e2c:	00000013          	nop

0000000080002e30 <i_2823>:
    80002e30:	00000013          	nop

0000000080002e34 <i_2824>:
    80002e34:	e4816b03          	lwu	s6,-440(sp)

0000000080002e38 <i_2825>:
    80002e38:	76c00413          	li	s0,1900

0000000080002e3c <i_2826>:
    80002e3c:	77d00593          	li	a1,1917

0000000080002e40 <i_2827>:
    80002e40:	416686bb          	subw	a3,a3,s6

0000000080002e44 <i_2828>:
    80002e44:	e8416e03          	lwu	t3,-380(sp)

0000000080002e48 <i_2829>:
    80002e48:	0f714e03          	lbu	t3,247(sp)

0000000080002e4c <i_2830>:
    80002e4c:	0025d193          	srli	gp,a1,0x2

0000000080002e50 <i_2831>:
    80002e50:	07612623          	sw	s6,108(sp)

0000000080002e54 <i_2832>:
    80002e54:	0031bb33          	sltu	s6,gp,gp

0000000080002e58 <i_2833>:
    80002e58:	13c14203          	lbu	tp,316(sp)

0000000080002e5c <i_2834>:
    80002e5c:	fe414b03          	lbu	s6,-28(sp)

0000000080002e60 <i_2835>:
    80002e60:	00140413          	addi	s0,s0,1 # 2a9e19cd <main-0x5561e633>
    80002e64:	fcb46ee3          	bltu	s0,a1,80002e40 <i_2827>

0000000080002e68 <i_2836>:
    80002e68:	036b41bb          	divw	gp,s6,s6

0000000080002e6c <i_2837>:
    80002e6c:	030b683b          	remw	a6,s6,a6

0000000080002e70 <i_2838>:
    80002e70:	09212623          	sw	s2,140(sp)

0000000080002e74 <i_2839>:
    80002e74:	f5f14c03          	lbu	s8,-161(sp)

0000000080002e78 <i_2840>:
    80002e78:	fe312a23          	sw	gp,-12(sp)

0000000080002e7c <i_2841>:
    80002e7c:	fb910483          	lb	s1,-71(sp)

0000000080002e80 <i_2842>:
    80002e80:	f1812b03          	lw	s6,-232(sp)

0000000080002e84 <i_2843>:
    80002e84:	12e11403          	lh	s0,302(sp)

0000000080002e88 <i_2844>:
    80002e88:	86100193          	li	gp,-1951

0000000080002e8c <i_2845>:
    80002e8c:	87300093          	li	ra,-1933

0000000080002e90 <i_2846>:
    80002e90:	0160d663          	ble	s6,ra,80002e9c <i_2849>

0000000080002e94 <i_2847>:
    80002e94:	289df793          	andi	a5,s11,649

0000000080002e98 <i_2848>:
    80002e98:	ef312223          	sw	s3,-284(sp)

0000000080002e9c <i_2849>:
    80002e9c:	12112623          	sw	ra,300(sp)

0000000080002ea0 <i_2850>:
    80002ea0:	edc12b03          	lw	s6,-292(sp)

0000000080002ea4 <i_2851>:
    80002ea4:	17016983          	lwu	s3,368(sp)

0000000080002ea8 <i_2852>:
    80002ea8:	0330cc33          	div	s8,ra,s3

0000000080002eac <i_2853>:
    80002eac:	887b2213          	slti	tp,s6,-1913

0000000080002eb0 <i_2854>:
    80002eb0:	efc15c83          	lhu	s9,-260(sp)

0000000080002eb4 <i_2855>:
    80002eb4:	f6514403          	lbu	s0,-155(sp)

0000000080002eb8 <i_2856>:
    80002eb8:	f9610e23          	sb	s6,-100(sp)

0000000080002ebc <i_2857>:
    80002ebc:	022b4263          	blt	s6,sp,80002ee0 <i_2865>

0000000080002ec0 <i_2858>:
    80002ec0:	03338063          	beq	t2,s3,80002ee0 <i_2865>

0000000080002ec4 <i_2859>:
    80002ec4:	0240d23b          	divuw	tp,ra,tp

0000000080002ec8 <i_2860>:
    80002ec8:	eb012d03          	lw	s10,-336(sp)

0000000080002ecc <i_2861>:
    80002ecc:	02499663          	bne	s3,tp,80002ef8 <i_2871>

0000000080002ed0 <i_2862>:
    80002ed0:	00118193          	addi	gp,gp,1
    80002ed4:	fa11eee3          	bltu	gp,ra,80002e90 <i_2846>

0000000080002ed8 <i_2863>:
    80002ed8:	039ce83b          	remw	a6,s9,s9

0000000080002edc <i_2864>:
    80002edc:	f4410723          	sb	tp,-178(sp)

0000000080002ee0 <i_2865>:
    80002ee0:	1ba11d23          	sh	s10,442(sp)

0000000080002ee4 <i_2866>:
    80002ee4:	00446463          	bltu	s0,tp,80002eec <i_2868>

0000000080002ee8 <i_2867>:
    80002ee8:	004d49b3          	xor	s3,s10,tp

0000000080002eec <i_2868>:
    80002eec:	00399393          	slli	t2,s3,0x3

0000000080002ef0 <i_2869>:
    80002ef0:	094c4c13          	xori	s8,s8,148

0000000080002ef4 <i_2870>:
    80002ef4:	02e00c13          	li	s8,46

0000000080002ef8 <i_2871>:
    80002ef8:	4186dab3          	sra	s5,a3,s8

0000000080002efc <i_2872>:
    80002efc:	f8110823          	sb	ra,-112(sp)

0000000080002f00 <i_2873>:
    80002f00:	036086b3          	mul	a3,ra,s6

0000000080002f04 <i_2874>:
    80002f04:	03fb5463          	ble	t6,s6,80002f2c <i_2884>

0000000080002f08 <i_2875>:
    80002f08:	038cf263          	bleu	s8,s9,80002f2c <i_2884>

0000000080002f0c <i_2876>:
    80002f0c:	02787ebb          	remuw	t4,a6,t2

0000000080002f10 <i_2877>:
    80002f10:	02810383          	lb	t2,40(sp)

0000000080002f14 <i_2878>:
    80002f14:	00dbce63          	blt	s7,a3,80002f30 <i_2885>

0000000080002f18 <i_2879>:
    80002f18:	0b415483          	lhu	s1,180(sp)

0000000080002f1c <i_2880>:
    80002f1c:	e2c12b83          	lw	s7,-468(sp)

0000000080002f20 <i_2881>:
    80002f20:	037b9463          	bne	s7,s7,80002f48 <i_2891>

0000000080002f24 <i_2882>:
    80002f24:	18813b83          	ld	s7,392(sp)

0000000080002f28 <i_2883>:
    80002f28:	00110b83          	lb	s7,1(sp)

0000000080002f2c <i_2884>:
    80002f2c:	037bfbbb          	remuw	s7,s7,s7

0000000080002f30 <i_2885>:
    80002f30:	017bcbb3          	xor	s7,s7,s7

0000000080002f34 <i_2886>:
    80002f34:	01c12b03          	lw	s6,28(sp)

0000000080002f38 <i_2887>:
    80002f38:	fc813283          	ld	t0,-56(sp)

0000000080002f3c <i_2888>:
    80002f3c:	02887c33          	remu	s8,a6,s0

0000000080002f40 <i_2889>:
    80002f40:	00000013          	nop

0000000080002f44 <i_2890>:
    80002f44:	01828433          	add	s0,t0,s8

0000000080002f48 <i_2891>:
    80002f48:	06215403          	lhu	s0,98(sp)

0000000080002f4c <i_2892>:
    80002f4c:	0c016283          	lwu	t0,192(sp)

0000000080002f50 <i_2893>:
    80002f50:	77e00493          	li	s1,1918

0000000080002f54 <i_2894>:
    80002f54:	78700813          	li	a6,1927

0000000080002f58 <i_2895>:
    80002f58:	07510823          	sb	s5,112(sp)

0000000080002f5c <i_2896>:
    80002f5c:	025449b3          	div	s3,s0,t0

0000000080002f60 <i_2897>:
    80002f60:	f3313023          	sd	s3,-224(sp)

0000000080002f64 <i_2898>:
    80002f64:	0db43413          	sltiu	s0,s0,219

0000000080002f68 <i_2899>:
    80002f68:	00416283          	lwu	t0,4(sp)

0000000080002f6c <i_2900>:
    80002f6c:	00145c13          	srli	s8,s0,0x1

0000000080002f70 <i_2901>:
    80002f70:	00148493          	addi	s1,s1,1
    80002f74:	fe9872e3          	bleu	s1,a6,80002f58 <i_2895>

0000000080002f78 <i_2902>:
    80002f78:	0d415503          	lhu	a0,212(sp)

0000000080002f7c <i_2903>:
    80002f7c:	4049d99b          	sraiw	s3,s3,0x4

0000000080002f80 <i_2904>:
    80002f80:	02813423          	sd	s0,40(sp)

0000000080002f84 <i_2905>:
    80002f84:	0ec16b03          	lwu	s6,236(sp)

0000000080002f88 <i_2906>:
    80002f88:	eff13423          	sd	t6,-280(sp)

0000000080002f8c <i_2907>:
    80002f8c:	ee513c23          	sd	t0,-264(sp)

0000000080002f90 <i_2908>:
    80002f90:	0dc16303          	lwu	t1,220(sp)

0000000080002f94 <i_2909>:
    80002f94:	4049d313          	srai	t1,s3,0x4

0000000080002f98 <i_2910>:
    80002f98:	09510183          	lb	gp,149(sp)

0000000080002f9c <i_2911>:
    80002f9c:	fde10203          	lb	tp,-34(sp)

0000000080002fa0 <i_2912>:
    80002fa0:	024679bb          	remuw	s3,a2,tp

0000000080002fa4 <i_2913>:
    80002fa4:	1ef11423          	sh	a5,488(sp)

0000000080002fa8 <i_2914>:
    80002fa8:	0131f663          	bleu	s3,gp,80002fb4 <i_2917>

0000000080002fac <i_2915>:
    80002fac:	0b012183          	lw	gp,176(sp)

0000000080002fb0 <i_2916>:
    80002fb0:	0c412203          	lw	tp,196(sp)

0000000080002fb4 <i_2917>:
    80002fb4:	12f10d03          	lb	s10,303(sp)

0000000080002fb8 <i_2918>:
    80002fb8:	fd710683          	lb	a3,-41(sp)

0000000080002fbc <i_2919>:
    80002fbc:	fd211983          	lh	s3,-46(sp)

0000000080002fc0 <i_2920>:
    80002fc0:	00d00d13          	li	s10,13

0000000080002fc4 <i_2921>:
    80002fc4:	01a21ebb          	sllw	t4,tp,s10

0000000080002fc8 <i_2922>:
    80002fc8:	fce14683          	lbu	a3,-50(sp)

0000000080002fcc <i_2923>:
    80002fcc:	0c410023          	sb	tp,192(sp)

0000000080002fd0 <i_2924>:
    80002fd0:	144109a3          	sb	tp,339(sp)

0000000080002fd4 <i_2925>:
    80002fd4:	0022551b          	srliw	a0,tp,0x2

0000000080002fd8 <i_2926>:
    80002fd8:	1106e293          	ori	t0,a3,272

0000000080002fdc <i_2927>:
    80002fdc:	40475c1b          	sraiw	s8,a4,0x4

0000000080002fe0 <i_2928>:
    80002fe0:	00ac6a63          	bltu	s8,a0,80002ff4 <i_2933>

0000000080002fe4 <i_2929>:
    80002fe4:	18210803          	lb	a6,386(sp)

0000000080002fe8 <i_2930>:
    80002fe8:	f8c12283          	lw	t0,-116(sp)

0000000080002fec <i_2931>:
    80002fec:	11011523          	sh	a6,266(sp)

0000000080002ff0 <i_2932>:
    80002ff0:	00000013          	nop

0000000080002ff4 <i_2933>:
    80002ff4:	0183bc33          	sltu	s8,t2,s8

0000000080002ff8 <i_2934>:
    80002ff8:	00000013          	nop

0000000080002ffc <i_2935>:
    80002ffc:	72c00393          	li	t2,1836

0000000080003000 <i_2936>:
    80003000:	73600813          	li	a6,1846

0000000080003004 <i_2937>:
    80003004:	00000013          	nop

0000000080003008 <i_2938>:
    80003008:	10c14c03          	lbu	s8,268(sp)

000000008000300c <i_2939>:
    8000300c:	e3812c03          	lw	s8,-456(sp)

0000000080003010 <i_2940>:
    80003010:	04413023          	sd	tp,64(sp)

0000000080003014 <i_2941>:
    80003014:	e9638c1b          	addiw	s8,t2,-362

0000000080003018 <i_2942>:
    80003018:	00138393          	addi	t2,t2,1
    8000301c:	fe7874e3          	bleu	t2,a6,80003004 <i_2937>

0000000080003020 <i_2943>:
    80003020:	0270abb3          	mulhsu	s7,ra,t2

0000000080003024 <i_2944>:
    80003024:	2b9d4213          	xori	tp,s10,697

0000000080003028 <i_2945>:
    80003028:	0c711b23          	sh	t2,214(sp)

000000008000302c <i_2946>:
    8000302c:	01a23d33          	sltu	s10,tp,s10

0000000080003030 <i_2947>:
    80003030:	77100413          	li	s0,1905

0000000080003034 <i_2948>:
    80003034:	77800393          	li	t2,1912

0000000080003038 <i_2949>:
    80003038:	05416a03          	lwu	s4,84(sp)

000000008000303c <i_2950>:
    8000303c:	00140413          	addi	s0,s0,1
    80003040:	fe746ce3          	bltu	s0,t2,80003038 <i_2949>

0000000080003044 <i_2951>:
    80003044:	41a484bb          	subw	s1,s1,s10

0000000080003048 <i_2952>:
    80003048:	e3a106a3          	sb	s10,-467(sp)

000000008000304c <i_2953>:
    8000304c:	ed413823          	sd	s4,-304(sp)

0000000080003050 <i_2954>:
    80003050:	00000013          	nop

0000000080003054 <i_2955>:
    80003054:	82f00a13          	li	s4,-2001

0000000080003058 <i_2956>:
    80003058:	83800093          	li	ra,-1992

000000008000305c <i_2957>:
    8000305c:	60514497          	auipc	s1,0x60514

0000000080003060 <i_2958>:
    80003060:	4014d613          	srai	a2,s1,0x1

0000000080003064 <i_2959>:
    80003064:	034084b3          	mul	s1,ra,s4

0000000080003068 <i_2960>:
    80003068:	003a1593          	slli	a1,s4,0x3

000000008000306c <i_2961>:
    8000306c:	ff016a83          	lwu	s5,-16(sp)

0000000080003070 <i_2962>:
    80003070:	001a0a13          	addi	s4,s4,1
    80003074:	fe1a14e3          	bne	s4,ra,8000305c <i_2957>

0000000080003078 <i_2963>:
    80003078:	f6314083          	lbu	ra,-157(sp)

000000008000307c <i_2964>:
    8000307c:	04c10523          	sb	a2,74(sp)

0000000080003080 <i_2965>:
    80003080:	09413423          	sd	s4,136(sp)

0000000080003084 <i_2966>:
    80003084:	b166041b          	addiw	s0,a2,-1258

0000000080003088 <i_2967>:
    80003088:	01400093          	li	ra,20

000000008000308c <i_2968>:
    8000308c:	4010d0bb          	sraw	ra,ra,ra

0000000080003090 <i_2969>:
    80003090:	85100a13          	li	s4,-1967

0000000080003094 <i_2970>:
    80003094:	85e00613          	li	a2,-1954

0000000080003098 <i_2971>:
    80003098:	0020d09b          	srliw	ra,ra,0x2

000000008000309c <i_2972>:
    8000309c:	04113423          	sd	ra,72(sp)

00000000800030a0 <i_2973>:
    800030a0:	021ad0b3          	divu	ra,s5,ra

00000000800030a4 <i_2974>:
    800030a4:	06720c1b          	addiw	s8,tp,103

00000000800030a8 <i_2975>:
    800030a8:	00000013          	nop

00000000800030ac <i_2976>:
    800030ac:	1be14083          	lbu	ra,446(sp)

00000000800030b0 <i_2977>:
    800030b0:	0e814e03          	lbu	t3,232(sp)

00000000800030b4 <i_2978>:
    800030b4:	15c13023          	sd	t3,320(sp)

00000000800030b8 <i_2979>:
    800030b8:	10e11183          	lh	gp,270(sp)

00000000800030bc <i_2980>:
    800030bc:	00000013          	nop

00000000800030c0 <i_2981>:
    800030c0:	fd014583          	lbu	a1,-48(sp)

00000000800030c4 <i_2982>:
    800030c4:	001a0a13          	addi	s4,s4,1
    800030c8:	fd4656e3          	ble	s4,a2,80003094 <i_2970>

00000000800030cc <i_2983>:
    800030cc:	e6611923          	sh	t1,-398(sp)

00000000800030d0 <i_2984>:
    800030d0:	14612823          	sw	t1,336(sp)

00000000800030d4 <i_2985>:
    800030d4:	0231d9b3          	divu	s3,gp,gp

00000000800030d8 <i_2986>:
    800030d8:	02b33333          	mulhu	t1,t1,a1

00000000800030dc <i_2987>:
    800030dc:	02200593          	li	a1,34

00000000800030e0 <i_2988>:
    800030e0:	40b5df33          	sra	t5,a1,a1

00000000800030e4 <i_2989>:
    800030e4:	03df0063          	beq	t5,t4,80003104 <i_2997>

00000000800030e8 <i_2990>:
    800030e8:	f8812583          	lw	a1,-120(sp)

00000000800030ec <i_2991>:
    800030ec:	06b10ba3          	sb	a1,119(sp)

00000000800030f0 <i_2992>:
    800030f0:	05415f03          	lhu	t5,84(sp)

00000000800030f4 <i_2993>:
    800030f4:	00358d33          	add	s10,a1,gp

00000000800030f8 <i_2994>:
    800030f8:	9b1e1cb7          	lui	s9,0x9b1e1

00000000800030fc <i_2995>:
    800030fc:	01a5f863          	bleu	s10,a1,8000310c <i_2999>

0000000080003100 <i_2996>:
    80003100:	fe511e23          	sh	t0,-4(sp)

0000000080003104 <i_2997>:
    80003104:	00000013          	nop

0000000080003108 <i_2998>:
    80003108:	0b211d03          	lh	s10,178(sp)

000000008000310c <i_2999>:
    8000310c:	05ecfb93          	andi	s7,s9,94

0000000080003110 <i_3000>:
    80003110:	0c512623          	sw	t0,204(sp)

0000000080003114 <i_3001>:
    80003114:	83700593          	li	a1,-1993

0000000080003118 <i_3002>:
    80003118:	84600193          	li	gp,-1978

000000008000311c <i_3003>:
    8000311c:	00158593          	addi	a1,a1,1
    80003120:	fe359ee3          	bne	a1,gp,8000311c <i_3003>

0000000080003124 <i_3004>:
    80003124:	019d7863          	bleu	s9,s10,80003134 <i_3008>

0000000080003128 <i_3005>:
    80003128:	0192acb3          	slt	s9,t0,s9

000000008000312c <i_3006>:
    8000312c:	f2615083          	lhu	ra,-218(sp)

0000000080003130 <i_3007>:
    80003130:	eab12423          	sw	a1,-344(sp)

0000000080003134 <i_3008>:
    80003134:	0191da63          	ble	s9,gp,80003148 <i_3013>

0000000080003138 <i_3009>:
    80003138:	a10ce513          	ori	a0,s9,-1520

000000008000313c <i_3010>:
    8000313c:	03a08433          	mul	s0,ra,s10

0000000080003140 <i_3011>:
    80003140:	f2c12b83          	lw	s7,-212(sp)

0000000080003144 <i_3012>:
    80003144:	19811c83          	lh	s9,408(sp)

0000000080003148 <i_3013>:
    80003148:	1e412503          	lw	a0,484(sp)

000000008000314c <i_3014>:
    8000314c:	01700993          	li	s3,23

0000000080003150 <i_3015>:
    80003150:	4130dd3b          	sraw	s10,ra,s3

0000000080003154 <i_3016>:
    80003154:	7ed00393          	li	t2,2029

0000000080003158 <i_3017>:
    80003158:	7fa00d93          	li	s11,2042

000000008000315c <i_3018>:
    8000315c:	013484b3          	add	s1,s1,s3

0000000080003160 <i_3019>:
    80003160:	0394e9bb          	remw	s3,s1,s9

0000000080003164 <i_3020>:
    80003164:	01a13023          	sd	s10,0(sp)

0000000080003168 <i_3021>:
    80003168:	0194d863          	ble	s9,s1,80003178 <i_3025>

000000008000316c <i_3022>:
    8000316c:	00000013          	nop

0000000080003170 <i_3023>:
    80003170:	fb714483          	lbu	s1,-73(sp)

0000000080003174 <i_3024>:
    80003174:	03c504bb          	mulw	s1,a0,t3

0000000080003178 <i_3025>:
    80003178:	07a13c23          	sd	s10,120(sp)

000000008000317c <i_3026>:
    8000317c:	12c10483          	lb	s1,300(sp)

0000000080003180 <i_3027>:
    80003180:	03c4de33          	divu	t3,s1,t3

0000000080003184 <i_3028>:
    80003184:	00138393          	addi	t2,t2,1
    80003188:	fdb3e8e3          	bltu	t2,s11,80003158 <i_3017>

000000008000318c <i_3029>:
    8000318c:	ec913023          	sd	s1,-320(sp)

0000000080003190 <i_3030>:
    80003190:	01ce6a63          	bltu	t3,t3,800031a4 <i_3035>

0000000080003194 <i_3031>:
    80003194:	009e0663          	beq	t3,s1,800031a0 <i_3034>

0000000080003198 <i_3032>:
    80003198:	e2911c23          	sh	s1,-456(sp)

000000008000319c <i_3033>:
    8000319c:	e9011a03          	lh	s4,-368(sp)

00000000800031a0 <i_3034>:
    800031a0:	003e1e1b          	slliw	t3,t3,0x3

00000000800031a4 <i_3035>:
    800031a4:	00fcce63          	blt	s9,a5,800031c0 <i_3042>

00000000800031a8 <i_3036>:
    800031a8:	01ae0663          	beq	t3,s10,800031b4 <i_3039>

00000000800031ac <i_3037>:
    800031ac:	17a107a3          	sb	s10,367(sp)

00000000800031b0 <i_3038>:
    800031b0:	02e00d13          	li	s10,46

00000000800031b4 <i_3039>:
    800031b4:	41a25d33          	sra	s10,tp,s10

00000000800031b8 <i_3040>:
    800031b8:	00000013          	nop

00000000800031bc <i_3041>:
    800031bc:	0a413023          	sd	tp,160(sp)

00000000800031c0 <i_3042>:
    800031c0:	17110423          	sb	a7,360(sp)

00000000800031c4 <i_3043>:
    800031c4:	ffa11203          	lh	tp,-6(sp)

00000000800031c8 <i_3044>:
    800031c8:	75200613          	li	a2,1874

00000000800031cc <i_3045>:
    800031cc:	75f00d13          	li	s10,1887

00000000800031d0 <i_3046>:
    800031d0:	01300a93          	li	s5,19

00000000800031d4 <i_3047>:
    800031d4:	015ddb33          	srl	s6,s11,s5

00000000800031d8 <i_3048>:
    800031d8:	77900c13          	li	s8,1913

00000000800031dc <i_3049>:
    800031dc:	78900a13          	li	s4,1929

00000000800031e0 <i_3050>:
    800031e0:	036a69bb          	remw	s3,s4,s6

00000000800031e4 <i_3051>:
    800031e4:	19013b83          	ld	s7,400(sp)

00000000800031e8 <i_3052>:
    800031e8:	17613823          	sd	s6,368(sp)

00000000800031ec <i_3053>:
    800031ec:	13813823          	sd	s8,304(sp)

00000000800031f0 <i_3054>:
    800031f0:	02c00593          	li	a1,44

00000000800031f4 <i_3055>:
    800031f4:	40badb33          	sra	s6,s5,a1

00000000800031f8 <i_3056>:
    800031f8:	001c0c13          	addi	s8,s8,1
    800031fc:	ff8a52e3          	ble	s8,s4,800031e0 <i_3050>

0000000080003200 <i_3057>:
    80003200:	023a4463          	blt	s4,gp,80003228 <i_3066>

0000000080003204 <i_3058>:
    80003204:	00160613          	addi	a2,a2,1
    80003208:	fda644e3          	blt	a2,s10,800031d0 <i_3046>

000000008000320c <i_3059>:
    8000320c:	ec016583          	lwu	a1,-320(sp)

0000000080003210 <i_3060>:
    80003210:	01312423          	sw	s3,8(sp)

0000000080003214 <i_3061>:
    80003214:	19e11a03          	lh	s4,414(sp)

0000000080003218 <i_3062>:
    80003218:	00738a33          	add	s4,t2,t2

000000008000321c <i_3063>:
    8000321c:	00000013          	nop

0000000080003220 <i_3064>:
    80003220:	00000013          	nop

0000000080003224 <i_3065>:
    80003224:	bdea0e1b          	addiw	t3,s4,-1058

0000000080003228 <i_3066>:
    80003228:	ed710403          	lb	s0,-297(sp)

000000008000322c <i_3067>:
    8000322c:	f3413c23          	sd	s4,-200(sp)

0000000080003230 <i_3068>:
    80003230:	7b000393          	li	t2,1968

0000000080003234 <i_3069>:
    80003234:	7c100993          	li	s3,1985

0000000080003238 <i_3070>:
    80003238:	1d014a03          	lbu	s4,464(sp)

000000008000323c <i_3071>:
    8000323c:	f7c10323          	sb	t3,-154(sp)

0000000080003240 <i_3072>:
    80003240:	00de5463          	ble	a3,t3,80003248 <i_3074>

0000000080003244 <i_3073>:
    80003244:	00000013          	nop

0000000080003248 <i_3074>:
    80003248:	f88108a3          	sb	s0,-111(sp)

000000008000324c <i_3075>:
    8000324c:	1fb44593          	xori	a1,s0,507

0000000080003250 <i_3076>:
    80003250:	559b6b13          	ori	s6,s6,1369

0000000080003254 <i_3077>:
    80003254:	4044551b          	sraiw	a0,s0,0x4

0000000080003258 <i_3078>:
    80003258:	06712823          	sw	t2,112(sp)

000000008000325c <i_3079>:
    8000325c:	090102a3          	sb	a6,133(sp)

0000000080003260 <i_3080>:
    80003260:	009c0c33          	add	s8,s8,s1

0000000080003264 <i_3081>:
    80003264:	00138393          	addi	t2,t2,1
    80003268:	fd3398e3          	bne	t2,s3,80003238 <i_3070>

000000008000326c <i_3082>:
    8000326c:	e5813c03          	ld	s8,-424(sp)

0000000080003270 <i_3083>:
    80003270:	c32c7a13          	andi	s4,s8,-974

0000000080003274 <i_3084>:
    80003274:	03455063          	ble	s4,a0,80003294 <i_3092>

0000000080003278 <i_3085>:
    80003278:	0dc12a03          	lw	s4,220(sp)

000000008000327c <i_3086>:
    8000327c:	07016303          	lwu	t1,112(sp)

0000000080003280 <i_3087>:
    80003280:	1dc12a03          	lw	s4,476(sp)

0000000080003284 <i_3088>:
    80003284:	f7413423          	sd	s4,-152(sp)

0000000080003288 <i_3089>:
    80003288:	014a5263          	ble	s4,s4,8000328c <i_3090>

000000008000328c <i_3090>:
    8000328c:	4dfa0a1b          	addiw	s4,s4,1247

0000000080003290 <i_3091>:
    80003290:	00013583          	ld	a1,0(sp)

0000000080003294 <i_3092>:
    80003294:	0a412e23          	sw	tp,188(sp)

0000000080003298 <i_3093>:
    80003298:	00000013          	nop

000000008000329c <i_3094>:
    8000329c:	76500c93          	li	s9,1893

00000000800032a0 <i_3095>:
    800032a0:	77300a13          	li	s4,1907

00000000800032a4 <i_3096>:
    800032a4:	fcb12223          	sw	a1,-60(sp)

00000000800032a8 <i_3097>:
    800032a8:	001c8c93          	addi	s9,s9,1 # ffffffff9b1e1001 <_end+0xffffffff1b1d0bed>
    800032ac:	ff4cece3          	bltu	s9,s4,800032a4 <i_3096>

00000000800032b0 <i_3098>:
    800032b0:	02460e3b          	mulw	t3,a2,tp

00000000800032b4 <i_3099>:
    800032b4:	02ca5263          	ble	a2,s4,800032d8 <i_3108>

00000000800032b8 <i_3100>:
    800032b8:	1c29c193          	xori	gp,s3,450

00000000800032bc <i_3101>:
    800032bc:	e8013a83          	ld	s5,-384(sp)

00000000800032c0 <i_3102>:
    800032c0:	0c214083          	lbu	ra,194(sp)

00000000800032c4 <i_3103>:
    800032c4:	00ca3ab3          	sltu	s5,s4,a2

00000000800032c8 <i_3104>:
    800032c8:	04814083          	lbu	ra,72(sp)

00000000800032cc <i_3105>:
    800032cc:	026091b3          	mulh	gp,ra,t1

00000000800032d0 <i_3106>:
    800032d0:	ea311523          	sh	gp,-342(sp)

00000000800032d4 <i_3107>:
    800032d4:	401e8ebb          	subw	t4,t4,ra

00000000800032d8 <i_3108>:
    800032d8:	a5ea2993          	slti	s3,s4,-1442

00000000800032dc <i_3109>:
    800032dc:	011a7463          	bleu	a7,s4,800032e4 <i_3111>

00000000800032e0 <i_3110>:
    800032e0:	ffa15603          	lhu	a2,-6(sp)

00000000800032e4 <i_3111>:
    800032e4:	e9910923          	sb	s9,-366(sp)

00000000800032e8 <i_3112>:
    800032e8:	0fc16783          	lwu	a5,252(sp)

00000000800032ec <i_3113>:
    800032ec:	04310083          	lb	ra,67(sp)

00000000800032f0 <i_3114>:
    800032f0:	02f54cbb          	divw	s9,a0,a5

00000000800032f4 <i_3115>:
    800032f4:	e3910fa3          	sb	s9,-449(sp)

00000000800032f8 <i_3116>:
    800032f8:	01d08a33          	add	s4,ra,t4

00000000800032fc <i_3117>:
    800032fc:	039cf263          	bleu	s9,s9,80003320 <i_3126>

0000000080003300 <i_3118>:
    80003300:	16416783          	lwu	a5,356(sp)

0000000080003304 <i_3119>:
    80003304:	01da0eb3          	add	t4,s4,t4

0000000080003308 <i_3120>:
    80003308:	01da7e63          	bleu	t4,s4,80003324 <i_3127>

000000008000330c <i_3121>:
    8000330c:	19016d03          	lwu	s10,400(sp)

0000000080003310 <i_3122>:
    80003310:	f0210a03          	lb	s4,-254(sp)

0000000080003314 <i_3123>:
    80003314:	12416e83          	lwu	t4,292(sp)

0000000080003318 <i_3124>:
    80003318:	16614603          	lbu	a2,358(sp)

000000008000331c <i_3125>:
    8000331c:	03dd1eb3          	mulh	t4,s10,t4

0000000080003320 <i_3126>:
    80003320:	1d2a0d1b          	addiw	s10,s4,466

0000000080003324 <i_3127>:
    80003324:	01ae8a63          	beq	t4,s10,80003338 <i_3132>

0000000080003328 <i_3128>:
    80003328:	e4016083          	lwu	ra,-448(sp)

000000008000332c <i_3129>:
    8000332c:	41ca0233          	sub	tp,s4,t3

0000000080003330 <i_3130>:
    80003330:	14412603          	lw	a2,324(sp)

0000000080003334 <i_3131>:
    80003334:	03420463          	beq	tp,s4,8000335c <i_3141>

0000000080003338 <i_3132>:
    80003338:	40720a33          	sub	s4,tp,t2

000000008000333c <i_3133>:
    8000333c:	01000a13          	li	s4,16

0000000080003340 <i_3134>:
    80003340:	01421eb3          	sll	t4,tp,s4

0000000080003344 <i_3135>:
    80003344:	012a5663          	ble	s2,s4,80003350 <i_3138>

0000000080003348 <i_3136>:
    80003348:	e8e10083          	lb	ra,-370(sp)

000000008000334c <i_3137>:
    8000334c:	034a70bb          	remuw	ra,s4,s4

0000000080003350 <i_3138>:
    80003350:	014a7e63          	bleu	s4,s4,8000336c <i_3145>

0000000080003354 <i_3139>:
    80003354:	1df11623          	sh	t6,460(sp)

0000000080003358 <i_3140>:
    80003358:	02d213b3          	mulh	t2,tp,a3

000000008000335c <i_3141>:
    8000335c:	f9611083          	lh	ra,-106(sp)

0000000080003360 <i_3142>:
    80003360:	01d00993          	li	s3,29

0000000080003364 <i_3143>:
    80003364:	0130d3bb          	srlw	t2,ra,s3

0000000080003368 <i_3144>:
    80003368:	0c514f03          	lbu	t5,197(sp)

000000008000336c <i_3145>:
    8000336c:	e5813183          	ld	gp,-424(sp)

0000000080003370 <i_3146>:
    80003370:	0333eeb3          	rem	t4,t2,s3

0000000080003374 <i_3147>:
    80003374:	00425b13          	srli	s6,tp,0x4

0000000080003378 <i_3148>:
    80003378:	0ce11603          	lh	a2,206(sp)

000000008000337c <i_3149>:
    8000337c:	e7413823          	sd	s4,-400(sp)

0000000080003380 <i_3150>:
    80003380:	18910e83          	lb	t4,393(sp)

0000000080003384 <i_3151>:
    80003384:	15815b03          	lhu	s6,344(sp)

0000000080003388 <i_3152>:
    80003388:	e1e11183          	lh	gp,-482(sp)

000000008000338c <i_3153>:
    8000338c:	08813b83          	ld	s7,136(sp)

0000000080003390 <i_3154>:
    80003390:	73400e93          	li	t4,1844

0000000080003394 <i_3155>:
    80003394:	73f00093          	li	ra,1855

0000000080003398 <i_3156>:
    80003398:	015aa5b3          	slt	a1,s5,s5

000000008000339c <i_3157>:
    8000339c:	00000013          	nop

00000000800033a0 <i_3158>:
    800033a0:	8c400a93          	li	s5,-1852

00000000800033a4 <i_3159>:
    800033a4:	8d400193          	li	gp,-1836

00000000800033a8 <i_3160>:
    800033a8:	00420233          	add	tp,tp,tp

00000000800033ac <i_3161>:
    800033ac:	2bb5c593          	xori	a1,a1,699

00000000800033b0 <i_3162>:
    800033b0:	002f1b93          	slli	s7,t5,0x2

00000000800033b4 <i_3163>:
    800033b4:	15512223          	sw	s5,324(sp)

00000000800033b8 <i_3164>:
    800033b8:	00000013          	nop

00000000800033bc <i_3165>:
    800033bc:	035bc6b3          	div	a3,s7,s5

00000000800033c0 <i_3166>:
    800033c0:	552e039b          	addiw	t2,t3,1362

00000000800033c4 <i_3167>:
    800033c4:	001a8a93          	addi	s5,s5,1
    800033c8:	fe3ac0e3          	blt	s5,gp,800033a8 <i_3160>

00000000800033cc <i_3168>:
    800033cc:	88b6eb93          	ori	s7,a3,-1909

00000000800033d0 <i_3169>:
    800033d0:	001e8e93          	addi	t4,t4,1
    800033d4:	fc1ee2e3          	bltu	t4,ra,80003398 <i_3156>

00000000800033d8 <i_3170>:
    800033d8:	08016c03          	lwu	s8,128(sp)

00000000800033dc <i_3171>:
    800033dc:	037bcbbb          	divw	s7,s7,s7

00000000800033e0 <i_3172>:
    800033e0:	08812b83          	lw	s7,136(sp)

00000000800033e4 <i_3173>:
    800033e4:	e2813b83          	ld	s7,-472(sp)

00000000800033e8 <i_3174>:
    800033e8:	2839a993          	slti	s3,s3,643

00000000800033ec <i_3175>:
    800033ec:	007bf9b3          	and	s3,s7,t2

00000000800033f0 <i_3176>:
    800033f0:	00000013          	nop

00000000800033f4 <i_3177>:
    800033f4:	87900393          	li	t2,-1927

00000000800033f8 <i_3178>:
    800033f8:	87f00b93          	li	s7,-1921

00000000800033fc <i_3179>:
    800033fc:	87cbfe13          	andi	t3,s7,-1924

0000000080003400 <i_3180>:
    80003400:	02798db3          	mul	s11,s3,t2

0000000080003404 <i_3181>:
    80003404:	08911a23          	sh	s1,148(sp)

0000000080003408 <i_3182>:
    80003408:	0273f063          	bleu	t2,t2,80003428 <i_3190>

000000008000340c <i_3183>:
    8000340c:	1d813a83          	ld	s5,472(sp)

0000000080003410 <i_3184>:
    80003410:	01bb9663          	bne	s7,s11,8000341c <i_3187>

0000000080003414 <i_3185>:
    80003414:	035ae4b3          	rem	s1,s5,s5

0000000080003418 <i_3186>:
    80003418:	37a58db7          	lui	s11,0x37a58

000000008000341c <i_3187>:
    8000341c:	777af193          	andi	gp,s5,1911

0000000080003420 <i_3188>:
    80003420:	005ad263          	ble	t0,s5,80003424 <i_3189>

0000000080003424 <i_3189>:
    80003424:	0c711e23          	sh	t2,220(sp)

0000000080003428 <i_3190>:
    80003428:	00000013          	nop

000000008000342c <i_3191>:
    8000342c:	00000013          	nop

0000000080003430 <i_3192>:
    80003430:	00000013          	nop

0000000080003434 <i_3193>:
    80003434:	00000013          	nop

0000000080003438 <i_3194>:
    80003438:	0c815a83          	lhu	s5,200(sp)

000000008000343c <i_3195>:
    8000343c:	00138393          	addi	t2,t2,1
    80003440:	fb73eee3          	bltu	t2,s7,800033fc <i_3179>

0000000080003444 <i_3196>:
    80003444:	16711d23          	sh	t2,378(sp)

0000000080003448 <i_3197>:
    80003448:	00239e1b          	slliw	t3,t2,0x2

000000008000344c <i_3198>:
    8000344c:	0353ddbb          	divuw	s11,t2,s5

0000000080003450 <i_3199>:
    80003450:	00a183b3          	add	t2,gp,a0

0000000080003454 <i_3200>:
    80003454:	00000013          	nop

0000000080003458 <i_3201>:
    80003458:	7f300d93          	li	s11,2035

000000008000345c <i_3202>:
    8000345c:	7fc00513          	li	a0,2044

0000000080003460 <i_3203>:
    80003460:	03cdba33          	mulhu	s4,s11,t3

0000000080003464 <i_3204>:
    80003464:	10016483          	lwu	s1,256(sp)

0000000080003468 <i_3205>:
    80003468:	40928cbb          	subw	s9,t0,s1

000000008000346c <i_3206>:
    8000346c:	81000b13          	li	s6,-2032

0000000080003470 <i_3207>:
    80003470:	81d00293          	li	t0,-2019

0000000080003474 <i_3208>:
    80003474:	4040d613          	srai	a2,ra,0x4

0000000080003478 <i_3209>:
    80003478:	001b0b13          	addi	s6,s6,1 # d66ae495 <_end+0x5669e081>
    8000347c:	fe5b6ce3          	bltu	s6,t0,80003474 <i_3208>

0000000080003480 <i_3210>:
    80003480:	e4512c23          	sw	t0,-424(sp)

0000000080003484 <i_3211>:
    80003484:	0364f463          	bleu	s6,s1,800034ac <i_3220>

0000000080003488 <i_3212>:
    80003488:	02f7c7bb          	divw	a5,a5,a5

000000008000348c <i_3213>:
    8000348c:	001d8d93          	addi	s11,s11,1 # 37a58001 <main-0x485a7fff>
    80003490:	fdb578e3          	bleu	s11,a0,80003460 <i_3203>

0000000080003494 <i_3214>:
    80003494:	efa15c83          	lhu	s9,-262(sp)

0000000080003498 <i_3215>:
    80003498:	00400a13          	li	s4,4

000000008000349c <i_3216>:
    8000349c:	0147d7bb          	srlw	a5,a5,s4

00000000800034a0 <i_3217>:
    800034a0:	0346633b          	remw	t1,a2,s4

00000000800034a4 <i_3218>:
    800034a4:	ee211603          	lh	a2,-286(sp)

00000000800034a8 <i_3219>:
    800034a8:	02f65463          	ble	a5,a2,800034d0 <i_3229>

00000000800034ac <i_3220>:
    800034ac:	f6a10783          	lb	a5,-150(sp)

00000000800034b0 <i_3221>:
    800034b0:	002a5193          	srli	gp,s4,0x2

00000000800034b4 <i_3222>:
    800034b4:	00fb0c63          	beq	s6,a5,800034cc <i_3228>

00000000800034b8 <i_3223>:
    800034b8:	1af107a3          	sb	a5,431(sp)

00000000800034bc <i_3224>:
    800034bc:	f4611d23          	sh	t1,-166(sp)

00000000800034c0 <i_3225>:
    800034c0:	0ff14e03          	lbu	t3,255(sp)

00000000800034c4 <i_3226>:
    800034c4:	eae14e03          	lbu	t3,-338(sp)

00000000800034c8 <i_3227>:
    800034c8:	905e0613          	addi	a2,t3,-1787

00000000800034cc <i_3228>:
    800034cc:	41878c33          	sub	s8,a5,s8

00000000800034d0 <i_3229>:
    800034d0:	01cb7e63          	bleu	t3,s6,800034ec <i_3236>

00000000800034d4 <i_3230>:
    800034d4:	ea611c03          	lh	s8,-346(sp)

00000000800034d8 <i_3231>:
    800034d8:	418e01bb          	subw	gp,t3,s8

00000000800034dc <i_3232>:
    800034dc:	023c2c33          	mulhsu	s8,s8,gp

00000000800034e0 <i_3233>:
    800034e0:	1d812223          	sw	s8,452(sp)

00000000800034e4 <i_3234>:
    800034e4:	0c514683          	lbu	a3,197(sp)

00000000800034e8 <i_3235>:
    800034e8:	fde11303          	lh	t1,-34(sp)

00000000800034ec <i_3236>:
    800034ec:	00000013          	nop

00000000800034f0 <i_3237>:
    800034f0:	f4813503          	ld	a0,-184(sp)

00000000800034f4 <i_3238>:
    800034f4:	8cd00e13          	li	t3,-1843

00000000800034f8 <i_3239>:
    800034f8:	8da00193          	li	gp,-1830

00000000800034fc <i_3240>:
    800034fc:	4e456793          	ori	a5,a0,1252

0000000080003500 <i_3241>:
    80003500:	00000013          	nop

0000000080003504 <i_3242>:
    80003504:	fad12a23          	sw	a3,-76(sp)

0000000080003508 <i_3243>:
    80003508:	81f00493          	li	s1,-2017

000000008000350c <i_3244>:
    8000350c:	83300c13          	li	s8,-1997

0000000080003510 <i_3245>:
    80003510:	eef10e83          	lb	t4,-273(sp)

0000000080003514 <i_3246>:
    80003514:	11813423          	sd	s8,264(sp)

0000000080003518 <i_3247>:
    80003518:	f5c16683          	lwu	a3,-164(sp)

000000008000351c <i_3248>:
    8000351c:	00148493          	addi	s1,s1,1 # e051705d <_end+0x60506c49>
    80003520:	ff84e8e3          	bltu	s1,s8,80003510 <i_3245>

0000000080003524 <i_3249>:
    80003524:	00000013          	nop

0000000080003528 <i_3250>:
    80003528:	0c811c83          	lh	s9,200(sp)

000000008000352c <i_3251>:
    8000352c:	001e0e13          	addi	t3,t3,1
    80003530:	fc3e46e3          	blt	t3,gp,800034fc <i_3240>

0000000080003534 <i_3252>:
    80003534:	11611c83          	lh	s9,278(sp)

0000000080003538 <i_3253>:
    80003538:	419c8eb3          	sub	t4,s9,s9

000000008000353c <i_3254>:
    8000353c:	039ee263          	bltu	t4,s9,80003560 <i_3263>

0000000080003540 <i_3255>:
    80003540:	19812c83          	lw	s9,408(sp)

0000000080003544 <i_3256>:
    80003544:	eb615c83          	lhu	s9,-330(sp)

0000000080003548 <i_3257>:
    80003548:	e6813f03          	ld	t5,-408(sp)

000000008000354c <i_3258>:
    8000354c:	02ace533          	rem	a0,s9,a0

0000000080003550 <i_3259>:
    80003550:	e0050c9b          	addiw	s9,a0,-512

0000000080003554 <i_3260>:
    80003554:	0b013c83          	ld	s9,176(sp)

0000000080003558 <i_3261>:
    80003558:	03955533          	divu	a0,a0,s9

000000008000355c <i_3262>:
    8000355c:	e6110503          	lb	a0,-415(sp)

0000000080003560 <i_3263>:
    80003560:	404ed09b          	sraiw	ra,t4,0x4

0000000080003564 <i_3264>:
    80003564:	001549b3          	xor	s3,a0,ra

0000000080003568 <i_3265>:
    80003568:	75a00f13          	li	t5,1882

000000008000356c <i_3266>:
    8000356c:	75d00c93          	li	s9,1885

0000000080003570 <i_3267>:
    80003570:	f4a11123          	sh	a0,-190(sp)

0000000080003574 <i_3268>:
    80003574:	001f7263          	bleu	ra,t5,80003578 <i_3269>

0000000080003578 <i_3269>:
    80003578:	f6e14783          	lbu	a5,-146(sp)

000000008000357c <i_3270>:
    8000357c:	0137da63          	ble	s3,a5,80003590 <i_3275>

0000000080003580 <i_3271>:
    80003580:	04c11283          	lh	t0,76(sp)

0000000080003584 <i_3272>:
    80003584:	01398463          	beq	s3,s3,8000358c <i_3274>

0000000080003588 <i_3273>:
    80003588:	0139c9b3          	xor	s3,s3,s3

000000008000358c <i_3274>:
    8000358c:	f7012803          	lw	a6,-144(sp)

0000000080003590 <i_3275>:
    80003590:	013b0e63          	beq	s6,s3,800035ac <i_3281>

0000000080003594 <i_3276>:
    80003594:	8f9b12b7          	lui	t0,0x8f9b1

0000000080003598 <i_3277>:
    80003598:	001f0f13          	addi	t5,t5,1 # 6ef63cc5 <main-0x1109c33b>
    8000359c:	fd9f1ae3          	bne	t5,s9,80003570 <i_3267>

00000000800035a0 <i_3278>:
    800035a0:	0f015803          	lhu	a6,240(sp)

00000000800035a4 <i_3279>:
    800035a4:	0d812983          	lw	s3,216(sp)

00000000800035a8 <i_3280>:
    800035a8:	4adbc993          	xori	s3,s7,1197

00000000800035ac <i_3281>:
    800035ac:	ffa98993          	addi	s3,s3,-6

00000000800035b0 <i_3282>:
    800035b0:	00a98cb3          	add	s9,s3,a0

00000000800035b4 <i_3283>:
    800035b4:	8d600b13          	li	s6,-1834

00000000800035b8 <i_3284>:
    800035b8:	8d900293          	li	t0,-1831

00000000800035bc <i_3285>:
    800035bc:	0af10ca3          	sb	a5,185(sp)

00000000800035c0 <i_3286>:
    800035c0:	0d911c23          	sh	s9,216(sp)

00000000800035c4 <i_3287>:
    800035c4:	85600613          	li	a2,-1962

00000000800035c8 <i_3288>:
    800035c8:	86900b93          	li	s7,-1943

00000000800035cc <i_3289>:
    800035cc:	e5910c83          	lb	s9,-423(sp)

00000000800035d0 <i_3290>:
    800035d0:	00160613          	addi	a2,a2,1
    800035d4:	ff764ce3          	blt	a2,s7,800035cc <i_3289>

00000000800035d8 <i_3291>:
    800035d8:	013276b3          	and	a3,tp,s3

00000000800035dc <i_3292>:
    800035dc:	1ad10da3          	sb	a3,443(sp)

00000000800035e0 <i_3293>:
    800035e0:	001b0b13          	addi	s6,s6,1
    800035e4:	fd62fce3          	bleu	s6,t0,800035bc <i_3285>

00000000800035e8 <i_3294>:
    800035e8:	f0d13423          	sd	a3,-248(sp)

00000000800035ec <i_3295>:
    800035ec:	037484bb          	mulw	s1,s1,s7

00000000800035f0 <i_3296>:
    800035f0:	e7311b23          	sh	s3,-394(sp)

00000000800035f4 <i_3297>:
    800035f4:	e4812403          	lw	s0,-440(sp)

00000000800035f8 <i_3298>:
    800035f8:	1a012f03          	lw	t5,416(sp)

00000000800035fc <i_3299>:
    800035fc:	029b89bb          	mulw	s3,s7,s1

0000000080003600 <i_3300>:
    80003600:	08013683          	ld	a3,128(sp)

0000000080003604 <i_3301>:
    80003604:	01345a63          	ble	s3,s0,80003618 <i_3306>

0000000080003608 <i_3302>:
    80003608:	02c00d13          	li	s10,44

000000008000360c <i_3303>:
    8000360c:	01a7d7b3          	srl	a5,a5,s10

0000000080003610 <i_3304>:
    80003610:	fda11e83          	lh	t4,-38(sp)

0000000080003614 <i_3305>:
    80003614:	02013b83          	ld	s7,32(sp)

0000000080003618 <i_3306>:
    80003618:	01deed33          	or	s10,t4,t4

000000008000361c <i_3307>:
    8000361c:	01ae9863          	bne	t4,s10,8000362c <i_3311>

0000000080003620 <i_3308>:
    80003620:	13a13023          	sd	s10,288(sp)

0000000080003624 <i_3309>:
    80003624:	ef816183          	lwu	gp,-264(sp)

0000000080003628 <i_3310>:
    80003628:	023d7ebb          	remuw	t4,s10,gp

000000008000362c <i_3311>:
    8000362c:	07a11423          	sh	s10,104(sp)

0000000080003630 <i_3312>:
    80003630:	00f1cd33          	xor	s10,gp,a5

0000000080003634 <i_3313>:
    80003634:	07c12803          	lw	a6,124(sp)

0000000080003638 <i_3314>:
    80003638:	7ca00193          	li	gp,1994

000000008000363c <i_3315>:
    8000363c:	7d500213          	li	tp,2005

0000000080003640 <i_3316>:
    80003640:	04a15383          	lhu	t2,74(sp)

0000000080003644 <i_3317>:
    80003644:	00118193          	addi	gp,gp,1
    80003648:	fe41ece3          	bltu	gp,tp,80003640 <i_3316>

000000008000364c <i_3318>:
    8000364c:	01a00d13          	li	s10,26

0000000080003650 <i_3319>:
    80003650:	01aa5d3b          	srlw	s10,s4,s10

0000000080003654 <i_3320>:
    80003654:	00710aa3          	sb	t2,21(sp)

0000000080003658 <i_3321>:
    80003658:	e7510723          	sb	s5,-402(sp)

000000008000365c <i_3322>:
    8000365c:	f4712423          	sw	t2,-184(sp)

0000000080003660 <i_3323>:
    80003660:	01ad7c63          	bleu	s10,s10,80003678 <i_3329>

0000000080003664 <i_3324>:
    80003664:	01e00593          	li	a1,30

0000000080003668 <i_3325>:
    80003668:	00b1ddbb          	srlw	s11,gp,a1

000000008000366c <i_3326>:
    8000366c:	04815e03          	lhu	t3,72(sp)

0000000080003670 <i_3327>:
    80003670:	01bd7663          	bleu	s11,s10,8000367c <i_3330>

0000000080003674 <i_3328>:
    80003674:	03800d13          	li	s10,56

0000000080003678 <i_3329>:
    80003678:	01ad9d33          	sll	s10,s11,s10

000000008000367c <i_3330>:
    8000367c:	fd012d03          	lw	s10,-48(sp)

0000000080003680 <i_3331>:
    80003680:	09a13823          	sd	s10,144(sp)

0000000080003684 <i_3332>:
    80003684:	01a00e13          	li	t3,26

0000000080003688 <i_3333>:
    80003688:	01ce523b          	srlw	tp,t3,t3

000000008000368c <i_3334>:
    8000368c:	12410c23          	sb	tp,312(sp)

0000000080003690 <i_3335>:
    80003690:	f2510203          	lb	tp,-219(sp)

0000000080003694 <i_3336>:
    80003694:	cf220593          	addi	a1,tp,-782 # ffffffff9af65cf2 <_end+0xffffffff1af558de>

0000000080003698 <i_3337>:
    80003698:	00b5cc63          	blt	a1,a1,800036b0 <i_3343>

000000008000369c <i_3338>:
    8000369c:	01626463          	bltu	tp,s6,800036a4 <i_3340>

00000000800036a0 <i_3339>:
    800036a0:	e6214e03          	lbu	t3,-414(sp)

00000000800036a4 <i_3340>:
    800036a4:	de35bc13          	sltiu	s8,a1,-541

00000000800036a8 <i_3341>:
    800036a8:	0045c5b3          	xor	a1,a1,tp

00000000800036ac <i_3342>:
    800036ac:	e8810183          	lb	gp,-376(sp)

00000000800036b0 <i_3343>:
    800036b0:	00326263          	bltu	tp,gp,800036b4 <i_3344>

00000000800036b4 <i_3344>:
    800036b4:	02411b23          	sh	tp,54(sp)

00000000800036b8 <i_3345>:
    800036b8:	fbd13023          	sd	t4,-96(sp)

00000000800036bc <i_3346>:
    800036bc:	00b1f433          	and	s0,gp,a1

00000000800036c0 <i_3347>:
    800036c0:	e2012583          	lw	a1,-480(sp)

00000000800036c4 <i_3348>:
    800036c4:	01a00b13          	li	s6,26

00000000800036c8 <i_3349>:
    800036c8:	016591bb          	sllw	gp,a1,s6

00000000800036cc <i_3350>:
    800036cc:	1c813823          	sd	s0,464(sp)

00000000800036d0 <i_3351>:
    800036d0:	ef531437          	lui	s0,0xef531

00000000800036d4 <i_3352>:
    800036d4:	9329b393          	sltiu	t2,s3,-1742

00000000800036d8 <i_3353>:
    800036d8:	f2b10c03          	lb	s8,-213(sp)

00000000800036dc <i_3354>:
    800036dc:	f8712823          	sw	t2,-112(sp)

00000000800036e0 <i_3355>:
    800036e0:	0383f263          	bleu	s8,t2,80003704 <i_3364>

00000000800036e4 <i_3356>:
    800036e4:	e5813823          	sd	s8,-432(sp)

00000000800036e8 <i_3357>:
    800036e8:	ff813823          	sd	s8,-16(sp)

00000000800036ec <i_3358>:
    800036ec:	01600c13          	li	s8,22

00000000800036f0 <i_3359>:
    800036f0:	4183d5b3          	sra	a1,t2,s8

00000000800036f4 <i_3360>:
    800036f4:	018c0863          	beq	s8,s8,80003704 <i_3364>

00000000800036f8 <i_3361>:
    800036f8:	e9b11523          	sh	s11,-374(sp)

00000000800036fc <i_3362>:
    800036fc:	03bb8bb3          	mul	s7,s7,s11

0000000080003700 <i_3363>:
    80003700:	00000013          	nop

0000000080003704 <i_3364>:
    80003704:	1c713423          	sd	t2,456(sp)

0000000080003708 <i_3365>:
    80003708:	0045de13          	srli	t3,a1,0x4

000000008000370c <i_3366>:
    8000370c:	8d400393          	li	t2,-1836

0000000080003710 <i_3367>:
    80003710:	8e100d93          	li	s11,-1823

0000000080003714 <i_3368>:
    80003714:	01f00293          	li	t0,31

0000000080003718 <i_3369>:
    80003718:	005dde3b          	srlw	t3,s11,t0

000000008000371c <i_3370>:
    8000371c:	7c300193          	li	gp,1987

0000000080003720 <i_3371>:
    80003720:	7c800f13          	li	t5,1992

0000000080003724 <i_3372>:
    80003724:	03014a83          	lbu	s5,48(sp)

0000000080003728 <i_3373>:
    80003728:	03b5e4bb          	remw	s1,a1,s11

000000008000372c <i_3374>:
    8000372c:	00000013          	nop

0000000080003730 <i_3375>:
    80003730:	00118193          	addi	gp,gp,1
    80003734:	ffe1e8e3          	bltu	gp,t5,80003724 <i_3372>

0000000080003738 <i_3376>:
    80003738:	0041db1b          	srliw	s6,gp,0x4

000000008000373c <i_3377>:
    8000373c:	00138393          	addi	t2,t2,1
    80003740:	fdb39ae3          	bne	t2,s11,80003714 <i_3368>

0000000080003744 <i_3378>:
    80003744:	03700593          	li	a1,55

0000000080003748 <i_3379>:
    80003748:	40b2db33          	sra	s6,t0,a1

000000008000374c <i_3380>:
    8000374c:	02583833          	mulhu	a6,a6,t0

0000000080003750 <i_3381>:
    80003750:	0161bb33          	sltu	s6,gp,s6

0000000080003754 <i_3382>:
    80003754:	fe513823          	sd	t0,-16(sp)

0000000080003758 <i_3383>:
    80003758:	01800793          	li	a5,24

000000008000375c <i_3384>:
    8000375c:	40f1d9bb          	sraw	s3,gp,a5

0000000080003760 <i_3385>:
    80003760:	036a8b3b          	mulw	s6,s5,s6

0000000080003764 <i_3386>:
    80003764:	00000013          	nop

0000000080003768 <i_3387>:
    80003768:	83e00a93          	li	s5,-1986

000000008000376c <i_3388>:
    8000376c:	84100d13          	li	s10,-1983

0000000080003770 <i_3389>:
    80003770:	034d4463          	blt	s10,s4,80003798 <i_3398>

0000000080003774 <i_3390>:
    80003774:	0be15b03          	lhu	s6,190(sp)

0000000080003778 <i_3391>:
    80003778:	03416d83          	lwu	s11,52(sp)

000000008000377c <i_3392>:
    8000377c:	001a8a93          	addi	s5,s5,1
    80003780:	ffaa98e3          	bne	s5,s10,80003770 <i_3389>

0000000080003784 <i_3393>:
    80003784:	03900493          	li	s1,57

0000000080003788 <i_3394>:
    80003788:	009b14b3          	sll	s1,s6,s1

000000008000378c <i_3395>:
    8000378c:	01b49463          	bne	s1,s11,80003794 <i_3397>

0000000080003790 <i_3396>:
    80003790:	11714f03          	lbu	t5,279(sp)

0000000080003794 <i_3397>:
    80003794:	01a12223          	sw	s10,4(sp)

0000000080003798 <i_3398>:
    80003798:	f9412d03          	lw	s10,-108(sp)

000000008000379c <i_3399>:
    8000379c:	f9013983          	ld	s3,-112(sp)

00000000800037a0 <i_3400>:
    800037a0:	01f10c83          	lb	s9,31(sp)

00000000800037a4 <i_3401>:
    800037a4:	01700213          	li	tp,23

00000000800037a8 <i_3402>:
    800037a8:	404cd6bb          	sraw	a3,s9,tp

00000000800037ac <i_3403>:
    800037ac:	035ccabb          	divw	s5,s9,s5

00000000800037b0 <i_3404>:
    800037b0:	fd3108a3          	sb	s3,-47(sp)

00000000800037b4 <i_3405>:
    800037b4:	004d199b          	slliw	s3,s10,0x4

00000000800037b8 <i_3406>:
    800037b8:	41520d3b          	subw	s10,tp,s5

00000000800037bc <i_3407>:
    800037bc:	03a3b3b3          	mulhu	t2,t2,s10

00000000800037c0 <i_3408>:
    800037c0:	0013d39b          	srliw	t2,t2,0x1

00000000800037c4 <i_3409>:
    800037c4:	03ad6cb3          	rem	s9,s10,s10

00000000800037c8 <i_3410>:
    800037c8:	0353d6bb          	divuw	a3,t2,s5

00000000800037cc <i_3411>:
    800037cc:	eec15d03          	lhu	s10,-276(sp)

00000000800037d0 <i_3412>:
    800037d0:	0193da63          	ble	s9,t2,800037e4 <i_3417>

00000000800037d4 <i_3413>:
    800037d4:	0a713423          	sd	t2,168(sp)

00000000800037d8 <i_3414>:
    800037d8:	007cce63          	blt	s9,t2,800037f4 <i_3421>

00000000800037dc <i_3415>:
    800037dc:	027ce1b3          	rem	gp,s9,t2

00000000800037e0 <i_3416>:
    800037e0:	03ad9263          	bne	s11,s10,80003804 <i_3425>

00000000800037e4 <i_3417>:
    800037e4:	02adc263          	blt	s11,a0,80003808 <i_3426>

00000000800037e8 <i_3418>:
    800037e8:	00d13c23          	sd	a3,24(sp)

00000000800037ec <i_3419>:
    800037ec:	e4010603          	lb	a2,-448(sp)

00000000800037f0 <i_3420>:
    800037f0:	003d1793          	slli	a5,s10,0x3

00000000800037f4 <i_3421>:
    800037f4:	0d615d03          	lhu	s10,214(sp)

00000000800037f8 <i_3422>:
    800037f8:	00265613          	srli	a2,a2,0x2

00000000800037fc <i_3423>:
    800037fc:	faf12423          	sw	a5,-88(sp)

0000000080003800 <i_3424>:
    80003800:	04c12603          	lw	a2,76(sp)

0000000080003804 <i_3425>:
    80003804:	01300613          	li	a2,19

0000000080003808 <i_3426>:
    80003808:	00c6963b          	sllw	a2,a3,a2

000000008000380c <i_3427>:
    8000380c:	4026dd13          	srai	s10,a3,0x2

0000000080003810 <i_3428>:
    80003810:	80600b93          	li	s7,-2042

0000000080003814 <i_3429>:
    80003814:	81400693          	li	a3,-2028

0000000080003818 <i_3430>:
    80003818:	00000013          	nop

000000008000381c <i_3431>:
    8000381c:	2ea67413          	andi	s0,a2,746

0000000080003820 <i_3432>:
    80003820:	f1813b03          	ld	s6,-232(sp)

0000000080003824 <i_3433>:
    80003824:	18013083          	ld	ra,384(sp)

0000000080003828 <i_3434>:
    80003828:	0c711c23          	sh	t2,216(sp)

000000008000382c <i_3435>:
    8000382c:	001b8b93          	addi	s7,s7,1
    80003830:	ff76f4e3          	bleu	s7,a3,80003818 <i_3430>

0000000080003834 <i_3436>:
    80003834:	00c46463          	bltu	s0,a2,8000383c <i_3438>

0000000080003838 <i_3437>:
    80003838:	f9a13423          	sd	s10,-120(sp)

000000008000383c <i_3438>:
    8000383c:	96ed0d1b          	addiw	s10,s10,-1682

0000000080003840 <i_3439>:
    80003840:	021d4d33          	div	s10,s10,ra

0000000080003844 <i_3440>:
    80003844:	09a13c23          	sd	s10,152(sp)

0000000080003848 <i_3441>:
    80003848:	021f87b3          	mul	a5,t6,ra

000000008000384c <i_3442>:
    8000384c:	0210c0bb          	divw	ra,ra,ra

0000000080003850 <i_3443>:
    80003850:	1c813023          	sd	s0,448(sp)

0000000080003854 <i_3444>:
    80003854:	0010d593          	srli	a1,ra,0x1

0000000080003858 <i_3445>:
    80003858:	02f7e063          	bltu	a5,a5,80003878 <i_3453>

000000008000385c <i_3446>:
    8000385c:	f2f13423          	sd	a5,-216(sp)

0000000080003860 <i_3447>:
    80003860:	02bd50bb          	divuw	ra,s10,a1

0000000080003864 <i_3448>:
    80003864:	f3a13823          	sd	s10,-208(sp)

0000000080003868 <i_3449>:
    80003868:	00a0e663          	bltu	ra,a0,80003874 <i_3452>

000000008000386c <i_3450>:
    8000386c:	00b67ab3          	and	s5,a2,a1

0000000080003870 <i_3451>:
    80003870:	0045961b          	slliw	a2,a1,0x4

0000000080003874 <i_3452>:
    80003874:	eec15a83          	lhu	s5,-276(sp)

0000000080003878 <i_3453>:
    80003878:	00b7cc63          	blt	a5,a1,80003890 <i_3459>

000000008000387c <i_3454>:
    8000387c:	02413023          	sd	tp,32(sp)

0000000080003880 <i_3455>:
    80003880:	0f214d03          	lbu	s10,242(sp)

0000000080003884 <i_3456>:
    80003884:	0210b5b3          	mulhu	a1,ra,ra

0000000080003888 <i_3457>:
    80003888:	40f080b3          	sub	ra,ra,a5

000000008000388c <i_3458>:
    8000388c:	03aadab3          	divu	s5,s5,s10

0000000080003890 <i_3459>:
    80003890:	02f0d4b3          	divu	s1,ra,a5

0000000080003894 <i_3460>:
    80003894:	00c21863          	bne	tp,a2,800038a4 <i_3464>

0000000080003898 <i_3461>:
    80003898:	402d0ab3          	sub	s5,s10,sp

000000008000389c <i_3462>:
    8000389c:	482d0c9b          	addiw	s9,s10,1154

00000000800038a0 <i_3463>:
    800038a0:	e3813783          	ld	a5,-456(sp)

00000000800038a4 <i_3464>:
    800038a4:	03f00a13          	li	s4,63

00000000800038a8 <i_3465>:
    800038a8:	014c9d33          	sll	s10,s9,s4

00000000800038ac <i_3466>:
    800038ac:	e1c12d03          	lw	s10,-484(sp)

00000000800038b0 <i_3467>:
    800038b0:	f5816d03          	lwu	s10,-168(sp)

00000000800038b4 <i_3468>:
    800038b4:	09412223          	sw	s4,132(sp)

00000000800038b8 <i_3469>:
    800038b8:	019a9a63          	bne	s5,s9,800038cc <i_3474>

00000000800038bc <i_3470>:
    800038bc:	11811e83          	lh	t4,280(sp)

00000000800038c0 <i_3471>:
    800038c0:	017ae863          	bltu	s5,s7,800038d0 <i_3475>

00000000800038c4 <i_3472>:
    800038c4:	fbe15d83          	lhu	s11,-66(sp)

00000000800038c8 <i_3473>:
    800038c8:	01dacb33          	xor	s6,s5,t4

00000000800038cc <i_3474>:
    800038cc:	03aa9063          	bne	s5,s10,800038ec <i_3482>

00000000800038d0 <i_3475>:
    800038d0:	01ac0a63          	beq	s8,s10,800038e4 <i_3480>

00000000800038d4 <i_3476>:
    800038d4:	039d083b          	mulw	a6,s10,s9

00000000800038d8 <i_3477>:
    800038d8:	002c5c9b          	srliw	s9,s8,0x2

00000000800038dc <i_3478>:
    800038dc:	fa814183          	lbu	gp,-88(sp)

00000000800038e0 <i_3479>:
    800038e0:	0271d463          	ble	t2,gp,80003908 <i_3489>

00000000800038e4 <i_3480>:
    800038e4:	e6e11183          	lh	gp,-402(sp)

00000000800038e8 <i_3481>:
    800038e8:	0e312023          	sw	gp,224(sp)

00000000800038ec <i_3482>:
    800038ec:	410c84bb          	subw	s1,s9,a6

00000000800038f0 <i_3483>:
    800038f0:	03609433          	mulh	s0,ra,s6

00000000800038f4 <i_3484>:
    800038f4:	03b83f33          	mulhu	t5,a6,s11

00000000800038f8 <i_3485>:
    800038f8:	021481b3          	mul	gp,s1,ra

00000000800038fc <i_3486>:
    800038fc:	01e00693          	li	a3,30

0000000080003900 <i_3487>:
    80003900:	40dcd6bb          	sraw	a3,s9,a3

0000000080003904 <i_3488>:
    80003904:	0091e4b3          	or	s1,gp,s1

0000000080003908 <i_3489>:
    80003908:	0344e1bb          	remw	gp,s1,s4

000000008000390c <i_3490>:
    8000390c:	00000013          	nop

0000000080003910 <i_3491>:
    80003910:	83800b13          	li	s6,-1992

0000000080003914 <i_3492>:
    80003914:	84a00813          	li	a6,-1974

0000000080003918 <i_3493>:
    80003918:	00000013          	nop

000000008000391c <i_3494>:
    8000391c:	fce11b23          	sh	a4,-42(sp)

0000000080003920 <i_3495>:
    80003920:	7c000093          	li	ra,1984

0000000080003924 <i_3496>:
    80003924:	7d300393          	li	t2,2003

0000000080003928 <i_3497>:
    80003928:	f0816c03          	lwu	s8,-248(sp)

000000008000392c <i_3498>:
    8000392c:	00108093          	addi	ra,ra,1
    80003930:	fe70cce3          	blt	ra,t2,80003928 <i_3497>

0000000080003934 <i_3499>:
    80003934:	1ce11303          	lh	t1,462(sp)

0000000080003938 <i_3500>:
    80003938:	001b0b13          	addi	s6,s6,1
    8000393c:	fd0b4ee3          	blt	s6,a6,80003918 <i_3493>

0000000080003940 <i_3501>:
    80003940:	00000013          	nop

0000000080003944 <i_3502>:
    80003944:	02d12223          	sw	a3,36(sp)

0000000080003948 <i_3503>:
    80003948:	038c0c33          	mul	s8,s8,s8

000000008000394c <i_3504>:
    8000394c:	f0714803          	lbu	a6,-249(sp)

0000000080003950 <i_3505>:
    80003950:	06913023          	sd	s1,96(sp)

0000000080003954 <i_3506>:
    80003954:	00611803          	lh	a6,6(sp)

0000000080003958 <i_3507>:
    80003958:	04a11d03          	lh	s10,74(sp)

000000008000395c <i_3508>:
    8000395c:	16816403          	lwu	s0,360(sp)

0000000080003960 <i_3509>:
    80003960:	ec211c03          	lh	s8,-318(sp)

0000000080003964 <i_3510>:
    80003964:	028cdcbb          	divuw	s9,s9,s0

0000000080003968 <i_3511>:
    80003968:	018dad33          	slt	s10,s11,s8

000000008000396c <i_3512>:
    8000396c:	018cf863          	bleu	s8,s9,8000397c <i_3516>

0000000080003970 <i_3513>:
    80003970:	0ba12623          	sw	s10,172(sp)

0000000080003974 <i_3514>:
    80003974:	0189c263          	blt	s3,s8,80003978 <i_3515>

0000000080003978 <i_3515>:
    80003978:	039d7d3b          	remuw	s10,s10,s9

000000008000397c <i_3516>:
    8000397c:	03ad6263          	bltu	s10,s10,800039a0 <i_3525>

0000000080003980 <i_3517>:
    80003980:	0ef107a3          	sb	a5,239(sp)

0000000080003984 <i_3518>:
    80003984:	c82d6d13          	ori	s10,s10,-894

0000000080003988 <i_3519>:
    80003988:	039cbeb3          	mulhu	t4,s9,s9

000000008000398c <i_3520>:
    8000398c:	11610803          	lb	a6,278(sp)

0000000080003990 <i_3521>:
    80003990:	09d13423          	sd	t4,136(sp)

0000000080003994 <i_3522>:
    80003994:	402d0d3b          	subw	s10,s10,sp

0000000080003998 <i_3523>:
    80003998:	06514083          	lbu	ra,101(sp)

000000008000399c <i_3524>:
    8000399c:	1b910803          	lb	a6,441(sp)

00000000800039a0 <i_3525>:
    800039a0:	f6214e83          	lbu	t4,-158(sp)

00000000800039a4 <i_3526>:
    800039a4:	01074263          	blt	a4,a6,800039a8 <i_3527>

00000000800039a8 <i_3527>:
    800039a8:	f9c16e03          	lwu	t3,-100(sp)

00000000800039ac <i_3528>:
    800039ac:	03a9c9b3          	div	s3,s3,s10

00000000800039b0 <i_3529>:
    800039b0:	f4016503          	lwu	a0,-192(sp)

00000000800039b4 <i_3530>:
    800039b4:	03d0e463          	bltu	ra,t4,800039dc <i_3540>

00000000800039b8 <i_3531>:
    800039b8:	e5615303          	lhu	t1,-426(sp)

00000000800039bc <i_3532>:
    800039bc:	e7813203          	ld	tp,-392(sp)

00000000800039c0 <i_3533>:
    800039c0:	0042181b          	slliw	a6,tp,0x4

00000000800039c4 <i_3534>:
    800039c4:	01084533          	xor	a0,a6,a6

00000000800039c8 <i_3535>:
    800039c8:	faa13423          	sd	a0,-88(sp)

00000000800039cc <i_3536>:
    800039cc:	e8212223          	sw	sp,-380(sp)

00000000800039d0 <i_3537>:
    800039d0:	0013181b          	slliw	a6,t1,0x1

00000000800039d4 <i_3538>:
    800039d4:	01700813          	li	a6,23

00000000800039d8 <i_3539>:
    800039d8:	01081533          	sll	a0,a6,a6

00000000800039dc <i_3540>:
    800039dc:	16a12223          	sw	a0,356(sp)

00000000800039e0 <i_3541>:
    800039e0:	f7e12023          	sw	t5,-160(sp)

00000000800039e4 <i_3542>:
    800039e4:	00a84463          	blt	a6,a0,800039ec <i_3544>

00000000800039e8 <i_3543>:
    800039e8:	e6e10983          	lb	s3,-402(sp)

00000000800039ec <i_3544>:
    800039ec:	eb012223          	sw	a6,-348(sp)

00000000800039f0 <i_3545>:
    800039f0:	0109b533          	sltu	a0,s3,a6

00000000800039f4 <i_3546>:
    800039f4:	0039d513          	srli	a0,s3,0x3

00000000800039f8 <i_3547>:
    800039f8:	5616a9b7          	lui	s3,0x5616a

00000000800039fc <i_3548>:
    800039fc:	039e083b          	mulw	a6,t3,s9

0000000080003a00 <i_3549>:
    80003a00:	74256697          	auipc	a3,0x74256

0000000080003a04 <i_3550>:
    80003a04:	06816303          	lwu	t1,104(sp)

0000000080003a08 <i_3551>:
    80003a08:	0f013423          	sd	a6,232(sp)

0000000080003a0c <i_3552>:
    80003a0c:	401bd29b          	sraiw	t0,s7,0x1

0000000080003a10 <i_3553>:
    80003a10:	02a9f0bb          	remuw	ra,s3,a0

0000000080003a14 <i_3554>:
    80003a14:	1ca10fa3          	sb	a0,479(sp)

0000000080003a18 <i_3555>:
    80003a18:	1d010b23          	sb	a6,470(sp)

0000000080003a1c <i_3556>:
    80003a1c:	03300813          	li	a6,51

0000000080003a20 <i_3557>:
    80003a20:	0100dc33          	srl	s8,ra,a6

0000000080003a24 <i_3558>:
    80003a24:	0b013423          	sd	a6,168(sp)

0000000080003a28 <i_3559>:
    80003a28:	f2e82813          	slti	a6,a6,-210

0000000080003a2c <i_3560>:
    80003a2c:	f1011923          	sh	a6,-238(sp)

0000000080003a30 <i_3561>:
    80003a30:	ea013c03          	ld	s8,-352(sp)

0000000080003a34 <i_3562>:
    80003a34:	40485b93          	srai	s7,a6,0x4

0000000080003a38 <i_3563>:
    80003a38:	f1416583          	lwu	a1,-236(sp)

0000000080003a3c <i_3564>:
    80003a3c:	00015383          	lhu	t2,0(sp)

0000000080003a40 <i_3565>:
    80003a40:	e6713823          	sd	t2,-400(sp)

0000000080003a44 <i_3566>:
    80003a44:	00b5ee63          	bltu	a1,a1,80003a60 <i_3573>

0000000080003a48 <i_3567>:
    80003a48:	f2e14483          	lbu	s1,-210(sp)

0000000080003a4c <i_3568>:
    80003a4c:	e9a15683          	lhu	a3,-358(sp)

0000000080003a50 <i_3569>:
    80003a50:	403ede93          	srai	t4,t4,0x3

0000000080003a54 <i_3570>:
    80003a54:	01148eb3          	add	t4,s1,a7

0000000080003a58 <i_3571>:
    80003a58:	fdc15e83          	lhu	t4,-36(sp)

0000000080003a5c <i_3572>:
    80003a5c:	ead11b23          	sh	a3,-330(sp)

0000000080003a60 <i_3573>:
    80003a60:	03de86bb          	mulw	a3,t4,t4

0000000080003a64 <i_3574>:
    80003a64:	11d10723          	sb	t4,270(sp)

0000000080003a68 <i_3575>:
    80003a68:	1ad10523          	sb	a3,426(sp)

0000000080003a6c <i_3576>:
    80003a6c:	02dee6b3          	rem	a3,t4,a3

0000000080003a70 <i_3577>:
    80003a70:	01300693          	li	a3,19

0000000080003a74 <i_3578>:
    80003a74:	00d393bb          	sllw	t2,t2,a3

0000000080003a78 <i_3579>:
    80003a78:	14c16683          	lwu	a3,332(sp)

0000000080003a7c <i_3580>:
    80003a7c:	0026939b          	slliw	t2,a3,0x2

0000000080003a80 <i_3581>:
    80003a80:	0273f463          	bleu	t2,t2,80003aa8 <i_3591>

0000000080003a84 <i_3582>:
    80003a84:	0016db93          	srli	s7,a3,0x1

0000000080003a88 <i_3583>:
    80003a88:	14d11c23          	sh	a3,344(sp)

0000000080003a8c <i_3584>:
    80003a8c:	03a11603          	lh	a2,58(sp)

0000000080003a90 <i_3585>:
    80003a90:	f8013683          	ld	a3,-128(sp)

0000000080003a94 <i_3586>:
    80003a94:	00c6c263          	blt	a3,a2,80003a98 <i_3587>

0000000080003a98 <i_3587>:
    80003a98:	01cb9e63          	bne	s7,t3,80003ab4 <i_3594>

0000000080003a9c <i_3588>:
    80003a9c:	00eb9a63          	bne	s7,a4,80003ab0 <i_3593>

0000000080003aa0 <i_3589>:
    80003aa0:	efb12e23          	sw	s11,-260(sp)

0000000080003aa4 <i_3590>:
    80003aa4:	eb7103a3          	sb	s7,-345(sp)

0000000080003aa8 <i_3591>:
    80003aa8:	037bdbb3          	divu	s7,s7,s7

0000000080003aac <i_3592>:
    80003aac:	00d95a63          	ble	a3,s2,80003ac0 <i_3597>

0000000080003ab0 <i_3593>:
    80003ab0:	e3b10e83          	lb	t4,-453(sp)

0000000080003ab4 <i_3594>:
    80003ab4:	f4412b83          	lw	s7,-188(sp)

0000000080003ab8 <i_3595>:
    80003ab8:	12910b83          	lb	s7,297(sp)

0000000080003abc <i_3596>:
    80003abc:	02700313          	li	t1,39

0000000080003ac0 <i_3597>:
    80003ac0:	006e96b3          	sll	a3,t4,t1

0000000080003ac4 <i_3598>:
    80003ac4:	006d1663          	bne	s10,t1,80003ad0 <i_3601>

0000000080003ac8 <i_3599>:
    80003ac8:	17d10f23          	sb	t4,382(sp)

0000000080003acc <i_3600>:
    80003acc:	f8a15e83          	lhu	t4,-118(sp)

0000000080003ad0 <i_3601>:
    80003ad0:	01deda63          	ble	t4,t4,80003ae4 <i_3606>

0000000080003ad4 <i_3602>:
    80003ad4:	01aea1b3          	slt	gp,t4,s10

0000000080003ad8 <i_3603>:
    80003ad8:	002e9d9b          	slliw	s11,t4,0x2

0000000080003adc <i_3604>:
    80003adc:	00d68e63          	beq	a3,a3,80003af8 <i_3611>

0000000080003ae0 <i_3605>:
    80003ae0:	13c16d03          	lwu	s10,316(sp)

0000000080003ae4 <i_3606>:
    80003ae4:	02311523          	sh	gp,42(sp)

0000000080003ae8 <i_3607>:
    80003ae8:	f1b12223          	sw	s11,-252(sp)

0000000080003aec <i_3608>:
    80003aec:	40318e33          	sub	t3,gp,gp

0000000080003af0 <i_3609>:
    80003af0:	c83e6193          	ori	gp,t3,-893

0000000080003af4 <i_3610>:
    80003af4:	01c1ce63          	blt	gp,t3,80003b10 <i_3617>

0000000080003af8 <i_3611>:
    80003af8:	0c313023          	sd	gp,192(sp)

0000000080003afc <i_3612>:
    80003afc:	00c16283          	lwu	t0,12(sp)

0000000080003b00 <i_3613>:
    80003b00:	e7611783          	lh	a5,-394(sp)

0000000080003b04 <i_3614>:
    80003b04:	13814983          	lbu	s3,312(sp)

0000000080003b08 <i_3615>:
    80003b08:	e5a13c23          	sd	s10,-424(sp)

0000000080003b0c <i_3616>:
    80003b0c:	f0f13023          	sd	a5,-256(sp)

0000000080003b10 <i_3617>:
    80003b10:	036d7b3b          	remuw	s6,s10,s6

0000000080003b14 <i_3618>:
    80003b14:	19310b23          	sb	s3,406(sp)

0000000080003b18 <i_3619>:
    80003b18:	78000293          	li	t0,1920

0000000080003b1c <i_3620>:
    80003b1c:	78800b93          	li	s7,1928

0000000080003b20 <i_3621>:
    80003b20:	03900993          	li	s3,57

0000000080003b24 <i_3622>:
    80003b24:	0132d1b3          	srl	gp,t0,s3

0000000080003b28 <i_3623>:
    80003b28:	0d811983          	lh	s3,216(sp)

0000000080003b2c <i_3624>:
    80003b2c:	01220863          	beq	tp,s2,80003b3c <i_3628>

0000000080003b30 <i_3625>:
    80003b30:	023b59b3          	divu	s3,s6,gp

0000000080003b34 <i_3626>:
    80003b34:	02813203          	ld	tp,40(sp)

0000000080003b38 <i_3627>:
    80003b38:	0011db1b          	srliw	s6,gp,0x1

0000000080003b3c <i_3628>:
    80003b3c:	003b29b3          	slt	s3,s6,gp

0000000080003b40 <i_3629>:
    80003b40:	023b7663          	bleu	gp,s6,80003b6c <i_3639>

0000000080003b44 <i_3630>:
    80003b44:	00128293          	addi	t0,t0,1 # ffffffff8f9b1001 <_end+0xffffffff0f9a0bed>
    80003b48:	fd72cce3          	blt	t0,s7,80003b20 <i_3621>

0000000080003b4c <i_3631>:
    80003b4c:	0231e1bb          	remw	gp,gp,gp

0000000080003b50 <i_3632>:
    80003b50:	02a55533          	divu	a0,a0,a0

0000000080003b54 <i_3633>:
    80003b54:	0d412183          	lw	gp,212(sp)

0000000080003b58 <i_3634>:
    80003b58:	eda11503          	lh	a0,-294(sp)

0000000080003b5c <i_3635>:
    80003b5c:	18816503          	lwu	a0,392(sp)

0000000080003b60 <i_3636>:
    80003b60:	02100813          	li	a6,33

0000000080003b64 <i_3637>:
    80003b64:	01051533          	sll	a0,a0,a6

0000000080003b68 <i_3638>:
    80003b68:	0043d39b          	srliw	t2,t2,0x4

0000000080003b6c <i_3639>:
    80003b6c:	e9813203          	ld	tp,-360(sp)

0000000080003b70 <i_3640>:
    80003b70:	eb6519b7          	lui	s3,0xeb651

0000000080003b74 <i_3641>:
    80003b74:	79100b93          	li	s7,1937

0000000080003b78 <i_3642>:
    80003b78:	79300193          	li	gp,1939

0000000080003b7c <i_3643>:
    80003b7c:	0173cdb3          	xor	s11,t2,s7

0000000080003b80 <i_3644>:
    80003b80:	03d99eb3          	mulh	t4,s3,t4

0000000080003b84 <i_3645>:
    80003b84:	026edebb          	divuw	t4,t4,t1

0000000080003b88 <i_3646>:
    80003b88:	01decc63          	blt	t4,t4,80003ba0 <i_3651>

0000000080003b8c <i_3647>:
    80003b8c:	001b8b93          	addi	s7,s7,1
    80003b90:	ff71f6e3          	bleu	s7,gp,80003b7c <i_3643>

0000000080003b94 <i_3648>:
    80003b94:	e2215e83          	lhu	t4,-478(sp)

0000000080003b98 <i_3649>:
    80003b98:	13815683          	lhu	a3,312(sp)

0000000080003b9c <i_3650>:
    80003b9c:	02de8eb3          	mul	t4,t4,a3

0000000080003ba0 <i_3651>:
    80003ba0:	01dafab3          	and	s5,s5,t4

0000000080003ba4 <i_3652>:
    80003ba4:	f1813403          	ld	s0,-232(sp)

0000000080003ba8 <i_3653>:
    80003ba8:	0086f863          	bleu	s0,a3,80003bb8 <i_3657>

0000000080003bac <i_3654>:
    80003bac:	eede869b          	addiw	a3,t4,-275

0000000080003bb0 <i_3655>:
    80003bb0:	e4813e83          	ld	t4,-440(sp)

0000000080003bb4 <i_3656>:
    80003bb4:	0dd13c23          	sd	t4,216(sp)

0000000080003bb8 <i_3657>:
    80003bb8:	02843433          	mulhu	s0,s0,s0

0000000080003bbc <i_3658>:
    80003bbc:	03d40eb3          	mul	t4,s0,t4

0000000080003bc0 <i_3659>:
    80003bc0:	0e812023          	sw	s0,224(sp)

0000000080003bc4 <i_3660>:
    80003bc4:	03dec2b3          	div	t0,t4,t4

0000000080003bc8 <i_3661>:
    80003bc8:	001e9e9b          	slliw	t4,t4,0x1

0000000080003bcc <i_3662>:
    80003bcc:	dc728413          	addi	s0,t0,-569

0000000080003bd0 <i_3663>:
    80003bd0:	4a540e9b          	addiw	t4,s0,1189

0000000080003bd4 <i_3664>:
    80003bd4:	002e9e93          	slli	t4,t4,0x2

0000000080003bd8 <i_3665>:
    80003bd8:	e98ee193          	ori	gp,t4,-360

0000000080003bdc <i_3666>:
    80003bdc:	03221263          	bne	tp,s2,80003c00 <i_3675>

0000000080003be0 <i_3667>:
    80003be0:	01800493          	li	s1,24

0000000080003be4 <i_3668>:
    80003be4:	0097ddbb          	srlw	s11,a5,s1

0000000080003be8 <i_3669>:
    80003be8:	957d819b          	addiw	gp,s11,-1705

0000000080003bec <i_3670>:
    80003bec:	fd314483          	lbu	s1,-45(sp)

0000000080003bf0 <i_3671>:
    80003bf0:	01d4fe63          	bleu	t4,s1,80003c0c <i_3678>

0000000080003bf4 <i_3672>:
    80003bf4:	18313823          	sd	gp,400(sp)

0000000080003bf8 <i_3673>:
    80003bf8:	fe911d23          	sh	s1,-6(sp)

0000000080003bfc <i_3674>:
    80003bfc:	e7810c03          	lb	s8,-392(sp)

0000000080003c00 <i_3675>:
    80003c00:	03b00213          	li	tp,59

0000000080003c04 <i_3676>:
    80003c04:	0041d233          	srl	tp,gp,tp

0000000080003c08 <i_3677>:
    80003c08:	00000013          	nop

0000000080003c0c <i_3678>:
    80003c0c:	03813c23          	sd	s8,56(sp)

0000000080003c10 <i_3679>:
    80003c10:	e6016083          	lwu	ra,-416(sp)

0000000080003c14 <i_3680>:
    80003c14:	8c800193          	li	gp,-1848

0000000080003c18 <i_3681>:
    80003c18:	8d100493          	li	s1,-1839

0000000080003c1c <i_3682>:
    80003c1c:	13110c03          	lb	s8,305(sp)

0000000080003c20 <i_3683>:
    80003c20:	4d20b313          	sltiu	t1,ra,1234

0000000080003c24 <i_3684>:
    80003c24:	00ac7663          	bleu	a0,s8,80003c30 <i_3687>

0000000080003c28 <i_3685>:
    80003c28:	018be863          	bltu	s7,s8,80003c38 <i_3689>

0000000080003c2c <i_3686>:
    80003c2c:	00408e33          	add	t3,ra,tp

0000000080003c30 <i_3687>:
    80003c30:	fa510c03          	lb	s8,-91(sp)

0000000080003c34 <i_3688>:
    80003c34:	026e3333          	mulhu	t1,t3,t1

0000000080003c38 <i_3689>:
    80003c38:	0b412b83          	lw	s7,180(sp)

0000000080003c3c <i_3690>:
    80003c3c:	002b929b          	slliw	t0,s7,0x2

0000000080003c40 <i_3691>:
    80003c40:	e8511e23          	sh	t0,-356(sp)

0000000080003c44 <i_3692>:
    80003c44:	00118193          	addi	gp,gp,1
    80003c48:	fc91cae3          	blt	gp,s1,80003c1c <i_3682>

0000000080003c4c <i_3693>:
    80003c4c:	01ca1863          	bne	s4,t3,80003c5c <i_3697>

0000000080003c50 <i_3694>:
    80003c50:	f7015783          	lhu	a5,-144(sp)

0000000080003c54 <i_3695>:
    80003c54:	07c13c23          	sd	t3,120(sp)

0000000080003c58 <i_3696>:
    80003c58:	014e4263          	blt	t3,s4,80003c5c <i_3697>

0000000080003c5c <i_3697>:
    80003c5c:	00900a93          	li	s5,9

0000000080003c60 <i_3698>:
    80003c60:	015b9e3b          	sllw	t3,s7,s5

0000000080003c64 <i_3699>:
    80003c64:	08f101a3          	sb	a5,131(sp)

0000000080003c68 <i_3700>:
    80003c68:	039e6263          	bltu	t3,s9,80003c8c <i_3709>

0000000080003c6c <i_3701>:
    80003c6c:	07712c23          	sw	s7,120(sp)

0000000080003c70 <i_3702>:
    80003c70:	07813783          	ld	a5,120(sp)

0000000080003c74 <i_3703>:
    80003c74:	0ab12623          	sw	a1,172(sp)

0000000080003c78 <i_3704>:
    80003c78:	fbc16783          	lwu	a5,-68(sp)

0000000080003c7c <i_3705>:
    80003c7c:	e6b101a3          	sb	a1,-413(sp)

0000000080003c80 <i_3706>:
    80003c80:	15012223          	sw	a6,324(sp)

0000000080003c84 <i_3707>:
    80003c84:	f2812023          	sw	s0,-224(sp)

0000000080003c88 <i_3708>:
    80003c88:	08b10423          	sb	a1,136(sp)

0000000080003c8c <i_3709>:
    80003c8c:	f2510983          	lb	s3,-219(sp)

0000000080003c90 <i_3710>:
    80003c90:	030a59bb          	divuw	s3,s4,a6

0000000080003c94 <i_3711>:
    80003c94:	7dc00813          	li	a6,2012

0000000080003c98 <i_3712>:
    80003c98:	7e800593          	li	a1,2024

0000000080003c9c <i_3713>:
    80003c9c:	00ba5e63          	ble	a1,s4,80003cb8 <i_3719>

0000000080003ca0 <i_3714>:
    80003ca0:	00180813          	addi	a6,a6,1
    80003ca4:	feb86ce3          	bltu	a6,a1,80003c9c <i_3713>

0000000080003ca8 <i_3715>:
    80003ca8:	11c12383          	lw	t2,284(sp)

0000000080003cac <i_3716>:
    80003cac:	00780a33          	add	s4,a6,t2

0000000080003cb0 <i_3717>:
    80003cb0:	00000013          	nop

0000000080003cb4 <i_3718>:
    80003cb4:	f0a14a03          	lbu	s4,-246(sp)

0000000080003cb8 <i_3719>:
    80003cb8:	f2813a03          	ld	s4,-216(sp)

0000000080003cbc <i_3720>:
    80003cbc:	034a2eb3          	mulhsu	t4,s4,s4

0000000080003cc0 <i_3721>:
    80003cc0:	78200313          	li	t1,1922

0000000080003cc4 <i_3722>:
    80003cc4:	79000f13          	li	t5,1936

0000000080003cc8 <i_3723>:
    80003cc8:	034a6a33          	rem	s4,s4,s4

0000000080003ccc <i_3724>:
    80003ccc:	1af14803          	lbu	a6,431(sp)

0000000080003cd0 <i_3725>:
    80003cd0:	f1416e83          	lwu	t4,-236(sp)

0000000080003cd4 <i_3726>:
    80003cd4:	00c00b93          	li	s7,12

0000000080003cd8 <i_3727>:
    80003cd8:	017a1c33          	sll	s8,s4,s7

0000000080003cdc <i_3728>:
    80003cdc:	e8013783          	ld	a5,-384(sp)

0000000080003ce0 <i_3729>:
    80003ce0:	00130313          	addi	t1,t1,1 # ffffffffee943001 <_end+0xffffffff6e932bed>
    80003ce4:	ffe342e3          	blt	t1,t5,80003cc8 <i_3723>

0000000080003ce8 <i_3730>:
    80003ce8:	07810ca3          	sb	s8,121(sp)

0000000080003cec <i_3731>:
    80003cec:	00000013          	nop

0000000080003cf0 <i_3732>:
    80003cf0:	00000013          	nop

0000000080003cf4 <i_3733>:
    80003cf4:	88600b93          	li	s7,-1914

0000000080003cf8 <i_3734>:
    80003cf8:	88d00793          	li	a5,-1907

0000000080003cfc <i_3735>:
    80003cfc:	010be463          	bltu	s7,a6,80003d04 <i_3737>

0000000080003d00 <i_3736>:
    80003d00:	01d7e663          	bltu	a5,t4,80003d0c <i_3739>

0000000080003d04 <i_3737>:
    80003d04:	00000013          	nop

0000000080003d08 <i_3738>:
    80003d08:	04613423          	sd	t1,72(sp)

0000000080003d0c <i_3739>:
    80003d0c:	02016e03          	lwu	t3,32(sp)

0000000080003d10 <i_3740>:
    80003d10:	01812683          	lw	a3,24(sp)

0000000080003d14 <i_3741>:
    80003d14:	401bdc13          	srai	s8,s7,0x1

0000000080003d18 <i_3742>:
    80003d18:	798bba13          	sltiu	s4,s7,1944

0000000080003d1c <i_3743>:
    80003d1c:	026c4333          	div	t1,s8,t1

0000000080003d20 <i_3744>:
    80003d20:	001b8b93          	addi	s7,s7,1
    80003d24:	fcfb9ce3          	bne	s7,a5,80003cfc <i_3735>

0000000080003d28 <i_3745>:
    80003d28:	e5013b03          	ld	s6,-432(sp)

0000000080003d2c <i_3746>:
    80003d2c:	037be263          	bltu	s7,s7,80003d50 <i_3755>

0000000080003d30 <i_3747>:
    80003d30:	e9013b83          	ld	s7,-368(sp)

0000000080003d34 <i_3748>:
    80003d34:	36ae7317          	auipc	t1,0x36ae7

0000000080003d38 <i_3749>:
    80003d38:	18615b03          	lhu	s6,390(sp)

0000000080003d3c <i_3750>:
    80003d3c:	00000013          	nop

0000000080003d40 <i_3751>:
    80003d40:	f5013c83          	ld	s9,-176(sp)

0000000080003d44 <i_3752>:
    80003d44:	039c9b33          	mulh	s6,s9,s9

0000000080003d48 <i_3753>:
    80003d48:	00000013          	nop

0000000080003d4c <i_3754>:
    80003d4c:	e5611e23          	sh	s6,-420(sp)

0000000080003d50 <i_3755>:
    80003d50:	01ab7d33          	and	s10,s6,s10

0000000080003d54 <i_3756>:
    80003d54:	016cf7b3          	and	a5,s9,s6

0000000080003d58 <i_3757>:
    80003d58:	76200313          	li	t1,1890

0000000080003d5c <i_3758>:
    80003d5c:	76b00b93          	li	s7,1899

0000000080003d60 <i_3759>:
    80003d60:	f4211683          	lh	a3,-190(sp)

0000000080003d64 <i_3760>:
    80003d64:	39b8cb13          	xori	s6,a7,923

0000000080003d68 <i_3761>:
    80003d68:	e3e15803          	lhu	a6,-450(sp)

0000000080003d6c <i_3762>:
    80003d6c:	00130313          	addi	t1,t1,1 # b6aead35 <_end+0x36ada921>
    80003d70:	ff7348e3          	blt	t1,s7,80003d60 <i_3759>

0000000080003d74 <i_3763>:
    80003d74:	ee813b03          	ld	s6,-280(sp)

0000000080003d78 <i_3764>:
    80003d78:	025b72bb          	remuw	t0,s6,t0

0000000080003d7c <i_3765>:
    80003d7c:	016b1a63          	bne	s6,s6,80003d90 <i_3770>

0000000080003d80 <i_3766>:
    80003d80:	fec12603          	lw	a2,-20(sp)

0000000080003d84 <i_3767>:
    80003d84:	82e3c093          	xori	ra,t2,-2002

0000000080003d88 <i_3768>:
    80003d88:	0cc14083          	lbu	ra,204(sp)

0000000080003d8c <i_3769>:
    80003d8c:	e5a11983          	lh	s3,-422(sp)

0000000080003d90 <i_3770>:
    80003d90:	0e013083          	ld	ra,224(sp)

0000000080003d94 <i_3771>:
    80003d94:	bb166213          	ori	tp,a2,-1103

0000000080003d98 <i_3772>:
    80003d98:	f0011083          	lh	ra,-256(sp)

0000000080003d9c <i_3773>:
    80003d9c:	004080b3          	add	ra,ra,tp

0000000080003da0 <i_3774>:
    80003da0:	1e1100a3          	sb	ra,481(sp)

0000000080003da4 <i_3775>:
    80003da4:	17211983          	lh	s3,370(sp)

0000000080003da8 <i_3776>:
    80003da8:	03100313          	li	t1,49

0000000080003dac <i_3777>:
    80003dac:	00625633          	srl	a2,tp,t1

0000000080003db0 <i_3778>:
    80003db0:	4020d31b          	sraiw	t1,ra,0x2

0000000080003db4 <i_3779>:
    80003db4:	02c09063          	bne	ra,a2,80003dd4 <i_3787>

0000000080003db8 <i_3780>:
    80003db8:	e0740313          	addi	t1,s0,-505 # ffffffffef530e07 <_end+0xffffffff6f5209f3>

0000000080003dbc <i_3781>:
    80003dbc:	0b910203          	lb	tp,185(sp)

0000000080003dc0 <i_3782>:
    80003dc0:	16413023          	sd	tp,352(sp)

0000000080003dc4 <i_3783>:
    80003dc4:	53e91b97          	auipc	s7,0x53e91

0000000080003dc8 <i_3784>:
    80003dc8:	0c413423          	sd	tp,200(sp)

0000000080003dcc <i_3785>:
    80003dcc:	01764e63          	blt	a2,s7,80003de8 <i_3792>

0000000080003dd0 <i_3786>:
    80003dd0:	0171de63          	ble	s7,gp,80003dec <i_3793>

0000000080003dd4 <i_3787>:
    80003dd4:	84a53237          	lui	tp,0x84a53

0000000080003dd8 <i_3788>:
    80003dd8:	01900093          	li	ra,25

0000000080003ddc <i_3789>:
    80003ddc:	4010d9bb          	sraw	s3,ra,ra

0000000080003de0 <i_3790>:
    80003de0:	0260d463          	ble	t1,ra,80003e08 <i_3800>

0000000080003de4 <i_3791>:
    80003de4:	00661e63          	bne	a2,t1,80003e00 <i_3798>

0000000080003de8 <i_3792>:
    80003de8:	0089dc63          	ble	s0,s3,80003e00 <i_3798>

0000000080003dec <i_3793>:
    80003dec:	fbe15503          	lhu	a0,-66(sp)

0000000080003df0 <i_3794>:
    80003df0:	0ac10c83          	lb	s9,172(sp)

0000000080003df4 <i_3795>:
    80003df4:	02dbe063          	bltu	s7,a3,80003e14 <i_3803>

0000000080003df8 <i_3796>:
    80003df8:	030083b3          	mul	t2,ra,a6

0000000080003dfc <i_3797>:
    80003dfc:	0ad10983          	lb	s3,173(sp)

0000000080003e00 <i_3798>:
    80003e00:	1b314e83          	lbu	t4,435(sp)

0000000080003e04 <i_3799>:
    80003e04:	026be9b3          	rem	s3,s7,t1

0000000080003e08 <i_3800>:
    80003e08:	e9c12d83          	lw	s11,-356(sp)

0000000080003e0c <i_3801>:
    80003e0c:	03d0f9bb          	remuw	s3,ra,t4

0000000080003e10 <i_3802>:
    80003e10:	1bc12803          	lw	a6,444(sp)

0000000080003e14 <i_3803>:
    80003e14:	00000013          	nop

0000000080003e18 <i_3804>:
    80003e18:	02a9f53b          	remuw	a0,s3,a0

0000000080003e1c <i_3805>:
    80003e1c:	7b500193          	li	gp,1973

0000000080003e20 <i_3806>:
    80003e20:	7c200b93          	li	s7,1986

0000000080003e24 <i_3807>:
    80003e24:	033dc063          	blt	s11,s3,80003e44 <i_3814>

0000000080003e28 <i_3808>:
    80003e28:	ec710323          	sb	t2,-314(sp)

0000000080003e2c <i_3809>:
    80003e2c:	00118193          	addi	gp,gp,1
    80003e30:	fe3b9ae3          	bne	s7,gp,80003e24 <i_3807>

0000000080003e34 <i_3810>:
    80003e34:	e8812983          	lw	s3,-376(sp)

0000000080003e38 <i_3811>:
    80003e38:	030b9063          	bne	s7,a6,80003e58 <i_3819>

0000000080003e3c <i_3812>:
    80003e3c:	fcc12383          	lw	t2,-52(sp)

0000000080003e40 <i_3813>:
    80003e40:	1ac11983          	lh	s3,428(sp)

0000000080003e44 <i_3814>:
    80003e44:	01600393          	li	t2,22

0000000080003e48 <i_3815>:
    80003e48:	00785b33          	srl	s6,a6,t2

0000000080003e4c <i_3816>:
    80003e4c:	ef612a23          	sw	s6,-268(sp)

0000000080003e50 <i_3817>:
    80003e50:	00185493          	srli	s1,a6,0x1

0000000080003e54 <i_3818>:
    80003e54:	00485813          	srli	a6,a6,0x4

0000000080003e58 <i_3819>:
    80003e58:	0cc16803          	lwu	a6,204(sp)

0000000080003e5c <i_3820>:
    80003e5c:	001b1b13          	slli	s6,s6,0x1

0000000080003e60 <i_3821>:
    80003e60:	ff612423          	sw	s6,-24(sp)

0000000080003e64 <i_3822>:
    80003e64:	01649263          	bne	s1,s6,80003e68 <i_3823>

0000000080003e68 <i_3823>:
    80003e68:	fdc15803          	lhu	a6,-36(sp)

0000000080003e6c <i_3824>:
    80003e6c:	00648663          	beq	s1,t1,80003e78 <i_3827>

0000000080003e70 <i_3825>:
    80003e70:	0014d493          	srli	s1,s1,0x1

0000000080003e74 <i_3826>:
    80003e74:	03685b3b          	divuw	s6,a6,s6

0000000080003e78 <i_3827>:
    80003e78:	036b00bb          	mulw	ra,s6,s6

0000000080003e7c <i_3828>:
    80003e7c:	e6211303          	lh	t1,-414(sp)

0000000080003e80 <i_3829>:
    80003e80:	02109633          	mulh	a2,ra,ra

0000000080003e84 <i_3830>:
    80003e84:	016b4633          	xor	a2,s6,s6

0000000080003e88 <i_3831>:
    80003e88:	021b5833          	divu	a6,s6,ra

0000000080003e8c <i_3832>:
    80003e8c:	0b013c83          	ld	s9,176(sp)

0000000080003e90 <i_3833>:
    80003e90:	002d4a63          	blt	s10,sp,80003ea4 <i_3838>

0000000080003e94 <i_3834>:
    80003e94:	013b4e63          	blt	s6,s3,80003eb0 <i_3841>

0000000080003e98 <i_3835>:
    80003e98:	09010a03          	lb	s4,144(sp)

0000000080003e9c <i_3836>:
    80003e9c:	013ccc63          	blt	s9,s3,80003eb4 <i_3842>

0000000080003ea0 <i_3837>:
    80003ea0:	ef19ec93          	ori	s9,s3,-271

0000000080003ea4 <i_3838>:
    80003ea4:	0332f463          	bleu	s3,t0,80003ecc <i_3848>

0000000080003ea8 <i_3839>:
    80003ea8:	08011b83          	lh	s7,128(sp)

0000000080003eac <i_3840>:
    80003eac:	40135993          	srai	s3,t1,0x1

0000000080003eb0 <i_3841>:
    80003eb0:	001bd993          	srli	s3,s7,0x1

0000000080003eb4 <i_3842>:
    80003eb4:	77cb8b37          	lui	s6,0x77cb8

0000000080003eb8 <i_3843>:
    80003eb8:	0339c463          	blt	s3,s3,80003ee0 <i_3853>

0000000080003ebc <i_3844>:
    80003ebc:	e5c11923          	sh	t3,-430(sp)

0000000080003ec0 <i_3845>:
    80003ec0:	023b5063          	ble	gp,s6,80003ee0 <i_3853>

0000000080003ec4 <i_3846>:
    80003ec4:	15313423          	sd	s3,328(sp)

0000000080003ec8 <i_3847>:
    80003ec8:	14416983          	lwu	s3,324(sp)

0000000080003ecc <i_3848>:
    80003ecc:	08d1a193          	slti	gp,gp,141

0000000080003ed0 <i_3849>:
    80003ed0:	0031edb3          	or	s11,gp,gp

0000000080003ed4 <i_3850>:
    80003ed4:	15612223          	sw	s6,324(sp)

0000000080003ed8 <i_3851>:
    80003ed8:	0141d863          	ble	s4,gp,80003ee8 <i_3855>

0000000080003edc <i_3852>:
    80003edc:	02fb2b33          	mulhsu	s6,s6,a5

0000000080003ee0 <i_3853>:
    80003ee0:	19b11923          	sh	s11,402(sp)

0000000080003ee4 <i_3854>:
    80003ee4:	036b6b3b          	remw	s6,s6,s6

0000000080003ee8 <i_3855>:
    80003ee8:	023b5263          	ble	gp,s6,80003f0c <i_3864>

0000000080003eec <i_3856>:
    80003eec:	fa412383          	lw	t2,-92(sp)

0000000080003ef0 <i_3857>:
    80003ef0:	027b5063          	ble	t2,s6,80003f10 <i_3865>

0000000080003ef4 <i_3858>:
    80003ef4:	02489233          	mulh	tp,a7,tp

0000000080003ef8 <i_3859>:
    80003ef8:	05611323          	sh	s6,70(sp)

0000000080003efc <i_3860>:
    80003efc:	03b08063          	beq	ra,s11,80003f1c <i_3868>

0000000080003f00 <i_3861>:
    80003f00:	00011e83          	lh	t4,0(sp)

0000000080003f04 <i_3862>:
    80003f04:	f3812a83          	lw	s5,-200(sp)

0000000080003f08 <i_3863>:
    80003f08:	035d7063          	bleu	s5,s10,80003f28 <i_3871>

0000000080003f0c <i_3864>:
    80003f0c:	01016a83          	lwu	s5,16(sp)

0000000080003f10 <i_3865>:
    80003f10:	0161ec63          	bltu	gp,s6,80003f28 <i_3871>

0000000080003f14 <i_3866>:
    80003f14:	00235e13          	srli	t3,t1,0x2

0000000080003f18 <i_3867>:
    80003f18:	030e5263          	ble	a6,t3,80003f3c <i_3876>

0000000080003f1c <i_3868>:
    80003f1c:	03eb4463          	blt	s6,t5,80003f44 <i_3878>

0000000080003f20 <i_3869>:
    80003f20:	4ecef793          	andi	a5,t4,1260

0000000080003f24 <i_3870>:
    80003f24:	04b10b83          	lb	s7,75(sp)

0000000080003f28 <i_3871>:
    80003f28:	01adfc63          	bleu	s10,s11,80003f40 <i_3877>

0000000080003f2c <i_3872>:
    80003f2c:	686f1397          	auipc	t2,0x686f1

0000000080003f30 <i_3873>:
    80003f30:	01600393          	li	t2,22

0000000080003f34 <i_3874>:
    80003f34:	4077ddbb          	sraw	s11,a5,t2

0000000080003f38 <i_3875>:
    80003f38:	02015283          	lhu	t0,32(sp)

0000000080003f3c <i_3876>:
    80003f3c:	03d1ad33          	mulhsu	s10,gp,t4

0000000080003f40 <i_3877>:
    80003f40:	12410b03          	lb	s6,292(sp)

0000000080003f44 <i_3878>:
    80003f44:	401dd29b          	sraiw	t0,s11,0x1

0000000080003f48 <i_3879>:
    80003f48:	03dd7ebb          	remuw	t4,s10,t4

0000000080003f4c <i_3880>:
    80003f4c:	003e9e93          	slli	t4,t4,0x3

0000000080003f50 <i_3881>:
    80003f50:	01d12c23          	sw	t4,24(sp)

0000000080003f54 <i_3882>:
    80003f54:	06416383          	lwu	t2,100(sp)

0000000080003f58 <i_3883>:
    80003f58:	027102b3          	mul	t0,sp,t2

0000000080003f5c <i_3884>:
    80003f5c:	03013583          	ld	a1,48(sp)

0000000080003f60 <i_3885>:
    80003f60:	13816d03          	lwu	s10,312(sp)

0000000080003f64 <i_3886>:
    80003f64:	01a5c463          	blt	a1,s10,80003f6c <i_3888>

0000000080003f68 <i_3887>:
    80003f68:	0cb13823          	sd	a1,208(sp)

0000000080003f6c <i_3888>:
    80003f6c:	515d7d13          	andi	s10,s10,1301

0000000080003f70 <i_3889>:
    80003f70:	cc7a2613          	slti	a2,s4,-825

0000000080003f74 <i_3890>:
    80003f74:	ce766793          	ori	a5,a2,-793

0000000080003f78 <i_3891>:
    80003f78:	03065833          	divu	a6,a2,a6

0000000080003f7c <i_3892>:
    80003f7c:	01012c23          	sw	a6,24(sp)

0000000080003f80 <i_3893>:
    80003f80:	d338881b          	addiw	a6,a7,-717

0000000080003f84 <i_3894>:
    80003f84:	eb010323          	sb	a6,-346(sp)

0000000080003f88 <i_3895>:
    80003f88:	ed013e03          	ld	t3,-304(sp)

0000000080003f8c <i_3896>:
    80003f8c:	01de0e63          	beq	t3,t4,80003fa8 <i_3903>

0000000080003f90 <i_3897>:
    80003f90:	ec615e03          	lhu	t3,-314(sp)

0000000080003f94 <i_3898>:
    80003f94:	cc7e3813          	sltiu	a6,t3,-825

0000000080003f98 <i_3899>:
    80003f98:	01a863b3          	or	t2,a6,s10

0000000080003f9c <i_3900>:
    80003f9c:	02012c03          	lw	s8,32(sp)

0000000080003fa0 <i_3901>:
    80003fa0:	18014d03          	lbu	s10,384(sp)

0000000080003fa4 <i_3902>:
    80003fa4:	f3813a03          	ld	s4,-200(sp)

0000000080003fa8 <i_3903>:
    80003fa8:	01cbe863          	bltu	s7,t3,80003fb8 <i_3907>

0000000080003fac <i_3904>:
    80003fac:	03413823          	sd	s4,48(sp)

0000000080003fb0 <i_3905>:
    80003fb0:	034a5eb3          	divu	t4,s4,s4

0000000080003fb4 <i_3906>:
    80003fb4:	09416c03          	lwu	s8,148(sp)

0000000080003fb8 <i_3907>:
    80003fb8:	1b013383          	ld	t2,432(sp)

0000000080003fbc <i_3908>:
    80003fbc:	15d10f23          	sb	t4,350(sp)

0000000080003fc0 <i_3909>:
    80003fc0:	1fc10123          	sb	t3,482(sp)

0000000080003fc4 <i_3910>:
    80003fc4:	1a710423          	sb	t2,424(sp)

0000000080003fc8 <i_3911>:
    80003fc8:	13813023          	sd	s8,288(sp)

0000000080003fcc <i_3912>:
    80003fcc:	fd310e03          	lb	t3,-45(sp)

0000000080003fd0 <i_3913>:
    80003fd0:	08412b83          	lw	s7,132(sp)

0000000080003fd4 <i_3914>:
    80003fd4:	e3f14803          	lbu	a6,-449(sp)

0000000080003fd8 <i_3915>:
    80003fd8:	03839263          	bne	t2,s8,80003ffc <i_3924>

0000000080003fdc <i_3916>:
    80003fdc:	988bcf13          	xori	t5,s7,-1656

0000000080003fe0 <i_3917>:
    80003fe0:	01b00693          	li	a3,27

0000000080003fe4 <i_3918>:
    80003fe4:	40d3dc3b          	sraw	s8,t2,a3

0000000080003fe8 <i_3919>:
    80003fe8:	fac13823          	sd	a2,-80(sp)

0000000080003fec <i_3920>:
    80003fec:	00d3d263          	ble	a3,t2,80003ff0 <i_3921>

0000000080003ff0 <i_3921>:
    80003ff0:	01b14603          	lbu	a2,27(sp)

0000000080003ff4 <i_3922>:
    80003ff4:	e6f14603          	lbu	a2,-401(sp)

0000000080003ff8 <i_3923>:
    80003ff8:	b407d7b7          	lui	a5,0xb407d

0000000080003ffc <i_3924>:
    80003ffc:	18c16783          	lwu	a5,396(sp)

0000000080004000 <i_3925>:
    80004000:	02c7c263          	blt	a5,a2,80004024 <i_3934>

0000000080004004 <i_3926>:
    80004004:	12411783          	lh	a5,292(sp)

0000000080004008 <i_3927>:
    80004008:	08df4613          	xori	a2,t5,141

000000008000400c <i_3928>:
    8000400c:	02d61063          	bne	a2,a3,8000402c <i_3936>

0000000080004010 <i_3929>:
    80004010:	fb611f03          	lh	t5,-74(sp)

0000000080004014 <i_3930>:
    80004014:	15410603          	lb	a2,340(sp)

0000000080004018 <i_3931>:
    80004018:	f9e11023          	sh	t5,-128(sp)

000000008000401c <i_3932>:
    8000401c:	0ef13823          	sd	a5,240(sp)

0000000080004020 <i_3933>:
    80004020:	02c7bbb3          	mulhu	s7,a5,a2

0000000080004024 <i_3934>:
    80004024:	fc611683          	lh	a3,-58(sp)

0000000080004028 <i_3935>:
    80004028:	037a0a33          	mul	s4,s4,s7

000000008000402c <i_3936>:
    8000402c:	18412b03          	lw	s6,388(sp)

0000000080004030 <i_3937>:
    80004030:	03510b83          	lb	s7,53(sp)

0000000080004034 <i_3938>:
    80004034:	404bdb1b          	sraiw	s6,s7,0x4

0000000080004038 <i_3939>:
    80004038:	003e1b93          	slli	s7,t3,0x3

000000008000403c <i_3940>:
    8000403c:	014b1c63          	bne	s6,s4,80004054 <i_3946>

0000000080004040 <i_3941>:
    80004040:	e5411923          	sh	s4,-430(sp)

0000000080004044 <i_3942>:
    80004044:	037a0063          	beq	s4,s7,80004064 <i_3950>

0000000080004048 <i_3943>:
    80004048:	01711e23          	sh	s7,28(sp)

000000008000404c <i_3944>:
    8000404c:	0cc16d03          	lwu	s10,204(sp)

0000000080004050 <i_3945>:
    80004050:	01af7863          	bleu	s10,t5,80004060 <i_3949>

0000000080004054 <i_3946>:
    80004054:	f0412b83          	lw	s7,-252(sp)

0000000080004058 <i_3947>:
    80004058:	f9c11b03          	lh	s6,-100(sp)

000000008000405c <i_3948>:
    8000405c:	11412a83          	lw	s5,276(sp)

0000000080004060 <i_3949>:
    80004060:	036ad7bb          	divuw	a5,s5,s6

0000000080004064 <i_3950>:
    80004064:	015a9863          	bne	s5,s5,80004074 <i_3954>

0000000080004068 <i_3951>:
    80004068:	8a2d2d13          	slti	s10,s10,-1886

000000008000406c <i_3952>:
    8000406c:	4047d093          	srai	ra,a5,0x4

0000000080004070 <i_3953>:
    80004070:	f6a15a83          	lhu	s5,-150(sp)

0000000080004074 <i_3954>:
    80004074:	035aad33          	mulhsu	s10,s5,s5

0000000080004078 <i_3955>:
    80004078:	0d611083          	lh	ra,214(sp)

000000008000407c <i_3956>:
    8000407c:	019cecb3          	or	s9,s9,s9

0000000080004080 <i_3957>:
    80004080:	035d47b3          	div	a5,s10,s5

0000000080004084 <i_3958>:
    80004084:	07d10683          	lb	a3,125(sp)

0000000080004088 <i_3959>:
    80004088:	00500613          	li	a2,5

000000008000408c <i_3960>:
    8000408c:	00cd5d3b          	srlw	s10,s10,a2

0000000080004090 <i_3961>:
    80004090:	e8016303          	lwu	t1,-384(sp)

0000000080004094 <i_3962>:
    80004094:	06813603          	ld	a2,104(sp)

0000000080004098 <i_3963>:
    80004098:	00d57a63          	bleu	a3,a0,800040ac <i_3968>

000000008000409c <i_3964>:
    8000409c:	01600693          	li	a3,22

00000000800040a0 <i_3965>:
    800040a0:	00d79f33          	sll	t5,a5,a3

00000000800040a4 <i_3966>:
    800040a4:	a717e793          	ori	a5,a5,-1423

00000000800040a8 <i_3967>:
    800040a8:	02c12c23          	sw	a2,56(sp)

00000000800040ac <i_3968>:
    800040ac:	02c60063          	beq	a2,a2,800040cc <i_3976>

00000000800040b0 <i_3969>:
    800040b0:	02cbd463          	ble	a2,s7,800040d8 <i_3979>

00000000800040b4 <i_3970>:
    800040b4:	e7e11b23          	sh	t5,-394(sp)

00000000800040b8 <i_3971>:
    800040b8:	03ef4cbb          	divw	s9,t5,t5

00000000800040bc <i_3972>:
    800040bc:	eaf12e23          	sw	a5,-324(sp)

00000000800040c0 <i_3973>:
    800040c0:	fb910723          	sb	s9,-82(sp)

00000000800040c4 <i_3974>:
    800040c4:	06f13023          	sd	a5,96(sp)

00000000800040c8 <i_3975>:
    800040c8:	1a215583          	lhu	a1,418(sp)

00000000800040cc <i_3976>:
    800040cc:	ff213823          	sd	s2,-16(sp)

00000000800040d0 <i_3977>:
    800040d0:	00000013          	nop

00000000800040d4 <i_3978>:
    800040d4:	00ff3cb3          	sltu	s9,t5,a5

00000000800040d8 <i_3979>:
    800040d8:	00000013          	nop

00000000800040dc <i_3980>:
    800040dc:	00000013          	nop

00000000800040e0 <i_3981>:
    800040e0:	77e00d93          	li	s11,1918

00000000800040e4 <i_3982>:
    800040e4:	78600593          	li	a1,1926

00000000800040e8 <i_3983>:
    800040e8:	00000013          	nop

00000000800040ec <i_3984>:
    800040ec:	00000013          	nop

00000000800040f0 <i_3985>:
    800040f0:	0d012683          	lw	a3,208(sp)

00000000800040f4 <i_3986>:
    800040f4:	15e15b03          	lhu	s6,350(sp)

00000000800040f8 <i_3987>:
    800040f8:	08012b83          	lw	s7,128(sp)

00000000800040fc <i_3988>:
    800040fc:	036b7063          	bleu	s6,s6,8000411c <i_3995>

0000000080004100 <i_3989>:
    80004100:	001d8d93          	addi	s11,s11,1
    80004104:	ffb5d2e3          	ble	s11,a1,800040e8 <i_3983>

0000000080004108 <i_3990>:
    80004108:	0b611823          	sh	s6,176(sp)

000000008000410c <i_3991>:
    8000410c:	00000013          	nop

0000000080004110 <i_3992>:
    80004110:	01400b93          	li	s7,20

0000000080004114 <i_3993>:
    80004114:	017293bb          	sllw	t2,t0,s7

0000000080004118 <i_3994>:
    80004118:	03a24ab3          	div	s5,tp,s10

000000008000411c <i_3995>:
    8000411c:	00000013          	nop

0000000080004120 <i_3996>:
    80004120:	09813983          	ld	s3,152(sp)

0000000080004124 <i_3997>:
    80004124:	7f200293          	li	t0,2034

0000000080004128 <i_3998>:
    80004128:	7ff00d13          	li	s10,2047

000000008000412c <i_3999>:
    8000412c:	007aa433          	slt	s0,s5,t2

0000000080004130 <i_4000>:
    80004130:	00128293          	addi	t0,t0,1
    80004134:	ffa29ce3          	bne	t0,s10,8000412c <i_3999>

0000000080004138 <i_4001>:
    80004138:	015aaab3          	slt	s5,s5,s5

000000008000413c <i_4002>:
    8000413c:	0157c533          	xor	a0,a5,s5

0000000080004140 <i_4003>:
    80004140:	f8e14603          	lbu	a2,-114(sp)

0000000080004144 <i_4004>:
    80004144:	00aefe33          	and	t3,t4,a0

0000000080004148 <i_4005>:
    80004148:	06214383          	lbu	t2,98(sp)

000000008000414c <i_4006>:
    8000414c:	f5b12c23          	sw	s11,-168(sp)

0000000080004150 <i_4007>:
    80004150:	01300493          	li	s1,19

0000000080004154 <i_4008>:
    80004154:	409bde33          	sra	t3,s7,s1

0000000080004158 <i_4009>:
    80004158:	017d0663          	beq	s10,s7,80004164 <i_4012>

000000008000415c <i_4010>:
    8000415c:	e3c12503          	lw	a0,-452(sp)

0000000080004160 <i_4011>:
    80004160:	00600513          	li	a0,6

0000000080004164 <i_4012>:
    80004164:	00a8943b          	sllw	s0,a7,a0

0000000080004168 <i_4013>:
    80004168:	02a50533          	mul	a0,a0,a0

000000008000416c <i_4014>:
    8000416c:	04013483          	ld	s1,64(sp)

0000000080004170 <i_4015>:
    80004170:	f2a13c23          	sd	a0,-200(sp)

0000000080004174 <i_4016>:
    80004174:	e8011d03          	lh	s10,-384(sp)

0000000080004178 <i_4017>:
    80004178:	00300513          	li	a0,3

000000008000417c <i_4018>:
    8000417c:	00a5553b          	srlw	a0,a0,a0

0000000080004180 <i_4019>:
    80004180:	0ca13023          	sd	a0,192(sp)

0000000080004184 <i_4020>:
    80004184:	0215753b          	remuw	a0,a0,ra

0000000080004188 <i_4021>:
    80004188:	12c15683          	lhu	a3,300(sp)

000000008000418c <i_4022>:
    8000418c:	15514783          	lbu	a5,341(sp)

0000000080004190 <i_4023>:
    80004190:	01ad37b3          	sltu	a5,s10,s10

0000000080004194 <i_4024>:
    80004194:	4030dc13          	srai	s8,ra,0x3

0000000080004198 <i_4025>:
    80004198:	03cd7463          	bleu	t3,s10,800041c0 <i_4035>

000000008000419c <i_4026>:
    8000419c:	10610a03          	lb	s4,262(sp)

00000000800041a0 <i_4027>:
    800041a0:	00ad03b3          	add	t2,s10,a0

00000000800041a4 <i_4028>:
    800041a4:	01478c33          	add	s8,a5,s4

00000000800041a8 <i_4029>:
    800041a8:	014c04b3          	add	s1,s8,s4

00000000800041ac <i_4030>:
    800041ac:	01813023          	sd	s8,0(sp)

00000000800041b0 <i_4031>:
    800041b0:	e6211383          	lh	t2,-414(sp)

00000000800041b4 <i_4032>:
    800041b4:	00bd7e63          	bleu	a1,s10,800041d0 <i_4039>

00000000800041b8 <i_4033>:
    800041b8:	81967493          	andi	s1,a2,-2023

00000000800041bc <i_4034>:
    800041bc:	0294af33          	mulhsu	t5,s1,s1

00000000800041c0 <i_4035>:
    800041c0:	e8614483          	lbu	s1,-378(sp)

00000000800041c4 <i_4036>:
    800041c4:	00a78a63          	beq	a5,a0,800041d8 <i_4041>

00000000800041c8 <i_4037>:
    800041c8:	00400493          	li	s1,4

00000000800041cc <i_4038>:
    800041cc:	009292bb          	sllw	t0,t0,s1

00000000800041d0 <i_4039>:
    800041d0:	02f13c23          	sd	a5,56(sp)

00000000800041d4 <i_4040>:
    800041d4:	00549263          	bne	s1,t0,800041d8 <i_4041>

00000000800041d8 <i_4041>:
    800041d8:	029484bb          	mulw	s1,s1,s1

00000000800041dc <i_4042>:
    800041dc:	0c513823          	sd	t0,208(sp)

00000000800041e0 <i_4043>:
    800041e0:	01daec63          	bltu	s5,t4,800041f8 <i_4049>

00000000800041e4 <i_4044>:
    800041e4:	0258c2bb          	divw	t0,a7,t0

00000000800041e8 <i_4045>:
    800041e8:	15d11a23          	sh	t4,340(sp)

00000000800041ec <i_4046>:
    800041ec:	005434b3          	sltu	s1,s0,t0

00000000800041f0 <i_4047>:
    800041f0:	02511623          	sh	t0,44(sp)

00000000800041f4 <i_4048>:
    800041f4:	ced28293          	addi	t0,t0,-787

00000000800041f8 <i_4049>:
    800041f8:	e2510ea3          	sb	t0,-451(sp)

00000000800041fc <i_4050>:
    800041fc:	0052d263          	ble	t0,t0,80004200 <i_4051>

0000000080004200 <i_4051>:
    80004200:	abc4a293          	slti	t0,s1,-1348

0000000080004204 <i_4052>:
    80004204:	40928533          	sub	a0,t0,s1

0000000080004208 <i_4053>:
    80004208:	00a00e93          	li	t4,10

000000008000420c <i_4054>:
    8000420c:	01d2d1b3          	srl	gp,t0,t4

0000000080004210 <i_4055>:
    80004210:	f0912423          	sw	s1,-248(sp)

0000000080004214 <i_4056>:
    80004214:	01d4bcb3          	sltu	s9,s1,t4

0000000080004218 <i_4057>:
    80004218:	ea310e23          	sb	gp,-324(sp)

000000008000421c <i_4058>:
    8000421c:	0194aeb3          	slt	t4,s1,s9

0000000080004220 <i_4059>:
    80004220:	0fd11223          	sh	t4,228(sp)

0000000080004224 <i_4060>:
    80004224:	00556863          	bltu	a0,t0,80004234 <i_4064>

0000000080004228 <i_4061>:
    80004228:	00a55c63          	ble	a0,a0,80004240 <i_4067>

000000008000422c <i_4062>:
    8000422c:	01e00513          	li	a0,30

0000000080004230 <i_4063>:
    80004230:	40ac53bb          	sraw	t2,s8,a0

0000000080004234 <i_4064>:
    80004234:	f7913823          	sd	s9,-144(sp)

0000000080004238 <i_4065>:
    80004238:	1b013783          	ld	a5,432(sp)

000000008000423c <i_4066>:
    8000423c:	00778a63          	beq	a5,t2,80004250 <i_4071>

0000000080004240 <i_4067>:
    80004240:	00a3e9b3          	or	s3,t2,a0

0000000080004244 <i_4068>:
    80004244:	0359c463          	blt	s3,s5,8000426c <i_4078>

0000000080004248 <i_4069>:
    80004248:	04a10f23          	sb	a0,94(sp)

000000008000424c <i_4070>:
    8000424c:	0133d463          	ble	s3,t2,80004254 <i_4072>

0000000080004250 <i_4071>:
    80004250:	07016a83          	lwu	s5,112(sp)

0000000080004254 <i_4072>:
    80004254:	1d416a83          	lwu	s5,468(sp)

0000000080004258 <i_4073>:
    80004258:	e7816583          	lwu	a1,-392(sp)

000000008000425c <i_4074>:
    8000425c:	f0c10383          	lb	t2,-244(sp)

0000000080004260 <i_4075>:
    80004260:	0a214d83          	lbu	s11,162(sp)

0000000080004264 <i_4076>:
    80004264:	06016a83          	lwu	s5,96(sp)

0000000080004268 <i_4077>:
    80004268:	02f587b3          	mul	a5,a1,a5

000000008000426c <i_4078>:
    8000426c:	01e34b33          	xor	s6,t1,t5

0000000080004270 <i_4079>:
    80004270:	10816b03          	lwu	s6,264(sp)

0000000080004274 <i_4080>:
    80004274:	1daa8a93          	addi	s5,s5,474

0000000080004278 <i_4081>:
    80004278:	0b910803          	lb	a6,185(sp)

000000008000427c <i_4082>:
    8000427c:	13013f03          	ld	t5,304(sp)

0000000080004280 <i_4083>:
    80004280:	019a9463          	bne	s5,s9,80004288 <i_4085>

0000000080004284 <i_4084>:
    80004284:	e9e15683          	lhu	a3,-354(sp)

0000000080004288 <i_4085>:
    80004288:	ff013c83          	ld	s9,-16(sp)

000000008000428c <i_4086>:
    8000428c:	0cc10583          	lb	a1,204(sp)

0000000080004290 <i_4087>:
    80004290:	01600513          	li	a0,22

0000000080004294 <i_4088>:
    80004294:	40a5553b          	sraw	a0,a0,a0

0000000080004298 <i_4089>:
    80004298:	035f1433          	mulh	s0,t5,s5

000000008000429c <i_4090>:
    8000429c:	e4813823          	sd	s0,-432(sp)

00000000800042a0 <i_4091>:
    800042a0:	ceecb593          	sltiu	a1,s9,-786

00000000800042a4 <i_4092>:
    800042a4:	fa416403          	lwu	s0,-92(sp)

00000000800042a8 <i_4093>:
    800042a8:	1bc10403          	lb	s0,444(sp)

00000000800042ac <i_4094>:
    800042ac:	0285d433          	divu	s0,a1,s0

00000000800042b0 <i_4095>:
    800042b0:	00518e63          	beq	gp,t0,800042cc <i_4102>

00000000800042b4 <i_4096>:
    800042b4:	16c11203          	lh	tp,364(sp)

00000000800042b8 <i_4097>:
    800042b8:	0a416403          	lwu	s0,164(sp)

00000000800042bc <i_4098>:
    800042bc:	18411d23          	sh	tp,410(sp)

00000000800042c0 <i_4099>:
    800042c0:	10c15083          	lhu	ra,268(sp)

00000000800042c4 <i_4100>:
    800042c4:	02146263          	bltu	s0,ra,800042e8 <i_4109>

00000000800042c8 <i_4101>:
    800042c8:	0e810b23          	sb	s0,246(sp)

00000000800042cc <i_4102>:
    800042cc:	02847633          	remu	a2,s0,s0

00000000800042d0 <i_4103>:
    800042d0:	03624263          	blt	tp,s6,800042f4 <i_4112>

00000000800042d4 <i_4104>:
    800042d4:	00c40263          	beq	s0,a2,800042d8 <i_4105>

00000000800042d8 <i_4105>:
    800042d8:	f5813603          	ld	a2,-168(sp)

00000000800042dc <i_4106>:
    800042dc:	06012403          	lw	s0,96(sp)

00000000800042e0 <i_4107>:
    800042e0:	f4c13023          	sd	a2,-192(sp)

00000000800042e4 <i_4108>:
    800042e4:	0dc16a83          	lwu	s5,220(sp)

00000000800042e8 <i_4109>:
    800042e8:	f0c12823          	sw	a2,-240(sp)

00000000800042ec <i_4110>:
    800042ec:	10211e83          	lh	t4,258(sp)

00000000800042f0 <i_4111>:
    800042f0:	403ada9b          	sraiw	s5,s5,0x3

00000000800042f4 <i_4112>:
    800042f4:	035a8abb          	mulw	s5,s5,s5

00000000800042f8 <i_4113>:
    800042f8:	07013783          	ld	a5,112(sp)

00000000800042fc <i_4114>:
    800042fc:	8b900193          	li	gp,-1863

0000000080004300 <i_4115>:
    80004300:	8c800613          	li	a2,-1848

0000000080004304 <i_4116>:
    80004304:	0357e463          	bltu	a5,s5,8000432c <i_4125>

0000000080004308 <i_4117>:
    80004308:	00d00e93          	li	t4,13

000000008000430c <i_4118>:
    8000430c:	01de9abb          	sllw	s5,t4,t4

0000000080004310 <i_4119>:
    80004310:	00118193          	addi	gp,gp,1
    80004314:	fec1e8e3          	bltu	gp,a2,80004304 <i_4116>

0000000080004318 <i_4120>:
    80004318:	1ca10d83          	lb	s11,458(sp)

000000008000431c <i_4121>:
    8000431c:	0027d263          	ble	sp,a5,80004320 <i_4122>

0000000080004320 <i_4122>:
    80004320:	02f79263          	bne	a5,a5,80004344 <i_4131>

0000000080004324 <i_4123>:
    80004324:	f4f12423          	sw	a5,-184(sp)

0000000080004328 <i_4124>:
    80004328:	41b78333          	sub	t1,a5,s11

000000008000432c <i_4125>:
    8000432c:	0267d263          	ble	t1,a5,80004350 <i_4134>

0000000080004330 <i_4126>:
    80004330:	00fdd663          	ble	a5,s11,8000433c <i_4129>

0000000080004334 <i_4127>:
    80004334:	1c611423          	sh	t1,456(sp)

0000000080004338 <i_4128>:
    80004338:	00f70463          	beq	a4,a5,80004340 <i_4130>

000000008000433c <i_4129>:
    8000433c:	01a15d83          	lhu	s11,26(sp)

0000000080004340 <i_4130>:
    80004340:	003d9213          	slli	tp,s11,0x3

0000000080004344 <i_4131>:
    80004344:	fc610aa3          	sb	t1,-43(sp)

0000000080004348 <i_4132>:
    80004348:	0f211d83          	lh	s11,242(sp)

000000008000434c <i_4133>:
    8000434c:	02312c23          	sw	gp,56(sp)

0000000080004350 <i_4134>:
    80004350:	03b254bb          	divuw	s1,tp,s11

0000000080004354 <i_4135>:
    80004354:	00000013          	nop

0000000080004358 <i_4136>:
    80004358:	76e00313          	li	t1,1902

000000008000435c <i_4137>:
    8000435c:	77a00193          	li	gp,1914

0000000080004360 <i_4138>:
    80004360:	001dd09b          	srliw	ra,s11,0x1

0000000080004364 <i_4139>:
    80004364:	0030dc1b          	srliw	s8,ra,0x3

0000000080004368 <i_4140>:
    80004368:	00600a13          	li	s4,6

000000008000436c <i_4141>:
    8000436c:	4140da3b          	sraw	s4,ra,s4

0000000080004370 <i_4142>:
    80004370:	016a6663          	bltu	s4,s6,8000437c <i_4145>

0000000080004374 <i_4143>:
    80004374:	034a4833          	div	a6,s4,s4

0000000080004378 <i_4144>:
    80004378:	0021921b          	slliw	tp,gp,0x2

000000008000437c <i_4145>:
    8000437c:	f0016e03          	lwu	t3,-256(sp)

0000000080004380 <i_4146>:
    80004380:	00000013          	nop

0000000080004384 <i_4147>:
    80004384:	ffc10ba3          	sb	t3,-9(sp)

0000000080004388 <i_4148>:
    80004388:	00130313          	addi	t1,t1,1
    8000438c:	fc336ae3          	bltu	t1,gp,80004360 <i_4138>

0000000080004390 <i_4149>:
    80004390:	014c0c63          	beq	s8,s4,800043a8 <i_4155>

0000000080004394 <i_4150>:
    80004394:	b90e7c13          	andi	s8,t3,-1136

0000000080004398 <i_4151>:
    80004398:	f6412803          	lw	a6,-156(sp)

000000008000439c <i_4152>:
    8000439c:	03c8663b          	remw	a2,a6,t3

00000000800043a0 <i_4153>:
    800043a0:	03a66e3b          	remw	t3,a2,s10

00000000800043a4 <i_4154>:
    800043a4:	09813e83          	ld	t4,152(sp)

00000000800043a8 <i_4155>:
    800043a8:	03cec633          	div	a2,t4,t3

00000000800043ac <i_4156>:
    800043ac:	1b210e83          	lb	t4,434(sp)

00000000800043b0 <i_4157>:
    800043b0:	7d400c13          	li	s8,2004

00000000800043b4 <i_4158>:
    800043b4:	7d600d13          	li	s10,2006

00000000800043b8 <i_4159>:
    800043b8:	40cd033b          	subw	t1,s10,a2

00000000800043bc <i_4160>:
    800043bc:	004e4863          	blt	t3,tp,800043cc <i_4164>

00000000800043c0 <i_4161>:
    800043c0:	e6610c83          	lb	s9,-410(sp)

00000000800043c4 <i_4162>:
    800043c4:	e9411803          	lh	a6,-364(sp)

00000000800043c8 <i_4163>:
    800043c8:	02ed4463          	blt	s10,a4,800043f0 <i_4172>

00000000800043cc <i_4164>:
    800043cc:	018e8633          	add	a2,t4,s8

00000000800043d0 <i_4165>:
    800043d0:	01d0abb3          	slt	s7,ra,t4

00000000800043d4 <i_4166>:
    800043d4:	00638333          	add	t1,t2,t1

00000000800043d8 <i_4167>:
    800043d8:	001c0c13          	addi	s8,s8,1
    800043dc:	fd8d5ee3          	ble	s8,s10,800043b8 <i_4159>

00000000800043e0 <i_4168>:
    800043e0:	00c663b3          	or	t2,a2,a2

00000000800043e4 <i_4169>:
    800043e4:	00c81263          	bne	a6,a2,800043e8 <i_4170>

00000000800043e8 <i_4170>:
    800043e8:	13e10183          	lb	gp,318(sp)

00000000800043ec <i_4171>:
    800043ec:	038861b3          	rem	gp,a6,s8

00000000800043f0 <i_4172>:
    800043f0:	03f12c23          	sw	t6,56(sp)

00000000800043f4 <i_4173>:
    800043f4:	01f00e93          	li	t4,31

00000000800043f8 <i_4174>:
    800043f8:	41d151bb          	sraw	gp,sp,t4

00000000800043fc <i_4175>:
    800043fc:	02318463          	beq	gp,gp,80004424 <i_4185>

0000000080004400 <i_4176>:
    80004400:	fe312c23          	sw	gp,-8(sp)

0000000080004404 <i_4177>:
    80004404:	0e611383          	lh	t2,230(sp)

0000000080004408 <i_4178>:
    80004408:	0273d9b3          	divu	s3,t2,t2

000000008000440c <i_4179>:
    8000440c:	fe010383          	lb	t2,-32(sp)

0000000080004410 <i_4180>:
    80004410:	00000013          	nop

0000000080004414 <i_4181>:
    80004414:	fcd10383          	lb	t2,-51(sp)

0000000080004418 <i_4182>:
    80004418:	00000013          	nop

000000008000441c <i_4183>:
    8000441c:	e1f10783          	lb	a5,-481(sp)

0000000080004420 <i_4184>:
    80004420:	ed812d83          	lw	s11,-296(sp)

0000000080004424 <i_4185>:
    80004424:	48ba8797          	auipc	a5,0x48ba8

0000000080004428 <i_4186>:
    80004428:	e2713423          	sd	t2,-472(sp)

000000008000442c <i_4187>:
    8000442c:	79200193          	li	gp,1938

0000000080004430 <i_4188>:
    80004430:	79c00e93          	li	t4,1948

0000000080004434 <i_4189>:
    80004434:	faa15a03          	lhu	s4,-86(sp)

0000000080004438 <i_4190>:
    80004438:	003a139b          	slliw	t2,s4,0x3

000000008000443c <i_4191>:
    8000443c:	f3416b03          	lwu	s6,-204(sp)

0000000080004440 <i_4192>:
    80004440:	00118193          	addi	gp,gp,1
    80004444:	ffd1e8e3          	bltu	gp,t4,80004434 <i_4189>

0000000080004448 <i_4193>:
    80004448:	fdc16383          	lwu	t2,-36(sp)

000000008000444c <i_4194>:
    8000444c:	032b4463          	blt	s6,s2,80004474 <i_4204>

0000000080004450 <i_4195>:
    80004450:	e5a11283          	lh	t0,-422(sp)

0000000080004454 <i_4196>:
    80004454:	0273e23b          	remw	tp,t2,t2

0000000080004458 <i_4197>:
    80004458:	0053ca63          	blt	t2,t0,8000446c <i_4202>

000000008000445c <i_4198>:
    8000445c:	bb62039b          	addiw	t2,tp,-1098

0000000080004460 <i_4199>:
    80004460:	00115f13          	srli	t5,sp,0x1

0000000080004464 <i_4200>:
    80004464:	004f109b          	slliw	ra,t5,0x4

0000000080004468 <i_4201>:
    80004468:	00221c13          	slli	s8,tp,0x2

000000008000446c <i_4202>:
    8000446c:	01eb4c63          	blt	s6,t5,80004484 <i_4208>

0000000080004470 <i_4203>:
    80004470:	0d510a83          	lb	s5,213(sp)

0000000080004474 <i_4204>:
    80004474:	00600a13          	li	s4,6

0000000080004478 <i_4205>:
    80004478:	0142da33          	srl	s4,t0,s4

000000008000447c <i_4206>:
    8000447c:	0dd10283          	lb	t0,221(sp)

0000000080004480 <i_4207>:
    80004480:	02513c23          	sd	t0,56(sp)

0000000080004484 <i_4208>:
    80004484:	18514c03          	lbu	s8,389(sp)

0000000080004488 <i_4209>:
    80004488:	025a7a33          	remu	s4,s4,t0

000000008000448c <i_4210>:
    8000448c:	81100493          	li	s1,-2031

0000000080004490 <i_4211>:
    80004490:	81e00b13          	li	s6,-2018

0000000080004494 <i_4212>:
    80004494:	00560663          	beq	a2,t0,800044a0 <i_4215>

0000000080004498 <i_4213>:
    80004498:	00000013          	nop

000000008000449c <i_4214>:
    8000449c:	005a7a33          	and	s4,s4,t0

00000000800044a0 <i_4215>:
    800044a0:	00900513          	li	a0,9

00000000800044a4 <i_4216>:
    800044a4:	40a6533b          	sraw	t1,a2,a0

00000000800044a8 <i_4217>:
    800044a8:	eaa11723          	sh	a0,-338(sp)

00000000800044ac <i_4218>:
    800044ac:	00148493          	addi	s1,s1,1
    800044b0:	ff64c2e3          	blt	s1,s6,80004494 <i_4212>

00000000800044b4 <i_4219>:
    800044b4:	e6816503          	lwu	a0,-408(sp)

00000000800044b8 <i_4220>:
    800044b8:	19013d03          	ld	s10,400(sp)

00000000800044bc <i_4221>:
    800044bc:	efb14303          	lbu	t1,-261(sp)

00000000800044c0 <i_4222>:
    800044c0:	00236463          	bltu	t1,sp,800044c8 <i_4224>

00000000800044c4 <i_4223>:
    800044c4:	00ad4263          	blt	s10,a0,800044c8 <i_4224>

00000000800044c8 <i_4224>:
    800044c8:	1d414483          	lbu	s1,468(sp)

00000000800044cc <i_4225>:
    800044cc:	f9816603          	lwu	a2,-104(sp)

00000000800044d0 <i_4226>:
    800044d0:	7e100513          	li	a0,2017

00000000800044d4 <i_4227>:
    800044d4:	7e300d13          	li	s10,2019

00000000800044d8 <i_4228>:
    800044d8:	e2812e83          	lw	t4,-472(sp)

00000000800044dc <i_4229>:
    800044dc:	10f9069b          	addiw	a3,s2,271

00000000800044e0 <i_4230>:
    800044e0:	76400213          	li	tp,1892

00000000800044e4 <i_4231>:
    800044e4:	77600b13          	li	s6,1910

00000000800044e8 <i_4232>:
    800044e8:	00120213          	addi	tp,tp,1 # ffffffff84a53001 <_end+0xffffffff04a42bed>
    800044ec:	ff621ee3          	bne	tp,s6,800044e8 <i_4232>

00000000800044f0 <i_4233>:
    800044f0:	004e949b          	slliw	s1,t4,0x4

00000000800044f4 <i_4234>:
    800044f4:	0294a6b3          	mulhsu	a3,s1,s1

00000000800044f8 <i_4235>:
    800044f8:	00000013          	nop

00000000800044fc <i_4236>:
    800044fc:	00150513          	addi	a0,a0,1
    80004500:	fda54ce3          	blt	a0,s10,800044d8 <i_4228>

0000000080004504 <i_4237>:
    80004504:	1a013483          	ld	s1,416(sp)

0000000080004508 <i_4238>:
    80004508:	18815d83          	lhu	s11,392(sp)

000000008000450c <i_4239>:
    8000450c:	00a14483          	lbu	s1,10(sp)

0000000080004510 <i_4240>:
    80004510:	00969e63          	bne	a3,s1,8000452c <i_4247>

0000000080004514 <i_4241>:
    80004514:	e7013683          	ld	a3,-400(sp)

0000000080004518 <i_4242>:
    80004518:	002dd51b          	srliw	a0,s11,0x2

000000008000451c <i_4243>:
    8000451c:	d214f493          	andi	s1,s1,-735

0000000080004520 <i_4244>:
    80004520:	029552bb          	divuw	t0,a0,s1

0000000080004524 <i_4245>:
    80004524:	00000013          	nop

0000000080004528 <i_4246>:
    80004528:	15f14303          	lbu	t1,351(sp)

000000008000452c <i_4247>:
    8000452c:	eb011083          	lh	ra,-336(sp)

0000000080004530 <i_4248>:
    80004530:	0254d53b          	divuw	a0,s1,t0

0000000080004534 <i_4249>:
    80004534:	7ab00613          	li	a2,1963

0000000080004538 <i_4250>:
    80004538:	7ae00e13          	li	t3,1966

000000008000453c <i_4251>:
    8000453c:	1a9106a3          	sb	s1,429(sp)

0000000080004540 <i_4252>:
    80004540:	eea13c23          	sd	a0,-264(sp)

0000000080004544 <i_4253>:
    80004544:	e6913823          	sd	s1,-400(sp)

0000000080004548 <i_4254>:
    80004548:	00000013          	nop

000000008000454c <i_4255>:
    8000454c:	40b480b3          	sub	ra,s1,a1

0000000080004550 <i_4256>:
    80004550:	efc16183          	lwu	gp,-260(sp)

0000000080004554 <i_4257>:
    80004554:	e3b0ba13          	sltiu	s4,ra,-453

0000000080004558 <i_4258>:
    80004558:	00160613          	addi	a2,a2,1
    8000455c:	fece10e3          	bne	t3,a2,8000453c <i_4251>

0000000080004560 <i_4259>:
    80004560:	00000013          	nop

0000000080004564 <i_4260>:
    80004564:	efe11083          	lh	ra,-258(sp)

0000000080004568 <i_4261>:
    80004568:	401a519b          	sraiw	gp,s4,0x1

000000008000456c <i_4262>:
    8000456c:	0031c463          	blt	gp,gp,80004574 <i_4264>

0000000080004570 <i_4263>:
    80004570:	03454263          	blt	a0,s4,80004594 <i_4272>

0000000080004574 <i_4264>:
    80004574:	07f14183          	lbu	gp,127(sp)

0000000080004578 <i_4265>:
    80004578:	f0411503          	lh	a0,-252(sp)

000000008000457c <i_4266>:
    8000457c:	10813503          	ld	a0,264(sp)

0000000080004580 <i_4267>:
    80004580:	0c610083          	lb	ra,198(sp)

0000000080004584 <i_4268>:
    80004584:	01934a63          	blt	t1,s9,80004598 <i_4273>

0000000080004588 <i_4269>:
    80004588:	0ea13423          	sd	a0,232(sp)

000000008000458c <i_4270>:
    8000458c:	024c9cb3          	mulh	s9,s9,tp

0000000080004590 <i_4271>:
    80004590:	00000013          	nop

0000000080004594 <i_4272>:
    80004594:	00000013          	nop

0000000080004598 <i_4273>:
    80004598:	01913423          	sd	s9,8(sp)

000000008000459c <i_4274>:
    8000459c:	f2a15c83          	lhu	s9,-214(sp)

00000000800045a0 <i_4275>:
    800045a0:	88a00513          	li	a0,-1910

00000000800045a4 <i_4276>:
    800045a4:	89100213          	li	tp,-1903

00000000800045a8 <i_4277>:
    800045a8:	c3548c93          	addi	s9,s1,-971

00000000800045ac <i_4278>:
    800045ac:	f8e14e03          	lbu	t3,-114(sp)

00000000800045b0 <i_4279>:
    800045b0:	00150513          	addi	a0,a0,1
    800045b4:	fe456ae3          	bltu	a0,tp,800045a8 <i_4277>

00000000800045b8 <i_4280>:
    800045b8:	024e4e33          	div	t3,t3,tp

00000000800045bc <i_4281>:
    800045bc:	fbb10203          	lb	tp,-69(sp)

00000000800045c0 <i_4282>:
    800045c0:	03c25db3          	divu	s11,tp,t3

00000000800045c4 <i_4283>:
    800045c4:	ee4108a3          	sb	tp,-271(sp)

00000000800045c8 <i_4284>:
    800045c8:	41cd823b          	subw	tp,s11,t3

00000000800045cc <i_4285>:
    800045cc:	004dd393          	srli	t2,s11,0x4

00000000800045d0 <i_4286>:
    800045d0:	0383c463          	blt	t2,s8,800045f8 <i_4296>

00000000800045d4 <i_4287>:
    800045d4:	09014d83          	lbu	s11,144(sp)

00000000800045d8 <i_4288>:
    800045d8:	efb13423          	sd	s11,-280(sp)

00000000800045dc <i_4289>:
    800045dc:	01500d93          	li	s11,21

00000000800045e0 <i_4290>:
    800045e0:	01b09a3b          	sllw	s4,ra,s11

00000000800045e4 <i_4291>:
    800045e4:	00000013          	nop

00000000800045e8 <i_4292>:
    800045e8:	01b3fdb3          	and	s11,t2,s11

00000000800045ec <i_4293>:
    800045ec:	fe013d83          	ld	s11,-32(sp)

00000000800045f0 <i_4294>:
    800045f0:	1e912023          	sw	s1,480(sp)

00000000800045f4 <i_4295>:
    800045f4:	40125613          	srai	a2,tp,0x1

00000000800045f8 <i_4296>:
    800045f8:	17416b03          	lwu	s6,372(sp)

00000000800045fc <i_4297>:
    800045fc:	00000013          	nop

0000000080004600 <i_4298>:
    80004600:	73b00a13          	li	s4,1851

0000000080004604 <i_4299>:
    80004604:	74100e13          	li	t3,1857

0000000080004608 <i_4300>:
    80004608:	ffb12623          	sw	s11,-20(sp)

000000008000460c <i_4301>:
    8000460c:	1a712023          	sw	t2,416(sp)

0000000080004610 <i_4302>:
    80004610:	01bdde63          	ble	s11,s11,8000462c <i_4308>

0000000080004614 <i_4303>:
    80004614:	fa412223          	sw	tp,-92(sp)

0000000080004618 <i_4304>:
    80004618:	001a0a13          	addi	s4,s4,1
    8000461c:	ff4e76e3          	bleu	s4,t3,80004608 <i_4300>

0000000080004620 <i_4305>:
    80004620:	f7613023          	sd	s6,-160(sp)

0000000080004624 <i_4306>:
    80004624:	f3410423          	sb	s4,-216(sp)

0000000080004628 <i_4307>:
    80004628:	08811203          	lh	tp,136(sp)

000000008000462c <i_4308>:
    8000462c:	f8c16d83          	lwu	s11,-116(sp)

0000000080004630 <i_4309>:
    80004630:	fdf10d83          	lb	s11,-33(sp)

0000000080004634 <i_4310>:
    80004634:	fc4101a3          	sb	tp,-61(sp)

0000000080004638 <i_4311>:
    80004638:	16416483          	lwu	s1,356(sp)

000000008000463c <i_4312>:
    8000463c:	00c4f633          	and	a2,s1,a2

0000000080004640 <i_4313>:
    80004640:	013f7663          	bleu	s3,t5,8000464c <i_4316>

0000000080004644 <i_4314>:
    80004644:	02200393          	li	t2,34

0000000080004648 <i_4315>:
    80004648:	007999b3          	sll	s3,s3,t2

000000008000464c <i_4316>:
    8000464c:	01f00b13          	li	s6,31

0000000080004650 <i_4317>:
    80004650:	01641433          	sll	s0,s0,s6

0000000080004654 <i_4318>:
    80004654:	00748463          	beq	s1,t2,8000465c <i_4320>

0000000080004658 <i_4319>:
    80004658:	19613423          	sd	s6,392(sp)

000000008000465c <i_4320>:
    8000465c:	02c9ce3b          	divw	t3,s3,a2

0000000080004660 <i_4321>:
    80004660:	0090ee63          	bltu	ra,s1,8000467c <i_4328>

0000000080004664 <i_4322>:
    80004664:	e6c12f03          	lw	t5,-404(sp)

0000000080004668 <i_4323>:
    80004668:	e6c13423          	sd	a2,-408(sp)

000000008000466c <i_4324>:
    8000466c:	00000013          	nop

0000000080004670 <i_4325>:
    80004670:	4168083b          	subw	a6,a6,s6

0000000080004674 <i_4326>:
    80004674:	fa712023          	sw	t2,-96(sp)

0000000080004678 <i_4327>:
    80004678:	00000013          	nop

000000008000467c <i_4328>:
    8000467c:	f5d13423          	sd	t4,-184(sp)

0000000080004680 <i_4329>:
    80004680:	f6114383          	lbu	t2,-159(sp)

0000000080004684 <i_4330>:
    80004684:	89300413          	li	s0,-1901

0000000080004688 <i_4331>:
    80004688:	89600613          	li	a2,-1898

000000008000468c <i_4332>:
    8000468c:	fe416283          	lwu	t0,-28(sp)

0000000080004690 <i_4333>:
    80004690:	02760263          	beq	a2,t2,800046b4 <i_4341>

0000000080004694 <i_4334>:
    80004694:	e2b10183          	lb	gp,-469(sp)

0000000080004698 <i_4335>:
    80004698:	00140413          	addi	s0,s0,1
    8000469c:	fe8658e3          	ble	s0,a2,8000468c <i_4332>

00000000800046a0 <i_4336>:
    800046a0:	00a00813          	li	a6,10

00000000800046a4 <i_4337>:
    800046a4:	4102d1bb          	sraw	gp,t0,a6

00000000800046a8 <i_4338>:
    800046a8:	fac12c23          	sw	a2,-72(sp)

00000000800046ac <i_4339>:
    800046ac:	03f14e03          	lbu	t3,63(sp)

00000000800046b0 <i_4340>:
    800046b0:	0302f063          	bleu	a6,t0,800046d0 <i_4348>

00000000800046b4 <i_4341>:
    800046b4:	00547433          	and	s0,s0,t0

00000000800046b8 <i_4342>:
    800046b8:	12013403          	ld	s0,288(sp)

00000000800046bc <i_4343>:
    800046bc:	05812603          	lw	a2,88(sp)

00000000800046c0 <i_4344>:
    800046c0:	01c66863          	bltu	a2,t3,800046d0 <i_4348>

00000000800046c4 <i_4345>:
    800046c4:	008e5a63          	ble	s0,t3,800046d8 <i_4350>

00000000800046c8 <i_4346>:
    800046c8:	fb911c23          	sh	s9,-72(sp)

00000000800046cc <i_4347>:
    800046cc:	03945263          	ble	s9,s0,800046f0 <i_4356>

00000000800046d0 <i_4348>:
    800046d0:	035e6abb          	remw	s5,t3,s5

00000000800046d4 <i_4349>:
    800046d4:	e8812423          	sw	s0,-376(sp)

00000000800046d8 <i_4350>:
    800046d8:	fb212623          	sw	s2,-84(sp)

00000000800046dc <i_4351>:
    800046dc:	f8813023          	sd	s0,-128(sp)

00000000800046e0 <i_4352>:
    800046e0:	eb013823          	sd	a6,-336(sp)

00000000800046e4 <i_4353>:
    800046e4:	00840463          	beq	s0,s0,800046ec <i_4355>

00000000800046e8 <i_4354>:
    800046e8:	ed813403          	ld	s0,-296(sp)

00000000800046ec <i_4355>:
    800046ec:	010834b3          	sltu	s1,a6,a6

00000000800046f0 <i_4356>:
    800046f0:	00864863          	blt	a2,s0,80004700 <i_4360>

00000000800046f4 <i_4357>:
    800046f4:	e2913c23          	sd	s1,-456(sp)

00000000800046f8 <i_4358>:
    800046f8:	03a18263          	beq	gp,s10,8000471c <i_4367>

00000000800046fc <i_4359>:
    800046fc:	0035549b          	srliw	s1,a0,0x3

0000000080004700 <i_4360>:
    80004700:	16028cb7          	lui	s9,0x16028

0000000080004704 <i_4361>:
    80004704:	45ade593          	ori	a1,s11,1114

0000000080004708 <i_4362>:
    80004708:	00c00b13          	li	s6,12

000000008000470c <i_4363>:
    8000470c:	01659d3b          	sllw	s10,a1,s6

0000000080004710 <i_4364>:
    80004710:	09b12823          	sw	s11,144(sp)

0000000080004714 <i_4365>:
    80004714:	17913423          	sd	s9,360(sp)

0000000080004718 <i_4366>:
    80004718:	05215c83          	lhu	s9,82(sp)

000000008000471c <i_4367>:
    8000471c:	43bce213          	ori	tp,s9,1083

0000000080004720 <i_4368>:
    80004720:	01620863          	beq	tp,s6,80004730 <i_4372>

0000000080004724 <i_4369>:
    80004724:	13c15983          	lhu	s3,316(sp)

0000000080004728 <i_4370>:
    80004728:	67e20c93          	addi	s9,tp,1662 # 67e <main-0x7ffff982>

000000008000472c <i_4371>:
    8000472c:	f9815203          	lhu	tp,-104(sp)

0000000080004730 <i_4372>:
    80004730:	e9813c83          	ld	s9,-360(sp)

0000000080004734 <i_4373>:
    80004734:	00000013          	nop

0000000080004738 <i_4374>:
    80004738:	00000013          	nop

000000008000473c <i_4375>:
    8000473c:	8a000213          	li	tp,-1888

0000000080004740 <i_4376>:
    80004740:	8a800293          	li	t0,-1880

0000000080004744 <i_4377>:
    80004744:	ee416c83          	lwu	s9,-284(sp)

0000000080004748 <i_4378>:
    80004748:	e9012a83          	lw	s5,-368(sp)

000000008000474c <i_4379>:
    8000474c:	f5a14c83          	lbu	s9,-166(sp)

0000000080004750 <i_4380>:
    80004750:	05813983          	ld	s3,88(sp)

0000000080004754 <i_4381>:
    80004754:	03b20db3          	mul	s11,tp,s11

0000000080004758 <i_4382>:
    80004758:	10812983          	lw	s3,264(sp)

000000008000475c <i_4383>:
    8000475c:	00000013          	nop

0000000080004760 <i_4384>:
    80004760:	07c10f03          	lb	t5,124(sp)

0000000080004764 <i_4385>:
    80004764:	08816f03          	lwu	t5,136(sp)

0000000080004768 <i_4386>:
    80004768:	e53102a3          	sb	s3,-443(sp)

000000008000476c <i_4387>:
    8000476c:	e3e12023          	sw	t5,-480(sp)

0000000080004770 <i_4388>:
    80004770:	00120213          	addi	tp,tp,1 # 1 <main-0x7fffffff>
    80004774:	fc5218e3          	bne	tp,t0,80004744 <i_4377>

0000000080004778 <i_4389>:
    80004778:	0de13823          	sd	t5,208(sp)

000000008000477c <i_4390>:
    8000477c:	1c210283          	lb	t0,450(sp)

0000000080004780 <i_4391>:
    80004780:	0e7cf513          	andi	a0,s9,231

0000000080004784 <i_4392>:
    80004784:	0db11223          	sh	s11,196(sp)

0000000080004788 <i_4393>:
    80004788:	0159feb3          	and	t4,s3,s5

000000008000478c <i_4394>:
    8000478c:	00ad8e63          	beq	s11,a0,800047a8 <i_4401>

0000000080004790 <i_4395>:
    80004790:	05d11523          	sh	t4,74(sp)

0000000080004794 <i_4396>:
    80004794:	019c73b3          	and	t2,s8,s9

0000000080004798 <i_4397>:
    80004798:	ee713023          	sd	t2,-288(sp)

000000008000479c <i_4398>:
    8000479c:	01fac263          	blt	s5,t6,800047a0 <i_4399>

00000000800047a0 <i_4399>:
    800047a0:	00354263          	blt	a0,gp,800047a4 <i_4400>

00000000800047a4 <i_4400>:
    800047a4:	01e00213          	li	tp,30

00000000800047a8 <i_4401>:
    800047a8:	004e95b3          	sll	a1,t4,tp

00000000800047ac <i_4402>:
    800047ac:	47d4ef17          	auipc	t5,0x47d4e

00000000800047b0 <i_4403>:
    800047b0:	01b27a63          	bleu	s11,tp,800047c4 <i_4408>

00000000800047b4 <i_4404>:
    800047b4:	057e8a13          	addi	s4,t4,87

00000000800047b8 <i_4405>:
    800047b8:	03b14783          	lbu	a5,59(sp)

00000000800047bc <i_4406>:
    800047bc:	e3812783          	lw	a5,-456(sp)

00000000800047c0 <i_4407>:
    800047c0:	01452433          	slt	s0,a0,s4

00000000800047c4 <i_4408>:
    800047c4:	414a06bb          	subw	a3,s4,s4

00000000800047c8 <i_4409>:
    800047c8:	0e813c23          	sd	s0,248(sp)

00000000800047cc <i_4410>:
    800047cc:	1d810803          	lb	a6,472(sp)

00000000800047d0 <i_4411>:
    800047d0:	16812603          	lw	a2,360(sp)

00000000800047d4 <i_4412>:
    800047d4:	82500a13          	li	s4,-2011

00000000800047d8 <i_4413>:
    800047d8:	82700413          	li	s0,-2009

00000000800047dc <i_4414>:
    800047dc:	00000013          	nop

00000000800047e0 <i_4415>:
    800047e0:	001a0a13          	addi	s4,s4,1
    800047e4:	fe8a4ce3          	blt	s4,s0,800047dc <i_4414>

00000000800047e8 <i_4416>:
    800047e8:	00610783          	lb	a5,6(sp)

00000000800047ec <i_4417>:
    800047ec:	e8813183          	ld	gp,-376(sp)

00000000800047f0 <i_4418>:
    800047f0:	7cf00c93          	li	s9,1999

00000000800047f4 <i_4419>:
    800047f4:	7dd00e93          	li	t4,2013

00000000800047f8 <i_4420>:
    800047f8:	6ff7b613          	sltiu	a2,a5,1791

00000000800047fc <i_4421>:
    800047fc:	010877b3          	and	a5,a6,a6

0000000080004800 <i_4422>:
    80004800:	15011423          	sh	a6,328(sp)

0000000080004804 <i_4423>:
    80004804:	03445b3b          	divuw	s6,s0,s4

0000000080004808 <i_4424>:
    80004808:	00f78433          	add	s0,a5,a5

000000008000480c <i_4425>:
    8000480c:	001c8c93          	addi	s9,s9,1 # 16028001 <main-0x69fd7fff>
    80004810:	ff9ed4e3          	ble	s9,t4,800047f8 <i_4420>

0000000080004814 <i_4426>:
    80004814:	00416403          	lwu	s0,4(sp)

0000000080004818 <i_4427>:
    80004818:	f5714783          	lbu	a5,-169(sp)

000000008000481c <i_4428>:
    8000481c:	014e80b3          	add	ra,t4,s4

0000000080004820 <i_4429>:
    80004820:	02f64263          	blt	a2,a5,80004844 <i_4438>

0000000080004824 <i_4430>:
    80004824:	10811623          	sh	s0,268(sp)

0000000080004828 <i_4431>:
    80004828:	02c1f263          	bleu	a2,gp,8000484c <i_4440>

000000008000482c <i_4432>:
    8000482c:	f2e13823          	sd	a4,-208(sp)

0000000080004830 <i_4433>:
    80004830:	0e113c23          	sd	ra,248(sp)

0000000080004834 <i_4434>:
    80004834:	01064c63          	blt	a2,a6,8000484c <i_4440>

0000000080004838 <i_4435>:
    80004838:	07e15383          	lhu	t2,126(sp)

000000008000483c <i_4436>:
    8000483c:	f1e11403          	lh	s0,-226(sp)

0000000080004840 <i_4437>:
    80004840:	16813c23          	sd	s0,376(sp)

0000000080004844 <i_4438>:
    80004844:	00900293          	li	t0,9

0000000080004848 <i_4439>:
    80004848:	005452bb          	srlw	t0,s0,t0

000000008000484c <i_4440>:
    8000484c:	02565633          	divu	a2,a2,t0

0000000080004850 <i_4441>:
    80004850:	00566633          	or	a2,a2,t0

0000000080004854 <i_4442>:
    80004854:	87500a13          	li	s4,-1931

0000000080004858 <i_4443>:
    80004858:	87b00e93          	li	t4,-1925

000000008000485c <i_4444>:
    8000485c:	18a10283          	lb	t0,394(sp)

0000000080004860 <i_4445>:
    80004860:	03ab40b3          	div	ra,s6,s10

0000000080004864 <i_4446>:
    80004864:	ef612e23          	sw	s6,-260(sp)

0000000080004868 <i_4447>:
    80004868:	7bb00d13          	li	s10,1979

000000008000486c <i_4448>:
    8000486c:	7c400b13          	li	s6,1988

0000000080004870 <i_4449>:
    80004870:	e1914283          	lbu	t0,-487(sp)

0000000080004874 <i_4450>:
    80004874:	fdc16783          	lwu	a5,-36(sp)

0000000080004878 <i_4451>:
    80004878:	13610d23          	sb	s6,314(sp)

000000008000487c <i_4452>:
    8000487c:	01b80833          	add	a6,a6,s11

0000000080004880 <i_4453>:
    80004880:	001d0d13          	addi	s10,s10,1
    80004884:	ff6d16e3          	bne	s10,s6,80004870 <i_4449>

0000000080004888 <i_4454>:
    80004888:	01f00b13          	li	s6,31

000000008000488c <i_4455>:
    8000488c:	0162db33          	srl	s6,t0,s6

0000000080004890 <i_4456>:
    80004890:	001a0a13          	addi	s4,s4,1
    80004894:	fdda14e3          	bne	s4,t4,8000485c <i_4444>

0000000080004898 <i_4457>:
    80004898:	02c16803          	lwu	a6,44(sp)

000000008000489c <i_4458>:
    8000489c:	1c511b23          	sh	t0,470(sp)

00000000800048a0 <i_4459>:
    800048a0:	e5c15e83          	lhu	t4,-420(sp)

00000000800048a4 <i_4460>:
    800048a4:	03d84463          	blt	a6,t4,800048cc <i_4470>

00000000800048a8 <i_4461>:
    800048a8:	14f10d83          	lb	s11,335(sp)

00000000800048ac <i_4462>:
    800048ac:	a7ef7597          	auipc	a1,0xa7ef7

00000000800048b0 <i_4463>:
    800048b0:	00000013          	nop

00000000800048b4 <i_4464>:
    800048b4:	00000013          	nop

00000000800048b8 <i_4465>:
    800048b8:	00000013          	nop

00000000800048bc <i_4466>:
    800048bc:	05610d23          	sb	s6,90(sp)

00000000800048c0 <i_4467>:
    800048c0:	e3812223          	sw	s8,-476(sp)

00000000800048c4 <i_4468>:
    800048c4:	0cc12e83          	lw	t4,204(sp)

00000000800048c8 <i_4469>:
    800048c8:	00000013          	nop

00000000800048cc <i_4470>:
    800048cc:	e5b12623          	sw	s11,-436(sp)

00000000800048d0 <i_4471>:
    800048d0:	00000013          	nop

00000000800048d4 <i_4472>:
    800048d4:	81f00b93          	li	s7,-2017

00000000800048d8 <i_4473>:
    800048d8:	82400c13          	li	s8,-2012

00000000800048dc <i_4474>:
    800048dc:	ea811383          	lh	t2,-344(sp)

00000000800048e0 <i_4475>:
    800048e0:	001b8b93          	addi	s7,s7,1 # d3e94dc5 <_end+0x53e849b1>
    800048e4:	ff7c7ce3          	bleu	s7,s8,800048dc <i_4474>

00000000800048e8 <i_4476>:
    800048e8:	02016083          	lwu	ra,32(sp)

00000000800048ec <i_4477>:
    800048ec:	03b10ea3          	sb	s11,61(sp)

00000000800048f0 <i_4478>:
    800048f0:	f1013583          	ld	a1,-240(sp)

00000000800048f4 <i_4479>:
    800048f4:	0219d063          	ble	ra,s3,80004914 <i_4487>

00000000800048f8 <i_4480>:
    800048f8:	e5416483          	lwu	s1,-428(sp)

00000000800048fc <i_4481>:
    800048fc:	0010a0b3          	slt	ra,ra,ra

0000000080004900 <i_4482>:
    80004900:	00259e63          	bne	a1,sp,8000491c <i_4489>

0000000080004904 <i_4483>:
    80004904:	1b015a83          	lhu	s5,432(sp)

0000000080004908 <i_4484>:
    80004908:	18c15d83          	lhu	s11,396(sp)

000000008000490c <i_4485>:
    8000490c:	021a1463          	bne	s4,ra,80004934 <i_4495>

0000000080004910 <i_4486>:
    80004910:	015afa63          	bleu	s5,s5,80004924 <i_4491>

0000000080004914 <i_4487>:
    80004914:	08813a83          	ld	s5,136(sp)

0000000080004918 <i_4488>:
    80004918:	02300613          	li	a2,35

000000008000491c <i_4489>:
    8000491c:	00c69db3          	sll	s11,a3,a2

0000000080004920 <i_4490>:
    80004920:	00cce263          	bltu	s9,a2,80004924 <i_4491>

0000000080004924 <i_4491>:
    80004924:	25cd8a9b          	addiw	s5,s11,604

0000000080004928 <i_4492>:
    80004928:	f9912c23          	sw	s9,-104(sp)

000000008000492c <i_4493>:
    8000492c:	00cafa63          	bleu	a2,s5,80004940 <i_4498>

0000000080004930 <i_4494>:
    80004930:	03b60633          	mul	a2,a2,s11

0000000080004934 <i_4495>:
    80004934:	ffe15683          	lhu	a3,-2(sp)

0000000080004938 <i_4496>:
    80004938:	00000013          	nop

000000008000493c <i_4497>:
    8000493c:	03a11e83          	lh	t4,58(sp)

0000000080004940 <i_4498>:
    80004940:	fac16d83          	lwu	s11,-84(sp)

0000000080004944 <i_4499>:
    80004944:	003ed093          	srli	ra,t4,0x3

0000000080004948 <i_4500>:
    80004948:	78b00c93          	li	s9,1931

000000008000494c <i_4501>:
    8000494c:	79900213          	li	tp,1945

0000000080004950 <i_4502>:
    80004950:	03544263          	blt	s0,s5,80004974 <i_4510>

0000000080004954 <i_4503>:
    80004954:	001c8c93          	addi	s9,s9,1
    80004958:	fe4cece3          	bltu	s9,tp,80004950 <i_4502>

000000008000495c <i_4504>:
    8000495c:	a7f5a213          	slti	tp,a1,-1409

0000000080004960 <i_4505>:
    80004960:	01b24663          	blt	tp,s11,8000496c <i_4508>

0000000080004964 <i_4506>:
    80004964:	f9912023          	sw	s9,-128(sp)

0000000080004968 <i_4507>:
    80004968:	f2914d03          	lbu	s10,-215(sp)

000000008000496c <i_4508>:
    8000496c:	01aa9863          	bne	s5,s10,8000497c <i_4512>

0000000080004970 <i_4509>:
    80004970:	e7a10423          	sb	s10,-408(sp)

0000000080004974 <i_4510>:
    80004974:	00f00c93          	li	s9,15

0000000080004978 <i_4511>:
    80004978:	41945cbb          	sraw	s9,s0,s9

000000008000497c <i_4512>:
    8000497c:	002a9a93          	slli	s5,s5,0x2

0000000080004980 <i_4513>:
    80004980:	f3a12623          	sw	s10,-212(sp)

0000000080004984 <i_4514>:
    80004984:	f6b12c23          	sw	a1,-136(sp)

0000000080004988 <i_4515>:
    80004988:	fec13023          	sd	a2,-32(sp)

000000008000498c <i_4516>:
    8000498c:	fb9100a3          	sb	s9,-95(sp)

0000000080004990 <i_4517>:
    80004990:	ec416583          	lwu	a1,-316(sp)

0000000080004994 <i_4518>:
    80004994:	01959463          	bne	a1,s9,8000499c <i_4520>

0000000080004998 <i_4519>:
    80004998:	00400393          	li	t2,4

000000008000499c <i_4520>:
    8000499c:	407cd9b3          	sra	s3,s9,t2

00000000800049a0 <i_4521>:
    800049a0:	01400513          	li	a0,20

00000000800049a4 <i_4522>:
    800049a4:	40aed9bb          	sraw	s3,t4,a0

00000000800049a8 <i_4523>:
    800049a8:	81f00c93          	li	s9,-2017

00000000800049ac <i_4524>:
    800049ac:	82600593          	li	a1,-2010

00000000800049b0 <i_4525>:
    800049b0:	0b415a83          	lhu	s5,180(sp)

00000000800049b4 <i_4526>:
    800049b4:	03da8eb3          	mul	t4,s5,t4

00000000800049b8 <i_4527>:
    800049b8:	015be533          	or	a0,s7,s5

00000000800049bc <i_4528>:
    800049bc:	0a813823          	sd	s0,176(sp)

00000000800049c0 <i_4529>:
    800049c0:	02a77263          	bleu	a0,a4,800049e4 <i_4537>

00000000800049c4 <i_4530>:
    800049c4:	00000013          	nop

00000000800049c8 <i_4531>:
    800049c8:	01dbdc63          	ble	t4,s7,800049e0 <i_4536>

00000000800049cc <i_4532>:
    800049cc:	e3513823          	sd	s5,-464(sp)

00000000800049d0 <i_4533>:
    800049d0:	001c8c93          	addi	s9,s9,1
    800049d4:	fd95fce3          	bleu	s9,a1,800049ac <i_4524>

00000000800049d8 <i_4534>:
    800049d8:	03fac263          	blt	s5,t6,800049fc <i_4543>

00000000800049dc <i_4535>:
    800049dc:	0ca10923          	sb	a0,210(sp)

00000000800049e0 <i_4536>:
    800049e0:	19511b23          	sh	s5,406(sp)

00000000800049e4 <i_4537>:
    800049e4:	fc813503          	ld	a0,-56(sp)

00000000800049e8 <i_4538>:
    800049e8:	f8611a03          	lh	s4,-122(sp)

00000000800049ec <i_4539>:
    800049ec:	35d58a93          	addi	s5,a1,861 # 27efbc09 <main-0x581043f7>

00000000800049f0 <i_4540>:
    800049f0:	414a05b3          	sub	a1,s4,s4

00000000800049f4 <i_4541>:
    800049f4:	0155f863          	bleu	s5,a1,80004a04 <i_4545>

00000000800049f8 <i_4542>:
    800049f8:	00000013          	nop

00000000800049fc <i_4543>:
    800049fc:	1e414583          	lbu	a1,484(sp)

0000000080004a00 <i_4544>:
    80004a00:	10813583          	ld	a1,264(sp)

0000000080004a04 <i_4545>:
    80004a04:	00000013          	nop

0000000080004a08 <i_4546>:
    80004a08:	00000013          	nop

0000000080004a0c <i_4547>:
    80004a0c:	84800513          	li	a0,-1976

0000000080004a10 <i_4548>:
    80004a10:	84f00993          	li	s3,-1969

0000000080004a14 <i_4549>:
    80004a14:	00812023          	sw	s0,0(sp)

0000000080004a18 <i_4550>:
    80004a18:	00150513          	addi	a0,a0,1
    80004a1c:	ff354ce3          	blt	a0,s3,80004a14 <i_4549>

0000000080004a20 <i_4551>:
    80004a20:	00852433          	slt	s0,a0,s0

0000000080004a24 <i_4552>:
    80004a24:	00854c63          	blt	a0,s0,80004a3c <i_4558>

0000000080004a28 <i_4553>:
    80004a28:	4cb44413          	xori	s0,s0,1227

0000000080004a2c <i_4554>:
    80004a2c:	0044d493          	srli	s1,s1,0x4

0000000080004a30 <i_4555>:
    80004a30:	ed210283          	lb	t0,-302(sp)

0000000080004a34 <i_4556>:
    80004a34:	f0a11283          	lh	t0,-246(sp)

0000000080004a38 <i_4557>:
    80004a38:	1b012283          	lw	t0,432(sp)

0000000080004a3c <i_4558>:
    80004a3c:	01046663          	bltu	s0,a6,80004a48 <i_4561>

0000000080004a40 <i_4559>:
    80004a40:	07813483          	ld	s1,120(sp)

0000000080004a44 <i_4560>:
    80004a44:	e8f10b83          	lb	s7,-369(sp)

0000000080004a48 <i_4561>:
    80004a48:	fc810983          	lb	s3,-56(sp)

0000000080004a4c <i_4562>:
    80004a4c:	1e710283          	lb	t0,487(sp)

0000000080004a50 <i_4563>:
    80004a50:	037bebb3          	rem	s7,s7,s7

0000000080004a54 <i_4564>:
    80004a54:	01f41263          	bne	s0,t6,80004a58 <i_4565>

0000000080004a58 <i_4565>:
    80004a58:	013c9263          	bne	s9,s3,80004a5c <i_4566>

0000000080004a5c <i_4566>:
    80004a5c:	10c12c83          	lw	s9,268(sp)

0000000080004a60 <i_4567>:
    80004a60:	019a0263          	beq	s4,s9,80004a64 <i_4568>

0000000080004a64 <i_4568>:
    80004a64:	01712a23          	sw	s7,20(sp)

0000000080004a68 <i_4569>:
    80004a68:	1b314983          	lbu	s3,435(sp)

0000000080004a6c <i_4570>:
    80004a6c:	09411783          	lh	a5,148(sp)

0000000080004a70 <i_4571>:
    80004a70:	019cda63          	ble	s9,s9,80004a84 <i_4576>

0000000080004a74 <i_4572>:
    80004a74:	00f2dc63          	ble	a5,t0,80004a8c <i_4578>

0000000080004a78 <i_4573>:
    80004a78:	037bdbb3          	divu	s7,s7,s7

0000000080004a7c <i_4574>:
    80004a7c:	f4013f03          	ld	t5,-192(sp)

0000000080004a80 <i_4575>:
    80004a80:	417b8e33          	sub	t3,s7,s7

0000000080004a84 <i_4576>:
    80004a84:	0377f263          	bleu	s7,a5,80004aa8 <i_4585>

0000000080004a88 <i_4577>:
    80004a88:	5193ae17          	auipc	t3,0x5193a

0000000080004a8c <i_4578>:
    80004a8c:	e1914f03          	lbu	t5,-487(sp)

0000000080004a90 <i_4579>:
    80004a90:	02314b83          	lbu	s7,35(sp)

0000000080004a94 <i_4580>:
    80004a94:	13d10ca3          	sb	t4,313(sp)

0000000080004a98 <i_4581>:
    80004a98:	417c8bb3          	sub	s7,s9,s7

0000000080004a9c <i_4582>:
    80004a9c:	00b00f13          	li	t5,11

0000000080004aa0 <i_4583>:
    80004aa0:	01ebdbb3          	srl	s7,s7,t5

0000000080004aa4 <i_4584>:
    80004aa4:	1f9100a3          	sb	s9,481(sp)

0000000080004aa8 <i_4585>:
    80004aa8:	032b0c33          	mul	s8,s6,s2

0000000080004aac <i_4586>:
    80004aac:	1ce15803          	lhu	a6,462(sp)

0000000080004ab0 <i_4587>:
    80004ab0:	8b700193          	li	gp,-1865

0000000080004ab4 <i_4588>:
    80004ab4:	8c100c93          	li	s9,-1855

0000000080004ab8 <i_4589>:
    80004ab8:	8660fc13          	andi	s8,ra,-1946

0000000080004abc <i_4590>:
    80004abc:	0be15c03          	lhu	s8,190(sp)

0000000080004ac0 <i_4591>:
    80004ac0:	fa212223          	sw	sp,-92(sp)

0000000080004ac4 <i_4592>:
    80004ac4:	ea812383          	lw	t2,-344(sp)

0000000080004ac8 <i_4593>:
    80004ac8:	00118193          	addi	gp,gp,1
    80004acc:	ff9196e3          	bne	gp,s9,80004ab8 <i_4589>

0000000080004ad0 <i_4594>:
    80004ad0:	14a8bc13          	sltiu	s8,a7,330

0000000080004ad4 <i_4595>:
    80004ad4:	00000013          	nop

0000000080004ad8 <i_4596>:
    80004ad8:	00000013          	nop

0000000080004adc <i_4597>:
    80004adc:	82700b13          	li	s6,-2009

0000000080004ae0 <i_4598>:
    80004ae0:	82900b93          	li	s7,-2007

0000000080004ae4 <i_4599>:
    80004ae4:	00000013          	nop

0000000080004ae8 <i_4600>:
    80004ae8:	0d713023          	sd	s7,192(sp)

0000000080004aec <i_4601>:
    80004aec:	75940593          	addi	a1,s0,1881

0000000080004af0 <i_4602>:
    80004af0:	030c61bb          	remw	gp,s8,a6

0000000080004af4 <i_4603>:
    80004af4:	00375213          	srli	tp,a4,0x3

0000000080004af8 <i_4604>:
    80004af8:	13813023          	sd	s8,288(sp)

0000000080004afc <i_4605>:
    80004afc:	00000013          	nop

0000000080004b00 <i_4606>:
    80004b00:	19c16083          	lwu	ra,412(sp)

0000000080004b04 <i_4607>:
    80004b04:	001b0b13          	addi	s6,s6,1 # 77cb8001 <main-0x8347fff>
    80004b08:	fd7b4ee3          	blt	s6,s7,80004ae4 <i_4599>

0000000080004b0c <i_4608>:
    80004b0c:	f4310923          	sb	gp,-174(sp)

0000000080004b10 <i_4609>:
    80004b10:	07816c83          	lwu	s9,120(sp)

0000000080004b14 <i_4610>:
    80004b14:	03824463          	blt	tp,s8,80004b3c <i_4620>

0000000080004b18 <i_4611>:
    80004b18:	b960c213          	xori	tp,ra,-1130

0000000080004b1c <i_4612>:
    80004b1c:	001c9663          	bne	s9,ra,80004b28 <i_4615>

0000000080004b20 <i_4613>:
    80004b20:	1e811f03          	lh	t5,488(sp)

0000000080004b24 <i_4614>:
    80004b24:	dde27c93          	andi	s9,tp,-546

0000000080004b28 <i_4615>:
    80004b28:	022cbcb3          	mulhu	s9,s9,sp

0000000080004b2c <i_4616>:
    80004b2c:	ebe11723          	sh	t5,-338(sp)

0000000080004b30 <i_4617>:
    80004b30:	ff813b83          	ld	s7,-8(sp)

0000000080004b34 <i_4618>:
    80004b34:	035bc263          	blt	s7,s5,80004b58 <i_4627>

0000000080004b38 <i_4619>:
    80004b38:	16412023          	sw	tp,352(sp)

0000000080004b3c <i_4620>:
    80004b3c:	019bc333          	xor	t1,s7,s9

0000000080004b40 <i_4621>:
    80004b40:	f2910d83          	lb	s11,-215(sp)

0000000080004b44 <i_4622>:
    80004b44:	01930463          	beq	t1,s9,80004b4c <i_4624>

0000000080004b48 <i_4623>:
    80004b48:	03e101a3          	sb	t5,35(sp)

0000000080004b4c <i_4624>:
    80004b4c:	039323b3          	mulhsu	t2,t1,s9

0000000080004b50 <i_4625>:
    80004b50:	037b87b3          	mul	a5,s7,s7

0000000080004b54 <i_4626>:
    80004b54:	40485b9b          	sraiw	s7,a6,0x4

0000000080004b58 <i_4627>:
    80004b58:	e3813b83          	ld	s7,-456(sp)

0000000080004b5c <i_4628>:
    80004b5c:	02fb87b3          	mul	a5,s7,a5

0000000080004b60 <i_4629>:
    80004b60:	81000513          	li	a0,-2032

0000000080004b64 <i_4630>:
    80004b64:	81900213          	li	tp,-2023

0000000080004b68 <i_4631>:
    80004b68:	037797b3          	mulh	a5,a5,s7

0000000080004b6c <i_4632>:
    80004b6c:	89abfb93          	andi	s7,s7,-1894

0000000080004b70 <i_4633>:
    80004b70:	03f85ab3          	divu	s5,a6,t6

0000000080004b74 <i_4634>:
    80004b74:	01512823          	sw	s5,16(sp)

0000000080004b78 <i_4635>:
    80004b78:	e9013b83          	ld	s7,-368(sp)

0000000080004b7c <i_4636>:
    80004b7c:	023871bb          	remuw	gp,a6,gp

0000000080004b80 <i_4637>:
    80004b80:	f0013783          	ld	a5,-256(sp)

0000000080004b84 <i_4638>:
    80004b84:	02e37333          	remu	t1,t1,a4

0000000080004b88 <i_4639>:
    80004b88:	07813683          	ld	a3,120(sp)

0000000080004b8c <i_4640>:
    80004b8c:	11b10ca3          	sb	s11,281(sp)

0000000080004b90 <i_4641>:
    80004b90:	e5012f03          	lw	t5,-432(sp)

0000000080004b94 <i_4642>:
    80004b94:	00b00293          	li	t0,11

0000000080004b98 <i_4643>:
    80004b98:	0056d1bb          	srlw	gp,a3,t0

0000000080004b9c <i_4644>:
    80004b9c:	00150513          	addi	a0,a0,1
    80004ba0:	fc4564e3          	bltu	a0,tp,80004b68 <i_4631>

0000000080004ba4 <i_4645>:
    80004ba4:	02d87063          	bleu	a3,a6,80004bc4 <i_4653>

0000000080004ba8 <i_4646>:
    80004ba8:	02f00b93          	li	s7,47

0000000080004bac <i_4647>:
    80004bac:	417ad7b3          	sra	a5,s5,s7

0000000080004bb0 <i_4648>:
    80004bb0:	8a0baa93          	slti	s5,s7,-1888

0000000080004bb4 <i_4649>:
    80004bb4:	017b9e63          	bne	s7,s7,80004bd0 <i_4656>

0000000080004bb8 <i_4650>:
    80004bb8:	0e416203          	lwu	tp,228(sp)

0000000080004bbc <i_4651>:
    80004bbc:	03d85533          	divu	a0,a6,t4

0000000080004bc0 <i_4652>:
    80004bc0:	01200513          	li	a0,18

0000000080004bc4 <i_4653>:
    80004bc4:	40aad633          	sra	a2,s5,a0

0000000080004bc8 <i_4654>:
    80004bc8:	00000013          	nop

0000000080004bcc <i_4655>:
    80004bcc:	07c11e03          	lh	t3,124(sp)

0000000080004bd0 <i_4656>:
    80004bd0:	00000013          	nop

0000000080004bd4 <i_4657>:
    80004bd4:	00000013          	nop

0000000080004bd8 <i_4658>:
    80004bd8:	78c00093          	li	ra,1932

0000000080004bdc <i_4659>:
    80004bdc:	79900813          	li	a6,1945

0000000080004be0 <i_4660>:
    80004be0:	1d414e03          	lbu	t3,468(sp)

0000000080004be4 <i_4661>:
    80004be4:	03186d33          	rem	s10,a6,a7

0000000080004be8 <i_4662>:
    80004be8:	00483a33          	sltu	s4,a6,tp

0000000080004bec <i_4663>:
    80004bec:	00108093          	addi	ra,ra,1
    80004bf0:	ff00c8e3          	blt	ra,a6,80004be0 <i_4660>

0000000080004bf4 <i_4664>:
    80004bf4:	01daf833          	and	a6,s5,t4

0000000080004bf8 <i_4665>:
    80004bf8:	06610803          	lb	a6,102(sp)

0000000080004bfc <i_4666>:
    80004bfc:	13e15a83          	lhu	s5,318(sp)

0000000080004c00 <i_4667>:
    80004c00:	00ea5263          	ble	a4,s4,80004c04 <i_4668>

0000000080004c04 <i_4668>:
    80004c04:	01412803          	lw	a6,20(sp)

0000000080004c08 <i_4669>:
    80004c08:	00a6ad33          	slt	s10,a3,a0

0000000080004c0c <i_4670>:
    80004c0c:	00ab9863          	bne	s7,a0,80004c1c <i_4674>

0000000080004c10 <i_4671>:
    80004c10:	007844b3          	xor	s1,a6,t2

0000000080004c14 <i_4672>:
    80004c14:	0dc12623          	sw	t3,204(sp)

0000000080004c18 <i_4673>:
    80004c18:	02483333          	mulhu	t1,a6,tp

0000000080004c1c <i_4674>:
    80004c1c:	01600293          	li	t0,22

0000000080004c20 <i_4675>:
    80004c20:	00525233          	srl	tp,tp,t0

0000000080004c24 <i_4676>:
    80004c24:	00300313          	li	t1,3

0000000080004c28 <i_4677>:
    80004c28:	406e5bb3          	sra	s7,t3,t1

0000000080004c2c <i_4678>:
    80004c2c:	85f00c13          	li	s8,-1953

0000000080004c30 <i_4679>:
    80004c30:	87100e13          	li	t3,-1935

0000000080004c34 <i_4680>:
    80004c34:	0e610b23          	sb	t1,246(sp)

0000000080004c38 <i_4681>:
    80004c38:	1a913c23          	sd	s1,440(sp)

0000000080004c3c <i_4682>:
    80004c3c:	00449863          	bne	s1,tp,80004c4c <i_4686>

0000000080004c40 <i_4683>:
    80004c40:	00436663          	bltu	t1,tp,80004c4c <i_4686>

0000000080004c44 <i_4684>:
    80004c44:	02a1b1b3          	mulhu	gp,gp,a0

0000000080004c48 <i_4685>:
    80004c48:	00000013          	nop

0000000080004c4c <i_4686>:
    80004c4c:	513b021b          	addiw	tp,s6,1299

0000000080004c50 <i_4687>:
    80004c50:	0e813b03          	ld	s6,232(sp)

0000000080004c54 <i_4688>:
    80004c54:	00f00b13          	li	s6,15

0000000080004c58 <i_4689>:
    80004c58:	0161d1bb          	srlw	gp,gp,s6

0000000080004c5c <i_4690>:
    80004c5c:	001c0c13          	addi	s8,s8,1
    80004c60:	fdcc6ae3          	bltu	s8,t3,80004c34 <i_4680>

0000000080004c64 <i_4691>:
    80004c64:	003d8db3          	add	s11,s11,gp

0000000080004c68 <i_4692>:
    80004c68:	1c914183          	lbu	gp,457(sp)

0000000080004c6c <i_4693>:
    80004c6c:	ec013a83          	ld	s5,-320(sp)

0000000080004c70 <i_4694>:
    80004c70:	035af3b3          	remu	t2,s5,s5

0000000080004c74 <i_4695>:
    80004c74:	01b14e63          	blt	sp,s11,80004c90 <i_4702>

0000000080004c78 <i_4696>:
    80004c78:	007b7c63          	bleu	t2,s6,80004c90 <i_4702>

0000000080004c7c <i_4697>:
    80004c7c:	03c1e463          	bltu	gp,t3,80004ca4 <i_4707>

0000000080004c80 <i_4698>:
    80004c80:	002e6db3          	or	s11,t3,sp

0000000080004c84 <i_4699>:
    80004c84:	e9816683          	lwu	a3,-360(sp)

0000000080004c88 <i_4700>:
    80004c88:	01600d93          	li	s11,22

0000000080004c8c <i_4701>:
    80004c8c:	01bad2bb          	srlw	t0,s5,s11

0000000080004c90 <i_4702>:
    80004c90:	0f114083          	lbu	ra,241(sp)

0000000080004c94 <i_4703>:
    80004c94:	c361b193          	sltiu	gp,gp,-970

0000000080004c98 <i_4704>:
    80004c98:	0010d863          	ble	ra,ra,80004ca8 <i_4708>

0000000080004c9c <i_4705>:
    80004c9c:	1a511823          	sh	t0,432(sp)

0000000080004ca0 <i_4706>:
    80004ca0:	ea812e03          	lw	t3,-344(sp)

0000000080004ca4 <i_4707>:
    80004ca4:	01300093          	li	ra,19

0000000080004ca8 <i_4708>:
    80004ca8:	001b5b33          	srl	s6,s6,ra

0000000080004cac <i_4709>:
    80004cac:	00736663          	bltu	t1,t2,80004cb8 <i_4712>

0000000080004cb0 <i_4710>:
    80004cb0:	1d610ea3          	sb	s6,477(sp)

0000000080004cb4 <i_4711>:
    80004cb4:	fcc16d83          	lwu	s11,-52(sp)

0000000080004cb8 <i_4712>:
    80004cb8:	01b0ca63          	blt	ra,s11,80004ccc <i_4717>

0000000080004cbc <i_4713>:
    80004cbc:	0dc84813          	xori	a6,a6,220

0000000080004cc0 <i_4714>:
    80004cc0:	fe512623          	sw	t0,-20(sp)

0000000080004cc4 <i_4715>:
    80004cc4:	fc511d23          	sh	t0,-38(sp)

0000000080004cc8 <i_4716>:
    80004cc8:	eb90809b          	addiw	ra,ra,-327

0000000080004ccc <i_4717>:
    80004ccc:	0100c2b3          	xor	t0,ra,a6

0000000080004cd0 <i_4718>:
    80004cd0:	fe113023          	sd	ra,-32(sp)

0000000080004cd4 <i_4719>:
    80004cd4:	00581463          	bne	a6,t0,80004cdc <i_4721>

0000000080004cd8 <i_4720>:
    80004cd8:	3850f593          	andi	a1,ra,901

0000000080004cdc <i_4721>:
    80004cdc:	00184a63          	blt	a6,ra,80004cf0 <i_4726>

0000000080004ce0 <i_4722>:
    80004ce0:	b366a693          	slti	a3,a3,-1226

0000000080004ce4 <i_4723>:
    80004ce4:	fa812223          	sw	s0,-92(sp)

0000000080004ce8 <i_4724>:
    80004ce8:	f6e15083          	lhu	ra,-146(sp)

0000000080004cec <i_4725>:
    80004cec:	0036d59b          	srliw	a1,a3,0x3

0000000080004cf0 <i_4726>:
    80004cf0:	f3615e03          	lhu	t3,-202(sp)

0000000080004cf4 <i_4727>:
    80004cf4:	18610083          	lb	ra,390(sp)

0000000080004cf8 <i_4728>:
    80004cf8:	f8611f23          	sh	t1,-98(sp)

0000000080004cfc <i_4729>:
    80004cfc:	19812683          	lw	a3,408(sp)

0000000080004d00 <i_4730>:
    80004d00:	87100593          	li	a1,-1935

0000000080004d04 <i_4731>:
    80004d04:	87300313          	li	t1,-1933

0000000080004d08 <i_4732>:
    80004d08:	01100813          	li	a6,17

0000000080004d0c <i_4733>:
    80004d0c:	0108583b          	srlw	a6,a6,a6

0000000080004d10 <i_4734>:
    80004d10:	e4013083          	ld	ra,-448(sp)

0000000080004d14 <i_4735>:
    80004d14:	ee416383          	lwu	t2,-284(sp)

0000000080004d18 <i_4736>:
    80004d18:	02b59bb3          	mulh	s7,a1,a1

0000000080004d1c <i_4737>:
    80004d1c:	0213c263          	blt	t2,ra,80004d40 <i_4745>

0000000080004d20 <i_4738>:
    80004d20:	02109063          	bne	ra,ra,80004d40 <i_4745>

0000000080004d24 <i_4739>:
    80004d24:	0075fc63          	bleu	t2,a1,80004d3c <i_4744>

0000000080004d28 <i_4740>:
    80004d28:	f2611323          	sh	t1,-218(sp)

0000000080004d2c <i_4741>:
    80004d2c:	00158593          	addi	a1,a1,1
    80004d30:	fc65ece3          	bltu	a1,t1,80004d08 <i_4732>

0000000080004d34 <i_4742>:
    80004d34:	02681063          	bne	a6,t1,80004d54 <i_4750>

0000000080004d38 <i_4743>:
    80004d38:	187101a3          	sb	t2,387(sp)

0000000080004d3c <i_4744>:
    80004d3c:	ec611023          	sh	t1,-320(sp)

0000000080004d40 <i_4745>:
    80004d40:	01800693          	li	a3,24

0000000080004d44 <i_4746>:
    80004d44:	40d85533          	sra	a0,a6,a3

0000000080004d48 <i_4747>:
    80004d48:	407383bb          	subw	t2,t2,t2

0000000080004d4c <i_4748>:
    80004d4c:	0d713c23          	sd	s7,216(sp)

0000000080004d50 <i_4749>:
    80004d50:	1c711423          	sh	t2,456(sp)

0000000080004d54 <i_4750>:
    80004d54:	03000b93          	li	s7,48

0000000080004d58 <i_4751>:
    80004d58:	017b9533          	sll	a0,s7,s7

0000000080004d5c <i_4752>:
    80004d5c:	fa215183          	lhu	gp,-94(sp)

0000000080004d60 <i_4753>:
    80004d60:	e3711a23          	sh	s7,-460(sp)

0000000080004d64 <i_4754>:
    80004d64:	17816183          	lwu	gp,376(sp)

0000000080004d68 <i_4755>:
    80004d68:	0371a1b3          	mulhsu	gp,gp,s7

0000000080004d6c <i_4756>:
    80004d6c:	03719bb3          	mulh	s7,gp,s7

0000000080004d70 <i_4757>:
    80004d70:	037bdbbb          	divuw	s7,s7,s7

0000000080004d74 <i_4758>:
    80004d74:	ed713023          	sd	s7,-320(sp)

0000000080004d78 <i_4759>:
    80004d78:	01718463          	beq	gp,s7,80004d80 <i_4761>

0000000080004d7c <i_4760>:
    80004d7c:	030b853b          	mulw	a0,s7,a6

0000000080004d80 <i_4761>:
    80004d80:	00000013          	nop

0000000080004d84 <i_4762>:
    80004d84:	f5816283          	lwu	t0,-168(sp)

0000000080004d88 <i_4763>:
    80004d88:	87e00813          	li	a6,-1922

0000000080004d8c <i_4764>:
    80004d8c:	88900793          	li	a5,-1911

0000000080004d90 <i_4765>:
    80004d90:	f3c15b83          	lhu	s7,-196(sp)

0000000080004d94 <i_4766>:
    80004d94:	01754533          	xor	a0,a0,s7

0000000080004d98 <i_4767>:
    80004d98:	f8c11083          	lh	ra,-116(sp)

0000000080004d9c <i_4768>:
    80004d9c:	00000013          	nop

0000000080004da0 <i_4769>:
    80004da0:	fb816283          	lwu	t0,-72(sp)

0000000080004da4 <i_4770>:
    80004da4:	00180813          	addi	a6,a6,1
    80004da8:	fef864e3          	bltu	a6,a5,80004d90 <i_4765>

0000000080004dac <i_4771>:
    80004dac:	00551c63          	bne	a0,t0,80004dc4 <i_4777>

0000000080004db0 <i_4772>:
    80004db0:	e3813083          	ld	ra,-456(sp)

0000000080004db4 <i_4773>:
    80004db4:	1c512223          	sw	t0,452(sp)

0000000080004db8 <i_4774>:
    80004db8:	02528063          	beq	t0,t0,80004dd8 <i_4782>

0000000080004dbc <i_4775>:
    80004dbc:	5192dd17          	auipc	s10,0x5192d

0000000080004dc0 <i_4776>:
    80004dc0:	f4a10503          	lb	a0,-182(sp)

0000000080004dc4 <i_4777>:
    80004dc4:	00000013          	nop

0000000080004dc8 <i_4778>:
    80004dc8:	02813c23          	sd	s0,56(sp)

0000000080004dcc <i_4779>:
    80004dcc:	acc2859b          	addiw	a1,t0,-1332

0000000080004dd0 <i_4780>:
    80004dd0:	07a12823          	sw	s10,112(sp)

0000000080004dd4 <i_4781>:
    80004dd4:	00000013          	nop

0000000080004dd8 <i_4782>:
    80004dd8:	005d60b3          	or	ra,s10,t0

0000000080004ddc <i_4783>:
    80004ddc:	00000013          	nop

0000000080004de0 <i_4784>:
    80004de0:	76100413          	li	s0,1889

0000000080004de4 <i_4785>:
    80004de4:	76a00d13          	li	s10,1898

0000000080004de8 <i_4786>:
    80004de8:	00140413          	addi	s0,s0,1
    80004dec:	fe8d5ee3          	ble	s0,s10,80004de8 <i_4786>

0000000080004df0 <i_4787>:
    80004df0:	0065cd93          	xori	s11,a1,6

0000000080004df4 <i_4788>:
    80004df4:	e7410583          	lb	a1,-396(sp)

0000000080004df8 <i_4789>:
    80004df8:	01500093          	li	ra,21

0000000080004dfc <i_4790>:
    80004dfc:	0015d5b3          	srl	a1,a1,ra

0000000080004e00 <i_4791>:
    80004e00:	00000013          	nop

0000000080004e04 <i_4792>:
    80004e04:	76d5b313          	sltiu	t1,a1,1901

0000000080004e08 <i_4793>:
    80004e08:	76400593          	li	a1,1892

0000000080004e0c <i_4794>:
    80004e0c:	76f00093          	li	ra,1903

0000000080004e10 <i_4795>:
    80004e10:	01459263          	bne	a1,s4,80004e14 <i_4796>

0000000080004e14 <i_4796>:
    80004e14:	15c16303          	lwu	t1,348(sp)

0000000080004e18 <i_4797>:
    80004e18:	03fc0f3b          	mulw	t5,s8,t6

0000000080004e1c <i_4798>:
    80004e1c:	81300a13          	li	s4,-2029

0000000080004e20 <i_4799>:
    80004e20:	81c00c13          	li	s8,-2020

0000000080004e24 <i_4800>:
    80004e24:	001a0a13          	addi	s4,s4,1
    80004e28:	ff4c5ee3          	ble	s4,s8,80004e24 <i_4800>

0000000080004e2c <i_4801>:
    80004e2c:	026f84bb          	mulw	s1,t6,t1

0000000080004e30 <i_4802>:
    80004e30:	00000013          	nop

0000000080004e34 <i_4803>:
    80004e34:	01e44e63          	blt	s0,t5,80004e50 <i_4809>

0000000080004e38 <i_4804>:
    80004e38:	00158593          	addi	a1,a1,1
    80004e3c:	fcb0fae3          	bleu	a1,ra,80004e10 <i_4795>

0000000080004e40 <i_4805>:
    80004e40:	006a29b3          	slt	s3,s4,t1

0000000080004e44 <i_4806>:
    80004e44:	03a9c5b3          	div	a1,s3,s10

0000000080004e48 <i_4807>:
    80004e48:	03c31063          	bne	t1,t3,80004e68 <i_4815>

0000000080004e4c <i_4808>:
    80004e4c:	01e4d663          	ble	t5,s1,80004e58 <i_4811>

0000000080004e50 <i_4809>:
    80004e50:	00bca6b3          	slt	a3,s9,a1

0000000080004e54 <i_4810>:
    80004e54:	00631e63          	bne	t1,t1,80004e70 <i_4817>

0000000080004e58 <i_4811>:
    80004e58:	406686b3          	sub	a3,a3,t1

0000000080004e5c <i_4812>:
    80004e5c:	0036db93          	srli	s7,a3,0x3

0000000080004e60 <i_4813>:
    80004e60:	00bc66b3          	or	a3,s8,a1

0000000080004e64 <i_4814>:
    80004e64:	ae82fc37          	lui	s8,0xae82f

0000000080004e68 <i_4815>:
    80004e68:	02dbd463          	ble	a3,s7,80004e90 <i_4825>

0000000080004e6c <i_4816>:
    80004e6c:	f6c14403          	lbu	s0,-148(sp)

0000000080004e70 <i_4817>:
    80004e70:	03711223          	sh	s7,36(sp)

0000000080004e74 <i_4818>:
    80004e74:	00d2e663          	bltu	t0,a3,80004e80 <i_4821>

0000000080004e78 <i_4819>:
    80004e78:	038c6463          	bltu	s8,s8,80004ea0 <i_4829>

0000000080004e7c <i_4820>:
    80004e7c:	ec6ebb97          	auipc	s7,0xec6eb

0000000080004e80 <i_4821>:
    80004e80:	008bcc63          	blt	s7,s0,80004e98 <i_4827>

0000000080004e84 <i_4822>:
    80004e84:	1d416d03          	lwu	s10,468(sp)

0000000080004e88 <i_4823>:
    80004e88:	fb813283          	ld	t0,-72(sp)

0000000080004e8c <i_4824>:
    80004e8c:	00341d13          	slli	s10,s0,0x3

0000000080004e90 <i_4825>:
    80004e90:	001d5d1b          	srliw	s10,s10,0x1

0000000080004e94 <i_4826>:
    80004e94:	ea810323          	sb	s0,-346(sp)

0000000080004e98 <i_4827>:
    80004e98:	00000013          	nop

0000000080004e9c <i_4828>:
    80004e9c:	02d00d13          	li	s10,45

0000000080004ea0 <i_4829>:
    80004ea0:	01ad59b3          	srl	s3,s10,s10

0000000080004ea4 <i_4830>:
    80004ea4:	00000013          	nop

0000000080004ea8 <i_4831>:
    80004ea8:	89600413          	li	s0,-1898

0000000080004eac <i_4832>:
    80004eac:	89c00293          	li	t0,-1892

0000000080004eb0 <i_4833>:
    80004eb0:	f3e11d03          	lh	s10,-194(sp)

0000000080004eb4 <i_4834>:
    80004eb4:	00140413          	addi	s0,s0,1
    80004eb8:	fe82fce3          	bleu	s0,t0,80004eb0 <i_4833>

0000000080004ebc <i_4835>:
    80004ebc:	00a99863          	bne	s3,a0,80004ecc <i_4839>

0000000080004ec0 <i_4836>:
    80004ec0:	003d7a63          	bleu	gp,s10,80004ed4 <i_4841>

0000000080004ec4 <i_4837>:
    80004ec4:	16c15303          	lhu	t1,364(sp)

0000000080004ec8 <i_4838>:
    80004ec8:	406d0c3b          	subw	s8,s10,t1

0000000080004ecc <i_4839>:
    80004ecc:	13c14583          	lbu	a1,316(sp)

0000000080004ed0 <i_4840>:
    80004ed0:	11813d03          	ld	s10,280(sp)

0000000080004ed4 <i_4841>:
    80004ed4:	0fe11583          	lh	a1,254(sp)

0000000080004ed8 <i_4842>:
    80004ed8:	02b58d33          	mul	s10,a1,a1

0000000080004edc <i_4843>:
    80004edc:	1ab12023          	sw	a1,416(sp)

0000000080004ee0 <i_4844>:
    80004ee0:	f9e14583          	lbu	a1,-98(sp)

0000000080004ee4 <i_4845>:
    80004ee4:	f7013083          	ld	ra,-144(sp)

0000000080004ee8 <i_4846>:
    80004ee8:	e7213023          	sd	s2,-416(sp)

0000000080004eec <i_4847>:
    80004eec:	4040da1b          	sraiw	s4,ra,0x4

0000000080004ef0 <i_4848>:
    80004ef0:	00422233          	slt	tp,tp,tp

0000000080004ef4 <i_4849>:
    80004ef4:	a4423213          	sltiu	tp,tp,-1468

0000000080004ef8 <i_4850>:
    80004ef8:	00225c93          	srli	s9,tp,0x2

0000000080004efc <i_4851>:
    80004efc:	01924c63          	blt	tp,s9,80004f14 <i_4857>

0000000080004f00 <i_4852>:
    80004f00:	1b411123          	sh	s4,418(sp)

0000000080004f04 <i_4853>:
    80004f04:	00ac8533          	add	a0,s9,a0

0000000080004f08 <i_4854>:
    80004f08:	02254233          	div	tp,a0,sp

0000000080004f0c <i_4855>:
    80004f0c:	00ac8533          	add	a0,s9,a0

0000000080004f10 <i_4856>:
    80004f10:	01956863          	bltu	a0,s9,80004f20 <i_4860>

0000000080004f14 <i_4857>:
    80004f14:	f3416d03          	lwu	s10,-204(sp)

0000000080004f18 <i_4858>:
    80004f18:	019cce63          	blt	s9,s9,80004f34 <i_4865>

0000000080004f1c <i_4859>:
    80004f1c:	03ad4063          	blt	s10,s10,80004f3c <i_4867>

0000000080004f20 <i_4860>:
    80004f20:	01300513          	li	a0,19

0000000080004f24 <i_4861>:
    80004f24:	00ad1cb3          	sll	s9,s10,a0

0000000080004f28 <i_4862>:
    80004f28:	f0114203          	lbu	tp,-255(sp)

0000000080004f2c <i_4863>:
    80004f2c:	01e00413          	li	s0,30

0000000080004f30 <i_4864>:
    80004f30:	008793bb          	sllw	t2,a5,s0

0000000080004f34 <i_4865>:
    80004f34:	fee10583          	lb	a1,-18(sp)

0000000080004f38 <i_4866>:
    80004f38:	03410303          	lb	t1,52(sp)

0000000080004f3c <i_4867>:
    80004f3c:	02748463          	beq	s1,t2,80004f64 <i_4877>

0000000080004f40 <i_4868>:
    80004f40:	00824e63          	blt	tp,s0,80004f5c <i_4875>

0000000080004f44 <i_4869>:
    80004f44:	17910f23          	sb	s9,382(sp)

0000000080004f48 <i_4870>:
    80004f48:	0a016503          	lwu	a0,160(sp)

0000000080004f4c <i_4871>:
    80004f4c:	14410023          	sb	tp,320(sp)

0000000080004f50 <i_4872>:
    80004f50:	1dc16e03          	lwu	t3,476(sp)

0000000080004f54 <i_4873>:
    80004f54:	eb810183          	lb	gp,-328(sp)

0000000080004f58 <i_4874>:
    80004f58:	17011683          	lh	a3,368(sp)

0000000080004f5c <i_4875>:
    80004f5c:	e2412503          	lw	a0,-476(sp)

0000000080004f60 <i_4876>:
    80004f60:	00000013          	nop

0000000080004f64 <i_4877>:
    80004f64:	04813483          	ld	s1,72(sp)

0000000080004f68 <i_4878>:
    80004f68:	f6314683          	lbu	a3,-157(sp)

0000000080004f6c <i_4879>:
    80004f6c:	8b300a93          	li	s5,-1869

0000000080004f70 <i_4880>:
    80004f70:	8c000393          	li	t2,-1856

0000000080004f74 <i_4881>:
    80004f74:	001a8a93          	addi	s5,s5,1
    80004f78:	ff53dee3          	ble	s5,t2,80004f74 <i_4881>

0000000080004f7c <i_4882>:
    80004f7c:	01510723          	sb	s5,14(sp)

0000000080004f80 <i_4883>:
    80004f80:	02a54263          	blt	a0,a0,80004fa4 <i_4892>

0000000080004f84 <i_4884>:
    80004f84:	00000013          	nop

0000000080004f88 <i_4885>:
    80004f88:	f6015483          	lhu	s1,-160(sp)

0000000080004f8c <i_4886>:
    80004f8c:	40dd8db3          	sub	s11,s11,a3

0000000080004f90 <i_4887>:
    80004f90:	40325593          	srai	a1,tp,0x3

0000000080004f94 <i_4888>:
    80004f94:	0ab12e23          	sw	a1,188(sp)

0000000080004f98 <i_4889>:
    80004f98:	16b10423          	sb	a1,360(sp)

0000000080004f9c <i_4890>:
    80004f9c:	07410583          	lb	a1,116(sp)

0000000080004fa0 <i_4891>:
    80004fa0:	00000013          	nop

0000000080004fa4 <i_4892>:
    80004fa4:	e6b13823          	sd	a1,-400(sp)

0000000080004fa8 <i_4893>:
    80004fa8:	04015d03          	lhu	s10,64(sp)

0000000080004fac <i_4894>:
    80004fac:	7c400693          	li	a3,1988

0000000080004fb0 <i_4895>:
    80004fb0:	7d800413          	li	s0,2008

0000000080004fb4 <i_4896>:
    80004fb4:	00000013          	nop

0000000080004fb8 <i_4897>:
    80004fb8:	002dd51b          	srliw	a0,s11,0x2

0000000080004fbc <i_4898>:
    80004fbc:	80200d93          	li	s11,-2046

0000000080004fc0 <i_4899>:
    80004fc0:	80700213          	li	tp,-2041

0000000080004fc4 <i_4900>:
    80004fc4:	e6b13c23          	sd	a1,-392(sp)

0000000080004fc8 <i_4901>:
    80004fc8:	02bdf463          	bleu	a1,s11,80004ff0 <i_4909>

0000000080004fcc <i_4902>:
    80004fcc:	001d8d93          	addi	s11,s11,1
    80004fd0:	fe4deae3          	bltu	s11,tp,80004fc4 <i_4900>

0000000080004fd4 <i_4903>:
    80004fd4:	e5910c23          	sb	s9,-424(sp)

0000000080004fd8 <i_4904>:
    80004fd8:	00168693          	addi	a3,a3,1 # f4259a01 <_end+0x742495ed>
    80004fdc:	fc869ce3          	bne	a3,s0,80004fb4 <i_4896>

0000000080004fe0 <i_4905>:
    80004fe0:	e3e15203          	lhu	tp,-450(sp)

0000000080004fe4 <i_4906>:
    80004fe4:	faa13823          	sd	a0,-80(sp)

0000000080004fe8 <i_4907>:
    80004fe8:	0249b2b3          	mulhu	t0,s3,tp

0000000080004fec <i_4908>:
    80004fec:	02d14083          	lbu	ra,45(sp)

0000000080004ff0 <i_4909>:
    80004ff0:	00200613          	li	a2,2

0000000080004ff4 <i_4910>:
    80004ff4:	00c21a3b          	sllw	s4,tp,a2

0000000080004ff8 <i_4911>:
    80004ff8:	6358f237          	lui	tp,0x6358f

0000000080004ffc <i_4912>:
    80004ffc:	01b00213          	li	tp,27

0000000080005000 <i_4913>:
    80005000:	40425233          	sra	tp,tp,tp

0000000080005004 <i_4914>:
    80005004:	16410623          	sb	tp,364(sp)

0000000080005008 <i_4915>:
    80005008:	11714203          	lbu	tp,279(sp)

000000008000500c <i_4916>:
    8000500c:	5bd2021b          	addiw	tp,tp,1469

0000000080005010 <i_4917>:
    80005010:	02e90c97          	auipc	s9,0x2e90

0000000080005014 <i_4918>:
    80005014:	024100a3          	sb	tp,33(sp)

0000000080005018 <i_4919>:
    80005018:	76800213          	li	tp,1896

000000008000501c <i_4920>:
    8000501c:	77000293          	li	t0,1904

0000000080005020 <i_4921>:
    80005020:	00bc9a63          	bne	s9,a1,80005034 <i_4926>

0000000080005024 <i_4922>:
    80005024:	004cd263          	ble	tp,s9,80005028 <i_4923>

0000000080005028 <i_4923>:
    80005028:	005cfa63          	bleu	t0,s9,8000503c <i_4928>

000000008000502c <i_4924>:
    8000502c:	02ecdcb3          	divu	s9,s9,a4

0000000080005030 <i_4925>:
    80005030:	01908ab3          	add	s5,ra,s9

0000000080005034 <i_4926>:
    80005034:	001ce0b3          	or	ra,s9,ra

0000000080005038 <i_4927>:
    80005038:	ea113023          	sd	ra,-352(sp)

000000008000503c <i_4928>:
    8000503c:	0010d49b          	srliw	s1,ra,0x1

0000000080005040 <i_4929>:
    80005040:	0e412d83          	lw	s11,228(sp)

0000000080005044 <i_4930>:
    80005044:	f5215583          	lhu	a1,-174(sp)

0000000080005048 <i_4931>:
    80005048:	e4911723          	sh	s1,-434(sp)

000000008000504c <i_4932>:
    8000504c:	01300e93          	li	t4,19

0000000080005050 <i_4933>:
    80005050:	41d4da3b          	sraw	s4,s1,t4

0000000080005054 <i_4934>:
    80005054:	e5b10623          	sb	s11,-436(sp)

0000000080005058 <i_4935>:
    80005058:	00120213          	addi	tp,tp,1 # 6358f001 <main-0x1ca70fff>
    8000505c:	fc5262e3          	bltu	tp,t0,80005020 <i_4921>

0000000080005060 <i_4936>:
    80005060:	02b0adb3          	mulhsu	s11,ra,a1

0000000080005064 <i_4937>:
    80005064:	019ec5b3          	xor	a1,t4,s9

0000000080005068 <i_4938>:
    80005068:	039decbb          	remw	s9,s11,s9

000000008000506c <i_4939>:
    8000506c:	ebd13423          	sd	t4,-344(sp)

0000000080005070 <i_4940>:
    80005070:	01b5e663          	bltu	a1,s11,8000507c <i_4943>

0000000080005074 <i_4941>:
    80005074:	fc016d83          	lwu	s11,-64(sp)

0000000080005078 <i_4942>:
    80005078:	039587b3          	mul	a5,a1,s9

000000008000507c <i_4943>:
    8000507c:	f0013483          	ld	s1,-256(sp)

0000000080005080 <i_4944>:
    80005080:	6a2c8c93          	addi	s9,s9,1698 # 82e956b2 <_end+0x2e8529e>

0000000080005084 <i_4945>:
    80005084:	1ce14e83          	lbu	t4,462(sp)

0000000080005088 <i_4946>:
    80005088:	0cc13423          	sd	a2,200(sp)

000000008000508c <i_4947>:
    8000508c:	7ad00c93          	li	s9,1965

0000000080005090 <i_4948>:
    80005090:	7b400d93          	li	s11,1972

0000000080005094 <i_4949>:
    80005094:	019cabb3          	slt	s7,s9,s9

0000000080005098 <i_4950>:
    80005098:	01bc9663          	bne	s9,s11,800050a4 <i_4953>

000000008000509c <i_4951>:
    8000509c:	00d54533          	xor	a0,a0,a3

00000000800050a0 <i_4952>:
    800050a0:	eb911223          	sh	s9,-348(sp)

00000000800050a4 <i_4953>:
    800050a4:	02a00a13          	li	s4,42

00000000800050a8 <i_4954>:
    800050a8:	014a1a33          	sll	s4,s4,s4

00000000800050ac <i_4955>:
    800050ac:	36853693          	sltiu	a3,a0,872

00000000800050b0 <i_4956>:
    800050b0:	5a256513          	ori	a0,a0,1442

00000000800050b4 <i_4957>:
    800050b4:	02214283          	lbu	t0,34(sp)

00000000800050b8 <i_4958>:
    800050b8:	025b6b3b          	remw	s6,s6,t0

00000000800050bc <i_4959>:
    800050bc:	02dae7b3          	rem	a5,s5,a3

00000000800050c0 <i_4960>:
    800050c0:	00000013          	nop

00000000800050c4 <i_4961>:
    800050c4:	02ab0463          	beq	s6,a0,800050ec <i_4970>

00000000800050c8 <i_4962>:
    800050c8:	00000013          	nop

00000000800050cc <i_4963>:
    800050cc:	00000013          	nop

00000000800050d0 <i_4964>:
    800050d0:	0232fab3          	remu	s5,t0,gp

00000000800050d4 <i_4965>:
    800050d4:	001c8c93          	addi	s9,s9,1
    800050d8:	fbbceee3          	bltu	s9,s11,80005094 <i_4949>

00000000800050dc <i_4966>:
    800050dc:	f4016483          	lwu	s1,-192(sp)

00000000800050e0 <i_4967>:
    800050e0:	0d211c83          	lh	s9,210(sp)

00000000800050e4 <i_4968>:
    800050e4:	e8e15e03          	lhu	t3,-370(sp)

00000000800050e8 <i_4969>:
    800050e8:	fff13823          	sd	t6,-16(sp)

00000000800050ec <i_4970>:
    800050ec:	e6c11a83          	lh	s5,-404(sp)

00000000800050f0 <i_4971>:
    800050f0:	79cb0a93          	addi	s5,s6,1948

00000000800050f4 <i_4972>:
    800050f4:	13816203          	lwu	tp,312(sp)

00000000800050f8 <i_4973>:
    800050f8:	01200b13          	li	s6,18

00000000800050fc <i_4974>:
    800050fc:	4168d2bb          	sraw	t0,a7,s6

0000000080005100 <i_4975>:
    80005100:	f1613423          	sd	s6,-248(sp)

0000000080005104 <i_4976>:
    80005104:	14511223          	sh	t0,324(sp)

0000000080005108 <i_4977>:
    80005108:	021c30b3          	mulhu	ra,s8,ra

000000008000510c <i_4978>:
    8000510c:	0052f463          	bleu	t0,t0,80005114 <i_4980>

0000000080005110 <i_4979>:
    80005110:	f7914203          	lbu	tp,-135(sp)

0000000080005114 <i_4980>:
    80005114:	f6412603          	lw	a2,-156(sp)

0000000080005118 <i_4981>:
    80005118:	9d42c213          	xori	tp,t0,-1580

000000008000511c <i_4982>:
    8000511c:	ebc16a03          	lwu	s4,-324(sp)

0000000080005120 <i_4983>:
    80005120:	02c61463          	bne	a2,a2,80005148 <i_4993>

0000000080005124 <i_4984>:
    80005124:	768c1f17          	auipc	t5,0x768c1

0000000080005128 <i_4985>:
    80005128:	02ca6bb3          	rem	s7,s4,a2

000000008000512c <i_4986>:
    8000512c:	01eb1263          	bne	s6,t5,80005130 <i_4987>

0000000080005130 <i_4987>:
    80005130:	09813c03          	ld	s8,152(sp)

0000000080005134 <i_4988>:
    80005134:	f3813d03          	ld	s10,-200(sp)

0000000080005138 <i_4989>:
    80005138:	01100093          	li	ra,17

000000008000513c <i_4990>:
    8000513c:	00121b3b          	sllw	s6,tp,ra

0000000080005140 <i_4991>:
    80005140:	a4d4fd13          	andi	s10,s1,-1459

0000000080005144 <i_4992>:
    80005144:	e2a11a03          	lh	s4,-470(sp)

0000000080005148 <i_4993>:
    80005148:	01ad0663          	beq	s10,s10,80005154 <i_4996>

000000008000514c <i_4994>:
    8000514c:	f3411923          	sh	s4,-206(sp)

0000000080005150 <i_4995>:
    80005150:	021d0463          	beq	s10,ra,80005178 <i_5005>

0000000080005154 <i_4996>:
    80005154:	0010da63          	ble	ra,ra,80005168 <i_5001>

0000000080005158 <i_4997>:
    80005158:	00168d33          	add	s10,a3,ra

000000008000515c <i_4998>:
    8000515c:	f4c14183          	lbu	gp,-180(sp)

0000000080005160 <i_4999>:
    80005160:	e4811d03          	lh	s10,-440(sp)

0000000080005164 <i_5000>:
    80005164:	014a33b3          	sltu	t2,s4,s4

0000000080005168 <i_5001>:
    80005168:	12412983          	lw	s3,292(sp)

000000008000516c <i_5002>:
    8000516c:	fb312023          	sw	s3,-96(sp)

0000000080005170 <i_5003>:
    80005170:	0a514d03          	lbu	s10,165(sp)

0000000080005174 <i_5004>:
    80005174:	034a0a3b          	mulw	s4,s4,s4

0000000080005178 <i_5005>:
    80005178:	033a2d33          	mulhsu	s10,s4,s3

000000008000517c <i_5006>:
    8000517c:	90098d13          	addi	s10,s3,-1792 # ffffffffeb650900 <_end+0xffffffff6b6404ec>

0000000080005180 <i_5007>:
    80005180:	16a11683          	lh	a3,362(sp)

0000000080005184 <i_5008>:
    80005184:	0345c463          	blt	a1,s4,800051ac <i_5018>

0000000080005188 <i_5009>:
    80005188:	f6011983          	lh	s3,-160(sp)

000000008000518c <i_5010>:
    8000518c:	eff13023          	sd	t6,-288(sp)

0000000080005190 <i_5011>:
    80005190:	30e68a1b          	addiw	s4,a3,782

0000000080005194 <i_5012>:
    80005194:	1f411123          	sh	s4,482(sp)

0000000080005198 <i_5013>:
    80005198:	13c10383          	lb	t2,316(sp)

000000008000519c <i_5014>:
    8000519c:	12611a03          	lh	s4,294(sp)

00000000800051a0 <i_5015>:
    800051a0:	131993b7          	lui	t2,0x13199

00000000800051a4 <i_5016>:
    800051a4:	00000013          	nop

00000000800051a8 <i_5017>:
    800051a8:	16713423          	sd	t2,360(sp)

00000000800051ac <i_5018>:
    800051ac:	00000013          	nop

00000000800051b0 <i_5019>:
    800051b0:	12112e23          	sw	ra,316(sp)

00000000800051b4 <i_5020>:
    800051b4:	81f00793          	li	a5,-2017

00000000800051b8 <i_5021>:
    800051b8:	82800693          	li	a3,-2008

00000000800051bc <i_5022>:
    800051bc:	0143fa63          	bleu	s4,t2,800051d0 <i_5027>

00000000800051c0 <i_5023>:
    800051c0:	034a2233          	mulhsu	tp,s4,s4

00000000800051c4 <i_5024>:
    800051c4:	02f00f13          	li	t5,47

00000000800051c8 <i_5025>:
    800051c8:	01e394b3          	sll	s1,t2,t5

00000000800051cc <i_5026>:
    800051cc:	0341d2b3          	divu	t0,gp,s4

00000000800051d0 <i_5027>:
    800051d0:	01eeb9b3          	sltu	s3,t4,t5

00000000800051d4 <i_5028>:
    800051d4:	00000013          	nop

00000000800051d8 <i_5029>:
    800051d8:	00178793          	addi	a5,a5,1 # c8bac425 <_end+0x48b9c011>
    800051dc:	fef6f0e3          	bleu	a5,a3,800051bc <i_5022>

00000000800051e0 <i_5030>:
    800051e0:	1c710da3          	sb	t2,475(sp)

00000000800051e4 <i_5031>:
    800051e4:	00900313          	li	t1,9

00000000800051e8 <i_5032>:
    800051e8:	4062d3bb          	sraw	t2,t0,t1

00000000800051ec <i_5033>:
    800051ec:	f8b2f6b7          	lui	a3,0xf8b2f

00000000800051f0 <i_5034>:
    800051f0:	0052c2b3          	xor	t0,t0,t0

00000000800051f4 <i_5035>:
    800051f4:	0263533b          	divuw	t1,t1,t1

00000000800051f8 <i_5036>:
    800051f8:	f0013283          	ld	t0,-256(sp)

00000000800051fc <i_5037>:
    800051fc:	00000013          	nop

0000000080005200 <i_5038>:
    80005200:	78200793          	li	a5,1922

0000000080005204 <i_5039>:
    80005204:	78700193          	li	gp,1927

0000000080005208 <i_5040>:
    80005208:	00000013          	nop

000000008000520c <i_5041>:
    8000520c:	ff410403          	lb	s0,-12(sp)

0000000080005210 <i_5042>:
    80005210:	00000013          	nop

0000000080005214 <i_5043>:
    80005214:	e8811c23          	sh	s0,-360(sp)

0000000080005218 <i_5044>:
    80005218:	0d411b03          	lh	s6,212(sp)

000000008000521c <i_5045>:
    8000521c:	04c15403          	lhu	s0,76(sp)

0000000080005220 <i_5046>:
    80005220:	00847db3          	and	s11,s0,s0

0000000080005224 <i_5047>:
    80005224:	10b14d83          	lbu	s11,267(sp)

0000000080005228 <i_5048>:
    80005228:	0c812823          	sw	s0,208(sp)

000000008000522c <i_5049>:
    8000522c:	06c12403          	lw	s0,108(sp)

0000000080005230 <i_5050>:
    80005230:	032d8b3b          	mulw	s6,s11,s2

0000000080005234 <i_5051>:
    80005234:	00178793          	addi	a5,a5,1
    80005238:	fcf1f8e3          	bleu	a5,gp,80005208 <i_5040>

000000008000523c <i_5052>:
    8000523c:	036dc463          	blt	s11,s6,80005264 <i_5062>

0000000080005240 <i_5053>:
    80005240:	41ab0533          	sub	a0,s6,s10

0000000080005244 <i_5054>:
    80005244:	e5415083          	lhu	ra,-428(sp)

0000000080005248 <i_5055>:
    80005248:	f6c16083          	lwu	ra,-148(sp)

000000008000524c <i_5056>:
    8000524c:	09816183          	lwu	gp,152(sp)

0000000080005250 <i_5057>:
    80005250:	00000013          	nop

0000000080005254 <i_5058>:
    80005254:	0b813b03          	ld	s6,184(sp)

0000000080005258 <i_5059>:
    80005258:	02330db3          	mul	s11,t1,gp

000000008000525c <i_5060>:
    8000525c:	16211d83          	lh	s11,354(sp)

0000000080005260 <i_5061>:
    80005260:	00000013          	nop

0000000080005264 <i_5062>:
    80005264:	e4e15083          	lhu	ra,-434(sp)

0000000080005268 <i_5063>:
    80005268:	02414183          	lbu	gp,36(sp)

000000008000526c <i_5064>:
    8000526c:	7b700413          	li	s0,1975

0000000080005270 <i_5065>:
    80005270:	7c800313          	li	t1,1992

0000000080005274 <i_5066>:
    80005274:	ed010d83          	lb	s11,-304(sp)

0000000080005278 <i_5067>:
    80005278:	0047979b          	slliw	a5,a5,0x4

000000008000527c <i_5068>:
    8000527c:	89800a13          	li	s4,-1896

0000000080005280 <i_5069>:
    80005280:	89d00513          	li	a0,-1891

0000000080005284 <i_5070>:
    80005284:	001a0a13          	addi	s4,s4,1
    80005288:	feaa4ee3          	blt	s4,a0,80005284 <i_5070>

000000008000528c <i_5071>:
    8000528c:	03c16f03          	lwu	t5,60(sp)

0000000080005290 <i_5072>:
    80005290:	01436e63          	bltu	t1,s4,800052ac <i_5078>

0000000080005294 <i_5073>:
    80005294:	00140413          	addi	s0,s0,1
    80005298:	fc646ee3          	bltu	s0,t1,80005274 <i_5066>

000000008000529c <i_5074>:
    8000529c:	f4012f03          	lw	t5,-192(sp)

00000000800052a0 <i_5075>:
    800052a0:	ed610b03          	lb	s6,-298(sp)

00000000800052a4 <i_5076>:
    800052a4:	e3013283          	ld	t0,-464(sp)

00000000800052a8 <i_5077>:
    800052a8:	00000013          	nop

00000000800052ac <i_5078>:
    800052ac:	00000013          	nop

00000000800052b0 <i_5079>:
    800052b0:	04110823          	sb	ra,80(sp)

00000000800052b4 <i_5080>:
    800052b4:	79800413          	li	s0,1944

00000000800052b8 <i_5081>:
    800052b8:	7a300a13          	li	s4,1955

00000000800052bc <i_5082>:
    800052bc:	13111223          	sh	a7,292(sp)

00000000800052c0 <i_5083>:
    800052c0:	f1812683          	lw	a3,-232(sp)

00000000800052c4 <i_5084>:
    800052c4:	00140413          	addi	s0,s0,1
    800052c8:	fe8a7ae3          	bleu	s0,s4,800052bc <i_5082>

00000000800052cc <i_5085>:
    800052cc:	00000013          	nop

00000000800052d0 <i_5086>:
    800052d0:	4016db1b          	sraiw	s6,a3,0x1

00000000800052d4 <i_5087>:
    800052d4:	7a900613          	li	a2,1961

00000000800052d8 <i_5088>:
    800052d8:	7b500a93          	li	s5,1973

00000000800052dc <i_5089>:
    800052dc:	00000013          	nop

00000000800052e0 <i_5090>:
    800052e0:	fbe11923          	sh	t5,-78(sp)

00000000800052e4 <i_5091>:
    800052e4:	02415e83          	lhu	t4,36(sp)

00000000800052e8 <i_5092>:
    800052e8:	c99b6213          	ori	tp,s6,-871

00000000800052ec <i_5093>:
    800052ec:	0a410da3          	sb	tp,187(sp)

00000000800052f0 <i_5094>:
    800052f0:	00160613          	addi	a2,a2,1
    800052f4:	fecad4e3          	ble	a2,s5,800052dc <i_5089>

00000000800052f8 <i_5095>:
    800052f8:	87db4193          	xori	gp,s6,-1923

00000000800052fc <i_5096>:
    800052fc:	10310aa3          	sb	gp,277(sp)

0000000080005300 <i_5097>:
    80005300:	0e013203          	ld	tp,224(sp)

0000000080005304 <i_5098>:
    80005304:	0037d79b          	srliw	a5,a5,0x3

0000000080005308 <i_5099>:
    80005308:	0232063b          	mulw	a2,tp,gp

000000008000530c <i_5100>:
    8000530c:	00ff9e63          	bne	t6,a5,80005328 <i_5107>

0000000080005310 <i_5101>:
    80005310:	e8812783          	lw	a5,-376(sp)

0000000080005314 <i_5102>:
    80005314:	00f7bc33          	sltu	s8,a5,a5

0000000080005318 <i_5103>:
    80005318:	fd215303          	lhu	t1,-46(sp)

000000008000531c <i_5104>:
    8000531c:	02620463          	beq	tp,t1,80005344 <i_5114>

0000000080005320 <i_5105>:
    80005320:	f0f12a23          	sw	a5,-236(sp)

0000000080005324 <i_5106>:
    80005324:	f2415c03          	lhu	s8,-220(sp)

0000000080005328 <i_5107>:
    80005328:	e5f13823          	sd	t6,-432(sp)

000000008000532c <i_5108>:
    8000532c:	02c65463          	ble	a2,a2,80005354 <i_5118>

0000000080005330 <i_5109>:
    80005330:	f8813603          	ld	a2,-120(sp)

0000000080005334 <i_5110>:
    80005334:	006c6e63          	bltu	s8,t1,80005350 <i_5117>

0000000080005338 <i_5111>:
    80005338:	fe812a03          	lw	s4,-24(sp)

000000008000533c <i_5112>:
    8000533c:	13513423          	sd	s5,296(sp)

0000000080005340 <i_5113>:
    80005340:	08310923          	sb	gp,146(sp)

0000000080005344 <i_5114>:
    80005344:	fac12423          	sw	a2,-88(sp)

0000000080005348 <i_5115>:
    80005348:	00c66a63          	bltu	a2,a2,8000535c <i_5120>

000000008000534c <i_5116>:
    8000534c:	02cc1633          	mulh	a2,s8,a2

0000000080005350 <i_5117>:
    80005350:	40465613          	srai	a2,a2,0x4

0000000080005354 <i_5118>:
    80005354:	00c66c63          	bltu	a2,a2,8000536c <i_5124>

0000000080005358 <i_5119>:
    80005358:	ecc103a3          	sb	a2,-313(sp)

000000008000535c <i_5120>:
    8000535c:	f6211a23          	sh	sp,-140(sp)

0000000080005360 <i_5121>:
    80005360:	ffc16783          	lwu	a5,-4(sp)

0000000080005364 <i_5122>:
    80005364:	fd013603          	ld	a2,-48(sp)

0000000080005368 <i_5123>:
    80005368:	f5a14603          	lbu	a2,-166(sp)

000000008000536c <i_5124>:
    8000536c:	02962eb3          	mulhsu	t4,a2,s1

0000000080005370 <i_5125>:
    80005370:	029614b3          	mulh	s1,a2,s1

0000000080005374 <i_5126>:
    80005374:	03d1f3bb          	remuw	t2,gp,t4

0000000080005378 <i_5127>:
    80005378:	027edbbb          	divuw	s7,t4,t2

000000008000537c <i_5128>:
    8000537c:	eb712e23          	sw	s7,-324(sp)

0000000080005380 <i_5129>:
    80005380:	026ea7b3          	mulhsu	a5,t4,t1

0000000080005384 <i_5130>:
    80005384:	0297e063          	bltu	a5,s1,800053a4 <i_5138>

0000000080005388 <i_5131>:
    80005388:	36f68217          	auipc	tp,0x36f68

000000008000538c <i_5132>:
    8000538c:	fa94a493          	slti	s1,s1,-87

0000000080005390 <i_5133>:
    80005390:	01600293          	li	t0,22

0000000080005394 <i_5134>:
    80005394:	0052533b          	srlw	t1,tp,t0

0000000080005398 <i_5135>:
    80005398:	e8613823          	sd	t1,-368(sp)

000000008000539c <i_5136>:
    8000539c:	42432213          	slti	tp,t1,1060

00000000800053a0 <i_5137>:
    800053a0:	0062d663          	ble	t1,t0,800053ac <i_5140>

00000000800053a4 <i_5138>:
    800053a4:	1a210303          	lb	t1,418(sp)

00000000800053a8 <i_5139>:
    800053a8:	026fbbb3          	mulhu	s7,t6,t1

00000000800053ac <i_5140>:
    800053ac:	005b9a63          	bne	s7,t0,800053c0 <i_5145>

00000000800053b0 <i_5141>:
    800053b0:	00646263          	bltu	s0,t1,800053b4 <i_5142>

00000000800053b4 <i_5142>:
    800053b4:	18211f23          	sh	sp,414(sp)

00000000800053b8 <i_5143>:
    800053b8:	06611823          	sh	t1,112(sp)

00000000800053bc <i_5144>:
    800053bc:	e3811783          	lh	a5,-456(sp)

00000000800053c0 <i_5145>:
    800053c0:	e3012583          	lw	a1,-464(sp)

00000000800053c4 <i_5146>:
    800053c4:	006eea63          	bltu	t4,t1,800053d8 <i_5151>

00000000800053c8 <i_5147>:
    800053c8:	e1816e83          	lwu	t4,-488(sp)

00000000800053cc <i_5148>:
    800053cc:	fb415c83          	lhu	s9,-76(sp)

00000000800053d0 <i_5149>:
    800053d0:	02100e13          	li	t3,33

00000000800053d4 <i_5150>:
    800053d4:	01c09d33          	sll	s10,ra,t3

00000000800053d8 <i_5151>:
    800053d8:	01ce8c63          	beq	t4,t3,800053f0 <i_5157>

00000000800053dc <i_5152>:
    800053dc:	019d1663          	bne	s10,s9,800053e8 <i_5155>

00000000800053e0 <i_5153>:
    800053e0:	f7a12823          	sw	s10,-144(sp)

00000000800053e4 <i_5154>:
    800053e4:	1d310b23          	sb	s3,470(sp)

00000000800053e8 <i_5155>:
    800053e8:	fe412383          	lw	t2,-28(sp)

00000000800053ec <i_5156>:
    800053ec:	01938663          	beq	t2,s9,800053f8 <i_5159>

00000000800053f0 <i_5157>:
    800053f0:	12b103a3          	sb	a1,295(sp)

00000000800053f4 <i_5158>:
    800053f4:	11a13c23          	sd	s10,280(sp)

00000000800053f8 <i_5159>:
    800053f8:	03b10b03          	lb	s6,59(sp)

00000000800053fc <i_5160>:
    800053fc:	0367f263          	bleu	s6,a5,80005420 <i_5169>

0000000080005400 <i_5161>:
    80005400:	003ede9b          	srliw	t4,t4,0x3

0000000080005404 <i_5162>:
    80005404:	16e14803          	lbu	a6,366(sp)

0000000080005408 <i_5163>:
    80005408:	408f0e93          	addi	t4,t5,1032 # f68c652c <_end+0x768b6118>

000000008000540c <i_5164>:
    8000540c:	17c12e83          	lw	t4,380(sp)

0000000080005410 <i_5165>:
    80005410:	00000013          	nop

0000000080005414 <i_5166>:
    80005414:	f2012603          	lw	a2,-224(sp)

0000000080005418 <i_5167>:
    80005418:	f8c11423          	sh	a2,-120(sp)

000000008000541c <i_5168>:
    8000541c:	00000013          	nop

0000000080005420 <i_5169>:
    80005420:	fa415983          	lhu	s3,-92(sp)

0000000080005424 <i_5170>:
    80005424:	00000013          	nop

0000000080005428 <i_5171>:
    80005428:	85800f13          	li	t5,-1960

000000008000542c <i_5172>:
    8000542c:	85e00b13          	li	s6,-1954

0000000080005430 <i_5173>:
    80005430:	e9611023          	sh	s6,-384(sp)

0000000080005434 <i_5174>:
    80005434:	01db30b3          	sltu	ra,s6,t4

0000000080005438 <i_5175>:
    80005438:	0e110a03          	lb	s4,225(sp)

000000008000543c <i_5176>:
    8000543c:	41da0ebb          	subw	t4,s4,t4

0000000080005440 <i_5177>:
    80005440:	001f0f13          	addi	t5,t5,1
    80005444:	ff6f46e3          	blt	t5,s6,80005430 <i_5173>

0000000080005448 <i_5178>:
    80005448:	02611803          	lh	a6,38(sp)

000000008000544c <i_5179>:
    8000544c:	4de0e693          	ori	a3,ra,1246

0000000080005450 <i_5180>:
    80005450:	001a5e63          	ble	ra,s4,8000546c <i_5187>

0000000080005454 <i_5181>:
    80005454:	f9411383          	lh	t2,-108(sp)

0000000080005458 <i_5182>:
    80005458:	e3310503          	lb	a0,-461(sp)

000000008000545c <i_5183>:
    8000545c:	00000013          	nop

0000000080005460 <i_5184>:
    80005460:	00000013          	nop

0000000080005464 <i_5185>:
    80005464:	12711d23          	sh	t2,314(sp)

0000000080005468 <i_5186>:
    80005468:	f7b10283          	lb	t0,-133(sp)

000000008000546c <i_5187>:
    8000546c:	00508ab3          	add	s5,ra,t0

0000000080005470 <i_5188>:
    80005470:	e6713423          	sd	t2,-408(sp)

0000000080005474 <i_5189>:
    80005474:	7ca00093          	li	ra,1994

0000000080005478 <i_5190>:
    80005478:	7d600393          	li	t2,2006

000000008000547c <i_5191>:
    8000547c:	09816503          	lwu	a0,152(sp)

0000000080005480 <i_5192>:
    80005480:	05312623          	sw	s3,76(sp)

0000000080005484 <i_5193>:
    80005484:	0ff14983          	lbu	s3,255(sp)

0000000080005488 <i_5194>:
    80005488:	03554ebb          	divw	t4,a0,s5

000000008000548c <i_5195>:
    8000548c:	e4812403          	lw	s0,-440(sp)

0000000080005490 <i_5196>:
    80005490:	08f10c03          	lb	s8,143(sp)

0000000080005494 <i_5197>:
    80005494:	01d57433          	and	s0,a0,t4

0000000080005498 <i_5198>:
    80005498:	00000013          	nop

000000008000549c <i_5199>:
    8000549c:	00108093          	addi	ra,ra,1
    800054a0:	fc70eee3          	bltu	ra,t2,8000547c <i_5191>

00000000800054a4 <i_5200>:
    800054a4:	f0e11d23          	sh	a4,-230(sp)

00000000800054a8 <i_5201>:
    800054a8:	03d41463          	bne	s0,t4,800054d0 <i_5211>

00000000800054ac <i_5202>:
    800054ac:	00aecc63          	blt	t4,a0,800054c4 <i_5208>

00000000800054b0 <i_5203>:
    800054b0:	008dce63          	blt	s11,s0,800054cc <i_5210>

00000000800054b4 <i_5204>:
    800054b4:	f6ab6197          	auipc	gp,0xf6ab6

00000000800054b8 <i_5205>:
    800054b8:	03524abb          	divw	s5,tp,s5

00000000800054bc <i_5206>:
    800054bc:	13510ba3          	sb	s5,311(sp)

00000000800054c0 <i_5207>:
    800054c0:	0b312e23          	sw	s3,188(sp)

00000000800054c4 <i_5208>:
    800054c4:	00500513          	li	a0,5

00000000800054c8 <i_5209>:
    800054c8:	00abdabb          	srlw	s5,s7,a0

00000000800054cc <i_5210>:
    800054cc:	fe310523          	sb	gp,-22(sp)

00000000800054d0 <i_5211>:
    800054d0:	034fea33          	rem	s4,t6,s4

00000000800054d4 <i_5212>:
    800054d4:	03a1cab3          	div	s5,gp,s10

00000000800054d8 <i_5213>:
    800054d8:	084100a3          	sb	tp,129(sp)

00000000800054dc <i_5214>:
    800054dc:	0049d293          	srli	t0,s3,0x4

00000000800054e0 <i_5215>:
    800054e0:	03da8463          	beq	s5,t4,80005508 <i_5225>

00000000800054e4 <i_5216>:
    800054e4:	e3354a97          	auipc	s5,0xe3354

00000000800054e8 <i_5217>:
    800054e8:	e2215683          	lhu	a3,-478(sp)

00000000800054ec <i_5218>:
    800054ec:	00000013          	nop

00000000800054f0 <i_5219>:
    800054f0:	00000013          	nop

00000000800054f4 <i_5220>:
    800054f4:	e7b14403          	lbu	s0,-389(sp)

00000000800054f8 <i_5221>:
    800054f8:	04d11723          	sh	a3,78(sp)

00000000800054fc <i_5222>:
    800054fc:	17412583          	lw	a1,372(sp)

0000000080005500 <i_5223>:
    80005500:	e7811483          	lh	s1,-392(sp)

0000000080005504 <i_5224>:
    80005504:	15410ba3          	sb	s4,343(sp)

0000000080005508 <i_5225>:
    80005508:	00000013          	nop

000000008000550c <i_5226>:
    8000550c:	00000013          	nop

0000000080005510 <i_5227>:
    80005510:	8d100a13          	li	s4,-1839

0000000080005514 <i_5228>:
    80005514:	8d400213          	li	tp,-1836

0000000080005518 <i_5229>:
    80005518:	00000013          	nop

000000008000551c <i_5230>:
    8000551c:	001a0a13          	addi	s4,s4,1
    80005520:	fe4a1ce3          	bne	s4,tp,80005518 <i_5229>

0000000080005524 <i_5231>:
    80005524:	0344f463          	bleu	s4,s1,8000554c <i_5241>

0000000080005528 <i_5232>:
    80005528:	00bc8233          	add	tp,s9,a1

000000008000552c <i_5233>:
    8000552c:	1d711b23          	sh	s7,470(sp)

0000000080005530 <i_5234>:
    80005530:	ff810e03          	lb	t3,-8(sp)

0000000080005534 <i_5235>:
    80005534:	0045e463          	bltu	a1,tp,8000553c <i_5237>

0000000080005538 <i_5236>:
    80005538:	00816f03          	lwu	t5,8(sp)

000000008000553c <i_5237>:
    8000553c:	009a0a63          	beq	s4,s1,80005550 <i_5242>

0000000080005540 <i_5238>:
    80005540:	015a0863          	beq	s4,s5,80005550 <i_5242>

0000000080005544 <i_5239>:
    80005544:	01cf0863          	beq	t5,t3,80005554 <i_5243>

0000000080005548 <i_5240>:
    80005548:	e2813d03          	ld	s10,-472(sp)

000000008000554c <i_5241>:
    8000554c:	0046cd33          	xor	s10,a3,tp

0000000080005550 <i_5242>:
    80005550:	005bea33          	or	s4,s7,t0

0000000080005554 <i_5243>:
    80005554:	00000013          	nop

0000000080005558 <i_5244>:
    80005558:	0be11983          	lh	s3,190(sp)

000000008000555c <i_5245>:
    8000555c:	86200213          	li	tp,-1950

0000000080005560 <i_5246>:
    80005560:	86500b93          	li	s7,-1947

0000000080005564 <i_5247>:
    80005564:	00120213          	addi	tp,tp,1 # b6f6d389 <_end+0x36f5cf75>
    80005568:	ff724ee3          	blt	tp,s7,80005564 <i_5247>

000000008000556c <i_5248>:
    8000556c:	e8413423          	sd	tp,-376(sp)

0000000080005570 <i_5249>:
    80005570:	19a11303          	lh	t1,410(sp)

0000000080005574 <i_5250>:
    80005574:	07215d83          	lhu	s11,114(sp)

0000000080005578 <i_5251>:
    80005578:	4029d19b          	sraiw	gp,s3,0x2

000000008000557c <i_5252>:
    8000557c:	032ad7b3          	divu	a5,s5,s2

0000000080005580 <i_5253>:
    80005580:	02413023          	sd	tp,32(sp)

0000000080005584 <i_5254>:
    80005584:	1a410723          	sb	tp,430(sp)

0000000080005588 <i_5255>:
    80005588:	e6a10403          	lb	s0,-406(sp)

000000008000558c <i_5256>:
    8000558c:	00aad463          	ble	a0,s5,80005594 <i_5258>

0000000080005590 <i_5257>:
    80005590:	008bc263          	blt	s7,s0,80005594 <i_5258>

0000000080005594 <i_5258>:
    80005594:	01112023          	sw	a7,0(sp)

0000000080005598 <i_5259>:
    80005598:	00418a63          	beq	gp,tp,800055ac <i_5264>

000000008000559c <i_5260>:
    8000559c:	01b2cb33          	xor	s6,t0,s11

00000000800055a0 <i_5261>:
    800055a0:	028b11b3          	mulh	gp,s6,s0

00000000800055a4 <i_5262>:
    800055a4:	03412623          	sw	s4,44(sp)

00000000800055a8 <i_5263>:
    800055a8:	03646463          	bltu	s0,s6,800055d0 <i_5273>

00000000800055ac <i_5264>:
    800055ac:	00300b93          	li	s7,3

00000000800055b0 <i_5265>:
    800055b0:	017299b3          	sll	s3,t0,s7

00000000800055b4 <i_5266>:
    800055b4:	3d286813          	ori	a6,a6,978

00000000800055b8 <i_5267>:
    800055b8:	01a00393          	li	t2,26

00000000800055bc <i_5268>:
    800055bc:	007813bb          	sllw	t2,a6,t2

00000000800055c0 <i_5269>:
    800055c0:	00000013          	nop

00000000800055c4 <i_5270>:
    800055c4:	11313423          	sd	s3,264(sp)

00000000800055c8 <i_5271>:
    800055c8:	f0811603          	lh	a2,-248(sp)

00000000800055cc <i_5272>:
    800055cc:	ac5ee197          	auipc	gp,0xac5ee

00000000800055d0 <i_5273>:
    800055d0:	e9416b83          	lwu	s7,-364(sp)

00000000800055d4 <i_5274>:
    800055d4:	00367f33          	and	t5,a2,gp

00000000800055d8 <i_5275>:
    800055d8:	8c700b13          	li	s6,-1849

00000000800055dc <i_5276>:
    800055dc:	8cd00413          	li	s0,-1843

00000000800055e0 <i_5277>:
    800055e0:	02500213          	li	tp,37

00000000800055e4 <i_5278>:
    800055e4:	00439db3          	sll	s11,t2,tp

00000000800055e8 <i_5279>:
    800055e8:	10ca0a13          	addi	s4,s4,268

00000000800055ec <i_5280>:
    800055ec:	00527833          	and	a6,tp,t0

00000000800055f0 <i_5281>:
    800055f0:	001b0b13          	addi	s6,s6,1
    800055f4:	ff6456e3          	ble	s6,s0,800055e0 <i_5277>

00000000800055f8 <i_5282>:
    800055f8:	03787463          	bleu	s7,a6,80005620 <i_5292>

00000000800055fc <i_5283>:
    800055fc:	fbb14e03          	lbu	t3,-69(sp)

0000000080005600 <i_5284>:
    80005600:	ee412803          	lw	a6,-284(sp)

0000000080005604 <i_5285>:
    80005604:	01d00413          	li	s0,29

0000000080005608 <i_5286>:
    80005608:	4080d83b          	sraw	a6,ra,s0

000000008000560c <i_5287>:
    8000560c:	fba15283          	lhu	t0,-70(sp)

0000000080005610 <i_5288>:
    80005610:	028443b3          	div	t2,s0,s0

0000000080005614 <i_5289>:
    80005614:	01c44863          	blt	s0,t3,80005624 <i_5293>

0000000080005618 <i_5290>:
    80005618:	00400413          	li	s0,4

000000008000561c <i_5291>:
    8000561c:	008815b3          	sll	a1,a6,s0

0000000080005620 <i_5292>:
    80005620:	00842333          	slt	t1,s0,s0

0000000080005624 <i_5293>:
    80005624:	3d126793          	ori	a5,tp,977

0000000080005628 <i_5294>:
    80005628:	fce15383          	lhu	t2,-50(sp)

000000008000562c <i_5295>:
    8000562c:	f9910783          	lb	a5,-103(sp)

0000000080005630 <i_5296>:
    80005630:	e9816203          	lwu	tp,-360(sp)

0000000080005634 <i_5297>:
    80005634:	01c12503          	lw	a0,28(sp)

0000000080005638 <i_5298>:
    80005638:	f0c12203          	lw	tp,-244(sp)

000000008000563c <i_5299>:
    8000563c:	02a25263          	ble	a0,tp,80005660 <i_5308>

0000000080005640 <i_5300>:
    80005640:	004545b3          	xor	a1,a0,tp

0000000080005644 <i_5301>:
    80005644:	00424863          	blt	tp,tp,80005654 <i_5305>

0000000080005648 <i_5302>:
    80005648:	00459863          	bne	a1,tp,80005658 <i_5306>

000000008000564c <i_5303>:
    8000564c:	03411b03          	lh	s6,52(sp)

0000000080005650 <i_5304>:
    80005650:	0165e7b3          	or	a5,a1,s6

0000000080005654 <i_5305>:
    80005654:	e9812083          	lw	ra,-360(sp)

0000000080005658 <i_5306>:
    80005658:	04415403          	lhu	s0,68(sp)

000000008000565c <i_5307>:
    8000565c:	006b3333          	sltu	t1,s6,t1

0000000080005660 <i_5308>:
    80005660:	00b37c63          	bleu	a1,t1,80005678 <i_5314>

0000000080005664 <i_5309>:
    80005664:	0ca11803          	lh	a6,202(sp)

0000000080005668 <i_5310>:
    80005668:	0300f463          	bleu	a6,ra,80005690 <i_5320>

000000008000566c <i_5311>:
    8000566c:	2305f093          	andi	ra,a1,560

0000000080005670 <i_5312>:
    80005670:	00bb0863          	beq	s6,a1,80005680 <i_5316>

0000000080005674 <i_5313>:
    80005674:	11611523          	sh	s6,266(sp)

0000000080005678 <i_5314>:
    80005678:	06b10423          	sb	a1,104(sp)

000000008000567c <i_5315>:
    8000567c:	0b314b03          	lbu	s6,179(sp)

0000000080005680 <i_5316>:
    80005680:	0d611823          	sh	s6,208(sp)

0000000080005684 <i_5317>:
    80005684:	01081863          	bne	a6,a6,80005694 <i_5321>

0000000080005688 <i_5318>:
    80005688:	026b0463          	beq	s6,t1,800056b0 <i_5328>

000000008000568c <i_5319>:
    8000568c:	03087063          	bleu	a6,a6,800056ac <i_5327>

0000000080005690 <i_5320>:
    80005690:	030a2833          	mulhsu	a6,s4,a6

0000000080005694 <i_5321>:
    80005694:	0038181b          	slliw	a6,a6,0x3

0000000080005698 <i_5322>:
    80005698:	00000013          	nop

000000008000569c <i_5323>:
    8000569c:	00000013          	nop

00000000800056a0 <i_5324>:
    800056a0:	1d410ba3          	sb	s4,471(sp)

00000000800056a4 <i_5325>:
    800056a4:	00aa6d33          	or	s10,s4,a0

00000000800056a8 <i_5326>:
    800056a8:	06416c03          	lwu	s8,100(sp)

00000000800056ac <i_5327>:
    800056ac:	f3010fa3          	sb	a6,-193(sp)

00000000800056b0 <i_5328>:
    800056b0:	030d74b3          	remu	s1,s10,a6

00000000800056b4 <i_5329>:
    800056b4:	010d64b3          	or	s1,s10,a6

00000000800056b8 <i_5330>:
    800056b8:	74400813          	li	a6,1860

00000000800056bc <i_5331>:
    800056bc:	74a00a13          	li	s4,1866

00000000800056c0 <i_5332>:
    800056c0:	f5812283          	lw	t0,-168(sp)

00000000800056c4 <i_5333>:
    800056c4:	f7c16503          	lwu	a0,-132(sp)

00000000800056c8 <i_5334>:
    800056c8:	e3011723          	sh	a6,-466(sp)

00000000800056cc <i_5335>:
    800056cc:	fa212a23          	sw	sp,-76(sp)

00000000800056d0 <i_5336>:
    800056d0:	0d811983          	lh	s3,216(sp)

00000000800056d4 <i_5337>:
    800056d4:	418d09b3          	sub	s3,s10,s8

00000000800056d8 <i_5338>:
    800056d8:	f0816283          	lwu	t0,-248(sp)

00000000800056dc <i_5339>:
    800056dc:	24e28293          	addi	t0,t0,590

00000000800056e0 <i_5340>:
    800056e0:	00180813          	addi	a6,a6,1
    800056e4:	fd0a5ee3          	ble	a6,s4,800056c0 <i_5332>

00000000800056e8 <i_5341>:
    800056e8:	0b012683          	lw	a3,176(sp)

00000000800056ec <i_5342>:
    800056ec:	004cc233          	xor	tp,s9,tp

00000000800056f0 <i_5343>:
    800056f0:	00800993          	li	s3,8

00000000800056f4 <i_5344>:
    800056f4:	4139d53b          	sraw	a0,s3,s3

00000000800056f8 <i_5345>:
    800056f8:	4ed23b13          	sltiu	s6,tp,1261

00000000800056fc <i_5346>:
    800056fc:	f4615203          	lhu	tp,-186(sp)

0000000080005700 <i_5347>:
    80005700:	05411483          	lh	s1,84(sp)

0000000080005704 <i_5348>:
    80005704:	402b5493          	srai	s1,s6,0x2

0000000080005708 <i_5349>:
    80005708:	1e911023          	sh	s1,480(sp)

000000008000570c <i_5350>:
    8000570c:	e9c15b03          	lhu	s6,-356(sp)

0000000080005710 <i_5351>:
    80005710:	f7f14483          	lbu	s1,-129(sp)

0000000080005714 <i_5352>:
    80005714:	fa210483          	lb	s1,-94(sp)

0000000080005718 <i_5353>:
    80005718:	4024d313          	srai	t1,s1,0x2

000000008000571c <i_5354>:
    8000571c:	fa911123          	sh	s1,-94(sp)

0000000080005720 <i_5355>:
    80005720:	1a913823          	sd	s1,432(sp)

0000000080005724 <i_5356>:
    80005724:	0294eab3          	rem	s5,s1,s1

0000000080005728 <i_5357>:
    80005728:	00d00693          	li	a3,13

000000008000572c <i_5358>:
    8000572c:	00d4d9bb          	srlw	s3,s1,a3

0000000080005730 <i_5359>:
    80005730:	e7eef497          	auipc	s1,0xe7eef

0000000080005734 <i_5360>:
    80005734:	0094d863          	ble	s1,s1,80005744 <i_5364>

0000000080005738 <i_5361>:
    80005738:	0332a4b3          	mulhsu	s1,t0,s3

000000008000573c <i_5362>:
    8000573c:	7c9d0993          	addi	s3,s10,1993 # d1932585 <_end+0x51922171>

0000000080005740 <i_5363>:
    80005740:	cf4ced13          	ori	s10,s9,-780

0000000080005744 <i_5364>:
    80005744:	01a4bab3          	sltu	s5,s1,s10

0000000080005748 <i_5365>:
    80005748:	01af6f33          	or	t5,t5,s10

000000008000574c <i_5366>:
    8000574c:	02013483          	ld	s1,32(sp)

0000000080005750 <i_5367>:
    80005750:	02949db3          	mulh	s11,s1,s1

0000000080005754 <i_5368>:
    80005754:	00500993          	li	s3,5

0000000080005758 <i_5369>:
    80005758:	013f5f3b          	srlw	t5,t5,s3

000000008000575c <i_5370>:
    8000575c:	f5013f03          	ld	t5,-176(sp)

0000000080005760 <i_5371>:
    80005760:	ee813683          	ld	a3,-280(sp)

0000000080005764 <i_5372>:
    80005764:	8d300493          	li	s1,-1837

0000000080005768 <i_5373>:
    80005768:	8e700193          	li	gp,-1817

000000008000576c <i_5374>:
    8000576c:	99e8e693          	ori	a3,a7,-1634

0000000080005770 <i_5375>:
    80005770:	ec912023          	sw	s1,-320(sp)

0000000080005774 <i_5376>:
    80005774:	77800f13          	li	t5,1912

0000000080005778 <i_5377>:
    80005778:	77e00b13          	li	s6,1918

000000008000577c <i_5378>:
    8000577c:	00000013          	nop

0000000080005780 <i_5379>:
    80005780:	001f0f13          	addi	t5,t5,1
    80005784:	ff6f4ce3          	blt	t5,s6,8000577c <i_5378>

0000000080005788 <i_5380>:
    80005788:	00d6a6b3          	slt	a3,a3,a3

000000008000578c <i_5381>:
    8000578c:	4029d99b          	sraiw	s3,s3,0x2

0000000080005790 <i_5382>:
    80005790:	01b6adb3          	slt	s11,a3,s11

0000000080005794 <i_5383>:
    80005794:	00d6e863          	bltu	a3,a3,800057a4 <i_5387>

0000000080005798 <i_5384>:
    80005798:	4029d99b          	sraiw	s3,s3,0x2

000000008000579c <i_5385>:
    8000579c:	03900393          	li	t2,57

00000000800057a0 <i_5386>:
    800057a0:	0076d6b3          	srl	a3,a3,t2

00000000800057a4 <i_5387>:
    800057a4:	01700313          	li	t1,23

00000000800057a8 <i_5388>:
    800057a8:	006699bb          	sllw	s3,a3,t1

00000000800057ac <i_5389>:
    800057ac:	02a5653b          	remw	a0,a0,a0

00000000800057b0 <i_5390>:
    800057b0:	00148493          	addi	s1,s1,1 # 67ef4731 <main-0x1810b8cf>
    800057b4:	fa349ce3          	bne	s1,gp,8000576c <i_5374>

00000000800057b8 <i_5391>:
    800057b8:	ea710c23          	sb	t2,-328(sp)

00000000800057bc <i_5392>:
    800057bc:	fa811983          	lh	s3,-88(sp)

00000000800057c0 <i_5393>:
    800057c0:	0b553093          	sltiu	ra,a0,181

00000000800057c4 <i_5394>:
    800057c4:	78d00d93          	li	s11,1933

00000000800057c8 <i_5395>:
    800057c8:	79b00513          	li	a0,1947

00000000800057cc <i_5396>:
    800057cc:	0217b5b3          	mulhu	a1,a5,ra

00000000800057d0 <i_5397>:
    800057d0:	ee013603          	ld	a2,-288(sp)

00000000800057d4 <i_5398>:
    800057d4:	02a27663          	bleu	a0,tp,80005800 <i_5408>

00000000800057d8 <i_5399>:
    800057d8:	00a57c33          	and	s8,a0,a0

00000000800057dc <i_5400>:
    800057dc:	0219f7b3          	remu	a5,s3,ra

00000000800057e0 <i_5401>:
    800057e0:	4887fc13          	andi	s8,a5,1160

00000000800057e4 <i_5402>:
    800057e4:	001d8d93          	addi	s11,s11,1
    800057e8:	feadc2e3          	blt	s11,a0,800057cc <i_5396>

00000000800057ec <i_5403>:
    800057ec:	19c10a83          	lb	s5,412(sp)

00000000800057f0 <i_5404>:
    800057f0:	01d58b33          	add	s6,a1,t4

00000000800057f4 <i_5405>:
    800057f4:	016c6263          	bltu	s8,s6,800057f8 <i_5406>

00000000800057f8 <i_5406>:
    800057f8:	e4a11b03          	lh	s6,-438(sp)

00000000800057fc <i_5407>:
    800057fc:	016b4a63          	blt	s6,s6,80005810 <i_5412>

0000000080005800 <i_5408>:
    80005800:	01634e63          	blt	t1,s6,8000581c <i_5415>

0000000080005804 <i_5409>:
    80005804:	01a15f03          	lhu	t5,26(sp)

0000000080005808 <i_5410>:
    80005808:	8f338b93          	addi	s7,t2,-1805 # 131988f3 <main-0x6ce6770d>

000000008000580c <i_5411>:
    8000580c:	729b2b13          	slti	s6,s6,1833

0000000080005810 <i_5412>:
    80005810:	001c9613          	slli	a2,s9,0x1

0000000080005814 <i_5413>:
    80005814:	0dd14e03          	lbu	t3,221(sp)

0000000080005818 <i_5414>:
    80005818:	f2c12a23          	sw	a2,-204(sp)

000000008000581c <i_5415>:
    8000581c:	03a60463          	beq	a2,s10,80005844 <i_5425>

0000000080005820 <i_5416>:
    80005820:	402d5b1b          	sraiw	s6,s10,0x2

0000000080005824 <i_5417>:
    80005824:	00d00b13          	li	s6,13

0000000080005828 <i_5418>:
    80005828:	416d5a3b          	sraw	s4,s10,s6

000000008000582c <i_5419>:
    8000582c:	f7a15403          	lhu	s0,-134(sp)

0000000080005830 <i_5420>:
    80005830:	00cb4e63          	blt	s6,a2,8000584c <i_5427>

0000000080005834 <i_5421>:
    80005834:	02da4633          	div	a2,s4,a3

0000000080005838 <i_5422>:
    80005838:	01c60a63          	beq	a2,t3,8000584c <i_5427>

000000008000583c <i_5423>:
    8000583c:	f7812303          	lw	t1,-136(sp)

0000000080005840 <i_5424>:
    80005840:	05412623          	sw	s4,76(sp)

0000000080005844 <i_5425>:
    80005844:	025322b3          	mulhsu	t0,t1,t0

0000000080005848 <i_5426>:
    80005848:	03615303          	lhu	t1,54(sp)

000000008000584c <i_5427>:
    8000584c:	00b41863          	bne	s0,a1,8000585c <i_5431>

0000000080005850 <i_5428>:
    80005850:	40135f1b          	sraiw	t5,t1,0x1

0000000080005854 <i_5429>:
    80005854:	00cf1e63          	bne	t5,a2,80005870 <i_5436>

0000000080005858 <i_5430>:
    80005858:	005a0c63          	beq	s4,t0,80005870 <i_5436>

000000008000585c <i_5431>:
    8000585c:	fb412823          	sw	s4,-80(sp)

0000000080005860 <i_5432>:
    80005860:	13210303          	lb	t1,306(sp)

0000000080005864 <i_5433>:
    80005864:	fe013c03          	ld	s8,-32(sp)

0000000080005868 <i_5434>:
    80005868:	02c61063          	bne	a2,a2,80005888 <i_5442>

000000008000586c <i_5435>:
    8000586c:	0a013f03          	ld	t5,160(sp)

0000000080005870 <i_5436>:
    80005870:	ed210603          	lb	a2,-302(sp)

0000000080005874 <i_5437>:
    80005874:	ee810423          	sb	s0,-280(sp)

0000000080005878 <i_5438>:
    80005878:	e5c11623          	sh	t3,-436(sp)

000000008000587c <i_5439>:
    8000587c:	01647a63          	bleu	s6,s0,80005890 <i_5444>

0000000080005880 <i_5440>:
    80005880:	e7f10783          	lb	a5,-385(sp)

0000000080005884 <i_5441>:
    80005884:	00475e1b          	srliw	t3,a4,0x4

0000000080005888 <i_5442>:
    80005888:	7ecc0793          	addi	a5,s8,2028 # ffffffffae82f7ec <_end+0xffffffff2e81f3d8>

000000008000588c <i_5443>:
    8000588c:	03c16c03          	lwu	s8,60(sp)

0000000080005890 <i_5444>:
    80005890:	018e47b3          	xor	a5,t3,s8

0000000080005894 <i_5445>:
    80005894:	ee611c03          	lh	s8,-282(sp)

0000000080005898 <i_5446>:
    80005898:	022a3a33          	mulhu	s4,s4,sp

000000008000589c <i_5447>:
    8000589c:	08512a23          	sw	t0,148(sp)

00000000800058a0 <i_5448>:
    800058a0:	01310b83          	lb	s7,19(sp)

00000000800058a4 <i_5449>:
    800058a4:	f9813283          	ld	t0,-104(sp)

00000000800058a8 <i_5450>:
    800058a8:	fc510da3          	sb	t0,-37(sp)

00000000800058ac <i_5451>:
    800058ac:	0042d31b          	srliw	t1,t0,0x4

00000000800058b0 <i_5452>:
    800058b0:	f2612223          	sw	t1,-220(sp)

00000000800058b4 <i_5453>:
    800058b4:	0262f6b3          	remu	a3,t0,t1

00000000800058b8 <i_5454>:
    800058b8:	02d2e063          	bltu	t0,a3,800058d8 <i_5462>

00000000800058bc <i_5455>:
    800058bc:	16812383          	lw	t2,360(sp)

00000000800058c0 <i_5456>:
    800058c0:	e8610b23          	sb	t1,-362(sp)

00000000800058c4 <i_5457>:
    800058c4:	07c16603          	lwu	a2,124(sp)

00000000800058c8 <i_5458>:
    800058c8:	027f2633          	mulhsu	a2,t5,t2

00000000800058cc <i_5459>:
    800058cc:	1ac11223          	sh	a2,420(sp)

00000000800058d0 <i_5460>:
    800058d0:	13813283          	ld	t0,312(sp)

00000000800058d4 <i_5461>:
    800058d4:	04611683          	lh	a3,70(sp)

00000000800058d8 <i_5462>:
    800058d8:	02d6e6bb          	remw	a3,a3,a3

00000000800058dc <i_5463>:
    800058dc:	fde10c83          	lb	s9,-34(sp)

00000000800058e0 <i_5464>:
    800058e0:	1b913c23          	sd	s9,440(sp)

00000000800058e4 <i_5465>:
    800058e4:	0e411683          	lh	a3,228(sp)

00000000800058e8 <i_5466>:
    800058e8:	f0013783          	ld	a5,-256(sp)

00000000800058ec <i_5467>:
    800058ec:	00200c93          	li	s9,2

00000000800058f0 <i_5468>:
    800058f0:	4197dcb3          	sra	s9,a5,s9

00000000800058f4 <i_5469>:
    800058f4:	4036d29b          	sraiw	t0,a3,0x3

00000000800058f8 <i_5470>:
    800058f8:	02d69063          	bne	a3,a3,80005918 <i_5478>

00000000800058fc <i_5471>:
    800058fc:	31b28593          	addi	a1,t0,795

0000000080005900 <i_5472>:
    80005900:	fd412e03          	lw	t3,-44(sp)

0000000080005904 <i_5473>:
    80005904:	00d6ebb3          	or	s7,a3,a3

0000000080005908 <i_5474>:
    80005908:	eac16d83          	lwu	s11,-340(sp)

000000008000590c <i_5475>:
    8000590c:	33ddac13          	slti	s8,s11,829

0000000080005910 <i_5476>:
    80005910:	038707bb          	mulw	a5,a4,s8

0000000080005914 <i_5477>:
    80005914:	0256e063          	bltu	a3,t0,80005934 <i_5485>

0000000080005918 <i_5478>:
    80005918:	002ede9b          	srliw	t4,t4,0x2

000000008000591c <i_5479>:
    8000591c:	01cb8a63          	beq	s7,t3,80005930 <i_5484>

0000000080005920 <i_5480>:
    80005920:	ef46a293          	slti	t0,a3,-268

0000000080005924 <i_5481>:
    80005924:	07012603          	lw	a2,112(sp)

0000000080005928 <i_5482>:
    80005928:	405e8c3b          	subw	s8,t4,t0

000000008000592c <i_5483>:
    8000592c:	402c561b          	sraiw	a2,s8,0x2

0000000080005930 <i_5484>:
    80005930:	01811023          	sh	s8,0(sp)

0000000080005934 <i_5485>:
    80005934:	02d19e33          	mulh	t3,gp,a3

0000000080005938 <i_5486>:
    80005938:	038c21b3          	mulhsu	gp,s8,s8

000000008000593c <i_5487>:
    8000593c:	01400613          	li	a2,20

0000000080005940 <i_5488>:
    80005940:	40c2d1bb          	sraw	gp,t0,a2

0000000080005944 <i_5489>:
    80005944:	82000c13          	li	s8,-2016

0000000080005948 <i_5490>:
    80005948:	82c00593          	li	a1,-2004

000000008000594c <i_5491>:
    8000594c:	a6f2aa93          	slti	s5,t0,-1425

0000000080005950 <i_5492>:
    80005950:	74d00b93          	li	s7,1869

0000000080005954 <i_5493>:
    80005954:	75900293          	li	t0,1881

0000000080005958 <i_5494>:
    80005958:	001b8b93          	addi	s7,s7,1 # 6c6efe7d <main-0x13910183>
    8000595c:	ff729ee3          	bne	t0,s7,80005958 <i_5494>

0000000080005960 <i_5495>:
    80005960:	409484b3          	sub	s1,s1,s1

0000000080005964 <i_5496>:
    80005964:	198109a3          	sb	s8,403(sp)

0000000080005968 <i_5497>:
    80005968:	23a7a813          	slti	a6,a5,570

000000008000596c <i_5498>:
    8000596c:	0ea14e03          	lbu	t3,234(sp)

0000000080005970 <i_5499>:
    80005970:	410802b3          	sub	t0,a6,a6

0000000080005974 <i_5500>:
    80005974:	f4512e23          	sw	t0,-164(sp)

0000000080005978 <i_5501>:
    80005978:	001c0c13          	addi	s8,s8,1
    8000597c:	fcbc46e3          	blt	s8,a1,80005948 <i_5490>

0000000080005980 <i_5502>:
    80005980:	1a513c23          	sd	t0,440(sp)

0000000080005984 <i_5503>:
    80005984:	03013c23          	sd	a6,56(sp)

0000000080005988 <i_5504>:
    80005988:	ea813503          	ld	a0,-344(sp)

000000008000598c <i_5505>:
    8000598c:	e7b13c23          	sd	s11,-392(sp)

0000000080005990 <i_5506>:
    80005990:	07a10c03          	lb	s8,122(sp)

0000000080005994 <i_5507>:
    80005994:	15010c03          	lb	s8,336(sp)

0000000080005998 <i_5508>:
    80005998:	02a854bb          	divuw	s1,a6,a0

000000008000599c <i_5509>:
    8000599c:	40185813          	srai	a6,a6,0x1

00000000800059a0 <i_5510>:
    800059a0:	1dc16c03          	lwu	s8,476(sp)

00000000800059a4 <i_5511>:
    800059a4:	02913023          	sd	s1,32(sp)

00000000800059a8 <i_5512>:
    800059a8:	07c12583          	lw	a1,124(sp)

00000000800059ac <i_5513>:
    800059ac:	00000013          	nop

00000000800059b0 <i_5514>:
    800059b0:	7e300313          	li	t1,2019

00000000800059b4 <i_5515>:
    800059b4:	7f700493          	li	s1,2039

00000000800059b8 <i_5516>:
    800059b8:	f0b12023          	sw	a1,-256(sp)

00000000800059bc <i_5517>:
    800059bc:	ecb13023          	sd	a1,-320(sp)

00000000800059c0 <i_5518>:
    800059c0:	f91103a3          	sb	a7,-121(sp)

00000000800059c4 <i_5519>:
    800059c4:	410305b3          	sub	a1,t1,a6

00000000800059c8 <i_5520>:
    800059c8:	11816d03          	lwu	s10,280(sp)

00000000800059cc <i_5521>:
    800059cc:	00b282b3          	add	t0,t0,a1

00000000800059d0 <i_5522>:
    800059d0:	0095d263          	ble	s1,a1,800059d4 <i_5523>

00000000800059d4 <i_5523>:
    800059d4:	00000013          	nop

00000000800059d8 <i_5524>:
    800059d8:	f4c11f03          	lh	t5,-180(sp)

00000000800059dc <i_5525>:
    800059dc:	0b714583          	lbu	a1,183(sp)

00000000800059e0 <i_5526>:
    800059e0:	00130313          	addi	t1,t1,1
    800059e4:	fc936ae3          	bltu	t1,s1,800059b8 <i_5516>

00000000800059e8 <i_5527>:
    800059e8:	15914b83          	lbu	s7,345(sp)

00000000800059ec <i_5528>:
    800059ec:	025b8333          	mul	t1,s7,t0

00000000800059f0 <i_5529>:
    800059f0:	f6412b83          	lw	s7,-156(sp)

00000000800059f4 <i_5530>:
    800059f4:	401ede93          	srai	t4,t4,0x1

00000000800059f8 <i_5531>:
    800059f8:	feb14283          	lbu	t0,-21(sp)

00000000800059fc <i_5532>:
    800059fc:	0c611203          	lh	tp,198(sp)

0000000080005a00 <i_5533>:
    80005a00:	0b012203          	lw	tp,176(sp)

0000000080005a04 <i_5534>:
    80005a04:	1b416283          	lwu	t0,436(sp)

0000000080005a08 <i_5535>:
    80005a08:	0042dc63          	ble	tp,t0,80005a20 <i_5541>

0000000080005a0c <i_5536>:
    80005a0c:	efd14303          	lbu	t1,-259(sp)

0000000080005a10 <i_5537>:
    80005a10:	00628263          	beq	t0,t1,80005a14 <i_5538>

0000000080005a14 <i_5538>:
    80005a14:	02530263          	beq	t1,t0,80005a38 <i_5547>

0000000080005a18 <i_5539>:
    80005a18:	02424bb3          	div	s7,tp,tp

0000000080005a1c <i_5540>:
    80005a1c:	03e00313          	li	t1,62

0000000080005a20 <i_5541>:
    80005a20:	4062d333          	sra	t1,t0,t1

0000000080005a24 <i_5542>:
    80005a24:	04612823          	sw	t1,80(sp)

0000000080005a28 <i_5543>:
    80005a28:	40235313          	srai	t1,t1,0x2

0000000080005a2c <i_5544>:
    80005a2c:	00630663          	beq	t1,t1,80005a38 <i_5547>

0000000080005a30 <i_5545>:
    80005a30:	00635263          	ble	t1,t1,80005a34 <i_5546>

0000000080005a34 <i_5546>:
    80005a34:	01500613          	li	a2,21

0000000080005a38 <i_5547>:
    80005a38:	00c25333          	srl	t1,tp,a2

0000000080005a3c <i_5548>:
    80005a3c:	00665863          	ble	t1,a2,80005a4c <i_5552>

0000000080005a40 <i_5549>:
    80005a40:	f2c16303          	lwu	t1,-212(sp)

0000000080005a44 <i_5550>:
    80005a44:	f4211803          	lh	a6,-190(sp)

0000000080005a48 <i_5551>:
    80005a48:	15c16303          	lwu	t1,348(sp)

0000000080005a4c <i_5552>:
    80005a4c:	fe610303          	lb	t1,-26(sp)

0000000080005a50 <i_5553>:
    80005a50:	006af663          	bleu	t1,s5,80005a5c <i_5556>

0000000080005a54 <i_5554>:
    80005a54:	1b812603          	lw	a2,440(sp)

0000000080005a58 <i_5555>:
    80005a58:	0036c463          	blt	a3,gp,80005a60 <i_5557>

0000000080005a5c <i_5556>:
    80005a5c:	00c85663          	ble	a2,a6,80005a68 <i_5559>

0000000080005a60 <i_5557>:
    80005a60:	02c5663b          	remw	a2,a0,a2

0000000080005a64 <i_5558>:
    80005a64:	03a00813          	li	a6,58

0000000080005a68 <i_5559>:
    80005a68:	41065bb3          	sra	s7,a2,a6

0000000080005a6c <i_5560>:
    80005a6c:	10c10da3          	sb	a2,283(sp)

0000000080005a70 <i_5561>:
    80005a70:	ea411483          	lh	s1,-348(sp)

0000000080005a74 <i_5562>:
    80005a74:	0d3104a3          	sb	s3,201(sp)

0000000080005a78 <i_5563>:
    80005a78:	00c48463          	beq	s1,a2,80005a80 <i_5565>

0000000080005a7c <i_5564>:
    80005a7c:	0f710e03          	lb	t3,247(sp)

0000000080005a80 <i_5565>:
    80005a80:	ef0102a3          	sb	a6,-283(sp)

0000000080005a84 <i_5566>:
    80005a84:	01c62c33          	slt	s8,a2,t3

0000000080005a88 <i_5567>:
    80005a88:	006e9663          	bne	t4,t1,80005a94 <i_5570>

0000000080005a8c <i_5568>:
    80005a8c:	00c66263          	bltu	a2,a2,80005a90 <i_5569>

0000000080005a90 <i_5569>:
    80005a90:	02963c33          	mulhu	s8,a2,s1

0000000080005a94 <i_5570>:
    80005a94:	92bc7613          	andi	a2,s8,-1749

0000000080005a98 <i_5571>:
    80005a98:	01cc0a63          	beq	s8,t3,80005aac <i_5576>

0000000080005a9c <i_5572>:
    80005a9c:	fa710c03          	lb	s8,-89(sp)

0000000080005aa0 <i_5573>:
    80005aa0:	03decebb          	divw	t4,t4,t4

0000000080005aa4 <i_5574>:
    80005aa4:	01500093          	li	ra,21

0000000080005aa8 <i_5575>:
    80005aa8:	001b1b3b          	sllw	s6,s6,ra

0000000080005aac <i_5576>:
    80005aac:	403c5093          	srai	ra,s8,0x3

0000000080005ab0 <i_5577>:
    80005ab0:	10415b03          	lhu	s6,260(sp)

0000000080005ab4 <i_5578>:
    80005ab4:	ea812f03          	lw	t5,-344(sp)

0000000080005ab8 <i_5579>:
    80005ab8:	00000013          	nop

0000000080005abc <i_5580>:
    80005abc:	003e9b1b          	slliw	s6,t4,0x3

0000000080005ac0 <i_5581>:
    80005ac0:	8a500413          	li	s0,-1883

0000000080005ac4 <i_5582>:
    80005ac4:	8b400c13          	li	s8,-1868

0000000080005ac8 <i_5583>:
    80005ac8:	f7416803          	lwu	a6,-140(sp)

0000000080005acc <i_5584>:
    80005acc:	00c12023          	sw	a2,0(sp)

0000000080005ad0 <i_5585>:
    80005ad0:	0176c263          	blt	a3,s7,80005ad4 <i_5586>

0000000080005ad4 <i_5586>:
    80005ad4:	f5a14783          	lbu	a5,-166(sp)

0000000080005ad8 <i_5587>:
    80005ad8:	13612823          	sw	s6,304(sp)

0000000080005adc <i_5588>:
    80005adc:	eec11503          	lh	a0,-276(sp)

0000000080005ae0 <i_5589>:
    80005ae0:	06011d83          	lh	s11,96(sp)

0000000080005ae4 <i_5590>:
    80005ae4:	012dadb3          	slt	s11,s11,s2

0000000080005ae8 <i_5591>:
    80005ae8:	f1611523          	sh	s6,-246(sp)

0000000080005aec <i_5592>:
    80005aec:	00140413          	addi	s0,s0,1
    80005af0:	fd846ce3          	bltu	s0,s8,80005ac8 <i_5583>

0000000080005af4 <i_5593>:
    80005af4:	13013c83          	ld	s9,304(sp)

0000000080005af8 <i_5594>:
    80005af8:	0ef14c83          	lbu	s9,239(sp)

0000000080005afc <i_5595>:
    80005afc:	f9611123          	sh	s6,-126(sp)

0000000080005b00 <i_5596>:
    80005b00:	14611803          	lh	a6,326(sp)

0000000080005b04 <i_5597>:
    80005b04:	eba102a3          	sb	s10,-347(sp)

0000000080005b08 <i_5598>:
    80005b08:	06811e23          	sh	s0,124(sp)

0000000080005b0c <i_5599>:
    80005b0c:	00000013          	nop

0000000080005b10 <i_5600>:
    80005b10:	88300e13          	li	t3,-1917

0000000080005b14 <i_5601>:
    80005b14:	88700d13          	li	s10,-1913

0000000080005b18 <i_5602>:
    80005b18:	0fa11023          	sh	s10,224(sp)

0000000080005b1c <i_5603>:
    80005b1c:	00000013          	nop

0000000080005b20 <i_5604>:
    80005b20:	0045579b          	srliw	a5,a0,0x4

0000000080005b24 <i_5605>:
    80005b24:	01f87bb3          	and	s7,a6,t6

0000000080005b28 <i_5606>:
    80005b28:	09912423          	sw	s9,136(sp)

0000000080005b2c <i_5607>:
    80005b2c:	f6611a23          	sh	t1,-140(sp)

0000000080005b30 <i_5608>:
    80005b30:	00000013          	nop

0000000080005b34 <i_5609>:
    80005b34:	001e0e13          	addi	t3,t3,1 # d193ea89 <_end+0x5192e675>
    80005b38:	ffae40e3          	blt	t3,s10,80005b18 <i_5602>

0000000080005b3c <i_5610>:
    80005b3c:	e8412e03          	lw	t3,-380(sp)

0000000080005b40 <i_5611>:
    80005b40:	028ddbbb          	divuw	s7,s11,s0

0000000080005b44 <i_5612>:
    80005b44:	01be3db3          	sltu	s11,t3,s11

0000000080005b48 <i_5613>:
    80005b48:	e3c10ba3          	sb	t3,-457(sp)

0000000080005b4c <i_5614>:
    80005b4c:	ebb13c23          	sd	s11,-328(sp)

0000000080005b50 <i_5615>:
    80005b50:	001d8c63          	beq	s11,ra,80005b68 <i_5621>

0000000080005b54 <i_5616>:
    80005b54:	12411b83          	lh	s7,292(sp)

0000000080005b58 <i_5617>:
    80005b58:	01cb8db3          	add	s11,s7,t3

0000000080005b5c <i_5618>:
    80005b5c:	e1c11d83          	lh	s11,-484(sp)

0000000080005b60 <i_5619>:
    80005b60:	ffb10ca3          	sb	s11,-7(sp)

0000000080005b64 <i_5620>:
    80005b64:	f43e8a9b          	addiw	s5,t4,-189

0000000080005b68 <i_5621>:
    80005b68:	e3a15b83          	lhu	s7,-454(sp)

0000000080005b6c <i_5622>:
    80005b6c:	ef914383          	lbu	t2,-263(sp)

0000000080005b70 <i_5623>:
    80005b70:	0ee15e83          	lhu	t4,238(sp)

0000000080005b74 <i_5624>:
    80005b74:	015ac263          	blt	s5,s5,80005b78 <i_5625>

0000000080005b78 <i_5625>:
    80005b78:	e3d11323          	sh	t4,-474(sp)

0000000080005b7c <i_5626>:
    80005b7c:	03ded063          	ble	t4,t4,80005b9c <i_5634>

0000000080005b80 <i_5627>:
    80005b80:	15d11223          	sh	t4,324(sp)

0000000080005b84 <i_5628>:
    80005b84:	0a812e83          	lw	t4,168(sp)

0000000080005b88 <i_5629>:
    80005b88:	00000013          	nop

0000000080005b8c <i_5630>:
    80005b8c:	14813603          	ld	a2,328(sp)

0000000080005b90 <i_5631>:
    80005b90:	04415d03          	lhu	s10,68(sp)

0000000080005b94 <i_5632>:
    80005b94:	08813e83          	ld	t4,136(sp)

0000000080005b98 <i_5633>:
    80005b98:	00000013          	nop

0000000080005b9c <i_5634>:
    80005b9c:	00000013          	nop

0000000080005ba0 <i_5635>:
    80005ba0:	0b813583          	ld	a1,184(sp)

0000000080005ba4 <i_5636>:
    80005ba4:	74400693          	li	a3,1860

0000000080005ba8 <i_5637>:
    80005ba8:	75200493          	li	s1,1874

0000000080005bac <i_5638>:
    80005bac:	ffd12623          	sw	t4,-20(sp)

0000000080005bb0 <i_5639>:
    80005bb0:	003d1d1b          	slliw	s10,s10,0x3

0000000080005bb4 <i_5640>:
    80005bb4:	404ede93          	srai	t4,t4,0x4

0000000080005bb8 <i_5641>:
    80005bb8:	1bd11b23          	sh	t4,438(sp)

0000000080005bbc <i_5642>:
    80005bbc:	00000013          	nop

0000000080005bc0 <i_5643>:
    80005bc0:	fba13c23          	sd	s10,-72(sp)

0000000080005bc4 <i_5644>:
    80005bc4:	f3d13023          	sd	t4,-224(sp)

0000000080005bc8 <i_5645>:
    80005bc8:	fdd13423          	sd	t4,-56(sp)

0000000080005bcc <i_5646>:
    80005bcc:	02cd6cbb          	remw	s9,s10,a2

0000000080005bd0 <i_5647>:
    80005bd0:	00168693          	addi	a3,a3,1 # fffffffff8b2f001 <_end+0xffffffff78b1ebed>
    80005bd4:	fc96ece3          	bltu	a3,s1,80005bac <i_5638>

0000000080005bd8 <i_5648>:
    80005bd8:	01d79663          	bne	a5,t4,80005be4 <i_5651>

0000000080005bdc <i_5649>:
    80005bdc:	00379793          	slli	a5,a5,0x3

0000000080005be0 <i_5650>:
    80005be0:	edc15c03          	lhu	s8,-292(sp)

0000000080005be4 <i_5651>:
    80005be4:	f4412083          	lw	ra,-188(sp)

0000000080005be8 <i_5652>:
    80005be8:	f6d12a23          	sw	a3,-140(sp)

0000000080005bec <i_5653>:
    80005bec:	1cb12423          	sw	a1,456(sp)

0000000080005bf0 <i_5654>:
    80005bf0:	03ac4bbb          	divw	s7,s8,s10

0000000080005bf4 <i_5655>:
    80005bf4:	ee013f03          	ld	t5,-288(sp)

0000000080005bf8 <i_5656>:
    80005bf8:	018cec63          	bltu	s9,s8,80005c10 <i_5662>

0000000080005bfc <i_5657>:
    80005bfc:	eb913423          	sd	s9,-344(sp)

0000000080005c00 <i_5658>:
    80005c00:	08c10fa3          	sb	a2,159(sp)

0000000080005c04 <i_5659>:
    80005c04:	19911623          	sh	s9,396(sp)

0000000080005c08 <i_5660>:
    80005c08:	06310083          	lb	ra,99(sp)

0000000080005c0c <i_5661>:
    80005c0c:	c63200b7          	lui	ra,0xc6320

0000000080005c10 <i_5662>:
    80005c10:	029cf6b3          	remu	a3,s9,s1

0000000080005c14 <i_5663>:
    80005c14:	03e71433          	mulh	s0,a4,t5

0000000080005c18 <i_5664>:
    80005c18:	76300c93          	li	s9,1891

0000000080005c1c <i_5665>:
    80005c1c:	76500c13          	li	s8,1893

0000000080005c20 <i_5666>:
    80005c20:	021c9433          	mulh	s0,s9,ra

0000000080005c24 <i_5667>:
    80005c24:	513f4593          	xori	a1,t5,1299

0000000080005c28 <i_5668>:
    80005c28:	01ac3413          	sltiu	s0,s8,26

0000000080005c2c <i_5669>:
    80005c2c:	ea112423          	sw	ra,-344(sp)

0000000080005c30 <i_5670>:
    80005c30:	e5910303          	lb	t1,-423(sp)

0000000080005c34 <i_5671>:
    80005c34:	ee6101a3          	sb	t1,-285(sp)

0000000080005c38 <i_5672>:
    80005c38:	01e35663          	ble	t5,t1,80005c44 <i_5675>

0000000080005c3c <i_5673>:
    80005c3c:	0035d61b          	srliw	a2,a1,0x3

0000000080005c40 <i_5674>:
    80005c40:	0d667593          	andi	a1,a2,214

0000000080005c44 <i_5675>:
    80005c44:	02be7e3b          	remuw	t3,t3,a1

0000000080005c48 <i_5676>:
    80005c48:	41ce03b3          	sub	t2,t3,t3

0000000080005c4c <i_5677>:
    80005c4c:	00426233          	or	tp,tp,tp

0000000080005c50 <i_5678>:
    80005c50:	001c8c93          	addi	s9,s9,1
    80005c54:	fd8cc6e3          	blt	s9,s8,80005c20 <i_5666>

0000000080005c58 <i_5679>:
    80005c58:	f8713c23          	sd	t2,-104(sp)

0000000080005c5c <i_5680>:
    80005c5c:	fc211623          	sh	sp,-52(sp)

0000000080005c60 <i_5681>:
    80005c60:	00200d13          	li	s10,2

0000000080005c64 <i_5682>:
    80005c64:	01a8923b          	sllw	tp,a7,s10

0000000080005c68 <i_5683>:
    80005c68:	2b6d3e13          	sltiu	t3,s10,694

0000000080005c6c <i_5684>:
    80005c6c:	ee712e23          	sw	t2,-260(sp)

0000000080005c70 <i_5685>:
    80005c70:	0399da3b          	divuw	s4,s3,s9

0000000080005c74 <i_5686>:
    80005c74:	06614e03          	lbu	t3,102(sp)

0000000080005c78 <i_5687>:
    80005c78:	02827463          	bleu	s0,tp,80005ca0 <i_5697>

0000000080005c7c <i_5688>:
    80005c7c:	1c210403          	lb	s0,450(sp)

0000000080005c80 <i_5689>:
    80005c80:	02800413          	li	s0,40

0000000080005c84 <i_5690>:
    80005c84:	00841233          	sll	tp,s0,s0

0000000080005c88 <i_5691>:
    80005c88:	0241f23b          	remuw	tp,gp,tp

0000000080005c8c <i_5692>:
    80005c8c:	0361c1b3          	div	gp,gp,s6

0000000080005c90 <i_5693>:
    80005c90:	0031e433          	or	s0,gp,gp

0000000080005c94 <i_5694>:
    80005c94:	11714383          	lbu	t2,279(sp)

0000000080005c98 <i_5695>:
    80005c98:	1d816183          	lwu	gp,472(sp)

0000000080005c9c <i_5696>:
    80005c9c:	01338263          	beq	t2,s3,80005ca0 <i_5697>

0000000080005ca0 <i_5697>:
    80005ca0:	004109a3          	sb	tp,19(sp)

0000000080005ca4 <i_5698>:
    80005ca4:	0b016783          	lwu	a5,176(sp)

0000000080005ca8 <i_5699>:
    80005ca8:	f7c11183          	lh	gp,-132(sp)

0000000080005cac <i_5700>:
    80005cac:	10310523          	sb	gp,266(sp)

0000000080005cb0 <i_5701>:
    80005cb0:	0237c7bb          	divw	a5,a5,gp

0000000080005cb4 <i_5702>:
    80005cb4:	8817c513          	xori	a0,a5,-1919

0000000080005cb8 <i_5703>:
    80005cb8:	023511b3          	mulh	gp,a0,gp

0000000080005cbc <i_5704>:
    80005cbc:	021b81b3          	mul	gp,s7,ra

0000000080005cc0 <i_5705>:
    80005cc0:	0117c663          	blt	a5,a7,80005ccc <i_5708>

0000000080005cc4 <i_5706>:
    80005cc4:	003b1b93          	slli	s7,s6,0x3

0000000080005cc8 <i_5707>:
    80005cc8:	004b9b9b          	slliw	s7,s7,0x4

0000000080005ccc <i_5708>:
    80005ccc:	00000013          	nop

0000000080005cd0 <i_5709>:
    80005cd0:	e4111a23          	sh	ra,-428(sp)

0000000080005cd4 <i_5710>:
    80005cd4:	87500c93          	li	s9,-1931

0000000080005cd8 <i_5711>:
    80005cd8:	88000093          	li	ra,-1920

0000000080005cdc <i_5712>:
    80005cdc:	01500a93          	li	s5,21

0000000080005ce0 <i_5713>:
    80005ce0:	015f1f3b          	sllw	t5,t5,s5

0000000080005ce4 <i_5714>:
    80005ce4:	03ef0263          	beq	t5,t5,80005d08 <i_5722>

0000000080005ce8 <i_5715>:
    80005ce8:	02ef0263          	beq	t5,a4,80005d0c <i_5723>

0000000080005cec <i_5716>:
    80005cec:	001c8c93          	addi	s9,s9,1
    80005cf0:	ff90f6e3          	bleu	s9,ra,80005cdc <i_5712>

0000000080005cf4 <i_5717>:
    80005cf4:	01508ab3          	add	s5,ra,s5

0000000080005cf8 <i_5718>:
    80005cf8:	14712c23          	sw	t2,344(sp)

0000000080005cfc <i_5719>:
    80005cfc:	e4815483          	lhu	s1,-440(sp)

0000000080005d00 <i_5720>:
    80005d00:	10110d23          	sb	ra,282(sp)

0000000080005d04 <i_5721>:
    80005d04:	001a8433          	add	s0,s5,ra

0000000080005d08 <i_5722>:
    80005d08:	08e10383          	lb	t2,142(sp)

0000000080005d0c <i_5723>:
    80005d0c:	e1c16a83          	lwu	s5,-484(sp)

0000000080005d10 <i_5724>:
    80005d10:	fb5108a3          	sb	s5,-79(sp)

0000000080005d14 <i_5725>:
    80005d14:	f3913c23          	sd	s9,-200(sp)

0000000080005d18 <i_5726>:
    80005d18:	07f14a83          	lbu	s5,127(sp)

0000000080005d1c <i_5727>:
    80005d1c:	03813983          	ld	s3,56(sp)

0000000080005d20 <i_5728>:
    80005d20:	ff011c83          	lh	s9,-16(sp)

0000000080005d24 <i_5729>:
    80005d24:	14412b83          	lw	s7,324(sp)

0000000080005d28 <i_5730>:
    80005d28:	417081bb          	subw	gp,ra,s7

0000000080005d2c <i_5731>:
    80005d2c:	02311723          	sh	gp,46(sp)

0000000080005d30 <i_5732>:
    80005d30:	13812403          	lw	s0,312(sp)

0000000080005d34 <i_5733>:
    80005d34:	02325db3          	divu	s11,tp,gp

0000000080005d38 <i_5734>:
    80005d38:	e9014d83          	lbu	s11,-368(sp)

0000000080005d3c <i_5735>:
    80005d3c:	8b700c93          	li	s9,-1865

0000000080005d40 <i_5736>:
    80005d40:	8b900193          	li	gp,-1863

0000000080005d44 <i_5737>:
    80005d44:	003d8a63          	beq	s11,gp,80005d58 <i_5742>

0000000080005d48 <i_5738>:
    80005d48:	0080c5b3          	xor	a1,ra,s0

0000000080005d4c <i_5739>:
    80005d4c:	10815d83          	lhu	s11,264(sp)

0000000080005d50 <i_5740>:
    80005d50:	f93de0b7          	lui	ra,0xf93de

0000000080005d54 <i_5741>:
    80005d54:	bf6f0413          	addi	s0,t5,-1034

0000000080005d58 <i_5742>:
    80005d58:	e6b10023          	sb	a1,-416(sp)

0000000080005d5c <i_5743>:
    80005d5c:	fe213023          	sd	sp,-32(sp)

0000000080005d60 <i_5744>:
    80005d60:	03bfc663          	blt	t6,s11,80005d8c <i_5754>

0000000080005d64 <i_5745>:
    80005d64:	e7013303          	ld	t1,-400(sp)

0000000080005d68 <i_5746>:
    80005d68:	e9510683          	lb	a3,-363(sp)

0000000080005d6c <i_5747>:
    80005d6c:	02636663          	bltu	t1,t1,80005d98 <i_5757>

0000000080005d70 <i_5748>:
    80005d70:	001c8c93          	addi	s9,s9,1
    80005d74:	fc3ce8e3          	bltu	s9,gp,80005d44 <i_5737>

0000000080005d78 <i_5749>:
    80005d78:	01e38463          	beq	t2,t5,80005d80 <i_5751>

0000000080005d7c <i_5750>:
    80005d7c:	16e10d83          	lb	s11,366(sp)

0000000080005d80 <i_5751>:
    80005d80:	03311623          	sh	s3,44(sp)

0000000080005d84 <i_5752>:
    80005d84:	11611383          	lh	t2,278(sp)

0000000080005d88 <i_5753>:
    80005d88:	17c15583          	lhu	a1,380(sp)

0000000080005d8c <i_5754>:
    80005d8c:	00b3ea33          	or	s4,t2,a1

0000000080005d90 <i_5755>:
    80005d90:	f8711723          	sh	t2,-114(sp)

0000000080005d94 <i_5756>:
    80005d94:	1d962613          	slti	a2,a2,473

0000000080005d98 <i_5757>:
    80005d98:	03b5ec3b          	remw	s8,a1,s11

0000000080005d9c <i_5758>:
    80005d9c:	e8816983          	lwu	s3,-376(sp)

0000000080005da0 <i_5759>:
    80005da0:	81f00593          	li	a1,-2017

0000000080005da4 <i_5760>:
    80005da4:	82300a13          	li	s4,-2013

0000000080005da8 <i_5761>:
    80005da8:	f1c9d3b7          	lui	t2,0xf1c9d

0000000080005dac <i_5762>:
    80005dac:	03c7be33          	mulhu	t3,a5,t3

0000000080005db0 <i_5763>:
    80005db0:	00c12c23          	sw	a2,24(sp)

0000000080005db4 <i_5764>:
    80005db4:	53966613          	ori	a2,a2,1337

0000000080005db8 <i_5765>:
    80005db8:	0187f263          	bleu	s8,a5,80005dbc <i_5766>

0000000080005dbc <i_5766>:
    80005dbc:	00000013          	nop

0000000080005dc0 <i_5767>:
    80005dc0:	1d813983          	ld	s3,472(sp)

0000000080005dc4 <i_5768>:
    80005dc4:	00000013          	nop

0000000080005dc8 <i_5769>:
    80005dc8:	fb013983          	ld	s3,-80(sp)

0000000080005dcc <i_5770>:
    80005dcc:	11012083          	lw	ra,272(sp)

0000000080005dd0 <i_5771>:
    80005dd0:	0399e263          	bltu	s3,s9,80005df4 <i_5779>

0000000080005dd4 <i_5772>:
    80005dd4:	0049999b          	slliw	s3,s3,0x4

0000000080005dd8 <i_5773>:
    80005dd8:	00158593          	addi	a1,a1,1
    80005ddc:	fcba16e3          	bne	s4,a1,80005da8 <i_5761>

0000000080005de0 <i_5774>:
    80005de0:	e4215b03          	lhu	s6,-446(sp)

0000000080005de4 <i_5775>:
    80005de4:	04b12023          	sw	a1,64(sp)

0000000080005de8 <i_5776>:
    80005de8:	19910aa3          	sb	s9,405(sp)

0000000080005dec <i_5777>:
    80005dec:	036cf263          	bleu	s6,s9,80005e10 <i_5786>

0000000080005df0 <i_5778>:
    80005df0:	1b313823          	sd	s3,432(sp)

0000000080005df4 <i_5779>:
    80005df4:	01698a63          	beq	s3,s6,80005e08 <i_5784>

0000000080005df8 <i_5780>:
    80005df8:	0190c4b3          	xor	s1,ra,s9

0000000080005dfc <i_5781>:
    80005dfc:	0164d463          	ble	s6,s1,80005e04 <i_5783>

0000000080005e00 <i_5782>:
    80005e00:	0339f263          	bleu	s3,s3,80005e24 <i_5791>

0000000080005e04 <i_5783>:
    80005e04:	01648b33          	add	s6,s1,s6

0000000080005e08 <i_5784>:
    80005e08:	0fb10723          	sb	s11,238(sp)

0000000080005e0c <i_5785>:
    80005e0c:	016b5a63          	ble	s6,s6,80005e20 <i_5790>

0000000080005e10 <i_5786>:
    80005e10:	02813b03          	ld	s6,40(sp)

0000000080005e14 <i_5787>:
    80005e14:	00300213          	li	tp,3

0000000080005e18 <i_5788>:
    80005e18:	004a5b3b          	srlw	s6,s4,tp

0000000080005e1c <i_5789>:
    80005e1c:	13910fa3          	sb	s9,319(sp)

0000000080005e20 <i_5790>:
    80005e20:	00000013          	nop

0000000080005e24 <i_5791>:
    80005e24:	0d815a03          	lhu	s4,216(sp)

0000000080005e28 <i_5792>:
    80005e28:	04016b83          	lwu	s7,64(sp)

0000000080005e2c <i_5793>:
    80005e2c:	80f00c93          	li	s9,-2033

0000000080005e30 <i_5794>:
    80005e30:	81500293          	li	t0,-2027

0000000080005e34 <i_5795>:
    80005e34:	0e110383          	lb	t2,225(sp)

0000000080005e38 <i_5796>:
    80005e38:	001c8c93          	addi	s9,s9,1
    80005e3c:	fe5c9ce3          	bne	s9,t0,80005e34 <i_5795>

0000000080005e40 <i_5797>:
    80005e40:	40445e1b          	sraiw	t3,s0,0x4

0000000080005e44 <i_5798>:
    80005e44:	01ce01b3          	add	gp,t3,t3

0000000080005e48 <i_5799>:
    80005e48:	07912023          	sw	s9,96(sp)

0000000080005e4c <i_5800>:
    80005e4c:	017bcc63          	blt	s7,s7,80005e64 <i_5806>

0000000080005e50 <i_5801>:
    80005e50:	0ea98b93          	addi	s7,s3,234

0000000080005e54 <i_5802>:
    80005e54:	f8c10083          	lb	ra,-116(sp)

0000000080005e58 <i_5803>:
    80005e58:	ec611603          	lh	a2,-314(sp)

0000000080005e5c <i_5804>:
    80005e5c:	f3912023          	sw	s9,-224(sp)

0000000080005e60 <i_5805>:
    80005e60:	02ccacb3          	mulhsu	s9,s9,a2

0000000080005e64 <i_5806>:
    80005e64:	0c510603          	lb	a2,197(sp)

0000000080005e68 <i_5807>:
    80005e68:	09011403          	lh	s0,144(sp)

0000000080005e6c <i_5808>:
    80005e6c:	00c61663          	bne	a2,a2,80005e78 <i_5811>

0000000080005e70 <i_5809>:
    80005e70:	01200493          	li	s1,18

0000000080005e74 <i_5810>:
    80005e74:	00945b3b          	srlw	s6,s0,s1

0000000080005e78 <i_5811>:
    80005e78:	1a912823          	sw	s1,432(sp)

0000000080005e7c <i_5812>:
    80005e7c:	dd564993          	xori	s3,a2,-555

0000000080005e80 <i_5813>:
    80005e80:	0d810683          	lb	a3,216(sp)

0000000080005e84 <i_5814>:
    80005e84:	02eb1463          	bne	s6,a4,80005eac <i_5824>

0000000080005e88 <i_5815>:
    80005e88:	12013683          	ld	a3,288(sp)

0000000080005e8c <i_5816>:
    80005e8c:	02859263          	bne	a1,s0,80005eb0 <i_5825>

0000000080005e90 <i_5817>:
    80005e90:	0ec12603          	lw	a2,236(sp)

0000000080005e94 <i_5818>:
    80005e94:	00800313          	li	t1,8

0000000080005e98 <i_5819>:
    80005e98:	4066dbb3          	sra	s7,a3,t1

0000000080005e9c <i_5820>:
    80005e9c:	184102a3          	sb	tp,389(sp)

0000000080005ea0 <i_5821>:
    80005ea0:	1cd10823          	sb	a3,464(sp)

0000000080005ea4 <i_5822>:
    80005ea4:	02cba6b3          	mulhsu	a3,s7,a2

0000000080005ea8 <i_5823>:
    80005ea8:	37568213          	addi	tp,a3,885

0000000080005eac <i_5824>:
    80005eac:	00000013          	nop

0000000080005eb0 <i_5825>:
    80005eb0:	02849333          	mulh	t1,s1,s0

0000000080005eb4 <i_5826>:
    80005eb4:	1a8102a3          	sb	s0,421(sp)

0000000080005eb8 <i_5827>:
    80005eb8:	79e00413          	li	s0,1950

0000000080005ebc <i_5828>:
    80005ebc:	7a400493          	li	s1,1956

0000000080005ec0 <i_5829>:
    80005ec0:	0034d21b          	srliw	tp,s1,0x3

0000000080005ec4 <i_5830>:
    80005ec4:	01f00613          	li	a2,31

0000000080005ec8 <i_5831>:
    80005ec8:	00c6563b          	srlw	a2,a2,a2

0000000080005ecc <i_5832>:
    80005ecc:	00c67863          	bleu	a2,a2,80005edc <i_5836>

0000000080005ed0 <i_5833>:
    80005ed0:	190101a3          	sb	a6,387(sp)

0000000080005ed4 <i_5834>:
    80005ed4:	00800613          	li	a2,8

0000000080005ed8 <i_5835>:
    80005ed8:	40c2563b          	sraw	a2,tp,a2

0000000080005edc <i_5836>:
    80005edc:	024679bb          	remuw	s3,a2,tp

0000000080005ee0 <i_5837>:
    80005ee0:	015b2333          	slt	t1,s6,s5

0000000080005ee4 <i_5838>:
    80005ee4:	00000013          	nop

0000000080005ee8 <i_5839>:
    80005ee8:	00000013          	nop

0000000080005eec <i_5840>:
    80005eec:	c3260d13          	addi	s10,a2,-974

0000000080005ef0 <i_5841>:
    80005ef0:	07c32593          	slti	a1,t1,124

0000000080005ef4 <i_5842>:
    80005ef4:	00140413          	addi	s0,s0,1
    80005ef8:	fc84d4e3          	ble	s0,s1,80005ec0 <i_5829>

0000000080005efc <i_5843>:
    80005efc:	1b015d03          	lhu	s10,432(sp)

0000000080005f00 <i_5844>:
    80005f00:	16816303          	lwu	t1,360(sp)

0000000080005f04 <i_5845>:
    80005f04:	84100213          	li	tp,-1983

0000000080005f08 <i_5846>:
    80005f08:	84900613          	li	a2,-1975

0000000080005f0c <i_5847>:
    80005f0c:	02c62333          	mulhsu	t1,a2,a2

0000000080005f10 <i_5848>:
    80005f10:	f2215f03          	lhu	t5,-222(sp)

0000000080005f14 <i_5849>:
    80005f14:	ec510f23          	sb	t0,-290(sp)

0000000080005f18 <i_5850>:
    80005f18:	01af0663          	beq	t5,s10,80005f24 <i_5853>

0000000080005f1c <i_5851>:
    80005f1c:	f4e14a03          	lbu	s4,-178(sp)

0000000080005f20 <i_5852>:
    80005f20:	00000013          	nop

0000000080005f24 <i_5853>:
    80005f24:	06612423          	sw	t1,104(sp)

0000000080005f28 <i_5854>:
    80005f28:	ee611023          	sh	t1,-288(sp)

0000000080005f2c <i_5855>:
    80005f2c:	e9410423          	sb	s4,-376(sp)

0000000080005f30 <i_5856>:
    80005f30:	034d51b3          	divu	gp,s10,s4

0000000080005f34 <i_5857>:
    80005f34:	15514a03          	lbu	s4,341(sp)

0000000080005f38 <i_5858>:
    80005f38:	02389e33          	mulh	t3,a7,gp

0000000080005f3c <i_5859>:
    80005f3c:	00120213          	addi	tp,tp,1 # 1 <main-0x7fffffff>
    80005f40:	fcc216e3          	bne	tp,a2,80005f0c <i_5847>

0000000080005f44 <i_5860>:
    80005f44:	001a4e63          	blt	s4,ra,80005f60 <i_5867>

0000000080005f48 <i_5861>:
    80005f48:	023a6063          	bltu	s4,gp,80005f68 <i_5869>

0000000080005f4c <i_5862>:
    80005f4c:	0011f0b3          	and	ra,gp,ra

0000000080005f50 <i_5863>:
    80005f50:	03500093          	li	ra,53

0000000080005f54 <i_5864>:
    80005f54:	0010d533          	srl	a0,ra,ra

0000000080005f58 <i_5865>:
    80005f58:	14416483          	lwu	s1,324(sp)

0000000080005f5c <i_5866>:
    80005f5c:	008cc433          	xor	s0,s9,s0

0000000080005f60 <i_5867>:
    80005f60:	0de15503          	lhu	a0,222(sp)

0000000080005f64 <i_5868>:
    80005f64:	f5412a23          	sw	s4,-172(sp)

0000000080005f68 <i_5869>:
    80005f68:	f2c12823          	sw	a2,-208(sp)

0000000080005f6c <i_5870>:
    80005f6c:	eca13023          	sd	a0,-320(sp)

0000000080005f70 <i_5871>:
    80005f70:	12511923          	sh	t0,306(sp)

0000000080005f74 <i_5872>:
    80005f74:	fec12e83          	lw	t4,-20(sp)

0000000080005f78 <i_5873>:
    80005f78:	00a506b3          	add	a3,a0,a0

0000000080005f7c <i_5874>:
    80005f7c:	1b813283          	ld	t0,440(sp)

0000000080005f80 <i_5875>:
    80005f80:	80400513          	li	a0,-2044

0000000080005f84 <i_5876>:
    80005f84:	81400f13          	li	t5,-2028

0000000080005f88 <i_5877>:
    80005f88:	00d2cc63          	blt	t0,a3,80005fa0 <i_5883>

0000000080005f8c <i_5878>:
    80005f8c:	028f06b3          	mul	a3,t5,s0

0000000080005f90 <i_5879>:
    80005f90:	04d13c23          	sd	a3,88(sp)

0000000080005f94 <i_5880>:
    80005f94:	00d6e863          	bltu	a3,a3,80005fa4 <i_5884>

0000000080005f98 <i_5881>:
    80005f98:	03bf5bb3          	divu	s7,t5,s11

0000000080005f9c <i_5882>:
    80005f9c:	fc512c23          	sw	t0,-40(sp)

0000000080005fa0 <i_5883>:
    80005fa0:	806f6613          	ori	a2,t5,-2042

0000000080005fa4 <i_5884>:
    80005fa4:	e9c14603          	lbu	a2,-356(sp)

0000000080005fa8 <i_5885>:
    80005fa8:	e9910d83          	lb	s11,-359(sp)

0000000080005fac <i_5886>:
    80005fac:	00150513          	addi	a0,a0,1
    80005fb0:	fcaf7ce3          	bleu	a0,t5,80005f88 <i_5877>

0000000080005fb4 <i_5887>:
    80005fb4:	006282b3          	add	t0,t0,t1

0000000080005fb8 <i_5888>:
    80005fb8:	f2910283          	lb	t0,-215(sp)

0000000080005fbc <i_5889>:
    80005fbc:	79400313          	li	t1,1940

0000000080005fc0 <i_5890>:
    80005fc0:	79800b93          	li	s7,1944

0000000080005fc4 <i_5891>:
    80005fc4:	01d30263          	beq	t1,t4,80005fc8 <i_5892>

0000000080005fc8 <i_5892>:
    80005fc8:	026b9263          	bne	s7,t1,80005fec <i_5900>

0000000080005fcc <i_5893>:
    80005fcc:	e8015d03          	lhu	s10,-384(sp)

0000000080005fd0 <i_5894>:
    80005fd0:	02e801b3          	mul	gp,a6,a4

0000000080005fd4 <i_5895>:
    80005fd4:	00900813          	li	a6,9

0000000080005fd8 <i_5896>:
    80005fd8:	01031833          	sll	a6,t1,a6

0000000080005fdc <i_5897>:
    80005fdc:	00130313          	addi	t1,t1,1
    80005fe0:	fe6bf2e3          	bleu	t1,s7,80005fc4 <i_5891>

0000000080005fe4 <i_5898>:
    80005fe4:	0101ce63          	blt	gp,a6,80006000 <i_5905>

0000000080005fe8 <i_5899>:
    80005fe8:	11012823          	sw	a6,272(sp)

0000000080005fec <i_5900>:
    80005fec:	1ba14c83          	lbu	s9,442(sp)

0000000080005ff0 <i_5901>:
    80005ff0:	030501bb          	mulw	gp,a0,a6

0000000080005ff4 <i_5902>:
    80005ff4:	07c16d83          	lwu	s11,124(sp)

0000000080005ff8 <i_5903>:
    80005ff8:	00000013          	nop

0000000080005ffc <i_5904>:
    80005ffc:	00000013          	nop

0000000080006000 <i_5905>:
    80006000:	07013183          	ld	gp,112(sp)

0000000080006004 <i_5906>:
    80006004:	00000013          	nop

0000000080006008 <i_5907>:
    80006008:	7d900b13          	li	s6,2009

000000008000600c <i_5908>:
    8000600c:	7ec00513          	li	a0,2028

0000000080006010 <i_5909>:
    80006010:	001b0b13          	addi	s6,s6,1
    80006014:	ff651ee3          	bne	a0,s6,80006010 <i_5909>

0000000080006018 <i_5910>:
    80006018:	02785263          	ble	t2,a6,8000603c <i_5919>

000000008000601c <i_5911>:
    8000601c:	02bddb33          	divu	s6,s11,a1

0000000080006020 <i_5912>:
    80006020:	02fdbcb3          	mulhu	s9,s11,a5

0000000080006024 <i_5913>:
    80006024:	00bd9463          	bne	s11,a1,8000602c <i_5915>

0000000080006028 <i_5914>:
    80006028:	410b4413          	xori	s0,s6,1040

000000008000602c <i_5915>:
    8000602c:	0d614783          	lbu	a5,214(sp)

0000000080006030 <i_5916>:
    80006030:	1c811623          	sh	s0,460(sp)

0000000080006034 <i_5917>:
    80006034:	01941c63          	bne	s0,s9,8000604c <i_5923>

0000000080006038 <i_5918>:
    80006038:	fd910583          	lb	a1,-39(sp)

000000008000603c <i_5919>:
    8000603c:	40f40b3b          	subw	s6,s0,a5

0000000080006040 <i_5920>:
    80006040:	0e813183          	ld	gp,232(sp)

0000000080006044 <i_5921>:
    80006044:	01b58db3          	add	s11,a1,s11

0000000080006048 <i_5922>:
    80006048:	0087c263          	blt	a5,s0,8000604c <i_5923>

000000008000604c <i_5923>:
    8000604c:	03d4053b          	mulw	a0,s0,t4

0000000080006050 <i_5924>:
    80006050:	0eb11d23          	sh	a1,250(sp)

0000000080006054 <i_5925>:
    80006054:	ecd12223          	sw	a3,-316(sp)

0000000080006058 <i_5926>:
    80006058:	03b577bb          	remuw	a5,a0,s11

000000008000605c <i_5927>:
    8000605c:	02a1f063          	bleu	a0,gp,8000607c <i_5935>

0000000080006060 <i_5928>:
    80006060:	018da4b3          	slt	s1,s11,s8

0000000080006064 <i_5929>:
    80006064:	09b12e23          	sw	s11,156(sp)

0000000080006068 <i_5930>:
    80006068:	038467b3          	rem	a5,s0,s8

000000008000606c <i_5931>:
    8000606c:	e2c16183          	lwu	gp,-468(sp)

0000000080006070 <i_5932>:
    80006070:	1bc16683          	lwu	a3,444(sp)

0000000080006074 <i_5933>:
    80006074:	e8016d83          	lwu	s11,-384(sp)

0000000080006078 <i_5934>:
    80006078:	02d13c23          	sd	a3,56(sp)

000000008000607c <i_5935>:
    8000607c:	03b6f263          	bleu	s11,a3,800060a0 <i_5944>

0000000080006080 <i_5936>:
    80006080:	e9416683          	lwu	a3,-364(sp)

0000000080006084 <i_5937>:
    80006084:	02ddf063          	bleu	a3,s11,800060a4 <i_5945>

0000000080006088 <i_5938>:
    80006088:	03b6d6b3          	divu	a3,a3,s11

000000008000608c <i_5939>:
    8000608c:	023df6bb          	remuw	a3,s11,gp

0000000080006090 <i_5940>:
    80006090:	03cdd263          	ble	t3,s11,800060b4 <i_5949>

0000000080006094 <i_5941>:
    80006094:	00d089b3          	add	s3,ra,a3

0000000080006098 <i_5942>:
    80006098:	0f311223          	sh	s3,228(sp)

000000008000609c <i_5943>:
    8000609c:	f1812403          	lw	s0,-232(sp)

00000000800060a0 <i_5944>:
    800060a0:	bb242993          	slti	s3,s0,-1102

00000000800060a4 <i_5945>:
    800060a4:	00000013          	nop

00000000800060a8 <i_5946>:
    800060a8:	0139be33          	sltu	t3,s3,s3

00000000800060ac <i_5947>:
    800060ac:	00000013          	nop

00000000800060b0 <i_5948>:
    800060b0:	fef13023          	sd	a5,-32(sp)

00000000800060b4 <i_5949>:
    800060b4:	00000013          	nop

00000000800060b8 <i_5950>:
    800060b8:	f6013e03          	ld	t3,-160(sp)

00000000800060bc <i_5951>:
    800060bc:	7c800793          	li	a5,1992

00000000800060c0 <i_5952>:
    800060c0:	7ca00993          	li	s3,1994

00000000800060c4 <i_5953>:
    800060c4:	02fe6663          	bltu	t3,a5,800060f0 <i_5963>

00000000800060c8 <i_5954>:
    800060c8:	01a83833          	sltu	a6,a6,s10

00000000800060cc <i_5955>:
    800060cc:	1b416e03          	lwu	t3,436(sp)

00000000800060d0 <i_5956>:
    800060d0:	de3a4417          	auipc	s0,0xde3a4

00000000800060d4 <i_5957>:
    800060d4:	00178793          	addi	a5,a5,1
    800060d8:	ff37c6e3          	blt	a5,s3,800060c4 <i_5953>

00000000800060dc <i_5958>:
    800060dc:	034e7263          	bleu	s4,t3,80006100 <i_5967>

00000000800060e0 <i_5959>:
    800060e0:	1c813d03          	ld	s10,456(sp)

00000000800060e4 <i_5960>:
    800060e4:	fbf13c23          	sd	t6,-72(sp)

00000000800060e8 <i_5961>:
    800060e8:	f2813683          	ld	a3,-216(sp)

00000000800060ec <i_5962>:
    800060ec:	03e85533          	divu	a0,a6,t5

00000000800060f0 <i_5963>:
    800060f0:	07012a23          	sw	a6,116(sp)

00000000800060f4 <i_5964>:
    800060f4:	03d00413          	li	s0,61

00000000800060f8 <i_5965>:
    800060f8:	408d54b3          	sra	s1,s10,s0

00000000800060fc <i_5966>:
    800060fc:	00400c93          	li	s9,4

0000000080006100 <i_5967>:
    80006100:	019859bb          	srlw	s3,a6,s9

0000000080006104 <i_5968>:
    80006104:	1c016d03          	lwu	s10,448(sp)

0000000080006108 <i_5969>:
    80006108:	033d033b          	mulw	t1,s10,s3

000000008000610c <i_5970>:
    8000610c:	07816d03          	lwu	s10,120(sp)

0000000080006110 <i_5971>:
    80006110:	10416503          	lwu	a0,260(sp)

0000000080006114 <i_5972>:
    80006114:	fda11983          	lh	s3,-38(sp)

0000000080006118 <i_5973>:
    80006118:	f4c16203          	lwu	tp,-180(sp)

000000008000611c <i_5974>:
    8000611c:	efe15d03          	lhu	s10,-258(sp)

0000000080006120 <i_5975>:
    80006120:	0045151b          	slliw	a0,a0,0x4

0000000080006124 <i_5976>:
    80006124:	7a600993          	li	s3,1958

0000000080006128 <i_5977>:
    80006128:	7b300793          	li	a5,1971

000000008000612c <i_5978>:
    8000612c:	00ad7463          	bleu	a0,s10,80006134 <i_5980>

0000000080006130 <i_5979>:
    80006130:	039a7cbb          	remuw	s9,s4,s9

0000000080006134 <i_5980>:
    80006134:	037afc3b          	remuw	s8,s5,s7

0000000080006138 <i_5981>:
    80006138:	038cc53b          	divw	a0,s9,s8

000000008000613c <i_5982>:
    8000613c:	81800593          	li	a1,-2024

0000000080006140 <i_5983>:
    80006140:	82800c93          	li	s9,-2008

0000000080006144 <i_5984>:
    80006144:	fe811b83          	lh	s7,-24(sp)

0000000080006148 <i_5985>:
    80006148:	403cdc13          	srai	s8,s9,0x3

000000008000614c <i_5986>:
    8000614c:	00158593          	addi	a1,a1,1
    80006150:	ff95eae3          	bltu	a1,s9,80006144 <i_5984>

0000000080006154 <i_5987>:
    80006154:	03812283          	lw	t0,56(sp)

0000000080006158 <i_5988>:
    80006158:	00198993          	addi	s3,s3,1
    8000615c:	fcf9e8e3          	bltu	s3,a5,8000612c <i_5978>

0000000080006160 <i_5989>:
    80006160:	00000013          	nop

0000000080006164 <i_5990>:
    80006164:	eaa14283          	lbu	t0,-342(sp)

0000000080006168 <i_5991>:
    80006168:	003d1c9b          	slliw	s9,s10,0x3

000000008000616c <i_5992>:
    8000616c:	402b559b          	sraiw	a1,s6,0x2

0000000080006170 <i_5993>:
    80006170:	00813d03          	ld	s10,8(sp)

0000000080006174 <i_5994>:
    80006174:	01416283          	lwu	t0,20(sp)

0000000080006178 <i_5995>:
    80006178:	03cd0e3b          	mulw	t3,s10,t3

000000008000617c <i_5996>:
    8000617c:	0a813c83          	ld	s9,168(sp)

0000000080006180 <i_5997>:
    80006180:	88a00413          	li	s0,-1910

0000000080006184 <i_5998>:
    80006184:	89d00a13          	li	s4,-1891

0000000080006188 <i_5999>:
    80006188:	fd912623          	sw	s9,-52(sp)

000000008000618c <i_6000>:
    8000618c:	f4714203          	lbu	tp,-185(sp)

0000000080006190 <i_6001>:
    80006190:	f4512e23          	sw	t0,-164(sp)

0000000080006194 <i_6002>:
    80006194:	09b13023          	sd	s11,128(sp)

0000000080006198 <i_6003>:
    80006198:	0f912423          	sw	s9,232(sp)

000000008000619c <i_6004>:
    8000619c:	18a11d83          	lh	s11,394(sp)

00000000800061a0 <i_6005>:
    800061a0:	0c614a83          	lbu	s5,198(sp)

00000000800061a4 <i_6006>:
    800061a4:	00140413          	addi	s0,s0,1 # 5e3aa0d1 <main-0x21c55f2f>
    800061a8:	ff4460e3          	bltu	s0,s4,80006188 <i_5999>

00000000800061ac <i_6007>:
    800061ac:	14816983          	lwu	s3,328(sp)

00000000800061b0 <i_6008>:
    800061b0:	001d5263          	ble	ra,s10,800061b4 <i_6009>

00000000800061b4 <i_6009>:
    800061b4:	03ed7263          	bleu	t5,s10,800061d8 <i_6018>

00000000800061b8 <i_6010>:
    800061b8:	02dd4063          	blt	s10,a3,800061d8 <i_6018>

00000000800061bc <i_6011>:
    800061bc:	03f1c263          	blt	gp,t6,800061e0 <i_6020>

00000000800061c0 <i_6012>:
    800061c0:	1bb13423          	sd	s11,424(sp)

00000000800061c4 <i_6013>:
    800061c4:	83daf193          	andi	gp,s5,-1987

00000000800061c8 <i_6014>:
    800061c8:	f7414d83          	lbu	s11,-140(sp)

00000000800061cc <i_6015>:
    800061cc:	19c105a3          	sb	t3,395(sp)

00000000800061d0 <i_6016>:
    800061d0:	01b81463          	bne	a6,s11,800061d8 <i_6018>

00000000800061d4 <i_6017>:
    800061d4:	ffb11b23          	sh	s11,-10(sp)

00000000800061d8 <i_6018>:
    800061d8:	1bf10283          	lb	t0,447(sp)

00000000800061dc <i_6019>:
    800061dc:	01b9edb3          	or	s11,s3,s11

00000000800061e0 <i_6020>:
    800061e0:	01bb5863          	ble	s11,s6,800061f0 <i_6024>

00000000800061e4 <i_6021>:
    800061e4:	c9f303b7          	lui	t2,0xc9f30

00000000800061e8 <i_6022>:
    800061e8:	fb215303          	lhu	t1,-78(sp)

00000000800061ec <i_6023>:
    800061ec:	e2412383          	lw	t2,-476(sp)

00000000800061f0 <i_6024>:
    800061f0:	13c11403          	lh	s0,316(sp)

00000000800061f4 <i_6025>:
    800061f4:	e5013303          	ld	t1,-432(sp)

00000000800061f8 <i_6026>:
    800061f8:	403b539b          	sraiw	t2,s6,0x3

00000000800061fc <i_6027>:
    800061fc:	407403bb          	subw	t2,s0,t2

0000000080006200 <i_6028>:
    80006200:	87800313          	li	t1,-1928

0000000080006204 <i_6029>:
    80006204:	87e00b13          	li	s6,-1922

0000000080006208 <i_6030>:
    80006208:	02634663          	blt	t1,t1,80006234 <i_6040>

000000008000620c <i_6031>:
    8000620c:	02e30433          	mul	s0,t1,a4

0000000080006210 <i_6032>:
    80006210:	02f437b3          	mulhu	a5,s0,a5

0000000080006214 <i_6033>:
    80006214:	fec16403          	lwu	s0,-20(sp)

0000000080006218 <i_6034>:
    80006218:	00130313          	addi	t1,t1,1
    8000621c:	fe6b56e3          	ble	t1,s6,80006208 <i_6030>

0000000080006220 <i_6035>:
    80006220:	026342b3          	div	t0,t1,t1

0000000080006224 <i_6036>:
    80006224:	04c12783          	lw	a5,76(sp)

0000000080006228 <i_6037>:
    80006228:	1de11d83          	lh	s11,478(sp)

000000008000622c <i_6038>:
    8000622c:	12f11723          	sh	a5,302(sp)

0000000080006230 <i_6039>:
    80006230:	00710823          	sb	t2,16(sp)

0000000080006234 <i_6040>:
    80006234:	e6416a03          	lwu	s4,-412(sp)

0000000080006238 <i_6041>:
    80006238:	f0010603          	lb	a2,-256(sp)

000000008000623c <i_6042>:
    8000623c:	1cc12a23          	sw	a2,468(sp)

0000000080006240 <i_6043>:
    80006240:	4c338d93          	addi	s11,t2,1219 # ffffffffc9f304c3 <_end+0xffffffff49f200af>

0000000080006244 <i_6044>:
    80006244:	ed013503          	ld	a0,-304(sp)

0000000080006248 <i_6045>:
    80006248:	00200a13          	li	s4,2

000000008000624c <i_6046>:
    8000624c:	014794bb          	sllw	s1,a5,s4

0000000080006250 <i_6047>:
    80006250:	18e15783          	lhu	a5,398(sp)

0000000080006254 <i_6048>:
    80006254:	00fa0263          	beq	s4,a5,80006258 <i_6049>

0000000080006258 <i_6049>:
    80006258:	02fa0463          	beq	s4,a5,80006280 <i_6059>

000000008000625c <i_6050>:
    8000625c:	e6f10523          	sb	a5,-406(sp)

0000000080006260 <i_6051>:
    80006260:	faa15783          	lhu	a5,-86(sp)

0000000080006264 <i_6052>:
    80006264:	10015783          	lhu	a5,256(sp)

0000000080006268 <i_6053>:
    80006268:	0b015203          	lhu	tp,176(sp)

000000008000626c <i_6054>:
    8000626c:	ecb10783          	lb	a5,-309(sp)

0000000080006270 <i_6055>:
    80006270:	02f7e433          	rem	s0,a5,a5

0000000080006274 <i_6056>:
    80006274:	02f7f83b          	remuw	a6,a5,a5

0000000080006278 <i_6057>:
    80006278:	40d7823b          	subw	tp,a5,a3

000000008000627c <i_6058>:
    8000627c:	16411023          	sh	tp,352(sp)

0000000080006280 <i_6059>:
    80006280:	1b013783          	ld	a5,432(sp)

0000000080006284 <i_6060>:
    80006284:	0087ee63          	bltu	a5,s0,800062a0 <i_6067>

0000000080006288 <i_6061>:
    80006288:	02f7e7bb          	remw	a5,a5,a5

000000008000628c <i_6062>:
    8000628c:	00481b9b          	slliw	s7,a6,0x4

0000000080006290 <i_6063>:
    80006290:	02f79063          	bne	a5,a5,800062b0 <i_6071>

0000000080006294 <i_6064>:
    80006294:	fa411d03          	lh	s10,-92(sp)

0000000080006298 <i_6065>:
    80006298:	00f79463          	bne	a5,a5,800062a0 <i_6067>

000000008000629c <i_6066>:
    8000629c:	023b8463          	beq	s7,gp,800062c4 <i_6076>

00000000800062a0 <i_6067>:
    800062a0:	01b87a63          	bleu	s11,a6,800062b4 <i_6072>

00000000800062a4 <i_6068>:
    800062a4:	01762bb3          	slt	s7,a2,s7

00000000800062a8 <i_6069>:
    800062a8:	0f015b83          	lhu	s7,240(sp)

00000000800062ac <i_6070>:
    800062ac:	00410603          	lb	a2,4(sp)

00000000800062b0 <i_6071>:
    800062b0:	1e414b83          	lbu	s7,484(sp)

00000000800062b4 <i_6072>:
    800062b4:	14114b83          	lbu	s7,321(sp)

00000000800062b8 <i_6073>:
    800062b8:	037b8263          	beq	s7,s7,800062dc <i_6082>

00000000800062bc <i_6074>:
    800062bc:	0f712423          	sw	s7,232(sp)

00000000800062c0 <i_6075>:
    800062c0:	01721663          	bne	tp,s7,800062cc <i_6078>

00000000800062c4 <i_6076>:
    800062c4:	0ba11503          	lh	a0,186(sp)

00000000800062c8 <i_6077>:
    800062c8:	1d110e03          	lb	t3,465(sp)

00000000800062cc <i_6078>:
    800062cc:	03712c23          	sw	s7,56(sp)

00000000800062d0 <i_6079>:
    800062d0:	00000013          	nop

00000000800062d4 <i_6080>:
    800062d4:	0373533b          	divuw	t1,t1,s7

00000000800062d8 <i_6081>:
    800062d8:	00000013          	nop

00000000800062dc <i_6082>:
    800062dc:	00331d13          	slli	s10,t1,0x3

00000000800062e0 <i_6083>:
    800062e0:	f6610c23          	sb	t1,-136(sp)

00000000800062e4 <i_6084>:
    800062e4:	8a900993          	li	s3,-1879

00000000800062e8 <i_6085>:
    800062e8:	8ad00b93          	li	s7,-1875

00000000800062ec <i_6086>:
    800062ec:	026e7f33          	remu	t5,t3,t1

00000000800062f0 <i_6087>:
    800062f0:	e6114803          	lbu	a6,-415(sp)

00000000800062f4 <i_6088>:
    800062f4:	4cdbab13          	slti	s6,s7,1229

00000000800062f8 <i_6089>:
    800062f8:	00000013          	nop

00000000800062fc <i_6090>:
    800062fc:	03097d33          	remu	s10,s2,a6

0000000080006300 <i_6091>:
    80006300:	03e0e263          	bltu	ra,t5,80006324 <i_6099>

0000000080006304 <i_6092>:
    80006304:	003b181b          	slliw	a6,s6,0x3

0000000080006308 <i_6093>:
    80006308:	00000013          	nop

000000008000630c <i_6094>:
    8000630c:	03086063          	bltu	a6,a6,8000632c <i_6101>

0000000080006310 <i_6095>:
    80006310:	00198993          	addi	s3,s3,1
    80006314:	fd3bdce3          	ble	s3,s7,800062ec <i_6086>

0000000080006318 <i_6096>:
    80006318:	06411223          	sh	tp,100(sp)

000000008000631c <i_6097>:
    8000631c:	08c12b03          	lw	s6,140(sp)

0000000080006320 <i_6098>:
    80006320:	18512423          	sw	t0,392(sp)

0000000080006324 <i_6099>:
    80006324:	03cd3d33          	mulhu	s10,s10,t3

0000000080006328 <i_6100>:
    80006328:	2e5d2813          	slti	a6,s10,741

000000008000632c <i_6101>:
    8000632c:	0d812d03          	lw	s10,216(sp)

0000000080006330 <i_6102>:
    80006330:	03ad07b3          	mul	a5,s10,s10

0000000080006334 <i_6103>:
    80006334:	8b800b13          	li	s6,-1864

0000000080006338 <i_6104>:
    80006338:	8bc00193          	li	gp,-1860

000000008000633c <i_6105>:
    8000633c:	01a7d463          	ble	s10,a5,80006344 <i_6107>

0000000080006340 <i_6106>:
    80006340:	11a10123          	sb	s10,258(sp)

0000000080006344 <i_6107>:
    80006344:	00419c93          	slli	s9,gp,0x4

0000000080006348 <i_6108>:
    80006348:	028cd3bb          	divuw	t2,s9,s0

000000008000634c <i_6109>:
    8000634c:	ee812403          	lw	s0,-280(sp)

0000000080006350 <i_6110>:
    80006350:	00747663          	bleu	t2,s0,8000635c <i_6113>

0000000080006354 <i_6111>:
    80006354:	00840d33          	add	s10,s0,s0

0000000080006358 <i_6112>:
    80006358:	16811c23          	sh	s0,376(sp)

000000008000635c <i_6113>:
    8000635c:	00c00413          	li	s0,12

0000000080006360 <i_6114>:
    80006360:	0084543b          	srlw	s0,s0,s0

0000000080006364 <i_6115>:
    80006364:	e2211203          	lh	tp,-478(sp)

0000000080006368 <i_6116>:
    80006368:	1a811423          	sh	s0,424(sp)

000000008000636c <i_6117>:
    8000636c:	001b0b13          	addi	s6,s6,1
    80006370:	fc3b16e3          	bne	s6,gp,8000633c <i_6105>

0000000080006374 <i_6118>:
    80006374:	e8010803          	lb	a6,-384(sp)

0000000080006378 <i_6119>:
    80006378:	04812c23          	sw	s0,88(sp)

000000008000637c <i_6120>:
    8000637c:	00700413          	li	s0,7

0000000080006380 <i_6121>:
    80006380:	008999bb          	sllw	s3,s3,s0

0000000080006384 <i_6122>:
    80006384:	01800413          	li	s0,24

0000000080006388 <i_6123>:
    80006388:	008d5dbb          	srlw	s11,s10,s0

000000008000638c <i_6124>:
    8000638c:	00e9d863          	ble	a4,s3,8000639c <i_6128>

0000000080006390 <i_6125>:
    80006390:	fc811403          	lh	s0,-56(sp)

0000000080006394 <i_6126>:
    80006394:	2fcded93          	ori	s11,s11,764

0000000080006398 <i_6127>:
    80006398:	f0611c03          	lh	s8,-250(sp)

000000008000639c <i_6128>:
    8000639c:	013c6c33          	or	s8,s8,s3

00000000800063a0 <i_6129>:
    800063a0:	03085f33          	divu	t5,a6,a6

00000000800063a4 <i_6130>:
    800063a4:	e3c12983          	lw	s3,-452(sp)

00000000800063a8 <i_6131>:
    800063a8:	018fc663          	blt	t6,s8,800063b4 <i_6134>

00000000800063ac <i_6132>:
    800063ac:	03bedf33          	divu	t5,t4,s11

00000000800063b0 <i_6133>:
    800063b0:	f7914403          	lbu	s0,-135(sp)

00000000800063b4 <i_6134>:
    800063b4:	f9411a03          	lh	s4,-108(sp)

00000000800063b8 <i_6135>:
    800063b8:	0fd12823          	sw	t4,240(sp)

00000000800063bc <i_6136>:
    800063bc:	0389c463          	blt	s3,s8,800063e4 <i_6146>

00000000800063c0 <i_6137>:
    800063c0:	41ea8bb3          	sub	s7,s5,t5

00000000800063c4 <i_6138>:
    800063c4:	fa412083          	lw	ra,-92(sp)

00000000800063c8 <i_6139>:
    800063c8:	0171a9b3          	slt	s3,gp,s7

00000000800063cc <i_6140>:
    800063cc:	02911d23          	sh	s1,58(sp)

00000000800063d0 <i_6141>:
    800063d0:	0a010403          	lb	s0,160(sp)

00000000800063d4 <i_6142>:
    800063d4:	00900a13          	li	s4,9

00000000800063d8 <i_6143>:
    800063d8:	014d1ebb          	sllw	t4,s10,s4

00000000800063dc <i_6144>:
    800063dc:	90642a13          	slti	s4,s0,-1786

00000000800063e0 <i_6145>:
    800063e0:	007ed463          	ble	t2,t4,800063e8 <i_6147>

00000000800063e4 <i_6146>:
    800063e4:	01c00393          	li	t2,28

00000000800063e8 <i_6147>:
    800063e8:	007a53b3          	srl	t2,s4,t2

00000000800063ec <i_6148>:
    800063ec:	0343cb33          	div	s6,t2,s4

00000000800063f0 <i_6149>:
    800063f0:	034a0263          	beq	s4,s4,80006414 <i_6158>

00000000800063f4 <i_6150>:
    800063f4:	028873b3          	remu	t2,a6,s0

00000000800063f8 <i_6151>:
    800063f8:	32ab7793          	andi	a5,s6,810

00000000800063fc <i_6152>:
    800063fc:	03411a23          	sh	s4,52(sp)

0000000080006400 <i_6153>:
    80006400:	01413023          	sd	s4,0(sp)

0000000080006404 <i_6154>:
    80006404:	1d016803          	lwu	a6,464(sp)

0000000080006408 <i_6155>:
    80006408:	04711523          	sh	t2,74(sp)

000000008000640c <i_6156>:
    8000640c:	014a4e63          	blt	s4,s4,80006428 <i_6163>

0000000080006410 <i_6157>:
    80006410:	02f86a33          	rem	s4,a6,a5

0000000080006414 <i_6158>:
    80006414:	010e7a63          	bleu	a6,t3,80006428 <i_6163>

0000000080006418 <i_6159>:
    80006418:	01600813          	li	a6,22

000000008000641c <i_6160>:
    8000641c:	4107d7b3          	sra	a5,a5,a6

0000000080006420 <i_6161>:
    80006420:	f8611e83          	lh	t4,-122(sp)

0000000080006424 <i_6162>:
    80006424:	003edf1b          	srliw	t5,t4,0x3

0000000080006428 <i_6163>:
    80006428:	e4813c03          	ld	s8,-440(sp)

000000008000642c <i_6164>:
    8000642c:	018f2eb3          	slt	t4,t5,s8

0000000080006430 <i_6165>:
    80006430:	f7813a03          	ld	s4,-136(sp)

0000000080006434 <i_6166>:
    80006434:	e5c16a03          	lwu	s4,-420(sp)

0000000080006438 <i_6167>:
    80006438:	15e11f03          	lh	t5,350(sp)

000000008000643c <i_6168>:
    8000643c:	1c614c03          	lbu	s8,454(sp)

0000000080006440 <i_6169>:
    80006440:	ed813023          	sd	s8,-320(sp)

0000000080006444 <i_6170>:
    80006444:	03da5a33          	divu	s4,s4,t4

0000000080006448 <i_6171>:
    80006448:	038b6263          	bltu	s6,s8,8000646c <i_6180>

000000008000644c <i_6172>:
    8000644c:	034a3eb3          	mulhu	t4,s4,s4

0000000080006450 <i_6173>:
    80006450:	01dc5263          	ble	t4,s8,80006454 <i_6174>

0000000080006454 <i_6174>:
    80006454:	0c813f03          	ld	t5,200(sp)

0000000080006458 <i_6175>:
    80006458:	b8ff0c13          	addi	s8,t5,-1137

000000008000645c <i_6176>:
    8000645c:	b61a2293          	slti	t0,s4,-1183

0000000080006460 <i_6177>:
    80006460:	002a529b          	srliw	t0,s4,0x2

0000000080006464 <i_6178>:
    80006464:	9d1eee93          	ori	t4,t4,-1583

0000000080006468 <i_6179>:
    80006468:	e9015a83          	lhu	s5,-368(sp)

000000008000646c <i_6180>:
    8000646c:	03e87463          	bleu	t5,a6,80006494 <i_6190>

0000000080006470 <i_6181>:
    80006470:	f6b12023          	sw	a1,-160(sp)

0000000080006474 <i_6182>:
    80006474:	015a8a33          	add	s4,s5,s5

0000000080006478 <i_6183>:
    80006478:	fa511f23          	sh	t0,-66(sp)

000000008000647c <i_6184>:
    8000647c:	035ae463          	bltu	s5,s5,800064a4 <i_6194>

0000000080006480 <i_6185>:
    80006480:	02f13823          	sd	a5,48(sp)

0000000080006484 <i_6186>:
    80006484:	003b7ab3          	and	s5,s6,gp

0000000080006488 <i_6187>:
    80006488:	11e11a83          	lh	s5,286(sp)

000000008000648c <i_6188>:
    8000648c:	12a12823          	sw	a0,304(sp)

0000000080006490 <i_6189>:
    80006490:	035af2bb          	remuw	t0,s5,s5

0000000080006494 <i_6190>:
    80006494:	11816283          	lwu	t0,280(sp)

0000000080006498 <i_6191>:
    80006498:	f4a101a3          	sb	a0,-189(sp)

000000008000649c <i_6192>:
    8000649c:	00800593          	li	a1,8

00000000800064a0 <i_6193>:
    800064a0:	00ba56b3          	srl	a3,s4,a1

00000000800064a4 <i_6194>:
    800064a4:	1aa13423          	sd	a0,424(sp)

00000000800064a8 <i_6195>:
    800064a8:	00000013          	nop

00000000800064ac <i_6196>:
    800064ac:	85200793          	li	a5,-1966

00000000800064b0 <i_6197>:
    800064b0:	86000613          	li	a2,-1952

00000000800064b4 <i_6198>:
    800064b4:	e2813503          	ld	a0,-472(sp)

00000000800064b8 <i_6199>:
    800064b8:	ea816b83          	lwu	s7,-344(sp)

00000000800064bc <i_6200>:
    800064bc:	00178793          	addi	a5,a5,1
    800064c0:	fec79ae3          	bne	a5,a2,800064b4 <i_6198>

00000000800064c4 <i_6201>:
    800064c4:	03529263          	bne	t0,s5,800064e8 <i_6210>

00000000800064c8 <i_6202>:
    800064c8:	005a8463          	beq	s5,t0,800064d0 <i_6204>

00000000800064cc <i_6203>:
    800064cc:	01f11f23          	sh	t6,30(sp)

00000000800064d0 <i_6204>:
    800064d0:	e8d12e23          	sw	a3,-356(sp)

00000000800064d4 <i_6205>:
    800064d4:	14b13423          	sd	a1,328(sp)

00000000800064d8 <i_6206>:
    800064d8:	00000013          	nop

00000000800064dc <i_6207>:
    800064dc:	0356e5bb          	remw	a1,a3,s5

00000000800064e0 <i_6208>:
    800064e0:	f0d11823          	sh	a3,-240(sp)

00000000800064e4 <i_6209>:
    800064e4:	f6c10ea3          	sb	a2,-131(sp)

00000000800064e8 <i_6210>:
    800064e8:	f1513023          	sd	s5,-256(sp)

00000000800064ec <i_6211>:
    800064ec:	03013983          	ld	s3,48(sp)

00000000800064f0 <i_6212>:
    800064f0:	79c00a93          	li	s5,1948

00000000800064f4 <i_6213>:
    800064f4:	7a300693          	li	a3,1955

00000000800064f8 <i_6214>:
    800064f8:	01374263          	blt	a4,s3,800064fc <i_6215>

00000000800064fc <i_6215>:
    800064fc:	4019d193          	srai	gp,s3,0x1

0000000080006500 <i_6216>:
    80006500:	f6211e83          	lh	t4,-158(sp)

0000000080006504 <i_6217>:
    80006504:	02d68f3b          	mulw	t5,a3,a3

0000000080006508 <i_6218>:
    80006508:	00299f13          	slli	t5,s3,0x2

000000008000650c <i_6219>:
    8000650c:	94b9bc13          	sltiu	s8,s3,-1717

0000000080006510 <i_6220>:
    80006510:	001a8a93          	addi	s5,s5,1 # 633594e5 <main-0x1cca6b1b>
    80006514:	fedac2e3          	blt	s5,a3,800064f8 <i_6214>

0000000080006518 <i_6221>:
    80006518:	0185de63          	ble	s8,a1,80006534 <i_6228>

000000008000651c <i_6222>:
    8000651c:	035a9f33          	mulh	t5,s5,s5

0000000080006520 <i_6223>:
    80006520:	fb016283          	lwu	t0,-80(sp)

0000000080006524 <i_6224>:
    80006524:	7d86f993          	andi	s3,a3,2008

0000000080006528 <i_6225>:
    80006528:	10d10823          	sb	a3,272(sp)

000000008000652c <i_6226>:
    8000652c:	fd95ca13          	xori	s4,a1,-39

0000000080006530 <i_6227>:
    80006530:	03d6833b          	mulw	t1,a3,t4

0000000080006534 <i_6228>:
    80006534:	0026969b          	slliw	a3,a3,0x2

0000000080006538 <i_6229>:
    80006538:	0ec12e83          	lw	t4,236(sp)

000000008000653c <i_6230>:
    8000653c:	0d413823          	sd	s4,208(sp)

0000000080006540 <i_6231>:
    80006540:	407c8cb3          	sub	s9,s9,t2

0000000080006544 <i_6232>:
    80006544:	019c9463          	bne	s9,s9,8000654c <i_6234>

0000000080006548 <i_6233>:
    80006548:	01e00693          	li	a3,30

000000008000654c <i_6234>:
    8000654c:	00d81233          	sll	tp,a6,a3

0000000080006550 <i_6235>:
    80006550:	018c8c63          	beq	s9,s8,80006568 <i_6241>

0000000080006554 <i_6236>:
    80006554:	1f510223          	sb	s5,484(sp)

0000000080006558 <i_6237>:
    80006558:	00d13823          	sd	a3,16(sp)

000000008000655c <i_6238>:
    8000655c:	0a611d23          	sh	t1,186(sp)

0000000080006560 <i_6239>:
    80006560:	00b10283          	lb	t0,11(sp)

0000000080006564 <i_6240>:
    80006564:	00000013          	nop

0000000080006568 <i_6241>:
    80006568:	03927833          	remu	a6,tp,s9

000000008000656c <i_6242>:
    8000656c:	f5911523          	sh	s9,-182(sp)

0000000080006570 <i_6243>:
    80006570:	83300c13          	li	s8,-1997

0000000080006574 <i_6244>:
    80006574:	83f00a93          	li	s5,-1985

0000000080006578 <i_6245>:
    80006578:	0142c263          	blt	t0,s4,8000657c <i_6246>

000000008000657c <i_6246>:
    8000657c:	005ae863          	bltu	s5,t0,8000658c <i_6250>

0000000080006580 <i_6247>:
    80006580:	024c17b3          	mulh	a5,s8,tp

0000000080006584 <i_6248>:
    80006584:	02dac3b3          	div	t2,s5,a3

0000000080006588 <i_6249>:
    80006588:	0016d29b          	srliw	t0,a3,0x1

000000008000658c <i_6250>:
    8000658c:	0253b0b3          	mulhu	ra,t2,t0

0000000080006590 <i_6251>:
    80006590:	15013023          	sd	a6,320(sp)

0000000080006594 <i_6252>:
    80006594:	8c500693          	li	a3,-1851

0000000080006598 <i_6253>:
    80006598:	8d000c93          	li	s9,-1840

000000008000659c <i_6254>:
    8000659c:	00000013          	nop

00000000800065a0 <i_6255>:
    800065a0:	fc215783          	lhu	a5,-62(sp)

00000000800065a4 <i_6256>:
    800065a4:	00168693          	addi	a3,a3,1
    800065a8:	ff96cae3          	blt	a3,s9,8000659c <i_6254>

00000000800065ac <i_6257>:
    800065ac:	fab14803          	lbu	a6,-85(sp)

00000000800065b0 <i_6258>:
    800065b0:	001c0c13          	addi	s8,s8,1
    800065b4:	fd5c42e3          	blt	s8,s5,80006578 <i_6245>

00000000800065b8 <i_6259>:
    800065b8:	17e10183          	lb	gp,382(sp)

00000000800065bc <i_6260>:
    800065bc:	035081bb          	mulw	gp,ra,s5

00000000800065c0 <i_6261>:
    800065c0:	f7c12a83          	lw	s5,-132(sp)

00000000800065c4 <i_6262>:
    800065c4:	0028519b          	srliw	gp,a6,0x2

00000000800065c8 <i_6263>:
    800065c8:	fec10a83          	lb	s5,-20(sp)

00000000800065cc <i_6264>:
    800065cc:	015aaab3          	slt	s5,s5,s5

00000000800065d0 <i_6265>:
    800065d0:	06013803          	ld	a6,96(sp)

00000000800065d4 <i_6266>:
    800065d4:	026ae263          	bltu	s5,t1,800065f8 <i_6275>

00000000800065d8 <i_6267>:
    800065d8:	e7c12503          	lw	a0,-388(sp)

00000000800065dc <i_6268>:
    800065dc:	1cd10a23          	sb	a3,468(sp)

00000000800065e0 <i_6269>:
    800065e0:	e3016203          	lwu	tp,-464(sp)

00000000800065e4 <i_6270>:
    800065e4:	62152293          	slti	t0,a0,1569

00000000800065e8 <i_6271>:
    800065e8:	004173b3          	and	t2,sp,tp

00000000800065ec <i_6272>:
    800065ec:	12c16d03          	lwu	s10,300(sp)

00000000800065f0 <i_6273>:
    800065f0:	fdb14503          	lbu	a0,-37(sp)

00000000800065f4 <i_6274>:
    800065f4:	e1910803          	lb	a6,-487(sp)

00000000800065f8 <i_6275>:
    800065f8:	00000013          	nop

00000000800065fc <i_6276>:
    800065fc:	0b012803          	lw	a6,176(sp)

0000000080006600 <i_6277>:
    80006600:	80d00213          	li	tp,-2035

0000000080006604 <i_6278>:
    80006604:	81f00e93          	li	t4,-2017

0000000080006608 <i_6279>:
    80006608:	0025141b          	slliw	s0,a0,0x2

000000008000660c <i_6280>:
    8000660c:	00000013          	nop

0000000080006610 <i_6281>:
    80006610:	e5310503          	lb	a0,-429(sp)

0000000080006614 <i_6282>:
    80006614:	02354533          	div	a0,a0,gp

0000000080006618 <i_6283>:
    80006618:	0ea11f23          	sh	a0,254(sp)

000000008000661c <i_6284>:
    8000661c:	00ab4e63          	blt	s6,a0,80006638 <i_6290>

0000000080006620 <i_6285>:
    80006620:	10a13423          	sd	a0,264(sp)

0000000080006624 <i_6286>:
    80006624:	10714e03          	lbu	t3,263(sp)

0000000080006628 <i_6287>:
    80006628:	00120213          	addi	tp,tp,1 # 1 <main-0x7fffffff>
    8000662c:	fdd21ee3          	bne	tp,t4,80006608 <i_6279>

0000000080006630 <i_6288>:
    80006630:	d63e051b          	addiw	a0,t3,-669

0000000080006634 <i_6289>:
    80006634:	1a811823          	sh	s0,432(sp)

0000000080006638 <i_6290>:
    80006638:	e7e15203          	lhu	tp,-386(sp)

000000008000663c <i_6291>:
    8000663c:	17013c83          	ld	s9,368(sp)

0000000080006640 <i_6292>:
    80006640:	ec410ea3          	sb	tp,-291(sp)

0000000080006644 <i_6293>:
    80006644:	e8914283          	lbu	t0,-375(sp)

0000000080006648 <i_6294>:
    80006648:	01a00513          	li	a0,26

000000008000664c <i_6295>:
    8000664c:	00aede3b          	srlw	t3,t4,a0

0000000080006650 <i_6296>:
    80006650:	f0410ea3          	sb	tp,-227(sp)

0000000080006654 <i_6297>:
    80006654:	00525463          	ble	t0,tp,8000665c <i_6299>

0000000080006658 <i_6298>:
    80006658:	18710683          	lb	a3,391(sp)

000000008000665c <i_6299>:
    8000665c:	c9856493          	ori	s1,a0,-872

0000000080006660 <i_6300>:
    80006660:	f1211f03          	lh	t5,-238(sp)

0000000080006664 <i_6301>:
    80006664:	401e5e93          	srai	t4,t3,0x1

0000000080006668 <i_6302>:
    80006668:	02a41463          	bne	s0,a0,80006690 <i_6312>

000000008000666c <i_6303>:
    8000666c:	02714203          	lbu	tp,39(sp)

0000000080006670 <i_6304>:
    80006670:	ee811b83          	lh	s7,-280(sp)

0000000080006674 <i_6305>:
    80006674:	00c97e63          	bleu	a2,s2,80006690 <i_6312>

0000000080006678 <i_6306>:
    80006678:	03e6d063          	ble	t5,a3,80006698 <i_6314>

000000008000667c <i_6307>:
    8000667c:	021b9633          	mulh	a2,s7,ra

0000000080006680 <i_6308>:
    80006680:	03da9333          	mulh	t1,s5,t4

0000000080006684 <i_6309>:
    80006684:	00100c13          	li	s8,1

0000000080006688 <i_6310>:
    80006688:	418eddbb          	sraw	s11,t4,s8

000000008000668c <i_6311>:
    8000668c:	00300e93          	li	t4,3

0000000080006690 <i_6312>:
    80006690:	41dbd53b          	sraw	a0,s7,t4

0000000080006694 <i_6313>:
    80006694:	1dd13023          	sd	t4,448(sp)

0000000080006698 <i_6314>:
    80006698:	00000013          	nop

000000008000669c <i_6315>:
    8000669c:	038ad43b          	divuw	s0,s5,s8

00000000800066a0 <i_6316>:
    800066a0:	87b00a13          	li	s4,-1925

00000000800066a4 <i_6317>:
    800066a4:	87f00613          	li	a2,-1921

00000000800066a8 <i_6318>:
    800066a8:	028c4c3b          	divw	s8,s8,s0

00000000800066ac <i_6319>:
    800066ac:	f0910f03          	lb	t5,-247(sp)

00000000800066b0 <i_6320>:
    800066b0:	e5016c03          	lwu	s8,-432(sp)

00000000800066b4 <i_6321>:
    800066b4:	0189cc33          	xor	s8,s3,s8

00000000800066b8 <i_6322>:
    800066b8:	06913423          	sd	s1,104(sp)

00000000800066bc <i_6323>:
    800066bc:	1be10803          	lb	a6,446(sp)

00000000800066c0 <i_6324>:
    800066c0:	1b013823          	sd	a6,432(sp)

00000000800066c4 <i_6325>:
    800066c4:	01d80263          	beq	a6,t4,800066c8 <i_6326>

00000000800066c8 <i_6326>:
    800066c8:	0f914583          	lbu	a1,249(sp)

00000000800066cc <i_6327>:
    800066cc:	018ef3b3          	and	t2,t4,s8

00000000800066d0 <i_6328>:
    800066d0:	03ef1663          	bne	t5,t5,800066fc <i_6338>

00000000800066d4 <i_6329>:
    800066d4:	001a0a13          	addi	s4,s4,1
    800066d8:	fcca18e3          	bne	s4,a2,800066a8 <i_6318>

00000000800066dc <i_6330>:
    800066dc:	0e7109a3          	sb	t2,243(sp)

00000000800066e0 <i_6331>:
    800066e0:	08c12f03          	lw	t5,140(sp)

00000000800066e4 <i_6332>:
    800066e4:	03200c93          	li	s9,50

00000000800066e8 <i_6333>:
    800066e8:	019f5f33          	srl	t5,t5,s9

00000000800066ec <i_6334>:
    800066ec:	1e711023          	sh	t2,480(sp)

00000000800066f0 <i_6335>:
    800066f0:	1d911a23          	sh	s9,468(sp)

00000000800066f4 <i_6336>:
    800066f4:	0d811f03          	lh	t5,216(sp)

00000000800066f8 <i_6337>:
    800066f8:	e9a11023          	sh	s10,-384(sp)

00000000800066fc <i_6338>:
    800066fc:	00769e63          	bne	a3,t2,80006718 <i_6345>

0000000080006700 <i_6339>:
    80006700:	f3a11923          	sh	s10,-206(sp)

0000000080006704 <i_6340>:
    80006704:	01e9ea63          	bltu	s3,t5,80006718 <i_6345>

0000000080006708 <i_6341>:
    80006708:	00000013          	nop

000000008000670c <i_6342>:
    8000670c:	00000013          	nop

0000000080006710 <i_6343>:
    80006710:	e6813c83          	ld	s9,-408(sp)

0000000080006714 <i_6344>:
    80006714:	196100a3          	sb	s6,385(sp)

0000000080006718 <i_6345>:
    80006718:	00000013          	nop

000000008000671c <i_6346>:
    8000671c:	00000013          	nop

0000000080006720 <i_6347>:
    80006720:	85c00b93          	li	s7,-1956

0000000080006724 <i_6348>:
    80006724:	86e00393          	li	t2,-1938

0000000080006728 <i_6349>:
    80006728:	09815283          	lhu	t0,152(sp)

000000008000672c <i_6350>:
    8000672c:	f3912a23          	sw	s9,-204(sp)

0000000080006730 <i_6351>:
    80006730:	03bf4063          	blt	t5,s11,80006750 <i_6358>

0000000080006734 <i_6352>:
    80006734:	ff910323          	sb	s9,-26(sp)

0000000080006738 <i_6353>:
    80006738:	4d0e8a37          	lui	s4,0x4d0e8

000000008000673c <i_6354>:
    8000673c:	0143bcb3          	sltu	s9,t2,s4

0000000080006740 <i_6355>:
    80006740:	001b8b93          	addi	s7,s7,1
    80006744:	fe7bc2e3          	blt	s7,t2,80006728 <i_6349>

0000000080006748 <i_6356>:
    80006748:	03328063          	beq	t0,s3,80006768 <i_6364>

000000008000674c <i_6357>:
    8000674c:	f3b10383          	lb	t2,-197(sp)

0000000080006750 <i_6358>:
    80006750:	05615b83          	lhu	s7,86(sp)

0000000080006754 <i_6359>:
    80006754:	1ae10a03          	lb	s4,430(sp)

0000000080006758 <i_6360>:
    80006758:	007104a3          	sb	t2,9(sp)

000000008000675c <i_6361>:
    8000675c:	e7410423          	sb	s4,-408(sp)

0000000080006760 <i_6362>:
    80006760:	037a4263          	blt	s4,s7,80006784 <i_6371>

0000000080006764 <i_6363>:
    80006764:	ee111f23          	sh	ra,-258(sp)

0000000080006768 <i_6364>:
    80006768:	008a5e63          	ble	s0,s4,80006784 <i_6371>

000000008000676c <i_6365>:
    8000676c:	0fe11283          	lh	t0,254(sp)

0000000080006770 <i_6366>:
    80006770:	f3f101a3          	sb	t6,-221(sp)

0000000080006774 <i_6367>:
    80006774:	f733ba13          	sltiu	s4,t2,-141

0000000080006778 <i_6368>:
    80006778:	fb311d23          	sh	s3,-70(sp)

000000008000677c <i_6369>:
    8000677c:	e8511b23          	sh	t0,-362(sp)

0000000080006780 <i_6370>:
    80006780:	0d114283          	lbu	t0,209(sp)

0000000080006784 <i_6371>:
    80006784:	1b412e83          	lw	t4,436(sp)

0000000080006788 <i_6372>:
    80006788:	1a215503          	lhu	a0,418(sp)

000000008000678c <i_6373>:
    8000678c:	034a9463          	bne	s5,s4,800067b4 <i_6383>

0000000080006790 <i_6374>:
    80006790:	025a0063          	beq	s4,t0,800067b0 <i_6382>

0000000080006794 <i_6375>:
    80006794:	005d4463          	blt	s10,t0,8000679c <i_6377>

0000000080006798 <i_6376>:
    80006798:	00ac0c33          	add	s8,s8,a0

000000008000679c <i_6377>:
    8000679c:	10816303          	lwu	t1,264(sp)

00000000800067a0 <i_6378>:
    800067a0:	02a28263          	beq	t0,a0,800067c4 <i_6387>

00000000800067a4 <i_6379>:
    800067a4:	1c512423          	sw	t0,456(sp)

00000000800067a8 <i_6380>:
    800067a8:	018c1a63          	bne	s8,s8,800067bc <i_6385>

00000000800067ac <i_6381>:
    800067ac:	09015503          	lhu	a0,144(sp)

00000000800067b0 <i_6382>:
    800067b0:	01da4ab3          	xor	s5,s4,t4

00000000800067b4 <i_6383>:
    800067b4:	1ac13c23          	sd	a2,440(sp)

00000000800067b8 <i_6384>:
    800067b8:	11811823          	sh	s8,272(sp)

00000000800067bc <i_6385>:
    800067bc:	f3813083          	ld	ra,-200(sp)

00000000800067c0 <i_6386>:
    800067c0:	02aaa3b3          	mulhsu	t2,s5,a0

00000000800067c4 <i_6387>:
    800067c4:	02580263          	beq	a6,t0,800067e8 <i_6396>

00000000800067c8 <i_6388>:
    800067c8:	01c00393          	li	t2,28

00000000800067cc <i_6389>:
    800067cc:	007ed43b          	srlw	s0,t4,t2

00000000800067d0 <i_6390>:
    800067d0:	00a0cc63          	blt	ra,a0,800067e8 <i_6396>

00000000800067d4 <i_6391>:
    800067d4:	e7813503          	ld	a0,-392(sp)

00000000800067d8 <i_6392>:
    800067d8:	17013303          	ld	t1,368(sp)

00000000800067dc <i_6393>:
    800067dc:	fd410ba3          	sb	s4,-41(sp)

00000000800067e0 <i_6394>:
    800067e0:	00530c63          	beq	t1,t0,800067f8 <i_6400>

00000000800067e4 <i_6395>:
    800067e4:	f9014803          	lbu	a6,-112(sp)

00000000800067e8 <i_6396>:
    800067e8:	021329b3          	mulhsu	s3,t1,ra

00000000800067ec <i_6397>:
    800067ec:	fbd11923          	sh	t4,-78(sp)

00000000800067f0 <i_6398>:
    800067f0:	ea012283          	lw	t0,-352(sp)

00000000800067f4 <i_6399>:
    800067f4:	407383b3          	sub	t2,t2,t2

00000000800067f8 <i_6400>:
    800067f8:	037a5063          	ble	s7,s4,80006818 <i_6408>

00000000800067fc <i_6401>:
    800067fc:	0053ee63          	bltu	t2,t0,80006818 <i_6408>

0000000080006800 <i_6402>:
    80006800:	013b8a33          	add	s4,s7,s3

0000000080006804 <i_6403>:
    80006804:	0025db93          	srli	s7,a1,0x2

0000000080006808 <i_6404>:
    80006808:	f3412623          	sw	s4,-212(sp)

000000008000680c <i_6405>:
    8000680c:	ed413823          	sd	s4,-304(sp)

0000000080006810 <i_6406>:
    80006810:	0049d463          	ble	tp,s3,80006818 <i_6408>

0000000080006814 <i_6407>:
    80006814:	fa611723          	sh	t1,-82(sp)

0000000080006818 <i_6408>:
    80006818:	f9711b23          	sh	s7,-106(sp)

000000008000681c <i_6409>:
    8000681c:	035d543b          	divuw	s0,s10,s5

0000000080006820 <i_6410>:
    80006820:	02ce5ab3          	divu	s5,t3,a2

0000000080006824 <i_6411>:
    80006824:	01e00a13          	li	s4,30

0000000080006828 <i_6412>:
    80006828:	414a5a33          	sra	s4,s4,s4

000000008000682c <i_6413>:
    8000682c:	014a4463          	blt	s4,s4,80006834 <i_6415>

0000000080006830 <i_6414>:
    80006830:	f5412e23          	sw	s4,-164(sp)

0000000080006834 <i_6415>:
    80006834:	eef10603          	lb	a2,-273(sp)

0000000080006838 <i_6416>:
    80006838:	f57101a3          	sb	s7,-189(sp)

000000008000683c <i_6417>:
    8000683c:	41478a33          	sub	s4,a5,s4

0000000080006840 <i_6418>:
    80006840:	f6210a03          	lb	s4,-158(sp)

0000000080006844 <i_6419>:
    80006844:	17016683          	lwu	a3,368(sp)

0000000080006848 <i_6420>:
    80006848:	02f65463          	ble	a5,a2,80006870 <i_6430>

000000008000684c <i_6421>:
    8000684c:	00169613          	slli	a2,a3,0x1

0000000080006850 <i_6422>:
    80006850:	26a63513          	sltiu	a0,a2,618

0000000080006854 <i_6423>:
    80006854:	01142633          	slt	a2,s0,a7

0000000080006858 <i_6424>:
    80006858:	1f013023          	sd	a6,480(sp)

000000008000685c <i_6425>:
    8000685c:	00016a03          	lwu	s4,0(sp)

0000000080006860 <i_6426>:
    80006860:	f6c10e23          	sb	a2,-132(sp)

0000000080006864 <i_6427>:
    80006864:	00e15d83          	lhu	s11,14(sp)

0000000080006868 <i_6428>:
    80006868:	e5313823          	sd	s3,-432(sp)

000000008000686c <i_6429>:
    8000686c:	00000013          	nop

0000000080006870 <i_6430>:
    80006870:	15013c03          	ld	s8,336(sp)

0000000080006874 <i_6431>:
    80006874:	1a110d83          	lb	s11,417(sp)

0000000080006878 <i_6432>:
    80006878:	7b600513          	li	a0,1974

000000008000687c <i_6433>:
    8000687c:	7c500793          	li	a5,1989

0000000080006880 <i_6434>:
    80006880:	00150513          	addi	a0,a0,1
    80006884:	fef54ee3          	blt	a0,a5,80006880 <i_6434>

0000000080006888 <i_6435>:
    80006888:	02013203          	ld	tp,32(sp)

000000008000688c <i_6436>:
    8000688c:	02456263          	bltu	a0,tp,800068b0 <i_6445>

0000000080006890 <i_6437>:
    80006890:	02c61633          	mulh	a2,a2,a2

0000000080006894 <i_6438>:
    80006894:	1cc12a23          	sw	a2,468(sp)

0000000080006898 <i_6439>:
    80006898:	03b64c33          	div	s8,a2,s11

000000008000689c <i_6440>:
    8000689c:	e8e14c03          	lbu	s8,-370(sp)

00000000800068a0 <i_6441>:
    800068a0:	024df463          	bleu	tp,s11,800068c8 <i_6451>

00000000800068a4 <i_6442>:
    800068a4:	038d89b3          	mul	s3,s11,s8

00000000800068a8 <i_6443>:
    800068a8:	fdb12c23          	sw	s11,-40(sp)

00000000800068ac <i_6444>:
    800068ac:	14e11683          	lh	a3,334(sp)

00000000800068b0 <i_6445>:
    800068b0:	03879233          	mulh	tp,a5,s8

00000000800068b4 <i_6446>:
    800068b4:	0247c7bb          	divw	a5,a5,tp

00000000800068b8 <i_6447>:
    800068b8:	02d27263          	bleu	a3,tp,800068dc <i_6456>

00000000800068bc <i_6448>:
    800068bc:	00f69c63          	bne	a3,a5,800068d4 <i_6454>

00000000800068c0 <i_6449>:
    800068c0:	03420a33          	mul	s4,tp,s4

00000000800068c4 <i_6450>:
    800068c4:	19213023          	sd	s2,384(sp)

00000000800068c8 <i_6451>:
    800068c8:	0046c263          	blt	a3,tp,800068cc <i_6452>

00000000800068cc <i_6452>:
    800068cc:	024c1c33          	mulh	s8,s8,tp

00000000800068d0 <i_6453>:
    800068d0:	f9e11a03          	lh	s4,-98(sp)

00000000800068d4 <i_6454>:
    800068d4:	02268c33          	mul	s8,a3,sp

00000000800068d8 <i_6455>:
    800068d8:	0047c463          	blt	a5,tp,800068e0 <i_6457>

00000000800068dc <i_6456>:
    800068dc:	ef811f23          	sh	s8,-258(sp)

00000000800068e0 <i_6457>:
    800068e0:	0ac15403          	lhu	s0,172(sp)

00000000800068e4 <i_6458>:
    800068e4:	00000013          	nop

00000000800068e8 <i_6459>:
    800068e8:	78300393          	li	t2,1923

00000000800068ec <i_6460>:
    800068ec:	78e00793          	li	a5,1934

00000000800068f0 <i_6461>:
    800068f0:	fe810623          	sb	s0,-20(sp)

00000000800068f4 <i_6462>:
    800068f4:	02827abb          	remuw	s5,tp,s0

00000000800068f8 <i_6463>:
    800068f8:	06c16a83          	lwu	s5,108(sp)

00000000800068fc <i_6464>:
    800068fc:	41c40e33          	sub	t3,s0,t3

0000000080006900 <i_6465>:
    80006900:	0ca10403          	lb	s0,202(sp)

0000000080006904 <i_6466>:
    80006904:	862e0413          	addi	s0,t3,-1950

0000000080006908 <i_6467>:
    80006908:	00138393          	addi	t2,t2,1
    8000690c:	fe77f2e3          	bleu	t2,a5,800068f0 <i_6461>

0000000080006910 <i_6468>:
    80006910:	11812f03          	lw	t5,280(sp)

0000000080006914 <i_6469>:
    80006914:	f2113423          	sd	ra,-216(sp)

0000000080006918 <i_6470>:
    80006918:	03ee5433          	divu	s0,t3,t5

000000008000691c <i_6471>:
    8000691c:	14314e03          	lbu	t3,323(sp)

0000000080006920 <i_6472>:
    80006920:	0f611f03          	lh	t5,246(sp)

0000000080006924 <i_6473>:
    80006924:	01c16a63          	bltu	sp,t3,80006938 <i_6478>

0000000080006928 <i_6474>:
    80006928:	001f1413          	slli	s0,t5,0x1

000000008000692c <i_6475>:
    8000692c:	ed013e03          	ld	t3,-304(sp)

0000000080006930 <i_6476>:
    80006930:	0e415183          	lhu	gp,228(sp)

0000000080006934 <i_6477>:
    80006934:	655c3c13          	sltiu	s8,s8,1621

0000000080006938 <i_6478>:
    80006938:	05813023          	sd	s8,64(sp)

000000008000693c <i_6479>:
    8000693c:	fec16403          	lwu	s0,-20(sp)

0000000080006940 <i_6480>:
    80006940:	f1812503          	lw	a0,-232(sp)

0000000080006944 <i_6481>:
    80006944:	8ab00e13          	li	t3,-1877

0000000080006948 <i_6482>:
    80006948:	8b500c13          	li	s8,-1867

000000008000694c <i_6483>:
    8000694c:	02a41263          	bne	s0,a0,80006970 <i_6491>

0000000080006950 <i_6484>:
    80006950:	f1c15f03          	lhu	t5,-228(sp)

0000000080006954 <i_6485>:
    80006954:	01ce49b3          	xor	s3,t3,t3

0000000080006958 <i_6486>:
    80006958:	01800193          	li	gp,24

000000008000695c <i_6487>:
    8000695c:	003e13bb          	sllw	t2,t3,gp

0000000080006960 <i_6488>:
    80006960:	001e0e13          	addi	t3,t3,1
    80006964:	ff8e64e3          	bltu	t3,s8,8000694c <i_6483>

0000000080006968 <i_6489>:
    80006968:	f4211083          	lh	ra,-190(sp)

000000008000696c <i_6490>:
    8000696c:	01e3f9b3          	and	s3,t2,t5

0000000080006970 <i_6491>:
    80006970:	4013d093          	srai	ra,t2,0x1

0000000080006974 <i_6492>:
    80006974:	11a10523          	sb	s10,266(sp)

0000000080006978 <i_6493>:
    80006978:	ff312e23          	sw	s3,-4(sp)

000000008000697c <i_6494>:
    8000697c:	0011d863          	ble	ra,gp,8000698c <i_6498>

0000000080006980 <i_6495>:
    80006980:	eda15083          	lhu	ra,-294(sp)

0000000080006984 <i_6496>:
    80006984:	00a00e13          	li	t3,10

0000000080006988 <i_6497>:
    80006988:	41c4de3b          	sraw	t3,s1,t3

000000008000698c <i_6498>:
    8000698c:	f6014183          	lbu	gp,-160(sp)

0000000080006990 <i_6499>:
    80006990:	01cd0d33          	add	s10,s10,t3

0000000080006994 <i_6500>:
    80006994:	01a00213          	li	tp,26

0000000080006998 <i_6501>:
    80006998:	4041de33          	sra	t3,gp,tp

000000008000699c <i_6502>:
    8000699c:	eb812f03          	lw	t5,-328(sp)

00000000800069a0 <i_6503>:
    800069a0:	07bd2b93          	slti	s7,s10,123

00000000800069a4 <i_6504>:
    800069a4:	02300b93          	li	s7,35

00000000800069a8 <i_6505>:
    800069a8:	01785833          	srl	a6,a6,s7

00000000800069ac <i_6506>:
    800069ac:	bfe00297          	auipc	t0,0xbfe00

00000000800069b0 <i_6507>:
    800069b0:	a47c4097          	auipc	ra,0xa47c4

00000000800069b4 <i_6508>:
    800069b4:	00428863          	beq	t0,tp,800069c4 <i_6512>

00000000800069b8 <i_6509>:
    800069b8:	0e412183          	lw	gp,228(sp)

00000000800069bc <i_6510>:
    800069bc:	01a24a63          	blt	tp,s10,800069d0 <i_6515>

00000000800069c0 <i_6511>:
    800069c0:	03081263          	bne	a6,a6,800069e4 <i_6520>

00000000800069c4 <i_6512>:
    800069c4:	01000513          	li	a0,16

00000000800069c8 <i_6513>:
    800069c8:	00acdcb3          	srl	s9,s9,a0

00000000800069cc <i_6514>:
    800069cc:	0d013803          	ld	a6,208(sp)

00000000800069d0 <i_6515>:
    800069d0:	0f611183          	lh	gp,246(sp)

00000000800069d4 <i_6516>:
    800069d4:	09013423          	sd	a6,136(sp)

00000000800069d8 <i_6517>:
    800069d8:	13416e83          	lwu	t4,308(sp)

00000000800069dc <i_6518>:
    800069dc:	fd314503          	lbu	a0,-45(sp)

00000000800069e0 <i_6519>:
    800069e0:	f9013203          	ld	tp,-112(sp)

00000000800069e4 <i_6520>:
    800069e4:	00324a63          	blt	tp,gp,800069f8 <i_6525>

00000000800069e8 <i_6521>:
    800069e8:	024e8ebb          	mulw	t4,t4,tp

00000000800069ec <i_6522>:
    800069ec:	02a15383          	lhu	t2,42(sp)

00000000800069f0 <i_6523>:
    800069f0:	fc813503          	ld	a0,-56(sp)

00000000800069f4 <i_6524>:
    800069f4:	fdd192b7          	lui	t0,0xfdd19

00000000800069f8 <i_6525>:
    800069f8:	02a86463          	bltu	a6,a0,80006a20 <i_6535>

00000000800069fc <i_6526>:
    800069fc:	1ae10503          	lb	a0,430(sp)

0000000080006a00 <i_6527>:
    80006a00:	e4a13423          	sd	a0,-440(sp)

0000000080006a04 <i_6528>:
    80006a04:	40a289b3          	sub	s3,t0,a0

0000000080006a08 <i_6529>:
    80006a08:	68129d97          	auipc	s11,0x68129

0000000080006a0c <i_6530>:
    80006a0c:	17813283          	ld	t0,376(sp)

0000000080006a10 <i_6531>:
    80006a10:	06511123          	sh	t0,98(sp)

0000000080006a14 <i_6532>:
    80006a14:	02514c3b          	divw	s8,sp,t0

0000000080006a18 <i_6533>:
    80006a18:	15410c03          	lb	s8,340(sp)

0000000080006a1c <i_6534>:
    80006a1c:	0032c633          	xor	a2,t0,gp

0000000080006a20 <i_6535>:
    80006a20:	00561863          	bne	a2,t0,80006a30 <i_6539>

0000000080006a24 <i_6536>:
    80006a24:	18416283          	lwu	t0,388(sp)

0000000080006a28 <i_6537>:
    80006a28:	018dde63          	ble	s8,s11,80006a44 <i_6544>

0000000080006a2c <i_6538>:
    80006a2c:	005c5663          	ble	t0,s8,80006a38 <i_6541>

0000000080006a30 <i_6539>:
    80006a30:	03bc02bb          	mulw	t0,s8,s11

0000000080006a34 <i_6540>:
    80006a34:	00560263          	beq	a2,t0,80006a38 <i_6541>

0000000080006a38 <i_6541>:
    80006a38:	00000013          	nop

0000000080006a3c <i_6542>:
    80006a3c:	fea11603          	lh	a2,-22(sp)

0000000080006a40 <i_6543>:
    80006a40:	00000013          	nop

0000000080006a44 <i_6544>:
    80006a44:	00cb2833          	slt	a6,s6,a2

0000000080006a48 <i_6545>:
    80006a48:	18c11923          	sh	a2,402(sp)

0000000080006a4c <i_6546>:
    80006a4c:	84100293          	li	t0,-1983

0000000080006a50 <i_6547>:
    80006a50:	85100093          	li	ra,-1967

0000000080006a54 <i_6548>:
    80006a54:	f3615b03          	lhu	s6,-202(sp)

0000000080006a58 <i_6549>:
    80006a58:	00000013          	nop

0000000080006a5c <i_6550>:
    80006a5c:	85300e13          	li	t3,-1965

0000000080006a60 <i_6551>:
    80006a60:	86200613          	li	a2,-1950

0000000080006a64 <i_6552>:
    80006a64:	ff013023          	sd	a6,-32(sp)

0000000080006a68 <i_6553>:
    80006a68:	001e0e13          	addi	t3,t3,1
    80006a6c:	fece6ce3          	bltu	t3,a2,80006a64 <i_6552>

0000000080006a70 <i_6554>:
    80006a70:	ffe31a17          	auipc	s4,0xffe31

0000000080006a74 <i_6555>:
    80006a74:	19012623          	sw	a6,396(sp)

0000000080006a78 <i_6556>:
    80006a78:	02cb34b3          	mulhu	s1,s6,a2

0000000080006a7c <i_6557>:
    80006a7c:	0164ca63          	blt	s1,s6,80006a90 <i_6561>

0000000080006a80 <i_6558>:
    80006a80:	00128293          	addi	t0,t0,1 # fffffffffdd19001 <_end+0xffffffff7dd08bed>
    80006a84:	fc50f8e3          	bleu	t0,ra,80006a54 <i_6548>

0000000080006a88 <i_6559>:
    80006a88:	fbe10b03          	lb	s6,-66(sp)

0000000080006a8c <i_6560>:
    80006a8c:	fee10483          	lb	s1,-18(sp)

0000000080006a90 <i_6561>:
    80006a90:	e8411783          	lh	a5,-380(sp)

0000000080006a94 <i_6562>:
    80006a94:	0104a333          	slt	t1,s1,a6

0000000080006a98 <i_6563>:
    80006a98:	faf12423          	sw	a5,-88(sp)

0000000080006a9c <i_6564>:
    80006a9c:	02610fa3          	sb	t1,63(sp)

0000000080006aa0 <i_6565>:
    80006aa0:	00c4e463          	bltu	s1,a2,80006aa8 <i_6567>

0000000080006aa4 <i_6566>:
    80006aa4:	00279313          	slli	t1,a5,0x2

0000000080006aa8 <i_6567>:
    80006aa8:	c648cab7          	lui	s5,0xc648c

0000000080006aac <i_6568>:
    80006aac:	e7615603          	lhu	a2,-394(sp)

0000000080006ab0 <i_6569>:
    80006ab0:	0c813603          	ld	a2,200(sp)

0000000080006ab4 <i_6570>:
    80006ab4:	f5b10803          	lb	a6,-165(sp)

0000000080006ab8 <i_6571>:
    80006ab8:	1dd14303          	lbu	t1,477(sp)

0000000080006abc <i_6572>:
    80006abc:	00c48633          	add	a2,s1,a2

0000000080006ac0 <i_6573>:
    80006ac0:	01083a33          	sltu	s4,a6,a6

0000000080006ac4 <i_6574>:
    80006ac4:	00000013          	nop

0000000080006ac8 <i_6575>:
    80006ac8:	e5415f03          	lhu	t5,-428(sp)

0000000080006acc <i_6576>:
    80006acc:	74b00b13          	li	s6,1867

0000000080006ad0 <i_6577>:
    80006ad0:	75f00313          	li	t1,1887

0000000080006ad4 <i_6578>:
    80006ad4:	01e32833          	slt	a6,t1,t5

0000000080006ad8 <i_6579>:
    80006ad8:	f0011f03          	lh	t5,-256(sp)

0000000080006adc <i_6580>:
    80006adc:	17211f03          	lh	t5,370(sp)

0000000080006ae0 <i_6581>:
    80006ae0:	ee813803          	ld	a6,-280(sp)

0000000080006ae4 <i_6582>:
    80006ae4:	0fe10623          	sb	t5,236(sp)

0000000080006ae8 <i_6583>:
    80006ae8:	010f3f33          	sltu	t5,t5,a6

0000000080006aec <i_6584>:
    80006aec:	010a1663          	bne	s4,a6,80006af8 <i_6587>

0000000080006af0 <i_6585>:
    80006af0:	05b105a3          	sb	s11,75(sp)

0000000080006af4 <i_6586>:
    80006af4:	010f6463          	bltu	t5,a6,80006afc <i_6588>

0000000080006af8 <i_6587>:
    80006af8:	efc11f03          	lh	t5,-260(sp)

0000000080006afc <i_6588>:
    80006afc:	ef010623          	sb	a6,-276(sp)

0000000080006b00 <i_6589>:
    80006b00:	010f2bb3          	slt	s7,t5,a6

0000000080006b04 <i_6590>:
    80006b04:	e8812183          	lw	gp,-376(sp)

0000000080006b08 <i_6591>:
    80006b08:	01012c23          	sw	a6,24(sp)

0000000080006b0c <i_6592>:
    80006b0c:	f8215983          	lhu	s3,-126(sp)

0000000080006b10 <i_6593>:
    80006b10:	001b0b13          	addi	s6,s6,1
    80006b14:	fd6370e3          	bleu	s6,t1,80006ad4 <i_6578>

0000000080006b18 <i_6594>:
    80006b18:	003bd69b          	srliw	a3,s7,0x3

0000000080006b1c <i_6595>:
    80006b1c:	fb813203          	ld	tp,-72(sp)

0000000080006b20 <i_6596>:
    80006b20:	01332b33          	slt	s6,t1,s3

0000000080006b24 <i_6597>:
    80006b24:	0049e9b3          	or	s3,s3,tp

0000000080006b28 <i_6598>:
    80006b28:	004b0263          	beq	s6,tp,80006b2c <i_6599>

0000000080006b2c <i_6599>:
    80006b2c:	f3013d83          	ld	s11,-208(sp)

0000000080006b30 <i_6600>:
    80006b30:	02900a13          	li	s4,41

0000000080006b34 <i_6601>:
    80006b34:	414ddb33          	sra	s6,s11,s4

0000000080006b38 <i_6602>:
    80006b38:	f5614483          	lbu	s1,-170(sp)

0000000080006b3c <i_6603>:
    80006b3c:	033a0463          	beq	s4,s3,80006b64 <i_6613>

0000000080006b40 <i_6604>:
    80006b40:	033a69bb          	remw	s3,s4,s3

0000000080006b44 <i_6605>:
    80006b44:	9d298a13          	addi	s4,s3,-1582

0000000080006b48 <i_6606>:
    80006b48:	0294e063          	bltu	s1,s1,80006b68 <i_6614>

0000000080006b4c <i_6607>:
    80006b4c:	013d6263          	bltu	s10,s3,80006b50 <i_6608>

0000000080006b50 <i_6608>:
    80006b50:	033989b3          	mul	s3,s3,s3

0000000080006b54 <i_6609>:
    80006b54:	00b00593          	li	a1,11

0000000080006b58 <i_6610>:
    80006b58:	40ba5db3          	sra	s11,s4,a1

0000000080006b5c <i_6611>:
    80006b5c:	003a159b          	slliw	a1,s4,0x3

0000000080006b60 <i_6612>:
    80006b60:	10b12c23          	sw	a1,280(sp)

0000000080006b64 <i_6613>:
    80006b64:	01f00a13          	li	s4,31

0000000080006b68 <i_6614>:
    80006b68:	41435a33          	sra	s4,t1,s4

0000000080006b6c <i_6615>:
    80006b6c:	f0415a03          	lhu	s4,-252(sp)

0000000080006b70 <i_6616>:
    80006b70:	7de00d93          	li	s11,2014

0000000080006b74 <i_6617>:
    80006b74:	7e600313          	li	t1,2022

0000000080006b78 <i_6618>:
    80006b78:	01b30a33          	add	s4,t1,s11

0000000080006b7c <i_6619>:
    80006b7c:	001d8d93          	addi	s11,s11,1 # e812fa09 <_end+0x6811f5f5>
    80006b80:	fe6dcce3          	blt	s11,t1,80006b78 <i_6618>

0000000080006b84 <i_6620>:
    80006b84:	01431463          	bne	t1,s4,80006b8c <i_6622>

0000000080006b88 <i_6621>:
    80006b88:	028a3433          	mulhu	s0,s4,s0

0000000080006b8c <i_6622>:
    80006b8c:	0d813503          	ld	a0,216(sp)

0000000080006b90 <i_6623>:
    80006b90:	01bd8533          	add	a0,s11,s11

0000000080006b94 <i_6624>:
    80006b94:	0aa106a3          	sb	a0,173(sp)

0000000080006b98 <i_6625>:
    80006b98:	11414503          	lbu	a0,276(sp)

0000000080006b9c <i_6626>:
    80006b9c:	00a45e63          	ble	a0,s0,80006bb8 <i_6633>

0000000080006ba0 <i_6627>:
    80006ba0:	01416983          	lwu	s3,20(sp)

0000000080006ba4 <i_6628>:
    80006ba4:	f5110503          	lb	a0,-175(sp)

0000000080006ba8 <i_6629>:
    80006ba8:	d2552693          	slti	a3,a0,-731

0000000080006bac <i_6630>:
    80006bac:	9a149537          	lui	a0,0x9a149

0000000080006bb0 <i_6631>:
    80006bb0:	71ce6613          	ori	a2,t3,1820

0000000080006bb4 <i_6632>:
    80006bb4:	00000013          	nop

0000000080006bb8 <i_6633>:
    80006bb8:	e4a10723          	sb	a0,-434(sp)

0000000080006bbc <i_6634>:
    80006bbc:	dff9a793          	slti	a5,s3,-513

0000000080006bc0 <i_6635>:
    80006bc0:	7da00993          	li	s3,2010

0000000080006bc4 <i_6636>:
    80006bc4:	7ec00513          	li	a0,2028

0000000080006bc8 <i_6637>:
    80006bc8:	10a14f03          	lbu	t5,266(sp)

0000000080006bcc <i_6638>:
    80006bcc:	00c78863          	beq	a5,a2,80006bdc <i_6642>

0000000080006bd0 <i_6639>:
    80006bd0:	98e7f813          	andi	a6,a5,-1650

0000000080006bd4 <i_6640>:
    80006bd4:	e3e11123          	sh	t5,-478(sp)

0000000080006bd8 <i_6641>:
    80006bd8:	01063ab3          	sltu	s5,a2,a6

0000000080006bdc <i_6642>:
    80006bdc:	fb813f03          	ld	t5,-72(sp)

0000000080006be0 <i_6643>:
    80006be0:	b8cf0793          	addi	a5,t5,-1140

0000000080006be4 <i_6644>:
    80006be4:	f3010523          	sb	a6,-214(sp)

0000000080006be8 <i_6645>:
    80006be8:	01056463          	bltu	a0,a6,80006bf0 <i_6647>

0000000080006bec <i_6646>:
    80006bec:	12a12223          	sw	a0,292(sp)

0000000080006bf0 <i_6647>:
    80006bf0:	772ae813          	ori	a6,s5,1906

0000000080006bf4 <i_6648>:
    80006bf4:	01040833          	add	a6,s0,a6

0000000080006bf8 <i_6649>:
    80006bf8:	4028581b          	sraiw	a6,a6,0x2

0000000080006bfc <i_6650>:
    80006bfc:	03087ab3          	remu	s5,a6,a6

0000000080006c00 <i_6651>:
    80006c00:	00198993          	addi	s3,s3,1
    80006c04:	fd3572e3          	bleu	s3,a0,80006bc8 <i_6637>

0000000080006c08 <i_6652>:
    80006c08:	0308683b          	remw	a6,a6,a6

0000000080006c0c <i_6653>:
    80006c0c:	f3013023          	sd	a6,-224(sp)

0000000080006c10 <i_6654>:
    80006c10:	030844bb          	divw	s1,a6,a6

0000000080006c14 <i_6655>:
    80006c14:	01082e33          	slt	t3,a6,a6

0000000080006c18 <i_6656>:
    80006c18:	003f9b1b          	slliw	s6,t6,0x3

0000000080006c1c <i_6657>:
    80006c1c:	02985263          	ble	s1,a6,80006c40 <i_6666>

0000000080006c20 <i_6658>:
    80006c20:	f4c42e13          	slti	t3,s0,-180

0000000080006c24 <i_6659>:
    80006c24:	01086e33          	or	t3,a6,a6

0000000080006c28 <i_6660>:
    80006c28:	02600813          	li	a6,38

0000000080006c2c <i_6661>:
    80006c2c:	410b5433          	sra	s0,s6,a6

0000000080006c30 <i_6662>:
    80006c30:	f1015383          	lhu	t2,-240(sp)

0000000080006c34 <i_6663>:
    80006c34:	03ce0e3b          	mulw	t3,t3,t3

0000000080006c38 <i_6664>:
    80006c38:	157e4e13          	xori	t3,t3,343

0000000080006c3c <i_6665>:
    80006c3c:	ef813e03          	ld	t3,-264(sp)

0000000080006c40 <i_6666>:
    80006c40:	00000013          	nop

0000000080006c44 <i_6667>:
    80006c44:	008e0b33          	add	s6,t3,s0

0000000080006c48 <i_6668>:
    80006c48:	89400e13          	li	t3,-1900

0000000080006c4c <i_6669>:
    80006c4c:	8a200413          	li	s0,-1886

0000000080006c50 <i_6670>:
    80006c50:	01810e83          	lb	t4,24(sp)

0000000080006c54 <i_6671>:
    80006c54:	00000013          	nop

0000000080006c58 <i_6672>:
    80006c58:	f8c12c83          	lw	s9,-116(sp)

0000000080006c5c <i_6673>:
    80006c5c:	00000013          	nop

0000000080006c60 <i_6674>:
    80006c60:	13c10f23          	sb	t3,318(sp)

0000000080006c64 <i_6675>:
    80006c64:	03cc9463          	bne	s9,t3,80006c8c <i_6684>

0000000080006c68 <i_6676>:
    80006c68:	19d12223          	sw	t4,388(sp)

0000000080006c6c <i_6677>:
    80006c6c:	03ce5663          	ble	t3,t3,80006c98 <i_6687>

0000000080006c70 <i_6678>:
    80006c70:	15a15c83          	lhu	s9,346(sp)

0000000080006c74 <i_6679>:
    80006c74:	15913c23          	sd	s9,344(sp)

0000000080006c78 <i_6680>:
    80006c78:	e8c12c23          	sw	a2,-360(sp)

0000000080006c7c <i_6681>:
    80006c7c:	001e0e13          	addi	t3,t3,1
    80006c80:	fc8e48e3          	blt	t3,s0,80006c50 <i_6670>

0000000080006c84 <i_6682>:
    80006c84:	e4410a83          	lb	s5,-444(sp)

0000000080006c88 <i_6683>:
    80006c88:	01ceec63          	bltu	t4,t3,80006ca0 <i_6689>

0000000080006c8c <i_6684>:
    80006c8c:	403b5b93          	srai	s7,s6,0x3

0000000080006c90 <i_6685>:
    80006c90:	03dce263          	bltu	s9,t4,80006cb4 <i_6694>

0000000080006c94 <i_6686>:
    80006c94:	02847a33          	remu	s4,s0,s0

0000000080006c98 <i_6687>:
    80006c98:	15b12e23          	sw	s11,348(sp)

0000000080006c9c <i_6688>:
    80006c9c:	e8215403          	lhu	s0,-382(sp)

0000000080006ca0 <i_6689>:
    80006ca0:	037a4263          	blt	s4,s7,80006cc4 <i_6698>

0000000080006ca4 <i_6690>:
    80006ca4:	e3710f23          	sb	s7,-450(sp)

0000000080006ca8 <i_6691>:
    80006ca8:	f8e15f03          	lhu	t5,-114(sp)

0000000080006cac <i_6692>:
    80006cac:	0fe10ea3          	sb	t5,253(sp)

0000000080006cb0 <i_6693>:
    80006cb0:	034bc063          	blt	s7,s4,80006cd0 <i_6701>

0000000080006cb4 <i_6694>:
    80006cb4:	06412483          	lw	s1,100(sp)

0000000080006cb8 <i_6695>:
    80006cb8:	12411a03          	lh	s4,292(sp)

0000000080006cbc <i_6696>:
    80006cbc:	f6816a03          	lwu	s4,-152(sp)

0000000080006cc0 <i_6697>:
    80006cc0:	029f50bb          	divuw	ra,t5,s1

0000000080006cc4 <i_6698>:
    80006cc4:	0d411483          	lh	s1,212(sp)

0000000080006cc8 <i_6699>:
    80006cc8:	0144fc63          	bleu	s4,s1,80006ce0 <i_6705>

0000000080006ccc <i_6700>:
    80006ccc:	14416483          	lwu	s1,324(sp)

0000000080006cd0 <i_6701>:
    80006cd0:	09714f03          	lbu	t5,151(sp)

0000000080006cd4 <i_6702>:
    80006cd4:	4029d493          	srai	s1,s3,0x2

0000000080006cd8 <i_6703>:
    80006cd8:	05813a03          	ld	s4,88(sp)

0000000080006cdc <i_6704>:
    80006cdc:	01ef4a33          	xor	s4,t5,t5

0000000080006ce0 <i_6705>:
    80006ce0:	021a1463          	bne	s4,ra,80006d08 <i_6715>

0000000080006ce4 <i_6706>:
    80006ce4:	eb413023          	sd	s4,-352(sp)

0000000080006ce8 <i_6707>:
    80006ce8:	014f6a63          	bltu	t5,s4,80006cfc <i_6712>

0000000080006cec <i_6708>:
    80006cec:	00ba4c63          	blt	s4,a1,80006d04 <i_6714>

0000000080006cf0 <i_6709>:
    80006cf0:	02000b13          	li	s6,32

0000000080006cf4 <i_6710>:
    80006cf4:	016d5f33          	srl	t5,s10,s6

0000000080006cf8 <i_6711>:
    80006cf8:	14d13023          	sd	a3,320(sp)

0000000080006cfc <i_6712>:
    80006cfc:	023dc1b3          	div	gp,s11,gp

0000000080006d00 <i_6713>:
    80006d00:	003a0863          	beq	s4,gp,80006d10 <i_6717>

0000000080006d04 <i_6714>:
    80006d04:	016a7c63          	bleu	s6,s4,80006d1c <i_6720>

0000000080006d08 <i_6715>:
    80006d08:	ff411123          	sh	s4,-30(sp)

0000000080006d0c <i_6716>:
    80006d0c:	0141c863          	blt	gp,s4,80006d1c <i_6720>

0000000080006d10 <i_6717>:
    80006d10:	0b612623          	sw	s6,172(sp)

0000000080006d14 <i_6718>:
    80006d14:	f8012a03          	lw	s4,-128(sp)

0000000080006d18 <i_6719>:
    80006d18:	09b13823          	sd	s11,144(sp)

0000000080006d1c <i_6720>:
    80006d1c:	0231c4bb          	divw	s1,gp,gp

0000000080006d20 <i_6721>:
    80006d20:	41b18c3b          	subw	s8,gp,s11

0000000080006d24 <i_6722>:
    80006d24:	77600f13          	li	t5,1910

0000000080006d28 <i_6723>:
    80006d28:	78200d93          	li	s11,1922

0000000080006d2c <i_6724>:
    80006d2c:	fac12983          	lw	s3,-84(sp)

0000000080006d30 <i_6725>:
    80006d30:	177c2a13          	slti	s4,s8,375

0000000080006d34 <i_6726>:
    80006d34:	1c314383          	lbu	t2,451(sp)

0000000080006d38 <i_6727>:
    80006d38:	0341e5b3          	rem	a1,gp,s4

0000000080006d3c <i_6728>:
    80006d3c:	1e811a83          	lh	s5,488(sp)

0000000080006d40 <i_6729>:
    80006d40:	10416483          	lwu	s1,260(sp)

0000000080006d44 <i_6730>:
    80006d44:	eb513423          	sd	s5,-344(sp)

0000000080006d48 <i_6731>:
    80006d48:	001f0f13          	addi	t5,t5,1
    80006d4c:	ffbf10e3          	bne	t5,s11,80006d2c <i_6724>

0000000080006d50 <i_6732>:
    80006d50:	fc411423          	sh	tp,-56(sp)

0000000080006d54 <i_6733>:
    80006d54:	02942ab3          	mulhsu	s5,s0,s1

0000000080006d58 <i_6734>:
    80006d58:	7c800413          	li	s0,1992

0000000080006d5c <i_6735>:
    80006d5c:	7d600493          	li	s1,2006

0000000080006d60 <i_6736>:
    80006d60:	14416a83          	lwu	s5,324(sp)

0000000080006d64 <i_6737>:
    80006d64:	01a00a93          	li	s5,26

0000000080006d68 <i_6738>:
    80006d68:	415ad23b          	sraw	tp,s5,s5

0000000080006d6c <i_6739>:
    80006d6c:	c3995a97          	auipc	s5,0xc3995

0000000080006d70 <i_6740>:
    80006d70:	401b5513          	srai	a0,s6,0x1

0000000080006d74 <i_6741>:
    80006d74:	fbf14a03          	lbu	s4,-65(sp)

0000000080006d78 <i_6742>:
    80006d78:	00000013          	nop

0000000080006d7c <i_6743>:
    80006d7c:	00140413          	addi	s0,s0,1
    80006d80:	fe9440e3          	blt	s0,s1,80006d60 <i_6736>

0000000080006d84 <i_6744>:
    80006d84:	403adb93          	srai	s7,s5,0x3

0000000080006d88 <i_6745>:
    80006d88:	12411123          	sh	tp,290(sp)

0000000080006d8c <i_6746>:
    80006d8c:	00500e13          	li	t3,5

0000000080006d90 <i_6747>:
    80006d90:	01c31e33          	sll	t3,t1,t3

0000000080006d94 <i_6748>:
    80006d94:	14c12983          	lw	s3,332(sp)

0000000080006d98 <i_6749>:
    80006d98:	017bf433          	and	s0,s7,s7

0000000080006d9c <i_6750>:
    80006d9c:	09710ea3          	sb	s7,157(sp)

0000000080006da0 <i_6751>:
    80006da0:	00ebf663          	bleu	a4,s7,80006dac <i_6754>

0000000080006da4 <i_6752>:
    80006da4:	06211983          	lh	s3,98(sp)

0000000080006da8 <i_6753>:
    80006da8:	f9314583          	lbu	a1,-109(sp)

0000000080006dac <i_6754>:
    80006dac:	14c16d83          	lwu	s11,332(sp)

0000000080006db0 <i_6755>:
    80006db0:	0dc11f23          	sh	t3,222(sp)

0000000080006db4 <i_6756>:
    80006db4:	033b9463          	bne	s7,s3,80006ddc <i_6766>

0000000080006db8 <i_6757>:
    80006db8:	b92b8b93          	addi	s7,s7,-1134

0000000080006dbc <i_6758>:
    80006dbc:	d6de9217          	auipc	tp,0xd6de9

0000000080006dc0 <i_6759>:
    80006dc0:	01ce1e63          	bne	t3,t3,80006ddc <i_6766>

0000000080006dc4 <i_6760>:
    80006dc4:	037e1063          	bne	t3,s7,80006de4 <i_6768>

0000000080006dc8 <i_6761>:
    80006dc8:	01d00993          	li	s3,29

0000000080006dcc <i_6762>:
    80006dcc:	013393bb          	sllw	t2,t2,s3

0000000080006dd0 <i_6763>:
    80006dd0:	0089c663          	blt	s3,s0,80006ddc <i_6766>

0000000080006dd4 <i_6764>:
    80006dd4:	01400593          	li	a1,20

0000000080006dd8 <i_6765>:
    80006dd8:	00be1633          	sll	a2,t3,a1

0000000080006ddc <i_6766>:
    80006ddc:	01345863          	ble	s3,s0,80006dec <i_6770>

0000000080006de0 <i_6767>:
    80006de0:	024c4dbb          	divw	s11,s8,tp

0000000080006de4 <i_6768>:
    80006de4:	004ddd9b          	srliw	s11,s11,0x4

0000000080006de8 <i_6769>:
    80006de8:	0083beb3          	sltu	t4,t2,s0

0000000080006dec <i_6770>:
    80006dec:	0b416b83          	lwu	s7,180(sp)

0000000080006df0 <i_6771>:
    80006df0:	e8f10d83          	lb	s11,-369(sp)

0000000080006df4 <i_6772>:
    80006df4:	177102a3          	sb	s7,357(sp)

0000000080006df8 <i_6773>:
    80006df8:	01400613          	li	a2,20

0000000080006dfc <i_6774>:
    80006dfc:	00cb97bb          	sllw	a5,s7,a2

0000000080006e00 <i_6775>:
    80006e00:	4f67a613          	slti	a2,a5,1270

0000000080006e04 <i_6776>:
    80006e04:	0038de13          	srli	t3,a7,0x3

0000000080006e08 <i_6777>:
    80006e08:	e5d13023          	sd	t4,-448(sp)

0000000080006e0c <i_6778>:
    80006e0c:	00cde463          	bltu	s11,a2,80006e14 <i_6780>

0000000080006e10 <i_6779>:
    80006e10:	01761e63          	bne	a2,s7,80006e2c <i_6786>

0000000080006e14 <i_6780>:
    80006e14:	00fd8e63          	beq	s11,a5,80006e30 <i_6787>

0000000080006e18 <i_6781>:
    80006e18:	02200e93          	li	t4,34

0000000080006e1c <i_6782>:
    80006e1c:	01de51b3          	srl	gp,t3,t4

0000000080006e20 <i_6783>:
    80006e20:	0a615283          	lhu	t0,166(sp)

0000000080006e24 <i_6784>:
    80006e24:	40678eb3          	sub	t4,a5,t1

0000000080006e28 <i_6785>:
    80006e28:	03dcfcbb          	remuw	s9,s9,t4

0000000080006e2c <i_6786>:
    80006e2c:	005fce63          	blt	t6,t0,80006e48 <i_6793>

0000000080006e30 <i_6787>:
    80006e30:	d2418413          	addi	s0,gp,-732 # 2c5f32f0 <main-0x53a0cd10>

0000000080006e34 <i_6788>:
    80006e34:	f2a10e83          	lb	t4,-214(sp)

0000000080006e38 <i_6789>:
    80006e38:	00313c23          	sd	gp,24(sp)

0000000080006e3c <i_6790>:
    80006e3c:	7ad1821b          	addiw	tp,gp,1965

0000000080006e40 <i_6791>:
    80006e40:	16412e23          	sw	tp,380(sp)

0000000080006e44 <i_6792>:
    80006e44:	e5811403          	lh	s0,-424(sp)

0000000080006e48 <i_6793>:
    80006e48:	1bd11523          	sh	t4,426(sp)

0000000080006e4c <i_6794>:
    80006e4c:	01defeb3          	and	t4,t4,t4

0000000080006e50 <i_6795>:
    80006e50:	697c2213          	slti	tp,s8,1687

0000000080006e54 <i_6796>:
    80006e54:	00241d93          	slli	s11,s0,0x2

0000000080006e58 <i_6797>:
    80006e58:	01b345b3          	xor	a1,t1,s11

0000000080006e5c <i_6798>:
    80006e5c:	fdb11623          	sh	s11,-52(sp)

0000000080006e60 <i_6799>:
    80006e60:	0d314403          	lbu	s0,211(sp)

0000000080006e64 <i_6800>:
    80006e64:	011dd463          	ble	a7,s11,80006e6c <i_6802>

0000000080006e68 <i_6801>:
    80006e68:	12812503          	lw	a0,296(sp)

0000000080006e6c <i_6802>:
    80006e6c:	00bb7263          	bleu	a1,s6,80006e70 <i_6803>

0000000080006e70 <i_6803>:
    80006e70:	0272d3b3          	divu	t2,t0,t2

0000000080006e74 <i_6804>:
    80006e74:	401b5b13          	srai	s6,s6,0x1

0000000080006e78 <i_6805>:
    80006e78:	408d8cb3          	sub	s9,s11,s0

0000000080006e7c <i_6806>:
    80006e7c:	016f5663          	ble	s6,t5,80006e88 <i_6809>

0000000080006e80 <i_6807>:
    80006e80:	f3615b03          	lhu	s6,-202(sp)

0000000080006e84 <i_6808>:
    80006e84:	e7416403          	lwu	s0,-396(sp)

0000000080006e88 <i_6809>:
    80006e88:	e6e14e83          	lbu	t4,-402(sp)

0000000080006e8c <i_6810>:
    80006e8c:	fa013403          	ld	s0,-96(sp)

0000000080006e90 <i_6811>:
    80006e90:	f7914303          	lbu	t1,-135(sp)

0000000080006e94 <i_6812>:
    80006e94:	00657463          	bleu	t1,a0,80006e9c <i_6814>

0000000080006e98 <i_6813>:
    80006e98:	01937a63          	bleu	s9,t1,80006eac <i_6818>

0000000080006e9c <i_6814>:
    80006e9c:	1be15503          	lhu	a0,446(sp)

0000000080006ea0 <i_6815>:
    80006ea0:	0c6104a3          	sb	t1,201(sp)

0000000080006ea4 <i_6816>:
    80006ea4:	00644cb3          	xor	s9,s0,t1

0000000080006ea8 <i_6817>:
    80006ea8:	02c41463          	bne	s0,a2,80006ed0 <i_6827>

0000000080006eac <i_6818>:
    80006eac:	08410503          	lb	a0,132(sp)

0000000080006eb0 <i_6819>:
    80006eb0:	19c15503          	lhu	a0,412(sp)

0000000080006eb4 <i_6820>:
    80006eb4:	02a55063          	ble	a0,a0,80006ed4 <i_6828>

0000000080006eb8 <i_6821>:
    80006eb8:	10f10e03          	lb	t3,271(sp)

0000000080006ebc <i_6822>:
    80006ebc:	01dcaeb3          	slt	t4,s9,t4

0000000080006ec0 <i_6823>:
    80006ec0:	026459b3          	divu	s3,s0,t1

0000000080006ec4 <i_6824>:
    80006ec4:	e9410403          	lb	s0,-364(sp)

0000000080006ec8 <i_6825>:
    80006ec8:	413e8bbb          	subw	s7,t4,s3

0000000080006ecc <i_6826>:
    80006ecc:	05711223          	sh	s7,68(sp)

0000000080006ed0 <i_6827>:
    80006ed0:	038e583b          	divuw	a6,t3,s8

0000000080006ed4 <i_6828>:
    80006ed4:	028beebb          	remw	t4,s7,s0

0000000080006ed8 <i_6829>:
    80006ed8:	18010403          	lb	s0,384(sp)

0000000080006edc <i_6830>:
    80006edc:	10710e03          	lb	t3,263(sp)

0000000080006ee0 <i_6831>:
    80006ee0:	010e6a63          	bltu	t3,a6,80006ef4 <i_6836>

0000000080006ee4 <i_6832>:
    80006ee4:	03c08463          	beq	ra,t3,80006f0c <i_6842>

0000000080006ee8 <i_6833>:
    80006ee8:	e7016e03          	lwu	t3,-400(sp)

0000000080006eec <i_6834>:
    80006eec:	01ce5263          	ble	t3,t3,80006ef0 <i_6835>

0000000080006ef0 <i_6835>:
    80006ef0:	fdc12823          	sw	t3,-48(sp)

0000000080006ef4 <i_6836>:
    80006ef4:	03081263          	bne	a6,a6,80006f18 <i_6845>

0000000080006ef8 <i_6837>:
    80006ef8:	00300593          	li	a1,3

0000000080006efc <i_6838>:
    80006efc:	00b4de3b          	srlw	t3,s1,a1

0000000080006f00 <i_6839>:
    80006f00:	feb11a23          	sh	a1,-12(sp)

0000000080006f04 <i_6840>:
    80006f04:	02fc95b3          	mulh	a1,s9,a5

0000000080006f08 <i_6841>:
    80006f08:	02be59b3          	divu	s3,t3,a1

0000000080006f0c <i_6842>:
    80006f0c:	013473b3          	and	t2,s0,s3

0000000080006f10 <i_6843>:
    80006f10:	04815e03          	lhu	t3,72(sp)

0000000080006f14 <i_6844>:
    80006f14:	00000013          	nop

0000000080006f18 <i_6845>:
    80006f18:	00000013          	nop

0000000080006f1c <i_6846>:
    80006f1c:	03d9ce33          	div	t3,s3,t4

0000000080006f20 <i_6847>:
    80006f20:	7b700813          	li	a6,1975

0000000080006f24 <i_6848>:
    80006f24:	7c800493          	li	s1,1992

0000000080006f28 <i_6849>:
    80006f28:	48211db7          	lui	s11,0x48211

0000000080006f2c <i_6850>:
    80006f2c:	00180813          	addi	a6,a6,1
    80006f30:	ff04dce3          	ble	a6,s1,80006f28 <i_6849>

0000000080006f34 <i_6851>:
    80006f34:	03099833          	mulh	a6,s3,a6

0000000080006f38 <i_6852>:
    80006f38:	f9c14303          	lbu	t1,-100(sp)

0000000080006f3c <i_6853>:
    80006f3c:	e1c16083          	lwu	ra,-484(sp)

0000000080006f40 <i_6854>:
    80006f40:	1e810983          	lb	s3,488(sp)

0000000080006f44 <i_6855>:
    80006f44:	00209313          	slli	t1,ra,0x2

0000000080006f48 <i_6856>:
    80006f48:	00509c63          	bne	ra,t0,80006f60 <i_6862>

0000000080006f4c <i_6857>:
    80006f4c:	01000293          	li	t0,16

0000000080006f50 <i_6858>:
    80006f50:	0054d2bb          	srlw	t0,s1,t0

0000000080006f54 <i_6859>:
    80006f54:	18a11623          	sh	a0,396(sp)

0000000080006f58 <i_6860>:
    80006f58:	0330c0bb          	divw	ra,ra,s3

0000000080006f5c <i_6861>:
    80006f5c:	c830899b          	addiw	s3,ra,-893

0000000080006f60 <i_6862>:
    80006f60:	00630463          	beq	t1,t1,80006f68 <i_6864>

0000000080006f64 <i_6863>:
    80006f64:	f1012183          	lw	gp,-240(sp)

0000000080006f68 <i_6864>:
    80006f68:	00300313          	li	t1,3

0000000080006f6c <i_6865>:
    80006f6c:	4062d333          	sra	t1,t0,t1

0000000080006f70 <i_6866>:
    80006f70:	0292b2b3          	mulhu	t0,t0,s1

0000000080006f74 <i_6867>:
    80006f74:	0032929b          	slliw	t0,t0,0x3

0000000080006f78 <i_6868>:
    80006f78:	ef910d83          	lb	s11,-263(sp)

0000000080006f7c <i_6869>:
    80006f7c:	03b2a1b3          	mulhsu	gp,t0,s11

0000000080006f80 <i_6870>:
    80006f80:	028190b3          	mulh	ra,gp,s0

0000000080006f84 <i_6871>:
    80006f84:	f7211403          	lh	s0,-142(sp)

0000000080006f88 <i_6872>:
    80006f88:	40465e1b          	sraiw	t3,a2,0x4

0000000080006f8c <i_6873>:
    80006f8c:	10214603          	lbu	a2,258(sp)

0000000080006f90 <i_6874>:
    80006f90:	03300593          	li	a1,51

0000000080006f94 <i_6875>:
    80006f94:	00b459b3          	srl	s3,s0,a1

0000000080006f98 <i_6876>:
    80006f98:	02b0fabb          	remuw	s5,ra,a1

0000000080006f9c <i_6877>:
    80006f9c:	01700313          	li	t1,23

0000000080006fa0 <i_6878>:
    80006fa0:	0061953b          	sllw	a0,gp,t1

0000000080006fa4 <i_6879>:
    80006fa4:	02157463          	bleu	ra,a0,80006fcc <i_6889>

0000000080006fa8 <i_6880>:
    80006fa8:	8f61fb93          	andi	s7,gp,-1802

0000000080006fac <i_6881>:
    80006fac:	13711423          	sh	s7,296(sp)

0000000080006fb0 <i_6882>:
    80006fb0:	00130c63          	beq	t1,ra,80006fc8 <i_6888>

0000000080006fb4 <i_6883>:
    80006fb4:	f5c12c03          	lw	s8,-164(sp)

0000000080006fb8 <i_6884>:
    80006fb8:	e1f40637          	lui	a2,0xe1f40

0000000080006fbc <i_6885>:
    80006fbc:	01c00513          	li	a0,28

0000000080006fc0 <i_6886>:
    80006fc0:	00a15f3b          	srlw	t5,sp,a0

0000000080006fc4 <i_6887>:
    80006fc4:	f5011d03          	lh	s10,-176(sp)

0000000080006fc8 <i_6888>:
    80006fc8:	0db11123          	sh	s11,194(sp)

0000000080006fcc <i_6889>:
    80006fcc:	0081c433          	xor	s0,gp,s0

0000000080006fd0 <i_6890>:
    80006fd0:	ea112223          	sw	ra,-348(sp)

0000000080006fd4 <i_6891>:
    80006fd4:	ef511a23          	sh	s5,-268(sp)

0000000080006fd8 <i_6892>:
    80006fd8:	09511a23          	sh	s5,148(sp)

0000000080006fdc <i_6893>:
    80006fdc:	f7a13823          	sd	s10,-144(sp)

0000000080006fe0 <i_6894>:
    80006fe0:	035d5ab3          	divu	s5,s10,s5

0000000080006fe4 <i_6895>:
    80006fe4:	06810ea3          	sb	s0,125(sp)

0000000080006fe8 <i_6896>:
    80006fe8:	13a12e23          	sw	s10,316(sp)

0000000080006fec <i_6897>:
    80006fec:	f6811623          	sh	s0,-148(sp)

0000000080006ff0 <i_6898>:
    80006ff0:	41ad0a3b          	subw	s4,s10,s10

0000000080006ff4 <i_6899>:
    80006ff4:	01ad0e63          	beq	s10,s10,80007010 <i_6906>

0000000080006ff8 <i_6900>:
    80006ff8:	02746063          	bltu	s0,t2,80007018 <i_6908>

0000000080006ffc <i_6901>:
    80006ffc:	11016d03          	lwu	s10,272(sp)

0000000080007000 <i_6902>:
    80007000:	667d4d13          	xori	s10,s10,1639

0000000080007004 <i_6903>:
    80007004:	1dc16383          	lwu	t2,476(sp)

0000000080007008 <i_6904>:
    80007008:	14711423          	sh	t2,328(sp)

000000008000700c <i_6905>:
    8000700c:	034a4d3b          	divw	s10,s4,s4

0000000080007010 <i_6906>:
    80007010:	d668fd17          	auipc	s10,0xd668f

0000000080007014 <i_6907>:
    80007014:	f0013403          	ld	s0,-256(sp)

0000000080007018 <i_6908>:
    80007018:	e9013403          	ld	s0,-368(sp)

000000008000701c <i_6909>:
    8000701c:	87bece93          	xori	t4,t4,-1925

0000000080007020 <i_6910>:
    80007020:	09814a03          	lbu	s4,152(sp)

0000000080007024 <i_6911>:
    80007024:	02843b33          	mulhu	s6,s0,s0

0000000080007028 <i_6912>:
    80007028:	005a5663          	ble	t0,s4,80007034 <i_6915>

000000008000702c <i_6913>:
    8000702c:	f7412223          	sw	s4,-156(sp)

0000000080007030 <i_6914>:
    80007030:	e8813c23          	sd	s0,-360(sp)

0000000080007034 <i_6915>:
    80007034:	f2811b03          	lh	s6,-216(sp)

0000000080007038 <i_6916>:
    80007038:	f1411023          	sh	s4,-256(sp)

000000008000703c <i_6917>:
    8000703c:	00300b13          	li	s6,3

0000000080007040 <i_6918>:
    80007040:	016414bb          	sllw	s1,s0,s6

0000000080007044 <i_6919>:
    80007044:	0160d863          	ble	s6,ra,80007054 <i_6923>

0000000080007048 <i_6920>:
    80007048:	0023949b          	slliw	s1,t2,0x2

000000008000704c <i_6921>:
    8000704c:	036b5063          	ble	s6,s6,8000706c <i_6929>

0000000080007050 <i_6922>:
    80007050:	f0015a03          	lhu	s4,-256(sp)

0000000080007054 <i_6923>:
    80007054:	321a7b13          	andi	s6,s4,801

0000000080007058 <i_6924>:
    80007058:	01610823          	sb	s6,16(sp)

000000008000705c <i_6925>:
    8000705c:	0c015283          	lhu	t0,192(sp)

0000000080007060 <i_6926>:
    80007060:	fe211a03          	lh	s4,-30(sp)

0000000080007064 <i_6927>:
    80007064:	09d10823          	sb	t4,144(sp)

0000000080007068 <i_6928>:
    80007068:	0252f5bb          	remuw	a1,t0,t0

000000008000706c <i_6929>:
    8000706c:	00000013          	nop

0000000080007070 <i_6930>:
    80007070:	e94100a3          	sb	s4,-383(sp)

0000000080007074 <i_6931>:
    80007074:	82a00293          	li	t0,-2006

0000000080007078 <i_6932>:
    80007078:	83000b13          	li	s6,-2000

000000008000707c <i_6933>:
    8000707c:	0e610e83          	lb	t4,230(sp)

0000000080007080 <i_6934>:
    80007080:	fbd13823          	sd	t4,-80(sp)

0000000080007084 <i_6935>:
    80007084:	e9416303          	lwu	t1,-364(sp)

0000000080007088 <i_6936>:
    80007088:	0bc11d23          	sh	t3,186(sp)

000000008000708c <i_6937>:
    8000708c:	fec12e03          	lw	t3,-20(sp)

0000000080007090 <i_6938>:
    80007090:	01813023          	sd	s8,0(sp)

0000000080007094 <i_6939>:
    80007094:	41c30e33          	sub	t3,t1,t3

0000000080007098 <i_6940>:
    80007098:	004c1c13          	slli	s8,s8,0x4

000000008000709c <i_6941>:
    8000709c:	00128293          	addi	t0,t0,1
    800070a0:	fd629ee3          	bne	t0,s6,8000707c <i_6933>

00000000800070a4 <i_6942>:
    800070a4:	01ce7863          	bleu	t3,t3,800070b4 <i_6946>

00000000800070a8 <i_6943>:
    800070a8:	f1012e03          	lw	t3,-240(sp)

00000000800070ac <i_6944>:
    800070ac:	01ce4e63          	blt	t3,t3,800070c8 <i_6951>

00000000800070b0 <i_6945>:
    800070b0:	2c6c4d93          	xori	s11,s8,710

00000000800070b4 <i_6946>:
    800070b4:	13615e03          	lhu	t3,310(sp)

00000000800070b8 <i_6947>:
    800070b8:	024e4263          	blt	t3,tp,800070dc <i_6956>

00000000800070bc <i_6948>:
    800070bc:	03ce07bb          	mulw	a5,t3,t3

00000000800070c0 <i_6949>:
    800070c0:	08416b83          	lwu	s7,132(sp)

00000000800070c4 <i_6950>:
    800070c4:	00fe3bb3          	sltu	s7,t3,a5

00000000800070c8 <i_6951>:
    800070c8:	01f783b3          	add	t2,a5,t6

00000000800070cc <i_6952>:
    800070cc:	01ce6463          	bltu	t3,t3,800070d4 <i_6954>

00000000800070d0 <i_6953>:
    800070d0:	fdc10aa3          	sb	t3,-43(sp)

00000000800070d4 <i_6954>:
    800070d4:	03700413          	li	s0,55

00000000800070d8 <i_6955>:
    800070d8:	008b9e33          	sll	t3,s7,s0

00000000800070dc <i_6956>:
    800070dc:	f2810ca3          	sb	s0,-199(sp)

00000000800070e0 <i_6957>:
    800070e0:	008a6a33          	or	s4,s4,s0

00000000800070e4 <i_6958>:
    800070e4:	01e14a03          	lbu	s4,30(sp)

00000000800070e8 <i_6959>:
    800070e8:	e9011d83          	lh	s11,-368(sp)

00000000800070ec <i_6960>:
    800070ec:	00000013          	nop

00000000800070f0 <i_6961>:
    800070f0:	00000013          	nop

00000000800070f4 <i_6962>:
    800070f4:	7a100a13          	li	s4,1953

00000000800070f8 <i_6963>:
    800070f8:	7a700d13          	li	s10,1959

00000000800070fc <i_6964>:
    800070fc:	012d8663          	beq	s11,s2,80007108 <i_6967>

0000000080007100 <i_6965>:
    80007100:	034d8463          	beq	s11,s4,80007128 <i_6975>

0000000080007104 <i_6966>:
    80007104:	13ca2593          	slti	a1,s4,316

0000000080007108 <i_6967>:
    80007108:	fc314c83          	lbu	s9,-61(sp)

000000008000710c <i_6968>:
    8000710c:	00e00a93          	li	s5,14

0000000080007110 <i_6969>:
    80007110:	015c9ab3          	sll	s5,s9,s5

0000000080007114 <i_6970>:
    80007114:	e7b10d83          	lb	s11,-389(sp)

0000000080007118 <i_6971>:
    80007118:	02416f03          	lwu	t5,36(sp)

000000008000711c <i_6972>:
    8000711c:	efe13823          	sd	t5,-272(sp)

0000000080007120 <i_6973>:
    80007120:	00375313          	srli	t1,a4,0x3

0000000080007124 <i_6974>:
    80007124:	01900693          	li	a3,25

0000000080007128 <i_6975>:
    80007128:	00da5533          	srl	a0,s4,a3

000000008000712c <i_6976>:
    8000712c:	16214f03          	lbu	t5,354(sp)

0000000080007130 <i_6977>:
    80007130:	001a0a13          	addi	s4,s4,1 # 7fe37a71 <main-0x1c858f>
    80007134:	fdaa64e3          	bltu	s4,s10,800070fc <i_6964>

0000000080007138 <i_6978>:
    80007138:	01215503          	lhu	a0,18(sp)

000000008000713c <i_6979>:
    8000713c:	034f1463          	bne	t5,s4,80007164 <i_6989>

0000000080007140 <i_6980>:
    80007140:	05e11c23          	sh	t5,88(sp)

0000000080007144 <i_6981>:
    80007144:	01e6dc63          	ble	t5,a3,8000715c <i_6987>

0000000080007148 <i_6982>:
    80007148:	02af6063          	bltu	t5,a0,80007168 <i_6990>

000000008000714c <i_6983>:
    8000714c:	1b812603          	lw	a2,440(sp)

0000000080007150 <i_6984>:
    80007150:	e1e10403          	lb	s0,-482(sp)

0000000080007154 <i_6985>:
    80007154:	01813303          	ld	t1,24(sp)

0000000080007158 <i_6986>:
    80007158:	1ca12823          	sw	a0,464(sp)

000000008000715c <i_6987>:
    8000715c:	e3e13c23          	sd	t5,-456(sp)

0000000080007160 <i_6988>:
    80007160:	10013503          	ld	a0,256(sp)

0000000080007164 <i_6989>:
    80007164:	01e6d263          	ble	t5,a3,80007168 <i_6990>

0000000080007168 <i_6990>:
    80007168:	4bcf2f13          	slti	t5,t5,1212

000000008000716c <i_6991>:
    8000716c:	00637e63          	bleu	t1,t1,80007188 <i_6998>

0000000080007170 <i_6992>:
    80007170:	006e7263          	bleu	t1,t3,80007174 <i_6993>

0000000080007174 <i_6993>:
    80007174:	0f813b03          	ld	s6,248(sp)

0000000080007178 <i_6994>:
    80007178:	02d706b3          	mul	a3,a4,a3

000000008000717c <i_6995>:
    8000717c:	1d012683          	lw	a3,464(sp)

0000000080007180 <i_6996>:
    80007180:	02d696b3          	mulh	a3,a3,a3

0000000080007184 <i_6997>:
    80007184:	e4d11d23          	sh	a3,-422(sp)

0000000080007188 <i_6998>:
    80007188:	02d6f6bb          	remuw	a3,a3,a3

000000008000718c <i_6999>:
    8000718c:	1cd13c23          	sd	a3,472(sp)

0000000080007190 <i_7000>:
    80007190:	0c012683          	lw	a3,192(sp)

0000000080007194 <i_7001>:
    80007194:	14d106a3          	sb	a3,333(sp)

0000000080007198 <i_7002>:
    80007198:	ec013303          	ld	t1,-320(sp)

000000008000719c <i_7003>:
    8000719c:	01c9c6b3          	xor	a3,s3,t3

00000000800071a0 <i_7004>:
    800071a0:	02015e83          	lhu	t4,32(sp)

00000000800071a4 <i_7005>:
    800071a4:	003eda13          	srli	s4,t4,0x3

00000000800071a8 <i_7006>:
    800071a8:	1e611a03          	lh	s4,486(sp)

00000000800071ac <i_7007>:
    800071ac:	03690533          	mul	a0,s2,s6

00000000800071b0 <i_7008>:
    800071b0:	003d9b9b          	slliw	s7,s11,0x3

00000000800071b4 <i_7009>:
    800071b4:	76c00b13          	li	s6,1900

00000000800071b8 <i_7010>:
    800071b8:	76f00c93          	li	s9,1903

00000000800071bc <i_7011>:
    800071bc:	016f8463          	beq	t6,s6,800071c4 <i_7013>

00000000800071c0 <i_7012>:
    800071c0:	00000013          	nop

00000000800071c4 <i_7013>:
    800071c4:	f8012503          	lw	a0,-128(sp)

00000000800071c8 <i_7014>:
    800071c8:	00000013          	nop

00000000800071cc <i_7015>:
    800071cc:	00000013          	nop

00000000800071d0 <i_7016>:
    800071d0:	001b0b13          	addi	s6,s6,1
    800071d4:	ff9b14e3          	bne	s6,s9,800071bc <i_7011>

00000000800071d8 <i_7017>:
    800071d8:	01c15a03          	lhu	s4,28(sp)

00000000800071dc <i_7018>:
    800071dc:	015a5663          	ble	s5,s4,800071e8 <i_7021>

00000000800071e0 <i_7019>:
    800071e0:	1dc12083          	lw	ra,476(sp)

00000000800071e4 <i_7020>:
    800071e4:	00195993          	srli	s3,s2,0x1

00000000800071e8 <i_7021>:
    800071e8:	003a509b          	srliw	ra,s4,0x3

00000000800071ec <i_7022>:
    800071ec:	001a5463          	ble	ra,s4,800071f4 <i_7024>

00000000800071f0 <i_7023>:
    800071f0:	00109a13          	slli	s4,ra,0x1

00000000800071f4 <i_7024>:
    800071f4:	b779b093          	sltiu	ra,s3,-1161

00000000800071f8 <i_7025>:
    800071f8:	40198f3b          	subw	t5,s3,ra

00000000800071fc <i_7026>:
    800071fc:	f1e11083          	lh	ra,-226(sp)

0000000080007200 <i_7027>:
    80007200:	16614e03          	lbu	t3,358(sp)

0000000080007204 <i_7028>:
    80007204:	0216063b          	mulw	a2,a2,ra

0000000080007208 <i_7029>:
    80007208:	1ac16083          	lwu	ra,428(sp)

000000008000720c <i_7030>:
    8000720c:	0ca11083          	lh	ra,202(sp)

0000000080007210 <i_7031>:
    80007210:	0060f0b3          	and	ra,ra,t1

0000000080007214 <i_7032>:
    80007214:	0040d61b          	srliw	a2,ra,0x4

0000000080007218 <i_7033>:
    80007218:	e6812083          	lw	ra,-408(sp)

000000008000721c <i_7034>:
    8000721c:	02165463          	ble	ra,a2,80007244 <i_7044>

0000000080007220 <i_7035>:
    80007220:	f1710983          	lb	s3,-233(sp)

0000000080007224 <i_7036>:
    80007224:	03a65463          	ble	s10,a2,8000724c <i_7046>

0000000080007228 <i_7037>:
    80007228:	0260d33b          	divuw	t1,ra,t1

000000008000722c <i_7038>:
    8000722c:	0040dc9b          	srliw	s9,ra,0x4

0000000080007230 <i_7039>:
    80007230:	411f8333          	sub	t1,t6,a7

0000000080007234 <i_7040>:
    80007234:	41360e3b          	subw	t3,a2,s3

0000000080007238 <i_7041>:
    80007238:	f4215e03          	lhu	t3,-190(sp)

000000008000723c <i_7042>:
    8000723c:	09410383          	lb	t2,148(sp)

0000000080007240 <i_7043>:
    80007240:	faf14383          	lbu	t2,-81(sp)

0000000080007244 <i_7044>:
    80007244:	e2212223          	sw	sp,-476(sp)

0000000080007248 <i_7045>:
    80007248:	96c32a93          	slti	s5,t1,-1684

000000008000724c <i_7046>:
    8000724c:	fac107a3          	sb	a2,-81(sp)

0000000080007250 <i_7047>:
    80007250:	2bb3c613          	xori	a2,t2,699

0000000080007254 <i_7048>:
    80007254:	84b00a13          	li	s4,-1973

0000000080007258 <i_7049>:
    80007258:	84d00193          	li	gp,-1971

000000008000725c <i_7050>:
    8000725c:	1d710983          	lb	s3,471(sp)

0000000080007260 <i_7051>:
    80007260:	d0a8cc13          	xori	s8,a7,-758

0000000080007264 <i_7052>:
    80007264:	f5011983          	lh	s3,-176(sp)

0000000080007268 <i_7053>:
    80007268:	0159c263          	blt	s3,s5,8000726c <i_7054>

000000008000726c <i_7054>:
    8000726c:	02c3f233          	remu	tp,t2,a2

0000000080007270 <i_7055>:
    80007270:	0f511323          	sh	s5,230(sp)

0000000080007274 <i_7056>:
    80007274:	efa15403          	lhu	s0,-262(sp)

0000000080007278 <i_7057>:
    80007278:	0f0c7693          	andi	a3,s8,240

000000008000727c <i_7058>:
    8000727c:	001a0a13          	addi	s4,s4,1
    80007280:	fc3a6ee3          	bltu	s4,gp,8000725c <i_7050>

0000000080007284 <i_7059>:
    80007284:	0a210403          	lb	s0,162(sp)

0000000080007288 <i_7060>:
    80007288:	00c46e63          	bltu	s0,a2,800072a4 <i_7067>

000000008000728c <i_7061>:
    8000728c:	02744463          	blt	s0,t2,800072b4 <i_7071>

0000000080007290 <i_7062>:
    80007290:	ec813a83          	ld	s5,-312(sp)

0000000080007294 <i_7063>:
    80007294:	028c5263          	ble	s0,s8,800072b8 <i_7072>

0000000080007298 <i_7064>:
    80007298:	14412603          	lw	a2,324(sp)

000000008000729c <i_7065>:
    8000729c:	f1810723          	sb	s8,-242(sp)

00000000800072a0 <i_7066>:
    800072a0:	00c4ec63          	bltu	s1,a2,800072b8 <i_7072>

00000000800072a4 <i_7067>:
    800072a4:	0033df13          	srli	t5,t2,0x3

00000000800072a8 <i_7068>:
    800072a8:	00a10c03          	lb	s8,10(sp)

00000000800072ac <i_7069>:
    800072ac:	03b7b7b3          	mulhu	a5,a5,s11

00000000800072b0 <i_7070>:
    800072b0:	03ec0263          	beq	s8,t5,800072d4 <i_7079>

00000000800072b4 <i_7071>:
    800072b4:	e8816d03          	lwu	s10,-376(sp)

00000000800072b8 <i_7072>:
    800072b8:	00100d13          	li	s10,1

00000000800072bc <i_7073>:
    800072bc:	01af59bb          	srlw	s3,t5,s10

00000000800072c0 <i_7074>:
    800072c0:	033f4f3b          	divw	t5,t5,s3

00000000800072c4 <i_7075>:
    800072c4:	11a11223          	sh	s10,260(sp)

00000000800072c8 <i_7076>:
    800072c8:	03010f03          	lb	t5,48(sp)

00000000800072cc <i_7077>:
    800072cc:	00000013          	nop

00000000800072d0 <i_7078>:
    800072d0:	01ef39b3          	sltu	s3,t5,t5

00000000800072d4 <i_7079>:
    800072d4:	19816c83          	lwu	s9,408(sp)

00000000800072d8 <i_7080>:
    800072d8:	1be11023          	sh	t5,416(sp)

00000000800072dc <i_7081>:
    800072dc:	86000213          	li	tp,-1952

00000000800072e0 <i_7082>:
    800072e0:	86a00c13          	li	s8,-1942

00000000800072e4 <i_7083>:
    800072e4:	00000013          	nop

00000000800072e8 <i_7084>:
    800072e8:	f7713023          	sd	s7,-160(sp)

00000000800072ec <i_7085>:
    800072ec:	1d013583          	ld	a1,464(sp)

00000000800072f0 <i_7086>:
    800072f0:	00120213          	addi	tp,tp,1 # 56defdbd <main-0x29210243>
    800072f4:	fe4c78e3          	bleu	tp,s8,800072e4 <i_7083>

00000000800072f8 <i_7087>:
    800072f8:	0399d463          	ble	s9,s3,80007320 <i_7097>

00000000800072fc <i_7088>:
    800072fc:	f8b11823          	sh	a1,-112(sp)

0000000080007300 <i_7089>:
    80007300:	f9911623          	sh	s9,-116(sp)

0000000080007304 <i_7090>:
    80007304:	f4414503          	lbu	a0,-188(sp)

0000000080007308 <i_7091>:
    80007308:	f9415d83          	lhu	s11,-108(sp)

000000008000730c <i_7092>:
    8000730c:	05a11803          	lh	a6,90(sp)

0000000080007310 <i_7093>:
    80007310:	02958263          	beq	a1,s1,80007334 <i_7102>

0000000080007314 <i_7094>:
    80007314:	fde11523          	sh	t5,-54(sp)

0000000080007318 <i_7095>:
    80007318:	03bf7063          	bleu	s11,t5,80007338 <i_7103>

000000008000731c <i_7096>:
    8000731c:	00af4e63          	blt	t5,a0,80007338 <i_7103>

0000000080007320 <i_7097>:
    80007320:	01c87833          	and	a6,a6,t3

0000000080007324 <i_7098>:
    80007324:	09b11123          	sh	s11,130(sp)

0000000080007328 <i_7099>:
    80007328:	1bc13823          	sd	t3,432(sp)

000000008000732c <i_7100>:
    8000732c:	efc15803          	lhu	a6,-260(sp)

0000000080007330 <i_7101>:
    80007330:	0a410c83          	lb	s9,164(sp)

0000000080007334 <i_7102>:
    80007334:	00000013          	nop

0000000080007338 <i_7103>:
    80007338:	01700513          	li	a0,23

000000008000733c <i_7104>:
    8000733c:	40a1d1bb          	sraw	gp,gp,a0

0000000080007340 <i_7105>:
    80007340:	75100e13          	li	t3,1873

0000000080007344 <i_7106>:
    80007344:	76300d93          	li	s11,1891

0000000080007348 <i_7107>:
    80007348:	01918cb3          	add	s9,gp,s9

000000008000734c <i_7108>:
    8000734c:	b7080b9b          	addiw	s7,a6,-1168

0000000080007350 <i_7109>:
    80007350:	03984263          	blt	a6,s9,80007374 <i_7117>

0000000080007354 <i_7110>:
    80007354:	001e0e13          	addi	t3,t3,1
    80007358:	ffbe48e3          	blt	t3,s11,80007348 <i_7107>

000000008000735c <i_7111>:
    8000735c:	e8a13823          	sd	a0,-368(sp)

0000000080007360 <i_7112>:
    80007360:	0b013e03          	ld	t3,176(sp)

0000000080007364 <i_7113>:
    80007364:	f2c16e03          	lwu	t3,-212(sp)

0000000080007368 <i_7114>:
    80007368:	f3e15e03          	lhu	t3,-194(sp)

000000008000736c <i_7115>:
    8000736c:	039e3eb3          	mulhu	t4,t3,s9

0000000080007370 <i_7116>:
    80007370:	01c16483          	lwu	s1,28(sp)

0000000080007374 <i_7117>:
    80007374:	fbd13823          	sd	t4,-80(sp)

0000000080007378 <i_7118>:
    80007378:	e2913823          	sd	s1,-464(sp)

000000008000737c <i_7119>:
    8000737c:	8404f493          	andi	s1,s1,-1984

0000000080007380 <i_7120>:
    80007380:	fbc11283          	lh	t0,-68(sp)

0000000080007384 <i_7121>:
    80007384:	005ec663          	blt	t4,t0,80007390 <i_7124>

0000000080007388 <i_7122>:
    80007388:	01813583          	ld	a1,24(sp)

000000008000738c <i_7123>:
    8000738c:	01200693          	li	a3,18

0000000080007390 <i_7124>:
    80007390:	00d2de3b          	srlw	t3,t0,a3

0000000080007394 <i_7125>:
    80007394:	fc011a03          	lh	s4,-64(sp)

0000000080007398 <i_7126>:
    80007398:	fdb14e03          	lbu	t3,-37(sp)

000000008000739c <i_7127>:
    8000739c:	e5014203          	lbu	tp,-432(sp)

00000000800073a0 <i_7128>:
    800073a0:	00000013          	nop

00000000800073a4 <i_7129>:
    800073a4:	8b500293          	li	t0,-1867

00000000800073a8 <i_7130>:
    800073a8:	8b700e13          	li	t3,-1865

00000000800073ac <i_7131>:
    800073ac:	f7611603          	lh	a2,-138(sp)

00000000800073b0 <i_7132>:
    800073b0:	f24109a3          	sb	tp,-205(sp)

00000000800073b4 <i_7133>:
    800073b4:	02c2623b          	remw	tp,tp,a2

00000000800073b8 <i_7134>:
    800073b8:	00000013          	nop

00000000800073bc <i_7135>:
    800073bc:	ebf14203          	lbu	tp,-321(sp)

00000000800073c0 <i_7136>:
    800073c0:	0d816203          	lwu	tp,216(sp)

00000000800073c4 <i_7137>:
    800073c4:	01200793          	li	a5,18

00000000800073c8 <i_7138>:
    800073c8:	00f2123b          	sllw	tp,tp,a5

00000000800073cc <i_7139>:
    800073cc:	14413823          	sd	tp,336(sp)

00000000800073d0 <i_7140>:
    800073d0:	00128293          	addi	t0,t0,1
    800073d4:	fdc29ce3          	bne	t0,t3,800073ac <i_7131>

00000000800073d8 <i_7141>:
    800073d8:	00000013          	nop

00000000800073dc <i_7142>:
    800073dc:	e6012a83          	lw	s5,-416(sp)

00000000800073e0 <i_7143>:
    800073e0:	76000213          	li	tp,1888

00000000800073e4 <i_7144>:
    800073e4:	76d00793          	li	a5,1901

00000000800073e8 <i_7145>:
    800073e8:	e7a14a83          	lbu	s5,-390(sp)

00000000800073ec <i_7146>:
    800073ec:	0aa11a83          	lh	s5,170(sp)

00000000800073f0 <i_7147>:
    800073f0:	02426dbb          	remw	s11,tp,tp

00000000800073f4 <i_7148>:
    800073f4:	1d013a83          	ld	s5,464(sp)

00000000800073f8 <i_7149>:
    800073f8:	004d8e63          	beq	s11,tp,80007414 <i_7155>

00000000800073fc <i_7150>:
    800073fc:	e3511c23          	sh	s5,-456(sp)

0000000080007400 <i_7151>:
    80007400:	00120213          	addi	tp,tp,1 # 1 <main-0x7fffffff>
    80007404:	fef242e3          	blt	tp,a5,800073e8 <i_7145>

0000000080007408 <i_7152>:
    80007408:	004dfc63          	bleu	tp,s11,80007420 <i_7158>

000000008000740c <i_7153>:
    8000740c:	16013203          	ld	tp,352(sp)

0000000080007410 <i_7154>:
    80007410:	17012503          	lw	a0,368(sp)

0000000080007414 <i_7155>:
    80007414:	00423233          	sltu	tp,tp,tp

0000000080007418 <i_7156>:
    80007418:	02f24bbb          	divw	s7,tp,a5

000000008000741c <i_7157>:
    8000741c:	ea622513          	slti	a0,tp,-346

0000000080007420 <i_7158>:
    80007420:	003decb3          	or	s9,s11,gp

0000000080007424 <i_7159>:
    80007424:	fd412a83          	lw	s5,-44(sp)

0000000080007428 <i_7160>:
    80007428:	0151c263          	blt	gp,s5,8000742c <i_7161>

000000008000742c <i_7161>:
    8000742c:	ff214183          	lbu	gp,-14(sp)

0000000080007430 <i_7162>:
    80007430:	08f10183          	lb	gp,143(sp)

0000000080007434 <i_7163>:
    80007434:	023c6c3b          	remw	s8,s8,gp

0000000080007438 <i_7164>:
    80007438:	379022b7          	lui	t0,0x37902

000000008000743c <i_7165>:
    8000743c:	418281b3          	sub	gp,t0,s8

0000000080007440 <i_7166>:
    80007440:	1de15e03          	lhu	t3,478(sp)

0000000080007444 <i_7167>:
    80007444:	f3412503          	lw	a0,-204(sp)

0000000080007448 <i_7168>:
    80007448:	01c12483          	lw	s1,28(sp)

000000008000744c <i_7169>:
    8000744c:	025ae063          	bltu	s5,t0,8000746c <i_7177>

0000000080007450 <i_7170>:
    80007450:	01ac0263          	beq	s8,s10,80007454 <i_7171>

0000000080007454 <i_7171>:
    80007454:	00954863          	blt	a0,s1,80007464 <i_7175>

0000000080007458 <i_7172>:
    80007458:	12c12d83          	lw	s11,300(sp)

000000008000745c <i_7173>:
    8000745c:	01c2fc33          	and	s8,t0,t3

0000000080007460 <i_7174>:
    80007460:	709f0a97          	auipc	s5,0x709f0

0000000080007464 <i_7175>:
    80007464:	0124c663          	blt	s1,s2,80007470 <i_7178>

0000000080007468 <i_7176>:
    80007468:	e1e11283          	lh	t0,-482(sp)

000000008000746c <i_7177>:
    8000746c:	e9410203          	lb	tp,-364(sp)

0000000080007470 <i_7178>:
    80007470:	024e3db3          	mulhu	s11,t3,tp

0000000080007474 <i_7179>:
    80007474:	f7b11223          	sh	s11,-156(sp)

0000000080007478 <i_7180>:
    80007478:	f7c11e23          	sh	t3,-132(sp)

000000008000747c <i_7181>:
    8000747c:	ebc12a23          	sw	t3,-332(sp)

0000000080007480 <i_7182>:
    80007480:	8c500d93          	li	s11,-1851

0000000080007484 <i_7183>:
    80007484:	8d900e13          	li	t3,-1831

0000000080007488 <i_7184>:
    80007488:	034dfa33          	remu	s4,s11,s4

000000008000748c <i_7185>:
    8000748c:	e3013583          	ld	a1,-464(sp)

0000000080007490 <i_7186>:
    80007490:	fbf10c83          	lb	s9,-65(sp)

0000000080007494 <i_7187>:
    80007494:	0c013d03          	ld	s10,192(sp)

0000000080007498 <i_7188>:
    80007498:	e7415483          	lhu	s1,-396(sp)

000000008000749c <i_7189>:
    8000749c:	001d8d93          	addi	s11,s11,1 # 48211001 <main-0x37deefff>
    800074a0:	ffbe54e3          	ble	s11,t3,80007488 <i_7184>

00000000800074a4 <i_7190>:
    800074a4:	02449f33          	mulh	t5,s1,tp

00000000800074a8 <i_7191>:
    800074a8:	02013c83          	ld	s9,32(sp)

00000000800074ac <i_7192>:
    800074ac:	0244823b          	mulw	tp,s1,tp

00000000800074b0 <i_7193>:
    800074b0:	f6813383          	ld	t2,-152(sp)

00000000800074b4 <i_7194>:
    800074b4:	00ca7633          	and	a2,s4,a2

00000000800074b8 <i_7195>:
    800074b8:	15016203          	lwu	tp,336(sp)

00000000800074bc <i_7196>:
    800074bc:	08913423          	sd	s1,136(sp)

00000000800074c0 <i_7197>:
    800074c0:	01081463          	bne	a6,a6,800074c8 <i_7199>

00000000800074c4 <i_7198>:
    800074c4:	eb013303          	ld	t1,-336(sp)

00000000800074c8 <i_7199>:
    800074c8:	00000013          	nop

00000000800074cc <i_7200>:
    800074cc:	0cb10383          	lb	t2,203(sp)

00000000800074d0 <i_7201>:
    800074d0:	8c100613          	li	a2,-1855

00000000800074d4 <i_7202>:
    800074d4:	8d000493          	li	s1,-1840

00000000800074d8 <i_7203>:
    800074d8:	e8713023          	sd	t2,-384(sp)

00000000800074dc <i_7204>:
    800074dc:	02628263          	beq	t0,t1,80007500 <i_7212>

00000000800074e0 <i_7205>:
    800074e0:	fc011303          	lh	t1,-64(sp)

00000000800074e4 <i_7206>:
    800074e4:	fa214183          	lbu	gp,-94(sp)

00000000800074e8 <i_7207>:
    800074e8:	00c00c93          	li	s9,12

00000000800074ec <i_7208>:
    800074ec:	0196533b          	srlw	t1,a2,s9

00000000800074f0 <i_7209>:
    800074f0:	00160613          	addi	a2,a2,1 # ffffffffe1f40001 <_end+0xffffffff61f2fbed>
    800074f4:	fe9612e3          	bne	a2,s1,800074d8 <i_7203>

00000000800074f8 <i_7210>:
    800074f8:	0021db9b          	srliw	s7,gp,0x2

00000000800074fc <i_7211>:
    800074fc:	f6713423          	sd	t2,-152(sp)

0000000080007500 <i_7212>:
    80007500:	e58107a3          	sb	s8,-433(sp)

0000000080007504 <i_7213>:
    80007504:	e0c37193          	andi	gp,t1,-500

0000000080007508 <i_7214>:
    80007508:	1b710183          	lb	gp,439(sp)

000000008000750c <i_7215>:
    8000750c:	13c12c03          	lw	s8,316(sp)

0000000080007510 <i_7216>:
    80007510:	023c6c33          	rem	s8,s8,gp

0000000080007514 <i_7217>:
    80007514:	15812f03          	lw	t5,344(sp)

0000000080007518 <i_7218>:
    80007518:	403f5a13          	srai	s4,t5,0x3

000000008000751c <i_7219>:
    8000751c:	00371863          	bne	a4,gp,8000752c <i_7223>

0000000080007520 <i_7220>:
    80007520:	e2813f03          	ld	t5,-472(sp)

0000000080007524 <i_7221>:
    80007524:	8d6a6193          	ori	gp,s4,-1834

0000000080007528 <i_7222>:
    80007528:	023f2d33          	mulhsu	s10,t5,gp

000000008000752c <i_7223>:
    8000752c:	f3714a03          	lbu	s4,-201(sp)

0000000080007530 <i_7224>:
    80007530:	01aa34b3          	sltu	s1,s4,s10

0000000080007534 <i_7225>:
    80007534:	00f00593          	li	a1,15

0000000080007538 <i_7226>:
    80007538:	40b5553b          	sraw	a0,a0,a1

000000008000753c <i_7227>:
    8000753c:	01359a63          	bne	a1,s3,80007550 <i_7232>

0000000080007540 <i_7228>:
    80007540:	0c411503          	lh	a0,196(sp)

0000000080007544 <i_7229>:
    80007544:	00a5a833          	slt	a6,a1,a0

0000000080007548 <i_7230>:
    80007548:	f3c15583          	lhu	a1,-196(sp)

000000008000754c <i_7231>:
    8000754c:	00485a9b          	srliw	s5,a6,0x4

0000000080007550 <i_7232>:
    80007550:	02b8483b          	divw	a6,a6,a1

0000000080007554 <i_7233>:
    80007554:	ea813803          	ld	a6,-344(sp)

0000000080007558 <i_7234>:
    80007558:	0eb11e23          	sh	a1,252(sp)

000000008000755c <i_7235>:
    8000755c:	44caa513          	slti	a0,s5,1100

0000000080007560 <i_7236>:
    80007560:	96f5819b          	addiw	gp,a1,-1681

0000000080007564 <i_7237>:
    80007564:	00000013          	nop

0000000080007568 <i_7238>:
    80007568:	e5016183          	lwu	gp,-432(sp)

000000008000756c <i_7239>:
    8000756c:	74500293          	li	t0,1861

0000000080007570 <i_7240>:
    80007570:	75100813          	li	a6,1873

0000000080007574 <i_7241>:
    80007574:	0232c63b          	divw	a2,t0,gp

0000000080007578 <i_7242>:
    80007578:	0b13f393          	andi	t2,t2,177

000000008000757c <i_7243>:
    8000757c:	0a649497          	auipc	s1,0xa649

0000000080007580 <i_7244>:
    80007580:	0021d21b          	srliw	tp,gp,0x2

0000000080007584 <i_7245>:
    80007584:	18112e23          	sw	ra,412(sp)

0000000080007588 <i_7246>:
    80007588:	00215083          	lhu	ra,2(sp)

000000008000758c <i_7247>:
    8000758c:	e2111c23          	sh	ra,-456(sp)

0000000080007590 <i_7248>:
    80007590:	0240f263          	bleu	tp,ra,800075b4 <i_7256>

0000000080007594 <i_7249>:
    80007594:	012f4f33          	xor	t5,t5,s2

0000000080007598 <i_7250>:
    80007598:	05013203          	ld	tp,80(sp)

000000008000759c <i_7251>:
    8000759c:	00128293          	addi	t0,t0,1 # 37902001 <main-0x486fdfff>
    800075a0:	fd029ae3          	bne	t0,a6,80007574 <i_7241>

00000000800075a4 <i_7252>:
    800075a4:	f5a11a03          	lh	s4,-166(sp)

00000000800075a8 <i_7253>:
    800075a8:	10c14403          	lbu	s0,268(sp)

00000000800075ac <i_7254>:
    800075ac:	01f00613          	li	a2,31

00000000800075b0 <i_7255>:
    800075b0:	40c4523b          	sraw	tp,s0,a2

00000000800075b4 <i_7256>:
    800075b4:	01e9f663          	bleu	t5,s3,800075c0 <i_7259>

00000000800075b8 <i_7257>:
    800075b8:	fc1a069b          	addiw	a3,s4,-63

00000000800075bc <i_7258>:
    800075bc:	00ba0263          	beq	s4,a1,800075c0 <i_7259>

00000000800075c0 <i_7259>:
    800075c0:	008f70b3          	and	ra,t5,s0

00000000800075c4 <i_7260>:
    800075c4:	f3c14683          	lbu	a3,-196(sp)

00000000800075c8 <i_7261>:
    800075c8:	00637e63          	bleu	t1,t1,800075e4 <i_7268>

00000000800075cc <i_7262>:
    800075cc:	00000013          	nop

00000000800075d0 <i_7263>:
    800075d0:	15611683          	lh	a3,342(sp)

00000000800075d4 <i_7264>:
    800075d4:	03c34e3b          	divw	t3,t1,t3

00000000800075d8 <i_7265>:
    800075d8:	f2d6fe93          	andi	t4,a3,-211

00000000800075dc <i_7266>:
    800075dc:	02def833          	remu	a6,t4,a3

00000000800075e0 <i_7267>:
    800075e0:	00000013          	nop

00000000800075e4 <i_7268>:
    800075e4:	e4613c23          	sd	t1,-424(sp)

00000000800075e8 <i_7269>:
    800075e8:	00f86833          	or	a6,a6,a5

00000000800075ec <i_7270>:
    800075ec:	86a00793          	li	a5,-1942

00000000800075f0 <i_7271>:
    800075f0:	87200313          	li	t1,-1934

00000000800075f4 <i_7272>:
    800075f4:	eec10603          	lb	a2,-276(sp)

00000000800075f8 <i_7273>:
    800075f8:	0e014803          	lbu	a6,224(sp)

00000000800075fc <i_7274>:
    800075fc:	fb813083          	ld	ra,-72(sp)

0000000080007600 <i_7275>:
    80007600:	0300d3b3          	divu	t2,ra,a6

0000000080007604 <i_7276>:
    80007604:	f0611b23          	sh	t1,-234(sp)

0000000080007608 <i_7277>:
    80007608:	06c12623          	sw	a2,108(sp)

000000008000760c <i_7278>:
    8000760c:	08016803          	lwu	a6,128(sp)

0000000080007610 <i_7279>:
    80007610:	fa713423          	sd	t2,-88(sp)

0000000080007614 <i_7280>:
    80007614:	0073f6b3          	and	a3,t2,t2

0000000080007618 <i_7281>:
    80007618:	0273e3b3          	rem	t2,t2,t2

000000008000761c <i_7282>:
    8000761c:	00178793          	addi	a5,a5,1
    80007620:	fcf37ae3          	bleu	a5,t1,800075f4 <i_7272>

0000000080007624 <i_7283>:
    80007624:	3953ca93          	xori	s5,t2,917

0000000080007628 <i_7284>:
    80007628:	2886fa13          	andi	s4,a3,648

000000008000762c <i_7285>:
    8000762c:	00d107a3          	sb	a3,15(sp)

0000000080007630 <i_7286>:
    80007630:	05a11d03          	lh	s10,90(sp)

0000000080007634 <i_7287>:
    80007634:	01c15783          	lhu	a5,28(sp)

0000000080007638 <i_7288>:
    80007638:	02da1263          	bne	s4,a3,8000765c <i_7297>

000000008000763c <i_7289>:
    8000763c:	eac15403          	lhu	s0,-340(sp)

0000000080007640 <i_7290>:
    80007640:	18811983          	lh	s3,392(sp)

0000000080007644 <i_7291>:
    80007644:	014af463          	bleu	s4,s5,8000764c <i_7293>

0000000080007648 <i_7292>:
    80007648:	034a7263          	bleu	s4,s4,8000766c <i_7301>

000000008000764c <i_7293>:
    8000764c:	413a0a3b          	subw	s4,s4,s3

0000000080007650 <i_7294>:
    80007650:	0349f063          	bleu	s4,s3,80007670 <i_7302>

0000000080007654 <i_7295>:
    80007654:	00847c63          	bleu	s0,s0,8000766c <i_7301>

0000000080007658 <i_7296>:
    80007658:	fe812403          	lw	s0,-24(sp)

000000008000765c <i_7297>:
    8000765c:	02820063          	beq	tp,s0,8000767c <i_7305>

0000000080007660 <i_7298>:
    80007660:	03100f13          	li	t5,49

0000000080007664 <i_7299>:
    80007664:	01ea5a33          	srl	s4,s4,t5

0000000080007668 <i_7300>:
    80007668:	0d710203          	lb	tp,215(sp)

000000008000766c <i_7301>:
    8000766c:	028696b3          	mulh	a3,a3,s0

0000000080007670 <i_7302>:
    80007670:	02d3b1b3          	mulhu	gp,t2,a3

0000000080007674 <i_7303>:
    80007674:	004cdb1b          	srliw	s6,s9,0x4

0000000080007678 <i_7304>:
    80007678:	08c12b03          	lw	s6,140(sp)

000000008000767c <i_7305>:
    8000767c:	00000013          	nop

0000000080007680 <i_7306>:
    80007680:	01700213          	li	tp,23

0000000080007684 <i_7307>:
    80007684:	0042123b          	sllw	tp,tp,tp

0000000080007688 <i_7308>:
    80007688:	76500413          	li	s0,1893

000000008000768c <i_7309>:
    8000768c:	77700393          	li	t2,1911

0000000080007690 <i_7310>:
    80007690:	00140413          	addi	s0,s0,1
    80007694:	fe83fce3          	bleu	s0,t2,8000768c <i_7309>

0000000080007698 <i_7311>:
    80007698:	efc14683          	lbu	a3,-260(sp)

000000008000769c <i_7312>:
    8000769c:	0ee14683          	lbu	a3,238(sp)

00000000800076a0 <i_7313>:
    800076a0:	f3612e23          	sw	s6,-196(sp)

00000000800076a4 <i_7314>:
    800076a4:	05613423          	sd	s6,72(sp)

00000000800076a8 <i_7315>:
    800076a8:	416203b3          	sub	t2,tp,s6

00000000800076ac <i_7316>:
    800076ac:	a4d816b7          	lui	a3,0xa4d81

00000000800076b0 <i_7317>:
    800076b0:	084100a3          	sb	tp,129(sp)

00000000800076b4 <i_7318>:
    800076b4:	0243b7b3          	mulhu	a5,t2,tp

00000000800076b8 <i_7319>:
    800076b8:	8a3cdb17          	auipc	s6,0x8a3cd

00000000800076bc <i_7320>:
    800076bc:	00a00d13          	li	s10,10

00000000800076c0 <i_7321>:
    800076c0:	41a6563b          	sraw	a2,a2,s10

00000000800076c4 <i_7322>:
    800076c4:	09615a03          	lhu	s4,150(sp)

00000000800076c8 <i_7323>:
    800076c8:	0047c663          	blt	a5,tp,800076d4 <i_7326>

00000000800076cc <i_7324>:
    800076cc:	fc412423          	sw	tp,-56(sp)

00000000800076d0 <i_7325>:
    800076d0:	02466ebb          	remw	t4,a2,tp

00000000800076d4 <i_7326>:
    800076d4:	01c21263          	bne	tp,t3,800076d8 <i_7327>

00000000800076d8 <i_7327>:
    800076d8:	00815d83          	lhu	s11,8(sp)

00000000800076dc <i_7328>:
    800076dc:	837eb213          	sltiu	tp,t4,-1993

00000000800076e0 <i_7329>:
    800076e0:	01d8f663          	bleu	t4,a7,800076ec <i_7332>

00000000800076e4 <i_7330>:
    800076e4:	11e11e83          	lh	t4,286(sp)

00000000800076e8 <i_7331>:
    800076e8:	ec214a83          	lbu	s5,-318(sp)

00000000800076ec <i_7332>:
    800076ec:	01dae463          	bltu	s5,t4,800076f4 <i_7334>

00000000800076f0 <i_7333>:
    800076f0:	e9511623          	sh	s5,-372(sp)

00000000800076f4 <i_7334>:
    800076f4:	01eafc63          	bleu	t5,s5,8000770c <i_7340>

00000000800076f8 <i_7335>:
    800076f8:	035ac063          	blt	s5,s5,80007718 <i_7343>

00000000800076fc <i_7336>:
    800076fc:	e2410aa3          	sb	tp,-459(sp)

0000000080007700 <i_7337>:
    80007700:	f9511923          	sh	s5,-110(sp)

0000000080007704 <i_7338>:
    80007704:	01beea63          	bltu	t4,s11,80007718 <i_7343>

0000000080007708 <i_7339>:
    80007708:	ed215203          	lhu	tp,-302(sp)

000000008000770c <i_7340>:
    8000770c:	e4413823          	sd	tp,-432(sp)

0000000080007710 <i_7341>:
    80007710:	004d8eb3          	add	t4,s11,tp

0000000080007714 <i_7342>:
    80007714:	f3d11023          	sh	t4,-224(sp)

0000000080007718 <i_7343>:
    80007718:	ff023213          	sltiu	tp,tp,-16

000000008000771c <i_7344>:
    8000771c:	e6e10d83          	lb	s11,-402(sp)

0000000080007720 <i_7345>:
    80007720:	02448463          	beq	s1,tp,80007748 <i_7355>

0000000080007724 <i_7346>:
    80007724:	0e413023          	sd	tp,224(sp)

0000000080007728 <i_7347>:
    80007728:	03b24063          	blt	tp,s11,80007748 <i_7355>

000000008000772c <i_7348>:
    8000772c:	e3b10923          	sb	s11,-462(sp)

0000000080007730 <i_7349>:
    80007730:	06411623          	sh	tp,108(sp)

0000000080007734 <i_7350>:
    80007734:	1c015203          	lhu	tp,448(sp)

0000000080007738 <i_7351>:
    80007738:	00500293          	li	t0,5

000000008000773c <i_7352>:
    8000773c:	4050d0b3          	sra	ra,ra,t0

0000000080007740 <i_7353>:
    80007740:	00013083          	ld	ra,0(sp)

0000000080007744 <i_7354>:
    80007744:	08312a23          	sw	gp,148(sp)

0000000080007748 <i_7355>:
    80007748:	fea10203          	lb	tp,-22(sp)

000000008000774c <i_7356>:
    8000774c:	e7c15203          	lhu	tp,-388(sp)

0000000080007750 <i_7357>:
    80007750:	17511423          	sh	s5,360(sp)

0000000080007754 <i_7358>:
    80007754:	021f7233          	remu	tp,t5,ra

0000000080007758 <i_7359>:
    80007758:	0a112623          	sw	ra,172(sp)

000000008000775c <i_7360>:
    8000775c:	00b0ca63          	blt	ra,a1,80007770 <i_7365>

0000000080007760 <i_7361>:
    80007760:	e6b12023          	sw	a1,-416(sp)

0000000080007764 <i_7362>:
    80007764:	00000013          	nop

0000000080007768 <i_7363>:
    80007768:	ea813303          	ld	t1,-344(sp)

000000008000776c <i_7364>:
    8000776c:	0ab13823          	sd	a1,176(sp)

0000000080007770 <i_7365>:
    80007770:	0246433b          	divw	t1,a2,tp

0000000080007774 <i_7366>:
    80007774:	f182021b          	addiw	tp,tp,-232

0000000080007778 <i_7367>:
    80007778:	79800093          	li	ra,1944

000000008000777c <i_7368>:
    8000777c:	7a100593          	li	a1,1953

0000000080007780 <i_7369>:
    80007780:	00108093          	addi	ra,ra,1 # 247ca9b1 <main-0x5b83564f>
    80007784:	fe15dee3          	ble	ra,a1,80007780 <i_7369>

0000000080007788 <i_7370>:
    80007788:	f5ec3c13          	sltiu	s8,s8,-162

000000008000778c <i_7371>:
    8000778c:	00b0da63          	ble	a1,ra,800077a0 <i_7376>

0000000080007790 <i_7372>:
    80007790:	e6b12a23          	sw	a1,-396(sp)

0000000080007794 <i_7373>:
    80007794:	00b27663          	bleu	a1,tp,800077a0 <i_7376>

0000000080007798 <i_7374>:
    80007798:	00a36533          	or	a0,t1,a0

000000008000779c <i_7375>:
    8000779c:	1ac16203          	lwu	tp,428(sp)

00000000800077a0 <i_7376>:
    800077a0:	09811123          	sh	s8,130(sp)

00000000800077a4 <i_7377>:
    800077a4:	e3811a23          	sh	s8,-460(sp)

00000000800077a8 <i_7378>:
    800077a8:	00c27633          	and	a2,tp,a2

00000000800077ac <i_7379>:
    800077ac:	fd710603          	lb	a2,-41(sp)

00000000800077b0 <i_7380>:
    800077b0:	1ca12e23          	sw	a0,476(sp)

00000000800077b4 <i_7381>:
    800077b4:	00456433          	or	s0,a0,tp

00000000800077b8 <i_7382>:
    800077b8:	ecc10223          	sb	a2,-316(sp)

00000000800077bc <i_7383>:
    800077bc:	00000013          	nop

00000000800077c0 <i_7384>:
    800077c0:	7a900513          	li	a0,1961

00000000800077c4 <i_7385>:
    800077c4:	7b000e93          	li	t4,1968

00000000800077c8 <i_7386>:
    800077c8:	0306d663          	ble	a6,a3,800077f4 <i_7396>

00000000800077cc <i_7387>:
    800077cc:	f1c14603          	lbu	a2,-228(sp)

00000000800077d0 <i_7388>:
    800077d0:	00000013          	nop

00000000800077d4 <i_7389>:
    800077d4:	f0811323          	sh	s0,-250(sp)

00000000800077d8 <i_7390>:
    800077d8:	01c89a63          	bne	a7,t3,800077ec <i_7394>

00000000800077dc <i_7391>:
    800077dc:	00150513          	addi	a0,a0,1 # ffffffff9a149001 <_end+0xffffffff1a138bed>
    800077e0:	feaed4e3          	ble	a0,t4,800077c8 <i_7386>

00000000800077e4 <i_7392>:
    800077e4:	e8c13023          	sd	a2,-384(sp)

00000000800077e8 <i_7393>:
    800077e8:	02a5a5b3          	mulhsu	a1,a1,a0

00000000800077ec <i_7394>:
    800077ec:	03400513          	li	a0,52

00000000800077f0 <i_7395>:
    800077f0:	40a0d533          	sra	a0,ra,a0

00000000800077f4 <i_7396>:
    800077f4:	02a752bb          	divuw	t0,a4,a0

00000000800077f8 <i_7397>:
    800077f8:	02561463          	bne	a2,t0,80007820 <i_7407>

00000000800077fc <i_7398>:
    800077fc:	01700693          	li	a3,23

0000000080007800 <i_7399>:
    80007800:	00de1c3b          	sllw	s8,t3,a3

0000000080007804 <i_7400>:
    80007804:	07611283          	lh	t0,118(sp)

0000000080007808 <i_7401>:
    80007808:	e8211503          	lh	a0,-382(sp)

000000008000780c <i_7402>:
    8000780c:	11814503          	lbu	a0,280(sp)

0000000080007810 <i_7403>:
    80007810:	fa511b23          	sh	t0,-74(sp)

0000000080007814 <i_7404>:
    80007814:	e8712623          	sw	t2,-372(sp)

0000000080007818 <i_7405>:
    80007818:	eca106a3          	sb	a0,-307(sp)

000000008000781c <i_7406>:
    8000781c:	e4c16283          	lwu	t0,-436(sp)

0000000080007820 <i_7407>:
    80007820:	00000013          	nop

0000000080007824 <i_7408>:
    80007824:	00000013          	nop

0000000080007828 <i_7409>:
    80007828:	89900d93          	li	s11,-1895

000000008000782c <i_7410>:
    8000782c:	8a000693          	li	a3,-1888

0000000080007830 <i_7411>:
    80007830:	004dd393          	srli	t2,s11,0x4

0000000080007834 <i_7412>:
    80007834:	00768633          	add	a2,a3,t2

0000000080007838 <i_7413>:
    80007838:	14d13c23          	sd	a3,344(sp)

000000008000783c <i_7414>:
    8000783c:	e5e15203          	lhu	tp,-418(sp)

0000000080007840 <i_7415>:
    80007840:	05416203          	lwu	tp,84(sp)

0000000080007844 <i_7416>:
    80007844:	7d200613          	li	a2,2002

0000000080007848 <i_7417>:
    80007848:	7e500393          	li	t2,2021

000000008000784c <i_7418>:
    8000784c:	1da11503          	lh	a0,474(sp)

0000000080007850 <i_7419>:
    80007850:	14712623          	sw	t2,332(sp)

0000000080007854 <i_7420>:
    80007854:	00160613          	addi	a2,a2,1
    80007858:	fec39ae3          	bne	t2,a2,8000784c <i_7418>

000000008000785c <i_7421>:
    8000785c:	024573bb          	remuw	t2,a0,tp

0000000080007860 <i_7422>:
    80007860:	001d8d93          	addi	s11,s11,1
    80007864:	fcdd96e3          	bne	s11,a3,80007830 <i_7411>

0000000080007868 <i_7423>:
    80007868:	0043ca63          	blt	t2,tp,8000787c <i_7428>

000000008000786c <i_7424>:
    8000786c:	00725463          	ble	t2,tp,80007874 <i_7426>

0000000080007870 <i_7425>:
    80007870:	04412d83          	lw	s11,68(sp)

0000000080007874 <i_7426>:
    80007874:	00811803          	lh	a6,8(sp)

0000000080007878 <i_7427>:
    80007878:	0c914803          	lbu	a6,201(sp)

000000008000787c <i_7428>:
    8000787c:	00000013          	nop

0000000080007880 <i_7429>:
    80007880:	16712223          	sw	t2,356(sp)

0000000080007884 <i_7430>:
    80007884:	85b00393          	li	t2,-1957

0000000080007888 <i_7431>:
    80007888:	86700f13          	li	t5,-1945

000000008000788c <i_7432>:
    8000788c:	1ae15d83          	lhu	s11,430(sp)

0000000080007890 <i_7433>:
    80007890:	0be15d83          	lhu	s11,190(sp)

0000000080007894 <i_7434>:
    80007894:	7da00213          	li	tp,2010

0000000080007898 <i_7435>:
    80007898:	7e200b13          	li	s6,2018

000000008000789c <i_7436>:
    8000789c:	02e00a13          	li	s4,46

00000000800078a0 <i_7437>:
    800078a0:	014f1a33          	sll	s4,t5,s4

00000000800078a4 <i_7438>:
    800078a4:	00120213          	addi	tp,tp,1 # 1 <main-0x7fffffff>
    800078a8:	ff624ae3          	blt	tp,s6,8000789c <i_7436>

00000000800078ac <i_7439>:
    800078ac:	fd411823          	sh	s4,-48(sp)

00000000800078b0 <i_7440>:
    800078b0:	ec416b83          	lwu	s7,-316(sp)

00000000800078b4 <i_7441>:
    800078b4:	05011223          	sh	a6,68(sp)

00000000800078b8 <i_7442>:
    800078b8:	16814e03          	lbu	t3,360(sp)

00000000800078bc <i_7443>:
    800078bc:	00138393          	addi	t2,t2,1
    800078c0:	fde3e6e3          	bltu	t2,t5,8000788c <i_7432>

00000000800078c4 <i_7444>:
    800078c4:	014e5863          	ble	s4,t3,800078d4 <i_7448>

00000000800078c8 <i_7445>:
    800078c8:	0a813a03          	ld	s4,168(sp)

00000000800078cc <i_7446>:
    800078cc:	e3011623          	sh	a6,-468(sp)

00000000800078d0 <i_7447>:
    800078d0:	03c53633          	mulhu	a2,a0,t3

00000000800078d4 <i_7448>:
    800078d4:	0d713423          	sd	s7,200(sp)

00000000800078d8 <i_7449>:
    800078d8:	f1413423          	sd	s4,-248(sp)

00000000800078dc <i_7450>:
    800078dc:	f9e11a03          	lh	s4,-98(sp)

00000000800078e0 <i_7451>:
    800078e0:	0f410b23          	sb	s4,246(sp)

00000000800078e4 <i_7452>:
    800078e4:	010d3a33          	sltu	s4,s10,a6

00000000800078e8 <i_7453>:
    800078e8:	017a4463          	blt	s4,s7,800078f0 <i_7455>

00000000800078ec <i_7454>:
    800078ec:	01100d13          	li	s10,17

00000000800078f0 <i_7455>:
    800078f0:	01ab15bb          	sllw	a1,s6,s10

00000000800078f4 <i_7456>:
    800078f4:	95bd2a13          	slti	s4,s10,-1701

00000000800078f8 <i_7457>:
    800078f8:	037baeb3          	mulhsu	t4,s7,s7

00000000800078fc <i_7458>:
    800078fc:	002d5d13          	srli	s10,s10,0x2

0000000080007900 <i_7459>:
    80007900:	e2314e83          	lbu	t4,-477(sp)

0000000080007904 <i_7460>:
    80007904:	03ad1eb3          	mulh	t4,s10,s10

0000000080007908 <i_7461>:
    80007908:	01a12a23          	sw	s10,20(sp)

000000008000790c <i_7462>:
    8000790c:	00429793          	slli	a5,t0,0x4

0000000080007910 <i_7463>:
    80007910:	ebd13423          	sd	t4,-344(sp)

0000000080007914 <i_7464>:
    80007914:	038e86bb          	mulw	a3,t4,s8

0000000080007918 <i_7465>:
    80007918:	00b00c13          	li	s8,11

000000008000791c <i_7466>:
    8000791c:	018693bb          	sllw	t2,a3,s8

0000000080007920 <i_7467>:
    80007920:	00000013          	nop

0000000080007924 <i_7468>:
    80007924:	00000013          	nop

0000000080007928 <i_7469>:
    80007928:	86900693          	li	a3,-1943

000000008000792c <i_7470>:
    8000792c:	86d00493          	li	s1,-1939

0000000080007930 <i_7471>:
    80007930:	02d3dc33          	divu	s8,t2,a3

0000000080007934 <i_7472>:
    80007934:	f7412383          	lw	t2,-140(sp)

0000000080007938 <i_7473>:
    80007938:	0074c263          	blt	s1,t2,8000793c <i_7474>

000000008000793c <i_7474>:
    8000793c:	04d10a83          	lb	s5,77(sp)

0000000080007940 <i_7475>:
    80007940:	fe016603          	lwu	a2,-32(sp)

0000000080007944 <i_7476>:
    80007944:	404adc13          	srai	s8,s5,0x4

0000000080007948 <i_7477>:
    80007948:	40cc0eb3          	sub	t4,s8,a2

000000008000794c <i_7478>:
    8000794c:	01dc4263          	blt	s8,t4,80007950 <i_7479>

0000000080007950 <i_7479>:
    80007950:	19511723          	sh	s5,398(sp)

0000000080007954 <i_7480>:
    80007954:	00200513          	li	a0,2

0000000080007958 <i_7481>:
    80007958:	40a1d7bb          	sraw	a5,gp,a0

000000008000795c <i_7482>:
    8000795c:	00168693          	addi	a3,a3,1 # ffffffffa4d81001 <_end+0xffffffff24d70bed>
    80007960:	fc9698e3          	bne	a3,s1,80007930 <i_7471>

0000000080007964 <i_7483>:
    80007964:	17410283          	lb	t0,372(sp)

0000000080007968 <i_7484>:
    80007968:	c6928e93          	addi	t4,t0,-919

000000008000796c <i_7485>:
    8000796c:	00a50cb3          	add	s9,a0,a0

0000000080007970 <i_7486>:
    80007970:	10f10683          	lb	a3,271(sp)

0000000080007974 <i_7487>:
    80007974:	09610503          	lb	a0,150(sp)

0000000080007978 <i_7488>:
    80007978:	00200693          	li	a3,2

000000008000797c <i_7489>:
    8000797c:	00d2d6bb          	srlw	a3,t0,a3

0000000080007980 <i_7490>:
    80007980:	01811203          	lh	tp,24(sp)

0000000080007984 <i_7491>:
    80007984:	fda15683          	lhu	a3,-38(sp)

0000000080007988 <i_7492>:
    80007988:	eb913023          	sd	s9,-352(sp)

000000008000798c <i_7493>:
    8000798c:	4036d513          	srai	a0,a3,0x3

0000000080007990 <i_7494>:
    80007990:	00d24e63          	blt	tp,a3,800079ac <i_7501>

0000000080007994 <i_7495>:
    80007994:	00013403          	ld	s0,0(sp)

0000000080007998 <i_7496>:
    80007998:	03226263          	bltu	tp,s2,800079bc <i_7505>

000000008000799c <i_7497>:
    8000799c:	ffc12283          	lw	t0,-4(sp)

00000000800079a0 <i_7498>:
    800079a0:	10512023          	sw	t0,256(sp)

00000000800079a4 <i_7499>:
    800079a4:	0f214583          	lbu	a1,242(sp)

00000000800079a8 <i_7500>:
    800079a8:	02524463          	blt	tp,t0,800079d0 <i_7510>

00000000800079ac <i_7501>:
    800079ac:	479d7993          	andi	s3,s10,1145

00000000800079b0 <i_7502>:
    800079b0:	00700593          	li	a1,7

00000000800079b4 <i_7503>:
    800079b4:	40b55e3b          	sraw	t3,a0,a1

00000000800079b8 <i_7504>:
    800079b8:	af86081b          	addiw	a6,a2,-1288

00000000800079bc <i_7505>:
    800079bc:	00000013          	nop

00000000800079c0 <i_7506>:
    800079c0:	e7013803          	ld	a6,-400(sp)

00000000800079c4 <i_7507>:
    800079c4:	00000013          	nop

00000000800079c8 <i_7508>:
    800079c8:	1db10aa3          	sb	s11,469(sp)

00000000800079cc <i_7509>:
    800079cc:	9309e593          	ori	a1,s3,-1744

00000000800079d0 <i_7510>:
    800079d0:	f9416283          	lwu	t0,-108(sp)

00000000800079d4 <i_7511>:
    800079d4:	ed310983          	lb	s3,-301(sp)

00000000800079d8 <i_7512>:
    800079d8:	7bc00d93          	li	s11,1980

00000000800079dc <i_7513>:
    800079dc:	7c700213          	li	tp,1991

00000000800079e0 <i_7514>:
    800079e0:	00481863          	bne	a6,tp,800079f0 <i_7518>

00000000800079e4 <i_7515>:
    800079e4:	0259f9bb          	remuw	s3,s3,t0

00000000800079e8 <i_7516>:
    800079e8:	01200493          	li	s1,18

00000000800079ec <i_7517>:
    800079ec:	009359bb          	srlw	s3,t1,s1

00000000800079f0 <i_7518>:
    800079f0:	033f5463          	ble	s3,t5,80007a18 <i_7527>

00000000800079f4 <i_7519>:
    800079f4:	0029a633          	slt	a2,s3,sp

00000000800079f8 <i_7520>:
    800079f8:	001d8d93          	addi	s11,s11,1
    800079fc:	fe4de2e3          	bltu	s11,tp,800079e0 <i_7514>

0000000080007a00 <i_7521>:
    80007a00:	03a00193          	li	gp,58

0000000080007a04 <i_7522>:
    80007a04:	403353b3          	sra	t2,t1,gp

0000000080007a08 <i_7523>:
    80007a08:	13816303          	lwu	t1,312(sp)

0000000080007a0c <i_7524>:
    80007a0c:	407184bb          	subw	s1,gp,t2

0000000080007a10 <i_7525>:
    80007a10:	02341063          	bne	s0,gp,80007a30 <i_7533>

0000000080007a14 <i_7526>:
    80007a14:	0264ddb3          	divu	s11,s1,t1

0000000080007a18 <i_7527>:
    80007a18:	f3013a03          	ld	s4,-208(sp)

0000000080007a1c <i_7528>:
    80007a1c:	14016e03          	lwu	t3,320(sp)

0000000080007a20 <i_7529>:
    80007a20:	f3b14803          	lbu	a6,-197(sp)

0000000080007a24 <i_7530>:
    80007a24:	01c37863          	bleu	t3,t1,80007a34 <i_7534>

0000000080007a28 <i_7531>:
    80007a28:	f0611683          	lh	a3,-250(sp)

0000000080007a2c <i_7532>:
    80007a2c:	03032333          	mulhsu	t1,t1,a6

0000000080007a30 <i_7533>:
    80007a30:	1e416603          	lwu	a2,484(sp)

0000000080007a34 <i_7534>:
    80007a34:	11811a03          	lh	s4,280(sp)

0000000080007a38 <i_7535>:
    80007a38:	02013a03          	ld	s4,32(sp)

0000000080007a3c <i_7536>:
    80007a3c:	03be7dbb          	remuw	s11,t3,s11

0000000080007a40 <i_7537>:
    80007a40:	fe816083          	lwu	ra,-24(sp)

0000000080007a44 <i_7538>:
    80007a44:	7b100313          	li	t1,1969

0000000080007a48 <i_7539>:
    80007a48:	7c300b13          	li	s6,1987

0000000080007a4c <i_7540>:
    80007a4c:	1c812a83          	lw	s5,456(sp)

0000000080007a50 <i_7541>:
    80007a50:	016103a3          	sb	s6,7(sp)

0000000080007a54 <i_7542>:
    80007a54:	03811d23          	sh	s8,58(sp)

0000000080007a58 <i_7543>:
    80007a58:	0d314383          	lbu	t2,211(sp)

0000000080007a5c <i_7544>:
    80007a5c:	0015cc63          	blt	a1,ra,80007a74 <i_7550>

0000000080007a60 <i_7545>:
    80007a60:	4043d99b          	sraiw	s3,t2,0x4

0000000080007a64 <i_7546>:
    80007a64:	001a6663          	bltu	s4,ra,80007a70 <i_7549>

0000000080007a68 <i_7547>:
    80007a68:	034a0663          	beq	s4,s4,80007a94 <i_7557>

0000000080007a6c <i_7548>:
    80007a6c:	f6648e93          	addi	t4,s1,-154 # 8a6504e2 <_end+0xa6400ce>

0000000080007a70 <i_7549>:
    80007a70:	0339f4bb          	remuw	s1,s3,s3

0000000080007a74 <i_7550>:
    80007a74:	01384eb3          	xor	t4,a6,s3

0000000080007a78 <i_7551>:
    80007a78:	e3311623          	sh	s3,-468(sp)

0000000080007a7c <i_7552>:
    80007a7c:	06e10e83          	lb	t4,110(sp)

0000000080007a80 <i_7553>:
    80007a80:	00130313          	addi	t1,t1,1
    80007a84:	fd6344e3          	blt	t1,s6,80007a4c <i_7540>

0000000080007a88 <i_7554>:
    80007a88:	0334b9b3          	mulhu	s3,s1,s3

0000000080007a8c <i_7555>:
    80007a8c:	00a00b93          	li	s7,10

0000000080007a90 <i_7556>:
    80007a90:	01795bb3          	srl	s7,s2,s7

0000000080007a94 <i_7557>:
    80007a94:	00275493          	srli	s1,a4,0x2

0000000080007a98 <i_7558>:
    80007a98:	fce15503          	lhu	a0,-50(sp)

0000000080007a9c <i_7559>:
    80007a9c:	1e013583          	ld	a1,480(sp)

0000000080007aa0 <i_7560>:
    80007aa0:	02912823          	sw	s1,48(sp)

0000000080007aa4 <i_7561>:
    80007aa4:	1d411e83          	lh	t4,468(sp)

0000000080007aa8 <i_7562>:
    80007aa8:	008ee663          	bltu	t4,s0,80007ab4 <i_7565>

0000000080007aac <i_7563>:
    80007aac:	14310283          	lb	t0,323(sp)

0000000080007ab0 <i_7564>:
    80007ab0:	00000013          	nop

0000000080007ab4 <i_7565>:
    80007ab4:	022bc833          	div	a6,s7,sp

0000000080007ab8 <i_7566>:
    80007ab8:	00000013          	nop

0000000080007abc <i_7567>:
    80007abc:	78200593          	li	a1,1922

0000000080007ac0 <i_7568>:
    80007ac0:	78d00c93          	li	s9,1933

0000000080007ac4 <i_7569>:
    80007ac4:	03a65d33          	divu	s10,a2,s10

0000000080007ac8 <i_7570>:
    80007ac8:	e5413423          	sd	s4,-440(sp)

0000000080007acc <i_7571>:
    80007acc:	81c00d93          	li	s11,-2020

0000000080007ad0 <i_7572>:
    80007ad0:	82d00e93          	li	t4,-2003

0000000080007ad4 <i_7573>:
    80007ad4:	03ae4f33          	div	t5,t3,s10

0000000080007ad8 <i_7574>:
    80007ad8:	fc013a03          	ld	s4,-64(sp)

0000000080007adc <i_7575>:
    80007adc:	00c00b13          	li	s6,12

0000000080007ae0 <i_7576>:
    80007ae0:	416f59b3          	sra	s3,t5,s6

0000000080007ae4 <i_7577>:
    80007ae4:	001d8d93          	addi	s11,s11,1
    80007ae8:	ffddc6e3          	blt	s11,t4,80007ad4 <i_7573>

0000000080007aec <i_7578>:
    80007aec:	fbe15f03          	lhu	t5,-66(sp)

0000000080007af0 <i_7579>:
    80007af0:	00000013          	nop

0000000080007af4 <i_7580>:
    80007af4:	00158593          	addi	a1,a1,1
    80007af8:	fd95c6e3          	blt	a1,s9,80007ac4 <i_7569>

0000000080007afc <i_7581>:
    80007afc:	13c16683          	lwu	a3,316(sp)

0000000080007b00 <i_7582>:
    80007b00:	fc214d83          	lbu	s11,-62(sp)

0000000080007b04 <i_7583>:
    80007b04:	0166e463          	bltu	a3,s6,80007b0c <i_7585>

0000000080007b08 <i_7584>:
    80007b08:	06815603          	lhu	a2,104(sp)

0000000080007b0c <i_7585>:
    80007b0c:	11513023          	sd	s5,256(sp)

0000000080007b10 <i_7586>:
    80007b10:	0346c4b3          	div	s1,a3,s4

0000000080007b14 <i_7587>:
    80007b14:	7d000a13          	li	s4,2000

0000000080007b18 <i_7588>:
    80007b18:	7d600a93          	li	s5,2006

0000000080007b1c <i_7589>:
    80007b1c:	4026de1b          	sraiw	t3,a3,0x2

0000000080007b20 <i_7590>:
    80007b20:	00000013          	nop

0000000080007b24 <i_7591>:
    80007b24:	8af00693          	li	a3,-1873

0000000080007b28 <i_7592>:
    80007b28:	8ba00d93          	li	s11,-1862

0000000080007b2c <i_7593>:
    80007b2c:	fc5264b7          	lui	s1,0xfc526

0000000080007b30 <i_7594>:
    80007b30:	00168693          	addi	a3,a3,1
    80007b34:	ffb69ce3          	bne	a3,s11,80007b2c <i_7593>

0000000080007b38 <i_7595>:
    80007b38:	08d10923          	sb	a3,146(sp)

0000000080007b3c <i_7596>:
    80007b3c:	00000013          	nop

0000000080007b40 <i_7597>:
    80007b40:	f9816403          	lwu	s0,-104(sp)

0000000080007b44 <i_7598>:
    80007b44:	02ce5263          	ble	a2,t3,80007b68 <i_7606>

0000000080007b48 <i_7599>:
    80007b48:	1ac11c23          	sh	a2,440(sp)

0000000080007b4c <i_7600>:
    80007b4c:	001a0a13          	addi	s4,s4,1
    80007b50:	fd5a66e3          	bltu	s4,s5,80007b1c <i_7589>

0000000080007b54 <i_7601>:
    80007b54:	13813683          	ld	a3,312(sp)

0000000080007b58 <i_7602>:
    80007b58:	12911723          	sh	s1,302(sp)

0000000080007b5c <i_7603>:
    80007b5c:	07416483          	lwu	s1,116(sp)

0000000080007b60 <i_7604>:
    80007b60:	40a5053b          	subw	a0,a0,a0

0000000080007b64 <i_7605>:
    80007b64:	f8813023          	sd	s0,-128(sp)

0000000080007b68 <i_7606>:
    80007b68:	e2910623          	sb	s1,-468(sp)

0000000080007b6c <i_7607>:
    80007b6c:	028a0463          	beq	s4,s0,80007b94 <i_7617>

0000000080007b70 <i_7608>:
    80007b70:	00250633          	add	a2,a0,sp

0000000080007b74 <i_7609>:
    80007b74:	02ade53b          	remw	a0,s11,a0

0000000080007b78 <i_7610>:
    80007b78:	00964c33          	xor	s8,a2,s1

0000000080007b7c <i_7611>:
    80007b7c:	a63b69b7          	lui	s3,0xa63b6

0000000080007b80 <i_7612>:
    80007b80:	fc911723          	sh	s1,-50(sp)

0000000080007b84 <i_7613>:
    80007b84:	0014521b          	srliw	tp,s0,0x1

0000000080007b88 <i_7614>:
    80007b88:	00299f13          	slli	t5,s3,0x2

0000000080007b8c <i_7615>:
    80007b8c:	033c5463          	ble	s3,s8,80007bb4 <i_7625>

0000000080007b90 <i_7616>:
    80007b90:	089106a3          	sb	s1,141(sp)

0000000080007b94 <i_7617>:
    80007b94:	00a20463          	beq	tp,a0,80007b9c <i_7619>

0000000080007b98 <i_7618>:
    80007b98:	12411d23          	sh	tp,314(sp)

0000000080007b9c <i_7619>:
    80007b9c:	5ae5e1b7          	lui	gp,0x5ae5e

0000000080007ba0 <i_7620>:
    80007ba0:	e8f14183          	lbu	gp,-369(sp)

0000000080007ba4 <i_7621>:
    80007ba4:	01f70db3          	add	s11,a4,t6

0000000080007ba8 <i_7622>:
    80007ba8:	09c12683          	lw	a3,156(sp)

0000000080007bac <i_7623>:
    80007bac:	01c00193          	li	gp,28

0000000080007bb0 <i_7624>:
    80007bb0:	403e5433          	sra	s0,t3,gp

0000000080007bb4 <i_7625>:
    80007bb4:	1d415483          	lhu	s1,468(sp)

0000000080007bb8 <i_7626>:
    80007bb8:	00299463          	bne	s3,sp,80007bc0 <i_7628>

0000000080007bbc <i_7627>:
    80007bbc:	e4911423          	sh	s1,-440(sp)

0000000080007bc0 <i_7628>:
    80007bc0:	0384a6b3          	mulhsu	a3,s1,s8

0000000080007bc4 <i_7629>:
    80007bc4:	16c16c03          	lwu	s8,364(sp)

0000000080007bc8 <i_7630>:
    80007bc8:	02d6f263          	bleu	a3,a3,80007bec <i_7639>

0000000080007bcc <i_7631>:
    80007bcc:	028c21b3          	mulhsu	gp,s8,s0

0000000080007bd0 <i_7632>:
    80007bd0:	0a313023          	sd	gp,160(sp)

0000000080007bd4 <i_7633>:
    80007bd4:	017c2bb3          	slt	s7,s8,s7

0000000080007bd8 <i_7634>:
    80007bd8:	03a11983          	lh	s3,58(sp)

0000000080007bdc <i_7635>:
    80007bdc:	e6611183          	lh	gp,-410(sp)

0000000080007be0 <i_7636>:
    80007be0:	0389bab3          	mulhu	s5,s3,s8

0000000080007be4 <i_7637>:
    80007be4:	0359e9bb          	remw	s3,s3,s5

0000000080007be8 <i_7638>:
    80007be8:	00813983          	ld	s3,8(sp)

0000000080007bec <i_7639>:
    80007bec:	12412a03          	lw	s4,292(sp)

0000000080007bf0 <i_7640>:
    80007bf0:	11310e23          	sb	s3,284(sp)

0000000080007bf4 <i_7641>:
    80007bf4:	15410503          	lb	a0,340(sp)

0000000080007bf8 <i_7642>:
    80007bf8:	1c012803          	lw	a6,448(sp)

0000000080007bfc <i_7643>:
    80007bfc:	001a9213          	slli	tp,s5,0x1

0000000080007c00 <i_7644>:
    80007c00:	02421ab3          	mulh	s5,tp,tp

0000000080007c04 <i_7645>:
    80007c04:	00486a63          	bltu	a6,tp,80007c18 <i_7650>

0000000080007c08 <i_7646>:
    80007c08:	fde15603          	lhu	a2,-34(sp)

0000000080007c0c <i_7647>:
    80007c0c:	1aa10783          	lb	a5,426(sp)

0000000080007c10 <i_7648>:
    80007c10:	40465593          	srai	a1,a2,0x4

0000000080007c14 <i_7649>:
    80007c14:	00d00693          	li	a3,13

0000000080007c18 <i_7650>:
    80007c18:	00d696bb          	sllw	a3,a3,a3

0000000080007c1c <i_7651>:
    80007c1c:	00d5f263          	bleu	a3,a1,80007c20 <i_7652>

0000000080007c20 <i_7652>:
    80007c20:	eab13023          	sd	a1,-352(sp)

0000000080007c24 <i_7653>:
    80007c24:	03013583          	ld	a1,48(sp)

0000000080007c28 <i_7654>:
    80007c28:	fd816603          	lwu	a2,-40(sp)

0000000080007c2c <i_7655>:
    80007c2c:	f1813683          	ld	a3,-232(sp)

0000000080007c30 <i_7656>:
    80007c30:	02b87a33          	remu	s4,a6,a1

0000000080007c34 <i_7657>:
    80007c34:	0a416803          	lwu	a6,164(sp)

0000000080007c38 <i_7658>:
    80007c38:	f0011683          	lh	a3,-256(sp)

0000000080007c3c <i_7659>:
    80007c3c:	01185663          	ble	a7,a6,80007c48 <i_7662>

0000000080007c40 <i_7660>:
    80007c40:	ed714603          	lbu	a2,-297(sp)

0000000080007c44 <i_7661>:
    80007c44:	12e11683          	lh	a3,302(sp)

0000000080007c48 <i_7662>:
    80007c48:	027b0b33          	mul	s6,s6,t2

0000000080007c4c <i_7663>:
    80007c4c:	16c15683          	lhu	a3,364(sp)

0000000080007c50 <i_7664>:
    80007c50:	028f743b          	remuw	s0,t5,s0

0000000080007c54 <i_7665>:
    80007c54:	028b4833          	div	a6,s6,s0

0000000080007c58 <i_7666>:
    80007c58:	1d611823          	sh	s6,464(sp)

0000000080007c5c <i_7667>:
    80007c5c:	039fd063          	ble	s9,t6,80007c7c <i_7675>

0000000080007c60 <i_7668>:
    80007c60:	02847cb3          	remu	s9,s0,s0

0000000080007c64 <i_7669>:
    80007c64:	011cfa63          	bleu	a7,s9,80007c78 <i_7674>

0000000080007c68 <i_7670>:
    80007c68:	f0814803          	lbu	a6,-248(sp)

0000000080007c6c <i_7671>:
    80007c6c:	0d012423          	sw	a6,200(sp)

0000000080007c70 <i_7672>:
    80007c70:	f6812223          	sw	s0,-156(sp)

0000000080007c74 <i_7673>:
    80007c74:	025cd2b3          	divu	t0,s9,t0

0000000080007c78 <i_7674>:
    80007c78:	006cf863          	bleu	t1,s9,80007c88 <i_7678>

0000000080007c7c <i_7675>:
    80007c7c:	03f879bb          	remuw	s3,a6,t6

0000000080007c80 <i_7676>:
    80007c80:	e3c12c83          	lw	s9,-452(sp)

0000000080007c84 <i_7677>:
    80007c84:	0c813c83          	ld	s9,200(sp)

0000000080007c88 <i_7678>:
    80007c88:	e2d10383          	lb	t2,-467(sp)

0000000080007c8c <i_7679>:
    80007c8c:	07612c23          	sw	s6,120(sp)

0000000080007c90 <i_7680>:
    80007c90:	7d400b13          	li	s6,2004

0000000080007c94 <i_7681>:
    80007c94:	7e300813          	li	a6,2019

0000000080007c98 <i_7682>:
    80007c98:	0e6103a3          	sb	t1,231(sp)

0000000080007c9c <i_7683>:
    80007c9c:	fa816e83          	lwu	t4,-88(sp)

0000000080007ca0 <i_7684>:
    80007ca0:	00686a63          	bltu	a6,t1,80007cb4 <i_7689>

0000000080007ca4 <i_7685>:
    80007ca4:	03089397          	auipc	t2,0x3089

0000000080007ca8 <i_7686>:
    80007ca8:	0fd13823          	sd	t4,240(sp)

0000000080007cac <i_7687>:
    80007cac:	01d80c63          	beq	a6,t4,80007cc4 <i_7693>

0000000080007cb0 <i_7688>:
    80007cb0:	f8013e03          	ld	t3,-128(sp)

0000000080007cb4 <i_7689>:
    80007cb4:	04c12503          	lw	a0,76(sp)

0000000080007cb8 <i_7690>:
    80007cb8:	18816283          	lwu	t0,392(sp)

0000000080007cbc <i_7691>:
    80007cbc:	03a00e93          	li	t4,58

0000000080007cc0 <i_7692>:
    80007cc0:	41db53b3          	sra	t2,s6,t4

0000000080007cc4 <i_7693>:
    80007cc4:	3a45cc13          	xori	s8,a1,932

0000000080007cc8 <i_7694>:
    80007cc8:	0073ee63          	bltu	t2,t2,80007ce4 <i_7700>

0000000080007ccc <i_7695>:
    80007ccc:	001b0b13          	addi	s6,s6,1 # a3d46b9 <main-0x75c2b947>
    80007cd0:	fd6874e3          	bleu	s6,a6,80007c98 <i_7682>

0000000080007cd4 <i_7696>:
    80007cd4:	0192f2b3          	and	t0,t0,s9

0000000080007cd8 <i_7697>:
    80007cd8:	fdd13c23          	sd	t4,-40(sp)

0000000080007cdc <i_7698>:
    80007cdc:	01dc3333          	sltu	t1,s8,t4

0000000080007ce0 <i_7699>:
    80007ce0:	40530a33          	sub	s4,t1,t0

0000000080007ce4 <i_7700>:
    80007ce4:	027e09b3          	mul	s3,t3,t2

0000000080007ce8 <i_7701>:
    80007ce8:	018bec63          	bltu	s7,s8,80007d00 <i_7707>

0000000080007cec <i_7702>:
    80007cec:	c8264e17          	auipc	t3,0xc8264

0000000080007cf0 <i_7703>:
    80007cf0:	e8012b83          	lw	s7,-384(sp)

0000000080007cf4 <i_7704>:
    80007cf4:	0245d5bb          	divuw	a1,a1,tp

0000000080007cf8 <i_7705>:
    80007cf8:	004e5593          	srli	a1,t3,0x4

0000000080007cfc <i_7706>:
    80007cfc:	07011583          	lh	a1,112(sp)

0000000080007d00 <i_7707>:
    80007d00:	07215583          	lhu	a1,114(sp)

0000000080007d04 <i_7708>:
    80007d04:	00000013          	nop

0000000080007d08 <i_7709>:
    80007d08:	81300c13          	li	s8,-2029

0000000080007d0c <i_7710>:
    80007d0c:	81a00213          	li	tp,-2022

0000000080007d10 <i_7711>:
    80007d10:	00b59a63          	bne	a1,a1,80007d24 <i_7716>

0000000080007d14 <i_7712>:
    80007d14:	e4415583          	lhu	a1,-444(sp)

0000000080007d18 <i_7713>:
    80007d18:	e6010a03          	lb	s4,-416(sp)

0000000080007d1c <i_7714>:
    80007d1c:	00000013          	nop

0000000080007d20 <i_7715>:
    80007d20:	04b11123          	sh	a1,66(sp)

0000000080007d24 <i_7716>:
    80007d24:	01219e63          	bne	gp,s2,80007d40 <i_7722>

0000000080007d28 <i_7717>:
    80007d28:	02b595b3          	mulh	a1,a1,a1

0000000080007d2c <i_7718>:
    80007d2c:	001c0c13          	addi	s8,s8,1
    80007d30:	fe4c10e3          	bne	s8,tp,80007d10 <i_7711>

0000000080007d34 <i_7719>:
    80007d34:	404a549b          	sraiw	s1,s4,0x4

0000000080007d38 <i_7720>:
    80007d38:	8255ce93          	xori	t4,a1,-2011

0000000080007d3c <i_7721>:
    80007d3c:	05111823          	sh	a7,80(sp)

0000000080007d40 <i_7722>:
    80007d40:	15412583          	lw	a1,340(sp)

0000000080007d44 <i_7723>:
    80007d44:	71258593          	addi	a1,a1,1810

0000000080007d48 <i_7724>:
    80007d48:	f2b12a23          	sw	a1,-204(sp)

0000000080007d4c <i_7725>:
    80007d4c:	f2b10da3          	sb	a1,-197(sp)

0000000080007d50 <i_7726>:
    80007d50:	16b10d23          	sb	a1,378(sp)

0000000080007d54 <i_7727>:
    80007d54:	f4b12a23          	sw	a1,-172(sp)

0000000080007d58 <i_7728>:
    80007d58:	ddd58593          	addi	a1,a1,-547

0000000080007d5c <i_7729>:
    80007d5c:	0245c233          	div	tp,a1,tp

0000000080007d60 <i_7730>:
    80007d60:	f04101a3          	sb	tp,-253(sp)

0000000080007d64 <i_7731>:
    80007d64:	ef412203          	lw	tp,-268(sp)

0000000080007d68 <i_7732>:
    80007d68:	00726663          	bltu	tp,t2,80007d74 <i_7735>

0000000080007d6c <i_7733>:
    80007d6c:	f0412023          	sw	tp,-256(sp)

0000000080007d70 <i_7734>:
    80007d70:	ed813203          	ld	tp,-296(sp)

0000000080007d74 <i_7735>:
    80007d74:	e7012583          	lw	a1,-400(sp)

0000000080007d78 <i_7736>:
    80007d78:	4024541b          	sraiw	s0,s0,0x2

0000000080007d7c <i_7737>:
    80007d7c:	00445213          	srli	tp,s0,0x4

0000000080007d80 <i_7738>:
    80007d80:	004b1c1b          	slliw	s8,s6,0x4

0000000080007d84 <i_7739>:
    80007d84:	00000013          	nop

0000000080007d88 <i_7740>:
    80007d88:	75b00413          	li	s0,1883

0000000080007d8c <i_7741>:
    80007d8c:	76500293          	li	t0,1893

0000000080007d90 <i_7742>:
    80007d90:	11b12823          	sw	s11,272(sp)

0000000080007d94 <i_7743>:
    80007d94:	a876a613          	slti	a2,a3,-1401

0000000080007d98 <i_7744>:
    80007d98:	f8813683          	ld	a3,-120(sp)

0000000080007d9c <i_7745>:
    80007d9c:	00140413          	addi	s0,s0,1
    80007da0:	fe5468e3          	bltu	s0,t0,80007d90 <i_7742>

0000000080007da4 <i_7746>:
    80007da4:	c2fb829b          	addiw	t0,s7,-977

0000000080007da8 <i_7747>:
    80007da8:	e7111123          	sh	a7,-414(sp)

0000000080007dac <i_7748>:
    80007dac:	00400e93          	li	t4,4

0000000080007db0 <i_7749>:
    80007db0:	01d69ebb          	sllw	t4,a3,t4

0000000080007db4 <i_7750>:
    80007db4:	91ae8093          	addi	ra,t4,-1766

0000000080007db8 <i_7751>:
    80007db8:	01600e13          	li	t3,22

0000000080007dbc <i_7752>:
    80007dbc:	01cedeb3          	srl	t4,t4,t3

0000000080007dc0 <i_7753>:
    80007dc0:	1ed12223          	sw	a3,484(sp)

0000000080007dc4 <i_7754>:
    80007dc4:	fef14503          	lbu	a0,-17(sp)

0000000080007dc8 <i_7755>:
    80007dc8:	01d54863          	blt	a0,t4,80007dd8 <i_7759>

0000000080007dcc <i_7756>:
    80007dcc:	15112423          	sw	a7,328(sp)

0000000080007dd0 <i_7757>:
    80007dd0:	83587f13          	andi	t5,a6,-1995

0000000080007dd4 <i_7758>:
    80007dd4:	01decc63          	blt	t4,t4,80007dec <i_7764>

0000000080007dd8 <i_7759>:
    80007dd8:	fd011403          	lh	s0,-48(sp)

0000000080007ddc <i_7760>:
    80007ddc:	01e66e33          	or	t3,a2,t5

0000000080007de0 <i_7761>:
    80007de0:	02a45633          	divu	a2,s0,a0

0000000080007de4 <i_7762>:
    80007de4:	04c12403          	lw	s0,76(sp)

0000000080007de8 <i_7763>:
    80007de8:	fc813423          	sd	s0,-56(sp)

0000000080007dec <i_7764>:
    80007dec:	fec11723          	sh	a2,-18(sp)

0000000080007df0 <i_7765>:
    80007df0:	00000013          	nop

0000000080007df4 <i_7766>:
    80007df4:	86e00413          	li	s0,-1938

0000000080007df8 <i_7767>:
    80007df8:	87800993          	li	s3,-1928

0000000080007dfc <i_7768>:
    80007dfc:	01c11e23          	sh	t3,28(sp)

0000000080007e00 <i_7769>:
    80007e00:	f9e14783          	lbu	a5,-98(sp)

0000000080007e04 <i_7770>:
    80007e04:	15413023          	sd	s4,320(sp)

0000000080007e08 <i_7771>:
    80007e08:	004e1d13          	slli	s10,t3,0x4

0000000080007e0c <i_7772>:
    80007e0c:	00140413          	addi	s0,s0,1
    80007e10:	fe89d6e3          	ble	s0,s3,80007dfc <i_7768>

0000000080007e14 <i_7773>:
    80007e14:	f8016a03          	lwu	s4,-128(sp)

0000000080007e18 <i_7774>:
    80007e18:	09410923          	sb	s4,146(sp)

0000000080007e1c <i_7775>:
    80007e1c:	014a4e63          	blt	s4,s4,80007e38 <i_7782>

0000000080007e20 <i_7776>:
    80007e20:	11813583          	ld	a1,280(sp)

0000000080007e24 <i_7777>:
    80007e24:	ec016803          	lwu	a6,-320(sp)

0000000080007e28 <i_7778>:
    80007e28:	ea815803          	lhu	a6,-344(sp)

0000000080007e2c <i_7779>:
    80007e2c:	010f86b3          	add	a3,t6,a6

0000000080007e30 <i_7780>:
    80007e30:	14a11b83          	lh	s7,330(sp)

0000000080007e34 <i_7781>:
    80007e34:	02d6e463          	bltu	a3,a3,80007e5c <i_7791>

0000000080007e38 <i_7782>:
    80007e38:	ba2ae697          	auipc	a3,0xba2ae

0000000080007e3c <i_7783>:
    80007e3c:	06b14683          	lbu	a3,107(sp)

0000000080007e40 <i_7784>:
    80007e40:	e2015683          	lhu	a3,-480(sp)

0000000080007e44 <i_7785>:
    80007e44:	e6813c83          	ld	s9,-408(sp)

0000000080007e48 <i_7786>:
    80007e48:	e4d13423          	sd	a3,-440(sp)

0000000080007e4c <i_7787>:
    80007e4c:	f8d14203          	lbu	tp,-115(sp)

0000000080007e50 <i_7788>:
    80007e50:	e6d11223          	sh	a3,-412(sp)

0000000080007e54 <i_7789>:
    80007e54:	fbe15683          	lhu	a3,-66(sp)

0000000080007e58 <i_7790>:
    80007e58:	01a6cd33          	xor	s10,a3,s10

0000000080007e5c <i_7791>:
    80007e5c:	13210ea3          	sb	s2,317(sp)

0000000080007e60 <i_7792>:
    80007e60:	13a10923          	sb	s10,306(sp)

0000000080007e64 <i_7793>:
    80007e64:	f5912223          	sw	s9,-188(sp)

0000000080007e68 <i_7794>:
    80007e68:	024cf3bb          	remuw	t2,s9,tp

0000000080007e6c <i_7795>:
    80007e6c:	19211383          	lh	t2,402(sp)

0000000080007e70 <i_7796>:
    80007e70:	ea611c83          	lh	s9,-346(sp)

0000000080007e74 <i_7797>:
    80007e74:	00439c93          	slli	s9,t2,0x4

0000000080007e78 <i_7798>:
    80007e78:	ff812203          	lw	tp,-8(sp)

0000000080007e7c <i_7799>:
    80007e7c:	402c5c1b          	sraiw	s8,s8,0x2

0000000080007e80 <i_7800>:
    80007e80:	f1910f23          	sb	s9,-226(sp)

0000000080007e84 <i_7801>:
    80007e84:	00300c93          	li	s9,3

0000000080007e88 <i_7802>:
    80007e88:	41915cbb          	sraw	s9,sp,s9

0000000080007e8c <i_7803>:
    80007e8c:	018c8663          	beq	s9,s8,80007e98 <i_7806>

0000000080007e90 <i_7804>:
    80007e90:	05813823          	sd	s8,80(sp)

0000000080007e94 <i_7805>:
    80007e94:	01841263          	bne	s0,s8,80007e98 <i_7806>

0000000080007e98 <i_7806>:
    80007e98:	00000013          	nop

0000000080007e9c <i_7807>:
    80007e9c:	f5b10c83          	lb	s9,-165(sp)

0000000080007ea0 <i_7808>:
    80007ea0:	84c00413          	li	s0,-1972

0000000080007ea4 <i_7809>:
    80007ea4:	85d00293          	li	t0,-1955

0000000080007ea8 <i_7810>:
    80007ea8:	002e5213          	srli	tp,t3,0x2

0000000080007eac <i_7811>:
    80007eac:	00000013          	nop

0000000080007eb0 <i_7812>:
    80007eb0:	e8615b03          	lhu	s6,-378(sp)

0000000080007eb4 <i_7813>:
    80007eb4:	e8c10083          	lb	ra,-372(sp)

0000000080007eb8 <i_7814>:
    80007eb8:	00140413          	addi	s0,s0,1
    80007ebc:	fe5466e3          	bltu	s0,t0,80007ea8 <i_7810>

0000000080007ec0 <i_7815>:
    80007ec0:	e64b6293          	ori	t0,s6,-412

0000000080007ec4 <i_7816>:
    80007ec4:	016b5a63          	ble	s6,s6,80007ed8 <i_7821>

0000000080007ec8 <i_7817>:
    80007ec8:	0020db13          	srli	s6,ra,0x2

0000000080007ecc <i_7818>:
    80007ecc:	06c16b03          	lwu	s6,108(sp)

0000000080007ed0 <i_7819>:
    80007ed0:	1d610ca3          	sb	s6,473(sp)

0000000080007ed4 <i_7820>:
    80007ed4:	005b0533          	add	a0,s6,t0

0000000080007ed8 <i_7821>:
    80007ed8:	0162ce63          	blt	t0,s6,80007ef4 <i_7828>

0000000080007edc <i_7822>:
    80007edc:	0b816b03          	lwu	s6,184(sp)

0000000080007ee0 <i_7823>:
    80007ee0:	402b529b          	sraiw	t0,s6,0x2

0000000080007ee4 <i_7824>:
    80007ee4:	00000013          	nop

0000000080007ee8 <i_7825>:
    80007ee8:	00000013          	nop

0000000080007eec <i_7826>:
    80007eec:	004b5f13          	srli	t5,s6,0x4

0000000080007ef0 <i_7827>:
    80007ef0:	fe513423          	sd	t0,-24(sp)

0000000080007ef4 <i_7828>:
    80007ef4:	a902e413          	ori	s0,t0,-1392

0000000080007ef8 <i_7829>:
    80007ef8:	f6813583          	ld	a1,-152(sp)

0000000080007efc <i_7830>:
    80007efc:	86800093          	li	ra,-1944

0000000080007f00 <i_7831>:
    80007f00:	87b00b13          	li	s6,-1925

0000000080007f04 <i_7832>:
    80007f04:	eb611923          	sh	s6,-334(sp)

0000000080007f08 <i_7833>:
    80007f08:	0a812783          	lw	a5,168(sp)

0000000080007f0c <i_7834>:
    80007f0c:	14e13823          	sd	a4,336(sp)

0000000080007f10 <i_7835>:
    80007f10:	036b75bb          	remuw	a1,s6,s6

0000000080007f14 <i_7836>:
    80007f14:	00108093          	addi	ra,ra,1
    80007f18:	ff6096e3          	bne	ra,s6,80007f04 <i_7832>

0000000080007f1c <i_7837>:
    80007f1c:	01efe1b3          	or	gp,t6,t5

0000000080007f20 <i_7838>:
    80007f20:	16016d03          	lwu	s10,352(sp)

0000000080007f24 <i_7839>:
    80007f24:	01e00613          	li	a2,30

0000000080007f28 <i_7840>:
    80007f28:	00c41f3b          	sllw	t5,s0,a2

0000000080007f2c <i_7841>:
    80007f2c:	03a4043b          	mulw	s0,s0,s10

0000000080007f30 <i_7842>:
    80007f30:	15b14d03          	lbu	s10,347(sp)

0000000080007f34 <i_7843>:
    80007f34:	ebb13823          	sd	s11,-336(sp)

0000000080007f38 <i_7844>:
    80007f38:	f0016283          	lwu	t0,-256(sp)

0000000080007f3c <i_7845>:
    80007f3c:	005d0e63          	beq	s10,t0,80007f58 <i_7852>

0000000080007f40 <i_7846>:
    80007f40:	e4b14c83          	lbu	s9,-437(sp)

0000000080007f44 <i_7847>:
    80007f44:	039d3433          	mulhu	s0,s10,s9

0000000080007f48 <i_7848>:
    80007f48:	2f262d13          	slti	s10,a2,754

0000000080007f4c <i_7849>:
    80007f4c:	00309d9b          	slliw	s11,ra,0x3

0000000080007f50 <i_7850>:
    80007f50:	02a96063          	bltu	s2,a0,80007f70 <i_7858>

0000000080007f54 <i_7851>:
    80007f54:	02300d93          	li	s11,35

0000000080007f58 <i_7852>:
    80007f58:	01ba50b3          	srl	ra,s4,s11

0000000080007f5c <i_7853>:
    80007f5c:	03b3edb3          	rem	s11,t2,s11

0000000080007f60 <i_7854>:
    80007f60:	00229e93          	slli	t4,t0,0x2

0000000080007f64 <i_7855>:
    80007f64:	01ddf263          	bleu	t4,s11,80007f68 <i_7856>

0000000080007f68 <i_7856>:
    80007f68:	01beadb3          	slt	s11,t4,s11

0000000080007f6c <i_7857>:
    80007f6c:	41bd8dbb          	subw	s11,s11,s11

0000000080007f70 <i_7858>:
    80007f70:	fc611d83          	lh	s11,-58(sp)

0000000080007f74 <i_7859>:
    80007f74:	fe810203          	lb	tp,-24(sp)

0000000080007f78 <i_7860>:
    80007f78:	00200e93          	li	t4,2

0000000080007f7c <i_7861>:
    80007f7c:	01dd923b          	sllw	tp,s11,t4

0000000080007f80 <i_7862>:
    80007f80:	e5b12623          	sw	s11,-436(sp)

0000000080007f84 <i_7863>:
    80007f84:	03de9db3          	mulh	s11,t4,t4

0000000080007f88 <i_7864>:
    80007f88:	01910203          	lb	tp,25(sp)

0000000080007f8c <i_7865>:
    80007f8c:	8ac00a93          	li	s5,-1876

0000000080007f90 <i_7866>:
    80007f90:	8b700e93          	li	t4,-1865

0000000080007f94 <i_7867>:
    80007f94:	fa614d83          	lbu	s11,-90(sp)

0000000080007f98 <i_7868>:
    80007f98:	09812203          	lw	tp,152(sp)

0000000080007f9c <i_7869>:
    80007f9c:	001a8a93          	addi	s5,s5,1 # f09f7461 <_end+0x709e704d>
    80007fa0:	ffdaeae3          	bltu	s5,t4,80007f94 <i_7867>

0000000080007fa4 <i_7870>:
    80007fa4:	0dd13023          	sd	t4,192(sp)

0000000080007fa8 <i_7871>:
    80007fa8:	02900a13          	li	s4,41

0000000080007fac <i_7872>:
    80007fac:	41425db3          	sra	s11,tp,s4

0000000080007fb0 <i_7873>:
    80007fb0:	f1511723          	sh	s5,-242(sp)

0000000080007fb4 <i_7874>:
    80007fb4:	11c16983          	lwu	s3,284(sp)

0000000080007fb8 <i_7875>:
    80007fb8:	1bc15483          	lhu	s1,444(sp)

0000000080007fbc <i_7876>:
    80007fbc:	0149cc63          	blt	s3,s4,80007fd4 <i_7882>

0000000080007fc0 <i_7877>:
    80007fc0:	0334e263          	bltu	s1,s3,80007fe4 <i_7886>

0000000080007fc4 <i_7878>:
    80007fc4:	0239e9b3          	rem	s3,s3,gp

0000000080007fc8 <i_7879>:
    80007fc8:	f5d10f03          	lb	t5,-163(sp)

0000000080007fcc <i_7880>:
    80007fcc:	03479063          	bne	a5,s4,80007fec <i_7888>

0000000080007fd0 <i_7881>:
    80007fd0:	00998863          	beq	s3,s1,80007fe0 <i_7885>

0000000080007fd4 <i_7882>:
    80007fd4:	401a5413          	srai	s0,s4,0x1

0000000080007fd8 <i_7883>:
    80007fd8:	0149bf33          	sltu	t5,s3,s4

0000000080007fdc <i_7884>:
    80007fdc:	01e9fe63          	bleu	t5,s3,80007ff8 <i_7891>

0000000080007fe0 <i_7885>:
    80007fe0:	0139f463          	bleu	s3,s3,80007fe8 <i_7887>

0000000080007fe4 <i_7886>:
    80007fe4:	02936063          	bltu	t1,s1,80008004 <i_7894>

0000000080007fe8 <i_7887>:
    80007fe8:	013f4463          	blt	t5,s3,80007ff0 <i_7889>

0000000080007fec <i_7888>:
    80007fec:	13e11623          	sh	t5,300(sp)

0000000080007ff0 <i_7889>:
    80007ff0:	03ef0063          	beq	t5,t5,80008010 <i_7897>

0000000080007ff4 <i_7890>:
    80007ff4:	0149d863          	ble	s4,s3,80008004 <i_7894>

0000000080007ff8 <i_7891>:
    80007ff8:	0fc16483          	lwu	s1,252(sp)

0000000080007ffc <i_7892>:
    80007ffc:	00000013          	nop

0000000080008000 <i_7893>:
    80008000:	00000013          	nop

0000000080008004 <i_7894>:
    80008004:	01700093          	li	ra,23

0000000080008008 <i_7895>:
    80008008:	001090bb          	sllw	ra,ra,ra

000000008000800c <i_7896>:
    8000800c:	18013203          	ld	tp,384(sp)

0000000080008010 <i_7897>:
    80008010:	00000013          	nop

0000000080008014 <i_7898>:
    80008014:	f3710e03          	lb	t3,-201(sp)

0000000080008018 <i_7899>:
    80008018:	8bf00313          	li	t1,-1857

000000008000801c <i_7900>:
    8000801c:	8d100c93          	li	s9,-1839

0000000080008020 <i_7901>:
    80008020:	4c740e93          	addi	t4,s0,1223

0000000080008024 <i_7902>:
    80008024:	03e13423          	sd	t5,40(sp)

0000000080008028 <i_7903>:
    80008028:	2a984e37          	lui	t3,0x2a984

000000008000802c <i_7904>:
    8000802c:	00130313          	addi	t1,t1,1
    80008030:	ff9318e3          	bne	t1,s9,80008020 <i_7901>

0000000080008034 <i_7905>:
    80008034:	01908a63          	beq	ra,s9,80008048 <i_7910>

0000000080008038 <i_7906>:
    80008038:	e6111223          	sh	ra,-412(sp)

000000008000803c <i_7907>:
    8000803c:	e4412683          	lw	a3,-444(sp)

0000000080008040 <i_7908>:
    80008040:	ed013503          	ld	a0,-304(sp)

0000000080008044 <i_7909>:
    80008044:	02abfcb3          	remu	s9,s7,a0

0000000080008048 <i_7910>:
    80008048:	e4d13423          	sd	a3,-440(sp)

000000008000804c <i_7911>:
    8000804c:	02d67633          	remu	a2,a2,a3

0000000080008050 <i_7912>:
    80008050:	01d20a63          	beq	tp,t4,80008064 <i_7917>

0000000080008054 <i_7913>:
    80008054:	02d5a6b3          	mulhsu	a3,a1,a3

0000000080008058 <i_7914>:
    80008058:	00f00613          	li	a2,15

000000008000805c <i_7915>:
    8000805c:	00c750bb          	srlw	ra,a4,a2

0000000080008060 <i_7916>:
    80008060:	c8964513          	xori	a0,a2,-887

0000000080008064 <i_7917>:
    80008064:	e3811c03          	lh	s8,-456(sp)

0000000080008068 <i_7918>:
    80008068:	07b10d83          	lb	s11,123(sp)

000000008000806c <i_7919>:
    8000806c:	f4416483          	lwu	s1,-188(sp)

0000000080008070 <i_7920>:
    80008070:	00455b13          	srli	s6,a0,0x4

0000000080008074 <i_7921>:
    80008074:	00ab6c63          	bltu	s6,a0,8000808c <i_7927>

0000000080008078 <i_7922>:
    80008078:	b5ddc793          	xori	a5,s11,-1187

000000008000807c <i_7923>:
    8000807c:	14114503          	lbu	a0,321(sp)

0000000080008080 <i_7924>:
    80008080:	13812023          	sw	s8,288(sp)

0000000080008084 <i_7925>:
    80008084:	02a50bb3          	mul	s7,a0,a0

0000000080008088 <i_7926>:
    80008088:	01100a93          	li	s5,17

000000008000808c <i_7927>:
    8000808c:	01579633          	sll	a2,a5,s5

0000000080008090 <i_7928>:
    80008090:	001c139b          	slliw	t2,s8,0x1

0000000080008094 <i_7929>:
    80008094:	00415683          	lhu	a3,4(sp)

0000000080008098 <i_7930>:
    80008098:	007b00b3          	add	ra,s6,t2

000000008000809c <i_7931>:
    8000809c:	037bc063          	blt	s7,s7,800080bc <i_7939>

00000000800080a0 <i_7932>:
    800080a0:	018b20b3          	slt	ra,s6,s8

00000000800080a4 <i_7933>:
    800080a4:	00c68663          	beq	a3,a2,800080b0 <i_7936>

00000000800080a8 <i_7934>:
    800080a8:	0d110b03          	lb	s6,209(sp)

00000000800080ac <i_7935>:
    800080ac:	15e11c83          	lh	s9,350(sp)

00000000800080b0 <i_7936>:
    800080b0:	01b08863          	beq	ra,s11,800080c0 <i_7940>

00000000800080b4 <i_7937>:
    800080b4:	ef810483          	lb	s1,-264(sp)

00000000800080b8 <i_7938>:
    800080b8:	019b5e63          	ble	s9,s6,800080d4 <i_7945>

00000000800080bc <i_7939>:
    800080bc:	9cfdcdb7          	lui	s11,0x9cfdc

00000000800080c0 <i_7940>:
    800080c0:	019c9c63          	bne	s9,s9,800080d8 <i_7946>

00000000800080c4 <i_7941>:
    800080c4:	08912423          	sw	s1,136(sp)

00000000800080c8 <i_7942>:
    800080c8:	ee913c23          	sd	s1,-264(sp)

00000000800080cc <i_7943>:
    800080cc:	ee812b03          	lw	s6,-280(sp)

00000000800080d0 <i_7944>:
    800080d0:	1ce15183          	lhu	gp,462(sp)

00000000800080d4 <i_7945>:
    800080d4:	0164ee63          	bltu	s1,s6,800080f0 <i_7952>

00000000800080d8 <i_7946>:
    800080d8:	e86ae237          	lui	tp,0xe86ae

00000000800080dc <i_7947>:
    800080dc:	fe3e74b7          	lui	s1,0xfe3e7

00000000800080e0 <i_7948>:
    800080e0:	fba11d83          	lh	s11,-70(sp)

00000000800080e4 <i_7949>:
    800080e4:	03d00d93          	li	s11,61

00000000800080e8 <i_7950>:
    800080e8:	01b494b3          	sll	s1,s1,s11

00000000800080ec <i_7951>:
    800080ec:	03d4f263          	bleu	t4,s1,80008110 <i_7960>

00000000800080f0 <i_7952>:
    800080f0:	104105a3          	sb	tp,267(sp)

00000000800080f4 <i_7953>:
    800080f4:	07e11d83          	lh	s11,126(sp)

00000000800080f8 <i_7954>:
    800080f8:	11b11b23          	sh	s11,278(sp)

00000000800080fc <i_7955>:
    800080fc:	e3813083          	ld	ra,-456(sp)

0000000080008100 <i_7956>:
    80008100:	00200313          	li	t1,2

0000000080008104 <i_7957>:
    80008104:	00621233          	sll	tp,tp,t1

0000000080008108 <i_7958>:
    80008108:	03b0c063          	blt	ra,s11,80008128 <i_7966>

000000008000810c <i_7959>:
    8000810c:	01b18863          	beq	gp,s11,8000811c <i_7963>

0000000080008110 <i_7960>:
    80008110:	13813083          	ld	ra,312(sp)

0000000080008114 <i_7961>:
    80008114:	001efc63          	bleu	ra,t4,8000812c <i_7967>

0000000080008118 <i_7962>:
    80008118:	0010e463          	bltu	ra,ra,80008120 <i_7964>

000000008000811c <i_7963>:
    8000811c:	fc813203          	ld	tp,-56(sp)

0000000080008120 <i_7964>:
    80008120:	01e24a63          	blt	tp,t5,80008134 <i_7969>

0000000080008124 <i_7965>:
    80008124:	00436e63          	bltu	t1,tp,80008140 <i_7972>

0000000080008128 <i_7966>:
    80008128:	0210d463          	ble	ra,ra,80008150 <i_7976>

000000008000812c <i_7967>:
    8000812c:	00130863          	beq	t1,ra,8000813c <i_7971>

0000000080008130 <i_7968>:
    80008130:	00624463          	blt	tp,t1,80008138 <i_7970>

0000000080008134 <i_7969>:
    80008134:	021260b3          	rem	ra,tp,ra

0000000080008138 <i_7970>:
    80008138:	06111623          	sh	ra,108(sp)

000000008000813c <i_7971>:
    8000813c:	10112c23          	sw	ra,280(sp)

0000000080008140 <i_7972>:
    80008140:	03068ab3          	mul	s5,a3,a6

0000000080008144 <i_7973>:
    80008144:	4026dd13          	srai	s10,a3,0x2

0000000080008148 <i_7974>:
    80008148:	12810e03          	lb	t3,296(sp)

000000008000814c <i_7975>:
    8000814c:	00000013          	nop

0000000080008150 <i_7976>:
    80008150:	00000013          	nop

0000000080008154 <i_7977>:
    80008154:	03c36abb          	remw	s5,t1,t3

0000000080008158 <i_7978>:
    80008158:	8bb00313          	li	t1,-1861

000000008000815c <i_7979>:
    8000815c:	8c400213          	li	tp,-1852

0000000080008160 <i_7980>:
    80008160:	9480ad37          	lui	s10,0x9480a

0000000080008164 <i_7981>:
    80008164:	0c411a83          	lh	s5,196(sp)

0000000080008168 <i_7982>:
    80008168:	87600813          	li	a6,-1930

000000008000816c <i_7983>:
    8000816c:	88000793          	li	a5,-1920

0000000080008170 <i_7984>:
    80008170:	035b3ab3          	mulhu	s5,s6,s5

0000000080008174 <i_7985>:
    80008174:	00180813          	addi	a6,a6,1
    80008178:	fef86ce3          	bltu	a6,a5,80008170 <i_7984>

000000008000817c <i_7986>:
    8000817c:	00dd7e33          	and	t3,s10,a3

0000000080008180 <i_7987>:
    80008180:	00130313          	addi	t1,t1,1
    80008184:	fc436ee3          	bltu	t1,tp,80008160 <i_7980>

0000000080008188 <i_7988>:
    80008188:	015e4e63          	blt	t3,s5,800081a4 <i_7995>

000000008000818c <i_7989>:
    8000818c:	16c16a83          	lwu	s5,364(sp)

0000000080008190 <i_7990>:
    80008190:	17a10683          	lb	a3,378(sp)

0000000080008194 <i_7991>:
    80008194:	0016da9b          	srliw	s5,a3,0x1

0000000080008198 <i_7992>:
    80008198:	f5011023          	sh	a6,-192(sp)

000000008000819c <i_7993>:
    8000819c:	03ce4e33          	div	t3,t3,t3

00000000800081a0 <i_7994>:
    800081a0:	01ca8863          	beq	s5,t3,800081b0 <i_7998>

00000000800081a4 <i_7995>:
    800081a4:	00d6f463          	bleu	a3,a3,800081ac <i_7997>

00000000800081a8 <i_7996>:
    800081a8:	001f1f13          	slli	t5,t5,0x1

00000000800081ac <i_7997>:
    800081ac:	00e00e13          	li	t3,14

00000000800081b0 <i_7998>:
    800081b0:	01ca963b          	sllw	a2,s5,t3

00000000800081b4 <i_7999>:
    800081b4:	e8c12a83          	lw	s5,-372(sp)

00000000800081b8 <i_8000>:
    800081b8:	00c65c63          	ble	a2,a2,800081d0 <i_8006>

00000000800081bc <i_8001>:
    800081bc:	02c8f263          	bleu	a2,a7,800081e0 <i_8010>

00000000800081c0 <i_8002>:
    800081c0:	96a5d3b7          	lui	t2,0x96a5d

00000000800081c4 <i_8003>:
    800081c4:	10c12a83          	lw	s5,268(sp)

00000000800081c8 <i_8004>:
    800081c8:	00000013          	nop

00000000800081cc <i_8005>:
    800081cc:	b9fa7393          	andi	t2,s4,-1121

00000000800081d0 <i_8006>:
    800081d0:	01c7edb3          	or	s11,a5,t3

00000000800081d4 <i_8007>:
    800081d4:	0dc16683          	lwu	a3,220(sp)

00000000800081d8 <i_8008>:
    800081d8:	02011d03          	lh	s10,32(sp)

00000000800081dc <i_8009>:
    800081dc:	02268f3b          	mulw	t5,a3,sp

00000000800081e0 <i_8010>:
    800081e0:	09310f03          	lb	t5,147(sp)

00000000800081e4 <i_8011>:
    800081e4:	0f812e03          	lw	t3,248(sp)

00000000800081e8 <i_8012>:
    800081e8:	89300413          	li	s0,-1901

00000000800081ec <i_8013>:
    800081ec:	89d00313          	li	t1,-1891

00000000800081f0 <i_8014>:
    800081f0:	e3015a83          	lhu	s5,-464(sp)

00000000800081f4 <i_8015>:
    800081f4:	01100d13          	li	s10,17

00000000800081f8 <i_8016>:
    800081f8:	41ae523b          	sraw	tp,t3,s10

00000000800081fc <i_8017>:
    800081fc:	00427263          	bleu	tp,tp,80008200 <i_8018>

0000000080008200 <i_8018>:
    80008200:	326c0a13          	addi	s4,s8,806

0000000080008204 <i_8019>:
    80008204:	e6e11a83          	lh	s5,-402(sp)

0000000080008208 <i_8020>:
    80008208:	00140413          	addi	s0,s0,1
    8000820c:	fe8372e3          	bleu	s0,t1,800081f0 <i_8014>

0000000080008210 <i_8021>:
    80008210:	03300093          	li	ra,51

0000000080008214 <i_8022>:
    80008214:	001d5c33          	srl	s8,s10,ra

0000000080008218 <i_8023>:
    80008218:	038d02b3          	mul	t0,s10,s8

000000008000821c <i_8024>:
    8000821c:	025a9463          	bne	s5,t0,80008244 <i_8034>

0000000080008220 <i_8025>:
    80008220:	00cc6863          	bltu	s8,a2,80008230 <i_8029>

0000000080008224 <i_8026>:
    80008224:	19211083          	lh	ra,402(sp)

0000000080008228 <i_8027>:
    80008228:	00a00e93          	li	t4,10

000000008000822c <i_8028>:
    8000822c:	01d9dabb          	srlw	s5,s3,t4

0000000080008230 <i_8029>:
    80008230:	06c15083          	lhu	ra,108(sp)

0000000080008234 <i_8030>:
    80008234:	00409c1b          	slliw	s8,ra,0x4

0000000080008238 <i_8031>:
    80008238:	17e08093          	addi	ra,ra,382

000000008000823c <i_8032>:
    8000823c:	001d4a63          	blt	s10,ra,80008250 <i_8037>

0000000080008240 <i_8033>:
    80008240:	0220d2b3          	divu	t0,ra,sp

0000000080008244 <i_8034>:
    80008244:	03b282bb          	mulw	t0,t0,s11

0000000080008248 <i_8035>:
    80008248:	f0113c23          	sd	ra,-232(sp)

000000008000824c <i_8036>:
    8000824c:	e6410483          	lb	s1,-412(sp)

0000000080008250 <i_8037>:
    80008250:	02710283          	lb	t0,39(sp)

0000000080008254 <i_8038>:
    80008254:	00f00a13          	li	s4,15

0000000080008258 <i_8039>:
    80008258:	014494b3          	sll	s1,s1,s4

000000008000825c <i_8040>:
    8000825c:	84a00693          	li	a3,-1974

0000000080008260 <i_8041>:
    80008260:	85100093          	li	ra,-1967

0000000080008264 <i_8042>:
    80008264:	02711b23          	sh	t2,54(sp)

0000000080008268 <i_8043>:
    80008268:	00168693          	addi	a3,a3,1 # 3a2b5e39 <main-0x45d4a1c7>
    8000826c:	fe169ae3          	bne	a3,ra,80008260 <i_8041>

0000000080008270 <i_8044>:
    80008270:	00000013          	nop

0000000080008274 <i_8045>:
    80008274:	fc110c03          	lb	s8,-63(sp)

0000000080008278 <i_8046>:
    80008278:	01ba6663          	bltu	s4,s11,80008284 <i_8049>

000000008000827c <i_8047>:
    8000827c:	02b98063          	beq	s3,a1,8000829c <i_8055>

0000000080008280 <i_8048>:
    80008280:	15b104a3          	sb	s11,329(sp)

0000000080008284 <i_8049>:
    80008284:	0014d493          	srli	s1,s1,0x1

0000000080008288 <i_8050>:
    80008288:	18910c23          	sb	s1,408(sp)

000000008000828c <i_8051>:
    8000828c:	14912e23          	sw	s1,348(sp)

0000000080008290 <i_8052>:
    80008290:	03592db3          	mulhsu	s11,s2,s5

0000000080008294 <i_8053>:
    80008294:	9d9a1497          	auipc	s1,0x9d9a1

0000000080008298 <i_8054>:
    80008298:	002c00b3          	add	ra,s8,sp

000000008000829c <i_8055>:
    8000829c:	00000013          	nop

00000000800082a0 <i_8056>:
    800082a0:	16bc2093          	slti	ra,s8,363

00000000800082a4 <i_8057>:
    800082a4:	88700a93          	li	s5,-1913

00000000800082a8 <i_8058>:
    800082a8:	88c00a13          	li	s4,-1908

00000000800082ac <i_8059>:
    800082ac:	00000013          	nop

00000000800082b0 <i_8060>:
    800082b0:	f4112623          	sw	ra,-180(sp)

00000000800082b4 <i_8061>:
    800082b4:	001a8a93          	addi	s5,s5,1
    800082b8:	ff4a9ae3          	bne	s5,s4,800082ac <i_8059>

00000000800082bc <i_8062>:
    800082bc:	01811983          	lh	s3,24(sp)

00000000800082c0 <i_8063>:
    800082c0:	89164613          	xori	a2,a2,-1903

00000000800082c4 <i_8064>:
    800082c4:	f9015083          	lhu	ra,-112(sp)

00000000800082c8 <i_8065>:
    800082c8:	eb813a83          	ld	s5,-328(sp)

00000000800082cc <i_8066>:
    800082cc:	009ae263          	bltu	s5,s1,800082d0 <i_8067>

00000000800082d0 <i_8067>:
    800082d0:	e2112223          	sw	ra,-476(sp)

00000000800082d4 <i_8068>:
    800082d4:	07211383          	lh	t2,114(sp)

00000000800082d8 <i_8069>:
    800082d8:	14013083          	ld	ra,320(sp)

00000000800082dc <i_8070>:
    800082dc:	00764db3          	xor	s11,a2,t2

00000000800082e0 <i_8071>:
    800082e0:	f0012803          	lw	a6,-256(sp)

00000000800082e4 <i_8072>:
    800082e4:	f7016503          	lwu	a0,-144(sp)

00000000800082e8 <i_8073>:
    800082e8:	003add13          	srli	s10,s5,0x3

00000000800082ec <i_8074>:
    800082ec:	00b00e13          	li	t3,11

00000000800082f0 <i_8075>:
    800082f0:	01cc1db3          	sll	s11,s8,t3

00000000800082f4 <i_8076>:
    800082f4:	027d57bb          	divuw	a5,s10,t2

00000000800082f8 <i_8077>:
    800082f8:	03c879b3          	remu	s3,a6,t3

00000000800082fc <i_8078>:
    800082fc:	036d6463          	bltu	s10,s6,80008324 <i_8088>

0000000080008300 <i_8079>:
    80008300:	035384bb          	mulw	s1,t2,s5

0000000080008304 <i_8080>:
    80008304:	03c11b23          	sh	t3,54(sp)

0000000080008308 <i_8081>:
    80008308:	ae60f613          	andi	a2,ra,-1306

000000008000830c <i_8082>:
    8000830c:	0e016803          	lwu	a6,224(sp)

0000000080008310 <i_8083>:
    80008310:	15c11e23          	sh	t3,348(sp)

0000000080008314 <i_8084>:
    80008314:	06214b83          	lbu	s7,98(sp)

0000000080008318 <i_8085>:
    80008318:	f6013d03          	ld	s10,-160(sp)

000000008000831c <i_8086>:
    8000831c:	03a97d3b          	remuw	s10,s2,s10

0000000080008320 <i_8087>:
    80008320:	00000013          	nop

0000000080008324 <i_8088>:
    80008324:	e3513823          	sd	s5,-464(sp)

0000000080008328 <i_8089>:
    80008328:	0e611d03          	lh	s10,230(sp)

000000008000832c <i_8090>:
    8000832c:	7c300493          	li	s1,1987

0000000080008330 <i_8091>:
    80008330:	7d500d93          	li	s11,2005

0000000080008334 <i_8092>:
    80008334:	0031e463          	bltu	gp,gp,8000833c <i_8094>

0000000080008338 <i_8093>:
    80008338:	1f544413          	xori	s0,s0,501

000000008000833c <i_8094>:
    8000833c:	11c11d03          	lh	s10,284(sp)

0000000080008340 <i_8095>:
    80008340:	01ae2bb3          	slt	s7,t3,s10

0000000080008344 <i_8096>:
    80008344:	00000013          	nop

0000000080008348 <i_8097>:
    80008348:	09013603          	ld	a2,144(sp)

000000008000834c <i_8098>:
    8000834c:	f3f14503          	lbu	a0,-193(sp)

0000000080008350 <i_8099>:
    80008350:	01614a83          	lbu	s5,22(sp)

0000000080008354 <i_8100>:
    80008354:	05210583          	lb	a1,82(sp)

0000000080008358 <i_8101>:
    80008358:	0ea15983          	lhu	s3,234(sp)

000000008000835c <i_8102>:
    8000835c:	11a14a03          	lbu	s4,282(sp)

0000000080008360 <i_8103>:
    80008360:	00148493          	addi	s1,s1,1 # 1d9a9295 <main-0x62656d6b>
    80008364:	fdb4c8e3          	blt	s1,s11,80008334 <i_8092>

0000000080008368 <i_8104>:
    80008368:	01500d13          	li	s10,21

000000008000836c <i_8105>:
    8000836c:	01a45b3b          	srlw	s6,s0,s10

0000000080008370 <i_8106>:
    80008370:	09613823          	sd	s6,144(sp)

0000000080008374 <i_8107>:
    80008374:	03c00313          	li	t1,60

0000000080008378 <i_8108>:
    80008378:	00631333          	sll	t1,t1,t1

000000008000837c <i_8109>:
    8000837c:	83800413          	li	s0,-1992

0000000080008380 <i_8110>:
    80008380:	83f00b13          	li	s6,-1985

0000000080008384 <i_8111>:
    80008384:	00140413          	addi	s0,s0,1
    80008388:	ff646ce3          	bltu	s0,s6,80008380 <i_8110>

000000008000838c <i_8112>:
    8000838c:	ead13023          	sd	a3,-352(sp)

0000000080008390 <i_8113>:
    80008390:	14613c23          	sd	t1,344(sp)

0000000080008394 <i_8114>:
    80008394:	0da107a3          	sb	s10,207(sp)

0000000080008398 <i_8115>:
    80008398:	fac12303          	lw	t1,-84(sp)

000000008000839c <i_8116>:
    8000839c:	036364b3          	rem	s1,t1,s6

00000000800083a0 <i_8117>:
    800083a0:	01acfa63          	bleu	s10,s9,800083b4 <i_8122>

00000000800083a4 <i_8118>:
    800083a4:	ea813023          	sd	s0,-352(sp)

00000000800083a8 <i_8119>:
    800083a8:	029b7b3b          	remuw	s6,s6,s1

00000000800083ac <i_8120>:
    800083ac:	ecc10283          	lb	t0,-308(sp)

00000000800083b0 <i_8121>:
    800083b0:	0099ee63          	bltu	s3,s1,800083cc <i_8128>

00000000800083b4 <i_8122>:
    800083b4:	007d7663          	bleu	t2,s10,800083c0 <i_8125>

00000000800083b8 <i_8123>:
    800083b8:	0362b333          	mulhu	t1,t0,s6

00000000800083bc <i_8124>:
    800083bc:	006d5a63          	ble	t1,s10,800083d0 <i_8129>

00000000800083c0 <i_8125>:
    800083c0:	18513023          	sd	t0,384(sp)

00000000800083c4 <i_8126>:
    800083c4:	0102d663          	ble	a6,t0,800083d0 <i_8129>

00000000800083c8 <i_8127>:
    800083c8:	10910323          	sb	s1,262(sp)

00000000800083cc <i_8128>:
    800083cc:	fe010d03          	lb	s10,-32(sp)

00000000800083d0 <i_8129>:
    800083d0:	e7610fa3          	sb	s6,-385(sp)

00000000800083d4 <i_8130>:
    800083d4:	11a15d03          	lhu	s10,282(sp)

00000000800083d8 <i_8131>:
    800083d8:	00c15863          	ble	a2,sp,800083e8 <i_8135>

00000000800083dc <i_8132>:
    800083dc:	b8f733b7          	lui	t2,0xb8f73

00000000800083e0 <i_8133>:
    800083e0:	00828333          	add	t1,t0,s0

00000000800083e4 <i_8134>:
    800083e4:	00640a63          	beq	s0,t1,800083f8 <i_8139>

00000000800083e8 <i_8135>:
    800083e8:	01800293          	li	t0,24

00000000800083ec <i_8136>:
    800083ec:	0053d2bb          	srlw	t0,t2,t0

00000000800083f0 <i_8137>:
    800083f0:	026d69b3          	rem	s3,s10,t1

00000000800083f4 <i_8138>:
    800083f4:	1dc15083          	lhu	ra,476(sp)

00000000800083f8 <i_8139>:
    800083f8:	3ab08313          	addi	t1,ra,939

00000000800083fc <i_8140>:
    800083fc:	16812683          	lw	a3,360(sp)

0000000080008400 <i_8141>:
    80008400:	01d379b3          	and	s3,t1,t4

0000000080008404 <i_8142>:
    80008404:	4032da9b          	sraiw	s5,t0,0x3

0000000080008408 <i_8143>:
    80008408:	403a5393          	srai	t2,s4,0x3

000000008000840c <i_8144>:
    8000840c:	f5f12223          	sw	t6,-188(sp)

0000000080008410 <i_8145>:
    80008410:	013982b3          	add	t0,s3,s3

0000000080008414 <i_8146>:
    80008414:	0d511a23          	sh	s5,212(sp)

0000000080008418 <i_8147>:
    80008418:	ef610303          	lb	t1,-266(sp)

000000008000841c <i_8148>:
    8000841c:	95930193          	addi	gp,t1,-1703

0000000080008420 <i_8149>:
    80008420:	0359e263          	bltu	s3,s5,80008444 <i_8158>

0000000080008424 <i_8150>:
    80008424:	0252dd33          	divu	s10,t0,t0

0000000080008428 <i_8151>:
    80008428:	0151d263          	ble	s5,gp,8000842c <i_8152>

000000008000842c <i_8152>:
    8000842c:	029e2c33          	mulhsu	s8,t3,s1

0000000080008430 <i_8153>:
    80008430:	12510483          	lb	s1,293(sp)

0000000080008434 <i_8154>:
    80008434:	e3811a23          	sh	s8,-460(sp)

0000000080008438 <i_8155>:
    80008438:	01f39463          	bne	t2,t6,80008440 <i_8157>

000000008000843c <i_8156>:
    8000843c:	e8815383          	lhu	t2,-376(sp)

0000000080008440 <i_8157>:
    80008440:	f1c16203          	lwu	tp,-228(sp)

0000000080008444 <i_8158>:
    80008444:	ec013c03          	ld	s8,-320(sp)

0000000080008448 <i_8159>:
    80008448:	ec014403          	lbu	s0,-320(sp)

000000008000844c <i_8160>:
    8000844c:	81b00493          	li	s1,-2021

0000000080008450 <i_8161>:
    80008450:	82d00d13          	li	s10,-2003

0000000080008454 <i_8162>:
    80008454:	1d211203          	lh	tp,466(sp)

0000000080008458 <i_8163>:
    80008458:	00148493          	addi	s1,s1,1
    8000845c:	fe9d5ce3          	ble	s1,s10,80008454 <i_8162>

0000000080008460 <i_8164>:
    80008460:	04111623          	sh	ra,76(sp)

0000000080008464 <i_8165>:
    80008464:	027ac063          	blt	s5,t2,80008484 <i_8173>

0000000080008468 <i_8166>:
    80008468:	1c910fa3          	sb	s1,479(sp)

000000008000846c <i_8167>:
    8000846c:	f4211d03          	lh	s10,-190(sp)

0000000080008470 <i_8168>:
    80008470:	12811223          	sh	s0,292(sp)

0000000080008474 <i_8169>:
    80008474:	01000493          	li	s1,16

0000000080008478 <i_8170>:
    80008478:	009a54bb          	srlw	s1,s4,s1

000000008000847c <i_8171>:
    8000847c:	27093e93          	sltiu	t4,s2,624

0000000080008480 <i_8172>:
    80008480:	028be43b          	remw	s0,s7,s0

0000000080008484 <i_8173>:
    80008484:	00000013          	nop

0000000080008488 <i_8174>:
    80008488:	00265413          	srli	s0,a2,0x2

000000008000848c <i_8175>:
    8000848c:	7ea00c13          	li	s8,2026

0000000080008490 <i_8176>:
    80008490:	7ee00b93          	li	s7,2030

0000000080008494 <i_8177>:
    80008494:	fb812383          	lw	t2,-72(sp)

0000000080008498 <i_8178>:
    80008498:	00000013          	nop

000000008000849c <i_8179>:
    8000849c:	89400d93          	li	s11,-1900

00000000800084a0 <i_8180>:
    800084a0:	89700613          	li	a2,-1897

00000000800084a4 <i_8181>:
    800084a4:	f4814403          	lbu	s0,-184(sp)

00000000800084a8 <i_8182>:
    800084a8:	001d8d93          	addi	s11,s11,1 # ffffffff9cfdc001 <_end+0xffffffff1cfcbbed>
    800084ac:	fecdece3          	bltu	s11,a2,800084a4 <i_8181>

00000000800084b0 <i_8183>:
    800084b0:	00000013          	nop

00000000800084b4 <i_8184>:
    800084b4:	00000013          	nop

00000000800084b8 <i_8185>:
    800084b8:	00e47e63          	bleu	a4,s0,800084d4 <i_8191>

00000000800084bc <i_8186>:
    800084bc:	001c0c13          	addi	s8,s8,1
    800084c0:	fd8bfae3          	bleu	s8,s7,80008494 <i_8177>

00000000800084c4 <i_8187>:
    800084c4:	1cc16c83          	lwu	s9,460(sp)

00000000800084c8 <i_8188>:
    800084c8:	0073e5b3          	or	a1,t2,t2

00000000800084cc <i_8189>:
    800084cc:	00c64263          	blt	a2,a2,800084d0 <i_8190>

00000000800084d0 <i_8190>:
    800084d0:	0153c1b3          	xor	gp,t2,s5

00000000800084d4 <i_8191>:
    800084d4:	fa514603          	lbu	a2,-91(sp)

00000000800084d8 <i_8192>:
    800084d8:	18511123          	sh	t0,386(sp)

00000000800084dc <i_8193>:
    800084dc:	1bd14a83          	lbu	s5,445(sp)

00000000800084e0 <i_8194>:
    800084e0:	18c10e03          	lb	t3,396(sp)

00000000800084e4 <i_8195>:
    800084e4:	ffc12623          	sw	t3,-20(sp)

00000000800084e8 <i_8196>:
    800084e8:	fc810423          	sb	s0,-56(sp)

00000000800084ec <i_8197>:
    800084ec:	f1a10d03          	lb	s10,-230(sp)

00000000800084f0 <i_8198>:
    800084f0:	403c5c13          	srai	s8,s8,0x3

00000000800084f4 <i_8199>:
    800084f4:	01c60a63          	beq	a2,t3,80008508 <i_8204>

00000000800084f8 <i_8200>:
    800084f8:	e2112c23          	sw	ra,-456(sp)

00000000800084fc <i_8201>:
    800084fc:	613e4493          	xori	s1,t3,1555

0000000080008500 <i_8202>:
    80008500:	12816d83          	lwu	s11,296(sp)

0000000080008504 <i_8203>:
    80008504:	038e5d3b          	divuw	s10,t3,s8

0000000080008508 <i_8204>:
    80008508:	402d5d13          	srai	s10,s10,0x2

000000008000850c <i_8205>:
    8000850c:	003d8e33          	add	t3,s11,gp

0000000080008510 <i_8206>:
    80008510:	03260263          	beq	a2,s2,80008534 <i_8215>

0000000080008514 <i_8207>:
    80008514:	00200393          	li	t2,2

0000000080008518 <i_8208>:
    80008518:	4071d533          	sra	a0,gp,t2

000000008000851c <i_8209>:
    8000851c:	fb410aa3          	sb	s4,-75(sp)

0000000080008520 <i_8210>:
    80008520:	0f510803          	lb	a6,245(sp)

0000000080008524 <i_8211>:
    80008524:	e2c12a03          	lw	s4,-468(sp)

0000000080008528 <i_8212>:
    80008528:	00000013          	nop

000000008000852c <i_8213>:
    8000852c:	fb011923          	sh	a6,-78(sp)

0000000080008530 <i_8214>:
    80008530:	03e00313          	li	t1,62

0000000080008534 <i_8215>:
    80008534:	006a13b3          	sll	t2,s4,t1

0000000080008538 <i_8216>:
    80008538:	e6815c83          	lhu	s9,-408(sp)

000000008000853c <i_8217>:
    8000853c:	84e00613          	li	a2,-1970

0000000080008540 <i_8218>:
    80008540:	86200193          	li	gp,-1950

0000000080008544 <i_8219>:
    80008544:	00731463          	bne	t1,t2,8000854c <i_8221>

0000000080008548 <i_8220>:
    80008548:	01c16a03          	lwu	s4,28(sp)

000000008000854c <i_8221>:
    8000854c:	01913023          	sd	s9,0(sp)

0000000080008550 <i_8222>:
    80008550:	00000013          	nop

0000000080008554 <i_8223>:
    80008554:	00160613          	addi	a2,a2,1
    80008558:	fec1d6e3          	ble	a2,gp,80008544 <i_8219>

000000008000855c <i_8224>:
    8000855c:	404eda1b          	sraiw	s4,t4,0x4

0000000080008560 <i_8225>:
    80008560:	1e611b83          	lh	s7,486(sp)

0000000080008564 <i_8226>:
    80008564:	007be663          	bltu	s7,t2,80008570 <i_8229>

0000000080008568 <i_8227>:
    80008568:	014a5863          	ble	s4,s4,80008578 <i_8231>

000000008000856c <i_8228>:
    8000856c:	01bbe863          	bltu	s7,s11,8000857c <i_8232>

0000000080008570 <i_8229>:
    80008570:	043a3293          	sltiu	t0,s4,67

0000000080008574 <i_8230>:
    80008574:	11011d83          	lh	s11,272(sp)

0000000080008578 <i_8231>:
    80008578:	05b13423          	sd	s11,72(sp)

000000008000857c <i_8232>:
    8000857c:	03800c13          	li	s8,56

0000000080008580 <i_8233>:
    80008580:	418652b3          	sra	t0,a2,s8

0000000080008584 <i_8234>:
    80008584:	ef5b8b9b          	addiw	s7,s7,-267

0000000080008588 <i_8235>:
    80008588:	ed813b83          	ld	s7,-296(sp)

000000008000858c <i_8236>:
    8000858c:	f7710023          	sb	s7,-160(sp)

0000000080008590 <i_8237>:
    80008590:	003e1e1b          	slliw	t3,t3,0x3

0000000080008594 <i_8238>:
    80008594:	03ce0e3b          	mulw	t3,t3,t3

0000000080008598 <i_8239>:
    80008598:	03cb9063          	bne	s7,t3,800085b8 <i_8247>

000000008000859c <i_8240>:
    8000859c:	168f4e17          	auipc	t3,0x168f4

00000000800085a0 <i_8241>:
    800085a0:	01500813          	li	a6,21

00000000800085a4 <i_8242>:
    800085a4:	010e5bbb          	srlw	s7,t3,a6

00000000800085a8 <i_8243>:
    800085a8:	f7c11623          	sh	t3,-148(sp)

00000000800085ac <i_8244>:
    800085ac:	ef012423          	sw	a6,-280(sp)

00000000800085b0 <i_8245>:
    800085b0:	f1c13c23          	sd	t3,-232(sp)

00000000800085b4 <i_8246>:
    800085b4:	837eff37          	lui	t5,0x837ef

00000000800085b8 <i_8247>:
    800085b8:	08e15e03          	lhu	t3,142(sp)

00000000800085bc <i_8248>:
    800085bc:	01cf6263          	bltu	t5,t3,800085c0 <i_8249>

00000000800085c0 <i_8249>:
    800085c0:	e4016f03          	lwu	t5,-448(sp)

00000000800085c4 <i_8250>:
    800085c4:	fe814803          	lbu	a6,-24(sp)

00000000800085c8 <i_8251>:
    800085c8:	1b012223          	sw	a6,420(sp)

00000000800085cc <i_8252>:
    800085cc:	01e80e63          	beq	a6,t5,800085e8 <i_8259>

00000000800085d0 <i_8253>:
    800085d0:	0c016a83          	lwu	s5,192(sp)

00000000800085d4 <i_8254>:
    800085d4:	f5416d83          	lwu	s11,-172(sp)

00000000800085d8 <i_8255>:
    800085d8:	030f1463          	bne	t5,a6,80008600 <i_8265>

00000000800085dc <i_8256>:
    800085dc:	01ba8a63          	beq	s5,s11,800085f0 <i_8261>

00000000800085e0 <i_8257>:
    800085e0:	13412603          	lw	a2,308(sp)

00000000800085e4 <i_8258>:
    800085e4:	01067bb3          	and	s7,a2,a6

00000000800085e8 <i_8259>:
    800085e8:	0ac12803          	lw	a6,172(sp)

00000000800085ec <i_8260>:
    800085ec:	08c12183          	lw	gp,140(sp)

00000000800085f0 <i_8261>:
    800085f0:	01900093          	li	ra,25

00000000800085f4 <i_8262>:
    800085f4:	001b9233          	sll	tp,s7,ra

00000000800085f8 <i_8263>:
    800085f8:	002e1b93          	slli	s7,t3,0x2

00000000800085fc <i_8264>:
    800085fc:	06615d03          	lhu	s10,102(sp)

0000000080008600 <i_8265>:
    80008600:	12416403          	lwu	s0,292(sp)

0000000080008604 <i_8266>:
    80008604:	1c310303          	lb	t1,451(sp)

0000000080008608 <i_8267>:
    80008608:	76b00613          	li	a2,1899

000000008000860c <i_8268>:
    8000860c:	77300e13          	li	t3,1907

0000000080008610 <i_8269>:
    80008610:	f0713423          	sd	t2,-248(sp)

0000000080008614 <i_8270>:
    80008614:	01c00213          	li	tp,28

0000000080008618 <i_8271>:
    80008618:	4043543b          	sraw	s0,t1,tp

000000008000861c <i_8272>:
    8000861c:	00000013          	nop

0000000080008620 <i_8273>:
    80008620:	02720a3b          	mulw	s4,tp,t2

0000000080008624 <i_8274>:
    80008624:	03a71063          	bne	a4,s10,80008644 <i_8281>

0000000080008628 <i_8275>:
    80008628:	00160613          	addi	a2,a2,1
    8000862c:	ffc612e3          	bne	a2,t3,80008610 <i_8269>

0000000080008630 <i_8276>:
    80008630:	021bc463          	blt	s7,ra,80008658 <i_8286>

0000000080008634 <i_8277>:
    80008634:	e6811e23          	sh	s0,-388(sp)

0000000080008638 <i_8278>:
    80008638:	00659863          	bne	a1,t1,80008648 <i_8282>

000000008000863c <i_8279>:
    8000863c:	feb10e03          	lb	t3,-21(sp)

0000000080008640 <i_8280>:
    80008640:	02a2b533          	mulhu	a0,t0,a0

0000000080008644 <i_8281>:
    80008644:	bfdbfb93          	andi	s7,s7,-1027

0000000080008648 <i_8282>:
    80008648:	14148b93          	addi	s7,s1,321

000000008000864c <i_8283>:
    8000864c:	01a52533          	slt	a0,a0,s10

0000000080008650 <i_8284>:
    80008650:	0e412503          	lw	a0,228(sp)

0000000080008654 <i_8285>:
    80008654:	ecf14f03          	lbu	t5,-305(sp)

0000000080008658 <i_8286>:
    80008658:	019f2533          	slt	a0,t5,s9

000000008000865c <i_8287>:
    8000865c:	ae8f2613          	slti	a2,t5,-1304

0000000080008660 <i_8288>:
    80008660:	79800d13          	li	s10,1944

0000000080008664 <i_8289>:
    80008664:	79f00493          	li	s1,1951

0000000080008668 <i_8290>:
    80008668:	00000013          	nop

000000008000866c <i_8291>:
    8000866c:	02ab9cb3          	mulh	s9,s7,a0

0000000080008670 <i_8292>:
    80008670:	08f10303          	lb	t1,143(sp)

0000000080008674 <i_8293>:
    80008674:	00000013          	nop

0000000080008678 <i_8294>:
    80008678:	02a0ea33          	rem	s4,ra,a0

000000008000867c <i_8295>:
    8000867c:	001d0d13          	addi	s10,s10,1 # ffffffff9480a001 <_end+0xffffffff147f9bed>
    80008680:	fe9d44e3          	blt	s10,s1,80008668 <i_8290>

0000000080008684 <i_8296>:
    80008684:	022364bb          	remw	s1,t1,sp

0000000080008688 <i_8297>:
    80008688:	023554bb          	divuw	s1,a0,gp

000000008000868c <i_8298>:
    8000868c:	00931463          	bne	t1,s1,80008694 <i_8300>

0000000080008690 <i_8299>:
    80008690:	01d00e93          	li	t4,29

0000000080008694 <i_8300>:
    80008694:	01da90bb          	sllw	ra,s5,t4

0000000080008698 <i_8301>:
    80008698:	ed410123          	sb	s4,-318(sp)

000000008000869c <i_8302>:
    8000869c:	0e912623          	sw	s1,236(sp)

00000000800086a0 <i_8303>:
    800086a0:	1fe11323          	sh	t5,486(sp)

00000000800086a4 <i_8304>:
    800086a4:	01da6c63          	bltu	s4,t4,800086bc <i_8310>

00000000800086a8 <i_8305>:
    800086a8:	8f6a8a37          	lui	s4,0x8f6a8

00000000800086ac <i_8306>:
    800086ac:	404e5e13          	srai	t3,t3,0x4

00000000800086b0 <i_8307>:
    800086b0:	e7e11723          	sh	t5,-402(sp)

00000000800086b4 <i_8308>:
    800086b4:	e8110fa3          	sb	ra,-353(sp)

00000000800086b8 <i_8309>:
    800086b8:	01ef0e33          	add	t3,t5,t5

00000000800086bc <i_8310>:
    800086bc:	1643ad37          	lui	s10,0x1643a

00000000800086c0 <i_8311>:
    800086c0:	00000013          	nop

00000000800086c4 <i_8312>:
    800086c4:	83d00f13          	li	t5,-1987

00000000800086c8 <i_8313>:
    800086c8:	84600093          	li	ra,-1978

00000000800086cc <i_8314>:
    800086cc:	01ef5663          	ble	t5,t5,800086d8 <i_8317>

00000000800086d0 <i_8315>:
    800086d0:	02ad553b          	divuw	a0,s10,a0

00000000800086d4 <i_8316>:
    800086d4:	01ad7c63          	bleu	s10,s10,800086ec <i_8322>

00000000800086d8 <i_8317>:
    800086d8:	f9c16503          	lwu	a0,-100(sp)

00000000800086dc <i_8318>:
    800086dc:	40165613          	srai	a2,a2,0x1

00000000800086e0 <i_8319>:
    800086e0:	001d1193          	slli	gp,s10,0x1

00000000800086e4 <i_8320>:
    800086e4:	f1414603          	lbu	a2,-236(sp)

00000000800086e8 <i_8321>:
    800086e8:	00bd71b3          	and	gp,s10,a1

00000000800086ec <i_8322>:
    800086ec:	f0013503          	ld	a0,-256(sp)

00000000800086f0 <i_8323>:
    800086f0:	fd813783          	ld	a5,-40(sp)

00000000800086f4 <i_8324>:
    800086f4:	001f0f13          	addi	t5,t5,1 # ffffffff837ef001 <_end+0xffffffff037debed>
    800086f8:	fc1f6ae3          	bltu	t5,ra,800086cc <i_8314>

00000000800086fc <i_8325>:
    800086fc:	00a51663          	bne	a0,a0,80008708 <i_8328>

0000000080008700 <i_8326>:
    80008700:	e7016303          	lwu	t1,-400(sp)

0000000080008704 <i_8327>:
    80008704:	02a37ebb          	remuw	t4,t1,a0

0000000080008708 <i_8328>:
    80008708:	0327d463          	ble	s2,a5,80008730 <i_8338>

000000008000870c <i_8329>:
    8000870c:	12611023          	sh	t1,288(sp)

0000000080008710 <i_8330>:
    80008710:	f2a11c23          	sh	a0,-200(sp)

0000000080008714 <i_8331>:
    80008714:	00f50c63          	beq	a0,a5,8000872c <i_8337>

0000000080008718 <i_8332>:
    80008718:	12a11723          	sh	a0,302(sp)

000000008000871c <i_8333>:
    8000871c:	18016b83          	lwu	s7,384(sp)

0000000080008720 <i_8334>:
    80008720:	f3013c03          	ld	s8,-208(sp)

0000000080008724 <i_8335>:
    80008724:	8aa78c1b          	addiw	s8,a5,-1878

0000000080008728 <i_8336>:
    80008728:	024b023b          	mulw	tp,s6,tp

000000008000872c <i_8337>:
    8000872c:	416204b3          	sub	s1,tp,s6

0000000080008730 <i_8338>:
    80008730:	00000013          	nop

0000000080008734 <i_8339>:
    80008734:	00000013          	nop

0000000080008738 <i_8340>:
    80008738:	83800e93          	li	t4,-1992

000000008000873c <i_8341>:
    8000873c:	84300793          	li	a5,-1981

0000000080008740 <i_8342>:
    80008740:	00200a13          	li	s4,2

0000000080008744 <i_8343>:
    80008744:	414c5a3b          	sraw	s4,s8,s4

0000000080008748 <i_8344>:
    80008748:	00b21e63          	bne	tp,a1,80008764 <i_8351>

000000008000874c <i_8345>:
    8000874c:	00000013          	nop

0000000080008750 <i_8346>:
    80008750:	03d4d4b3          	divu	s1,s1,t4

0000000080008754 <i_8347>:
    80008754:	f8e15a03          	lhu	s4,-114(sp)

0000000080008758 <i_8348>:
    80008758:	03848663          	beq	s1,s8,80008784 <i_8358>

000000008000875c <i_8349>:
    8000875c:	004a5c13          	srli	s8,s4,0x4

0000000080008760 <i_8350>:
    80008760:	038a45b3          	div	a1,s4,s8

0000000080008764 <i_8351>:
    80008764:	fdf14d03          	lbu	s10,-33(sp)

0000000080008768 <i_8352>:
    80008768:	014a6c63          	bltu	s4,s4,80008780 <i_8357>

000000008000876c <i_8353>:
    8000876c:	001e8e93          	addi	t4,t4,1
    80008770:	fcfe98e3          	bne	t4,a5,80008740 <i_8342>

0000000080008774 <i_8354>:
    80008774:	e9815d03          	lhu	s10,-360(sp)

0000000080008778 <i_8355>:
    80008778:	17a11c23          	sh	s10,376(sp)

000000008000877c <i_8356>:
    8000877c:	402a5f1b          	sraiw	t5,s4,0x2

0000000080008780 <i_8357>:
    80008780:	01e5e863          	bltu	a1,t5,80008790 <i_8361>

0000000080008784 <i_8358>:
    80008784:	e4416803          	lwu	a6,-444(sp)

0000000080008788 <i_8359>:
    80008788:	15410223          	sb	s4,324(sp)

000000008000878c <i_8360>:
    8000878c:	1b013a03          	ld	s4,432(sp)

0000000080008790 <i_8361>:
    80008790:	36fd7a37          	lui	s4,0x36fd7

0000000080008794 <i_8362>:
    80008794:	0cbc3e37          	lui	t3,0xcbc3

0000000080008798 <i_8363>:
    80008798:	7a800493          	li	s1,1960

000000008000879c <i_8364>:
    8000879c:	7af00f13          	li	t5,1967

00000000800087a0 <i_8365>:
    800087a0:	03defebb          	remuw	t4,t4,t4

00000000800087a4 <i_8366>:
    800087a4:	0094fe33          	and	t3,s1,s1

00000000800087a8 <i_8367>:
    800087a8:	014e6663          	bltu	t3,s4,800087b4 <i_8370>

00000000800087ac <i_8368>:
    800087ac:	06910ea3          	sb	s1,125(sp)

00000000800087b0 <i_8369>:
    800087b0:	1ce15c03          	lhu	s8,462(sp)

00000000800087b4 <i_8370>:
    800087b4:	f6c16e03          	lwu	t3,-148(sp)

00000000800087b8 <i_8371>:
    800087b8:	0c410783          	lb	a5,196(sp)

00000000800087bc <i_8372>:
    800087bc:	00148493          	addi	s1,s1,1
    800087c0:	ffe4e0e3          	bltu	s1,t5,800087a0 <i_8365>

00000000800087c4 <i_8373>:
    800087c4:	40aecb93          	xori	s7,t4,1034

00000000800087c8 <i_8374>:
    800087c8:	e9d11223          	sh	t4,-380(sp)

00000000800087cc <i_8375>:
    800087cc:	01c59e63          	bne	a1,t3,800087e8 <i_8382>

00000000800087d0 <i_8376>:
    800087d0:	e7e15683          	lhu	a3,-386(sp)

00000000800087d4 <i_8377>:
    800087d4:	01af0b33          	add	s6,t5,s10

00000000800087d8 <i_8378>:
    800087d8:	024e1233          	mulh	tp,t3,tp

00000000800087dc <i_8379>:
    800087dc:	1c314a83          	lbu	s5,451(sp)

00000000800087e0 <i_8380>:
    800087e0:	01c24463          	blt	tp,t3,800087e8 <i_8382>

00000000800087e4 <i_8381>:
    800087e4:	017e5c63          	ble	s7,t3,800087fc <i_8387>

00000000800087e8 <i_8382>:
    800087e8:	403ada93          	srai	s5,s5,0x3

00000000800087ec <i_8383>:
    800087ec:	0047939b          	slliw	t2,a5,0x4

00000000800087f0 <i_8384>:
    800087f0:	0f012983          	lw	s3,240(sp)

00000000800087f4 <i_8385>:
    800087f4:	f5d14583          	lbu	a1,-163(sp)

00000000800087f8 <i_8386>:
    800087f8:	0099e4b3          	or	s1,s3,s1

00000000800087fc <i_8387>:
    800087fc:	015a8ab3          	add	s5,s5,s5

0000000080008800 <i_8388>:
    80008800:	0d215803          	lhu	a6,210(sp)

0000000080008804 <i_8389>:
    80008804:	0264de3b          	divuw	t3,s1,t1

0000000080008808 <i_8390>:
    80008808:	00c86ab3          	or	s5,a6,a2

000000008000880c <i_8391>:
    8000880c:	035a8abb          	mulw	s5,s5,s5

0000000080008810 <i_8392>:
    80008810:	010ac833          	xor	a6,s5,a6

0000000080008814 <i_8393>:
    80008814:	0b513423          	sd	s5,168(sp)

0000000080008818 <i_8394>:
    80008818:	d0780093          	addi	ra,a6,-761

000000008000881c <i_8395>:
    8000881c:	17713023          	sd	s7,352(sp)

0000000080008820 <i_8396>:
    80008820:	0d711223          	sh	s7,196(sp)

0000000080008824 <i_8397>:
    80008824:	01085a63          	ble	a6,a6,80008838 <i_8402>

0000000080008828 <i_8398>:
    80008828:	15513423          	sd	s5,328(sp)

000000008000882c <i_8399>:
    8000882c:	e6710803          	lb	a6,-409(sp)

0000000080008830 <i_8400>:
    80008830:	010e8663          	beq	t4,a6,8000883c <i_8403>

0000000080008834 <i_8401>:
    80008834:	09187813          	andi	a6,a6,145

0000000080008838 <i_8402>:
    80008838:	e3015503          	lhu	a0,-464(sp)

000000008000883c <i_8403>:
    8000883c:	f5013423          	sd	a6,-184(sp)

0000000080008840 <i_8404>:
    80008840:	01918263          	beq	gp,s9,80008844 <i_8405>

0000000080008844 <i_8405>:
    80008844:	00d52533          	slt	a0,a0,a3

0000000080008848 <i_8406>:
    80008848:	00a6d263          	ble	a0,a3,8000884c <i_8407>

000000008000884c <i_8407>:
    8000884c:	00b25263          	ble	a1,tp,80008850 <i_8408>

0000000080008850 <i_8408>:
    80008850:	ee013483          	ld	s1,-288(sp)

0000000080008854 <i_8409>:
    80008854:	e2a10623          	sb	a0,-468(sp)

0000000080008858 <i_8410>:
    80008858:	02854bb3          	div	s7,a0,s0

000000008000885c <i_8411>:
    8000885c:	0373f533          	remu	a0,t2,s7

0000000080008860 <i_8412>:
    80008860:	1aa11483          	lh	s1,426(sp)

0000000080008864 <i_8413>:
    80008864:	0094da63          	ble	s1,s1,80008878 <i_8418>

0000000080008868 <i_8414>:
    80008868:	02a49463          	bne	s1,a0,80008890 <i_8424>

000000008000886c <i_8415>:
    8000886c:	009b9a63          	bne	s7,s1,80008880 <i_8420>

0000000080008870 <i_8416>:
    80008870:	009b9463          	bne	s7,s1,80008878 <i_8418>

0000000080008874 <i_8417>:
    80008874:	fac109a3          	sb	a2,-77(sp)

0000000080008878 <i_8418>:
    80008878:	017b8533          	add	a0,s7,s7

000000008000887c <i_8419>:
    8000887c:	00c00b93          	li	s7,12

0000000080008880 <i_8420>:
    80008880:	417554bb          	sraw	s1,a0,s7

0000000080008884 <i_8421>:
    80008884:	12c10303          	lb	t1,300(sp)

0000000080008888 <i_8422>:
    80008888:	ec811483          	lh	s1,-312(sp)

000000008000888c <i_8423>:
    8000888c:	e29bcb93          	xori	s7,s7,-471

0000000080008890 <i_8424>:
    80008890:	0c013e83          	ld	t4,192(sp)

0000000080008894 <i_8425>:
    80008894:	fd813c03          	ld	s8,-40(sp)

0000000080008898 <i_8426>:
    80008898:	001edc93          	srli	s9,t4,0x1

000000008000889c <i_8427>:
    8000889c:	13d11823          	sh	t4,304(sp)

00000000800088a0 <i_8428>:
    800088a0:	16c16583          	lwu	a1,364(sp)

00000000800088a4 <i_8429>:
    800088a4:	0afc8c1b          	addiw	s8,s9,175

00000000800088a8 <i_8430>:
    800088a8:	026b433b          	divw	t1,s6,t1

00000000800088ac <i_8431>:
    800088ac:	fd813423          	sd	s8,-56(sp)

00000000800088b0 <i_8432>:
    800088b0:	f2710b03          	lb	s6,-217(sp)

00000000800088b4 <i_8433>:
    800088b4:	0180f0b3          	and	ra,ra,s8

00000000800088b8 <i_8434>:
    800088b8:	02236463          	bltu	t1,sp,800088e0 <i_8444>

00000000800088bc <i_8435>:
    800088bc:	028b2c33          	mulhsu	s8,s6,s0

00000000800088c0 <i_8436>:
    800088c0:	ed812683          	lw	a3,-296(sp)

00000000800088c4 <i_8437>:
    800088c4:	038acab3          	div	s5,s5,s8

00000000800088c8 <i_8438>:
    800088c8:	f4c16183          	lwu	gp,-180(sp)

00000000800088cc <i_8439>:
    800088cc:	00109c13          	slli	s8,ra,0x1

00000000800088d0 <i_8440>:
    800088d0:	e8311323          	sh	gp,-378(sp)

00000000800088d4 <i_8441>:
    800088d4:	ef510ba3          	sb	s5,-265(sp)

00000000800088d8 <i_8442>:
    800088d8:	00000013          	nop

00000000800088dc <i_8443>:
    800088dc:	02416b03          	lwu	s6,36(sp)

00000000800088e0 <i_8444>:
    800088e0:	03549c33          	mulh	s8,s1,s5

00000000800088e4 <i_8445>:
    800088e4:	eb611523          	sh	s6,-342(sp)

00000000800088e8 <i_8446>:
    800088e8:	78e00313          	li	t1,1934

00000000800088ec <i_8447>:
    800088ec:	79800c93          	li	s9,1944

00000000800088f0 <i_8448>:
    800088f0:	e5714083          	lbu	ra,-425(sp)

00000000800088f4 <i_8449>:
    800088f4:	00130313          	addi	t1,t1,1
    800088f8:	fe6cdce3          	ble	t1,s9,800088f0 <i_8448>

00000000800088fc <i_8450>:
    800088fc:	f7416183          	lwu	gp,-140(sp)

0000000080008900 <i_8451>:
    80008900:	0ba15c03          	lhu	s8,186(sp)

0000000080008904 <i_8452>:
    80008904:	0d811823          	sh	s8,208(sp)

0000000080008908 <i_8453>:
    80008908:	ea311623          	sh	gp,-340(sp)

000000008000890c <i_8454>:
    8000890c:	01613823          	sd	s6,16(sp)

0000000080008910 <i_8455>:
    80008910:	00b00193          	li	gp,11

0000000080008914 <i_8456>:
    80008914:	0031dc3b          	srlw	s8,gp,gp

0000000080008918 <i_8457>:
    80008918:	e8310723          	sb	gp,-370(sp)

000000008000891c <i_8458>:
    8000891c:	06311323          	sh	gp,102(sp)

0000000080008920 <i_8459>:
    80008920:	17e11e83          	lh	t4,382(sp)

0000000080008924 <i_8460>:
    80008924:	02400493          	li	s1,36

0000000080008928 <i_8461>:
    80008928:	009c1f33          	sll	t5,s8,s1

000000008000892c <i_8462>:
    8000892c:	03310183          	lb	gp,51(sp)

0000000080008930 <i_8463>:
    80008930:	01a4f863          	bleu	s10,s1,80008940 <i_8467>

0000000080008934 <i_8464>:
    80008934:	03d10723          	sb	t4,46(sp)

0000000080008938 <i_8465>:
    80008938:	00000013          	nop

000000008000893c <i_8466>:
    8000893c:	f0013e83          	ld	t4,-256(sp)

0000000080008940 <i_8467>:
    80008940:	00000013          	nop

0000000080008944 <i_8468>:
    80008944:	00000013          	nop

0000000080008948 <i_8469>:
    80008948:	85d00193          	li	gp,-1955

000000008000894c <i_8470>:
    8000894c:	86200d13          	li	s10,-1950

0000000080008950 <i_8471>:
    80008950:	f7a13423          	sd	s10,-152(sp)

0000000080008954 <i_8472>:
    80008954:	00000013          	nop

0000000080008958 <i_8473>:
    80008958:	0f014e83          	lbu	t4,240(sp)

000000008000895c <i_8474>:
    8000895c:	00000013          	nop

0000000080008960 <i_8475>:
    80008960:	09513c23          	sd	s5,152(sp)

0000000080008964 <i_8476>:
    80008964:	01dd29b3          	slt	s3,s10,t4

0000000080008968 <i_8477>:
    80008968:	00118193          	addi	gp,gp,1 # 5ae5e001 <main-0x251a1fff>
    8000896c:	fe3d72e3          	bleu	gp,s10,80008950 <i_8471>

0000000080008970 <i_8478>:
    80008970:	4039d993          	srai	s3,s3,0x3

0000000080008974 <i_8479>:
    80008974:	e8816e83          	lwu	t4,-376(sp)

0000000080008978 <i_8480>:
    80008978:	00000013          	nop

000000008000897c <i_8481>:
    8000897c:	04b14a83          	lbu	s5,75(sp)

0000000080008980 <i_8482>:
    80008980:	84200393          	li	t2,-1982

0000000080008984 <i_8483>:
    80008984:	85100593          	li	a1,-1967

0000000080008988 <i_8484>:
    80008988:	11c14a83          	lbu	s5,284(sp)

000000008000898c <i_8485>:
    8000898c:	00d00c93          	li	s9,13

0000000080008990 <i_8486>:
    80008990:	419cdcbb          	sraw	s9,s9,s9

0000000080008994 <i_8487>:
    80008994:	1ac11803          	lh	a6,428(sp)

0000000080008998 <i_8488>:
    80008998:	002cdc93          	srli	s9,s9,0x2

000000008000899c <i_8489>:
    8000899c:	01084c63          	blt	a6,a6,800089b4 <i_8495>

00000000800089a0 <i_8490>:
    800089a0:	00c00c93          	li	s9,12

00000000800089a4 <i_8491>:
    800089a4:	01981bb3          	sll	s7,a6,s9

00000000800089a8 <i_8492>:
    800089a8:	030941bb          	divw	gp,s2,a6

00000000800089ac <i_8493>:
    800089ac:	00000013          	nop

00000000800089b0 <i_8494>:
    800089b0:	e7c15f03          	lhu	t5,-388(sp)

00000000800089b4 <i_8495>:
    800089b4:	f0015b83          	lhu	s7,-256(sp)

00000000800089b8 <i_8496>:
    800089b8:	039c9233          	mulh	tp,s9,s9

00000000800089bc <i_8497>:
    800089bc:	e6312a23          	sw	gp,-396(sp)

00000000800089c0 <i_8498>:
    800089c0:	5963c2b7          	lui	t0,0x5963c

00000000800089c4 <i_8499>:
    800089c4:	010bfe63          	bleu	a6,s7,800089e0 <i_8505>

00000000800089c8 <i_8500>:
    800089c8:	00138393          	addi	t2,t2,1 # ffffffffb8f73001 <_end+0xffffffff38f62bed>
    800089cc:	fab3cee3          	blt	t2,a1,80008988 <i_8484>

00000000800089d0 <i_8501>:
    800089d0:	7d41e693          	ori	a3,gp,2004

00000000800089d4 <i_8502>:
    800089d4:	003bf863          	bleu	gp,s7,800089e4 <i_8506>

00000000800089d8 <i_8503>:
    800089d8:	14816d83          	lwu	s11,328(sp)

00000000800089dc <i_8504>:
    800089dc:	07013803          	ld	a6,112(sp)

00000000800089e0 <i_8505>:
    800089e0:	0371af33          	mulhsu	t5,gp,s7

00000000800089e4 <i_8506>:
    800089e4:	fa815283          	lhu	t0,-88(sp)

00000000800089e8 <i_8507>:
    800089e8:	010dd463          	ble	a6,s11,800089f0 <i_8509>

00000000800089ec <i_8508>:
    800089ec:	00d14403          	lbu	s0,13(sp)

00000000800089f0 <i_8509>:
    800089f0:	00341813          	slli	a6,s0,0x3

00000000800089f4 <i_8510>:
    800089f4:	0044e463          	bltu	s1,tp,800089fc <i_8512>

00000000800089f8 <i_8511>:
    800089f8:	00847a63          	bleu	s0,s0,80008a0c <i_8516>

00000000800089fc <i_8512>:
    800089fc:	84a87213          	andi	tp,a6,-1974

0000000080008a00 <i_8513>:
    80008a00:	41080433          	sub	s0,a6,a6

0000000080008a04 <i_8514>:
    80008a04:	caf84c93          	xori	s9,a6,-849

0000000080008a08 <i_8515>:
    80008a08:	09510523          	sb	s5,138(sp)

0000000080008a0c <i_8516>:
    80008a0c:	f6012403          	lw	s0,-160(sp)

0000000080008a10 <i_8517>:
    80008a10:	00640333          	add	t1,s0,t1

0000000080008a14 <i_8518>:
    80008a14:	030fccb3          	div	s9,t6,a6

0000000080008a18 <i_8519>:
    80008a18:	01d00293          	li	t0,29

0000000080008a1c <i_8520>:
    80008a1c:	005cd33b          	srlw	t1,s9,t0

0000000080008a20 <i_8521>:
    80008a20:	00241c9b          	slliw	s9,s0,0x2

0000000080008a24 <i_8522>:
    80008a24:	016cbf13          	sltiu	t5,s9,22

0000000080008a28 <i_8523>:
    80008a28:	00a232b3          	sltu	t0,tp,a0

0000000080008a2c <i_8524>:
    80008a2c:	00a80a63          	beq	a6,a0,80008a40 <i_8529>

0000000080008a30 <i_8525>:
    80008a30:	00840663          	beq	s0,s0,80008a3c <i_8528>

0000000080008a34 <i_8526>:
    80008a34:	06512c23          	sw	t0,120(sp)

0000000080008a38 <i_8527>:
    80008a38:	006f1863          	bne	t5,t1,80008a48 <i_8531>

0000000080008a3c <i_8528>:
    80008a3c:	f6416303          	lwu	t1,-156(sp)

0000000080008a40 <i_8529>:
    80008a40:	028382bb          	mulw	t0,t2,s0

0000000080008a44 <i_8530>:
    80008a44:	17e10c83          	lb	s9,382(sp)

0000000080008a48 <i_8531>:
    80008a48:	0fe10783          	lb	a5,254(sp)

0000000080008a4c <i_8532>:
    80008a4c:	02637263          	bleu	t1,t1,80008a70 <i_8541>

0000000080008a50 <i_8533>:
    80008a50:	e3813303          	ld	t1,-456(sp)

0000000080008a54 <i_8534>:
    80008a54:	12812c83          	lw	s9,296(sp)

0000000080008a58 <i_8535>:
    80008a58:	1f60b313          	sltiu	t1,ra,502

0000000080008a5c <i_8536>:
    80008a5c:	01931463          	bne	t1,s9,80008a64 <i_8538>

0000000080008a60 <i_8537>:
    80008a60:	ebf13823          	sd	t6,-336(sp)

0000000080008a64 <i_8538>:
    80008a64:	0a013c83          	ld	s9,160(sp)

0000000080008a68 <i_8539>:
    80008a68:	16812d83          	lw	s11,360(sp)

0000000080008a6c <i_8540>:
    80008a6c:	efc12303          	lw	t1,-260(sp)

0000000080008a70 <i_8541>:
    80008a70:	01bb6c63          	bltu	s6,s11,80008a88 <i_8547>

0000000080008a74 <i_8542>:
    80008a74:	ee613023          	sd	t1,-288(sp)

0000000080008a78 <i_8543>:
    80008a78:	f9215d83          	lhu	s11,-110(sp)

0000000080008a7c <i_8544>:
    80008a7c:	00ade663          	bltu	s11,a0,80008a88 <i_8547>

0000000080008a80 <i_8545>:
    80008a80:	0210e0b3          	rem	ra,ra,ra

0000000080008a84 <i_8546>:
    80008a84:	00180e63          	beq	a6,ra,80008aa0 <i_8553>

0000000080008a88 <i_8547>:
    80008a88:	f5b12623          	sw	s11,-180(sp)

0000000080008a8c <i_8548>:
    80008a8c:	0e412b83          	lw	s7,228(sp)

0000000080008a90 <i_8549>:
    80008a90:	f7b12623          	sw	s11,-148(sp)

0000000080008a94 <i_8550>:
    80008a94:	18013803          	ld	a6,384(sp)

0000000080008a98 <i_8551>:
    80008a98:	15e13423          	sd	t5,328(sp)

0000000080008a9c <i_8552>:
    80008a9c:	022c53bb          	divuw	t2,s8,sp

0000000080008aa0 <i_8553>:
    80008aa0:	402bd093          	srai	ra,s7,0x2

0000000080008aa4 <i_8554>:
    80008aa4:	037870b3          	remu	ra,a6,s7

0000000080008aa8 <i_8555>:
    80008aa8:	f9b12623          	sw	s11,-116(sp)

0000000080008aac <i_8556>:
    80008aac:	fb710b83          	lb	s7,-73(sp)

0000000080008ab0 <i_8557>:
    80008ab0:	0270c463          	blt	ra,t2,80008ad8 <i_8567>

0000000080008ab4 <i_8558>:
    80008ab4:	01400393          	li	t2,20

0000000080008ab8 <i_8559>:
    80008ab8:	007393bb          	sllw	t2,t2,t2

0000000080008abc <i_8560>:
    80008abc:	10014383          	lbu	t2,256(sp)

0000000080008ac0 <i_8561>:
    80008ac0:	efc16283          	lwu	t0,-260(sp)

0000000080008ac4 <i_8562>:
    80008ac4:	0273e263          	bltu	t2,t2,80008ae8 <i_8571>

0000000080008ac8 <i_8563>:
    80008ac8:	00738663          	beq	t2,t2,80008ad4 <i_8566>

0000000080008acc <i_8564>:
    80008acc:	0016dd1b          	srliw	s10,a3,0x1

0000000080008ad0 <i_8565>:
    80008ad0:	17a11483          	lh	s1,378(sp)

0000000080008ad4 <i_8566>:
    80008ad4:	ee110fa3          	sb	ra,-257(sp)

0000000080008ad8 <i_8567>:
    80008ad8:	16912623          	sw	s1,364(sp)

0000000080008adc <i_8568>:
    80008adc:	02951533          	mulh	a0,a0,s1

0000000080008ae0 <i_8569>:
    80008ae0:	e7d5049b          	addiw	s1,a0,-387

0000000080008ae4 <i_8570>:
    80008ae4:	029484b3          	mul	s1,s1,s1

0000000080008ae8 <i_8571>:
    80008ae8:	01600493          	li	s1,22

0000000080008aec <i_8572>:
    80008aec:	0094d9b3          	srl	s3,s1,s1

0000000080008af0 <i_8573>:
    80008af0:	81700093          	li	ra,-2025

0000000080008af4 <i_8574>:
    80008af4:	81d00393          	li	t2,-2019

0000000080008af8 <i_8575>:
    80008af8:	0134ec63          	bltu	s1,s3,80008b10 <i_8581>

0000000080008afc <i_8576>:
    80008afc:	00000013          	nop

0000000080008b00 <i_8577>:
    80008b00:	1c910d23          	sb	s1,474(sp)

0000000080008b04 <i_8578>:
    80008b04:	f3312c23          	sw	s3,-200(sp)

0000000080008b08 <i_8579>:
    80008b08:	01000993          	li	s3,16

0000000080008b0c <i_8580>:
    80008b0c:	013597bb          	sllw	a5,a1,s3

0000000080008b10 <i_8581>:
    80008b10:	e3310c23          	sb	s3,-456(sp)

0000000080008b14 <i_8582>:
    80008b14:	1cf13823          	sd	a5,464(sp)

0000000080008b18 <i_8583>:
    80008b18:	00108093          	addi	ra,ra,1
    80008b1c:	fc70eee3          	bltu	ra,t2,80008af8 <i_8575>

0000000080008b20 <i_8584>:
    80008b20:	04014483          	lbu	s1,64(sp)

0000000080008b24 <i_8585>:
    80008b24:	01f00413          	li	s0,31

0000000080008b28 <i_8586>:
    80008b28:	0084d7bb          	srlw	a5,s1,s0

0000000080008b2c <i_8587>:
    80008b2c:	02f49063          	bne	s1,a5,80008b4c <i_8595>

0000000080008b30 <i_8588>:
    80008b30:	fe813403          	ld	s0,-24(sp)

0000000080008b34 <i_8589>:
    80008b34:	0099d463          	ble	s1,s3,80008b3c <i_8591>

0000000080008b38 <i_8590>:
    80008b38:	11c14983          	lbu	s3,284(sp)

0000000080008b3c <i_8591>:
    80008b3c:	034457b3          	divu	a5,s0,s4

0000000080008b40 <i_8592>:
    80008b40:	4014549b          	sraiw	s1,s0,0x1

0000000080008b44 <i_8593>:
    80008b44:	00878e63          	beq	a5,s0,80008b60 <i_8600>

0000000080008b48 <i_8594>:
    80008b48:	04411083          	lh	ra,68(sp)

0000000080008b4c <i_8595>:
    80008b4c:	05312c23          	sw	s3,88(sp)

0000000080008b50 <i_8596>:
    80008b50:	4020d49b          	sraiw	s1,ra,0x2

0000000080008b54 <i_8597>:
    80008b54:	00e11c03          	lh	s8,14(sp)

0000000080008b58 <i_8598>:
    80008b58:	fa9101a3          	sb	s1,-93(sp)

0000000080008b5c <i_8599>:
    80008b5c:	00949e63          	bne	s1,s1,80008b78 <i_8606>

0000000080008b60 <i_8600>:
    80008b60:	02913823          	sd	s1,48(sp)

0000000080008b64 <i_8601>:
    80008b64:	0294d1b3          	divu	gp,s1,s1

0000000080008b68 <i_8602>:
    80008b68:	fea15183          	lhu	gp,-22(sp)

0000000080008b6c <i_8603>:
    80008b6c:	0bc12483          	lw	s1,188(sp)

0000000080008b70 <i_8604>:
    80008b70:	0031dc63          	ble	gp,gp,80008b88 <i_8610>

0000000080008b74 <i_8605>:
    80008b74:	23fc7293          	andi	t0,s8,575

0000000080008b78 <i_8606>:
    80008b78:	24d43a37          	lui	s4,0x24d43

0000000080008b7c <i_8607>:
    80008b7c:	d1418217          	auipc	tp,0xd1418

0000000080008b80 <i_8608>:
    80008b80:	495c6993          	ori	s3,s8,1173

0000000080008b84 <i_8609>:
    80008b84:	fca10aa3          	sb	a0,-43(sp)

0000000080008b88 <i_8610>:
    80008b88:	ef810e23          	sb	s8,-260(sp)

0000000080008b8c <i_8611>:
    80008b8c:	41fb8c3b          	subw	s8,s7,t6

0000000080008b90 <i_8612>:
    80008b90:	1ad10c03          	lb	s8,429(sp)

0000000080008b94 <i_8613>:
    80008b94:	0339b9b3          	mulhu	s3,s3,s3

0000000080008b98 <i_8614>:
    80008b98:	0e015283          	lhu	t0,224(sp)

0000000080008b9c <i_8615>:
    80008b9c:	04013783          	ld	a5,64(sp)

0000000080008ba0 <i_8616>:
    80008ba0:	002c0663          	beq	s8,sp,80008bac <i_8619>

0000000080008ba4 <i_8617>:
    80008ba4:	018c6863          	bltu	s8,s8,80008bb4 <i_8621>

0000000080008ba8 <i_8618>:
    80008ba8:	03611203          	lh	tp,54(sp)

0000000080008bac <i_8619>:
    80008bac:	fd512623          	sw	s5,-52(sp)

0000000080008bb0 <i_8620>:
    80008bb0:	e8f12c23          	sw	a5,-360(sp)

0000000080008bb4 <i_8621>:
    80008bb4:	1d312c23          	sw	s3,472(sp)

0000000080008bb8 <i_8622>:
    80008bb8:	fbc15183          	lhu	gp,-68(sp)

0000000080008bbc <i_8623>:
    80008bbc:	76600c13          	li	s8,1894

0000000080008bc0 <i_8624>:
    80008bc0:	77300293          	li	t0,1907

0000000080008bc4 <i_8625>:
    80008bc4:	00000013          	nop

0000000080008bc8 <i_8626>:
    80008bc8:	f3c16183          	lwu	gp,-196(sp)

0000000080008bcc <i_8627>:
    80008bcc:	033c4463          	blt	s8,s3,80008bf4 <i_8636>

0000000080008bd0 <i_8628>:
    80008bd0:	00000013          	nop

0000000080008bd4 <i_8629>:
    80008bd4:	405389bb          	subw	s3,t2,t0

0000000080008bd8 <i_8630>:
    80008bd8:	0051b5b3          	sltu	a1,gp,t0

0000000080008bdc <i_8631>:
    80008bdc:	001c0c13          	addi	s8,s8,1
    80008be0:	ff82d2e3          	ble	s8,t0,80008bc4 <i_8625>

0000000080008be4 <i_8632>:
    80008be4:	0055f863          	bleu	t0,a1,80008bf4 <i_8636>

0000000080008be8 <i_8633>:
    80008be8:	d3e44413          	xori	s0,s0,-706

0000000080008bec <i_8634>:
    80008bec:	8e9cbd13          	sltiu	s10,s9,-1815

0000000080008bf0 <i_8635>:
    80008bf0:	00f1dc63          	ble	a5,gp,80008c08 <i_8641>

0000000080008bf4 <i_8636>:
    80008bf4:	0181ea63          	bltu	gp,s8,80008c08 <i_8641>

0000000080008bf8 <i_8637>:
    80008bf8:	04513c23          	sd	t0,88(sp)

0000000080008bfc <i_8638>:
    80008bfc:	07815503          	lhu	a0,120(sp)

0000000080008c00 <i_8639>:
    80008c00:	09010c83          	lb	s9,144(sp)

0000000080008c04 <i_8640>:
    80008c04:	02344533          	div	a0,s0,gp

0000000080008c08 <i_8641>:
    80008c08:	11f11723          	sh	t6,270(sp)

0000000080008c0c <i_8642>:
    80008c0c:	04816483          	lwu	s1,72(sp)

0000000080008c10 <i_8643>:
    80008c10:	e2f13c23          	sd	a5,-456(sp)

0000000080008c14 <i_8644>:
    80008c14:	f6e11783          	lh	a5,-146(sp)

0000000080008c18 <i_8645>:
    80008c18:	00910e23          	sb	s1,28(sp)

0000000080008c1c <i_8646>:
    80008c1c:	0297aab3          	mulhsu	s5,a5,s1

0000000080008c20 <i_8647>:
    80008c20:	f9813403          	ld	s0,-104(sp)

0000000080008c24 <i_8648>:
    80008c24:	009afe33          	and	t3,s5,s1

0000000080008c28 <i_8649>:
    80008c28:	03ca8c33          	mul	s8,s5,t3

0000000080008c2c <i_8650>:
    80008c2c:	029c0c3b          	mulw	s8,s8,s1

0000000080008c30 <i_8651>:
    80008c30:	0e812823          	sw	s0,240(sp)

0000000080008c34 <i_8652>:
    80008c34:	0b010a83          	lb	s5,176(sp)

0000000080008c38 <i_8653>:
    80008c38:	018c6c33          	or	s8,s8,s8

0000000080008c3c <i_8654>:
    80008c3c:	1ec100a3          	sb	a2,481(sp)

0000000080008c40 <i_8655>:
    80008c40:	418c06b3          	sub	a3,s8,s8

0000000080008c44 <i_8656>:
    80008c44:	ece10283          	lb	t0,-306(sp)

0000000080008c48 <i_8657>:
    80008c48:	f0012683          	lw	a3,-256(sp)

0000000080008c4c <i_8658>:
    80008c4c:	1ea12023          	sw	a0,480(sp)

0000000080008c50 <i_8659>:
    80008c50:	0056de63          	ble	t0,a3,80008c6c <i_8666>

0000000080008c54 <i_8660>:
    80008c54:	0256c0b3          	div	ra,a3,t0

0000000080008c58 <i_8661>:
    80008c58:	00d206b3          	add	a3,tp,a3

0000000080008c5c <i_8662>:
    80008c5c:	02189463          	bne	a7,ra,80008c84 <i_8672>

0000000080008c60 <i_8663>:
    80008c60:	08813503          	ld	a0,136(sp)

0000000080008c64 <i_8664>:
    80008c64:	0010b0b3          	sltu	ra,ra,ra

0000000080008c68 <i_8665>:
    80008c68:	03a0ed3b          	remw	s10,ra,s10

0000000080008c6c <i_8666>:
    80008c6c:	e5b12e23          	sw	s11,-420(sp)

0000000080008c70 <i_8667>:
    80008c70:	15c13823          	sd	t3,336(sp)

0000000080008c74 <i_8668>:
    80008c74:	003f31b3          	sltu	gp,t5,gp

0000000080008c78 <i_8669>:
    80008c78:	00d69263          	bne	a3,a3,80008c7c <i_8670>

0000000080008c7c <i_8670>:
    80008c7c:	02453cb3          	mulhu	s9,a0,tp

0000000080008c80 <i_8671>:
    80008c80:	fda13023          	sd	s10,-64(sp)

0000000080008c84 <i_8672>:
    80008c84:	02d1ecb3          	rem	s9,gp,a3

0000000080008c88 <i_8673>:
    80008c88:	02d0f463          	bleu	a3,ra,80008cb0 <i_8683>

0000000080008c8c <i_8674>:
    80008c8c:	e6812183          	lw	gp,-408(sp)

0000000080008c90 <i_8675>:
    80008c90:	01812c03          	lw	s8,24(sp)

0000000080008c94 <i_8676>:
    80008c94:	00245c9b          	srliw	s9,s0,0x2

0000000080008c98 <i_8677>:
    80008c98:	039cf1b3          	remu	gp,s9,s9

0000000080008c9c <i_8678>:
    80008c9c:	023cdcbb          	divuw	s9,s9,gp

0000000080008ca0 <i_8679>:
    80008ca0:	01fcd863          	ble	t6,s9,80008cb0 <i_8683>

0000000080008ca4 <i_8680>:
    80008ca4:	02811683          	lh	a3,40(sp)

0000000080008ca8 <i_8681>:
    80008ca8:	11813023          	sd	s8,256(sp)

0000000080008cac <i_8682>:
    80008cac:	e3e15683          	lhu	a3,-450(sp)

0000000080008cb0 <i_8683>:
    80008cb0:	00d1c663          	blt	gp,a3,80008cbc <i_8686>

0000000080008cb4 <i_8684>:
    80008cb4:	0196c463          	blt	a3,s9,80008cbc <i_8686>

0000000080008cb8 <i_8685>:
    80008cb8:	0021d51b          	srliw	a0,gp,0x2

0000000080008cbc <i_8686>:
    80008cbc:	063101a3          	sb	gp,99(sp)

0000000080008cc0 <i_8687>:
    80008cc0:	01e00693          	li	a3,30

0000000080008cc4 <i_8688>:
    80008cc4:	40dcddbb          	sraw	s11,s9,a3

0000000080008cc8 <i_8689>:
    80008cc8:	1d016503          	lwu	a0,464(sp)

0000000080008ccc <i_8690>:
    80008ccc:	00a6f863          	bleu	a0,a3,80008cdc <i_8694>

0000000080008cd0 <i_8691>:
    80008cd0:	edb10603          	lb	a2,-293(sp)

0000000080008cd4 <i_8692>:
    80008cd4:	e8c12b03          	lw	s6,-372(sp)

0000000080008cd8 <i_8693>:
    80008cd8:	00ade863          	bltu	s11,a0,80008ce8 <i_8697>

0000000080008cdc <i_8694>:
    80008cdc:	e6816c83          	lwu	s9,-408(sp)

0000000080008ce0 <i_8695>:
    80008ce0:	05613c23          	sd	s6,88(sp)

0000000080008ce4 <i_8696>:
    80008ce4:	019b8863          	beq	s7,s9,80008cf4 <i_8700>

0000000080008ce8 <i_8697>:
    80008ce8:	06c10183          	lb	gp,108(sp)

0000000080008cec <i_8698>:
    80008cec:	0a310923          	sb	gp,178(sp)

0000000080008cf0 <i_8699>:
    80008cf0:	f0813d03          	ld	s10,-248(sp)

0000000080008cf4 <i_8700>:
    80008cf4:	001d5c93          	srli	s9,s10,0x1

0000000080008cf8 <i_8701>:
    80008cf8:	0f012183          	lw	gp,240(sp)

0000000080008cfc <i_8702>:
    80008cfc:	03aced3b          	remw	s10,s9,s10

0000000080008d00 <i_8703>:
    80008d00:	03a35eb3          	divu	t4,t1,s10

0000000080008d04 <i_8704>:
    80008d04:	e9bcad13          	slti	s10,s9,-357

0000000080008d08 <i_8705>:
    80008d08:	00bd1a63          	bne	s10,a1,80008d1c <i_8710>

0000000080008d0c <i_8706>:
    80008d0c:	fee14c83          	lbu	s9,-18(sp)

0000000080008d10 <i_8707>:
    80008d10:	f2816803          	lwu	a6,-216(sp)

0000000080008d14 <i_8708>:
    80008d14:	09a13023          	sd	s10,128(sp)

0000000080008d18 <i_8709>:
    80008d18:	010e8c63          	beq	t4,a6,80008d30 <i_8715>

0000000080008d1c <i_8710>:
    80008d1c:	e3813203          	ld	tp,-456(sp)

0000000080008d20 <i_8711>:
    80008d20:	00412223          	sw	tp,4(sp)

0000000080008d24 <i_8712>:
    80008d24:	e7912023          	sw	s9,-416(sp)

0000000080008d28 <i_8713>:
    80008d28:	01520833          	add	a6,tp,s5

0000000080008d2c <i_8714>:
    80008d2c:	00424863          	blt	tp,tp,80008d3c <i_8718>

0000000080008d30 <i_8715>:
    80008d30:	05012803          	lw	a6,80(sp)

0000000080008d34 <i_8716>:
    80008d34:	ea013203          	ld	tp,-352(sp)

0000000080008d38 <i_8717>:
    80008d38:	00636333          	or	t1,t1,t1

0000000080008d3c <i_8718>:
    80008d3c:	0013521b          	srliw	tp,t1,0x1

0000000080008d40 <i_8719>:
    80008d40:	00425c63          	ble	tp,tp,80008d58 <i_8725>

0000000080008d44 <i_8720>:
    80008d44:	fe012483          	lw	s1,-32(sp)

0000000080008d48 <i_8721>:
    80008d48:	00000013          	nop

0000000080008d4c <i_8722>:
    80008d4c:	00000013          	nop

0000000080008d50 <i_8723>:
    80008d50:	ef013303          	ld	t1,-272(sp)

0000000080008d54 <i_8724>:
    80008d54:	98f4b813          	sltiu	a6,s1,-1649

0000000080008d58 <i_8725>:
    80008d58:	fb816183          	lwu	gp,-72(sp)

0000000080008d5c <i_8726>:
    80008d5c:	023494b3          	mulh	s1,s1,gp

0000000080008d60 <i_8727>:
    80008d60:	84900f13          	li	t5,-1975

0000000080008d64 <i_8728>:
    80008d64:	85c00d13          	li	s10,-1956

0000000080008d68 <i_8729>:
    80008d68:	a3184493          	xori	s1,a6,-1487

0000000080008d6c <i_8730>:
    80008d6c:	f4016a83          	lwu	s5,-192(sp)

0000000080008d70 <i_8731>:
    80008d70:	00000013          	nop

0000000080008d74 <i_8732>:
    80008d74:	17f14a83          	lbu	s5,383(sp)

0000000080008d78 <i_8733>:
    80008d78:	01084833          	xor	a6,a6,a6

0000000080008d7c <i_8734>:
    80008d7c:	00281813          	slli	a6,a6,0x2

0000000080008d80 <i_8735>:
    80008d80:	030b34b3          	mulhu	s1,s6,a6

0000000080008d84 <i_8736>:
    80008d84:	ed512623          	sw	s5,-308(sp)

0000000080008d88 <i_8737>:
    80008d88:	ea912c23          	sw	s1,-328(sp)

0000000080008d8c <i_8738>:
    80008d8c:	22b4c613          	xori	a2,s1,555

0000000080008d90 <i_8739>:
    80008d90:	0264f663          	bleu	t1,s1,80008dbc <i_8749>

0000000080008d94 <i_8740>:
    80008d94:	001f0f13          	addi	t5,t5,1
    80008d98:	fded78e3          	bleu	t5,s10,80008d68 <i_8729>

0000000080008d9c <i_8741>:
    80008d9c:	f7512c23          	sw	s5,-136(sp)

0000000080008da0 <i_8742>:
    80008da0:	029c5263          	ble	s1,s8,80008dc4 <i_8751>

0000000080008da4 <i_8743>:
    80008da4:	1d812c03          	lw	s8,472(sp)

0000000080008da8 <i_8744>:
    80008da8:	00461613          	slli	a2,a2,0x4

0000000080008dac <i_8745>:
    80008dac:	6614881b          	addiw	a6,s1,1633

0000000080008db0 <i_8746>:
    80008db0:	0105de63          	ble	a6,a1,80008dcc <i_8753>

0000000080008db4 <i_8747>:
    80008db4:	f8011583          	lh	a1,-128(sp)

0000000080008db8 <i_8748>:
    80008db8:	12414303          	lbu	t1,292(sp)

0000000080008dbc <i_8749>:
    80008dbc:	02b345bb          	divw	a1,t1,a1

0000000080008dc0 <i_8750>:
    80008dc0:	03814283          	lbu	t0,56(sp)

0000000080008dc4 <i_8751>:
    80008dc4:	1d014583          	lbu	a1,464(sp)

0000000080008dc8 <i_8752>:
    80008dc8:	aaa5bd13          	sltiu	s10,a1,-1366

0000000080008dcc <i_8753>:
    80008dcc:	5435e293          	ori	t0,a1,1347

0000000080008dd0 <i_8754>:
    80008dd0:	f5011583          	lh	a1,-176(sp)

0000000080008dd4 <i_8755>:
    80008dd4:	03a5ac33          	mulhsu	s8,a1,s10

0000000080008dd8 <i_8756>:
    80008dd8:	00000013          	nop

0000000080008ddc <i_8757>:
    80008ddc:	78400593          	li	a1,1924

0000000080008de0 <i_8758>:
    80008de0:	79300f13          	li	t5,1939

0000000080008de4 <i_8759>:
    80008de4:	eba104a3          	sb	s10,-343(sp)

0000000080008de8 <i_8760>:
    80008de8:	01ec2d33          	slt	s10,s8,t5

0000000080008dec <i_8761>:
    80008dec:	03800413          	li	s0,56

0000000080008df0 <i_8762>:
    80008df0:	008dddb3          	srl	s11,s11,s0

0000000080008df4 <i_8763>:
    80008df4:	02cf3633          	mulhu	a2,t5,a2

0000000080008df8 <i_8764>:
    80008df8:	17a11e23          	sh	s10,380(sp)

0000000080008dfc <i_8765>:
    80008dfc:	0ac10ba3          	sb	a2,183(sp)

0000000080008e00 <i_8766>:
    80008e00:	17a12623          	sw	s10,364(sp)

0000000080008e04 <i_8767>:
    80008e04:	00158593          	addi	a1,a1,1
    80008e08:	fde59ee3          	bne	a1,t5,80008de4 <i_8759>

0000000080008e0c <i_8768>:
    80008e0c:	01bc0463          	beq	s8,s11,80008e14 <i_8770>

0000000080008e10 <i_8769>:
    80008e10:	01ec0a63          	beq	s8,t5,80008e24 <i_8774>

0000000080008e14 <i_8770>:
    80008e14:	fba11523          	sh	s10,-86(sp)

0000000080008e18 <i_8771>:
    80008e18:	ea411c03          	lh	s8,-348(sp)

0000000080008e1c <i_8772>:
    80008e1c:	00b00c13          	li	s8,11

0000000080008e20 <i_8773>:
    80008e20:	018d1d3b          	sllw	s10,s10,s8

0000000080008e24 <i_8774>:
    80008e24:	0de15283          	lhu	t0,222(sp)

0000000080008e28 <i_8775>:
    80008e28:	00511823          	sh	t0,16(sp)

0000000080008e2c <i_8776>:
    80008e2c:	02d646b3          	div	a3,a2,a3

0000000080008e30 <i_8777>:
    80008e30:	f4615b03          	lhu	s6,-186(sp)

0000000080008e34 <i_8778>:
    80008e34:	001a1a1b          	slliw	s4,s4,0x1

0000000080008e38 <i_8779>:
    80008e38:	f3a13023          	sd	s10,-224(sp)

0000000080008e3c <i_8780>:
    80008e3c:	e6815d03          	lhu	s10,-408(sp)

0000000080008e40 <i_8781>:
    80008e40:	01300413          	li	s0,19

0000000080008e44 <i_8782>:
    80008e44:	008b1b3b          	sllw	s6,s6,s0

0000000080008e48 <i_8783>:
    80008e48:	00813783          	ld	a5,8(sp)

0000000080008e4c <i_8784>:
    80008e4c:	e5c14083          	lbu	ra,-420(sp)

0000000080008e50 <i_8785>:
    80008e50:	f7a106a3          	sb	s10,-147(sp)

0000000080008e54 <i_8786>:
    80008e54:	c8ad4813          	xori	a6,s10,-886

0000000080008e58 <i_8787>:
    80008e58:	2524cd13          	xori	s10,s1,594

0000000080008e5c <i_8788>:
    80008e5c:	01600413          	li	s0,22

0000000080008e60 <i_8789>:
    80008e60:	4080d83b          	sraw	a6,ra,s0

0000000080008e64 <i_8790>:
    80008e64:	e2416783          	lwu	a5,-476(sp)

0000000080008e68 <i_8791>:
    80008e68:	f7e14083          	lbu	ra,-130(sp)

0000000080008e6c <i_8792>:
    80008e6c:	f1c16e83          	lwu	t4,-228(sp)

0000000080008e70 <i_8793>:
    80008e70:	07610d83          	lb	s11,118(sp)

0000000080008e74 <i_8794>:
    80008e74:	e7c12e83          	lw	t4,-388(sp)

0000000080008e78 <i_8795>:
    80008e78:	01decc63          	blt	t4,t4,80008e90 <i_8801>

0000000080008e7c <i_8796>:
    80008e7c:	edc10d03          	lb	s10,-292(sp)

0000000080008e80 <i_8797>:
    80008e80:	01b00e93          	li	t4,27

0000000080008e84 <i_8798>:
    80008e84:	01de9d33          	sll	s10,t4,t4

0000000080008e88 <i_8799>:
    80008e88:	001add1b          	srliw	s10,s5,0x1

0000000080008e8c <i_8800>:
    80008e8c:	01ae9e63          	bne	t4,s10,80008ea8 <i_8807>

0000000080008e90 <i_8801>:
    80008e90:	402d5d13          	srai	s10,s10,0x2

0000000080008e94 <i_8802>:
    80008e94:	03dd0063          	beq	s10,t4,80008eb4 <i_8810>

0000000080008e98 <i_8803>:
    80008e98:	03600d13          	li	s10,54

0000000080008e9c <i_8804>:
    80008e9c:	41aedcb3          	sra	s9,t4,s10

0000000080008ea0 <i_8805>:
    80008ea0:	1dd11d23          	sh	t4,474(sp)

0000000080008ea4 <i_8806>:
    80008ea4:	005d0433          	add	s0,s10,t0

0000000080008ea8 <i_8807>:
    80008ea8:	00000013          	nop

0000000080008eac <i_8808>:
    80008eac:	e2a11303          	lh	t1,-470(sp)

0000000080008eb0 <i_8809>:
    80008eb0:	18812f03          	lw	t5,392(sp)

0000000080008eb4 <i_8810>:
    80008eb4:	004c979b          	slliw	a5,s9,0x4

0000000080008eb8 <i_8811>:
    80008eb8:	ea415603          	lhu	a2,-348(sp)

0000000080008ebc <i_8812>:
    80008ebc:	86200e93          	li	t4,-1950

0000000080008ec0 <i_8813>:
    80008ec0:	87600413          	li	s0,-1930

0000000080008ec4 <i_8814>:
    80008ec4:	001e8e93          	addi	t4,t4,1
    80008ec8:	fe8ecee3          	blt	t4,s0,80008ec4 <i_8814>

0000000080008ecc <i_8815>:
    80008ecc:	033799b3          	mulh	s3,a5,s3

0000000080008ed0 <i_8816>:
    80008ed0:	e6c16b83          	lwu	s7,-404(sp)

0000000080008ed4 <i_8817>:
    80008ed4:	02f60463          	beq	a2,a5,80008efc <i_8827>

0000000080008ed8 <i_8818>:
    80008ed8:	1b4baf13          	slti	t5,s7,436

0000000080008edc <i_8819>:
    80008edc:	01700a93          	li	s5,23

0000000080008ee0 <i_8820>:
    80008ee0:	015f163b          	sllw	a2,t5,s5

0000000080008ee4 <i_8821>:
    80008ee4:	efe12623          	sw	t5,-276(sp)

0000000080008ee8 <i_8822>:
    80008ee8:	03500c13          	li	s8,53

0000000080008eec <i_8823>:
    80008eec:	018f1f33          	sll	t5,t5,s8

0000000080008ef0 <i_8824>:
    80008ef0:	fb263d13          	sltiu	s10,a2,-78

0000000080008ef4 <i_8825>:
    80008ef4:	13e14583          	lbu	a1,318(sp)

0000000080008ef8 <i_8826>:
    80008ef8:	00000013          	nop

0000000080008efc <i_8827>:
    80008efc:	00000013          	nop

0000000080008f00 <i_8828>:
    80008f00:	02ff0abb          	mulw	s5,t5,a5

0000000080008f04 <i_8829>:
    80008f04:	7ed00f13          	li	t5,2029

0000000080008f08 <i_8830>:
    80008f08:	7f400613          	li	a2,2036

0000000080008f0c <i_8831>:
    80008f0c:	1aaae793          	ori	a5,s5,426

0000000080008f10 <i_8832>:
    80008f10:	00000013          	nop

0000000080008f14 <i_8833>:
    80008f14:	00f12e23          	sw	a5,28(sp)

0000000080008f18 <i_8834>:
    80008f18:	fb5108a3          	sb	s5,-79(sp)

0000000080008f1c <i_8835>:
    80008f1c:	dd27f593          	andi	a1,a5,-558

0000000080008f20 <i_8836>:
    80008f20:	ffe11503          	lh	a0,-2(sp)

0000000080008f24 <i_8837>:
    80008f24:	0385cd3b          	divw	s10,a1,s8

0000000080008f28 <i_8838>:
    80008f28:	017abbb3          	sltu	s7,s5,s7

0000000080008f2c <i_8839>:
    80008f2c:	001f0f13          	addi	t5,t5,1
    80008f30:	fccf4ee3          	blt	t5,a2,80008f0c <i_8831>

0000000080008f34 <i_8840>:
    80008f34:	0023109b          	slliw	ra,t1,0x2

0000000080008f38 <i_8841>:
    80008f38:	01713023          	sd	s7,0(sp)

0000000080008f3c <i_8842>:
    80008f3c:	e5314b03          	lbu	s6,-429(sp)

0000000080008f40 <i_8843>:
    80008f40:	0ca12c23          	sw	a0,216(sp)

0000000080008f44 <i_8844>:
    80008f44:	00f79c63          	bne	a5,a5,80008f5c <i_8850>

0000000080008f48 <i_8845>:
    80008f48:	b4da8e93          	addi	t4,s5,-1203

0000000080008f4c <i_8846>:
    80008f4c:	0c013183          	ld	gp,192(sp)

0000000080008f50 <i_8847>:
    80008f50:	01db00b3          	add	ra,s6,t4

0000000080008f54 <i_8848>:
    80008f54:	03db0b33          	mul	s6,s6,t4

0000000080008f58 <i_8849>:
    80008f58:	00399993          	slli	s3,s3,0x3

0000000080008f5c <i_8850>:
    80008f5c:	00000013          	nop

0000000080008f60 <i_8851>:
    80008f60:	e9c16183          	lwu	gp,-356(sp)

0000000080008f64 <i_8852>:
    80008f64:	8c600693          	li	a3,-1850

0000000080008f68 <i_8853>:
    80008f68:	8d800f13          	li	t5,-1832

0000000080008f6c <i_8854>:
    80008f6c:	13415983          	lhu	s3,308(sp)

0000000080008f70 <i_8855>:
    80008f70:	03cb3e93          	sltiu	t4,s6,60

0000000080008f74 <i_8856>:
    80008f74:	1f311023          	sh	s3,480(sp)

0000000080008f78 <i_8857>:
    80008f78:	0239d63b          	divuw	a2,s3,gp

0000000080008f7c <i_8858>:
    80008f7c:	09d12c23          	sw	t4,152(sp)

0000000080008f80 <i_8859>:
    80008f80:	efd109a3          	sb	t4,-269(sp)

0000000080008f84 <i_8860>:
    80008f84:	0271ae33          	mulhsu	t3,gp,t2

0000000080008f88 <i_8861>:
    80008f88:	00168693          	addi	a3,a3,1
    80008f8c:	ffe6e0e3          	bltu	a3,t5,80008f6c <i_8854>

0000000080008f90 <i_8862>:
    80008f90:	02416e83          	lwu	t4,36(sp)

0000000080008f94 <i_8863>:
    80008f94:	0e013183          	ld	gp,224(sp)

0000000080008f98 <i_8864>:
    80008f98:	001edf13          	srli	t5,t4,0x1

0000000080008f9c <i_8865>:
    80008f9c:	023f1063          	bne	t5,gp,80008fbc <i_8873>

0000000080008fa0 <i_8866>:
    80008fa0:	00312823          	sw	gp,16(sp)

0000000080008fa4 <i_8867>:
    80008fa4:	05314683          	lbu	a3,83(sp)

0000000080008fa8 <i_8868>:
    80008fa8:	01de9463          	bne	t4,t4,80008fb0 <i_8870>

0000000080008fac <i_8869>:
    80008fac:	00d6feb3          	and	t4,a3,a3

0000000080008fb0 <i_8870>:
    80008fb0:	0cd13023          	sd	a3,192(sp)

0000000080008fb4 <i_8871>:
    80008fb4:	1dd101a3          	sb	t4,451(sp)

0000000080008fb8 <i_8872>:
    80008fb8:	00269e13          	slli	t3,a3,0x2

0000000080008fbc <i_8873>:
    80008fbc:	1e614e03          	lbu	t3,486(sp)

0000000080008fc0 <i_8874>:
    80008fc0:	f8015683          	lhu	a3,-128(sp)

0000000080008fc4 <i_8875>:
    80008fc4:	79e00493          	li	s1,1950

0000000080008fc8 <i_8876>:
    80008fc8:	7a000e93          	li	t4,1952

0000000080008fcc <i_8877>:
    80008fcc:	00deec63          	bltu	t4,a3,80008fe4 <i_8883>

0000000080008fd0 <i_8878>:
    80008fd0:	f3c12303          	lw	t1,-196(sp)

0000000080008fd4 <i_8879>:
    80008fd4:	00000013          	nop

0000000080008fd8 <i_8880>:
    80008fd8:	00000013          	nop

0000000080008fdc <i_8881>:
    80008fdc:	06911723          	sh	s1,110(sp)

0000000080008fe0 <i_8882>:
    80008fe0:	01400293          	li	t0,20

0000000080008fe4 <i_8883>:
    80008fe4:	0054d333          	srl	t1,s1,t0

0000000080008fe8 <i_8884>:
    80008fe8:	1d710ca3          	sb	s7,473(sp)

0000000080008fec <i_8885>:
    80008fec:	f0613c23          	sd	t1,-232(sp)

0000000080008ff0 <i_8886>:
    80008ff0:	00148493          	addi	s1,s1,1
    80008ff4:	fdd4cce3          	blt	s1,t4,80008fcc <i_8877>

0000000080008ff8 <i_8887>:
    80008ff8:	08c11483          	lh	s1,140(sp)

0000000080008ffc <i_8888>:
    80008ffc:	02a11b83          	lh	s7,42(sp)

0000000080009000 <i_8889>:
    80009000:	018bc663          	blt	s7,s8,8000900c <i_8892>

0000000080009004 <i_8890>:
    80009004:	18a10b83          	lb	s7,394(sp)

0000000080009008 <i_8891>:
    80009008:	08210283          	lb	t0,130(sp)

000000008000900c <i_8892>:
    8000900c:	03729463          	bne	t0,s7,80009034 <i_8902>

0000000080009010 <i_8893>:
    80009010:	0302a833          	mulhsu	a6,t0,a6

0000000080009014 <i_8894>:
    80009014:	01786c63          	bltu	a6,s7,8000902c <i_8900>

0000000080009018 <i_8895>:
    80009018:	fc214b83          	lbu	s7,-62(sp)

000000008000901c <i_8896>:
    8000901c:	f5012e23          	sw	a6,-164(sp)

0000000080009020 <i_8897>:
    80009020:	00000013          	nop

0000000080009024 <i_8898>:
    80009024:	00b8e3b3          	or	t2,a7,a1

0000000080009028 <i_8899>:
    80009028:	00000013          	nop

000000008000902c <i_8900>:
    8000902c:	1a420f37          	lui	t5,0x1a420

0000000080009030 <i_8901>:
    80009030:	00000013          	nop

0000000080009034 <i_8902>:
    80009034:	01c00393          	li	t2,28

0000000080009038 <i_8903>:
    80009038:	007b9bbb          	sllw	s7,s7,t2

000000008000903c <i_8904>:
    8000903c:	83e00813          	li	a6,-1986

0000000080009040 <i_8905>:
    80009040:	84300293          	li	t0,-1981

0000000080009044 <i_8906>:
    80009044:	0a610b83          	lb	s7,166(sp)

0000000080009048 <i_8907>:
    80009048:	037cbcb3          	mulhu	s9,s9,s7

000000008000904c <i_8908>:
    8000904c:	e5812c23          	sw	s8,-424(sp)

0000000080009050 <i_8909>:
    80009050:	036f7d33          	remu	s10,t5,s6

0000000080009054 <i_8910>:
    80009054:	e3913423          	sd	s9,-472(sp)

0000000080009058 <i_8911>:
    80009058:	de6be313          	ori	t1,s7,-538

000000008000905c <i_8912>:
    8000905c:	00180813          	addi	a6,a6,1
    80009060:	ff02d2e3          	ble	a6,t0,80009044 <i_8906>

0000000080009064 <i_8913>:
    80009064:	e9a13c23          	sd	s10,-360(sp)

0000000080009068 <i_8914>:
    80009068:	19713c23          	sd	s7,408(sp)

000000008000906c <i_8915>:
    8000906c:	002d5f13          	srli	t5,s10,0x2

0000000080009070 <i_8916>:
    80009070:	01913023          	sd	s9,0(sp)

0000000080009074 <i_8917>:
    80009074:	01769263          	bne	a3,s7,80009078 <i_8918>

0000000080009078 <i_8918>:
    80009078:	019f1863          	bne	t5,s9,80009088 <i_8922>

000000008000907c <i_8919>:
    8000907c:	00121213          	slli	tp,tp,0x1

0000000080009080 <i_8920>:
    80009080:	f6310203          	lb	tp,-157(sp)

0000000080009084 <i_8921>:
    80009084:	00a30e63          	beq	t1,a0,800090a0 <i_8928>

0000000080009088 <i_8922>:
    80009088:	08c12a83          	lw	s5,140(sp)

000000008000908c <i_8923>:
    8000908c:	017cc463          	blt	s9,s7,80009094 <i_8925>

0000000080009090 <i_8924>:
    80009090:	ea410da3          	sb	tp,-325(sp)

0000000080009094 <i_8925>:
    80009094:	e8413423          	sd	tp,-376(sp)

0000000080009098 <i_8926>:
    80009098:	fa412c23          	sw	tp,-72(sp)

000000008000909c <i_8927>:
    8000909c:	f9214203          	lbu	tp,-110(sp)

00000000800090a0 <i_8928>:
    800090a0:	004b8233          	add	tp,s7,tp

00000000800090a4 <i_8929>:
    800090a4:	e6614803          	lbu	a6,-410(sp)

00000000800090a8 <i_8930>:
    800090a8:	18a13823          	sd	a0,400(sp)

00000000800090ac <i_8931>:
    800090ac:	eaa11b83          	lh	s7,-342(sp)

00000000800090b0 <i_8932>:
    800090b0:	00416bb3          	or	s7,sp,tp

00000000800090b4 <i_8933>:
    800090b4:	00420663          	beq	tp,tp,800090c0 <i_8936>

00000000800090b8 <i_8934>:
    800090b8:	0f012423          	sw	a6,232(sp)

00000000800090bc <i_8935>:
    800090bc:	010265b3          	or	a1,tp,a6

00000000800090c0 <i_8936>:
    800090c0:	ecc10c83          	lb	s9,-308(sp)

00000000800090c4 <i_8937>:
    800090c4:	01500493          	li	s1,21

00000000800090c8 <i_8938>:
    800090c8:	409cd53b          	sraw	a0,s9,s1

00000000800090cc <i_8939>:
    800090cc:	02914eb3          	div	t4,sp,s1

00000000800090d0 <i_8940>:
    800090d0:	02483b33          	mulhu	s6,a6,tp

00000000800090d4 <i_8941>:
    800090d4:	7bf00593          	li	a1,1983

00000000800090d8 <i_8942>:
    800090d8:	7cc00d13          	li	s10,1996

00000000800090dc <i_8943>:
    800090dc:	036e9263          	bne	t4,s6,80009100 <i_8952>

00000000800090e0 <i_8944>:
    800090e0:	02b87263          	bleu	a1,a6,80009104 <i_8953>

00000000800090e4 <i_8945>:
    800090e4:	03a4883b          	mulw	a6,s1,s10

00000000800090e8 <i_8946>:
    800090e8:	eb412483          	lw	s1,-332(sp)

00000000800090ec <i_8947>:
    800090ec:	15d10683          	lb	a3,349(sp)

00000000800090f0 <i_8948>:
    800090f0:	0098f463          	bleu	s1,a7,800090f8 <i_8950>

00000000800090f4 <i_8949>:
    800090f4:	fd512223          	sw	s5,-60(sp)

00000000800090f8 <i_8950>:
    800090f8:	00f00293          	li	t0,15

00000000800090fc <i_8951>:
    800090fc:	005d9db3          	sll	s11,s11,t0

0000000080009100 <i_8952>:
    80009100:	03b4d263          	ble	s11,s1,80009124 <i_8960>

0000000080009104 <i_8953>:
    80009104:	027af4b3          	remu	s1,s5,t2

0000000080009108 <i_8954>:
    80009108:	0096d263          	ble	s1,a3,8000910c <i_8955>

000000008000910c <i_8955>:
    8000910c:	036d8463          	beq	s11,s6,80009134 <i_8964>

0000000080009110 <i_8956>:
    80009110:	ceca01b7          	lui	gp,0xceca0

0000000080009114 <i_8957>:
    80009114:	00158593          	addi	a1,a1,1
    80009118:	fcbd72e3          	bleu	a1,s10,800090dc <i_8943>

000000008000911c <i_8958>:
    8000911c:	412d81bb          	subw	gp,s11,s2

0000000080009120 <i_8959>:
    80009120:	f2d11123          	sh	a3,-222(sp)

0000000080009124 <i_8960>:
    80009124:	036ec463          	blt	t4,s6,8000914c <i_8970>

0000000080009128 <i_8961>:
    80009128:	0096f4b3          	and	s1,a3,s1

000000008000912c <i_8962>:
    8000912c:	19d11223          	sh	t4,388(sp)

0000000080009130 <i_8963>:
    80009130:	02248b3b          	mulw	s6,s1,sp

0000000080009134 <i_8964>:
    80009134:	02d4ab33          	mulhsu	s6,s1,a3

0000000080009138 <i_8965>:
    80009138:	029994b3          	mulh	s1,s3,s1

000000008000913c <i_8966>:
    8000913c:	03649463          	bne	s1,s6,80009164 <i_8976>

0000000080009140 <i_8967>:
    80009140:	01695a63          	ble	s6,s2,80009154 <i_8972>

0000000080009144 <i_8968>:
    80009144:	0091c663          	blt	gp,s1,80009150 <i_8971>

0000000080009148 <i_8969>:
    80009148:	09815183          	lhu	gp,152(sp)

000000008000914c <i_8970>:
    8000914c:	f5615a83          	lhu	s5,-170(sp)

0000000080009150 <i_8971>:
    80009150:	10813183          	ld	gp,264(sp)

0000000080009154 <i_8972>:
    80009154:	1a210603          	lb	a2,418(sp)

0000000080009158 <i_8973>:
    80009158:	e7416a83          	lwu	s5,-396(sp)

000000008000915c <i_8974>:
    8000915c:	01567663          	bleu	s5,a2,80009168 <i_8977>

0000000080009160 <i_8975>:
    80009160:	ef412503          	lw	a0,-268(sp)

0000000080009164 <i_8976>:
    80009164:	00aae863          	bltu	s5,a0,80009174 <i_8980>

0000000080009168 <i_8977>:
    80009168:	00200513          	li	a0,2

000000008000916c <i_8978>:
    8000916c:	00aa94bb          	sllw	s1,s5,a0

0000000080009170 <i_8979>:
    80009170:	00956463          	bltu	a0,s1,80009178 <i_8981>

0000000080009174 <i_8980>:
    80009174:	00944863          	blt	s0,s1,80009184 <i_8984>

0000000080009178 <i_8981>:
    80009178:	f75859b7          	lui	s3,0xf7585

000000008000917c <i_8982>:
    8000917c:	e2a101a3          	sb	a0,-477(sp)

0000000080009180 <i_8983>:
    80009180:	e3015d83          	lhu	s11,-464(sp)

0000000080009184 <i_8984>:
    80009184:	0254fb33          	remu	s6,s1,t0

0000000080009188 <i_8985>:
    80009188:	00100613          	li	a2,1

000000008000918c <i_8986>:
    8000918c:	40c6d9bb          	sraw	s3,a3,a2

0000000080009190 <i_8987>:
    80009190:	0028161b          	slliw	a2,a6,0x2

0000000080009194 <i_8988>:
    80009194:	029b6cbb          	remw	s9,s6,s1

0000000080009198 <i_8989>:
    80009198:	09a15f03          	lhu	t5,154(sp)

000000008000919c <i_8990>:
    8000919c:	01668863          	beq	a3,s6,800091ac <i_8994>

00000000800091a0 <i_8991>:
    800091a0:	08015983          	lhu	s3,128(sp)

00000000800091a4 <i_8992>:
    800091a4:	00ad86b3          	add	a3,s11,a0

00000000800091a8 <i_8993>:
    800091a8:	14c11803          	lh	a6,332(sp)

00000000800091ac <i_8994>:
    800091ac:	03964463          	blt	a2,s9,800091d4 <i_9004>

00000000800091b0 <i_8995>:
    800091b0:	0e013b83          	ld	s7,224(sp)

00000000800091b4 <i_8996>:
    800091b4:	00215a03          	lhu	s4,2(sp)

00000000800091b8 <i_8997>:
    800091b8:	00000013          	nop

00000000800091bc <i_8998>:
    800091bc:	1d811623          	sh	s8,460(sp)

00000000800091c0 <i_8999>:
    800091c0:	13813423          	sd	s8,296(sp)

00000000800091c4 <i_9000>:
    800091c4:	01b9fc33          	and	s8,s3,s11

00000000800091c8 <i_9001>:
    800091c8:	038c5c3b          	divuw	s8,s8,s8

00000000800091cc <i_9002>:
    800091cc:	1d810923          	sb	s8,466(sp)

00000000800091d0 <i_9003>:
    800091d0:	ed8106a3          	sb	s8,-307(sp)

00000000800091d4 <i_9004>:
    800091d4:	fb813e03          	ld	t3,-72(sp)

00000000800091d8 <i_9005>:
    800091d8:	00000013          	nop

00000000800091dc <i_9006>:
    800091dc:	8a100993          	li	s3,-1887

00000000800091e0 <i_9007>:
    800091e0:	8a600d93          	li	s11,-1882

00000000800091e4 <i_9008>:
    800091e4:	c70f8593          	addi	a1,t6,-912

00000000800091e8 <i_9009>:
    800091e8:	e975e593          	ori	a1,a1,-361

00000000800091ec <i_9010>:
    800091ec:	8b900413          	li	s0,-1863

00000000800091f0 <i_9011>:
    800091f0:	8c200f13          	li	t5,-1854

00000000800091f4 <i_9012>:
    800091f4:	00140413          	addi	s0,s0,1
    800091f8:	ffe44ee3          	blt	s0,t5,800091f4 <i_9012>

00000000800091fc <i_9013>:
    800091fc:	038c6263          	bltu	s8,s8,80009220 <i_9021>

0000000080009200 <i_9014>:
    80009200:	107da493          	slti	s1,s11,263

0000000080009204 <i_9015>:
    80009204:	00198993          	addi	s3,s3,1 # fffffffff7585001 <_end+0xffffffff77574bed>
    80009208:	fdb9eee3          	bltu	s3,s11,800091e4 <i_9008>

000000008000920c <i_9016>:
    8000920c:	009f7663          	bleu	s1,t5,80009218 <i_9019>

0000000080009210 <i_9017>:
    80009210:	002e9e93          	slli	t4,t4,0x2

0000000080009214 <i_9018>:
    80009214:	f8913823          	sd	s1,-112(sp)

0000000080009218 <i_9019>:
    80009218:	0de11283          	lh	t0,222(sp)

000000008000921c <i_9020>:
    8000921c:	029287bb          	mulw	a5,t0,s1

0000000080009220 <i_9021>:
    80009220:	19d13823          	sd	t4,400(sp)

0000000080009224 <i_9022>:
    80009224:	3922829b          	addiw	t0,t0,914

0000000080009228 <i_9023>:
    80009228:	83700f13          	li	t5,-1993

000000008000922c <i_9024>:
    8000922c:	83b00e93          	li	t4,-1989

0000000080009230 <i_9025>:
    80009230:	001f0f13          	addi	t5,t5,1 # 1a420001 <main-0x65bdffff>
    80009234:	ffdf6ee3          	bltu	t5,t4,80009230 <i_9025>

0000000080009238 <i_9026>:
    80009238:	01200b93          	li	s7,18

000000008000923c <i_9027>:
    8000923c:	0172ddb3          	srl	s11,t0,s7

0000000080009240 <i_9028>:
    80009240:	01728463          	beq	t0,s7,80009248 <i_9030>

0000000080009244 <i_9029>:
    80009244:	0db11623          	sh	s11,204(sp)

0000000080009248 <i_9030>:
    80009248:	00000013          	nop

000000008000924c <i_9031>:
    8000924c:	010c36b3          	sltu	a3,s8,a6

0000000080009250 <i_9032>:
    80009250:	86600813          	li	a6,-1946

0000000080009254 <i_9033>:
    80009254:	86f00b13          	li	s6,-1937

0000000080009258 <i_9034>:
    80009258:	f6013483          	ld	s1,-160(sp)

000000008000925c <i_9035>:
    8000925c:	00d4cbb3          	xor	s7,s1,a3

0000000080009260 <i_9036>:
    80009260:	1b013303          	ld	t1,432(sp)

0000000080009264 <i_9037>:
    80009264:	ffb10283          	lb	t0,-5(sp)

0000000080009268 <i_9038>:
    80009268:	00000013          	nop

000000008000926c <i_9039>:
    8000926c:	05416303          	lwu	t1,84(sp)

0000000080009270 <i_9040>:
    80009270:	1a6108a3          	sb	t1,433(sp)

0000000080009274 <i_9041>:
    80009274:	0c9108a3          	sb	s1,209(sp)

0000000080009278 <i_9042>:
    80009278:	7e568293          	addi	t0,a3,2021

000000008000927c <i_9043>:
    8000927c:	00180813          	addi	a6,a6,1
    80009280:	fd684ce3          	blt	a6,s6,80009258 <i_9034>

0000000080009284 <i_9044>:
    80009284:	00634463          	blt	t1,t1,8000928c <i_9046>

0000000080009288 <i_9045>:
    80009288:	02680463          	beq	a6,t1,800092b0 <i_9055>

000000008000928c <i_9046>:
    8000928c:	1c813303          	ld	t1,456(sp)

0000000080009290 <i_9047>:
    80009290:	109103a3          	sb	s1,263(sp)

0000000080009294 <i_9048>:
    80009294:	0061ea63          	bltu	gp,t1,800092a8 <i_9053>

0000000080009298 <i_9049>:
    80009298:	41e30dbb          	subw	s11,t1,t5

000000008000929c <i_9050>:
    8000929c:	09c12f03          	lw	t5,156(sp)

00000000800092a0 <i_9051>:
    800092a0:	eef11723          	sh	a5,-274(sp)

00000000800092a4 <i_9052>:
    800092a4:	005de263          	bltu	s11,t0,800092a8 <i_9053>

00000000800092a8 <i_9053>:
    800092a8:	09412783          	lw	a5,148(sp)

00000000800092ac <i_9054>:
    800092ac:	0047df13          	srli	t5,a5,0x4

00000000800092b0 <i_9055>:
    800092b0:	fb016a83          	lwu	s5,-80(sp)

00000000800092b4 <i_9056>:
    800092b4:	030f52bb          	divuw	t0,t5,a6

00000000800092b8 <i_9057>:
    800092b8:	f4016983          	lwu	s3,-192(sp)

00000000800092bc <i_9058>:
    800092bc:	0299e83b          	remw	a6,s3,s1

00000000800092c0 <i_9059>:
    800092c0:	11e12623          	sw	t5,268(sp)

00000000800092c4 <i_9060>:
    800092c4:	01c79663          	bne	a5,t3,800092d0 <i_9063>

00000000800092c8 <i_9061>:
    800092c8:	00fade63          	ble	a5,s5,800092e4 <i_9068>

00000000800092cc <i_9062>:
    800092cc:	03345263          	ble	s3,s0,800092f0 <i_9071>

00000000800092d0 <i_9063>:
    800092d0:	f8511223          	sh	t0,-124(sp)

00000000800092d4 <i_9064>:
    800092d4:	f5510d23          	sb	s5,-166(sp)

00000000800092d8 <i_9065>:
    800092d8:	00113423          	sd	ra,8(sp)

00000000800092dc <i_9066>:
    800092dc:	00000013          	nop

00000000800092e0 <i_9067>:
    800092e0:	0c111a23          	sh	ra,212(sp)

00000000800092e4 <i_9068>:
    800092e4:	ea3107a3          	sb	gp,-337(sp)

00000000800092e8 <i_9069>:
    800092e8:	410a8333          	sub	t1,s5,a6

00000000800092ec <i_9070>:
    800092ec:	e0e10da3          	sb	a4,-485(sp)

00000000800092f0 <i_9071>:
    800092f0:	8df80213          	addi	tp,a6,-1825

00000000800092f4 <i_9072>:
    800092f4:	00000013          	nop

00000000800092f8 <i_9073>:
    800092f8:	79400c93          	li	s9,1940

00000000800092fc <i_9074>:
    800092fc:	79a00093          	li	ra,1946

0000000080009300 <i_9075>:
    80009300:	e5311523          	sh	s3,-438(sp)

0000000080009304 <i_9076>:
    80009304:	e9813f03          	ld	t5,-360(sp)

0000000080009308 <i_9077>:
    80009308:	035da5b3          	mulhsu	a1,s11,s5

000000008000930c <i_9078>:
    8000930c:	bfa78793          	addi	a5,a5,-1030

0000000080009310 <i_9079>:
    80009310:	15496f37          	lui	t5,0x15496

0000000080009314 <i_9080>:
    80009314:	07511123          	sh	s5,98(sp)

0000000080009318 <i_9081>:
    80009318:	fde12023          	sw	t5,-64(sp)

000000008000931c <i_9082>:
    8000931c:	001c8c93          	addi	s9,s9,1
    80009320:	ff90d0e3          	ble	s9,ra,80009300 <i_9075>

0000000080009324 <i_9083>:
    80009324:	00236c63          	bltu	t1,sp,8000933c <i_9089>

0000000080009328 <i_9084>:
    80009328:	035cb9b3          	mulhu	s3,s9,s5

000000008000932c <i_9085>:
    8000932c:	025f7233          	remu	tp,t5,t0

0000000080009330 <i_9086>:
    80009330:	0057ee63          	bltu	a5,t0,8000934c <i_9093>

0000000080009334 <i_9087>:
    80009334:	9a12029b          	addiw	t0,tp,-1631

0000000080009338 <i_9088>:
    80009338:	404f0233          	sub	tp,t5,tp

000000008000933c <i_9089>:
    8000933c:	00f00393          	li	t2,15

0000000080009340 <i_9090>:
    80009340:	007f1f3b          	sllw	t5,t5,t2

0000000080009344 <i_9091>:
    80009344:	e5813a83          	ld	s5,-424(sp)

0000000080009348 <i_9092>:
    80009348:	4c414d17          	auipc	s10,0x4c414

000000008000934c <i_9093>:
    8000934c:	027d43b3          	div	t2,s10,t2

0000000080009350 <i_9094>:
    80009350:	035d0d33          	mul	s10,s10,s5

0000000080009354 <i_9095>:
    80009354:	f9a13c23          	sd	s10,-104(sp)

0000000080009358 <i_9096>:
    80009358:	01aaf863          	bleu	s10,s5,80009368 <i_9100>

000000008000935c <i_9097>:
    8000935c:	01aa8f33          	add	t5,s5,s10

0000000080009360 <i_9098>:
    80009360:	411d033b          	subw	t1,s10,a7

0000000080009364 <i_9099>:
    80009364:	01a36333          	or	t1,t1,s10

0000000080009368 <i_9100>:
    80009368:	fb913823          	sd	s9,-80(sp)

000000008000936c <i_9101>:
    8000936c:	03ad5063          	ble	s10,s10,8000938c <i_9109>

0000000080009370 <i_9102>:
    80009370:	14813d03          	ld	s10,328(sp)

0000000080009374 <i_9103>:
    80009374:	07816f03          	lwu	t5,120(sp)

0000000080009378 <i_9104>:
    80009378:	006d4463          	blt	s10,t1,80009380 <i_9106>

000000008000937c <i_9105>:
    8000937c:	f8a14303          	lbu	t1,-118(sp)

0000000080009380 <i_9106>:
    80009380:	1cb34d13          	xori	s10,t1,459

0000000080009384 <i_9107>:
    80009384:	00000013          	nop

0000000080009388 <i_9108>:
    80009388:	00000013          	nop

000000008000938c <i_9109>:
    8000938c:	00000013          	nop

0000000080009390 <i_9110>:
    80009390:	fc016683          	lwu	a3,-64(sp)

0000000080009394 <i_9111>:
    80009394:	81300313          	li	t1,-2029

0000000080009398 <i_9112>:
    80009398:	81500393          	li	t2,-2027

000000008000939c <i_9113>:
    8000939c:	f7611f03          	lh	t5,-138(sp)

00000000800093a0 <i_9114>:
    800093a0:	01ef1a63          	bne	t5,t5,800093b4 <i_9118>

00000000800093a4 <i_9115>:
    800093a4:	00130313          	addi	t1,t1,1
    800093a8:	fe63fae3          	bleu	t1,t2,8000939c <i_9113>

00000000800093ac <i_9116>:
    800093ac:	02df04bb          	mulw	s1,t5,a3

00000000800093b0 <i_9117>:
    800093b0:	00d6a1b3          	slt	gp,a3,a3

00000000800093b4 <i_9118>:
    800093b4:	00514483          	lbu	s1,5(sp)

00000000800093b8 <i_9119>:
    800093b8:	0294c063          	blt	s1,s1,800093d8 <i_9127>

00000000800093bc <i_9120>:
    800093bc:	027f71bb          	remuw	gp,t5,t2

00000000800093c0 <i_9121>:
    800093c0:	401cd393          	srai	t2,s9,0x1

00000000800093c4 <i_9122>:
    800093c4:	00000013          	nop

00000000800093c8 <i_9123>:
    800093c8:	0231d83b          	divuw	a6,gp,gp

00000000800093cc <i_9124>:
    800093cc:	00000013          	nop

00000000800093d0 <i_9125>:
    800093d0:	eb010403          	lb	s0,-336(sp)

00000000800093d4 <i_9126>:
    800093d4:	af8b8393          	addi	t2,s7,-1288

00000000800093d8 <i_9127>:
    800093d8:	026f65b3          	rem	a1,t5,t1

00000000800093dc <i_9128>:
    800093dc:	1be103a3          	sb	t5,423(sp)

00000000800093e0 <i_9129>:
    800093e0:	80100c13          	li	s8,-2047

00000000800093e4 <i_9130>:
    800093e4:	80d00493          	li	s1,-2035

00000000800093e8 <i_9131>:
    800093e8:	fc816f03          	lwu	t5,-56(sp)

00000000800093ec <i_9132>:
    800093ec:	02847433          	remu	s0,s0,s0

00000000800093f0 <i_9133>:
    800093f0:	00b46263          	bltu	s0,a1,800093f4 <i_9134>

00000000800093f4 <i_9134>:
    800093f4:	12b11623          	sh	a1,300(sp)

00000000800093f8 <i_9135>:
    800093f8:	11816f03          	lwu	t5,280(sp)

00000000800093fc <i_9136>:
    800093fc:	001c0c13          	addi	s8,s8,1
    80009400:	ff84f4e3          	bleu	s8,s1,800093e8 <i_9131>

0000000080009404 <i_9137>:
    80009404:	0325843b          	mulw	s0,a1,s2

0000000080009408 <i_9138>:
    80009408:	02826233          	rem	tp,tp,s0

000000008000940c <i_9139>:
    8000940c:	464bac17          	auipc	s8,0x464ba

0000000080009410 <i_9140>:
    80009410:	018fd863          	ble	s8,t6,80009420 <i_9144>

0000000080009414 <i_9141>:
    80009414:	0385ebbb          	remw	s7,a1,s8

0000000080009418 <i_9142>:
    80009418:	03ebe063          	bltu	s7,t5,80009438 <i_9150>

000000008000941c <i_9143>:
    8000941c:	404b843b          	subw	s0,s7,tp

0000000080009420 <i_9144>:
    80009420:	0375e263          	bltu	a1,s7,80009444 <i_9153>

0000000080009424 <i_9145>:
    80009424:	e4012403          	lw	s0,-448(sp)

0000000080009428 <i_9146>:
    80009428:	037765b3          	rem	a1,a4,s7

000000008000942c <i_9147>:
    8000942c:	0cc11583          	lh	a1,204(sp)

0000000080009430 <i_9148>:
    80009430:	e6012b83          	lw	s7,-416(sp)

0000000080009434 <i_9149>:
    80009434:	07412a83          	lw	s5,116(sp)

0000000080009438 <i_9150>:
    80009438:	037d083b          	mulw	a6,s10,s7

000000008000943c <i_9151>:
    8000943c:	037f0a3b          	mulw	s4,t5,s7

0000000080009440 <i_9152>:
    80009440:	ea613023          	sd	t1,-352(sp)

0000000080009444 <i_9153>:
    80009444:	00b10d23          	sb	a1,26(sp)

0000000080009448 <i_9154>:
    80009448:	002a5a13          	srli	s4,s4,0x2

000000008000944c <i_9155>:
    8000944c:	09511123          	sh	s5,130(sp)

0000000080009450 <i_9156>:
    80009450:	034a4a33          	div	s4,s4,s4

0000000080009454 <i_9157>:
    80009454:	01458e63          	beq	a1,s4,80009470 <i_9164>

0000000080009458 <i_9158>:
    80009458:	014a7263          	bleu	s4,s4,8000945c <i_9159>

000000008000945c <i_9159>:
    8000945c:	edf13023          	sd	t6,-320(sp)

0000000080009460 <i_9160>:
    80009460:	0f4107a3          	sb	s4,239(sp)

0000000080009464 <i_9161>:
    80009464:	034a3a33          	mulhu	s4,s4,s4

0000000080009468 <i_9162>:
    80009468:	034a7b3b          	remuw	s6,s4,s4

000000008000946c <i_9163>:
    8000946c:	034b5a3b          	divuw	s4,s6,s4

0000000080009470 <i_9164>:
    80009470:	034a0063          	beq	s4,s4,80009490 <i_9172>

0000000080009474 <i_9165>:
    80009474:	08013a03          	ld	s4,128(sp)

0000000080009478 <i_9166>:
    80009478:	00000013          	nop

000000008000947c <i_9167>:
    8000947c:	03a0cdb3          	div	s11,ra,s10

0000000080009480 <i_9168>:
    80009480:	00000013          	nop

0000000080009484 <i_9169>:
    80009484:	03ad40bb          	divw	ra,s10,s10

0000000080009488 <i_9170>:
    80009488:	e8615f03          	lhu	t5,-378(sp)

000000008000948c <i_9171>:
    8000948c:	fbb13023          	sd	s11,-96(sp)

0000000080009490 <i_9172>:
    80009490:	9e8dab93          	slti	s7,s11,-1560

0000000080009494 <i_9173>:
    80009494:	ed710623          	sb	s7,-308(sp)

0000000080009498 <i_9174>:
    80009498:	7e300a13          	li	s4,2019

000000008000949c <i_9175>:
    8000949c:	7f300d13          	li	s10,2035

00000000800094a0 <i_9176>:
    800094a0:	f9412403          	lw	s0,-108(sp)

00000000800094a4 <i_9177>:
    800094a4:	ee416683          	lwu	a3,-284(sp)

00000000800094a8 <i_9178>:
    800094a8:	00849463          	bne	s1,s0,800094b0 <i_9180>

00000000800094ac <i_9179>:
    800094ac:	9546b693          	sltiu	a3,a3,-1708

00000000800094b0 <i_9180>:
    800094b0:	00013683          	ld	a3,0(sp)

00000000800094b4 <i_9181>:
    800094b4:	02d69463          	bne	a3,a3,800094dc <i_9190>

00000000800094b8 <i_9182>:
    800094b8:	02d6c663          	blt	a3,a3,800094e4 <i_9192>

00000000800094bc <i_9183>:
    800094bc:	0ad13023          	sd	a3,160(sp)

00000000800094c0 <i_9184>:
    800094c0:	14d12023          	sw	a3,320(sp)

00000000800094c4 <i_9185>:
    800094c4:	001a0a13          	addi	s4,s4,1 # 24d43001 <main-0x5b2bcfff>
    800094c8:	fd4d5ce3          	ble	s4,s10,800094a0 <i_9176>

00000000800094cc <i_9186>:
    800094cc:	00000013          	nop

00000000800094d0 <i_9187>:
    800094d0:	00d69863          	bne	a3,a3,800094e0 <i_9191>

00000000800094d4 <i_9188>:
    800094d4:	00169e1b          	slliw	t3,a3,0x1

00000000800094d8 <i_9189>:
    800094d8:	05011e03          	lh	t3,80(sp)

00000000800094dc <i_9190>:
    800094dc:	00000013          	nop

00000000800094e0 <i_9191>:
    800094e0:	e5c12623          	sw	t3,-436(sp)

00000000800094e4 <i_9192>:
    800094e4:	05810483          	lb	s1,88(sp)

00000000800094e8 <i_9193>:
    800094e8:	fcd13023          	sd	a3,-64(sp)

00000000800094ec <i_9194>:
    800094ec:	7d600593          	li	a1,2006

00000000800094f0 <i_9195>:
    800094f0:	7e600693          	li	a3,2022

00000000800094f4 <i_9196>:
    800094f4:	1b016e03          	lwu	t3,432(sp)

00000000800094f8 <i_9197>:
    800094f8:	00158593          	addi	a1,a1,1
    800094fc:	feb6dce3          	ble	a1,a3,800094f4 <i_9196>

0000000080009500 <i_9198>:
    80009500:	0364c063          	blt	s1,s6,80009520 <i_9206>

0000000080009504 <i_9199>:
    80009504:	03c49463          	bne	s1,t3,8000952c <i_9209>

0000000080009508 <i_9200>:
    80009508:	0a415483          	lhu	s1,164(sp)

000000008000950c <i_9201>:
    8000950c:	01c20e33          	add	t3,tp,t3

0000000080009510 <i_9202>:
    80009510:	07314683          	lbu	a3,115(sp)

0000000080009514 <i_9203>:
    80009514:	13214783          	lbu	a5,306(sp)

0000000080009518 <i_9204>:
    80009518:	0186fc33          	and	s8,a3,s8

000000008000951c <i_9205>:
    8000951c:	02f48333          	mul	t1,s1,a5

0000000080009520 <i_9206>:
    80009520:	00000013          	nop

0000000080009524 <i_9207>:
    80009524:	05c12623          	sw	t3,76(sp)

0000000080009528 <i_9208>:
    80009528:	e7012c03          	lw	s8,-400(sp)

000000008000952c <i_9209>:
    8000952c:	fa412623          	sw	tp,-84(sp)

0000000080009530 <i_9210>:
    80009530:	00000013          	nop

0000000080009534 <i_9211>:
    80009534:	80200493          	li	s1,-2046

0000000080009538 <i_9212>:
    80009538:	81400213          	li	tp,-2028

000000008000953c <i_9213>:
    8000953c:	00448663          	beq	s1,tp,80009548 <i_9216>

0000000080009540 <i_9214>:
    80009540:	0e412403          	lw	s0,228(sp)

0000000080009544 <i_9215>:
    80009544:	02db87b3          	mul	a5,s7,a3

0000000080009548 <i_9216>:
    80009548:	15813023          	sd	s8,320(sp)

000000008000954c <i_9217>:
    8000954c:	00700693          	li	a3,7

0000000080009550 <i_9218>:
    80009550:	40d4dd3b          	sraw	s10,s1,a3

0000000080009554 <i_9219>:
    80009554:	ff510223          	sb	s5,-28(sp)

0000000080009558 <i_9220>:
    80009558:	00148493          	addi	s1,s1,1
    8000955c:	fe9250e3          	ble	s1,tp,8000953c <i_9213>

0000000080009560 <i_9221>:
    80009560:	f6f11823          	sh	a5,-144(sp)

0000000080009564 <i_9222>:
    80009564:	01713023          	sd	s7,0(sp)

0000000080009568 <i_9223>:
    80009568:	e6815d03          	lhu	s10,-408(sp)

000000008000956c <i_9224>:
    8000956c:	0c416c03          	lwu	s8,196(sp)

0000000080009570 <i_9225>:
    80009570:	a27c3413          	sltiu	s0,s8,-1497

0000000080009574 <i_9226>:
    80009574:	1c416383          	lwu	t2,452(sp)

0000000080009578 <i_9227>:
    80009578:	01a235b3          	sltu	a1,tp,s10

000000008000957c <i_9228>:
    8000957c:	02d68463          	beq	a3,a3,800095a4 <i_9238>

0000000080009580 <i_9229>:
    80009580:	fbc14203          	lbu	tp,-68(sp)

0000000080009584 <i_9230>:
    80009584:	03cd4463          	blt	s10,t3,800095ac <i_9240>

0000000080009588 <i_9231>:
    80009588:	02848263          	beq	s1,s0,800095ac <i_9240>

000000008000958c <i_9232>:
    8000958c:	0244a4b3          	mulhsu	s1,s1,tp

0000000080009590 <i_9233>:
    80009590:	00100d93          	li	s11,1

0000000080009594 <i_9234>:
    80009594:	01b4d4bb          	srlw	s1,s1,s11

0000000080009598 <i_9235>:
    80009598:	fd013a03          	ld	s4,-48(sp)

000000008000959c <i_9236>:
    8000959c:	f4015a03          	lhu	s4,-192(sp)

00000000800095a0 <i_9237>:
    800095a0:	00000013          	nop

00000000800095a4 <i_9238>:
    800095a4:	e5013b83          	ld	s7,-432(sp)

00000000800095a8 <i_9239>:
    800095a8:	fc013b83          	ld	s7,-64(sp)

00000000800095ac <i_9240>:
    800095ac:	fc412783          	lw	a5,-60(sp)

00000000800095b0 <i_9241>:
    800095b0:	04810483          	lb	s1,72(sp)

00000000800095b4 <i_9242>:
    800095b4:	78000613          	li	a2,1920

00000000800095b8 <i_9243>:
    800095b8:	78f00213          	li	tp,1935

00000000800095bc <i_9244>:
    800095bc:	003e1293          	slli	t0,t3,0x3

00000000800095c0 <i_9245>:
    800095c0:	00000013          	nop

00000000800095c4 <i_9246>:
    800095c4:	88f00d13          	li	s10,-1905

00000000800095c8 <i_9247>:
    800095c8:	89b00e13          	li	t3,-1893

00000000800095cc <i_9248>:
    800095cc:	00000013          	nop

00000000800095d0 <i_9249>:
    800095d0:	001d0d13          	addi	s10,s10,1 # cc41d349 <_end+0x4c40cf35>
    800095d4:	ffcd1ce3          	bne	s10,t3,800095cc <i_9248>

00000000800095d8 <i_9250>:
    800095d8:	00929463          	bne	t0,s1,800095e0 <i_9252>

00000000800095dc <i_9251>:
    800095dc:	0252f263          	bleu	t0,t0,80009600 <i_9259>

00000000800095e0 <i_9252>:
    800095e0:	e6f11f23          	sh	a5,-386(sp)

00000000800095e4 <i_9253>:
    800095e4:	1c810183          	lb	gp,456(sp)

00000000800095e8 <i_9254>:
    800095e8:	009785b3          	add	a1,a5,s1

00000000800095ec <i_9255>:
    800095ec:	00160613          	addi	a2,a2,1
    800095f0:	fcc216e3          	bne	tp,a2,800095bc <i_9244>

00000000800095f4 <i_9256>:
    800095f4:	e6b13023          	sd	a1,-416(sp)

00000000800095f8 <i_9257>:
    800095f8:	f8912c23          	sw	s1,-104(sp)

00000000800095fc <i_9258>:
    800095fc:	12a11723          	sh	a0,302(sp)

0000000080009600 <i_9259>:
    80009600:	03600513          	li	a0,54

0000000080009604 <i_9260>:
    80009604:	00a55d33          	srl	s10,a0,a0

0000000080009608 <i_9261>:
    80009608:	01a4ae33          	slt	t3,s1,s10

000000008000960c <i_9262>:
    8000960c:	03a4f463          	bleu	s10,s1,80009634 <i_9272>

0000000080009610 <i_9263>:
    80009610:	fca13023          	sd	a0,-64(sp)

0000000080009614 <i_9264>:
    80009614:	02d00d13          	li	s10,45

0000000080009618 <i_9265>:
    80009618:	01ae1f33          	sll	t5,t3,s10

000000008000961c <i_9266>:
    8000961c:	01ff4863          	blt	t5,t6,8000962c <i_9270>

0000000080009620 <i_9267>:
    80009620:	03ef4d3b          	divw	s10,t5,t5

0000000080009624 <i_9268>:
    80009624:	e5a11a23          	sh	s10,-428(sp)

0000000080009628 <i_9269>:
    80009628:	05a11223          	sh	s10,68(sp)

000000008000962c <i_9270>:
    8000962c:	02c00d13          	li	s10,44

0000000080009630 <i_9271>:
    80009630:	01ad5a33          	srl	s4,s10,s10

0000000080009634 <i_9272>:
    80009634:	00600c93          	li	s9,6

0000000080009638 <i_9273>:
    80009638:	419a5cbb          	sraw	s9,s4,s9

000000008000963c <i_9274>:
    8000963c:	e7a10aa3          	sb	s10,-395(sp)

0000000080009640 <i_9275>:
    80009640:	01bd5a63          	ble	s11,s10,80009654 <i_9280>

0000000080009644 <i_9276>:
    80009644:	cfed2f13          	slti	t5,s10,-770

0000000080009648 <i_9277>:
    80009648:	02900d93          	li	s11,41

000000008000964c <i_9278>:
    8000964c:	01beddb3          	srl	s11,t4,s11

0000000080009650 <i_9279>:
    80009650:	002ede93          	srli	t4,t4,0x2

0000000080009654 <i_9280>:
    80009654:	0bd10383          	lb	t2,189(sp)

0000000080009658 <i_9281>:
    80009658:	1bb12823          	sw	s11,432(sp)

000000008000965c <i_9282>:
    8000965c:	027eeeb3          	rem	t4,t4,t2

0000000080009660 <i_9283>:
    80009660:	e7a11b03          	lh	s6,-390(sp)

0000000080009664 <i_9284>:
    80009664:	07d11623          	sh	t4,108(sp)

0000000080009668 <i_9285>:
    80009668:	e8013e83          	ld	t4,-384(sp)

000000008000966c <i_9286>:
    8000966c:	09c12083          	lw	ra,156(sp)

0000000080009670 <i_9287>:
    80009670:	18710283          	lb	t0,391(sp)

0000000080009674 <i_9288>:
    80009674:	da4a92b7          	lui	t0,0xda4a9

0000000080009678 <i_9289>:
    80009678:	02709063          	bne	ra,t2,80009698 <i_9297>

000000008000967c <i_9290>:
    8000967c:	17611923          	sh	s6,370(sp)

0000000080009680 <i_9291>:
    80009680:	17d10d03          	lb	s10,381(sp)

0000000080009684 <i_9292>:
    80009684:	ff416483          	lwu	s1,-12(sp)

0000000080009688 <i_9293>:
    80009688:	f8913c23          	sd	s1,-104(sp)

000000008000968c <i_9294>:
    8000968c:	15214e03          	lbu	t3,338(sp)

0000000080009690 <i_9295>:
    80009690:	12813183          	ld	gp,296(sp)

0000000080009694 <i_9296>:
    80009694:	1ca14803          	lbu	a6,458(sp)

0000000080009698 <i_9297>:
    80009698:	ca4f1817          	auipc	a6,0xca4f1

000000008000969c <i_9298>:
    8000969c:	15b83493          	sltiu	s1,a6,347

00000000800096a0 <i_9299>:
    800096a0:	74600c13          	li	s8,1862

00000000800096a4 <i_9300>:
    800096a4:	74c00593          	li	a1,1868

00000000800096a8 <i_9301>:
    800096a8:	029b8abb          	mulw	s5,s7,s1

00000000800096ac <i_9302>:
    800096ac:	10910123          	sb	s1,258(sp)

00000000800096b0 <i_9303>:
    800096b0:	03049663          	bne	s1,a6,800096dc <i_9313>

00000000800096b4 <i_9304>:
    800096b4:	f7010a23          	sb	a6,-140(sp)

00000000800096b8 <i_9305>:
    800096b8:	0294c2bb          	divw	t0,s1,s1

00000000800096bc <i_9306>:
    800096bc:	001c0c13          	addi	s8,s8,1 # c64c340d <_end+0x464b2ff9>
    800096c0:	ff85f4e3          	bleu	s8,a1,800096a8 <i_9301>

00000000800096c4 <i_9307>:
    800096c4:	1e615a83          	lhu	s5,486(sp)

00000000800096c8 <i_9308>:
    800096c8:	19b10483          	lb	s1,411(sp)

00000000800096cc <i_9309>:
    800096cc:	009cf4b3          	and	s1,s9,s1

00000000800096d0 <i_9310>:
    800096d0:	01549e63          	bne	s1,s5,800096ec <i_9317>

00000000800096d4 <i_9311>:
    800096d4:	0294833b          	mulw	t1,s1,s1

00000000800096d8 <i_9312>:
    800096d8:	e2712023          	sw	t2,-480(sp)

00000000800096dc <i_9313>:
    800096dc:	0e016a83          	lwu	s5,224(sp)

00000000800096e0 <i_9314>:
    800096e0:	0264f063          	bleu	t1,s1,80009700 <i_9322>

00000000800096e4 <i_9315>:
    800096e4:	002a949b          	slliw	s1,s5,0x2

00000000800096e8 <i_9316>:
    800096e8:	01b37cb3          	and	s9,t1,s11

00000000800096ec <i_9317>:
    800096ec:	1d816303          	lwu	t1,472(sp)

00000000800096f0 <i_9318>:
    800096f0:	f2411483          	lh	s1,-220(sp)

00000000800096f4 <i_9319>:
    800096f4:	f2910e23          	sb	s1,-196(sp)

00000000800096f8 <i_9320>:
    800096f8:	f2013503          	ld	a0,-224(sp)

00000000800096fc <i_9321>:
    800096fc:	ec210f23          	sb	sp,-290(sp)

0000000080009700 <i_9322>:
    80009700:	00000013          	nop

0000000080009704 <i_9323>:
    80009704:	001a5a93          	srli	s5,s4,0x1

0000000080009708 <i_9324>:
    80009708:	8c300a13          	li	s4,-1853

000000008000970c <i_9325>:
    8000970c:	8c900e13          	li	t3,-1847

0000000080009710 <i_9326>:
    80009710:	0d214203          	lbu	tp,210(sp)

0000000080009714 <i_9327>:
    80009714:	f1911523          	sh	s9,-246(sp)

0000000080009718 <i_9328>:
    80009718:	0f215283          	lhu	t0,242(sp)

000000008000971c <i_9329>:
    8000971c:	04513023          	sd	t0,64(sp)

0000000080009720 <i_9330>:
    80009720:	019e33b3          	sltu	t2,t3,s9

0000000080009724 <i_9331>:
    80009724:	01a00513          	li	a0,26

0000000080009728 <i_9332>:
    80009728:	00a3dcb3          	srl	s9,t2,a0

000000008000972c <i_9333>:
    8000972c:	12a12e23          	sw	a0,316(sp)

0000000080009730 <i_9334>:
    80009730:	001a0a13          	addi	s4,s4,1
    80009734:	fd4e7ee3          	bleu	s4,t3,80009710 <i_9326>

0000000080009738 <i_9335>:
    80009738:	e2a11623          	sh	a0,-468(sp)

000000008000973c <i_9336>:
    8000973c:	f4710da3          	sb	t2,-165(sp)

0000000080009740 <i_9337>:
    80009740:	f3912623          	sw	s9,-212(sp)

0000000080009744 <i_9338>:
    80009744:	027e6cb3          	rem	s9,t3,t2

0000000080009748 <i_9339>:
    80009748:	09c12b03          	lw	s6,156(sp)

000000008000974c <i_9340>:
    8000974c:	0d815b83          	lhu	s7,216(sp)

0000000080009750 <i_9341>:
    80009750:	094b0c93          	addi	s9,s6,148

0000000080009754 <i_9342>:
    80009754:	003c9393          	slli	t2,s9,0x3

0000000080009758 <i_9343>:
    80009758:	0078e7b3          	or	a5,a7,t2

000000008000975c <i_9344>:
    8000975c:	e2f10da3          	sb	a5,-453(sp)

0000000080009760 <i_9345>:
    80009760:	02d39463          	bne	t2,a3,80009788 <i_9355>

0000000080009764 <i_9346>:
    80009764:	02f3c6bb          	divw	a3,t2,a5

0000000080009768 <i_9347>:
    80009768:	00f6fa63          	bleu	a5,a3,8000977c <i_9352>

000000008000976c <i_9348>:
    8000976c:	efe15a83          	lhu	s5,-258(sp)

0000000080009770 <i_9349>:
    80009770:	01bdbdb3          	sltu	s11,s11,s11

0000000080009774 <i_9350>:
    80009774:	f9910b03          	lb	s6,-103(sp)

0000000080009778 <i_9351>:
    80009778:	18013383          	ld	t2,384(sp)

000000008000977c <i_9352>:
    8000977c:	08810d83          	lb	s11,136(sp)

0000000080009780 <i_9353>:
    80009780:	11013d83          	ld	s11,272(sp)

0000000080009784 <i_9354>:
    80009784:	01bd8b33          	add	s6,s11,s11

0000000080009788 <i_9355>:
    80009788:	03bdcdbb          	divw	s11,s11,s11

000000008000978c <i_9356>:
    8000978c:	03bd8463          	beq	s11,s11,800097b4 <i_9366>

0000000080009790 <i_9357>:
    80009790:	01a3b3b3          	sltu	t2,t2,s10

0000000080009794 <i_9358>:
    80009794:	007d9263          	bne	s11,t2,80009798 <i_9359>

0000000080009798 <i_9359>:
    80009798:	00739c63          	bne	t2,t2,800097b0 <i_9365>

000000008000979c <i_9360>:
    8000979c:	007aadb3          	slt	s11,s5,t2

00000000800097a0 <i_9361>:
    800097a0:	e7110383          	lb	t2,-399(sp)

00000000800097a4 <i_9362>:
    800097a4:	f4910483          	lb	s1,-183(sp)

00000000800097a8 <i_9363>:
    800097a8:	027dd263          	ble	t2,s11,800097cc <i_9372>

00000000800097ac <i_9364>:
    800097ac:	bdadff13          	andi	t5,s11,-1062

00000000800097b0 <i_9365>:
    800097b0:	e9e11723          	sh	t5,-370(sp)

00000000800097b4 <i_9366>:
    800097b4:	ed415303          	lhu	t1,-300(sp)

00000000800097b8 <i_9367>:
    800097b8:	0074b3b3          	sltu	t2,s1,t2

00000000800097bc <i_9368>:
    800097bc:	f2816d83          	lwu	s11,-216(sp)

00000000800097c0 <i_9369>:
    800097c0:	05816b03          	lwu	s6,88(sp)

00000000800097c4 <i_9370>:
    800097c4:	00000013          	nop

00000000800097c8 <i_9371>:
    800097c8:	138106a3          	sb	s8,301(sp)

00000000800097cc <i_9372>:
    800097cc:	00000013          	nop

00000000800097d0 <i_9373>:
    800097d0:	0c010b03          	lb	s6,192(sp)

00000000800097d4 <i_9374>:
    800097d4:	85900393          	li	t2,-1959

00000000800097d8 <i_9375>:
    800097d8:	86900593          	li	a1,-1943

00000000800097dc <i_9376>:
    800097dc:	e9010f03          	lb	t5,-368(sp)

00000000800097e0 <i_9377>:
    800097e0:	0034db13          	srli	s6,s1,0x3

00000000800097e4 <i_9378>:
    800097e4:	fda15683          	lhu	a3,-38(sp)

00000000800097e8 <i_9379>:
    800097e8:	00138393          	addi	t2,t2,1
    800097ec:	fe75f8e3          	bleu	t2,a1,800097dc <i_9376>

00000000800097f0 <i_9380>:
    800097f0:	01800993          	li	s3,24

00000000800097f4 <i_9381>:
    800097f4:	413edf33          	sra	t5,t4,s3

00000000800097f8 <i_9382>:
    800097f8:	01300e93          	li	t4,19

00000000800097fc <i_9383>:
    800097fc:	01d4d4bb          	srlw	s1,s1,t4

0000000080009800 <i_9384>:
    80009800:	01d9de63          	ble	t4,s3,8000981c <i_9391>

0000000080009804 <i_9385>:
    80009804:	0339c7b3          	div	a5,s3,s3

0000000080009808 <i_9386>:
    80009808:	00978463          	beq	a5,s1,80009810 <i_9388>

000000008000980c <i_9387>:
    8000980c:	fbd10ea3          	sb	t4,-67(sp)

0000000080009810 <i_9388>:
    80009810:	60fe8a1b          	addiw	s4,t4,1551

0000000080009814 <i_9389>:
    80009814:	0027db13          	srli	s6,a5,0x2

0000000080009818 <i_9390>:
    80009818:	01db6e63          	bltu	s6,t4,80009834 <i_9397>

000000008000981c <i_9391>:
    8000981c:	027ee463          	bltu	t4,t2,80009844 <i_9401>

0000000080009820 <i_9392>:
    80009820:	fa013e83          	ld	t4,-96(sp)

0000000080009824 <i_9393>:
    80009824:	016b6a63          	bltu	s6,s6,80009838 <i_9398>

0000000080009828 <i_9394>:
    80009828:	00000013          	nop

000000008000982c <i_9395>:
    8000982c:	fe813d03          	ld	s10,-24(sp)

0000000080009830 <i_9396>:
    80009830:	03613823          	sd	s6,48(sp)

0000000080009834 <i_9397>:
    80009834:	00000013          	nop

0000000080009838 <i_9398>:
    80009838:	1d011d03          	lh	s10,464(sp)

000000008000983c <i_9399>:
    8000983c:	00000013          	nop

0000000080009840 <i_9400>:
    80009840:	404e579b          	sraiw	a5,t3,0x4

0000000080009844 <i_9401>:
    80009844:	00000013          	nop

0000000080009848 <i_9402>:
    80009848:	00000013          	nop

000000008000984c <i_9403>:
    8000984c:	73700e93          	li	t4,1847

0000000080009850 <i_9404>:
    80009850:	73d00b13          	li	s6,1853

0000000080009854 <i_9405>:
    80009854:	02c671bb          	remuw	gp,a2,a2

0000000080009858 <i_9406>:
    80009858:	08e15183          	lhu	gp,142(sp)

000000008000985c <i_9407>:
    8000985c:	0237de3b          	divuw	t3,a5,gp

0000000080009860 <i_9408>:
    80009860:	01400313          	li	t1,20

0000000080009864 <i_9409>:
    80009864:	006cd63b          	srlw	a2,s9,t1

0000000080009868 <i_9410>:
    80009868:	001e8e93          	addi	t4,t4,1
    8000986c:	ffdb74e3          	bleu	t4,s6,80009854 <i_9405>

0000000080009870 <i_9411>:
    80009870:	02634063          	blt	t1,t1,80009890 <i_9419>

0000000080009874 <i_9412>:
    80009874:	15512423          	sw	s5,328(sp)

0000000080009878 <i_9413>:
    80009878:	1c1a4197          	auipc	gp,0x1c1a4

000000008000987c <i_9414>:
    8000987c:	eec12203          	lw	tp,-276(sp)

0000000080009880 <i_9415>:
    80009880:	08412e23          	sw	tp,156(sp)

0000000080009884 <i_9416>:
    80009884:	c2222a93          	slti	s5,tp,-990

0000000080009888 <i_9417>:
    80009888:	00000013          	nop

000000008000988c <i_9418>:
    8000988c:	007b63b3          	or	t2,s6,t2

0000000080009890 <i_9419>:
    80009890:	002ad093          	srli	ra,s5,0x2

0000000080009894 <i_9420>:
    80009894:	e3b14983          	lbu	s3,-453(sp)

0000000080009898 <i_9421>:
    80009898:	81600813          	li	a6,-2026

000000008000989c <i_9422>:
    8000989c:	82600a93          	li	s5,-2010

00000000800098a0 <i_9423>:
    800098a0:	00000013          	nop

00000000800098a4 <i_9424>:
    800098a4:	e3511823          	sh	s5,-464(sp)

00000000800098a8 <i_9425>:
    800098a8:	01700693          	li	a3,23

00000000800098ac <i_9426>:
    800098ac:	00dad7bb          	srlw	a5,s5,a3

00000000800098b0 <i_9427>:
    800098b0:	00d7ee63          	bltu	a5,a3,800098cc <i_9433>

00000000800098b4 <i_9428>:
    800098b4:	00180813          	addi	a6,a6,1 # 4a4fa699 <main-0x35b05967>
    800098b8:	ff5844e3          	blt	a6,s5,800098a0 <i_9423>

00000000800098bc <i_9429>:
    800098bc:	e4415a83          	lhu	s5,-444(sp)

00000000800098c0 <i_9430>:
    800098c0:	015ae7b3          	or	a5,s5,s5

00000000800098c4 <i_9431>:
    800098c4:	01569e63          	bne	a3,s5,800098e0 <i_9438>

00000000800098c8 <i_9432>:
    800098c8:	40280dbb          	subw	s11,a6,sp

00000000800098cc <i_9433>:
    800098cc:	ec013403          	ld	s0,-320(sp)

00000000800098d0 <i_9434>:
    800098d0:	02dad463          	ble	a3,s5,800098f8 <i_9444>

00000000800098d4 <i_9435>:
    800098d4:	e5013783          	ld	a5,-432(sp)

00000000800098d8 <i_9436>:
    800098d8:	00f69863          	bne	a3,a5,800098e8 <i_9440>

00000000800098dc <i_9437>:
    800098dc:	02d6cc3b          	divw	s8,a3,a3

00000000800098e0 <i_9438>:
    800098e0:	e3414c03          	lbu	s8,-460(sp)

00000000800098e4 <i_9439>:
    800098e4:	08415a83          	lhu	s5,132(sp)

00000000800098e8 <i_9440>:
    800098e8:	00000013          	nop

00000000800098ec <i_9441>:
    800098ec:	01413423          	sd	s4,8(sp)

00000000800098f0 <i_9442>:
    800098f0:	03b5eab3          	rem	s5,a1,s11

00000000800098f4 <i_9443>:
    800098f4:	02dc5e33          	divu	t3,s8,a3

00000000800098f8 <i_9444>:
    800098f8:	02c2763b          	remuw	a2,tp,a2

00000000800098fc <i_9445>:
    800098fc:	08013683          	ld	a3,128(sp)

0000000080009900 <i_9446>:
    80009900:	7d800a13          	li	s4,2008

0000000080009904 <i_9447>:
    80009904:	7e900213          	li	tp,2025

0000000080009908 <i_9448>:
    80009908:	02c6b633          	mulhu	a2,a3,a2

000000008000990c <i_9449>:
    8000990c:	00c6ea63          	bltu	a3,a2,80009920 <i_9454>

0000000080009910 <i_9450>:
    80009910:	00c65863          	ble	a2,a2,80009920 <i_9454>

0000000080009914 <i_9451>:
    80009914:	ead10023          	sb	a3,-352(sp)

0000000080009918 <i_9452>:
    80009918:	02d626b3          	mulhsu	a3,a2,a3

000000008000991c <i_9453>:
    8000991c:	4036569b          	sraiw	a3,a2,0x3

0000000080009920 <i_9454>:
    80009920:	ead11e23          	sh	a3,-324(sp)

0000000080009924 <i_9455>:
    80009924:	00d68a63          	beq	a3,a3,80009938 <i_9459>

0000000080009928 <i_9456>:
    80009928:	001a0a13          	addi	s4,s4,1
    8000992c:	fd427ee3          	bleu	s4,tp,80009908 <i_9448>

0000000080009930 <i_9457>:
    80009930:	03800513          	li	a0,56

0000000080009934 <i_9458>:
    80009934:	00a69d33          	sll	s10,a3,a0

0000000080009938 <i_9459>:
    80009938:	18415403          	lhu	s0,388(sp)

000000008000993c <i_9460>:
    8000993c:	f4d10d23          	sb	a3,-166(sp)

0000000080009940 <i_9461>:
    80009940:	c2d6f393          	andi	t2,a3,-979

0000000080009944 <i_9462>:
    80009944:	01510683          	lb	a3,21(sp)

0000000080009948 <i_9463>:
    80009948:	02d45263          	ble	a3,s0,8000996c <i_9472>

000000008000994c <i_9464>:
    8000994c:	037d93b3          	mulh	t2,s11,s7

0000000080009950 <i_9465>:
    80009950:	08d11b23          	sh	a3,150(sp)

0000000080009954 <i_9466>:
    80009954:	02d3f263          	bleu	a3,t2,80009978 <i_9475>

0000000080009958 <i_9467>:
    80009958:	02d3f463          	bleu	a3,t2,80009980 <i_9477>

000000008000995c <i_9468>:
    8000995c:	001d9693          	slli	a3,s11,0x1

0000000080009960 <i_9469>:
    80009960:	5e5aa693          	slti	a3,s5,1509

0000000080009964 <i_9470>:
    80009964:	15813d83          	ld	s11,344(sp)

0000000080009968 <i_9471>:
    80009968:	e7c12303          	lw	t1,-388(sp)

000000008000996c <i_9472>:
    8000996c:	00000013          	nop

0000000080009970 <i_9473>:
    80009970:	09914683          	lbu	a3,153(sp)

0000000080009974 <i_9474>:
    80009974:	efc12303          	lw	t1,-260(sp)

0000000080009978 <i_9475>:
    80009978:	1c415d83          	lhu	s11,452(sp)

000000008000997c <i_9476>:
    8000997c:	fb816d83          	lwu	s11,-72(sp)

0000000080009980 <i_9477>:
    80009980:	f2611d23          	sh	t1,-198(sp)

0000000080009984 <i_9478>:
    80009984:	00000013          	nop

0000000080009988 <i_9479>:
    80009988:	75900393          	li	t2,1881

000000008000998c <i_9480>:
    8000998c:	76c00a93          	li	s5,1900

0000000080009990 <i_9481>:
    80009990:	00000013          	nop

0000000080009994 <i_9482>:
    80009994:	f0015083          	lhu	ra,-256(sp)

0000000080009998 <i_9483>:
    80009998:	04613823          	sd	t1,80(sp)

000000008000999c <i_9484>:
    8000999c:	13011303          	lh	t1,304(sp)

00000000800099a0 <i_9485>:
    800099a0:	e6e11603          	lh	a2,-402(sp)

00000000800099a4 <i_9486>:
    800099a4:	00000013          	nop

00000000800099a8 <i_9487>:
    800099a8:	00138393          	addi	t2,t2,1
    800099ac:	ff53c2e3          	blt	t2,s5,80009990 <i_9481>

00000000800099b0 <i_9488>:
    800099b0:	00c67633          	and	a2,a2,a2

00000000800099b4 <i_9489>:
    800099b4:	f8414403          	lbu	s0,-124(sp)

00000000800099b8 <i_9490>:
    800099b8:	16c11823          	sh	a2,368(sp)

00000000800099bc <i_9491>:
    800099bc:	08c10f23          	sb	a2,158(sp)

00000000800099c0 <i_9492>:
    800099c0:	18111623          	sh	ra,396(sp)

00000000800099c4 <i_9493>:
    800099c4:	06a10323          	sb	a0,102(sp)

00000000800099c8 <i_9494>:
    800099c8:	08812223          	sw	s0,132(sp)

00000000800099cc <i_9495>:
    800099cc:	ec813a83          	ld	s5,-312(sp)

00000000800099d0 <i_9496>:
    800099d0:	0214f063          	bleu	ra,s1,800099f0 <i_9504>

00000000800099d4 <i_9497>:
    800099d4:	00364e63          	blt	a2,gp,800099f0 <i_9504>

00000000800099d8 <i_9498>:
    800099d8:	0082c1b3          	xor	gp,t0,s0

00000000800099dc <i_9499>:
    800099dc:	0234b433          	mulhu	s0,s1,gp

00000000800099e0 <i_9500>:
    800099e0:	19c12183          	lw	gp,412(sp)

00000000800099e4 <i_9501>:
    800099e4:	403401b3          	sub	gp,s0,gp

00000000800099e8 <i_9502>:
    800099e8:	ef411183          	lh	gp,-268(sp)

00000000800099ec <i_9503>:
    800099ec:	0081f263          	bleu	s0,gp,800099f0 <i_9504>

00000000800099f0 <i_9504>:
    800099f0:	028ce263          	bltu	s9,s0,80009a14 <i_9513>

00000000800099f4 <i_9505>:
    800099f4:	2aa4019b          	addiw	gp,s0,682

00000000800099f8 <i_9506>:
    800099f8:	02d196b3          	mulh	a3,gp,a3

00000000800099fc <i_9507>:
    800099fc:	06813983          	ld	s3,104(sp)

0000000080009a00 <i_9508>:
    80009a00:	00347c63          	bleu	gp,s0,80009a18 <i_9514>

0000000080009a04 <i_9509>:
    80009a04:	19012183          	lw	gp,400(sp)

0000000080009a08 <i_9510>:
    80009a08:	15016083          	lwu	ra,336(sp)

0000000080009a0c <i_9511>:
    80009a0c:	12611a03          	lh	s4,294(sp)

0000000080009a10 <i_9512>:
    80009a10:	721e899b          	addiw	s3,t4,1825

0000000080009a14 <i_9513>:
    80009a14:	ed212e23          	sw	s2,-292(sp)

0000000080009a18 <i_9514>:
    80009a18:	0060d863          	ble	t1,ra,80009a28 <i_9518>

0000000080009a1c <i_9515>:
    80009a1c:	18414303          	lbu	t1,388(sp)

0000000080009a20 <i_9516>:
    80009a20:	006a5a63          	ble	t1,s4,80009a34 <i_9521>

0000000080009a24 <i_9517>:
    80009a24:	2857a993          	slti	s3,a5,645

0000000080009a28 <i_9518>:
    80009a28:	0c113c23          	sd	ra,216(sp)

0000000080009a2c <i_9519>:
    80009a2c:	08111623          	sh	ra,140(sp)

0000000080009a30 <i_9520>:
    80009a30:	01498e63          	beq	s3,s4,80009a4c <i_9527>

0000000080009a34 <i_9521>:
    80009a34:	0049d593          	srli	a1,s3,0x4

0000000080009a38 <i_9522>:
    80009a38:	4025d093          	srai	ra,a1,0x2

0000000080009a3c <i_9523>:
    80009a3c:	0341d063          	ble	s4,gp,80009a5c <i_9531>

0000000080009a40 <i_9524>:
    80009a40:	01600313          	li	t1,22

0000000080009a44 <i_9525>:
    80009a44:	406dd5bb          	sraw	a1,s11,t1

0000000080009a48 <i_9526>:
    80009a48:	00636463          	bltu	t1,t1,80009a50 <i_9528>

0000000080009a4c <i_9527>:
    80009a4c:	e1e15303          	lhu	t1,-482(sp)

0000000080009a50 <i_9528>:
    80009a50:	03814303          	lbu	t1,56(sp)

0000000080009a54 <i_9529>:
    80009a54:	89930313          	addi	t1,t1,-1895

0000000080009a58 <i_9530>:
    80009a58:	00000013          	nop

0000000080009a5c <i_9531>:
    80009a5c:	02f327b3          	mulhsu	a5,t1,a5

0000000080009a60 <i_9532>:
    80009a60:	e7e14483          	lbu	s1,-386(sp)

0000000080009a64 <i_9533>:
    80009a64:	77b00093          	li	ra,1915

0000000080009a68 <i_9534>:
    80009a68:	78e00d93          	li	s11,1934

0000000080009a6c <i_9535>:
    80009a6c:	0267c063          	blt	a5,t1,80009a8c <i_9542>

0000000080009a70 <i_9536>:
    80009a70:	01000393          	li	t2,16

0000000080009a74 <i_9537>:
    80009a74:	407e5e3b          	sraw	t3,t3,t2

0000000080009a78 <i_9538>:
    80009a78:	00108093          	addi	ra,ra,1
    80009a7c:	ffb098e3          	bne	ra,s11,80009a6c <i_9535>

0000000080009a80 <i_9539>:
    80009a80:	02636bb3          	rem	s7,t1,t1

0000000080009a84 <i_9540>:
    80009a84:	03737abb          	remuw	s5,t1,s7

0000000080009a88 <i_9541>:
    80009a88:	e2c16383          	lwu	t2,-468(sp)

0000000080009a8c <i_9542>:
    80009a8c:	14c11303          	lh	t1,332(sp)

0000000080009a90 <i_9543>:
    80009a90:	f8b14b03          	lbu	s6,-117(sp)

0000000080009a94 <i_9544>:
    80009a94:	026a8abb          	mulw	s5,s5,t1

0000000080009a98 <i_9545>:
    80009a98:	017e4ab3          	xor	s5,t3,s7

0000000080009a9c <i_9546>:
    80009a9c:	00aaf863          	bleu	a0,s5,80009aac <i_9550>

0000000080009aa0 <i_9547>:
    80009aa0:	5e23b293          	sltiu	t0,t2,1506

0000000080009aa4 <i_9548>:
    80009aa4:	01700513          	li	a0,23

0000000080009aa8 <i_9549>:
    80009aa8:	00abd3b3          	srl	t2,s7,a0

0000000080009aac <i_9550>:
    80009aac:	f3415603          	lhu	a2,-204(sp)

0000000080009ab0 <i_9551>:
    80009ab0:	88980a97          	auipc	s5,0x88980

0000000080009ab4 <i_9552>:
    80009ab4:	4015551b          	sraiw	a0,a0,0x1

0000000080009ab8 <i_9553>:
    80009ab8:	ec416183          	lwu	gp,-316(sp)

0000000080009abc <i_9554>:
    80009abc:	00700993          	li	s3,7

0000000080009ac0 <i_9555>:
    80009ac0:	413559b3          	sra	s3,a0,s3

0000000080009ac4 <i_9556>:
    80009ac4:	02416503          	lwu	a0,36(sp)

0000000080009ac8 <i_9557>:
    80009ac8:	12011503          	lh	a0,288(sp)

0000000080009acc <i_9558>:
    80009acc:	1ca100a3          	sb	a0,449(sp)

0000000080009ad0 <i_9559>:
    80009ad0:	04013983          	ld	s3,64(sp)

0000000080009ad4 <i_9560>:
    80009ad4:	f6012503          	lw	a0,-160(sp)

0000000080009ad8 <i_9561>:
    80009ad8:	00a9c863          	blt	s3,a0,80009ae8 <i_9565>

0000000080009adc <i_9562>:
    80009adc:	00add463          	ble	a0,s11,80009ae4 <i_9564>

0000000080009ae0 <i_9563>:
    80009ae0:	00a56e63          	bltu	a0,a0,80009afc <i_9570>

0000000080009ae4 <i_9564>:
    80009ae4:	faf10b03          	lb	s6,-81(sp)

0000000080009ae8 <i_9565>:
    80009ae8:	01014503          	lbu	a0,16(sp)

0000000080009aec <i_9566>:
    80009aec:	00000013          	nop

0000000080009af0 <i_9567>:
    80009af0:	016b63b3          	or	t2,s6,s6

0000000080009af4 <i_9568>:
    80009af4:	00000013          	nop

0000000080009af8 <i_9569>:
    80009af8:	00000013          	nop

0000000080009afc <i_9570>:
    80009afc:	407b03bb          	subw	t2,s6,t2

0000000080009b00 <i_9571>:
    80009b00:	036eeeb3          	rem	t4,t4,s6

0000000080009b04 <i_9572>:
    80009b04:	7b900513          	li	a0,1977

0000000080009b08 <i_9573>:
    80009b08:	7be00b13          	li	s6,1982

0000000080009b0c <i_9574>:
    80009b0c:	f8e15d83          	lhu	s11,-114(sp)

0000000080009b10 <i_9575>:
    80009b10:	03deceb3          	div	t4,t4,t4

0000000080009b14 <i_9576>:
    80009b14:	01d79463          	bne	a5,t4,80009b1c <i_9578>

0000000080009b18 <i_9577>:
    80009b18:	001e981b          	slliw	a6,t4,0x1

0000000080009b1c <i_9578>:
    80009b1c:	ef412e83          	lw	t4,-268(sp)

0000000080009b20 <i_9579>:
    80009b20:	e5310783          	lb	a5,-429(sp)

0000000080009b24 <i_9580>:
    80009b24:	0d813803          	ld	a6,216(sp)

0000000080009b28 <i_9581>:
    80009b28:	03084663          	blt	a6,a6,80009b54 <i_9591>

0000000080009b2c <i_9582>:
    80009b2c:	ef012403          	lw	s0,-272(sp)

0000000080009b30 <i_9583>:
    80009b30:	00000013          	nop

0000000080009b34 <i_9584>:
    80009b34:	02400193          	li	gp,36

0000000080009b38 <i_9585>:
    80009b38:	4036d833          	sra	a6,a3,gp

0000000080009b3c <i_9586>:
    80009b3c:	00150513          	addi	a0,a0,1
    80009b40:	fcab56e3          	ble	a0,s6,80009b0c <i_9574>

0000000080009b44 <i_9587>:
    80009b44:	0a110383          	lb	t2,161(sp)

0000000080009b48 <i_9588>:
    80009b48:	fcb14683          	lbu	a3,-53(sp)

0000000080009b4c <i_9589>:
    80009b4c:	1bc12503          	lw	a0,444(sp)

0000000080009b50 <i_9590>:
    80009b50:	00a57863          	bleu	a0,a0,80009b60 <i_9594>

0000000080009b54 <i_9591>:
    80009b54:	0076a533          	slt	a0,a3,t2

0000000080009b58 <i_9592>:
    80009b58:	00b00993          	li	s3,11

0000000080009b5c <i_9593>:
    80009b5c:	01325233          	srl	tp,tp,s3

0000000080009b60 <i_9594>:
    80009b60:	03300213          	li	tp,51

0000000080009b64 <i_9595>:
    80009b64:	00421233          	sll	tp,tp,tp

0000000080009b68 <i_9596>:
    80009b68:	8ba00c93          	li	s9,-1862

0000000080009b6c <i_9597>:
    80009b6c:	8cc00393          	li	t2,-1844

0000000080009b70 <i_9598>:
    80009b70:	00500313          	li	t1,5

0000000080009b74 <i_9599>:
    80009b74:	0064d4bb          	srlw	s1,s1,t1

0000000080009b78 <i_9600>:
    80009b78:	05813f03          	ld	t5,88(sp)

0000000080009b7c <i_9601>:
    80009b7c:	f9510203          	lb	tp,-107(sp)

0000000080009b80 <i_9602>:
    80009b80:	001c8c93          	addi	s9,s9,1
    80009b84:	fe7cc6e3          	blt	s9,t2,80009b70 <i_9598>

0000000080009b88 <i_9603>:
    80009b88:	19c16e03          	lwu	t3,412(sp)

0000000080009b8c <i_9604>:
    80009b8c:	ea410ca3          	sb	tp,-327(sp)

0000000080009b90 <i_9605>:
    80009b90:	f1110723          	sb	a7,-242(sp)

0000000080009b94 <i_9606>:
    80009b94:	00978a63          	beq	a5,s1,80009ba8 <i_9611>

0000000080009b98 <i_9607>:
    80009b98:	0017979b          	slliw	a5,a5,0x1

0000000080009b9c <i_9608>:
    80009b9c:	03c7e463          	bltu	a5,t3,80009bc4 <i_9618>

0000000080009ba0 <i_9609>:
    80009ba0:	00f3c263          	blt	t2,a5,80009ba4 <i_9610>

0000000080009ba4 <i_9610>:
    80009ba4:	f2813c03          	ld	s8,-216(sp)

0000000080009ba8 <i_9611>:
    80009ba8:	0033939b          	slliw	t2,t2,0x3

0000000080009bac <i_9612>:
    80009bac:	00610383          	lb	t2,6(sp)

0000000080009bb0 <i_9613>:
    80009bb0:	f9511723          	sh	s5,-114(sp)

0000000080009bb4 <i_9614>:
    80009bb4:	03710f03          	lb	t5,55(sp)

0000000080009bb8 <i_9615>:
    80009bb8:	00000013          	nop

0000000080009bbc <i_9616>:
    80009bbc:	fc711923          	sh	t2,-46(sp)

0000000080009bc0 <i_9617>:
    80009bc0:	4023db1b          	sraiw	s6,t2,0x2

0000000080009bc4 <i_9618>:
    80009bc4:	00000013          	nop

0000000080009bc8 <i_9619>:
    80009bc8:	68ff2b13          	slti	s6,t5,1679

0000000080009bcc <i_9620>:
    80009bcc:	7c400613          	li	a2,1988

0000000080009bd0 <i_9621>:
    80009bd0:	7d800a93          	li	s5,2008

0000000080009bd4 <i_9622>:
    80009bd4:	005b7663          	bleu	t0,s6,80009be0 <i_9625>

0000000080009bd8 <i_9623>:
    80009bd8:	ffe11c03          	lh	s8,-2(sp)

0000000080009bdc <i_9624>:
    80009bdc:	0043919b          	slliw	gp,t2,0x4

0000000080009be0 <i_9625>:
    80009be0:	0131e2b3          	or	t0,gp,s3

0000000080009be4 <i_9626>:
    80009be4:	a2b2a193          	slti	gp,t0,-1493

0000000080009be8 <i_9627>:
    80009be8:	00000013          	nop

0000000080009bec <i_9628>:
    80009bec:	18510223          	sb	t0,388(sp)

0000000080009bf0 <i_9629>:
    80009bf0:	0341e1bb          	remw	gp,gp,s4

0000000080009bf4 <i_9630>:
    80009bf4:	00160613          	addi	a2,a2,1
    80009bf8:	fd566ee3          	bltu	a2,s5,80009bd4 <i_9622>

0000000080009bfc <i_9631>:
    80009bfc:	0231ae33          	mulhsu	t3,gp,gp

0000000080009c00 <i_9632>:
    80009c00:	023e66b3          	rem	a3,t3,gp

0000000080009c04 <i_9633>:
    80009c04:	e2411183          	lh	gp,-476(sp)

0000000080009c08 <i_9634>:
    80009c08:	00c97e63          	bleu	a2,s2,80009c24 <i_9641>

0000000080009c0c <i_9635>:
    80009c0c:	00d13c23          	sd	a3,24(sp)

0000000080009c10 <i_9636>:
    80009c10:	ed013e83          	ld	t4,-304(sp)

0000000080009c14 <i_9637>:
    80009c14:	40c604bb          	subw	s1,a2,a2

0000000080009c18 <i_9638>:
    80009c18:	16312823          	sw	gp,368(sp)

0000000080009c1c <i_9639>:
    80009c1c:	0f611183          	lh	gp,246(sp)

0000000080009c20 <i_9640>:
    80009c20:	ecc11e23          	sh	a2,-292(sp)

0000000080009c24 <i_9641>:
    80009c24:	fd013803          	ld	a6,-48(sp)

0000000080009c28 <i_9642>:
    80009c28:	00000013          	nop

0000000080009c2c <i_9643>:
    80009c2c:	82700693          	li	a3,-2009

0000000080009c30 <i_9644>:
    80009c30:	82900613          	li	a2,-2007

0000000080009c34 <i_9645>:
    80009c34:	1e611083          	lh	ra,486(sp)

0000000080009c38 <i_9646>:
    80009c38:	00200d93          	li	s11,2

0000000080009c3c <i_9647>:
    80009c3c:	01b09bbb          	sllw	s7,ra,s11

0000000080009c40 <i_9648>:
    80009c40:	19a14183          	lbu	gp,410(sp)

0000000080009c44 <i_9649>:
    80009c44:	03b00993          	li	s3,59

0000000080009c48 <i_9650>:
    80009c48:	01319bb3          	sll	s7,gp,s3

0000000080009c4c <i_9651>:
    80009c4c:	00168693          	addi	a3,a3,1
    80009c50:	fec6e2e3          	bltu	a3,a2,80009c34 <i_9645>

0000000080009c54 <i_9652>:
    80009c54:	e9b11823          	sh	s11,-368(sp)

0000000080009c58 <i_9653>:
    80009c58:	f679c993          	xori	s3,s3,-153

0000000080009c5c <i_9654>:
    80009c5c:	0a312823          	sw	gp,176(sp)

0000000080009c60 <i_9655>:
    80009c60:	11010383          	lb	t2,272(sp)

0000000080009c64 <i_9656>:
    80009c64:	16412b83          	lw	s7,356(sp)

0000000080009c68 <i_9657>:
    80009c68:	ea7107a3          	sb	t2,-337(sp)

0000000080009c6c <i_9658>:
    80009c6c:	0c015303          	lhu	t1,192(sp)

0000000080009c70 <i_9659>:
    80009c70:	0263d833          	divu	a6,t2,t1

0000000080009c74 <i_9660>:
    80009c74:	04816e83          	lwu	t4,72(sp)

0000000080009c78 <i_9661>:
    80009c78:	01dbe863          	bltu	s7,t4,80009c88 <i_9665>

0000000080009c7c <i_9662>:
    80009c7c:	00d57a33          	and	s4,a0,a3

0000000080009c80 <i_9663>:
    80009c80:	f0412e83          	lw	t4,-252(sp)

0000000080009c84 <i_9664>:
    80009c84:	fd010ca3          	sb	a6,-39(sp)

0000000080009c88 <i_9665>:
    80009c88:	003ede13          	srli	t3,t4,0x3

0000000080009c8c <i_9666>:
    80009c8c:	f9813383          	ld	t2,-104(sp)

0000000080009c90 <i_9667>:
    80009c90:	00713823          	sd	t2,16(sp)

0000000080009c94 <i_9668>:
    80009c94:	417a0a33          	sub	s4,s4,s7

0000000080009c98 <i_9669>:
    80009c98:	02b4e063          	bltu	s1,a1,80009cb8 <i_9677>

0000000080009c9c <i_9670>:
    80009c9c:	e4016e03          	lwu	t3,-448(sp)

0000000080009ca0 <i_9671>:
    80009ca0:	02712423          	sw	t2,40(sp)

0000000080009ca4 <i_9672>:
    80009ca4:	17416e83          	lwu	t4,372(sp)

0000000080009ca8 <i_9673>:
    80009ca8:	03614d83          	lbu	s11,54(sp)

0000000080009cac <i_9674>:
    80009cac:	010872b3          	and	t0,a6,a6

0000000080009cb0 <i_9675>:
    80009cb0:	fba14b03          	lbu	s6,-70(sp)

0000000080009cb4 <i_9676>:
    80009cb4:	00000013          	nop

0000000080009cb8 <i_9677>:
    80009cb8:	028fdeb3          	divu	t4,t6,s0

0000000080009cbc <i_9678>:
    80009cbc:	fc015483          	lhu	s1,-64(sp)

0000000080009cc0 <i_9679>:
    80009cc0:	85700413          	li	s0,-1961

0000000080009cc4 <i_9680>:
    80009cc4:	86400613          	li	a2,-1948

0000000080009cc8 <i_9681>:
    80009cc8:	41dd0d3b          	subw	s10,s10,t4

0000000080009ccc <i_9682>:
    80009ccc:	017e8833          	add	a6,t4,s7

0000000080009cd0 <i_9683>:
    80009cd0:	12a12423          	sw	a0,296(sp)

0000000080009cd4 <i_9684>:
    80009cd4:	00140413          	addi	s0,s0,1
    80009cd8:	fe8658e3          	ble	s0,a2,80009cc8 <i_9681>

0000000080009cdc <i_9685>:
    80009cdc:	e9815d03          	lhu	s10,-360(sp)

0000000080009ce0 <i_9686>:
    80009ce0:	00000013          	nop

0000000080009ce4 <i_9687>:
    80009ce4:	89f00b13          	li	s6,-1889

0000000080009ce8 <i_9688>:
    80009ce8:	8ad00393          	li	t2,-1875

0000000080009cec <i_9689>:
    80009cec:	fed10d03          	lb	s10,-19(sp)

0000000080009cf0 <i_9690>:
    80009cf0:	01ab0663          	beq	s6,s10,80009cfc <i_9693>

0000000080009cf4 <i_9691>:
    80009cf4:	413187bb          	subw	a5,gp,s3

0000000080009cf8 <i_9692>:
    80009cf8:	00000013          	nop

0000000080009cfc <i_9693>:
    80009cfc:	05813e03          	ld	t3,88(sp)

0000000080009d00 <i_9694>:
    80009d00:	03cab9b3          	mulhu	s3,s5,t3

0000000080009d04 <i_9695>:
    80009d04:	035a9063          	bne	s5,s5,80009d24 <i_9702>

0000000080009d08 <i_9696>:
    80009d08:	19012f03          	lw	t5,400(sp)

0000000080009d0c <i_9697>:
    80009d0c:	001b0b13          	addi	s6,s6,1
    80009d10:	fc7b4ee3          	blt	s6,t2,80009cec <i_9689>

0000000080009d14 <i_9698>:
    80009d14:	fa411a23          	sh	tp,-76(sp)

0000000080009d18 <i_9699>:
    80009d18:	03c8ea33          	rem	s4,a7,t3

0000000080009d1c <i_9700>:
    80009d1c:	03ea1463          	bne	s4,t5,80009d44 <i_9710>

0000000080009d20 <i_9701>:
    80009d20:	e6415d83          	lhu	s11,-412(sp)

0000000080009d24 <i_9702>:
    80009d24:	03e9f263          	bleu	t5,s3,80009d48 <i_9711>

0000000080009d28 <i_9703>:
    80009d28:	013a8463          	beq	s5,s3,80009d30 <i_9705>

0000000080009d2c <i_9704>:
    80009d2c:	eef13823          	sd	a5,-272(sp)

0000000080009d30 <i_9705>:
    80009d30:	11a12423          	sw	s10,264(sp)

0000000080009d34 <i_9706>:
    80009d34:	ee011c03          	lh	s8,-288(sp)

0000000080009d38 <i_9707>:
    80009d38:	14713c23          	sd	t2,344(sp)

0000000080009d3c <i_9708>:
    80009d3c:	016aba33          	sltu	s4,s5,s6

0000000080009d40 <i_9709>:
    80009d40:	2f1f6093          	ori	ra,t5,753

0000000080009d44 <i_9710>:
    80009d44:	fd412d03          	lw	s10,-44(sp)

0000000080009d48 <i_9711>:
    80009d48:	8d1c7b13          	andi	s6,s8,-1839

0000000080009d4c <i_9712>:
    80009d4c:	001a151b          	slliw	a0,s4,0x1

0000000080009d50 <i_9713>:
    80009d50:	0149da63          	ble	s4,s3,80009d64 <i_9718>

0000000080009d54 <i_9714>:
    80009d54:	00fa8c63          	beq	s5,a5,80009d6c <i_9720>

0000000080009d58 <i_9715>:
    80009d58:	01bc6ab3          	or	s5,s8,s11

0000000080009d5c <i_9716>:
    80009d5c:	10c15b03          	lhu	s6,268(sp)

0000000080009d60 <i_9717>:
    80009d60:	0369fabb          	remuw	s5,s3,s6

0000000080009d64 <i_9718>:
    80009d64:	13c13023          	sd	t3,288(sp)

0000000080009d68 <i_9719>:
    80009d68:	015a8463          	beq	s5,s5,80009d70 <i_9721>

0000000080009d6c <i_9720>:
    80009d6c:	035abab3          	mulhu	s5,s5,s5

0000000080009d70 <i_9721>:
    80009d70:	1b612a23          	sw	s6,436(sp)

0000000080009d74 <i_9722>:
    80009d74:	01539863          	bne	t2,s5,80009d84 <i_9726>

0000000080009d78 <i_9723>:
    80009d78:	11c15b03          	lhu	s6,284(sp)

0000000080009d7c <i_9724>:
    80009d7c:	01300a93          	li	s5,19

0000000080009d80 <i_9725>:
    80009d80:	015bdbbb          	srlw	s7,s7,s5

0000000080009d84 <i_9726>:
    80009d84:	13c14803          	lbu	a6,316(sp)

0000000080009d88 <i_9727>:
    80009d88:	40285c1b          	sraiw	s8,a6,0x2

0000000080009d8c <i_9728>:
    80009d8c:	036b0233          	mul	tp,s6,s6

0000000080009d90 <i_9729>:
    80009d90:	01900993          	li	s3,25

0000000080009d94 <i_9730>:
    80009d94:	01389b33          	sll	s6,a7,s3

0000000080009d98 <i_9731>:
    80009d98:	41698b33          	sub	s6,s3,s6

0000000080009d9c <i_9732>:
    80009d9c:	036b7463          	bleu	s6,s6,80009dc4 <i_9742>

0000000080009da0 <i_9733>:
    80009da0:	0e215603          	lhu	a2,226(sp)

0000000080009da4 <i_9734>:
    80009da4:	02c9f0bb          	remuw	ra,s3,a2

0000000080009da8 <i_9735>:
    80009da8:	00c09e63          	bne	ra,a2,80009dc4 <i_9742>

0000000080009dac <i_9736>:
    80009dac:	02cb5063          	ble	a2,s6,80009dcc <i_9744>

0000000080009db0 <i_9737>:
    80009db0:	00a00b13          	li	s6,10

0000000080009db4 <i_9738>:
    80009db4:	01699b3b          	sllw	s6,s3,s6

0000000080009db8 <i_9739>:
    80009db8:	f3412503          	lw	a0,-204(sp)

0000000080009dbc <i_9740>:
    80009dbc:	10811a03          	lh	s4,264(sp)

0000000080009dc0 <i_9741>:
    80009dc0:	02800493          	li	s1,40

0000000080009dc4 <i_9742>:
    80009dc4:	009a5333          	srl	t1,s4,s1

0000000080009dc8 <i_9743>:
    80009dc8:	f9813483          	ld	s1,-104(sp)

0000000080009dcc <i_9744>:
    80009dcc:	0b416a03          	lwu	s4,180(sp)

0000000080009dd0 <i_9745>:
    80009dd0:	0343a3b3          	mulhsu	t2,t2,s4

0000000080009dd4 <i_9746>:
    80009dd4:	89d00813          	li	a6,-1891

0000000080009dd8 <i_9747>:
    80009dd8:	8a600993          	li	s3,-1882

0000000080009ddc <i_9748>:
    80009ddc:	014a43b3          	xor	t2,s4,s4

0000000080009de0 <i_9749>:
    80009de0:	007f3a33          	sltu	s4,t5,t2

0000000080009de4 <i_9750>:
    80009de4:	00000013          	nop

0000000080009de8 <i_9751>:
    80009de8:	00180813          	addi	a6,a6,1
    80009dec:	ff3868e3          	bltu	a6,s3,80009ddc <i_9748>

0000000080009df0 <i_9752>:
    80009df0:	e7416383          	lwu	t2,-396(sp)

0000000080009df4 <i_9753>:
    80009df4:	fe815683          	lhu	a3,-24(sp)

0000000080009df8 <i_9754>:
    80009df8:	e6110083          	lb	ra,-415(sp)

0000000080009dfc <i_9755>:
    80009dfc:	0023d313          	srli	t1,t2,0x2

0000000080009e00 <i_9756>:
    80009e00:	03100093          	li	ra,49

0000000080009e04 <i_9757>:
    80009e04:	4010d0b3          	sra	ra,ra,ra

0000000080009e08 <i_9758>:
    80009e08:	02108463          	beq	ra,ra,80009e30 <i_9768>

0000000080009e0c <i_9759>:
    80009e0c:	0010f263          	bleu	ra,ra,80009e10 <i_9760>

0000000080009e10 <i_9760>:
    80009e10:	02500493          	li	s1,37

0000000080009e14 <i_9761>:
    80009e14:	4090d4b3          	sra	s1,ra,s1

0000000080009e18 <i_9762>:
    80009e18:	00748663          	beq	s1,t2,80009e24 <i_9765>

0000000080009e1c <i_9763>:
    80009e1c:	07c15083          	lhu	ra,124(sp)

0000000080009e20 <i_9764>:
    80009e20:	0292c063          	blt	t0,s1,80009e40 <i_9772>

0000000080009e24 <i_9765>:
    80009e24:	15210083          	lb	ra,338(sp)

0000000080009e28 <i_9766>:
    80009e28:	404080b3          	sub	ra,ra,tp

0000000080009e2c <i_9767>:
    80009e2c:	07812803          	lw	a6,120(sp)

0000000080009e30 <i_9768>:
    80009e30:	0e412083          	lw	ra,228(sp)

0000000080009e34 <i_9769>:
    80009e34:	0014fcb3          	and	s9,s1,ra

0000000080009e38 <i_9770>:
    80009e38:	f2811083          	lh	ra,-216(sp)

0000000080009e3c <i_9771>:
    80009e3c:	03908cbb          	mulw	s9,ra,s9

0000000080009e40 <i_9772>:
    80009e40:	0d811c83          	lh	s9,216(sp)

0000000080009e44 <i_9773>:
    80009e44:	09911723          	sh	s9,142(sp)

0000000080009e48 <i_9774>:
    80009e48:	0e112c23          	sw	ra,248(sp)

0000000080009e4c <i_9775>:
    80009e4c:	001cea63          	bltu	s9,ra,80009e60 <i_9780>

0000000080009e50 <i_9776>:
    80009e50:	eb914083          	lbu	ra,-327(sp)

0000000080009e54 <i_9777>:
    80009e54:	07911f23          	sh	s9,126(sp)

0000000080009e58 <i_9778>:
    80009e58:	04611123          	sh	t1,66(sp)

0000000080009e5c <i_9779>:
    80009e5c:	ea011c83          	lh	s9,-352(sp)

0000000080009e60 <i_9780>:
    80009e60:	019c8833          	add	a6,s9,s9

0000000080009e64 <i_9781>:
    80009e64:	0301e33b          	remw	t1,gp,a6

0000000080009e68 <i_9782>:
    80009e68:	8cc00193          	li	gp,-1844

0000000080009e6c <i_9783>:
    80009e6c:	8d600093          	li	ra,-1834

0000000080009e70 <i_9784>:
    80009e70:	00000013          	nop

0000000080009e74 <i_9785>:
    80009e74:	03e18ebb          	mulw	t4,gp,t5

0000000080009e78 <i_9786>:
    80009e78:	03d34333          	div	t1,t1,t4

0000000080009e7c <i_9787>:
    80009e7c:	10813803          	ld	a6,264(sp)

0000000080009e80 <i_9788>:
    80009e80:	a298859b          	addiw	a1,a7,-1495

0000000080009e84 <i_9789>:
    80009e84:	fec12803          	lw	a6,-20(sp)

0000000080009e88 <i_9790>:
    80009e88:	1a514d83          	lbu	s11,421(sp)

0000000080009e8c <i_9791>:
    80009e8c:	806afa93          	andi	s5,s5,-2042

0000000080009e90 <i_9792>:
    80009e90:	07013503          	ld	a0,112(sp)

0000000080009e94 <i_9793>:
    80009e94:	4085843b          	subw	s0,a1,s0

0000000080009e98 <i_9794>:
    80009e98:	035e9663          	bne	t4,s5,80009ec4 <i_9804>

0000000080009e9c <i_9795>:
    80009e9c:	00118193          	addi	gp,gp,1 # 9c1ad879 <_end+0x1c19d465>
    80009ea0:	fc11e8e3          	bltu	gp,ra,80009e70 <i_9784>

0000000080009ea4 <i_9796>:
    80009ea4:	02b535b3          	mulhu	a1,a0,a1

0000000080009ea8 <i_9797>:
    80009ea8:	10215b83          	lhu	s7,258(sp)

0000000080009eac <i_9798>:
    80009eac:	02b5e263          	bltu	a1,a1,80009ed0 <i_9807>

0000000080009eb0 <i_9799>:
    80009eb0:	a45a8517          	auipc	a0,0xa45a8

0000000080009eb4 <i_9800>:
    80009eb4:	1c415983          	lhu	s3,452(sp)

0000000080009eb8 <i_9801>:
    80009eb8:	00b5c263          	blt	a1,a1,80009ebc <i_9802>

0000000080009ebc <i_9802>:
    80009ebc:	eda11583          	lh	a1,-294(sp)

0000000080009ec0 <i_9803>:
    80009ec0:	00b00d13          	li	s10,11

0000000080009ec4 <i_9804>:
    80009ec4:	41a9d63b          	sraw	a2,s3,s10

0000000080009ec8 <i_9805>:
    80009ec8:	13013203          	ld	tp,304(sp)

0000000080009ecc <i_9806>:
    80009ecc:	10013303          	ld	t1,256(sp)

0000000080009ed0 <i_9807>:
    80009ed0:	f4411483          	lh	s1,-188(sp)

0000000080009ed4 <i_9808>:
    80009ed4:	12413423          	sd	tp,296(sp)

0000000080009ed8 <i_9809>:
    80009ed8:	1a910e23          	sb	s1,444(sp)

0000000080009edc <i_9810>:
    80009edc:	0ea82213          	slti	tp,a6,234

0000000080009ee0 <i_9811>:
    80009ee0:	00000013          	nop

0000000080009ee4 <i_9812>:
    80009ee4:	81f00493          	li	s1,-2017

0000000080009ee8 <i_9813>:
    80009ee8:	82a00813          	li	a6,-2006

0000000080009eec <i_9814>:
    80009eec:	fa411823          	sh	tp,-80(sp)

0000000080009ef0 <i_9815>:
    80009ef0:	01a00f13          	li	t5,26

0000000080009ef4 <i_9816>:
    80009ef4:	41e2523b          	sraw	tp,tp,t5

0000000080009ef8 <i_9817>:
    80009ef8:	03e48bb3          	mul	s7,s1,t5

0000000080009efc <i_9818>:
    80009efc:	00148493          	addi	s1,s1,1
    80009f00:	ff04c6e3          	blt	s1,a6,80009eec <i_9814>

0000000080009f04 <i_9819>:
    80009f04:	02925063          	ble	s1,tp,80009f24 <i_9827>

0000000080009f08 <i_9820>:
    80009f08:	00e00b93          	li	s7,14

0000000080009f0c <i_9821>:
    80009f0c:	01781db3          	sll	s11,a6,s7

0000000080009f10 <i_9822>:
    80009f10:	02420233          	mul	tp,tp,tp

0000000080009f14 <i_9823>:
    80009f14:	017b8463          	beq	s7,s7,80009f1c <i_9825>

0000000080009f18 <i_9824>:
    80009f18:	0012521b          	srliw	tp,tp,0x1

0000000080009f1c <i_9825>:
    80009f1c:	00421213          	slli	tp,tp,0x4

0000000080009f20 <i_9826>:
    80009f20:	f6410023          	sb	tp,-160(sp)

0000000080009f24 <i_9827>:
    80009f24:	e3c15b03          	lhu	s6,-452(sp)

0000000080009f28 <i_9828>:
    80009f28:	004a7c63          	bleu	tp,s4,80009f40 <i_9834>

0000000080009f2c <i_9829>:
    80009f2c:	bb8b3213          	sltiu	tp,s6,-1096

0000000080009f30 <i_9830>:
    80009f30:	403b5193          	srai	gp,s6,0x3

0000000080009f34 <i_9831>:
    80009f34:	1b610c23          	sb	s6,440(sp)

0000000080009f38 <i_9832>:
    80009f38:	0045e863          	bltu	a1,tp,80009f48 <i_9836>

0000000080009f3c <i_9833>:
    80009f3c:	ec510203          	lb	tp,-315(sp)

0000000080009f40 <i_9834>:
    80009f40:	0191f5b3          	and	a1,gp,s9

0000000080009f44 <i_9835>:
    80009f44:	16312023          	sw	gp,352(sp)

0000000080009f48 <i_9836>:
    80009f48:	8cc1a213          	slti	tp,gp,-1844

0000000080009f4c <i_9837>:
    80009f4c:	13012b03          	lw	s6,304(sp)

0000000080009f50 <i_9838>:
    80009f50:	03626b33          	rem	s6,tp,s6

0000000080009f54 <i_9839>:
    80009f54:	036b61b3          	rem	gp,s6,s6

0000000080009f58 <i_9840>:
    80009f58:	1d014b03          	lbu	s6,464(sp)

0000000080009f5c <i_9841>:
    80009f5c:	eb813b03          	ld	s6,-328(sp)

0000000080009f60 <i_9842>:
    80009f60:	1c710383          	lb	t2,455(sp)

0000000080009f64 <i_9843>:
    80009f64:	04011803          	lh	a6,64(sp)

0000000080009f68 <i_9844>:
    80009f68:	010183b3          	add	t2,gp,a6

0000000080009f6c <i_9845>:
    80009f6c:	003363b3          	or	t2,t1,gp

0000000080009f70 <i_9846>:
    80009f70:	f3412a03          	lw	s4,-204(sp)

0000000080009f74 <i_9847>:
    80009f74:	e4013803          	ld	a6,-448(sp)

0000000080009f78 <i_9848>:
    80009f78:	fd611f23          	sh	s6,-34(sp)

0000000080009f7c <i_9849>:
    80009f7c:	1d416a03          	lwu	s4,468(sp)

0000000080009f80 <i_9850>:
    80009f80:	03011503          	lh	a0,48(sp)

0000000080009f84 <i_9851>:
    80009f84:	513b0b1b          	addiw	s6,s6,1299

0000000080009f88 <i_9852>:
    80009f88:	03652b33          	mulhsu	s6,a0,s6

0000000080009f8c <i_9853>:
    80009f8c:	04014b03          	lbu	s6,64(sp)

0000000080009f90 <i_9854>:
    80009f90:	036101a3          	sb	s6,35(sp)

0000000080009f94 <i_9855>:
    80009f94:	f7813683          	ld	a3,-136(sp)

0000000080009f98 <i_9856>:
    80009f98:	00165d9b          	srliw	s11,a2,0x1

0000000080009f9c <i_9857>:
    80009f9c:	034b5a3b          	divuw	s4,s6,s4

0000000080009fa0 <i_9858>:
    80009fa0:	e7013203          	ld	tp,-400(sp)

0000000080009fa4 <i_9859>:
    80009fa4:	036d9263          	bne	s11,s6,80009fc8 <i_9868>

0000000080009fa8 <i_9860>:
    80009fa8:	19a11d03          	lh	s10,410(sp)

0000000080009fac <i_9861>:
    80009fac:	0377d263          	ble	s7,a5,80009fd0 <i_9870>

0000000080009fb0 <i_9862>:
    80009fb0:	001a5b13          	srli	s6,s4,0x1

0000000080009fb4 <i_9863>:
    80009fb4:	10415483          	lhu	s1,260(sp)

0000000080009fb8 <i_9864>:
    80009fb8:	f4f11f23          	sh	a5,-162(sp)

0000000080009fbc <i_9865>:
    80009fbc:	02fb77bb          	remuw	a5,s6,a5

0000000080009fc0 <i_9866>:
    80009fc0:	0ef12423          	sw	a5,232(sp)

0000000080009fc4 <i_9867>:
    80009fc4:	00000013          	nop

0000000080009fc8 <i_9868>:
    80009fc8:	ee111723          	sh	ra,-274(sp)

0000000080009fcc <i_9869>:
    80009fcc:	00012b03          	lw	s6,0(sp)

0000000080009fd0 <i_9870>:
    80009fd0:	016182b3          	add	t0,gp,s6

0000000080009fd4 <i_9871>:
    80009fd4:	e4510023          	sb	t0,-448(sp)

0000000080009fd8 <i_9872>:
    80009fd8:	87100093          	li	ra,-1935

0000000080009fdc <i_9873>:
    80009fdc:	87700793          	li	a5,-1929

0000000080009fe0 <i_9874>:
    80009fe0:	00000013          	nop

0000000080009fe4 <i_9875>:
    80009fe4:	02211503          	lh	a0,34(sp)

0000000080009fe8 <i_9876>:
    80009fe8:	f2b14c83          	lbu	s9,-213(sp)

0000000080009fec <i_9877>:
    80009fec:	f6215503          	lhu	a0,-158(sp)

0000000080009ff0 <i_9878>:
    80009ff0:	e1e10e23          	sb	t5,-484(sp)

0000000080009ff4 <i_9879>:
    80009ff4:	00108093          	addi	ra,ra,1
    80009ff8:	fef0c4e3          	blt	ra,a5,80009fe0 <i_9874>

0000000080009ffc <i_9880>:
    80009ffc:	4037db93          	srai	s7,a5,0x3

000000008000a000 <i_9881>:
    8000a000:	004c929b          	slliw	t0,s9,0x4

000000008000a004 <i_9882>:
    8000a004:	fdb14183          	lbu	gp,-37(sp)

000000008000a008 <i_9883>:
    8000a008:	0fb14083          	lbu	ra,251(sp)

000000008000a00c <i_9884>:
    8000a00c:	02f08f3b          	mulw	t5,ra,a5

000000008000a010 <i_9885>:
    8000a010:	f9810a83          	lb	s5,-104(sp)

000000008000a014 <i_9886>:
    8000a014:	03553cb3          	mulhu	s9,a0,s5

000000008000a018 <i_9887>:
    8000a018:	4194053b          	subw	a0,s0,s9

000000008000a01c <i_9888>:
    8000a01c:	00af2533          	slt	a0,t5,a0

000000008000a020 <i_9889>:
    8000a020:	b918081b          	addiw	a6,a6,-1135

000000008000a024 <i_9890>:
    8000a024:	02aaf263          	bleu	a0,s5,8000a048 <i_9899>

000000008000a028 <i_9891>:
    8000a028:	f1813a83          	ld	s5,-232(sp)

000000008000a02c <i_9892>:
    8000a02c:	00100813          	li	a6,1

000000008000a030 <i_9893>:
    8000a030:	410ad533          	sra	a0,s5,a6

000000008000a034 <i_9894>:
    8000a034:	01400a93          	li	s5,20

000000008000a038 <i_9895>:
    8000a038:	415555b3          	sra	a1,a0,s5

000000008000a03c <i_9896>:
    8000a03c:	02a5853b          	mulw	a0,a1,a0

000000008000a040 <i_9897>:
    8000a040:	0f013823          	sd	a6,240(sp)

000000008000a044 <i_9898>:
    8000a044:	03e14f3b          	divw	t5,sp,t5

000000008000a048 <i_9899>:
    8000a048:	03e11623          	sh	t5,44(sp)

000000008000a04c <i_9900>:
    8000a04c:	0c815283          	lhu	t0,200(sp)

000000008000a050 <i_9901>:
    8000a050:	ef013023          	sd	a6,-288(sp)

000000008000a054 <i_9902>:
    8000a054:	0b013423          	sd	a6,168(sp)

000000008000a058 <i_9903>:
    8000a058:	0048581b          	srliw	a6,a6,0x4

000000008000a05c <i_9904>:
    8000a05c:	030282b3          	mul	t0,t0,a6

000000008000a060 <i_9905>:
    8000a060:	025f2a33          	mulhsu	s4,t5,t0

000000008000a064 <i_9906>:
    8000a064:	402a5e9b          	sraiw	t4,s4,0x2

000000008000a068 <i_9907>:
    8000a068:	f8112823          	sw	ra,-112(sp)

000000008000a06c <i_9908>:
    8000a06c:	01e2ee63          	bltu	t0,t5,8000a088 <i_9915>

000000008000a070 <i_9909>:
    8000a070:	03e88263          	beq	a7,t5,8000a094 <i_9918>

000000008000a074 <i_9910>:
    8000a074:	56a80f13          	addi	t5,a6,1386

000000008000a078 <i_9911>:
    8000a078:	1b810c03          	lb	s8,440(sp)

000000008000a07c <i_9912>:
    8000a07c:	03911223          	sh	s9,36(sp)

000000008000a080 <i_9913>:
    8000a080:	1d9100a3          	sb	s9,449(sp)

000000008000a084 <i_9914>:
    8000a084:	e9e10823          	sb	t5,-368(sp)

000000008000a088 <i_9915>:
    8000a088:	00000013          	nop

000000008000a08c <i_9916>:
    8000a08c:	f5811a03          	lh	s4,-168(sp)

000000008000a090 <i_9917>:
    8000a090:	0992031b          	addiw	t1,tp,153

000000008000a094 <i_9918>:
    8000a094:	0a016603          	lwu	a2,160(sp)

000000008000a098 <i_9919>:
    8000a098:	1a412a23          	sw	tp,436(sp)

000000008000a09c <i_9920>:
    8000a09c:	75500c93          	li	s9,1877

000000008000a0a0 <i_9921>:
    8000a0a0:	75c00f13          	li	t5,1884

000000008000a0a4 <i_9922>:
    8000a0a4:	001c8c93          	addi	s9,s9,1
    8000a0a8:	ffeceee3          	bltu	s9,t5,8000a0a4 <i_9922>

000000008000a0ac <i_9923>:
    8000a0ac:	c5fcf517          	auipc	a0,0xc5fcf

000000008000a0b0 <i_9924>:
    8000a0b0:	fbd12023          	sw	t4,-96(sp)

000000008000a0b4 <i_9925>:
    8000a0b4:	00c387b3          	add	a5,t2,a2

000000008000a0b8 <i_9926>:
    8000a0b8:	0c813503          	ld	a0,200(sp)

000000008000a0bc <i_9927>:
    8000a0bc:	1a412e83          	lw	t4,420(sp)

000000008000a0c0 <i_9928>:
    8000a0c0:	01d00a93          	li	s5,29

000000008000a0c4 <i_9929>:
    8000a0c4:	015a533b          	srlw	t1,s4,s5

000000008000a0c8 <i_9930>:
    8000a0c8:	e5011f03          	lh	t5,-432(sp)

000000008000a0cc <i_9931>:
    8000a0cc:	03ea8263          	beq	s5,t5,8000a0f0 <i_9940>

000000008000a0d0 <i_9932>:
    8000a0d0:	1c411483          	lh	s1,452(sp)

000000008000a0d4 <i_9933>:
    8000a0d4:	02341533          	mulh	a0,s0,gp

000000008000a0d8 <i_9934>:
    8000a0d8:	02ff1a33          	mulh	s4,t5,a5

000000008000a0dc <i_9935>:
    8000a0dc:	02910ca3          	sb	s1,57(sp)

000000008000a0e0 <i_9936>:
    8000a0e0:	01833db3          	sltu	s11,t1,s8

000000008000a0e4 <i_9937>:
    8000a0e4:	034f5f33          	divu	t5,t5,s4

000000008000a0e8 <i_9938>:
    8000a0e8:	03800c93          	li	s9,56

000000008000a0ec <i_9939>:
    8000a0ec:	419e5633          	sra	a2,t3,s9

000000008000a0f0 <i_9940>:
    8000a0f0:	27083f37          	lui	t5,0x27083

000000008000a0f4 <i_9941>:
    8000a0f4:	00a76533          	or	a0,a4,a0

000000008000a0f8 <i_9942>:
    8000a0f8:	08c10f23          	sb	a2,158(sp)

000000008000a0fc <i_9943>:
    8000a0fc:	19814603          	lbu	a2,408(sp)

000000008000a100 <i_9944>:
    8000a100:	416f0ebb          	subw	t4,t5,s6

000000008000a104 <i_9945>:
    8000a104:	03d60463          	beq	a2,t4,8000a12c <i_9955>

000000008000a108 <i_9946>:
    8000a108:	00c60e63          	beq	a2,a2,8000a124 <i_9953>

000000008000a10c <i_9947>:
    8000a10c:	17e12a23          	sw	t5,372(sp)

000000008000a110 <i_9948>:
    8000a110:	1c016e03          	lwu	t3,448(sp)

000000008000a114 <i_9949>:
    8000a114:	832f3f13          	sltiu	t5,t5,-1998

000000008000a118 <i_9950>:
    8000a118:	1dd11d23          	sh	t4,474(sp)

000000008000a11c <i_9951>:
    8000a11c:	01eed863          	ble	t5,t4,8000a12c <i_9955>

000000008000a120 <i_9952>:
    8000a120:	12f10923          	sb	a5,306(sp)

000000008000a124 <i_9953>:
    8000a124:	f4c11923          	sh	a2,-174(sp)

000000008000a128 <i_9954>:
    8000a128:	a5164693          	xori	a3,a2,-1455

000000008000a12c <i_9955>:
    8000a12c:	00cef663          	bleu	a2,t4,8000a138 <i_9958>

000000008000a130 <i_9956>:
    8000a130:	ce18061b          	addiw	a2,a6,-799

000000008000a134 <i_9957>:
    8000a134:	f2a10a83          	lb	s5,-214(sp)

000000008000a138 <i_9958>:
    8000a138:	f0013603          	ld	a2,-256(sp)

000000008000a13c <i_9959>:
    8000a13c:	ea815283          	lhu	t0,-344(sp)

000000008000a140 <i_9960>:
    8000a140:	e4816683          	lwu	a3,-440(sp)

000000008000a144 <i_9961>:
    8000a144:	fb416e83          	lwu	t4,-76(sp)

000000008000a148 <i_9962>:
    8000a148:	7d700613          	li	a2,2007

000000008000a14c <i_9963>:
    8000a14c:	7da00c13          	li	s8,2010

000000008000a150 <i_9964>:
    8000a150:	02d6f463          	bleu	a3,a3,8000a178 <i_9974>

000000008000a154 <i_9965>:
    8000a154:	e7c16683          	lwu	a3,-388(sp)

000000008000a158 <i_9966>:
    8000a158:	834ea793          	slti	a5,t4,-1996

000000008000a15c <i_9967>:
    8000a15c:	bb0ea793          	slti	a5,t4,-1104

000000008000a160 <i_9968>:
    8000a160:	00400293          	li	t0,4

000000008000a164 <i_9969>:
    8000a164:	005695bb          	sllw	a1,a3,t0

000000008000a168 <i_9970>:
    8000a168:	00f5f463          	bleu	a5,a1,8000a170 <i_9972>

000000008000a16c <i_9971>:
    8000a16c:	00f7da63          	ble	a5,a5,8000a180 <i_9976>

000000008000a170 <i_9972>:
    8000a170:	00f00d93          	li	s11,15

000000008000a174 <i_9973>:
    8000a174:	01b2d43b          	srlw	s0,t0,s11

000000008000a178 <i_9974>:
    8000a178:	f5b13c23          	sd	s11,-168(sp)

000000008000a17c <i_9975>:
    8000a17c:	0027b493          	sltiu	s1,a5,2

000000008000a180 <i_9976>:
    8000a180:	0af14e03          	lbu	t3,175(sp)

000000008000a184 <i_9977>:
    8000a184:	00714e03          	lbu	t3,7(sp)

000000008000a188 <i_9978>:
    8000a188:	ec813f03          	ld	t5,-312(sp)

000000008000a18c <i_9979>:
    8000a18c:	0257f063          	bleu	t0,a5,8000a1ac <i_9986>

000000008000a190 <i_9980>:
    8000a190:	00160613          	addi	a2,a2,1
    8000a194:	fb866ee3          	bltu	a2,s8,8000a150 <i_9964>

000000008000a198 <i_9981>:
    8000a198:	0036519b          	srliw	gp,a2,0x3

000000008000a19c <i_9982>:
    8000a19c:	02f2f7bb          	remuw	a5,t0,a5

000000008000a1a0 <i_9983>:
    8000a1a0:	efd100a3          	sb	t4,-287(sp)

000000008000a1a4 <i_9984>:
    8000a1a4:	eba11a83          	lh	s5,-326(sp)

000000008000a1a8 <i_9985>:
    8000a1a8:	00000013          	nop

000000008000a1ac <i_9986>:
    8000a1ac:	00f47433          	and	s0,s0,a5

000000008000a1b0 <i_9987>:
    8000a1b0:	04c12c03          	lw	s8,76(sp)

000000008000a1b4 <i_9988>:
    8000a1b4:	88f00093          	li	ra,-1905

000000008000a1b8 <i_9989>:
    8000a1b8:	89a00293          	li	t0,-1894

000000008000a1bc <i_9990>:
    8000a1bc:	038ae063          	bltu	s5,s8,8000a1dc <i_9998>

000000008000a1c0 <i_9991>:
    8000a1c0:	038c6c33          	rem	s8,s8,s8

000000008000a1c4 <i_9992>:
    8000a1c4:	fb810423          	sb	s8,-88(sp)

000000008000a1c8 <i_9993>:
    8000a1c8:	0047d693          	srli	a3,a5,0x4

000000008000a1cc <i_9994>:
    8000a1cc:	00000013          	nop

000000008000a1d0 <i_9995>:
    8000a1d0:	eb416b83          	lwu	s7,-332(sp)

000000008000a1d4 <i_9996>:
    8000a1d4:	0186fc33          	and	s8,a3,s8

000000008000a1d8 <i_9997>:
    8000a1d8:	00000013          	nop

000000008000a1dc <i_9998>:
    8000a1dc:	00000013          	nop

000000008000a1e0 <i_9999>:
    8000a1e0:	00000013          	nop

000000008000a1e4 <i_10000>:
    8000a1e4:	00108093          	addi	ra,ra,1
    8000a1e8:	fc50eae3          	bltu	ra,t0,8000a1bc <i_9990>

000000008000a1ec <i_10001>:
    8000a1ec:	025f6263          	bltu	t5,t0,8000a210 <i_10010>

000000008000a1f0 <i_10002>:
    8000a1f0:	07d42a37          	lui	s4,0x7d42

000000008000a1f4 <i_10003>:
    8000a1f4:	01200393          	li	t2,18

000000008000a1f8 <i_10004>:
    8000a1f8:	0076d3bb          	srlw	t2,a3,t2

000000008000a1fc <i_10005>:
    8000a1fc:	02d91063          	bne	s2,a3,8000a21c <i_10013>

000000008000a200 <i_10006>:
    8000a200:	ea214d83          	lbu	s11,-350(sp)

000000008000a204 <i_10007>:
    8000a204:	41b10dbb          	subw	s11,sp,s11

000000008000a208 <i_10008>:
    8000a208:	00000013          	nop

000000008000a20c <i_10009>:
    8000a20c:	01c62c33          	slt	s8,a2,t3

000000008000a210 <i_10010>:
    8000a210:	01ce4e33          	xor	t3,t3,t3

000000008000a214 <i_10011>:
    8000a214:	1c913c23          	sd	s1,472(sp)

000000008000a218 <i_10012>:
    8000a218:	0018d593          	srli	a1,a7,0x1

000000008000a21c <i_10013>:
    8000a21c:	06a11b03          	lh	s6,106(sp)

000000008000a220 <i_10014>:
    8000a220:	12514a03          	lbu	s4,293(sp)

000000008000a224 <i_10015>:
    8000a224:	73000693          	li	a3,1840

000000008000a228 <i_10016>:
    8000a228:	74300613          	li	a2,1859

000000008000a22c <i_10017>:
    8000a22c:	00168693          	addi	a3,a3,1
    8000a230:	fed61ee3          	bne	a2,a3,8000a22c <i_10017>

000000008000a234 <i_10018>:
    8000a234:	014b6c63          	bltu	s6,s4,8000a24c <i_10024>

000000008000a238 <i_10019>:
    8000a238:	17f14a03          	lbu	s4,383(sp)

000000008000a23c <i_10020>:
    8000a23c:	02ba05bb          	mulw	a1,s4,a1

000000008000a240 <i_10021>:
    8000a240:	02858433          	mul	s0,a1,s0

000000008000a244 <i_10022>:
    8000a244:	012aee63          	bltu	s5,s2,8000a260 <i_10029>

000000008000a248 <i_10023>:
    8000a248:	025b0bbb          	mulw	s7,s6,t0

000000008000a24c <i_10024>:
    8000a24c:	0012929b          	slliw	t0,t0,0x1

000000008000a250 <i_10025>:
    8000a250:	028ec2bb          	divw	t0,t4,s0

000000008000a254 <i_10026>:
    8000a254:	ef416f03          	lwu	t5,-268(sp)

000000008000a258 <i_10027>:
    8000a258:	0fe12623          	sw	t5,236(sp)

000000008000a25c <i_10028>:
    8000a25c:	e8013283          	ld	t0,-384(sp)

000000008000a260 <i_10029>:
    8000a260:	03e11a23          	sh	t5,52(sp)

000000008000a264 <i_10030>:
    8000a264:	1b813e83          	ld	t4,440(sp)

000000008000a268 <i_10031>:
    8000a268:	e7215403          	lhu	s0,-398(sp)

000000008000a26c <i_10032>:
    8000a26c:	02940633          	mul	a2,s0,s1

000000008000a270 <i_10033>:
    8000a270:	f5713c23          	sd	s7,-168(sp)

000000008000a274 <i_10034>:
    8000a274:	f3612623          	sw	s6,-212(sp)

000000008000a278 <i_10035>:
    8000a278:	f3d13c23          	sd	t4,-200(sp)

000000008000a27c <i_10036>:
    8000a27c:	e9d13023          	sd	t4,-384(sp)

000000008000a280 <i_10037>:
    8000a280:	02c16063          	bltu	sp,a2,8000a2a0 <i_10045>

000000008000a284 <i_10038>:
    8000a284:	40445993          	srai	s3,s0,0x4

000000008000a288 <i_10039>:
    8000a288:	033ef463          	bleu	s3,t4,8000a2b0 <i_10049>

000000008000a28c <i_10040>:
    8000a28c:	e5c15603          	lhu	a2,-420(sp)

000000008000a290 <i_10041>:
    8000a290:	02c44433          	div	s0,s0,a2

000000008000a294 <i_10042>:
    8000a294:	f4c11723          	sh	a2,-178(sp)

000000008000a298 <i_10043>:
    8000a298:	40140533          	sub	a0,s0,ra

000000008000a29c <i_10044>:
    8000a29c:	02c39063          	bne	t2,a2,8000a2bc <i_10052>

000000008000a2a0 <i_10045>:
    8000a2a0:	73946a93          	ori	s5,s0,1849

000000008000a2a4 <i_10046>:
    8000a2a4:	01164263          	blt	a2,a7,8000a2a8 <i_10047>

000000008000a2a8 <i_10047>:
    8000a2a8:	e3311023          	sh	s3,-480(sp)

000000008000a2ac <i_10048>:
    8000a2ac:	12c13423          	sd	a2,296(sp)

000000008000a2b0 <i_10049>:
    8000a2b0:	e9311723          	sh	s3,-370(sp)

000000008000a2b4 <i_10050>:
    8000a2b4:	16813423          	sd	s0,360(sp)

000000008000a2b8 <i_10051>:
    8000a2b8:	00813823          	sd	s0,16(sp)

000000008000a2bc <i_10052>:
    8000a2bc:	08013683          	ld	a3,128(sp)

000000008000a2c0 <i_10053>:
    8000a2c0:	00d54ab3          	xor	s5,a0,a3

000000008000a2c4 <i_10054>:
    8000a2c4:	02016083          	lwu	ra,32(sp)

000000008000a2c8 <i_10055>:
    8000a2c8:	00000013          	nop

000000008000a2cc <i_10056>:
    8000a2cc:	7d800213          	li	tp,2008

000000008000a2d0 <i_10057>:
    8000a2d0:	7df00593          	li	a1,2015

000000008000a2d4 <i_10058>:
    8000a2d4:	02145463          	ble	ra,s0,8000a2fc <i_10067>

000000008000a2d8 <i_10059>:
    8000a2d8:	fec11623          	sh	a2,-20(sp)

000000008000a2dc <i_10060>:
    8000a2dc:	01d00a13          	li	s4,29

000000008000a2e0 <i_10061>:
    8000a2e0:	4145d633          	sra	a2,a1,s4

000000008000a2e4 <i_10062>:
    8000a2e4:	13815683          	lhu	a3,312(sp)

000000008000a2e8 <i_10063>:
    8000a2e8:	01343ab3          	sltu	s5,s0,s3

000000008000a2ec <i_10064>:
    8000a2ec:	00120213          	addi	tp,tp,1 # 51420b7d <main-0x2ebdf483>
    8000a2f0:	feb242e3          	blt	tp,a1,8000a2d4 <i_10058>

000000008000a2f4 <i_10065>:
    8000a2f4:	002a9f1b          	slliw	t5,s5,0x2

000000008000a2f8 <i_10066>:
    8000a2f8:	10d11023          	sh	a3,256(sp)

000000008000a2fc <i_10067>:
    8000a2fc:	01200813          	li	a6,18

000000008000a300 <i_10068>:
    8000a300:	010ad83b          	srlw	a6,s5,a6

000000008000a304 <i_10069>:
    8000a304:	6b6d5e17          	auipc	t3,0x6b6d5

000000008000a308 <i_10070>:
    8000a308:	e7e11a03          	lh	s4,-386(sp)

000000008000a30c <i_10071>:
    8000a30c:	00114b03          	lbu	s6,1(sp)

000000008000a310 <i_10072>:
    8000a310:	0da10583          	lb	a1,218(sp)

000000008000a314 <i_10073>:
    8000a314:	fa210d03          	lb	s10,-94(sp)

000000008000a318 <i_10074>:
    8000a318:	13415a03          	lhu	s4,308(sp)

000000008000a31c <i_10075>:
    8000a31c:	014d5c63          	ble	s4,s10,8000a334 <i_10081>

000000008000a320 <i_10076>:
    8000a320:	f3813d83          	ld	s11,-200(sp)

000000008000a324 <i_10077>:
    8000a324:	aeca2a13          	slti	s4,s4,-1300

000000008000a328 <i_10078>:
    8000a328:	014de863          	bltu	s11,s4,8000a338 <i_10082>

000000008000a32c <i_10079>:
    8000a32c:	70aa7d93          	andi	s11,s4,1802

000000008000a330 <i_10080>:
    8000a330:	514e1a17          	auipc	s4,0x514e1

000000008000a334 <i_10081>:
    8000a334:	0d410a23          	sb	s4,212(sp)

000000008000a338 <i_10082>:
    8000a338:	00600a13          	li	s4,6

000000008000a33c <i_10083>:
    8000a33c:	0140d83b          	srlw	a6,ra,s4

000000008000a340 <i_10084>:
    8000a340:	e3411c23          	sh	s4,-456(sp)

000000008000a344 <i_10085>:
    8000a344:	1a411a03          	lh	s4,420(sp)

000000008000a348 <i_10086>:
    8000a348:	004dd613          	srli	a2,s11,0x4

000000008000a34c <i_10087>:
    8000a34c:	01ba6a63          	bltu	s4,s11,8000a360 <i_10092>

000000008000a350 <i_10088>:
    8000a350:	017a7cb3          	and	s9,s4,s7

000000008000a354 <i_10089>:
    8000a354:	02600193          	li	gp,38

000000008000a358 <i_10090>:
    8000a358:	003ddd33          	srl	s10,s11,gp

000000008000a35c <i_10091>:
    8000a35c:	010bd463          	ble	a6,s7,8000a364 <i_10093>

000000008000a360 <i_10092>:
    8000a360:	2e6a8813          	addi	a6,s5,742 # 8989d96 <main-0x7767626a>

000000008000a364 <i_10093>:
    8000a364:	fb9103a3          	sb	s9,-89(sp)

000000008000a368 <i_10094>:
    8000a368:	01aa7cb3          	and	s9,s4,s10

000000008000a36c <i_10095>:
    8000a36c:	1d016a83          	lwu	s5,464(sp)

000000008000a370 <i_10096>:
    8000a370:	0fb13c23          	sd	s11,248(sp)

000000008000a374 <i_10097>:
    8000a374:	0ec12783          	lw	a5,236(sp)

000000008000a378 <i_10098>:
    8000a378:	e3a11a23          	sh	s10,-460(sp)

000000008000a37c <i_10099>:
    8000a37c:	f3c16303          	lwu	t1,-196(sp)

000000008000a380 <i_10100>:
    8000a380:	16e11203          	lh	tp,366(sp)

000000008000a384 <i_10101>:
    8000a384:	e3a12a23          	sw	s10,-460(sp)

000000008000a388 <i_10102>:
    8000a388:	83d00593          	li	a1,-1987

000000008000a38c <i_10103>:
    8000a38c:	84600513          	li	a0,-1978

000000008000a390 <i_10104>:
    8000a390:	13813183          	ld	gp,312(sp)

000000008000a394 <i_10105>:
    8000a394:	40b18abb          	subw	s5,gp,a1

000000008000a398 <i_10106>:
    8000a398:	01257263          	bleu	s2,a0,8000a39c <i_10107>

000000008000a39c <i_10107>:
    8000a39c:	1b614203          	lbu	tp,438(sp)

000000008000a3a0 <i_10108>:
    8000a3a0:	00000013          	nop

000000008000a3a4 <i_10109>:
    8000a3a4:	1a215d83          	lhu	s11,418(sp)

000000008000a3a8 <i_10110>:
    8000a3a8:	00158593          	addi	a1,a1,1
    8000a3ac:	fea592e3          	bne	a1,a0,8000a390 <i_10104>

000000008000a3b0 <i_10111>:
    8000a3b0:	f2313423          	sd	gp,-216(sp)

000000008000a3b4 <i_10112>:
    8000a3b4:	f5c12503          	lw	a0,-164(sp)

000000008000a3b8 <i_10113>:
    8000a3b8:	1aa13023          	sd	a0,416(sp)

000000008000a3bc <i_10114>:
    8000a3bc:	01bc1e63          	bne	s8,s11,8000a3d8 <i_10121>

000000008000a3c0 <i_10115>:
    8000a3c0:	e2710283          	lb	t0,-473(sp)

000000008000a3c4 <i_10116>:
    8000a3c4:	e2c12a83          	lw	s5,-468(sp)

000000008000a3c8 <i_10117>:
    8000a3c8:	0aa10c03          	lb	s8,170(sp)

000000008000a3cc <i_10118>:
    8000a3cc:	0012d093          	srli	ra,t0,0x1

000000008000a3d0 <i_10119>:
    8000a3d0:	ec012d03          	lw	s10,-320(sp)

000000008000a3d4 <i_10120>:
    8000a3d4:	01112c23          	sw	a7,24(sp)

000000008000a3d8 <i_10121>:
    8000a3d8:	00138263          	beq	t2,ra,8000a3dc <i_10122>

000000008000a3dc <i_10122>:
    8000a3dc:	01a082b3          	add	t0,ra,s10

000000008000a3e0 <i_10123>:
    8000a3e0:	17012c03          	lw	s8,368(sp)

000000008000a3e4 <i_10124>:
    8000a3e4:	88000d13          	li	s10,-1920

000000008000a3e8 <i_10125>:
    8000a3e8:	88500b93          	li	s7,-1915

000000008000a3ec <i_10126>:
    8000a3ec:	001d0d13          	addi	s10,s10,1
    8000a3f0:	ffab9ee3          	bne	s7,s10,8000a3ec <i_10126>

000000008000a3f4 <i_10127>:
    8000a3f4:	03b09263          	bne	ra,s11,8000a418 <i_10136>

000000008000a3f8 <i_10128>:
    8000a3f8:	05b13823          	sd	s11,80(sp)

000000008000a3fc <i_10129>:
    8000a3fc:	e5913c23          	sd	s9,-424(sp)

000000008000a400 <i_10130>:
    8000a400:	001d6c63          	bltu	s10,ra,8000a418 <i_10136>

000000008000a404 <i_10131>:
    8000a404:	e3615c83          	lhu	s9,-458(sp)

000000008000a408 <i_10132>:
    8000a408:	037c8463          	beq	s9,s7,8000a430 <i_10142>

000000008000a40c <i_10133>:
    8000a40c:	019b4663          	blt	s6,s9,8000a418 <i_10136>

000000008000a410 <i_10134>:
    8000a410:	f1912823          	sw	s9,-240(sp)

000000008000a414 <i_10135>:
    8000a414:	f2813083          	ld	ra,-216(sp)

000000008000a418 <i_10136>:
    8000a418:	001cd663          	ble	ra,s9,8000a424 <i_10139>

000000008000a41c <i_10137>:
    8000a41c:	019cd663          	ble	s9,s9,8000a428 <i_10140>

000000008000a420 <i_10138>:
    8000a420:	2ee17cb7          	lui	s9,0x2ee17

000000008000a424 <i_10139>:
    8000a424:	fde11603          	lh	a2,-34(sp)

000000008000a428 <i_10140>:
    8000a428:	0197f663          	bleu	s9,a5,8000a434 <i_10143>

000000008000a42c <i_10141>:
    8000a42c:	fdb14c83          	lbu	s9,-37(sp)

000000008000a430 <i_10142>:
    8000a430:	001082b3          	add	t0,ra,ra

000000008000a434 <i_10143>:
    8000a434:	02c0c533          	div	a0,ra,a2

000000008000a438 <i_10144>:
    8000a438:	03951063          	bne	a0,s9,8000a458 <i_10152>

000000008000a43c <i_10145>:
    8000a43c:	40a28d3b          	subw	s10,t0,a0

000000008000a440 <i_10146>:
    8000a440:	00128863          	beq	t0,ra,8000a450 <i_10150>

000000008000a444 <i_10147>:
    8000a444:	001d1d1b          	slliw	s10,s10,0x1

000000008000a448 <i_10148>:
    8000a448:	0250aab3          	mulhsu	s5,ra,t0

000000008000a44c <i_10149>:
    8000a44c:	f5e14403          	lbu	s0,-162(sp)

000000008000a450 <i_10150>:
    8000a450:	00000013          	nop

000000008000a454 <i_10151>:
    8000a454:	00800d13          	li	s10,8

000000008000a458 <i_10152>:
    8000a458:	41acdd33          	sra	s10,s9,s10

000000008000a45c <i_10153>:
    8000a45c:	00000013          	nop

000000008000a460 <i_10154>:
    8000a460:	83f00413          	li	s0,-1985

000000008000a464 <i_10155>:
    8000a464:	85000493          	li	s1,-1968

000000008000a468 <i_10156>:
    8000a468:	1d410183          	lb	gp,468(sp)

000000008000a46c <i_10157>:
    8000a46c:	00140413          	addi	s0,s0,1
    8000a470:	fe946ce3          	bltu	s0,s1,8000a468 <i_10156>

000000008000a474 <i_10158>:
    8000a474:	f5013403          	ld	s0,-176(sp)

000000008000a478 <i_10159>:
    8000a478:	02a4f063          	bleu	a0,s1,8000a498 <i_10167>

000000008000a47c <i_10160>:
    8000a47c:	009d6863          	bltu	s10,s1,8000a48c <i_10164>

000000008000a480 <i_10161>:
    8000a480:	fbc15603          	lhu	a2,-68(sp)

000000008000a484 <i_10162>:
    8000a484:	00a9da63          	ble	a0,s3,8000a498 <i_10167>

000000008000a488 <i_10163>:
    8000a488:	f8311023          	sh	gp,-128(sp)

000000008000a48c <i_10164>:
    8000a48c:	0c813283          	ld	t0,200(sp)

000000008000a490 <i_10165>:
    8000a490:	019620b3          	slt	ra,a2,s9

000000008000a494 <i_10166>:
    8000a494:	e8016583          	lwu	a1,-384(sp)

000000008000a498 <i_10167>:
    8000a498:	16a11923          	sh	a0,370(sp)

000000008000a49c <i_10168>:
    8000a49c:	f0c12c23          	sw	a2,-232(sp)

000000008000a4a0 <i_10169>:
    8000a4a0:	03416b03          	lwu	s6,52(sp)

000000008000a4a4 <i_10170>:
    8000a4a4:	40e180bb          	subw	ra,gp,a4

000000008000a4a8 <i_10171>:
    8000a4a8:	4012db9b          	sraiw	s7,t0,0x1

000000008000a4ac <i_10172>:
    8000a4ac:	e1a15a83          	lhu	s5,-486(sp)

000000008000a4b0 <i_10173>:
    8000a4b0:	12e11603          	lh	a2,302(sp)

000000008000a4b4 <i_10174>:
    8000a4b4:	001d1d9b          	slliw	s11,s10,0x1

000000008000a4b8 <i_10175>:
    8000a4b8:	03a49463          	bne	s1,s10,8000a4e0 <i_10185>

000000008000a4bc <i_10176>:
    8000a4bc:	00850a33          	add	s4,a0,s0

000000008000a4c0 <i_10177>:
    8000a4c0:	272464b7          	lui	s1,0x27246

000000008000a4c4 <i_10178>:
    8000a4c4:	0344f263          	bleu	s4,s1,8000a4e8 <i_10187>

000000008000a4c8 <i_10179>:
    8000a4c8:	03449463          	bne	s1,s4,8000a4f0 <i_10189>

000000008000a4cc <i_10180>:
    8000a4cc:	00c11483          	lh	s1,12(sp)

000000008000a4d0 <i_10181>:
    8000a4d0:	15211a03          	lh	s4,338(sp)

000000008000a4d4 <i_10182>:
    8000a4d4:	0044da13          	srli	s4,s1,0x4

000000008000a4d8 <i_10183>:
    8000a4d8:	034dd063          	ble	s4,s11,8000a4f8 <i_10191>

000000008000a4dc <i_10184>:
    8000a4dc:	01bdd463          	ble	s11,s11,8000a4e4 <i_10186>

000000008000a4e0 <i_10185>:
    8000a4e0:	f5410223          	sb	s4,-188(sp)

000000008000a4e4 <i_10186>:
    8000a4e4:	01b71263          	bne	a4,s11,8000a4e8 <i_10187>

000000008000a4e8 <i_10187>:
    8000a4e8:	00d00d93          	li	s11,13

000000008000a4ec <i_10188>:
    8000a4ec:	01bf1dbb          	sllw	s11,t5,s11

000000008000a4f0 <i_10189>:
    8000a4f0:	0144ce63          	blt	s1,s4,8000a50c <i_10196>

000000008000a4f4 <i_10190>:
    8000a4f4:	03b11e23          	sh	s11,60(sp)

000000008000a4f8 <i_10191>:
    8000a4f8:	e5b11623          	sh	s11,-436(sp)

000000008000a4fc <i_10192>:
    8000a4fc:	2e15b4b7          	lui	s1,0x2e15b

000000008000a500 <i_10193>:
    8000a500:	01bda4b3          	slt	s1,s11,s11

000000008000a504 <i_10194>:
    8000a504:	00000013          	nop

000000008000a508 <i_10195>:
    8000a508:	00000013          	nop

000000008000a50c <i_10196>:
    8000a50c:	ee911223          	sh	s1,-284(sp)

000000008000a510 <i_10197>:
    8000a510:	038d9d33          	mulh	s10,s11,s8

000000008000a514 <i_10198>:
    8000a514:	7b200d93          	li	s11,1970

000000008000a518 <i_10199>:
    8000a518:	7c400c13          	li	s8,1988

000000008000a51c <i_10200>:
    8000a51c:	003ade93          	srli	t4,s5,0x3

000000008000a520 <i_10201>:
    8000a520:	63851497          	auipc	s1,0x63851

000000008000a524 <i_10202>:
    8000a524:	a6cb21b7          	lui	gp,0xa6cb2

000000008000a528 <i_10203>:
    8000a528:	17a12423          	sw	s10,360(sp)

000000008000a52c <i_10204>:
    8000a52c:	03bc62bb          	remw	t0,s8,s11

000000008000a530 <i_10205>:
    8000a530:	00000013          	nop

000000008000a534 <i_10206>:
    8000a534:	0381e063          	bltu	gp,s8,8000a554 <i_10213>

000000008000a538 <i_10207>:
    8000a538:	0231c1b3          	div	gp,gp,gp

000000008000a53c <i_10208>:
    8000a53c:	4042d29b          	sraiw	t0,t0,0x4

000000008000a540 <i_10209>:
    8000a540:	001d8d93          	addi	s11,s11,1
    8000a544:	fd8dece3          	bltu	s11,s8,8000a51c <i_10200>

000000008000a548 <i_10210>:
    8000a548:	fa628c13          	addi	s8,t0,-90 # ffffffffda4a8fa6 <_end+0xffffffff5a498b92>

000000008000a54c <i_10211>:
    8000a54c:	11415203          	lhu	tp,276(sp)

000000008000a550 <i_10212>:
    8000a550:	0031b1b3          	sltu	gp,gp,gp

000000008000a554 <i_10213>:
    8000a554:	20420c1b          	addiw	s8,tp,516

000000008000a558 <i_10214>:
    8000a558:	02521063          	bne	tp,t0,8000a578 <i_10222>

000000008000a55c <i_10215>:
    8000a55c:	0e512e23          	sw	t0,252(sp)

000000008000a560 <i_10216>:
    8000a560:	f1713c23          	sd	s7,-232(sp)

000000008000a564 <i_10217>:
    8000a564:	01513c23          	sd	s5,24(sp)

000000008000a568 <i_10218>:
    8000a568:	004c5a63          	ble	tp,s8,8000a57c <i_10223>

000000008000a56c <i_10219>:
    8000a56c:	02425263          	ble	tp,tp,8000a590 <i_10228>

000000008000a570 <i_10220>:
    8000a570:	018c1a63          	bne	s8,s8,8000a584 <i_10225>

000000008000a574 <i_10221>:
    8000a574:	e5016e03          	lwu	t3,-432(sp)

000000008000a578 <i_10222>:
    8000a578:	07013283          	ld	t0,112(sp)

000000008000a57c <i_10223>:
    8000a57c:	026e4c3b          	divw	s8,t3,t1

000000008000a580 <i_10224>:
    8000a580:	05c104a3          	sb	t3,73(sp)

000000008000a584 <i_10225>:
    8000a584:	005e1663          	bne	t3,t0,8000a590 <i_10228>

000000008000a588 <i_10226>:
    8000a588:	01400393          	li	t2,20

000000008000a58c <i_10227>:
    8000a58c:	007e17bb          	sllw	a5,t3,t2

000000008000a590 <i_10228>:
    8000a590:	03910e03          	lb	t3,57(sp)

000000008000a594 <i_10229>:
    8000a594:	18f11823          	sh	a5,400(sp)

000000008000a598 <i_10230>:
    8000a598:	027e2ab3          	mulhsu	s5,t3,t2

000000008000a59c <i_10231>:
    8000a59c:	0157e463          	bltu	a5,s5,8000a5a4 <i_10233>

000000008000a5a0 <i_10232>:
    8000a5a0:	001b9393          	slli	t2,s7,0x1

000000008000a5a4 <i_10233>:
    8000a5a4:	f9813383          	ld	t2,-104(sp)

000000008000a5a8 <i_10234>:
    8000a5a8:	19013383          	ld	t2,400(sp)

000000008000a5ac <i_10235>:
    8000a5ac:	eda11183          	lh	gp,-294(sp)

000000008000a5b0 <i_10236>:
    8000a5b0:	ef910b03          	lb	s6,-263(sp)

000000008000a5b4 <i_10237>:
    8000a5b4:	4013dc13          	srai	s8,t2,0x1

000000008000a5b8 <i_10238>:
    8000a5b8:	efe11283          	lh	t0,-258(sp)

000000008000a5bc <i_10239>:
    8000a5bc:	15c12483          	lw	s1,348(sp)

000000008000a5c0 <i_10240>:
    8000a5c0:	025ae263          	bltu	s5,t0,8000a5e4 <i_10249>

000000008000a5c4 <i_10241>:
    8000a5c4:	14911023          	sh	s1,320(sp)

000000008000a5c8 <i_10242>:
    8000a5c8:	0042db1b          	srliw	s6,t0,0x4

000000008000a5cc <i_10243>:
    8000a5cc:	025b6063          	bltu	s6,t0,8000a5ec <i_10251>

000000008000a5d0 <i_10244>:
    8000a5d0:	016b4863          	blt	s6,s6,8000a5e0 <i_10248>

000000008000a5d4 <i_10245>:
    8000a5d4:	f0e11283          	lh	t0,-242(sp)

000000008000a5d8 <i_10246>:
    8000a5d8:	12112023          	sw	ra,288(sp)

000000008000a5dc <i_10247>:
    8000a5dc:	03d2c2b3          	div	t0,t0,t4

000000008000a5e0 <i_10248>:
    8000a5e0:	02d2d463          	ble	a3,t0,8000a608 <i_10258>

000000008000a5e4 <i_10249>:
    8000a5e4:	0052ee63          	bltu	t0,t0,8000a600 <i_10256>

000000008000a5e8 <i_10250>:
    8000a5e8:	0e912223          	sw	s1,228(sp)

000000008000a5ec <i_10251>:
    8000a5ec:	0092ce63          	blt	t0,s1,8000a608 <i_10258>

000000008000a5f0 <i_10252>:
    8000a5f0:	0ae15203          	lhu	tp,174(sp)

000000008000a5f4 <i_10253>:
    8000a5f4:	00000013          	nop

000000008000a5f8 <i_10254>:
    8000a5f8:	00000013          	nop

000000008000a5fc <i_10255>:
    8000a5fc:	12410503          	lb	a0,292(sp)

000000008000a600 <i_10256>:
    8000a600:	4191823b          	subw	tp,gp,s9

000000008000a604 <i_10257>:
    8000a604:	fa813183          	ld	gp,-88(sp)

000000008000a608 <i_10258>:
    8000a608:	00000013          	nop

000000008000a60c <i_10259>:
    8000a60c:	f0a106a3          	sb	a0,-243(sp)

000000008000a610 <i_10260>:
    8000a610:	75400493          	li	s1,1876

000000008000a614 <i_10261>:
    8000a614:	75d00c93          	li	s9,1885

000000008000a618 <i_10262>:
    8000a618:	00000013          	nop

000000008000a61c <i_10263>:
    8000a61c:	3208d517          	auipc	a0,0x3208d

000000008000a620 <i_10264>:
    8000a620:	00148493          	addi	s1,s1,1 # e385b521 <_end+0x6384b10d>
    8000a624:	fe9cdae3          	ble	s1,s9,8000a618 <i_10262>

000000008000a628 <i_10265>:
    8000a628:	33e1cd93          	xori	s11,gp,830

000000008000a62c <i_10266>:
    8000a62c:	0f013803          	ld	a6,240(sp)

000000008000a630 <i_10267>:
    8000a630:	1d014c83          	lbu	s9,464(sp)

000000008000a634 <i_10268>:
    8000a634:	04e15203          	lhu	tp,78(sp)

000000008000a638 <i_10269>:
    8000a638:	1b816d83          	lwu	s11,440(sp)

000000008000a63c <i_10270>:
    8000a63c:	16011a03          	lh	s4,352(sp)

000000008000a640 <i_10271>:
    8000a640:	03b52833          	mulhsu	a6,a0,s11

000000008000a644 <i_10272>:
    8000a644:	a0956493          	ori	s1,a0,-1527

000000008000a648 <i_10273>:
    8000a648:	f4537f37          	lui	t5,0xf4537

000000008000a64c <i_10274>:
    8000a64c:	f6415803          	lhu	a6,-156(sp)

000000008000a650 <i_10275>:
    8000a650:	1c411483          	lh	s1,452(sp)

000000008000a654 <i_10276>:
    8000a654:	e5416203          	lwu	tp,-428(sp)

000000008000a658 <i_10277>:
    8000a658:	7ce00813          	li	a6,1998

000000008000a65c <i_10278>:
    8000a65c:	7db00513          	li	a0,2011

000000008000a660 <i_10279>:
    8000a660:	b2650a1b          	addiw	s4,a0,-1242

000000008000a664 <i_10280>:
    8000a664:	e4b100a3          	sb	a1,-447(sp)

000000008000a668 <i_10281>:
    8000a668:	cb0a0c13          	addi	s8,s4,-848 # d14eafe0 <_end+0x514dabcc>

000000008000a66c <i_10282>:
    8000a66c:	86300593          	li	a1,-1949

000000008000a670 <i_10283>:
    8000a670:	87500213          	li	tp,-1931

000000008000a674 <i_10284>:
    8000a674:	0189ca33          	xor	s4,s3,s8

000000008000a678 <i_10285>:
    8000a678:	00158593          	addi	a1,a1,1
    8000a67c:	fe45cce3          	blt	a1,tp,8000a674 <i_10284>

000000008000a680 <i_10286>:
    8000a680:	03821063          	bne	tp,s8,8000a6a0 <i_10293>

000000008000a684 <i_10287>:
    8000a684:	031a6c3b          	remw	s8,s4,a7

000000008000a688 <i_10288>:
    8000a688:	01858c63          	beq	a1,s8,8000a6a0 <i_10293>

000000008000a68c <i_10289>:
    8000a68c:	00180813          	addi	a6,a6,1
    8000a690:	fca848e3          	blt	a6,a0,8000a660 <i_10279>

000000008000a694 <i_10290>:
    8000a694:	038a6463          	bltu	s4,s8,8000a6bc <i_10300>

000000008000a698 <i_10291>:
    8000a698:	014c22b3          	slt	t0,s8,s4

000000008000a69c <i_10292>:
    8000a69c:	0f813823          	sd	s8,240(sp)

000000008000a6a0 <i_10293>:
    8000a6a0:	405c06b3          	sub	a3,s8,t0

000000008000a6a4 <i_10294>:
    8000a6a4:	0fc14603          	lbu	a2,252(sp)

000000008000a6a8 <i_10295>:
    8000a6a8:	f3813b03          	ld	s6,-200(sp)

000000008000a6ac <i_10296>:
    8000a6ac:	038c4633          	div	a2,s8,s8

000000008000a6b0 <i_10297>:
    8000a6b0:	02d28463          	beq	t0,a3,8000a6d8 <i_10307>

000000008000a6b4 <i_10298>:
    8000a6b4:	0e513823          	sd	t0,240(sp)

000000008000a6b8 <i_10299>:
    8000a6b8:	e3413423          	sd	s4,-472(sp)

000000008000a6bc <i_10300>:
    8000a6bc:	01013683          	ld	a3,16(sp)

000000008000a6c0 <i_10301>:
    8000a6c0:	0ce11a03          	lh	s4,206(sp)

000000008000a6c4 <i_10302>:
    8000a6c4:	fed1bcb7          	lui	s9,0xfed1b

000000008000a6c8 <i_10303>:
    8000a6c8:	02de74b3          	remu	s1,t3,a3

000000008000a6cc <i_10304>:
    8000a6cc:	00000013          	nop

000000008000a6d0 <i_10305>:
    8000a6d0:	401bdb9b          	sraiw	s7,s7,0x1

000000008000a6d4 <i_10306>:
    8000a6d4:	00000013          	nop

000000008000a6d8 <i_10307>:
    8000a6d8:	004bd49b          	srliw	s1,s7,0x4

000000008000a6dc <i_10308>:
    8000a6dc:	00000013          	nop

000000008000a6e0 <i_10309>:
    8000a6e0:	7e200613          	li	a2,2018

000000008000a6e4 <i_10310>:
    8000a6e4:	7f000813          	li	a6,2032

000000008000a6e8 <i_10311>:
    8000a6e8:	08514b83          	lbu	s7,133(sp)

000000008000a6ec <i_10312>:
    8000a6ec:	00000013          	nop

000000008000a6f0 <i_10313>:
    8000a6f0:	89800693          	li	a3,-1896

000000008000a6f4 <i_10314>:
    8000a6f4:	8a100a13          	li	s4,-1887

000000008000a6f8 <i_10315>:
    8000a6f8:	00168693          	addi	a3,a3,1
    8000a6fc:	ff46eee3          	bltu	a3,s4,8000a6f8 <i_10315>

000000008000a700 <i_10316>:
    8000a700:	01b00493          	li	s1,27

000000008000a704 <i_10317>:
    8000a704:	009a5bbb          	srlw	s7,s4,s1

000000008000a708 <i_10318>:
    8000a708:	02948a33          	mul	s4,s1,s1

000000008000a70c <i_10319>:
    8000a70c:	00160613          	addi	a2,a2,1
    8000a710:	fcc81ce3          	bne	a6,a2,8000a6e8 <i_10311>

000000008000a714 <i_10320>:
    8000a714:	e7410ba3          	sb	s4,-393(sp)

000000008000a718 <i_10321>:
    8000a718:	9174ee93          	ori	t4,s1,-1769

000000008000a71c <i_10322>:
    8000a71c:	03ce7a33          	remu	s4,t3,t3

000000008000a720 <i_10323>:
    8000a720:	00000013          	nop

000000008000a724 <i_10324>:
    8000a724:	0014d29b          	srliw	t0,s1,0x1

000000008000a728 <i_10325>:
    8000a728:	8af00093          	li	ra,-1873

000000008000a72c <i_10326>:
    8000a72c:	8b100d13          	li	s10,-1871

000000008000a730 <i_10327>:
    8000a730:	00000013          	nop

000000008000a734 <i_10328>:
    8000a734:	ee812e83          	lw	t4,-280(sp)

000000008000a738 <i_10329>:
    8000a738:	fd611723          	sh	s6,-50(sp)

000000008000a73c <i_10330>:
    8000a73c:	00000013          	nop

000000008000a740 <i_10331>:
    8000a740:	07b10e83          	lb	t4,123(sp)

000000008000a744 <i_10332>:
    8000a744:	e5c10423          	sb	t3,-440(sp)

000000008000a748 <i_10333>:
    8000a748:	021a7233          	remu	tp,s4,ra

000000008000a74c <i_10334>:
    8000a74c:	00108093          	addi	ra,ra,1
    8000a750:	fe1d70e3          	bleu	ra,s10,8000a730 <i_10327>

000000008000a754 <i_10335>:
    8000a754:	ebc11323          	sh	t3,-346(sp)

000000008000a758 <i_10336>:
    8000a758:	01ce7c63          	bleu	t3,t3,8000a770 <i_10342>

000000008000a75c <i_10337>:
    8000a75c:	001d7463          	bleu	ra,s10,8000a764 <i_10339>

000000008000a760 <i_10338>:
    8000a760:	e1c12c23          	sw	t3,-488(sp)

000000008000a764 <i_10339>:
    8000a764:	e9110a03          	lb	s4,-367(sp)

000000008000a768 <i_10340>:
    8000a768:	19611c23          	sh	s6,408(sp)

000000008000a76c <i_10341>:
    8000a76c:	41ee8cb3          	sub	s9,t4,t5

000000008000a770 <i_10342>:
    8000a770:	03cef2b3          	remu	t0,t4,t3

000000008000a774 <i_10343>:
    8000a774:	f3913023          	sd	s9,-224(sp)

000000008000a778 <i_10344>:
    8000a778:	fa812c83          	lw	s9,-88(sp)

000000008000a77c <i_10345>:
    8000a77c:	001b4463          	blt	s6,ra,8000a784 <i_10347>

000000008000a780 <i_10346>:
    8000a780:	034b6463          	bltu	s6,s4,8000a7a8 <i_10356>

000000008000a784 <i_10347>:
    8000a784:	fba15b03          	lhu	s6,-70(sp)

000000008000a788 <i_10348>:
    8000a788:	021540b3          	div	ra,a0,ra

000000008000a78c <i_10349>:
    8000a78c:	019c4e63          	blt	s8,s9,8000a7a8 <i_10356>

000000008000a790 <i_10350>:
    8000a790:	00ecd263          	ble	a4,s9,8000a794 <i_10351>

000000008000a794 <i_10351>:
    8000a794:	019cda63          	ble	s9,s9,8000a7a8 <i_10356>

000000008000a798 <i_10352>:
    8000a798:	f3913823          	sd	s9,-208(sp)

000000008000a79c <i_10353>:
    8000a79c:	0360d0bb          	divuw	ra,ra,s6

000000008000a7a0 <i_10354>:
    8000a7a0:	e5510983          	lb	s3,-427(sp)

000000008000a7a4 <i_10355>:
    8000a7a4:	efe15603          	lhu	a2,-258(sp)

000000008000a7a8 <i_10356>:
    8000a7a8:	11815a03          	lhu	s4,280(sp)

000000008000a7ac <i_10357>:
    8000a7ac:	892cc293          	xori	t0,s9,-1902

000000008000a7b0 <i_10358>:
    8000a7b0:	03b00393          	li	t2,59

000000008000a7b4 <i_10359>:
    8000a7b4:	007899b3          	sll	s3,a7,t2

000000008000a7b8 <i_10360>:
    8000a7b8:	0150ca63          	blt	ra,s5,8000a7cc <i_10365>

000000008000a7bc <i_10361>:
    8000a7bc:	01000a13          	li	s4,16

000000008000a7c0 <i_10362>:
    8000a7c0:	014cda3b          	srlw	s4,s9,s4

000000008000a7c4 <i_10363>:
    8000a7c4:	0032d19b          	srliw	gp,t0,0x3

000000008000a7c8 <i_10364>:
    8000a7c8:	003a5463          	ble	gp,s4,8000a7d0 <i_10366>

000000008000a7cc <i_10365>:
    8000a7cc:	ea016603          	lwu	a2,-352(sp)

000000008000a7d0 <i_10366>:
    8000a7d0:	0143f263          	bleu	s4,t2,8000a7d4 <i_10367>

000000008000a7d4 <i_10367>:
    8000a7d4:	e2c11123          	sh	a2,-478(sp)

000000008000a7d8 <i_10368>:
    8000a7d8:	039ce263          	bltu	s9,s9,8000a7fc <i_10377>

000000008000a7dc <i_10369>:
    8000a7dc:	25fa0a1b          	addiw	s4,s4,607

000000008000a7e0 <i_10370>:
    8000a7e0:	e5812a83          	lw	s5,-424(sp)

000000008000a7e4 <i_10371>:
    8000a7e4:	01300193          	li	gp,19

000000008000a7e8 <i_10372>:
    8000a7e8:	4031de3b          	sraw	t3,gp,gp

000000008000a7ec <i_10373>:
    8000a7ec:	e2313023          	sd	gp,-480(sp)

000000008000a7f0 <i_10374>:
    8000a7f0:	2ae0b093          	sltiu	ra,ra,686

000000008000a7f4 <i_10375>:
    8000a7f4:	03ce6063          	bltu	t3,t3,8000a814 <i_10383>

000000008000a7f8 <i_10376>:
    8000a7f8:	03826263          	bltu	tp,s8,8000a81c <i_10385>

000000008000a7fc <i_10377>:
    8000a7fc:	00311c23          	sh	gp,24(sp)

000000008000a800 <i_10378>:
    8000a800:	e5211623          	sh	s2,-436(sp)

000000008000a804 <i_10379>:
    8000a804:	fd412d83          	lw	s11,-44(sp)

000000008000a808 <i_10380>:
    8000a808:	01c00c13          	li	s8,28

000000008000a80c <i_10381>:
    8000a80c:	0180dc3b          	srlw	s8,ra,s8

000000008000a810 <i_10382>:
    8000a810:	00416183          	lwu	gp,4(sp)

000000008000a814 <i_10383>:
    8000a814:	021c6063          	bltu	s8,ra,8000a834 <i_10391>

000000008000a818 <i_10384>:
    8000a818:	413a03b3          	sub	t2,s4,s3

000000008000a81c <i_10385>:
    8000a81c:	0d012c03          	lw	s8,208(sp)

000000008000a820 <i_10386>:
    8000a820:	f6c15503          	lhu	a0,-148(sp)

000000008000a824 <i_10387>:
    8000a824:	00ac4663          	blt	s8,a0,8000a830 <i_10390>

000000008000a828 <i_10388>:
    8000a828:	1aa12623          	sw	a0,428(sp)

000000008000a82c <i_10389>:
    8000a82c:	cb41e213          	ori	tp,gp,-844

000000008000a830 <i_10390>:
    8000a830:	15812623          	sw	s8,332(sp)

000000008000a834 <i_10391>:
    8000a834:	0243f2b3          	remu	t0,t2,tp

000000008000a838 <i_10392>:
    8000a838:	40325093          	srai	ra,tp,0x3

000000008000a83c <i_10393>:
    8000a83c:	d1c3839b          	addiw	t2,t2,-740

000000008000a840 <i_10394>:
    8000a840:	0073ea63          	bltu	t2,t2,8000a854 <i_10399>

000000008000a844 <i_10395>:
    8000a844:	00724663          	blt	tp,t2,8000a850 <i_10398>

000000008000a848 <i_10396>:
    8000a848:	ec311b23          	sh	gp,-298(sp)

000000008000a84c <i_10397>:
    8000a84c:	027c4f33          	div	t5,s8,t2

000000008000a850 <i_10398>:
    8000a850:	06711f23          	sh	t2,126(sp)

000000008000a854 <i_10399>:
    8000a854:	01ec1463          	bne	s8,t5,8000a85c <i_10401>

000000008000a858 <i_10400>:
    8000a858:	00151a9b          	slliw	s5,a0,0x1

000000008000a85c <i_10401>:
    8000a85c:	00390e63          	beq	s2,gp,8000a878 <i_10408>

000000008000a860 <i_10402>:
    8000a860:	e3e10f03          	lb	t5,-450(sp)

000000008000a864 <i_10403>:
    8000a864:	a3bf4813          	xori	a6,t5,-1477

000000008000a868 <i_10404>:
    8000a868:	f1412a23          	sw	s4,-236(sp)

000000008000a86c <i_10405>:
    8000a86c:	0c514a83          	lbu	s5,197(sp)

000000008000a870 <i_10406>:
    8000a870:	eb513423          	sd	s5,-344(sp)

000000008000a874 <i_10407>:
    8000a874:	00d00d93          	li	s11,13

000000008000a878 <i_10408>:
    8000a878:	41b85ebb          	sraw	t4,a6,s11

000000008000a87c <i_10409>:
    8000a87c:	11fb0d93          	addi	s11,s6,287

000000008000a880 <i_10410>:
    8000a880:	e2215a83          	lhu	s5,-478(sp)

000000008000a884 <i_10411>:
    8000a884:	15513c23          	sd	s5,344(sp)

000000008000a888 <i_10412>:
    8000a888:	05410303          	lb	t1,84(sp)

000000008000a88c <i_10413>:
    8000a88c:	17511623          	sh	s5,364(sp)

000000008000a890 <i_10414>:
    8000a890:	00455a93          	srli	s5,a0,0x4

000000008000a894 <i_10415>:
    8000a894:	75400b13          	li	s6,1876

000000008000a898 <i_10416>:
    8000a898:	75900513          	li	a0,1881

000000008000a89c <i_10417>:
    8000a89c:	001b0b13          	addi	s6,s6,1
    8000a8a0:	feab6ee3          	bltu	s6,a0,8000a89c <i_10417>

000000008000a8a4 <i_10418>:
    8000a8a4:	0356cabb          	divw	s5,a3,s5

000000008000a8a8 <i_10419>:
    8000a8a8:	006b1463          	bne	s6,t1,8000a8b0 <i_10421>

000000008000a8ac <i_10420>:
    8000a8ac:	fd613423          	sd	s6,-56(sp)

000000008000a8b0 <i_10421>:
    8000a8b0:	02a479bb          	remuw	s3,s0,a0

000000008000a8b4 <i_10422>:
    8000a8b4:	07313c23          	sd	s3,120(sp)

000000008000a8b8 <i_10423>:
    8000a8b8:	02a5653b          	remw	a0,a0,a0

000000008000a8bc <i_10424>:
    8000a8bc:	01356863          	bltu	a0,s3,8000a8cc <i_10428>

000000008000a8c0 <i_10425>:
    8000a8c0:	09412803          	lw	a6,148(sp)

000000008000a8c4 <i_10426>:
    8000a8c4:	f1c16803          	lwu	a6,-228(sp)

000000008000a8c8 <i_10427>:
    8000a8c8:	00000013          	nop

000000008000a8cc <i_10428>:
    8000a8cc:	e8810e23          	sb	s0,-356(sp)

000000008000a8d0 <i_10429>:
    8000a8d0:	00000013          	nop

000000008000a8d4 <i_10430>:
    8000a8d4:	7db00313          	li	t1,2011

000000008000a8d8 <i_10431>:
    8000a8d8:	7e300513          	li	a0,2019

000000008000a8dc <i_10432>:
    8000a8dc:	00130313          	addi	t1,t1,1
    8000a8e0:	fea31ee3          	bne	t1,a0,8000a8dc <i_10432>

000000008000a8e4 <i_10433>:
    8000a8e4:	04816303          	lwu	t1,72(sp)

000000008000a8e8 <i_10434>:
    8000a8e8:	0283733b          	remuw	t1,t1,s0

000000008000a8ec <i_10435>:
    8000a8ec:	fe612c23          	sw	t1,-8(sp)

000000008000a8f0 <i_10436>:
    8000a8f0:	00a85c63          	ble	a0,a6,8000a908 <i_10442>

000000008000a8f4 <i_10437>:
    8000a8f4:	ec816b83          	lwu	s7,-312(sp)

000000008000a8f8 <i_10438>:
    8000a8f8:	f5c14503          	lbu	a0,-164(sp)

000000008000a8fc <i_10439>:
    8000a8fc:	0fc10b83          	lb	s7,252(sp)

000000008000a900 <i_10440>:
    8000a900:	00a51463          	bne	a0,a0,8000a908 <i_10442>

000000008000a904 <i_10441>:
    8000a904:	773a019b          	addiw	gp,s4,1907

000000008000a908 <i_10442>:
    8000a908:	f2c14303          	lbu	t1,-212(sp)

000000008000a90c <i_10443>:
    8000a90c:	01c14303          	lbu	t1,28(sp)

000000008000a910 <i_10444>:
    8000a910:	1af14183          	lbu	gp,431(sp)

000000008000a914 <i_10445>:
    8000a914:	16914583          	lbu	a1,361(sp)

000000008000a918 <i_10446>:
    8000a918:	1b213023          	sd	s2,416(sp)

000000008000a91c <i_10447>:
    8000a91c:	ea016603          	lwu	a2,-352(sp)

000000008000a920 <i_10448>:
    8000a920:	02b35333          	divu	t1,t1,a1

000000008000a924 <i_10449>:
    8000a924:	00a5b633          	sltu	a2,a1,a0

000000008000a928 <i_10450>:
    8000a928:	0c2235b7          	lui	a1,0xc223

000000008000a92c <i_10451>:
    8000a92c:	fa611823          	sh	t1,-80(sp)

000000008000a930 <i_10452>:
    8000a930:	ff412603          	lw	a2,-12(sp)

000000008000a934 <i_10453>:
    8000a934:	02637f3b          	remuw	t5,t1,t1

000000008000a938 <i_10454>:
    8000a938:	035f4063          	blt	t5,s5,8000a958 <i_10462>

000000008000a93c <i_10455>:
    8000a93c:	19215f03          	lhu	t5,402(sp)

000000008000a940 <i_10456>:
    8000a940:	05e13823          	sd	t5,80(sp)

000000008000a944 <i_10457>:
    8000a944:	92bf4a93          	xori	s5,t5,-1749

000000008000a948 <i_10458>:
    8000a948:	03ed81bb          	mulw	gp,s11,t5

000000008000a94c <i_10459>:
    8000a94c:	01e1b7b3          	sltu	a5,gp,t5

000000008000a950 <i_10460>:
    8000a950:	035ac63b          	divw	a2,s5,s5

000000008000a954 <i_10461>:
    8000a954:	03e7d063          	ble	t5,a5,8000a974 <i_10469>

000000008000a958 <i_10462>:
    8000a958:	02ff37b3          	mulhu	a5,t5,a5

000000008000a95c <i_10463>:
    8000a95c:	e3215203          	lhu	tp,-462(sp)

000000008000a960 <i_10464>:
    8000a960:	f9e13423          	sd	t5,-120(sp)

000000008000a964 <i_10465>:
    8000a964:	e2211783          	lh	a5,-478(sp)

000000008000a968 <i_10466>:
    8000a968:	02fa46b3          	div	a3,s4,a5

000000008000a96c <i_10467>:
    8000a96c:	00000013          	nop

000000008000a970 <i_10468>:
    8000a970:	f9614e83          	lbu	t4,-106(sp)

000000008000a974 <i_10469>:
    8000a974:	02d7fc3b          	remuw	s8,a5,a3

000000008000a978 <i_10470>:
    8000a978:	00000013          	nop

000000008000a97c <i_10471>:
    8000a97c:	8c600613          	li	a2,-1850

000000008000a980 <i_10472>:
    8000a980:	8c900f13          	li	t5,-1847

000000008000a984 <i_10473>:
    8000a984:	02275233          	divu	tp,a4,sp

000000008000a988 <i_10474>:
    8000a988:	02d13c23          	sd	a3,56(sp)

000000008000a98c <i_10475>:
    8000a98c:	00d277b3          	and	a5,tp,a3

000000008000a990 <i_10476>:
    8000a990:	02d6823b          	mulw	tp,a3,a3

000000008000a994 <i_10477>:
    8000a994:	024c2233          	mulhsu	tp,s8,tp

000000008000a998 <i_10478>:
    8000a998:	017c4bb3          	xor	s7,s8,s7

000000008000a99c <i_10479>:
    8000a99c:	05a10203          	lb	tp,90(sp)

000000008000a9a0 <i_10480>:
    8000a9a0:	00160613          	addi	a2,a2,1
    8000a9a4:	fecf10e3          	bne	t5,a2,8000a984 <i_10473>

000000008000a9a8 <i_10481>:
    8000a9a8:	f9614203          	lbu	tp,-106(sp)

000000008000a9ac <i_10482>:
    8000a9ac:	17010d83          	lb	s11,368(sp)

000000008000a9b0 <i_10483>:
    8000a9b0:	fd713c23          	sd	s7,-40(sp)

000000008000a9b4 <i_10484>:
    8000a9b4:	00426e63          	bltu	tp,tp,8000a9d0 <i_10491>

000000008000a9b8 <i_10485>:
    8000a9b8:	e7816483          	lwu	s1,-392(sp)

000000008000a9bc <i_10486>:
    8000a9bc:	ee812b83          	lw	s7,-280(sp)

000000008000a9c0 <i_10487>:
    8000a9c0:	025642bb          	divw	t0,a2,t0

000000008000a9c4 <i_10488>:
    8000a9c4:	00000013          	nop

000000008000a9c8 <i_10489>:
    8000a9c8:	00000013          	nop

000000008000a9cc <i_10490>:
    8000a9cc:	e8512c23          	sw	t0,-360(sp)

000000008000a9d0 <i_10491>:
    8000a9d0:	024bfbbb          	remuw	s7,s7,tp

000000008000a9d4 <i_10492>:
    8000a9d4:	14411723          	sh	tp,334(sp)

000000008000a9d8 <i_10493>:
    8000a9d8:	73d00813          	li	a6,1853

000000008000a9dc <i_10494>:
    8000a9dc:	74600293          	li	t0,1862

000000008000a9e0 <i_10495>:
    8000a9e0:	d48d7213          	andi	tp,s10,-696

000000008000a9e4 <i_10496>:
    8000a9e4:	02400213          	li	tp,36

000000008000a9e8 <i_10497>:
    8000a9e8:	4042d3b3          	sra	t2,t0,tp

000000008000a9ec <i_10498>:
    8000a9ec:	f18b8c37          	lui	s8,0xf18b8

000000008000a9f0 <i_10499>:
    8000a9f0:	00180813          	addi	a6,a6,1
    8000a9f4:	ff0296e3          	bne	t0,a6,8000a9e0 <i_10495>

000000008000a9f8 <i_10500>:
    8000a9f8:	e2412223          	sw	tp,-476(sp)

000000008000a9fc <i_10501>:
    8000a9fc:	fd016483          	lwu	s1,-48(sp)

000000008000aa00 <i_10502>:
    8000aa00:	00100213          	li	tp,1

000000008000aa04 <i_10503>:
    8000aa04:	004c52bb          	srlw	t0,s8,tp

000000008000aa08 <i_10504>:
    8000aa08:	0094c233          	xor	tp,s1,s1

000000008000aa0c <i_10505>:
    8000aa0c:	00926c63          	bltu	tp,s1,8000aa24 <i_10511>

000000008000aa10 <i_10506>:
    8000aa10:	0032b1b3          	sltu	gp,t0,gp

000000008000aa14 <i_10507>:
    8000aa14:	f9411183          	lh	gp,-108(sp)

000000008000aa18 <i_10508>:
    8000aa18:	00000013          	nop

000000008000aa1c <i_10509>:
    8000aa1c:	ee514183          	lbu	gp,-283(sp)

000000008000aa20 <i_10510>:
    8000aa20:	00000013          	nop

000000008000aa24 <i_10511>:
    8000aa24:	0011919b          	slliw	gp,gp,0x1

000000008000aa28 <i_10512>:
    8000aa28:	18512a23          	sw	t0,404(sp)

000000008000aa2c <i_10513>:
    8000aa2c:	8be00293          	li	t0,-1858

000000008000aa30 <i_10514>:
    8000aa30:	8ce00213          	li	tp,-1842

000000008000aa34 <i_10515>:
    8000aa34:	03440063          	beq	s0,s4,8000aa54 <i_10522>

000000008000aa38 <i_10516>:
    8000aa38:	00128293          	addi	t0,t0,1
    8000aa3c:	fe429ce3          	bne	t0,tp,8000aa34 <i_10515>

000000008000aa40 <i_10517>:
    8000aa40:	01412c03          	lw	s8,20(sp)

000000008000aa44 <i_10518>:
    8000aa44:	10813a03          	ld	s4,264(sp)

000000008000aa48 <i_10519>:
    8000aa48:	eb815583          	lhu	a1,-328(sp)

000000008000aa4c <i_10520>:
    8000aa4c:	02c16383          	lwu	t2,44(sp)

000000008000aa50 <i_10521>:
    8000aa50:	05a58393          	addi	t2,a1,90 # c22305a <main-0x73ddcfa6>

000000008000aa54 <i_10522>:
    8000aa54:	00000013          	nop

000000008000aa58 <i_10523>:
    8000aa58:	00000013          	nop

000000008000aa5c <i_10524>:
    8000aa5c:	77f00b93          	li	s7,1919

000000008000aa60 <i_10525>:
    8000aa60:	78b00493          	li	s1,1931

000000008000aa64 <i_10526>:
    8000aa64:	001a559b          	srliw	a1,s4,0x1

000000008000aa68 <i_10527>:
    8000aa68:	003a6c33          	or	s8,s4,gp

000000008000aa6c <i_10528>:
    8000aa6c:	0183c233          	xor	tp,t2,s8

000000008000aa70 <i_10529>:
    8000aa70:	02b9c9b3          	div	s3,s3,a1

000000008000aa74 <i_10530>:
    8000aa74:	09953413          	sltiu	s0,a0,153

000000008000aa78 <i_10531>:
    8000aa78:	001b8b93          	addi	s7,s7,1
    8000aa7c:	ff74d4e3          	ble	s7,s1,8000aa64 <i_10526>

000000008000aa80 <i_10532>:
    8000aa80:	01147463          	bleu	a7,s0,8000aa88 <i_10534>

000000008000aa84 <i_10533>:
    8000aa84:	0014dc1b          	srliw	s8,s1,0x1

000000008000aa88 <i_10534>:
    8000aa88:	038ef063          	bleu	s8,t4,8000aaa8 <i_10542>

000000008000aa8c <i_10535>:
    8000aa8c:	0021d993          	srli	s3,gp,0x2

000000008000aa90 <i_10536>:
    8000aa90:	ee013b83          	ld	s7,-288(sp)

000000008000aa94 <i_10537>:
    8000aa94:	168108a3          	sb	s0,369(sp)

000000008000aa98 <i_10538>:
    8000aa98:	02ba6f33          	rem	t5,s4,a1

000000008000aa9c <i_10539>:
    8000aa9c:	014bca63          	blt	s7,s4,8000aab0 <i_10544>

000000008000aaa0 <i_10540>:
    8000aaa0:	723efa17          	auipc	s4,0x723ef

000000008000aaa4 <i_10541>:
    8000aaa4:	01313c23          	sd	s3,24(sp)

000000008000aaa8 <i_10542>:
    8000aaa8:	e7c12d03          	lw	s10,-388(sp)

000000008000aaac <i_10543>:
    8000aaac:	15816b83          	lwu	s7,344(sp)

000000008000aab0 <i_10544>:
    8000aab0:	10514e83          	lbu	t4,261(sp)

000000008000aab4 <i_10545>:
    8000aab4:	ec816b83          	lwu	s7,-312(sp)

000000008000aab8 <i_10546>:
    8000aab8:	1e414283          	lbu	t0,484(sp)

000000008000aabc <i_10547>:
    8000aabc:	e7a10d03          	lb	s10,-390(sp)

000000008000aac0 <i_10548>:
    8000aac0:	8ae00b93          	li	s7,-1874

000000008000aac4 <i_10549>:
    8000aac4:	8bf00e93          	li	t4,-1857

000000008000aac8 <i_10550>:
    8000aac8:	00500193          	li	gp,5

000000008000aacc <i_10551>:
    8000aacc:	0037de33          	srl	t3,a5,gp

000000008000aad0 <i_10552>:
    8000aad0:	001b8b93          	addi	s7,s7,1
    8000aad4:	ff7efae3          	bleu	s7,t4,8000aac8 <i_10550>

000000008000aad8 <i_10553>:
    8000aad8:	01416503          	lwu	a0,20(sp)

000000008000aadc <i_10554>:
    8000aadc:	0941e393          	ori	t2,gp,148

000000008000aae0 <i_10555>:
    8000aae0:	efe15503          	lhu	a0,-258(sp)

000000008000aae4 <i_10556>:
    8000aae4:	0df14603          	lbu	a2,223(sp)

000000008000aae8 <i_10557>:
    8000aae8:	0a713823          	sd	t2,176(sp)

000000008000aaec <i_10558>:
    8000aaec:	027531b3          	mulhu	gp,a0,t2

000000008000aaf0 <i_10559>:
    8000aaf0:	0231f233          	remu	tp,gp,gp

000000008000aaf4 <i_10560>:
    8000aaf4:	deef9197          	auipc	gp,0xdeef9

000000008000aaf8 <i_10561>:
    8000aaf8:	f9111223          	sh	a7,-124(sp)

000000008000aafc <i_10562>:
    8000aafc:	11611f23          	sh	s6,286(sp)

000000008000ab00 <i_10563>:
    8000ab00:	0031d21b          	srliw	tp,gp,0x3

000000008000ab04 <i_10564>:
    8000ab04:	00165863          	ble	ra,a2,8000ab14 <i_10568>

000000008000ab08 <i_10565>:
    8000ab08:	0241b233          	mulhu	tp,gp,tp

000000008000ab0c <i_10566>:
    8000ab0c:	0022d513          	srli	a0,t0,0x2

000000008000ab10 <i_10567>:
    8000ab10:	14a12e23          	sw	a0,348(sp)

000000008000ab14 <i_10568>:
    8000ab14:	ed015a03          	lhu	s4,-304(sp)

000000008000ab18 <i_10569>:
    8000ab18:	03f14f03          	lbu	t5,63(sp)

000000008000ab1c <i_10570>:
    8000ab1c:	79300293          	li	t0,1939

000000008000ab20 <i_10571>:
    8000ab20:	79c00193          	li	gp,1948

000000008000ab24 <i_10572>:
    8000ab24:	19815303          	lhu	t1,408(sp)

000000008000ab28 <i_10573>:
    8000ab28:	03412783          	lw	a5,52(sp)

000000008000ab2c <i_10574>:
    8000ab2c:	77d00d93          	li	s11,1917

000000008000ab30 <i_10575>:
    8000ab30:	79000e13          	li	t3,1936

000000008000ab34 <i_10576>:
    8000ab34:	001d8d93          	addi	s11,s11,1
    8000ab38:	ffcd9ee3          	bne	s11,t3,8000ab34 <i_10576>

000000008000ab3c <i_10577>:
    8000ab3c:	02b78463          	beq	a5,a1,8000ab64 <i_10586>

000000008000ab40 <i_10578>:
    8000ab40:	00fce463          	bltu	s9,a5,8000ab48 <i_10580>

000000008000ab44 <i_10579>:
    8000ab44:	14510a23          	sb	t0,340(sp)

000000008000ab48 <i_10580>:
    8000ab48:	e8013303          	ld	t1,-384(sp)

000000008000ab4c <i_10581>:
    8000ab4c:	f8f106a3          	sb	a5,-115(sp)

000000008000ab50 <i_10582>:
    8000ab50:	00128293          	addi	t0,t0,1
    8000ab54:	fc32e8e3          	bltu	t0,gp,8000ab24 <i_10572>

000000008000ab58 <i_10583>:
    8000ab58:	01500793          	li	a5,21

000000008000ab5c <i_10584>:
    8000ab5c:	00fe5dbb          	srlw	s11,t3,a5

000000008000ab60 <i_10585>:
    8000ab60:	19015503          	lhu	a0,400(sp)

000000008000ab64 <i_10586>:
    8000ab64:	11111423          	sh	a7,264(sp)

000000008000ab68 <i_10587>:
    8000ab68:	09812303          	lw	t1,152(sp)

000000008000ab6c <i_10588>:
    8000ab6c:	87000f13          	li	t5,-1936

000000008000ab70 <i_10589>:
    8000ab70:	88200d13          	li	s10,-1918

000000008000ab74 <i_10590>:
    8000ab74:	00000013          	nop

000000008000ab78 <i_10591>:
    8000ab78:	fc013503          	ld	a0,-64(sp)

000000008000ab7c <i_10592>:
    8000ab7c:	02ae6e33          	rem	t3,t3,a0

000000008000ab80 <i_10593>:
    8000ab80:	14011e03          	lh	t3,320(sp)

000000008000ab84 <i_10594>:
    8000ab84:	ea011a83          	lh	s5,-352(sp)

000000008000ab88 <i_10595>:
    8000ab88:	0d411e03          	lh	t3,212(sp)

000000008000ab8c <i_10596>:
    8000ab8c:	001f0f13          	addi	t5,t5,1 # fffffffff4537001 <_end+0xffffffff74526bed>
    8000ab90:	ffaf62e3          	bltu	t5,s10,8000ab74 <i_10590>

000000008000ab94 <i_10597>:
    8000ab94:	18813d83          	ld	s11,392(sp)

000000008000ab98 <i_10598>:
    8000ab98:	e5c12823          	sw	t3,-432(sp)

000000008000ab9c <i_10599>:
    8000ab9c:	e3a14e03          	lbu	t3,-454(sp)

000000008000aba0 <i_10600>:
    8000aba0:	f3c100a3          	sb	t3,-223(sp)

000000008000aba4 <i_10601>:
    8000aba4:	15016f03          	lwu	t5,336(sp)

000000008000aba8 <i_10602>:
    8000aba8:	18c16e03          	lwu	t3,396(sp)

000000008000abac <i_10603>:
    8000abac:	03cf0abb          	mulw	s5,t5,t3

000000008000abb0 <i_10604>:
    8000abb0:	e7e105a3          	sb	t5,-405(sp)

000000008000abb4 <i_10605>:
    8000abb4:	01ce6263          	bltu	t3,t3,8000abb8 <i_10606>

000000008000abb8 <i_10606>:
    8000abb8:	01cf00b3          	add	ra,t5,t3

000000008000abbc <i_10607>:
    8000abbc:	fac16f03          	lwu	t5,-84(sp)

000000008000abc0 <i_10608>:
    8000abc0:	026f5463          	ble	t1,t5,8000abe8 <i_10618>

000000008000abc4 <i_10609>:
    8000abc4:	e7815383          	lhu	t2,-392(sp)

000000008000abc8 <i_10610>:
    8000abc8:	af8f6f13          	ori	t5,t5,-1288

000000008000abcc <i_10611>:
    8000abcc:	0210c263          	blt	ra,ra,8000abf0 <i_10620>

000000008000abd0 <i_10612>:
    8000abd0:	0033dd9b          	srliw	s11,t2,0x3

000000008000abd4 <i_10613>:
    8000abd4:	d56d8f13          	addi	t5,s11,-682

000000008000abd8 <i_10614>:
    8000abd8:	03ef2f33          	mulhsu	t5,t5,t5

000000008000abdc <i_10615>:
    8000abdc:	1de15c83          	lhu	s9,478(sp)

000000008000abe0 <i_10616>:
    8000abe0:	09816b03          	lwu	s6,152(sp)

000000008000abe4 <i_10617>:
    8000abe4:	03510ba3          	sb	s5,55(sp)

000000008000abe8 <i_10618>:
    8000abe8:	0e314f03          	lbu	t5,227(sp)

000000008000abec <i_10619>:
    8000abec:	003bc1b3          	xor	gp,s7,gp

000000008000abf0 <i_10620>:
    8000abf0:	2ba2d1b7          	lui	gp,0x2ba2d

000000008000abf4 <i_10621>:
    8000abf4:	00000013          	nop

000000008000abf8 <i_10622>:
    8000abf8:	73500e13          	li	t3,1845

000000008000abfc <i_10623>:
    8000abfc:	73d00b93          	li	s7,1853

000000008000ac00 <i_10624>:
    8000ac00:	023b5ab3          	divu	s5,s6,gp

000000008000ac04 <i_10625>:
    8000ac04:	0f015183          	lhu	gp,240(sp)

000000008000ac08 <i_10626>:
    8000ac08:	7d000c13          	li	s8,2000

000000008000ac0c <i_10627>:
    8000ac0c:	7d600b13          	li	s6,2006

000000008000ac10 <i_10628>:
    8000ac10:	001c0c13          	addi	s8,s8,1 # fffffffff18b8001 <_end+0xffffffff718a7bed>
    8000ac14:	ff8b7ee3          	bleu	s8,s6,8000ac10 <i_10628>

000000008000ac18 <i_10629>:
    8000ac18:	035b57bb          	divuw	a5,s6,s5

000000008000ac1c <i_10630>:
    8000ac1c:	0ed18193          	addi	gp,gp,237 # 2ba2d0ed <main-0x545d2f13>

000000008000ac20 <i_10631>:
    8000ac20:	00918633          	add	a2,gp,s1

000000008000ac24 <i_10632>:
    8000ac24:	0031b7b3          	sltu	a5,gp,gp

000000008000ac28 <i_10633>:
    8000ac28:	00000013          	nop

000000008000ac2c <i_10634>:
    8000ac2c:	001e0e13          	addi	t3,t3,1 # eb6df305 <_end+0x6b6ceef1>
    8000ac30:	fd7e48e3          	blt	t3,s7,8000ac00 <i_10624>

000000008000ac34 <i_10635>:
    8000ac34:	f3512e23          	sw	s5,-196(sp)

000000008000ac38 <i_10636>:
    8000ac38:	1c313823          	sd	gp,464(sp)

000000008000ac3c <i_10637>:
    8000ac3c:	1e6a8a9b          	addiw	s5,s5,486

000000008000ac40 <i_10638>:
    8000ac40:	00caf263          	bleu	a2,s5,8000ac44 <i_10639>

000000008000ac44 <i_10639>:
    8000ac44:	0040d093          	srli	ra,ra,0x4

000000008000ac48 <i_10640>:
    8000ac48:	40c180bb          	subw	ra,gp,a2

000000008000ac4c <i_10641>:
    8000ac4c:	06410183          	lb	gp,100(sp)

000000008000ac50 <i_10642>:
    8000ac50:	02a1b533          	mulhu	a0,gp,a0

000000008000ac54 <i_10643>:
    8000ac54:	09c12783          	lw	a5,156(sp)

000000008000ac58 <i_10644>:
    8000ac58:	f4c16783          	lwu	a5,-180(sp)

000000008000ac5c <i_10645>:
    8000ac5c:	009609b3          	add	s3,a2,s1

000000008000ac60 <i_10646>:
    8000ac60:	82200613          	li	a2,-2014

000000008000ac64 <i_10647>:
    8000ac64:	83000593          	li	a1,-2000

000000008000ac68 <i_10648>:
    8000ac68:	15015683          	lhu	a3,336(sp)

000000008000ac6c <i_10649>:
    8000ac6c:	4035599b          	sraiw	s3,a0,0x3

000000008000ac70 <i_10650>:
    8000ac70:	e8016683          	lwu	a3,-384(sp)

000000008000ac74 <i_10651>:
    8000ac74:	05615183          	lhu	gp,86(sp)

000000008000ac78 <i_10652>:
    8000ac78:	0ef10d23          	sb	a5,250(sp)

000000008000ac7c <i_10653>:
    8000ac7c:	e4a10823          	sb	a0,-432(sp)

000000008000ac80 <i_10654>:
    8000ac80:	01d3cc63          	blt	t2,t4,8000ac98 <i_10660>

000000008000ac84 <i_10655>:
    8000ac84:	fc410e83          	lb	t4,-60(sp)

000000008000ac88 <i_10656>:
    8000ac88:	0a411983          	lh	s3,164(sp)

000000008000ac8c <i_10657>:
    8000ac8c:	03debeb3          	mulhu	t4,t4,t4

000000008000ac90 <i_10658>:
    8000ac90:	044eae93          	slti	t4,t4,68

000000008000ac94 <i_10659>:
    8000ac94:	00200e13          	li	t3,2

000000008000ac98 <i_10660>:
    8000ac98:	41ced9b3          	sra	s3,t4,t3

000000008000ac9c <i_10661>:
    8000ac9c:	03def063          	bleu	t4,t4,8000acbc <i_10668>

000000008000aca0 <i_10662>:
    8000aca0:	01de7eb3          	and	t4,t3,t4

000000008000aca4 <i_10663>:
    8000aca4:	03817663          	bleu	s8,sp,8000acd0 <i_10673>

000000008000aca8 <i_10664>:
    8000aca8:	00160613          	addi	a2,a2,1
    8000acac:	fac5fee3          	bleu	a2,a1,8000ac68 <i_10648>

000000008000acb0 <i_10665>:
    8000acb0:	01100493          	li	s1,17

000000008000acb4 <i_10666>:
    8000acb4:	009e9eb3          	sll	t4,t4,s1

000000008000acb8 <i_10667>:
    8000acb8:	f4c15e83          	lhu	t4,-180(sp)

000000008000acbc <i_10668>:
    8000acbc:	029a4063          	blt	s4,s1,8000acdc <i_10676>

000000008000acc0 <i_10669>:
    8000acc0:	e7013e83          	ld	t4,-400(sp)

000000008000acc4 <i_10670>:
    8000acc4:	0fd13423          	sd	t4,232(sp)

000000008000acc8 <i_10671>:
    8000acc8:	0044e2b3          	or	t0,s1,tp

000000008000accc <i_10672>:
    8000accc:	402edc13          	srai	s8,t4,0x2

000000008000acd0 <i_10673>:
    8000acd0:	401c549b          	sraiw	s1,s8,0x1

000000008000acd4 <i_10674>:
    8000acd4:	0a812f03          	lw	t5,168(sp)

000000008000acd8 <i_10675>:
    8000acd8:	0382e063          	bltu	t0,s8,8000acf8 <i_10683>

000000008000acdc <i_10676>:
    8000acdc:	004c169b          	slliw	a3,s8,0x4

000000008000ace0 <i_10677>:
    8000ace0:	ec416c03          	lwu	s8,-316(sp)

000000008000ace4 <i_10678>:
    8000ace4:	40df04b3          	sub	s1,t5,a3

000000008000ace8 <i_10679>:
    8000ace8:	f9e11523          	sh	t5,-118(sp)

000000008000acec <i_10680>:
    8000acec:	01e4dc63          	ble	t5,s1,8000ad04 <i_10686>

000000008000acf0 <i_10681>:
    8000acf0:	0296833b          	mulw	t1,a3,s1

000000008000acf4 <i_10682>:
    8000acf4:	eb411f03          	lh	t5,-332(sp)

000000008000acf8 <i_10683>:
    8000acf8:	0094fc63          	bleu	s1,s1,8000ad10 <i_10689>

000000008000acfc <i_10684>:
    8000acfc:	0264e4bb          	remw	s1,s1,t1

000000008000ad00 <i_10685>:
    8000ad00:	009f7263          	bleu	s1,t5,8000ad04 <i_10686>

000000008000ad04 <i_10686>:
    8000ad04:	e8613823          	sd	t1,-368(sp)

000000008000ad08 <i_10687>:
    8000ad08:	0f314803          	lbu	a6,243(sp)

000000008000ad0c <i_10688>:
    8000ad0c:	fec16503          	lwu	a0,-20(sp)

000000008000ad10 <i_10689>:
    8000ad10:	010874b3          	and	s1,a6,a6

000000008000ad14 <i_10690>:
    8000ad14:	02957463          	bleu	s1,a0,8000ad3c <i_10700>

000000008000ad18 <i_10691>:
    8000ad18:	02951463          	bne	a0,s1,8000ad40 <i_10701>

000000008000ad1c <i_10692>:
    8000ad1c:	1e412483          	lw	s1,484(sp)

000000008000ad20 <i_10693>:
    8000ad20:	f0114483          	lbu	s1,-255(sp)

000000008000ad24 <i_10694>:
    8000ad24:	f5510323          	sb	s5,-186(sp)

000000008000ad28 <i_10695>:
    8000ad28:	06d14c03          	lbu	s8,109(sp)

000000008000ad2c <i_10696>:
    8000ad2c:	16510423          	sb	t0,360(sp)

000000008000ad30 <i_10697>:
    8000ad30:	0fa15c03          	lhu	s8,250(sp)

000000008000ad34 <i_10698>:
    8000ad34:	03d00c13          	li	s8,61

000000008000ad38 <i_10699>:
    8000ad38:	018bddb3          	srl	s11,s7,s8

000000008000ad3c <i_10700>:
    8000ad3c:	01081e63          	bne	a6,a6,8000ad58 <i_10707>

000000008000ad40 <i_10701>:
    8000ad40:	0e910723          	sb	s1,238(sp)

000000008000ad44 <i_10702>:
    8000ad44:	10615583          	lhu	a1,262(sp)

000000008000ad48 <i_10703>:
    8000ad48:	00a89263          	bne	a7,a0,8000ad4c <i_10704>

000000008000ad4c <i_10704>:
    8000ad4c:	00181d93          	slli	s11,a6,0x1

000000008000ad50 <i_10705>:
    8000ad50:	00975a63          	ble	s1,a4,8000ad64 <i_10710>

000000008000ad54 <i_10706>:
    8000ad54:	e7b11223          	sh	s11,-412(sp)

000000008000ad58 <i_10707>:
    8000ad58:	01b51e63          	bne	a0,s11,8000ad74 <i_10714>

000000008000ad5c <i_10708>:
    8000ad5c:	00b84a63          	blt	a6,a1,8000ad70 <i_10713>

000000008000ad60 <i_10709>:
    8000ad60:	f3411c03          	lh	s8,-204(sp)

000000008000ad64 <i_10710>:
    8000ad64:	e5012423          	sw	a6,-440(sp)

000000008000ad68 <i_10711>:
    8000ad68:	02adf463          	bleu	a0,s11,8000ad90 <i_10721>

000000008000ad6c <i_10712>:
    8000ad6c:	004c5c93          	srli	s9,s8,0x4

000000008000ad70 <i_10713>:
    8000ad70:	1d813423          	sd	s8,456(sp)

000000008000ad74 <i_10714>:
    8000ad74:	00189793          	slli	a5,a7,0x1

000000008000ad78 <i_10715>:
    8000ad78:	e5d14583          	lbu	a1,-419(sp)

000000008000ad7c <i_10716>:
    8000ad7c:	00700493          	li	s1,7

000000008000ad80 <i_10717>:
    8000ad80:	009c96b3          	sll	a3,s9,s1

000000008000ad84 <i_10718>:
    8000ad84:	cedfad93          	slti	s11,t6,-787

000000008000ad88 <i_10719>:
    8000ad88:	2b30e697          	auipc	a3,0x2b30e

000000008000ad8c <i_10720>:
    8000ad8c:	1a810623          	sb	s0,428(sp)

000000008000ad90 <i_10721>:
    8000ad90:	00500693          	li	a3,5

000000008000ad94 <i_10722>:
    8000ad94:	40da50b3          	sra	ra,s4,a3

000000008000ad98 <i_10723>:
    8000ad98:	1a411a83          	lh	s5,420(sp)

000000008000ad9c <i_10724>:
    8000ad9c:	00da8463          	beq	s5,a3,8000ada4 <i_10726>

000000008000ada0 <i_10725>:
    8000ada0:	01b0c463          	blt	ra,s11,8000ada8 <i_10727>

000000008000ada4 <i_10726>:
    8000ada4:	0154d463          	ble	s5,s1,8000adac <i_10728>

000000008000ada8 <i_10727>:
    8000ada8:	09416283          	lwu	t0,148(sp)

000000008000adac <i_10728>:
    8000adac:	01b4d263          	ble	s11,s1,8000adb0 <i_10729>

000000008000adb0 <i_10729>:
    8000adb0:	03ba4633          	div	a2,s4,s11

000000008000adb4 <i_10730>:
    8000adb4:	f0813a03          	ld	s4,-248(sp)

000000008000adb8 <i_10731>:
    8000adb8:	e8013483          	ld	s1,-384(sp)

000000008000adbc <i_10732>:
    8000adbc:	02f00193          	li	gp,47

000000008000adc0 <i_10733>:
    8000adc0:	00365a33          	srl	s4,a2,gp

000000008000adc4 <i_10734>:
    8000adc4:	0231853b          	mulw	a0,gp,gp

000000008000adc8 <i_10735>:
    8000adc8:	0051f833          	and	a6,gp,t0

000000008000adcc <i_10736>:
    8000adcc:	025f72b3          	remu	t0,t5,t0

000000008000add0 <i_10737>:
    8000add0:	f1c12503          	lw	a0,-228(sp)

000000008000add4 <i_10738>:
    8000add4:	0052f833          	and	a6,t0,t0

000000008000add8 <i_10739>:
    8000add8:	00a2f263          	bleu	a0,t0,8000addc <i_10740>

000000008000addc <i_10740>:
    8000addc:	fea13423          	sd	a0,-24(sp)

000000008000ade0 <i_10741>:
    8000ade0:	f4013183          	ld	gp,-192(sp)

000000008000ade4 <i_10742>:
    8000ade4:	18714a83          	lbu	s5,391(sp)

000000008000ade8 <i_10743>:
    8000ade8:	198106a3          	sb	s8,397(sp)

000000008000adec <i_10744>:
    8000adec:	05012c23          	sw	a6,88(sp)

000000008000adf0 <i_10745>:
    8000adf0:	03081bb3          	mulh	s7,a6,a6

000000008000adf4 <i_10746>:
    8000adf4:	19aa4a17          	auipc	s4,0x19aa4

000000008000adf8 <i_10747>:
    8000adf8:	00000013          	nop

000000008000adfc <i_10748>:
    8000adfc:	0b814783          	lbu	a5,184(sp)

000000008000ae00 <i_10749>:
    8000ae00:	74100b93          	li	s7,1857

000000008000ae04 <i_10750>:
    8000ae04:	74500413          	li	s0,1861

000000008000ae08 <i_10751>:
    8000ae08:	0231cd3b          	divw	s10,gp,gp

000000008000ae0c <i_10752>:
    8000ae0c:	ed013203          	ld	tp,-304(sp)

000000008000ae10 <i_10753>:
    8000ae10:	00f79463          	bne	a5,a5,8000ae18 <i_10755>

000000008000ae14 <i_10754>:
    8000ae14:	07d10a83          	lb	s5,125(sp)

000000008000ae18 <i_10755>:
    8000ae18:	45726a93          	ori	s5,tp,1111

000000008000ae1c <i_10756>:
    8000ae1c:	00422ab3          	slt	s5,tp,tp

000000008000ae20 <i_10757>:
    8000ae20:	024d04bb          	mulw	s1,s10,tp

000000008000ae24 <i_10758>:
    8000ae24:	0244c23b          	divw	tp,s1,tp

000000008000ae28 <i_10759>:
    8000ae28:	003cd59b          	srliw	a1,s9,0x3

000000008000ae2c <i_10760>:
    8000ae2c:	f6013483          	ld	s1,-160(sp)

000000008000ae30 <i_10761>:
    8000ae30:	001b8b93          	addi	s7,s7,1
    8000ae34:	fc8beae3          	bltu	s7,s0,8000ae08 <i_10751>

000000008000ae38 <i_10762>:
    8000ae38:	00c00293          	li	t0,12

000000008000ae3c <i_10763>:
    8000ae3c:	0057123b          	sllw	tp,a4,t0

000000008000ae40 <i_10764>:
    8000ae40:	05013983          	ld	s3,80(sp)

000000008000ae44 <i_10765>:
    8000ae44:	f6b12423          	sw	a1,-152(sp)

000000008000ae48 <i_10766>:
    8000ae48:	405289b3          	sub	s3,t0,t0

000000008000ae4c <i_10767>:
    8000ae4c:	413b82bb          	subw	t0,s7,s3

000000008000ae50 <i_10768>:
    8000ae50:	0be15403          	lhu	s0,190(sp)

000000008000ae54 <i_10769>:
    8000ae54:	03e9d9bb          	divuw	s3,s3,t5

000000008000ae58 <i_10770>:
    8000ae58:	07a11983          	lh	s3,122(sp)

000000008000ae5c <i_10771>:
    8000ae5c:	00499293          	slli	t0,s3,0x4

000000008000ae60 <i_10772>:
    8000ae60:	05f10f03          	lb	t5,95(sp)

000000008000ae64 <i_10773>:
    8000ae64:	ef313023          	sd	s3,-288(sp)

000000008000ae68 <i_10774>:
    8000ae68:	03412203          	lw	tp,52(sp)

000000008000ae6c <i_10775>:
    8000ae6c:	0049f463          	bleu	tp,s3,8000ae74 <i_10777>

000000008000ae70 <i_10776>:
    8000ae70:	0d313c23          	sd	s3,216(sp)

000000008000ae74 <i_10777>:
    8000ae74:	0139f263          	bleu	s3,s3,8000ae78 <i_10778>

000000008000ae78 <i_10778>:
    8000ae78:	01a15a83          	lhu	s5,26(sp)

000000008000ae7c <i_10779>:
    8000ae7c:	16413c23          	sd	tp,376(sp)

000000008000ae80 <i_10780>:
    8000ae80:	00400093          	li	ra,4

000000008000ae84 <i_10781>:
    8000ae84:	001299bb          	sllw	s3,t0,ra

000000008000ae88 <i_10782>:
    8000ae88:	4032599b          	sraiw	s3,tp,0x3

000000008000ae8c <i_10783>:
    8000ae8c:	f4413423          	sd	tp,-184(sp)

000000008000ae90 <i_10784>:
    8000ae90:	01540663          	beq	s0,s5,8000ae9c <i_10787>

000000008000ae94 <i_10785>:
    8000ae94:	02844463          	blt	s0,s0,8000aebc <i_10795>

000000008000ae98 <i_10786>:
    8000ae98:	17615403          	lhu	s0,374(sp)

000000008000ae9c <i_10787>:
    8000ae9c:	03540263          	beq	s0,s5,8000aec0 <i_10796>

000000008000aea0 <i_10788>:
    8000aea0:	03ea89bb          	mulw	s3,s5,t5

000000008000aea4 <i_10789>:
    8000aea4:	f0812e23          	sw	s0,-228(sp)

000000008000aea8 <i_10790>:
    8000aea8:	0024161b          	slliw	a2,s0,0x2

000000008000aeac <i_10791>:
    8000aeac:	14815983          	lhu	s3,328(sp)

000000008000aeb0 <i_10792>:
    8000aeb0:	17610803          	lb	a6,374(sp)

000000008000aeb4 <i_10793>:
    8000aeb4:	0010e0b3          	or	ra,ra,ra

000000008000aeb8 <i_10794>:
    8000aeb8:	05012223          	sw	a6,68(sp)

000000008000aebc <i_10795>:
    8000aebc:	00142833          	slt	a6,s0,ra

000000008000aec0 <i_10796>:
    8000aec0:	ed712223          	sw	s7,-316(sp)

000000008000aec4 <i_10797>:
    8000aec4:	0210b0b3          	mulhu	ra,ra,ra

000000008000aec8 <i_10798>:
    8000aec8:	8b200413          	li	s0,-1870

000000008000aecc <i_10799>:
    8000aecc:	8be00a93          	li	s5,-1858

000000008000aed0 <i_10800>:
    8000aed0:	f3510083          	lb	ra,-203(sp)

000000008000aed4 <i_10801>:
    8000aed4:	00140413          	addi	s0,s0,1
    8000aed8:	ff544ce3          	blt	s0,s5,8000aed0 <i_10800>

000000008000aedc <i_10802>:
    8000aedc:	16f14c03          	lbu	s8,367(sp)

000000008000aee0 <i_10803>:
    8000aee0:	fa615683          	lhu	a3,-90(sp)

000000008000aee4 <i_10804>:
    8000aee4:	15311a23          	sh	s3,340(sp)

000000008000aee8 <i_10805>:
    8000aee8:	00d87b33          	and	s6,a6,a3

000000008000aeec <i_10806>:
    8000aeec:	e1c16403          	lwu	s0,-484(sp)

000000008000aef0 <i_10807>:
    8000aef0:	accff213          	andi	tp,t6,-1332

000000008000aef4 <i_10808>:
    8000aef4:	00321c13          	slli	s8,tp,0x3

000000008000aef8 <i_10809>:
    8000aef8:	038cdcbb          	divuw	s9,s9,s8

000000008000aefc <i_10810>:
    8000aefc:	baa7839b          	addiw	t2,a5,-1110

000000008000af00 <i_10811>:
    8000af00:	010dda63          	ble	a6,s11,8000af14 <i_10816>

000000008000af04 <i_10812>:
    8000af04:	007c7463          	bleu	t2,s8,8000af0c <i_10814>

000000008000af08 <i_10813>:
    8000af08:	0ca15803          	lhu	a6,202(sp)

000000008000af0c <i_10814>:
    8000af0c:	12813603          	ld	a2,296(sp)

000000008000af10 <i_10815>:
    8000af10:	00786db3          	or	s11,a6,t2

000000008000af14 <i_10816>:
    8000af14:	03061463          	bne	a2,a6,8000af3c <i_10826>

000000008000af18 <i_10817>:
    8000af18:	034e7a33          	remu	s4,t3,s4

000000008000af1c <i_10818>:
    8000af1c:	e6310b83          	lb	s7,-413(sp)

000000008000af20 <i_10819>:
    8000af20:	02756ebb          	remw	t4,a0,t2

000000008000af24 <i_10820>:
    8000af24:	08011a03          	lh	s4,128(sp)

000000008000af28 <i_10821>:
    8000af28:	03be8e3b          	mulw	t3,t4,s11

000000008000af2c <i_10822>:
    8000af2c:	004c959b          	slliw	a1,s9,0x4

000000008000af30 <i_10823>:
    8000af30:	004e5d93          	srli	s11,t3,0x4

000000008000af34 <i_10824>:
    8000af34:	efb12623          	sw	s11,-276(sp)

000000008000af38 <i_10825>:
    8000af38:	00e00093          	li	ra,14

000000008000af3c <i_10826>:
    8000af3c:	0015d53b          	srlw	a0,a1,ra

000000008000af40 <i_10827>:
    8000af40:	05c14803          	lbu	a6,92(sp)

000000008000af44 <i_10828>:
    8000af44:	17e14e03          	lbu	t3,382(sp)

000000008000af48 <i_10829>:
    8000af48:	14111523          	sh	ra,330(sp)

000000008000af4c <i_10830>:
    8000af4c:	1a407d17          	auipc	s10,0x1a407

000000008000af50 <i_10831>:
    8000af50:	06110683          	lb	a3,97(sp)

000000008000af54 <i_10832>:
    8000af54:	0031d813          	srli	a6,gp,0x3

000000008000af58 <i_10833>:
    8000af58:	1a414e03          	lbu	t3,420(sp)

000000008000af5c <i_10834>:
    8000af5c:	00000013          	nop

000000008000af60 <i_10835>:
    8000af60:	00000013          	nop

000000008000af64 <i_10836>:
    8000af64:	77200693          	li	a3,1906

000000008000af68 <i_10837>:
    8000af68:	77400193          	li	gp,1908

000000008000af6c <i_10838>:
    8000af6c:	03411e03          	lh	t3,52(sp)

000000008000af70 <i_10839>:
    8000af70:	e7211d03          	lh	s10,-398(sp)

000000008000af74 <i_10840>:
    8000af74:	01918e33          	add	t3,gp,s9

000000008000af78 <i_10841>:
    8000af78:	01c6f463          	bleu	t3,a3,8000af80 <i_10843>

000000008000af7c <i_10842>:
    8000af7c:	004d1393          	slli	t2,s10,0x4

000000008000af80 <i_10843>:
    8000af80:	1c611a03          	lh	s4,454(sp)

000000008000af84 <i_10844>:
    8000af84:	13d10483          	lb	s1,317(sp)

000000008000af88 <i_10845>:
    8000af88:	034744bb          	divw	s1,a4,s4

000000008000af8c <i_10846>:
    8000af8c:	10313023          	sd	gp,256(sp)

000000008000af90 <i_10847>:
    8000af90:	00000013          	nop

000000008000af94 <i_10848>:
    8000af94:	03cd43b3          	div	t2,s10,t3

000000008000af98 <i_10849>:
    8000af98:	00168693          	addi	a3,a3,1 # ab318d89 <_end+0x2b308975>
    8000af9c:	fc36e8e3          	bltu	a3,gp,8000af6c <i_10838>

000000008000afa0 <i_10850>:
    8000afa0:	f4416e03          	lwu	t3,-188(sp)

000000008000afa4 <i_10851>:
    8000afa4:	01c6f3b3          	and	t2,a3,t3

000000008000afa8 <i_10852>:
    8000afa8:	01400213          	li	tp,20

000000008000afac <i_10853>:
    8000afac:	00439dbb          	sllw	s11,t2,tp

000000008000afb0 <i_10854>:
    8000afb0:	83700f13          	li	t5,-1993

000000008000afb4 <i_10855>:
    8000afb4:	83c00693          	li	a3,-1988

000000008000afb8 <i_10856>:
    8000afb8:	f2816803          	lwu	a6,-216(sp)

000000008000afbc <i_10857>:
    8000afbc:	f5b11423          	sh	s11,-184(sp)

000000008000afc0 <i_10858>:
    8000afc0:	00000013          	nop

000000008000afc4 <i_10859>:
    8000afc4:	31cd0297          	auipc	t0,0x31cd0

000000008000afc8 <i_10860>:
    8000afc8:	7b500d93          	li	s11,1973

000000008000afcc <i_10861>:
    8000afcc:	7c700493          	li	s1,1991

000000008000afd0 <i_10862>:
    8000afd0:	edd10f23          	sb	t4,-290(sp)

000000008000afd4 <i_10863>:
    8000afd4:	00000013          	nop

000000008000afd8 <i_10864>:
    8000afd8:	001d8d93          	addi	s11,s11,1
    8000afdc:	ffb4dae3          	ble	s11,s1,8000afd0 <i_10862>

000000008000afe0 <i_10865>:
    8000afe0:	08816d83          	lwu	s11,136(sp)

000000008000afe4 <i_10866>:
    8000afe4:	1bb11a23          	sh	s11,436(sp)

000000008000afe8 <i_10867>:
    8000afe8:	03bd9263          	bne	s11,s11,8000b00c <i_10875>

000000008000afec <i_10868>:
    8000afec:	001f0f13          	addi	t5,t5,1
    8000aff0:	fcdf42e3          	blt	t5,a3,8000afb4 <i_10855>

000000008000aff4 <i_10869>:
    8000aff4:	009dfdb3          	and	s11,s11,s1

000000008000aff8 <i_10870>:
    8000aff8:	737e4593          	xori	a1,t3,1847

000000008000affc <i_10871>:
    8000affc:	01b5b3b3          	sltu	t2,a1,s11

000000008000b000 <i_10872>:
    8000b000:	16b10d23          	sb	a1,378(sp)

000000008000b004 <i_10873>:
    8000b004:	ee815e03          	lhu	t3,-280(sp)

000000008000b008 <i_10874>:
    8000b008:	fce15d83          	lhu	s11,-50(sp)

000000008000b00c <i_10875>:
    8000b00c:	01be7db3          	and	s11,t3,s11

000000008000b010 <i_10876>:
    8000b010:	01416383          	lwu	t2,20(sp)

000000008000b014 <i_10877>:
    8000b014:	01200993          	li	s3,18

000000008000b018 <i_10878>:
    8000b018:	0132da3b          	srlw	s4,t0,s3

000000008000b01c <i_10879>:
    8000b01c:	17c12383          	lw	t2,380(sp)

000000008000b020 <i_10880>:
    8000b020:	efe15683          	lhu	a3,-258(sp)

000000008000b024 <i_10881>:
    8000b024:	f2a11b83          	lh	s7,-214(sp)

000000008000b028 <i_10882>:
    8000b028:	033bf9bb          	remuw	s3,s7,s3

000000008000b02c <i_10883>:
    8000b02c:	0379d9b3          	divu	s3,s3,s7

000000008000b030 <i_10884>:
    8000b030:	0339c5b3          	div	a1,s3,s3

000000008000b034 <i_10885>:
    8000b034:	05611083          	lh	ra,86(sp)

000000008000b038 <i_10886>:
    8000b038:	fb615b83          	lhu	s7,-74(sp)

000000008000b03c <i_10887>:
    8000b03c:	413984b3          	sub	s1,s3,s3

000000008000b040 <i_10888>:
    8000b040:	f0a15683          	lhu	a3,-246(sp)

000000008000b044 <i_10889>:
    8000b044:	ff311b23          	sh	s3,-10(sp)

000000008000b048 <i_10890>:
    8000b048:	ee816e83          	lwu	t4,-280(sp)

000000008000b04c <i_10891>:
    8000b04c:	009b9663          	bne	s7,s1,8000b058 <i_10894>

000000008000b050 <i_10892>:
    8000b050:	06710c83          	lb	s9,103(sp)

000000008000b054 <i_10893>:
    8000b054:	ed9429b7          	lui	s3,0xed942

000000008000b058 <i_10894>:
    8000b058:	004bd463          	ble	tp,s7,8000b060 <i_10896>

000000008000b05c <i_10895>:
    8000b05c:	00bc6663          	bltu	s8,a1,8000b068 <i_10898>

000000008000b060 <i_10896>:
    8000b060:	0ac16583          	lwu	a1,172(sp)

000000008000b064 <i_10897>:
    8000b064:	01200993          	li	s3,18

000000008000b068 <i_10898>:
    8000b068:	0136d0b3          	srl	ra,a3,s3

000000008000b06c <i_10899>:
    8000b06c:	4019d693          	srai	a3,s3,0x1

000000008000b070 <i_10900>:
    8000b070:	02800213          	li	tp,40

000000008000b074 <i_10901>:
    8000b074:	404cdcb3          	sra	s9,s9,tp

000000008000b078 <i_10902>:
    8000b078:	01924c63          	blt	tp,s9,8000b090 <i_10908>

000000008000b07c <i_10903>:
    8000b07c:	02d9d23b          	divuw	tp,s3,a3

000000008000b080 <i_10904>:
    8000b080:	0046f863          	bleu	tp,a3,8000b090 <i_10908>

000000008000b084 <i_10905>:
    8000b084:	02a6c463          	blt	a3,a0,8000b0ac <i_10915>

000000008000b088 <i_10906>:
    8000b088:	02420063          	beq	tp,tp,8000b0a8 <i_10914>

000000008000b08c <i_10907>:
    8000b08c:	4042853b          	subw	a0,t0,tp

000000008000b090 <i_10908>:
    8000b090:	1b816a03          	lwu	s4,440(sp)

000000008000b094 <i_10909>:
    8000b094:	024f8263          	beq	t6,tp,8000b0b8 <i_10918>

000000008000b098 <i_10910>:
    8000b098:	10d10aa3          	sb	a3,277(sp)

000000008000b09c <i_10911>:
    8000b09c:	10d11823          	sh	a3,272(sp)

000000008000b0a0 <i_10912>:
    8000b0a0:	13914683          	lbu	a3,313(sp)

000000008000b0a4 <i_10913>:
    8000b0a4:	00000013          	nop

000000008000b0a8 <i_10914>:
    8000b0a8:	033d3c33          	mulhu	s8,s10,s3

000000008000b0ac <i_10915>:
    8000b0ac:	00000013          	nop

000000008000b0b0 <i_10916>:
    8000b0b0:	00000013          	nop

000000008000b0b4 <i_10917>:
    8000b0b4:	0031e1b3          	or	gp,gp,gp

000000008000b0b8 <i_10918>:
    8000b0b8:	00000013          	nop

000000008000b0bc <i_10919>:
    8000b0bc:	02312623          	sw	gp,44(sp)

000000008000b0c0 <i_10920>:
    8000b0c0:	8bd00b13          	li	s6,-1859

000000008000b0c4 <i_10921>:
    8000b0c4:	8cc00d13          	li	s10,-1844

000000008000b0c8 <i_10922>:
    8000b0c8:	4027d193          	srai	gp,a5,0x2

000000008000b0cc <i_10923>:
    8000b0cc:	f3e15e03          	lhu	t3,-194(sp)

000000008000b0d0 <i_10924>:
    8000b0d0:	e6414803          	lbu	a6,-412(sp)

000000008000b0d4 <i_10925>:
    8000b0d4:	01030e33          	add	t3,t1,a6

000000008000b0d8 <i_10926>:
    8000b0d8:	001b0b13          	addi	s6,s6,1
    8000b0dc:	ff6d76e3          	bleu	s6,s10,8000b0c8 <i_10922>

000000008000b0e0 <i_10927>:
    8000b0e0:	fc013503          	ld	a0,-64(sp)

000000008000b0e4 <i_10928>:
    8000b0e4:	fc812e03          	lw	t3,-56(sp)

000000008000b0e8 <i_10929>:
    8000b0e8:	01ce0663          	beq	t3,t3,8000b0f4 <i_10932>

000000008000b0ec <i_10930>:
    8000b0ec:	03e00793          	li	a5,62

000000008000b0f0 <i_10931>:
    8000b0f0:	00f51333          	sll	t1,a0,a5

000000008000b0f4 <i_10932>:
    8000b0f4:	00630863          	beq	t1,t1,8000b104 <i_10936>

000000008000b0f8 <i_10933>:
    8000b0f8:	02637063          	bleu	t1,t1,8000b118 <i_10941>

000000008000b0fc <i_10934>:
    8000b0fc:	01100393          	li	t2,17

000000008000b100 <i_10935>:
    8000b100:	00751b3b          	sllw	s6,a0,t2

000000008000b104 <i_10936>:
    8000b104:	40850433          	sub	s0,a0,s0

000000008000b108 <i_10937>:
    8000b108:	e7011b83          	lh	s7,-400(sp)

000000008000b10c <i_10938>:
    8000b10c:	e5815e83          	lhu	t4,-424(sp)

000000008000b110 <i_10939>:
    8000b110:	12816383          	lwu	t2,296(sp)

000000008000b114 <i_10940>:
    8000b114:	ff610923          	sb	s6,-14(sp)

000000008000b118 <i_10941>:
    8000b118:	0c712023          	sw	t2,192(sp)

000000008000b11c <i_10942>:
    8000b11c:	10813203          	ld	tp,264(sp)

000000008000b120 <i_10943>:
    8000b120:	88a00313          	li	t1,-1910

000000008000b124 <i_10944>:
    8000b124:	89300513          	li	a0,-1901

000000008000b128 <i_10945>:
    8000b128:	00000013          	nop

000000008000b12c <i_10946>:
    8000b12c:	06114783          	lbu	a5,97(sp)

000000008000b130 <i_10947>:
    8000b130:	80600193          	li	gp,-2042

000000008000b134 <i_10948>:
    8000b134:	81100c13          	li	s8,-2031

000000008000b138 <i_10949>:
    8000b138:	00000013          	nop

000000008000b13c <i_10950>:
    8000b13c:	00118193          	addi	gp,gp,1
    8000b140:	ff81cce3          	blt	gp,s8,8000b138 <i_10949>

000000008000b144 <i_10951>:
    8000b144:	05812c03          	lw	s8,88(sp)

000000008000b148 <i_10952>:
    8000b148:	00130313          	addi	t1,t1,1
    8000b14c:	fca36ee3          	bltu	t1,a0,8000b128 <i_10945>

000000008000b150 <i_10953>:
    8000b150:	19416203          	lwu	tp,404(sp)

000000008000b154 <i_10954>:
    8000b154:	014c3a33          	sltu	s4,s8,s4

000000008000b158 <i_10955>:
    8000b158:	1a015b03          	lhu	s6,416(sp)

000000008000b15c <i_10956>:
    8000b15c:	12813a03          	ld	s4,296(sp)

000000008000b160 <i_10957>:
    8000b160:	014a0a63          	beq	s4,s4,8000b174 <i_10962>

000000008000b164 <i_10958>:
    8000b164:	017a0a33          	add	s4,s4,s7

000000008000b168 <i_10959>:
    8000b168:	014a5263          	ble	s4,s4,8000b16c <i_10960>

000000008000b16c <i_10960>:
    8000b16c:	c29a0c13          	addi	s8,s4,-983 # 99aaea1d <_end+0x19a9e609>

000000008000b170 <i_10961>:
    8000b170:	f8412023          	sw	tp,-128(sp)

000000008000b174 <i_10962>:
    8000b174:	038c3c33          	mulhu	s8,s8,s8

000000008000b178 <i_10963>:
    8000b178:	038c6063          	bltu	s8,s8,8000b198 <i_10971>

000000008000b17c <i_10964>:
    8000b17c:	08a11f03          	lh	t5,138(sp)

000000008000b180 <i_10965>:
    8000b180:	03826463          	bltu	tp,s8,8000b1a8 <i_10975>

000000008000b184 <i_10966>:
    8000b184:	03d20063          	beq	tp,t4,8000b1a4 <i_10974>

000000008000b188 <i_10967>:
    8000b188:	018c5c63          	ble	s8,s8,8000b1a0 <i_10973>

000000008000b18c <i_10968>:
    8000b18c:	ea815b03          	lhu	s6,-344(sp)

000000008000b190 <i_10969>:
    8000b190:	01ea1663          	bne	s4,t5,8000b19c <i_10972>

000000008000b194 <i_10970>:
    8000b194:	e4412e23          	sw	tp,-420(sp)

000000008000b198 <i_10971>:
    8000b198:	15215a83          	lhu	s5,338(sp)

000000008000b19c <i_10972>:
    8000b19c:	ee412a03          	lw	s4,-284(sp)

000000008000b1a0 <i_10973>:
    8000b1a0:	01516ab3          	or	s5,sp,s5

000000008000b1a4 <i_10974>:
    8000b1a4:	11410fa3          	sb	s4,287(sp)

000000008000b1a8 <i_10975>:
    8000b1a8:	035a6cbb          	remw	s9,s4,s5

000000008000b1ac <i_10976>:
    8000b1ac:	15813a03          	ld	s4,344(sp)

000000008000b1b0 <i_10977>:
    8000b1b0:	f3615503          	lhu	a0,-202(sp)

000000008000b1b4 <i_10978>:
    8000b1b4:	05211a03          	lh	s4,82(sp)

000000008000b1b8 <i_10979>:
    8000b1b8:	00aac663          	blt	s5,a0,8000b1c4 <i_10982>

000000008000b1bc <i_10980>:
    8000b1bc:	034bfd33          	remu	s10,s7,s4

000000008000b1c0 <i_10981>:
    8000b1c0:	08813683          	ld	a3,136(sp)

000000008000b1c4 <i_10982>:
    8000b1c4:	11913823          	sd	s9,272(sp)

000000008000b1c8 <i_10983>:
    8000b1c8:	ea612c23          	sw	t1,-328(sp)

000000008000b1cc <i_10984>:
    8000b1cc:	02dd63bb          	remw	t2,s10,a3

000000008000b1d0 <i_10985>:
    8000b1d0:	81b00a13          	li	s4,-2021

000000008000b1d4 <i_10986>:
    8000b1d4:	82600313          	li	t1,-2010

000000008000b1d8 <i_10987>:
    8000b1d8:	01552833          	slt	a6,a0,s5

000000008000b1dc <i_10988>:
    8000b1dc:	0391c53b          	divw	a0,gp,s9

000000008000b1e0 <i_10989>:
    8000b1e0:	16010983          	lb	s3,352(sp)

000000008000b1e4 <i_10990>:
    8000b1e4:	02a111b3          	mulh	gp,sp,a0

000000008000b1e8 <i_10991>:
    8000b1e8:	01015d03          	lhu	s10,16(sp)

000000008000b1ec <i_10992>:
    8000b1ec:	1ca15c03          	lhu	s8,458(sp)

000000008000b1f0 <i_10993>:
    8000b1f0:	00e6d863          	ble	a4,a3,8000b200 <i_10997>

000000008000b1f4 <i_10994>:
    8000b1f4:	00e7d263          	ble	a4,a5,8000b1f8 <i_10995>

000000008000b1f8 <i_10995>:
    8000b1f8:	fbe15f03          	lhu	t5,-66(sp)

000000008000b1fc <i_10996>:
    8000b1fc:	04016c83          	lwu	s9,64(sp)

000000008000b200 <i_10997>:
    8000b200:	03d6eabb          	remw	s5,a3,t4

000000008000b204 <i_10998>:
    8000b204:	e5910fa3          	sb	s9,-417(sp)

000000008000b208 <i_10999>:
    8000b208:	01ef26b3          	slt	a3,t5,t5

000000008000b20c <i_11000>:
    8000b20c:	e5810f03          	lb	t5,-424(sp)

000000008000b210 <i_11001>:
    8000b210:	0d016683          	lwu	a3,208(sp)

000000008000b214 <i_11002>:
    8000b214:	001a0a13          	addi	s4,s4,1
    8000b218:	fc6a10e3          	bne	s4,t1,8000b1d8 <i_10987>

000000008000b21c <i_11003>:
    8000b21c:	024b0b33          	mul	s6,s6,tp

000000008000b220 <i_11004>:
    8000b220:	03f00693          	li	a3,63

000000008000b224 <i_11005>:
    8000b224:	00df5b33          	srl	s6,t5,a3

000000008000b228 <i_11006>:
    8000b228:	eb810f03          	lb	t5,-328(sp)

000000008000b22c <i_11007>:
    8000b22c:	00a00f13          	li	t5,10

000000008000b230 <i_11008>:
    8000b230:	01e710b3          	sll	ra,a4,t5

000000008000b234 <i_11009>:
    8000b234:	8a700e93          	li	t4,-1881

000000008000b238 <i_11010>:
    8000b238:	8a900b13          	li	s6,-1879

000000008000b23c <i_11011>:
    8000b23c:	02dc6c3b          	remw	s8,s8,a3

000000008000b240 <i_11012>:
    8000b240:	001e8e93          	addi	t4,t4,1
    8000b244:	ff6ecae3          	blt	t4,s6,8000b238 <i_11010>

000000008000b248 <i_11013>:
    8000b248:	009f04b3          	add	s1,t5,s1

000000008000b24c <i_11014>:
    8000b24c:	10412f03          	lw	t5,260(sp)

000000008000b250 <i_11015>:
    8000b250:	f9211b03          	lh	s6,-110(sp)

000000008000b254 <i_11016>:
    8000b254:	13e11c23          	sh	t5,312(sp)

000000008000b258 <i_11017>:
    8000b258:	e6e11503          	lh	a0,-402(sp)

000000008000b25c <i_11018>:
    8000b25c:	03cf3b93          	sltiu	s7,t5,60

000000008000b260 <i_11019>:
    8000b260:	f1f14303          	lbu	t1,-225(sp)

000000008000b264 <i_11020>:
    8000b264:	0a811f03          	lh	t5,168(sp)

000000008000b268 <i_11021>:
    8000b268:	1b710723          	sb	s7,430(sp)

000000008000b26c <i_11022>:
    8000b26c:	03ebc433          	div	s0,s7,t5

000000008000b270 <i_11023>:
    8000b270:	02813c83          	ld	s9,40(sp)

000000008000b274 <i_11024>:
    8000b274:	f7410d03          	lb	s10,-140(sp)

000000008000b278 <i_11025>:
    8000b278:	3e5b8b9b          	addiw	s7,s7,997

000000008000b27c <i_11026>:
    8000b27c:	0c394317          	auipc	t1,0xc394

000000008000b280 <i_11027>:
    8000b280:	eed10a83          	lb	s5,-275(sp)

000000008000b284 <i_11028>:
    8000b284:	77c00a13          	li	s4,1916

000000008000b288 <i_11029>:
    8000b288:	78600b93          	li	s7,1926

000000008000b28c <i_11030>:
    8000b28c:	00255513          	srli	a0,a0,0x2

000000008000b290 <i_11031>:
    8000b290:	fb912623          	sw	s9,-84(sp)

000000008000b294 <i_11032>:
    8000b294:	f5e13823          	sd	t5,-176(sp)

000000008000b298 <i_11033>:
    8000b298:	4aec8593          	addi	a1,s9,1198 # fffffffffed1b4ae <_end+0xffffffff7ed0b09a>

000000008000b29c <i_11034>:
    8000b29c:	fa013503          	ld	a0,-96(sp)

000000008000b2a0 <i_11035>:
    8000b2a0:	14812a83          	lw	s5,328(sp)

000000008000b2a4 <i_11036>:
    8000b2a4:	035aeab3          	rem	s5,s5,s5

000000008000b2a8 <i_11037>:
    8000b2a8:	01510aa3          	sb	s5,21(sp)

000000008000b2ac <i_11038>:
    8000b2ac:	7efa8093          	addi	ra,s5,2031

000000008000b2b0 <i_11039>:
    8000b2b0:	c0c87513          	andi	a0,a6,-1012

000000008000b2b4 <i_11040>:
    8000b2b4:	001a0a13          	addi	s4,s4,1
    8000b2b8:	fd4bfae3          	bleu	s4,s7,8000b28c <i_11030>

000000008000b2bc <i_11041>:
    8000b2bc:	00e00693          	li	a3,14

000000008000b2c0 <i_11042>:
    8000b2c0:	00d0d4bb          	srlw	s1,ra,a3

000000008000b2c4 <i_11043>:
    8000b2c4:	06812803          	lw	a6,104(sp)

000000008000b2c8 <i_11044>:
    8000b2c8:	f4d11823          	sh	a3,-176(sp)

000000008000b2cc <i_11045>:
    8000b2cc:	f3012a83          	lw	s5,-208(sp)

000000008000b2d0 <i_11046>:
    8000b2d0:	e3a11a83          	lh	s5,-454(sp)

000000008000b2d4 <i_11047>:
    8000b2d4:	f6a11423          	sh	a0,-152(sp)

000000008000b2d8 <i_11048>:
    8000b2d8:	09016803          	lwu	a6,144(sp)

000000008000b2dc <i_11049>:
    8000b2dc:	ea913823          	sd	s1,-336(sp)

000000008000b2e0 <i_11050>:
    8000b2e0:	01400613          	li	a2,20

000000008000b2e4 <i_11051>:
    8000b2e4:	00c797bb          	sllw	a5,a5,a2

000000008000b2e8 <i_11052>:
    8000b2e8:	82a00193          	li	gp,-2006

000000008000b2ec <i_11053>:
    8000b2ec:	83800093          	li	ra,-1992

000000008000b2f0 <i_11054>:
    8000b2f0:	00000013          	nop

000000008000b2f4 <i_11055>:
    8000b2f4:	03300993          	li	s3,51

000000008000b2f8 <i_11056>:
    8000b2f8:	0131ddb3          	srl	s11,gp,s3

000000008000b2fc <i_11057>:
    8000b2fc:	02cb5063          	ble	a2,s6,8000b31c <i_11064>

000000008000b300 <i_11058>:
    8000b300:	00118193          	addi	gp,gp,1
    8000b304:	fe11e6e3          	bltu	gp,ra,8000b2f0 <i_11054>

000000008000b308 <i_11059>:
    8000b308:	03bd9db3          	mulh	s11,s11,s11

000000008000b30c <i_11060>:
    8000b30c:	4015d593          	srai	a1,a1,0x1

000000008000b310 <i_11061>:
    8000b310:	11015283          	lhu	t0,272(sp)

000000008000b314 <i_11062>:
    8000b314:	02f9c7b3          	div	a5,s3,a5

000000008000b318 <i_11063>:
    8000b318:	10c16403          	lwu	s0,268(sp)

000000008000b31c <i_11064>:
    8000b31c:	405407bb          	subw	a5,s0,t0

000000008000b320 <i_11065>:
    8000b320:	2d4b0b13          	addi	s6,s6,724

000000008000b324 <i_11066>:
    8000b324:	f9c14403          	lbu	s0,-100(sp)

000000008000b328 <i_11067>:
    8000b328:	f4012303          	lw	t1,-192(sp)

000000008000b32c <i_11068>:
    8000b32c:	e6014303          	lbu	t1,-416(sp)

000000008000b330 <i_11069>:
    8000b330:	ef210d03          	lb	s10,-270(sp)

000000008000b334 <i_11070>:
    8000b334:	00220863          	beq	tp,sp,8000b344 <i_11074>

000000008000b338 <i_11071>:
    8000b338:	002d3d33          	sltu	s10,s10,sp

000000008000b33c <i_11072>:
    8000b33c:	e3816803          	lwu	a6,-456(sp)

000000008000b340 <i_11073>:
    8000b340:	014d7663          	bleu	s4,s10,8000b34c <i_11076>

000000008000b344 <i_11074>:
    8000b344:	00bd4c63          	blt	s10,a1,8000b35c <i_11080>

000000008000b348 <i_11075>:
    8000b348:	15013583          	ld	a1,336(sp)

000000008000b34c <i_11076>:
    8000b34c:	13e15a03          	lhu	s4,318(sp)

000000008000b350 <i_11077>:
    8000b350:	f7816403          	lwu	s0,-136(sp)

000000008000b354 <i_11078>:
    8000b354:	00b5f863          	bleu	a1,a1,8000b364 <i_11082>

000000008000b358 <i_11079>:
    8000b358:	034cea3b          	remw	s4,s9,s4

000000008000b35c <i_11080>:
    8000b35c:	0a214f03          	lbu	t5,162(sp)

000000008000b360 <i_11081>:
    8000b360:	01e5b5b3          	sltu	a1,a1,t5

000000008000b364 <i_11082>:
    8000b364:	49740d93          	addi	s11,s0,1175

000000008000b368 <i_11083>:
    8000b368:	00ba6a63          	bltu	s4,a1,8000b37c <i_11088>

000000008000b36c <i_11084>:
    8000b36c:	e7211503          	lh	a0,-398(sp)

000000008000b370 <i_11085>:
    8000b370:	fe412503          	lw	a0,-28(sp)

000000008000b374 <i_11086>:
    8000b374:	29ec7c93          	andi	s9,s8,670

000000008000b378 <i_11087>:
    8000b378:	2b156c13          	ori	s8,a0,689

000000008000b37c <i_11088>:
    8000b37c:	efe12023          	sw	t5,-288(sp)

000000008000b380 <i_11089>:
    8000b380:	05812d03          	lw	s10,88(sp)

000000008000b384 <i_11090>:
    8000b384:	72e00f13          	li	t5,1838

000000008000b388 <i_11091>:
    8000b388:	73100213          	li	tp,1841

000000008000b38c <i_11092>:
    8000b38c:	03cdd263          	ble	t3,s11,8000b3b0 <i_11101>

000000008000b390 <i_11093>:
    8000b390:	01554a63          	blt	a0,s5,8000b3a4 <i_11098>

000000008000b394 <i_11094>:
    8000b394:	00000013          	nop

000000008000b398 <i_11095>:
    8000b398:	e4013a83          	ld	s5,-448(sp)

000000008000b39c <i_11096>:
    8000b39c:	00000013          	nop

000000008000b3a0 <i_11097>:
    8000b3a0:	12414d83          	lbu	s11,292(sp)

000000008000b3a4 <i_11098>:
    8000b3a4:	00000013          	nop

000000008000b3a8 <i_11099>:
    8000b3a8:	01d00493          	li	s1,29

000000008000b3ac <i_11100>:
    8000b3ac:	009697b3          	sll	a5,a3,s1

000000008000b3b0 <i_11101>:
    8000b3b0:	09511e23          	sh	s5,156(sp)

000000008000b3b4 <i_11102>:
    8000b3b4:	01baa3b3          	slt	t2,s5,s11

000000008000b3b8 <i_11103>:
    8000b3b8:	001f0f13          	addi	t5,t5,1
    8000b3bc:	fde278e3          	bleu	t5,tp,8000b38c <i_11092>

000000008000b3c0 <i_11104>:
    8000b3c0:	ede10383          	lb	t2,-290(sp)

000000008000b3c4 <i_11105>:
    8000b3c4:	02f38633          	mul	a2,t2,a5

000000008000b3c8 <i_11106>:
    8000b3c8:	029d37b3          	mulhu	a5,s10,s1

000000008000b3cc <i_11107>:
    8000b3cc:	09b12623          	sw	s11,140(sp)

000000008000b3d0 <i_11108>:
    8000b3d0:	15610d03          	lb	s10,342(sp)

000000008000b3d4 <i_11109>:
    8000b3d4:	03ad07b3          	mul	a5,s10,s10

000000008000b3d8 <i_11110>:
    8000b3d8:	00f7e663          	bltu	a5,a5,8000b3e4 <i_11113>

000000008000b3dc <i_11111>:
    8000b3dc:	00816803          	lwu	a6,8(sp)

000000008000b3e0 <i_11112>:
    8000b3e0:	03bd7463          	bleu	s11,s10,8000b408 <i_11122>

000000008000b3e4 <i_11113>:
    8000b3e4:	1a412d03          	lw	s10,420(sp)

000000008000b3e8 <i_11114>:
    8000b3e8:	00000013          	nop

000000008000b3ec <i_11115>:
    8000b3ec:	e6012803          	lw	a6,-416(sp)

000000008000b3f0 <i_11116>:
    8000b3f0:	404d5693          	srai	a3,s10,0x4

000000008000b3f4 <i_11117>:
    8000b3f4:	00000013          	nop

000000008000b3f8 <i_11118>:
    8000b3f8:	f7c16a83          	lwu	s5,-132(sp)

000000008000b3fc <i_11119>:
    8000b3fc:	0cc12223          	sw	a2,196(sp)

000000008000b400 <i_11120>:
    8000b400:	00000013          	nop

000000008000b404 <i_11121>:
    8000b404:	f9c12083          	lw	ra,-100(sp)

000000008000b408 <i_11122>:
    8000b408:	00000013          	nop

000000008000b40c <i_11123>:
    8000b40c:	19110783          	lb	a5,401(sp)

000000008000b410 <i_11124>:
    8000b410:	83000293          	li	t0,-2000

000000008000b414 <i_11125>:
    8000b414:	83600d93          	li	s11,-1994

000000008000b418 <i_11126>:
    8000b418:	fcf11523          	sh	a5,-54(sp)

000000008000b41c <i_11127>:
    8000b41c:	f1211083          	lh	ra,-238(sp)

000000008000b420 <i_11128>:
    8000b420:	00128293          	addi	t0,t0,1 # b1cdafc5 <_end+0x31ccabb1>
    8000b424:	fe5ddae3          	ble	t0,s11,8000b418 <i_11126>

000000008000b428 <i_11129>:
    8000b428:	085aff13          	andi	t5,s5,133

000000008000b42c <i_11130>:
    8000b42c:	05414f03          	lbu	t5,84(sp)

000000008000b430 <i_11131>:
    8000b430:	31af2613          	slti	a2,t5,794

000000008000b434 <i_11132>:
    8000b434:	17110783          	lb	a5,369(sp)

000000008000b438 <i_11133>:
    8000b438:	02cf6463          	bltu	t5,a2,8000b460 <i_11143>

000000008000b43c <i_11134>:
    8000b43c:	00f65263          	ble	a5,a2,8000b440 <i_11135>

000000008000b440 <i_11135>:
    8000b440:	18f11c23          	sh	a5,408(sp)

000000008000b444 <i_11136>:
    8000b444:	02c7ddb3          	divu	s11,a5,a2

000000008000b448 <i_11137>:
    8000b448:	09c12c03          	lw	s8,156(sp)

000000008000b44c <i_11138>:
    8000b44c:	e6210603          	lb	a2,-414(sp)

000000008000b450 <i_11139>:
    8000b450:	f5e11823          	sh	t5,-176(sp)

000000008000b454 <i_11140>:
    8000b454:	05813423          	sd	s8,72(sp)

000000008000b458 <i_11141>:
    8000b458:	0a112a23          	sw	ra,180(sp)

000000008000b45c <i_11142>:
    8000b45c:	0fe10223          	sb	t5,228(sp)

000000008000b460 <i_11143>:
    8000b460:	5a14fd97          	auipc	s11,0x5a14f

000000008000b464 <i_11144>:
    8000b464:	018e6c33          	or	s8,t3,s8

000000008000b468 <i_11145>:
    8000b468:	73b00e13          	li	t3,1851

000000008000b46c <i_11146>:
    8000b46c:	74d00093          	li	ra,1869

000000008000b470 <i_11147>:
    8000b470:	1a013983          	ld	s3,416(sp)

000000008000b474 <i_11148>:
    8000b474:	e4013b03          	ld	s6,-448(sp)

000000008000b478 <i_11149>:
    8000b478:	334ec597          	auipc	a1,0x334ec

000000008000b47c <i_11150>:
    8000b47c:	001e0e13          	addi	t3,t3,1
    8000b480:	ffc0d8e3          	ble	t3,ra,8000b470 <i_11147>

000000008000b484 <i_11151>:
    8000b484:	01758a63          	beq	a1,s7,8000b498 <i_11156>

000000008000b488 <i_11152>:
    8000b488:	00e00d93          	li	s11,14

000000008000b48c <i_11153>:
    8000b48c:	01bdd9b3          	srl	s3,s11,s11

000000008000b490 <i_11154>:
    8000b490:	0359cabb          	divw	s5,s3,s5

000000008000b494 <i_11155>:
    8000b494:	0ec16183          	lwu	gp,236(sp)

000000008000b498 <i_11156>:
    8000b498:	1b016183          	lwu	gp,432(sp)

000000008000b49c <i_11157>:
    8000b49c:	f3b11223          	sh	s11,-220(sp)

000000008000b4a0 <i_11158>:
    8000b4a0:	018f5863          	ble	s8,t5,8000b4b0 <i_11162>

000000008000b4a4 <i_11159>:
    8000b4a4:	01499a63          	bne	s3,s4,8000b4b8 <i_11164>

000000008000b4a8 <i_11160>:
    8000b4a8:	ee011383          	lh	t2,-288(sp)

000000008000b4ac <i_11161>:
    8000b4ac:	06d14483          	lbu	s1,109(sp)

000000008000b4b0 <i_11162>:
    8000b4b0:	01c00393          	li	t2,28

000000008000b4b4 <i_11163>:
    8000b4b4:	007c9ab3          	sll	s5,s9,t2

000000008000b4b8 <i_11164>:
    8000b4b8:	01bdea63          	bltu	s11,s11,8000b4cc <i_11169>

000000008000b4bc <i_11165>:
    8000b4bc:	00000013          	nop

000000008000b4c0 <i_11166>:
    8000b4c0:	f4813183          	ld	gp,-184(sp)

000000008000b4c4 <i_11167>:
    8000b4c4:	0141b1b3          	sltu	gp,gp,s4

000000008000b4c8 <i_11168>:
    8000b4c8:	0231fa3b          	remuw	s4,gp,gp

000000008000b4cc <i_11169>:
    8000b4cc:	007a61b3          	or	gp,s4,t2

000000008000b4d0 <i_11170>:
    8000b4d0:	e6215383          	lhu	t2,-414(sp)

000000008000b4d4 <i_11171>:
    8000b4d4:	83c00c13          	li	s8,-1988

000000008000b4d8 <i_11172>:
    8000b4d8:	84900d93          	li	s11,-1975

000000008000b4dc <i_11173>:
    8000b4dc:	001c0c13          	addi	s8,s8,1
    8000b4e0:	ffbc4ee3          	blt	s8,s11,8000b4dc <i_11173>

000000008000b4e4 <i_11174>:
    8000b4e4:	eee15b83          	lhu	s7,-274(sp)

000000008000b4e8 <i_11175>:
    8000b4e8:	00319663          	bne	gp,gp,8000b4f4 <i_11178>

000000008000b4ec <i_11176>:
    8000b4ec:	54d1e393          	ori	t2,gp,1357

000000008000b4f0 <i_11177>:
    8000b4f0:	13f11f23          	sh	t6,318(sp)

000000008000b4f4 <i_11178>:
    8000b4f4:	0341d1bb          	divuw	gp,gp,s4

000000008000b4f8 <i_11179>:
    8000b4f8:	0061f463          	bleu	t1,gp,8000b500 <i_11181>

000000008000b4fc <i_11180>:
    8000b4fc:	19a15f03          	lhu	t5,410(sp)

000000008000b500 <i_11181>:
    8000b500:	023b5063          	ble	gp,s6,8000b520 <i_11189>

000000008000b504 <i_11182>:
    8000b504:	e6f14483          	lbu	s1,-401(sp)

000000008000b508 <i_11183>:
    8000b508:	fb813183          	ld	gp,-72(sp)

000000008000b50c <i_11184>:
    8000b50c:	154106a3          	sb	s4,333(sp)

000000008000b510 <i_11185>:
    8000b510:	05211a03          	lh	s4,82(sp)

000000008000b514 <i_11186>:
    8000b514:	00000013          	nop

000000008000b518 <i_11187>:
    8000b518:	403b0b33          	sub	s6,s6,gp

000000008000b51c <i_11188>:
    8000b51c:	f6310523          	sb	gp,-150(sp)

000000008000b520 <i_11189>:
    8000b520:	00000013          	nop

000000008000b524 <i_11190>:
    8000b524:	01416a33          	or	s4,sp,s4

000000008000b528 <i_11191>:
    8000b528:	7ef00f13          	li	t5,2031

000000008000b52c <i_11192>:
    8000b52c:	7fe00193          	li	gp,2046

000000008000b530 <i_11193>:
    8000b530:	ce5a0a13          	addi	s4,s4,-795

000000008000b534 <i_11194>:
    8000b534:	03700e13          	li	t3,55

000000008000b538 <i_11195>:
    8000b538:	41cb52b3          	sra	t0,s6,t3

000000008000b53c <i_11196>:
    8000b53c:	10615b83          	lhu	s7,262(sp)

000000008000b540 <i_11197>:
    8000b540:	001f0f13          	addi	t5,t5,1
    8000b544:	fe3f16e3          	bne	t5,gp,8000b530 <i_11193>

000000008000b548 <i_11198>:
    8000b548:	0f910183          	lb	gp,249(sp)

000000008000b54c <i_11199>:
    8000b54c:	663a4e13          	xori	t3,s4,1635

000000008000b550 <i_11200>:
    8000b550:	014b0c63          	beq	s6,s4,8000b568 <i_11206>

000000008000b554 <i_11201>:
    8000b554:	403a02bb          	subw	t0,s4,gp

000000008000b558 <i_11202>:
    8000b558:	03c193b3          	mulh	t2,gp,t3

000000008000b55c <i_11203>:
    8000b55c:	12512c23          	sw	t0,312(sp)

000000008000b560 <i_11204>:
    8000b560:	1c815183          	lhu	gp,456(sp)

000000008000b564 <i_11205>:
    8000b564:	ee710c03          	lb	s8,-281(sp)

000000008000b568 <i_11206>:
    8000b568:	e7a14183          	lbu	gp,-390(sp)

000000008000b56c <i_11207>:
    8000b56c:	0e114183          	lbu	gp,225(sp)

000000008000b570 <i_11208>:
    8000b570:	00900293          	li	t0,9

000000008000b574 <i_11209>:
    8000b574:	00535ab3          	srl	s5,t1,t0

000000008000b578 <i_11210>:
    8000b578:	13412023          	sw	s4,288(sp)

000000008000b57c <i_11211>:
    8000b57c:	034aca33          	div	s4,s5,s4

000000008000b580 <i_11212>:
    8000b580:	01179e63          	bne	a5,a7,8000b59c <i_11219>

000000008000b584 <i_11213>:
    8000b584:	015347b3          	xor	a5,t1,s5

000000008000b588 <i_11214>:
    8000b588:	011a7c63          	bleu	a7,s4,8000b5a0 <i_11220>

000000008000b58c <i_11215>:
    8000b58c:	014ade63          	ble	s4,s5,8000b5a8 <i_11222>

000000008000b590 <i_11216>:
    8000b590:	1c815603          	lhu	a2,456(sp)

000000008000b594 <i_11217>:
    8000b594:	01478e33          	add	t3,a5,s4

000000008000b598 <i_11218>:
    8000b598:	0fe14283          	lbu	t0,254(sp)

000000008000b59c <i_11219>:
    8000b59c:	1cc11e23          	sh	a2,476(sp)

000000008000b5a0 <i_11220>:
    8000b5a0:	0367b7b3          	mulhu	a5,a5,s6

000000008000b5a4 <i_11221>:
    8000b5a4:	f9811a83          	lh	s5,-104(sp)

000000008000b5a8 <i_11222>:
    8000b5a8:	12e15083          	lhu	ra,302(sp)

000000008000b5ac <i_11223>:
    8000b5ac:	00f00493          	li	s1,15

000000008000b5b0 <i_11224>:
    8000b5b0:	409a5e33          	sra	t3,s4,s1

000000008000b5b4 <i_11225>:
    8000b5b4:	14012a03          	lw	s4,320(sp)

000000008000b5b8 <i_11226>:
    8000b5b8:	021e5463          	ble	ra,t3,8000b5e0 <i_11236>

000000008000b5bc <i_11227>:
    8000b5bc:	48a7b793          	sltiu	a5,a5,1162

000000008000b5c0 <i_11228>:
    8000b5c0:	f5b13423          	sd	s11,-184(sp)

000000008000b5c4 <i_11229>:
    8000b5c4:	31e4f093          	andi	ra,s1,798

000000008000b5c8 <i_11230>:
    8000b5c8:	00109e63          	bne	ra,ra,8000b5e4 <i_11237>

000000008000b5cc <i_11231>:
    8000b5cc:	009bfe63          	bleu	s1,s7,8000b5e8 <i_11238>

000000008000b5d0 <i_11232>:
    8000b5d0:	05416a03          	lwu	s4,84(sp)

000000008000b5d4 <i_11233>:
    8000b5d4:	013a3a33          	sltu	s4,s4,s3

000000008000b5d8 <i_11234>:
    8000b5d8:	014e0c63          	beq	t3,s4,8000b5f0 <i_11240>

000000008000b5dc <i_11235>:
    8000b5dc:	0fb11d23          	sh	s11,250(sp)

000000008000b5e0 <i_11236>:
    8000b5e0:	00000013          	nop

000000008000b5e4 <i_11237>:
    8000b5e4:	1be11483          	lh	s1,446(sp)

000000008000b5e8 <i_11238>:
    8000b5e8:	0a1105a3          	sb	ra,171(sp)

000000008000b5ec <i_11239>:
    8000b5ec:	fa911f23          	sh	s1,-66(sp)

000000008000b5f0 <i_11240>:
    8000b5f0:	4024d21b          	sraiw	tp,s1,0x2

000000008000b5f4 <i_11241>:
    8000b5f4:	0094a233          	slt	tp,s1,s1

000000008000b5f8 <i_11242>:
    8000b5f8:	76a00d93          	li	s11,1898

000000008000b5fc <i_11243>:
    8000b5fc:	77200093          	li	ra,1906

000000008000b600 <i_11244>:
    8000b600:	01b273b3          	and	t2,tp,s11

000000008000b604 <i_11245>:
    8000b604:	0043e263          	bltu	t2,tp,8000b608 <i_11246>

000000008000b608 <i_11246>:
    8000b608:	04410623          	sb	tp,76(sp)

000000008000b60c <i_11247>:
    8000b60c:	03c12583          	lw	a1,60(sp)

000000008000b610 <i_11248>:
    8000b610:	0cd10183          	lb	gp,205(sp)

000000008000b614 <i_11249>:
    8000b614:	e8011603          	lh	a2,-384(sp)

000000008000b618 <i_11250>:
    8000b618:	021a9463          	bne	s5,ra,8000b640 <i_11259>

000000008000b61c <i_11251>:
    8000b61c:	00ca8ab3          	add	s5,s5,a2

000000008000b620 <i_11252>:
    8000b620:	05114d03          	lbu	s10,81(sp)

000000008000b624 <i_11253>:
    8000b624:	001d8d93          	addi	s11,s11,1 # da15a461 <_end+0x5a14a04d>
    8000b628:	fdb0dce3          	ble	s11,ra,8000b600 <i_11244>

000000008000b62c <i_11254>:
    8000b62c:	415a8633          	sub	a2,s5,s5

000000008000b630 <i_11255>:
    8000b630:	13a10603          	lb	a2,314(sp)

000000008000b634 <i_11256>:
    8000b634:	02c82833          	mulhsu	a6,a6,a2

000000008000b638 <i_11257>:
    8000b638:	4106063b          	subw	a2,a2,a6

000000008000b63c <i_11258>:
    8000b63c:	00a67863          	bleu	a0,a2,8000b64c <i_11262>

000000008000b640 <i_11259>:
    8000b640:	00484833          	xor	a6,a6,tp

000000008000b644 <i_11260>:
    8000b644:	01100613          	li	a2,17

000000008000b648 <i_11261>:
    8000b648:	40cbd63b          	sraw	a2,s7,a2

000000008000b64c <i_11262>:
    8000b64c:	11e15603          	lhu	a2,286(sp)

000000008000b650 <i_11263>:
    8000b650:	f1d14c03          	lbu	s8,-227(sp)

000000008000b654 <i_11264>:
    8000b654:	01dbeeb3          	or	t4,s7,t4

000000008000b658 <i_11265>:
    8000b658:	01710d23          	sb	s7,26(sp)

000000008000b65c <i_11266>:
    8000b65c:	1d614803          	lbu	a6,470(sp)

000000008000b660 <i_11267>:
    8000b660:	00cee863          	bltu	t4,a2,8000b670 <i_11271>

000000008000b664 <i_11268>:
    8000b664:	ede11e83          	lh	t4,-290(sp)

000000008000b668 <i_11269>:
    8000b668:	6217fe97          	auipc	t4,0x6217f

000000008000b66c <i_11270>:
    8000b66c:	030787b3          	mul	a5,a5,a6

000000008000b670 <i_11271>:
    8000b670:	01ae8cb3          	add	s9,t4,s10

000000008000b674 <i_11272>:
    8000b674:	ec815603          	lhu	a2,-312(sp)

000000008000b678 <i_11273>:
    8000b678:	12a11c83          	lh	s9,298(sp)

000000008000b67c <i_11274>:
    8000b67c:	02100a93          	li	s5,33

000000008000b680 <i_11275>:
    8000b680:	015e97b3          	sll	a5,t4,s5

000000008000b684 <i_11276>:
    8000b684:	1cc12223          	sw	a2,452(sp)

000000008000b688 <i_11277>:
    8000b688:	eb812e03          	lw	t3,-328(sp)

000000008000b68c <i_11278>:
    8000b68c:	00c44663          	blt	s0,a2,8000b698 <i_11281>

000000008000b690 <i_11279>:
    8000b690:	959e4e93          	xori	t4,t3,-1703

000000008000b694 <i_11280>:
    8000b694:	015d0233          	add	tp,s10,s5

000000008000b698 <i_11281>:
    8000b698:	00200e13          	li	t3,2

000000008000b69c <i_11282>:
    8000b69c:	41cad1bb          	sraw	gp,s5,t3

000000008000b6a0 <i_11283>:
    8000b6a0:	02215a83          	lhu	s5,34(sp)

000000008000b6a4 <i_11284>:
    8000b6a4:	6c7e7a93          	andi	s5,t3,1735

000000008000b6a8 <i_11285>:
    8000b6a8:	07016e03          	lwu	t3,112(sp)

000000008000b6ac <i_11286>:
    8000b6ac:	eb012e03          	lw	t3,-336(sp)

000000008000b6b0 <i_11287>:
    8000b6b0:	41c181bb          	subw	gp,gp,t3

000000008000b6b4 <i_11288>:
    8000b6b4:	e5214183          	lbu	gp,-430(sp)

000000008000b6b8 <i_11289>:
    8000b6b8:	17512223          	sw	s5,356(sp)

000000008000b6bc <i_11290>:
    8000b6bc:	a9e3b193          	sltiu	gp,t2,-1378

000000008000b6c0 <i_11291>:
    8000b6c0:	035b77bb          	remuw	a5,s6,s5

000000008000b6c4 <i_11292>:
    8000b6c4:	00d18633          	add	a2,gp,a3

000000008000b6c8 <i_11293>:
    8000b6c8:	02db7b3b          	remuw	s6,s6,a3

000000008000b6cc <i_11294>:
    8000b6cc:	83e00693          	li	a3,-1986

000000008000b6d0 <i_11295>:
    8000b6d0:	85000193          	li	gp,-1968

000000008000b6d4 <i_11296>:
    8000b6d4:	036b0463          	beq	s6,s6,8000b6fc <i_11305>

000000008000b6d8 <i_11297>:
    8000b6d8:	00469e93          	slli	t4,a3,0x4

000000008000b6dc <i_11298>:
    8000b6dc:	8ddafa37          	lui	s4,0x8ddaf

000000008000b6e0 <i_11299>:
    8000b6e0:	0b816b03          	lwu	s6,184(sp)

000000008000b6e4 <i_11300>:
    8000b6e4:	00c6de63          	ble	a2,a3,8000b700 <i_11306>

000000008000b6e8 <i_11301>:
    8000b6e8:	ebb10e83          	lb	t4,-325(sp)

000000008000b6ec <i_11302>:
    8000b6ec:	00168693          	addi	a3,a3,1
    8000b6f0:	fe3692e3          	bne	a3,gp,8000b6d4 <i_11296>

000000008000b6f4 <i_11303>:
    8000b6f4:	68eab693          	sltiu	a3,s5,1678

000000008000b6f8 <i_11304>:
    8000b6f8:	fc211983          	lh	s3,-62(sp)

000000008000b6fc <i_11305>:
    8000b6fc:	eec16e83          	lwu	t4,-276(sp)

000000008000b700 <i_11306>:
    8000b700:	00d28833          	add	a6,t0,a3

000000008000b704 <i_11307>:
    8000b704:	03461eb3          	mulh	t4,a2,s4

000000008000b708 <i_11308>:
    8000b708:	c34b7317          	auipc	t1,0xc34b7

000000008000b70c <i_11309>:
    8000b70c:	f3811223          	sh	s8,-220(sp)

000000008000b710 <i_11310>:
    8000b710:	ef513c23          	sd	s5,-264(sp)

000000008000b714 <i_11311>:
    8000b714:	f5411923          	sh	s4,-174(sp)

000000008000b718 <i_11312>:
    8000b718:	41430abb          	subw	s5,t1,s4

000000008000b71c <i_11313>:
    8000b71c:	0356fbbb          	remuw	s7,a3,s5

000000008000b720 <i_11314>:
    8000b720:	08a15183          	lhu	gp,138(sp)

000000008000b724 <i_11315>:
    8000b724:	12f14083          	lbu	ra,303(sp)

000000008000b728 <i_11316>:
    8000b728:	006ede63          	ble	t1,t4,8000b744 <i_11323>

000000008000b72c <i_11317>:
    8000b72c:	69e34613          	xori	a2,t1,1694

000000008000b730 <i_11318>:
    8000b730:	fc311d23          	sh	gp,-38(sp)

000000008000b734 <i_11319>:
    8000b734:	00000013          	nop

000000008000b738 <i_11320>:
    8000b738:	00000013          	nop

000000008000b73c <i_11321>:
    8000b73c:	0081e833          	or	a6,gp,s0

000000008000b740 <i_11322>:
    8000b740:	f2611203          	lh	tp,-218(sp)

000000008000b744 <i_11323>:
    8000b744:	15416403          	lwu	s0,340(sp)

000000008000b748 <i_11324>:
    8000b748:	00000013          	nop

000000008000b74c <i_11325>:
    8000b74c:	76500e93          	li	t4,1893

000000008000b750 <i_11326>:
    8000b750:	76800093          	li	ra,1896

000000008000b754 <i_11327>:
    8000b754:	f4813a03          	ld	s4,-184(sp)

000000008000b758 <i_11328>:
    8000b758:	03918263          	beq	gp,s9,8000b77c <i_11336>

000000008000b75c <i_11329>:
    8000b75c:	028a0463          	beq	s4,s0,8000b784 <i_11338>

000000008000b760 <i_11330>:
    8000b760:	02812683          	lw	a3,40(sp)

000000008000b764 <i_11331>:
    8000b764:	001e8e93          	addi	t4,t4,1 # e218a669 <_end+0x6217a255>
    8000b768:	fe1ee6e3          	bltu	t4,ra,8000b754 <i_11327>

000000008000b76c <i_11332>:
    8000b76c:	f8d10ba3          	sb	a3,-105(sp)

000000008000b770 <i_11333>:
    8000b770:	ec412423          	sw	tp,-312(sp)

000000008000b774 <i_11334>:
    8000b774:	4028569b          	sraiw	a3,a6,0x2

000000008000b778 <i_11335>:
    8000b778:	09713823          	sd	s7,144(sp)

000000008000b77c <i_11336>:
    8000b77c:	40485c13          	srai	s8,a6,0x4

000000008000b780 <i_11337>:
    8000b780:	1dc12803          	lw	a6,476(sp)

000000008000b784 <i_11338>:
    8000b784:	10811b83          	lh	s7,264(sp)

000000008000b788 <i_11339>:
    8000b788:	e4f10a23          	sb	a5,-428(sp)

000000008000b78c <i_11340>:
    8000b78c:	03800513          	li	a0,56

000000008000b790 <i_11341>:
    8000b790:	40abdbb3          	sra	s7,s7,a0

000000008000b794 <i_11342>:
    8000b794:	e8310323          	sb	gp,-378(sp)

000000008000b798 <i_11343>:
    8000b798:	037c5263          	ble	s7,s8,8000b7bc <i_11352>

000000008000b79c <i_11344>:
    8000b79c:	00a5fc63          	bleu	a0,a1,8000b7b4 <i_11350>

000000008000b7a0 <i_11345>:
    8000b7a0:	19711523          	sh	s7,394(sp)

000000008000b7a4 <i_11346>:
    8000b7a4:	018b8463          	beq	s7,s8,8000b7ac <i_11348>

000000008000b7a8 <i_11347>:
    8000b7a8:	02fbf53b          	remuw	a0,s7,a5

000000008000b7ac <i_11348>:
    8000b7ac:	4018549b          	sraiw	s1,a6,0x1

000000008000b7b0 <i_11349>:
    8000b7b0:	14a13823          	sd	a0,336(sp)

000000008000b7b4 <i_11350>:
    8000b7b4:	00000013          	nop

000000008000b7b8 <i_11351>:
    8000b7b8:	f4a11c23          	sh	a0,-168(sp)

000000008000b7bc <i_11352>:
    8000b7bc:	03c00693          	li	a3,60

000000008000b7c0 <i_11353>:
    8000b7c0:	00d814b3          	sll	s1,a6,a3

000000008000b7c4 <i_11354>:
    8000b7c4:	7cd00293          	li	t0,1997

000000008000b7c8 <i_11355>:
    8000b7c8:	7d800b93          	li	s7,2008

000000008000b7cc <i_11356>:
    8000b7cc:	1b314503          	lbu	a0,435(sp)

000000008000b7d0 <i_11357>:
    8000b7d0:	e9011b23          	sh	a6,-362(sp)

000000008000b7d4 <i_11358>:
    8000b7d4:	00000013          	nop

000000008000b7d8 <i_11359>:
    8000b7d8:	f4a13c23          	sd	a0,-168(sp)

000000008000b7dc <i_11360>:
    8000b7dc:	f0a12023          	sw	a0,-256(sp)

000000008000b7e0 <i_11361>:
    8000b7e0:	fd412d83          	lw	s11,-44(sp)

000000008000b7e4 <i_11362>:
    8000b7e4:	00128293          	addi	t0,t0,1
    8000b7e8:	ff72e2e3          	bltu	t0,s7,8000b7cc <i_11356>

000000008000b7ec <i_11363>:
    8000b7ec:	02af9263          	bne	t6,a0,8000b810 <i_11372>

000000008000b7f0 <i_11364>:
    8000b7f0:	0d310283          	lb	t0,211(sp)

000000008000b7f4 <i_11365>:
    8000b7f4:	e6611503          	lh	a0,-410(sp)

000000008000b7f8 <i_11366>:
    8000b7f8:	fd416083          	lwu	ra,-44(sp)

000000008000b7fc <i_11367>:
    8000b7fc:	1aa10ba3          	sb	a0,439(sp)

000000008000b800 <i_11368>:
    8000b800:	e4414083          	lbu	ra,-444(sp)

000000008000b804 <i_11369>:
    8000b804:	002d9c1b          	slliw	s8,s11,0x2

000000008000b808 <i_11370>:
    8000b808:	f7c10083          	lb	ra,-132(sp)

000000008000b80c <i_11371>:
    8000b80c:	021c3cb3          	mulhu	s9,s8,ra

000000008000b810 <i_11372>:
    8000b810:	01b0bdb3          	sltu	s11,ra,s11

000000008000b814 <i_11373>:
    8000b814:	0050f0b3          	and	ra,ra,t0

000000008000b818 <i_11374>:
    8000b818:	f0c15b83          	lhu	s7,-244(sp)

000000008000b81c <i_11375>:
    8000b81c:	e4a12c23          	sw	a0,-424(sp)

000000008000b820 <i_11376>:
    8000b820:	037b90b3          	mulh	ra,s7,s7

000000008000b824 <i_11377>:
    8000b824:	f3c11b83          	lh	s7,-196(sp)

000000008000b828 <i_11378>:
    8000b828:	f0814983          	lbu	s3,-248(sp)

000000008000b82c <i_11379>:
    8000b82c:	00a00993          	li	s3,10

000000008000b830 <i_11380>:
    8000b830:	01399bbb          	sllw	s7,s3,s3

000000008000b834 <i_11381>:
    8000b834:	f9a15a83          	lhu	s5,-102(sp)

000000008000b838 <i_11382>:
    8000b838:	0fc12203          	lw	tp,252(sp)

000000008000b83c <i_11383>:
    8000b83c:	015afe63          	bleu	s5,s5,8000b858 <i_11390>

000000008000b840 <i_11384>:
    8000b840:	be898993          	addi	s3,s3,-1048 # ffffffffed941be8 <_end+0xffffffff6d9317d4>

000000008000b844 <i_11385>:
    8000b844:	fda10d83          	lb	s11,-38(sp)

000000008000b848 <i_11386>:
    8000b848:	02dd9263          	bne	s11,a3,8000b86c <i_11395>

000000008000b84c <i_11387>:
    8000b84c:	ee714b03          	lbu	s6,-281(sp)

000000008000b850 <i_11388>:
    8000b850:	40db0ebb          	subw	t4,s6,a3

000000008000b854 <i_11389>:
    8000b854:	5d9aab93          	slti	s7,s5,1497

000000008000b858 <i_11390>:
    8000b858:	ef313823          	sd	s3,-272(sp)

000000008000b85c <i_11391>:
    8000b85c:	185d8b13          	addi	s6,s11,389

000000008000b860 <i_11392>:
    8000b860:	00000013          	nop

000000008000b864 <i_11393>:
    8000b864:	01610623          	sb	s6,12(sp)

000000008000b868 <i_11394>:
    8000b868:	0d513023          	sd	s5,192(sp)

000000008000b86c <i_11395>:
    8000b86c:	403ddb9b          	sraiw	s7,s11,0x3

000000008000b870 <i_11396>:
    8000b870:	41708833          	sub	a6,ra,s7

000000008000b874 <i_11397>:
    8000b874:	72e00413          	li	s0,1838

000000008000b878 <i_11398>:
    8000b878:	74100a93          	li	s5,1857

000000008000b87c <i_11399>:
    8000b87c:	0b011983          	lh	s3,176(sp)

000000008000b880 <i_11400>:
    8000b880:	1d813083          	ld	ra,472(sp)

000000008000b884 <i_11401>:
    8000b884:	83d00213          	li	tp,-1987

000000008000b888 <i_11402>:
    8000b888:	84300393          	li	t2,-1981

000000008000b88c <i_11403>:
    8000b88c:	00120213          	addi	tp,tp,1 # 1 <main-0x7fffffff>
    8000b890:	fe724ee3          	blt	tp,t2,8000b88c <i_11403>

000000008000b894 <i_11404>:
    8000b894:	02fbc7b3          	div	a5,s7,a5

000000008000b898 <i_11405>:
    8000b898:	f0816783          	lwu	a5,-248(sp)

000000008000b89c <i_11406>:
    8000b89c:	00140413          	addi	s0,s0,1
    8000b8a0:	fd546ee3          	bltu	s0,s5,8000b87c <i_11399>

000000008000b8a4 <i_11407>:
    8000b8a4:	0044d613          	srli	a2,s1,0x4

000000008000b8a8 <i_11408>:
    8000b8a8:	00d00c13          	li	s8,13

000000008000b8ac <i_11409>:
    8000b8ac:	0184d4bb          	srlw	s1,s1,s8

000000008000b8b0 <i_11410>:
    8000b8b0:	f3b10483          	lb	s1,-197(sp)

000000008000b8b4 <i_11411>:
    8000b8b4:	03deeeb3          	rem	t4,t4,t4

000000008000b8b8 <i_11412>:
    8000b8b8:	07e15603          	lhu	a2,126(sp)

000000008000b8bc <i_11413>:
    8000b8bc:	02c4f263          	bleu	a2,s1,8000b8e0 <i_11422>

000000008000b8c0 <i_11414>:
    8000b8c0:	02966463          	bltu	a2,s1,8000b8e8 <i_11424>

000000008000b8c4 <i_11415>:
    8000b8c4:	037673b3          	remu	t2,a2,s7

000000008000b8c8 <i_11416>:
    8000b8c8:	f3d11b23          	sh	t4,-202(sp)

000000008000b8cc <i_11417>:
    8000b8cc:	e9011383          	lh	t2,-368(sp)

000000008000b8d0 <i_11418>:
    8000b8d0:	00349f1b          	slliw	t5,s1,0x3

000000008000b8d4 <i_11419>:
    8000b8d4:	02738263          	beq	t2,t2,8000b8f8 <i_11428>

000000008000b8d8 <i_11420>:
    8000b8d8:	029c0263          	beq	s8,s1,8000b8fc <i_11429>

000000008000b8dc <i_11421>:
    8000b8dc:	0273cf3b          	divw	t5,t2,t2

000000008000b8e0 <i_11422>:
    8000b8e0:	0293c063          	blt	t2,s1,8000b900 <i_11430>

000000008000b8e4 <i_11423>:
    8000b8e4:	19e106a3          	sb	t5,397(sp)

000000008000b8e8 <i_11424>:
    8000b8e8:	0ff14283          	lbu	t0,255(sp)

000000008000b8ec <i_11425>:
    8000b8ec:	00000013          	nop

000000008000b8f0 <i_11426>:
    8000b8f0:	1a914083          	lbu	ra,425(sp)

000000008000b8f4 <i_11427>:
    8000b8f4:	007ba3b3          	slt	t2,s7,t2

000000008000b8f8 <i_11428>:
    8000b8f8:	18512a23          	sw	t0,404(sp)

000000008000b8fc <i_11429>:
    8000b8fc:	0a813383          	ld	t2,168(sp)

000000008000b900 <i_11430>:
    8000b900:	025ef3b3          	remu	t2,t4,t0

000000008000b904 <i_11431>:
    8000b904:	0032d09b          	srliw	ra,t0,0x3

000000008000b908 <i_11432>:
    8000b908:	81b00b93          	li	s7,-2021

000000008000b90c <i_11433>:
    8000b90c:	82600693          	li	a3,-2010

000000008000b910 <i_11434>:
    8000b910:	1d816083          	lwu	ra,472(sp)

000000008000b914 <i_11435>:
    8000b914:	1d013383          	ld	t2,464(sp)

000000008000b918 <i_11436>:
    8000b918:	01500093          	li	ra,21

000000008000b91c <i_11437>:
    8000b91c:	401855bb          	sraw	a1,a6,ra

000000008000b920 <i_11438>:
    8000b920:	16b11323          	sh	a1,358(sp)

000000008000b924 <i_11439>:
    8000b924:	ea113423          	sd	ra,-344(sp)

000000008000b928 <i_11440>:
    8000b928:	0dd14083          	lbu	ra,221(sp)

000000008000b92c <i_11441>:
    8000b92c:	001b8b93          	addi	s7,s7,1
    8000b930:	fedb90e3          	bne	s7,a3,8000b910 <i_11434>

000000008000b934 <i_11442>:
    8000b934:	0040a233          	slt	tp,ra,tp

000000008000b938 <i_11443>:
    8000b938:	f4411823          	sh	tp,-176(sp)

000000008000b93c <i_11444>:
    8000b93c:	f40b39b7          	lui	s3,0xf40b3

000000008000b940 <i_11445>:
    8000b940:	00b09463          	bne	ra,a1,8000b948 <i_11447>

000000008000b944 <i_11446>:
    8000b944:	e3011983          	lh	s3,-464(sp)

000000008000b948 <i_11447>:
    8000b948:	06311423          	sh	gp,104(sp)

000000008000b94c <i_11448>:
    8000b94c:	0cb11323          	sh	a1,198(sp)

000000008000b950 <i_11449>:
    8000b950:	00113023          	sd	ra,0(sp)

000000008000b954 <i_11450>:
    8000b954:	f4b13423          	sd	a1,-184(sp)

000000008000b958 <i_11451>:
    8000b958:	e8c16383          	lwu	t2,-372(sp)

000000008000b95c <i_11452>:
    8000b95c:	00c11c83          	lh	s9,12(sp)

000000008000b960 <i_11453>:
    8000b960:	0e111d23          	sh	ra,250(sp)

000000008000b964 <i_11454>:
    8000b964:	1ee13023          	sd	a4,480(sp)

000000008000b968 <i_11455>:
    8000b968:	01325a63          	ble	s3,tp,8000b97c <i_11460>

000000008000b96c <i_11456>:
    8000b96c:	01827463          	bleu	s8,tp,8000b974 <i_11458>

000000008000b970 <i_11457>:
    8000b970:	024ce23b          	remw	tp,s9,tp

000000008000b974 <i_11458>:
    8000b974:	0193e663          	bltu	t2,s9,8000b980 <i_11461>

000000008000b978 <i_11459>:
    8000b978:	039ce533          	rem	a0,s9,s9

000000008000b97c <i_11460>:
    8000b97c:	16016c83          	lwu	s9,352(sp)

000000008000b980 <i_11461>:
    8000b980:	00a56cb3          	or	s9,a0,a0

000000008000b984 <i_11462>:
    8000b984:	e3412683          	lw	a3,-460(sp)

000000008000b988 <i_11463>:
    8000b988:	019cc663          	blt	s9,s9,8000b994 <i_11466>

000000008000b98c <i_11464>:
    8000b98c:	00da2533          	slt	a0,s4,a3

000000008000b990 <i_11465>:
    8000b990:	e30c8a9b          	addiw	s5,s9,-464

000000008000b994 <i_11466>:
    8000b994:	00aaa533          	slt	a0,s5,a0

000000008000b998 <i_11467>:
    8000b998:	00daf263          	bleu	a3,s5,8000b99c <i_11468>

000000008000b99c <i_11468>:
    8000b99c:	12a11123          	sh	a0,290(sp)

000000008000b9a0 <i_11469>:
    8000b9a0:	12b10e83          	lb	t4,299(sp)

000000008000b9a4 <i_11470>:
    8000b9a4:	039c9063          	bne	s9,s9,8000b9c4 <i_11478>

000000008000b9a8 <i_11471>:
    8000b9a8:	01981e63          	bne	a6,s9,8000b9c4 <i_11478>

000000008000b9ac <i_11472>:
    8000b9ac:	039c9263          	bne	s9,s9,8000b9d0 <i_11481>

000000008000b9b0 <i_11473>:
    8000b9b0:	13812823          	sw	s8,304(sp)

000000008000b9b4 <i_11474>:
    8000b9b4:	029cd3b3          	divu	t2,s9,s1

000000008000b9b8 <i_11475>:
    8000b9b8:	07c16d83          	lwu	s11,124(sp)

000000008000b9bc <i_11476>:
    8000b9bc:	01810503          	lb	a0,24(sp)

000000008000b9c0 <i_11477>:
    8000b9c0:	e7911d23          	sh	s9,-390(sp)

000000008000b9c4 <i_11478>:
    8000b9c4:	f4d11623          	sh	a3,-180(sp)

000000008000b9c8 <i_11479>:
    8000b9c8:	fc012e83          	lw	t4,-64(sp)

000000008000b9cc <i_11480>:
    8000b9cc:	06412083          	lw	ra,100(sp)

000000008000b9d0 <i_11481>:
    8000b9d0:	06416c83          	lwu	s9,100(sp)

000000008000b9d4 <i_11482>:
    8000b9d4:	0f813a83          	ld	s5,248(sp)

000000008000b9d8 <i_11483>:
    8000b9d8:	0040e463          	bltu	ra,tp,8000b9e0 <i_11485>

000000008000b9dc <i_11484>:
    8000b9dc:	015c9663          	bne	s9,s5,8000b9e8 <i_11487>

000000008000b9e0 <i_11485>:
    8000b9e0:	01100d13          	li	s10,17

000000008000b9e4 <i_11486>:
    8000b9e4:	01a09c3b          	sllw	s8,ra,s10

000000008000b9e8 <i_11487>:
    8000b9e8:	1c012c83          	lw	s9,448(sp)

000000008000b9ec <i_11488>:
    8000b9ec:	10016d83          	lwu	s11,256(sp)

000000008000b9f0 <i_11489>:
    8000b9f0:	01ac0e63          	beq	s8,s10,8000ba0c <i_11496>

000000008000b9f4 <i_11490>:
    8000b9f4:	e5812b83          	lw	s7,-424(sp)

000000008000b9f8 <i_11491>:
    8000b9f8:	12615d03          	lhu	s10,294(sp)

000000008000b9fc <i_11492>:
    8000b9fc:	01bbea63          	bltu	s7,s11,8000ba10 <i_11497>

000000008000ba00 <i_11493>:
    8000ba00:	01a10ea3          	sb	s10,29(sp)

000000008000ba04 <i_11494>:
    8000ba04:	9625b593          	sltiu	a1,a1,-1694

000000008000ba08 <i_11495>:
    8000ba08:	fb415d03          	lhu	s10,-76(sp)

000000008000ba0c <i_11496>:
    8000ba0c:	17813083          	ld	ra,376(sp)

000000008000ba10 <i_11497>:
    8000ba10:	01b0ec63          	bltu	ra,s11,8000ba28 <i_11503>

000000008000ba14 <i_11498>:
    8000ba14:	fd412d03          	lw	s10,-44(sp)

000000008000ba18 <i_11499>:
    8000ba18:	02dfd6bb          	divuw	a3,t6,a3

000000008000ba1c <i_11500>:
    8000ba1c:	f3a15a03          	lhu	s4,-198(sp)

000000008000ba20 <i_11501>:
    8000ba20:	1d310183          	lb	gp,467(sp)

000000008000ba24 <i_11502>:
    8000ba24:	03ba7463          	bleu	s11,s4,8000ba4c <i_11512>

000000008000ba28 <i_11503>:
    8000ba28:	ea015a03          	lhu	s4,-352(sp)

000000008000ba2c <i_11504>:
    8000ba2c:	f7412423          	sw	s4,-152(sp)

000000008000ba30 <i_11505>:
    8000ba30:	02312223          	sw	gp,36(sp)

000000008000ba34 <i_11506>:
    8000ba34:	034a4063          	blt	s4,s4,8000ba54 <i_11514>

000000008000ba38 <i_11507>:
    8000ba38:	0146f263          	bleu	s4,a3,8000ba3c <i_11508>

000000008000ba3c <i_11508>:
    8000ba3c:	ff412a23          	sw	s4,-12(sp)

000000008000ba40 <i_11509>:
    8000ba40:	01497c63          	bleu	s4,s2,8000ba58 <i_11515>

000000008000ba44 <i_11510>:
    8000ba44:	ed412a23          	sw	s4,-300(sp)

000000008000ba48 <i_11511>:
    8000ba48:	02013a03          	ld	s4,32(sp)

000000008000ba4c <i_11512>:
    8000ba4c:	404a5a13          	srai	s4,s4,0x4

000000008000ba50 <i_11513>:
    8000ba50:	e8311f23          	sh	gp,-354(sp)

000000008000ba54 <i_11514>:
    8000ba54:	02aa6a33          	rem	s4,s4,a0

000000008000ba58 <i_11515>:
    8000ba58:	0b012403          	lw	s0,176(sp)

000000008000ba5c <i_11516>:
    8000ba5c:	07215a03          	lhu	s4,114(sp)

000000008000ba60 <i_11517>:
    8000ba60:	76a00513          	li	a0,1898

000000008000ba64 <i_11518>:
    8000ba64:	77100b13          	li	s6,1905

000000008000ba68 <i_11519>:
    8000ba68:	003ea633          	slt	a2,t4,gp

000000008000ba6c <i_11520>:
    8000ba6c:	02312023          	sw	gp,32(sp)

000000008000ba70 <i_11521>:
    8000ba70:	00db71b3          	and	gp,s6,a3

000000008000ba74 <i_11522>:
    8000ba74:	ebe10083          	lb	ra,-322(sp)

000000008000ba78 <i_11523>:
    8000ba78:	fc816e83          	lwu	t4,-56(sp)

000000008000ba7c <i_11524>:
    8000ba7c:	11215483          	lhu	s1,274(sp)

000000008000ba80 <i_11525>:
    8000ba80:	0fd14603          	lbu	a2,253(sp)

000000008000ba84 <i_11526>:
    8000ba84:	ea816083          	lwu	ra,-344(sp)

000000008000ba88 <i_11527>:
    8000ba88:	9956061b          	addiw	a2,a2,-1643

000000008000ba8c <i_11528>:
    8000ba8c:	ec215c03          	lhu	s8,-318(sp)

000000008000ba90 <i_11529>:
    8000ba90:	927961b7          	lui	gp,0x92796

000000008000ba94 <i_11530>:
    8000ba94:	00150513          	addi	a0,a0,1 # b209761d <_end+0x32087209>
    8000ba98:	fcab58e3          	ble	a0,s6,8000ba68 <i_11519>

000000008000ba9c <i_11531>:
    8000ba9c:	1c111d23          	sh	ra,474(sp)

000000008000baa0 <i_11532>:
    8000baa0:	ee016683          	lwu	a3,-288(sp)

000000008000baa4 <i_11533>:
    8000baa4:	00d6ec63          	bltu	a3,a3,8000babc <i_11539>

000000008000baa8 <i_11534>:
    8000baa8:	6a4c0c13          	addi	s8,s8,1700

000000008000baac <i_11535>:
    8000baac:	09b14083          	lbu	ra,155(sp)

000000008000bab0 <i_11536>:
    8000bab0:	f9c12a03          	lw	s4,-100(sp)

000000008000bab4 <i_11537>:
    8000bab4:	07f12e23          	sw	t6,124(sp)

000000008000bab8 <i_11538>:
    8000bab8:	003181b3          	add	gp,gp,gp

000000008000babc <i_11539>:
    8000babc:	15412b03          	lw	s6,340(sp)

000000008000bac0 <i_11540>:
    8000bac0:	00000013          	nop

000000008000bac4 <i_11541>:
    8000bac4:	7f000813          	li	a6,2032

000000008000bac8 <i_11542>:
    8000bac8:	7fd00a13          	li	s4,2045

000000008000bacc <i_11543>:
    8000bacc:	09813823          	sd	s8,144(sp)

000000008000bad0 <i_11544>:
    8000bad0:	40175993          	srai	s3,a4,0x1

000000008000bad4 <i_11545>:
    8000bad4:	f8313023          	sd	gp,-128(sp)

000000008000bad8 <i_11546>:
    8000bad8:	03098633          	mul	a2,s3,a6

000000008000badc <i_11547>:
    8000badc:	7c200b13          	li	s6,1986

000000008000bae0 <i_11548>:
    8000bae0:	7d400493          	li	s1,2004

000000008000bae4 <i_11549>:
    8000bae4:	05812583          	lw	a1,88(sp)

000000008000bae8 <i_11550>:
    8000bae8:	00b1f1b3          	and	gp,gp,a1

000000008000baec <i_11551>:
    8000baec:	00000013          	nop

000000008000baf0 <i_11552>:
    8000baf0:	f8b12c23          	sw	a1,-104(sp)

000000008000baf4 <i_11553>:
    8000baf4:	f7c12d83          	lw	s11,-132(sp)

000000008000baf8 <i_11554>:
    8000baf8:	02610183          	lb	gp,38(sp)

000000008000bafc <i_11555>:
    8000bafc:	e8e11c03          	lh	s8,-370(sp)

000000008000bb00 <i_11556>:
    8000bb00:	001b0b13          	addi	s6,s6,1
    8000bb04:	ff64f0e3          	bleu	s6,s1,8000bae4 <i_11549>

000000008000bb08 <i_11557>:
    8000bb08:	fa812d83          	lw	s11,-88(sp)

000000008000bb0c <i_11558>:
    8000bb0c:	00180813          	addi	a6,a6,1
    8000bb10:	fb481ee3          	bne	a6,s4,8000bacc <i_11543>

000000008000bb14 <i_11559>:
    8000bb14:	038dccb3          	div	s9,s11,s8

000000008000bb18 <i_11560>:
    8000bb18:	1bb13023          	sd	s11,416(sp)

000000008000bb1c <i_11561>:
    8000bb1c:	19313c23          	sd	s3,408(sp)

000000008000bb20 <i_11562>:
    8000bb20:	77c00993          	li	s3,1916

000000008000bb24 <i_11563>:
    8000bb24:	78200c93          	li	s9,1922

000000008000bb28 <i_11564>:
    8000bb28:	fd010803          	lb	a6,-48(sp)

000000008000bb2c <i_11565>:
    8000bb2c:	e7415d83          	lhu	s11,-396(sp)

000000008000bb30 <i_11566>:
    8000bb30:	e5013d03          	ld	s10,-432(sp)

000000008000bb34 <i_11567>:
    8000bb34:	014d0a63          	beq	s10,s4,8000bb48 <i_11572>

000000008000bb38 <i_11568>:
    8000bb38:	1d416283          	lwu	t0,468(sp)

000000008000bb3c <i_11569>:
    8000bb3c:	e3d11523          	sh	t4,-470(sp)

000000008000bb40 <i_11570>:
    8000bb40:	f7a11723          	sh	s10,-146(sp)

000000008000bb44 <i_11571>:
    8000bb44:	03ad2d33          	mulhsu	s10,s10,s10

000000008000bb48 <i_11572>:
    8000bb48:	165107a3          	sb	t0,367(sp)

000000008000bb4c <i_11573>:
    8000bb4c:	03a30063          	beq	t1,s10,8000bb6c <i_11580>

000000008000bb50 <i_11574>:
    8000bb50:	0258683b          	remw	a6,a6,t0

000000008000bb54 <i_11575>:
    8000bb54:	1d013a03          	ld	s4,464(sp)

000000008000bb58 <i_11576>:
    8000bb58:	00198993          	addi	s3,s3,1 # fffffffff40b3001 <_end+0xffffffff740a2bed>
    8000bb5c:	fd99c6e3          	blt	s3,s9,8000bb28 <i_11564>

000000008000bb60 <i_11577>:
    8000bb60:	01484d33          	xor	s10,a6,s4

000000008000bb64 <i_11578>:
    8000bb64:	f3013183          	ld	gp,-208(sp)

000000008000bb68 <i_11579>:
    8000bb68:	1c510583          	lb	a1,453(sp)

000000008000bb6c <i_11580>:
    8000bb6c:	03f1ee3b          	remw	t3,gp,t6

000000008000bb70 <i_11581>:
    8000bb70:	03ca03b3          	mul	t2,s4,t3

000000008000bb74 <i_11582>:
    8000bb74:	005d1e63          	bne	s10,t0,8000bb90 <i_11589>

000000008000bb78 <i_11583>:
    8000bb78:	19c11383          	lh	t2,412(sp)

000000008000bb7c <i_11584>:
    8000bb7c:	e6410383          	lb	t2,-412(sp)

000000008000bb80 <i_11585>:
    8000bb80:	e5c16d03          	lwu	s10,-420(sp)

000000008000bb84 <i_11586>:
    8000bb84:	01a3ca63          	blt	t2,s10,8000bb98 <i_11591>

000000008000bb88 <i_11587>:
    8000bb88:	027d73bb          	remuw	t2,s10,t2

000000008000bb8c <i_11588>:
    8000bb8c:	03aa7b33          	remu	s6,s4,s10

000000008000bb90 <i_11589>:
    8000bb90:	00409b1b          	slliw	s6,ra,0x4

000000008000bb94 <i_11590>:
    8000bb94:	4023db1b          	sraiw	s6,t2,0x2

000000008000bb98 <i_11591>:
    8000bb98:	0f610423          	sb	s6,232(sp)

000000008000bb9c <i_11592>:
    8000bb9c:	03ad5d33          	divu	s10,s10,s10

000000008000bba0 <i_11593>:
    8000bba0:	02000d13          	li	s10,32

000000008000bba4 <i_11594>:
    8000bba4:	41ab5b33          	sra	s6,s6,s10

000000008000bba8 <i_11595>:
    8000bba8:	efa11c23          	sh	s10,-264(sp)

000000008000bbac <i_11596>:
    8000bbac:	01800993          	li	s3,24

000000008000bbb0 <i_11597>:
    8000bbb0:	413d5b3b          	sraw	s6,s10,s3

000000008000bbb4 <i_11598>:
    8000bbb4:	036b59bb          	divuw	s3,s6,s6

000000008000bbb8 <i_11599>:
    8000bbb8:	00011d83          	lh	s11,0(sp)

000000008000bbbc <i_11600>:
    8000bbbc:	021b5263          	ble	ra,s6,8000bbe0 <i_11609>

000000008000bbc0 <i_11601>:
    8000bbc0:	02900d93          	li	s11,41

000000008000bbc4 <i_11602>:
    8000bbc4:	41bb5b33          	sra	s6,s6,s11

000000008000bbc8 <i_11603>:
    8000bbc8:	19010223          	sb	a6,388(sp)

000000008000bbcc <i_11604>:
    8000bbcc:	f4f10da3          	sb	a5,-165(sp)

000000008000bbd0 <i_11605>:
    8000bbd0:	e2813183          	ld	gp,-472(sp)

000000008000bbd4 <i_11606>:
    8000bbd4:	07e15283          	lhu	t0,126(sp)

000000008000bbd8 <i_11607>:
    8000bbd8:	0052f463          	bleu	t0,t0,8000bbe0 <i_11609>

000000008000bbdc <i_11608>:
    8000bbdc:	e9813203          	ld	tp,-360(sp)

000000008000bbe0 <i_11609>:
    8000bbe0:	0191c663          	blt	gp,s9,8000bbec <i_11612>

000000008000bbe4 <i_11610>:
    8000bbe4:	01320863          	beq	tp,s3,8000bbf4 <i_11614>

000000008000bbe8 <i_11611>:
    8000bbe8:	fd012d03          	lw	s10,-48(sp)

000000008000bbec <i_11612>:
    8000bbec:	ed611c83          	lh	s9,-298(sp)

000000008000bbf0 <i_11613>:
    8000bbf0:	404cd613          	srai	a2,s9,0x4

000000008000bbf4 <i_11614>:
    8000bbf4:	00000013          	nop

000000008000bbf8 <i_11615>:
    8000bbf8:	02bcf0b3          	remu	ra,s9,a1

000000008000bbfc <i_11616>:
    8000bbfc:	7e900213          	li	tp,2025

000000008000bc00 <i_11617>:
    8000bc00:	7f200c93          	li	s9,2034

000000008000bc04 <i_11618>:
    8000bc04:	0a411e03          	lh	t3,164(sp)

000000008000bc08 <i_11619>:
    8000bc08:	756c0a37          	lui	s4,0x756c0

000000008000bc0c <i_11620>:
    8000bc0c:	00c09263          	bne	ra,a2,8000bc10 <i_11621>

000000008000bc10 <i_11621>:
    8000bc10:	e2511923          	sh	t0,-462(sp)

000000008000bc14 <i_11622>:
    8000bc14:	014cc533          	xor	a0,s9,s4

000000008000bc18 <i_11623>:
    8000bc18:	81e0ac13          	slti	s8,ra,-2018

000000008000bc1c <i_11624>:
    8000bc1c:	f7112c23          	sw	a7,-136(sp)

000000008000bc20 <i_11625>:
    8000bc20:	001cf663          	bleu	ra,s9,8000bc2c <i_11628>

000000008000bc24 <i_11626>:
    8000bc24:	19813823          	sd	s8,400(sp)

000000008000bc28 <i_11627>:
    8000bc28:	00ac5463          	ble	a0,s8,8000bc30 <i_11629>

000000008000bc2c <i_11628>:
    8000bc2c:	00000013          	nop

000000008000bc30 <i_11629>:
    8000bc30:	11c16603          	lwu	a2,284(sp)

000000008000bc34 <i_11630>:
    8000bc34:	02a55263          	ble	a0,a0,8000bc58 <i_11638>

000000008000bc38 <i_11631>:
    8000bc38:	00120213          	addi	tp,tp,1 # 1 <main-0x7fffffff>
    8000bc3c:	fc4cd4e3          	ble	tp,s9,8000bc04 <i_11618>

000000008000bc40 <i_11632>:
    8000bc40:	13910a03          	lb	s4,313(sp)

000000008000bc44 <i_11633>:
    8000bc44:	eb412423          	sw	s4,-344(sp)

000000008000bc48 <i_11634>:
    8000bc48:	00c62ab3          	slt	s5,a2,a2

000000008000bc4c <i_11635>:
    8000bc4c:	f5015303          	lhu	t1,-176(sp)

000000008000bc50 <i_11636>:
    8000bc50:	1c016603          	lwu	a2,448(sp)

000000008000bc54 <i_11637>:
    8000bc54:	004c1613          	slli	a2,s8,0x4

000000008000bc58 <i_11638>:
    8000bc58:	00cad663          	ble	a2,s5,8000bc64 <i_11641>

000000008000bc5c <i_11639>:
    8000bc5c:	01831a63          	bne	t1,s8,8000bc70 <i_11644>

000000008000bc60 <i_11640>:
    8000bc60:	e0a11f23          	sh	a0,-482(sp)

000000008000bc64 <i_11641>:
    8000bc64:	02cc10b3          	mulh	ra,s8,a2

000000008000bc68 <i_11642>:
    8000bc68:	f3511523          	sh	s5,-214(sp)

000000008000bc6c <i_11643>:
    8000bc6c:	17510303          	lb	t1,373(sp)

000000008000bc70 <i_11644>:
    8000bc70:	15615183          	lhu	gp,342(sp)

000000008000bc74 <i_11645>:
    8000bc74:	fd812a83          	lw	s5,-40(sp)

000000008000bc78 <i_11646>:
    8000bc78:	06816a83          	lwu	s5,104(sp)

000000008000bc7c <i_11647>:
    8000bc7c:	f5913423          	sd	s9,-184(sp)

000000008000bc80 <i_11648>:
    8000bc80:	26ba8613          	addi	a2,s5,619

000000008000bc84 <i_11649>:
    8000bc84:	00380263          	beq	a6,gp,8000bc88 <i_11650>

000000008000bc88 <i_11650>:
    8000bc88:	015a8b33          	add	s6,s5,s5

000000008000bc8c <i_11651>:
    8000bc8c:	f2813803          	ld	a6,-216(sp)

000000008000bc90 <i_11652>:
    8000bc90:	00c4f263          	bleu	a2,s1,8000bc94 <i_11653>

000000008000bc94 <i_11653>:
    8000bc94:	2d9f4817          	auipc	a6,0x2d9f4

000000008000bc98 <i_11654>:
    8000bc98:	f3f11423          	sh	t6,-216(sp)

000000008000bc9c <i_11655>:
    8000bc9c:	41b80dbb          	subw	s11,a6,s11

000000008000bca0 <i_11656>:
    8000bca0:	01bde863          	bltu	s11,s11,8000bcb0 <i_11660>

000000008000bca4 <i_11657>:
    8000bca4:	01700d13          	li	s10,23

000000008000bca8 <i_11658>:
    8000bca8:	01a81333          	sll	t1,a6,s10

000000008000bcac <i_11659>:
    8000bcac:	00c602b3          	add	t0,a2,a2

000000008000bcb0 <i_11660>:
    8000bcb0:	01b3fa63          	bleu	s11,t2,8000bcc4 <i_11665>

000000008000bcb4 <i_11661>:
    8000bcb4:	fd010da3          	sb	a6,-37(sp)

000000008000bcb8 <i_11662>:
    8000bcb8:	18a15203          	lhu	tp,394(sp)

000000008000bcbc <i_11663>:
    8000bcbc:	005df263          	bleu	t0,s11,8000bcc0 <i_11664>

000000008000bcc0 <i_11664>:
    8000bcc0:	01aa9a63          	bne	s5,s10,8000bcd4 <i_11669>

000000008000bcc4 <i_11665>:
    8000bcc4:	02520d3b          	mulw	s10,tp,t0

000000008000bcc8 <i_11666>:
    8000bcc8:	0dd13c23          	sd	t4,216(sp)

000000008000bccc <i_11667>:
    8000bccc:	6473cf13          	xori	t5,t2,1607

000000008000bcd0 <i_11668>:
    8000bcd0:	03900e93          	li	t4,57

000000008000bcd4 <i_11669>:
    8000bcd4:	01dd1a33          	sll	s4,s10,t4

000000008000bcd8 <i_11670>:
    8000bcd8:	01600a13          	li	s4,22

000000008000bcdc <i_11671>:
    8000bcdc:	014393b3          	sll	t2,t2,s4

000000008000bce0 <i_11672>:
    8000bce0:	75600e13          	li	t3,1878

000000008000bce4 <i_11673>:
    8000bce4:	75a00d13          	li	s10,1882

000000008000bce8 <i_11674>:
    8000bce8:	01da5c63          	ble	t4,s4,8000bd00 <i_11679>

000000008000bcec <i_11675>:
    8000bcec:	001e0e13          	addi	t3,t3,1
    8000bcf0:	ffae4ae3          	blt	t3,s10,8000bce4 <i_11673>

000000008000bcf4 <i_11676>:
    8000bcf4:	fa411e83          	lh	t4,-92(sp)

000000008000bcf8 <i_11677>:
    8000bcf8:	f5314a03          	lbu	s4,-173(sp)

000000008000bcfc <i_11678>:
    8000bcfc:	41410ab3          	sub	s5,sp,s4

000000008000bd00 <i_11679>:
    8000bd00:	02416a03          	lwu	s4,36(sp)

000000008000bd04 <i_11680>:
    8000bd04:	19411a23          	sh	s4,404(sp)

000000008000bd08 <i_11681>:
    8000bd08:	e75102a3          	sb	s5,-411(sp)

000000008000bd0c <i_11682>:
    8000bd0c:	0bc10a83          	lb	s5,188(sp)

000000008000bd10 <i_11683>:
    8000bd10:	034a4463          	blt	s4,s4,8000bd38 <i_11693>

000000008000bd14 <i_11684>:
    8000bd14:	226a3a93          	sltiu	s5,s4,550

000000008000bd18 <i_11685>:
    8000bd18:	415181bb          	subw	gp,gp,s5

000000008000bd1c <i_11686>:
    8000bd1c:	0e816a03          	lwu	s4,232(sp)

000000008000bd20 <i_11687>:
    8000bd20:	f9016183          	lwu	gp,-112(sp)

000000008000bd24 <i_11688>:
    8000bd24:	0015d19b          	srliw	gp,a1,0x1

000000008000bd28 <i_11689>:
    8000bd28:	2e91ce93          	xori	t4,gp,745

000000008000bd2c <i_11690>:
    8000bd2c:	0145cc63          	blt	a1,s4,8000bd44 <i_11696>

000000008000bd30 <i_11691>:
    8000bd30:	e8813403          	ld	s0,-376(sp)

000000008000bd34 <i_11692>:
    8000bd34:	10215e83          	lhu	t4,258(sp)

000000008000bd38 <i_11693>:
    8000bd38:	00611c83          	lh	s9,6(sp)

000000008000bd3c <i_11694>:
    8000bd3c:	0c015783          	lhu	a5,192(sp)

000000008000bd40 <i_11695>:
    8000bd40:	01d18a63          	beq	gp,t4,8000bd54 <i_11700>

000000008000bd44 <i_11696>:
    8000bd44:	08810aa3          	sb	s0,149(sp)

000000008000bd48 <i_11697>:
    8000bd48:	0725b193          	sltiu	gp,a1,114

000000008000bd4c <i_11698>:
    8000bd4c:	039a0063          	beq	s4,s9,8000bd6c <i_11706>

000000008000bd50 <i_11699>:
    8000bd50:	01d00c13          	li	s8,29

000000008000bd54 <i_11700>:
    8000bd54:	018c9a3b          	sllw	s4,s9,s8

000000008000bd58 <i_11701>:
    8000bd58:	0293f463          	bleu	s1,t2,8000bd80 <i_11711>

000000008000bd5c <i_11702>:
    8000bd5c:	029c64b3          	rem	s1,s8,s1

000000008000bd60 <i_11703>:
    8000bd60:	1e913023          	sd	s1,480(sp)

000000008000bd64 <i_11704>:
    8000bd64:	fa713423          	sd	t2,-88(sp)

000000008000bd68 <i_11705>:
    8000bd68:	0044dc1b          	srliw	s8,s1,0x4

000000008000bd6c <i_11706>:
    8000bd6c:	d74c4c13          	xori	s8,s8,-652

000000008000bd70 <i_11707>:
    8000bd70:	0c113823          	sd	ra,208(sp)

000000008000bd74 <i_11708>:
    8000bd74:	41820bb3          	sub	s7,tp,s8

000000008000bd78 <i_11709>:
    8000bd78:	4cfb851b          	addiw	a0,s7,1231

000000008000bd7c <i_11710>:
    8000bd7c:	01f00d93          	li	s11,31

000000008000bd80 <i_11711>:
    8000bd80:	41bc5d33          	sra	s10,s8,s11

000000008000bd84 <i_11712>:
    8000bd84:	eaa13c23          	sd	a0,-328(sp)

000000008000bd88 <i_11713>:
    8000bd88:	003bdb9b          	srliw	s7,s7,0x3

000000008000bd8c <i_11714>:
    8000bd8c:	ff811d03          	lh	s10,-8(sp)

000000008000bd90 <i_11715>:
    8000bd90:	01ab86b3          	add	a3,s7,s10

000000008000bd94 <i_11716>:
    8000bd94:	038bdc3b          	divuw	s8,s7,s8

000000008000bd98 <i_11717>:
    8000bd98:	e5714303          	lbu	t1,-425(sp)

000000008000bd9c <i_11718>:
    8000bd9c:	01bb9263          	bne	s7,s11,8000bda0 <i_11719>

000000008000bda0 <i_11719>:
    8000bda0:	70fb869b          	addiw	a3,s7,1807

000000008000bda4 <i_11720>:
    8000bda4:	09710523          	sb	s7,138(sp)

000000008000bda8 <i_11721>:
    8000bda8:	01a6cb33          	xor	s6,a3,s10

000000008000bdac <i_11722>:
    8000bdac:	6b7bab93          	slti	s7,s7,1719

000000008000bdb0 <i_11723>:
    8000bdb0:	ff013183          	ld	gp,-16(sp)

000000008000bdb4 <i_11724>:
    8000bdb4:	15012203          	lw	tp,336(sp)

000000008000bdb8 <i_11725>:
    8000bdb8:	0171d263          	ble	s7,gp,8000bdbc <i_11726>

000000008000bdbc <i_11726>:
    8000bdbc:	00e60663          	beq	a2,a4,8000bdc8 <i_11729>

000000008000bdc0 <i_11727>:
    8000bdc0:	00000013          	nop

000000008000bdc4 <i_11728>:
    8000bdc4:	c575c197          	auipc	gp,0xc575c

000000008000bdc8 <i_11729>:
    8000bdc8:	f3215203          	lhu	tp,-206(sp)

000000008000bdcc <i_11730>:
    8000bdcc:	5276aab7          	lui	s5,0x5276a

000000008000bdd0 <i_11731>:
    8000bdd0:	75700613          	li	a2,1879

000000008000bdd4 <i_11732>:
    8000bdd4:	76400413          	li	s0,1892

000000008000bdd8 <i_11733>:
    8000bdd8:	14c13023          	sd	a2,320(sp)

000000008000bddc <i_11734>:
    8000bddc:	01520e63          	beq	tp,s5,8000bdf8 <i_11740>

000000008000bde0 <i_11735>:
    8000bde0:	02827063          	bleu	s0,tp,8000be00 <i_11742>

000000008000bde4 <i_11736>:
    8000bde4:	00160613          	addi	a2,a2,1
    8000bde8:	fe8618e3          	bne	a2,s0,8000bdd8 <i_11733>

000000008000bdec <i_11737>:
    8000bdec:	df926a93          	ori	s5,tp,-519

000000008000bdf0 <i_11738>:
    8000bdf0:	08410aa3          	sb	tp,149(sp)

000000008000bdf4 <i_11739>:
    8000bdf4:	03d16263          	bltu	sp,t4,8000be18 <i_11748>

000000008000bdf8 <i_11740>:
    8000bdf8:	035af063          	bleu	s5,s5,8000be18 <i_11748>

000000008000bdfc <i_11741>:
    8000bdfc:	9af00197          	auipc	gp,0x9af00

000000008000be00 <i_11742>:
    8000be00:	004182b3          	add	t0,gp,tp

000000008000be04 <i_11743>:
    8000be04:	fc518e17          	auipc	t3,0xfc518

000000008000be08 <i_11744>:
    8000be08:	01a00993          	li	s3,26

000000008000be0c <i_11745>:
    8000be0c:	413ad3bb          	sraw	t2,s5,s3

000000008000be10 <i_11746>:
    8000be10:	1a414a83          	lbu	s5,420(sp)

000000008000be14 <i_11747>:
    8000be14:	4023da9b          	sraiw	s5,t2,0x2

000000008000be18 <i_11748>:
    8000be18:	03551063          	bne	a0,s5,8000be38 <i_11756>

000000008000be1c <i_11749>:
    8000be1c:	10813c03          	ld	s8,264(sp)

000000008000be20 <i_11750>:
    8000be20:	025a9063          	bne	s5,t0,8000be40 <i_11758>

000000008000be24 <i_11751>:
    8000be24:	0359e23b          	remw	tp,s3,s5

000000008000be28 <i_11752>:
    8000be28:	00d00993          	li	s3,13

000000008000be2c <i_11753>:
    8000be2c:	0139d33b          	srlw	t1,s3,s3

000000008000be30 <i_11754>:
    8000be30:	0fd11823          	sh	t4,240(sp)

000000008000be34 <i_11755>:
    8000be34:	0f013603          	ld	a2,240(sp)

000000008000be38 <i_11756>:
    8000be38:	01b7a633          	slt	a2,a5,s11

000000008000be3c <i_11757>:
    8000be3c:	f3c12c23          	sw	t3,-200(sp)

000000008000be40 <i_11758>:
    8000be40:	02514b03          	lbu	s6,37(sp)

000000008000be44 <i_11759>:
    8000be44:	00000013          	nop

000000008000be48 <i_11760>:
    8000be48:	f7613423          	sd	s6,-152(sp)

000000008000be4c <i_11761>:
    8000be4c:	80300b13          	li	s6,-2045

000000008000be50 <i_11762>:
    8000be50:	81600393          	li	t2,-2026

000000008000be54 <i_11763>:
    8000be54:	13013603          	ld	a2,304(sp)

000000008000be58 <i_11764>:
    8000be58:	e2e11583          	lh	a1,-466(sp)

000000008000be5c <i_11765>:
    8000be5c:	ea514983          	lbu	s3,-347(sp)

000000008000be60 <i_11766>:
    8000be60:	001b0b13          	addi	s6,s6,1
    8000be64:	fe7b48e3          	blt	s6,t2,8000be54 <i_11763>

000000008000be68 <i_11767>:
    8000be68:	6013ee93          	ori	t4,t2,1537

000000008000be6c <i_11768>:
    8000be6c:	0015d81b          	srliw	a6,a1,0x1

000000008000be70 <i_11769>:
    8000be70:	00b00513          	li	a0,11

000000008000be74 <i_11770>:
    8000be74:	40a3d9b3          	sra	s3,t2,a0

000000008000be78 <i_11771>:
    8000be78:	0d314503          	lbu	a0,211(sp)

000000008000be7c <i_11772>:
    8000be7c:	01e00e13          	li	t3,30

000000008000be80 <i_11773>:
    8000be80:	41c9d5bb          	sraw	a1,s3,t3

000000008000be84 <i_11774>:
    8000be84:	03066633          	rem	a2,a2,a6

000000008000be88 <i_11775>:
    8000be88:	e5e15783          	lhu	a5,-418(sp)

000000008000be8c <i_11776>:
    8000be8c:	016989b3          	add	s3,s3,s6

000000008000be90 <i_11777>:
    8000be90:	0019ca63          	blt	s3,ra,8000bea4 <i_11782>

000000008000be94 <i_11778>:
    8000be94:	02b9dab3          	divu	s5,s3,a1

000000008000be98 <i_11779>:
    8000be98:	02900f13          	li	t5,41

000000008000be9c <i_11780>:
    8000be9c:	41eeda33          	sra	s4,t4,t5

000000008000bea0 <i_11781>:
    8000bea0:	00a64263          	blt	a2,a0,8000bea4 <i_11782>

000000008000bea4 <i_11782>:
    8000bea4:	033ef063          	bleu	s3,t4,8000bec4 <i_11790>

000000008000bea8 <i_11783>:
    8000bea8:	f2813203          	ld	tp,-216(sp)

000000008000beac <i_11784>:
    8000beac:	0357f333          	remu	t1,a5,s5

000000008000beb0 <i_11785>:
    8000beb0:	15d10583          	lb	a1,349(sp)

000000008000beb4 <i_11786>:
    8000beb4:	02460063          	beq	a2,tp,8000bed4 <i_11794>

000000008000beb8 <i_11787>:
    8000beb8:	01cd7663          	bleu	t3,s10,8000bec4 <i_11790>

000000008000bebc <i_11788>:
    8000bebc:	17013983          	ld	s3,368(sp)

000000008000bec0 <i_11789>:
    8000bec0:	1c813583          	ld	a1,456(sp)

000000008000bec4 <i_11790>:
    8000bec4:	015e9463          	bne	t4,s5,8000becc <i_11792>

000000008000bec8 <i_11791>:
    8000bec8:	0b310f23          	sb	s3,190(sp)

000000008000becc <i_11792>:
    8000becc:	0c611b23          	sh	t1,214(sp)

000000008000bed0 <i_11793>:
    8000bed0:	e3412383          	lw	t2,-460(sp)

000000008000bed4 <i_11794>:
    8000bed4:	02b27063          	bleu	a1,tp,8000bef4 <i_11802>

000000008000bed8 <i_11795>:
    8000bed8:	ef416e83          	lwu	t4,-268(sp)

000000008000bedc <i_11796>:
    8000bedc:	00439393          	slli	t2,t2,0x4

000000008000bee0 <i_11797>:
    8000bee0:	f9013e83          	ld	t4,-112(sp)

000000008000bee4 <i_11798>:
    8000bee4:	03700d13          	li	s10,55

000000008000bee8 <i_11799>:
    8000bee8:	01a7d0b3          	srl	ra,a5,s10

000000008000beec <i_11800>:
    8000beec:	01dec1b3          	xor	gp,t4,t4

000000008000bef0 <i_11801>:
    8000bef0:	01c0cc63          	blt	ra,t3,8000bf08 <i_11807>

000000008000bef4 <i_11802>:
    8000bef4:	013ae863          	bltu	s5,s3,8000bf04 <i_11806>

000000008000bef8 <i_11803>:
    8000bef8:	15c12983          	lw	s3,348(sp)

000000008000befc <i_11804>:
    8000befc:	0339a533          	mulhsu	a0,s3,s3

000000008000bf00 <i_11805>:
    8000bf00:	01600293          	li	t0,22

000000008000bf04 <i_11806>:
    8000bf04:	405d57b3          	sra	a5,s10,t0

000000008000bf08 <i_11807>:
    8000bf08:	005506b3          	add	a3,a0,t0

000000008000bf0c <i_11808>:
    8000bf0c:	40dd0d3b          	subw	s10,s10,a3

000000008000bf10 <i_11809>:
    8000bf10:	00000013          	nop

000000008000bf14 <i_11810>:
    8000bf14:	00000013          	nop

000000008000bf18 <i_11811>:
    8000bf18:	80100413          	li	s0,-2047

000000008000bf1c <i_11812>:
    8000bf1c:	81300f13          	li	t5,-2029

000000008000bf20 <i_11813>:
    8000bf20:	06511423          	sh	t0,104(sp)

000000008000bf24 <i_11814>:
    8000bf24:	0ba11583          	lh	a1,186(sp)

000000008000bf28 <i_11815>:
    8000bf28:	82300993          	li	s3,-2013

000000008000bf2c <i_11816>:
    8000bf2c:	82800c93          	li	s9,-2008

000000008000bf30 <i_11817>:
    8000bf30:	00000013          	nop

000000008000bf34 <i_11818>:
    8000bf34:	00198993          	addi	s3,s3,1
    8000bf38:	ff99ece3          	bltu	s3,s9,8000bf30 <i_11817>

000000008000bf3c <i_11819>:
    8000bf3c:	f9b63c93          	sltiu	s9,a2,-101

000000008000bf40 <i_11820>:
    8000bf40:	08612823          	sw	t1,144(sp)

000000008000bf44 <i_11821>:
    8000bf44:	00140413          	addi	s0,s0,1
    8000bf48:	fc8f7ce3          	bleu	s0,t5,8000bf20 <i_11813>

000000008000bf4c <i_11822>:
    8000bf4c:	01a28863          	beq	t0,s10,8000bf5c <i_11826>

000000008000bf50 <i_11823>:
    8000bf50:	0196e663          	bltu	a3,s9,8000bf5c <i_11826>

000000008000bf54 <i_11824>:
    8000bf54:	e8611e03          	lh	t3,-378(sp)

000000008000bf58 <i_11825>:
    8000bf58:	19d10403          	lb	s0,413(sp)

000000008000bf5c <i_11826>:
    8000bf5c:	12416c83          	lwu	s9,292(sp)

000000008000bf60 <i_11827>:
    8000bf60:	01ccce63          	blt	s9,t3,8000bf7c <i_11834>

000000008000bf64 <i_11828>:
    8000bf64:	039cfe33          	remu	t3,s9,s9

000000008000bf68 <i_11829>:
    8000bf68:	01ce5263          	ble	t3,t3,8000bf6c <i_11830>

000000008000bf6c <i_11830>:
    8000bf6c:	ef610a83          	lb	s5,-266(sp)

000000008000bf70 <i_11831>:
    8000bf70:	022c6c33          	rem	s8,s8,sp

000000008000bf74 <i_11832>:
    8000bf74:	11013183          	ld	gp,272(sp)

000000008000bf78 <i_11833>:
    8000bf78:	402adb13          	srai	s6,s5,0x2

000000008000bf7c <i_11834>:
    8000bf7c:	e7c12023          	sw	t3,-416(sp)

000000008000bf80 <i_11835>:
    8000bf80:	00000013          	nop

000000008000bf84 <i_11836>:
    8000bf84:	7b500e13          	li	t3,1973

000000008000bf88 <i_11837>:
    8000bf88:	7be00a93          	li	s5,1982

000000008000bf8c <i_11838>:
    8000bf8c:	401c5b13          	srai	s6,s8,0x1

000000008000bf90 <i_11839>:
    8000bf90:	001e0e13          	addi	t3,t3,1 # 7c523e05 <main-0x3adc1fb>
    8000bf94:	ff5e4ce3          	blt	t3,s5,8000bf8c <i_11838>

000000008000bf98 <i_11840>:
    8000bf98:	f1813823          	sd	s8,-240(sp)

000000008000bf9c <i_11841>:
    8000bf9c:	f3813183          	ld	gp,-200(sp)

000000008000bfa0 <i_11842>:
    8000bfa0:	003d0c33          	add	s8,s10,gp

000000008000bfa4 <i_11843>:
    8000bfa4:	038c7c33          	remu	s8,s8,s8

000000008000bfa8 <i_11844>:
    8000bfa8:	04312823          	sw	gp,80(sp)

000000008000bfac <i_11845>:
    8000bfac:	038c4c3b          	divw	s8,s8,s8

000000008000bfb0 <i_11846>:
    8000bfb0:	f0a11c03          	lh	s8,-246(sp)

000000008000bfb4 <i_11847>:
    8000bfb4:	19813c23          	sd	s8,408(sp)

000000008000bfb8 <i_11848>:
    8000bfb8:	018c0263          	beq	s8,s8,8000bfbc <i_11849>

000000008000bfbc <i_11849>:
    8000bfbc:	038c0263          	beq	s8,s8,8000bfe0 <i_11858>

000000008000bfc0 <i_11850>:
    8000bfc0:	f7f13023          	sd	t6,-160(sp)

000000008000bfc4 <i_11851>:
    8000bfc4:	07811323          	sh	s8,102(sp)

000000008000bfc8 <i_11852>:
    8000bfc8:	038c6463          	bltu	s8,s8,8000bff0 <i_11862>

000000008000bfcc <i_11853>:
    8000bfcc:	00200f13          	li	t5,2

000000008000bfd0 <i_11854>:
    8000bfd0:	01e31e33          	sll	t3,t1,t5

000000008000bfd4 <i_11855>:
    8000bfd4:	08012603          	lw	a2,128(sp)

000000008000bfd8 <i_11856>:
    8000bfd8:	03e61633          	mulh	a2,a2,t5

000000008000bfdc <i_11857>:
    8000bfdc:	1ca15f03          	lhu	t5,458(sp)

000000008000bfe0 <i_11858>:
    8000bfe0:	01e65863          	ble	t5,a2,8000bff0 <i_11862>

000000008000bfe4 <i_11859>:
    8000bfe4:	01912223          	sw	s9,4(sp)

000000008000bfe8 <i_11860>:
    8000bfe8:	00b3ce63          	blt	t2,a1,8000c004 <i_11867>

000000008000bfec <i_11861>:
    8000bfec:	13013583          	ld	a1,304(sp)

000000008000bff0 <i_11862>:
    8000bff0:	c315ca13          	xori	s4,a1,-975

000000008000bff4 <i_11863>:
    8000bff4:	a9b58593          	addi	a1,a1,-1381 # b34f6f13 <_end+0x334e6aff>

000000008000bff8 <i_11864>:
    8000bff8:	0145de63          	ble	s4,a1,8000c014 <i_11871>

000000008000bffc <i_11865>:
    8000bffc:	ea016b83          	lwu	s7,-352(sp)

000000008000c000 <i_11866>:
    8000c000:	eb611e03          	lh	t3,-330(sp)

000000008000c004 <i_11867>:
    8000c004:	ff813083          	ld	ra,-8(sp)

000000008000c008 <i_11868>:
    8000c008:	02108eb3          	mul	t4,ra,ra

000000008000c00c <i_11869>:
    8000c00c:	021e0e33          	mul	t3,t3,ra

000000008000c010 <i_11870>:
    8000c010:	09d13c23          	sd	t4,152(sp)

000000008000c014 <i_11871>:
    8000c014:	00015683          	lhu	a3,0(sp)

000000008000c018 <i_11872>:
    8000c018:	06013083          	ld	ra,96(sp)

000000008000c01c <i_11873>:
    8000c01c:	87800b93          	li	s7,-1928

000000008000c020 <i_11874>:
    8000c020:	88900593          	li	a1,-1911

000000008000c024 <i_11875>:
    8000c024:	00000013          	nop

000000008000c028 <i_11876>:
    8000c028:	00d0f263          	bleu	a3,ra,8000c02c <i_11877>

000000008000c02c <i_11877>:
    8000c02c:	0210f263          	bleu	ra,ra,8000c050 <i_11885>

000000008000c030 <i_11878>:
    8000c030:	0210cdb3          	div	s11,ra,ra

000000008000c034 <i_11879>:
    8000c034:	01bda0b3          	slt	ra,s11,s11

000000008000c038 <i_11880>:
    8000c038:	cd6dbd93          	sltiu	s11,s11,-810

000000008000c03c <i_11881>:
    8000c03c:	09b14e03          	lbu	t3,155(sp)

000000008000c040 <i_11882>:
    8000c040:	001b8b93          	addi	s7,s7,1
    8000c044:	febbc0e3          	blt	s7,a1,8000c024 <i_11875>

000000008000c048 <i_11883>:
    8000c048:	01b0fdb3          	and	s11,ra,s11

000000008000c04c <i_11884>:
    8000c04c:	f1b13423          	sd	s11,-248(sp)

000000008000c050 <i_11885>:
    8000c050:	f1b13023          	sd	s11,-256(sp)

000000008000c054 <i_11886>:
    8000c054:	03bdcdbb          	divw	s11,s11,s11

000000008000c058 <i_11887>:
    8000c058:	41bd80b3          	sub	ra,s11,s11

000000008000c05c <i_11888>:
    8000c05c:	da1dad93          	slti	s11,s11,-607

000000008000c060 <i_11889>:
    8000c060:	02111023          	sh	ra,32(sp)

000000008000c064 <i_11890>:
    8000c064:	01c0da63          	ble	t3,ra,8000c078 <i_11895>

000000008000c068 <i_11891>:
    8000c068:	03bdf263          	bleu	s11,s11,8000c08c <i_11900>

000000008000c06c <i_11892>:
    8000c06c:	03bdd063          	ble	s11,s11,8000c08c <i_11900>

000000008000c070 <i_11893>:
    8000c070:	e7813b83          	ld	s7,-392(sp)

000000008000c074 <i_11894>:
    8000c074:	ff012083          	lw	ra,-16(sp)

000000008000c078 <i_11895>:
    8000c078:	012ba233          	slt	tp,s7,s2

000000008000c07c <i_11896>:
    8000c07c:	00225b13          	srli	s6,tp,0x2

000000008000c080 <i_11897>:
    8000c080:	02108463          	beq	ra,ra,8000c0a8 <i_11907>

000000008000c084 <i_11898>:
    8000c084:	11e14083          	lbu	ra,286(sp)

000000008000c088 <i_11899>:
    8000c088:	17815b03          	lhu	s6,376(sp)

000000008000c08c <i_11900>:
    8000c08c:	07510403          	lb	s0,117(sp)

000000008000c090 <i_11901>:
    8000c090:	0fe14083          	lbu	ra,254(sp)

000000008000c094 <i_11902>:
    8000c094:	08a11e03          	lh	t3,138(sp)

000000008000c098 <i_11903>:
    8000c098:	1c810723          	sb	s0,462(sp)

000000008000c09c <i_11904>:
    8000c09c:	00000013          	nop

000000008000c0a0 <i_11905>:
    8000c0a0:	028454bb          	divuw	s1,s0,s0

000000008000c0a4 <i_11906>:
    8000c0a4:	00000013          	nop

000000008000c0a8 <i_11907>:
    8000c0a8:	0150a0b3          	slt	ra,ra,s5

000000008000c0ac <i_11908>:
    8000c0ac:	00000013          	nop

000000008000c0b0 <i_11909>:
    8000c0b0:	80600413          	li	s0,-2042

000000008000c0b4 <i_11910>:
    8000c0b4:	80c00513          	li	a0,-2036

000000008000c0b8 <i_11911>:
    8000c0b8:	0b611283          	lh	t0,182(sp)

000000008000c0bc <i_11912>:
    8000c0bc:	ff811383          	lh	t2,-8(sp)

000000008000c0c0 <i_11913>:
    8000c0c0:	0250c063          	blt	ra,t0,8000c0e0 <i_11920>

000000008000c0c4 <i_11914>:
    8000c0c4:	15813083          	ld	ra,344(sp)

000000008000c0c8 <i_11915>:
    8000c0c8:	00140413          	addi	s0,s0,1
    8000c0cc:	fea446e3          	blt	s0,a0,8000c0b8 <i_11911>

000000008000c0d0 <i_11916>:
    8000c0d0:	1a012803          	lw	a6,416(sp)

000000008000c0d4 <i_11917>:
    8000c0d4:	37cf4397          	auipc	t2,0x37cf4

000000008000c0d8 <i_11918>:
    8000c0d8:	0300f0bb          	remuw	ra,ra,a6

000000008000c0dc <i_11919>:
    8000c0dc:	a387b793          	sltiu	a5,a5,-1480

000000008000c0e0 <i_11920>:
    8000c0e0:	18c16e03          	lwu	t3,396(sp)

000000008000c0e4 <i_11921>:
    8000c0e4:	14611d03          	lh	s10,326(sp)

000000008000c0e8 <i_11922>:
    8000c0e8:	07e11803          	lh	a6,126(sp)

000000008000c0ec <i_11923>:
    8000c0ec:	e3c12223          	sw	t3,-476(sp)

000000008000c0f0 <i_11924>:
    8000c0f0:	1d012e03          	lw	t3,464(sp)

000000008000c0f4 <i_11925>:
    8000c0f4:	fa914e03          	lbu	t3,-87(sp)

000000008000c0f8 <i_11926>:
    8000c0f8:	bf4dce17          	auipc	t3,0xbf4dc

000000008000c0fc <i_11927>:
    8000c0fc:	03010223          	sb	a6,36(sp)

000000008000c100 <i_11928>:
    8000c100:	01ce0e63          	beq	t3,t3,8000c11c <i_11935>

000000008000c104 <i_11929>:
    8000c104:	037e5bbb          	divuw	s7,t3,s7

000000008000c108 <i_11930>:
    8000c108:	01761463          	bne	a2,s7,8000c110 <i_11932>

000000008000c10c <i_11931>:
    8000c10c:	fe215e83          	lhu	t4,-30(sp)

000000008000c110 <i_11932>:
    8000c110:	01ce0663          	beq	t3,t3,8000c11c <i_11935>

000000008000c114 <i_11933>:
    8000c114:	eb813d83          	ld	s11,-328(sp)

000000008000c118 <i_11934>:
    8000c118:	01be81b3          	add	gp,t4,s11

000000008000c11c <i_11935>:
    8000c11c:	41bf0f33          	sub	t5,t5,s11

000000008000c120 <i_11936>:
    8000c120:	12213823          	sd	sp,304(sp)

000000008000c124 <i_11937>:
    8000c124:	0c412d83          	lw	s11,196(sp)

000000008000c128 <i_11938>:
    8000c128:	00475e13          	srli	t3,a4,0x4

000000008000c12c <i_11939>:
    8000c12c:	03c6ae33          	mulhsu	t3,a3,t3

000000008000c130 <i_11940>:
    8000c130:	fdb102a3          	sb	s11,-59(sp)

000000008000c134 <i_11941>:
    8000c134:	01800a13          	li	s4,24

000000008000c138 <i_11942>:
    8000c138:	414e54b3          	sra	s1,t3,s4

000000008000c13c <i_11943>:
    8000c13c:	01418a63          	beq	gp,s4,8000c150 <i_11948>

000000008000c140 <i_11944>:
    8000c140:	03ce6463          	bltu	t3,t3,8000c168 <i_11954>

000000008000c144 <i_11945>:
    8000c144:	f94100a3          	sb	s4,-127(sp)

000000008000c148 <i_11946>:
    8000c148:	e3816e03          	lwu	t3,-456(sp)

000000008000c14c <i_11947>:
    8000c14c:	17c4f693          	andi	a3,s1,380

000000008000c150 <i_11948>:
    8000c150:	00000013          	nop

000000008000c154 <i_11949>:
    8000c154:	027486bb          	mulw	a3,s1,t2

000000008000c158 <i_11950>:
    8000c158:	ff510683          	lb	a3,-11(sp)

000000008000c15c <i_11951>:
    8000c15c:	f2813383          	ld	t2,-216(sp)

000000008000c160 <i_11952>:
    8000c160:	4e76b693          	sltiu	a3,a3,1255

000000008000c164 <i_11953>:
    8000c164:	01a00413          	li	s0,26

000000008000c168 <i_11954>:
    8000c168:	4086d1b3          	sra	gp,a3,s0

000000008000c16c <i_11955>:
    8000c16c:	1d013183          	ld	gp,464(sp)

000000008000c170 <i_11956>:
    8000c170:	7e900493          	li	s1,2025

000000008000c174 <i_11957>:
    8000c174:	7f600f13          	li	t5,2038

000000008000c178 <i_11958>:
    8000c178:	e4710183          	lb	gp,-441(sp)

000000008000c17c <i_11959>:
    8000c17c:	ea312e23          	sw	gp,-324(sp)

000000008000c180 <i_11960>:
    8000c180:	00148493          	addi	s1,s1,1
    8000c184:	ffe4eae3          	bltu	s1,t5,8000c178 <i_11958>

000000008000c188 <i_11961>:
    8000c188:	16810fa3          	sb	s0,383(sp)

000000008000c18c <i_11962>:
    8000c18c:	03e47a3b          	remuw	s4,s0,t5

000000008000c190 <i_11963>:
    8000c190:	09815403          	lhu	s0,152(sp)

000000008000c194 <i_11964>:
    8000c194:	03440463          	beq	s0,s4,8000c1bc <i_11974>

000000008000c198 <i_11965>:
    8000c198:	11a10c03          	lb	s8,282(sp)

000000008000c19c <i_11966>:
    8000c19c:	f3312a23          	sw	s3,-204(sp)

000000008000c1a0 <i_11967>:
    8000c1a0:	028eac33          	mulhsu	s8,t4,s0

000000008000c1a4 <i_11968>:
    8000c1a4:	fe310723          	sb	gp,-18(sp)

000000008000c1a8 <i_11969>:
    8000c1a8:	e9410f23          	sb	s4,-354(sp)

000000008000c1ac <i_11970>:
    8000c1ac:	023701b3          	mul	gp,a4,gp

000000008000c1b0 <i_11971>:
    8000c1b0:	018182b3          	add	t0,gp,s8

000000008000c1b4 <i_11972>:
    8000c1b4:	00375e63          	ble	gp,a4,8000c1d0 <i_11979>

000000008000c1b8 <i_11973>:
    8000c1b8:	0e215983          	lhu	s3,226(sp)

000000008000c1bc <i_11974>:
    8000c1bc:	f8e10d83          	lb	s11,-114(sp)

000000008000c1c0 <i_11975>:
    8000c1c0:	01513c23          	sd	s5,24(sp)

000000008000c1c4 <i_11976>:
    8000c1c4:	12c16b03          	lwu	s6,300(sp)

000000008000c1c8 <i_11977>:
    8000c1c8:	6a657797          	auipc	a5,0x6a657

000000008000c1cc <i_11978>:
    8000c1cc:	03b9d4b3          	divu	s1,s3,s11

000000008000c1d0 <i_11979>:
    8000c1d0:	40978c3b          	subw	s8,a5,s1

000000008000c1d4 <i_11980>:
    8000c1d4:	e6710203          	lb	tp,-409(sp)

000000008000c1d8 <i_11981>:
    8000c1d8:	024257b3          	divu	a5,tp,tp

000000008000c1dc <i_11982>:
    8000c1dc:	74400493          	li	s1,1860

000000008000c1e0 <i_11983>:
    8000c1e0:	74900d93          	li	s11,1865

000000008000c1e4 <i_11984>:
    8000c1e4:	4032521b          	sraiw	tp,tp,0x3

000000008000c1e8 <i_11985>:
    8000c1e8:	03b2543b          	divuw	s0,tp,s11

000000008000c1ec <i_11986>:
    8000c1ec:	f4910083          	lb	ra,-183(sp)

000000008000c1f0 <i_11987>:
    8000c1f0:	f0812203          	lw	tp,-248(sp)

000000008000c1f4 <i_11988>:
    8000c1f4:	00108c63          	beq	ra,ra,8000c20c <i_11994>

000000008000c1f8 <i_11989>:
    8000c1f8:	f3210083          	lb	ra,-206(sp)

000000008000c1fc <i_11990>:
    8000c1fc:	00000013          	nop

000000008000c200 <i_11991>:
    8000c200:	0a815383          	lhu	t2,168(sp)

000000008000c204 <i_11992>:
    8000c204:	09410603          	lb	a2,148(sp)

000000008000c208 <i_11993>:
    8000c208:	e6015b83          	lhu	s7,-416(sp)

000000008000c20c <i_11994>:
    8000c20c:	02799463          	bne	s3,t2,8000c234 <i_12003>

000000008000c210 <i_11995>:
    8000c210:	02712c23          	sw	t2,56(sp)

000000008000c214 <i_11996>:
    8000c214:	02c63333          	mulhu	t1,a2,a2

000000008000c218 <i_11997>:
    8000c218:	02257e33          	remu	t3,a0,sp

000000008000c21c <i_11998>:
    8000c21c:	02766833          	rem	a6,a2,t2

000000008000c220 <i_11999>:
    8000c220:	00148493          	addi	s1,s1,1
    8000c224:	fc9dd0e3          	ble	s1,s11,8000c1e4 <i_11984>

000000008000c228 <i_12000>:
    8000c228:	00000013          	nop

000000008000c22c <i_12001>:
    8000c22c:	00000013          	nop

000000008000c230 <i_12002>:
    8000c230:	00000013          	nop

000000008000c234 <i_12003>:
    8000c234:	00000013          	nop

000000008000c238 <i_12004>:
    8000c238:	00000013          	nop

000000008000c23c <i_12005>:
    8000c23c:	00000013          	nop

000000008000c240 <i_12006>:
    8000c240:	00000013          	nop

000000008000c244 <i_12007>:
    8000c244:	00000013          	nop

000000008000c248 <i_12008>:
    8000c248:	00000013          	nop

000000008000c24c <i_12009>:
    8000c24c:	00000013          	nop
    8000c250:	0040006f          	j	8000c254 <tohost_exit>

000000008000c254 <tohost_exit>:
    8000c254:	00100113          	li	sp,1
    8000c258:	01f11113          	slli	sp,sp,0x1f
    8000c25c:	000101b7          	lui	gp,0x10
    8000c260:	00310133          	add	sp,sp,gp
    8000c264:	00100713          	li	a4,1
    8000c268:	40e12023          	sw	a4,1024(sp)

000000008000c26c <loop>:
    8000c26c:	0000006f          	j	8000c26c <loop>
    8000c270:	0000                	unimp
	...

Disassembly of section .data:

0000000080010000 <data>:
    80010000:	eb80                	sd	s0,16(a5)
    80010002:	dc38                	sw	a4,120(s0)
    80010004:	5634                	lw	a3,104(a2)
    80010006:	b8f2                	fsd	ft8,112(sp)
    80010008:	e335                	bnez	a4,8001006c <data+0x6c>
    8001000a:	b3f1                	j	8000fdd6 <loop+0x3b6a>
    8001000c:	1fce                	slli	t6,t6,0x33
    8001000e:	6314                	ld	a3,0(a4)
    80010010:	7fda                	ld	t6,432(sp)
    80010012:	324e                	fld	ft4,240(sp)
    80010014:	685ef63b          	0x685ef63b
    80010018:	1692                	slli	a3,a3,0x24
    8001001a:	8f95                	sub	a5,a5,a3
    8001001c:	2a80                	fld	fs0,16(a3)
    8001001e:	dd05                	beqz	a0,8000ff56 <loop+0x3cea>
    80010020:	0de4bdab          	0xde4bdab
    80010024:	17c9                	addi	a5,a5,-14
    80010026:	5488561b          	0x5488561b
    8001002a:	70f0445b          	0x70f0445b
    8001002e:	ba8d                	j	8000f9a0 <loop+0x3734>
    80010030:	700d                	c.lui	zero,0xfffe3
    80010032:	439e                	lw	t2,196(sp)
    80010034:	e3fd                	bnez	a5,8001011a <data+0x11a>
    80010036:	a7fa9473          	csrrw	s0,0xa7f,s5
    8001003a:	22e5                	addiw	t0,t0,25
    8001003c:	ceec                	sw	a1,92(a3)
    8001003e:	bf6c                	fsd	fa1,248(a4)
    80010040:	9150                	0x9150
    80010042:	2a40                	fld	fs0,144(a2)
    80010044:	17046a6b          	0x17046a6b
    80010048:	7d42                	ld	s10,48(sp)
    8001004a:	ded20047          	fmsub.q	ft0,ft4,fa3,fs11,rne
    8001004e:	20e6                	fld	ft1,88(sp)
    80010050:	df1c4443          	fmadd.q	fs0,fs8,fa7,fs11,rmm
    80010054:	2e62148b          	0x2e62148b
    80010058:	790095b3          	0x790095b3
    8001005c:	f11d                	bnez	a0,8000ff82 <loop+0x3d16>
    8001005e:	678e                	ld	a5,192(sp)
    80010060:	bbcd                	j	8000fe52 <loop+0x3be6>
    80010062:	d362                	sw	s8,164(sp)
    80010064:	c6ff                	0xc6ff
    80010066:	f7c13847          	fmsub.q	fa6,ft2,ft8,ft10,rup
    8001006a:	8889                	andi	s1,s1,2
    8001006c:	ecca45c7          	0xecca45c7
    80010070:	6670                	ld	a2,200(a2)
    80010072:	a9b2f02b          	0xa9b2f02b
    80010076:	64c1                	lui	s1,0x10
    80010078:	5428                	lw	a0,104(s0)
    8001007a:	916c                	0x916c
    8001007c:	b532                	fsd	fa2,168(sp)
    8001007e:	c05e                	sw	s7,0(sp)
    80010080:	c5cd                	beqz	a1,8001012a <data+0x12a>
    80010082:	f4d4                	sd	a3,168(s1)
    80010084:	b64c                	fsd	fa1,168(a2)
    80010086:	fd48                	sd	a0,184(a0)
    80010088:	2f417be3          	bleu	s4,sp,80010b7e <_end+0x76a>
    8001008c:	8381c5a3          	0x8381c5a3
    80010090:	a1a67b93          	andi	s7,a2,-1510
    80010094:	f73e                	sd	a5,424(sp)
    80010096:	7099                	lui	ra,0xfffe6
    80010098:	46f5                	li	a3,29
    8001009a:	1d4d                	addi	s10,s10,-13
    8001009c:	edd2                	sd	s4,216(sp)
    8001009e:	9f01                	subw	a4,a4,s0
    800100a0:	4bcd5953          	0x4bcd5953
    800100a4:	e989                	bnez	a1,800100b6 <data+0xb6>
    800100a6:	a9a1                	j	800104fe <_end+0xea>
    800100a8:	706d                	c.lui	zero,0xffffb
    800100aa:	be64                	fsd	fs1,248(a2)
    800100ac:	53596133          	0x53596133
    800100b0:	9a0c                	0x9a0c
    800100b2:	3392                	fld	ft7,288(sp)
    800100b4:	29c8                	fld	fa0,144(a1)
    800100b6:	fcbef34b          	0xfcbef34b
    800100ba:	4d32                	lw	s10,12(sp)
    800100bc:	a1ed                	j	800105a6 <_end+0x192>
    800100be:	24c7f91b          	0x24c7f91b
    800100c2:	b7c0                	fsd	fs0,168(a5)
    800100c4:	135a                	slli	t1,t1,0x36
    800100c6:	a5a8                	fsd	fa0,72(a1)
    800100c8:	1e7c6753          	fdiv.q	fa4,fs8,ft7,unknown
    800100cc:	d482                	sw	zero,104(sp)
    800100ce:	2ade                	fld	fs5,464(sp)
    800100d0:	db90                	sw	a2,48(a5)
    800100d2:	9aa1                	andi	a3,a3,-24
    800100d4:	4ff1                	li	t6,28
    800100d6:	9b68                	0x9b68
    800100d8:	c772                	sw	t3,140(sp)
    800100da:	3dad                	addiw	s11,s11,-21
    800100dc:	111c                	addi	a5,sp,160
    800100de:	63d4                	ld	a3,128(a5)
    800100e0:	1db48443          	0x1db48443
    800100e4:	be81                	j	8000fc34 <loop+0x39c8>
    800100e6:	f0d8                	sd	a4,160(s1)
    800100e8:	9829cb8f          	0x9829cb8f
    800100ec:	a835                	j	80010128 <data+0x128>
    800100ee:	db65                	beqz	a4,800100de <data+0xde>
    800100f0:	8ae5                	andi	a3,a3,25
    800100f2:	1ece                	slli	t4,t4,0x33
    800100f4:	4a4d                	li	s4,19
    800100f6:	d856                	sw	s5,48(sp)
    800100f8:	4b05                	li	s6,1
    800100fa:	907f                	0x907f
    800100fc:	070a                	slli	a4,a4,0x2
    800100fe:	b695                	j	8000fc62 <loop+0x39f6>
    80010100:	2d2a                	fld	fs10,136(sp)
    80010102:	7041d833          	0x7041d833
    80010106:	85a1                	srai	a1,a1,0x8
    80010108:	59a2                	lw	s3,40(sp)
    8001010a:	f035                	bnez	s0,8001006e <data+0x6e>
    8001010c:	ba11                	j	8000fa20 <loop+0x37b4>
    8001010e:	7d902a43          	0x7d902a43
    80010112:	8992                	mv	s3,tp
    80010114:	5f3d                	li	t5,-17
    80010116:	cb25                	beqz	a4,80010186 <data+0x186>
    80010118:	be80                	fsd	fs0,56(a3)
    8001011a:	1cfd67bb          	0x1cfd67bb
    8001011e:	fa4190e7          	0xfa4190e7
    80010122:	abda                	fsd	fs6,464(sp)
    80010124:	50a5f207          	0x50a5f207
    80010128:	9251                	srli	a2,a2,0x34
    8001012a:	85aa6247          	0x85aa6247
    8001012e:	471dcc6b          	0x471dcc6b
    80010132:	19d6                	slli	s3,s3,0x35
    80010134:	58df 1259 c8d1      	0xc8d1125958df
    8001013a:	f5899197          	auipc	gp,0xf5899
    8001013e:	30a1e4fb          	0x30a1e4fb
    80010142:	6b65                	lui	s6,0x19
    80010144:	d7d5                	beqz	a5,800100f0 <data+0xf0>
    80010146:	6e7d                	lui	t3,0x1f
    80010148:	a59a                	fsd	ft6,200(sp)
    8001014a:	9f3d                	addw	a4,a4,a5
    8001014c:	5be5                	li	s7,-7
    8001014e:	3db94a67          	0x3db94a67
    80010152:	1c9c                	addi	a5,sp,624
    80010154:	9974                	0x9974
    80010156:	10e2                	slli	ra,ra,0x38
    80010158:	1a60cc37          	lui	s8,0x1a60c
    8001015c:	4dcd9fab          	0x4dcd9fab
    80010160:	2754                	fld	fa3,136(a4)
    80010162:	af59af83          	lw	t6,-1291(s3)
    80010166:	d98c                	sw	a1,48(a1)
    80010168:	e542                	sd	a6,136(sp)
    8001016a:	8dd9                	or	a1,a1,a4
    8001016c:	a8a1                	j	800101c4 <data+0x1c4>
    8001016e:	ed86                	sd	ra,216(sp)
    80010170:	cdfc                	sw	a5,92(a1)
    80010172:	b535                	j	8000ff9e <loop+0x3d32>
    80010174:	4c1d                	li	s8,7
    80010176:	6256                	ld	tp,336(sp)
    80010178:	75fe                	ld	a1,504(sp)
    8001017a:	d0793797          	auipc	a5,0xd0793
    8001017e:	d471                	beqz	s0,8001014a <data+0x14a>
    80010180:	d44a                	sw	s2,40(sp)
    80010182:	ab31                	j	8001069e <_end+0x28a>
    80010184:	8318                	0x8318
    80010186:	9b54                	0x9b54
    80010188:	394fe9c7          	fmsub.s	fs3,ft11,fs4,ft7,unknown
    8001018c:	6f70                	ld	a2,216(a4)
    8001018e:	b744                	fsd	fs1,168(a4)
    80010190:	9bbc                	0x9bbc
    80010192:	c5c6                	sw	a7,200(sp)
    80010194:	6645                	lui	a2,0x11
    80010196:	139e                	slli	t2,t2,0x27
    80010198:	219d                	addiw	gp,gp,7
    8001019a:	21c2cf47          	fmsub.s	ft10,ft5,ft8,ft4,rmm
    8001019e:	1689                	addi	a3,a3,-30
    800101a0:	a5904127          	fsq	fs9,-1470(zero) # ffffffffffffaa42 <_end+0xffffffff7ffea62e>
    800101a4:	e49f 84ee 13bc      	0x13bc84eee49f
    800101aa:	8cb4                	0x8cb4
    800101ac:	15c11477          	0x15c11477
    800101b0:	5769                	li	a4,-6
    800101b2:	00d6                	slli	ra,ra,0x15
    800101b4:	756c                	ld	a1,232(a0)
    800101b6:	0b1d                	addi	s6,s6,7
    800101b8:	62dc                	ld	a5,128(a3)
    800101ba:	b518                	fsd	fa4,40(a0)
    800101bc:	1e7766f7          	0x1e7766f7
    800101c0:	91bd                	srli	a1,a1,0x2f
    800101c2:	9002                	ebreak
    800101c4:	d19e                	sw	t2,224(sp)
    800101c6:	f939                	bnez	a0,8001011c <data+0x11c>
    800101c8:	24b8                	fld	fa4,72(s1)
    800101ca:	ecd74337          	lui	t1,0xecd74
    800101ce:	f6a0                	sd	s0,104(a3)
    800101d0:	d3987b07          	0xd3987b07
    800101d4:	e6e5ad53          	0xe6e5ad53
    800101d8:	825c                	0x825c
    800101da:	6b12                	ld	s6,256(sp)
    800101dc:	3f269523          	sh	s2,1002(a3)
    800101e0:	54ee                	lw	s1,248(sp)
    800101e2:	701d                	c.lui	zero,0xfffe7
    800101e4:	5376                	lw	t1,124(sp)
    800101e6:	fa15                	bnez	a2,8001011a <data+0x11a>
    800101e8:	e35f 84ad 7add      	0x7add84ade35f
    800101ee:	99a4c37b          	0x99a4c37b
    800101f2:	804a                	c.mv	zero,s2
    800101f4:	f2b5                	bnez	a3,80010158 <data+0x158>
    800101f6:	59c1                	li	s3,-16
    800101f8:	b318                	fsd	fa4,32(a4)
    800101fa:	a034                	fsd	fa3,64(s0)
    800101fc:	3800                	fld	fs0,48(s0)
    800101fe:	a8f4                	fsd	fa3,208(s1)
    80010200:	154e                	slli	a0,a0,0x33
    80010202:	d3fa933f 51c9a150 	0x51c9a150d3fa933f
    8001020a:	9609                	srai	a2,a2,0x22
    8001020c:	7ac37087          	0x7ac37087
    80010210:	96ea6e37          	lui	t3,0x96ea6
    80010214:	32ed                	addiw	t0,t0,-5
    80010216:	e4b7320f          	0xe4b7320f
    8001021a:	835ceb4b          	fnmsub.d	fs6,fs9,fs5,fa6,unknown
    8001021e:	0b4c                	addi	a1,sp,404
    80010220:	2b16                	fld	fs6,320(sp)
    80010222:	d106                	sw	ra,160(sp)
    80010224:	e400                	sd	s0,8(s0)
    80010226:	3351                	addiw	t1,t1,-12
    80010228:	1b4a                	slli	s6,s6,0x32
    8001022a:	54cd                	li	s1,-13
    8001022c:	6362                	ld	t1,24(sp)
    8001022e:	c245                	beqz	a2,800102ce <data+0x2ce>
    80010230:	e6c4                	sd	s1,136(a3)
    80010232:	f35f 668c 3f08      	0x3f08668cf35f
    80010238:	4aa1                	li	s5,8
    8001023a:	f5540523          	sb	s5,-182(s0)
    8001023e:	f688                	sd	a0,40(a3)
    80010240:	97897b93          	andi	s7,s2,-1672
    80010244:	d4f2                	sw	t3,104(sp)
    80010246:	0b24                	addi	s1,sp,408
    80010248:	560403af          	0x560403af
    8001024c:	3b99                	addiw	s7,s7,-26
    8001024e:	1cba                	slli	s9,s9,0x2e
    80010250:	b901                	j	8000fe60 <loop+0x3bf4>
    80010252:	2528                	fld	fa0,72(a0)
    80010254:	39d99393          	0x39d99393
    80010258:	ebb59c43          	fmadd.d	fs8,fa1,fs11,ft9,rtz
    8001025c:	4cbe                	lw	s9,204(sp)
    8001025e:	6499                	lui	s1,0x6
    80010260:	002a                	c.slli	zero,0xa
    80010262:	abe8cecb          	fnmsub.d	ft9,fa7,ft10,fs5,rmm
    80010266:	6d4e                	ld	s10,208(sp)
    80010268:	c8fa                	sw	t5,80(sp)
    8001026a:	7fcc                	ld	a1,184(a5)
    8001026c:	8e89                	sub	a3,a3,a0
    8001026e:	1c72                	slli	s8,s8,0x3c
    80010270:	f7f1                	bnez	a5,8001023c <data+0x23c>
    80010272:	241e                	fld	fs0,448(sp)
    80010274:	2b720bcb          	fnmsub.d	fs7,ft4,fs7,ft5,rne
    80010278:	3145                	addiw	sp,sp,-15
    8001027a:	c854                	sw	a3,20(s0)
    8001027c:	2898                	fld	fa4,16(s1)
    8001027e:	5d35e8e7          	0x5d35e8e7
    80010282:	d51805db          	0xd51805db
    80010286:	e9d9                	bnez	a1,8001031c <data+0x31c>
    80010288:	428aafdb          	0x428aafdb
    8001028c:	d009                	beqz	s0,8001018e <data+0x18e>
    8001028e:	c4b1                	beqz	s1,800102da <data+0x2da>
    80010290:	2eb3e93b          	0x2eb3e93b
    80010294:	6b91                	lui	s7,0x4
    80010296:	3d18                	fld	fa4,56(a0)
    80010298:	b372                	fsd	ft8,416(sp)
    8001029a:	81bae2cb          	fnmsub.s	ft5,fs5,fs11,fa6,unknown
    8001029e:	916c                	0x916c
    800102a0:	bc6a                	fsd	fs10,56(sp)
    800102a2:	2a1e8693          	addi	a3,t4,673
    800102a6:	d650                	sw	a2,44(a2)
    800102a8:	3cddf1bf a51f550c 	0xa51f550c3cddf1bf
    800102b0:	76d1                	lui	a3,0xffff4
    800102b2:	e11e                	sd	t2,128(sp)
    800102b4:	28dfcdef          	jal	s11,8010cd40 <_end+0xfc92c>
    800102b8:	92398a07          	0x92398a07
    800102bc:	6651                	lui	a2,0x14
    800102be:	d3cc                	sw	a1,36(a5)
    800102c0:	c2190c47          	fmsub.d	fs8,fs2,ft1,fs8,rne
    800102c4:	6e6e                	ld	t3,216(sp)
    800102c6:	0f30                	addi	a2,sp,920
    800102c8:	f221                	bnez	a2,80010208 <data+0x208>
    800102ca:	b76111b3          	0xb76111b3
    800102ce:	4055                	c.li	zero,21
    800102d0:	63d9                	lui	t2,0x16
    800102d2:	ba99                	j	8000fc28 <loop+0x39bc>
    800102d4:	3efc                	fld	fa5,248(a3)
    800102d6:	8cc4                	0x8cc4
    800102d8:	9fd4                	0x9fd4
    800102da:	e7c914a3          	sh	t3,-407(s2)
    800102de:	de1a                	sw	t1,60(sp)
    800102e0:	a1adb5bf 1887db89 	0x1887db89a1adb5bf
    800102e8:	d25e                	sw	s7,36(sp)
    800102ea:	847f                	0x847f
    800102ec:	5d7e                	lw	s10,252(sp)
    800102ee:	f51e                	sd	t2,168(sp)
    800102f0:	2e9a                	fld	ft9,384(sp)
    800102f2:	4390                	lw	a2,0(a5)
    800102f4:	a44b503b          	0xa44b503b
    800102f8:	742d                	lui	s0,0xfffeb
    800102fa:	bb7c                	fsd	fa5,240(a4)
    800102fc:	adf6                	fsd	ft9,216(sp)
    800102fe:	746c                	ld	a1,232(s0)
    80010300:	8878c81b          	0x8878c81b
    80010304:	3206                	fld	ft4,96(sp)
    80010306:	f1e0                	sd	s0,224(a1)
    80010308:	8485                	srai	s1,s1,0x1
    8001030a:	77cbbf8b          	0x77cbbf8b
    8001030e:	ebe1                	bnez	a5,800103de <data+0x3de>
    80010310:	0655                	addi	a2,a2,21
    80010312:	320c                	fld	fa1,32(a2)
    80010314:	2d42                	fld	fs10,16(sp)
    80010316:	5aad1603          	lh	a2,1450(s10) # 9a4124f6 <_end+0x1a4020e2>
    8001031a:	ad28                	fsd	fa0,88(a0)
    8001031c:	17cc                	addi	a1,sp,996
    8001031e:	9edc                	0x9edc
    80010320:	361ccf5b          	0x361ccf5b
    80010324:	0aa2                	slli	s5,s5,0x8
    80010326:	e194                	sd	a3,0(a1)
    80010328:	1a3c                	addi	a5,sp,312
    8001032a:	786e                	ld	a6,248(sp)
    8001032c:	7f32                	ld	t5,296(sp)
    8001032e:	b372                	fsd	ft8,416(sp)
    80010330:	535c                	lw	a5,36(a4)
    80010332:	c082                	sw	zero,64(sp)
    80010334:	08a5                	addi	a7,a7,9
    80010336:	a396                	fsd	ft5,448(sp)
    80010338:	a365                	j	800108e0 <_end+0x4cc>
    8001033a:	890e                	mv	s2,gp
    8001033c:	455d                	li	a0,23
    8001033e:	6372                	ld	t1,280(sp)
    80010340:	5241                	li	tp,-16
    80010342:	de71                	beqz	a2,8001031e <data+0x31e>
    80010344:	b744                	fsd	fs1,168(a4)
    80010346:	9b1e                	add	s6,s6,t2
    80010348:	4330                	lw	a2,64(a4)
    8001034a:	1b7e                	slli	s6,s6,0x3f
    8001034c:	f050                	sd	a2,160(s0)
    8001034e:	f575                	bnez	a0,8001033a <data+0x33a>
    80010350:	4bc37a2f          	0x4bc37a2f
    80010354:	6a61                	lui	s4,0x18
    80010356:	c364                	sw	s1,68(a4)
    80010358:	a08c                	fsd	fa1,0(s1)
    8001035a:	3925                	addiw	s2,s2,-23
    8001035c:	b328                	fsd	fa0,96(a4)
    8001035e:	aade                	fsd	fs7,336(sp)
    80010360:	6bb6                	ld	s7,328(sp)
    80010362:	20ca                	fld	ft1,144(sp)
    80010364:	2469                	addiw	s0,s0,26
    80010366:	1c66                	slli	s8,s8,0x39
    80010368:	0a12                	slli	s4,s4,0x4
    8001036a:	99a5                	andi	a1,a1,-23
    8001036c:	6b9a4123          	0x6b9a4123
    80010370:	e54d                	bnez	a0,8001041a <_end+0x6>
    80010372:	e3bc                	sd	a5,64(a5)
    80010374:	0738                	addi	a4,sp,904
    80010376:	91274d9b          	0x91274d9b
    8001037a:	0f44d9f3          	csrrwi	s3,0xf4,9
    8001037e:	f90c                	sd	a1,48(a0)
    80010380:	4b1f 76a4 8711      	0x871176a44b1f
    80010386:	a7ca                	fsd	fs2,456(sp)
    80010388:	3948                	fld	fa0,176(a0)
    8001038a:	4f24                	lw	s1,88(a4)
    8001038c:	e2f0                	sd	a2,192(a3)
    8001038e:	61225cf7          	0x61225cf7
    80010392:	ea6a                	sd	s10,272(sp)
    80010394:	12f9                	addi	t0,t0,-2
    80010396:	9131                	srli	a0,a0,0x2c
    80010398:	0094                	addi	a3,sp,64
    8001039a:	d715                	beqz	a4,800102c6 <data+0x2c6>
    8001039c:	81dd                	srli	a1,a1,0x17
    8001039e:	81a7857b          	0x81a7857b
    800103a2:	9b6046eb          	0x9b6046eb
    800103a6:	c4da                	sw	s6,72(sp)
    800103a8:	605e                	0x605e
    800103aa:	59ee                	lw	s3,248(sp)
    800103ac:	e4a2                	sd	s0,72(sp)
    800103ae:	1641                	addi	a2,a2,-16
    800103b0:	9aba                	add	s5,s5,a4
    800103b2:	e0b4                	sd	a3,64(s1)
    800103b4:	cc08                	sw	a0,24(s0)
    800103b6:	fbeedbb7          	lui	s7,0xfbeed
    800103ba:	4e8e500b          	0x4e8e500b
    800103be:	9f64                	0x9f64
    800103c0:	0f95                	addi	t6,t6,5
    800103c2:	7cbc                	ld	a5,120(s1)
    800103c4:	165f afd2 e5e3      	0xe5e3afd2165f
    800103ca:	b68a                	fsd	ft2,360(sp)
    800103cc:	05fc                	addi	a5,sp,716
    800103ce:	fcf04d4b          	0xfcf04d4b
    800103d2:	b080                	fsd	fs0,32(s1)
    800103d4:	ac5c                	fsd	fa5,152(s0)
    800103d6:	3511                	addiw	a0,a0,-28
    800103d8:	90ce34c3          	fmadd.s	fs1,ft8,fa2,fs2,rup
    800103dc:	43b377ef          	jal	a5,80048016 <_end+0x37c02>
    800103e0:	701f 3555 7dd1      	0x7dd13555701f
    800103e6:	c852586f          	jal	a6,7ff3606a <main-0xc9f96>
    800103ea:	fd0e                	sd	gp,184(sp)
    800103ec:	fe22                	sd	s0,312(sp)
    800103ee:	1e58                	addi	a4,sp,820
    800103f0:	7450                	ld	a2,168(s0)
    800103f2:	9d3c0fc3          	0x9d3c0fc3
    800103f6:	1ead                	addi	t4,t4,-21
    800103f8:	f774                	sd	a3,232(a4)
    800103fa:	69ce                	ld	s3,208(sp)
    800103fc:	ea10                	sd	a2,16(a2)
    800103fe:	          	fsq	ft0,14(ra) # fffffffffffe600e <_end+0xffffffff7ffd5bfa>

Disassembly of section .tohost:

0000000080010400 <tohost>:
	...

0000000080010410 <fromhost>:
    80010410:	0000                	unimp
	...
