
output.riscv:     file format elf64-littleriscv


Disassembly of section .text:

0000000080000000 <main>:
    80000000:	40000137          	lui	sp,0x40000
    80000004:	00111113          	slli	sp,sp,0x1
    80000008:	000101b7          	lui	gp,0x10
    8000000c:	00310133          	add	sp,sp,gp
    80000010:	000032b7          	lui	t0,0x3
    80000014:	3002a073          	csrs	mstatus,t0
    80000018:	09f00293          	li	t0,159
    8000001c:	0032a073          	csrs	fcsr,t0
    80000020:	00813083          	ld	ra,8(sp) # 40000008 <main-0x3ffffff8>
    80000024:	01813183          	ld	gp,24(sp)
    80000028:	02013203          	ld	tp,32(sp)
    8000002c:	02813283          	ld	t0,40(sp)
    80000030:	03013303          	ld	t1,48(sp)
    80000034:	03813383          	ld	t2,56(sp)
    80000038:	04013403          	ld	s0,64(sp)
    8000003c:	04813483          	ld	s1,72(sp)
    80000040:	05013503          	ld	a0,80(sp)
    80000044:	05813583          	ld	a1,88(sp)
    80000048:	06013603          	ld	a2,96(sp)
    8000004c:	06813683          	ld	a3,104(sp)
    80000050:	07013703          	ld	a4,112(sp)
    80000054:	07813783          	ld	a5,120(sp)
    80000058:	08013803          	ld	a6,128(sp)
    8000005c:	08813883          	ld	a7,136(sp)
    80000060:	09013903          	ld	s2,144(sp)
    80000064:	09813983          	ld	s3,152(sp)
    80000068:	0a013a03          	ld	s4,160(sp)
    8000006c:	0a813a83          	ld	s5,168(sp)
    80000070:	0b013b03          	ld	s6,176(sp)
    80000074:	0b813b83          	ld	s7,184(sp)
    80000078:	0c013c03          	ld	s8,192(sp)
    8000007c:	0c813c83          	ld	s9,200(sp)
    80000080:	0d013d03          	ld	s10,208(sp)
    80000084:	0d813d83          	ld	s11,216(sp)
    80000088:	0e013e03          	ld	t3,224(sp)
    8000008c:	0e813e83          	ld	t4,232(sp)
    80000090:	0f013f03          	ld	t5,240(sp)
    80000094:	0f813f83          	ld	t6,248(sp)

0000000080000098 <i_0>:
    80000098:	f3c16303          	lwu	t1,-196(sp)

000000008000009c <i_1>:
    8000009c:	e5412a23          	sw	s4,-428(sp)

00000000800000a0 <i_2>:
    800000a0:	4047d79b          	sraiw	a5,a5,0x4

00000000800000a4 <i_3>:
    800000a4:	01440663          	beq	s0,s4,800000b0 <i_6>

00000000800000a8 <i_4>:
    800000a8:	fe012783          	lw	a5,-32(sp)

00000000800000ac <i_5>:
    800000ac:	00437663          	bleu	tp,t1,800000b8 <i_8>

00000000800000b0 <i_6>:
    800000b0:	00f827b3          	slt	a5,a6,a5

00000000800000b4 <i_7>:
    800000b4:	16810483          	lb	s1,360(sp)

00000000800000b8 <i_8>:
    800000b8:	efe11983          	lh	s3,-258(sp)

00000000800000bc <i_9>:
    800000bc:	0c898993          	addi	s3,s3,200

00000000800000c0 <i_10>:
    800000c0:	e8812083          	lw	ra,-376(sp)

00000000800000c4 <i_11>:
    800000c4:	0247d23b          	divuw	tp,a5,tp

00000000800000c8 <i_12>:
    800000c8:	0049c863          	blt	s3,tp,800000d8 <i_16>

00000000800000cc <i_13>:
    800000cc:	00823433          	sltu	s0,tp,s0

00000000800000d0 <i_14>:
    800000d0:	9a0e1437          	lui	s0,0x9a0e1

00000000800000d4 <i_15>:
    800000d4:	008d1c63          	bne	s10,s0,800000ec <i_21>

00000000800000d8 <i_16>:
    800000d8:	f0410403          	lb	s0,-252(sp)

00000000800000dc <i_17>:
    800000dc:	f5816983          	lwu	s3,-168(sp)

00000000800000e0 <i_18>:
    800000e0:	fd012803          	lw	a6,-48(sp)

00000000800000e4 <i_19>:
    800000e4:	00fdbeb3          	sltu	t4,s11,a5

00000000800000e8 <i_20>:
    800000e8:	ab447193          	andi	gp,s0,-1356

00000000800000ec <i_21>:
    800000ec:	00419513          	slli	a0,gp,0x4

00000000800000f0 <i_22>:
    800000f0:	e1810e83          	lb	t4,-488(sp)

00000000800000f4 <i_23>:
    800000f4:	7e400793          	li	a5,2020

00000000800000f8 <i_24>:
    800000f8:	7e700413          	li	s0,2023

00000000800000fc <i_25>:
    800000fc:	0011d093          	srli	ra,gp,0x1

0000000080000100 <i_26>:
    80000100:	05d106a3          	sb	t4,77(sp)

0000000080000104 <i_27>:
    80000104:	021500bb          	mulw	ra,a0,ra

0000000080000108 <i_28>:
    80000108:	00000013          	nop

000000008000010c <i_29>:
    8000010c:	001085b3          	add	a1,ra,ra

0000000080000110 <i_30>:
    80000110:	02b0fbbb          	remuw	s7,ra,a1

0000000080000114 <i_31>:
    80000114:	03012083          	lw	ra,48(sp)

0000000080000118 <i_32>:
    80000118:	ec5105a3          	sb	t0,-309(sp)

000000008000011c <i_33>:
    8000011c:	00178793          	addi	a5,a5,1
    80000120:	fcf45ee3          	ble	a5,s0,800000fc <i_25>

0000000080000124 <i_34>:
    80000124:	eb012403          	lw	s0,-336(sp)

0000000080000128 <i_35>:
    80000128:	13c15383          	lhu	t2,316(sp)

000000008000012c <i_36>:
    8000012c:	e2813383          	ld	t2,-472(sp)

0000000080000130 <i_37>:
    80000130:	52cbfe93          	andi	t4,s7,1324

0000000080000134 <i_38>:
    80000134:	02139463          	bne	t2,ra,8000015c <i_48>

0000000080000138 <i_39>:
    80000138:	0070e263          	bltu	ra,t2,8000013c <i_40>

000000008000013c <i_40>:
    8000013c:	027292b3          	mulh	t0,t0,t2

0000000080000140 <i_41>:
    80000140:	00000013          	nop

0000000080000144 <i_42>:
    80000144:	00000013          	nop

0000000080000148 <i_43>:
    80000148:	00b00e13          	li	t3,11

000000008000014c <i_44>:
    8000014c:	01ce1e3b          	sllw	t3,t3,t3

0000000080000150 <i_45>:
    80000150:	fbc16e03          	lwu	t3,-68(sp)

0000000080000154 <i_46>:
    80000154:	00000013          	nop

0000000080000158 <i_47>:
    80000158:	efc10123          	sb	t3,-286(sp)

000000008000015c <i_48>:
    8000015c:	03c57dbb          	remuw	s11,a0,t3

0000000080000160 <i_49>:
    80000160:	e7f10d83          	lb	s11,-385(sp)

0000000080000164 <i_50>:
    80000164:	8a100413          	li	s0,-1887

0000000080000168 <i_51>:
    80000168:	8b000393          	li	t2,-1872

000000008000016c <i_52>:
    8000016c:	41c284bb          	subw	s1,t0,t3

0000000080000170 <i_53>:
    80000170:	ef611283          	lh	t0,-266(sp)

0000000080000174 <i_54>:
    80000174:	00140413          	addi	s0,s0,1 # ffffffff9a0e1001 <_end+0xffffffff1a0d0bed>
    80000178:	fe744ae3          	blt	s0,t2,8000016c <i_52>

000000008000017c <i_55>:
    8000017c:	025d8263          	beq	s11,t0,800001a0 <i_64>

0000000080000180 <i_56>:
    80000180:	04016503          	lwu	a0,64(sp)

0000000080000184 <i_57>:
    80000184:	e8813483          	ld	s1,-376(sp)

0000000080000188 <i_58>:
    80000188:	01b51463          	bne	a0,s11,80000190 <i_60>

000000008000018c <i_59>:
    8000018c:	0250be33          	mulhu	t3,ra,t0

0000000080000190 <i_60>:
    80000190:	12c11983          	lh	s3,300(sp)

0000000080000194 <i_61>:
    80000194:	1bc12223          	sw	t3,420(sp)

0000000080000198 <i_62>:
    80000198:	0052e263          	bltu	t0,t0,8000019c <i_63>

000000008000019c <i_63>:
    8000019c:	14c12583          	lw	a1,332(sp)

00000000800001a0 <i_64>:
    800001a0:	71258593          	addi	a1,a1,1810

00000000800001a4 <i_65>:
    800001a4:	00000013          	nop

00000000800001a8 <i_66>:
    800001a8:	76f00993          	li	s3,1903

00000000800001ac <i_67>:
    800001ac:	77b00313          	li	t1,1915

00000000800001b0 <i_68>:
    800001b0:	01500513          	li	a0,21

00000000800001b4 <i_69>:
    800001b4:	00a5d5bb          	srlw	a1,a1,a0

00000000800001b8 <i_70>:
    800001b8:	ee113c23          	sd	ra,-264(sp)

00000000800001bc <i_71>:
    800001bc:	00198993          	addi	s3,s3,1
    800001c0:	fe6998e3          	bne	s3,t1,800001b0 <i_68>

00000000800001c4 <i_72>:
    800001c4:	403305b3          	sub	a1,t1,gp

00000000800001c8 <i_73>:
    800001c8:	e3813183          	ld	gp,-456(sp)

00000000800001cc <i_74>:
    800001cc:	eb812183          	lw	gp,-328(sp)

00000000800001d0 <i_75>:
    800001d0:	0c815203          	lhu	tp,200(sp)

00000000800001d4 <i_76>:
    800001d4:	f6612e23          	sw	t1,-132(sp)

00000000800001d8 <i_77>:
    800001d8:	e5416583          	lwu	a1,-428(sp)

00000000800001dc <i_78>:
    800001dc:	63323593          	sltiu	a1,tp,1587

00000000800001e0 <i_79>:
    800001e0:	ff110303          	lb	t1,-15(sp)

00000000800001e4 <i_80>:
    800001e4:	40630eb3          	sub	t4,t1,t1

00000000800001e8 <i_81>:
    800001e8:	f1812303          	lw	t1,-232(sp)

00000000800001ec <i_82>:
    800001ec:	00b30863          	beq	t1,a1,800001fc <i_86>

00000000800001f0 <i_83>:
    800001f0:	00632333          	slt	t1,t1,t1

00000000800001f4 <i_84>:
    800001f4:	40225e9b          	sraiw	t4,tp,0x2

00000000800001f8 <i_85>:
    800001f8:	00634263          	blt	t1,t1,800001fc <i_86>

00000000800001fc <i_86>:
    800001fc:	02dee83b          	remw	a6,t4,a3

0000000080000200 <i_87>:
    80000200:	fd313423          	sd	s3,-56(sp)

0000000080000204 <i_88>:
    80000204:	02684463          	blt	a6,t1,8000022c <i_98>

0000000080000208 <i_89>:
    80000208:	f7012283          	lw	t0,-144(sp)

000000008000020c <i_90>:
    8000020c:	ecc12383          	lw	t2,-308(sp)

0000000080000210 <i_91>:
    80000210:	f5016203          	lwu	tp,-176(sp)

0000000080000214 <i_92>:
    80000214:	fe813303          	ld	t1,-24(sp)

0000000080000218 <i_93>:
    80000218:	ec612c23          	sw	t1,-296(sp)

000000008000021c <i_94>:
    8000021c:	01b00093          	li	ra,27

0000000080000220 <i_95>:
    80000220:	00181a33          	sll	s4,a6,ra

0000000080000224 <i_96>:
    80000224:	f7813283          	ld	t0,-136(sp)

0000000080000228 <i_97>:
    80000228:	02f0c3b3          	div	t2,ra,a5

000000008000022c <i_98>:
    8000022c:	ee310ca3          	sb	gp,-263(sp)

0000000080000230 <i_99>:
    80000230:	00369593          	slli	a1,a3,0x3

0000000080000234 <i_100>:
    80000234:	e6615583          	lhu	a1,-410(sp)

0000000080000238 <i_101>:
    80000238:	1e814483          	lbu	s1,488(sp)

000000008000023c <i_102>:
    8000023c:	0eb11123          	sh	a1,226(sp)

0000000080000240 <i_103>:
    80000240:	10712023          	sw	t2,256(sp)

0000000080000244 <i_104>:
    80000244:	03000593          	li	a1,48

0000000080000248 <i_105>:
    80000248:	00b5d5b3          	srl	a1,a1,a1

000000008000024c <i_106>:
    8000024c:	f2913823          	sd	s1,-208(sp)

0000000080000250 <i_107>:
    80000250:	00b5c463          	blt	a1,a1,80000258 <i_109>

0000000080000254 <i_108>:
    80000254:	ffc15483          	lhu	s1,-4(sp)

0000000080000258 <i_109>:
    80000258:	0d016d83          	lwu	s11,208(sp)

000000008000025c <i_110>:
    8000025c:	02c00b93          	li	s7,44

0000000080000260 <i_111>:
    80000260:	0175dbb3          	srl	s7,a1,s7

0000000080000264 <i_112>:
    80000264:	87400593          	li	a1,-1932

0000000080000268 <i_113>:
    80000268:	88400e13          	li	t3,-1916

000000008000026c <i_114>:
    8000026c:	ebc11a23          	sh	t3,-332(sp)

0000000080000270 <i_115>:
    80000270:	1a211183          	lh	gp,418(sp)

0000000080000274 <i_116>:
    80000274:	02300b93          	li	s7,35

0000000080000278 <i_117>:
    80000278:	017292b3          	sll	t0,t0,s7

000000008000027c <i_118>:
    8000027c:	01f00193          	li	gp,31

0000000080000280 <i_119>:
    80000280:	0031d1bb          	srlw	gp,gp,gp

0000000080000284 <i_120>:
    80000284:	00158593          	addi	a1,a1,1
    80000288:	ffc592e3          	bne	a1,t3,8000026c <i_114>

000000008000028c <i_121>:
    8000028c:	4911831b          	addiw	t1,gp,1169

0000000080000290 <i_122>:
    80000290:	01f00193          	li	gp,31

0000000080000294 <i_123>:
    80000294:	403351bb          	sraw	gp,t1,gp

0000000080000298 <i_124>:
    80000298:	f9411923          	sh	s4,-110(sp)

000000008000029c <i_125>:
    8000029c:	fd013a03          	ld	s4,-48(sp)

00000000800002a0 <i_126>:
    800002a0:	0061ec63          	bltu	gp,t1,800002b8 <i_132>

00000000800002a4 <i_127>:
    800002a4:	1d412183          	lw	gp,468(sp)

00000000800002a8 <i_128>:
    800002a8:	0031aa33          	slt	s4,gp,gp

00000000800002ac <i_129>:
    800002ac:	00000013          	nop

00000000800002b0 <i_130>:
    800002b0:	0031939b          	slliw	t2,gp,0x3

00000000800002b4 <i_131>:
    800002b4:	f0412403          	lw	s0,-252(sp)

00000000800002b8 <i_132>:
    800002b8:	fc711f23          	sh	t2,-34(sp)

00000000800002bc <i_133>:
    800002bc:	fb911123          	sh	s9,-94(sp)

00000000800002c0 <i_134>:
    800002c0:	7bd00b93          	li	s7,1981

00000000800002c4 <i_135>:
    800002c4:	7cc00d93          	li	s11,1996

00000000800002c8 <i_136>:
    800002c8:	fdc11083          	lh	ra,-36(sp)

00000000800002cc <i_137>:
    800002cc:	0270f3bb          	remuw	t2,ra,t2

00000000800002d0 <i_138>:
    800002d0:	01f00093          	li	ra,31

00000000800002d4 <i_139>:
    800002d4:	4017d7bb          	sraw	a5,a5,ra

00000000800002d8 <i_140>:
    800002d8:	00000013          	nop

00000000800002dc <i_141>:
    800002dc:	00139313          	slli	t1,t2,0x1

00000000800002e0 <i_142>:
    800002e0:	034de663          	bltu	s11,s4,8000030c <i_152>

00000000800002e4 <i_143>:
    800002e4:	001b8b93          	addi	s7,s7,1
    800002e8:	ff7dd0e3          	ble	s7,s11,800002c8 <i_136>

00000000800002ec <i_144>:
    800002ec:	e6113823          	sd	ra,-400(sp)

00000000800002f0 <i_145>:
    800002f0:	03db4263          	blt	s6,t4,80000314 <i_154>

00000000800002f4 <i_146>:
    800002f4:	0e712e23          	sw	t2,252(sp)

00000000800002f8 <i_147>:
    800002f8:	01446863          	bltu	s0,s4,80000308 <i_151>

00000000800002fc <i_148>:
    800002fc:	01d404b3          	add	s1,s0,t4

0000000080000300 <i_149>:
    80000300:	fe015a03          	lhu	s4,-32(sp)

0000000080000304 <i_150>:
    80000304:	f5615583          	lhu	a1,-170(sp)

0000000080000308 <i_151>:
    80000308:	17013483          	ld	s1,368(sp)

000000008000030c <i_152>:
    8000030c:	00b44833          	xor	a6,s0,a1

0000000080000310 <i_153>:
    80000310:	00fa6463          	bltu	s4,a5,80000318 <i_155>

0000000080000314 <i_154>:
    80000314:	f28a4093          	xori	ra,s4,-216

0000000080000318 <i_155>:
    80000318:	11415383          	lhu	t2,276(sp)

000000008000031c <i_156>:
    8000031c:	18914783          	lbu	a5,393(sp)

0000000080000320 <i_157>:
    80000320:	0010f463          	bleu	ra,ra,80000328 <i_159>

0000000080000324 <i_158>:
    80000324:	01e00393          	li	t2,30

0000000080000328 <i_159>:
    80000328:	0073d7bb          	srlw	a5,t2,t2

000000008000032c <i_160>:
    8000032c:	f5416803          	lwu	a6,-172(sp)

0000000080000330 <i_161>:
    80000330:	1a614803          	lbu	a6,422(sp)

0000000080000334 <i_162>:
    80000334:	010647b3          	xor	a5,a2,a6

0000000080000338 <i_163>:
    80000338:	ff013b83          	ld	s7,-16(sp)

000000008000033c <i_164>:
    8000033c:	11013b83          	ld	s7,272(sp)

0000000080000340 <i_165>:
    80000340:	030bd7b3          	divu	a5,s7,a6

0000000080000344 <i_166>:
    80000344:	11a10983          	lb	s3,282(sp)

0000000080000348 <i_167>:
    80000348:	f5013823          	sd	a6,-176(sp)

000000008000034c <i_168>:
    8000034c:	ef810e03          	lb	t3,-264(sp)

0000000080000350 <i_169>:
    80000350:	02f7d83b          	divuw	a6,a5,a5

0000000080000354 <i_170>:
    80000354:	80c00793          	li	a5,-2036

0000000080000358 <i_171>:
    80000358:	81e00293          	li	t0,-2018

000000008000035c <i_172>:
    8000035c:	a3be6513          	ori	a0,t3,-1477

0000000080000360 <i_173>:
    80000360:	f2a13c23          	sd	a0,-200(sp)

0000000080000364 <i_174>:
    80000364:	f1c12823          	sw	t3,-240(sp)

0000000080000368 <i_175>:
    80000368:	02f2e533          	rem	a0,t0,a5

000000008000036c <i_176>:
    8000036c:	00000013          	nop

0000000080000370 <i_177>:
    80000370:	01019c63          	bne	gp,a6,80000388 <i_182>

0000000080000374 <i_178>:
    80000374:	00178793          	addi	a5,a5,1
    80000378:	fef2d2e3          	ble	a5,t0,8000035c <i_172>

000000008000037c <i_179>:
    8000037c:	8770c413          	xori	s0,ra,-1929

0000000080000380 <i_180>:
    80000380:	10c9e493          	ori	s1,s3,268

0000000080000384 <i_181>:
    80000384:	18c90093          	addi	ra,s2,396

0000000080000388 <i_182>:
    80000388:	0290f263          	bleu	s1,ra,800003ac <i_191>

000000008000038c <i_183>:
    8000038c:	02146233          	rem	tp,s0,ra

0000000080000390 <i_184>:
    80000390:	fb510083          	lb	ra,-75(sp)

0000000080000394 <i_185>:
    80000394:	001209b3          	add	s3,tp,ra

0000000080000398 <i_186>:
    80000398:	06415783          	lhu	a5,100(sp)

000000008000039c <i_187>:
    8000039c:	56682813          	slti	a6,a6,1382

00000000800003a0 <i_188>:
    800003a0:	0030951b          	slliw	a0,ra,0x3

00000000800003a4 <i_189>:
    800003a4:	40185493          	srai	s1,a6,0x1

00000000800003a8 <i_190>:
    800003a8:	01816d83          	lwu	s11,24(sp)

00000000800003ac <i_191>:
    800003ac:	01500293          	li	t0,21

00000000800003b0 <i_192>:
    800003b0:	005352b3          	srl	t0,t1,t0

00000000800003b4 <i_193>:
    800003b4:	010dc463          	blt	s11,a6,800003bc <i_195>

00000000800003b8 <i_194>:
    800003b8:	0288453b          	divw	a0,a6,s0

00000000800003bc <i_195>:
    800003bc:	02211803          	lh	a6,34(sp)

00000000800003c0 <i_196>:
    800003c0:	604d6437          	lui	s0,0x604d6

00000000800003c4 <i_197>:
    800003c4:	0085c833          	xor	a6,a1,s0

00000000800003c8 <i_198>:
    800003c8:	028435b3          	mulhu	a1,s0,s0

00000000800003cc <i_199>:
    800003cc:	02b6d9bb          	divuw	s3,a3,a1

00000000800003d0 <i_200>:
    800003d0:	00000013          	nop

00000000800003d4 <i_201>:
    800003d4:	76500593          	li	a1,1893

00000000800003d8 <i_202>:
    800003d8:	77000b93          	li	s7,1904

00000000800003dc <i_203>:
    800003dc:	4019d41b          	sraiw	s0,s3,0x1

00000000800003e0 <i_204>:
    800003e0:	00158593          	addi	a1,a1,1
    800003e4:	ff75ece3          	bltu	a1,s7,800003dc <i_203>

00000000800003e8 <i_205>:
    800003e8:	fd311f23          	sh	s3,-34(sp)

00000000800003ec <i_206>:
    800003ec:	ab8beb93          	ori	s7,s7,-1352

00000000800003f0 <i_207>:
    800003f0:	893bad93          	slti	s11,s7,-1901

00000000800003f4 <i_208>:
    800003f4:	00f00193          	li	gp,15

00000000800003f8 <i_209>:
    800003f8:	403b5dbb          	sraw	s11,s6,gp

00000000800003fc <i_210>:
    800003fc:	b421f393          	andi	t2,gp,-1214

0000000080000400 <i_211>:
    80000400:	f4a11183          	lh	gp,-182(sp)

0000000080000404 <i_212>:
    80000404:	fc312a23          	sw	gp,-44(sp)

0000000080000408 <i_213>:
    80000408:	12412483          	lw	s1,292(sp)

000000008000040c <i_214>:
    8000040c:	403bde1b          	sraiw	t3,s7,0x3

0000000080000410 <i_215>:
    80000410:	edc109a3          	sb	t3,-301(sp)

0000000080000414 <i_216>:
    80000414:	03b5d43b          	divuw	s0,a1,s11

0000000080000418 <i_217>:
    80000418:	77e00d93          	li	s11,1918

000000008000041c <i_218>:
    8000041c:	78800393          	li	t2,1928

0000000080000420 <i_219>:
    80000420:	02013983          	ld	s3,32(sp)

0000000080000424 <i_220>:
    80000424:	e1c12403          	lw	s0,-484(sp)

0000000080000428 <i_221>:
    80000428:	fd013e83          	ld	t4,-48(sp)

000000008000042c <i_222>:
    8000042c:	0291d33b          	divuw	t1,gp,s1

0000000080000430 <i_223>:
    80000430:	02b469b3          	rem	s3,s0,a1

0000000080000434 <i_224>:
    80000434:	01800b93          	li	s7,24

0000000080000438 <i_225>:
    80000438:	4179d333          	sra	t1,s3,s7

000000008000043c <i_226>:
    8000043c:	16812583          	lw	a1,360(sp)

0000000080000440 <i_227>:
    80000440:	02b329b3          	mulhsu	s3,t1,a1

0000000080000444 <i_228>:
    80000444:	001d8d93          	addi	s11,s11,1
    80000448:	fdb3dce3          	ble	s11,t2,80000420 <i_219>

000000008000044c <i_229>:
    8000044c:	bbb3039b          	addiw	t2,t1,-1093

0000000080000450 <i_230>:
    80000450:	fc612c23          	sw	t1,-40(sp)

0000000080000454 <i_231>:
    80000454:	006137b3          	sltu	a5,sp,t1

0000000080000458 <i_232>:
    80000458:	09610383          	lb	t2,150(sp)

000000008000045c <i_233>:
    8000045c:	12614383          	lbu	t2,294(sp)

0000000080000460 <i_234>:
    80000460:	14410583          	lb	a1,324(sp)

0000000080000464 <i_235>:
    80000464:	00f12a23          	sw	a5,20(sp)

0000000080000468 <i_236>:
    80000468:	f4b12223          	sw	a1,-188(sp)

000000008000046c <i_237>:
    8000046c:	007106a3          	sb	t2,13(sp)

0000000080000470 <i_238>:
    80000470:	00b36a63          	bltu	t1,a1,80000484 <i_243>

0000000080000474 <i_239>:
    80000474:	00b5ee63          	bltu	a1,a1,80000490 <i_246>

0000000080000478 <i_240>:
    80000478:	14816583          	lwu	a1,328(sp)

000000008000047c <i_241>:
    8000047c:	0245e5bb          	remw	a1,a1,tp

0000000080000480 <i_242>:
    80000480:	fc813183          	ld	gp,-56(sp)

0000000080000484 <i_243>:
    80000484:	02b5dbbb          	divuw	s7,a1,a1

0000000080000488 <i_244>:
    80000488:	0015fa63          	bleu	ra,a1,8000049c <i_249>

000000008000048c <i_245>:
    8000048c:	08b109a3          	sb	a1,147(sp)

0000000080000490 <i_246>:
    80000490:	0f012583          	lw	a1,240(sp)

0000000080000494 <i_247>:
    80000494:	0e911423          	sh	s1,232(sp)

0000000080000498 <i_248>:
    80000498:	1a312423          	sw	gp,424(sp)

000000008000049c <i_249>:
    8000049c:	1ac16383          	lwu	t2,428(sp)

00000000800004a0 <i_250>:
    800004a0:	f2214183          	lbu	gp,-222(sp)

00000000800004a4 <i_251>:
    800004a4:	03d6deb3          	divu	t4,a3,t4

00000000800004a8 <i_252>:
    800004a8:	fc713823          	sd	t2,-48(sp)

00000000800004ac <i_253>:
    800004ac:	04310ca3          	sb	gp,89(sp)

00000000800004b0 <i_254>:
    800004b0:	00b3c263          	blt	t2,a1,800004b4 <i_255>

00000000800004b4 <i_255>:
    800004b4:	11c10383          	lb	t2,284(sp)

00000000800004b8 <i_256>:
    800004b8:	183ef193          	andi	gp,t4,387

00000000800004bc <i_257>:
    800004bc:	03d18463          	beq	gp,t4,800004e4 <i_267>

00000000800004c0 <i_258>:
    800004c0:	15d11223          	sh	t4,324(sp)

00000000800004c4 <i_259>:
    800004c4:	f5013183          	ld	gp,-176(sp)

00000000800004c8 <i_260>:
    800004c8:	ee312623          	sw	gp,-276(sp)

00000000800004cc <i_261>:
    800004cc:	01600993          	li	s3,22

00000000800004d0 <i_262>:
    800004d0:	013390b3          	sll	ra,t2,s3

00000000800004d4 <i_263>:
    800004d4:	183107a3          	sb	gp,399(sp)

00000000800004d8 <i_264>:
    800004d8:	9aa1a193          	slti	gp,gp,-1622

00000000800004dc <i_265>:
    800004dc:	0231e063          	bltu	gp,gp,800004fc <i_273>

00000000800004e0 <i_266>:
    800004e0:	08e10183          	lb	gp,142(sp)

00000000800004e4 <i_267>:
    800004e4:	01854533          	xor	a0,a0,s8

00000000800004e8 <i_268>:
    800004e8:	0231e463          	bltu	gp,gp,80000510 <i_278>

00000000800004ec <i_269>:
    800004ec:	01c00493          	li	s1,28

00000000800004f0 <i_270>:
    800004f0:	0099d5b3          	srl	a1,s3,s1

00000000800004f4 <i_271>:
    800004f4:	00351863          	bne	a0,gp,80000504 <i_275>

00000000800004f8 <i_272>:
    800004f8:	12b13823          	sd	a1,304(sp)

00000000800004fc <i_273>:
    800004fc:	07215183          	lhu	gp,114(sp)

0000000080000500 <i_274>:
    80000500:	02f1f7b3          	remu	a5,gp,a5

0000000080000504 <i_275>:
    80000504:	00678e63          	beq	a5,t1,80000520 <i_282>

0000000080000508 <i_276>:
    80000508:	016f1263          	bne	t5,s6,8000050c <i_277>

000000008000050c <i_277>:
    8000050c:	ed015183          	lhu	gp,-304(sp)

0000000080000510 <i_278>:
    80000510:	0183f463          	bleu	s8,t2,80000518 <i_280>

0000000080000514 <i_279>:
    80000514:	ec411323          	sh	tp,-314(sp)

0000000080000518 <i_280>:
    80000518:	0031c1b3          	xor	gp,gp,gp

000000008000051c <i_281>:
    8000051c:	52e78793          	addi	a5,a5,1326

0000000080000520 <i_282>:
    80000520:	ffc10183          	lb	gp,-4(sp)

0000000080000524 <i_283>:
    80000524:	0237e063          	bltu	a5,gp,80000544 <i_291>

0000000080000528 <i_284>:
    80000528:	01579263          	bne	a5,s5,8000052c <i_285>

000000008000052c <i_285>:
    8000052c:	ea814483          	lbu	s1,-344(sp)

0000000080000530 <i_286>:
    80000530:	03c00313          	li	t1,60

0000000080000534 <i_287>:
    80000534:	00619533          	sll	a0,gp,t1

0000000080000538 <i_288>:
    80000538:	0237e9b3          	rem	s3,a5,gp

000000008000053c <i_289>:
    8000053c:	00000013          	nop

0000000080000540 <i_290>:
    80000540:	15c16a03          	lwu	s4,348(sp)

0000000080000544 <i_291>:
    80000544:	02913023          	sd	s1,32(sp)

0000000080000548 <i_292>:
    80000548:	00000013          	nop

000000008000054c <i_293>:
    8000054c:	8ce00193          	li	gp,-1842

0000000080000550 <i_294>:
    80000550:	8d500b93          	li	s7,-1835

0000000080000554 <i_295>:
    80000554:	00000013          	nop

0000000080000558 <i_296>:
    80000558:	f0914983          	lbu	s3,-247(sp)

000000008000055c <i_297>:
    8000055c:	8cb00793          	li	a5,-1845

0000000080000560 <i_298>:
    80000560:	8db00813          	li	a6,-1829

0000000080000564 <i_299>:
    80000564:	02a9b533          	mulhu	a0,s3,a0

0000000080000568 <i_300>:
    80000568:	00000013          	nop

000000008000056c <i_301>:
    8000056c:	f3411723          	sh	s4,-210(sp)

0000000080000570 <i_302>:
    80000570:	00178793          	addi	a5,a5,1
    80000574:	fef858e3          	ble	a5,a6,80000564 <i_299>

0000000080000578 <i_303>:
    80000578:	0e410783          	lb	a5,228(sp)

000000008000057c <i_304>:
    8000057c:	00a7ce63          	blt	a5,a0,80000598 <i_310>

0000000080000580 <i_305>:
    80000580:	00118193          	addi	gp,gp,1 # 10001 <main-0x7ffeffff>
    80000584:	fc3bf8e3          	bleu	gp,s7,80000554 <i_295>

0000000080000588 <i_306>:
    80000588:	01354e63          	blt	a0,s3,800005a4 <i_313>

000000008000058c <i_307>:
    8000058c:	02200093          	li	ra,34

0000000080000590 <i_308>:
    80000590:	401559b3          	sra	s3,a0,ra

0000000080000594 <i_309>:
    80000594:	ea211083          	lh	ra,-350(sp)

0000000080000598 <i_310>:
    80000598:	fd012023          	sw	a6,-64(sp)

000000008000059c <i_311>:
    8000059c:	1a110223          	sb	ra,420(sp)

00000000800005a0 <i_312>:
    800005a0:	0c810783          	lb	a5,200(sp)

00000000800005a4 <i_313>:
    800005a4:	022574bb          	remuw	s1,a0,sp

00000000800005a8 <i_314>:
    800005a8:	00000013          	nop

00000000800005ac <i_315>:
    800005ac:	84800513          	li	a0,-1976

00000000800005b0 <i_316>:
    800005b0:	84f00813          	li	a6,-1969

00000000800005b4 <i_317>:
    800005b4:	f9310a23          	sb	s3,-108(sp)

00000000800005b8 <i_318>:
    800005b8:	4021d49b          	sraiw	s1,gp,0x2

00000000800005bc <i_319>:
    800005bc:	00150513          	addi	a0,a0,1
    800005c0:	ff054ae3          	blt	a0,a6,800005b4 <i_317>

00000000800005c4 <i_320>:
    800005c4:	01300993          	li	s3,19

00000000800005c8 <i_321>:
    800005c8:	013813bb          	sllw	t2,a6,s3

00000000800005cc <i_322>:
    800005cc:	08013983          	ld	s3,128(sp)

00000000800005d0 <i_323>:
    800005d0:	0273f3b3          	remu	t2,t2,t2

00000000800005d4 <i_324>:
    800005d4:	77338b93          	addi	s7,t2,1907

00000000800005d8 <i_325>:
    800005d8:	01078a63          	beq	a5,a6,800005ec <i_330>

00000000800005dc <i_326>:
    800005dc:	1ac12583          	lw	a1,428(sp)

00000000800005e0 <i_327>:
    800005e0:	00239193          	slli	gp,t2,0x2

00000000800005e4 <i_328>:
    800005e4:	10e11783          	lh	a5,270(sp)

00000000800005e8 <i_329>:
    800005e8:	f6214383          	lbu	t2,-158(sp)

00000000800005ec <i_330>:
    800005ec:	fc014383          	lbu	t2,-64(sp)

00000000800005f0 <i_331>:
    800005f0:	00e0e663          	bltu	ra,a4,800005fc <i_334>

00000000800005f4 <i_332>:
    800005f4:	ed742097          	auipc	ra,0xed742

00000000800005f8 <i_333>:
    800005f8:	00138863          	beq	t2,ra,80000608 <i_337>

00000000800005fc <i_334>:
    800005fc:	0273e263          	bltu	t2,t2,80000620 <i_343>

0000000080000600 <i_335>:
    80000600:	0fc12583          	lw	a1,252(sp)

0000000080000604 <i_336>:
    80000604:	0353e1bb          	remw	gp,t2,s5

0000000080000608 <i_337>:
    80000608:	0023d79b          	srliw	a5,t2,0x2

000000008000060c <i_338>:
    8000060c:	02110403          	lb	s0,33(sp)

0000000080000610 <i_339>:
    80000610:	00f44433          	xor	s0,s0,a5

0000000080000614 <i_340>:
    80000614:	02f4743b          	remuw	s0,s0,a5

0000000080000618 <i_341>:
    80000618:	00f18463          	beq	gp,a5,80000620 <i_343>

000000008000061c <i_342>:
    8000061c:	15011183          	lh	gp,336(sp)

0000000080000620 <i_343>:
    80000620:	f9e11783          	lh	a5,-98(sp)

0000000080000624 <i_344>:
    80000624:	e8311a23          	sh	gp,-364(sp)

0000000080000628 <i_345>:
    80000628:	ea313023          	sd	gp,-352(sp)

000000008000062c <i_346>:
    8000062c:	0de11403          	lh	s0,222(sp)

0000000080000630 <i_347>:
    80000630:	aab1f193          	andi	gp,gp,-1365

0000000080000634 <i_348>:
    80000634:	e6813183          	ld	gp,-408(sp)

0000000080000638 <i_349>:
    80000638:	00200193          	li	gp,2

000000008000063c <i_350>:
    8000063c:	003199bb          	sllw	s3,gp,gp

0000000080000640 <i_351>:
    80000640:	00900993          	li	s3,9

0000000080000644 <i_352>:
    80000644:	0131d1b3          	srl	gp,gp,s3

0000000080000648 <i_353>:
    80000648:	0029e9b3          	or	s3,s3,sp

000000008000064c <i_354>:
    8000064c:	65168393          	addi	t2,a3,1617

0000000080000650 <i_355>:
    80000650:	06e3a993          	slti	s3,t2,110

0000000080000654 <i_356>:
    80000654:	0f614a03          	lbu	s4,246(sp)

0000000080000658 <i_357>:
    80000658:	12614083          	lbu	ra,294(sp)

000000008000065c <i_358>:
    8000065c:	8051a193          	slti	gp,gp,-2043

0000000080000660 <i_359>:
    80000660:	00499a13          	slli	s4,s3,0x4

0000000080000664 <i_360>:
    80000664:	e9312c23          	sw	s3,-360(sp)

0000000080000668 <i_361>:
    80000668:	01484663          	blt	a6,s4,80000674 <i_364>

000000008000066c <i_362>:
    8000066c:	12714a03          	lbu	s4,295(sp)

0000000080000670 <i_363>:
    80000670:	03aa1463          	bne	s4,s10,80000698 <i_373>

0000000080000674 <i_364>:
    80000674:	bfca2a13          	slti	s4,s4,-1028

0000000080000678 <i_365>:
    80000678:	03441e33          	mulh	t3,s0,s4

000000008000067c <i_366>:
    8000067c:	014a6263          	bltu	s4,s4,80000680 <i_367>

0000000080000680 <i_367>:
    80000680:	023a7a33          	remu	s4,s4,gp

0000000080000684 <i_368>:
    80000684:	0041d193          	srli	gp,gp,0x4

0000000080000688 <i_369>:
    80000688:	15811a03          	lh	s4,344(sp)

000000008000068c <i_370>:
    8000068c:	00000013          	nop

0000000080000690 <i_371>:
    80000690:	00000013          	nop

0000000080000694 <i_372>:
    80000694:	01000813          	li	a6,16

0000000080000698 <i_373>:
    80000698:	010a5db3          	srl	s11,s4,a6

000000008000069c <i_374>:
    8000069c:	1b211203          	lh	tp,434(sp)

00000000800006a0 <i_375>:
    800006a0:	83200a13          	li	s4,-1998

00000000800006a4 <i_376>:
    800006a4:	83400193          	li	gp,-1996

00000000800006a8 <i_377>:
    800006a8:	e6813203          	ld	tp,-408(sp)

00000000800006ac <i_378>:
    800006ac:	003800b3          	add	ra,a6,gp

00000000800006b0 <i_379>:
    800006b0:	e34100a3          	sb	s4,-479(sp)

00000000800006b4 <i_380>:
    800006b4:	00000013          	nop

00000000800006b8 <i_381>:
    800006b8:	64f1f213          	andi	tp,gp,1615

00000000800006bc <i_382>:
    800006bc:	02180663          	beq	a6,ra,800006e8 <i_392>

00000000800006c0 <i_383>:
    800006c0:	001a0a13          	addi	s4,s4,1
    800006c4:	ff4192e3          	bne	gp,s4,800006a8 <i_377>

00000000800006c8 <i_384>:
    800006c8:	01b24463          	blt	tp,s11,800006d0 <i_386>

00000000800006cc <i_385>:
    800006cc:	1940e193          	ori	gp,ra,404

00000000800006d0 <i_386>:
    800006d0:	fc012183          	lw	gp,-64(sp)

00000000800006d4 <i_387>:
    800006d4:	00000013          	nop

00000000800006d8 <i_388>:
    800006d8:	f3816d83          	lwu	s11,-200(sp)

00000000800006dc <i_389>:
    800006dc:	019d8333          	add	t1,s11,s9

00000000800006e0 <i_390>:
    800006e0:	19c16d83          	lwu	s11,412(sp)

00000000800006e4 <i_391>:
    800006e4:	001e109b          	slliw	ra,t3,0x1

00000000800006e8 <i_392>:
    800006e8:	ec611d83          	lh	s11,-314(sp)

00000000800006ec <i_393>:
    800006ec:	00000013          	nop

00000000800006f0 <i_394>:
    800006f0:	81900e13          	li	t3,-2023

00000000800006f4 <i_395>:
    800006f4:	82900213          	li	tp,-2007

00000000800006f8 <i_396>:
    800006f8:	001e9d93          	slli	s11,t4,0x1

00000000800006fc <i_397>:
    800006fc:	eb014d83          	lbu	s11,-336(sp)

0000000080000700 <i_398>:
    80000700:	02236313          	ori	t1,t1,34

0000000080000704 <i_399>:
    80000704:	01de9e63          	bne	t4,t4,80000720 <i_405>

0000000080000708 <i_400>:
    80000708:	41ae8eb3          	sub	t4,t4,s10

000000008000070c <i_401>:
    8000070c:	001e0e13          	addi	t3,t3,1
    80000710:	fe4e44e3          	blt	t3,tp,800006f8 <i_396>

0000000080000714 <i_402>:
    80000714:	11013e83          	ld	t4,272(sp)

0000000080000718 <i_403>:
    80000718:	03ded463          	ble	t4,t4,80000740 <i_413>

000000008000071c <i_404>:
    8000071c:	03deceb3          	div	t4,t4,t4

0000000080000720 <i_405>:
    80000720:	00000013          	nop

0000000080000724 <i_406>:
    80000724:	d41efb93          	andi	s7,t4,-703

0000000080000728 <i_407>:
    80000728:	00000013          	nop

000000008000072c <i_408>:
    8000072c:	00000013          	nop

0000000080000730 <i_409>:
    80000730:	ea016d83          	lwu	s11,-352(sp)

0000000080000734 <i_410>:
    80000734:	00d00b93          	li	s7,13

0000000080000738 <i_411>:
    80000738:	017bdbbb          	srlw	s7,s7,s7

000000008000073c <i_412>:
    8000073c:	1b713423          	sd	s7,424(sp)

0000000080000740 <i_413>:
    80000740:	00000013          	nop

0000000080000744 <i_414>:
    80000744:	17813d83          	ld	s11,376(sp)

0000000080000748 <i_415>:
    80000748:	78800993          	li	s3,1928

000000008000074c <i_416>:
    8000074c:	79200e93          	li	t4,1938

0000000080000750 <i_417>:
    80000750:	30ab821b          	addiw	tp,s7,778

0000000080000754 <i_418>:
    80000754:	015701b3          	add	gp,a4,s5

0000000080000758 <i_419>:
    80000758:	00000013          	nop

000000008000075c <i_420>:
    8000075c:	03c12403          	lw	s0,60(sp)

0000000080000760 <i_421>:
    80000760:	ea211b83          	lh	s7,-350(sp)

0000000080000764 <i_422>:
    80000764:	00412183          	lw	gp,4(sp)

0000000080000768 <i_423>:
    80000768:	0231d3bb          	divuw	t2,gp,gp

000000008000076c <i_424>:
    8000076c:	00198993          	addi	s3,s3,1
    80000770:	ffd9c0e3          	blt	s3,t4,80000750 <i_417>

0000000080000774 <i_425>:
    80000774:	0039c663          	blt	s3,gp,80000780 <i_428>

0000000080000778 <i_426>:
    80000778:	fab14283          	lbu	t0,-85(sp)

000000008000077c <i_427>:
    8000077c:	01a46663          	bltu	s0,s10,80000788 <i_430>

0000000080000780 <i_428>:
    80000780:	1a310283          	lb	t0,419(sp)

0000000080000784 <i_429>:
    80000784:	e6714403          	lbu	s0,-409(sp)

0000000080000788 <i_430>:
    80000788:	ef412403          	lw	s0,-268(sp)

000000008000078c <i_431>:
    8000078c:	f6111e23          	sh	ra,-132(sp)

0000000080000790 <i_432>:
    80000790:	08c16383          	lwu	t2,140(sp)

0000000080000794 <i_433>:
    80000794:	02012983          	lw	s3,32(sp)

0000000080000798 <i_434>:
    80000798:	00000013          	nop

000000008000079c <i_435>:
    8000079c:	7d000213          	li	tp,2000

00000000800007a0 <i_436>:
    800007a0:	7d300293          	li	t0,2003

00000000800007a4 <i_437>:
    800007a4:	47c5e093          	ori	ra,a1,1148

00000000800007a8 <i_438>:
    800007a8:	00000013          	nop

00000000800007ac <i_439>:
    800007ac:	00120213          	addi	tp,tp,1 # 1 <main-0x7fffffff>
    800007b0:	fe521ae3          	bne	tp,t0,800007a4 <i_437>

00000000800007b4 <i_440>:
    800007b4:	0210f9b3          	remu	s3,ra,ra

00000000800007b8 <i_441>:
    800007b8:	15313823          	sd	s3,336(sp)

00000000800007bc <i_442>:
    800007bc:	0332483b          	divw	a6,tp,s3

00000000800007c0 <i_443>:
    800007c0:	402ed213          	srai	tp,t4,0x2

00000000800007c4 <i_444>:
    800007c4:	1bd10983          	lb	s3,445(sp)

00000000800007c8 <i_445>:
    800007c8:	fc411323          	sh	tp,-58(sp)

00000000800007cc <i_446>:
    800007cc:	00e00793          	li	a5,14

00000000800007d0 <i_447>:
    800007d0:	00f2de33          	srl	t3,t0,a5

00000000800007d4 <i_448>:
    800007d4:	7b600813          	li	a6,1974

00000000800007d8 <i_449>:
    800007d8:	7c600293          	li	t0,1990

00000000800007dc <i_450>:
    800007dc:	07c14583          	lbu	a1,124(sp)

00000000800007e0 <i_451>:
    800007e0:	f2a15183          	lhu	gp,-214(sp)

00000000800007e4 <i_452>:
    800007e4:	02b097b3          	mulh	a5,ra,a1

00000000800007e8 <i_453>:
    800007e8:	00f00593          	li	a1,15

00000000800007ec <i_454>:
    800007ec:	00b0d23b          	srlw	tp,ra,a1

00000000800007f0 <i_455>:
    800007f0:	1a012183          	lw	gp,416(sp)

00000000800007f4 <i_456>:
    800007f4:	e3610623          	sb	s6,-468(sp)

00000000800007f8 <i_457>:
    800007f8:	00f26463          	bltu	tp,a5,80000800 <i_459>

00000000800007fc <i_458>:
    800007fc:	02b27263          	bleu	a1,tp,80000820 <i_466>

0000000080000800 <i_459>:
    80000800:	ee411023          	sh	tp,-288(sp)

0000000080000804 <i_460>:
    80000804:	0c410203          	lb	tp,196(sp)

0000000080000808 <i_461>:
    80000808:	02b9a233          	mulhsu	tp,s3,a1

000000008000080c <i_462>:
    8000080c:	00180813          	addi	a6,a6,1
    80000810:	fd0296e3          	bne	t0,a6,800007dc <i_450>

0000000080000814 <i_463>:
    80000814:	9687b2b7          	lui	t0,0x9687b

0000000080000818 <i_464>:
    80000818:	02b2d263          	ble	a1,t0,8000083c <i_473>

000000008000081c <i_465>:
    8000081c:	03659463          	bne	a1,s6,80000844 <i_475>

0000000080000820 <i_466>:
    80000820:	00b26c63          	bltu	tp,a1,80000838 <i_472>

0000000080000824 <i_467>:
    80000824:	18b12023          	sw	a1,384(sp)

0000000080000828 <i_468>:
    80000828:	f7615283          	lhu	t0,-138(sp)

000000008000082c <i_469>:
    8000082c:	e8312223          	sw	gp,-380(sp)

0000000080000830 <i_470>:
    80000830:	49027993          	andi	s3,tp,1168

0000000080000834 <i_471>:
    80000834:	0289f233          	remu	tp,s3,s0

0000000080000838 <i_472>:
    80000838:	14413c23          	sd	tp,344(sp)

000000008000083c <i_473>:
    8000083c:	19310c23          	sb	s3,408(sp)

0000000080000840 <i_474>:
    80000840:	018989b3          	add	s3,s3,s8

0000000080000844 <i_475>:
    80000844:	0139ce63          	blt	s3,s3,80000860 <i_482>

0000000080000848 <i_476>:
    80000848:	17310aa3          	sb	s3,373(sp)

000000008000084c <i_477>:
    8000084c:	01327e63          	bleu	s3,tp,80000868 <i_484>

0000000080000850 <i_478>:
    80000850:	bb027e93          	andi	t4,tp,-1104

0000000080000854 <i_479>:
    80000854:	03c00413          	li	s0,60

0000000080000858 <i_480>:
    80000858:	00821e33          	sll	t3,tp,s0

000000008000085c <i_481>:
    8000085c:	b4e4009b          	addiw	ra,s0,-1202

0000000080000860 <i_482>:
    80000860:	40145413          	srai	s0,s0,0x1

0000000080000864 <i_483>:
    80000864:	00b2b5b3          	sltu	a1,t0,a1

0000000080000868 <i_484>:
    80000868:	008e24b3          	slt	s1,t3,s0

000000008000086c <i_485>:
    8000086c:	0fc12383          	lw	t2,252(sp)

0000000080000870 <i_486>:
    80000870:	78600293          	li	t0,1926

0000000080000874 <i_487>:
    80000874:	79700213          	li	tp,1943

0000000080000878 <i_488>:
    80000878:	00000013          	nop

000000008000087c <i_489>:
    8000087c:	001ee463          	bltu	t4,ra,80000884 <i_491>

0000000080000880 <i_490>:
    80000880:	0343debb          	divuw	t4,t2,s4

0000000080000884 <i_491>:
    80000884:	17f14583          	lbu	a1,383(sp)

0000000080000888 <i_492>:
    80000888:	07c12303          	lw	t1,124(sp)

000000008000088c <i_493>:
    8000088c:	02416383          	lwu	t2,36(sp)

0000000080000890 <i_494>:
    80000890:	00128293          	addi	t0,t0,1 # ffffffff9687b001 <_end+0xffffffff1686abed>
    80000894:	fe4292e3          	bne	t0,tp,80000878 <i_488>

0000000080000898 <i_495>:
    80000898:	88f5849b          	addiw	s1,a1,-1905

000000008000089c <i_496>:
    8000089c:	f6813383          	ld	t2,-152(sp)

00000000800008a0 <i_497>:
    800008a0:	0274a5b3          	mulhsu	a1,s1,t2

00000000800008a4 <i_498>:
    800008a4:	ed212823          	sw	s2,-304(sp)

00000000800008a8 <i_499>:
    800008a8:	006ef463          	bleu	t1,t4,800008b0 <i_501>

00000000800008ac <i_500>:
    800008ac:	09011483          	lh	s1,144(sp)

00000000800008b0 <i_501>:
    800008b0:	02949333          	mulh	t1,s1,s1

00000000800008b4 <i_502>:
    800008b4:	00745463          	ble	t2,s0,800008bc <i_504>

00000000800008b8 <i_503>:
    800008b8:	18613423          	sd	t1,392(sp)

00000000800008bc <i_504>:
    800008bc:	16011483          	lh	s1,352(sp)

00000000800008c0 <i_505>:
    800008c0:	00911e63          	bne	sp,s1,800008dc <i_512>

00000000800008c4 <i_506>:
    800008c4:	0ac12483          	lw	s1,172(sp)

00000000800008c8 <i_507>:
    800008c8:	10611483          	lh	s1,262(sp)

00000000800008cc <i_508>:
    800008cc:	4044de9b          	sraiw	t4,s1,0x4

00000000800008d0 <i_509>:
    800008d0:	006305b3          	add	a1,t1,t1

00000000800008d4 <i_510>:
    800008d4:	0065c663          	blt	a1,t1,800008e0 <i_513>

00000000800008d8 <i_511>:
    800008d8:	e4114303          	lbu	t1,-447(sp)

00000000800008dc <i_512>:
    800008dc:	00000013          	nop

00000000800008e0 <i_513>:
    800008e0:	f9412303          	lw	t1,-108(sp)

00000000800008e4 <i_514>:
    800008e4:	17814803          	lbu	a6,376(sp)

00000000800008e8 <i_515>:
    800008e8:	84a00493          	li	s1,-1974

00000000800008ec <i_516>:
    800008ec:	84e00e93          	li	t4,-1970

00000000800008f0 <i_517>:
    800008f0:	00d5fe63          	bleu	a3,a1,8000090c <i_524>

00000000800008f4 <i_518>:
    800008f4:	1d415783          	lhu	a5,468(sp)

00000000800008f8 <i_519>:
    800008f8:	02b5c5b3          	div	a1,a1,a1

00000000800008fc <i_520>:
    800008fc:	00000013          	nop

0000000080000900 <i_521>:
    80000900:	0107f463          	bleu	a6,a5,80000908 <i_523>

0000000080000904 <i_522>:
    80000904:	9a587813          	andi	a6,a6,-1627

0000000080000908 <i_523>:
    80000908:	f1e11223          	sh	t5,-252(sp)

000000008000090c <i_524>:
    8000090c:	02f78333          	mul	t1,a5,a5

0000000080000910 <i_525>:
    80000910:	f5810303          	lb	t1,-168(sp)

0000000080000914 <i_526>:
    80000914:	0c610b23          	sb	t1,214(sp)

0000000080000918 <i_527>:
    80000918:	00000013          	nop

000000008000091c <i_528>:
    8000091c:	00148493          	addi	s1,s1,1
    80000920:	fdd498e3          	bne	s1,t4,800008f0 <i_517>

0000000080000924 <i_529>:
    80000924:	0013131b          	slliw	t1,t1,0x1

0000000080000928 <i_530>:
    80000928:	02a00993          	li	s3,42

000000008000092c <i_531>:
    8000092c:	013853b3          	srl	t2,a6,s3

0000000080000930 <i_532>:
    80000930:	12b10983          	lb	s3,299(sp)

0000000080000934 <i_533>:
    80000934:	00c99263          	bne	s3,a2,80000938 <i_534>

0000000080000938 <i_534>:
    80000938:	68b9c993          	xori	s3,s3,1675

000000008000093c <i_535>:
    8000093c:	e3313023          	sd	s3,-480(sp)

0000000080000940 <i_536>:
    80000940:	f5c12503          	lw	a0,-164(sp)

0000000080000944 <i_537>:
    80000944:	17313823          	sd	s3,368(sp)

0000000080000948 <i_538>:
    80000948:	0c813083          	ld	ra,200(sp)

000000008000094c <i_539>:
    8000094c:	0021599b          	srliw	s3,sp,0x2

0000000080000950 <i_540>:
    80000950:	1b414983          	lbu	s3,436(sp)

0000000080000954 <i_541>:
    80000954:	0109ce63          	blt	s3,a6,80000970 <i_548>

0000000080000958 <i_542>:
    80000958:	09311323          	sh	s3,134(sp)

000000008000095c <i_543>:
    8000095c:	14412283          	lw	t0,324(sp)

0000000080000960 <i_544>:
    80000960:	f4113c23          	sd	ra,-168(sp)

0000000080000964 <i_545>:
    80000964:	0302f2b3          	remu	t0,t0,a6

0000000080000968 <i_546>:
    80000968:	03c9f83b          	remuw	a6,s3,t3

000000008000096c <i_547>:
    8000096c:	0139e863          	bltu	s3,s3,8000097c <i_551>

0000000080000970 <i_548>:
    80000970:	00114e83          	lbu	t4,1(sp)

0000000080000974 <i_549>:
    80000974:	04e11283          	lh	t0,78(sp)

0000000080000978 <i_550>:
    80000978:	fe510923          	sb	t0,-14(sp)

000000008000097c <i_551>:
    8000097c:	00000013          	nop

0000000080000980 <i_552>:
    80000980:	a8f58a1b          	addiw	s4,a1,-1393

0000000080000984 <i_553>:
    80000984:	87900293          	li	t0,-1927

0000000080000988 <i_554>:
    80000988:	88a00593          	li	a1,-1910

000000008000098c <i_555>:
    8000098c:	eeb12a23          	sw	a1,-268(sp)

0000000080000990 <i_556>:
    80000990:	f8d14a03          	lbu	s4,-115(sp)

0000000080000994 <i_557>:
    80000994:	01ceae33          	slt	t3,t4,t3

0000000080000998 <i_558>:
    80000998:	fba15503          	lhu	a0,-70(sp)

000000008000099c <i_559>:
    8000099c:	81000e93          	li	t4,-2032

00000000800009a0 <i_560>:
    800009a0:	82300193          	li	gp,-2013

00000000800009a4 <i_561>:
    800009a4:	01d00393          	li	t2,29

00000000800009a8 <i_562>:
    800009a8:	4077d7bb          	sraw	a5,a5,t2

00000000800009ac <i_563>:
    800009ac:	00000013          	nop

00000000800009b0 <i_564>:
    800009b0:	00100b93          	li	s7,1

00000000800009b4 <i_565>:
    800009b4:	017e1433          	sll	s0,t3,s7

00000000800009b8 <i_566>:
    800009b8:	001e8e93          	addi	t4,t4,1
    800009bc:	fe3ee4e3          	bltu	t4,gp,800009a4 <i_561>

00000000800009c0 <i_567>:
    800009c0:	f4411503          	lh	a0,-188(sp)

00000000800009c4 <i_568>:
    800009c4:	0f811183          	lh	gp,248(sp)

00000000800009c8 <i_569>:
    800009c8:	0ac11503          	lh	a0,172(sp)

00000000800009cc <i_570>:
    800009cc:	00128293          	addi	t0,t0,1
    800009d0:	fa55dee3          	ble	t0,a1,8000098c <i_555>

00000000800009d4 <i_571>:
    800009d4:	01ebf663          	bleu	t5,s7,800009e0 <i_574>

00000000800009d8 <i_572>:
    800009d8:	0bc11b83          	lh	s7,188(sp)

00000000800009dc <i_573>:
    800009dc:	ff713423          	sd	s7,-24(sp)

00000000800009e0 <i_574>:
    800009e0:	07812583          	lw	a1,120(sp)

00000000800009e4 <i_575>:
    800009e4:	02b5fdbb          	remuw	s11,a1,a1

00000000800009e8 <i_576>:
    800009e8:	d706f9b7          	lui	s3,0xd706f

00000000800009ec <i_577>:
    800009ec:	013bfe63          	bleu	s3,s7,80000a08 <i_584>

00000000800009f0 <i_578>:
    800009f0:	f0313423          	sd	gp,-248(sp)

00000000800009f4 <i_579>:
    800009f4:	8f81c513          	xori	a0,gp,-1800

00000000800009f8 <i_580>:
    800009f8:	02b5adb3          	mulhsu	s11,a1,a1

00000000800009fc <i_581>:
    800009fc:	03600b93          	li	s7,54

0000000080000a00 <i_582>:
    80000a00:	017b9bb3          	sll	s7,s7,s7

0000000080000a04 <i_583>:
    80000a04:	01798333          	add	t1,s3,s7

0000000080000a08 <i_584>:
    80000a08:	15f10983          	lb	s3,351(sp)

0000000080000a0c <i_585>:
    80000a0c:	413c8e33          	sub	t3,s9,s3

0000000080000a10 <i_586>:
    80000a10:	00129e9b          	slliw	t4,t0,0x1

0000000080000a14 <i_587>:
    80000a14:	ed812b83          	lw	s7,-296(sp)

0000000080000a18 <i_588>:
    80000a18:	6f198b93          	addi	s7,s3,1777 # ffffffffd706f6f1 <_end+0xffffffff5705f2dd>

0000000080000a1c <i_589>:
    80000a1c:	00000013          	nop

0000000080000a20 <i_590>:
    80000a20:	7b300993          	li	s3,1971

0000000080000a24 <i_591>:
    80000a24:	7b900e93          	li	t4,1977

0000000080000a28 <i_592>:
    80000a28:	e7110503          	lb	a0,-399(sp)

0000000080000a2c <i_593>:
    80000a2c:	1bf10483          	lb	s1,447(sp)

0000000080000a30 <i_594>:
    80000a30:	01b00313          	li	t1,27

0000000080000a34 <i_595>:
    80000a34:	006e93bb          	sllw	t2,t4,t1

0000000080000a38 <i_596>:
    80000a38:	1c814b83          	lbu	s7,456(sp)

0000000080000a3c <i_597>:
    80000a3c:	004e1e13          	slli	t3,t3,0x4

0000000080000a40 <i_598>:
    80000a40:	1a810e03          	lb	t3,424(sp)

0000000080000a44 <i_599>:
    80000a44:	0dc11923          	sh	t3,210(sp)

0000000080000a48 <i_600>:
    80000a48:	01c46833          	or	a6,s0,t3

0000000080000a4c <i_601>:
    80000a4c:	00000013          	nop

0000000080000a50 <i_602>:
    80000a50:	f7811223          	sh	s8,-156(sp)

0000000080000a54 <i_603>:
    80000a54:	01987e63          	bleu	s9,a6,80000a70 <i_609>

0000000080000a58 <i_604>:
    80000a58:	9050c093          	xori	ra,ra,-1787

0000000080000a5c <i_605>:
    80000a5c:	00198993          	addi	s3,s3,1
    80000a60:	fd3ed4e3          	ble	s3,t4,80000a28 <i_592>

0000000080000a64 <i_606>:
    80000a64:	010cfdb3          	and	s11,s9,a6

0000000080000a68 <i_607>:
    80000a68:	0010a0b3          	slt	ra,ra,ra

0000000080000a6c <i_608>:
    80000a6c:	0210e23b          	remw	tp,ra,ra

0000000080000a70 <i_609>:
    80000a70:	12411a23          	sh	tp,308(sp)

0000000080000a74 <i_610>:
    80000a74:	24632313          	slti	t1,t1,582

0000000080000a78 <i_611>:
    80000a78:	7f500093          	li	ra,2037

0000000080000a7c <i_612>:
    80000a7c:	7fb00213          	li	tp,2043

0000000080000a80 <i_613>:
    80000a80:	10113423          	sd	ra,264(sp)

0000000080000a84 <i_614>:
    80000a84:	ef813d83          	ld	s11,-264(sp)

0000000080000a88 <i_615>:
    80000a88:	fd010283          	lb	t0,-48(sp)

0000000080000a8c <i_616>:
    80000a8c:	edb13023          	sd	s11,-320(sp)

0000000080000a90 <i_617>:
    80000a90:	004dea63          	bltu	s11,tp,80000aa4 <i_622>

0000000080000a94 <i_618>:
    80000a94:	ed312223          	sw	s3,-316(sp)

0000000080000a98 <i_619>:
    80000a98:	ebb13423          	sd	s11,-344(sp)

0000000080000a9c <i_620>:
    80000a9c:	0290c2bb          	divw	t0,ra,s1

0000000080000aa0 <i_621>:
    80000aa0:	0210833b          	mulw	t1,ra,ra

0000000080000aa4 <i_622>:
    80000aa4:	0e611123          	sh	t1,226(sp)

0000000080000aa8 <i_623>:
    80000aa8:	00421b9b          	slliw	s7,tp,0x4

0000000080000aac <i_624>:
    80000aac:	00000013          	nop

0000000080000ab0 <i_625>:
    80000ab0:	00108093          	addi	ra,ra,1 # 6d7425f5 <main-0x128bda0b>
    80000ab4:	fc40c6e3          	blt	ra,tp,80000a80 <i_613>

0000000080000ab8 <i_626>:
    80000ab8:	037cd23b          	divuw	tp,s9,s7

0000000080000abc <i_627>:
    80000abc:	f3813d83          	ld	s11,-200(sp)

0000000080000ac0 <i_628>:
    80000ac0:	00000013          	nop

0000000080000ac4 <i_629>:
    80000ac4:	7682f213          	andi	tp,t0,1896

0000000080000ac8 <i_630>:
    80000ac8:	73900a13          	li	s4,1849

0000000080000acc <i_631>:
    80000acc:	73c00b93          	li	s7,1852

0000000080000ad0 <i_632>:
    80000ad0:	7dab3417          	auipc	s0,0x7dab3

0000000080000ad4 <i_633>:
    80000ad4:	4028581b          	sraiw	a6,a6,0x2

0000000080000ad8 <i_634>:
    80000ad8:	02200293          	li	t0,34

0000000080000adc <i_635>:
    80000adc:	4052d2b3          	sra	t0,t0,t0

0000000080000ae0 <i_636>:
    80000ae0:	001a0a13          	addi	s4,s4,1
    80000ae4:	ff4bd6e3          	ble	s4,s7,80000ad0 <i_632>

0000000080000ae8 <i_637>:
    80000ae8:	0252c263          	blt	t0,t0,80000b0c <i_646>

0000000080000aec <i_638>:
    80000aec:	40528a33          	sub	s4,t0,t0

0000000080000af0 <i_639>:
    80000af0:	025a1263          	bne	s4,t0,80000b14 <i_648>

0000000080000af4 <i_640>:
    80000af4:	034a5a3b          	divuw	s4,s4,s4

0000000080000af8 <i_641>:
    80000af8:	011a7263          	bleu	a7,s4,80000afc <i_642>

0000000080000afc <i_642>:
    80000afc:	014a5263          	ble	s4,s4,80000b00 <i_643>

0000000080000b00 <i_643>:
    80000b00:	009eeeb3          	or	t4,t4,s1

0000000080000b04 <i_644>:
    80000b04:	00700293          	li	t0,7

0000000080000b08 <i_645>:
    80000b08:	005e9e3b          	sllw	t3,t4,t0

0000000080000b0c <i_646>:
    80000b0c:	03dbc063          	blt	s7,t4,80000b2c <i_654>

0000000080000b10 <i_647>:
    80000b10:	f8615b83          	lhu	s7,-122(sp)

0000000080000b14 <i_648>:
    80000b14:	00000013          	nop

0000000080000b18 <i_649>:
    80000b18:	eee15283          	lhu	t0,-274(sp)

0000000080000b1c <i_650>:
    80000b1c:	00000013          	nop

0000000080000b20 <i_651>:
    80000b20:	025ba4b3          	mulhsu	s1,s7,t0

0000000080000b24 <i_652>:
    80000b24:	e5412c23          	sw	s4,-424(sp)

0000000080000b28 <i_653>:
    80000b28:	ef812083          	lw	ra,-264(sp)

0000000080000b2c <i_654>:
    80000b2c:	b89e4193          	xori	gp,t3,-1143

0000000080000b30 <i_655>:
    80000b30:	e8813b83          	ld	s7,-376(sp)

0000000080000b34 <i_656>:
    80000b34:	8aa00213          	li	tp,-1878

0000000080000b38 <i_657>:
    80000b38:	8b100993          	li	s3,-1871

0000000080000b3c <i_658>:
    80000b3c:	e7411383          	lh	t2,-396(sp)

0000000080000b40 <i_659>:
    80000b40:	0262ddb3          	divu	s11,t0,t1

0000000080000b44 <i_660>:
    80000b44:	034217b3          	mulh	a5,tp,s4

0000000080000b48 <i_661>:
    80000b48:	0cc12183          	lw	gp,204(sp)

0000000080000b4c <i_662>:
    80000b4c:	f4412a23          	sw	tp,-172(sp)

0000000080000b50 <i_663>:
    80000b50:	00120213          	addi	tp,tp,1 # 1 <main-0x7fffffff>
    80000b54:	ff3244e3          	blt	tp,s3,80000b3c <i_658>

0000000080000b58 <i_664>:
    80000b58:	a0125e37          	lui	t3,0xa0125

0000000080000b5c <i_665>:
    80000b5c:	0dc12203          	lw	tp,220(sp)

0000000080000b60 <i_666>:
    80000b60:	02548063          	beq	s1,t0,80000b80 <i_674>

0000000080000b64 <i_667>:
    80000b64:	013bec63          	bltu	s7,s3,80000b7c <i_673>

0000000080000b68 <i_668>:
    80000b68:	ec60d2b7          	lui	t0,0xec60d

0000000080000b6c <i_669>:
    80000b6c:	18815383          	lhu	t2,392(sp)

0000000080000b70 <i_670>:
    80000b70:	02f3c2bb          	divw	t0,t2,a5

0000000080000b74 <i_671>:
    80000b74:	02524263          	blt	tp,t0,80000b98 <i_680>

0000000080000b78 <i_672>:
    80000b78:	57c26193          	ori	gp,tp,1404

0000000080000b7c <i_673>:
    80000b7c:	00f28e63          	beq	t0,a5,80000b98 <i_680>

0000000080000b80 <i_674>:
    80000b80:	dff88237          	lui	tp,0xdff88

0000000080000b84 <i_675>:
    80000b84:	18512e23          	sw	t0,412(sp)

0000000080000b88 <i_676>:
    80000b88:	02f27263          	bleu	a5,tp,80000bac <i_685>

0000000080000b8c <i_677>:
    80000b8c:	02b3d263          	ble	a1,t2,80000bb0 <i_686>

0000000080000b90 <i_678>:
    80000b90:	7a93c437          	lui	s0,0x7a93c

0000000080000b94 <i_679>:
    80000b94:	00326c63          	bltu	tp,gp,80000bac <i_685>

0000000080000b98 <i_680>:
    80000b98:	001f0663          	beq	t5,ra,80000ba4 <i_683>

0000000080000b9c <i_681>:
    80000b9c:	1c712223          	sw	t2,452(sp)

0000000080000ba0 <i_682>:
    80000ba0:	00539463          	bne	t2,t0,80000ba8 <i_684>

0000000080000ba4 <i_683>:
    80000ba4:	1d013e03          	ld	t3,464(sp)

0000000080000ba8 <i_684>:
    80000ba8:	fdc10fa3          	sb	t3,-33(sp)

0000000080000bac <i_685>:
    80000bac:	00814283          	lbu	t0,8(sp)

0000000080000bb0 <i_686>:
    80000bb0:	16813283          	ld	t0,360(sp)

0000000080000bb4 <i_687>:
    80000bb4:	36a28d93          	addi	s11,t0,874 # ffffffffec60d36a <_end+0xffffffff6c5fcf56>

0000000080000bb8 <i_688>:
    80000bb8:	01fdda63          	ble	t6,s11,80000bcc <i_693>

0000000080000bbc <i_689>:
    80000bbc:	026da3b3          	mulhsu	t2,s11,t1

0000000080000bc0 <i_690>:
    80000bc0:	f3015d83          	lhu	s11,-208(sp)

0000000080000bc4 <i_691>:
    80000bc4:	16512023          	sw	t0,352(sp)

0000000080000bc8 <i_692>:
    80000bc8:	027dd3b3          	divu	t2,s11,t2

0000000080000bcc <i_693>:
    80000bcc:	0fc10403          	lb	s0,252(sp)

0000000080000bd0 <i_694>:
    80000bd0:	00100393          	li	t2,1

0000000080000bd4 <i_695>:
    80000bd4:	00731eb3          	sll	t4,t1,t2

0000000080000bd8 <i_696>:
    80000bd8:	002ed493          	srli	s1,t4,0x2

0000000080000bdc <i_697>:
    80000bdc:	00d4c333          	xor	t1,s1,a3

0000000080000be0 <i_698>:
    80000be0:	ff016983          	lwu	s3,-16(sp)

0000000080000be4 <i_699>:
    80000be4:	03f00293          	li	t0,63

0000000080000be8 <i_700>:
    80000be8:	0054d1b3          	srl	gp,s1,t0

0000000080000bec <i_701>:
    80000bec:	84000493          	li	s1,-1984

0000000080000bf0 <i_702>:
    80000bf0:	84f00313          	li	t1,-1969

0000000080000bf4 <i_703>:
    80000bf4:	0091e663          	bltu	gp,s1,80000c00 <i_706>

0000000080000bf8 <i_704>:
    80000bf8:	dfb34393          	xori	t2,t1,-517

0000000080000bfc <i_705>:
    80000bfc:	01d3e863          	bltu	t2,t4,80000c0c <i_709>

0000000080000c00 <i_706>:
    80000c00:	e2814783          	lbu	a5,-472(sp)

0000000080000c04 <i_707>:
    80000c04:	03a98ebb          	mulw	t4,s3,s10

0000000080000c08 <i_708>:
    80000c08:	ee914983          	lbu	s3,-279(sp)

0000000080000c0c <i_709>:
    80000c0c:	0337d23b          	divuw	tp,a5,s3

0000000080000c10 <i_710>:
    80000c10:	15010503          	lb	a0,336(sp)

0000000080000c14 <i_711>:
    80000c14:	e3215183          	lhu	gp,-462(sp)

0000000080000c18 <i_712>:
    80000c18:	01f00e13          	li	t3,31

0000000080000c1c <i_713>:
    80000c1c:	41c9debb          	sraw	t4,s3,t3

0000000080000c20 <i_714>:
    80000c20:	00479e93          	slli	t4,a5,0x4

0000000080000c24 <i_715>:
    80000c24:	f1c10e03          	lb	t3,-228(sp)

0000000080000c28 <i_716>:
    80000c28:	08813b83          	ld	s7,136(sp)

0000000080000c2c <i_717>:
    80000c2c:	00816503          	lwu	a0,8(sp)

0000000080000c30 <i_718>:
    80000c30:	00148493          	addi	s1,s1,1
    80000c34:	fa64eee3          	bltu	s1,t1,80000bf0 <i_702>

0000000080000c38 <i_719>:
    80000c38:	01800493          	li	s1,24

0000000080000c3c <i_720>:
    80000c3c:	00925433          	srl	s0,tp,s1

0000000080000c40 <i_721>:
    80000c40:	f4013b83          	ld	s7,-192(sp)

0000000080000c44 <i_722>:
    80000c44:	02d253bb          	divuw	t2,tp,a3

0000000080000c48 <i_723>:
    80000c48:	e23102a3          	sb	gp,-475(sp)

0000000080000c4c <i_724>:
    80000c4c:	02721263          	bne	tp,t2,80000c70 <i_733>

0000000080000c50 <i_725>:
    80000c50:	f0016183          	lwu	gp,-256(sp)

0000000080000c54 <i_726>:
    80000c54:	6dd20213          	addi	tp,tp,1757 # ffffffffdff886dd <_end+0xffffffff5ff782c9>

0000000080000c58 <i_727>:
    80000c58:	00427e63          	bleu	tp,tp,80000c74 <i_734>

0000000080000c5c <i_728>:
    80000c5c:	0073cc63          	blt	t2,t2,80000c74 <i_734>

0000000080000c60 <i_729>:
    80000c60:	1353f813          	andi	a6,t2,309

0000000080000c64 <i_730>:
    80000c64:	405383b3          	sub	t2,t2,t0

0000000080000c68 <i_731>:
    80000c68:	01026a63          	bltu	tp,a6,80000c7c <i_736>

0000000080000c6c <i_732>:
    80000c6c:	15d14083          	lbu	ra,349(sp)

0000000080000c70 <i_733>:
    80000c70:	fa713c23          	sd	t2,-72(sp)

0000000080000c74 <i_734>:
    80000c74:	03027263          	bleu	a6,tp,80000c98 <i_743>

0000000080000c78 <i_735>:
    80000c78:	03416803          	lwu	a6,52(sp)

0000000080000c7c <i_736>:
    80000c7c:	04710ba3          	sb	t2,87(sp)

0000000080000c80 <i_737>:
    80000c80:	0e7101a3          	sb	t2,227(sp)

0000000080000c84 <i_738>:
    80000c84:	01039463          	bne	t2,a6,80000c8c <i_740>

0000000080000c88 <i_739>:
    80000c88:	41438a33          	sub	s4,t2,s4

0000000080000c8c <i_740>:
    80000c8c:	007a0263          	beq	s4,t2,80000c90 <i_741>

0000000080000c90 <i_741>:
    80000c90:	f3d14e83          	lbu	t4,-195(sp)

0000000080000c94 <i_742>:
    80000c94:	0d310383          	lb	t2,211(sp)

0000000080000c98 <i_743>:
    80000c98:	ecc11983          	lh	s3,-308(sp)

0000000080000c9c <i_744>:
    80000c9c:	f3016e83          	lwu	t4,-208(sp)

0000000080000ca0 <i_745>:
    80000ca0:	03d9d0bb          	divuw	ra,s3,t4

0000000080000ca4 <i_746>:
    80000ca4:	03f2c3b3          	div	t2,t0,t6

0000000080000ca8 <i_747>:
    80000ca8:	ebd13c23          	sd	t4,-328(sp)

0000000080000cac <i_748>:
    80000cac:	eec104a3          	sb	a2,-279(sp)

0000000080000cb0 <i_749>:
    80000cb0:	f9a15e83          	lhu	t4,-102(sp)

0000000080000cb4 <i_750>:
    80000cb4:	01d2e463          	bltu	t0,t4,80000cbc <i_752>

0000000080000cb8 <i_751>:
    80000cb8:	0013f463          	bleu	ra,t2,80000cc0 <i_753>

0000000080000cbc <i_752>:
    80000cbc:	11615283          	lhu	t0,278(sp)

0000000080000cc0 <i_753>:
    80000cc0:	00138263          	beq	t2,ra,80000cc4 <i_754>

0000000080000cc4 <i_754>:
    80000cc4:	03309263          	bne	ra,s3,80000ce8 <i_763>

0000000080000cc8 <i_755>:
    80000cc8:	fa615983          	lhu	s3,-90(sp)

0000000080000ccc <i_756>:
    80000ccc:	00798663          	beq	s3,t2,80000cd8 <i_759>

0000000080000cd0 <i_757>:
    80000cd0:	0aa10983          	lb	s3,170(sp)

0000000080000cd4 <i_758>:
    80000cd4:	f2714303          	lbu	t1,-217(sp)

0000000080000cd8 <i_759>:
    80000cd8:	e8813303          	ld	t1,-376(sp)

0000000080000cdc <i_760>:
    80000cdc:	00000013          	nop

0000000080000ce0 <i_761>:
    80000ce0:	08016983          	lwu	s3,128(sp)

0000000080000ce4 <i_762>:
    80000ce4:	15812583          	lw	a1,344(sp)

0000000080000ce8 <i_763>:
    80000ce8:	1b816d83          	lwu	s11,440(sp)

0000000080000cec <i_764>:
    80000cec:	721119b7          	lui	s3,0x72111

0000000080000cf0 <i_765>:
    80000cf0:	7af00313          	li	t1,1967

0000000080000cf4 <i_766>:
    80000cf4:	7b800a13          	li	s4,1976

0000000080000cf8 <i_767>:
    80000cf8:	00000013          	nop

0000000080000cfc <i_768>:
    80000cfc:	0099f4b3          	and	s1,s3,s1

0000000080000d00 <i_769>:
    80000d00:	13b10283          	lb	t0,315(sp)

0000000080000d04 <i_770>:
    80000d04:	f4912823          	sw	s1,-176(sp)

0000000080000d08 <i_771>:
    80000d08:	4e84899b          	addiw	s3,s1,1256

0000000080000d0c <i_772>:
    80000d0c:	0094a4b3          	slt	s1,s1,s1

0000000080000d10 <i_773>:
    80000d10:	00000013          	nop

0000000080000d14 <i_774>:
    80000d14:	009b7e63          	bleu	s1,s6,80000d30 <i_780>

0000000080000d18 <i_775>:
    80000d18:	00000013          	nop

0000000080000d1c <i_776>:
    80000d1c:	00130313          	addi	t1,t1,1
    80000d20:	fc6a7ce3          	bleu	t1,s4,80000cf8 <i_767>

0000000080000d24 <i_777>:
    80000d24:	0096f463          	bleu	s1,a3,80000d2c <i_779>

0000000080000d28 <i_778>:
    80000d28:	13012183          	lw	gp,304(sp)

0000000080000d2c <i_779>:
    80000d2c:	ec416403          	lwu	s0,-316(sp)

0000000080000d30 <i_780>:
    80000d30:	0034d213          	srli	tp,s1,0x3

0000000080000d34 <i_781>:
    80000d34:	02949263          	bne	s1,s1,80000d58 <i_790>

0000000080000d38 <i_782>:
    80000d38:	f63105a3          	sb	gp,-149(sp)

0000000080000d3c <i_783>:
    80000d3c:	409401b3          	sub	gp,s0,s1

0000000080000d40 <i_784>:
    80000d40:	ea313423          	sd	gp,-344(sp)

0000000080000d44 <i_785>:
    80000d44:	ef815203          	lhu	tp,-264(sp)

0000000080000d48 <i_786>:
    80000d48:	024181bb          	mulw	gp,gp,tp

0000000080000d4c <i_787>:
    80000d4c:	0e513023          	sd	t0,224(sp)

0000000080000d50 <i_788>:
    80000d50:	ee810283          	lb	t0,-280(sp)

0000000080000d54 <i_789>:
    80000d54:	0262d9b3          	divu	s3,t0,t1

0000000080000d58 <i_790>:
    80000d58:	1c513023          	sd	t0,448(sp)

0000000080000d5c <i_791>:
    80000d5c:	f27101a3          	sb	t2,-221(sp)

0000000080000d60 <i_792>:
    80000d60:	7e200193          	li	gp,2018

0000000080000d64 <i_793>:
    80000d64:	7ea00313          	li	t1,2026

0000000080000d68 <i_794>:
    80000d68:	00000013          	nop

0000000080000d6c <i_795>:
    80000d6c:	033bc2b3          	div	t0,s7,s3

0000000080000d70 <i_796>:
    80000d70:	01327533          	and	a0,tp,s3

0000000080000d74 <i_797>:
    80000d74:	19812283          	lw	t0,408(sp)

0000000080000d78 <i_798>:
    80000d78:	86d00e93          	li	t4,-1939

0000000080000d7c <i_799>:
    80000d7c:	87e00213          	li	tp,-1922

0000000080000d80 <i_800>:
    80000d80:	ed910403          	lb	s0,-295(sp)

0000000080000d84 <i_801>:
    80000d84:	001e8e93          	addi	t4,t4,1
    80000d88:	fe4ecce3          	blt	t4,tp,80000d80 <i_800>

0000000080000d8c <i_802>:
    80000d8c:	00355293          	srli	t0,a0,0x3

0000000080000d90 <i_803>:
    80000d90:	e2d10983          	lb	s3,-467(sp)

0000000080000d94 <i_804>:
    80000d94:	00118193          	addi	gp,gp,1
    80000d98:	fc3378e3          	bleu	gp,t1,80000d68 <i_794>

0000000080000d9c <i_805>:
    80000d9c:	2cb26593          	ori	a1,tp,715

0000000080000da0 <i_806>:
    80000da0:	008ec0b3          	xor	ra,t4,s0

0000000080000da4 <i_807>:
    80000da4:	0019d263          	ble	ra,s3,80000da8 <i_808>

0000000080000da8 <i_808>:
    80000da8:	2aeeab93          	slti	s7,t4,686

0000000080000dac <i_809>:
    80000dac:	024ec9bb          	divw	s3,t4,tp

0000000080000db0 <i_810>:
    80000db0:	01a2d463          	ble	s10,t0,80000db8 <i_812>

0000000080000db4 <i_811>:
    80000db4:	01d59a63          	bne	a1,t4,80000dc8 <i_816>

0000000080000db8 <i_812>:
    80000db8:	00198663          	beq	s3,ra,80000dc4 <i_815>

0000000080000dbc <i_813>:
    80000dbc:	1cd10e23          	sb	a3,476(sp)

0000000080000dc0 <i_814>:
    80000dc0:	0245f2bb          	remuw	t0,a1,tp

0000000080000dc4 <i_815>:
    80000dc4:	013e8333          	add	t1,t4,s3

0000000080000dc8 <i_816>:
    80000dc8:	02b98263          	beq	s3,a1,80000dec <i_825>

0000000080000dcc <i_817>:
    80000dcc:	e2013e03          	ld	t3,-480(sp)

0000000080000dd0 <i_818>:
    80000dd0:	02646433          	rem	s0,s0,t1

0000000080000dd4 <i_819>:
    80000dd4:	19c13023          	sd	t3,384(sp)

0000000080000dd8 <i_820>:
    80000dd8:	e4813023          	sd	s0,-448(sp)

0000000080000ddc <i_821>:
    80000ddc:	e1c16783          	lwu	a5,-484(sp)

0000000080000de0 <i_822>:
    80000de0:	15215283          	lhu	t0,338(sp)

0000000080000de4 <i_823>:
    80000de4:	12013203          	ld	tp,288(sp)

0000000080000de8 <i_824>:
    80000de8:	00000013          	nop

0000000080000dec <i_825>:
    80000dec:	02f452b3          	divu	t0,s0,a5

0000000080000df0 <i_826>:
    80000df0:	03000a13          	li	s4,48

0000000080000df4 <i_827>:
    80000df4:	0147d2b3          	srl	t0,a5,s4

0000000080000df8 <i_828>:
    80000df8:	80900993          	li	s3,-2039

0000000080000dfc <i_829>:
    80000dfc:	81b00e93          	li	t4,-2021

0000000080000e00 <i_830>:
    80000e00:	12412403          	lw	s0,292(sp)

0000000080000e04 <i_831>:
    80000e04:	00000013          	nop

0000000080000e08 <i_832>:
    80000e08:	00f00393          	li	t2,15

0000000080000e0c <i_833>:
    80000e0c:	0074133b          	sllw	t1,s0,t2

0000000080000e10 <i_834>:
    80000e10:	0272f1bb          	remuw	gp,t0,t2

0000000080000e14 <i_835>:
    80000e14:	004a1193          	slli	gp,s4,0x4

0000000080000e18 <i_836>:
    80000e18:	00198993          	addi	s3,s3,1 # 72111001 <main-0xdeeefff>
    80000e1c:	ff3ed0e3          	ble	s3,t4,80000dfc <i_829>

0000000080000e20 <i_837>:
    80000e20:	0033fc63          	bleu	gp,t2,80000e38 <i_843>

0000000080000e24 <i_838>:
    80000e24:	039a21b3          	mulhsu	gp,s4,s9

0000000080000e28 <i_839>:
    80000e28:	06c12223          	sw	a2,100(sp)

0000000080000e2c <i_840>:
    80000e2c:	0a312e23          	sw	gp,188(sp)

0000000080000e30 <i_841>:
    80000e30:	00730c63          	beq	t1,t2,80000e48 <i_847>

0000000080000e34 <i_842>:
    80000e34:	f0313823          	sd	gp,-240(sp)

0000000080000e38 <i_843>:
    80000e38:	00535263          	ble	t0,t1,80000e3c <i_844>

0000000080000e3c <i_844>:
    80000e3c:	1c1cd337          	lui	t1,0x1c1cd

0000000080000e40 <i_845>:
    80000e40:	04813303          	ld	t1,72(sp)

0000000080000e44 <i_846>:
    80000e44:	e24105a3          	sb	tp,-469(sp)

0000000080000e48 <i_847>:
    80000e48:	03500313          	li	t1,53

0000000080000e4c <i_848>:
    80000e4c:	0061d1b3          	srl	gp,gp,t1

0000000080000e50 <i_849>:
    80000e50:	7f000293          	li	t0,2032

0000000080000e54 <i_850>:
    80000e54:	7f200e13          	li	t3,2034

0000000080000e58 <i_851>:
    80000e58:	e8211783          	lh	a5,-382(sp)

0000000080000e5c <i_852>:
    80000e5c:	02336063          	bltu	t1,gp,80000e7c <i_859>

0000000080000e60 <i_853>:
    80000e60:	e4311823          	sh	gp,-432(sp)

0000000080000e64 <i_854>:
    80000e64:	fe411503          	lh	a0,-28(sp)

0000000080000e68 <i_855>:
    80000e68:	025e0263          	beq	t3,t0,80000e8c <i_863>

0000000080000e6c <i_856>:
    80000e6c:	00128293          	addi	t0,t0,1
    80000e70:	fe5e14e3          	bne	t3,t0,80000e58 <i_851>

0000000080000e74 <i_857>:
    80000e74:	0231ee3b          	remw	t3,gp,gp

0000000080000e78 <i_858>:
    80000e78:	00336e63          	bltu	t1,gp,80000e94 <i_865>

0000000080000e7c <i_859>:
    80000e7c:	f0411303          	lh	t1,-252(sp)

0000000080000e80 <i_860>:
    80000e80:	01f54663          	blt	a0,t6,80000e8c <i_863>

0000000080000e84 <i_861>:
    80000e84:	00000013          	nop

0000000080000e88 <i_862>:
    80000e88:	5c79ba13          	sltiu	s4,s3,1479

0000000080000e8c <i_863>:
    80000e8c:	fc011b83          	lh	s7,-64(sp)

0000000080000e90 <i_864>:
    80000e90:	e8312223          	sw	gp,-380(sp)

0000000080000e94 <i_865>:
    80000e94:	01800a13          	li	s4,24

0000000080000e98 <i_866>:
    80000e98:	014bda33          	srl	s4,s7,s4

0000000080000e9c <i_867>:
    80000e9c:	77900993          	li	s3,1913

0000000080000ea0 <i_868>:
    80000ea0:	78700513          	li	a0,1927

0000000080000ea4 <i_869>:
    80000ea4:	034080bb          	mulw	ra,ra,s4

0000000080000ea8 <i_870>:
    80000ea8:	07c10b83          	lb	s7,124(sp)

0000000080000eac <i_871>:
    80000eac:	412a4813          	xori	a6,s4,1042

0000000080000eb0 <i_872>:
    80000eb0:	034a7a3b          	remuw	s4,s4,s4

0000000080000eb4 <i_873>:
    80000eb4:	00198993          	addi	s3,s3,1
    80000eb8:	fea9c6e3          	blt	s3,a0,80000ea4 <i_869>

0000000080000ebc <i_874>:
    80000ebc:	00840e63          	beq	s0,s0,80000ed8 <i_881>

0000000080000ec0 <i_875>:
    80000ec0:	00aa1e63          	bne	s4,a0,80000edc <i_882>

0000000080000ec4 <i_876>:
    80000ec4:	1a113023          	sd	ra,416(sp)

0000000080000ec8 <i_877>:
    80000ec8:	01485463          	ble	s4,a6,80000ed0 <i_879>

0000000080000ecc <i_878>:
    80000ecc:	0300f0bb          	remuw	ra,ra,a6

0000000080000ed0 <i_879>:
    80000ed0:	01f00493          	li	s1,31

0000000080000ed4 <i_880>:
    80000ed4:	009090bb          	sllw	ra,ra,s1

0000000080000ed8 <i_881>:
    80000ed8:	e8510203          	lb	tp,-379(sp)

0000000080000edc <i_882>:
    80000edc:	01024a33          	xor	s4,tp,a6

0000000080000ee0 <i_883>:
    80000ee0:	0010d493          	srli	s1,ra,0x1

0000000080000ee4 <i_884>:
    80000ee4:	0090ec63          	bltu	ra,s1,80000efc <i_890>

0000000080000ee8 <i_885>:
    80000ee8:	012a3e33          	sltu	t3,s4,s2

0000000080000eec <i_886>:
    80000eec:	029a04b3          	mul	s1,s4,s1

0000000080000ef0 <i_887>:
    80000ef0:	15714a03          	lbu	s4,343(sp)

0000000080000ef4 <i_888>:
    80000ef4:	0294f4bb          	remuw	s1,s1,s1

0000000080000ef8 <i_889>:
    80000ef8:	01448863          	beq	s1,s4,80000f08 <i_893>

0000000080000efc <i_890>:
    80000efc:	0294be33          	mulhu	t3,s1,s1

0000000080000f00 <i_891>:
    80000f00:	3e921a37          	lui	s4,0x3e921

0000000080000f04 <i_892>:
    80000f04:	0b412c23          	sw	s4,184(sp)

0000000080000f08 <i_893>:
    80000f08:	ee813a03          	ld	s4,-280(sp)

0000000080000f0c <i_894>:
    80000f0c:	03b48063          	beq	s1,s11,80000f2c <i_902>

0000000080000f10 <i_895>:
    80000f10:	01416403          	lwu	s0,20(sp)

0000000080000f14 <i_896>:
    80000f14:	00879263          	bne	a5,s0,80000f18 <i_897>

0000000080000f18 <i_897>:
    80000f18:	13c14a03          	lbu	s4,316(sp)

0000000080000f1c <i_898>:
    80000f1c:	0094c263          	blt	s1,s1,80000f20 <i_899>

0000000080000f20 <i_899>:
    80000f20:	034de4bb          	remw	s1,s11,s4

0000000080000f24 <i_900>:
    80000f24:	0114f663          	bleu	a7,s1,80000f30 <i_903>

0000000080000f28 <i_901>:
    80000f28:	02943a33          	mulhu	s4,s0,s1

0000000080000f2c <i_902>:
    80000f2c:	12013303          	ld	t1,288(sp)

0000000080000f30 <i_903>:
    80000f30:	01700493          	li	s1,23

0000000080000f34 <i_904>:
    80000f34:	009494bb          	sllw	s1,s1,s1

0000000080000f38 <i_905>:
    80000f38:	02931263          	bne	t1,s1,80000f5c <i_914>

0000000080000f3c <i_906>:
    80000f3c:	02949463          	bne	s1,s1,80000f64 <i_916>

0000000080000f40 <i_907>:
    80000f40:	0264f333          	remu	t1,s1,t1

0000000080000f44 <i_908>:
    80000f44:	00416783          	lwu	a5,4(sp)

0000000080000f48 <i_909>:
    80000f48:	40620233          	sub	tp,tp,t1

0000000080000f4c <i_910>:
    80000f4c:	00e00293          	li	t0,14

0000000080000f50 <i_911>:
    80000f50:	4054d33b          	sraw	t1,s1,t0

0000000080000f54 <i_912>:
    80000f54:	17c12303          	lw	t1,380(sp)

0000000080000f58 <i_913>:
    80000f58:	02850433          	mul	s0,a0,s0

0000000080000f5c <i_914>:
    80000f5c:	00000013          	nop

0000000080000f60 <i_915>:
    80000f60:	00000013          	nop

0000000080000f64 <i_916>:
    80000f64:	01600313          	li	t1,22

0000000080000f68 <i_917>:
    80000f68:	006312bb          	sllw	t0,t1,t1

0000000080000f6c <i_918>:
    80000f6c:	85700493          	li	s1,-1961

0000000080000f70 <i_919>:
    80000f70:	85c00b93          	li	s7,-1956

0000000080000f74 <i_920>:
    80000f74:	fa610da3          	sb	t1,-69(sp)

0000000080000f78 <i_921>:
    80000f78:	00148493          	addi	s1,s1,1
    80000f7c:	fe9bfce3          	bleu	s1,s7,80000f74 <i_920>

0000000080000f80 <i_922>:
    80000f80:	00828c63          	beq	t0,s0,80000f98 <i_928>

0000000080000f84 <i_923>:
    80000f84:	12c15203          	lhu	tp,300(sp)

0000000080000f88 <i_924>:
    80000f88:	00700313          	li	t1,7

0000000080000f8c <i_925>:
    80000f8c:	406852bb          	sraw	t0,a6,t1

0000000080000f90 <i_926>:
    80000f90:	00600193          	li	gp,6

0000000080000f94 <i_927>:
    80000f94:	003292bb          	sllw	t0,t0,gp

0000000080000f98 <i_928>:
    80000f98:	c334829b          	addiw	t0,s1,-973

0000000080000f9c <i_929>:
    80000f9c:	8f22b293          	sltiu	t0,t0,-1806

0000000080000fa0 <i_930>:
    80000fa0:	72e00413          	li	s0,1838

0000000080000fa4 <i_931>:
    80000fa4:	74200593          	li	a1,1858

0000000080000fa8 <i_932>:
    80000fa8:	0d413423          	sd	s4,200(sp)

0000000080000fac <i_933>:
    80000fac:	0032fe63          	bleu	gp,t0,80000fc8 <i_939>

0000000080000fb0 <i_934>:
    80000fb0:	fab13423          	sd	a1,-88(sp)

0000000080000fb4 <i_935>:
    80000fb4:	00140413          	addi	s0,s0,1 # 7a93c001 <main-0x56c3fff>
    80000fb8:	feb468e3          	bltu	s0,a1,80000fa8 <i_932>

0000000080000fbc <i_936>:
    80000fbc:	0302de33          	divu	t3,t0,a6

0000000080000fc0 <i_937>:
    80000fc0:	5afa051b          	addiw	a0,s4,1455

0000000080000fc4 <i_938>:
    80000fc4:	e7012e03          	lw	t3,-400(sp)

0000000080000fc8 <i_939>:
    80000fc8:	e049a537          	lui	a0,0xe049a

0000000080000fcc <i_940>:
    80000fcc:	fc311623          	sh	gp,-52(sp)

0000000080000fd0 <i_941>:
    80000fd0:	00229e1b          	slliw	t3,t0,0x2

0000000080000fd4 <i_942>:
    80000fd4:	eff12623          	sw	t6,-276(sp)

0000000080000fd8 <i_943>:
    80000fd8:	fac12303          	lw	t1,-84(sp)

0000000080000fdc <i_944>:
    80000fdc:	e7914203          	lbu	tp,-391(sp)

0000000080000fe0 <i_945>:
    80000fe0:	0379f53b          	remuw	a0,s3,s7

0000000080000fe4 <i_946>:
    80000fe4:	12313423          	sd	gp,296(sp)

0000000080000fe8 <i_947>:
    80000fe8:	e8411723          	sh	tp,-370(sp)

0000000080000fec <i_948>:
    80000fec:	01c25663          	ble	t3,tp,80000ff8 <i_951>

0000000080000ff0 <i_949>:
    80000ff0:	02a54233          	div	tp,a0,a0

0000000080000ff4 <i_950>:
    80000ff4:	024ac063          	blt	s5,tp,80001014 <i_958>

0000000080000ff8 <i_951>:
    80000ff8:	01500e93          	li	t4,21

0000000080000ffc <i_952>:
    80000ffc:	01d2543b          	srlw	s0,tp,t4

0000000080001000 <i_953>:
    80001000:	408e8433          	sub	s0,t4,s0

0000000080001004 <i_954>:
    80001004:	f8411423          	sh	tp,-120(sp)

0000000080001008 <i_955>:
    80001008:	00000013          	nop

000000008000100c <i_956>:
    8000100c:	ed816783          	lwu	a5,-296(sp)

0000000080001010 <i_957>:
    80001010:	220ea793          	slti	a5,t4,544

0000000080001014 <i_958>:
    80001014:	0d013583          	ld	a1,208(sp)

0000000080001018 <i_959>:
    80001018:	04d10403          	lb	s0,77(sp)

000000008000101c <i_960>:
    8000101c:	7df00213          	li	tp,2015

0000000080001020 <i_961>:
    80001020:	7f100e93          	li	t4,2033

0000000080001024 <i_962>:
    80001024:	1a016403          	lwu	s0,416(sp)

0000000080001028 <i_963>:
    80001028:	01400513          	li	a0,20

000000008000102c <i_964>:
    8000102c:	40a454b3          	sra	s1,s0,a0

0000000080001030 <i_965>:
    80001030:	01de8433          	add	s0,t4,t4

0000000080001034 <i_966>:
    80001034:	a0f52493          	slti	s1,a0,-1521

0000000080001038 <i_967>:
    80001038:	fe310983          	lb	s3,-29(sp)

000000008000103c <i_968>:
    8000103c:	0189851b          	addiw	a0,s3,24

0000000080001040 <i_969>:
    80001040:	8fa9a493          	slti	s1,s3,-1798

0000000080001044 <i_970>:
    80001044:	413503b3          	sub	t2,a0,s3

0000000080001048 <i_971>:
    80001048:	0274ee3b          	remw	t3,s1,t2

000000008000104c <i_972>:
    8000104c:	00000013          	nop

0000000080001050 <i_973>:
    80001050:	01cccc63          	blt	s9,t3,80001068 <i_978>

0000000080001054 <i_974>:
    80001054:	0042d29b          	srliw	t0,t0,0x4

0000000080001058 <i_975>:
    80001058:	00120213          	addi	tp,tp,1 # 1 <main-0x7fffffff>
    8000105c:	fdd264e3          	bltu	tp,t4,80001024 <i_962>

0000000080001060 <i_976>:
    80001060:	00412583          	lw	a1,4(sp)

0000000080001064 <i_977>:
    80001064:	03348263          	beq	s1,s3,80001088 <i_986>

0000000080001068 <i_978>:
    80001068:	00000013          	nop

000000008000106c <i_979>:
    8000106c:	1b013583          	ld	a1,432(sp)

0000000080001070 <i_980>:
    80001070:	0052c4b3          	xor	s1,t0,t0

0000000080001074 <i_981>:
    80001074:	00714503          	lbu	a0,7(sp)

0000000080001078 <i_982>:
    80001078:	fd814183          	lbu	gp,-40(sp)

000000008000107c <i_983>:
    8000107c:	fdd1c093          	xori	ra,gp,-35

0000000080001080 <i_984>:
    80001080:	02b2c1bb          	divw	gp,t0,a1

0000000080001084 <i_985>:
    80001084:	17016583          	lwu	a1,368(sp)

0000000080001088 <i_986>:
    80001088:	00000013          	nop

000000008000108c <i_987>:
    8000108c:	1c016203          	lwu	tp,448(sp)

0000000080001090 <i_988>:
    80001090:	78800993          	li	s3,1928

0000000080001094 <i_989>:
    80001094:	79000293          	li	t0,1936

0000000080001098 <i_990>:
    80001098:	024b7063          	bleu	tp,s6,800010b8 <i_997>

000000008000109c <i_991>:
    8000109c:	00198993          	addi	s3,s3,1
    800010a0:	fe59ece3          	bltu	s3,t0,80001098 <i_990>

00000000800010a4 <i_992>:
    800010a4:	cc22e293          	ori	t0,t0,-830

00000000800010a8 <i_993>:
    800010a8:	18510723          	sb	t0,398(sp)

00000000800010ac <i_994>:
    800010ac:	00557533          	and	a0,a0,t0

00000000800010b0 <i_995>:
    800010b0:	17e14303          	lbu	t1,382(sp)

00000000800010b4 <i_996>:
    800010b4:	12811a03          	lh	s4,296(sp)

00000000800010b8 <i_997>:
    800010b8:	0254ce33          	div	t3,s1,t0

00000000800010bc <i_998>:
    800010bc:	00000013          	nop

00000000800010c0 <i_999>:
    800010c0:	75100293          	li	t0,1873

00000000800010c4 <i_1000>:
    800010c4:	75800093          	li	ra,1880

00000000800010c8 <i_1001>:
    800010c8:	00329513          	slli	a0,t0,0x3

00000000800010cc <i_1002>:
    800010cc:	00554663          	blt	a0,t0,800010d8 <i_1005>

00000000800010d0 <i_1003>:
    800010d0:	00c16983          	lwu	s3,12(sp)

00000000800010d4 <i_1004>:
    800010d4:	00c00513          	li	a0,12

00000000800010d8 <i_1005>:
    800010d8:	00a093bb          	sllw	t2,ra,a0

00000000800010dc <i_1006>:
    800010dc:	01300813          	li	a6,19

00000000800010e0 <i_1007>:
    800010e0:	010754bb          	srlw	s1,a4,a6

00000000800010e4 <i_1008>:
    800010e4:	00128293          	addi	t0,t0,1
    800010e8:	fe50f0e3          	bleu	t0,ra,800010c8 <i_1001>

00000000800010ec <i_1009>:
    800010ec:	e8812403          	lw	s0,-376(sp)

00000000800010f0 <i_1010>:
    800010f0:	021cc3b3          	div	t2,s9,ra

00000000800010f4 <i_1011>:
    800010f4:	00ac9863          	bne	s9,a0,80001104 <i_1015>

00000000800010f8 <i_1012>:
    800010f8:	4038559b          	sraiw	a1,a6,0x3

00000000800010fc <i_1013>:
    800010fc:	ac9ba493          	slti	s1,s7,-1335

0000000080001100 <i_1014>:
    80001100:	07816083          	lwu	ra,120(sp)

0000000080001104 <i_1015>:
    80001104:	07412283          	lw	t0,116(sp)

0000000080001108 <i_1016>:
    80001108:	0259f263          	bleu	t0,s3,8000112c <i_1025>

000000008000110c <i_1017>:
    8000110c:	01c1fe63          	bleu	t3,gp,80001128 <i_1024>

0000000080001110 <i_1018>:
    80001110:	00600593          	li	a1,6

0000000080001114 <i_1019>:
    80001114:	00b597bb          	sllw	a5,a1,a1

0000000080001118 <i_1020>:
    80001118:	10512223          	sw	t0,260(sp)

000000008000111c <i_1021>:
    8000111c:	407505bb          	subw	a1,a0,t2

0000000080001120 <i_1022>:
    80001120:	3815031b          	addiw	t1,a0,897

0000000080001124 <i_1023>:
    80001124:	10710983          	lb	s3,263(sp)

0000000080001128 <i_1024>:
    80001128:	eea101a3          	sb	a0,-285(sp)

000000008000112c <i_1025>:
    8000112c:	00000013          	nop

0000000080001130 <i_1026>:
    80001130:	01432db3          	slt	s11,t1,s4

0000000080001134 <i_1027>:
    80001134:	7d200093          	li	ra,2002

0000000080001138 <i_1028>:
    80001138:	7e000393          	li	t2,2016

000000008000113c <i_1029>:
    8000113c:	00b87c63          	bleu	a1,a6,80001154 <i_1035>

0000000080001140 <i_1030>:
    80001140:	0a613023          	sd	t1,160(sp)

0000000080001144 <i_1031>:
    80001144:	08513823          	sd	t0,144(sp)

0000000080001148 <i_1032>:
    80001148:	f9815b83          	lhu	s7,-104(sp)

000000008000114c <i_1033>:
    8000114c:	f1013d83          	ld	s11,-240(sp)

0000000080001150 <i_1034>:
    80001150:	ec811d83          	lh	s11,-312(sp)

0000000080001154 <i_1035>:
    80001154:	f2311323          	sh	gp,-218(sp)

0000000080001158 <i_1036>:
    80001158:	0a710503          	lb	a0,167(sp)

000000008000115c <i_1037>:
    8000115c:	00000013          	nop

0000000080001160 <i_1038>:
    80001160:	00108093          	addi	ra,ra,1
    80001164:	fc13dce3          	ble	ra,t2,8000113c <i_1029>

0000000080001168 <i_1039>:
    80001168:	18012083          	lw	ra,384(sp)

000000008000116c <i_1040>:
    8000116c:	e6114383          	lbu	t2,-415(sp)

0000000080001170 <i_1041>:
    80001170:	0012fa63          	bleu	ra,t0,80001184 <i_1046>

0000000080001174 <i_1042>:
    80001174:	004a7463          	bleu	tp,s4,8000117c <i_1044>

0000000080001178 <i_1043>:
    80001178:	003a5a1b          	srliw	s4,s4,0x3

000000008000117c <i_1044>:
    8000117c:	0030da13          	srli	s4,ra,0x3

0000000080001180 <i_1045>:
    80001180:	f6810a03          	lb	s4,-152(sp)

0000000080001184 <i_1046>:
    80001184:	1d011303          	lh	t1,464(sp)

0000000080001188 <i_1047>:
    80001188:	eed14383          	lbu	t2,-275(sp)

000000008000118c <i_1048>:
    8000118c:	11412203          	lw	tp,276(sp)

0000000080001190 <i_1049>:
    80001190:	e7412303          	lw	t1,-396(sp)

0000000080001194 <i_1050>:
    80001194:	00613823          	sd	t1,16(sp)

0000000080001198 <i_1051>:
    80001198:	07811083          	lh	ra,120(sp)

000000008000119c <i_1052>:
    8000119c:	5283b493          	sltiu	s1,t2,1320

00000000800011a0 <i_1053>:
    800011a0:	a059899b          	addiw	s3,s3,-1531

00000000800011a4 <i_1054>:
    800011a4:	7c80b493          	sltiu	s1,ra,1992

00000000800011a8 <i_1055>:
    800011a8:	e6c14483          	lbu	s1,-404(sp)

00000000800011ac <i_1056>:
    800011ac:	4033d393          	srai	t2,t2,0x3

00000000800011b0 <i_1057>:
    800011b0:	fd016183          	lwu	gp,-48(sp)

00000000800011b4 <i_1058>:
    800011b4:	0095c5b3          	xor	a1,a1,s1

00000000800011b8 <i_1059>:
    800011b8:	01538a63          	beq	t2,s5,800011cc <i_1064>

00000000800011bc <i_1060>:
    800011bc:	f0711023          	sh	t2,-256(sp)

00000000800011c0 <i_1061>:
    800011c0:	2305e393          	ori	t2,a1,560

00000000800011c4 <i_1062>:
    800011c4:	e1818193          	addi	gp,gp,-488

00000000800011c8 <i_1063>:
    800011c8:	1e05f193          	andi	gp,a1,480

00000000800011cc <i_1064>:
    800011cc:	00b00593          	li	a1,11

00000000800011d0 <i_1065>:
    800011d0:	00b19e3b          	sllw	t3,gp,a1

00000000800011d4 <i_1066>:
    800011d4:	f2813b83          	ld	s7,-216(sp)

00000000800011d8 <i_1067>:
    800011d8:	00be4663          	blt	t3,a1,800011e4 <i_1070>

00000000800011dc <i_1068>:
    800011dc:	f2b12623          	sw	a1,-212(sp)

00000000800011e0 <i_1069>:
    800011e0:	f3813183          	ld	gp,-200(sp)

00000000800011e4 <i_1070>:
    800011e4:	e4412e03          	lw	t3,-444(sp)

00000000800011e8 <i_1071>:
    800011e8:	e7711223          	sh	s7,-412(sp)

00000000800011ec <i_1072>:
    800011ec:	1d410b83          	lb	s7,468(sp)

00000000800011f0 <i_1073>:
    800011f0:	00000013          	nop

00000000800011f4 <i_1074>:
    800011f4:	023a21b3          	mulhsu	gp,s4,gp

00000000800011f8 <i_1075>:
    800011f8:	80f00b93          	li	s7,-2033

00000000800011fc <i_1076>:
    800011fc:	82100a13          	li	s4,-2015

0000000080001200 <i_1077>:
    80001200:	13615803          	lhu	a6,310(sp)

0000000080001204 <i_1078>:
    80001204:	17c10183          	lb	gp,380(sp)

0000000080001208 <i_1079>:
    80001208:	fac11223          	sh	a2,-92(sp)

000000008000120c <i_1080>:
    8000120c:	001b8b93          	addi	s7,s7,1
    80001210:	ff7a58e3          	ble	s7,s4,80001200 <i_1077>

0000000080001214 <i_1081>:
    80001214:	41780a3b          	subw	s4,a6,s7

0000000080001218 <i_1082>:
    80001218:	e5c15b83          	lhu	s7,-420(sp)

000000008000121c <i_1083>:
    8000121c:	02f197b3          	mulh	a5,gp,a5

0000000080001220 <i_1084>:
    80001220:	01011c63          	bne	sp,a6,80001238 <i_1090>

0000000080001224 <i_1085>:
    80001224:	eac12a03          	lw	s4,-340(sp)

0000000080001228 <i_1086>:
    80001228:	03799263          	bne	s3,s7,8000124c <i_1095>

000000008000122c <i_1087>:
    8000122c:	1cd10523          	sb	a3,458(sp)

0000000080001230 <i_1088>:
    80001230:	9549899b          	addiw	s3,s3,-1708

0000000080001234 <i_1089>:
    80001234:	00000013          	nop

0000000080001238 <i_1090>:
    80001238:	c1d3e513          	ori	a0,t2,-995

000000008000123c <i_1091>:
    8000123c:	02a3c0bb          	divw	ra,t2,a0

0000000080001240 <i_1092>:
    80001240:	01300513          	li	a0,19

0000000080001244 <i_1093>:
    80001244:	00a097bb          	sllw	a5,ra,a0

0000000080001248 <i_1094>:
    80001248:	00013083          	ld	ra,0(sp)

000000008000124c <i_1095>:
    8000124c:	00e00793          	li	a5,14

0000000080001250 <i_1096>:
    80001250:	00f7d7bb          	srlw	a5,a5,a5

0000000080001254 <i_1097>:
    80001254:	76b00b93          	li	s7,1899

0000000080001258 <i_1098>:
    80001258:	77f00393          	li	t2,1919

000000008000125c <i_1099>:
    8000125c:	ec016283          	lwu	t0,-320(sp)

0000000080001260 <i_1100>:
    80001260:	fe511923          	sh	t0,-14(sp)

0000000080001264 <i_1101>:
    80001264:	001b8b93          	addi	s7,s7,1
    80001268:	ff73dae3          	ble	s7,t2,8000125c <i_1099>

000000008000126c <i_1102>:
    8000126c:	04813983          	ld	s3,72(sp)

0000000080001270 <i_1103>:
    80001270:	e9311623          	sh	s3,-372(sp)

0000000080001274 <i_1104>:
    80001274:	02f7d43b          	divuw	s0,a5,a5

0000000080001278 <i_1105>:
    80001278:	06610503          	lb	a0,102(sp)

000000008000127c <i_1106>:
    8000127c:	10e10983          	lb	s3,270(sp)

0000000080001280 <i_1107>:
    80001280:	00500993          	li	s3,5

0000000080001284 <i_1108>:
    80001284:	01359bb3          	sll	s7,a1,s3

0000000080001288 <i_1109>:
    80001288:	1ca14283          	lbu	t0,458(sp)

000000008000128c <i_1110>:
    8000128c:	f3d14783          	lbu	a5,-195(sp)

0000000080001290 <i_1111>:
    80001290:	0339e263          	bltu	s3,s3,800012b4 <i_1120>

0000000080001294 <i_1112>:
    80001294:	02f2dbb3          	divu	s7,t0,a5

0000000080001298 <i_1113>:
    80001298:	02f9f9bb          	remuw	s3,s3,a5

000000008000129c <i_1114>:
    8000129c:	02fba7b3          	mulhsu	a5,s7,a5

00000000800012a0 <i_1115>:
    800012a0:	0ad13c23          	sd	a3,184(sp)

00000000800012a4 <i_1116>:
    800012a4:	06213023          	sd	sp,96(sp)

00000000800012a8 <i_1117>:
    800012a8:	0149f5b3          	and	a1,s3,s4

00000000800012ac <i_1118>:
    800012ac:	f8811583          	lh	a1,-120(sp)

00000000800012b0 <i_1119>:
    800012b0:	02bbd9bb          	divuw	s3,s7,a1

00000000800012b4 <i_1120>:
    800012b4:	08a10583          	lb	a1,138(sp)

00000000800012b8 <i_1121>:
    800012b8:	f0b11723          	sh	a1,-242(sp)

00000000800012bc <i_1122>:
    800012bc:	0c27c993          	xori	s3,a5,194

00000000800012c0 <i_1123>:
    800012c0:	19013983          	ld	s3,400(sp)

00000000800012c4 <i_1124>:
    800012c4:	81200593          	li	a1,-2030

00000000800012c8 <i_1125>:
    800012c8:	82500513          	li	a0,-2011

00000000800012cc <i_1126>:
    800012cc:	033479bb          	remuw	s3,s0,s3

00000000800012d0 <i_1127>:
    800012d0:	f50beb93          	ori	s7,s7,-176

00000000800012d4 <i_1128>:
    800012d4:	00000013          	nop

00000000800012d8 <i_1129>:
    800012d8:	4b9bca13          	xori	s4,s7,1209

00000000800012dc <i_1130>:
    800012dc:	00a15a03          	lhu	s4,10(sp)

00000000800012e0 <i_1131>:
    800012e0:	03709db3          	mulh	s11,ra,s7

00000000800012e4 <i_1132>:
    800012e4:	402a5d93          	srai	s11,s4,0x2

00000000800012e8 <i_1133>:
    800012e8:	01300093          	li	ra,19

00000000800012ec <i_1134>:
    800012ec:	401dd43b          	sraw	s0,s11,ra

00000000800012f0 <i_1135>:
    800012f0:	037df663          	bleu	s7,s11,8000131c <i_1145>

00000000800012f4 <i_1136>:
    800012f4:	00158593          	addi	a1,a1,1
    800012f8:	fca5eae3          	bltu	a1,a0,800012cc <i_1126>

00000000800012fc <i_1137>:
    800012fc:	0b016483          	lwu	s1,176(sp)

0000000080001300 <i_1138>:
    80001300:	16d12c23          	sw	a3,376(sp)

0000000080001304 <i_1139>:
    80001304:	02326263          	bltu	tp,gp,80001328 <i_1148>

0000000080001308 <i_1140>:
    80001308:	03211203          	lh	tp,50(sp)

000000008000130c <i_1141>:
    8000130c:	e5c11b83          	lh	s7,-420(sp)

0000000080001310 <i_1142>:
    80001310:	e9411a03          	lh	s4,-364(sp)

0000000080001314 <i_1143>:
    80001314:	0014ea63          	bltu	s1,ra,80001328 <i_1148>

0000000080001318 <i_1144>:
    80001318:	01b18bb3          	add	s7,gp,s11

000000008000131c <i_1145>:
    8000131c:	0f813583          	ld	a1,248(sp)

0000000080001320 <i_1146>:
    80001320:	e9816a03          	lwu	s4,-360(sp)

0000000080001324 <i_1147>:
    80001324:	f7414083          	lbu	ra,-140(sp)

0000000080001328 <i_1148>:
    80001328:	034a0a3b          	mulw	s4,s4,s4

000000008000132c <i_1149>:
    8000132c:	414a01bb          	subw	gp,s4,s4

0000000080001330 <i_1150>:
    80001330:	08611183          	lh	gp,134(sp)

0000000080001334 <i_1151>:
    80001334:	1d310183          	lb	gp,467(sp)

0000000080001338 <i_1152>:
    80001338:	f5211803          	lh	a6,-174(sp)

000000008000133c <i_1153>:
    8000133c:	03484533          	div	a0,a6,s4

0000000080001340 <i_1154>:
    80001340:	02386e3b          	remw	t3,a6,gp

0000000080001344 <i_1155>:
    80001344:	00d9fa33          	and	s4,s3,a3

0000000080001348 <i_1156>:
    80001348:	010879b3          	and	s3,a6,a6

000000008000134c <i_1157>:
    8000134c:	8b500813          	li	a6,-1867

0000000080001350 <i_1158>:
    80001350:	8bb00193          	li	gp,-1861

0000000080001354 <i_1159>:
    80001354:	0029d993          	srli	s3,s3,0x2

0000000080001358 <i_1160>:
    80001358:	e7411923          	sh	s4,-398(sp)

000000008000135c <i_1161>:
    8000135c:	00180813          	addi	a6,a6,1
    80001360:	fe381ae3          	bne	a6,gp,80001354 <i_1159>

0000000080001364 <i_1162>:
    80001364:	01099c63          	bne	s3,a6,8000137c <i_1168>

0000000080001368 <i_1163>:
    80001368:	f1011723          	sh	a6,-242(sp)

000000008000136c <i_1164>:
    8000136c:	16813803          	ld	a6,360(sp)

0000000080001370 <i_1165>:
    80001370:	1d311923          	sh	s3,466(sp)

0000000080001374 <i_1166>:
    80001374:	01285463          	ble	s2,a6,8000137c <i_1168>

0000000080001378 <i_1167>:
    80001378:	030a4063          	blt	s4,a6,80001398 <i_1175>

000000008000137c <i_1168>:
    8000137c:	0029981b          	slliw	a6,s3,0x2

0000000080001380 <i_1169>:
    80001380:	ed015983          	lhu	s3,-304(sp)

0000000080001384 <i_1170>:
    80001384:	f4714283          	lbu	t0,-185(sp)

0000000080001388 <i_1171>:
    80001388:	03016303          	lwu	t1,48(sp)

000000008000138c <i_1172>:
    8000138c:	eb312423          	sw	s3,-344(sp)

0000000080001390 <i_1173>:
    80001390:	ebb14983          	lbu	s3,-325(sp)

0000000080001394 <i_1174>:
    80001394:	08813803          	ld	a6,136(sp)

0000000080001398 <i_1175>:
    80001398:	019803b3          	add	t2,a6,s9

000000008000139c <i_1176>:
    8000139c:	027d4463          	blt	s10,t2,800013c4 <i_1186>

00000000800013a0 <i_1177>:
    800013a0:	0e813d83          	ld	s11,232(sp)

00000000800013a4 <i_1178>:
    800013a4:	06c16303          	lwu	t1,108(sp)

00000000800013a8 <i_1179>:
    800013a8:	e1815583          	lhu	a1,-488(sp)

00000000800013ac <i_1180>:
    800013ac:	e3a11303          	lh	t1,-454(sp)

00000000800013b0 <i_1181>:
    800013b0:	e7b107a3          	sb	s11,-401(sp)

00000000800013b4 <i_1182>:
    800013b4:	03700093          	li	ra,55

00000000800013b8 <i_1183>:
    800013b8:	4019d7b3          	sra	a5,s3,ra

00000000800013bc <i_1184>:
    800013bc:	0a813d83          	ld	s11,168(sp)

00000000800013c0 <i_1185>:
    800013c0:	1160ee13          	ori	t3,ra,278

00000000800013c4 <i_1186>:
    800013c4:	eef11223          	sh	a5,-284(sp)

00000000800013c8 <i_1187>:
    800013c8:	01d0dc63          	ble	t4,ra,800013e0 <i_1193>

00000000800013cc <i_1188>:
    800013cc:	f3412e83          	lw	t4,-204(sp)

00000000800013d0 <i_1189>:
    800013d0:	f6f10aa3          	sb	a5,-139(sp)

00000000800013d4 <i_1190>:
    800013d4:	00a00e93          	li	t4,10

00000000800013d8 <i_1191>:
    800013d8:	01de5dbb          	srlw	s11,t3,t4

00000000800013dc <i_1192>:
    800013dc:	03b12a23          	sw	s11,52(sp)

00000000800013e0 <i_1193>:
    800013e0:	03bdf463          	bleu	s11,s11,80001408 <i_1203>

00000000800013e4 <i_1194>:
    800013e4:	039d87b3          	mul	a5,s11,s9

00000000800013e8 <i_1195>:
    800013e8:	04013d83          	ld	s11,64(sp)

00000000800013ec <i_1196>:
    800013ec:	19013183          	ld	gp,400(sp)

00000000800013f0 <i_1197>:
    800013f0:	e9d17337          	lui	t1,0xe9d17

00000000800013f4 <i_1198>:
    800013f4:	01dc1e63          	bne	s8,t4,80001410 <i_1205>

00000000800013f8 <i_1199>:
    800013f8:	ee613823          	sd	t1,-272(sp)

00000000800013fc <i_1200>:
    800013fc:	f2c16e83          	lwu	t4,-212(sp)

0000000080001400 <i_1201>:
    80001400:	02c10983          	lb	s3,44(sp)

0000000080001404 <i_1202>:
    80001404:	fe416383          	lwu	t2,-28(sp)

0000000080001408 <i_1203>:
    80001408:	00000013          	nop

000000008000140c <i_1204>:
    8000140c:	033e9e33          	mulh	t3,t4,s3

0000000080001410 <i_1205>:
    80001410:	00000013          	nop

0000000080001414 <i_1206>:
    80001414:	e8412803          	lw	a6,-380(sp)

0000000080001418 <i_1207>:
    80001418:	83d00993          	li	s3,-1987

000000008000141c <i_1208>:
    8000141c:	84000e93          	li	t4,-1984

0000000080001420 <i_1209>:
    80001420:	f3415503          	lhu	a0,-204(sp)

0000000080001424 <i_1210>:
    80001424:	0e615283          	lhu	t0,230(sp)

0000000080001428 <i_1211>:
    80001428:	00198993          	addi	s3,s3,1
    8000142c:	ffd9cae3          	blt	s3,t4,80001420 <i_1209>

0000000080001430 <i_1212>:
    80001430:	fc610983          	lb	s3,-58(sp)

0000000080001434 <i_1213>:
    80001434:	05815083          	lhu	ra,88(sp)

0000000080001438 <i_1214>:
    80001438:	12816483          	lwu	s1,296(sp)

000000008000143c <i_1215>:
    8000143c:	0102de63          	ble	a6,t0,80001458 <i_1222>

0000000080001440 <i_1216>:
    80001440:	08112623          	sw	ra,140(sp)

0000000080001444 <i_1217>:
    80001444:	01700093          	li	ra,23

0000000080001448 <i_1218>:
    80001448:	4014d0b3          	sra	ra,s1,ra

000000008000144c <i_1219>:
    8000144c:	e4412083          	lw	ra,-444(sp)

0000000080001450 <i_1220>:
    80001450:	03700313          	li	t1,55

0000000080001454 <i_1221>:
    80001454:	00621233          	sll	tp,tp,t1

0000000080001458 <i_1222>:
    80001458:	eb310c23          	sb	s3,-328(sp)

000000008000145c <i_1223>:
    8000145c:	0a112023          	sw	ra,160(sp)

0000000080001460 <i_1224>:
    80001460:	89400213          	li	tp,-1900

0000000080001464 <i_1225>:
    80001464:	8a100e93          	li	t4,-1887

0000000080001468 <i_1226>:
    80001468:	026e1463          	bne	t3,t1,80001490 <i_1235>

000000008000146c <i_1227>:
    8000146c:	e7320793          	addi	a5,tp,-397 # fffffffffffffe73 <_end+0xffffffff7ffefa5f>

0000000080001470 <i_1228>:
    80001470:	00120213          	addi	tp,tp,1 # 1 <main-0x7fffffff>
    80001474:	ffd21ae3          	bne	tp,t4,80001468 <i_1226>

0000000080001478 <i_1229>:
    80001478:	00125a63          	ble	ra,tp,8000148c <i_1234>

000000008000147c <i_1230>:
    8000147c:	09414583          	lbu	a1,148(sp)

0000000080001480 <i_1231>:
    80001480:	01524e33          	xor	t3,tp,s5

0000000080001484 <i_1232>:
    80001484:	00f78c63          	beq	a5,a5,8000149c <i_1238>

0000000080001488 <i_1233>:
    80001488:	00000013          	nop

000000008000148c <i_1234>:
    8000148c:	12410a23          	sb	tp,308(sp)

0000000080001490 <i_1235>:
    80001490:	00000013          	nop

0000000080001494 <i_1236>:
    80001494:	f8f12223          	sw	a5,-124(sp)

0000000080001498 <i_1237>:
    80001498:	09514a03          	lbu	s4,149(sp)

000000008000149c <i_1238>:
    8000149c:	9155b7b7          	lui	a5,0x9155b

00000000800014a0 <i_1239>:
    800014a0:	00b980b3          	add	ra,s3,a1

00000000800014a4 <i_1240>:
    800014a4:	7bc00193          	li	gp,1980

00000000800014a8 <i_1241>:
    800014a8:	7cc00313          	li	t1,1996

00000000800014ac <i_1242>:
    800014ac:	8af20513          	addi	a0,tp,-1873 # fffffffffffff8af <_end+0xffffffff7ffef49b>

00000000800014b0 <i_1243>:
    800014b0:	15a7e513          	ori	a0,a5,346

00000000800014b4 <i_1244>:
    800014b4:	18013e83          	ld	t4,384(sp)

00000000800014b8 <i_1245>:
    800014b8:	ec411823          	sh	tp,-304(sp)

00000000800014bc <i_1246>:
    800014bc:	88d00793          	li	a5,-1907

00000000800014c0 <i_1247>:
    800014c0:	89b00993          	li	s3,-1893

00000000800014c4 <i_1248>:
    800014c4:	00000013          	nop

00000000800014c8 <i_1249>:
    800014c8:	028ee43b          	remw	s0,t4,s0

00000000800014cc <i_1250>:
    800014cc:	00178793          	addi	a5,a5,1 # ffffffff9155b001 <_end+0xffffffff1154abed>
    800014d0:	ff37cae3          	blt	a5,s3,800014c4 <i_1248>

00000000800014d4 <i_1251>:
    800014d4:	18114783          	lbu	a5,385(sp)

00000000800014d8 <i_1252>:
    800014d8:	00118193          	addi	gp,gp,1
    800014dc:	fc3358e3          	ble	gp,t1,800014ac <i_1242>

00000000800014e0 <i_1253>:
    800014e0:	00dca833          	slt	a6,s9,a3

00000000800014e4 <i_1254>:
    800014e4:	00fe8333          	add	t1,t4,a5

00000000800014e8 <i_1255>:
    800014e8:	0b011303          	lh	t1,176(sp)

00000000800014ec <i_1256>:
    800014ec:	9f2cf793          	andi	a5,s9,-1550

00000000800014f0 <i_1257>:
    800014f0:	06610ea3          	sb	t1,125(sp)

00000000800014f4 <i_1258>:
    800014f4:	e8612423          	sw	t1,-376(sp)

00000000800014f8 <i_1259>:
    800014f8:	00f17c63          	bleu	a5,sp,80001510 <i_1265>

00000000800014fc <i_1260>:
    800014fc:	00b00213          	li	tp,11

0000000080001500 <i_1261>:
    80001500:	404157bb          	sraw	a5,sp,tp

0000000080001504 <i_1262>:
    80001504:	02016d83          	lwu	s11,32(sp)

0000000080001508 <i_1263>:
    80001508:	03400813          	li	a6,52

000000008000150c <i_1264>:
    8000150c:	010d9e33          	sll	t3,s11,a6

0000000080001510 <i_1265>:
    80001510:	07d9829b          	addiw	t0,s3,125

0000000080001514 <i_1266>:
    80001514:	17c100a3          	sb	t3,353(sp)

0000000080001518 <i_1267>:
    80001518:	029df063          	bleu	s1,s11,80001538 <i_1275>

000000008000151c <i_1268>:
    8000151c:	e7c13023          	sd	t3,-416(sp)

0000000080001520 <i_1269>:
    80001520:	17c10b23          	sb	t3,374(sp)

0000000080001524 <i_1270>:
    80001524:	f5012423          	sw	a6,-184(sp)

0000000080001528 <i_1271>:
    80001528:	00783e33          	sltu	t3,a6,t2

000000008000152c <i_1272>:
    8000152c:	01b87e63          	bleu	s11,a6,80001548 <i_1279>

0000000080001530 <i_1273>:
    80001530:	0108fe33          	and	t3,a7,a6

0000000080001534 <i_1274>:
    80001534:	01cd9a63          	bne	s11,t3,80001548 <i_1279>

0000000080001538 <i_1275>:
    80001538:	ad6e6b93          	ori	s7,t3,-1322

000000008000153c <i_1276>:
    8000153c:	4049d993          	srai	s3,s3,0x4

0000000080001540 <i_1277>:
    80001540:	01729e63          	bne	t0,s7,8000155c <i_1284>

0000000080001544 <i_1278>:
    80001544:	14811e03          	lh	t3,328(sp)

0000000080001548 <i_1279>:
    80001548:	13011623          	sh	a6,300(sp)

000000008000154c <i_1280>:
    8000154c:	1aa11303          	lh	t1,426(sp)

0000000080001550 <i_1281>:
    80001550:	03cfbbb3          	mulhu	s7,t6,t3

0000000080001554 <i_1282>:
    80001554:	18914383          	lbu	t2,393(sp)

0000000080001558 <i_1283>:
    80001558:	0013de13          	srli	t3,t2,0x1

000000008000155c <i_1284>:
    8000155c:	0173d463          	ble	s7,t2,80001564 <i_1286>

0000000080001560 <i_1285>:
    80001560:	e9811203          	lh	tp,-360(sp)

0000000080001564 <i_1286>:
    80001564:	01ce4e33          	xor	t3,t3,t3

0000000080001568 <i_1287>:
    80001568:	8e4e3e13          	sltiu	t3,t3,-1820

000000008000156c <i_1288>:
    8000156c:	01ce4e63          	blt	t3,t3,80001588 <i_1295>

0000000080001570 <i_1289>:
    80001570:	03ce6e3b          	remw	t3,t3,t3

0000000080001574 <i_1290>:
    80001574:	1dc15e03          	lhu	t3,476(sp)

0000000080001578 <i_1291>:
    80001578:	01ce0a63          	beq	t3,t3,8000158c <i_1296>

000000008000157c <i_1292>:
    8000157c:	401e07b3          	sub	a5,t3,ra

0000000080001580 <i_1293>:
    80001580:	01ce0233          	add	tp,t3,t3

0000000080001584 <i_1294>:
    80001584:	e3813e03          	ld	t3,-456(sp)

0000000080001588 <i_1295>:
    80001588:	024e0333          	mul	t1,t3,tp

000000008000158c <i_1296>:
    8000158c:	00f74663          	blt	a4,a5,80001598 <i_1299>

0000000080001590 <i_1297>:
    80001590:	03c449bb          	divw	s3,s0,t3

0000000080001594 <i_1298>:
    80001594:	01ce31b3          	sltu	gp,t3,t3

0000000080001598 <i_1299>:
    80001598:	030e6433          	rem	s0,t3,a6

000000008000159c <i_1300>:
    8000159c:	14415803          	lhu	a6,324(sp)

00000000800015a0 <i_1301>:
    800015a0:	01100d93          	li	s11,17

00000000800015a4 <i_1302>:
    800015a4:	01be5dbb          	srlw	s11,t3,s11

00000000800015a8 <i_1303>:
    800015a8:	0c015b83          	lhu	s7,192(sp)

00000000800015ac <i_1304>:
    800015ac:	19414203          	lbu	tp,404(sp)

00000000800015b0 <i_1305>:
    800015b0:	05a13423          	sd	s10,72(sp)

00000000800015b4 <i_1306>:
    800015b4:	f9411d83          	lh	s11,-108(sp)

00000000800015b8 <i_1307>:
    800015b8:	408e023b          	subw	tp,t3,s0

00000000800015bc <i_1308>:
    800015bc:	1bc14403          	lbu	s0,444(sp)

00000000800015c0 <i_1309>:
    800015c0:	02436233          	rem	tp,t1,tp

00000000800015c4 <i_1310>:
    800015c4:	008e6e63          	bltu	t3,s0,800015e0 <i_1317>

00000000800015c8 <i_1311>:
    800015c8:	01c86863          	bltu	a6,t3,800015d8 <i_1315>

00000000800015cc <i_1312>:
    800015cc:	003e151b          	slliw	a0,t3,0x3

00000000800015d0 <i_1313>:
    800015d0:	0041dc63          	ble	tp,gp,800015e8 <i_1319>

00000000800015d4 <i_1314>:
    800015d4:	ed914583          	lbu	a1,-295(sp)

00000000800015d8 <i_1315>:
    800015d8:	41c5043b          	subw	s0,a0,t3

00000000800015dc <i_1316>:
    800015dc:	e7f10203          	lb	tp,-385(sp)

00000000800015e0 <i_1317>:
    800015e0:	00b20eb3          	add	t4,tp,a1

00000000800015e4 <i_1318>:
    800015e4:	00000013          	nop

00000000800015e8 <i_1319>:
    800015e8:	00000013          	nop

00000000800015ec <i_1320>:
    800015ec:	00447433          	and	s0,s0,tp

00000000800015f0 <i_1321>:
    800015f0:	8c300093          	li	ra,-1853

00000000800015f4 <i_1322>:
    800015f4:	8c500493          	li	s1,-1851

00000000800015f8 <i_1323>:
    800015f8:	faf14203          	lbu	tp,-81(sp)

00000000800015fc <i_1324>:
    800015fc:	402eda13          	srai	s4,t4,0x2

0000000080001600 <i_1325>:
    80001600:	84500e93          	li	t4,-1979

0000000080001604 <i_1326>:
    80001604:	85300413          	li	s0,-1965

0000000080001608 <i_1327>:
    80001608:	eec11203          	lh	tp,-276(sp)

000000008000160c <i_1328>:
    8000160c:	001e8e93          	addi	t4,t4,1
    80001610:	ffd47ce3          	bleu	t4,s0,80001608 <i_1327>

0000000080001614 <i_1329>:
    80001614:	07416e83          	lwu	t4,116(sp)

0000000080001618 <i_1330>:
    80001618:	f8412423          	sw	tp,-120(sp)

000000008000161c <i_1331>:
    8000161c:	036a0b93          	addi	s7,s4,54 # 3e921036 <main-0x416defca>

0000000080001620 <i_1332>:
    80001620:	0c413023          	sd	tp,192(sp)

0000000080001624 <i_1333>:
    80001624:	fc410623          	sb	tp,-52(sp)

0000000080001628 <i_1334>:
    80001628:	0140de63          	ble	s4,ra,80001644 <i_1340>

000000008000162c <i_1335>:
    8000162c:	e3813303          	ld	t1,-456(sp)

0000000080001630 <i_1336>:
    80001630:	f5615583          	lhu	a1,-170(sp)

0000000080001634 <i_1337>:
    80001634:	00108093          	addi	ra,ra,1
    80001638:	fc90e0e3          	bltu	ra,s1,800015f8 <i_1323>

000000008000163c <i_1338>:
    8000163c:	1c215083          	lhu	ra,450(sp)

0000000080001640 <i_1339>:
    80001640:	e4816e03          	lwu	t3,-440(sp)

0000000080001644 <i_1340>:
    80001644:	1c610ca3          	sb	t1,473(sp)

0000000080001648 <i_1341>:
    80001648:	f5013183          	ld	gp,-176(sp)

000000008000164c <i_1342>:
    8000164c:	04c14503          	lbu	a0,76(sp)

0000000080001650 <i_1343>:
    80001650:	89d00313          	li	t1,-1891

0000000080001654 <i_1344>:
    80001654:	8b100093          	li	ra,-1871

0000000080001658 <i_1345>:
    80001658:	19110a03          	lb	s4,401(sp)

000000008000165c <i_1346>:
    8000165c:	01500993          	li	s3,21

0000000080001660 <i_1347>:
    80001660:	013551bb          	srlw	gp,a0,s3

0000000080001664 <i_1348>:
    80001664:	053a2513          	slti	a0,s4,83

0000000080001668 <i_1349>:
    80001668:	46c58593          	addi	a1,a1,1132

000000008000166c <i_1350>:
    8000166c:	18c12503          	lw	a0,396(sp)

0000000080001670 <i_1351>:
    80001670:	00000013          	nop

0000000080001674 <i_1352>:
    80001674:	0b816983          	lwu	s3,184(sp)

0000000080001678 <i_1353>:
    80001678:	1ca11583          	lh	a1,458(sp)

000000008000167c <i_1354>:
    8000167c:	01200593          	li	a1,18

0000000080001680 <i_1355>:
    80001680:	00b519bb          	sllw	s3,a0,a1

0000000080001684 <i_1356>:
    80001684:	00130313          	addi	t1,t1,1 # ffffffffe9d17001 <_end+0xffffffff69d06bed>
    80001688:	fc1318e3          	bne	t1,ra,80001658 <i_1345>

000000008000168c <i_1357>:
    8000168c:	d8f12517          	auipc	a0,0xd8f12

0000000080001690 <i_1358>:
    80001690:	00b59263          	bne	a1,a1,80001694 <i_1359>

0000000080001694 <i_1359>:
    80001694:	00a9a2b3          	slt	t0,s3,a0

0000000080001698 <i_1360>:
    80001698:	19313023          	sd	s3,384(sp)

000000008000169c <i_1361>:
    8000169c:	77e00593          	li	a1,1918

00000000800016a0 <i_1362>:
    800016a0:	78b00993          	li	s3,1931

00000000800016a4 <i_1363>:
    800016a4:	03357463          	bleu	s3,a0,800016cc <i_1372>

00000000800016a8 <i_1364>:
    800016a8:	f9811d83          	lh	s11,-104(sp)

00000000800016ac <i_1365>:
    800016ac:	0032929b          	slliw	t0,t0,0x3

00000000800016b0 <i_1366>:
    800016b0:	00654c63          	blt	a0,t1,800016c8 <i_1371>

00000000800016b4 <i_1367>:
    800016b4:	00158593          	addi	a1,a1,1
    800016b8:	ff35e6e3          	bltu	a1,s3,800016a4 <i_1363>

00000000800016bc <i_1368>:
    800016bc:	03bdb4b3          	mulhu	s1,s11,s11

00000000800016c0 <i_1369>:
    800016c0:	02b2d2bb          	divuw	t0,t0,a1

00000000800016c4 <i_1370>:
    800016c4:	009dfdb3          	and	s11,s11,s1

00000000800016c8 <i_1371>:
    800016c8:	07c12403          	lw	s0,124(sp)

00000000800016cc <i_1372>:
    800016cc:	f5013403          	ld	s0,-176(sp)

00000000800016d0 <i_1373>:
    800016d0:	f3b11b23          	sh	s11,-202(sp)

00000000800016d4 <i_1374>:
    800016d4:	89200293          	li	t0,-1902

00000000800016d8 <i_1375>:
    800016d8:	8a200d93          	li	s11,-1886

00000000800016dc <i_1376>:
    800016dc:	f7012623          	sw	a6,-148(sp)

00000000800016e0 <i_1377>:
    800016e0:	03bde463          	bltu	s11,s11,80001708 <i_1387>

00000000800016e4 <i_1378>:
    800016e4:	16513023          	sd	t0,352(sp)

00000000800016e8 <i_1379>:
    800016e8:	01b46263          	bltu	s0,s11,800016ec <i_1380>

00000000800016ec <i_1380>:
    800016ec:	e4013503          	ld	a0,-448(sp)

00000000800016f0 <i_1381>:
    800016f0:	c174f413          	andi	s0,s1,-1001

00000000800016f4 <i_1382>:
    800016f4:	f6a13c23          	sd	a0,-136(sp)

00000000800016f8 <i_1383>:
    800016f8:	00000013          	nop

00000000800016fc <i_1384>:
    800016fc:	e6813423          	sd	s0,-408(sp)

0000000080001700 <i_1385>:
    80001700:	0e518193          	addi	gp,gp,229

0000000080001704 <i_1386>:
    80001704:	fc812423          	sw	s0,-56(sp)

0000000080001708 <i_1387>:
    80001708:	fbc10b83          	lb	s7,-68(sp)

000000008000170c <i_1388>:
    8000170c:	02300793          	li	a5,35

0000000080001710 <i_1389>:
    80001710:	40f45433          	sra	s0,s0,a5

0000000080001714 <i_1390>:
    80001714:	00128293          	addi	t0,t0,1
    80001718:	fc5df2e3          	bleu	t0,s11,800016dc <i_1376>

000000008000171c <i_1391>:
    8000171c:	017debb3          	or	s7,s11,s7

0000000080001720 <i_1392>:
    80001720:	40fc843b          	subw	s0,s9,a5

0000000080001724 <i_1393>:
    80001724:	40978db3          	sub	s11,a5,s1

0000000080001728 <i_1394>:
    80001728:	c82bfd93          	andi	s11,s7,-894

000000008000172c <i_1395>:
    8000172c:	18513023          	sd	t0,384(sp)

0000000080001730 <i_1396>:
    80001730:	00500813          	li	a6,5

0000000080001734 <i_1397>:
    80001734:	010d983b          	sllw	a6,s11,a6

0000000080001738 <i_1398>:
    80001738:	f2615403          	lhu	s0,-218(sp)

000000008000173c <i_1399>:
    8000173c:	eeabc093          	xori	ra,s7,-278

0000000080001740 <i_1400>:
    80001740:	ef816483          	lwu	s1,-264(sp)

0000000080001744 <i_1401>:
    80001744:	037819b3          	mulh	s3,a6,s7

0000000080001748 <i_1402>:
    80001748:	01744c63          	blt	s0,s7,80001760 <i_1408>

000000008000174c <i_1403>:
    8000174c:	2397b493          	sltiu	s1,a5,569

0000000080001750 <i_1404>:
    80001750:	00000013          	nop

0000000080001754 <i_1405>:
    80001754:	0ec11083          	lh	ra,236(sp)

0000000080001758 <i_1406>:
    80001758:	00ae87b3          	add	a5,t4,a0

000000008000175c <i_1407>:
    8000175c:	00000013          	nop

0000000080001760 <i_1408>:
    80001760:	eac16783          	lwu	a5,-340(sp)

0000000080001764 <i_1409>:
    80001764:	01de6e33          	or	t3,t3,t4

0000000080001768 <i_1410>:
    80001768:	7c100513          	li	a0,1985

000000008000176c <i_1411>:
    8000176c:	7d400e93          	li	t4,2004

0000000080001770 <i_1412>:
    80001770:	00150513          	addi	a0,a0,1 # 58f1368d <main-0x270ec973>
    80001774:	feaefee3          	bleu	a0,t4,80001770 <i_1412>

0000000080001778 <i_1413>:
    80001778:	0ce15a03          	lhu	s4,206(sp)

000000008000177c <i_1414>:
    8000177c:	e2f13823          	sd	a5,-464(sp)

0000000080001780 <i_1415>:
    80001780:	73500793          	li	a5,1845

0000000080001784 <i_1416>:
    80001784:	74900293          	li	t0,1865

0000000080001788 <i_1417>:
    80001788:	6d378d9b          	addiw	s11,a5,1747

000000008000178c <i_1418>:
    8000178c:	01bde463          	bltu	s11,s11,80001794 <i_1420>

0000000080001790 <i_1419>:
    80001790:	f69a7093          	andi	ra,s4,-151

0000000080001794 <i_1420>:
    80001794:	00528e33          	add	t3,t0,t0

0000000080001798 <i_1421>:
    80001798:	0047dd9b          	srliw	s11,a5,0x4

000000008000179c <i_1422>:
    8000179c:	fc016a03          	lwu	s4,-64(sp)

00000000800017a0 <i_1423>:
    800017a0:	fc811b83          	lh	s7,-56(sp)

00000000800017a4 <i_1424>:
    800017a4:	014d8a33          	add	s4,s11,s4

00000000800017a8 <i_1425>:
    800017a8:	037bc263          	blt	s7,s7,800017cc <i_1433>

00000000800017ac <i_1426>:
    800017ac:	017a0bb3          	add	s7,s4,s7

00000000800017b0 <i_1427>:
    800017b0:	00178793          	addi	a5,a5,1
    800017b4:	fcf29ae3          	bne	t0,a5,80001788 <i_1417>

00000000800017b8 <i_1428>:
    800017b8:	09c15d83          	lhu	s11,156(sp)

00000000800017bc <i_1429>:
    800017bc:	07714403          	lbu	s0,119(sp)

00000000800017c0 <i_1430>:
    800017c0:	f2c16403          	lwu	s0,-212(sp)

00000000800017c4 <i_1431>:
    800017c4:	0bd10d83          	lb	s11,189(sp)

00000000800017c8 <i_1432>:
    800017c8:	028a3433          	mulhu	s0,s4,s0

00000000800017cc <i_1433>:
    800017cc:	003dd293          	srli	t0,s11,0x3

00000000800017d0 <i_1434>:
    800017d0:	0259eebb          	remw	t4,s3,t0

00000000800017d4 <i_1435>:
    800017d4:	89900513          	li	a0,-1895

00000000800017d8 <i_1436>:
    800017d8:	89b00493          	li	s1,-1893

00000000800017dc <i_1437>:
    800017dc:	f0913823          	sd	s1,-240(sp)

00000000800017e0 <i_1438>:
    800017e0:	11f10283          	lb	t0,287(sp)

00000000800017e4 <i_1439>:
    800017e4:	41de82bb          	subw	t0,t4,t4

00000000800017e8 <i_1440>:
    800017e8:	025ecebb          	divw	t4,t4,t0

00000000800017ec <i_1441>:
    800017ec:	0032de9b          	srliw	t4,t0,0x3

00000000800017f0 <i_1442>:
    800017f0:	03d2ebbb          	remw	s7,t0,t4

00000000800017f4 <i_1443>:
    800017f4:	00150513          	addi	a0,a0,1
    800017f8:	fea4f2e3          	bleu	a0,s1,800017dc <i_1437>

00000000800017fc <i_1444>:
    800017fc:	e26efe93          	andi	t4,t4,-474

0000000080001800 <i_1445>:
    80001800:	017ca433          	slt	s0,s9,s7

0000000080001804 <i_1446>:
    80001804:	008e9c63          	bne	t4,s0,8000181c <i_1452>

0000000080001808 <i_1447>:
    80001808:	15711423          	sh	s7,328(sp)

000000008000180c <i_1448>:
    8000180c:	05d12a23          	sw	t4,84(sp)

0000000080001810 <i_1449>:
    80001810:	ec813403          	ld	s0,-312(sp)

0000000080001814 <i_1450>:
    80001814:	00544663          	blt	s0,t0,80001820 <i_1453>

0000000080001818 <i_1451>:
    80001818:	00000013          	nop

000000008000181c <i_1452>:
    8000181c:	00000013          	nop

0000000080001820 <i_1453>:
    80001820:	07011283          	lh	t0,112(sp)

0000000080001824 <i_1454>:
    80001824:	00000013          	nop

0000000080001828 <i_1455>:
    80001828:	8a600e93          	li	t4,-1882

000000008000182c <i_1456>:
    8000182c:	8a800193          	li	gp,-1880

0000000080001830 <i_1457>:
    80001830:	f0311d23          	sh	gp,-230(sp)

0000000080001834 <i_1458>:
    80001834:	0170a0b3          	slt	ra,ra,s7

0000000080001838 <i_1459>:
    80001838:	76200b93          	li	s7,1890

000000008000183c <i_1460>:
    8000183c:	77600293          	li	t0,1910

0000000080001840 <i_1461>:
    80001840:	001b8b93          	addi	s7,s7,1
    80001844:	fe5bcee3          	blt	s7,t0,80001840 <i_1461>

0000000080001848 <i_1462>:
    80001848:	00000013          	nop

000000008000184c <i_1463>:
    8000184c:	002bd493          	srli	s1,s7,0x2

0000000080001850 <i_1464>:
    80001850:	004bd59b          	srliw	a1,s7,0x4

0000000080001854 <i_1465>:
    80001854:	001e8e93          	addi	t4,t4,1
    80001858:	fdd1dce3          	ble	t4,gp,80001830 <i_1457>

000000008000185c <i_1466>:
    8000185c:	03dbebbb          	remw	s7,s7,t4

0000000080001860 <i_1467>:
    80001860:	04911b23          	sh	s1,86(sp)

0000000080001864 <i_1468>:
    80001864:	00108863          	beq	ra,ra,80001874 <i_1472>

0000000080001868 <i_1469>:
    80001868:	0e013083          	ld	ra,224(sp)

000000008000186c <i_1470>:
    8000186c:	10412803          	lw	a6,260(sp)

0000000080001870 <i_1471>:
    80001870:	00200313          	li	t1,2

0000000080001874 <i_1472>:
    80001874:	006650bb          	srlw	ra,a2,t1

0000000080001878 <i_1473>:
    80001878:	9a883193          	sltiu	gp,a6,-1624

000000008000187c <i_1474>:
    8000187c:	74600213          	li	tp,1862

0000000080001880 <i_1475>:
    80001880:	75400b93          	li	s7,1876

0000000080001884 <i_1476>:
    80001884:	0301c463          	blt	gp,a6,800018ac <i_1485>

0000000080001888 <i_1477>:
    80001888:	00f00e93          	li	t4,15

000000008000188c <i_1478>:
    8000188c:	41d8583b          	sraw	a6,a6,t4

0000000080001890 <i_1479>:
    80001890:	0290f463          	bleu	s1,ra,800018b8 <i_1488>

0000000080001894 <i_1480>:
    80001894:	2390a393          	slti	t2,ra,569

0000000080001898 <i_1481>:
    80001898:	fe113423          	sd	ra,-24(sp)

000000008000189c <i_1482>:
    8000189c:	00120213          	addi	tp,tp,1 # 1 <main-0x7fffffff>
    800018a0:	ff7242e3          	blt	tp,s7,80001884 <i_1476>

00000000800018a4 <i_1483>:
    800018a4:	00180863          	beq	a6,ra,800018b4 <i_1487>

00000000800018a8 <i_1484>:
    800018a8:	007caeb3          	slt	t4,s9,t2

00000000800018ac <i_1485>:
    800018ac:	005180b3          	add	ra,gp,t0

00000000800018b0 <i_1486>:
    800018b0:	00700193          	li	gp,7

00000000800018b4 <i_1487>:
    800018b4:	0033d833          	srl	a6,t2,gp

00000000800018b8 <i_1488>:
    800018b8:	ee710383          	lb	t2,-281(sp)

00000000800018bc <i_1489>:
    800018bc:	f8e10803          	lb	a6,-114(sp)

00000000800018c0 <i_1490>:
    800018c0:	e9610823          	sb	s6,-368(sp)

00000000800018c4 <i_1491>:
    800018c4:	0071e863          	bltu	gp,t2,800018d4 <i_1495>

00000000800018c8 <i_1492>:
    800018c8:	01c00293          	li	t0,28

00000000800018cc <i_1493>:
    800018cc:	005edbbb          	srlw	s7,t4,t0

00000000800018d0 <i_1494>:
    800018d0:	10e15083          	lhu	ra,270(sp)

00000000800018d4 <i_1495>:
    800018d4:	0252623b          	remw	tp,tp,t0

00000000800018d8 <i_1496>:
    800018d8:	00381b93          	slli	s7,a6,0x3

00000000800018dc <i_1497>:
    800018dc:	f6813803          	ld	a6,-152(sp)

00000000800018e0 <i_1498>:
    800018e0:	00a00593          	li	a1,10

00000000800018e4 <i_1499>:
    800018e4:	00b2123b          	sllw	tp,tp,a1

00000000800018e8 <i_1500>:
    800018e8:	01720a63          	beq	tp,s7,800018fc <i_1505>

00000000800018ec <i_1501>:
    800018ec:	4045883b          	subw	a6,a1,tp

00000000800018f0 <i_1502>:
    800018f0:	f2b11223          	sh	a1,-220(sp)

00000000800018f4 <i_1503>:
    800018f4:	02425233          	divu	tp,tp,tp

00000000800018f8 <i_1504>:
    800018f8:	00421b9b          	slliw	s7,tp,0x4

00000000800018fc <i_1505>:
    800018fc:	00420463          	beq	tp,tp,80001904 <i_1507>

0000000080001900 <i_1506>:
    80001900:	e3614b83          	lbu	s7,-458(sp)

0000000080001904 <i_1507>:
    80001904:	00321413          	slli	s0,tp,0x3

0000000080001908 <i_1508>:
    80001908:	0cc10403          	lb	s0,204(sp)

000000008000190c <i_1509>:
    8000190c:	14812a23          	sw	s0,340(sp)

0000000080001910 <i_1510>:
    80001910:	01920a63          	beq	tp,s9,80001924 <i_1515>

0000000080001914 <i_1511>:
    80001914:	0225feb3          	remu	t4,a1,sp

0000000080001918 <i_1512>:
    80001918:	029243b3          	div	t2,tp,s1

000000008000191c <i_1513>:
    8000191c:	00426e63          	bltu	tp,tp,80001938 <i_1520>

0000000080001920 <i_1514>:
    80001920:	ee73ab93          	slti	s7,t2,-281

0000000080001924 <i_1515>:
    80001924:	007f0663          	beq	t5,t2,80001930 <i_1518>

0000000080001928 <i_1516>:
    80001928:	ee411e23          	sh	tp,-260(sp)

000000008000192c <i_1517>:
    8000192c:	028452bb          	divuw	t0,s0,s0

0000000080001930 <i_1518>:
    80001930:	d35ead93          	slti	s11,t4,-715

0000000080001934 <i_1519>:
    80001934:	0245ce3b          	divw	t3,a1,tp

0000000080001938 <i_1520>:
    80001938:	00b41463          	bne	s0,a1,80001940 <i_1522>

000000008000193c <i_1521>:
    8000193c:	f8813583          	ld	a1,-120(sp)

0000000080001940 <i_1522>:
    80001940:	fd514283          	lbu	t0,-43(sp)

0000000080001944 <i_1523>:
    80001944:	02b13c23          	sd	a1,56(sp)

0000000080001948 <i_1524>:
    80001948:	fcb12823          	sw	a1,-48(sp)

000000008000194c <i_1525>:
    8000194c:	e6b10f23          	sb	a1,-386(sp)

0000000080001950 <i_1526>:
    80001950:	14812c23          	sw	s0,344(sp)

0000000080001954 <i_1527>:
    80001954:	ee914e83          	lbu	t4,-279(sp)

0000000080001958 <i_1528>:
    80001958:	919e6e13          	ori	t3,t3,-1767

000000008000195c <i_1529>:
    8000195c:	e9012e03          	lw	t3,-368(sp)

0000000080001960 <i_1530>:
    80001960:	01c86863          	bltu	a6,t3,80001970 <i_1534>

0000000080001964 <i_1531>:
    80001964:	022e9e33          	mulh	t3,t4,sp

0000000080001968 <i_1532>:
    80001968:	03c4c263          	blt	s1,t3,8000198c <i_1541>

000000008000196c <i_1533>:
    8000196c:	0f416483          	lwu	s1,244(sp)

0000000080001970 <i_1534>:
    80001970:	01ce0e33          	add	t3,t3,t3

0000000080001974 <i_1535>:
    80001974:	0290c0b3          	div	ra,ra,s1

0000000080001978 <i_1536>:
    80001978:	08911723          	sh	s1,142(sp)

000000008000197c <i_1537>:
    8000197c:	e8813583          	ld	a1,-376(sp)

0000000080001980 <i_1538>:
    80001980:	029bf463          	bleu	s1,s7,800019a8 <i_1548>

0000000080001984 <i_1539>:
    80001984:	19816503          	lwu	a0,408(sp)

0000000080001988 <i_1540>:
    80001988:	abd79797          	auipc	a5,0xabd79

000000008000198c <i_1541>:
    8000198c:	f0a108a3          	sb	a0,-239(sp)

0000000080001990 <i_1542>:
    80001990:	0045dd9b          	srliw	s11,a1,0x4

0000000080001994 <i_1543>:
    80001994:	17911923          	sh	s9,370(sp)

0000000080001998 <i_1544>:
    80001998:	1a912c23          	sw	s1,440(sp)

000000008000199c <i_1545>:
    8000199c:	00000013          	nop

00000000800019a0 <i_1546>:
    800019a0:	404a8233          	sub	tp,s5,tp

00000000800019a4 <i_1547>:
    800019a4:	42e4b393          	sltiu	t2,s1,1070

00000000800019a8 <i_1548>:
    800019a8:	f2813483          	ld	s1,-216(sp)

00000000800019ac <i_1549>:
    800019ac:	00221513          	slli	a0,tp,0x2

00000000800019b0 <i_1550>:
    800019b0:	80100e93          	li	t4,-2047

00000000800019b4 <i_1551>:
    800019b4:	80600593          	li	a1,-2042

00000000800019b8 <i_1552>:
    800019b8:	ff06d217          	auipc	tp,0xff06d

00000000800019bc <i_1553>:
    800019bc:	00949a63          	bne	s1,s1,800019d0 <i_1558>

00000000800019c0 <i_1554>:
    800019c0:	00738c63          	beq	t2,t2,800019d8 <i_1560>

00000000800019c4 <i_1555>:
    800019c4:	00a25463          	ble	a0,tp,800019cc <i_1557>

00000000800019c8 <i_1556>:
    800019c8:	01a00513          	li	a0,26

00000000800019cc <i_1557>:
    800019cc:	00a5523b          	srlw	tp,a0,a0

00000000800019d0 <i_1558>:
    800019d0:	f6813e03          	ld	t3,-152(sp)

00000000800019d4 <i_1559>:
    800019d4:	07c10623          	sb	t3,108(sp)

00000000800019d8 <i_1560>:
    800019d8:	f4a13423          	sd	a0,-184(sp)

00000000800019dc <i_1561>:
    800019dc:	e7110203          	lb	tp,-399(sp)

00000000800019e0 <i_1562>:
    800019e0:	001e8e93          	addi	t4,t4,1
    800019e4:	fdd5dae3          	ble	t4,a1,800019b8 <i_1552>

00000000800019e8 <i_1563>:
    800019e8:	03c27a33          	remu	s4,tp,t3

00000000800019ec <i_1564>:
    800019ec:	00d00793          	li	a5,13

00000000800019f0 <i_1565>:
    800019f0:	00f517bb          	sllw	a5,a0,a5

00000000800019f4 <i_1566>:
    800019f4:	7957f393          	andi	t2,a5,1941

00000000800019f8 <i_1567>:
    800019f8:	9b838793          	addi	a5,t2,-1608

00000000800019fc <i_1568>:
    800019fc:	08310803          	lb	a6,131(sp)

0000000080001a00 <i_1569>:
    80001a00:	87250793          	addi	a5,a0,-1934

0000000080001a04 <i_1570>:
    80001a04:	17014803          	lbu	a6,368(sp)

0000000080001a08 <i_1571>:
    80001a08:	f7816783          	lwu	a5,-136(sp)

0000000080001a0c <i_1572>:
    80001a0c:	0f211783          	lh	a5,242(sp)

0000000080001a10 <i_1573>:
    80001a10:	fb512c23          	sw	s5,-72(sp)

0000000080001a14 <i_1574>:
    80001a14:	0327c7bb          	divw	a5,a5,s2

0000000080001a18 <i_1575>:
    80001a18:	e2215b83          	lhu	s7,-478(sp)

0000000080001a1c <i_1576>:
    80001a1c:	fcf12823          	sw	a5,-48(sp)

0000000080001a20 <i_1577>:
    80001a20:	01414303          	lbu	t1,20(sp)

0000000080001a24 <i_1578>:
    80001a24:	03730263          	beq	t1,s7,80001a48 <i_1587>

0000000080001a28 <i_1579>:
    80001a28:	0bc11e03          	lh	t3,188(sp)

0000000080001a2c <i_1580>:
    80001a2c:	0107c463          	blt	a5,a6,80001a34 <i_1582>

0000000080001a30 <i_1581>:
    80001a30:	eee12623          	sw	a4,-276(sp)

0000000080001a34 <i_1582>:
    80001a34:	00178e63          	beq	a5,ra,80001a50 <i_1589>

0000000080001a38 <i_1583>:
    80001a38:	09e10783          	lb	a5,158(sp)

0000000080001a3c <i_1584>:
    80001a3c:	edc12c23          	sw	t3,-296(sp)

0000000080001a40 <i_1585>:
    80001a40:	1de11d83          	lh	s11,478(sp)

0000000080001a44 <i_1586>:
    80001a44:	460e0e1b          	addiw	t3,t3,1120

0000000080001a48 <i_1587>:
    80001a48:	01b7de63          	ble	s11,a5,80001a64 <i_1594>

0000000080001a4c <i_1588>:
    80001a4c:	0067e263          	bltu	a5,t1,80001a50 <i_1589>

0000000080001a50 <i_1589>:
    80001a50:	03b31063          	bne	t1,s11,80001a70 <i_1597>

0000000080001a54 <i_1590>:
    80001a54:	f7813083          	ld	ra,-136(sp)

0000000080001a58 <i_1591>:
    80001a58:	034dca33          	div	s4,s11,s4

0000000080001a5c <i_1592>:
    80001a5c:	14110923          	sb	ra,338(sp)

0000000080001a60 <i_1593>:
    80001a60:	fb013503          	ld	a0,-80(sp)

0000000080001a64 <i_1594>:
    80001a64:	02610923          	sb	t1,50(sp)

0000000080001a68 <i_1595>:
    80001a68:	00a97833          	and	a6,s2,a0

0000000080001a6c <i_1596>:
    80001a6c:	02016e83          	lwu	t4,32(sp)

0000000080001a70 <i_1597>:
    80001a70:	021502bb          	mulw	t0,a0,ra

0000000080001a74 <i_1598>:
    80001a74:	01b50e33          	add	t3,a0,s11

0000000080001a78 <i_1599>:
    80001a78:	014b4e63          	blt	s6,s4,80001a94 <i_1606>

0000000080001a7c <i_1600>:
    80001a7c:	fb410803          	lb	a6,-76(sp)

0000000080001a80 <i_1601>:
    80001a80:	03c37a3b          	remuw	s4,t1,t3

0000000080001a84 <i_1602>:
    80001a84:	01c86863          	bltu	a6,t3,80001a94 <i_1606>

0000000080001a88 <i_1603>:
    80001a88:	0067dc63          	ble	t1,a5,80001aa0 <i_1609>

0000000080001a8c <i_1604>:
    80001a8c:	01300e13          	li	t3,19

0000000080001a90 <i_1605>:
    80001a90:	01ce1e3b          	sllw	t3,t3,t3

0000000080001a94 <i_1606>:
    80001a94:	e3c12e83          	lw	t4,-452(sp)

0000000080001a98 <i_1607>:
    80001a98:	ee211e83          	lh	t4,-286(sp)

0000000080001a9c <i_1608>:
    80001a9c:	f26ef213          	andi	tp,t4,-218

0000000080001aa0 <i_1609>:
    80001aa0:	00586a63          	bltu	a6,t0,80001ab4 <i_1614>

0000000080001aa4 <i_1610>:
    80001aa4:	17c12b83          	lw	s7,380(sp)

0000000080001aa8 <i_1611>:
    80001aa8:	18411123          	sh	tp,386(sp)

0000000080001aac <i_1612>:
    80001aac:	0e012203          	lw	tp,224(sp)

0000000080001ab0 <i_1613>:
    80001ab0:	fe410ca3          	sb	tp,-7(sp)

0000000080001ab4 <i_1614>:
    80001ab4:	1959c993          	xori	s3,s3,405

0000000080001ab8 <i_1615>:
    80001ab8:	00626233          	or	tp,tp,t1

0000000080001abc <i_1616>:
    80001abc:	0040db9b          	srliw	s7,ra,0x4

0000000080001ac0 <i_1617>:
    80001ac0:	0249cbbb          	divw	s7,s3,tp

0000000080001ac4 <i_1618>:
    80001ac4:	017b8263          	beq	s7,s7,80001ac8 <i_1619>

0000000080001ac8 <i_1619>:
    80001ac8:	013209b3          	add	s3,tp,s3

0000000080001acc <i_1620>:
    80001acc:	0373fbb3          	remu	s7,t2,s7

0000000080001ad0 <i_1621>:
    80001ad0:	0c010a03          	lb	s4,192(sp)

0000000080001ad4 <i_1622>:
    80001ad4:	01720463          	beq	tp,s7,80001adc <i_1624>

0000000080001ad8 <i_1623>:
    80001ad8:	01a5ce63          	blt	a1,s10,80001af4 <i_1630>

0000000080001adc <i_1624>:
    80001adc:	01800413          	li	s0,24

0000000080001ae0 <i_1625>:
    80001ae0:	00899233          	sll	tp,s3,s0

0000000080001ae4 <i_1626>:
    80001ae4:	01c9d263          	ble	t3,s3,80001ae8 <i_1627>

0000000080001ae8 <i_1627>:
    80001ae8:	e6c12b83          	lw	s7,-404(sp)

0000000080001aec <i_1628>:
    80001aec:	04c15203          	lhu	tp,76(sp)

0000000080001af0 <i_1629>:
    80001af0:	0d013e03          	ld	t3,208(sp)

0000000080001af4 <i_1630>:
    80001af4:	f5611e03          	lh	t3,-170(sp)

0000000080001af8 <i_1631>:
    80001af8:	03c50bb3          	mul	s7,a0,t3

0000000080001afc <i_1632>:
    80001afc:	82d00a13          	li	s4,-2003

0000000080001b00 <i_1633>:
    80001b00:	83d00513          	li	a0,-1987

0000000080001b04 <i_1634>:
    80001b04:	00abe663          	bltu	s7,a0,80001b10 <i_1637>

0000000080001b08 <i_1635>:
    80001b08:	e8013b83          	ld	s7,-384(sp)

0000000080001b0c <i_1636>:
    80001b0c:	e0810e23          	sb	s0,-484(sp)

0000000080001b10 <i_1637>:
    80001b10:	017bc263          	blt	s7,s7,80001b14 <i_1638>

0000000080001b14 <i_1638>:
    80001b14:	12a10b83          	lb	s7,298(sp)

0000000080001b18 <i_1639>:
    80001b18:	10610283          	lb	t0,262(sp)

0000000080001b1c <i_1640>:
    80001b1c:	10711223          	sh	t2,260(sp)

0000000080001b20 <i_1641>:
    80001b20:	13a10803          	lb	a6,314(sp)

0000000080001b24 <i_1642>:
    80001b24:	037e6663          	bltu	t3,s7,80001b50 <i_1652>

0000000080001b28 <i_1643>:
    80001b28:	eac12283          	lw	t0,-340(sp)

0000000080001b2c <i_1644>:
    80001b2c:	001a0a13          	addi	s4,s4,1
    80001b30:	fd451ae3          	bne	a0,s4,80001b04 <i_1634>

0000000080001b34 <i_1645>:
    80001b34:	754beb93          	ori	s7,s7,1876

0000000080001b38 <i_1646>:
    80001b38:	80628393          	addi	t2,t0,-2042

0000000080001b3c <i_1647>:
    80001b3c:	1aa11283          	lh	t0,426(sp)

0000000080001b40 <i_1648>:
    80001b40:	0e512c23          	sw	t0,248(sp)

0000000080001b44 <i_1649>:
    80001b44:	0253d463          	ble	t0,t2,80001b6c <i_1659>

0000000080001b48 <i_1650>:
    80001b48:	ffb13023          	sd	s11,-32(sp)

0000000080001b4c <i_1651>:
    80001b4c:	3d1b839b          	addiw	t2,s7,977

0000000080001b50 <i_1652>:
    80001b50:	0279c0b3          	div	ra,s3,t2

0000000080001b54 <i_1653>:
    80001b54:	00400413          	li	s0,4

0000000080001b58 <i_1654>:
    80001b58:	008552bb          	srlw	t0,a0,s0

0000000080001b5c <i_1655>:
    80001b5c:	00281a1b          	slliw	s4,a6,0x2

0000000080001b60 <i_1656>:
    80001b60:	06816983          	lwu	s3,104(sp)

0000000080001b64 <i_1657>:
    80001b64:	00000013          	nop

0000000080001b68 <i_1658>:
    80001b68:	0250f3b3          	remu	t2,ra,t0

0000000080001b6c <i_1659>:
    80001b6c:	007a3433          	sltu	s0,s4,t2

0000000080001b70 <i_1660>:
    80001b70:	00491a13          	slli	s4,s2,0x4

0000000080001b74 <i_1661>:
    80001b74:	83100513          	li	a0,-1999

0000000080001b78 <i_1662>:
    80001b78:	84300d93          	li	s11,-1981

0000000080001b7c <i_1663>:
    80001b7c:	00150513          	addi	a0,a0,1
    80001b80:	ffb54ee3          	blt	a0,s11,80001b7c <i_1663>

0000000080001b84 <i_1664>:
    80001b84:	014a1a63          	bne	s4,s4,80001b98 <i_1669>

0000000080001b88 <i_1665>:
    80001b88:	01b00413          	li	s0,27

0000000080001b8c <i_1666>:
    80001b8c:	00851533          	sll	a0,a0,s0

0000000080001b90 <i_1667>:
    80001b90:	0283f263          	bleu	s0,t2,80001bb4 <i_1676>

0000000080001b94 <i_1668>:
    80001b94:	033ce463          	bltu	s9,s3,80001bbc <i_1678>

0000000080001b98 <i_1669>:
    80001b98:	0088c663          	blt	a7,s0,80001ba4 <i_1672>

0000000080001b9c <i_1670>:
    80001b9c:	0fe13023          	sd	t5,224(sp)

0000000080001ba0 <i_1671>:
    80001ba0:	0339d9bb          	divuw	s3,s3,s3

0000000080001ba4 <i_1672>:
    80001ba4:	00000013          	nop

0000000080001ba8 <i_1673>:
    80001ba8:	01d4e533          	or	a0,s1,t4

0000000080001bac <i_1674>:
    80001bac:	1dd13823          	sd	t4,464(sp)

0000000080001bb0 <i_1675>:
    80001bb0:	00000013          	nop

0000000080001bb4 <i_1676>:
    80001bb4:	00000013          	nop

0000000080001bb8 <i_1677>:
    80001bb8:	15416503          	lwu	a0,340(sp)

0000000080001bbc <i_1678>:
    80001bbc:	0d013183          	ld	gp,208(sp)

0000000080001bc0 <i_1679>:
    80001bc0:	fcc16d83          	lwu	s11,-52(sp)

0000000080001bc4 <i_1680>:
    80001bc4:	79b00493          	li	s1,1947

0000000080001bc8 <i_1681>:
    80001bc8:	7a200e93          	li	t4,1954

0000000080001bcc <i_1682>:
    80001bcc:	06812183          	lw	gp,104(sp)

0000000080001bd0 <i_1683>:
    80001bd0:	40318533          	sub	a0,gp,gp

0000000080001bd4 <i_1684>:
    80001bd4:	eac12183          	lw	gp,-340(sp)

0000000080001bd8 <i_1685>:
    80001bd8:	01b56a63          	bltu	a0,s11,80001bec <i_1689>

0000000080001bdc <i_1686>:
    80001bdc:	00148493          	addi	s1,s1,1
    80001be0:	ffd496e3          	bne	s1,t4,80001bcc <i_1682>

0000000080001be4 <i_1687>:
    80001be4:	03ad9063          	bne	s11,s10,80001c04 <i_1695>

0000000080001be8 <i_1688>:
    80001be8:	e7c15b83          	lhu	s7,-388(sp)

0000000080001bec <i_1689>:
    80001bec:	fc611e83          	lh	t4,-58(sp)

0000000080001bf0 <i_1690>:
    80001bf0:	f2d10503          	lb	a0,-211(sp)

0000000080001bf4 <i_1691>:
    80001bf4:	1d7104a3          	sb	s7,457(sp)

0000000080001bf8 <i_1692>:
    80001bf8:	ede15a03          	lhu	s4,-290(sp)

0000000080001bfc <i_1693>:
    80001bfc:	01013e83          	ld	t4,16(sp)

0000000080001c00 <i_1694>:
    80001c00:	e6412283          	lw	t0,-412(sp)

0000000080001c04 <i_1695>:
    80001c04:	01de9c63          	bne	t4,t4,80001c1c <i_1701>

0000000080001c08 <i_1696>:
    80001c08:	13d13423          	sd	t4,296(sp)

0000000080001c0c <i_1697>:
    80001c0c:	01211a03          	lh	s4,18(sp)

0000000080001c10 <i_1698>:
    80001c10:	616f45b7          	lui	a1,0x616f4

0000000080001c14 <i_1699>:
    80001c14:	4031d313          	srai	t1,gp,0x3

0000000080001c18 <i_1700>:
    80001c18:	07215383          	lhu	t2,114(sp)

0000000080001c1c <i_1701>:
    80001c1c:	1c610e23          	sb	t1,476(sp)

0000000080001c20 <i_1702>:
    80001c20:	00f00093          	li	ra,15

0000000080001c24 <i_1703>:
    80001c24:	001513bb          	sllw	t2,a0,ra

0000000080001c28 <i_1704>:
    80001c28:	140bf993          	andi	s3,s7,320

0000000080001c2c <i_1705>:
    80001c2c:	08e9f993          	andi	s3,s3,142

0000000080001c30 <i_1706>:
    80001c30:	1ac16983          	lwu	s3,428(sp)

0000000080001c34 <i_1707>:
    80001c34:	00000013          	nop

0000000080001c38 <i_1708>:
    80001c38:	7ab00a13          	li	s4,1963

0000000080001c3c <i_1709>:
    80001c3c:	7ae00b93          	li	s7,1966

0000000080001c40 <i_1710>:
    80001c40:	037bd663          	ble	s7,s7,80001c6c <i_1720>

0000000080001c44 <i_1711>:
    80001c44:	00000013          	nop

0000000080001c48 <i_1712>:
    80001c48:	460bc993          	xori	s3,s7,1120

0000000080001c4c <i_1713>:
    80001c4c:	0279f333          	remu	t1,s3,t2

0000000080001c50 <i_1714>:
    80001c50:	033319b3          	mulh	s3,t1,s3

0000000080001c54 <i_1715>:
    80001c54:	01337333          	and	t1,t1,s3

0000000080001c58 <i_1716>:
    80001c58:	013720b3          	slt	ra,a4,s3

0000000080001c5c <i_1717>:
    80001c5c:	001a0a13          	addi	s4,s4,1
    80001c60:	ff4bd0e3          	ble	s4,s7,80001c40 <i_1710>

0000000080001c64 <i_1718>:
    80001c64:	407585bb          	subw	a1,a1,t2

0000000080001c68 <i_1719>:
    80001c68:	eb313423          	sd	s3,-344(sp)

0000000080001c6c <i_1720>:
    80001c6c:	0339d5b3          	divu	a1,s3,s3

0000000080001c70 <i_1721>:
    80001c70:	e9313023          	sd	s3,-384(sp)

0000000080001c74 <i_1722>:
    80001c74:	003e1b93          	slli	s7,t3,0x3

0000000080001c78 <i_1723>:
    80001c78:	eb313023          	sd	s3,-352(sp)

0000000080001c7c <i_1724>:
    80001c7c:	01798a63          	beq	s3,s7,80001c90 <i_1729>

0000000080001c80 <i_1725>:
    80001c80:	0269e263          	bltu	s3,t1,80001ca4 <i_1734>

0000000080001c84 <i_1726>:
    80001c84:	037990b3          	mulh	ra,s3,s7

0000000080001c88 <i_1727>:
    80001c88:	b559c293          	xori	t0,s3,-1195

0000000080001c8c <i_1728>:
    80001c8c:	00900e93          	li	t4,9

0000000080001c90 <i_1729>:
    80001c90:	41d0d2bb          	sraw	t0,ra,t4

0000000080001c94 <i_1730>:
    80001c94:	01800e13          	li	t3,24

0000000080001c98 <i_1731>:
    80001c98:	01ce5e3b          	srlw	t3,t3,t3

0000000080001c9c <i_1732>:
    80001c9c:	01ce7e33          	and	t3,t3,t3

0000000080001ca0 <i_1733>:
    80001ca0:	04013283          	ld	t0,64(sp)

0000000080001ca4 <i_1734>:
    80001ca4:	38ef3397          	auipc	t2,0x38ef3

0000000080001ca8 <i_1735>:
    80001ca8:	013e6c63          	bltu	t3,s3,80001cc0 <i_1741>

0000000080001cac <i_1736>:
    80001cac:	01ce5863          	ble	t3,t3,80001cbc <i_1740>

0000000080001cb0 <i_1737>:
    80001cb0:	02500e13          	li	t3,37

0000000080001cb4 <i_1738>:
    80001cb4:	41c3de33          	sra	t3,t2,t3

0000000080001cb8 <i_1739>:
    80001cb8:	01ce5863          	ble	t3,t3,80001cc8 <i_1743>

0000000080001cbc <i_1740>:
    80001cbc:	e2711c23          	sh	t2,-456(sp)

0000000080001cc0 <i_1741>:
    80001cc0:	01ce5a63          	ble	t3,t3,80001cd4 <i_1746>

0000000080001cc4 <i_1742>:
    80001cc4:	f6415e03          	lhu	t3,-156(sp)

0000000080001cc8 <i_1743>:
    80001cc8:	17c12a23          	sw	t3,372(sp)

0000000080001ccc <i_1744>:
    80001ccc:	19c13823          	sd	t3,400(sp)

0000000080001cd0 <i_1745>:
    80001cd0:	01ce6263          	bltu	t3,t3,80001cd4 <i_1746>

0000000080001cd4 <i_1746>:
    80001cd4:	efae7a13          	andi	s4,t3,-262

0000000080001cd8 <i_1747>:
    80001cd8:	ffb10803          	lb	a6,-5(sp)

0000000080001cdc <i_1748>:
    80001cdc:	03087263          	bleu	a6,a6,80001d00 <i_1757>

0000000080001ce0 <i_1749>:
    80001ce0:	9e687813          	andi	a6,a6,-1562

0000000080001ce4 <i_1750>:
    80001ce4:	ed011723          	sh	a6,-306(sp)

0000000080001ce8 <i_1751>:
    80001ce8:	e9410923          	sb	s4,-366(sp)

0000000080001cec <i_1752>:
    80001cec:	00600813          	li	a6,6

0000000080001cf0 <i_1753>:
    80001cf0:	41025233          	sra	tp,tp,a6

0000000080001cf4 <i_1754>:
    80001cf4:	0b013023          	sd	a6,160(sp)

0000000080001cf8 <i_1755>:
    80001cf8:	104109a3          	sb	tp,275(sp)

0000000080001cfc <i_1756>:
    80001cfc:	fe013503          	ld	a0,-32(sp)

0000000080001d00 <i_1757>:
    80001d00:	03051833          	mulh	a6,a0,a6

0000000080001d04 <i_1758>:
    80001d04:	f3416503          	lwu	a0,-204(sp)

0000000080001d08 <i_1759>:
    80001d08:	eb514583          	lbu	a1,-331(sp)

0000000080001d0c <i_1760>:
    80001d0c:	010bf263          	bleu	a6,s7,80001d10 <i_1761>

0000000080001d10 <i_1761>:
    80001d10:	02b54463          	blt	a0,a1,80001d38 <i_1771>

0000000080001d14 <i_1762>:
    80001d14:	1cc11803          	lh	a6,460(sp)

0000000080001d18 <i_1763>:
    80001d18:	0edd9b97          	auipc	s7,0xedd9

0000000080001d1c <i_1764>:
    80001d1c:	f9914503          	lbu	a0,-103(sp)

0000000080001d20 <i_1765>:
    80001d20:	030800b3          	mul	ra,a6,a6

0000000080001d24 <i_1766>:
    80001d24:	00ab8a63          	beq	s7,a0,80001d38 <i_1771>

0000000080001d28 <i_1767>:
    80001d28:	00353333          	sltu	t1,a0,gp

0000000080001d2c <i_1768>:
    80001d2c:	00155463          	ble	ra,a0,80001d34 <i_1770>

0000000080001d30 <i_1769>:
    80001d30:	33d8d3b7          	lui	t2,0x33d8d

0000000080001d34 <i_1770>:
    80001d34:	03011b23          	sh	a6,54(sp)

0000000080001d38 <i_1771>:
    80001d38:	00b56a63          	bltu	a0,a1,80001d4c <i_1776>

0000000080001d3c <i_1772>:
    80001d3c:	037bc463          	blt	s7,s7,80001d64 <i_1782>

0000000080001d40 <i_1773>:
    80001d40:	d34beb93          	ori	s7,s7,-716

0000000080001d44 <i_1774>:
    80001d44:	02b00793          	li	a5,43

0000000080001d48 <i_1775>:
    80001d48:	00f39bb3          	sll	s7,t2,a5

0000000080001d4c <i_1776>:
    80001d4c:	15710523          	sb	s7,330(sp)

0000000080001d50 <i_1777>:
    80001d50:	ece14783          	lbu	a5,-306(sp)

0000000080001d54 <i_1778>:
    80001d54:	0177ce63          	blt	a5,s7,80001d70 <i_1785>

0000000080001d58 <i_1779>:
    80001d58:	00b00b93          	li	s7,11

0000000080001d5c <i_1780>:
    80001d5c:	4173d533          	sra	a0,t2,s7

0000000080001d60 <i_1781>:
    80001d60:	031bc9b3          	div	s3,s7,a7

0000000080001d64 <i_1782>:
    80001d64:	037bcbbb          	divw	s7,s7,s7

0000000080001d68 <i_1783>:
    80001d68:	0373b233          	mulhu	tp,t2,s7

0000000080001d6c <i_1784>:
    80001d6c:	561eebb7          	lui	s7,0x561ee

0000000080001d70 <i_1785>:
    80001d70:	e7711c23          	sh	s7,-392(sp)

0000000080001d74 <i_1786>:
    80001d74:	1c013503          	ld	a0,448(sp)

0000000080001d78 <i_1787>:
    80001d78:	73900993          	li	s3,1849

0000000080001d7c <i_1788>:
    80001d7c:	73e00413          	li	s0,1854

0000000080001d80 <i_1789>:
    80001d80:	bcb5c593          	xori	a1,a1,-1077

0000000080001d84 <i_1790>:
    80001d84:	17b14483          	lbu	s1,379(sp)

0000000080001d88 <i_1791>:
    80001d88:	f9815b83          	lhu	s7,-104(sp)

0000000080001d8c <i_1792>:
    80001d8c:	00000013          	nop

0000000080001d90 <i_1793>:
    80001d90:	09415583          	lhu	a1,148(sp)

0000000080001d94 <i_1794>:
    80001d94:	f9711f23          	sh	s7,-98(sp)

0000000080001d98 <i_1795>:
    80001d98:	00198993          	addi	s3,s3,1
    80001d9c:	fe89e2e3          	bltu	s3,s0,80001d80 <i_1789>

0000000080001da0 <i_1796>:
    80001da0:	fe012b83          	lw	s7,-32(sp)

0000000080001da4 <i_1797>:
    80001da4:	1d710923          	sb	s7,466(sp)

0000000080001da8 <i_1798>:
    80001da8:	03733333          	mulhu	t1,t1,s7

0000000080001dac <i_1799>:
    80001dac:	ec912a23          	sw	s1,-300(sp)

0000000080001db0 <i_1800>:
    80001db0:	0264f263          	bleu	t1,s1,80001dd4 <i_1809>

0000000080001db4 <i_1801>:
    80001db4:	fab12823          	sw	a1,-80(sp)

0000000080001db8 <i_1802>:
    80001db8:	f1713823          	sd	s7,-240(sp)

0000000080001dbc <i_1803>:
    80001dbc:	00000013          	nop

0000000080001dc0 <i_1804>:
    80001dc0:	00a00593          	li	a1,10

0000000080001dc4 <i_1805>:
    80001dc4:	40b5d5bb          	sraw	a1,a1,a1

0000000080001dc8 <i_1806>:
    80001dc8:	03412583          	lw	a1,52(sp)

0000000080001dcc <i_1807>:
    80001dcc:	00000013          	nop

0000000080001dd0 <i_1808>:
    80001dd0:	02b7cebb          	divw	t4,a5,a1

0000000080001dd4 <i_1809>:
    80001dd4:	1d012383          	lw	t2,464(sp)

0000000080001dd8 <i_1810>:
    80001dd8:	0b816503          	lwu	a0,184(sp)

0000000080001ddc <i_1811>:
    80001ddc:	89b00d93          	li	s11,-1893

0000000080001de0 <i_1812>:
    80001de0:	8ad00793          	li	a5,-1875

0000000080001de4 <i_1813>:
    80001de4:	0db10383          	lb	t2,219(sp)

0000000080001de8 <i_1814>:
    80001de8:	06b13023          	sd	a1,96(sp)

0000000080001dec <i_1815>:
    80001dec:	0a713423          	sd	t2,168(sp)

0000000080001df0 <i_1816>:
    80001df0:	00000013          	nop

0000000080001df4 <i_1817>:
    80001df4:	5b9a1837          	lui	a6,0x5b9a1

0000000080001df8 <i_1818>:
    80001df8:	0f016183          	lwu	gp,240(sp)

0000000080001dfc <i_1819>:
    80001dfc:	fa711823          	sh	t2,-80(sp)

0000000080001e00 <i_1820>:
    80001e00:	ee013383          	ld	t2,-288(sp)

0000000080001e04 <i_1821>:
    80001e04:	ecc12283          	lw	t0,-308(sp)

0000000080001e08 <i_1822>:
    80001e08:	001d8d93          	addi	s11,s11,1
    80001e0c:	fdb7dce3          	ble	s11,a5,80001de4 <i_1813>

0000000080001e10 <i_1823>:
    80001e10:	02a24e3b          	divw	t3,tp,a0

0000000080001e14 <i_1824>:
    80001e14:	0bc16503          	lwu	a0,188(sp)

0000000080001e18 <i_1825>:
    80001e18:	01100513          	li	a0,17

0000000080001e1c <i_1826>:
    80001e1c:	40aed53b          	sraw	a0,t4,a0

0000000080001e20 <i_1827>:
    80001e20:	01e00e13          	li	t3,30

0000000080001e24 <i_1828>:
    80001e24:	01ce9ebb          	sllw	t4,t4,t3

0000000080001e28 <i_1829>:
    80001e28:	41de8ebb          	subw	t4,t4,t4

0000000080001e2c <i_1830>:
    80001e2c:	e6015e83          	lhu	t4,-416(sp)

0000000080001e30 <i_1831>:
    80001e30:	4c6df813          	andi	a6,s11,1222

0000000080001e34 <i_1832>:
    80001e34:	f1013823          	sd	a6,-240(sp)

0000000080001e38 <i_1833>:
    80001e38:	40415813          	srai	a6,sp,0x4

0000000080001e3c <i_1834>:
    80001e3c:	01d62db3          	slt	s11,a2,t4

0000000080001e40 <i_1835>:
    80001e40:	01d87833          	and	a6,a6,t4

0000000080001e44 <i_1836>:
    80001e44:	02f5ea33          	rem	s4,a1,a5

0000000080001e48 <i_1837>:
    80001e48:	e1f14483          	lbu	s1,-481(sp)

0000000080001e4c <i_1838>:
    80001e4c:	f0e11b23          	sh	a4,-234(sp)

0000000080001e50 <i_1839>:
    80001e50:	fbc12803          	lw	a6,-68(sp)

0000000080001e54 <i_1840>:
    80001e54:	fb812303          	lw	t1,-72(sp)

0000000080001e58 <i_1841>:
    80001e58:	ed0101a3          	sb	a6,-317(sp)

0000000080001e5c <i_1842>:
    80001e5c:	01b36663          	bltu	t1,s11,80001e68 <i_1845>

0000000080001e60 <i_1843>:
    80001e60:	01d4ce63          	blt	s1,t4,80001e7c <i_1850>

0000000080001e64 <i_1844>:
    80001e64:	f2c14203          	lbu	tp,-212(sp)

0000000080001e68 <i_1845>:
    80001e68:	e9412223          	sw	s4,-380(sp)

0000000080001e6c <i_1846>:
    80001e6c:	10410823          	sb	tp,272(sp)

0000000080001e70 <i_1847>:
    80001e70:	0043f663          	bleu	tp,t2,80001e7c <i_1850>

0000000080001e74 <i_1848>:
    80001e74:	e4016303          	lwu	t1,-448(sp)

0000000080001e78 <i_1849>:
    80001e78:	00000013          	nop

0000000080001e7c <i_1850>:
    80001e7c:	00000013          	nop

0000000080001e80 <i_1851>:
    80001e80:	e6e15203          	lhu	tp,-402(sp)

0000000080001e84 <i_1852>:
    80001e84:	88400393          	li	t2,-1916

0000000080001e88 <i_1853>:
    80001e88:	88f00a13          	li	s4,-1905

0000000080001e8c <i_1854>:
    80001e8c:	7ba1c497          	auipc	s1,0x7ba1c

0000000080001e90 <i_1855>:
    80001e90:	e2811083          	lh	ra,-472(sp)

0000000080001e94 <i_1856>:
    80001e94:	02913823          	sd	s1,48(sp)

0000000080001e98 <i_1857>:
    80001e98:	02712a23          	sw	t2,52(sp)

0000000080001e9c <i_1858>:
    80001e9c:	001bbe33          	sltu	t3,s7,ra

0000000080001ea0 <i_1859>:
    80001ea0:	00800793          	li	a5,8

0000000080001ea4 <i_1860>:
    80001ea4:	40fe51bb          	sraw	gp,t3,a5

0000000080001ea8 <i_1861>:
    80001ea8:	00138393          	addi	t2,t2,1 # 33d8d001 <main-0x4c272fff>
    80001eac:	fe7a70e3          	bleu	t2,s4,80001e8c <i_1854>

0000000080001eb0 <i_1862>:
    80001eb0:	00679c63          	bne	a5,t1,80001ec8 <i_1868>

0000000080001eb4 <i_1863>:
    80001eb4:	ff815303          	lhu	t1,-8(sp)

0000000080001eb8 <i_1864>:
    80001eb8:	10610ba3          	sb	t1,279(sp)

0000000080001ebc <i_1865>:
    80001ebc:	e3415e03          	lhu	t3,-460(sp)

0000000080001ec0 <i_1866>:
    80001ec0:	032b8bbb          	mulw	s7,s7,s2

0000000080001ec4 <i_1867>:
    80001ec4:	f8816e03          	lwu	t3,-120(sp)

0000000080001ec8 <i_1868>:
    80001ec8:	17816303          	lwu	t1,376(sp)

0000000080001ecc <i_1869>:
    80001ecc:	00631463          	bne	t1,t1,80001ed4 <i_1871>

0000000080001ed0 <i_1870>:
    80001ed0:	e4612c23          	sw	t1,-424(sp)

0000000080001ed4 <i_1871>:
    80001ed4:	03100413          	li	s0,49

0000000080001ed8 <i_1872>:
    80001ed8:	0081de33          	srl	t3,gp,s0

0000000080001edc <i_1873>:
    80001edc:	8a200593          	li	a1,-1886

0000000080001ee0 <i_1874>:
    80001ee0:	8ab00193          	li	gp,-1877

0000000080001ee4 <i_1875>:
    80001ee4:	0c612223          	sw	t1,196(sp)

0000000080001ee8 <i_1876>:
    80001ee8:	00000013          	nop

0000000080001eec <i_1877>:
    80001eec:	0f813303          	ld	t1,248(sp)

0000000080001ef0 <i_1878>:
    80001ef0:	403f5b9b          	sraiw	s7,t5,0x3

0000000080001ef4 <i_1879>:
    80001ef4:	f2412b83          	lw	s7,-220(sp)

0000000080001ef8 <i_1880>:
    80001ef8:	03200993          	li	s3,50

0000000080001efc <i_1881>:
    80001efc:	013bdbb3          	srl	s7,s7,s3

0000000080001f00 <i_1882>:
    80001f00:	01345e63          	ble	s3,s0,80001f1c <i_1888>

0000000080001f04 <i_1883>:
    80001f04:	00158593          	addi	a1,a1,1 # 616f4001 <main-0x1e90bfff>
    80001f08:	fcb1dee3          	ble	a1,gp,80001ee4 <i_1875>

0000000080001f0c <i_1884>:
    80001f0c:	b8e9b813          	sltiu	a6,s3,-1138

0000000080001f10 <i_1885>:
    80001f10:	10514983          	lbu	s3,261(sp)

0000000080001f14 <i_1886>:
    80001f14:	f7a15583          	lhu	a1,-134(sp)

0000000080001f18 <i_1887>:
    80001f18:	00000013          	nop

0000000080001f1c <i_1888>:
    80001f1c:	00000013          	nop

0000000080001f20 <i_1889>:
    80001f20:	00000013          	nop

0000000080001f24 <i_1890>:
    80001f24:	88500793          	li	a5,-1915

0000000080001f28 <i_1891>:
    80001f28:	88d00b93          	li	s7,-1907

0000000080001f2c <i_1892>:
    80001f2c:	017bd663          	ble	s7,s7,80001f38 <i_1895>

0000000080001f30 <i_1893>:
    80001f30:	f7416203          	lwu	tp,-140(sp)

0000000080001f34 <i_1894>:
    80001f34:	14416183          	lwu	gp,324(sp)

0000000080001f38 <i_1895>:
    80001f38:	02f40663          	beq	s0,a5,80001f64 <i_1905>

0000000080001f3c <i_1896>:
    80001f3c:	07914203          	lbu	tp,121(sp)

0000000080001f40 <i_1897>:
    80001f40:	003bd993          	srli	s3,s7,0x3

0000000080001f44 <i_1898>:
    80001f44:	00178793          	addi	a5,a5,1 # 2bd7a989 <main-0x54285677>
    80001f48:	fefbd2e3          	ble	a5,s7,80001f2c <i_1892>

0000000080001f4c <i_1899>:
    80001f4c:	02012383          	lw	t2,32(sp)

0000000080001f50 <i_1900>:
    80001f50:	00000013          	nop

0000000080001f54 <i_1901>:
    80001f54:	f5c14983          	lbu	s3,-164(sp)

0000000080001f58 <i_1902>:
    80001f58:	ebb10e03          	lb	t3,-325(sp)

0000000080001f5c <i_1903>:
    80001f5c:	e9c10a23          	sb	t3,-364(sp)

0000000080001f60 <i_1904>:
    80001f60:	e4c12e03          	lw	t3,-436(sp)

0000000080001f64 <i_1905>:
    80001f64:	fd815e03          	lhu	t3,-40(sp)

0000000080001f68 <i_1906>:
    80001f68:	00000013          	nop

0000000080001f6c <i_1907>:
    80001f6c:	75100213          	li	tp,1873

0000000080001f70 <i_1908>:
    80001f70:	76500393          	li	t2,1893

0000000080001f74 <i_1909>:
    80001f74:	28de7d93          	andi	s11,t3,653

0000000080001f78 <i_1910>:
    80001f78:	00000013          	nop

0000000080001f7c <i_1911>:
    80001f7c:	7d300413          	li	s0,2003

0000000080001f80 <i_1912>:
    80001f80:	7e500093          	li	ra,2021

0000000080001f84 <i_1913>:
    80001f84:	453e7e13          	andi	t3,t3,1107

0000000080001f88 <i_1914>:
    80001f88:	00140413          	addi	s0,s0,1
    80001f8c:	fe141ce3          	bne	s0,ra,80001f84 <i_1913>

0000000080001f90 <i_1915>:
    80001f90:	404a5a1b          	sraiw	s4,s4,0x4

0000000080001f94 <i_1916>:
    80001f94:	01ce7e63          	bleu	t3,t3,80001fb0 <i_1922>

0000000080001f98 <i_1917>:
    80001f98:	00120213          	addi	tp,tp,1 # 7f06e9b9 <main-0xf91647>
    80001f9c:	fc43fce3          	bleu	tp,t2,80001f74 <i_1909>

0000000080001fa0 <i_1918>:
    80001fa0:	f8f13423          	sd	a5,-120(sp)

0000000080001fa4 <i_1919>:
    80001fa4:	ff410f23          	sb	s4,-2(sp)

0000000080001fa8 <i_1920>:
    80001fa8:	01be0e63          	beq	t3,s11,80001fc4 <i_1927>

0000000080001fac <i_1921>:
    80001fac:	034e0263          	beq	t3,s4,80001fd0 <i_1930>

0000000080001fb0 <i_1922>:
    80001fb0:	17110403          	lb	s0,369(sp)

0000000080001fb4 <i_1923>:
    80001fb4:	fc615583          	lhu	a1,-58(sp)

0000000080001fb8 <i_1924>:
    80001fb8:	00b47663          	bleu	a1,s0,80001fc4 <i_1927>

0000000080001fbc <i_1925>:
    80001fbc:	01013783          	ld	a5,16(sp)

0000000080001fc0 <i_1926>:
    80001fc0:	fa215183          	lhu	gp,-94(sp)

0000000080001fc4 <i_1927>:
    80001fc4:	00426233          	or	tp,tp,tp

0000000080001fc8 <i_1928>:
    80001fc8:	403a559b          	sraiw	a1,s4,0x3

0000000080001fcc <i_1929>:
    80001fcc:	01a14203          	lbu	tp,26(sp)

0000000080001fd0 <i_1930>:
    80001fd0:	41d20e3b          	subw	t3,tp,t4

0000000080001fd4 <i_1931>:
    80001fd4:	01ce1a63          	bne	t3,t3,80001fe8 <i_1936>

0000000080001fd8 <i_1932>:
    80001fd8:	02b883bb          	mulw	t2,a7,a1

0000000080001fdc <i_1933>:
    80001fdc:	00300793          	li	a5,3

0000000080001fe0 <i_1934>:
    80001fe0:	00fe1e33          	sll	t3,t3,a5

0000000080001fe4 <i_1935>:
    80001fe4:	18412e03          	lw	t3,388(sp)

0000000080001fe8 <i_1936>:
    80001fe8:	0073ee63          	bltu	t2,t2,80002004 <i_1943>

0000000080001fec <i_1937>:
    80001fec:	e4c12483          	lw	s1,-436(sp)

0000000080001ff0 <i_1938>:
    80001ff0:	00f48533          	add	a0,s1,a5

0000000080001ff4 <i_1939>:
    80001ff4:	00e00813          	li	a6,14

0000000080001ff8 <i_1940>:
    80001ff8:	010e1a3b          	sllw	s4,t3,a6

0000000080001ffc <i_1941>:
    80001ffc:	15710203          	lb	tp,343(sp)

0000000080002000 <i_1942>:
    80002000:	add57393          	andi	t2,a0,-1315

0000000080002004 <i_1943>:
    80002004:	02785463          	ble	t2,a6,8000202c <i_1953>

0000000080002008 <i_1944>:
    80002008:	1a711b23          	sh	t2,438(sp)

000000008000200c <i_1945>:
    8000200c:	e5c12423          	sw	t3,-440(sp)

0000000080002010 <i_1946>:
    80002010:	02416083          	lwu	ra,36(sp)

0000000080002014 <i_1947>:
    80002014:	fac11b83          	lh	s7,-84(sp)

0000000080002018 <i_1948>:
    80002018:	02977533          	remu	a0,a4,s1

000000008000201c <i_1949>:
    8000201c:	00a56c63          	bltu	a0,a0,80002034 <i_1955>

0000000080002020 <i_1950>:
    80002020:	0375023b          	mulw	tp,a0,s7

0000000080002024 <i_1951>:
    80002024:	017a4bb3          	xor	s7,s4,s7

0000000080002028 <i_1952>:
    80002028:	0243f533          	remu	a0,t2,tp

000000008000202c <i_1953>:
    8000202c:	1dc13023          	sd	t3,448(sp)

0000000080002030 <i_1954>:
    80002030:	0370d063          	ble	s7,ra,80002050 <i_1962>

0000000080002034 <i_1955>:
    80002034:	00430a63          	beq	t1,tp,80002048 <i_1960>

0000000080002038 <i_1956>:
    80002038:	02bb8833          	mul	a6,s7,a1

000000008000203c <i_1957>:
    8000203c:	f0a10da3          	sb	a0,-229(sp)

0000000080002040 <i_1958>:
    80002040:	17813403          	ld	s0,376(sp)

0000000080002044 <i_1959>:
    80002044:	021270bb          	remuw	ra,tp,ra

0000000080002048 <i_1960>:
    80002048:	14412e03          	lw	t3,324(sp)

000000008000204c <i_1961>:
    8000204c:	007080b3          	add	ra,ra,t2

0000000080002050 <i_1962>:
    80002050:	eca10183          	lb	gp,-310(sp)

0000000080002054 <i_1963>:
    80002054:	12012483          	lw	s1,288(sp)

0000000080002058 <i_1964>:
    80002058:	0e913c23          	sd	s1,248(sp)

000000008000205c <i_1965>:
    8000205c:	40708eb3          	sub	t4,ra,t2

0000000080002060 <i_1966>:
    80002060:	03dfee3b          	remw	t3,t6,t4

0000000080002064 <i_1967>:
    80002064:	002e1263          	bne	t3,sp,80002068 <i_1968>

0000000080002068 <i_1968>:
    80002068:	029ec4bb          	divw	s1,t4,s1

000000008000206c <i_1969>:
    8000206c:	eca11e03          	lh	t3,-310(sp)

0000000080002070 <i_1970>:
    80002070:	f9d13023          	sd	t4,-128(sp)

0000000080002074 <i_1971>:
    80002074:	f6c16783          	lwu	a5,-148(sp)

0000000080002078 <i_1972>:
    80002078:	01ce4463          	blt	t3,t3,80002080 <i_1974>

000000008000207c <i_1973>:
    8000207c:	0384f533          	remu	a0,s1,s8

0000000080002080 <i_1974>:
    80002080:	14913c23          	sd	s1,344(sp)

0000000080002084 <i_1975>:
    80002084:	e3a11503          	lh	a0,-454(sp)

0000000080002088 <i_1976>:
    80002088:	02aee063          	bltu	t4,a0,800020a8 <i_1984>

000000008000208c <i_1977>:
    8000208c:	01300513          	li	a0,19

0000000080002090 <i_1978>:
    80002090:	00ae5a33          	srl	s4,t3,a0

0000000080002094 <i_1979>:
    80002094:	0b013e03          	ld	t3,176(sp)

0000000080002098 <i_1980>:
    80002098:	05014503          	lbu	a0,80(sp)

000000008000209c <i_1981>:
    8000209c:	12a13823          	sd	a0,304(sp)

00000000800020a0 <i_1982>:
    800020a0:	0036da1b          	srliw	s4,a3,0x3

00000000800020a4 <i_1983>:
    800020a4:	c6c54a13          	xori	s4,a0,-916

00000000800020a8 <i_1984>:
    800020a8:	4065053b          	subw	a0,a0,t1

00000000800020ac <i_1985>:
    800020ac:	004d579b          	srliw	a5,s10,0x4

00000000800020b0 <i_1986>:
    800020b0:	0267e333          	rem	t1,a5,t1

00000000800020b4 <i_1987>:
    800020b4:	03251533          	mulh	a0,a0,s2

00000000800020b8 <i_1988>:
    800020b8:	02636263          	bltu	t1,t1,800020dc <i_1997>

00000000800020bc <i_1989>:
    800020bc:	0017d313          	srli	t1,a5,0x1

00000000800020c0 <i_1990>:
    800020c0:	0ec16303          	lwu	t1,236(sp)

00000000800020c4 <i_1991>:
    800020c4:	fa412e03          	lw	t3,-92(sp)

00000000800020c8 <i_1992>:
    800020c8:	1df10b83          	lb	s7,479(sp)

00000000800020cc <i_1993>:
    800020cc:	fc710303          	lb	t1,-57(sp)

00000000800020d0 <i_1994>:
    800020d0:	ff614b83          	lbu	s7,-10(sp)

00000000800020d4 <i_1995>:
    800020d4:	01046c63          	bltu	s0,a6,800020ec <i_2001>

00000000800020d8 <i_1996>:
    800020d8:	00000013          	nop

00000000800020dc <i_1997>:
    800020dc:	00000013          	nop

00000000800020e0 <i_1998>:
    800020e0:	00000013          	nop

00000000800020e4 <i_1999>:
    800020e4:	0f416d83          	lwu	s11,244(sp)

00000000800020e8 <i_2000>:
    800020e8:	f4b14783          	lbu	a5,-181(sp)

00000000800020ec <i_2001>:
    800020ec:	5042a093          	slti	ra,t0,1284

00000000800020f0 <i_2002>:
    800020f0:	f1811283          	lh	t0,-232(sp)

00000000800020f4 <i_2003>:
    800020f4:	86300a13          	li	s4,-1949

00000000800020f8 <i_2004>:
    800020f8:	87000b93          	li	s7,-1936

00000000800020fc <i_2005>:
    800020fc:	00179e63          	bne	a5,ra,80002118 <i_2012>

0000000080002100 <i_2006>:
    80002100:	0252c83b          	divw	a6,t0,t0

0000000080002104 <i_2007>:
    80002104:	18813d83          	ld	s11,392(sp)

0000000080002108 <i_2008>:
    80002108:	00000013          	nop

000000008000210c <i_2009>:
    8000210c:	003781b3          	add	gp,a5,gp

0000000080002110 <i_2010>:
    80002110:	f6013803          	ld	a6,-160(sp)

0000000080002114 <i_2011>:
    80002114:	40f781b3          	sub	gp,a5,a5

0000000080002118 <i_2012>:
    80002118:	1c015803          	lhu	a6,448(sp)

000000008000211c <i_2013>:
    8000211c:	02f79063          	bne	a5,a5,8000213c <i_2020>

0000000080002120 <i_2014>:
    80002120:	001a0a13          	addi	s4,s4,1
    80002124:	fd4bdce3          	ble	s4,s7,800020fc <i_2005>

0000000080002128 <i_2015>:
    80002128:	ea813783          	ld	a5,-344(sp)

000000008000212c <i_2016>:
    8000212c:	f6c12783          	lw	a5,-148(sp)

0000000080002130 <i_2017>:
    80002130:	04412203          	lw	tp,68(sp)

0000000080002134 <i_2018>:
    80002134:	01017c63          	bleu	a6,sp,8000214c <i_2024>

0000000080002138 <i_2019>:
    80002138:	06013983          	ld	s3,96(sp)

000000008000213c <i_2020>:
    8000213c:	1e014783          	lbu	a5,480(sp)

0000000080002140 <i_2021>:
    80002140:	ec416203          	lwu	tp,-316(sp)

0000000080002144 <i_2022>:
    80002144:	15012a23          	sw	a6,340(sp)

0000000080002148 <i_2023>:
    80002148:	0047ee63          	bltu	a5,tp,80002164 <i_2030>

000000008000214c <i_2024>:
    8000214c:	036871bb          	remuw	gp,a6,s6

0000000080002150 <i_2025>:
    80002150:	ffa15183          	lhu	gp,-6(sp)

0000000080002154 <i_2026>:
    80002154:	f4c10303          	lb	t1,-180(sp)

0000000080002158 <i_2027>:
    80002158:	0013119b          	slliw	gp,t1,0x1

000000008000215c <i_2028>:
    8000215c:	ee311a23          	sh	gp,-268(sp)

0000000080002160 <i_2029>:
    80002160:	40630333          	sub	t1,t1,t1

0000000080002164 <i_2030>:
    80002164:	00335313          	srli	t1,t1,0x3

0000000080002168 <i_2031>:
    80002168:	f2313823          	sd	gp,-208(sp)

000000008000216c <i_2032>:
    8000216c:	0339a9b3          	mulhsu	s3,s3,s3

0000000080002170 <i_2033>:
    80002170:	14813303          	ld	t1,328(sp)

0000000080002174 <i_2034>:
    80002174:	03000493          	li	s1,48

0000000080002178 <i_2035>:
    80002178:	40935333          	sra	t1,t1,s1

000000008000217c <i_2036>:
    8000217c:	02699463          	bne	s3,t1,800021a4 <i_2046>

0000000080002180 <i_2037>:
    80002180:	0139ca63          	blt	s3,s3,80002194 <i_2042>

0000000080002184 <i_2038>:
    80002184:	11a14303          	lbu	t1,282(sp)

0000000080002188 <i_2039>:
    80002188:	00631a63          	bne	t1,t1,8000219c <i_2044>

000000008000218c <i_2040>:
    8000218c:	290e6e13          	ori	t3,t3,656

0000000080002190 <i_2041>:
    80002190:	1aa11303          	lh	t1,426(sp)

0000000080002194 <i_2042>:
    80002194:	fc110283          	lb	t0,-63(sp)

0000000080002198 <i_2043>:
    80002198:	0b412303          	lw	t1,180(sp)

000000008000219c <i_2044>:
    8000219c:	81a33313          	sltiu	t1,t1,-2022

00000000800021a0 <i_2045>:
    800021a0:	0068ae33          	slt	t3,a7,t1

00000000800021a4 <i_2046>:
    800021a4:	15c11303          	lh	t1,348(sp)

00000000800021a8 <i_2047>:
    800021a8:	025e0263          	beq	t3,t0,800021cc <i_2056>

00000000800021ac <i_2048>:
    800021ac:	0014541b          	srliw	s0,s0,0x1

00000000800021b0 <i_2049>:
    800021b0:	01c48263          	beq	s1,t3,800021b4 <i_2050>

00000000800021b4 <i_2050>:
    800021b4:	01016e83          	lwu	t4,16(sp)

00000000800021b8 <i_2051>:
    800021b8:	0333633b          	remw	t1,t1,s3

00000000800021bc <i_2052>:
    800021bc:	02531eb3          	mulh	t4,t1,t0

00000000800021c0 <i_2053>:
    800021c0:	004e931b          	slliw	t1,t4,0x4

00000000800021c4 <i_2054>:
    800021c4:	00531463          	bne	t1,t0,800021cc <i_2056>

00000000800021c8 <i_2055>:
    800021c8:	ed110503          	lb	a0,-303(sp)

00000000800021cc <i_2056>:
    800021cc:	240a6a13          	ori	s4,s4,576

00000000800021d0 <i_2057>:
    800021d0:	009ff9b3          	and	s3,t6,s1

00000000800021d4 <i_2058>:
    800021d4:	015a7463          	bleu	s5,s4,800021dc <i_2060>

00000000800021d8 <i_2059>:
    800021d8:	f4c16a03          	lwu	s4,-180(sp)

00000000800021dc <i_2060>:
    800021dc:	01800a13          	li	s4,24

00000000800021e0 <i_2061>:
    800021e0:	014d9533          	sll	a0,s11,s4

00000000800021e4 <i_2062>:
    800021e4:	f5413823          	sd	s4,-176(sp)

00000000800021e8 <i_2063>:
    800021e8:	19412023          	sw	s4,384(sp)

00000000800021ec <i_2064>:
    800021ec:	eea14183          	lbu	gp,-278(sp)

00000000800021f0 <i_2065>:
    800021f0:	034a0533          	mul	a0,s4,s4

00000000800021f4 <i_2066>:
    800021f4:	00000013          	nop

00000000800021f8 <i_2067>:
    800021f8:	81100a13          	li	s4,-2031

00000000800021fc <i_2068>:
    800021fc:	81800493          	li	s1,-2024

0000000080002200 <i_2069>:
    80002200:	014a0233          	add	tp,s4,s4

0000000080002204 <i_2070>:
    80002204:	029b2eb3          	mulhsu	t4,s6,s1

0000000080002208 <i_2071>:
    80002208:	f86107a3          	sb	t1,-113(sp)

000000008000220c <i_2072>:
    8000220c:	0261e333          	rem	t1,gp,t1

0000000080002210 <i_2073>:
    80002210:	003a7c63          	bleu	gp,s4,80002228 <i_2078>

0000000080002214 <i_2074>:
    80002214:	001a0a13          	addi	s4,s4,1
    80002218:	ff44f4e3          	bleu	s4,s1,80002200 <i_2069>

000000008000221c <i_2075>:
    8000221c:	06416183          	lwu	gp,100(sp)

0000000080002220 <i_2076>:
    80002220:	fb810e23          	sb	s8,-68(sp)

0000000080002224 <i_2077>:
    80002224:	fe416183          	lwu	gp,-28(sp)

0000000080002228 <i_2078>:
    80002228:	0c313823          	sd	gp,208(sp)

000000008000222c <i_2079>:
    8000222c:	03819063          	bne	gp,s8,8000224c <i_2087>

0000000080002230 <i_2080>:
    80002230:	01634e63          	blt	t1,s6,8000224c <i_2087>

0000000080002234 <i_2081>:
    80002234:	03d14303          	lbu	t1,61(sp)

0000000080002238 <i_2082>:
    80002238:	e2114303          	lbu	t1,-479(sp)

000000008000223c <i_2083>:
    8000223c:	f2810d83          	lb	s11,-216(sp)

0000000080002240 <i_2084>:
    80002240:	10c14183          	lbu	gp,268(sp)

0000000080002244 <i_2085>:
    80002244:	e173c393          	xori	t2,t2,-489

0000000080002248 <i_2086>:
    80002248:	b4d3f313          	andi	t1,t2,-1203

000000008000224c <i_2087>:
    8000224c:	f9711723          	sh	s7,-114(sp)

0000000080002250 <i_2088>:
    80002250:	05610383          	lb	t2,86(sp)

0000000080002254 <i_2089>:
    80002254:	f4c16b83          	lwu	s7,-180(sp)

0000000080002258 <i_2090>:
    80002258:	8aabfb93          	andi	s7,s7,-1878

000000008000225c <i_2091>:
    8000225c:	79d00993          	li	s3,1949

0000000080002260 <i_2092>:
    80002260:	7b100513          	li	a0,1969

0000000080002264 <i_2093>:
    80002264:	00000013          	nop

0000000080002268 <i_2094>:
    80002268:	03900b93          	li	s7,57

000000008000226c <i_2095>:
    8000226c:	017bdbb3          	srl	s7,s7,s7

0000000080002270 <i_2096>:
    80002270:	86300593          	li	a1,-1949

0000000080002274 <i_2097>:
    80002274:	86c00393          	li	t2,-1940

0000000080002278 <i_2098>:
    80002278:	00158593          	addi	a1,a1,1
    8000227c:	fe75cce3          	blt	a1,t2,80002274 <i_2097>

0000000080002280 <i_2099>:
    80002280:	10813203          	ld	tp,264(sp)

0000000080002284 <i_2100>:
    80002284:	08120b93          	addi	s7,tp,129 # 81 <main-0x7fffff7f>

0000000080002288 <i_2101>:
    80002288:	00198993          	addi	s3,s3,1
    8000228c:	fd357ce3          	bleu	s3,a0,80002264 <i_2093>

0000000080002290 <i_2102>:
    80002290:	f7711523          	sh	s7,-150(sp)

0000000080002294 <i_2103>:
    80002294:	017a7c63          	bleu	s7,s4,800022ac <i_2109>

0000000080002298 <i_2104>:
    80002298:	e3711b23          	sh	s7,-458(sp)

000000008000229c <i_2105>:
    8000229c:	003b9a1b          	slliw	s4,s7,0x3

00000000800022a0 <i_2106>:
    800022a0:	004b9d93          	slli	s11,s7,0x4

00000000800022a4 <i_2107>:
    800022a4:	fac16583          	lwu	a1,-84(sp)

00000000800022a8 <i_2108>:
    800022a8:	08012503          	lw	a0,128(sp)

00000000800022ac <i_2109>:
    800022ac:	19810923          	sb	s8,402(sp)

00000000800022b0 <i_2110>:
    800022b0:	05e15b83          	lhu	s7,94(sp)

00000000800022b4 <i_2111>:
    800022b4:	04e11e83          	lh	t4,78(sp)

00000000800022b8 <i_2112>:
    800022b8:	0b710a23          	sb	s7,180(sp)

00000000800022bc <i_2113>:
    800022bc:	014a8e63          	beq	s5,s4,800022d8 <i_2120>

00000000800022c0 <i_2114>:
    800022c0:	01800a13          	li	s4,24

00000000800022c4 <i_2115>:
    800022c4:	014edbbb          	srlw	s7,t4,s4

00000000800022c8 <i_2116>:
    800022c8:	00ae5463          	ble	a0,t3,800022d0 <i_2118>

00000000800022cc <i_2117>:
    800022cc:	034e6e33          	rem	t3,t3,s4

00000000800022d0 <i_2118>:
    800022d0:	14a109a3          	sb	a0,339(sp)

00000000800022d4 <i_2119>:
    800022d4:	15615b83          	lhu	s7,342(sp)

00000000800022d8 <i_2120>:
    800022d8:	01ce8863          	beq	t4,t3,800022e8 <i_2124>

00000000800022dc <i_2121>:
    800022dc:	034cfeb3          	remu	t4,s9,s4

00000000800022e0 <i_2122>:
    800022e0:	002e1b9b          	slliw	s7,t3,0x2

00000000800022e4 <i_2123>:
    800022e4:	e3016b83          	lwu	s7,-464(sp)

00000000800022e8 <i_2124>:
    800022e8:	034ed063          	ble	s4,t4,80002308 <i_2132>

00000000800022ec <i_2125>:
    800022ec:	02813503          	ld	a0,40(sp)

00000000800022f0 <i_2126>:
    800022f0:	01257463          	bleu	s2,a0,800022f8 <i_2128>

00000000800022f4 <i_2127>:
    800022f4:	09a12e23          	sw	s10,156(sp)

00000000800022f8 <i_2128>:
    800022f8:	00aec663          	blt	t4,a0,80002304 <i_2131>

00000000800022fc <i_2129>:
    800022fc:	017a6c63          	bltu	s4,s7,80002314 <i_2135>

0000000080002300 <i_2130>:
    80002300:	fdc15a03          	lhu	s4,-36(sp)

0000000080002304 <i_2131>:
    80002304:	005a4a33          	xor	s4,s4,t0

0000000080002308 <i_2132>:
    80002308:	06511f23          	sh	t0,126(sp)

000000008000230c <i_2133>:
    8000230c:	00ab0c63          	beq	s6,a0,80002324 <i_2139>

0000000080002310 <i_2134>:
    80002310:	f5816183          	lwu	gp,-168(sp)

0000000080002314 <i_2135>:
    80002314:	00a1cdb3          	xor	s11,gp,a0

0000000080002318 <i_2136>:
    80002318:	01500193          	li	gp,21

000000008000231c <i_2137>:
    8000231c:	40355a33          	sra	s4,a0,gp

0000000080002320 <i_2138>:
    80002320:	1db12a23          	sw	s11,468(sp)

0000000080002324 <i_2139>:
    80002324:	00318e33          	add	t3,gp,gp

0000000080002328 <i_2140>:
    80002328:	0bb11223          	sh	s11,164(sp)

000000008000232c <i_2141>:
    8000232c:	00f187b3          	add	a5,gp,a5

0000000080002330 <i_2142>:
    80002330:	01900d93          	li	s11,25

0000000080002334 <i_2143>:
    80002334:	01bd9dbb          	sllw	s11,s11,s11

0000000080002338 <i_2144>:
    80002338:	01b78663          	beq	a5,s11,80002344 <i_2147>

000000008000233c <i_2145>:
    8000233c:	02f2a7b3          	mulhsu	a5,t0,a5

0000000080002340 <i_2146>:
    80002340:	08f13823          	sd	a5,144(sp)

0000000080002344 <i_2147>:
    80002344:	47786db7          	lui	s11,0x47786

0000000080002348 <i_2148>:
    80002348:	f6f10d23          	sb	a5,-134(sp)

000000008000234c <i_2149>:
    8000234c:	00fb7863          	bleu	a5,s6,8000235c <i_2153>

0000000080002350 <i_2150>:
    80002350:	15c16403          	lwu	s0,348(sp)

0000000080002354 <i_2151>:
    80002354:	1c312c23          	sw	gp,472(sp)

0000000080002358 <i_2152>:
    80002358:	fb914d83          	lbu	s11,-71(sp)

000000008000235c <i_2153>:
    8000235c:	0e415503          	lhu	a0,228(sp)

0000000080002360 <i_2154>:
    80002360:	1f5b9437          	lui	s0,0x1f5b9

0000000080002364 <i_2155>:
    80002364:	f5412283          	lw	t0,-172(sp)

0000000080002368 <i_2156>:
    80002368:	0254f4bb          	remuw	s1,s1,t0

000000008000236c <i_2157>:
    8000236c:	402ddd9b          	sraiw	s11,s11,0x2

0000000080002370 <i_2158>:
    80002370:	02a7d063          	ble	a0,a5,80002390 <i_2166>

0000000080002374 <i_2159>:
    80002374:	f7812783          	lw	a5,-136(sp)

0000000080002378 <i_2160>:
    80002378:	02fec7bb          	divw	a5,t4,a5

000000008000237c <i_2161>:
    8000237c:	1af11d23          	sh	a5,442(sp)

0000000080002380 <i_2162>:
    80002380:	0255523b          	divuw	tp,a0,t0

0000000080002384 <i_2163>:
    80002384:	00a00993          	li	s3,10

0000000080002388 <i_2164>:
    80002388:	0131123b          	sllw	tp,sp,s3

000000008000238c <i_2165>:
    8000238c:	00f27c63          	bleu	a5,tp,800023a4 <i_2171>

0000000080002390 <i_2166>:
    80002390:	15816283          	lwu	t0,344(sp)

0000000080002394 <i_2167>:
    80002394:	00013583          	ld	a1,0(sp)

0000000080002398 <i_2168>:
    80002398:	e8d14783          	lbu	a5,-371(sp)

000000008000239c <i_2169>:
    8000239c:	02f5e7bb          	remw	a5,a1,a5

00000000800023a0 <i_2170>:
    800023a0:	4037d21b          	sraiw	tp,a5,0x3

00000000800023a4 <i_2171>:
    800023a4:	8807e793          	ori	a5,a5,-1920

00000000800023a8 <i_2172>:
    800023a8:	00500793          	li	a5,5

00000000800023ac <i_2173>:
    800023ac:	40f7d7bb          	sraw	a5,a5,a5

00000000800023b0 <i_2174>:
    800023b0:	4037d79b          	sraiw	a5,a5,0x3

00000000800023b4 <i_2175>:
    800023b4:	01400793          	li	a5,20

00000000800023b8 <i_2176>:
    800023b8:	40f757b3          	sra	a5,a4,a5

00000000800023bc <i_2177>:
    800023bc:	01300793          	li	a5,19

00000000800023c0 <i_2178>:
    800023c0:	40f7d53b          	sraw	a0,a5,a5

00000000800023c4 <i_2179>:
    800023c4:	1d611503          	lh	a0,470(sp)

00000000800023c8 <i_2180>:
    800023c8:	1e015583          	lhu	a1,480(sp)

00000000800023cc <i_2181>:
    800023cc:	0167ce63          	blt	a5,s6,800023e8 <i_2188>

00000000800023d0 <i_2182>:
    800023d0:	2937c513          	xori	a0,a5,659

00000000800023d4 <i_2183>:
    800023d4:	18412c23          	sw	tp,408(sp)

00000000800023d8 <i_2184>:
    800023d8:	02b7f9bb          	remuw	s3,a5,a1

00000000800023dc <i_2185>:
    800023dc:	5487b213          	sltiu	tp,a5,1352

00000000800023e0 <i_2186>:
    800023e0:	eeb14783          	lbu	a5,-277(sp)

00000000800023e4 <i_2187>:
    800023e4:	025252bb          	divuw	t0,tp,t0

00000000800023e8 <i_2188>:
    800023e8:	033cd2b3          	divu	t0,s9,s3

00000000800023ec <i_2189>:
    800023ec:	01a00293          	li	t0,26

00000000800023f0 <i_2190>:
    800023f0:	0059d1bb          	srlw	gp,s3,t0

00000000800023f4 <i_2191>:
    800023f4:	f1f14303          	lbu	t1,-225(sp)

00000000800023f8 <i_2192>:
    800023f8:	0069de63          	ble	t1,s3,80002414 <i_2199>

00000000800023fc <i_2193>:
    800023fc:	14511f23          	sh	t0,350(sp)

0000000080002400 <i_2194>:
    80002400:	02408233          	mul	tp,ra,tp

0000000080002404 <i_2195>:
    80002404:	00b00b93          	li	s7,11

0000000080002408 <i_2196>:
    80002408:	0179943b          	sllw	s0,s3,s7

000000008000240c <i_2197>:
    8000240c:	0192e263          	bltu	t0,s9,80002410 <i_2198>

0000000080002410 <i_2198>:
    80002410:	00541263          	bne	s0,t0,80002414 <i_2199>

0000000080002414 <i_2199>:
    80002414:	e2811423          	sh	s0,-472(sp)

0000000080002418 <i_2200>:
    80002418:	41398333          	sub	t1,s3,s3

000000008000241c <i_2201>:
    8000241c:	02424263          	blt	tp,tp,80002440 <i_2210>

0000000080002420 <i_2202>:
    80002420:	1c813983          	ld	s3,456(sp)

0000000080002424 <i_2203>:
    80002424:	025b8bbb          	mulw	s7,s7,t0

0000000080002428 <i_2204>:
    80002428:	026371b3          	remu	gp,t1,t1

000000008000242c <i_2205>:
    8000242c:	00c00793          	li	a5,12

0000000080002430 <i_2206>:
    80002430:	00f21db3          	sll	s11,tp,a5

0000000080002434 <i_2207>:
    80002434:	0c710283          	lb	t0,199(sp)

0000000080002438 <i_2208>:
    80002438:	f2c10983          	lb	s3,-212(sp)

000000008000243c <i_2209>:
    8000243c:	0d711423          	sh	s7,200(sp)

0000000080002440 <i_2210>:
    80002440:	03313c23          	sd	s3,56(sp)

0000000080002444 <i_2211>:
    80002444:	05710923          	sb	s7,82(sp)

0000000080002448 <i_2212>:
    80002448:	02211403          	lh	s0,34(sp)

000000008000244c <i_2213>:
    8000244c:	07e104a3          	sb	t5,105(sp)

0000000080002450 <i_2214>:
    80002450:	f9011b83          	lh	s7,-112(sp)

0000000080002454 <i_2215>:
    80002454:	00000013          	nop

0000000080002458 <i_2216>:
    80002458:	78500193          	li	gp,1925

000000008000245c <i_2217>:
    8000245c:	79600993          	li	s3,1942

0000000080002460 <i_2218>:
    80002460:	0f414b83          	lbu	s7,244(sp)

0000000080002464 <i_2219>:
    80002464:	4041db93          	srai	s7,gp,0x4

0000000080002468 <i_2220>:
    80002468:	82000e13          	li	t3,-2016

000000008000246c <i_2221>:
    8000246c:	83000393          	li	t2,-2000

0000000080002470 <i_2222>:
    80002470:	e4615b83          	lhu	s7,-442(sp)

0000000080002474 <i_2223>:
    80002474:	001e0e13          	addi	t3,t3,1 # ffffffffa0125001 <_end+0xffffffff20114bed>
    80002478:	ffc3dce3          	ble	t3,t2,80002470 <i_2222>

000000008000247c <i_2224>:
    8000247c:	02b00293          	li	t0,43

0000000080002480 <i_2225>:
    80002480:	405e5533          	sra	a0,t3,t0

0000000080002484 <i_2226>:
    80002484:	11710d23          	sb	s7,282(sp)

0000000080002488 <i_2227>:
    80002488:	0139e463          	bltu	s3,s3,80002490 <i_2229>

000000008000248c <i_2228>:
    8000248c:	e5815383          	lhu	t2,-424(sp)

0000000080002490 <i_2229>:
    80002490:	00c00393          	li	t2,12

0000000080002494 <i_2230>:
    80002494:	407bda3b          	sraw	s4,s7,t2

0000000080002498 <i_2231>:
    80002498:	00118193          	addi	gp,gp,1
    8000249c:	fc39d2e3          	ble	gp,s3,80002460 <i_2218>

00000000800024a0 <i_2232>:
    800024a0:	014a7533          	and	a0,s4,s4

00000000800024a4 <i_2233>:
    800024a4:	00000013          	nop

00000000800024a8 <i_2234>:
    800024a8:	80300593          	li	a1,-2045

00000000800024ac <i_2235>:
    800024ac:	80f00793          	li	a5,-2033

00000000800024b0 <i_2236>:
    800024b0:	e7812503          	lw	a0,-392(sp)

00000000800024b4 <i_2237>:
    800024b4:	17016b83          	lwu	s7,368(sp)

00000000800024b8 <i_2238>:
    800024b8:	05914483          	lbu	s1,89(sp)

00000000800024bc <i_2239>:
    800024bc:	00158593          	addi	a1,a1,1
    800024c0:	feb7d8e3          	ble	a1,a5,800024b0 <i_2236>

00000000800024c4 <i_2240>:
    800024c4:	02a57433          	remu	s0,a0,a0

00000000800024c8 <i_2241>:
    800024c8:	00950533          	add	a0,a0,s1

00000000800024cc <i_2242>:
    800024cc:	f7a11503          	lh	a0,-134(sp)

00000000800024d0 <i_2243>:
    800024d0:	a004019b          	addiw	gp,s0,-1536

00000000800024d4 <i_2244>:
    800024d4:	08c16403          	lwu	s0,140(sp)

00000000800024d8 <i_2245>:
    800024d8:	40ae8ebb          	subw	t4,t4,a0

00000000800024dc <i_2246>:
    800024dc:	e2810f23          	sb	s0,-450(sp)

00000000800024e0 <i_2247>:
    800024e0:	00000013          	nop

00000000800024e4 <i_2248>:
    800024e4:	83c00e13          	li	t3,-1988

00000000800024e8 <i_2249>:
    800024e8:	83e00e93          	li	t4,-1986

00000000800024ec <i_2250>:
    800024ec:	0dc13c23          	sd	t3,216(sp)

00000000800024f0 <i_2251>:
    800024f0:	faa11803          	lh	a6,-86(sp)

00000000800024f4 <i_2252>:
    800024f4:	15813803          	ld	a6,344(sp)

00000000800024f8 <i_2253>:
    800024f8:	01ce8863          	beq	t4,t3,80002508 <i_2257>

00000000800024fc <i_2254>:
    800024fc:	f5c107a3          	sb	t3,-177(sp)

0000000080002500 <i_2255>:
    80002500:	00000013          	nop

0000000080002504 <i_2256>:
    80002504:	fde11283          	lh	t0,-34(sp)

0000000080002508 <i_2257>:
    80002508:	00000013          	nop

000000008000250c <i_2258>:
    8000250c:	0dc10da3          	sb	t3,219(sp)

0000000080002510 <i_2259>:
    80002510:	07b10283          	lb	t0,123(sp)

0000000080002514 <i_2260>:
    80002514:	bb62a293          	slti	t0,t0,-1098

0000000080002518 <i_2261>:
    80002518:	04513c23          	sd	t0,88(sp)

000000008000251c <i_2262>:
    8000251c:	001e0e13          	addi	t3,t3,1
    80002520:	fdced6e3          	ble	t3,t4,800024ec <i_2250>

0000000080002524 <i_2263>:
    80002524:	0252d263          	ble	t0,t0,80002548 <i_2272>

0000000080002528 <i_2264>:
    80002528:	0302d33b          	divuw	t1,t0,a6

000000008000252c <i_2265>:
    8000252c:	15c16e83          	lwu	t4,348(sp)

0000000080002530 <i_2266>:
    80002530:	01c00293          	li	t0,28

0000000080002534 <i_2267>:
    80002534:	0052d2bb          	srlw	t0,t0,t0

0000000080002538 <i_2268>:
    80002538:	0c613023          	sd	t1,192(sp)

000000008000253c <i_2269>:
    8000253c:	f6412e03          	lw	t3,-156(sp)

0000000080002540 <i_2270>:
    80002540:	00511923          	sh	t0,18(sp)

0000000080002544 <i_2271>:
    80002544:	ea610303          	lb	t1,-346(sp)

0000000080002548 <i_2272>:
    80002548:	0262b9b3          	mulhu	s3,t0,t1

000000008000254c <i_2273>:
    8000254c:	1a110183          	lb	gp,417(sp)

0000000080002550 <i_2274>:
    80002550:	8c600293          	li	t0,-1850

0000000080002554 <i_2275>:
    80002554:	8cb00413          	li	s0,-1845

0000000080002558 <i_2276>:
    80002558:	413300b3          	sub	ra,t1,s3

000000008000255c <i_2277>:
    8000255c:	04812623          	sw	s0,76(sp)

0000000080002560 <i_2278>:
    80002560:	4ce43513          	sltiu	a0,s0,1230

0000000080002564 <i_2279>:
    80002564:	e6110983          	lb	s3,-415(sp)

0000000080002568 <i_2280>:
    80002568:	00000013          	nop

000000008000256c <i_2281>:
    8000256c:	14b10503          	lb	a0,331(sp)

0000000080002570 <i_2282>:
    80002570:	ec710783          	lb	a5,-313(sp)

0000000080002574 <i_2283>:
    80002574:	02a7bdb3          	mulhu	s11,a5,a0

0000000080002578 <i_2284>:
    80002578:	f9015b83          	lhu	s7,-112(sp)

000000008000257c <i_2285>:
    8000257c:	40a68ebb          	subw	t4,a3,a0

0000000080002580 <i_2286>:
    80002580:	00128293          	addi	t0,t0,1
    80002584:	fc545ae3          	ble	t0,s0,80002558 <i_2276>

0000000080002588 <i_2287>:
    80002588:	15d10503          	lb	a0,349(sp)

000000008000258c <i_2288>:
    8000258c:	01300e13          	li	t3,19

0000000080002590 <i_2289>:
    80002590:	01c9d43b          	srlw	s0,s3,t3

0000000080002594 <i_2290>:
    80002594:	a4c44413          	xori	s0,s0,-1460

0000000080002598 <i_2291>:
    80002598:	03ce5463          	ble	t3,t3,800025c0 <i_2301>

000000008000259c <i_2292>:
    8000259c:	e5815383          	lhu	t2,-424(sp)

00000000800025a0 <i_2293>:
    800025a0:	f0610423          	sb	t1,-248(sp)

00000000800025a4 <i_2294>:
    800025a4:	02747263          	bleu	t2,s0,800025c8 <i_2303>

00000000800025a8 <i_2295>:
    800025a8:	00c00793          	li	a5,12

00000000800025ac <i_2296>:
    800025ac:	00fe19b3          	sll	s3,t3,a5

00000000800025b0 <i_2297>:
    800025b0:	0274743b          	remuw	s0,s0,t2

00000000800025b4 <i_2298>:
    800025b4:	01c36863          	bltu	t1,t3,800025c4 <i_2302>

00000000800025b8 <i_2299>:
    800025b8:	f8f13023          	sd	a5,-128(sp)

00000000800025bc <i_2300>:
    800025bc:	01cef663          	bleu	t3,t4,800025c8 <i_2303>

00000000800025c0 <i_2301>:
    800025c0:	1d013403          	ld	s0,464(sp)

00000000800025c4 <i_2302>:
    800025c4:	f8b14583          	lbu	a1,-117(sp)

00000000800025c8 <i_2303>:
    800025c8:	f9710283          	lb	t0,-105(sp)

00000000800025cc <i_2304>:
    800025cc:	01c7fa63          	bleu	t3,a5,800025e0 <i_2309>

00000000800025d0 <i_2305>:
    800025d0:	f4013283          	ld	t0,-192(sp)

00000000800025d4 <i_2306>:
    800025d4:	03146263          	bltu	s0,a7,800025f8 <i_2315>

00000000800025d8 <i_2307>:
    800025d8:	02b5e063          	bltu	a1,a1,800025f8 <i_2315>

00000000800025dc <i_2308>:
    800025dc:	025840b3          	div	ra,a6,t0

00000000800025e0 <i_2309>:
    800025e0:	eda13c23          	sd	s10,-296(sp)

00000000800025e4 <i_2310>:
    800025e4:	e6816e03          	lwu	t3,-408(sp)

00000000800025e8 <i_2311>:
    800025e8:	e2a13023          	sd	a0,-480(sp)

00000000800025ec <i_2312>:
    800025ec:	00000013          	nop

00000000800025f0 <i_2313>:
    800025f0:	00000013          	nop

00000000800025f4 <i_2314>:
    800025f4:	00000013          	nop

00000000800025f8 <i_2315>:
    800025f8:	02811323          	sh	s0,38(sp)

00000000800025fc <i_2316>:
    800025fc:	1c511c23          	sh	t0,472(sp)

0000000080002600 <i_2317>:
    80002600:	8a100813          	li	a6,-1887

0000000080002604 <i_2318>:
    80002604:	8a900413          	li	s0,-1879

0000000080002608 <i_2319>:
    80002608:	02e00293          	li	t0,46

000000008000260c <i_2320>:
    8000260c:	00545233          	srl	tp,s0,t0

0000000080002610 <i_2321>:
    80002610:	00180813          	addi	a6,a6,1 # 5b9a1001 <main-0x2465efff>
    80002614:	ff047ae3          	bleu	a6,s0,80002608 <i_2319>

0000000080002618 <i_2322>:
    80002618:	02428a3b          	mulw	s4,t0,tp

000000008000261c <i_2323>:
    8000261c:	09e15083          	lhu	ra,158(sp)

0000000080002620 <i_2324>:
    80002620:	0140fa63          	bleu	s4,ra,80002634 <i_2329>

0000000080002624 <i_2325>:
    80002624:	0342c063          	blt	t0,s4,80002644 <i_2333>

0000000080002628 <i_2326>:
    80002628:	d99ab813          	sltiu	a6,s5,-615

000000008000262c <i_2327>:
    8000262c:	00400b93          	li	s7,4

0000000080002630 <i_2328>:
    80002630:	41785a33          	sra	s4,a6,s7

0000000080002634 <i_2329>:
    80002634:	002bdb93          	srli	s7,s7,0x2

0000000080002638 <i_2330>:
    80002638:	03d84263          	blt	a6,t4,8000265c <i_2339>

000000008000263c <i_2331>:
    8000263c:	1c211a03          	lh	s4,450(sp)

0000000080002640 <i_2332>:
    80002640:	014f4263          	blt	t5,s4,80002644 <i_2333>

0000000080002644 <i_2333>:
    80002644:	f77105a3          	sb	s7,-149(sp)

0000000080002648 <i_2334>:
    80002648:	e9412c23          	sw	s4,-360(sp)

000000008000264c <i_2335>:
    8000264c:	00400a13          	li	s4,4

0000000080002650 <i_2336>:
    80002650:	014b9e33          	sll	t3,s7,s4

0000000080002654 <i_2337>:
    80002654:	028a0e3b          	mulw	t3,s4,s0

0000000080002658 <i_2338>:
    80002658:	e5514503          	lbu	a0,-427(sp)

000000008000265c <i_2339>:
    8000265c:	02513023          	sd	t0,32(sp)

0000000080002660 <i_2340>:
    80002660:	1b013b83          	ld	s7,432(sp)

0000000080002664 <i_2341>:
    80002664:	016e5663          	ble	s6,t3,80002670 <i_2344>

0000000080002668 <i_2342>:
    80002668:	01813e03          	ld	t3,24(sp)

000000008000266c <i_2343>:
    8000266c:	301c6417          	auipc	s0,0x301c6

0000000080002670 <i_2344>:
    80002670:	32247093          	andi	ra,s0,802

0000000080002674 <i_2345>:
    80002674:	f60bae13          	slti	t3,s7,-160

0000000080002678 <i_2346>:
    80002678:	fac13823          	sd	a2,-80(sp)

000000008000267c <i_2347>:
    8000267c:	40ee0433          	sub	s0,t3,a4

0000000080002680 <i_2348>:
    80002680:	408b8bb3          	sub	s7,s7,s0

0000000080002684 <i_2349>:
    80002684:	16013803          	ld	a6,352(sp)

0000000080002688 <i_2350>:
    80002688:	e5813483          	ld	s1,-424(sp)

000000008000268c <i_2351>:
    8000268c:	f8910b83          	lb	s7,-119(sp)

0000000080002690 <i_2352>:
    80002690:	1e812023          	sw	s0,480(sp)

0000000080002694 <i_2353>:
    80002694:	00748e63          	beq	s1,t2,800026b0 <i_2360>

0000000080002698 <i_2354>:
    80002698:	00281e9b          	slliw	t4,a6,0x2

000000008000269c <i_2355>:
    8000269c:	00445413          	srli	s0,s0,0x4

00000000800026a0 <i_2356>:
    800026a0:	b7ebf313          	andi	t1,s7,-1154

00000000800026a4 <i_2357>:
    800026a4:	06215303          	lhu	t1,98(sp)

00000000800026a8 <i_2358>:
    800026a8:	02831463          	bne	t1,s0,800026d0 <i_2368>

00000000800026ac <i_2359>:
    800026ac:	17813e83          	ld	t4,376(sp)

00000000800026b0 <i_2360>:
    800026b0:	03d97eb3          	remu	t4,s2,t4

00000000800026b4 <i_2361>:
    800026b4:	13016183          	lwu	gp,304(sp)

00000000800026b8 <i_2362>:
    800026b8:	03d25263          	ble	t4,tp,800026dc <i_2371>

00000000800026bc <i_2363>:
    800026bc:	12c11183          	lh	gp,300(sp)

00000000800026c0 <i_2364>:
    800026c0:	01d19463          	bne	gp,t4,800026c8 <i_2366>

00000000800026c4 <i_2365>:
    800026c4:	0b416e83          	lwu	t4,180(sp)

00000000800026c8 <i_2366>:
    800026c8:	c2a1c193          	xori	gp,gp,-982

00000000800026cc <i_2367>:
    800026cc:	09015283          	lhu	t0,144(sp)

00000000800026d0 <i_2368>:
    800026d0:	ed214403          	lbu	s0,-302(sp)

00000000800026d4 <i_2369>:
    800026d4:	00840a63          	beq	s0,s0,800026e8 <i_2374>

00000000800026d8 <i_2370>:
    800026d8:	02c1c063          	blt	gp,a2,800026f8 <i_2378>

00000000800026dc <i_2371>:
    800026dc:	0031e863          	bltu	gp,gp,800026ec <i_2375>

00000000800026e0 <i_2372>:
    800026e0:	01dd1a63          	bne	s10,t4,800026f4 <i_2377>

00000000800026e4 <i_2373>:
    800026e4:	003ec863          	blt	t4,gp,800026f4 <i_2377>

00000000800026e8 <i_2374>:
    800026e8:	0081dc63          	ble	s0,gp,80002700 <i_2380>

00000000800026ec <i_2375>:
    800026ec:	d3418513          	addi	a0,gp,-716

00000000800026f0 <i_2376>:
    800026f0:	e7011e83          	lh	t4,-400(sp)

00000000800026f4 <i_2377>:
    800026f4:	00b2e263          	bltu	t0,a1,800026f8 <i_2378>

00000000800026f8 <i_2378>:
    800026f8:	02a18063          	beq	gp,a0,80002718 <i_2386>

00000000800026fc <i_2379>:
    800026fc:	7e36feb7          	lui	t4,0x7e36f

0000000080002700 <i_2380>:
    80002700:	e8114583          	lbu	a1,-383(sp)

0000000080002704 <i_2381>:
    80002704:	01ddc1b3          	xor	gp,s11,t4

0000000080002708 <i_2382>:
    80002708:	dbedf593          	andi	a1,s11,-578

000000008000270c <i_2383>:
    8000270c:	f5910283          	lb	t0,-167(sp)

0000000080002710 <i_2384>:
    80002710:	01800493          	li	s1,24

0000000080002714 <i_2385>:
    80002714:	009494b3          	sll	s1,s1,s1

0000000080002718 <i_2386>:
    80002718:	18014983          	lbu	s3,384(sp)

000000008000271c <i_2387>:
    8000271c:	11514303          	lbu	t1,277(sp)

0000000080002720 <i_2388>:
    80002720:	fa013e83          	ld	t4,-96(sp)

0000000080002724 <i_2389>:
    80002724:	7bb00193          	li	gp,1979

0000000080002728 <i_2390>:
    80002728:	7cb00213          	li	tp,1995

000000008000272c <i_2391>:
    8000272c:	08413423          	sd	tp,136(sp)

0000000080002730 <i_2392>:
    80002730:	e4413023          	sd	tp,-448(sp)

0000000080002734 <i_2393>:
    80002734:	10813983          	ld	s3,264(sp)

0000000080002738 <i_2394>:
    80002738:	c8223b93          	sltiu	s7,tp,-894

000000008000273c <i_2395>:
    8000273c:	00000013          	nop

0000000080002740 <i_2396>:
    80002740:	00000013          	nop

0000000080002744 <i_2397>:
    80002744:	00118193          	addi	gp,gp,1
    80002748:	fe41c2e3          	blt	gp,tp,8000272c <i_2391>

000000008000274c <i_2398>:
    8000274c:	f9313c23          	sd	s3,-104(sp)

0000000080002750 <i_2399>:
    80002750:	e4210583          	lb	a1,-446(sp)

0000000080002754 <i_2400>:
    80002754:	13411983          	lh	s3,308(sp)

0000000080002758 <i_2401>:
    80002758:	02b84063          	blt	a6,a1,80002778 <i_2409>

000000008000275c <i_2402>:
    8000275c:	f0b12a23          	sw	a1,-236(sp)

0000000080002760 <i_2403>:
    80002760:	0395c813          	xori	a6,a1,57

0000000080002764 <i_2404>:
    80002764:	0179d263          	ble	s7,s3,80002768 <i_2405>

0000000080002768 <i_2405>:
    80002768:	e5d11123          	sh	t4,-446(sp)

000000008000276c <i_2406>:
    8000276c:	002ce463          	bltu	s9,sp,80002774 <i_2408>

0000000080002770 <i_2407>:
    80002770:	13011723          	sh	a6,302(sp)

0000000080002774 <i_2408>:
    80002774:	c440809b          	addiw	ra,ra,-956

0000000080002778 <i_2409>:
    80002778:	0305e7b3          	rem	a5,a1,a6

000000008000277c <i_2410>:
    8000277c:	00f7ec63          	bltu	a5,a5,80002794 <i_2416>

0000000080002780 <i_2411>:
    80002780:	0130d863          	ble	s3,ra,80002790 <i_2415>

0000000080002784 <i_2412>:
    80002784:	0305deb3          	divu	t4,a1,a6

0000000080002788 <i_2413>:
    80002788:	ef610483          	lb	s1,-266(sp)

000000008000278c <i_2414>:
    8000278c:	e8c12483          	lw	s1,-372(sp)

0000000080002790 <i_2415>:
    80002790:	01310d23          	sb	s3,26(sp)

0000000080002794 <i_2416>:
    80002794:	0018559b          	srliw	a1,a6,0x1

0000000080002798 <i_2417>:
    80002798:	0295d063          	ble	s1,a1,800027b8 <i_2425>

000000008000279c <i_2418>:
    8000279c:	05213423          	sd	s2,72(sp)

00000000800027a0 <i_2419>:
    800027a0:	a66301b7          	lui	gp,0xa6630

00000000800027a4 <i_2420>:
    800027a4:	e6112423          	sw	ra,-408(sp)

00000000800027a8 <i_2421>:
    800027a8:	f3e11e23          	sh	t5,-196(sp)

00000000800027ac <i_2422>:
    800027ac:	0291deb3          	divu	t4,gp,s1

00000000800027b0 <i_2423>:
    800027b0:	15013183          	ld	gp,336(sp)

00000000800027b4 <i_2424>:
    800027b4:	f8013783          	ld	a5,-128(sp)

00000000800027b8 <i_2425>:
    800027b8:	0210e7bb          	remw	a5,ra,ra

00000000800027bc <i_2426>:
    800027bc:	fc0efe93          	andi	t4,t4,-64

00000000800027c0 <i_2427>:
    800027c0:	73900993          	li	s3,1849

00000000800027c4 <i_2428>:
    800027c4:	74000093          	li	ra,1856

00000000800027c8 <i_2429>:
    800027c8:	4021d29b          	sraiw	t0,gp,0x2

00000000800027cc <i_2430>:
    800027cc:	fd710183          	lb	gp,-41(sp)

00000000800027d0 <i_2431>:
    800027d0:	03215283          	lhu	t0,50(sp)

00000000800027d4 <i_2432>:
    800027d4:	c005a393          	slti	t2,a1,-1024

00000000800027d8 <i_2433>:
    800027d8:	0033a2b3          	slt	t0,t2,gp

00000000800027dc <i_2434>:
    800027dc:	ea714183          	lbu	gp,-345(sp)

00000000800027e0 <i_2435>:
    800027e0:	00198993          	addi	s3,s3,1
    800027e4:	fe19c2e3          	blt	s3,ra,800027c8 <i_2429>

00000000800027e8 <i_2436>:
    800027e8:	1f63b593          	sltiu	a1,t2,502

00000000800027ec <i_2437>:
    800027ec:	0274a3b3          	mulhsu	t2,s1,t2

00000000800027f0 <i_2438>:
    800027f0:	ec114383          	lbu	t2,-319(sp)

00000000800027f4 <i_2439>:
    800027f4:	ec7101a3          	sb	t2,-317(sp)

00000000800027f8 <i_2440>:
    800027f8:	02b106a3          	sb	a1,45(sp)

00000000800027fc <i_2441>:
    800027fc:	01b14783          	lbu	a5,27(sp)

0000000080002800 <i_2442>:
    80002800:	bf75f413          	andi	s0,a1,-1033

0000000080002804 <i_2443>:
    80002804:	00f3fe63          	bleu	a5,t2,80002820 <i_2450>

0000000080002808 <i_2444>:
    80002808:	00f7b7b3          	sltu	a5,a5,a5

000000008000280c <i_2445>:
    8000280c:	00f79263          	bne	a5,a5,80002810 <i_2446>

0000000080002810 <i_2446>:
    80002810:	ec816783          	lwu	a5,-312(sp)

0000000080002814 <i_2447>:
    80002814:	0047979b          	slliw	a5,a5,0x4

0000000080002818 <i_2448>:
    80002818:	00f08a63          	beq	ra,a5,8000282c <i_2453>

000000008000281c <i_2449>:
    8000281c:	21b7b293          	sltiu	t0,a5,539

0000000080002820 <i_2450>:
    80002820:	1af11e23          	sh	a5,444(sp)

0000000080002824 <i_2451>:
    80002824:	00f79663          	bne	a5,a5,80002830 <i_2454>

0000000080002828 <i_2452>:
    80002828:	1c416403          	lwu	s0,452(sp)

000000008000282c <i_2453>:
    8000282c:	0287d4bb          	divuw	s1,a5,s0

0000000080002830 <i_2454>:
    80002830:	401287bb          	subw	a5,t0,ra

0000000080002834 <i_2455>:
    80002834:	7ba40493          	addi	s1,s0,1978 # b01c8e26 <_end+0x301b8a12>

0000000080002838 <i_2456>:
    80002838:	ec911223          	sh	s1,-316(sp)

000000008000283c <i_2457>:
    8000283c:	8a200e13          	li	t3,-1886

0000000080002840 <i_2458>:
    80002840:	8ad00793          	li	a5,-1875

0000000080002844 <i_2459>:
    80002844:	0069ea63          	bltu	s3,t1,80002858 <i_2464>

0000000080002848 <i_2460>:
    80002848:	17c12183          	lw	gp,380(sp)

000000008000284c <i_2461>:
    8000284c:	023189b3          	mul	s3,gp,gp

0000000080002850 <i_2462>:
    80002850:	0d812a03          	lw	s4,216(sp)

0000000080002854 <i_2463>:
    80002854:	f6a14183          	lbu	gp,-150(sp)

0000000080002858 <i_2464>:
    80002858:	f8812a03          	lw	s4,-120(sp)

000000008000285c <i_2465>:
    8000285c:	f23107a3          	sb	gp,-209(sp)

0000000080002860 <i_2466>:
    80002860:	8b600493          	li	s1,-1866

0000000080002864 <i_2467>:
    80002864:	8ca00d93          	li	s11,-1846

0000000080002868 <i_2468>:
    80002868:	028a51bb          	divuw	gp,s4,s0

000000008000286c <i_2469>:
    8000286c:	f8310ea3          	sb	gp,-99(sp)

0000000080002870 <i_2470>:
    80002870:	08f14983          	lbu	s3,143(sp)

0000000080002874 <i_2471>:
    80002874:	0341d1b3          	divu	gp,gp,s4

0000000080002878 <i_2472>:
    80002878:	00148493          	addi	s1,s1,1 # fba1de8d <_end+0x7ba0da79>
    8000287c:	fe9dd6e3          	ble	s1,s11,80002868 <i_2468>

0000000080002880 <i_2473>:
    80002880:	0150fc63          	bleu	s5,ra,80002898 <i_2478>

0000000080002884 <i_2474>:
    80002884:	001e0e13          	addi	t3,t3,1
    80002888:	fbc7dee3          	ble	t3,a5,80002844 <i_2459>

000000008000288c <i_2475>:
    8000288c:	fb112c23          	sw	a7,-72(sp)

0000000080002890 <i_2476>:
    80002890:	00700793          	li	a5,7

0000000080002894 <i_2477>:
    80002894:	00f1d0bb          	srlw	ra,gp,a5

0000000080002898 <i_2478>:
    80002898:	034e0e3b          	mulw	t3,t3,s4

000000008000289c <i_2479>:
    8000289c:	07016a03          	lwu	s4,112(sp)

00000000800028a0 <i_2480>:
    800028a0:	f8336313          	ori	t1,t1,-125

00000000800028a4 <i_2481>:
    800028a4:	f1410323          	sb	s4,-250(sp)

00000000800028a8 <i_2482>:
    800028a8:	03c3e3b3          	rem	t2,t2,t3

00000000800028ac <i_2483>:
    800028ac:	0343d9b3          	divu	s3,t2,s4

00000000800028b0 <i_2484>:
    800028b0:	00479793          	slli	a5,a5,0x4

00000000800028b4 <i_2485>:
    800028b4:	02f7eeb3          	rem	t4,a5,a5

00000000800028b8 <i_2486>:
    800028b8:	02013203          	ld	tp,32(sp)

00000000800028bc <i_2487>:
    800028bc:	01d00993          	li	s3,29

00000000800028c0 <i_2488>:
    800028c0:	013e99bb          	sllw	s3,t4,s3

00000000800028c4 <i_2489>:
    800028c4:	01c1b433          	sltu	s0,gp,t3

00000000800028c8 <i_2490>:
    800028c8:	08812583          	lw	a1,136(sp)

00000000800028cc <i_2491>:
    800028cc:	89700493          	li	s1,-1897

00000000800028d0 <i_2492>:
    800028d0:	8a400a13          	li	s4,-1884

00000000800028d4 <i_2493>:
    800028d4:	00148493          	addi	s1,s1,1
    800028d8:	fe9a5ee3          	ble	s1,s4,800028d4 <i_2493>

00000000800028dc <i_2494>:
    800028dc:	02b12423          	sw	a1,40(sp)

00000000800028e0 <i_2495>:
    800028e0:	0089e863          	bltu	s3,s0,800028f0 <i_2499>

00000000800028e4 <i_2496>:
    800028e4:	ad937217          	auipc	tp,0xad937

00000000800028e8 <i_2497>:
    800028e8:	e3b14983          	lbu	s3,-453(sp)

00000000800028ec <i_2498>:
    800028ec:	02b2f2bb          	remuw	t0,t0,a1

00000000800028f0 <i_2499>:
    800028f0:	13016383          	lwu	t2,304(sp)

00000000800028f4 <i_2500>:
    800028f4:	0332d0bb          	divuw	ra,t0,s3

00000000800028f8 <i_2501>:
    800028f8:	ed215083          	lhu	ra,-302(sp)

00000000800028fc <i_2502>:
    800028fc:	0192c863          	blt	t0,s9,8000290c <i_2506>

0000000080002900 <i_2503>:
    80002900:	0240e063          	bltu	ra,tp,80002920 <i_2511>

0000000080002904 <i_2504>:
    80002904:	01c0dc63          	ble	t3,ra,8000291c <i_2510>

0000000080002908 <i_2505>:
    80002908:	1a913823          	sd	s1,432(sp)

000000008000290c <i_2506>:
    8000290c:	09012083          	lw	ra,144(sp)

0000000080002910 <i_2507>:
    80002910:	00137663          	bleu	ra,t1,8000291c <i_2510>

0000000080002914 <i_2508>:
    80002914:	e5c16083          	lwu	ra,-420(sp)

0000000080002918 <i_2509>:
    80002918:	2b636193          	ori	gp,t1,694

000000008000291c <i_2510>:
    8000291c:	03856463          	bltu	a0,s8,80002944 <i_2520>

0000000080002920 <i_2511>:
    80002920:	e4813383          	ld	t2,-440(sp)

0000000080002924 <i_2512>:
    80002924:	00900d93          	li	s11,9

0000000080002928 <i_2513>:
    80002928:	01bddeb3          	srl	t4,s11,s11

000000008000292c <i_2514>:
    8000292c:	e7211503          	lh	a0,-398(sp)

0000000080002930 <i_2515>:
    80002930:	eb413423          	sd	s4,-344(sp)

0000000080002934 <i_2516>:
    80002934:	01d12a23          	sw	t4,20(sp)

0000000080002938 <i_2517>:
    80002938:	fdb12223          	sw	s11,-60(sp)

000000008000293c <i_2518>:
    8000293c:	f0812783          	lw	a5,-248(sp)

0000000080002940 <i_2519>:
    80002940:	14c12803          	lw	a6,332(sp)

0000000080002944 <i_2520>:
    80002944:	00600193          	li	gp,6

0000000080002948 <i_2521>:
    80002948:	003515bb          	sllw	a1,a0,gp

000000008000294c <i_2522>:
    8000294c:	01b87e33          	and	t3,a6,s11

0000000080002950 <i_2523>:
    80002950:	ea016783          	lwu	a5,-352(sp)

0000000080002954 <i_2524>:
    80002954:	b8fe7813          	andi	a6,t3,-1137

0000000080002958 <i_2525>:
    80002958:	005e2e33          	slt	t3,t3,t0

000000008000295c <i_2526>:
    8000295c:	ff610783          	lb	a5,-10(sp)

0000000080002960 <i_2527>:
    80002960:	87c78193          	addi	gp,a5,-1924

0000000080002964 <i_2528>:
    80002964:	00b1e5b3          	or	a1,gp,a1

0000000080002968 <i_2529>:
    80002968:	03080263          	beq	a6,a6,8000298c <i_2538>

000000008000296c <i_2530>:
    8000296c:	f4812e03          	lw	t3,-184(sp)

0000000080002970 <i_2531>:
    80002970:	fd410e03          	lb	t3,-44(sp)

0000000080002974 <i_2532>:
    80002974:	00478833          	add	a6,a5,tp

0000000080002978 <i_2533>:
    80002978:	4100883b          	subw	a6,ra,a6

000000008000297c <i_2534>:
    8000297c:	023e7063          	bleu	gp,t3,8000299c <i_2542>

0000000080002980 <i_2535>:
    80002980:	0b013c23          	sd	a6,184(sp)

0000000080002984 <i_2536>:
    80002984:	ebc13023          	sd	t3,-352(sp)

0000000080002988 <i_2537>:
    80002988:	01cf8a63          	beq	t6,t3,8000299c <i_2542>

000000008000298c <i_2538>:
    8000298c:	43c84e13          	xori	t3,a6,1084

0000000080002990 <i_2539>:
    80002990:	fd0105a3          	sb	a6,-53(sp)

0000000080002994 <i_2540>:
    80002994:	13815083          	lhu	ra,312(sp)

0000000080002998 <i_2541>:
    80002998:	f3d14083          	lbu	ra,-195(sp)

000000008000299c <i_2542>:
    8000299c:	f29107a3          	sb	s1,-209(sp)

00000000800029a0 <i_2543>:
    800029a0:	0f615b83          	lhu	s7,246(sp)

00000000800029a4 <i_2544>:
    800029a4:	89d00213          	li	tp,-1891

00000000800029a8 <i_2545>:
    800029a8:	8a900593          	li	a1,-1879

00000000800029ac <i_2546>:
    800029ac:	01bd8db3          	add	s11,s11,s11

00000000800029b0 <i_2547>:
    800029b0:	0b814183          	lbu	gp,184(sp)

00000000800029b4 <i_2548>:
    800029b4:	77600493          	li	s1,1910

00000000800029b8 <i_2549>:
    800029b8:	78900093          	li	ra,1929

00000000800029bc <i_2550>:
    800029bc:	4031db9b          	sraiw	s7,gp,0x3

00000000800029c0 <i_2551>:
    800029c0:	f9214503          	lbu	a0,-110(sp)

00000000800029c4 <i_2552>:
    800029c4:	00148493          	addi	s1,s1,1
    800029c8:	fe14cae3          	blt	s1,ra,800029bc <i_2550>

00000000800029cc <i_2553>:
    800029cc:	41f1bd93          	sltiu	s11,gp,1055

00000000800029d0 <i_2554>:
    800029d0:	ecd10803          	lb	a6,-307(sp)

00000000800029d4 <i_2555>:
    800029d4:	e5e10e83          	lb	t4,-418(sp)

00000000800029d8 <i_2556>:
    800029d8:	03ddd463          	ble	t4,s11,80002a00 <i_2565>

00000000800029dc <i_2557>:
    800029dc:	bb180d9b          	addiw	s11,a6,-1103

00000000800029e0 <i_2558>:
    800029e0:	03d80263          	beq	a6,t4,80002a04 <i_2566>

00000000800029e4 <i_2559>:
    800029e4:	00120213          	addi	tp,tp,1 # 2d9398e5 <main-0x526c671b>
    800029e8:	fc45d2e3          	ble	tp,a1,800029ac <i_2546>

00000000800029ec <i_2560>:
    800029ec:	00319e63          	bne	gp,gp,80002a08 <i_2567>

00000000800029f0 <i_2561>:
    800029f0:	0301ee33          	rem	t3,gp,a6

00000000800029f4 <i_2562>:
    800029f4:	e1c10483          	lb	s1,-484(sp)

00000000800029f8 <i_2563>:
    800029f8:	0211d063          	ble	ra,gp,80002a18 <i_2571>

00000000800029fc <i_2564>:
    800029fc:	402e5e9b          	sraiw	t4,t3,0x2

0000000080002a00 <i_2565>:
    80002a00:	009ee263          	bltu	t4,s1,80002a04 <i_2566>

0000000080002a04 <i_2566>:
    80002a04:	05914e03          	lbu	t3,89(sp)

0000000080002a08 <i_2567>:
    80002a08:	08615503          	lhu	a0,134(sp)

0000000080002a0c <i_2568>:
    80002a0c:	edfe0e13          	addi	t3,t3,-289

0000000080002a10 <i_2569>:
    80002a10:	02a10d23          	sb	a0,58(sp)

0000000080002a14 <i_2570>:
    80002a14:	18f104a3          	sb	a5,393(sp)

0000000080002a18 <i_2571>:
    80002a18:	00400213          	li	tp,4

0000000080002a1c <i_2572>:
    80002a1c:	00485433          	srl	s0,a6,tp

0000000080002a20 <i_2573>:
    80002a20:	87e00793          	li	a5,-1922

0000000080002a24 <i_2574>:
    80002a24:	88b00813          	li	a6,-1909

0000000080002a28 <i_2575>:
    80002a28:	fac12483          	lw	s1,-84(sp)

0000000080002a2c <i_2576>:
    80002a2c:	024870bb          	remuw	ra,a6,tp

0000000080002a30 <i_2577>:
    80002a30:	88800513          	li	a0,-1912

0000000080002a34 <i_2578>:
    80002a34:	88b00e13          	li	t3,-1909

0000000080002a38 <i_2579>:
    80002a38:	f5411383          	lh	t2,-172(sp)

0000000080002a3c <i_2580>:
    80002a3c:	027470b3          	remu	ra,s0,t2

0000000080002a40 <i_2581>:
    80002a40:	00150513          	addi	a0,a0,1
    80002a44:	ffc54ae3          	blt	a0,t3,80002a38 <i_2579>

0000000080002a48 <i_2582>:
    80002a48:	f8914403          	lbu	s0,-119(sp)

0000000080002a4c <i_2583>:
    80002a4c:	1c813b83          	ld	s7,456(sp)

0000000080002a50 <i_2584>:
    80002a50:	00145413          	srli	s0,s0,0x1

0000000080002a54 <i_2585>:
    80002a54:	00178793          	addi	a5,a5,1
    80002a58:	fcf878e3          	bleu	a5,a6,80002a28 <i_2575>

0000000080002a5c <i_2586>:
    80002a5c:	e2813823          	sd	s0,-464(sp)

0000000080002a60 <i_2587>:
    80002a60:	e8112623          	sw	ra,-372(sp)

0000000080002a64 <i_2588>:
    80002a64:	8b100093          	li	ra,-1871

0000000080002a68 <i_2589>:
    80002a68:	8b400413          	li	s0,-1868

0000000080002a6c <i_2590>:
    80002a6c:	ec811523          	sh	s0,-310(sp)

0000000080002a70 <i_2591>:
    80002a70:	f1211503          	lh	a0,-238(sp)

0000000080002a74 <i_2592>:
    80002a74:	f7813783          	ld	a5,-136(sp)

0000000080002a78 <i_2593>:
    80002a78:	00000013          	nop

0000000080002a7c <i_2594>:
    80002a7c:	40138ebb          	subw	t4,t2,ra

0000000080002a80 <i_2595>:
    80002a80:	00000013          	nop

0000000080002a84 <i_2596>:
    80002a84:	02845263          	ble	s0,s0,80002aa8 <i_2604>

0000000080002a88 <i_2597>:
    80002a88:	02f45bbb          	divuw	s7,s0,a5

0000000080002a8c <i_2598>:
    80002a8c:	f4f11423          	sh	a5,-184(sp)

0000000080002a90 <i_2599>:
    80002a90:	40455e93          	srai	t4,a0,0x4

0000000080002a94 <i_2600>:
    80002a94:	00108093          	addi	ra,ra,1
    80002a98:	fc80eae3          	bltu	ra,s0,80002a6c <i_2590>

0000000080002a9c <i_2601>:
    80002a9c:	0e416783          	lwu	a5,228(sp)

0000000080002aa0 <i_2602>:
    80002aa0:	e4a15d83          	lhu	s11,-438(sp)

0000000080002aa4 <i_2603>:
    80002aa4:	f2f10f23          	sb	a5,-194(sp)

0000000080002aa8 <i_2604>:
    80002aa8:	00379093          	slli	ra,a5,0x3

0000000080002aac <i_2605>:
    80002aac:	034d84bb          	mulw	s1,s11,s4

0000000080002ab0 <i_2606>:
    80002ab0:	13c16403          	lwu	s0,316(sp)

0000000080002ab4 <i_2607>:
    80002ab4:	fad14303          	lbu	t1,-83(sp)

0000000080002ab8 <i_2608>:
    80002ab8:	0018e463          	bltu	a7,ra,80002ac0 <i_2610>

0000000080002abc <i_2609>:
    80002abc:	00e00393          	li	t2,14

0000000080002ac0 <i_2610>:
    80002ac0:	00779ebb          	sllw	t4,a5,t2

0000000080002ac4 <i_2611>:
    80002ac4:	02f6e463          	bltu	a3,a5,80002aec <i_2621>

0000000080002ac8 <i_2612>:
    80002ac8:	008b8863          	beq	s7,s0,80002ad8 <i_2616>

0000000080002acc <i_2613>:
    80002acc:	01736c63          	bltu	t1,s7,80002ae4 <i_2619>

0000000080002ad0 <i_2614>:
    80002ad0:	e8613823          	sd	t1,-368(sp)

0000000080002ad4 <i_2615>:
    80002ad4:	0087fa63          	bleu	s0,a5,80002ae8 <i_2620>

0000000080002ad8 <i_2616>:
    80002ad8:	06416303          	lwu	t1,100(sp)

0000000080002adc <i_2617>:
    80002adc:	0213433b          	divw	t1,t1,ra

0000000080002ae0 <i_2618>:
    80002ae0:	17e15503          	lhu	a0,382(sp)

0000000080002ae4 <i_2619>:
    80002ae4:	0023d29b          	srliw	t0,t2,0x2

0000000080002ae8 <i_2620>:
    80002ae8:	00760a63          	beq	a2,t2,80002afc <i_2625>

0000000080002aec <i_2621>:
    80002aec:	00554a63          	blt	a0,t0,80002b00 <i_2626>

0000000080002af0 <i_2622>:
    80002af0:	19813383          	ld	t2,408(sp)

0000000080002af4 <i_2623>:
    80002af4:	0312bdb3          	mulhu	s11,t0,a7

0000000080002af8 <i_2624>:
    80002af8:	ec512a23          	sw	t0,-300(sp)

0000000080002afc <i_2625>:
    80002afc:	01aea193          	slti	gp,t4,26

0000000080002b00 <i_2626>:
    80002b00:	ea312223          	sw	gp,-348(sp)

0000000080002b04 <i_2627>:
    80002b04:	01be1463          	bne	t3,s11,80002b0c <i_2629>

0000000080002b08 <i_2628>:
    80002b08:	003dc463          	blt	s11,gp,80002b10 <i_2630>

0000000080002b0c <i_2629>:
    80002b0c:	0231c533          	div	a0,gp,gp

0000000080002b10 <i_2630>:
    80002b10:	fc013483          	ld	s1,-64(sp)

0000000080002b14 <i_2631>:
    80002b14:	027531b3          	mulhu	gp,a0,t2

0000000080002b18 <i_2632>:
    80002b18:	0f313823          	sd	s3,240(sp)

0000000080002b1c <i_2633>:
    80002b1c:	b70d6b97          	auipc	s7,0xb70d6

0000000080002b20 <i_2634>:
    80002b20:	0fb13c23          	sd	s11,248(sp)

0000000080002b24 <i_2635>:
    80002b24:	037bb433          	mulhu	s0,s7,s7

0000000080002b28 <i_2636>:
    80002b28:	00356c63          	bltu	a0,gp,80002b40 <i_2642>

0000000080002b2c <i_2637>:
    80002b2c:	e5811b83          	lh	s7,-424(sp)

0000000080002b30 <i_2638>:
    80002b30:	030ea3b3          	mulhsu	t2,t4,a6

0000000080002b34 <i_2639>:
    80002b34:	e2f12c23          	sw	a5,-456(sp)

0000000080002b38 <i_2640>:
    80002b38:	0252c463          	blt	t0,t0,80002b60 <i_2650>

0000000080002b3c <i_2641>:
    80002b3c:	08a11223          	sh	a0,132(sp)

0000000080002b40 <i_2642>:
    80002b40:	00ada1b3          	slt	gp,s11,a0

0000000080002b44 <i_2643>:
    80002b44:	00dcf433          	and	s0,s9,a3

0000000080002b48 <i_2644>:
    80002b48:	007ec863          	blt	t4,t2,80002b58 <i_2648>

0000000080002b4c <i_2645>:
    80002b4c:	50347813          	andi	a6,s0,1283

0000000080002b50 <i_2646>:
    80002b50:	02811383          	lh	t2,40(sp)

0000000080002b54 <i_2647>:
    80002b54:	08015583          	lhu	a1,128(sp)

0000000080002b58 <i_2648>:
    80002b58:	56482813          	slti	a6,a6,1380

0000000080002b5c <i_2649>:
    80002b5c:	03038263          	beq	t2,a6,80002b80 <i_2658>

0000000080002b60 <i_2650>:
    80002b60:	fcb11a23          	sh	a1,-44(sp)

0000000080002b64 <i_2651>:
    80002b64:	f50104a3          	sb	a6,-183(sp)

0000000080002b68 <i_2652>:
    80002b68:	1c214583          	lbu	a1,450(sp)

0000000080002b6c <i_2653>:
    80002b6c:	00b5e263          	bltu	a1,a1,80002b70 <i_2654>

0000000080002b70 <i_2654>:
    80002b70:	5ed43093          	sltiu	ra,s0,1517

0000000080002b74 <i_2655>:
    80002b74:	0015959b          	slliw	a1,a1,0x1

0000000080002b78 <i_2656>:
    80002b78:	f6b13c23          	sd	a1,-136(sp)

0000000080002b7c <i_2657>:
    80002b7c:	ec712623          	sw	t2,-308(sp)

0000000080002b80 <i_2658>:
    80002b80:	b1746413          	ori	s0,s0,-1257

0000000080002b84 <i_2659>:
    80002b84:	00bcd863          	ble	a1,s9,80002b94 <i_2663>

0000000080002b88 <i_2660>:
    80002b88:	02b5f0bb          	remuw	ra,a1,a1

0000000080002b8c <i_2661>:
    80002b8c:	02b4f43b          	remuw	s0,s1,a1

0000000080002b90 <i_2662>:
    80002b90:	00109863          	bne	ra,ra,80002ba0 <i_2666>

0000000080002b94 <i_2663>:
    80002b94:	18016403          	lwu	s0,384(sp)

0000000080002b98 <i_2664>:
    80002b98:	00147663          	bleu	ra,s0,80002ba4 <i_2667>

0000000080002b9c <i_2665>:
    80002b9c:	f3812d83          	lw	s11,-200(sp)

0000000080002ba0 <i_2666>:
    80002ba0:	008f6a63          	bltu	t5,s0,80002bb4 <i_2671>

0000000080002ba4 <i_2667>:
    80002ba4:	008d8a63          	beq	s11,s0,80002bb8 <i_2672>

0000000080002ba8 <i_2668>:
    80002ba8:	01900513          	li	a0,25

0000000080002bac <i_2669>:
    80002bac:	40a45433          	sra	s0,s0,a0

0000000080002bb0 <i_2670>:
    80002bb0:	00a54663          	blt	a0,a0,80002bbc <i_2673>

0000000080002bb4 <i_2671>:
    80002bb4:	01b57463          	bleu	s11,a0,80002bbc <i_2673>

0000000080002bb8 <i_2672>:
    80002bb8:	f6c15203          	lhu	tp,-148(sp)

0000000080002bbc <i_2673>:
    80002bbc:	4034599b          	sraiw	s3,s0,0x3

0000000080002bc0 <i_2674>:
    80002bc0:	f4c16983          	lwu	s3,-180(sp)

0000000080002bc4 <i_2675>:
    80002bc4:	0342643b          	remw	s0,tp,s4

0000000080002bc8 <i_2676>:
    80002bc8:	09812a03          	lw	s4,152(sp)

0000000080002bcc <i_2677>:
    80002bcc:	00a56533          	or	a0,a0,a0

0000000080002bd0 <i_2678>:
    80002bd0:	9176f813          	andi	a6,a3,-1769

0000000080002bd4 <i_2679>:
    80002bd4:	0048549b          	srliw	s1,a6,0x4

0000000080002bd8 <i_2680>:
    80002bd8:	404a5a13          	srai	s4,s4,0x4

0000000080002bdc <i_2681>:
    80002bdc:	00a4e463          	bltu	s1,a0,80002be4 <i_2683>

0000000080002be0 <i_2682>:
    80002be0:	030a73bb          	remuw	t2,s4,a6

0000000080002be4 <i_2683>:
    80002be4:	02741533          	mulh	a0,s0,t2

0000000080002be8 <i_2684>:
    80002be8:	8c556513          	ori	a0,a0,-1851

0000000080002bec <i_2685>:
    80002bec:	01f00b93          	li	s7,31

0000000080002bf0 <i_2686>:
    80002bf0:	017514b3          	sll	s1,a0,s7

0000000080002bf4 <i_2687>:
    80002bf4:	00766c63          	bltu	a2,t2,80002c0c <i_2693>

0000000080002bf8 <i_2688>:
    80002bf8:	027b84bb          	mulw	s1,s7,t2

0000000080002bfc <i_2689>:
    80002bfc:	08912623          	sw	s1,140(sp)

0000000080002c00 <i_2690>:
    80002c00:	f9412b83          	lw	s7,-108(sp)

0000000080002c04 <i_2691>:
    80002c04:	0c712623          	sw	t2,204(sp)

0000000080002c08 <i_2692>:
    80002c08:	10714803          	lbu	a6,263(sp)

0000000080002c0c <i_2693>:
    80002c0c:	86e73e93          	sltiu	t4,a4,-1938

0000000080002c10 <i_2694>:
    80002c10:	02aec53b          	divw	a0,t4,a0

0000000080002c14 <i_2695>:
    80002c14:	0300d063          	ble	a6,ra,80002c34 <i_2703>

0000000080002c18 <i_2696>:
    80002c18:	14a13823          	sd	a0,336(sp)

0000000080002c1c <i_2697>:
    80002c1c:	03080833          	mul	a6,a6,a6

0000000080002c20 <i_2698>:
    80002c20:	e6910083          	lb	ra,-407(sp)

0000000080002c24 <i_2699>:
    80002c24:	f7813503          	ld	a0,-136(sp)

0000000080002c28 <i_2700>:
    80002c28:	0218083b          	mulw	a6,a6,ra

0000000080002c2c <i_2701>:
    80002c2c:	ee410a03          	lb	s4,-284(sp)

0000000080002c30 <i_2702>:
    80002c30:	e5013e03          	ld	t3,-432(sp)

0000000080002c34 <i_2703>:
    80002c34:	ffc10323          	sb	t3,-26(sp)

0000000080002c38 <i_2704>:
    80002c38:	03ce5e33          	divu	t3,t3,t3

0000000080002c3c <i_2705>:
    80002c3c:	8a100213          	li	tp,-1887

0000000080002c40 <i_2706>:
    80002c40:	8b100493          	li	s1,-1871

0000000080002c44 <i_2707>:
    80002c44:	ffc12223          	sw	t3,-28(sp)

0000000080002c48 <i_2708>:
    80002c48:	1c211303          	lh	t1,450(sp)

0000000080002c4c <i_2709>:
    80002c4c:	01ca0333          	add	t1,s4,t3

0000000080002c50 <i_2710>:
    80002c50:	f2416e03          	lwu	t3,-220(sp)

0000000080002c54 <i_2711>:
    80002c54:	1bc10423          	sb	t3,424(sp)

0000000080002c58 <i_2712>:
    80002c58:	402fda13          	srai	s4,t6,0x2

0000000080002c5c <i_2713>:
    80002c5c:	00120213          	addi	tp,tp,1 # 1 <main-0x7fffffff>
    80002c60:	fe9262e3          	bltu	tp,s1,80002c44 <i_2707>

0000000080002c64 <i_2714>:
    80002c64:	030a7e33          	remu	t3,s4,a6

0000000080002c68 <i_2715>:
    80002c68:	40b80233          	sub	tp,a6,a1

0000000080002c6c <i_2716>:
    80002c6c:	83100313          	li	t1,-1999

0000000080002c70 <i_2717>:
    80002c70:	83e00813          	li	a6,-1986

0000000080002c74 <i_2718>:
    80002c74:	16811a03          	lh	s4,360(sp)

0000000080002c78 <i_2719>:
    80002c78:	03ce05bb          	mulw	a1,t3,t3

0000000080002c7c <i_2720>:
    80002c7c:	08c16783          	lwu	a5,140(sp)

0000000080002c80 <i_2721>:
    80002c80:	02ba6233          	rem	tp,s4,a1

0000000080002c84 <i_2722>:
    80002c84:	e5410983          	lb	s3,-428(sp)

0000000080002c88 <i_2723>:
    80002c88:	00000013          	nop

0000000080002c8c <i_2724>:
    80002c8c:	02c2423b          	divw	tp,tp,a2

0000000080002c90 <i_2725>:
    80002c90:	00000013          	nop

0000000080002c94 <i_2726>:
    80002c94:	014e5e63          	ble	s4,t3,80002cb0 <i_2732>

0000000080002c98 <i_2727>:
    80002c98:	00000013          	nop

0000000080002c9c <i_2728>:
    80002c9c:	00130313          	addi	t1,t1,1
    80002ca0:	fc685ae3          	ble	t1,a6,80002c74 <i_2718>

0000000080002ca4 <i_2729>:
    80002ca4:	f3415a03          	lhu	s4,-204(sp)

0000000080002ca8 <i_2730>:
    80002ca8:	0249c063          	blt	s3,tp,80002cc8 <i_2738>

0000000080002cac <i_2731>:
    80002cac:	0a016403          	lwu	s0,160(sp)

0000000080002cb0 <i_2732>:
    80002cb0:	f0813b83          	ld	s7,-248(sp)

0000000080002cb4 <i_2733>:
    80002cb4:	00808a63          	beq	ra,s0,80002cc8 <i_2738>

0000000080002cb8 <i_2734>:
    80002cb8:	fc6b9997          	auipc	s3,0xfc6b9

0000000080002cbc <i_2735>:
    80002cbc:	f4816e83          	lwu	t4,-184(sp)

0000000080002cc0 <i_2736>:
    80002cc0:	00499413          	slli	s0,s3,0x4

0000000080002cc4 <i_2737>:
    80002cc4:	fe712a23          	sw	t2,-12(sp)

0000000080002cc8 <i_2738>:
    80002cc8:	de042993          	slti	s3,s0,-544

0000000080002ccc <i_2739>:
    80002ccc:	028efdb3          	remu	s11,t4,s0

0000000080002cd0 <i_2740>:
    80002cd0:	00947a63          	bleu	s1,s0,80002ce4 <i_2745>

0000000080002cd4 <i_2741>:
    80002cd4:	e7411183          	lh	gp,-396(sp)

0000000080002cd8 <i_2742>:
    80002cd8:	ea610303          	lb	t1,-346(sp)

0000000080002cdc <i_2743>:
    80002cdc:	e8e14203          	lbu	tp,-370(sp)

0000000080002ce0 <i_2744>:
    80002ce0:	01e00b93          	li	s7,30

0000000080002ce4 <i_2745>:
    80002ce4:	01725ebb          	srlw	t4,tp,s7

0000000080002ce8 <i_2746>:
    80002ce8:	b39e8413          	addi	s0,t4,-1223 # 7e36eb39 <main-0x1c914c7>

0000000080002cec <i_2747>:
    80002cec:	03636063          	bltu	t1,s6,80002d0c <i_2755>

0000000080002cf0 <i_2748>:
    80002cf0:	024b8263          	beq	s7,tp,80002d14 <i_2757>

0000000080002cf4 <i_2749>:
    80002cf4:	037bfbb3          	remu	s7,s7,s7

0000000080002cf8 <i_2750>:
    80002cf8:	ee013183          	ld	gp,-288(sp)

0000000080002cfc <i_2751>:
    80002cfc:	f4f10b83          	lb	s7,-177(sp)

0000000080002d00 <i_2752>:
    80002d00:	2818f1b7          	lui	gp,0x2818f

0000000080002d04 <i_2753>:
    80002d04:	e2411e23          	sh	tp,-452(sp)

0000000080002d08 <i_2754>:
    80002d08:	e6311723          	sh	gp,-402(sp)

0000000080002d0c <i_2755>:
    80002d0c:	18e14203          	lbu	tp,398(sp)

0000000080002d10 <i_2756>:
    80002d10:	024cddbb          	divuw	s11,s9,tp

0000000080002d14 <i_2757>:
    80002d14:	023ba233          	mulhsu	tp,s7,gp

0000000080002d18 <i_2758>:
    80002d18:	4084043b          	subw	s0,s0,s0

0000000080002d1c <i_2759>:
    80002d1c:	78000313          	li	t1,1920

0000000080002d20 <i_2760>:
    80002d20:	78700b93          	li	s7,1927

0000000080002d24 <i_2761>:
    80002d24:	e9412d83          	lw	s11,-364(sp)

0000000080002d28 <i_2762>:
    80002d28:	03741063          	bne	s0,s7,80002d48 <i_2769>

0000000080002d2c <i_2763>:
    80002d2c:	00130313          	addi	t1,t1,1
    80002d30:	ff734ae3          	blt	t1,s7,80002d24 <i_2761>

0000000080002d34 <i_2764>:
    80002d34:	01721463          	bne	tp,s7,80002d3c <i_2766>

0000000080002d38 <i_2765>:
    80002d38:	64142413          	slti	s0,s0,1601

0000000080002d3c <i_2766>:
    80002d3c:	fca13023          	sd	a0,-64(sp)

0000000080002d40 <i_2767>:
    80002d40:	e9813203          	ld	tp,-360(sp)

0000000080002d44 <i_2768>:
    80002d44:	028b0263          	beq	s6,s0,80002d68 <i_2777>

0000000080002d48 <i_2769>:
    80002d48:	1da15403          	lhu	s0,474(sp)

0000000080002d4c <i_2770>:
    80002d4c:	8dd76b93          	ori	s7,a4,-1827

0000000080002d50 <i_2771>:
    80002d50:	00e00413          	li	s0,14

0000000080002d54 <i_2772>:
    80002d54:	408bd43b          	sraw	s0,s7,s0

0000000080002d58 <i_2773>:
    80002d58:	01e40863          	beq	s0,t5,80002d68 <i_2777>

0000000080002d5c <i_2774>:
    80002d5c:	15815183          	lhu	gp,344(sp)

0000000080002d60 <i_2775>:
    80002d60:	fd414183          	lbu	gp,-44(sp)

0000000080002d64 <i_2776>:
    80002d64:	0021d313          	srli	t1,gp,0x2

0000000080002d68 <i_2777>:
    80002d68:	11813983          	ld	s3,280(sp)

0000000080002d6c <i_2778>:
    80002d6c:	02334dbb          	divw	s11,t1,gp

0000000080002d70 <i_2779>:
    80002d70:	8ce00413          	li	s0,-1842

0000000080002d74 <i_2780>:
    80002d74:	8dc00b93          	li	s7,-1828

0000000080002d78 <i_2781>:
    80002d78:	01500e13          	li	t3,21

0000000080002d7c <i_2782>:
    80002d7c:	01ca1ebb          	sllw	t4,s4,t3

0000000080002d80 <i_2783>:
    80002d80:	00140413          	addi	s0,s0,1
    80002d84:	fe8bfae3          	bleu	s0,s7,80002d78 <i_2781>

0000000080002d88 <i_2784>:
    80002d88:	01500a13          	li	s4,21

0000000080002d8c <i_2785>:
    80002d8c:	41435dbb          	sraw	s11,t1,s4

0000000080002d90 <i_2786>:
    80002d90:	01700a13          	li	s4,23

0000000080002d94 <i_2787>:
    80002d94:	414a5e3b          	sraw	t3,s4,s4

0000000080002d98 <i_2788>:
    80002d98:	03ce5433          	divu	s0,t3,t3

0000000080002d9c <i_2789>:
    80002d9c:	027a72b3          	remu	t0,s4,t2

0000000080002da0 <i_2790>:
    80002da0:	03cee063          	bltu	t4,t3,80002dc0 <i_2798>

0000000080002da4 <i_2791>:
    80002da4:	e8b13c23          	sd	a1,-360(sp)

0000000080002da8 <i_2792>:
    80002da8:	03da12b3          	mulh	t0,s4,t4

0000000080002dac <i_2793>:
    80002dac:	0cb10a03          	lb	s4,203(sp)

0000000080002db0 <i_2794>:
    80002db0:	0342e263          	bltu	t0,s4,80002dd4 <i_2803>

0000000080002db4 <i_2795>:
    80002db4:	0ec11383          	lh	t2,236(sp)

0000000080002db8 <i_2796>:
    80002db8:	00529e63          	bne	t0,t0,80002dd4 <i_2803>

0000000080002dbc <i_2797>:
    80002dbc:	1a613823          	sd	t1,432(sp)

0000000080002dc0 <i_2798>:
    80002dc0:	f2513423          	sd	t0,-216(sp)

0000000080002dc4 <i_2799>:
    80002dc4:	e5c12303          	lw	t1,-420(sp)

0000000080002dc8 <i_2800>:
    80002dc8:	0263f333          	remu	t1,t2,t1

0000000080002dcc <i_2801>:
    80002dcc:	0067de63          	ble	t1,a5,80002de8 <i_2808>

0000000080002dd0 <i_2802>:
    80002dd0:	007365b3          	or	a1,t1,t2

0000000080002dd4 <i_2803>:
    80002dd4:	00b36663          	bltu	t1,a1,80002de0 <i_2806>

0000000080002dd8 <i_2804>:
    80002dd8:	00000013          	nop

0000000080002ddc <i_2805>:
    80002ddc:	e3d12c23          	sw	t4,-456(sp)

0000000080002de0 <i_2806>:
    80002de0:	0b816d83          	lwu	s11,184(sp)

0000000080002de4 <i_2807>:
    80002de4:	026eddbb          	divuw	s11,t4,t1

0000000080002de8 <i_2808>:
    80002de8:	03d10ca3          	sb	t4,57(sp)

0000000080002dec <i_2809>:
    80002dec:	2b65c4b7          	lui	s1,0x2b65c

0000000080002df0 <i_2810>:
    80002df0:	74f00313          	li	t1,1871

0000000080002df4 <i_2811>:
    80002df4:	75500e93          	li	t4,1877

0000000080002df8 <i_2812>:
    80002df8:	e7412483          	lw	s1,-396(sp)

0000000080002dfc <i_2813>:
    80002dfc:	1a813183          	ld	gp,424(sp)

0000000080002e00 <i_2814>:
    80002e00:	03beee3b          	remw	t3,t4,s11

0000000080002e04 <i_2815>:
    80002e04:	eec12283          	lw	t0,-276(sp)

0000000080002e08 <i_2816>:
    80002e08:	007482b3          	add	t0,s1,t2

0000000080002e0c <i_2817>:
    80002e0c:	00339193          	slli	gp,t2,0x3

0000000080002e10 <i_2818>:
    80002e10:	00130313          	addi	t1,t1,1
    80002e14:	ffd342e3          	blt	t1,t4,80002df8 <i_2812>

0000000080002e18 <i_2819>:
    80002e18:	00131293          	slli	t0,t1,0x1

0000000080002e1c <i_2820>:
    80002e1c:	00500e93          	li	t4,5

0000000080002e20 <i_2821>:
    80002e20:	41dfda3b          	sraw	s4,t6,t4

0000000080002e24 <i_2822>:
    80002e24:	01aec263          	blt	t4,s10,80002e28 <i_2823>

0000000080002e28 <i_2823>:
    80002e28:	11910823          	sb	s9,272(sp)

0000000080002e2c <i_2824>:
    80002e2c:	f6211d83          	lh	s11,-158(sp)

0000000080002e30 <i_2825>:
    80002e30:	03de8ebb          	mulw	t4,t4,t4

0000000080002e34 <i_2826>:
    80002e34:	efd12823          	sw	t4,-272(sp)

0000000080002e38 <i_2827>:
    80002e38:	01ded663          	ble	t4,t4,80002e44 <i_2830>

0000000080002e3c <i_2828>:
    80002e3c:	0a415803          	lhu	a6,164(sp)

0000000080002e40 <i_2829>:
    80002e40:	05b12423          	sw	s11,72(sp)

0000000080002e44 <i_2830>:
    80002e44:	fe813e03          	ld	t3,-24(sp)

0000000080002e48 <i_2831>:
    80002e48:	403edb93          	srai	s7,t4,0x3

0000000080002e4c <i_2832>:
    80002e4c:	0235f463          	bleu	gp,a1,80002e74 <i_2842>

0000000080002e50 <i_2833>:
    80002e50:	fbd103a3          	sb	t4,-89(sp)

0000000080002e54 <i_2834>:
    80002e54:	41ce80b3          	sub	ra,t4,t3

0000000080002e58 <i_2835>:
    80002e58:	f3013e03          	ld	t3,-208(sp)

0000000080002e5c <i_2836>:
    80002e5c:	00000013          	nop

0000000080002e60 <i_2837>:
    80002e60:	00000013          	nop

0000000080002e64 <i_2838>:
    80002e64:	fe314483          	lbu	s1,-29(sp)

0000000080002e68 <i_2839>:
    80002e68:	0d014e03          	lbu	t3,208(sp)

0000000080002e6c <i_2840>:
    80002e6c:	00000013          	nop

0000000080002e70 <i_2841>:
    80002e70:	03c0f833          	remu	a6,ra,t3

0000000080002e74 <i_2842>:
    80002e74:	e6013803          	ld	a6,-416(sp)

0000000080002e78 <i_2843>:
    80002e78:	00000013          	nop

0000000080002e7c <i_2844>:
    80002e7c:	80400a13          	li	s4,-2044

0000000080002e80 <i_2845>:
    80002e80:	81800e93          	li	t4,-2024

0000000080002e84 <i_2846>:
    80002e84:	0144e4b3          	or	s1,s1,s4

0000000080002e88 <i_2847>:
    80002e88:	034e7db3          	remu	s11,t3,s4

0000000080002e8c <i_2848>:
    80002e8c:	01e00493          	li	s1,30

0000000080002e90 <i_2849>:
    80002e90:	0094de3b          	srlw	t3,s1,s1

0000000080002e94 <i_2850>:
    80002e94:	001a0a13          	addi	s4,s4,1
    80002e98:	ffda66e3          	bltu	s4,t4,80002e84 <i_2846>

0000000080002e9c <i_2851>:
    80002e9c:	0094dc63          	ble	s1,s1,80002eb4 <i_2857>

0000000080002ea0 <i_2852>:
    80002ea0:	4044d21b          	sraiw	tp,s1,0x4

0000000080002ea4 <i_2853>:
    80002ea4:	f4510803          	lb	a6,-187(sp)

0000000080002ea8 <i_2854>:
    80002ea8:	06816203          	lwu	tp,104(sp)

0000000080002eac <i_2855>:
    80002eac:	00420463          	beq	tp,tp,80002eb4 <i_2857>

0000000080002eb0 <i_2856>:
    80002eb0:	e7811203          	lh	tp,-392(sp)

0000000080002eb4 <i_2857>:
    80002eb4:	ee011983          	lh	s3,-288(sp)

0000000080002eb8 <i_2858>:
    80002eb8:	0049c263          	blt	s3,tp,80002ebc <i_2859>

0000000080002ebc <i_2859>:
    80002ebc:	024a6233          	rem	tp,s4,tp

0000000080002ec0 <i_2860>:
    80002ec0:	00432233          	slt	tp,t1,tp

0000000080002ec4 <i_2861>:
    80002ec4:	7dc00413          	li	s0,2012

0000000080002ec8 <i_2862>:
    80002ec8:	7e200593          	li	a1,2018

0000000080002ecc <i_2863>:
    80002ecc:	00424a33          	xor	s4,tp,tp

0000000080002ed0 <i_2864>:
    80002ed0:	1ca11323          	sh	a0,454(sp)

0000000080002ed4 <i_2865>:
    80002ed4:	0d013203          	ld	tp,208(sp)

0000000080002ed8 <i_2866>:
    80002ed8:	00140413          	addi	s0,s0,1
    80002edc:	feb418e3          	bne	s0,a1,80002ecc <i_2863>

0000000080002ee0 <i_2867>:
    80002ee0:	f5011c23          	sh	a6,-168(sp)

0000000080002ee4 <i_2868>:
    80002ee4:	0042521b          	srliw	tp,tp,0x4

0000000080002ee8 <i_2869>:
    80002ee8:	034a7a33          	remu	s4,s4,s4

0000000080002eec <i_2870>:
    80002eec:	03520263          	beq	tp,s5,80002f10 <i_2879>

0000000080002ef0 <i_2871>:
    80002ef0:	3102039b          	addiw	t2,tp,784

0000000080002ef4 <i_2872>:
    80002ef4:	83aa7213          	andi	tp,s4,-1990

0000000080002ef8 <i_2873>:
    80002ef8:	032a523b          	divuw	tp,s4,s2

0000000080002efc <i_2874>:
    80002efc:	15816b83          	lwu	s7,344(sp)

0000000080002f00 <i_2875>:
    80002f00:	0373fa33          	remu	s4,t2,s7

0000000080002f04 <i_2876>:
    80002f04:	ed412a23          	sw	s4,-300(sp)

0000000080002f08 <i_2877>:
    80002f08:	e4013803          	ld	a6,-448(sp)

0000000080002f0c <i_2878>:
    80002f0c:	03738463          	beq	t2,s7,80002f34 <i_2888>

0000000080002f10 <i_2879>:
    80002f10:	014a1863          	bne	s4,s4,80002f20 <i_2883>

0000000080002f14 <i_2880>:
    80002f14:	0aa12023          	sw	a0,160(sp)

0000000080002f18 <i_2881>:
    80002f18:	04f10503          	lb	a0,79(sp)

0000000080002f1c <i_2882>:
    80002f1c:	03211a03          	lh	s4,50(sp)

0000000080002f20 <i_2883>:
    80002f20:	01080a33          	add	s4,a6,a6

0000000080002f24 <i_2884>:
    80002f24:	030d433b          	divw	t1,s10,a6

0000000080002f28 <i_2885>:
    80002f28:	7f4a0513          	addi	a0,s4,2036

0000000080002f2c <i_2886>:
    80002f2c:	03450db3          	mul	s11,a0,s4

0000000080002f30 <i_2887>:
    80002f30:	03ba74bb          	remuw	s1,s4,s11

0000000080002f34 <i_2888>:
    80002f34:	010a0863          	beq	s4,a6,80002f44 <i_2892>

0000000080002f38 <i_2889>:
    80002f38:	03755bb3          	divu	s7,a0,s7

0000000080002f3c <i_2890>:
    80002f3c:	01bf8e33          	add	t3,t6,s11

0000000080002f40 <i_2891>:
    80002f40:	03713c23          	sd	s7,56(sp)

0000000080002f44 <i_2892>:
    80002f44:	07b10d23          	sb	s11,122(sp)

0000000080002f48 <i_2893>:
    80002f48:	01cbd663          	ble	t3,s7,80002f54 <i_2896>

0000000080002f4c <i_2894>:
    80002f4c:	03b86063          	bltu	a6,s11,80002f6c <i_2902>

0000000080002f50 <i_2895>:
    80002f50:	11b13023          	sd	s11,256(sp)

0000000080002f54 <i_2896>:
    80002f54:	00000013          	nop

0000000080002f58 <i_2897>:
    80002f58:	001b151b          	slliw	a0,s6,0x1

0000000080002f5c <i_2898>:
    80002f5c:	00000013          	nop

0000000080002f60 <i_2899>:
    80002f60:	e7b13823          	sd	s11,-400(sp)

0000000080002f64 <i_2900>:
    80002f64:	01600413          	li	s0,22

0000000080002f68 <i_2901>:
    80002f68:	408dd53b          	sraw	a0,s11,s0

0000000080002f6c <i_2902>:
    80002f6c:	0027d513          	srli	a0,a5,0x2

0000000080002f70 <i_2903>:
    80002f70:	00000013          	nop

0000000080002f74 <i_2904>:
    80002f74:	84b00793          	li	a5,-1973

0000000080002f78 <i_2905>:
    80002f78:	85700d93          	li	s11,-1961

0000000080002f7c <i_2906>:
    80002f7c:	03b40063          	beq	s0,s11,80002f9c <i_2913>

0000000080002f80 <i_2907>:
    80002f80:	010dc0b3          	xor	ra,s11,a6

0000000080002f84 <i_2908>:
    80002f84:	04113423          	sd	ra,72(sp)

0000000080002f88 <i_2909>:
    80002f88:	00178793          	addi	a5,a5,1
    80002f8c:	ffb7c8e3          	blt	a5,s11,80002f7c <i_2906>

0000000080002f90 <i_2910>:
    80002f90:	06013083          	ld	ra,96(sp)

0000000080002f94 <i_2911>:
    80002f94:	03613423          	sd	s6,40(sp)

0000000080002f98 <i_2912>:
    80002f98:	00ae0533          	add	a0,t3,a0

0000000080002f9c <i_2913>:
    80002f9c:	0217853b          	mulw	a0,a5,ra

0000000080002fa0 <i_2914>:
    80002fa0:	16816d83          	lwu	s11,360(sp)

0000000080002fa4 <i_2915>:
    80002fa4:	00157a63          	bleu	ra,a0,80002fb8 <i_2920>

0000000080002fa8 <i_2916>:
    80002fa8:	00144e63          	blt	s0,ra,80002fc4 <i_2923>

0000000080002fac <i_2917>:
    80002fac:	02110503          	lb	a0,33(sp)

0000000080002fb0 <i_2918>:
    80002fb0:	023404b3          	mul	s1,s0,gp

0000000080002fb4 <i_2919>:
    80002fb4:	00a6a533          	slt	a0,a3,a0

0000000080002fb8 <i_2920>:
    80002fb8:	fae11e83          	lh	t4,-82(sp)

0000000080002fbc <i_2921>:
    80002fbc:	f5416383          	lwu	t2,-172(sp)

0000000080002fc0 <i_2922>:
    80002fc0:	008ec663          	blt	t4,s0,80002fcc <i_2925>

0000000080002fc4 <i_2923>:
    80002fc4:	f2211e03          	lh	t3,-222(sp)

0000000080002fc8 <i_2924>:
    80002fc8:	01354c63          	blt	a0,s3,80002fe0 <i_2930>

0000000080002fcc <i_2925>:
    80002fcc:	f0111123          	sh	ra,-254(sp)

0000000080002fd0 <i_2926>:
    80002fd0:	eaa10ea3          	sb	a0,-323(sp)

0000000080002fd4 <i_2927>:
    80002fd4:	0fb11423          	sh	s11,232(sp)

0000000080002fd8 <i_2928>:
    80002fd8:	eb615303          	lhu	t1,-330(sp)

0000000080002fdc <i_2929>:
    80002fdc:	f0610e83          	lb	t4,-250(sp)

0000000080002fe0 <i_2930>:
    80002fe0:	e3815e03          	lhu	t3,-456(sp)

0000000080002fe4 <i_2931>:
    80002fe4:	004f1413          	slli	s0,t5,0x4

0000000080002fe8 <i_2932>:
    80002fe8:	03de1263          	bne	t3,t4,8000300c <i_2941>

0000000080002fec <i_2933>:
    80002fec:	e3c12e83          	lw	t4,-452(sp)

0000000080002ff0 <i_2934>:
    80002ff0:	03de8eb3          	mul	t4,t4,t4

0000000080002ff4 <i_2935>:
    80002ff4:	004e9b9b          	slliw	s7,t4,0x4

0000000080002ff8 <i_2936>:
    80002ff8:	05013e83          	ld	t4,80(sp)

0000000080002ffc <i_2937>:
    80002ffc:	efd11223          	sh	t4,-284(sp)

0000000080003000 <i_2938>:
    80003000:	022871bb          	remuw	gp,a6,sp

0000000080003004 <i_2939>:
    80003004:	00000013          	nop

0000000080003008 <i_2940>:
    80003008:	e7712a23          	sw	s7,-396(sp)

000000008000300c <i_2941>:
    8000300c:	03decebb          	divw	t4,t4,t4

0000000080003010 <i_2942>:
    80003010:	00000013          	nop

0000000080003014 <i_2943>:
    80003014:	80500413          	li	s0,-2043

0000000080003018 <i_2944>:
    80003018:	81900813          	li	a6,-2023

000000008000301c <i_2945>:
    8000301c:	0f412383          	lw	t2,244(sp)

0000000080003020 <i_2946>:
    80003020:	83de2d97          	auipc	s11,0x83de2

0000000080003024 <i_2947>:
    80003024:	41d18e33          	sub	t3,gp,t4

0000000080003028 <i_2948>:
    80003028:	15d13823          	sd	t4,336(sp)

000000008000302c <i_2949>:
    8000302c:	e7012e83          	lw	t4,-400(sp)

0000000080003030 <i_2950>:
    80003030:	11b12e23          	sw	s11,284(sp)

0000000080003034 <i_2951>:
    80003034:	e2812e03          	lw	t3,-472(sp)

0000000080003038 <i_2952>:
    80003038:	5563a537          	lui	a0,0x5563a

000000008000303c <i_2953>:
    8000303c:	03dee463          	bltu	t4,t4,80003064 <i_2962>

0000000080003040 <i_2954>:
    80003040:	00140413          	addi	s0,s0,1
    80003044:	fd046ce3          	bltu	s0,a6,8000301c <i_2945>

0000000080003048 <i_2955>:
    80003048:	00f3e513          	ori	a0,t2,15

000000008000304c <i_2956>:
    8000304c:	02aedeb3          	divu	t4,t4,a0

0000000080003050 <i_2957>:
    80003050:	003ed81b          	srliw	a6,t4,0x3

0000000080003054 <i_2958>:
    80003054:	02016503          	lwu	a0,32(sp)

0000000080003058 <i_2959>:
    80003058:	03d81833          	mulh	a6,a6,t4

000000008000305c <i_2960>:
    8000305c:	19910d83          	lb	s11,409(sp)

0000000080003060 <i_2961>:
    80003060:	1ac11203          	lh	tp,428(sp)

0000000080003064 <i_2962>:
    80003064:	e7211e83          	lh	t4,-398(sp)

0000000080003068 <i_2963>:
    80003068:	1d012e83          	lw	t4,464(sp)

000000008000306c <i_2964>:
    8000306c:	01d13023          	sd	t4,0(sp)

0000000080003070 <i_2965>:
    80003070:	1a215803          	lhu	a6,418(sp)

0000000080003074 <i_2966>:
    80003074:	f1013283          	ld	t0,-240(sp)

0000000080003078 <i_2967>:
    80003078:	00524a63          	blt	tp,t0,8000308c <i_2972>

000000008000307c <i_2968>:
    8000307c:	0bc10d83          	lb	s11,188(sp)

0000000080003080 <i_2969>:
    80003080:	00a00e93          	li	t4,10

0000000080003084 <i_2970>:
    80003084:	01de5e3b          	srlw	t3,t3,t4

0000000080003088 <i_2971>:
    80003088:	01bdedb3          	or	s11,s11,s11

000000008000308c <i_2972>:
    8000308c:	07c12d83          	lw	s11,124(sp)

0000000080003090 <i_2973>:
    80003090:	03bda0b3          	mulhsu	ra,s11,s11

0000000080003094 <i_2974>:
    80003094:	00000013          	nop

0000000080003098 <i_2975>:
    80003098:	74200e93          	li	t4,1858

000000008000309c <i_2976>:
    8000309c:	74c00293          	li	t0,1868

00000000800030a0 <i_2977>:
    800030a0:	02108db3          	mul	s11,ra,ra

00000000800030a4 <i_2978>:
    800030a4:	021dd463          	ble	ra,s11,800030cc <i_2987>

00000000800030a8 <i_2979>:
    800030a8:	01b0bdb3          	sltu	s11,ra,s11

00000000800030ac <i_2980>:
    800030ac:	f7013483          	ld	s1,-144(sp)

00000000800030b0 <i_2981>:
    800030b0:	0048581b          	srliw	a6,a6,0x4

00000000800030b4 <i_2982>:
    800030b4:	001e8e93          	addi	t4,t4,1
    800030b8:	fe5e94e3          	bne	t4,t0,800030a0 <i_2977>

00000000800030bc <i_2983>:
    800030bc:	4024dd93          	srai	s11,s1,0x2

00000000800030c0 <i_2984>:
    800030c0:	ed813a03          	ld	s4,-296(sp)

00000000800030c4 <i_2985>:
    800030c4:	0348053b          	mulw	a0,a6,s4

00000000800030c8 <i_2986>:
    800030c8:	1c013983          	ld	s3,448(sp)

00000000800030cc <i_2987>:
    800030cc:	e9b106a3          	sb	s11,-371(sp)

00000000800030d0 <i_2988>:
    800030d0:	99560d9b          	addiw	s11,a2,-1643

00000000800030d4 <i_2989>:
    800030d4:	01b99a63          	bne	s3,s11,800030e8 <i_2994>

00000000800030d8 <i_2990>:
    800030d8:	01900513          	li	a0,25

00000000800030dc <i_2991>:
    800030dc:	00a55dbb          	srlw	s11,a0,a0

00000000800030e0 <i_2992>:
    800030e0:	00000013          	nop

00000000800030e4 <i_2993>:
    800030e4:	19b13823          	sd	s11,400(sp)

00000000800030e8 <i_2994>:
    800030e8:	f9c16383          	lwu	t2,-100(sp)

00000000800030ec <i_2995>:
    800030ec:	01a00e93          	li	t4,26

00000000800030f0 <i_2996>:
    800030f0:	01d555bb          	srlw	a1,a0,t4

00000000800030f4 <i_2997>:
    800030f4:	76c00513          	li	a0,1900

00000000800030f8 <i_2998>:
    800030f8:	77c00b93          	li	s7,1916

00000000800030fc <i_2999>:
    800030fc:	00000013          	nop

0000000080003100 <i_3000>:
    80003100:	00150513          	addi	a0,a0,1 # 5563a001 <main-0x2a9c5fff>
    80003104:	feabfae3          	bleu	a0,s7,800030f8 <i_2998>

0000000080003108 <i_3001>:
    80003108:	02abf263          	bleu	a0,s7,8000312c <i_3010>

000000008000310c <i_3002>:
    8000310c:	00255513          	srli	a0,a0,0x2

0000000080003110 <i_3003>:
    80003110:	027d9463          	bne	s11,t2,80003138 <i_3013>

0000000080003114 <i_3004>:
    80003114:	01dde663          	bltu	s11,t4,80003120 <i_3007>

0000000080003118 <i_3005>:
    80003118:	05615983          	lhu	s3,86(sp)

000000008000311c <i_3006>:
    8000311c:	033bf063          	bleu	s3,s7,8000313c <i_3014>

0000000080003120 <i_3007>:
    80003120:	03850263          	beq	a0,s8,80003144 <i_3016>

0000000080003124 <i_3008>:
    80003124:	e9c12d83          	lw	s11,-356(sp)

0000000080003128 <i_3009>:
    80003128:	f2412583          	lw	a1,-220(sp)

000000008000312c <i_3010>:
    8000312c:	0015959b          	slliw	a1,a1,0x1

0000000080003130 <i_3011>:
    80003130:	00000013          	nop

0000000080003134 <i_3012>:
    80003134:	18016e03          	lwu	t3,384(sp)

0000000080003138 <i_3013>:
    80003138:	12b13023          	sd	a1,288(sp)

000000008000313c <i_3014>:
    8000313c:	005500b3          	add	ra,a0,t0

0000000080003140 <i_3015>:
    80003140:	00000013          	nop

0000000080003144 <i_3016>:
    80003144:	00000013          	nop

0000000080003148 <i_3017>:
    80003148:	0d414e03          	lbu	t3,212(sp)

000000008000314c <i_3018>:
    8000314c:	83300793          	li	a5,-1997

0000000080003150 <i_3019>:
    80003150:	84100513          	li	a0,-1983

0000000080003154 <i_3020>:
    80003154:	01f0d463          	ble	t6,ra,8000315c <i_3022>

0000000080003158 <i_3021>:
    80003158:	71e08593          	addi	a1,ra,1822

000000008000315c <i_3022>:
    8000315c:	00000013          	nop

0000000080003160 <i_3023>:
    80003160:	02a10ca3          	sb	a0,57(sp)

0000000080003164 <i_3024>:
    80003164:	fd013e03          	ld	t3,-48(sp)

0000000080003168 <i_3025>:
    80003168:	03ce40bb          	divw	ra,t3,t3

000000008000316c <i_3026>:
    8000316c:	00178793          	addi	a5,a5,1
    80003170:	fef512e3          	bne	a0,a5,80003154 <i_3020>

0000000080003174 <i_3027>:
    80003174:	00159d9b          	slliw	s11,a1,0x1

0000000080003178 <i_3028>:
    80003178:	00a0e463          	bltu	ra,a0,80003180 <i_3030>

000000008000317c <i_3029>:
    8000317c:	fce15083          	lhu	ra,-50(sp)

0000000080003180 <i_3030>:
    80003180:	03b0d0b3          	divu	ra,ra,s11

0000000080003184 <i_3031>:
    80003184:	01b08db3          	add	s11,ra,s11

0000000080003188 <i_3032>:
    80003188:	00b00a13          	li	s4,11

000000008000318c <i_3033>:
    8000318c:	014094bb          	sllw	s1,ra,s4

0000000080003190 <i_3034>:
    80003190:	85600093          	li	ra,-1962

0000000080003194 <i_3035>:
    80003194:	85f00193          	li	gp,-1953

0000000080003198 <i_3036>:
    80003198:	021dd263          	ble	ra,s11,800031bc <i_3044>

000000008000319c <i_3037>:
    8000319c:	403282bb          	subw	t0,t0,gp

00000000800031a0 <i_3038>:
    800031a0:	f7514283          	lbu	t0,-139(sp)

00000000800031a4 <i_3039>:
    800031a4:	0052da63          	ble	t0,t0,800031b8 <i_3043>

00000000800031a8 <i_3040>:
    800031a8:	00108093          	addi	ra,ra,1
    800031ac:	fe11f4e3          	bleu	ra,gp,80003194 <i_3035>

00000000800031b0 <i_3041>:
    800031b0:	02529463          	bne	t0,t0,800031d8 <i_3051>

00000000800031b4 <i_3042>:
    800031b4:	0052d463          	ble	t0,t0,800031bc <i_3044>

00000000800031b8 <i_3043>:
    800031b8:	04610e83          	lb	t4,70(sp)

00000000800031bc <i_3044>:
    800031bc:	00400e93          	li	t4,4

00000000800031c0 <i_3045>:
    800031c0:	41d1d1bb          	sraw	gp,gp,t4

00000000800031c4 <i_3046>:
    800031c4:	00000013          	nop

00000000800031c8 <i_3047>:
    800031c8:	e8816283          	lwu	t0,-376(sp)

00000000800031cc <i_3048>:
    800031cc:	026282b3          	mul	t0,t0,t1

00000000800031d0 <i_3049>:
    800031d0:	00000013          	nop

00000000800031d4 <i_3050>:
    800031d4:	00161513          	slli	a0,a2,0x1

00000000800031d8 <i_3051>:
    800031d8:	14334313          	xori	t1,t1,323

00000000800031dc <i_3052>:
    800031dc:	0d013583          	ld	a1,208(sp)

00000000800031e0 <i_3053>:
    800031e0:	86e00993          	li	s3,-1938

00000000800031e4 <i_3054>:
    800031e4:	87100193          	li	gp,-1935

00000000800031e8 <i_3055>:
    800031e8:	0065f333          	and	t1,a1,t1

00000000800031ec <i_3056>:
    800031ec:	ec010b83          	lb	s7,-320(sp)

00000000800031f0 <i_3057>:
    800031f0:	14d10923          	sb	a3,338(sp)

00000000800031f4 <i_3058>:
    800031f4:	14612a23          	sw	t1,340(sp)

00000000800031f8 <i_3059>:
    800031f8:	ec610d23          	sb	t1,-294(sp)

00000000800031fc <i_3060>:
    800031fc:	00198993          	addi	s3,s3,1 # 7c6bbcb9 <main-0x3944347>
    80003200:	fe39e4e3          	bltu	s3,gp,800031e8 <i_3055>

0000000080003204 <i_3061>:
    80003204:	026b9333          	mulh	t1,s7,t1

0000000080003208 <i_3062>:
    80003208:	017b9e63          	bne	s7,s7,80003224 <i_3069>

000000008000320c <i_3063>:
    8000320c:	002d119b          	slliw	gp,s10,0x2

0000000080003210 <i_3064>:
    80003210:	5dd1be13          	sltiu	t3,gp,1501

0000000080003214 <i_3065>:
    80003214:	0175fa63          	bleu	s7,a1,80003228 <i_3070>

0000000080003218 <i_3066>:
    80003218:	10811b83          	lh	s7,264(sp)

000000008000321c <i_3067>:
    8000321c:	11c15183          	lhu	gp,284(sp)

0000000080003220 <i_3068>:
    80003220:	02653bb3          	mulhu	s7,a0,t1

0000000080003224 <i_3069>:
    80003224:	02635eb3          	divu	t4,t1,t1

0000000080003228 <i_3070>:
    80003228:	01800313          	li	t1,24

000000008000322c <i_3071>:
    8000322c:	00691333          	sll	t1,s2,t1

0000000080003230 <i_3072>:
    80003230:	02637a33          	remu	s4,t1,t1

0000000080003234 <i_3073>:
    80003234:	004a5093          	srli	ra,s4,0x4

0000000080003238 <i_3074>:
    80003238:	002e999b          	slliw	s3,t4,0x2

000000008000323c <i_3075>:
    8000323c:	01b00813          	li	a6,27

0000000080003240 <i_3076>:
    80003240:	410250bb          	sraw	ra,tp,a6

0000000080003244 <i_3077>:
    80003244:	fe911b23          	sh	s1,-10(sp)

0000000080003248 <i_3078>:
    80003248:	00134463          	blt	t1,ra,80003250 <i_3080>

000000008000324c <i_3079>:
    8000324c:	15010623          	sb	a6,332(sp)

0000000080003250 <i_3080>:
    80003250:	a6a3031b          	addiw	t1,t1,-1430

0000000080003254 <i_3081>:
    80003254:	02011583          	lh	a1,32(sp)

0000000080003258 <i_3082>:
    80003258:	00180e63          	beq	a6,ra,80003274 <i_3089>

000000008000325c <i_3083>:
    8000325c:	0215a0b3          	mulhsu	ra,a1,ra

0000000080003260 <i_3084>:
    80003260:	02a13423          	sd	a0,40(sp)

0000000080003264 <i_3085>:
    80003264:	ed215083          	lhu	ra,-302(sp)

0000000080003268 <i_3086>:
    80003268:	f4416503          	lwu	a0,-188(sp)

000000008000326c <i_3087>:
    8000326c:	00110423          	sb	ra,8(sp)

0000000080003270 <i_3088>:
    80003270:	ea811803          	lh	a6,-344(sp)

0000000080003274 <i_3089>:
    80003274:	001830b3          	sltu	ra,a6,ra

0000000080003278 <i_3090>:
    80003278:	f8112823          	sw	ra,-112(sp)

000000008000327c <i_3091>:
    8000327c:	4041d19b          	sraiw	gp,gp,0x4

0000000080003280 <i_3092>:
    80003280:	2c90f393          	andi	t2,ra,713

0000000080003284 <i_3093>:
    80003284:	032867b3          	rem	a5,a6,s2

0000000080003288 <i_3094>:
    80003288:	01019c63          	bne	gp,a6,800032a0 <i_3100>

000000008000328c <i_3095>:
    8000328c:	01700b93          	li	s7,23

0000000080003290 <i_3096>:
    80003290:	017c9dbb          	sllw	s11,s9,s7

0000000080003294 <i_3097>:
    80003294:	036da7b3          	mulhsu	a5,s11,s6

0000000080003298 <i_3098>:
    80003298:	be457493          	andi	s1,a0,-1052

000000008000329c <i_3099>:
    8000329c:	dafdb813          	sltiu	a6,s11,-593

00000000800032a0 <i_3100>:
    800032a0:	021b0db3          	mul	s11,s6,ra

00000000800032a4 <i_3101>:
    800032a4:	c017b493          	sltiu	s1,a5,-1023

00000000800032a8 <i_3102>:
    800032a8:	0071c533          	xor	a0,gp,t2

00000000800032ac <i_3103>:
    800032ac:	02c1483b          	divw	a6,sp,a2

00000000800032b0 <i_3104>:
    800032b0:	0c111e23          	sh	ra,220(sp)

00000000800032b4 <i_3105>:
    800032b4:	02100393          	li	t2,33

00000000800032b8 <i_3106>:
    800032b8:	007d9533          	sll	a0,s11,t2

00000000800032bc <i_3107>:
    800032bc:	87c00a13          	li	s4,-1924

00000000800032c0 <i_3108>:
    800032c0:	88b00313          	li	t1,-1909

00000000800032c4 <i_3109>:
    800032c4:	03b500bb          	mulw	ra,a0,s11

00000000800032c8 <i_3110>:
    800032c8:	54938513          	addi	a0,t2,1353

00000000800032cc <i_3111>:
    800032cc:	e7211403          	lh	s0,-398(sp)

00000000800032d0 <i_3112>:
    800032d0:	04113823          	sd	ra,80(sp)

00000000800032d4 <i_3113>:
    800032d4:	0ea10ba3          	sb	a0,247(sp)

00000000800032d8 <i_3114>:
    800032d8:	4010d21b          	sraiw	tp,ra,0x1

00000000800032dc <i_3115>:
    800032dc:	12a12e23          	sw	a0,316(sp)

00000000800032e0 <i_3116>:
    800032e0:	00728a63          	beq	t0,t2,800032f4 <i_3120>

00000000800032e4 <i_3117>:
    800032e4:	001a0a13          	addi	s4,s4,1
    800032e8:	fd435ee3          	ble	s4,t1,800032c4 <i_3109>

00000000800032ec <i_3118>:
    800032ec:	e3314083          	lbu	ra,-461(sp)

00000000800032f0 <i_3119>:
    800032f0:	02d00393          	li	t2,45

00000000800032f4 <i_3120>:
    800032f4:	007090b3          	sll	ra,ra,t2

00000000800032f8 <i_3121>:
    800032f8:	f8a10da3          	sb	a0,-101(sp)

00000000800032fc <i_3122>:
    800032fc:	00339393          	slli	t2,t2,0x3

0000000080003300 <i_3123>:
    80003300:	0043e663          	bltu	t2,tp,8000330c <i_3126>

0000000080003304 <i_3124>:
    80003304:	00324233          	xor	tp,tp,gp

0000000080003308 <i_3125>:
    80003308:	00000013          	nop

000000008000330c <i_3126>:
    8000330c:	00000013          	nop

0000000080003310 <i_3127>:
    80003310:	00000013          	nop

0000000080003314 <i_3128>:
    80003314:	87200413          	li	s0,-1934

0000000080003318 <i_3129>:
    80003318:	88600213          	li	tp,-1914

000000008000331c <i_3130>:
    8000331c:	00000013          	nop

0000000080003320 <i_3131>:
    80003320:	1c412983          	lw	s3,452(sp)

0000000080003324 <i_3132>:
    80003324:	1dd10383          	lb	t2,477(sp)

0000000080003328 <i_3133>:
    80003328:	e5415303          	lhu	t1,-428(sp)

000000008000332c <i_3134>:
    8000332c:	d0238313          	addi	t1,t2,-766

0000000080003330 <i_3135>:
    80003330:	02725533          	divu	a0,tp,t2

0000000080003334 <i_3136>:
    80003334:	00140413          	addi	s0,s0,1
    80003338:	fe4442e3          	blt	s0,tp,8000331c <i_3130>

000000008000333c <i_3137>:
    8000333c:	ea415183          	lhu	gp,-348(sp)

0000000080003340 <i_3138>:
    80003340:	1c610fa3          	sb	t1,479(sp)

0000000080003344 <i_3139>:
    80003344:	00000013          	nop

0000000080003348 <i_3140>:
    80003348:	8bc00393          	li	t2,-1860

000000008000334c <i_3141>:
    8000334c:	8c000a13          	li	s4,-1856

0000000080003350 <i_3142>:
    80003350:	00d7ea63          	bltu	a5,a3,80003364 <i_3147>

0000000080003354 <i_3143>:
    80003354:	12412223          	sw	tp,292(sp)

0000000080003358 <i_3144>:
    80003358:	007d8233          	add	tp,s11,t2

000000008000335c <i_3145>:
    8000335c:	1b411823          	sh	s4,432(sp)

0000000080003360 <i_3146>:
    80003360:	1dc15203          	lhu	tp,476(sp)

0000000080003364 <i_3147>:
    80003364:	f9016d83          	lwu	s11,-112(sp)

0000000080003368 <i_3148>:
    80003368:	0342633b          	remw	t1,tp,s4

000000008000336c <i_3149>:
    8000336c:	e3314083          	lbu	ra,-461(sp)

0000000080003370 <i_3150>:
    80003370:	024d833b          	mulw	t1,s11,tp

0000000080003374 <i_3151>:
    80003374:	07f6eb93          	ori	s7,a3,127

0000000080003378 <i_3152>:
    80003378:	c8135db7          	lui	s11,0xc8135

000000008000337c <i_3153>:
    8000337c:	00000013          	nop

0000000080003380 <i_3154>:
    80003380:	004ddb9b          	srliw	s7,s11,0x4

0000000080003384 <i_3155>:
    80003384:	097105a3          	sb	s7,139(sp)

0000000080003388 <i_3156>:
    80003388:	01b8a1b3          	slt	gp,a7,s11

000000008000338c <i_3157>:
    8000338c:	00138393          	addi	t2,t2,1
    80003390:	fd43c0e3          	blt	t2,s4,80003350 <i_3142>

0000000080003394 <i_3158>:
    80003394:	0352fdb3          	remu	s11,t0,s5

0000000080003398 <i_3159>:
    80003398:	039da2b3          	mulhsu	t0,s11,s9

000000008000339c <i_3160>:
    8000339c:	12013203          	ld	tp,288(sp)

00000000800033a0 <i_3161>:
    800033a0:	00328463          	beq	t0,gp,800033a8 <i_3163>

00000000800033a4 <i_3162>:
    800033a4:	01b1e263          	bltu	gp,s11,800033a8 <i_3163>

00000000800033a8 <i_3163>:
    800033a8:	ff814803          	lbu	a6,-8(sp)

00000000800033ac <i_3164>:
    800033ac:	08511323          	sh	t0,134(sp)

00000000800033b0 <i_3165>:
    800033b0:	f3e10203          	lb	tp,-194(sp)

00000000800033b4 <i_3166>:
    800033b4:	17e14283          	lbu	t0,382(sp)

00000000800033b8 <i_3167>:
    800033b8:	0c4105a3          	sb	tp,203(sp)

00000000800033bc <i_3168>:
    800033bc:	02be02b3          	mul	t0,t3,a1

00000000800033c0 <i_3169>:
    800033c0:	76800593          	li	a1,1896

00000000800033c4 <i_3170>:
    800033c4:	77900e13          	li	t3,1913

00000000800033c8 <i_3171>:
    800033c8:	00158593          	addi	a1,a1,1
    800033cc:	ffc5eee3          	bltu	a1,t3,800033c8 <i_3171>

00000000800033d0 <i_3172>:
    800033d0:	01229a63          	bne	t0,s2,800033e4 <i_3177>

00000000800033d4 <i_3173>:
    800033d4:	e2813583          	ld	a1,-472(sp)

00000000800033d8 <i_3174>:
    800033d8:	0055e463          	bltu	a1,t0,800033e0 <i_3176>

00000000800033dc <i_3175>:
    800033dc:	e4611403          	lh	s0,-442(sp)

00000000800033e0 <i_3176>:
    800033e0:	025235b3          	mulhu	a1,tp,t0

00000000800033e4 <i_3177>:
    800033e4:	0fc13c23          	sd	t3,248(sp)

00000000800033e8 <i_3178>:
    800033e8:	f1816803          	lwu	a6,-232(sp)

00000000800033ec <i_3179>:
    800033ec:	0b510203          	lb	tp,181(sp)

00000000800033f0 <i_3180>:
    800033f0:	00500313          	li	t1,5

00000000800033f4 <i_3181>:
    800033f4:	00621bbb          	sllw	s7,tp,t1

00000000800033f8 <i_3182>:
    800033f8:	0c114783          	lbu	a5,193(sp)

00000000800033fc <i_3183>:
    800033fc:	72047413          	andi	s0,s0,1824

0000000080003400 <i_3184>:
    80003400:	01f00313          	li	t1,31

0000000080003404 <i_3185>:
    80003404:	00641bbb          	sllw	s7,s0,t1

0000000080003408 <i_3186>:
    80003408:	1a613023          	sd	t1,416(sp)

000000008000340c <i_3187>:
    8000340c:	006e7333          	and	t1,t3,t1

0000000080003410 <i_3188>:
    80003410:	02631463          	bne	t1,t1,80003438 <i_3198>

0000000080003414 <i_3189>:
    80003414:	4089833b          	subw	t1,s3,s0

0000000080003418 <i_3190>:
    80003418:	e2810aa3          	sb	s0,-459(sp)

000000008000341c <i_3191>:
    8000341c:	00d00493          	li	s1,13

0000000080003420 <i_3192>:
    80003420:	009d153b          	sllw	a0,s10,s1

0000000080003424 <i_3193>:
    80003424:	00251813          	slli	a6,a0,0x2

0000000080003428 <i_3194>:
    80003428:	00000013          	nop

000000008000342c <i_3195>:
    8000342c:	026240b3          	div	ra,tp,t1

0000000080003430 <i_3196>:
    80003430:	00710223          	sb	t2,4(sp)

0000000080003434 <i_3197>:
    80003434:	14512a23          	sw	t0,340(sp)

0000000080003438 <i_3198>:
    80003438:	00000013          	nop

000000008000343c <i_3199>:
    8000343c:	0b016483          	lwu	s1,176(sp)

0000000080003440 <i_3200>:
    80003440:	81a00393          	li	t2,-2022

0000000080003444 <i_3201>:
    80003444:	82900413          	li	s0,-2007

0000000080003448 <i_3202>:
    80003448:	f2813583          	ld	a1,-216(sp)

000000008000344c <i_3203>:
    8000344c:	02a3c663          	blt	t2,a0,80003478 <i_3213>

0000000080003450 <i_3204>:
    80003450:	e4011983          	lh	s3,-448(sp)

0000000080003454 <i_3205>:
    80003454:	413801bb          	subw	gp,a6,s3

0000000080003458 <i_3206>:
    80003458:	f8c12803          	lw	a6,-116(sp)

000000008000345c <i_3207>:
    8000345c:	01382833          	slt	a6,a6,s3

0000000080003460 <i_3208>:
    80003460:	01384c63          	blt	a6,s3,80003478 <i_3213>

0000000080003464 <i_3209>:
    80003464:	00138393          	addi	t2,t2,1
    80003468:	fe7470e3          	bleu	t2,s0,80003448 <i_3202>

000000008000346c <i_3210>:
    8000346c:	0c211783          	lh	a5,194(sp)

0000000080003470 <i_3211>:
    80003470:	0109d663          	ble	a6,s3,8000347c <i_3214>

0000000080003474 <i_3212>:
    80003474:	958b8b93          	addi	s7,s7,-1704 # 370d8474 <main-0x48f27b8c>

0000000080003478 <i_3213>:
    80003478:	00f7f663          	bleu	a5,a5,80003484 <i_3216>

000000008000347c <i_3214>:
    8000347c:	00f98c63          	beq	s3,a5,80003494 <i_3220>

0000000080003480 <i_3215>:
    80003480:	08813783          	ld	a5,136(sp)

0000000080003484 <i_3216>:
    80003484:	0fc16983          	lwu	s3,252(sp)

0000000080003488 <i_3217>:
    80003488:	403cd79b          	sraiw	a5,s9,0x3

000000008000348c <i_3218>:
    8000348c:	f6c12783          	lw	a5,-148(sp)

0000000080003490 <i_3219>:
    80003490:	007d33b3          	sltu	t2,s10,t2

0000000080003494 <i_3220>:
    80003494:	0ea13823          	sd	a0,240(sp)

0000000080003498 <i_3221>:
    80003498:	1b612623          	sw	s6,428(sp)

000000008000349c <i_3222>:
    8000349c:	16811c23          	sh	s0,376(sp)

00000000800034a0 <i_3223>:
    800034a0:	00f2ec63          	bltu	t0,a5,800034b8 <i_3229>

00000000800034a4 <i_3224>:
    800034a4:	00f38c63          	beq	t2,a5,800034bc <i_3230>

00000000800034a8 <i_3225>:
    800034a8:	d953a793          	slti	a5,t2,-619

00000000800034ac <i_3226>:
    800034ac:	4047d29b          	sraiw	t0,a5,0x4

00000000800034b0 <i_3227>:
    800034b0:	003f149b          	slliw	s1,t5,0x3

00000000800034b4 <i_3228>:
    800034b4:	065109a3          	sb	t0,115(sp)

00000000800034b8 <i_3229>:
    800034b8:	10513423          	sd	t0,264(sp)

00000000800034bc <i_3230>:
    800034bc:	0077ee63          	bltu	a5,t2,800034d8 <i_3237>

00000000800034c0 <i_3231>:
    800034c0:	00f2f663          	bleu	a5,t0,800034cc <i_3234>

00000000800034c4 <i_3232>:
    800034c4:	00300793          	li	a5,3

00000000800034c8 <i_3233>:
    800034c8:	40f4da3b          	sraw	s4,s1,a5

00000000800034cc <i_3234>:
    800034cc:	0292f263          	bleu	s1,t0,800034f0 <i_3243>

00000000800034d0 <i_3235>:
    800034d0:	fa810483          	lb	s1,-88(sp)

00000000800034d4 <i_3236>:
    800034d4:	0338e4bb          	remw	s1,a7,s3

00000000800034d8 <i_3237>:
    800034d8:	0294b4b3          	mulhu	s1,s1,s1

00000000800034dc <i_3238>:
    800034dc:	14612c23          	sw	t1,344(sp)

00000000800034e0 <i_3239>:
    800034e0:	0294c263          	blt	s1,s1,80003504 <i_3248>

00000000800034e4 <i_3240>:
    800034e4:	0094d463          	ble	s1,s1,800034ec <i_3242>

00000000800034e8 <i_3241>:
    800034e8:	e6b14503          	lbu	a0,-405(sp)

00000000800034ec <i_3242>:
    800034ec:	00950533          	add	a0,a0,s1

00000000800034f0 <i_3243>:
    800034f0:	19812503          	lw	a0,408(sp)

00000000800034f4 <i_3244>:
    800034f4:	f1813503          	ld	a0,-232(sp)

00000000800034f8 <i_3245>:
    800034f8:	fca11f23          	sh	a0,-34(sp)

00000000800034fc <i_3246>:
    800034fc:	02a50063          	beq	a0,a0,8000351c <i_3254>

0000000080003500 <i_3247>:
    80003500:	02a49e33          	mulh	t3,s1,a0

0000000080003504 <i_3248>:
    80003504:	40a18333          	sub	t1,gp,a0

0000000080003508 <i_3249>:
    80003508:	f0013a03          	ld	s4,-256(sp)

000000008000350c <i_3250>:
    8000350c:	00ae0c63          	beq	t3,a0,80003524 <i_3256>

0000000080003510 <i_3251>:
    80003510:	1ca13c23          	sd	a0,472(sp)

0000000080003514 <i_3252>:
    80003514:	00a383b3          	add	t2,t2,a0

0000000080003518 <i_3253>:
    80003518:	02a3e063          	bltu	t2,a0,80003538 <i_3261>

000000008000351c <i_3254>:
    8000351c:	12a12a23          	sw	a0,308(sp)

0000000080003520 <i_3255>:
    80003520:	00a50a63          	beq	a0,a0,80003534 <i_3260>

0000000080003524 <i_3256>:
    80003524:	02a36bb3          	rem	s7,t1,a0

0000000080003528 <i_3257>:
    80003528:	e5510203          	lb	tp,-427(sp)

000000008000352c <i_3258>:
    8000352c:	00ae8e33          	add	t3,t4,a0

0000000080003530 <i_3259>:
    80003530:	01ca1663          	bne	s4,t3,8000353c <i_3262>

0000000080003534 <i_3260>:
    80003534:	efa11223          	sh	s10,-284(sp)

0000000080003538 <i_3261>:
    80003538:	1a812503          	lw	a0,424(sp)

000000008000353c <i_3262>:
    8000353c:	00636a63          	bltu	t1,t1,80003550 <i_3267>

0000000080003540 <i_3263>:
    80003540:	00331313          	slli	t1,t1,0x3

0000000080003544 <i_3264>:
    80003544:	01c35463          	ble	t3,t1,8000354c <i_3266>

0000000080003548 <i_3265>:
    80003548:	fdc11323          	sh	t3,-58(sp)

000000008000354c <i_3266>:
    8000354c:	18c16503          	lwu	a0,396(sp)

0000000080003550 <i_3267>:
    80003550:	01c20bb3          	add	s7,tp,t3

0000000080003554 <i_3268>:
    80003554:	014e0a33          	add	s4,t3,s4

0000000080003558 <i_3269>:
    80003558:	03c49333          	mulh	t1,s1,t3

000000008000355c <i_3270>:
    8000355c:	029221b3          	mulhsu	gp,tp,s1

0000000080003560 <i_3271>:
    80003560:	88c00413          	li	s0,-1908

0000000080003564 <i_3272>:
    80003564:	89c00493          	li	s1,-1892

0000000080003568 <i_3273>:
    80003568:	07714583          	lbu	a1,119(sp)

000000008000356c <i_3274>:
    8000356c:	985e019b          	addiw	gp,t3,-1659

0000000080003570 <i_3275>:
    80003570:	00000013          	nop

0000000080003574 <i_3276>:
    80003574:	00c12303          	lw	t1,12(sp)

0000000080003578 <i_3277>:
    80003578:	0a813303          	ld	t1,168(sp)

000000008000357c <i_3278>:
    8000357c:	00000013          	nop

0000000080003580 <i_3279>:
    80003580:	e7914983          	lbu	s3,-391(sp)

0000000080003584 <i_3280>:
    80003584:	00000013          	nop

0000000080003588 <i_3281>:
    80003588:	fc813a03          	ld	s4,-56(sp)

000000008000358c <i_3282>:
    8000358c:	e3113823          	sd	a7,-464(sp)

0000000080003590 <i_3283>:
    80003590:	fae52513          	slti	a0,a0,-82

0000000080003594 <i_3284>:
    80003594:	00140413          	addi	s0,s0,1
    80003598:	fc84d8e3          	ble	s0,s1,80003568 <i_3273>

000000008000359c <i_3285>:
    8000359c:	0131f863          	bleu	s3,gp,800035ac <i_3289>

00000000800035a0 <i_3286>:
    800035a0:	02912423          	sw	s1,40(sp)

00000000800035a4 <i_3287>:
    800035a4:	024a03bb          	mulw	t2,s4,tp

00000000800035a8 <i_3288>:
    800035a8:	e8816203          	lwu	tp,-376(sp)

00000000800035ac <i_3289>:
    800035ac:	3633e393          	ori	t2,t2,867

00000000800035b0 <i_3290>:
    800035b0:	02739333          	mulh	t1,t2,t2

00000000800035b4 <i_3291>:
    800035b4:	02012483          	lw	s1,32(sp)

00000000800035b8 <i_3292>:
    800035b8:	00b48e63          	beq	s1,a1,800035d4 <i_3299>

00000000800035bc <i_3293>:
    800035bc:	d434be93          	sltiu	t4,s1,-701

00000000800035c0 <i_3294>:
    800035c0:	d24ec313          	xori	t1,t4,-732

00000000800035c4 <i_3295>:
    800035c4:	41f48313          	addi	t1,s1,1055 # 2b65c41f <main-0x549a3be1>

00000000800035c8 <i_3296>:
    800035c8:	01411483          	lh	s1,20(sp)

00000000800035cc <i_3297>:
    800035cc:	02d4f4bb          	remuw	s1,s1,a3

00000000800035d0 <i_3298>:
    800035d0:	03d8e333          	rem	t1,a7,t4

00000000800035d4 <i_3299>:
    800035d4:	02415b83          	lhu	s7,36(sp)

00000000800035d8 <i_3300>:
    800035d8:	fd910303          	lb	t1,-39(sp)

00000000800035dc <i_3301>:
    800035dc:	e7b10483          	lb	s1,-389(sp)

00000000800035e0 <i_3302>:
    800035e0:	f2612c23          	sw	t1,-200(sp)

00000000800035e4 <i_3303>:
    800035e4:	008c6663          	bltu	s8,s0,800035f0 <i_3306>

00000000800035e8 <i_3304>:
    800035e8:	ef712223          	sw	s7,-284(sp)

00000000800035ec <i_3305>:
    800035ec:	03d36063          	bltu	t1,t4,8000360c <i_3313>

00000000800035f0 <i_3306>:
    800035f0:	1dd103a3          	sb	t4,455(sp)

00000000800035f4 <i_3307>:
    800035f4:	f6c16e83          	lwu	t4,-148(sp)

00000000800035f8 <i_3308>:
    800035f8:	06411123          	sh	tp,98(sp)

00000000800035fc <i_3309>:
    800035fc:	fa016203          	lwu	tp,-96(sp)

0000000080003600 <i_3310>:
    80003600:	671b8e97          	auipc	t4,0x671b8

0000000080003604 <i_3311>:
    80003604:	13012203          	lw	tp,304(sp)

0000000080003608 <i_3312>:
    80003608:	08c15203          	lhu	tp,140(sp)

000000008000360c <i_3313>:
    8000360c:	16814583          	lbu	a1,360(sp)

0000000080003610 <i_3314>:
    80003610:	01725663          	ble	s7,tp,8000361c <i_3317>

0000000080003614 <i_3315>:
    80003614:	aac5ae93          	slti	t4,a1,-1364

0000000080003618 <i_3316>:
    80003618:	15010583          	lb	a1,336(sp)

000000008000361c <i_3317>:
    8000361c:	04813583          	ld	a1,72(sp)

0000000080003620 <i_3318>:
    80003620:	03013e83          	ld	t4,48(sp)

0000000080003624 <i_3319>:
    80003624:	ecc12183          	lw	gp,-308(sp)

0000000080003628 <i_3320>:
    80003628:	401582b3          	sub	t0,a1,ra

000000008000362c <i_3321>:
    8000362c:	74b00593          	li	a1,1867

0000000080003630 <i_3322>:
    80003630:	75d00e93          	li	t4,1885

0000000080003634 <i_3323>:
    80003634:	1c313c23          	sd	gp,472(sp)

0000000080003638 <i_3324>:
    80003638:	02e15083          	lhu	ra,46(sp)

000000008000363c <i_3325>:
    8000363c:	00000013          	nop

0000000080003640 <i_3326>:
    80003640:	08312423          	sw	gp,136(sp)

0000000080003644 <i_3327>:
    80003644:	024094b3          	mulh	s1,ra,tp

0000000080003648 <i_3328>:
    80003648:	11314503          	lbu	a0,275(sp)

000000008000364c <i_3329>:
    8000364c:	10111823          	sh	ra,272(sp)

0000000080003650 <i_3330>:
    80003650:	eea10283          	lb	t0,-278(sp)

0000000080003654 <i_3331>:
    80003654:	00158593          	addi	a1,a1,1
    80003658:	fcbedee3          	ble	a1,t4,80003634 <i_3323>

000000008000365c <i_3332>:
    8000365c:	00000013          	nop

0000000080003660 <i_3333>:
    80003660:	0f016403          	lwu	s0,240(sp)

0000000080003664 <i_3334>:
    80003664:	7ce00d93          	li	s11,1998

0000000080003668 <i_3335>:
    80003668:	7e200513          	li	a0,2018

000000008000366c <i_3336>:
    8000366c:	00000013          	nop

0000000080003670 <i_3337>:
    80003670:	fbd11e23          	sh	t4,-68(sp)

0000000080003674 <i_3338>:
    80003674:	7c800493          	li	s1,1992

0000000080003678 <i_3339>:
    80003678:	7d800313          	li	t1,2008

000000008000367c <i_3340>:
    8000367c:	41d50eb3          	sub	t4,a0,t4

0000000080003680 <i_3341>:
    80003680:	c5d8b2b7          	lui	t0,0xc5d8b

0000000080003684 <i_3342>:
    80003684:	00148493          	addi	s1,s1,1
    80003688:	fe649ae3          	bne	s1,t1,8000367c <i_3340>

000000008000368c <i_3343>:
    8000368c:	03d2beb3          	mulhu	t4,t0,t4

0000000080003690 <i_3344>:
    80003690:	001d8d93          	addi	s11,s11,1 # ffffffffc8135001 <_end+0xffffffff48124bed>
    80003694:	fdb57ce3          	bleu	s11,a0,8000366c <i_3336>

0000000080003698 <i_3345>:
    80003698:	04813e83          	ld	t4,72(sp)

000000008000369c <i_3346>:
    8000369c:	0212e2bb          	remw	t0,t0,ra

00000000800036a0 <i_3347>:
    800036a0:	01d2f4b3          	and	s1,t0,t4

00000000800036a4 <i_3348>:
    800036a4:	83b00e93          	li	t4,-1989

00000000800036a8 <i_3349>:
    800036a8:	84700193          	li	gp,-1977

00000000800036ac <i_3350>:
    800036ac:	023494b3          	mulh	s1,s1,gp

00000000800036b0 <i_3351>:
    800036b0:	00329293          	slli	t0,t0,0x3

00000000800036b4 <i_3352>:
    800036b4:	00910263          	beq	sp,s1,800036b8 <i_3353>

00000000800036b8 <i_3353>:
    800036b8:	00000013          	nop

00000000800036bc <i_3354>:
    800036bc:	404ed81b          	sraiw	a6,t4,0x4

00000000800036c0 <i_3355>:
    800036c0:	409285bb          	subw	a1,t0,s1

00000000800036c4 <i_3356>:
    800036c4:	001e8e93          	addi	t4,t4,1 # e71bb601 <_end+0x671ab1ed>
    800036c8:	ffd1d2e3          	ble	t4,gp,800036ac <i_3350>

00000000800036cc <i_3357>:
    800036cc:	00000013          	nop

00000000800036d0 <i_3358>:
    800036d0:	01900493          	li	s1,25

00000000800036d4 <i_3359>:
    800036d4:	4091d233          	sra	tp,gp,s1

00000000800036d8 <i_3360>:
    800036d8:	ebe10283          	lb	t0,-322(sp)

00000000800036dc <i_3361>:
    800036dc:	ea813b83          	ld	s7,-344(sp)

00000000800036e0 <i_3362>:
    800036e0:	10912823          	sw	s1,272(sp)

00000000800036e4 <i_3363>:
    800036e4:	ebe11203          	lh	tp,-322(sp)

00000000800036e8 <i_3364>:
    800036e8:	15412983          	lw	s3,340(sp)

00000000800036ec <i_3365>:
    800036ec:	04414483          	lbu	s1,68(sp)

00000000800036f0 <i_3366>:
    800036f0:	e9811583          	lh	a1,-360(sp)

00000000800036f4 <i_3367>:
    800036f4:	f0012e03          	lw	t3,-256(sp)

00000000800036f8 <i_3368>:
    800036f8:	fdc12223          	sw	t3,-60(sp)

00000000800036fc <i_3369>:
    800036fc:	09a14503          	lbu	a0,154(sp)

0000000080003700 <i_3370>:
    80003700:	14b13c23          	sd	a1,344(sp)

0000000080003704 <i_3371>:
    80003704:	ff016983          	lwu	s3,-16(sp)

0000000080003708 <i_3372>:
    80003708:	0045e863          	bltu	a1,tp,80003718 <i_3376>

000000008000370c <i_3373>:
    8000370c:	0e913c23          	sd	s1,248(sp)

0000000080003710 <i_3374>:
    80003710:	037233b3          	mulhu	t2,tp,s7

0000000080003714 <i_3375>:
    80003714:	00520a63          	beq	tp,t0,80003728 <i_3380>

0000000080003718 <i_3376>:
    80003718:	7be0f4b7          	lui	s1,0x7be0f

000000008000371c <i_3377>:
    8000371c:	feb12823          	sw	a1,-16(sp)

0000000080003720 <i_3378>:
    80003720:	008bdc63          	ble	s0,s7,80003738 <i_3384>

0000000080003724 <i_3379>:
    80003724:	b273c293          	xori	t0,t2,-1241

0000000080003728 <i_3380>:
    80003728:	14e54e93          	xori	t4,a0,334

000000008000372c <i_3381>:
    8000372c:	f8611b83          	lh	s7,-122(sp)

0000000080003730 <i_3382>:
    80003730:	0052fc63          	bleu	t0,t0,80003748 <i_3388>

0000000080003734 <i_3383>:
    80003734:	e2016503          	lwu	a0,-480(sp)

0000000080003738 <i_3384>:
    80003738:	ed416803          	lwu	a6,-300(sp)

000000008000373c <i_3385>:
    8000373c:	0dd11f23          	sh	t4,222(sp)

0000000080003740 <i_3386>:
    80003740:	01e00b93          	li	s7,30

0000000080003744 <i_3387>:
    80003744:	41785eb3          	sra	t4,a6,s7

0000000080003748 <i_3388>:
    80003748:	0b480b9b          	addiw	s7,a6,180

000000008000374c <i_3389>:
    8000374c:	1a815a03          	lhu	s4,424(sp)

0000000080003750 <i_3390>:
    80003750:	02ea6bb3          	rem	s7,s4,a4

0000000080003754 <i_3391>:
    80003754:	e7211a03          	lh	s4,-398(sp)

0000000080003758 <i_3392>:
    80003758:	84700813          	li	a6,-1977

000000008000375c <i_3393>:
    8000375c:	85b00193          	li	gp,-1957

0000000080003760 <i_3394>:
    80003760:	00000013          	nop

0000000080003764 <i_3395>:
    80003764:	033a29b3          	mulhsu	s3,s4,s3

0000000080003768 <i_3396>:
    80003768:	00c00493          	li	s1,12

000000008000376c <i_3397>:
    8000376c:	009fd9b3          	srl	s3,t6,s1

0000000080003770 <i_3398>:
    80003770:	0349f063          	bleu	s4,s3,80003790 <i_3405>

0000000080003774 <i_3399>:
    80003774:	f5214383          	lbu	t2,-174(sp)

0000000080003778 <i_3400>:
    80003778:	00180813          	addi	a6,a6,1
    8000377c:	ff01d2e3          	ble	a6,gp,80003760 <i_3394>

0000000080003780 <i_3401>:
    80003780:	e3016a03          	lwu	s4,-464(sp)

0000000080003784 <i_3402>:
    80003784:	10110a03          	lb	s4,257(sp)

0000000080003788 <i_3403>:
    80003788:	04844a37          	lui	s4,0x4844

000000008000378c <i_3404>:
    8000378c:	00000013          	nop

0000000080003790 <i_3405>:
    80003790:	00000013          	nop

0000000080003794 <i_3406>:
    80003794:	01200213          	li	tp,18

0000000080003798 <i_3407>:
    80003798:	404bdbbb          	sraw	s7,s7,tp

000000008000379c <i_3408>:
    8000379c:	72b00813          	li	a6,1835

00000000800037a0 <i_3409>:
    800037a0:	73000393          	li	t2,1840

00000000800037a4 <i_3410>:
    800037a4:	eff10403          	lb	s0,-257(sp)

00000000800037a8 <i_3411>:
    800037a8:	0eb14e03          	lbu	t3,235(sp)

00000000800037ac <i_3412>:
    800037ac:	f9a15a03          	lhu	s4,-102(sp)

00000000800037b0 <i_3413>:
    800037b0:	1ae12a23          	sw	a4,436(sp)

00000000800037b4 <i_3414>:
    800037b4:	40335413          	srai	s0,t1,0x3

00000000800037b8 <i_3415>:
    800037b8:	00000013          	nop

00000000800037bc <i_3416>:
    800037bc:	00180813          	addi	a6,a6,1
    800037c0:	fe7860e3          	bltu	a6,t2,800037a0 <i_3409>

00000000800037c4 <i_3417>:
    800037c4:	fc012803          	lw	a6,-64(sp)

00000000800037c8 <i_3418>:
    800037c8:	01447c63          	bleu	s4,s0,800037e0 <i_3424>

00000000800037cc <i_3419>:
    800037cc:	03439063          	bne	t2,s4,800037ec <i_3427>

00000000800037d0 <i_3420>:
    800037d0:	0073b3b3          	sltu	t2,t2,t2

00000000800037d4 <i_3421>:
    800037d4:	014a6263          	bltu	s4,s4,800037d8 <i_3422>

00000000800037d8 <i_3422>:
    800037d8:	01bcbdb3          	sltu	s11,s9,s11

00000000800037dc <i_3423>:
    800037dc:	037a4e3b          	divw	t3,s4,s7

00000000800037e0 <i_3424>:
    800037e0:	f4c12a03          	lw	s4,-180(sp)

00000000800037e4 <i_3425>:
    800037e4:	02be4263          	blt	t3,a1,80003808 <i_3434>

00000000800037e8 <i_3426>:
    800037e8:	f1210383          	lb	t2,-238(sp)

00000000800037ec <i_3427>:
    800037ec:	02713423          	sd	t2,40(sp)

00000000800037f0 <i_3428>:
    800037f0:	41b587b3          	sub	a5,a1,s11

00000000800037f4 <i_3429>:
    800037f4:	01500d93          	li	s11,21

00000000800037f8 <i_3430>:
    800037f8:	01b3ddbb          	srlw	s11,t2,s11

00000000800037fc <i_3431>:
    800037fc:	03b7beb3          	mulhu	t4,a5,s11

0000000080003800 <i_3432>:
    80003800:	402dd313          	srai	t1,s11,0x2

0000000080003804 <i_3433>:
    80003804:	00400e93          	li	t4,4

0000000080003808 <i_3434>:
    80003808:	41dedebb          	sraw	t4,t4,t4

000000008000380c <i_3435>:
    8000380c:	f5d12223          	sw	t4,-188(sp)

0000000080003810 <i_3436>:
    80003810:	01deda63          	ble	t4,t4,80003824 <i_3441>

0000000080003814 <i_3437>:
    80003814:	efb14d83          	lbu	s11,-261(sp)

0000000080003818 <i_3438>:
    80003818:	05b13823          	sd	s11,80(sp)

000000008000381c <i_3439>:
    8000381c:	f4415383          	lhu	t2,-188(sp)

0000000080003820 <i_3440>:
    80003820:	f4814283          	lbu	t0,-184(sp)

0000000080003824 <i_3441>:
    80003824:	04711423          	sh	t2,72(sp)

0000000080003828 <i_3442>:
    80003828:	00000013          	nop

000000008000382c <i_3443>:
    8000382c:	7be00313          	li	t1,1982

0000000080003830 <i_3444>:
    80003830:	7cd00e93          	li	t4,1997

0000000080003834 <i_3445>:
    80003834:	035ea0b3          	mulhsu	ra,t4,s5

0000000080003838 <i_3446>:
    80003838:	eef11d23          	sh	a5,-262(sp)

000000008000383c <i_3447>:
    8000383c:	00b724b3          	slt	s1,a4,a1

0000000080003840 <i_3448>:
    80003840:	fb713023          	sd	s7,-96(sp)

0000000080003844 <i_3449>:
    80003844:	00130313          	addi	t1,t1,1
    80003848:	ffd366e3          	bltu	t1,t4,80003834 <i_3445>

000000008000384c <i_3450>:
    8000384c:	e6c12783          	lw	a5,-404(sp)

0000000080003850 <i_3451>:
    80003850:	0210cdb3          	div	s11,ra,ra

0000000080003854 <i_3452>:
    80003854:	03bdf7bb          	remuw	a5,s11,s11

0000000080003858 <i_3453>:
    80003858:	f1615983          	lhu	s3,-234(sp)

000000008000385c <i_3454>:
    8000385c:	ae52d4b7          	lui	s1,0xae52d

0000000080003860 <i_3455>:
    80003860:	09013b83          	ld	s7,144(sp)

0000000080003864 <i_3456>:
    80003864:	f5b13c23          	sd	s11,-168(sp)

0000000080003868 <i_3457>:
    80003868:	01754533          	xor	a0,a0,s7

000000008000386c <i_3458>:
    8000386c:	009f6c63          	bltu	t5,s1,80003884 <i_3464>

0000000080003870 <i_3459>:
    80003870:	013789b3          	add	s3,a5,s3

0000000080003874 <i_3460>:
    80003874:	01e00513          	li	a0,30

0000000080003878 <i_3461>:
    80003878:	00a7d233          	srl	tp,a5,a0

000000008000387c <i_3462>:
    8000387c:	f5313c23          	sd	s3,-168(sp)

0000000080003880 <i_3463>:
    80003880:	f4412823          	sw	tp,-176(sp)

0000000080003884 <i_3464>:
    80003884:	01300213          	li	tp,19

0000000080003888 <i_3465>:
    80003888:	40425bbb          	sraw	s7,tp,tp

000000008000388c <i_3466>:
    8000388c:	0267e463          	bltu	a5,t1,800038b4 <i_3476>

0000000080003890 <i_3467>:
    80003890:	037277b3          	remu	a5,tp,s7

0000000080003894 <i_3468>:
    80003894:	06f101a3          	sb	a5,99(sp)

0000000080003898 <i_3469>:
    80003898:	e4611203          	lh	tp,-442(sp)

000000008000389c <i_3470>:
    8000389c:	fce11203          	lh	tp,-50(sp)

00000000800038a0 <i_3471>:
    800038a0:	1a012403          	lw	s0,416(sp)

00000000800038a4 <i_3472>:
    800038a4:	00000013          	nop

00000000800038a8 <i_3473>:
    800038a8:	00000013          	nop

00000000800038ac <i_3474>:
    800038ac:	0252423b          	divw	tp,tp,t0

00000000800038b0 <i_3475>:
    800038b0:	17012203          	lw	tp,368(sp)

00000000800038b4 <i_3476>:
    800038b4:	ee513423          	sd	t0,-280(sp)

00000000800038b8 <i_3477>:
    800038b8:	16416203          	lwu	tp,356(sp)

00000000800038bc <i_3478>:
    800038bc:	8d100593          	li	a1,-1839

00000000800038c0 <i_3479>:
    800038c0:	8d300293          	li	t0,-1837

00000000800038c4 <i_3480>:
    800038c4:	02f7e463          	bltu	a5,a5,800038ec <i_3489>

00000000800038c8 <i_3481>:
    800038c8:	e8811783          	lh	a5,-376(sp)

00000000800038cc <i_3482>:
    800038cc:	0057ea63          	bltu	a5,t0,800038e0 <i_3486>

00000000800038d0 <i_3483>:
    800038d0:	00158593          	addi	a1,a1,1
    800038d4:	feb2f8e3          	bleu	a1,t0,800038c4 <i_3480>

00000000800038d8 <i_3484>:
    800038d8:	00f2de63          	ble	a5,t0,800038f4 <i_3491>

00000000800038dc <i_3485>:
    800038dc:	fc813c23          	sd	s0,-40(sp)

00000000800038e0 <i_3486>:
    800038e0:	00a00793          	li	a5,10

00000000800038e4 <i_3487>:
    800038e4:	00f797b3          	sll	a5,a5,a5

00000000800038e8 <i_3488>:
    800038e8:	021080b3          	mul	ra,ra,ra

00000000800038ec <i_3489>:
    800038ec:	06f11c23          	sh	a5,120(sp)

00000000800038f0 <i_3490>:
    800038f0:	eaf13c23          	sd	a5,-328(sp)

00000000800038f4 <i_3491>:
    800038f4:	00f91463          	bne	s2,a5,800038fc <i_3493>

00000000800038f8 <i_3492>:
    800038f8:	01c16d83          	lwu	s11,28(sp)

00000000800038fc <i_3493>:
    800038fc:	02812b83          	lw	s7,40(sp)

0000000080003900 <i_3494>:
    80003900:	3007bd93          	sltiu	s11,a5,768

0000000080003904 <i_3495>:
    80003904:	00f782b3          	add	t0,a5,a5

0000000080003908 <i_3496>:
    80003908:	10f13023          	sd	a5,256(sp)

000000008000390c <i_3497>:
    8000390c:	f8c16783          	lwu	a5,-116(sp)

0000000080003910 <i_3498>:
    80003910:	05e11503          	lh	a0,94(sp)

0000000080003914 <i_3499>:
    80003914:	11215203          	lhu	tp,274(sp)

0000000080003918 <i_3500>:
    80003918:	fcf13c23          	sd	a5,-40(sp)

000000008000391c <i_3501>:
    8000391c:	eed13423          	sd	a3,-280(sp)

0000000080003920 <i_3502>:
    80003920:	03114383          	lbu	t2,49(sp)

0000000080003924 <i_3503>:
    80003924:	7c700413          	li	s0,1991

0000000080003928 <i_3504>:
    80003928:	7d100b93          	li	s7,2001

000000008000392c <i_3505>:
    8000392c:	0285553b          	divuw	a0,a0,s0

0000000080003930 <i_3506>:
    80003930:	00140413          	addi	s0,s0,1
    80003934:	fe8bfce3          	bleu	s0,s7,8000392c <i_3505>

0000000080003938 <i_3507>:
    80003938:	025b8463          	beq	s7,t0,80003960 <i_3517>

000000008000393c <i_3508>:
    8000393c:	e7e11a03          	lh	s4,-386(sp)

0000000080003940 <i_3509>:
    80003940:	1aa11f23          	sh	a0,446(sp)

0000000080003944 <i_3510>:
    80003944:	00000013          	nop

0000000080003948 <i_3511>:
    80003948:	02816783          	lwu	a5,40(sp)

000000008000394c <i_3512>:
    8000394c:	00000013          	nop

0000000080003950 <i_3513>:
    80003950:	40ad8333          	sub	t1,s11,a0

0000000080003954 <i_3514>:
    80003954:	03bdd33b          	divuw	t1,s11,s11

0000000080003958 <i_3515>:
    80003958:	01215983          	lhu	s3,18(sp)

000000008000395c <i_3516>:
    8000395c:	11310823          	sb	s3,272(sp)

0000000080003960 <i_3517>:
    80003960:	e6114983          	lbu	s3,-415(sp)

0000000080003964 <i_3518>:
    80003964:	0339aeb3          	mulhsu	t4,s3,s3

0000000080003968 <i_3519>:
    80003968:	8b600b93          	li	s7,-1866

000000008000396c <i_3520>:
    8000396c:	8c100d93          	li	s11,-1855

0000000080003970 <i_3521>:
    80003970:	00c00e13          	li	t3,12

0000000080003974 <i_3522>:
    80003974:	01c99833          	sll	a6,s3,t3

0000000080003978 <i_3523>:
    80003978:	7be00213          	li	tp,1982

000000008000397c <i_3524>:
    8000397c:	7c300513          	li	a0,1987

0000000080003980 <i_3525>:
    80003980:	00120213          	addi	tp,tp,1 # 1 <main-0x7fffffff>
    80003984:	fe457ee3          	bleu	tp,a0,80003980 <i_3525>

0000000080003988 <i_3526>:
    80003988:	03dc5533          	divu	a0,s8,t4

000000008000398c <i_3527>:
    8000398c:	0109ec63          	bltu	s3,a6,800039a4 <i_3532>

0000000080003990 <i_3528>:
    80003990:	001b8b93          	addi	s7,s7,1
    80003994:	fdbb9ee3          	bne	s7,s11,80003970 <i_3521>

0000000080003998 <i_3529>:
    80003998:	03f8683b          	remw	a6,a6,t6

000000008000399c <i_3530>:
    8000399c:	1d211d83          	lh	s11,466(sp)

00000000800039a0 <i_3531>:
    800039a0:	0260ee33          	rem	t3,ra,t1

00000000800039a4 <i_3532>:
    800039a4:	f0615b83          	lhu	s7,-250(sp)

00000000800039a8 <i_3533>:
    800039a8:	0309b5b3          	mulhu	a1,s3,a6

00000000800039ac <i_3534>:
    800039ac:	02a8053b          	mulw	a0,a6,a0

00000000800039b0 <i_3535>:
    800039b0:	f1910503          	lb	a0,-231(sp)

00000000800039b4 <i_3536>:
    800039b4:	4a0f3517          	auipc	a0,0x4a0f3

00000000800039b8 <i_3537>:
    800039b8:	00a55663          	ble	a0,a0,800039c4 <i_3540>

00000000800039bc <i_3538>:
    800039bc:	e7813d83          	ld	s11,-392(sp)

00000000800039c0 <i_3539>:
    800039c0:	f8415d83          	lhu	s11,-124(sp)

00000000800039c4 <i_3540>:
    800039c4:	e6a13423          	sd	a0,-408(sp)

00000000800039c8 <i_3541>:
    800039c8:	16416503          	lwu	a0,356(sp)

00000000800039cc <i_3542>:
    800039cc:	e8012503          	lw	a0,-384(sp)

00000000800039d0 <i_3543>:
    800039d0:	02a56ebb          	remw	t4,a0,a0

00000000800039d4 <i_3544>:
    800039d4:	0e813e03          	ld	t3,232(sp)

00000000800039d8 <i_3545>:
    800039d8:	01c69663          	bne	a3,t3,800039e4 <i_3548>

00000000800039dc <i_3546>:
    800039dc:	f2a13423          	sd	a0,-216(sp)

00000000800039e0 <i_3547>:
    800039e0:	01ce6263          	bltu	t3,t3,800039e4 <i_3548>

00000000800039e4 <i_3548>:
    800039e4:	f1710183          	lb	gp,-233(sp)

00000000800039e8 <i_3549>:
    800039e8:	7d554813          	xori	a6,a0,2005

00000000800039ec <i_3550>:
    800039ec:	ef514d83          	lbu	s11,-267(sp)

00000000800039f0 <i_3551>:
    800039f0:	01bdc0b3          	xor	ra,s11,s11

00000000800039f4 <i_3552>:
    800039f4:	790e4193          	xori	gp,t3,1936

00000000800039f8 <i_3553>:
    800039f8:	02199db3          	mulh	s11,s3,ra

00000000800039fc <i_3554>:
    800039fc:	03b0ceb3          	div	t4,ra,s11

0000000080003a00 <i_3555>:
    80003a00:	eae108a3          	sb	a4,-335(sp)

0000000080003a04 <i_3556>:
    80003a04:	00308263          	beq	ra,gp,80003a08 <i_3557>

0000000080003a08 <i_3557>:
    80003a08:	f0414403          	lbu	s0,-252(sp)

0000000080003a0c <i_3558>:
    80003a0c:	f0e15183          	lhu	gp,-242(sp)

0000000080003a10 <i_3559>:
    80003a10:	1fd12023          	sw	t4,480(sp)

0000000080003a14 <i_3560>:
    80003a14:	08510183          	lb	gp,133(sp)

0000000080003a18 <i_3561>:
    80003a18:	e7713423          	sd	s7,-408(sp)

0000000080003a1c <i_3562>:
    80003a1c:	00808663          	beq	ra,s0,80003a28 <i_3565>

0000000080003a20 <i_3563>:
    80003a20:	0081d863          	ble	s0,gp,80003a30 <i_3567>

0000000080003a24 <i_3564>:
    80003a24:	a141e413          	ori	s0,gp,-1516

0000000080003a28 <i_3565>:
    80003a28:	e7b11e23          	sh	s11,-388(sp)

0000000080003a2c <i_3566>:
    80003a2c:	ad22ab93          	slti	s7,t0,-1326

0000000080003a30 <i_3567>:
    80003a30:	09813e83          	ld	t4,152(sp)

0000000080003a34 <i_3568>:
    80003a34:	0051c863          	blt	gp,t0,80003a44 <i_3572>

0000000080003a38 <i_3569>:
    80003a38:	003ed663          	ble	gp,t4,80003a44 <i_3572>

0000000080003a3c <i_3570>:
    80003a3c:	01d1fdb3          	and	s11,gp,t4

0000000080003a40 <i_3571>:
    80003a40:	ec415183          	lhu	gp,-316(sp)

0000000080003a44 <i_3572>:
    80003a44:	f4e11b83          	lh	s7,-178(sp)

0000000080003a48 <i_3573>:
    80003a48:	ef416503          	lwu	a0,-268(sp)

0000000080003a4c <i_3574>:
    80003a4c:	80300193          	li	gp,-2045

0000000080003a50 <i_3575>:
    80003a50:	81500e93          	li	t4,-2027

0000000080003a54 <i_3576>:
    80003a54:	10c11a03          	lh	s4,268(sp)

0000000080003a58 <i_3577>:
    80003a58:	027673bb          	remuw	t2,a2,t2

0000000080003a5c <i_3578>:
    80003a5c:	17815403          	lhu	s0,376(sp)

0000000080003a60 <i_3579>:
    80003a60:	00118193          	addi	gp,gp,1 # 2818f001 <main-0x57e70fff>
    80003a64:	ffd1c8e3          	blt	gp,t4,80003a54 <i_3576>

0000000080003a68 <i_3580>:
    80003a68:	00445993          	srli	s3,s0,0x4

0000000080003a6c <i_3581>:
    80003a6c:	f1416783          	lwu	a5,-236(sp)

0000000080003a70 <i_3582>:
    80003a70:	037bb7b3          	mulhu	a5,s7,s7

0000000080003a74 <i_3583>:
    80003a74:	017083b3          	add	t2,ra,s7

0000000080003a78 <i_3584>:
    80003a78:	306c8b9b          	addiw	s7,s9,774

0000000080003a7c <i_3585>:
    80003a7c:	15214b83          	lbu	s7,338(sp)

0000000080003a80 <i_3586>:
    80003a80:	01739c63          	bne	t2,s7,80003a98 <i_3592>

0000000080003a84 <i_3587>:
    80003a84:	007b8863          	beq	s7,t2,80003a94 <i_3591>

0000000080003a88 <i_3588>:
    80003a88:	02210b83          	lb	s7,34(sp)

0000000080003a8c <i_3589>:
    80003a8c:	06710ea3          	sb	t2,125(sp)

0000000080003a90 <i_3590>:
    80003a90:	004cce37          	lui	t3,0x4cc

0000000080003a94 <i_3591>:
    80003a94:	037c6063          	bltu	s8,s7,80003ab4 <i_3599>

0000000080003a98 <i_3592>:
    80003a98:	e4713023          	sd	t2,-448(sp)

0000000080003a9c <i_3593>:
    80003a9c:	1bc12a23          	sw	t3,436(sp)

0000000080003aa0 <i_3594>:
    80003aa0:	017bfe63          	bleu	s7,s7,80003abc <i_3601>

0000000080003aa4 <i_3595>:
    80003aa4:	0174d863          	ble	s7,s1,80003ab4 <i_3599>

0000000080003aa8 <i_3596>:
    80003aa8:	1c813483          	ld	s1,456(sp)

0000000080003aac <i_3597>:
    80003aac:	0374e4b3          	rem	s1,s1,s7

0000000080003ab0 <i_3598>:
    80003ab0:	1bc12583          	lw	a1,444(sp)

0000000080003ab4 <i_3599>:
    80003ab4:	6ddfca37          	lui	s4,0x6ddfc

0000000080003ab8 <i_3600>:
    80003ab8:	11015583          	lhu	a1,272(sp)

0000000080003abc <i_3601>:
    80003abc:	0034d493          	srli	s1,s1,0x3

0000000080003ac0 <i_3602>:
    80003ac0:	01449463          	bne	s1,s4,80003ac8 <i_3604>

0000000080003ac4 <i_3603>:
    80003ac4:	08a15203          	lhu	tp,138(sp)

0000000080003ac8 <i_3604>:
    80003ac8:	71f79497          	auipc	s1,0x71f79

0000000080003acc <i_3605>:
    80003acc:	ea910d23          	sb	s1,-326(sp)

0000000080003ad0 <i_3606>:
    80003ad0:	4014dd93          	srai	s11,s1,0x1

0000000080003ad4 <i_3607>:
    80003ad4:	14f10983          	lb	s3,335(sp)

0000000080003ad8 <i_3608>:
    80003ad8:	f2e11d83          	lh	s11,-210(sp)

0000000080003adc <i_3609>:
    80003adc:	005e6263          	bltu	t3,t0,80003ae0 <i_3610>

0000000080003ae0 <i_3610>:
    80003ae0:	0322de3b          	divuw	t3,t0,s2

0000000080003ae4 <i_3611>:
    80003ae4:	e2211983          	lh	s3,-478(sp)

0000000080003ae8 <i_3612>:
    80003ae8:	fe412983          	lw	s3,-28(sp)

0000000080003aec <i_3613>:
    80003aec:	01c9ee63          	bltu	s3,t3,80003b08 <i_3620>

0000000080003af0 <i_3614>:
    80003af0:	013dda63          	ble	s3,s11,80003b04 <i_3619>

0000000080003af4 <i_3615>:
    80003af4:	ef615983          	lhu	s3,-266(sp)

0000000080003af8 <i_3616>:
    80003af8:	02a9a533          	mulhsu	a0,s3,a0

0000000080003afc <i_3617>:
    80003afc:	f73104a3          	sb	s3,-151(sp)

0000000080003b00 <i_3618>:
    80003b00:	0265633b          	remw	t1,a0,t1

0000000080003b04 <i_3619>:
    80003b04:	1d812403          	lw	s0,472(sp)

0000000080003b08 <i_3620>:
    80003b08:	86f57513          	andi	a0,a0,-1937

0000000080003b0c <i_3621>:
    80003b0c:	0f312023          	sw	s3,224(sp)

0000000080003b10 <i_3622>:
    80003b10:	001d551b          	srliw	a0,s10,0x1

0000000080003b14 <i_3623>:
    80003b14:	02856263          	bltu	a0,s0,80003b38 <i_3632>

0000000080003b18 <i_3624>:
    80003b18:	1e614e83          	lbu	t4,486(sp)

0000000080003b1c <i_3625>:
    80003b1c:	fa812283          	lw	t0,-88(sp)

0000000080003b20 <i_3626>:
    80003b20:	fff14403          	lbu	s0,-1(sp)

0000000080003b24 <i_3627>:
    80003b24:	fc015383          	lhu	t2,-64(sp)

0000000080003b28 <i_3628>:
    80003b28:	14c16183          	lwu	gp,332(sp)

0000000080003b2c <i_3629>:
    80003b2c:	023ec263          	blt	t4,gp,80003b50 <i_3638>

0000000080003b30 <i_3630>:
    80003b30:	0c414083          	lbu	ra,196(sp)

0000000080003b34 <i_3631>:
    80003b34:	0070ea63          	bltu	ra,t2,80003b48 <i_3636>

0000000080003b38 <i_3632>:
    80003b38:	e8816303          	lwu	t1,-376(sp)

0000000080003b3c <i_3633>:
    80003b3c:	00135e93          	srli	t4,t1,0x1

0000000080003b40 <i_3634>:
    80003b40:	fa114303          	lbu	t1,-95(sp)

0000000080003b44 <i_3635>:
    80003b44:	ffb13823          	sd	s11,-16(sp)

0000000080003b48 <i_3636>:
    80003b48:	002f9e93          	slli	t4,t6,0x2

0000000080003b4c <i_3637>:
    80003b4c:	0bd11323          	sh	t4,166(sp)

0000000080003b50 <i_3638>:
    80003b50:	04610923          	sb	t1,82(sp)

0000000080003b54 <i_3639>:
    80003b54:	95377313          	andi	t1,a4,-1709

0000000080003b58 <i_3640>:
    80003b58:	00700813          	li	a6,7

0000000080003b5c <i_3641>:
    80003b5c:	0108583b          	srlw	a6,a6,a6

0000000080003b60 <i_3642>:
    80003b60:	010e8663          	beq	t4,a6,80003b6c <i_3645>

0000000080003b64 <i_3643>:
    80003b64:	13714e83          	lbu	t4,311(sp)

0000000080003b68 <i_3644>:
    80003b68:	03d080bb          	mulw	ra,ra,t4

0000000080003b6c <i_3645>:
    80003b6c:	30220817          	auipc	a6,0x30220

0000000080003b70 <i_3646>:
    80003b70:	f97e8e9b          	addiw	t4,t4,-105

0000000080003b74 <i_3647>:
    80003b74:	f0816083          	lwu	ra,-248(sp)

0000000080003b78 <i_3648>:
    80003b78:	001eca63          	blt	t4,ra,80003b8c <i_3653>

0000000080003b7c <i_3649>:
    80003b7c:	fb013483          	ld	s1,-80(sp)

0000000080003b80 <i_3650>:
    80003b80:	36d0ce93          	xori	t4,ra,877

0000000080003b84 <i_3651>:
    80003b84:	029ef463          	bleu	s1,t4,80003bac <i_3661>

0000000080003b88 <i_3652>:
    80003b88:	edc11623          	sh	t3,-308(sp)

0000000080003b8c <i_3653>:
    80003b8c:	e2414803          	lbu	a6,-476(sp)

0000000080003b90 <i_3654>:
    80003b90:	00000013          	nop

0000000080003b94 <i_3655>:
    80003b94:	00000013          	nop

0000000080003b98 <i_3656>:
    80003b98:	19b100a3          	sb	s11,385(sp)

0000000080003b9c <i_3657>:
    80003b9c:	e7415d83          	lhu	s11,-396(sp)

0000000080003ba0 <i_3658>:
    80003ba0:	17011583          	lh	a1,368(sp)

0000000080003ba4 <i_3659>:
    80003ba4:	00000013          	nop

0000000080003ba8 <i_3660>:
    80003ba8:	0d010aa3          	sb	a6,213(sp)

0000000080003bac <i_3661>:
    80003bac:	00000013          	nop

0000000080003bb0 <i_3662>:
    80003bb0:	00000013          	nop

0000000080003bb4 <i_3663>:
    80003bb4:	76f00093          	li	ra,1903

0000000080003bb8 <i_3664>:
    80003bb8:	77e00413          	li	s0,1918

0000000080003bbc <i_3665>:
    80003bbc:	03b2f2bb          	remuw	t0,t0,s11

0000000080003bc0 <i_3666>:
    80003bc0:	3efbd817          	auipc	a6,0x3efbd

0000000080003bc4 <i_3667>:
    80003bc4:	00108093          	addi	ra,ra,1
    80003bc8:	fe80eae3          	bltu	ra,s0,80003bbc <i_3665>

0000000080003bcc <i_3668>:
    80003bcc:	03087263          	bleu	a6,a6,80003bf0 <i_3677>

0000000080003bd0 <i_3669>:
    80003bd0:	f4815e83          	lhu	t4,-184(sp)

0000000080003bd4 <i_3670>:
    80003bd4:	fd110e03          	lb	t3,-47(sp)

0000000080003bd8 <i_3671>:
    80003bd8:	01080c63          	beq	a6,a6,80003bf0 <i_3677>

0000000080003bdc <i_3672>:
    80003bdc:	f5416803          	lwu	a6,-172(sp)

0000000080003be0 <i_3673>:
    80003be0:	17415283          	lhu	t0,372(sp)

0000000080003be4 <i_3674>:
    80003be4:	010da5b3          	slt	a1,s11,a6

0000000080003be8 <i_3675>:
    80003be8:	03d81463          	bne	a6,t4,80003c10 <i_3685>

0000000080003bec <i_3676>:
    80003bec:	11013023          	sd	a6,256(sp)

0000000080003bf0 <i_3677>:
    80003bf0:	01813e03          	ld	t3,24(sp)

0000000080003bf4 <i_3678>:
    80003bf4:	10813e03          	ld	t3,264(sp)

0000000080003bf8 <i_3679>:
    80003bf8:	03459233          	mulh	tp,a1,s4

0000000080003bfc <i_3680>:
    80003bfc:	03816e03          	lwu	t3,56(sp)

0000000080003c00 <i_3681>:
    80003c00:	0102c3b3          	xor	t2,t0,a6

0000000080003c04 <i_3682>:
    80003c04:	02615583          	lhu	a1,38(sp)

0000000080003c08 <i_3683>:
    80003c08:	025380b3          	mul	ra,t2,t0

0000000080003c0c <i_3684>:
    80003c0c:	01415583          	lhu	a1,20(sp)

0000000080003c10 <i_3685>:
    80003c10:	e8416783          	lwu	a5,-380(sp)

0000000080003c14 <i_3686>:
    80003c14:	b8136313          	ori	t1,t1,-1151

0000000080003c18 <i_3687>:
    80003c18:	87e00293          	li	t0,-1922

0000000080003c1c <i_3688>:
    80003c1c:	88300d93          	li	s11,-1917

0000000080003c20 <i_3689>:
    80003c20:	f8a12823          	sw	a0,-112(sp)

0000000080003c24 <i_3690>:
    80003c24:	00000013          	nop

0000000080003c28 <i_3691>:
    80003c28:	8cf2c313          	xori	t1,t0,-1841

0000000080003c2c <i_3692>:
    80003c2c:	002bd263          	ble	sp,s7,80003c30 <i_3693>

0000000080003c30 <i_3693>:
    80003c30:	02630463          	beq	t1,t1,80003c58 <i_3702>

0000000080003c34 <i_3694>:
    80003c34:	00914783          	lbu	a5,9(sp)

0000000080003c38 <i_3695>:
    80003c38:	01900093          	li	ra,25

0000000080003c3c <i_3696>:
    80003c3c:	4017de33          	sra	t3,a5,ra

0000000080003c40 <i_3697>:
    80003c40:	00128293          	addi	t0,t0,1 # ffffffffc5d8b001 <_end+0xffffffff45d7abed>
    80003c44:	fdb2cee3          	blt	t0,s11,80003c20 <i_3689>

0000000080003c48 <i_3698>:
    80003c48:	00255313          	srli	t1,a0,0x2

0000000080003c4c <i_3699>:
    80003c4c:	f8612623          	sw	t1,-116(sp)

0000000080003c50 <i_3700>:
    80003c50:	04412183          	lw	gp,68(sp)

0000000080003c54 <i_3701>:
    80003c54:	ebc104a3          	sb	t3,-343(sp)

0000000080003c58 <i_3702>:
    80003c58:	0261c063          	blt	gp,t1,80003c78 <i_3710>

0000000080003c5c <i_3703>:
    80003c5c:	0023519b          	srliw	gp,t1,0x2

0000000080003c60 <i_3704>:
    80003c60:	006e0333          	add	t1,t3,t1

0000000080003c64 <i_3705>:
    80003c64:	08010303          	lb	t1,128(sp)

0000000080003c68 <i_3706>:
    80003c68:	e483a413          	slti	s0,t2,-440

0000000080003c6c <i_3707>:
    80003c6c:	1b211a03          	lh	s4,434(sp)

0000000080003c70 <i_3708>:
    80003c70:	de41e193          	ori	gp,gp,-540

0000000080003c74 <i_3709>:
    80003c74:	01d18e63          	beq	gp,t4,80003c90 <i_3716>

0000000080003c78 <i_3710>:
    80003c78:	00416183          	lwu	gp,4(sp)

0000000080003c7c <i_3711>:
    80003c7c:	09813e83          	ld	t4,152(sp)

0000000080003c80 <i_3712>:
    80003c80:	0341d463          	ble	s4,gp,80003ca8 <i_3722>

0000000080003c84 <i_3713>:
    80003c84:	0347f263          	bleu	s4,a5,80003ca8 <i_3722>

0000000080003c88 <i_3714>:
    80003c88:	01419e63          	bne	gp,s4,80003ca4 <i_3721>

0000000080003c8c <i_3715>:
    80003c8c:	15c15803          	lhu	a6,348(sp)

0000000080003c90 <i_3716>:
    80003c90:	17012983          	lw	s3,368(sp)

0000000080003c94 <i_3717>:
    80003c94:	1d3103a3          	sb	s3,455(sp)

0000000080003c98 <i_3718>:
    80003c98:	0091ec63          	bltu	gp,s1,80003cb0 <i_3724>

0000000080003c9c <i_3719>:
    80003c9c:	030a6063          	bltu	s4,a6,80003cbc <i_3727>

0000000080003ca0 <i_3720>:
    80003ca0:	0ee0f497          	auipc	s1,0xee0f

0000000080003ca4 <i_3721>:
    80003ca4:	0389ddb3          	divu	s11,s3,s8

0000000080003ca8 <i_3722>:
    80003ca8:	01bdf833          	and	a6,s11,s11

0000000080003cac <i_3723>:
    80003cac:	0ba11723          	sh	s10,174(sp)

0000000080003cb0 <i_3724>:
    80003cb0:	01700513          	li	a0,23

0000000080003cb4 <i_3725>:
    80003cb4:	00a994bb          	sllw	s1,s3,a0

0000000080003cb8 <i_3726>:
    80003cb8:	12d11023          	sh	a3,288(sp)

0000000080003cbc <i_3727>:
    80003cbc:	6390fbb7          	lui	s7,0x6390f

0000000080003cc0 <i_3728>:
    80003cc0:	00000013          	nop

0000000080003cc4 <i_3729>:
    80003cc4:	78e00293          	li	t0,1934

0000000080003cc8 <i_3730>:
    80003cc8:	7a200e93          	li	t4,1954

0000000080003ccc <i_3731>:
    80003ccc:	f3215503          	lhu	a0,-206(sp)

0000000080003cd0 <i_3732>:
    80003cd0:	0db10fa3          	sb	s11,223(sp)

0000000080003cd4 <i_3733>:
    80003cd4:	02e2c83b          	divw	a6,t0,a4

0000000080003cd8 <i_3734>:
    80003cd8:	01aefc63          	bleu	s10,t4,80003cf0 <i_3740>

0000000080003cdc <i_3735>:
    80003cdc:	00948463          	beq	s1,s1,80003ce4 <i_3737>

0000000080003ce0 <i_3736>:
    80003ce0:	07c11483          	lh	s1,124(sp)

0000000080003ce4 <i_3737>:
    80003ce4:	029484b3          	mul	s1,s1,s1

0000000080003ce8 <i_3738>:
    80003ce8:	3f44a313          	slti	t1,s1,1012

0000000080003cec <i_3739>:
    80003cec:	02abe063          	bltu	s7,a0,80003d0c <i_3746>

0000000080003cf0 <i_3740>:
    80003cf0:	01400093          	li	ra,20

0000000080003cf4 <i_3741>:
    80003cf4:	001c50b3          	srl	ra,s8,ra

0000000080003cf8 <i_3742>:
    80003cf8:	01709a63          	bne	ra,s7,80003d0c <i_3746>

0000000080003cfc <i_3743>:
    80003cfc:	00128293          	addi	t0,t0,1
    80003d00:	fc5ed6e3          	ble	t0,t4,80003ccc <i_3731>

0000000080003d04 <i_3744>:
    80003d04:	e4813083          	ld	ra,-440(sp)

0000000080003d08 <i_3745>:
    80003d08:	04113823          	sd	ra,80(sp)

0000000080003d0c <i_3746>:
    80003d0c:	ff013083          	ld	ra,-16(sp)

0000000080003d10 <i_3747>:
    80003d10:	15711e23          	sh	s7,348(sp)

0000000080003d14 <i_3748>:
    80003d14:	7a900d93          	li	s11,1961

0000000080003d18 <i_3749>:
    80003d18:	7af00813          	li	a6,1967

0000000080003d1c <i_3750>:
    80003d1c:	01a0f863          	bleu	s10,ra,80003d2c <i_3754>

0000000080003d20 <i_3751>:
    80003d20:	03f00393          	li	t2,63

0000000080003d24 <i_3752>:
    80003d24:	00779bb3          	sll	s7,a5,t2

0000000080003d28 <i_3753>:
    80003d28:	09c11e03          	lh	t3,156(sp)

0000000080003d2c <i_3754>:
    80003d2c:	0e615383          	lhu	t2,230(sp)

0000000080003d30 <i_3755>:
    80003d30:	f1812b83          	lw	s7,-232(sp)

0000000080003d34 <i_3756>:
    80003d34:	81b00793          	li	a5,-2021

0000000080003d38 <i_3757>:
    80003d38:	82b00093          	li	ra,-2005

0000000080003d3c <i_3758>:
    80003d3c:	00178793          	addi	a5,a5,1
    80003d40:	fe17eee3          	bltu	a5,ra,80003d3c <i_3758>

0000000080003d44 <i_3759>:
    80003d44:	f0713023          	sd	t2,-256(sp)

0000000080003d48 <i_3760>:
    80003d48:	ebc11023          	sh	t3,-352(sp)

0000000080003d4c <i_3761>:
    80003d4c:	07c12a23          	sw	t3,116(sp)

0000000080003d50 <i_3762>:
    80003d50:	e3c11b23          	sh	t3,-458(sp)

0000000080003d54 <i_3763>:
    80003d54:	001d8d93          	addi	s11,s11,1
    80003d58:	fdb852e3          	ble	s11,a6,80003d1c <i_3750>

0000000080003d5c <i_3764>:
    80003d5c:	f3c13423          	sd	t3,-216(sp)

0000000080003d60 <i_3765>:
    80003d60:	19c10ea3          	sb	t3,413(sp)

0000000080003d64 <i_3766>:
    80003d64:	37b0ce97          	auipc	t4,0x37b0c

0000000080003d68 <i_3767>:
    80003d68:	73900e13          	li	t3,1849

0000000080003d6c <i_3768>:
    80003d6c:	74900593          	li	a1,1865

0000000080003d70 <i_3769>:
    80003d70:	09b10383          	lb	t2,155(sp)

0000000080003d74 <i_3770>:
    80003d74:	09012223          	sw	a6,132(sp)

0000000080003d78 <i_3771>:
    80003d78:	f4013803          	ld	a6,-192(sp)

0000000080003d7c <i_3772>:
    80003d7c:	fac16a03          	lwu	s4,-84(sp)

0000000080003d80 <i_3773>:
    80003d80:	c8ba3093          	sltiu	ra,s4,-885

0000000080003d84 <i_3774>:
    80003d84:	03000393          	li	t2,48

0000000080003d88 <i_3775>:
    80003d88:	0075d533          	srl	a0,a1,t2

0000000080003d8c <i_3776>:
    80003d8c:	0148c663          	blt	a7,s4,80003d98 <i_3779>

0000000080003d90 <i_3777>:
    80003d90:	00a34333          	xor	t1,t1,a0

0000000080003d94 <i_3778>:
    80003d94:	451d4393          	xori	t2,s10,1105

0000000080003d98 <i_3779>:
    80003d98:	e8d14403          	lbu	s0,-371(sp)

0000000080003d9c <i_3780>:
    80003d9c:	0210d333          	divu	t1,ra,ra

0000000080003da0 <i_3781>:
    80003da0:	02736263          	bltu	t1,t2,80003dc4 <i_3789>

0000000080003da4 <i_3782>:
    80003da4:	4033d093          	srai	ra,t2,0x3

0000000080003da8 <i_3783>:
    80003da8:	4010de93          	srai	t4,ra,0x1

0000000080003dac <i_3784>:
    80003dac:	404a5d93          	srai	s11,s4,0x4

0000000080003db0 <i_3785>:
    80003db0:	001e0e13          	addi	t3,t3,1 # 4cc001 <main-0x7fb33fff>
    80003db4:	fabe6ee3          	bltu	t3,a1,80003d70 <i_3769>

0000000080003db8 <i_3786>:
    80003db8:	0c613823          	sd	t1,208(sp)

0000000080003dbc <i_3787>:
    80003dbc:	027ed3b3          	divu	t2,t4,t2

0000000080003dc0 <i_3788>:
    80003dc0:	19713823          	sd	s7,400(sp)

0000000080003dc4 <i_3789>:
    80003dc4:	56953337          	lui	t1,0x56953

0000000080003dc8 <i_3790>:
    80003dc8:	02416383          	lwu	t2,36(sp)

0000000080003dcc <i_3791>:
    80003dcc:	02736463          	bltu	t1,t2,80003df4 <i_3801>

0000000080003dd0 <i_3792>:
    80003dd0:	01d3e863          	bltu	t2,t4,80003de0 <i_3796>

0000000080003dd4 <i_3793>:
    80003dd4:	12812283          	lw	t0,296(sp)

0000000080003dd8 <i_3794>:
    80003dd8:	00000013          	nop

0000000080003ddc <i_3795>:
    80003ddc:	00000013          	nop

0000000080003de0 <i_3796>:
    80003de0:	fa913c23          	sd	s1,-72(sp)

0000000080003de4 <i_3797>:
    80003de4:	16612423          	sw	t1,360(sp)

0000000080003de8 <i_3798>:
    80003de8:	00000013          	nop

0000000080003dec <i_3799>:
    80003dec:	4043d39b          	sraiw	t2,t2,0x4

0000000080003df0 <i_3800>:
    80003df0:	02400513          	li	a0,36

0000000080003df4 <i_3801>:
    80003df4:	40a55333          	sra	t1,a0,a0

0000000080003df8 <i_3802>:
    80003df8:	00000013          	nop

0000000080003dfc <i_3803>:
    80003dfc:	89700293          	li	t0,-1897

0000000080003e00 <i_3804>:
    80003e00:	89b00d93          	li	s11,-1893

0000000080003e04 <i_3805>:
    80003e04:	00128293          	addi	t0,t0,1
    80003e08:	ffb2eee3          	bltu	t0,s11,80003e04 <i_3805>

0000000080003e0c <i_3806>:
    80003e0c:	02712c23          	sw	t2,56(sp)

0000000080003e10 <i_3807>:
    80003e10:	16713c23          	sd	t2,376(sp)

0000000080003e14 <i_3808>:
    80003e14:	02652a33          	mulhsu	s4,a0,t1

0000000080003e18 <i_3809>:
    80003e18:	00000013          	nop

0000000080003e1c <i_3810>:
    80003e1c:	00000013          	nop

0000000080003e20 <i_3811>:
    80003e20:	87300e93          	li	t4,-1933

0000000080003e24 <i_3812>:
    80003e24:	88000b93          	li	s7,-1920

0000000080003e28 <i_3813>:
    80003e28:	027cc5bb          	divw	a1,s9,t2

0000000080003e2c <i_3814>:
    80003e2c:	001e8e93          	addi	t4,t4,1 # b7b0fd65 <_end+0x37aff951>
    80003e30:	ffdbfce3          	bleu	t4,s7,80003e28 <i_3813>

0000000080003e34 <i_3815>:
    80003e34:	557e3517          	auipc	a0,0x557e3

0000000080003e38 <i_3816>:
    80003e38:	026bfeb3          	remu	t4,s7,t1

0000000080003e3c <i_3817>:
    80003e3c:	1dc16a03          	lwu	s4,476(sp)

0000000080003e40 <i_3818>:
    80003e40:	f8b13823          	sd	a1,-112(sp)

0000000080003e44 <i_3819>:
    80003e44:	e3b10523          	sb	s11,-470(sp)

0000000080003e48 <i_3820>:
    80003e48:	1d813503          	ld	a0,472(sp)

0000000080003e4c <i_3821>:
    80003e4c:	00a573b3          	and	t2,a0,a0

0000000080003e50 <i_3822>:
    80003e50:	f3816b83          	lwu	s7,-200(sp)

0000000080003e54 <i_3823>:
    80003e54:	00cbae33          	slt	t3,s7,a2

0000000080003e58 <i_3824>:
    80003e58:	01c54463          	blt	a0,t3,80003e60 <i_3826>

0000000080003e5c <i_3825>:
    80003e5c:	03100193          	li	gp,49

0000000080003e60 <i_3826>:
    80003e60:	003bd533          	srl	a0,s7,gp

0000000080003e64 <i_3827>:
    80003e64:	014bec63          	bltu	s7,s4,80003e7c <i_3833>

0000000080003e68 <i_3828>:
    80003e68:	01f00e13          	li	t3,31

0000000080003e6c <i_3829>:
    80003e6c:	01c713bb          	sllw	t2,a4,t3

0000000080003e70 <i_3830>:
    80003e70:	19c105a3          	sb	t3,395(sp)

0000000080003e74 <i_3831>:
    80003e74:	01138663          	beq	t2,a7,80003e80 <i_3834>

0000000080003e78 <i_3832>:
    80003e78:	0241d463          	ble	tp,gp,80003ea0 <i_3842>

0000000080003e7c <i_3833>:
    80003e7c:	03c6a433          	mulhsu	s0,a3,t3

0000000080003e80 <i_3834>:
    80003e80:	14d10183          	lb	gp,333(sp)

0000000080003e84 <i_3835>:
    80003e84:	3633e593          	ori	a1,t2,867

0000000080003e88 <i_3836>:
    80003e88:	fc8102a3          	sb	s0,-59(sp)

0000000080003e8c <i_3837>:
    80003e8c:	02400293          	li	t0,36

0000000080003e90 <i_3838>:
    80003e90:	005393b3          	sll	t2,t2,t0

0000000080003e94 <i_3839>:
    80003e94:	0253e433          	rem	s0,t2,t0

0000000080003e98 <i_3840>:
    80003e98:	16511323          	sh	t0,358(sp)

0000000080003e9c <i_3841>:
    80003e9c:	01245463          	ble	s2,s0,80003ea4 <i_3843>

0000000080003ea0 <i_3842>:
    80003ea0:	00847433          	and	s0,s0,s0

0000000080003ea4 <i_3843>:
    80003ea4:	0259d83b          	divuw	a6,s3,t0

0000000080003ea8 <i_3844>:
    80003ea8:	8b440413          	addi	s0,s0,-1868

0000000080003eac <i_3845>:
    80003eac:	1b414403          	lbu	s0,436(sp)

0000000080003eb0 <i_3846>:
    80003eb0:	0e416203          	lwu	tp,228(sp)

0000000080003eb4 <i_3847>:
    80003eb4:	00643333          	sltu	t1,s0,t1

0000000080003eb8 <i_3848>:
    80003eb8:	0e8107a3          	sb	s0,239(sp)

0000000080003ebc <i_3849>:
    80003ebc:	00700293          	li	t0,7

0000000080003ec0 <i_3850>:
    80003ec0:	0054543b          	srlw	s0,s0,t0

0000000080003ec4 <i_3851>:
    80003ec4:	10415583          	lhu	a1,260(sp)

0000000080003ec8 <i_3852>:
    80003ec8:	0252a2b3          	mulhsu	t0,t0,t0

0000000080003ecc <i_3853>:
    80003ecc:	f4013503          	ld	a0,-192(sp)

0000000080003ed0 <i_3854>:
    80003ed0:	fa813423          	sd	s0,-88(sp)

0000000080003ed4 <i_3855>:
    80003ed4:	f4614403          	lbu	s0,-186(sp)

0000000080003ed8 <i_3856>:
    80003ed8:	414c0533          	sub	a0,s8,s4

0000000080003edc <i_3857>:
    80003edc:	f2a10da3          	sb	a0,-197(sp)

0000000080003ee0 <i_3858>:
    80003ee0:	fdd10283          	lb	t0,-35(sp)

0000000080003ee4 <i_3859>:
    80003ee4:	00a44463          	blt	s0,a0,80003eec <i_3861>

0000000080003ee8 <i_3860>:
    80003ee8:	e3013983          	ld	s3,-464(sp)

0000000080003eec <i_3861>:
    80003eec:	e1c12a03          	lw	s4,-484(sp)

0000000080003ef0 <i_3862>:
    80003ef0:	013579b3          	and	s3,a0,s3

0000000080003ef4 <i_3863>:
    80003ef4:	034a79b3          	remu	s3,s4,s4

0000000080003ef8 <i_3864>:
    80003ef8:	94e2a313          	slti	t1,t0,-1714

0000000080003efc <i_3865>:
    80003efc:	eae12e23          	sw	a4,-324(sp)

0000000080003f00 <i_3866>:
    80003f00:	5ac29517          	auipc	a0,0x5ac29

0000000080003f04 <i_3867>:
    80003f04:	12c12183          	lw	gp,300(sp)

0000000080003f08 <i_3868>:
    80003f08:	8ac00093          	li	ra,-1876

0000000080003f0c <i_3869>:
    80003f0c:	8b100293          	li	t0,-1871

0000000080003f10 <i_3870>:
    80003f10:	e3a11983          	lh	s3,-454(sp)

0000000080003f14 <i_3871>:
    80003f14:	08513023          	sd	t0,128(sp)

0000000080003f18 <i_3872>:
    80003f18:	00000013          	nop

0000000080003f1c <i_3873>:
    80003f1c:	eac10ba3          	sb	a2,-329(sp)

0000000080003f20 <i_3874>:
    80003f20:	00a2b233          	sltu	tp,t0,a0

0000000080003f24 <i_3875>:
    80003f24:	00a0ba33          	sltu	s4,ra,a0

0000000080003f28 <i_3876>:
    80003f28:	034a5463          	ble	s4,s4,80003f50 <i_3885>

0000000080003f2c <i_3877>:
    80003f2c:	00108093          	addi	ra,ra,1
    80003f30:	fe5090e3          	bne	ra,t0,80003f10 <i_3870>

0000000080003f34 <i_3878>:
    80003f34:	02457463          	bleu	tp,a0,80003f5c <i_3888>

0000000080003f38 <i_3879>:
    80003f38:	01b00513          	li	a0,27

0000000080003f3c <i_3880>:
    80003f3c:	00aa17bb          	sllw	a5,s4,a0

0000000080003f40 <i_3881>:
    80003f40:	0067e333          	or	t1,a5,t1

0000000080003f44 <i_3882>:
    80003f44:	02630463          	beq	t1,t1,80003f6c <i_3892>

0000000080003f48 <i_3883>:
    80003f48:	08f12a23          	sw	a5,148(sp)

0000000080003f4c <i_3884>:
    80003f4c:	02b305bb          	mulw	a1,t1,a1

0000000080003f50 <i_3885>:
    80003f50:	0b412023          	sw	s4,160(sp)

0000000080003f54 <i_3886>:
    80003f54:	c5fe6313          	ori	t1,t3,-929

0000000080003f58 <i_3887>:
    80003f58:	02ba5533          	divu	a0,s4,a1

0000000080003f5c <i_3888>:
    80003f5c:	00455463          	ble	tp,a0,80003f64 <i_3890>

0000000080003f60 <i_3889>:
    80003f60:	059100a3          	sb	s9,65(sp)

0000000080003f64 <i_3890>:
    80003f64:	00bb7bb3          	and	s7,s6,a1

0000000080003f68 <i_3891>:
    80003f68:	02a7c5bb          	divw	a1,a5,a0

0000000080003f6c <i_3892>:
    80003f6c:	4043531b          	sraiw	t1,t1,0x4

0000000080003f70 <i_3893>:
    80003f70:	10e10923          	sb	a4,274(sp)

0000000080003f74 <i_3894>:
    80003f74:	e4b12223          	sw	a1,-444(sp)

0000000080003f78 <i_3895>:
    80003f78:	02651463          	bne	a0,t1,80003fa0 <i_3905>

0000000080003f7c <i_3896>:
    80003f7c:	0060e263          	bltu	ra,t1,80003f80 <i_3897>

0000000080003f80 <i_3897>:
    80003f80:	e8416303          	lwu	t1,-380(sp)

0000000080003f84 <i_3898>:
    80003f84:	00b30463          	beq	t1,a1,80003f8c <i_3900>

0000000080003f88 <i_3899>:
    80003f88:	00900313          	li	t1,9

0000000080003f8c <i_3900>:
    80003f8c:	406ad33b          	sraw	t1,s5,t1

0000000080003f90 <i_3901>:
    80003f90:	00630263          	beq	t1,t1,80003f94 <i_3902>

0000000080003f94 <i_3902>:
    80003f94:	e6110b83          	lb	s7,-415(sp)

0000000080003f98 <i_3903>:
    80003f98:	11e10303          	lb	t1,286(sp)

0000000080003f9c <i_3904>:
    80003f9c:	00634863          	blt	t1,t1,80003fac <i_3908>

0000000080003fa0 <i_3905>:
    80003fa0:	02631463          	bne	t1,t1,80003fc8 <i_3915>

0000000080003fa4 <i_3906>:
    80003fa4:	eac16a03          	lwu	s4,-340(sp)

0000000080003fa8 <i_3907>:
    80003fa8:	12e11a03          	lh	s4,302(sp)

0000000080003fac <i_3908>:
    80003fac:	04813303          	ld	t1,72(sp)

0000000080003fb0 <i_3909>:
    80003fb0:	4043531b          	sraiw	t1,t1,0x4

0000000080003fb4 <i_3910>:
    80003fb4:	e6c14e03          	lbu	t3,-404(sp)

0000000080003fb8 <i_3911>:
    80003fb8:	403a01bb          	subw	gp,s4,gp

0000000080003fbc <i_3912>:
    80003fbc:	03ce3e33          	mulhu	t3,t3,t3

0000000080003fc0 <i_3913>:
    80003fc0:	f4c16e03          	lwu	t3,-180(sp)

0000000080003fc4 <i_3914>:
    80003fc4:	11614083          	lbu	ra,278(sp)

0000000080003fc8 <i_3915>:
    80003fc8:	20e26193          	ori	gp,tp,526

0000000080003fcc <i_3916>:
    80003fcc:	03c15e03          	lhu	t3,60(sp)

0000000080003fd0 <i_3917>:
    80003fd0:	001e0663          	beq	t3,ra,80003fdc <i_3920>

0000000080003fd4 <i_3918>:
    80003fd4:	023b0063          	beq	s6,gp,80003ff4 <i_3926>

0000000080003fd8 <i_3919>:
    80003fd8:	a821ee13          	ori	t3,gp,-1406

0000000080003fdc <i_3920>:
    80003fdc:	021e0e3b          	mulw	t3,t3,ra

0000000080003fe0 <i_3921>:
    80003fe0:	01619463          	bne	gp,s6,80003fe8 <i_3923>

0000000080003fe4 <i_3922>:
    80003fe4:	004e5093          	srli	ra,t3,0x4

0000000080003fe8 <i_3923>:
    80003fe8:	11416e83          	lwu	t4,276(sp)

0000000080003fec <i_3924>:
    80003fec:	01d64463          	blt	a2,t4,80003ff4 <i_3926>

0000000080003ff0 <i_3925>:
    80003ff0:	021e4eb3          	div	t4,t3,ra

0000000080003ff4 <i_3926>:
    80003ff4:	ffc12e23          	sw	t3,-4(sp)

0000000080003ff8 <i_3927>:
    80003ff8:	17d106a3          	sb	t4,365(sp)

0000000080003ffc <i_3928>:
    80003ffc:	15511223          	sh	s5,324(sp)

0000000080004000 <i_3929>:
    80004000:	e5d11823          	sh	t4,-432(sp)

0000000080004004 <i_3930>:
    80004004:	01deaeb3          	slt	t4,t4,t4

0000000080004008 <i_3931>:
    80004008:	41de85b3          	sub	a1,t4,t4

000000008000400c <i_3932>:
    8000400c:	0a813583          	ld	a1,168(sp)

0000000080004010 <i_3933>:
    80004010:	e4013e83          	ld	t4,-448(sp)

0000000080004014 <i_3934>:
    80004014:	10f11023          	sh	a5,256(sp)

0000000080004018 <i_3935>:
    80004018:	12b11623          	sh	a1,300(sp)

000000008000401c <i_3936>:
    8000401c:	edc11983          	lh	s3,-292(sp)

0000000080004020 <i_3937>:
    80004020:	0f311823          	sh	s3,240(sp)

0000000080004024 <i_3938>:
    80004024:	03d5453b          	divw	a0,a0,t4

0000000080004028 <i_3939>:
    80004028:	fdc12403          	lw	s0,-36(sp)

000000008000402c <i_3940>:
    8000402c:	92c08e93          	addi	t4,ra,-1748

0000000080004030 <i_3941>:
    80004030:	1a016983          	lwu	s3,416(sp)

0000000080004034 <i_3942>:
    80004034:	f8410e03          	lb	t3,-124(sp)

0000000080004038 <i_3943>:
    80004038:	73b00093          	li	ra,1851

000000008000403c <i_3944>:
    8000403c:	73f00193          	li	gp,1855

0000000080004040 <i_3945>:
    80004040:	00000013          	nop

0000000080004044 <i_3946>:
    80004044:	00da7db3          	and	s11,s4,a3

0000000080004048 <i_3947>:
    80004048:	7cf00293          	li	t0,1999

000000008000404c <i_3948>:
    8000404c:	7d900993          	li	s3,2009

0000000080004050 <i_3949>:
    80004050:	00128293          	addi	t0,t0,1
    80004054:	ff32cee3          	blt	t0,s3,80004050 <i_3949>

0000000080004058 <i_3950>:
    80004058:	414189bb          	subw	s3,gp,s4

000000008000405c <i_3951>:
    8000405c:	034a2a33          	mulhsu	s4,s4,s4

0000000080004060 <i_3952>:
    80004060:	01ba69b3          	or	s3,s4,s11

0000000080004064 <i_3953>:
    80004064:	08714d83          	lbu	s11,135(sp)

0000000080004068 <i_3954>:
    80004068:	f4110e03          	lb	t3,-191(sp)

000000008000406c <i_3955>:
    8000406c:	01ca4c63          	blt	s4,t3,80004084 <i_3960>

0000000080004070 <i_3956>:
    80004070:	00108093          	addi	ra,ra,1
    80004074:	fc3096e3          	bne	ra,gp,80004040 <i_3945>

0000000080004078 <i_3957>:
    80004078:	0149f463          	bleu	s4,s3,80004080 <i_3959>

000000008000407c <i_3958>:
    8000407c:	0048181b          	slliw	a6,a6,0x4

0000000080004080 <i_3959>:
    80004080:	05816a03          	lwu	s4,88(sp)

0000000080004084 <i_3960>:
    80004084:	013dfdb3          	and	s11,s11,s3

0000000080004088 <i_3961>:
    80004088:	03013e03          	ld	t3,48(sp)

000000008000408c <i_3962>:
    8000408c:	f8a11983          	lh	s3,-118(sp)

0000000080004090 <i_3963>:
    80004090:	edb12a23          	sw	s11,-300(sp)

0000000080004094 <i_3964>:
    80004094:	01bdfa63          	bleu	s11,s11,800040a8 <i_3969>

0000000080004098 <i_3965>:
    80004098:	1b012203          	lw	tp,432(sp)

000000008000409c <i_3966>:
    8000409c:	ed412283          	lw	t0,-300(sp)

00000000800040a0 <i_3967>:
    800040a0:	00526863          	bltu	tp,t0,800040b0 <i_3971>

00000000800040a4 <i_3968>:
    800040a4:	06412383          	lw	t2,100(sp)

00000000800040a8 <i_3969>:
    800040a8:	0052c2b3          	xor	t0,t0,t0

00000000800040ac <i_3970>:
    800040ac:	f0d10283          	lb	t0,-243(sp)

00000000800040b0 <i_3971>:
    800040b0:	e8e7f793          	andi	a5,a5,-370

00000000800040b4 <i_3972>:
    800040b4:	025106a3          	sb	t0,45(sp)

00000000800040b8 <i_3973>:
    800040b8:	08c16a03          	lwu	s4,140(sp)

00000000800040bc <i_3974>:
    800040bc:	09611783          	lh	a5,150(sp)

00000000800040c0 <i_3975>:
    800040c0:	0112ec63          	bltu	t0,a7,800040d8 <i_3981>

00000000800040c4 <i_3976>:
    800040c4:	04014a03          	lbu	s4,64(sp)

00000000800040c8 <i_3977>:
    800040c8:	1bc11a03          	lh	s4,444(sp)

00000000800040cc <i_3978>:
    800040cc:	02f31263          	bne	t1,a5,800040f0 <i_3987>

00000000800040d0 <i_3979>:
    800040d0:	19012a23          	sw	a6,404(sp)

00000000800040d4 <i_3980>:
    800040d4:	41ba023b          	subw	tp,s4,s11

00000000800040d8 <i_3981>:
    800040d8:	0b813503          	ld	a0,184(sp)

00000000800040dc <i_3982>:
    800040dc:	0f011e03          	lh	t3,240(sp)

00000000800040e0 <i_3983>:
    800040e0:	ea211d83          	lh	s11,-350(sp)

00000000800040e4 <i_3984>:
    800040e4:	00012a03          	lw	s4,0(sp)

00000000800040e8 <i_3985>:
    800040e8:	014783b3          	add	t2,a5,s4

00000000800040ec <i_3986>:
    800040ec:	1b012183          	lw	gp,432(sp)

00000000800040f0 <i_3987>:
    800040f0:	01d00b93          	li	s7,29

00000000800040f4 <i_3988>:
    800040f4:	017911bb          	sllw	gp,s2,s7

00000000800040f8 <i_3989>:
    800040f8:	7cc00a13          	li	s4,1996

00000000800040fc <i_3990>:
    800040fc:	7d600513          	li	a0,2006

0000000080004100 <i_3991>:
    80004100:	037bebb3          	rem	s7,s7,s7

0000000080004104 <i_3992>:
    80004104:	021b9663          	bne	s7,ra,80004130 <i_4002>

0000000080004108 <i_3993>:
    80004108:	0b412023          	sw	s4,160(sp)

000000008000410c <i_3994>:
    8000410c:	03300e13          	li	t3,51

0000000080004110 <i_3995>:
    80004110:	41c550b3          	sra	ra,a0,t3

0000000080004114 <i_3996>:
    80004114:	001a0a13          	addi	s4,s4,1 # 6ddfc001 <main-0x12203fff>
    80004118:	ff4554e3          	ble	s4,a0,80004100 <i_3991>

000000008000411c <i_3997>:
    8000411c:	0cc12183          	lw	gp,204(sp)

0000000080004120 <i_3998>:
    80004120:	eeabb513          	sltiu	a0,s7,-278

0000000080004124 <i_3999>:
    80004124:	eb013503          	ld	a0,-336(sp)

0000000080004128 <i_4000>:
    80004128:	1e1ee993          	ori	s3,t4,481

000000008000412c <i_4001>:
    8000412c:	0e313423          	sd	gp,232(sp)

0000000080004130 <i_4002>:
    80004130:	9f096b93          	ori	s7,s2,-1552

0000000080004134 <i_4003>:
    80004134:	4044541b          	sraiw	s0,s0,0x4

0000000080004138 <i_4004>:
    80004138:	19815e83          	lhu	t4,408(sp)

000000008000413c <i_4005>:
    8000413c:	008de1b3          	or	gp,s11,s0

0000000080004140 <i_4006>:
    80004140:	f9012203          	lw	tp,-112(sp)

0000000080004144 <i_4007>:
    80004144:	404ed493          	srai	s1,t4,0x4

0000000080004148 <i_4008>:
    80004148:	01d7c7b3          	xor	a5,a5,t4

000000008000414c <i_4009>:
    8000414c:	846eae93          	slti	t4,t4,-1978

0000000080004150 <i_4010>:
    80004150:	f8c16e83          	lwu	t4,-116(sp)

0000000080004154 <i_4011>:
    80004154:	f7d13423          	sd	t4,-152(sp)

0000000080004158 <i_4012>:
    80004158:	00f7ee63          	bltu	a5,a5,80004174 <i_4019>

000000008000415c <i_4013>:
    8000415c:	fa911223          	sh	s1,-92(sp)

0000000080004160 <i_4014>:
    80004160:	0294f263          	bleu	s1,s1,80004184 <i_4023>

0000000080004164 <i_4015>:
    80004164:	14c11483          	lh	s1,332(sp)

0000000080004168 <i_4016>:
    80004168:	10d14183          	lbu	gp,269(sp)

000000008000416c <i_4017>:
    8000416c:	e8f10aa3          	sb	a5,-363(sp)

0000000080004170 <i_4018>:
    80004170:	0031ee63          	bltu	gp,gp,8000418c <i_4025>

0000000080004174 <i_4019>:
    80004174:	00400793          	li	a5,4

0000000080004178 <i_4020>:
    80004178:	40f7d4bb          	sraw	s1,a5,a5

000000008000417c <i_4021>:
    8000417c:	f0f11523          	sh	a5,-246(sp)

0000000080004180 <i_4022>:
    80004180:	0a311423          	sh	gp,168(sp)

0000000080004184 <i_4023>:
    80004184:	0f014183          	lbu	gp,240(sp)

0000000080004188 <i_4024>:
    80004188:	01900a13          	li	s4,25

000000008000418c <i_4025>:
    8000418c:	014999bb          	sllw	s3,s3,s4

0000000080004190 <i_4026>:
    80004190:	0e312423          	sw	gp,232(sp)

0000000080004194 <i_4027>:
    80004194:	f5811483          	lh	s1,-168(sp)

0000000080004198 <i_4028>:
    80004198:	10a7b7b7          	lui	a5,0x10a7b

000000008000419c <i_4029>:
    8000419c:	00f4ea63          	bltu	s1,a5,800041b0 <i_4034>

00000000800041a0 <i_4030>:
    800041a0:	00f78db3          	add	s11,a5,a5

00000000800041a4 <i_4031>:
    800041a4:	04011783          	lh	a5,64(sp)

00000000800041a8 <i_4032>:
    800041a8:	17614783          	lbu	a5,374(sp)

00000000800041ac <i_4033>:
    800041ac:	00000013          	nop

00000000800041b0 <i_4034>:
    800041b0:	e6f12423          	sw	a5,-408(sp)

00000000800041b4 <i_4035>:
    800041b4:	a8554513          	xori	a0,a0,-1403

00000000800041b8 <i_4036>:
    800041b8:	7e500d93          	li	s11,2021

00000000800041bc <i_4037>:
    800041bc:	7ee00193          	li	gp,2030

00000000800041c0 <i_4038>:
    800041c0:	12f10483          	lb	s1,303(sp)

00000000800041c4 <i_4039>:
    800041c4:	1ad14783          	lbu	a5,429(sp)

00000000800041c8 <i_4040>:
    800041c8:	ff314503          	lbu	a0,-13(sp)

00000000800041cc <i_4041>:
    800041cc:	06a11f23          	sh	a0,126(sp)

00000000800041d0 <i_4042>:
    800041d0:	03600213          	li	tp,54

00000000800041d4 <i_4043>:
    800041d4:	004552b3          	srl	t0,a0,tp

00000000800041d8 <i_4044>:
    800041d8:	d2f12437          	lui	s0,0xd2f12

00000000800041dc <i_4045>:
    800041dc:	1be10a03          	lb	s4,446(sp)

00000000800041e0 <i_4046>:
    800041e0:	13413823          	sd	s4,304(sp)

00000000800041e4 <i_4047>:
    800041e4:	069d2b93          	slti	s7,s10,105

00000000800041e8 <i_4048>:
    800041e8:	e9016403          	lwu	s0,-368(sp)

00000000800041ec <i_4049>:
    800041ec:	001d8d93          	addi	s11,s11,1
    800041f0:	fdb1d8e3          	ble	s11,gp,800041c0 <i_4038>

00000000800041f4 <i_4050>:
    800041f4:	faa102a3          	sb	a0,-91(sp)

00000000800041f8 <i_4051>:
    800041f8:	ff810203          	lb	tp,-8(sp)

00000000800041fc <i_4052>:
    800041fc:	00f4f263          	bleu	a5,s1,80004200 <i_4053>

0000000080004200 <i_4053>:
    80004200:	10a13823          	sd	a0,272(sp)

0000000080004204 <i_4054>:
    80004204:	93c44413          	xori	s0,s0,-1732

0000000080004208 <i_4055>:
    80004208:	14016403          	lwu	s0,320(sp)

000000008000420c <i_4056>:
    8000420c:	40245293          	srai	t0,s0,0x2

0000000080004210 <i_4057>:
    80004210:	0b0107a3          	sb	a6,175(sp)

0000000080004214 <i_4058>:
    80004214:	0142ca63          	blt	t0,s4,80004228 <i_4063>

0000000080004218 <i_4059>:
    80004218:	fc813383          	ld	t2,-56(sp)

000000008000421c <i_4060>:
    8000421c:	007bfe63          	bleu	t2,s7,80004238 <i_4067>

0000000080004220 <i_4061>:
    80004220:	02441433          	mulh	s0,s0,tp

0000000080004224 <i_4062>:
    80004224:	00f50c63          	beq	a0,a5,8000423c <i_4068>

0000000080004228 <i_4063>:
    80004228:	017b8863          	beq	s7,s7,80004238 <i_4067>

000000008000422c <i_4064>:
    8000422c:	17012503          	lw	a0,368(sp)

0000000080004230 <i_4065>:
    80004230:	e7d7829b          	addiw	t0,a5,-387

0000000080004234 <i_4066>:
    80004234:	13713823          	sd	s7,304(sp)

0000000080004238 <i_4067>:
    80004238:	00329413          	slli	s0,t0,0x3

000000008000423c <i_4068>:
    8000423c:	ea215a03          	lhu	s4,-350(sp)

0000000080004240 <i_4069>:
    80004240:	e5412c23          	sw	s4,-424(sp)

0000000080004244 <i_4070>:
    80004244:	89c00b93          	li	s7,-1892

0000000080004248 <i_4071>:
    80004248:	8a900793          	li	a5,-1879

000000008000424c <i_4072>:
    8000424c:	04812423          	sw	s0,72(sp)

0000000080004250 <i_4073>:
    80004250:	00fa4e63          	blt	s4,a5,8000426c <i_4080>

0000000080004254 <i_4074>:
    80004254:	037b89b3          	mul	s3,s7,s7

0000000080004258 <i_4075>:
    80004258:	fc510983          	lb	s3,-59(sp)

000000008000425c <i_4076>:
    8000425c:	1a510f23          	sb	t0,446(sp)

0000000080004260 <i_4077>:
    80004260:	e9710da3          	sb	s7,-357(sp)

0000000080004264 <i_4078>:
    80004264:	f3816983          	lwu	s3,-200(sp)

0000000080004268 <i_4079>:
    80004268:	0b912a23          	sw	s9,180(sp)

000000008000426c <i_4080>:
    8000426c:	f4215403          	lhu	s0,-190(sp)

0000000080004270 <i_4081>:
    80004270:	02f35333          	divu	t1,t1,a5

0000000080004274 <i_4082>:
    80004274:	001b8b93          	addi	s7,s7,1 # 6390f001 <main-0x1c6f0fff>
    80004278:	fcfbeae3          	bltu	s7,a5,8000424c <i_4072>

000000008000427c <i_4083>:
    8000427c:	03e37063          	bleu	t5,t1,8000429c <i_4091>

0000000080004280 <i_4084>:
    80004280:	41a585b3          	sub	a1,a1,s10

0000000080004284 <i_4085>:
    80004284:	edf3021b          	addiw	tp,t1,-289

0000000080004288 <i_4086>:
    80004288:	3b272513          	slti	a0,a4,946

000000008000428c <i_4087>:
    8000428c:	fcc10483          	lb	s1,-52(sp)

0000000080004290 <i_4088>:
    80004290:	1a613423          	sd	t1,424(sp)

0000000080004294 <i_4089>:
    80004294:	01499663          	bne	s3,s4,800042a0 <i_4092>

0000000080004298 <i_4090>:
    80004298:	09013d83          	ld	s11,144(sp)

000000008000429c <i_4091>:
    8000429c:	4013521b          	sraiw	tp,t1,0x1

00000000800042a0 <i_4092>:
    800042a0:	0039999b          	slliw	s3,s3,0x3

00000000800042a4 <i_4093>:
    800042a4:	03348063          	beq	s1,s3,800042c4 <i_4101>

00000000800042a8 <i_4094>:
    800042a8:	0299ee33          	rem	t3,s3,s1

00000000800042ac <i_4095>:
    800042ac:	07c13c23          	sd	t3,120(sp)

00000000800042b0 <i_4096>:
    800042b0:	fd814383          	lbu	t2,-40(sp)

00000000800042b4 <i_4097>:
    800042b4:	e4913c23          	sd	s1,-424(sp)

00000000800042b8 <i_4098>:
    800042b8:	00439a1b          	slliw	s4,t2,0x4

00000000800042bc <i_4099>:
    800042bc:	10811d83          	lh	s11,264(sp)

00000000800042c0 <i_4100>:
    800042c0:	03b2ebbb          	remw	s7,t0,s11

00000000800042c4 <i_4101>:
    800042c4:	029d8dbb          	mulw	s11,s11,s1

00000000800042c8 <i_4102>:
    800042c8:	fb814983          	lbu	s3,-72(sp)

00000000800042cc <i_4103>:
    800042cc:	82f00213          	li	tp,-2001

00000000800042d0 <i_4104>:
    800042d0:	83500e13          	li	t3,-1995

00000000800042d4 <i_4105>:
    800042d4:	fb910983          	lb	s3,-71(sp)

00000000800042d8 <i_4106>:
    800042d8:	03cdf063          	bleu	t3,s11,800042f8 <i_4113>

00000000800042dc <i_4107>:
    800042dc:	0139c7b3          	xor	a5,s3,s3

00000000800042e0 <i_4108>:
    800042e0:	00120213          	addi	tp,tp,1 # 1 <main-0x7fffffff>
    800042e4:	fe4e78e3          	bleu	tp,t3,800042d4 <i_4105>

00000000800042e8 <i_4109>:
    800042e8:	01378463          	beq	a5,s3,800042f0 <i_4111>

00000000800042ec <i_4110>:
    800042ec:	e4416783          	lwu	a5,-444(sp)

00000000800042f0 <i_4111>:
    800042f0:	03bc7063          	bleu	s11,s8,80004310 <i_4119>

00000000800042f4 <i_4112>:
    800042f4:	15310503          	lb	a0,339(sp)

00000000800042f8 <i_4113>:
    800042f8:	fe013403          	ld	s0,-32(sp)

00000000800042fc <i_4114>:
    800042fc:	00880833          	add	a6,a6,s0

0000000080004300 <i_4115>:
    80004300:	1a510f23          	sb	t0,446(sp)

0000000080004304 <i_4116>:
    80004304:	403a5d9b          	sraiw	s11,s4,0x3

0000000080004308 <i_4117>:
    80004308:	06a10e03          	lb	t3,106(sp)

000000008000430c <i_4118>:
    8000430c:	1ba1819b          	addiw	gp,gp,442

0000000080004310 <i_4119>:
    80004310:	00000013          	nop

0000000080004314 <i_4120>:
    80004314:	ea513823          	sd	t0,-336(sp)

0000000080004318 <i_4121>:
    80004318:	7d400513          	li	a0,2004

000000008000431c <i_4122>:
    8000431c:	7e200793          	li	a5,2018

0000000080004320 <i_4123>:
    80004320:	03cdbdb3          	mulhu	s11,s11,t3

0000000080004324 <i_4124>:
    80004324:	00000013          	nop

0000000080004328 <i_4125>:
    80004328:	74300293          	li	t0,1859

000000008000432c <i_4126>:
    8000432c:	75100413          	li	s0,1873

0000000080004330 <i_4127>:
    80004330:	bd5d8e1b          	addiw	t3,s11,-1067

0000000080004334 <i_4128>:
    80004334:	00128293          	addi	t0,t0,1
    80004338:	fe545ce3          	ble	t0,s0,80004330 <i_4127>

000000008000433c <i_4129>:
    8000433c:	01d00a13          	li	s4,29

0000000080004340 <i_4130>:
    80004340:	014e133b          	sllw	t1,t3,s4

0000000080004344 <i_4131>:
    80004344:	00150513          	addi	a0,a0,1 # dac2cf01 <_end+0x5ac1caed>
    80004348:	fcf56ce3          	bltu	a0,a5,80004320 <i_4123>

000000008000434c <i_4132>:
    8000434c:	ef813803          	ld	a6,-264(sp)

0000000080004350 <i_4133>:
    80004350:	ffc10623          	sb	t3,-20(sp)

0000000080004354 <i_4134>:
    80004354:	51e1f813          	andi	a6,gp,1310

0000000080004358 <i_4135>:
    80004358:	02719263          	bne	gp,t2,8000437c <i_4144>

000000008000435c <i_4136>:
    8000435c:	f06106a3          	sb	t1,-243(sp)

0000000080004360 <i_4137>:
    80004360:	06c12e23          	sw	a2,124(sp)

0000000080004364 <i_4138>:
    80004364:	00000013          	nop

0000000080004368 <i_4139>:
    80004368:	08c11803          	lh	a6,140(sp)

000000008000436c <i_4140>:
    8000436c:	00000013          	nop

0000000080004370 <i_4141>:
    80004370:	00000013          	nop

0000000080004374 <i_4142>:
    80004374:	00000013          	nop

0000000080004378 <i_4143>:
    80004378:	11e15483          	lhu	s1,286(sp)

000000008000437c <i_4144>:
    8000437c:	f8310423          	sb	gp,-120(sp)

0000000080004380 <i_4145>:
    80004380:	00000013          	nop

0000000080004384 <i_4146>:
    80004384:	8b100793          	li	a5,-1871

0000000080004388 <i_4147>:
    80004388:	8c200193          	li	gp,-1854

000000008000438c <i_4148>:
    8000438c:	00178793          	addi	a5,a5,1 # 10a7b001 <main-0x6f584fff>
    80004390:	fef1fee3          	bleu	a5,gp,8000438c <i_4148>

0000000080004394 <i_4149>:
    80004394:	030181b3          	mul	gp,gp,a6

0000000080004398 <i_4150>:
    80004398:	0024cc63          	blt	s1,sp,800043b0 <i_4156>

000000008000439c <i_4151>:
    8000439c:	00385e63          	ble	gp,a6,800043b8 <i_4158>

00000000800043a0 <i_4152>:
    800043a0:	08310483          	lb	s1,131(sp)

00000000800043a4 <i_4153>:
    800043a4:	029824b3          	mulhsu	s1,a6,s1

00000000800043a8 <i_4154>:
    800043a8:	0094e263          	bltu	s1,s1,800043ac <i_4155>

00000000800043ac <i_4155>:
    800043ac:	0098b4b3          	sltu	s1,a7,s1

00000000800043b0 <i_4156>:
    800043b0:	09614e83          	lbu	t4,150(sp)

00000000800043b4 <i_4157>:
    800043b4:	01dfd863          	ble	t4,t6,800043c4 <i_4161>

00000000800043b8 <i_4158>:
    800043b8:	0049949b          	slliw	s1,s3,0x4

00000000800043bc <i_4159>:
    800043bc:	0294a333          	mulhsu	t1,s1,s1

00000000800043c0 <i_4160>:
    800043c0:	00c11983          	lh	s3,12(sp)

00000000800043c4 <i_4161>:
    800043c4:	0094ec63          	bltu	s1,s1,800043dc <i_4167>

00000000800043c8 <i_4162>:
    800043c8:	409484bb          	subw	s1,s1,s1

00000000800043cc <i_4163>:
    800043cc:	406489b3          	sub	s3,s1,t1

00000000800043d0 <i_4164>:
    800043d0:	f6912023          	sw	s1,-160(sp)

00000000800043d4 <i_4165>:
    800043d4:	17412803          	lw	a6,372(sp)

00000000800043d8 <i_4166>:
    800043d8:	01b00993          	li	s3,27

00000000800043dc <i_4167>:
    800043dc:	0131d1b3          	srl	gp,gp,s3

00000000800043e0 <i_4168>:
    800043e0:	15f10183          	lb	gp,351(sp)

00000000800043e4 <i_4169>:
    800043e4:	fe311223          	sh	gp,-28(sp)

00000000800043e8 <i_4170>:
    800043e8:	e4011783          	lh	a5,-448(sp)

00000000800043ec <i_4171>:
    800043ec:	03c00793          	li	a5,60

00000000800043f0 <i_4172>:
    800043f0:	00f199b3          	sll	s3,gp,a5

00000000800043f4 <i_4173>:
    800043f4:	1b215803          	lhu	a6,434(sp)

00000000800043f8 <i_4174>:
    800043f8:	11610583          	lb	a1,278(sp)

00000000800043fc <i_4175>:
    800043fc:	08c10283          	lb	t0,140(sp)

0000000080004400 <i_4176>:
    80004400:	0ef13c23          	sd	a5,248(sp)

0000000080004404 <i_4177>:
    80004404:	00500d93          	li	s11,5

0000000080004408 <i_4178>:
    80004408:	01b7d7bb          	srlw	a5,a5,s11

000000008000440c <i_4179>:
    8000440c:	19416983          	lwu	s3,404(sp)

0000000080004410 <i_4180>:
    80004410:	f0416583          	lwu	a1,-252(sp)

0000000080004414 <i_4181>:
    80004414:	f9e67bb7          	lui	s7,0xf9e67

0000000080004418 <i_4182>:
    80004418:	0375d063          	ble	s7,a1,80004438 <i_4190>

000000008000441c <i_4183>:
    8000441c:	00b81e63          	bne	a6,a1,80004438 <i_4190>

0000000080004420 <i_4184>:
    80004420:	49c38997          	auipc	s3,0x49c38

0000000080004424 <i_4185>:
    80004424:	e2e11b83          	lh	s7,-466(sp)

0000000080004428 <i_4186>:
    80004428:	eac12e03          	lw	t3,-340(sp)

000000008000442c <i_4187>:
    8000442c:	11c12083          	lw	ra,284(sp)

0000000080004430 <i_4188>:
    80004430:	0a813e03          	ld	t3,168(sp)

0000000080004434 <i_4189>:
    80004434:	02b0d463          	ble	a1,ra,8000445c <i_4199>

0000000080004438 <i_4190>:
    80004438:	1a016083          	lwu	ra,416(sp)

000000008000443c <i_4191>:
    8000443c:	002d1b93          	slli	s7,s10,0x2

0000000080004440 <i_4192>:
    80004440:	001e35b3          	sltu	a1,t3,ra

0000000080004444 <i_4193>:
    80004444:	017e6c63          	bltu	t3,s7,8000445c <i_4199>

0000000080004448 <i_4194>:
    80004448:	023bd063          	ble	gp,s7,80004468 <i_4202>

000000008000444c <i_4195>:
    8000444c:	18ce2213          	slti	tp,t3,396

0000000080004450 <i_4196>:
    80004450:	00c16083          	lwu	ra,12(sp)

0000000080004454 <i_4197>:
    80004454:	017bebb3          	or	s7,s7,s7

0000000080004458 <i_4198>:
    80004458:	021bfbbb          	remuw	s7,s7,ra

000000008000445c <i_4199>:
    8000445c:	f8113023          	sd	ra,-128(sp)

0000000080004460 <i_4200>:
    80004460:	007ba4b3          	slt	s1,s7,t2

0000000080004464 <i_4201>:
    80004464:	f9210483          	lb	s1,-110(sp)

0000000080004468 <i_4202>:
    80004468:	10416803          	lwu	a6,260(sp)

000000008000446c <i_4203>:
    8000446c:	417b8bbb          	subw	s7,s7,s7

0000000080004470 <i_4204>:
    80004470:	0090b333          	sltu	t1,ra,s1

0000000080004474 <i_4205>:
    80004474:	f5713c23          	sd	s7,-168(sp)

0000000080004478 <i_4206>:
    80004478:	f3910283          	lb	t0,-199(sp)

000000008000447c <i_4207>:
    8000447c:	025b8bbb          	mulw	s7,s7,t0

0000000080004480 <i_4208>:
    80004480:	01728bb3          	add	s7,t0,s7

0000000080004484 <i_4209>:
    80004484:	79500213          	li	tp,1941

0000000080004488 <i_4210>:
    80004488:	79700813          	li	a6,1943

000000008000448c <i_4211>:
    8000448c:	02110223          	sb	ra,36(sp)

0000000080004490 <i_4212>:
    80004490:	f0012383          	lw	t2,-256(sp)

0000000080004494 <i_4213>:
    80004494:	04e11b83          	lh	s7,78(sp)

0000000080004498 <i_4214>:
    80004498:	13e10e83          	lb	t4,318(sp)

000000008000449c <i_4215>:
    8000449c:	00738a33          	add	s4,t2,t2

00000000800044a0 <i_4216>:
    800044a0:	f8414383          	lbu	t2,-124(sp)

00000000800044a4 <i_4217>:
    800044a4:	0d816283          	lwu	t0,216(sp)

00000000800044a8 <i_4218>:
    800044a8:	ea5105a3          	sb	t0,-341(sp)

00000000800044ac <i_4219>:
    800044ac:	0079f0b3          	and	ra,s3,t2

00000000800044b0 <i_4220>:
    800044b0:	4010d293          	srai	t0,ra,0x1

00000000800044b4 <i_4221>:
    800044b4:	00120213          	addi	tp,tp,1 # 1 <main-0x7fffffff>
    800044b8:	fc487ae3          	bleu	tp,a6,8000448c <i_4211>

00000000800044bc <i_4222>:
    800044bc:	f9015803          	lhu	a6,-112(sp)

00000000800044c0 <i_4223>:
    800044c0:	01785463          	ble	s7,a6,800044c8 <i_4225>

00000000800044c4 <i_4224>:
    800044c4:	01c00b93          	li	s7,28

00000000800044c8 <i_4225>:
    800044c8:	0170d1bb          	srlw	gp,ra,s7

00000000800044cc <i_4226>:
    800044cc:	01700b93          	li	s7,23

00000000800044d0 <i_4227>:
    800044d0:	4173d3bb          	sraw	t2,t2,s7

00000000800044d4 <i_4228>:
    800044d4:	13514183          	lbu	gp,309(sp)

00000000800044d8 <i_4229>:
    800044d8:	fd615383          	lhu	t2,-42(sp)

00000000800044dc <i_4230>:
    800044dc:	e2816583          	lwu	a1,-472(sp)

00000000800044e0 <i_4231>:
    800044e0:	e4313823          	sd	gp,-432(sp)

00000000800044e4 <i_4232>:
    800044e4:	1a914483          	lbu	s1,425(sp)

00000000800044e8 <i_4233>:
    800044e8:	0034949b          	slliw	s1,s1,0x3

00000000800044ec <i_4234>:
    800044ec:	0321fe33          	remu	t3,gp,s2

00000000800044f0 <i_4235>:
    800044f0:	00b19263          	bne	gp,a1,800044f4 <i_4236>

00000000800044f4 <i_4236>:
    800044f4:	01c86463          	bltu	a6,t3,800044fc <i_4238>

00000000800044f8 <i_4237>:
    800044f8:	e8c11303          	lh	t1,-372(sp)

00000000800044fc <i_4238>:
    800044fc:	11e11e03          	lh	t3,286(sp)

0000000080004500 <i_4239>:
    80004500:	03c34263          	blt	t1,t3,80004524 <i_4248>

0000000080004504 <i_4240>:
    80004504:	0210e0bb          	remw	ra,ra,ra

0000000080004508 <i_4241>:
    80004508:	001e5863          	ble	ra,t3,80004518 <i_4245>

000000008000450c <i_4242>:
    8000450c:	1bb10803          	lb	a6,443(sp)

0000000080004510 <i_4243>:
    80004510:	19e11403          	lh	s0,414(sp)

0000000080004514 <i_4244>:
    80004514:	f5011223          	sh	a6,-188(sp)

0000000080004518 <i_4245>:
    80004518:	01ce5a63          	ble	t3,t3,8000452c <i_4250>

000000008000451c <i_4246>:
    8000451c:	03ce0e33          	mul	t3,t3,t3

0000000080004520 <i_4247>:
    80004520:	00be6433          	or	s0,t3,a1

0000000080004524 <i_4248>:
    80004524:	ffe14303          	lbu	t1,-2(sp)

0000000080004528 <i_4249>:
    80004528:	03c81a33          	mulh	s4,a6,t3

000000008000452c <i_4250>:
    8000452c:	03444263          	blt	s0,s4,80004550 <i_4259>

0000000080004530 <i_4251>:
    80004530:	eac14183          	lbu	gp,-340(sp)

0000000080004534 <i_4252>:
    80004534:	e4612e23          	sw	t1,-420(sp)

0000000080004538 <i_4253>:
    80004538:	00644463          	blt	s0,t1,80004540 <i_4255>

000000008000453c <i_4254>:
    8000453c:	003681b3          	add	gp,a3,gp

0000000080004540 <i_4255>:
    80004540:	03612623          	sw	s6,44(sp)

0000000080004544 <i_4256>:
    80004544:	01600793          	li	a5,22

0000000080004548 <i_4257>:
    80004548:	40f1dbb3          	sra	s7,gp,a5

000000008000454c <i_4258>:
    8000454c:	e7813183          	ld	gp,-392(sp)

0000000080004550 <i_4259>:
    80004550:	00000013          	nop

0000000080004554 <i_4260>:
    80004554:	0041d21b          	srliw	tp,gp,0x4

0000000080004558 <i_4261>:
    80004558:	85900193          	li	gp,-1959

000000008000455c <i_4262>:
    8000455c:	86600b93          	li	s7,-1946

0000000080004560 <i_4263>:
    80004560:	e7410a03          	lb	s4,-396(sp)

0000000080004564 <i_4264>:
    80004564:	00a00213          	li	tp,10

0000000080004568 <i_4265>:
    80004568:	00425e3b          	srlw	t3,tp,tp

000000008000456c <i_4266>:
    8000456c:	eb411a03          	lh	s4,-332(sp)

0000000080004570 <i_4267>:
    80004570:	97ff6997          	auipc	s3,0x97ff6

0000000080004574 <i_4268>:
    80004574:	003a0e63          	beq	s4,gp,80004590 <i_4274>

0000000080004578 <i_4269>:
    80004578:	00118193          	addi	gp,gp,1
    8000457c:	fe3bf2e3          	bleu	gp,s7,80004560 <i_4263>

0000000080004580 <i_4270>:
    80004580:	01300513          	li	a0,19

0000000080004584 <i_4271>:
    80004584:	00a9de33          	srl	t3,s3,a0

0000000080004588 <i_4272>:
    80004588:	e4714183          	lbu	gp,-441(sp)

000000008000458c <i_4273>:
    8000458c:	00d1edb3          	or	s11,gp,a3

0000000080004590 <i_4274>:
    80004590:	04312223          	sw	gp,68(sp)

0000000080004594 <i_4275>:
    80004594:	01b18e63          	beq	gp,s11,800045b0 <i_4282>

0000000080004598 <i_4276>:
    80004598:	01d00b93          	li	s7,29

000000008000459c <i_4277>:
    8000459c:	017dd43b          	srlw	s0,s11,s7

00000000800045a0 <i_4278>:
    800045a0:	11812b83          	lw	s7,280(sp)

00000000800045a4 <i_4279>:
    800045a4:	07b11f23          	sh	s11,126(sp)

00000000800045a8 <i_4280>:
    800045a8:	16a15a03          	lhu	s4,362(sp)

00000000800045ac <i_4281>:
    800045ac:	008bf463          	bleu	s0,s7,800045b4 <i_4283>

00000000800045b0 <i_4282>:
    800045b0:	805be093          	ori	ra,s7,-2043

00000000800045b4 <i_4283>:
    800045b4:	408f8e3b          	subw	t3,t6,s0

00000000800045b8 <i_4284>:
    800045b8:	00000013          	nop

00000000800045bc <i_4285>:
    800045bc:	7c600b93          	li	s7,1990

00000000800045c0 <i_4286>:
    800045c0:	7da00a13          	li	s4,2010

00000000800045c4 <i_4287>:
    800045c4:	03440263          	beq	s0,s4,800045e8 <i_4295>

00000000800045c8 <i_4288>:
    800045c8:	02813823          	sd	s0,48(sp)

00000000800045cc <i_4289>:
    800045cc:	11411403          	lh	s0,276(sp)

00000000800045d0 <i_4290>:
    800045d0:	001b8b93          	addi	s7,s7,1 # fffffffff9e67001 <_end+0xffffffff79e56bed>
    800045d4:	ff4be8e3          	bltu	s7,s4,800045c4 <i_4287>

00000000800045d8 <i_4291>:
    800045d8:	03f40463          	beq	s0,t6,80004600 <i_4301>

00000000800045dc <i_4292>:
    800045dc:	01fe6863          	bltu	t3,t6,800045ec <i_4296>

00000000800045e0 <i_4293>:
    800045e0:	1a112823          	sw	ra,432(sp)

00000000800045e4 <i_4294>:
    800045e4:	e8c11403          	lh	s0,-372(sp)

00000000800045e8 <i_4295>:
    800045e8:	f3016783          	lwu	a5,-208(sp)

00000000800045ec <i_4296>:
    800045ec:	00b00413          	li	s0,11

00000000800045f0 <i_4297>:
    800045f0:	00879ebb          	sllw	t4,a5,s0

00000000800045f4 <i_4298>:
    800045f4:	e8c13823          	sd	a2,-368(sp)

00000000800045f8 <i_4299>:
    800045f8:	e4a26e13          	ori	t3,tp,-438

00000000800045fc <i_4300>:
    800045fc:	00000013          	nop

0000000080004600 <i_4301>:
    80004600:	02e15e03          	lhu	t3,46(sp)

0000000080004604 <i_4302>:
    80004604:	74c08a13          	addi	s4,ra,1868

0000000080004608 <i_4303>:
    80004608:	8a300093          	li	ra,-1885

000000008000460c <i_4304>:
    8000460c:	8af00993          	li	s3,-1873

0000000080004610 <i_4305>:
    80004610:	00000013          	nop

0000000080004614 <i_4306>:
    80004614:	0b016403          	lwu	s0,176(sp)

0000000080004618 <i_4307>:
    80004618:	00f00b93          	li	s7,15

000000008000461c <i_4308>:
    8000461c:	017e11b3          	sll	gp,t3,s7

0000000080004620 <i_4309>:
    80004620:	9a7e9bb7          	lui	s7,0x9a7e9

0000000080004624 <i_4310>:
    80004624:	1a210383          	lb	t2,418(sp)

0000000080004628 <i_4311>:
    80004628:	0270f663          	bleu	t2,ra,80004654 <i_4321>

000000008000462c <i_4312>:
    8000462c:	f0f11323          	sh	a5,-250(sp)

0000000080004630 <i_4313>:
    80004630:	00108093          	addi	ra,ra,1
    80004634:	fd30cee3          	blt	ra,s3,80004610 <i_4305>

0000000080004638 <i_4314>:
    80004638:	01c16383          	lwu	t2,28(sp)

000000008000463c <i_4315>:
    8000463c:	0173cc63          	blt	t2,s7,80004654 <i_4321>

0000000080004640 <i_4316>:
    80004640:	0343fa33          	remu	s4,t2,s4

0000000080004644 <i_4317>:
    80004644:	027a0833          	mul	a6,s4,t2

0000000080004648 <i_4318>:
    80004648:	028d7233          	remu	tp,s10,s0

000000008000464c <i_4319>:
    8000464c:	003a5593          	srli	a1,s4,0x3

0000000080004650 <i_4320>:
    80004650:	024a4263          	blt	s4,tp,80004674 <i_4329>

0000000080004654 <i_4321>:
    80004654:	1b013023          	sd	a6,416(sp)

0000000080004658 <i_4322>:
    80004658:	0da10283          	lb	t0,218(sp)

000000008000465c <i_4323>:
    8000465c:	0103ee63          	bltu	t2,a6,80004678 <i_4330>

0000000080004660 <i_4324>:
    80004660:	fdc15e03          	lhu	t3,-36(sp)

0000000080004664 <i_4325>:
    80004664:	ee813283          	ld	t0,-280(sp)

0000000080004668 <i_4326>:
    80004668:	01013483          	ld	s1,16(sp)

000000008000466c <i_4327>:
    8000466c:	00700393          	li	t2,7

0000000080004670 <i_4328>:
    80004670:	0075953b          	sllw	a0,a1,t2

0000000080004674 <i_4329>:
    80004674:	14510323          	sb	t0,326(sp)

0000000080004678 <i_4330>:
    80004678:	ff016283          	lwu	t0,-16(sp)

000000008000467c <i_4331>:
    8000467c:	fcc12403          	lw	s0,-52(sp)

0000000080004680 <i_4332>:
    80004680:	00425213          	srli	tp,tp,0x4

0000000080004684 <i_4333>:
    80004684:	78400293          	li	t0,1924

0000000080004688 <i_4334>:
    80004688:	79000513          	li	a0,1936

000000008000468c <i_4335>:
    8000468c:	04812e23          	sw	s0,92(sp)

0000000080004690 <i_4336>:
    80004690:	00d28433          	add	s0,t0,a3

0000000080004694 <i_4337>:
    80004694:	00000013          	nop

0000000080004698 <i_4338>:
    80004698:	0042541b          	srliw	s0,tp,0x4

000000008000469c <i_4339>:
    8000469c:	00128293          	addi	t0,t0,1
    800046a0:	fe5576e3          	bleu	t0,a0,8000468c <i_4335>

00000000800046a4 <i_4340>:
    800046a4:	f0e11123          	sh	a4,-254(sp)

00000000800046a8 <i_4341>:
    800046a8:	14811f23          	sh	s0,350(sp)

00000000800046ac <i_4342>:
    800046ac:	fd914183          	lbu	gp,-39(sp)

00000000800046b0 <i_4343>:
    800046b0:	13c12403          	lw	s0,316(sp)

00000000800046b4 <i_4344>:
    800046b4:	02844263          	blt	s0,s0,800046d8 <i_4353>

00000000800046b8 <i_4345>:
    800046b8:	402cd213          	srai	tp,s9,0x2

00000000800046bc <i_4346>:
    800046bc:	00820463          	beq	tp,s0,800046c4 <i_4348>

00000000800046c0 <i_4347>:
    800046c0:	eac15303          	lhu	t1,-340(sp)

00000000800046c4 <i_4348>:
    800046c4:	e6613423          	sd	t1,-408(sp)

00000000800046c8 <i_4349>:
    800046c8:	0c411023          	sh	tp,192(sp)

00000000800046cc <i_4350>:
    800046cc:	00441813          	slli	a6,s0,0x4

00000000800046d0 <i_4351>:
    800046d0:	01087eb3          	and	t4,a6,a6

00000000800046d4 <i_4352>:
    800046d4:	05014783          	lbu	a5,80(sp)

00000000800046d8 <i_4353>:
    800046d8:	01def7b3          	and	a5,t4,t4

00000000800046dc <i_4354>:
    800046dc:	f6816303          	lwu	t1,-152(sp)

00000000800046e0 <i_4355>:
    800046e0:	004cd793          	srli	a5,s9,0x4

00000000800046e4 <i_4356>:
    800046e4:	00000013          	nop

00000000800046e8 <i_4357>:
    800046e8:	7b300e13          	li	t3,1971

00000000800046ec <i_4358>:
    800046ec:	7b600d93          	li	s11,1974

00000000800046f0 <i_4359>:
    800046f0:	14e15303          	lhu	t1,334(sp)

00000000800046f4 <i_4360>:
    800046f4:	0f211483          	lh	s1,242(sp)

00000000800046f8 <i_4361>:
    800046f8:	01b13c23          	sd	s11,24(sp)

00000000800046fc <i_4362>:
    800046fc:	001e0e13          	addi	t3,t3,1
    80004700:	ffcdd8e3          	ble	t3,s11,800046f0 <i_4359>

0000000080004704 <i_4363>:
    80004704:	01400e93          	li	t4,20

0000000080004708 <i_4364>:
    80004708:	01de9ebb          	sllw	t4,t4,t4

000000008000470c <i_4365>:
    8000470c:	01b9ec63          	bltu	s3,s11,80004724 <i_4371>

0000000080004710 <i_4366>:
    80004710:	00214d83          	lbu	s11,2(sp)

0000000080004714 <i_4367>:
    80004714:	01be8263          	beq	t4,s11,80004718 <i_4368>

0000000080004718 <i_4368>:
    80004718:	f2e11483          	lh	s1,-210(sp)

000000008000471c <i_4369>:
    8000471c:	e4a10d83          	lb	s11,-438(sp)

0000000080004720 <i_4370>:
    80004720:	eb015e83          	lhu	t4,-336(sp)

0000000080004724 <i_4371>:
    80004724:	03bdddbb          	divuw	s11,s11,s11

0000000080004728 <i_4372>:
    80004728:	ffb12023          	sw	s11,-32(sp)

000000008000472c <i_4373>:
    8000472c:	01b10b23          	sb	s11,22(sp)

0000000080004730 <i_4374>:
    80004730:	01bed463          	ble	s11,t4,80004738 <i_4376>

0000000080004734 <i_4375>:
    80004734:	401ede93          	srai	t4,t4,0x1

0000000080004738 <i_4376>:
    80004738:	03b72db3          	mulhsu	s11,a4,s11

000000008000473c <i_4377>:
    8000473c:	fbb11023          	sh	s11,-96(sp)

0000000080004740 <i_4378>:
    80004740:	f2c12d83          	lw	s11,-212(sp)

0000000080004744 <i_4379>:
    80004744:	03bdf063          	bleu	s11,s11,80004764 <i_4387>

0000000080004748 <i_4380>:
    80004748:	03dd8dbb          	mulw	s11,s11,t4

000000008000474c <i_4381>:
    8000474c:	fe815d83          	lhu	s11,-24(sp)

0000000080004750 <i_4382>:
    80004750:	f5612223          	sw	s6,-188(sp)

0000000080004754 <i_4383>:
    80004754:	f1012a03          	lw	s4,-240(sp)

0000000080004758 <i_4384>:
    80004758:	09510e83          	lb	t4,149(sp)

000000008000475c <i_4385>:
    8000475c:	efc15d83          	lhu	s11,-260(sp)

0000000080004760 <i_4386>:
    80004760:	03ea4263          	blt	s4,t5,80004784 <i_4395>

0000000080004764 <i_4387>:
    80004764:	01bdadb3          	slt	s11,s11,s11

0000000080004768 <i_4388>:
    80004768:	03bd44b3          	div	s1,s10,s11

000000008000476c <i_4389>:
    8000476c:	fdd12223          	sw	t4,-60(sp)

0000000080004770 <i_4390>:
    80004770:	002b1793          	slli	a5,s6,0x2

0000000080004774 <i_4391>:
    80004774:	12f12623          	sw	a5,300(sp)

0000000080004778 <i_4392>:
    80004778:	aed52493          	slti	s1,a0,-1299

000000008000477c <i_4393>:
    8000477c:	02a7c53b          	divw	a0,a5,a0

0000000080004780 <i_4394>:
    80004780:	012ede63          	ble	s2,t4,8000479c <i_4401>

0000000080004784 <i_4395>:
    80004784:	00ab04b3          	add	s1,s6,a0

0000000080004788 <i_4396>:
    80004788:	001d9d93          	slli	s11,s11,0x1

000000008000478c <i_4397>:
    8000478c:	04416d83          	lwu	s11,68(sp)

0000000080004790 <i_4398>:
    80004790:	03b54463          	blt	a0,s11,800047b8 <i_4408>

0000000080004794 <i_4399>:
    80004794:	09013803          	ld	a6,144(sp)

0000000080004798 <i_4400>:
    80004798:	02a51533          	mulh	a0,a0,a0

000000008000479c <i_4401>:
    8000479c:	03087463          	bleu	a6,a6,800047c4 <i_4411>

00000000800047a0 <i_4402>:
    800047a0:	00000013          	nop

00000000800047a4 <i_4403>:
    800047a4:	028857b3          	divu	a5,a6,s0

00000000800047a8 <i_4404>:
    800047a8:	00000013          	nop

00000000800047ac <i_4405>:
    800047ac:	00812023          	sw	s0,0(sp)

00000000800047b0 <i_4406>:
    800047b0:	e9a10c23          	sb	s10,-360(sp)

00000000800047b4 <i_4407>:
    800047b4:	00000013          	nop

00000000800047b8 <i_4408>:
    800047b8:	0f414203          	lbu	tp,244(sp)

00000000800047bc <i_4409>:
    800047bc:	03500b93          	li	s7,53

00000000800047c0 <i_4410>:
    800047c0:	017457b3          	srl	a5,s0,s7

00000000800047c4 <i_4411>:
    800047c4:	1c911d23          	sh	s1,474(sp)

00000000800047c8 <i_4412>:
    800047c8:	07712023          	sw	s7,96(sp)

00000000800047cc <i_4413>:
    800047cc:	73e00413          	li	s0,1854

00000000800047d0 <i_4414>:
    800047d0:	75200513          	li	a0,1874

00000000800047d4 <i_4415>:
    800047d4:	09c11e83          	lh	t4,156(sp)

00000000800047d8 <i_4416>:
    800047d8:	00140413          	addi	s0,s0,1 # ffffffffd2f12001 <_end+0xffffffff52f01bed>
    800047dc:	fea44ce3          	blt	s0,a0,800047d4 <i_4415>

00000000800047e0 <i_4417>:
    800047e0:	0e012783          	lw	a5,224(sp)

00000000800047e4 <i_4418>:
    800047e4:	00800b93          	li	s7,8

00000000800047e8 <i_4419>:
    800047e8:	41745bbb          	sraw	s7,s0,s7

00000000800047ec <i_4420>:
    800047ec:	fb816e83          	lwu	t4,-72(sp)

00000000800047f0 <i_4421>:
    800047f0:	03defebb          	remuw	t4,t4,t4

00000000800047f4 <i_4422>:
    800047f4:	037be333          	rem	t1,s7,s7

00000000800047f8 <i_4423>:
    800047f8:	070bf313          	andi	t1,s7,112

00000000800047fc <i_4424>:
    800047fc:	054db417          	auipc	s0,0x54db

0000000080004800 <i_4425>:
    80004800:	028a043b          	mulw	s0,s4,s0

0000000080004804 <i_4426>:
    80004804:	e6c11403          	lh	s0,-404(sp)

0000000080004808 <i_4427>:
    80004808:	028dddb3          	divu	s11,s11,s0

000000008000480c <i_4428>:
    8000480c:	1a811823          	sh	s0,432(sp)

0000000080004810 <i_4429>:
    80004810:	02840263          	beq	s0,s0,80004834 <i_4438>

0000000080004814 <i_4430>:
    80004814:	402e5e1b          	sraiw	t3,t3,0x2

0000000080004818 <i_4431>:
    80004818:	41b40db3          	sub	s11,s0,s11

000000008000481c <i_4432>:
    8000481c:	01bdce33          	xor	t3,s11,s11

0000000080004820 <i_4433>:
    80004820:	fc813483          	ld	s1,-56(sp)

0000000080004824 <i_4434>:
    80004824:	01c49663          	bne	s1,t3,80004830 <i_4437>

0000000080004828 <i_4435>:
    80004828:	782e7513          	andi	a0,t3,1922

000000008000482c <i_4436>:
    8000482c:	f0c12503          	lw	a0,-244(sp)

0000000080004830 <i_4437>:
    80004830:	00adf263          	bleu	a0,s11,80004834 <i_4438>

0000000080004834 <i_4438>:
    80004834:	03be0533          	mul	a0,t3,s11

0000000080004838 <i_4439>:
    80004838:	d5550d9b          	addiw	s11,a0,-683

000000008000483c <i_4440>:
    8000483c:	13b10423          	sb	s11,296(sp)

0000000080004840 <i_4441>:
    80004840:	8068f517          	auipc	a0,0x8068f

0000000080004844 <i_4442>:
    80004844:	05414503          	lbu	a0,84(sp)

0000000080004848 <i_4443>:
    80004848:	f2a13823          	sd	a0,-208(sp)

000000008000484c <i_4444>:
    8000484c:	07b13823          	sd	s11,112(sp)

0000000080004850 <i_4445>:
    80004850:	e0756b93          	ori	s7,a0,-505

0000000080004854 <i_4446>:
    80004854:	1e411503          	lh	a0,484(sp)

0000000080004858 <i_4447>:
    80004858:	00a56e63          	bltu	a0,a0,80004874 <i_4454>

000000008000485c <i_4448>:
    8000485c:	1a416b83          	lwu	s7,420(sp)

0000000080004860 <i_4449>:
    80004860:	f4a15503          	lhu	a0,-182(sp)

0000000080004864 <i_4450>:
    80004864:	1a911023          	sh	s1,416(sp)

0000000080004868 <i_4451>:
    80004868:	08a10f23          	sb	a0,158(sp)

000000008000486c <i_4452>:
    8000486c:	b99f7513          	andi	a0,t5,-1127

0000000080004870 <i_4453>:
    80004870:	00954263          	blt	a0,s1,80004874 <i_4454>

0000000080004874 <i_4454>:
    80004874:	bf14c793          	xori	a5,s1,-1039

0000000080004878 <i_4455>:
    80004878:	1aa13023          	sd	a0,416(sp)

000000008000487c <i_4456>:
    8000487c:	0149ec63          	bltu	s3,s4,80004894 <i_4462>

0000000080004880 <i_4457>:
    80004880:	1e416983          	lwu	s3,484(sp)

0000000080004884 <i_4458>:
    80004884:	03c4d263          	ble	t3,s1,800048a8 <i_4467>

0000000080004888 <i_4459>:
    80004888:	17c12203          	lw	tp,380(sp)

000000008000488c <i_4460>:
    8000488c:	ed812583          	lw	a1,-296(sp)

0000000080004890 <i_4461>:
    80004890:	02248263          	beq	s1,sp,800048b4 <i_4470>

0000000080004894 <i_4462>:
    80004894:	0015d99b          	srliw	s3,a1,0x1

0000000080004898 <i_4463>:
    80004898:	00d4e4b3          	or	s1,s1,a3

000000008000489c <i_4464>:
    8000489c:	f1411983          	lh	s3,-236(sp)

00000000800048a0 <i_4465>:
    800048a0:	fa912c23          	sw	s1,-72(sp)

00000000800048a4 <i_4466>:
    800048a4:	1ba14b83          	lbu	s7,442(sp)

00000000800048a8 <i_4467>:
    800048a8:	00141593          	slli	a1,s0,0x1

00000000800048ac <i_4468>:
    800048ac:	01398a63          	beq	s3,s3,800048c0 <i_4473>

00000000800048b0 <i_4469>:
    800048b0:	31b5a9b7          	lui	s3,0x31b5a

00000000800048b4 <i_4470>:
    800048b4:	10c14483          	lbu	s1,268(sp)

00000000800048b8 <i_4471>:
    800048b8:	0013d39b          	srliw	t2,t2,0x1

00000000800048bc <i_4472>:
    800048bc:	0224f3b3          	remu	t2,s1,sp

00000000800048c0 <i_4473>:
    800048c0:	00738a63          	beq	t2,t2,800048d4 <i_4478>

00000000800048c4 <i_4474>:
    800048c4:	0a712423          	sw	t2,168(sp)

00000000800048c8 <i_4475>:
    800048c8:	0272b533          	mulhu	a0,t0,t2

00000000800048cc <i_4476>:
    800048cc:	03f3e3b3          	rem	t2,t2,t6

00000000800048d0 <i_4477>:
    800048d0:	40738bb3          	sub	s7,t2,t2

00000000800048d4 <i_4478>:
    800048d4:	f2711023          	sh	t2,-224(sp)

00000000800048d8 <i_4479>:
    800048d8:	fb114383          	lbu	t2,-79(sp)

00000000800048dc <i_4480>:
    800048dc:	127100a3          	sb	t2,289(sp)

00000000800048e0 <i_4481>:
    800048e0:	e4710223          	sb	t2,-444(sp)

00000000800048e4 <i_4482>:
    800048e4:	09011383          	lh	t2,144(sp)

00000000800048e8 <i_4483>:
    800048e8:	03215b83          	lhu	s7,50(sp)

00000000800048ec <i_4484>:
    800048ec:	01039663          	bne	t2,a6,800048f8 <i_4487>

00000000800048f0 <i_4485>:
    800048f0:	00411e03          	lh	t3,4(sp)

00000000800048f4 <i_4486>:
    800048f4:	1a416183          	lwu	gp,420(sp)

00000000800048f8 <i_4487>:
    800048f8:	fd713823          	sd	s7,-48(sp)

00000000800048fc <i_4488>:
    800048fc:	f0c10783          	lb	a5,-244(sp)

0000000080004900 <i_4489>:
    80004900:	0233d0bb          	divuw	ra,t2,gp

0000000080004904 <i_4490>:
    80004904:	11e14d83          	lbu	s11,286(sp)

0000000080004908 <i_4491>:
    80004908:	02d1e063          	bltu	gp,a3,80004928 <i_4499>

000000008000490c <i_4492>:
    8000490c:	03cde7bb          	remw	a5,s11,t3

0000000080004910 <i_4493>:
    80004910:	fb811e03          	lh	t3,-72(sp)

0000000080004914 <i_4494>:
    80004914:	0a813d83          	ld	s11,168(sp)

0000000080004918 <i_4495>:
    80004918:	03ce533b          	divuw	t1,t3,t3

000000008000491c <i_4496>:
    8000491c:	00000013          	nop

0000000080004920 <i_4497>:
    80004920:	00000013          	nop

0000000080004924 <i_4498>:
    80004924:	034a85b3          	mul	a1,s5,s4

0000000080004928 <i_4499>:
    80004928:	00000013          	nop

000000008000492c <i_4500>:
    8000492c:	0d614483          	lbu	s1,214(sp)

0000000080004930 <i_4501>:
    80004930:	76c00d93          	li	s11,1900

0000000080004934 <i_4502>:
    80004934:	76e00e13          	li	t3,1902

0000000080004938 <i_4503>:
    80004938:	1a912c23          	sw	s1,440(sp)

000000008000493c <i_4504>:
    8000493c:	07c11723          	sh	t3,110(sp)

0000000080004940 <i_4505>:
    80004940:	7cc00393          	li	t2,1996

0000000080004944 <i_4506>:
    80004944:	7d800a13          	li	s4,2008

0000000080004948 <i_4507>:
    80004948:	00138393          	addi	t2,t2,1
    8000494c:	fe7a5ee3          	ble	t2,s4,80004948 <i_4507>

0000000080004950 <i_4508>:
    80004950:	01400993          	li	s3,20

0000000080004954 <i_4509>:
    80004954:	413edeb3          	sra	t4,t4,s3

0000000080004958 <i_4510>:
    80004958:	013d7a63          	bleu	s3,s10,8000496c <i_4514>

000000008000495c <i_4511>:
    8000495c:	001d8d93          	addi	s11,s11,1
    80004960:	fdcdece3          	bltu	s11,t3,80004938 <i_4503>

0000000080004964 <i_4512>:
    80004964:	03cef263          	bleu	t3,t4,80004988 <i_4521>

0000000080004968 <i_4513>:
    80004968:	03c35063          	ble	t3,t1,80004988 <i_4521>

000000008000496c <i_4514>:
    8000496c:	00e9e263          	bltu	s3,a4,80004970 <i_4515>

0000000080004970 <i_4515>:
    80004970:	0fb12623          	sw	s11,236(sp)

0000000080004974 <i_4516>:
    80004974:	f4a15e03          	lhu	t3,-182(sp)

0000000080004978 <i_4517>:
    80004978:	f3c11303          	lh	t1,-196(sp)

000000008000497c <i_4518>:
    8000497c:	03deaeb3          	mulhsu	t4,t4,t4

0000000080004980 <i_4519>:
    80004980:	004b199b          	slliw	s3,s6,0x4

0000000080004984 <i_4520>:
    80004984:	4022d513          	srai	a0,t0,0x2

0000000080004988 <i_4521>:
    80004988:	03d8c5bb          	divw	a1,a7,t4

000000008000498c <i_4522>:
    8000498c:	1be15283          	lhu	t0,446(sp)

0000000080004990 <i_4523>:
    80004990:	f0811983          	lh	s3,-248(sp)

0000000080004994 <i_4524>:
    80004994:	02a98533          	mul	a0,s3,a0

0000000080004998 <i_4525>:
    80004998:	e23a0e97          	auipc	t4,0xe23a0

000000008000499c <i_4526>:
    8000499c:	08b10923          	sb	a1,146(sp)

00000000800049a0 <i_4527>:
    800049a0:	1c813e03          	ld	t3,456(sp)

00000000800049a4 <i_4528>:
    800049a4:	ece11203          	lh	tp,-306(sp)

00000000800049a8 <i_4529>:
    800049a8:	0309e463          	bltu	s3,a6,800049d0 <i_4539>

00000000800049ac <i_4530>:
    800049ac:	eb4d4e37          	lui	t3,0xeb4d4

00000000800049b0 <i_4531>:
    800049b0:	00310203          	lb	tp,3(sp)

00000000800049b4 <i_4532>:
    800049b4:	1d610e83          	lb	t4,470(sp)

00000000800049b8 <i_4533>:
    800049b8:	1d712223          	sw	s7,452(sp)

00000000800049bc <i_4534>:
    800049bc:	026ab233          	mulhu	tp,s5,t1

00000000800049c0 <i_4535>:
    800049c0:	00000013          	nop

00000000800049c4 <i_4536>:
    800049c4:	00000013          	nop

00000000800049c8 <i_4537>:
    800049c8:	00c00993          	li	s3,12

00000000800049cc <i_4538>:
    800049cc:	413ed233          	sra	tp,t4,s3

00000000800049d0 <i_4539>:
    800049d0:	07d10083          	lb	ra,125(sp)

00000000800049d4 <i_4540>:
    800049d4:	1a111923          	sh	ra,434(sp)

00000000800049d8 <i_4541>:
    800049d8:	80f00e93          	li	t4,-2033

00000000800049dc <i_4542>:
    800049dc:	81c00e13          	li	t3,-2020

00000000800049e0 <i_4543>:
    800049e0:	f9c11a23          	sh	t3,-108(sp)

00000000800049e4 <i_4544>:
    800049e4:	4014da1b          	sraiw	s4,s1,0x1

00000000800049e8 <i_4545>:
    800049e8:	001e8e93          	addi	t4,t4,1 # 623a4999 <main-0x1dc5b667>
    800049ec:	ffde7ae3          	bleu	t4,t3,800049e0 <i_4543>

00000000800049f0 <i_4546>:
    800049f0:	00016e03          	lwu	t3,0(sp)

00000000800049f4 <i_4547>:
    800049f4:	03cf8e33          	mul	t3,t6,t3

00000000800049f8 <i_4548>:
    800049f8:	01463e33          	sltu	t3,a2,s4

00000000800049fc <i_4549>:
    800049fc:	03c6c463          	blt	a3,t3,80004a24 <i_4559>

0000000080004a00 <i_4550>:
    80004a00:	13414a03          	lbu	s4,308(sp)

0000000080004a04 <i_4551>:
    80004a04:	014e6863          	bltu	t3,s4,80004a14 <i_4555>

0000000080004a08 <i_4552>:
    80004a08:	03c7e7b3          	rem	a5,a5,t3

0000000080004a0c <i_4553>:
    80004a0c:	1a415e03          	lhu	t3,420(sp)

0000000080004a10 <i_4554>:
    80004a10:	402e5e13          	srai	t3,t3,0x2

0000000080004a14 <i_4555>:
    80004a14:	40478833          	sub	a6,a5,tp

0000000080004a18 <i_4556>:
    80004a18:	0c813783          	ld	a5,200(sp)

0000000080004a1c <i_4557>:
    80004a1c:	15813e83          	ld	t4,344(sp)

0000000080004a20 <i_4558>:
    80004a20:	f30104a3          	sb	a6,-215(sp)

0000000080004a24 <i_4559>:
    80004a24:	00000013          	nop

0000000080004a28 <i_4560>:
    80004a28:	01400793          	li	a5,20

0000000080004a2c <i_4561>:
    80004a2c:	40f7d83b          	sraw	a6,a5,a5

0000000080004a30 <i_4562>:
    80004a30:	7b900e13          	li	t3,1977

0000000080004a34 <i_4563>:
    80004a34:	7bc00193          	li	gp,1980

0000000080004a38 <i_4564>:
    80004a38:	0285a7b3          	mulhsu	a5,a1,s0

0000000080004a3c <i_4565>:
    80004a3c:	410e80bb          	subw	ra,t4,a6

0000000080004a40 <i_4566>:
    80004a40:	f7012223          	sw	a6,-156(sp)

0000000080004a44 <i_4567>:
    80004a44:	14015e83          	lhu	t4,320(sp)

0000000080004a48 <i_4568>:
    80004a48:	001e0e13          	addi	t3,t3,1 # ffffffffeb4d4001 <_end+0xffffffff6b4c3bed>
    80004a4c:	ffc1f4e3          	bleu	t3,gp,80004a34 <i_4563>

0000000080004a50 <i_4569>:
    80004a50:	0210d463          	ble	ra,ra,80004a78 <i_4579>

0000000080004a54 <i_4570>:
    80004a54:	0e112223          	sw	ra,228(sp)

0000000080004a58 <i_4571>:
    80004a58:	02179063          	bne	a5,ra,80004a78 <i_4579>

0000000080004a5c <i_4572>:
    80004a5c:	01f08eb3          	add	t4,ra,t6

0000000080004a60 <i_4573>:
    80004a60:	f4815783          	lhu	a5,-184(sp)

0000000080004a64 <i_4574>:
    80004a64:	ed215d83          	lhu	s11,-302(sp)

0000000080004a68 <i_4575>:
    80004a68:	02f0e0bb          	remw	ra,ra,a5

0000000080004a6c <i_4576>:
    80004a6c:	021ee433          	rem	s0,t4,ra

0000000080004a70 <i_4577>:
    80004a70:	03deadb3          	mulhsu	s11,t4,t4

0000000080004a74 <i_4578>:
    80004a74:	ef711723          	sh	s7,-274(sp)

0000000080004a78 <i_4579>:
    80004a78:	01b40bb3          	add	s7,s0,s11

0000000080004a7c <i_4580>:
    80004a7c:	11412e83          	lw	t4,276(sp)

0000000080004a80 <i_4581>:
    80004a80:	025df463          	bleu	t0,s11,80004aa8 <i_4591>

0000000080004a84 <i_4582>:
    80004a84:	01dec863          	blt	t4,t4,80004a94 <i_4586>

0000000080004a88 <i_4583>:
    80004a88:	03beea33          	rem	s4,t4,s11

0000000080004a8c <i_4584>:
    80004a8c:	e8812d83          	lw	s11,-376(sp)

0000000080004a90 <i_4585>:
    80004a90:	00000013          	nop

0000000080004a94 <i_4586>:
    80004a94:	01900293          	li	t0,25

0000000080004a98 <i_4587>:
    80004a98:	005ede3b          	srlw	t3,t4,t0

0000000080004a9c <i_4588>:
    80004a9c:	03bbd433          	divu	s0,s7,s11

0000000080004aa0 <i_4589>:
    80004aa0:	efd13023          	sd	t4,-288(sp)

0000000080004aa4 <i_4590>:
    80004aa4:	028a82b3          	mul	t0,s5,s0

0000000080004aa8 <i_4591>:
    80004aa8:	00000013          	nop

0000000080004aac <i_4592>:
    80004aac:	00000013          	nop

0000000080004ab0 <i_4593>:
    80004ab0:	8bd00b93          	li	s7,-1859

0000000080004ab4 <i_4594>:
    80004ab4:	8c800e93          	li	t4,-1848

0000000080004ab8 <i_4595>:
    80004ab8:	001b8b93          	addi	s7,s7,1 # ffffffff9a7e9001 <_end+0xffffffff1a7d8bed>
    80004abc:	ffdb9ee3          	bne	s7,t4,80004ab8 <i_4595>

0000000080004ac0 <i_4596>:
    80004ac0:	03c2f463          	bleu	t3,t0,80004ae8 <i_4606>

0000000080004ac4 <i_4597>:
    80004ac4:	01be0e63          	beq	t3,s11,80004ae0 <i_4604>

0000000080004ac8 <i_4598>:
    80004ac8:	f7611803          	lh	a6,-138(sp)

0000000080004acc <i_4599>:
    80004acc:	1e611b83          	lh	s7,486(sp)

0000000080004ad0 <i_4600>:
    80004ad0:	01013e83          	ld	t4,16(sp)

0000000080004ad4 <i_4601>:
    80004ad4:	e7711723          	sh	s7,-402(sp)

0000000080004ad8 <i_4602>:
    80004ad8:	15816e03          	lwu	t3,344(sp)

0000000080004adc <i_4603>:
    80004adc:	19712c23          	sw	s7,408(sp)

0000000080004ae0 <i_4604>:
    80004ae0:	0282ee33          	rem	t3,t0,s0

0000000080004ae4 <i_4605>:
    80004ae4:	1e812223          	sw	s0,484(sp)

0000000080004ae8 <i_4606>:
    80004ae8:	037ef3bb          	remuw	t2,t4,s7

0000000080004aec <i_4607>:
    80004aec:	fca15283          	lhu	t0,-54(sp)

0000000080004af0 <i_4608>:
    80004af0:	eda10e03          	lb	t3,-294(sp)

0000000080004af4 <i_4609>:
    80004af4:	00485793          	srli	a5,a6,0x4

0000000080004af8 <i_4610>:
    80004af8:	0ac12083          	lw	ra,172(sp)

0000000080004afc <i_4611>:
    80004afc:	f2511523          	sh	t0,-214(sp)

0000000080004b00 <i_4612>:
    80004b00:	07013083          	ld	ra,112(sp)

0000000080004b04 <i_4613>:
    80004b04:	eab14d83          	lbu	s11,-341(sp)

0000000080004b08 <i_4614>:
    80004b08:	0ca11d83          	lh	s11,202(sp)

0000000080004b0c <i_4615>:
    80004b0c:	e1c14403          	lbu	s0,-484(sp)

0000000080004b10 <i_4616>:
    80004b10:	1bb10ba3          	sb	s11,439(sp)

0000000080004b14 <i_4617>:
    80004b14:	1c013383          	ld	t2,448(sp)

0000000080004b18 <i_4618>:
    80004b18:	16811d23          	sh	s0,378(sp)

0000000080004b1c <i_4619>:
    80004b1c:	027419b3          	mulh	s3,s0,t2

0000000080004b20 <i_4620>:
    80004b20:	fdb103a3          	sb	s11,-57(sp)

0000000080004b24 <i_4621>:
    80004b24:	03b3bdb3          	mulhu	s11,t2,s11

0000000080004b28 <i_4622>:
    80004b28:	03bce33b          	remw	t1,s9,s11

0000000080004b2c <i_4623>:
    80004b2c:	05b13823          	sd	s11,80(sp)

0000000080004b30 <i_4624>:
    80004b30:	013dfa63          	bleu	s3,s11,80004b44 <i_4629>

0000000080004b34 <i_4625>:
    80004b34:	41b301bb          	subw	gp,t1,s11

0000000080004b38 <i_4626>:
    80004b38:	0269b9b3          	mulhu	s3,s3,t1

0000000080004b3c <i_4627>:
    80004b3c:	f1b10ca3          	sb	s11,-231(sp)

0000000080004b40 <i_4628>:
    80004b40:	8701f313          	andi	t1,gp,-1936

0000000080004b44 <i_4629>:
    80004b44:	00000013          	nop

0000000080004b48 <i_4630>:
    80004b48:	00000013          	nop

0000000080004b4c <i_4631>:
    80004b4c:	82000193          	li	gp,-2016

0000000080004b50 <i_4632>:
    80004b50:	82600d93          	li	s11,-2010

0000000080004b54 <i_4633>:
    80004b54:	0045149b          	slliw	s1,a0,0x4

0000000080004b58 <i_4634>:
    80004b58:	034334b3          	mulhu	s1,t1,s4

0000000080004b5c <i_4635>:
    80004b5c:	e4611623          	sh	t1,-436(sp)

0000000080004b60 <i_4636>:
    80004b60:	08416503          	lwu	a0,132(sp)

0000000080004b64 <i_4637>:
    80004b64:	00950433          	add	s0,a0,s1

0000000080004b68 <i_4638>:
    80004b68:	1b911523          	sh	s9,426(sp)

0000000080004b6c <i_4639>:
    80004b6c:	0a416983          	lwu	s3,164(sp)

0000000080004b70 <i_4640>:
    80004b70:	8a600493          	li	s1,-1882

0000000080004b74 <i_4641>:
    80004b74:	8b500513          	li	a0,-1867

0000000080004b78 <i_4642>:
    80004b78:	1b816e03          	lwu	t3,440(sp)

0000000080004b7c <i_4643>:
    80004b7c:	00148493          	addi	s1,s1,1 # 8ee12ca1 <_end+0xee0288d>
    80004b80:	fea4cce3          	blt	s1,a0,80004b78 <i_4642>

0000000080004b84 <i_4644>:
    80004b84:	1c415383          	lhu	t2,452(sp)

0000000080004b88 <i_4645>:
    80004b88:	12a12823          	sw	a0,304(sp)

0000000080004b8c <i_4646>:
    80004b8c:	00118193          	addi	gp,gp,1
    80004b90:	fdb1e2e3          	bltu	gp,s11,80004b54 <i_4633>

0000000080004b94 <i_4647>:
    80004b94:	03900993          	li	s3,57

0000000080004b98 <i_4648>:
    80004b98:	013999b3          	sll	s3,s3,s3

0000000080004b9c <i_4649>:
    80004b9c:	f6712423          	sw	t2,-152(sp)

0000000080004ba0 <i_4650>:
    80004ba0:	03399063          	bne	s3,s3,80004bc0 <i_4658>

0000000080004ba4 <i_4651>:
    80004ba4:	f6011983          	lh	s3,-160(sp)

0000000080004ba8 <i_4652>:
    80004ba8:	0029d393          	srli	t2,s3,0x2

0000000080004bac <i_4653>:
    80004bac:	00f9b9b3          	sltu	s3,s3,a5

0000000080004bb0 <i_4654>:
    80004bb0:	04712e23          	sw	t2,92(sp)

0000000080004bb4 <i_4655>:
    80004bb4:	04a11403          	lh	s0,74(sp)

0000000080004bb8 <i_4656>:
    80004bb8:	1f310123          	sb	s3,482(sp)

0000000080004bbc <i_4657>:
    80004bbc:	408989b3          	sub	s3,s3,s0

0000000080004bc0 <i_4658>:
    80004bc0:	00000013          	nop

0000000080004bc4 <i_4659>:
    80004bc4:	ed313c23          	sd	s3,-296(sp)

0000000080004bc8 <i_4660>:
    80004bc8:	76700513          	li	a0,1895

0000000080004bcc <i_4661>:
    80004bcc:	77300d93          	li	s11,1907

0000000080004bd0 <i_4662>:
    80004bd0:	00150513          	addi	a0,a0,1 # 693841 <main-0x7f96c7bf>
    80004bd4:	ffb54ee3          	blt	a0,s11,80004bd0 <i_4662>

0000000080004bd8 <i_4663>:
    80004bd8:	00300213          	li	tp,3

0000000080004bdc <i_4664>:
    80004bdc:	404559bb          	sraw	s3,a0,tp

0000000080004be0 <i_4665>:
    80004be0:	703dc993          	xori	s3,s11,1795

0000000080004be4 <i_4666>:
    80004be4:	f8610b83          	lb	s7,-122(sp)

0000000080004be8 <i_4667>:
    80004be8:	19c12983          	lw	s3,412(sp)

0000000080004bec <i_4668>:
    80004bec:	02d6ddbb          	divuw	s11,a3,a3

0000000080004bf0 <i_4669>:
    80004bf0:	fd611203          	lh	tp,-42(sp)

0000000080004bf4 <i_4670>:
    80004bf4:	9a2ec993          	xori	s3,t4,-1630

0000000080004bf8 <i_4671>:
    80004bf8:	e6114b83          	lbu	s7,-415(sp)

0000000080004bfc <i_4672>:
    80004bfc:	0049d663          	ble	tp,s3,80004c08 <i_4675>

0000000080004c00 <i_4673>:
    80004c00:	01798e63          	beq	s3,s7,80004c1c <i_4680>

0000000080004c04 <i_4674>:
    80004c04:	06416983          	lwu	s3,100(sp)

0000000080004c08 <i_4675>:
    80004c08:	f0e11303          	lh	t1,-242(sp)

0000000080004c0c <i_4676>:
    80004c0c:	006bd463          	ble	t1,s7,80004c14 <i_4678>

0000000080004c10 <i_4677>:
    80004c10:	00635463          	ble	t1,t1,80004c18 <i_4679>

0000000080004c14 <i_4678>:
    80004c14:	17312023          	sw	s3,352(sp)

0000000080004c18 <i_4679>:
    80004c18:	e7611e83          	lh	t4,-394(sp)

0000000080004c1c <i_4680>:
    80004c1c:	00400513          	li	a0,4

0000000080004c20 <i_4681>:
    80004c20:	40aed33b          	sraw	t1,t4,a0

0000000080004c24 <i_4682>:
    80004c24:	09816803          	lwu	a6,152(sp)

0000000080004c28 <i_4683>:
    80004c28:	f7d10d23          	sb	t4,-134(sp)

0000000080004c2c <i_4684>:
    80004c2c:	00000013          	nop

0000000080004c30 <i_4685>:
    80004c30:	7f400213          	li	tp,2036

0000000080004c34 <i_4686>:
    80004c34:	7fb00193          	li	gp,2043

0000000080004c38 <i_4687>:
    80004c38:	00200513          	li	a0,2

0000000080004c3c <i_4688>:
    80004c3c:	00a350b3          	srl	ra,t1,a0

0000000080004c40 <i_4689>:
    80004c40:	4033509b          	sraiw	ra,t1,0x3

0000000080004c44 <i_4690>:
    80004c44:	00335e63          	ble	gp,t1,80004c60 <i_4696>

0000000080004c48 <i_4691>:
    80004c48:	f2816783          	lwu	a5,-216(sp)

0000000080004c4c <i_4692>:
    80004c4c:	00120213          	addi	tp,tp,1 # 1 <main-0x7fffffff>
    80004c50:	fe41d4e3          	ble	tp,gp,80004c38 <i_4687>

0000000080004c54 <i_4693>:
    80004c54:	00e00a13          	li	s4,14

0000000080004c58 <i_4694>:
    80004c58:	4145debb          	sraw	t4,a1,s4

0000000080004c5c <i_4695>:
    80004c5c:	0300fa3b          	remuw	s4,ra,a6

0000000080004c60 <i_4696>:
    80004c60:	00af0c63          	beq	t5,a0,80004c78 <i_4702>

0000000080004c64 <i_4697>:
    80004c64:	e8813083          	ld	ra,-376(sp)

0000000080004c68 <i_4698>:
    80004c68:	01408263          	beq	ra,s4,80004c6c <i_4699>

0000000080004c6c <i_4699>:
    80004c6c:	fdc16a03          	lwu	s4,-36(sp)

0000000080004c70 <i_4700>:
    80004c70:	f5811183          	lh	gp,-168(sp)

0000000080004c74 <i_4701>:
    80004c74:	027a7063          	bleu	t2,s4,80004c94 <i_4709>

0000000080004c78 <i_4702>:
    80004c78:	f0a11303          	lh	t1,-246(sp)

0000000080004c7c <i_4703>:
    80004c7c:	00325d9b          	srliw	s11,tp,0x3

0000000080004c80 <i_4704>:
    80004c80:	00816403          	lwu	s0,8(sp)

0000000080004c84 <i_4705>:
    80004c84:	001a0233          	add	tp,s4,ra

0000000080004c88 <i_4706>:
    80004c88:	01200a13          	li	s4,18

0000000080004c8c <i_4707>:
    80004c8c:	41435a33          	sra	s4,t1,s4

0000000080004c90 <i_4708>:
    80004c90:	c84a3e93          	sltiu	t4,s4,-892

0000000080004c94 <i_4709>:
    80004c94:	01444c63          	blt	s0,s4,80004cac <i_4715>

0000000080004c98 <i_4710>:
    80004c98:	01b24663          	blt	tp,s11,80004ca4 <i_4713>

0000000080004c9c <i_4711>:
    80004c9c:	04412583          	lw	a1,68(sp)

0000000080004ca0 <i_4712>:
    80004ca0:	f9b11723          	sh	s11,-114(sp)

0000000080004ca4 <i_4713>:
    80004ca4:	0063a1b3          	slt	gp,t2,t1

0000000080004ca8 <i_4714>:
    80004ca8:	01425263          	ble	s4,tp,80004cac <i_4715>

0000000080004cac <i_4715>:
    80004cac:	001d9493          	slli	s1,s11,0x1

0000000080004cb0 <i_4716>:
    80004cb0:	0065e863          	bltu	a1,t1,80004cc0 <i_4720>

0000000080004cb4 <i_4717>:
    80004cb4:	4014da13          	srai	s4,s1,0x1

0000000080004cb8 <i_4718>:
    80004cb8:	07e10423          	sb	t5,104(sp)

0000000080004cbc <i_4719>:
    80004cbc:	18215383          	lhu	t2,386(sp)

0000000080004cc0 <i_4720>:
    80004cc0:	08713c23          	sd	t2,152(sp)

0000000080004cc4 <i_4721>:
    80004cc4:	02ba52b3          	divu	t0,s4,a1

0000000080004cc8 <i_4722>:
    80004cc8:	1d812783          	lw	a5,472(sp)

0000000080004ccc <i_4723>:
    80004ccc:	00f64663          	blt	a2,a5,80004cd8 <i_4726>

0000000080004cd0 <i_4724>:
    80004cd0:	f4314403          	lbu	s0,-189(sp)

0000000080004cd4 <i_4725>:
    80004cd4:	05812383          	lw	t2,88(sp)

0000000080004cd8 <i_4726>:
    80004cd8:	27c86597          	auipc	a1,0x27c86

0000000080004cdc <i_4727>:
    80004cdc:	0bf10583          	lb	a1,191(sp)

0000000080004ce0 <i_4728>:
    80004ce0:	0ac14083          	lbu	ra,172(sp)

0000000080004ce4 <i_4729>:
    80004ce4:	e6510d23          	sb	t0,-390(sp)

0000000080004ce8 <i_4730>:
    80004ce8:	00f7dc63          	ble	a5,a5,80004d00 <i_4736>

0000000080004cec <i_4731>:
    80004cec:	6990859b          	addiw	a1,ra,1689

0000000080004cf0 <i_4732>:
    80004cf0:	f0816583          	lwu	a1,-248(sp)

0000000080004cf4 <i_4733>:
    80004cf4:	3e108d9b          	addiw	s11,ra,993

0000000080004cf8 <i_4734>:
    80004cf8:	05913c23          	sd	s9,88(sp)

0000000080004cfc <i_4735>:
    80004cfc:	001d80b3          	add	ra,s11,ra

0000000080004d00 <i_4736>:
    80004d00:	03ad9e33          	mulh	t3,s11,s10

0000000080004d04 <i_4737>:
    80004d04:	16812203          	lw	tp,360(sp)

0000000080004d08 <i_4738>:
    80004d08:	06816d83          	lwu	s11,104(sp)

0000000080004d0c <i_4739>:
    80004d0c:	19c12623          	sw	t3,396(sp)

0000000080004d10 <i_4740>:
    80004d10:	01cda233          	slt	tp,s11,t3

0000000080004d14 <i_4741>:
    80004d14:	1ae15b83          	lhu	s7,430(sp)

0000000080004d18 <i_4742>:
    80004d18:	00000013          	nop

0000000080004d1c <i_4743>:
    80004d1c:	7bc00d93          	li	s11,1980

0000000080004d20 <i_4744>:
    80004d20:	7c400e13          	li	t3,1988

0000000080004d24 <i_4745>:
    80004d24:	17510283          	lb	t0,373(sp)

0000000080004d28 <i_4746>:
    80004d28:	00fbc863          	blt	s7,a5,80004d38 <i_4750>

0000000080004d2c <i_4747>:
    80004d2c:	0052e0b3          	or	ra,t0,t0

0000000080004d30 <i_4748>:
    80004d30:	0010b2b3          	sltu	t0,ra,ra

0000000080004d34 <i_4749>:
    80004d34:	0372ebbb          	remw	s7,t0,s7

0000000080004d38 <i_4750>:
    80004d38:	01408a33          	add	s4,ra,s4

0000000080004d3c <i_4751>:
    80004d3c:	19813183          	ld	gp,408(sp)

0000000080004d40 <i_4752>:
    80004d40:	09a14b83          	lbu	s7,154(sp)

0000000080004d44 <i_4753>:
    80004d44:	42e1aa13          	slti	s4,gp,1070

0000000080004d48 <i_4754>:
    80004d48:	08816b83          	lwu	s7,136(sp)

0000000080004d4c <i_4755>:
    80004d4c:	00000013          	nop

0000000080004d50 <i_4756>:
    80004d50:	001d8d93          	addi	s11,s11,1
    80004d54:	fdbe78e3          	bleu	s11,t3,80004d24 <i_4745>

0000000080004d58 <i_4757>:
    80004d58:	403185b3          	sub	a1,gp,gp

0000000080004d5c <i_4758>:
    80004d5c:	0046da13          	srli	s4,a3,0x4

0000000080004d60 <i_4759>:
    80004d60:	01e00193          	li	gp,30

0000000080004d64 <i_4760>:
    80004d64:	003c11b3          	sll	gp,s8,gp

0000000080004d68 <i_4761>:
    80004d68:	fb211183          	lh	gp,-78(sp)

0000000080004d6c <i_4762>:
    80004d6c:	00311723          	sh	gp,14(sp)

0000000080004d70 <i_4763>:
    80004d70:	04313023          	sd	gp,64(sp)

0000000080004d74 <i_4764>:
    80004d74:	00419193          	slli	gp,gp,0x4

0000000080004d78 <i_4765>:
    80004d78:	0e310223          	sb	gp,228(sp)

0000000080004d7c <i_4766>:
    80004d7c:	0021d19b          	srliw	gp,gp,0x2

0000000080004d80 <i_4767>:
    80004d80:	10312a23          	sw	gp,276(sp)

0000000080004d84 <i_4768>:
    80004d84:	f3310403          	lb	s0,-205(sp)

0000000080004d88 <i_4769>:
    80004d88:	f3411183          	lh	gp,-204(sp)

0000000080004d8c <i_4770>:
    80004d8c:	fe310ca3          	sb	gp,-7(sp)

0000000080004d90 <i_4771>:
    80004d90:	e2016183          	lwu	gp,-480(sp)

0000000080004d94 <i_4772>:
    80004d94:	03a68263          	beq	a3,s10,80004db8 <i_4781>

0000000080004d98 <i_4773>:
    80004d98:	03014483          	lbu	s1,48(sp)

0000000080004d9c <i_4774>:
    80004d9c:	0024ce63          	blt	s1,sp,80004db8 <i_4781>

0000000080004da0 <i_4775>:
    80004da0:	02b5c5bb          	divw	a1,a1,a1

0000000080004da4 <i_4776>:
    80004da4:	0a812c23          	sw	s0,184(sp)

0000000080004da8 <i_4777>:
    80004da8:	ee310ca3          	sb	gp,-263(sp)

0000000080004dac <i_4778>:
    80004dac:	02a3b333          	mulhu	t1,t2,a0

0000000080004db0 <i_4779>:
    80004db0:	0025919b          	slliw	gp,a1,0x2

0000000080004db4 <i_4780>:
    80004db4:	0268743b          	remuw	s0,a6,t1

0000000080004db8 <i_4781>:
    80004db8:	00a18333          	add	t1,gp,a0

0000000080004dbc <i_4782>:
    80004dbc:	09414483          	lbu	s1,148(sp)

0000000080004dc0 <i_4783>:
    80004dc0:	00451513          	slli	a0,a0,0x4

0000000080004dc4 <i_4784>:
    80004dc4:	00100413          	li	s0,1

0000000080004dc8 <i_4785>:
    80004dc8:	008797b3          	sll	a5,a5,s0

0000000080004dcc <i_4786>:
    80004dcc:	e5211283          	lh	t0,-430(sp)

0000000080004dd0 <i_4787>:
    80004dd0:	02ada533          	mulhsu	a0,s11,a0

0000000080004dd4 <i_4788>:
    80004dd4:	fef14503          	lbu	a0,-17(sp)

0000000080004dd8 <i_4789>:
    80004dd8:	00a55663          	ble	a0,a0,80004de4 <i_4792>

0000000080004ddc <i_4790>:
    80004ddc:	e4a10ba3          	sb	a0,-425(sp)

0000000080004de0 <i_4791>:
    80004de0:	00a57463          	bleu	a0,a0,80004de8 <i_4793>

0000000080004de4 <i_4792>:
    80004de4:	12a12223          	sw	a0,292(sp)

0000000080004de8 <i_4793>:
    80004de8:	e4415083          	lhu	ra,-444(sp)

0000000080004dec <i_4794>:
    80004dec:	02a549b3          	div	s3,a0,a0

0000000080004df0 <i_4795>:
    80004df0:	b97651b7          	lui	gp,0xb9765

0000000080004df4 <i_4796>:
    80004df4:	00151663          	bne	a0,ra,80004e00 <i_4799>

0000000080004df8 <i_4797>:
    80004df8:	f4611403          	lh	s0,-186(sp)

0000000080004dfc <i_4798>:
    80004dfc:	f8f12223          	sw	a5,-124(sp)

0000000080004e00 <i_4799>:
    80004e00:	0217f533          	remu	a0,a5,ra

0000000080004e04 <i_4800>:
    80004e04:	18f11f23          	sh	a5,414(sp)

0000000080004e08 <i_4801>:
    80004e08:	7bf00993          	li	s3,1983

0000000080004e0c <i_4802>:
    80004e0c:	7cb00793          	li	a5,1995

0000000080004e10 <i_4803>:
    80004e10:	02000593          	li	a1,32

0000000080004e14 <i_4804>:
    80004e14:	00be90b3          	sll	ra,t4,a1

0000000080004e18 <i_4805>:
    80004e18:	0d011e83          	lh	t4,208(sp)

0000000080004e1c <i_4806>:
    80004e1c:	1e214b83          	lbu	s7,482(sp)

0000000080004e20 <i_4807>:
    80004e20:	b4567213          	andi	tp,a2,-1211

0000000080004e24 <i_4808>:
    80004e24:	e6812183          	lw	gp,-408(sp)

0000000080004e28 <i_4809>:
    80004e28:	8602041b          	addiw	s0,tp,-1952

0000000080004e2c <i_4810>:
    80004e2c:	fc811123          	sh	s0,-62(sp)

0000000080004e30 <i_4811>:
    80004e30:	00445263          	ble	tp,s0,80004e34 <i_4812>

0000000080004e34 <i_4812>:
    80004e34:	f5914183          	lbu	gp,-167(sp)

0000000080004e38 <i_4813>:
    80004e38:	1c016b83          	lwu	s7,448(sp)

0000000080004e3c <i_4814>:
    80004e3c:	ecc15183          	lhu	gp,-308(sp)

0000000080004e40 <i_4815>:
    80004e40:	40445213          	srai	tp,s0,0x4

0000000080004e44 <i_4816>:
    80004e44:	00198993          	addi	s3,s3,1 # 31b5a001 <main-0x4e4a5fff>
    80004e48:	fcf994e3          	bne	s3,a5,80004e10 <i_4803>

0000000080004e4c <i_4817>:
    80004e4c:	eec16d83          	lwu	s11,-276(sp)

0000000080004e50 <i_4818>:
    80004e50:	004bec63          	bltu	s7,tp,80004e68 <i_4824>

0000000080004e54 <i_4819>:
    80004e54:	e8410da3          	sb	tp,-357(sp)

0000000080004e58 <i_4820>:
    80004e58:	00425d9b          	srliw	s11,tp,0x4

0000000080004e5c <i_4821>:
    80004e5c:	ea211303          	lh	t1,-350(sp)

0000000080004e60 <i_4822>:
    80004e60:	401dd213          	srai	tp,s11,0x1

0000000080004e64 <i_4823>:
    80004e64:	03bbf463          	bleu	s11,s7,80004e8c <i_4833>

0000000080004e68 <i_4824>:
    80004e68:	00429463          	bne	t0,tp,80004e70 <i_4826>

0000000080004e6c <i_4825>:
    80004e6c:	f9813083          	ld	ra,-104(sp)

0000000080004e70 <i_4826>:
    80004e70:	15411d83          	lh	s11,340(sp)

0000000080004e74 <i_4827>:
    80004e74:	00511e23          	sh	t0,28(sp)

0000000080004e78 <i_4828>:
    80004e78:	00000013          	nop

0000000080004e7c <i_4829>:
    80004e7c:	037859bb          	divuw	s3,a6,s7

0000000080004e80 <i_4830>:
    80004e80:	024b8eb3          	mul	t4,s7,tp

0000000080004e84 <i_4831>:
    80004e84:	f3013983          	ld	s3,-208(sp)

0000000080004e88 <i_4832>:
    80004e88:	01e15803          	lhu	a6,30(sp)

0000000080004e8c <i_4833>:
    80004e8c:	00000013          	nop

0000000080004e90 <i_4834>:
    80004e90:	030b09b3          	mul	s3,s6,a6

0000000080004e94 <i_4835>:
    80004e94:	7a100293          	li	t0,1953

0000000080004e98 <i_4836>:
    80004e98:	7a600b93          	li	s7,1958

0000000080004e9c <i_4837>:
    80004e9c:	41080a3b          	subw	s4,a6,a6

0000000080004ea0 <i_4838>:
    80004ea0:	eea10403          	lb	s0,-278(sp)

0000000080004ea4 <i_4839>:
    80004ea4:	75300d93          	li	s11,1875

0000000080004ea8 <i_4840>:
    80004ea8:	75c00213          	li	tp,1884

0000000080004eac <i_4841>:
    80004eac:	001d8d93          	addi	s11,s11,1
    80004eb0:	ffb27ee3          	bleu	s11,tp,80004eac <i_4841>

0000000080004eb4 <i_4842>:
    80004eb4:	d8c82593          	slti	a1,a6,-628

0000000080004eb8 <i_4843>:
    80004eb8:	09016783          	lwu	a5,144(sp)

0000000080004ebc <i_4844>:
    80004ebc:	01512023          	sw	s5,0(sp)

0000000080004ec0 <i_4845>:
    80004ec0:	02f24263          	blt	tp,a5,80004ee4 <i_4853>

0000000080004ec4 <i_4846>:
    80004ec4:	0287e3b3          	rem	t2,a5,s0

0000000080004ec8 <i_4847>:
    80004ec8:	00000013          	nop

0000000080004ecc <i_4848>:
    80004ecc:	00128293          	addi	t0,t0,1
    80004ed0:	fd7296e3          	bne	t0,s7,80004e9c <i_4837>

0000000080004ed4 <i_4849>:
    80004ed4:	01344e63          	blt	s0,s3,80004ef0 <i_4856>

0000000080004ed8 <i_4850>:
    80004ed8:	0139e463          	bltu	s3,s3,80004ee0 <i_4852>

0000000080004edc <i_4851>:
    80004edc:	fe413423          	sd	tp,-24(sp)

0000000080004ee0 <i_4852>:
    80004ee0:	a56630b7          	lui	ra,0xa5663

0000000080004ee4 <i_4853>:
    80004ee4:	013087b3          	add	a5,ra,s3

0000000080004ee8 <i_4854>:
    80004ee8:	fa95f413          	andi	s0,a1,-87

0000000080004eec <i_4855>:
    80004eec:	0255e43b          	remw	s0,a1,t0

0000000080004ef0 <i_4856>:
    80004ef0:	028087bb          	mulw	a5,ra,s0

0000000080004ef4 <i_4857>:
    80004ef4:	fc812303          	lw	t1,-56(sp)

0000000080004ef8 <i_4858>:
    80004ef8:	02b44e3b          	divw	t3,s0,a1

0000000080004efc <i_4859>:
    80004efc:	f7011423          	sh	a6,-152(sp)

0000000080004f00 <i_4860>:
    80004f00:	fab12c23          	sw	a1,-72(sp)

0000000080004f04 <i_4861>:
    80004f04:	18613823          	sd	t1,400(sp)

0000000080004f08 <i_4862>:
    80004f08:	6dc5b593          	sltiu	a1,a1,1756

0000000080004f0c <i_4863>:
    80004f0c:	0fc13423          	sd	t3,232(sp)

0000000080004f10 <i_4864>:
    80004f10:	0a114203          	lbu	tp,161(sp)

0000000080004f14 <i_4865>:
    80004f14:	0105f333          	and	t1,a1,a6

0000000080004f18 <i_4866>:
    80004f18:	1f45a093          	slti	ra,a1,500

0000000080004f1c <i_4867>:
    80004f1c:	00c12803          	lw	a6,12(sp)

0000000080004f20 <i_4868>:
    80004f20:	02d00513          	li	a0,45

0000000080004f24 <i_4869>:
    80004f24:	00a1d1b3          	srl	gp,gp,a0

0000000080004f28 <i_4870>:
    80004f28:	0b013283          	ld	t0,176(sp)

0000000080004f2c <i_4871>:
    80004f2c:	00a5c863          	blt	a1,a0,80004f3c <i_4875>

0000000080004f30 <i_4872>:
    80004f30:	f8e15283          	lhu	t0,-114(sp)

0000000080004f34 <i_4873>:
    80004f34:	ed611583          	lh	a1,-298(sp)

0000000080004f38 <i_4874>:
    80004f38:	03b11223          	sh	s11,36(sp)

0000000080004f3c <i_4875>:
    80004f3c:	0232e463          	bltu	t0,gp,80004f64 <i_4885>

0000000080004f40 <i_4876>:
    80004f40:	0045939b          	slliw	t2,a1,0x4

0000000080004f44 <i_4877>:
    80004f44:	e1c16583          	lwu	a1,-484(sp)

0000000080004f48 <i_4878>:
    80004f48:	f7c15083          	lhu	ra,-132(sp)

0000000080004f4c <i_4879>:
    80004f4c:	02b12823          	sw	a1,48(sp)

0000000080004f50 <i_4880>:
    80004f50:	0275c463          	blt	a1,t2,80004f78 <i_4890>

0000000080004f54 <i_4881>:
    80004f54:	00d3c863          	blt	t2,a3,80004f64 <i_4885>

0000000080004f58 <i_4882>:
    80004f58:	2583fb93          	andi	s7,t2,600

0000000080004f5c <i_4883>:
    80004f5c:	ff610383          	lb	t2,-10(sp)

0000000080004f60 <i_4884>:
    80004f60:	ec712423          	sw	t2,-312(sp)

0000000080004f64 <i_4885>:
    80004f64:	1c113823          	sd	ra,464(sp)

0000000080004f68 <i_4886>:
    80004f68:	e7415b83          	lhu	s7,-396(sp)

0000000080004f6c <i_4887>:
    80004f6c:	f1813503          	ld	a0,-232(sp)

0000000080004f70 <i_4888>:
    80004f70:	02ab8263          	beq	s7,a0,80004f94 <i_4897>

0000000080004f74 <i_4889>:
    80004f74:	a8b54213          	xori	tp,a0,-1397

0000000080004f78 <i_4890>:
    80004f78:	fd013503          	ld	a0,-48(sp)

0000000080004f7c <i_4891>:
    80004f7c:	00408e63          	beq	ra,tp,80004f98 <i_4898>

0000000080004f80 <i_4892>:
    80004f80:	01081a63          	bne	a6,a6,80004f94 <i_4897>

0000000080004f84 <i_4893>:
    80004f84:	e7816483          	lwu	s1,-392(sp)

0000000080004f88 <i_4894>:
    80004f88:	e6e14503          	lbu	a0,-402(sp)

0000000080004f8c <i_4895>:
    80004f8c:	01008e63          	beq	ra,a6,80004fa8 <i_4902>

0000000080004f90 <i_4896>:
    80004f90:	003bf263          	bleu	gp,s7,80004f94 <i_4897>

0000000080004f94 <i_4897>:
    80004f94:	0100c3b3          	xor	t2,ra,a6

0000000080004f98 <i_4898>:
    80004f98:	68e84813          	xori	a6,a6,1678

0000000080004f9c <i_4899>:
    80004f9c:	02011e83          	lh	t4,32(sp)

0000000080004fa0 <i_4900>:
    80004fa0:	1d416e83          	lwu	t4,468(sp)

0000000080004fa4 <i_4901>:
    80004fa4:	00484db3          	xor	s11,a6,tp

0000000080004fa8 <i_4902>:
    80004fa8:	10314503          	lbu	a0,259(sp)

0000000080004fac <i_4903>:
    80004fac:	01600e93          	li	t4,22

0000000080004fb0 <i_4904>:
    80004fb0:	01ddddbb          	srlw	s11,s11,t4

0000000080004fb4 <i_4905>:
    80004fb4:	02a60263          	beq	a2,a0,80004fd8 <i_4914>

0000000080004fb8 <i_4906>:
    80004fb8:	e8410503          	lb	a0,-380(sp)

0000000080004fbc <i_4907>:
    80004fbc:	e8e11e83          	lh	t4,-370(sp)

0000000080004fc0 <i_4908>:
    80004fc0:	0a411e23          	sh	tp,188(sp)

0000000080004fc4 <i_4909>:
    80004fc4:	f2a105a3          	sb	a0,-213(sp)

0000000080004fc8 <i_4910>:
    80004fc8:	00000013          	nop

0000000080004fcc <i_4911>:
    80004fcc:	00000013          	nop

0000000080004fd0 <i_4912>:
    80004fd0:	0aa13023          	sd	a0,160(sp)

0000000080004fd4 <i_4913>:
    80004fd4:	e7812e03          	lw	t3,-392(sp)

0000000080004fd8 <i_4914>:
    80004fd8:	00000013          	nop

0000000080004fdc <i_4915>:
    80004fdc:	00000013          	nop

0000000080004fe0 <i_4916>:
    80004fe0:	74900d93          	li	s11,1865

0000000080004fe4 <i_4917>:
    80004fe4:	74e00513          	li	a0,1870

0000000080004fe8 <i_4918>:
    80004fe8:	021e0eb3          	mul	t4,t3,ra

0000000080004fec <i_4919>:
    80004fec:	e7015e03          	lhu	t3,-400(sp)

0000000080004ff0 <i_4920>:
    80004ff0:	8cce4793          	xori	a5,t3,-1844

0000000080004ff4 <i_4921>:
    80004ff4:	f8416e03          	lwu	t3,-124(sp)

0000000080004ff8 <i_4922>:
    80004ff8:	001d8d93          	addi	s11,s11,1
    80004ffc:	feadc6e3          	blt	s11,a0,80004fe8 <i_4918>

0000000080005000 <i_4923>:
    80005000:	00fe6a63          	bltu	t3,a5,80005014 <i_4928>

0000000080005004 <i_4924>:
    80005004:	027e63bb          	remw	t2,t3,t2

0000000080005008 <i_4925>:
    80005008:	14812e83          	lw	t4,328(sp)

000000008000500c <i_4926>:
    8000500c:	03de4063          	blt	t3,t4,8000502c <i_4934>

0000000080005010 <i_4927>:
    80005010:	0a712e23          	sw	t2,188(sp)

0000000080005014 <i_4928>:
    80005014:	01cb4263          	blt	s6,t3,80005018 <i_4929>

0000000080005018 <i_4929>:
    80005018:	01c7e463          	bltu	a5,t3,80005020 <i_4931>

000000008000501c <i_4930>:
    8000501c:	e2013303          	ld	t1,-480(sp)

0000000080005020 <i_4931>:
    80005020:	01c3b333          	sltu	t1,t2,t3

0000000080005024 <i_4932>:
    80005024:	0063e663          	bltu	t2,t1,80005030 <i_4935>

0000000080005028 <i_4933>:
    80005028:	48ae7d93          	andi	s11,t3,1162

000000008000502c <i_4934>:
    8000502c:	13412e83          	lw	t4,308(sp)

0000000080005030 <i_4935>:
    80005030:	03cea433          	mulhsu	s0,t4,t3

0000000080005034 <i_4936>:
    80005034:	03c3f23b          	remuw	tp,t2,t3

0000000080005038 <i_4937>:
    80005038:	02622333          	mulhsu	t1,tp,t1

000000008000503c <i_4938>:
    8000503c:	02623333          	mulhu	t1,tp,t1

0000000080005040 <i_4939>:
    80005040:	19c11b83          	lh	s7,412(sp)

0000000080005044 <i_4940>:
    80005044:	0373743b          	remuw	s0,t1,s7

0000000080005048 <i_4941>:
    80005048:	bb147b93          	andi	s7,s0,-1103

000000008000504c <i_4942>:
    8000504c:	00fb8863          	beq	s7,a5,8000505c <i_4946>

0000000080005050 <i_4943>:
    80005050:	00600413          	li	s0,6

0000000080005054 <i_4944>:
    80005054:	00851533          	sll	a0,a0,s0

0000000080005058 <i_4945>:
    80005058:	ee013403          	ld	s0,-288(sp)

000000008000505c <i_4946>:
    8000505c:	02836533          	rem	a0,t1,s0

0000000080005060 <i_4947>:
    80005060:	1ab14303          	lbu	t1,427(sp)

0000000080005064 <i_4948>:
    80005064:	13012c23          	sw	a6,312(sp)

0000000080005068 <i_4949>:
    80005068:	83950813          	addi	a6,a0,-1991

000000008000506c <i_4950>:
    8000506c:	02a47433          	remu	s0,s0,a0

0000000080005070 <i_4951>:
    80005070:	f2810923          	sb	s0,-206(sp)

0000000080005074 <i_4952>:
    80005074:	004e5193          	srli	gp,t3,0x4

0000000080005078 <i_4953>:
    80005078:	f6910803          	lb	a6,-151(sp)

000000008000507c <i_4954>:
    8000507c:	03b105a3          	sb	s11,43(sp)

0000000080005080 <i_4955>:
    80005080:	00400593          	li	a1,4

0000000080005084 <i_4956>:
    80005084:	40b1d83b          	sraw	a6,gp,a1

0000000080005088 <i_4957>:
    80005088:	a435ee93          	ori	t4,a1,-1469

000000008000508c <i_4958>:
    8000508c:	00b1d263          	ble	a1,gp,80005090 <i_4959>

0000000080005090 <i_4959>:
    80005090:	ea7101a3          	sb	t2,-349(sp)

0000000080005094 <i_4960>:
    80005094:	00000013          	nop

0000000080005098 <i_4961>:
    80005098:	00000013          	nop

000000008000509c <i_4962>:
    8000509c:	7c100593          	li	a1,1985

00000000800050a0 <i_4963>:
    800050a0:	7d100193          	li	gp,2001

00000000800050a4 <i_4964>:
    800050a4:	f8813823          	sd	s0,-112(sp)

00000000800050a8 <i_4965>:
    800050a8:	05a15303          	lhu	t1,90(sp)

00000000800050ac <i_4966>:
    800050ac:	00b7b7b3          	sltu	a5,a5,a1

00000000800050b0 <i_4967>:
    800050b0:	f9813203          	ld	tp,-104(sp)

00000000800050b4 <i_4968>:
    800050b4:	00b1c833          	xor	a6,gp,a1

00000000800050b8 <i_4969>:
    800050b8:	00400313          	li	t1,4

00000000800050bc <i_4970>:
    800050bc:	4069d9bb          	sraw	s3,s3,t1

00000000800050c0 <i_4971>:
    800050c0:	1e013303          	ld	t1,480(sp)

00000000800050c4 <i_4972>:
    800050c4:	0061fa63          	bleu	t1,gp,800050d8 <i_4976>

00000000800050c8 <i_4973>:
    800050c8:	00158593          	addi	a1,a1,1 # a7c8acd9 <_end+0x27c7a8c5>
    800050cc:	fcb1dce3          	ble	a1,gp,800050a4 <i_4964>

00000000800050d0 <i_4974>:
    800050d0:	9609f313          	andi	t1,s3,-1696

00000000800050d4 <i_4975>:
    800050d4:	02934263          	blt	t1,s1,800050f8 <i_4984>

00000000800050d8 <i_4976>:
    800050d8:	05313823          	sd	s3,80(sp)

00000000800050dc <i_4977>:
    800050dc:	01330c63          	beq	t1,s3,800050f4 <i_4983>

00000000800050e0 <i_4978>:
    800050e0:	0339f063          	bleu	s3,s3,80005100 <i_4986>

00000000800050e4 <i_4979>:
    800050e4:	00000013          	nop

00000000800050e8 <i_4980>:
    800050e8:	0379e53b          	remw	a0,s3,s7

00000000800050ec <i_4981>:
    800050ec:	00000013          	nop

00000000800050f0 <i_4982>:
    800050f0:	19c11303          	lh	t1,412(sp)

00000000800050f4 <i_4983>:
    800050f4:	f4412983          	lw	s3,-188(sp)

00000000800050f8 <i_4984>:
    800050f8:	40155193          	srai	gp,a0,0x1

00000000800050fc <i_4985>:
    800050fc:	4040d21b          	sraiw	tp,ra,0x4

0000000080005100 <i_4986>:
    80005100:	02140e33          	mul	t3,s0,ra

0000000080005104 <i_4987>:
    80005104:	e4f10303          	lb	t1,-433(sp)

0000000080005108 <i_4988>:
    80005108:	7b700b93          	li	s7,1975

000000008000510c <i_4989>:
    8000510c:	7c300093          	li	ra,1987

0000000080005110 <i_4990>:
    80005110:	06a11223          	sh	a0,100(sp)

0000000080005114 <i_4991>:
    80005114:	6efd5517          	auipc	a0,0x6efd5

0000000080005118 <i_4992>:
    80005118:	0259c463          	blt	s3,t0,80005140 <i_5001>

000000008000511c <i_4993>:
    8000511c:	fea12823          	sw	a0,-16(sp)

0000000080005120 <i_4994>:
    80005120:	0211d063          	ble	ra,gp,80005140 <i_5001>

0000000080005124 <i_4995>:
    80005124:	f2e15503          	lhu	a0,-210(sp)

0000000080005128 <i_4996>:
    80005128:	02aa8433          	mul	s0,s5,a0

000000008000512c <i_4997>:
    8000512c:	f6412303          	lw	t1,-156(sp)

0000000080005130 <i_4998>:
    80005130:	001b8b93          	addi	s7,s7,1
    80005134:	fc1b9ee3          	bne	s7,ra,80005110 <i_4990>

0000000080005138 <i_4999>:
    80005138:	00000013          	nop

000000008000513c <i_5000>:
    8000513c:	17012403          	lw	s0,368(sp)

0000000080005140 <i_5001>:
    80005140:	5d254e13          	xori	t3,a0,1490

0000000080005144 <i_5002>:
    80005144:	00674463          	blt	a4,t1,8000514c <i_5004>

0000000080005148 <i_5003>:
    80005148:	00a00313          	li	t1,10

000000008000514c <i_5004>:
    8000514c:	006352bb          	srlw	t0,t1,t1

0000000080005150 <i_5005>:
    80005150:	02a12023          	sw	a0,32(sp)

0000000080005154 <i_5006>:
    80005154:	12016503          	lwu	a0,288(sp)

0000000080005158 <i_5007>:
    80005158:	e2013503          	ld	a0,-480(sp)

000000008000515c <i_5008>:
    8000515c:	00000013          	nop

0000000080005160 <i_5009>:
    80005160:	e8013203          	ld	tp,-384(sp)

0000000080005164 <i_5010>:
    80005164:	76b00513          	li	a0,1899

0000000080005168 <i_5011>:
    80005168:	77500493          	li	s1,1909

000000008000516c <i_5012>:
    8000516c:	e4a12c23          	sw	a0,-424(sp)

0000000080005170 <i_5013>:
    80005170:	00931e63          	bne	t1,s1,8000518c <i_5020>

0000000080005174 <i_5014>:
    80005174:	14615303          	lhu	t1,326(sp)

0000000080005178 <i_5015>:
    80005178:	fc610023          	sb	t1,-64(sp)

000000008000517c <i_5016>:
    8000517c:	fc613823          	sd	t1,-48(sp)

0000000080005180 <i_5017>:
    80005180:	00b4b5b3          	sltu	a1,s1,a1

0000000080005184 <i_5018>:
    80005184:	029a6a33          	rem	s4,s4,s1

0000000080005188 <i_5019>:
    80005188:	00000013          	nop

000000008000518c <i_5020>:
    8000518c:	f4514e83          	lbu	t4,-187(sp)

0000000080005190 <i_5021>:
    80005190:	13410023          	sb	s4,288(sp)

0000000080005194 <i_5022>:
    80005194:	134105a3          	sb	s4,299(sp)

0000000080005198 <i_5023>:
    80005198:	034a4a3b          	divw	s4,s4,s4

000000008000519c <i_5024>:
    8000519c:	743fc297          	auipc	t0,0x743fc

00000000800051a0 <i_5025>:
    800051a0:	00150513          	addi	a0,a0,1 # eefda115 <_end+0x6efc9d01>
    800051a4:	fc9564e3          	bltu	a0,s1,8000516c <i_5012>

00000000800051a8 <i_5026>:
    800051a8:	fb813803          	ld	a6,-72(sp)

00000000800051ac <i_5027>:
    800051ac:	03d5f463          	bleu	t4,a1,800051d4 <i_5037>

00000000800051b0 <i_5028>:
    800051b0:	fa816983          	lwu	s3,-88(sp)

00000000800051b4 <i_5029>:
    800051b4:	1d411223          	sh	s4,452(sp)

00000000800051b8 <i_5030>:
    800051b8:	232a3993          	sltiu	s3,s4,562

00000000800051bc <i_5031>:
    800051bc:	af59ce93          	xori	t4,s3,-1291

00000000800051c0 <i_5032>:
    800051c0:	01085863          	ble	a6,a6,800051d0 <i_5036>

00000000800051c4 <i_5033>:
    800051c4:	010ef263          	bleu	a6,t4,800051c8 <i_5034>

00000000800051c8 <i_5034>:
    800051c8:	010e8c63          	beq	t4,a6,800051e0 <i_5040>

00000000800051cc <i_5035>:
    800051cc:	17d12623          	sw	t4,364(sp)

00000000800051d0 <i_5036>:
    800051d0:	02b585bb          	mulw	a1,a1,a1

00000000800051d4 <i_5037>:
    800051d4:	003edb9b          	srliw	s7,t4,0x3

00000000800051d8 <i_5038>:
    800051d8:	f9a11e83          	lh	t4,-102(sp)

00000000800051dc <i_5039>:
    800051dc:	037e4e3b          	divw	t3,t3,s7

00000000800051e0 <i_5040>:
    800051e0:	07613023          	sd	s6,96(sp)

00000000800051e4 <i_5041>:
    800051e4:	03ce5e33          	divu	t3,t3,t3

00000000800051e8 <i_5042>:
    800051e8:	0e013283          	ld	t0,224(sp)

00000000800051ec <i_5043>:
    800051ec:	78f00193          	li	gp,1935

00000000800051f0 <i_5044>:
    800051f0:	7a200b93          	li	s7,1954

00000000800051f4 <i_5045>:
    800051f4:	00000013          	nop

00000000800051f8 <i_5046>:
    800051f8:	00000013          	nop

00000000800051fc <i_5047>:
    800051fc:	87400a13          	li	s4,-1932

0000000080005200 <i_5048>:
    80005200:	87700593          	li	a1,-1929

0000000080005204 <i_5049>:
    80005204:	404902b3          	sub	t0,s2,tp

0000000080005208 <i_5050>:
    80005208:	f2513023          	sd	t0,-224(sp)

000000008000520c <i_5051>:
    8000520c:	76f00e93          	li	t4,1903

0000000080005210 <i_5052>:
    80005210:	77100313          	li	t1,1905

0000000080005214 <i_5053>:
    80005214:	f8810083          	lb	ra,-120(sp)

0000000080005218 <i_5054>:
    80005218:	001e8e93          	addi	t4,t4,1
    8000521c:	ffd35ce3          	ble	t4,t1,80005214 <i_5053>

0000000080005220 <i_5055>:
    80005220:	7be26297          	auipc	t0,0x7be26

0000000080005224 <i_5056>:
    80005224:	001a0a13          	addi	s4,s4,1
    80005228:	fcba6ee3          	bltu	s4,a1,80005204 <i_5049>

000000008000522c <i_5057>:
    8000522c:	15313c23          	sd	s3,344(sp)

0000000080005230 <i_5058>:
    80005230:	00118193          	addi	gp,gp,1 # ffffffffb9765001 <_end+0xffffffff39754bed>
    80005234:	fc3bf0e3          	bleu	gp,s7,800051f4 <i_5045>

0000000080005238 <i_5059>:
    80005238:	027295b3          	mulh	a1,t0,t2

000000008000523c <i_5060>:
    8000523c:	311e079b          	addiw	a5,t3,785

0000000080005240 <i_5061>:
    80005240:	01000993          	li	s3,16

0000000080005244 <i_5062>:
    80005244:	013ed1b3          	srl	gp,t4,s3

0000000080005248 <i_5063>:
    80005248:	03cb6e3b          	remw	t3,s6,t3

000000008000524c <i_5064>:
    8000524c:	04e14283          	lbu	t0,78(sp)

0000000080005250 <i_5065>:
    80005250:	0259e9bb          	remw	s3,s3,t0

0000000080005254 <i_5066>:
    80005254:	fdc10723          	sb	t3,-50(sp)

0000000080005258 <i_5067>:
    80005258:	02581833          	mulh	a6,a6,t0

000000008000525c <i_5068>:
    8000525c:	03016263          	bltu	sp,a6,80005280 <i_5077>

0000000080005260 <i_5069>:
    80005260:	e5c13423          	sd	t3,-440(sp)

0000000080005264 <i_5070>:
    80005264:	01c80bb3          	add	s7,a6,t3

0000000080005268 <i_5071>:
    80005268:	f9c12e23          	sw	t3,-100(sp)

000000008000526c <i_5072>:
    8000526c:	00400e93          	li	t4,4

0000000080005270 <i_5073>:
    80005270:	01deddbb          	srlw	s11,t4,t4

0000000080005274 <i_5074>:
    80005274:	01db8c63          	beq	s7,t4,8000528c <i_5080>

0000000080005278 <i_5075>:
    80005278:	017de663          	bltu	s11,s7,80005284 <i_5078>

000000008000527c <i_5076>:
    8000527c:	01def263          	bleu	t4,t4,80005280 <i_5077>

0000000080005280 <i_5077>:
    80005280:	12215083          	lhu	ra,290(sp)

0000000080005284 <i_5078>:
    80005284:	fd015d83          	lhu	s11,-48(sp)

0000000080005288 <i_5079>:
    80005288:	fa813e83          	ld	t4,-88(sp)

000000008000528c <i_5080>:
    8000528c:	001d80b3          	add	ra,s11,ra

0000000080005290 <i_5081>:
    80005290:	00000013          	nop

0000000080005294 <i_5082>:
    80005294:	7b300193          	li	gp,1971

0000000080005298 <i_5083>:
    80005298:	7c200e13          	li	t3,1986

000000008000529c <i_5084>:
    8000529c:	0e412e83          	lw	t4,228(sp)

00000000800052a0 <i_5085>:
    800052a0:	7f22bb93          	sltiu	s7,t0,2034

00000000800052a4 <i_5086>:
    800052a4:	0140a833          	slt	a6,ra,s4

00000000800052a8 <i_5087>:
    800052a8:	83700293          	li	t0,-1993

00000000800052ac <i_5088>:
    800052ac:	84900a13          	li	s4,-1975

00000000800052b0 <i_5089>:
    800052b0:	0dd10b23          	sb	t4,214(sp)

00000000800052b4 <i_5090>:
    800052b4:	037f9463          	bne	t6,s7,800052dc <i_5098>

00000000800052b8 <i_5091>:
    800052b8:	1dc16783          	lwu	a5,476(sp)

00000000800052bc <i_5092>:
    800052bc:	00128293          	addi	t0,t0,1 # fbe2b221 <_end+0x7be1ae0d>
    800052c0:	ff42c8e3          	blt	t0,s4,800052b0 <i_5089>

00000000800052c4 <i_5093>:
    800052c4:	f5010503          	lb	a0,-176(sp)

00000000800052c8 <i_5094>:
    800052c8:	00118193          	addi	gp,gp,1
    800052cc:	fdc1e8e3          	bltu	gp,t3,8000529c <i_5084>

00000000800052d0 <i_5095>:
    800052d0:	0f711923          	sh	s7,242(sp)

00000000800052d4 <i_5096>:
    800052d4:	19f14a03          	lbu	s4,415(sp)

00000000800052d8 <i_5097>:
    800052d8:	0210c463          	blt	ra,ra,80005300 <i_5107>

00000000800052dc <i_5098>:
    800052dc:	00a50a63          	beq	a0,a0,800052f0 <i_5103>

00000000800052e0 <i_5099>:
    800052e0:	00adfe63          	bleu	a0,s11,800052fc <i_5106>

00000000800052e4 <i_5100>:
    800052e4:	e2815d83          	lhu	s11,-472(sp)

00000000800052e8 <i_5101>:
    800052e8:	ed413c23          	sd	s4,-296(sp)

00000000800052ec <i_5102>:
    800052ec:	fdc16403          	lwu	s0,-36(sp)

00000000800052f0 <i_5103>:
    800052f0:	f3b12c23          	sw	s11,-200(sp)

00000000800052f4 <i_5104>:
    800052f4:	014dcdb3          	xor	s11,s11,s4

00000000800052f8 <i_5105>:
    800052f8:	11816d83          	lwu	s11,280(sp)

00000000800052fc <i_5106>:
    800052fc:	04c15a03          	lhu	s4,76(sp)

0000000080005300 <i_5107>:
    80005300:	fe813983          	ld	s3,-24(sp)

0000000080005304 <i_5108>:
    80005304:	e5410523          	sb	s4,-438(sp)

0000000080005308 <i_5109>:
    80005308:	034283b3          	mul	t2,t0,s4

000000008000530c <i_5110>:
    8000530c:	c0da6993          	ori	s3,s4,-1011

0000000080005310 <i_5111>:
    80005310:	0143f663          	bleu	s4,t2,8000531c <i_5114>

0000000080005314 <i_5112>:
    80005314:	03b34e33          	div	t3,t1,s11

0000000080005318 <i_5113>:
    80005318:	03c2e263          	bltu	t0,t3,8000533c <i_5122>

000000008000531c <i_5114>:
    8000531c:	00d30e63          	beq	t1,a3,80005338 <i_5121>

0000000080005320 <i_5115>:
    80005320:	ff416e03          	lwu	t3,-12(sp)

0000000080005324 <i_5116>:
    80005324:	02729063          	bne	t0,t2,80005344 <i_5124>

0000000080005328 <i_5117>:
    80005328:	0d014383          	lbu	t2,208(sp)

000000008000532c <i_5118>:
    8000532c:	f2b14383          	lbu	t2,-213(sp)

0000000080005330 <i_5119>:
    80005330:	f3d14e03          	lbu	t3,-195(sp)

0000000080005334 <i_5120>:
    80005334:	03c2423b          	divw	tp,tp,t3

0000000080005338 <i_5121>:
    80005338:	03c4643b          	remw	s0,s0,t3

000000008000533c <i_5122>:
    8000533c:	e6813c23          	sd	s0,-392(sp)

0000000080005340 <i_5123>:
    80005340:	fa8103a3          	sb	s0,-89(sp)

0000000080005344 <i_5124>:
    80005344:	00739263          	bne	t2,t2,80005348 <i_5125>

0000000080005348 <i_5125>:
    80005348:	1e611083          	lh	ra,486(sp)

000000008000534c <i_5126>:
    8000534c:	0272e2bb          	remw	t0,t0,t2

0000000080005350 <i_5127>:
    80005350:	02d3cebb          	divw	t4,t2,a3

0000000080005354 <i_5128>:
    80005354:	01100b93          	li	s7,17

0000000080005358 <i_5129>:
    80005358:	017293bb          	sllw	t2,t0,s7

000000008000535c <i_5130>:
    8000535c:	01738a63          	beq	t2,s7,80005370 <i_5135>

0000000080005360 <i_5131>:
    80005360:	17812b83          	lw	s7,376(sp)

0000000080005364 <i_5132>:
    80005364:	f6211803          	lh	a6,-158(sp)

0000000080005368 <i_5133>:
    80005368:	005ecc63          	blt	t4,t0,80005380 <i_5139>

000000008000536c <i_5134>:
    8000536c:	f1711123          	sh	s7,-254(sp)

0000000080005370 <i_5135>:
    80005370:	f1638b97          	auipc	s7,0xf1638

0000000080005374 <i_5136>:
    80005374:	f3016083          	lwu	ra,-208(sp)

0000000080005378 <i_5137>:
    80005378:	023cd1bb          	divuw	gp,s9,gp

000000008000537c <i_5138>:
    8000537c:	0382c0bb          	divw	ra,t0,s8

0000000080005380 <i_5139>:
    80005380:	023ef1bb          	remuw	gp,t4,gp

0000000080005384 <i_5140>:
    80005384:	00000013          	nop

0000000080005388 <i_5141>:
    80005388:	82c00b93          	li	s7,-2004

000000008000538c <i_5142>:
    8000538c:	83600e93          	li	t4,-1994

0000000080005390 <i_5143>:
    80005390:	4021d09b          	sraiw	ra,gp,0x2

0000000080005394 <i_5144>:
    80005394:	00000013          	nop

0000000080005398 <i_5145>:
    80005398:	78d00593          	li	a1,1933

000000008000539c <i_5146>:
    8000539c:	79500293          	li	t0,1941

00000000800053a0 <i_5147>:
    800053a0:	03218533          	mul	a0,gp,s2

00000000800053a4 <i_5148>:
    800053a4:	039181bb          	mulw	gp,gp,s9

00000000800053a8 <i_5149>:
    800053a8:	fbc13423          	sd	t3,-88(sp)

00000000800053ac <i_5150>:
    800053ac:	e5e15203          	lhu	tp,-418(sp)

00000000800053b0 <i_5151>:
    800053b0:	00000013          	nop

00000000800053b4 <i_5152>:
    800053b4:	e6e1809b          	addiw	ra,gp,-402

00000000800053b8 <i_5153>:
    800053b8:	00158593          	addi	a1,a1,1
    800053bc:	fe5592e3          	bne	a1,t0,800053a0 <i_5147>

00000000800053c0 <i_5154>:
    800053c0:	00000013          	nop

00000000800053c4 <i_5155>:
    800053c4:	da354e13          	xori	t3,a0,-605

00000000800053c8 <i_5156>:
    800053c8:	001b8b93          	addi	s7,s7,1 # 7163d371 <main-0xe9c2c8f>
    800053cc:	fddbe2e3          	bltu	s7,t4,80005390 <i_5143>

00000000800053d0 <i_5157>:
    800053d0:	e8816283          	lwu	t0,-376(sp)

00000000800053d4 <i_5158>:
    800053d4:	eea14203          	lbu	tp,-278(sp)

00000000800053d8 <i_5159>:
    800053d8:	00255463          	ble	sp,a0,800053e0 <i_5161>

00000000800053dc <i_5160>:
    800053dc:	004e6463          	bltu	t3,tp,800053e4 <i_5162>

00000000800053e0 <i_5161>:
    800053e0:	03c081b3          	mul	gp,ra,t3

00000000800053e4 <i_5162>:
    800053e4:	0031ce33          	xor	t3,gp,gp

00000000800053e8 <i_5163>:
    800053e8:	0ca10e03          	lb	t3,202(sp)

00000000800053ec <i_5164>:
    800053ec:	fc813203          	ld	tp,-56(sp)

00000000800053f0 <i_5165>:
    800053f0:	00394a63          	blt	s2,gp,80005404 <i_5170>

00000000800053f4 <i_5166>:
    800053f4:	f1d14e03          	lbu	t3,-227(sp)

00000000800053f8 <i_5167>:
    800053f8:	f9c11023          	sh	t3,-128(sp)

00000000800053fc <i_5168>:
    800053fc:	024e5e33          	divu	t3,t3,tp

0000000080005400 <i_5169>:
    80005400:	011e5863          	ble	a7,t3,80005410 <i_5173>

0000000080005404 <i_5170>:
    80005404:	024e4063          	blt	t3,tp,80005424 <i_5178>

0000000080005408 <i_5171>:
    80005408:	eb813203          	ld	tp,-328(sp)

000000008000540c <i_5172>:
    8000540c:	04211d83          	lh	s11,66(sp)

0000000080005410 <i_5173>:
    80005410:	e3b10a03          	lb	s4,-453(sp)

0000000080005414 <i_5174>:
    80005414:	ff914e03          	lbu	t3,-7(sp)

0000000080005418 <i_5175>:
    80005418:	0343a7b3          	mulhsu	a5,t2,s4

000000008000541c <i_5176>:
    8000541c:	f4a15e03          	lhu	t3,-182(sp)

0000000080005420 <i_5177>:
    80005420:	ea411723          	sh	tp,-338(sp)

0000000080005424 <i_5178>:
    80005424:	ea412223          	sw	tp,-348(sp)

0000000080005428 <i_5179>:
    80005428:	e5413023          	sd	s4,-448(sp)

000000008000542c <i_5180>:
    8000542c:	89000813          	li	a6,-1904

0000000080005430 <i_5181>:
    80005430:	89400313          	li	t1,-1900

0000000080005434 <i_5182>:
    80005434:	1dc13c23          	sd	t3,472(sp)

0000000080005438 <i_5183>:
    80005438:	00444bb3          	xor	s7,s0,tp

000000008000543c <i_5184>:
    8000543c:	7b600413          	li	s0,1974

0000000080005440 <i_5185>:
    80005440:	7c800993          	li	s3,1992

0000000080005444 <i_5186>:
    80005444:	10fa0d93          	addi	s11,s4,271

0000000080005448 <i_5187>:
    80005448:	00140413          	addi	s0,s0,1 # 854df7fd <_end+0x54cf3e9>
    8000544c:	ff346ce3          	bltu	s0,s3,80005444 <i_5186>

0000000080005450 <i_5188>:
    80005450:	00000013          	nop

0000000080005454 <i_5189>:
    80005454:	e8a11a03          	lh	s4,-374(sp)

0000000080005458 <i_5190>:
    80005458:	022bc063          	blt	s7,sp,80005478 <i_5197>

000000008000545c <i_5191>:
    8000545c:	00180813          	addi	a6,a6,1 # befc0bc1 <_end+0x3efb07ad>
    80005460:	fd035ae3          	ble	a6,t1,80005434 <i_5182>

0000000080005464 <i_5192>:
    80005464:	19013383          	ld	t2,400(sp)

0000000080005468 <i_5193>:
    80005468:	02539463          	bne	t2,t0,80005490 <i_5203>

000000008000546c <i_5194>:
    8000546c:	0042f663          	bleu	tp,t0,80005478 <i_5197>

0000000080005470 <i_5195>:
    80005470:	05412403          	lw	s0,84(sp)

0000000080005474 <i_5196>:
    80005474:	0105f233          	and	tp,a1,a6

0000000080005478 <i_5197>:
    80005478:	0143c9b3          	xor	s3,t2,s4

000000008000547c <i_5198>:
    8000547c:	00000013          	nop

0000000080005480 <i_5199>:
    80005480:	00000013          	nop

0000000080005484 <i_5200>:
    80005484:	4047d293          	srai	t0,a5,0x4

0000000080005488 <i_5201>:
    80005488:	00000013          	nop

000000008000548c <i_5202>:
    8000548c:	02c16b83          	lwu	s7,44(sp)

0000000080005490 <i_5203>:
    80005490:	e9514483          	lbu	s1,-363(sp)

0000000080005494 <i_5204>:
    80005494:	ed311323          	sh	s3,-314(sp)

0000000080005498 <i_5205>:
    80005498:	82300e13          	li	t3,-2013

000000008000549c <i_5206>:
    8000549c:	82c00793          	li	a5,-2004

00000000800054a0 <i_5207>:
    800054a0:	34c28313          	addi	t1,t0,844

00000000800054a4 <i_5208>:
    800054a4:	08215483          	lhu	s1,130(sp)

00000000800054a8 <i_5209>:
    800054a8:	86a00393          	li	t2,-1942

00000000800054ac <i_5210>:
    800054ac:	87c00593          	li	a1,-1924

00000000800054b0 <i_5211>:
    800054b0:	02f19863          	bne	gp,a5,800054e0 <i_5221>

00000000800054b4 <i_5212>:
    800054b4:	02f814b3          	mulh	s1,a6,a5

00000000800054b8 <i_5213>:
    800054b8:	00138393          	addi	t2,t2,1
    800054bc:	feb39ae3          	bne	t2,a1,800054b0 <i_5211>

00000000800054c0 <i_5214>:
    800054c0:	0b413823          	sd	s4,176(sp)

00000000800054c4 <i_5215>:
    800054c4:	001e0e13          	addi	t3,t3,1
    800054c8:	fcfe1ce3          	bne	t3,a5,800054a0 <i_5207>

00000000800054cc <i_5216>:
    800054cc:	80d48a13          	addi	s4,s1,-2035

00000000800054d0 <i_5217>:
    800054d0:	4dc60793          	addi	a5,a2,1244

00000000800054d4 <i_5218>:
    800054d4:	02700493          	li	s1,39

00000000800054d8 <i_5219>:
    800054d8:	409a5a33          	sra	s4,s4,s1

00000000800054dc <i_5220>:
    800054dc:	014b5a63          	ble	s4,s6,800054f0 <i_5225>

00000000800054e0 <i_5221>:
    800054e0:	023477bb          	remuw	a5,s0,gp

00000000800054e4 <i_5222>:
    800054e4:	06711123          	sh	t2,98(sp)

00000000800054e8 <i_5223>:
    800054e8:	0a911123          	sh	s1,162(sp)

00000000800054ec <i_5224>:
    800054ec:	00da37b3          	sltu	a5,s4,a3

00000000800054f0 <i_5225>:
    800054f0:	eb816303          	lwu	t1,-328(sp)

00000000800054f4 <i_5226>:
    800054f4:	009e5263          	ble	s1,t3,800054f8 <i_5227>

00000000800054f8 <i_5227>:
    800054f8:	fb413023          	sd	s4,-96(sp)

00000000800054fc <i_5228>:
    800054fc:	00f37a63          	bleu	a5,t1,80005510 <i_5233>

0000000080005500 <i_5229>:
    80005500:	17813e03          	ld	t3,376(sp)

0000000080005504 <i_5230>:
    80005504:	01000e13          	li	t3,16

0000000080005508 <i_5231>:
    80005508:	41c7de3b          	sraw	t3,a5,t3

000000008000550c <i_5232>:
    8000550c:	00664863          	blt	a2,t1,8000551c <i_5236>

0000000080005510 <i_5233>:
    80005510:	0c911423          	sh	s1,200(sp)

0000000080005514 <i_5234>:
    80005514:	0c510283          	lb	t0,197(sp)

0000000080005518 <i_5235>:
    80005518:	02537263          	bleu	t0,t1,8000553c <i_5244>

000000008000551c <i_5236>:
    8000551c:	13410e03          	lb	t3,308(sp)

0000000080005520 <i_5237>:
    80005520:	1cf13023          	sd	a5,448(sp)

0000000080005524 <i_5238>:
    80005524:	1e6102a3          	sb	t1,485(sp)

0000000080005528 <i_5239>:
    80005528:	0e812a03          	lw	s4,232(sp)

000000008000552c <i_5240>:
    8000552c:	06015383          	lhu	t2,96(sp)

0000000080005530 <i_5241>:
    80005530:	03c2e463          	bltu	t0,t3,80005558 <i_5251>

0000000080005534 <i_5242>:
    80005534:	03013283          	ld	t0,48(sp)

0000000080005538 <i_5243>:
    80005538:	4033db9b          	sraiw	s7,t2,0x3

000000008000553c <i_5244>:
    8000553c:	0372d2b3          	divu	t0,t0,s7

0000000080005540 <i_5245>:
    80005540:	0372e263          	bltu	t0,s7,80005564 <i_5254>

0000000080005544 <i_5246>:
    80005544:	fc512c23          	sw	t0,-40(sp)

0000000080005548 <i_5247>:
    80005548:	15813283          	ld	t0,344(sp)

000000008000554c <i_5248>:
    8000554c:	10c15183          	lhu	gp,268(sp)

0000000080005550 <i_5249>:
    80005550:	15815183          	lhu	gp,344(sp)

0000000080005554 <i_5250>:
    80005554:	f4c16283          	lwu	t0,-180(sp)

0000000080005558 <i_5251>:
    80005558:	ea812283          	lw	t0,-344(sp)

000000008000555c <i_5252>:
    8000555c:	18310da3          	sb	gp,411(sp)

0000000080005560 <i_5253>:
    80005560:	0c914a03          	lbu	s4,201(sp)

0000000080005564 <i_5254>:
    80005564:	e2313c23          	sd	gp,-456(sp)

0000000080005568 <i_5255>:
    80005568:	00328463          	beq	t0,gp,80005570 <i_5257>

000000008000556c <i_5256>:
    8000556c:	0251e263          	bltu	gp,t0,80005590 <i_5265>

0000000080005570 <i_5257>:
    80005570:	575a029b          	addiw	t0,s4,1397

0000000080005574 <i_5258>:
    80005574:	03f00a13          	li	s4,63

0000000080005578 <i_5259>:
    80005578:	01429a33          	sll	s4,t0,s4

000000008000557c <i_5260>:
    8000557c:	eeb12a23          	sw	a1,-268(sp)

0000000080005580 <i_5261>:
    80005580:	e6813183          	ld	gp,-408(sp)

0000000080005584 <i_5262>:
    80005584:	014a1263          	bne	s4,s4,80005588 <i_5263>

0000000080005588 <i_5263>:
    80005588:	41418ebb          	subw	t4,gp,s4

000000008000558c <i_5264>:
    8000558c:	ff410523          	sb	s4,-22(sp)

0000000080005590 <i_5265>:
    80005590:	e5412823          	sw	s4,-432(sp)

0000000080005594 <i_5266>:
    80005594:	005ff663          	bleu	t0,t6,800055a0 <i_5269>

0000000080005598 <i_5267>:
    80005598:	1c210983          	lb	s3,450(sp)

000000008000559c <i_5268>:
    8000559c:	03e00b93          	li	s7,62

00000000800055a0 <i_5269>:
    800055a0:	017a5833          	srl	a6,s4,s7

00000000800055a4 <i_5270>:
    800055a4:	00380263          	beq	a6,gp,800055a8 <i_5271>

00000000800055a8 <i_5271>:
    800055a8:	10014583          	lbu	a1,256(sp)

00000000800055ac <i_5272>:
    800055ac:	034ed83b          	divuw	a6,t4,s4

00000000800055b0 <i_5273>:
    800055b0:	e1711d23          	sh	s7,-486(sp)

00000000800055b4 <i_5274>:
    800055b4:	0251f5bb          	remuw	a1,gp,t0

00000000800055b8 <i_5275>:
    800055b8:	013d9e63          	bne	s11,s3,800055d4 <i_5282>

00000000800055bc <i_5276>:
    800055bc:	01383533          	sltu	a0,a6,s3

00000000800055c0 <i_5277>:
    800055c0:	00e332b3          	sltu	t0,t1,a4

00000000800055c4 <i_5278>:
    800055c4:	9172e093          	ori	ra,t0,-1769

00000000800055c8 <i_5279>:
    800055c8:	fa410303          	lb	t1,-92(sp)

00000000800055cc <i_5280>:
    800055cc:	00500293          	li	t0,5

00000000800055d0 <i_5281>:
    800055d0:	4052deb3          	sra	t4,t0,t0

00000000800055d4 <i_5282>:
    800055d4:	f0f14283          	lbu	t0,-241(sp)

00000000800055d8 <i_5283>:
    800055d8:	16215383          	lhu	t2,354(sp)

00000000800055dc <i_5284>:
    800055dc:	f7211783          	lh	a5,-142(sp)

00000000800055e0 <i_5285>:
    800055e0:	ec416b83          	lwu	s7,-316(sp)

00000000800055e4 <i_5286>:
    800055e4:	03200393          	li	t2,50

00000000800055e8 <i_5287>:
    800055e8:	00791bb3          	sll	s7,s2,t2

00000000800055ec <i_5288>:
    800055ec:	b5138493          	addi	s1,t2,-1199

00000000800055f0 <i_5289>:
    800055f0:	035f77bb          	remuw	a5,t5,s5

00000000800055f4 <i_5290>:
    800055f4:	03d7f833          	remu	a6,a5,t4

00000000800055f8 <i_5291>:
    800055f8:	79e00b93          	li	s7,1950

00000000800055fc <i_5292>:
    800055fc:	7ae00e13          	li	t3,1966

0000000080005600 <i_5293>:
    80005600:	005487b3          	add	a5,s1,t0

0000000080005604 <i_5294>:
    80005604:	07014503          	lbu	a0,112(sp)

0000000080005608 <i_5295>:
    80005608:	0107de63          	ble	a6,a5,80005624 <i_5301>

000000008000560c <i_5296>:
    8000560c:	00000013          	nop

0000000080005610 <i_5297>:
    80005610:	06c12803          	lw	a6,108(sp)

0000000080005614 <i_5298>:
    80005614:	001b8b93          	addi	s7,s7,1
    80005618:	ffcbe4e3          	bltu	s7,t3,80005600 <i_5293>

000000008000561c <i_5299>:
    8000561c:	ed012823          	sw	a6,-304(sp)

0000000080005620 <i_5300>:
    80005620:	17416803          	lwu	a6,372(sp)

0000000080005624 <i_5301>:
    80005624:	ea412803          	lw	a6,-348(sp)

0000000080005628 <i_5302>:
    80005628:	00000013          	nop

000000008000562c <i_5303>:
    8000562c:	74c00513          	li	a0,1868

0000000080005630 <i_5304>:
    80005630:	75f00093          	li	ra,1887

0000000080005634 <i_5305>:
    80005634:	00000013          	nop

0000000080005638 <i_5306>:
    80005638:	02a00813          	li	a6,42

000000008000563c <i_5307>:
    8000563c:	01081833          	sll	a6,a6,a6

0000000080005640 <i_5308>:
    80005640:	030a1a33          	mulh	s4,s4,a6

0000000080005644 <i_5309>:
    80005644:	ed413823          	sd	s4,-304(sp)

0000000080005648 <i_5310>:
    80005648:	fb813803          	ld	a6,-72(sp)

000000008000564c <i_5311>:
    8000564c:	034a5a33          	divu	s4,s4,s4

0000000080005650 <i_5312>:
    80005650:	903a4b93          	xori	s7,s4,-1789

0000000080005654 <i_5313>:
    80005654:	1e416a03          	lwu	s4,484(sp)

0000000080005658 <i_5314>:
    80005658:	021a31b3          	mulhu	gp,s4,ra

000000008000565c <i_5315>:
    8000565c:	00150513          	addi	a0,a0,1
    80005660:	fc154ae3          	blt	a0,ra,80005634 <i_5305>

0000000080005664 <i_5316>:
    80005664:	01e00193          	li	gp,30

0000000080005668 <i_5317>:
    80005668:	003a5a3b          	srlw	s4,s4,gp

000000008000566c <i_5318>:
    8000566c:	037bfa33          	remu	s4,s7,s7

0000000080005670 <i_5319>:
    80005670:	e66b841b          	addiw	s0,s7,-410

0000000080005674 <i_5320>:
    80005674:	f1813503          	ld	a0,-232(sp)

0000000080005678 <i_5321>:
    80005678:	00351c63          	bne	a0,gp,80005690 <i_5327>

000000008000567c <i_5322>:
    8000567c:	f2812223          	sw	s0,-220(sp)

0000000080005680 <i_5323>:
    80005680:	09812183          	lw	gp,152(sp)

0000000080005684 <i_5324>:
    80005684:	023181bb          	mulw	gp,gp,gp

0000000080005688 <i_5325>:
    80005688:	16215183          	lhu	gp,354(sp)

000000008000568c <i_5326>:
    8000568c:	0c311023          	sh	gp,192(sp)

0000000080005690 <i_5327>:
    80005690:	0e914183          	lbu	gp,233(sp)

0000000080005694 <i_5328>:
    80005694:	f4311123          	sh	gp,-190(sp)

0000000080005698 <i_5329>:
    80005698:	0031f263          	bleu	gp,gp,8000569c <i_5330>

000000008000569c <i_5330>:
    8000569c:	e7615a03          	lhu	s4,-394(sp)

00000000800056a0 <i_5331>:
    800056a0:	f6310f23          	sb	gp,-130(sp)

00000000800056a4 <i_5332>:
    800056a4:	e3211423          	sh	s2,-472(sp)

00000000800056a8 <i_5333>:
    800056a8:	0031b1b3          	sltu	gp,gp,gp

00000000800056ac <i_5334>:
    800056ac:	f8313c23          	sd	gp,-104(sp)

00000000800056b0 <i_5335>:
    800056b0:	0231c1b3          	div	gp,gp,gp

00000000800056b4 <i_5336>:
    800056b4:	00611183          	lh	gp,6(sp)

00000000800056b8 <i_5337>:
    800056b8:	05e11183          	lh	gp,94(sp)

00000000800056bc <i_5338>:
    800056bc:	04813183          	ld	gp,72(sp)

00000000800056c0 <i_5339>:
    800056c0:	f7d10483          	lb	s1,-131(sp)

00000000800056c4 <i_5340>:
    800056c4:	1c110203          	lb	tp,449(sp)

00000000800056c8 <i_5341>:
    800056c8:	0241f263          	bleu	tp,gp,800056ec <i_5350>

00000000800056cc <i_5342>:
    800056cc:	0e913c23          	sd	s1,248(sp)

00000000800056d0 <i_5343>:
    800056d0:	009a7c63          	bleu	s1,s4,800056e8 <i_5349>

00000000800056d4 <i_5344>:
    800056d4:	01f1a1b3          	slt	gp,gp,t6

00000000800056d8 <i_5345>:
    800056d8:	1e815503          	lhu	a0,488(sp)

00000000800056dc <i_5346>:
    800056dc:	0a312823          	sw	gp,176(sp)

00000000800056e0 <i_5347>:
    800056e0:	4021d593          	srai	a1,gp,0x2

00000000800056e4 <i_5348>:
    800056e4:	02455063          	ble	tp,a0,80005704 <i_5356>

00000000800056e8 <i_5349>:
    800056e8:	f0c16183          	lwu	gp,-244(sp)

00000000800056ec <i_5350>:
    800056ec:	034cc233          	div	tp,s9,s4

00000000800056f0 <i_5351>:
    800056f0:	18310923          	sb	gp,402(sp)

00000000800056f4 <i_5352>:
    800056f4:	02b106a3          	sb	a1,45(sp)

00000000800056f8 <i_5353>:
    800056f8:	03ad853b          	mulw	a0,s11,s10

00000000800056fc <i_5354>:
    800056fc:	003531b3          	sltu	gp,a0,gp

0000000080005700 <i_5355>:
    80005700:	00700193          	li	gp,7

0000000080005704 <i_5356>:
    80005704:	0031923b          	sllw	tp,gp,gp

0000000080005708 <i_5357>:
    80005708:	11415183          	lhu	gp,276(sp)

000000008000570c <i_5358>:
    8000570c:	12a12223          	sw	a0,292(sp)

0000000080005710 <i_5359>:
    80005710:	ef816803          	lwu	a6,-264(sp)

0000000080005714 <i_5360>:
    80005714:	ff416183          	lwu	gp,-12(sp)

0000000080005718 <i_5361>:
    80005718:	00000013          	nop

000000008000571c <i_5362>:
    8000571c:	00000013          	nop

0000000080005720 <i_5363>:
    80005720:	82b00193          	li	gp,-2005

0000000080005724 <i_5364>:
    80005724:	83300813          	li	a6,-1997

0000000080005728 <i_5365>:
    80005728:	1c312623          	sw	gp,460(sp)

000000008000572c <i_5366>:
    8000572c:	09c12303          	lw	t1,156(sp)

0000000080005730 <i_5367>:
    80005730:	0031c333          	xor	t1,gp,gp

0000000080005734 <i_5368>:
    80005734:	00118193          	addi	gp,gp,1
    80005738:	ff01e8e3          	bltu	gp,a6,80005728 <i_5365>

000000008000573c <i_5369>:
    8000573c:	12813183          	ld	gp,296(sp)

0000000080005740 <i_5370>:
    80005740:	003361b3          	or	gp,t1,gp

0000000080005744 <i_5371>:
    80005744:	00881c63          	bne	a6,s0,8000575c <i_5377>

0000000080005748 <i_5372>:
    80005748:	f7813e83          	ld	t4,-136(sp)

000000008000574c <i_5373>:
    8000574c:	00000013          	nop

0000000080005750 <i_5374>:
    80005750:	00000013          	nop

0000000080005754 <i_5375>:
    80005754:	00000013          	nop

0000000080005758 <i_5376>:
    80005758:	fca12a23          	sw	a0,-44(sp)

000000008000575c <i_5377>:
    8000575c:	02adc533          	div	a0,s11,a0

0000000080005760 <i_5378>:
    80005760:	00000013          	nop

0000000080005764 <i_5379>:
    80005764:	74900d93          	li	s11,1865

0000000080005768 <i_5380>:
    80005768:	75a00493          	li	s1,1882

000000008000576c <i_5381>:
    8000576c:	00700b93          	li	s7,7

0000000080005770 <i_5382>:
    80005770:	017dd2b3          	srl	t0,s11,s7

0000000080005774 <i_5383>:
    80005774:	001d8d93          	addi	s11,s11,1
    80005778:	fe9deae3          	bltu	s11,s1,8000576c <i_5381>

000000008000577c <i_5384>:
    8000577c:	fef13023          	sd	a5,-32(sp)

0000000080005780 <i_5385>:
    80005780:	1a711e23          	sh	t2,444(sp)

0000000080005784 <i_5386>:
    80005784:	e7313023          	sd	s3,-416(sp)

0000000080005788 <i_5387>:
    80005788:	ee816e03          	lwu	t3,-280(sp)

000000008000578c <i_5388>:
    8000578c:	16512023          	sw	t0,352(sp)

0000000080005790 <i_5389>:
    80005790:	02700513          	li	a0,39

0000000080005794 <i_5390>:
    80005794:	40a0d0b3          	sra	ra,ra,a0

0000000080005798 <i_5391>:
    80005798:	03c24263          	blt	tp,t3,800057bc <i_5400>

000000008000579c <i_5392>:
    8000579c:	ec412083          	lw	ra,-316(sp)

00000000800057a0 <i_5393>:
    800057a0:	0010dc63          	ble	ra,ra,800057b8 <i_5399>

00000000800057a4 <i_5394>:
    800057a4:	13d10383          	lb	t2,317(sp)

00000000800057a8 <i_5395>:
    800057a8:	f6a10623          	sb	a0,-148(sp)

00000000800057ac <i_5396>:
    800057ac:	0210ae33          	mulhsu	t3,ra,ra

00000000800057b0 <i_5397>:
    800057b0:	ee112223          	sw	ra,-284(sp)

00000000800057b4 <i_5398>:
    800057b4:	0028999b          	slliw	s3,a7,0x2

00000000800057b8 <i_5399>:
    800057b8:	e5615503          	lhu	a0,-426(sp)

00000000800057bc <i_5400>:
    800057bc:	00db5663          	ble	a3,s6,800057c8 <i_5403>

00000000800057c0 <i_5401>:
    800057c0:	00120863          	beq	tp,ra,800057d0 <i_5405>

00000000800057c4 <i_5402>:
    800057c4:	e1816583          	lwu	a1,-488(sp)

00000000800057c8 <i_5403>:
    800057c8:	033590b3          	mulh	ra,a1,s3

00000000800057cc <i_5404>:
    800057cc:	00198263          	beq	s3,ra,800057d0 <i_5405>

00000000800057d0 <i_5405>:
    800057d0:	0015c663          	blt	a1,ra,800057dc <i_5408>

00000000800057d4 <i_5406>:
    800057d4:	01900e93          	li	t4,25

00000000800057d8 <i_5407>:
    800057d8:	41d5d0bb          	sraw	ra,a1,t4

00000000800057dc <i_5408>:
    800057dc:	03d0c2bb          	divw	t0,ra,t4

00000000800057e0 <i_5409>:
    800057e0:	02800393          	li	t2,40

00000000800057e4 <i_5410>:
    800057e4:	40725233          	sra	tp,tp,t2

00000000800057e8 <i_5411>:
    800057e8:	07611303          	lh	t1,118(sp)

00000000800057ec <i_5412>:
    800057ec:	0132f863          	bleu	s3,t0,800057fc <i_5416>

00000000800057f0 <i_5413>:
    800057f0:	0262f063          	bleu	t1,t0,80005810 <i_5421>

00000000800057f4 <i_5414>:
    800057f4:	fe111e23          	sh	ra,-4(sp)

00000000800057f8 <i_5415>:
    800057f8:	005c8eb3          	add	t4,s9,t0

00000000800057fc <i_5416>:
    800057fc:	032ef233          	remu	tp,t4,s2

0000000080005800 <i_5417>:
    80005800:	01b00293          	li	t0,27

0000000080005804 <i_5418>:
    80005804:	00525233          	srl	tp,tp,t0

0000000080005808 <i_5419>:
    80005808:	00200213          	li	tp,2

000000008000580c <i_5420>:
    8000580c:	40425db3          	sra	s11,tp,tp

0000000080005810 <i_5421>:
    80005810:	02920333          	mul	t1,tp,s1

0000000080005814 <i_5422>:
    80005814:	08911823          	sh	s1,144(sp)

0000000080005818 <i_5423>:
    80005818:	7be00213          	li	tp,1982

000000008000581c <i_5424>:
    8000581c:	7d100493          	li	s1,2001

0000000080005820 <i_5425>:
    80005820:	00427a33          	and	s4,tp,tp

0000000080005824 <i_5426>:
    80005824:	00800e13          	li	t3,8

0000000080005828 <i_5427>:
    80005828:	01ce1dbb          	sllw	s11,t3,t3

000000008000582c <i_5428>:
    8000582c:	cf67a297          	auipc	t0,0xcf67a

0000000080005830 <i_5429>:
    80005830:	01100413          	li	s0,17

0000000080005834 <i_5430>:
    80005834:	00831333          	sll	t1,t1,s0

0000000080005838 <i_5431>:
    80005838:	00540a33          	add	s4,s0,t0

000000008000583c <i_5432>:
    8000583c:	e8813023          	sd	s0,-384(sp)

0000000080005840 <i_5433>:
    80005840:	e5411623          	sh	s4,-436(sp)

0000000080005844 <i_5434>:
    80005844:	e9c12e83          	lw	t4,-356(sp)

0000000080005848 <i_5435>:
    80005848:	ec511923          	sh	t0,-302(sp)

000000008000584c <i_5436>:
    8000584c:	01da6263          	bltu	s4,t4,80005850 <i_5437>

0000000080005850 <i_5437>:
    80005850:	0362c263          	blt	t0,s6,80005874 <i_5445>

0000000080005854 <i_5438>:
    80005854:	00000013          	nop

0000000080005858 <i_5439>:
    80005858:	00000013          	nop

000000008000585c <i_5440>:
    8000585c:	00120213          	addi	tp,tp,1 # 1 <main-0x7fffffff>
    80005860:	fc9260e3          	bltu	tp,s1,80005820 <i_5425>

0000000080005864 <i_5441>:
    80005864:	ec813c23          	sd	s0,-296(sp)

0000000080005868 <i_5442>:
    80005868:	03dec2b3          	div	t0,t4,t4

000000008000586c <i_5443>:
    8000586c:	11816283          	lwu	t0,280(sp)

0000000080005870 <i_5444>:
    80005870:	00419413          	slli	s0,gp,0x4

0000000080005874 <i_5445>:
    80005874:	01013403          	ld	s0,16(sp)

0000000080005878 <i_5446>:
    80005878:	f6512023          	sw	t0,-160(sp)

000000008000587c <i_5447>:
    8000587c:	7e700e93          	li	t4,2023

0000000080005880 <i_5448>:
    80005880:	7fb00193          	li	gp,2043

0000000080005884 <i_5449>:
    80005884:	00000013          	nop

0000000080005888 <i_5450>:
    80005888:	00342533          	slt	a0,s0,gp

000000008000588c <i_5451>:
    8000588c:	02650a33          	mul	s4,a0,t1

0000000080005890 <i_5452>:
    80005890:	0231f063          	bleu	gp,gp,800058b0 <i_5459>

0000000080005894 <i_5453>:
    80005894:	02500493          	li	s1,37

0000000080005898 <i_5454>:
    80005898:	009a5533          	srl	a0,s4,s1

000000008000589c <i_5455>:
    8000589c:	001e8e93          	addi	t4,t4,1
    800058a0:	fe3ee2e3          	bltu	t4,gp,80005884 <i_5449>

00000000800058a4 <i_5456>:
    800058a4:	02949263          	bne	s1,s1,800058c8 <i_5465>

00000000800058a8 <i_5457>:
    800058a8:	008a04b3          	add	s1,s4,s0

00000000800058ac <i_5458>:
    800058ac:	1b410023          	sb	s4,416(sp)

00000000800058b0 <i_5459>:
    800058b0:	02911423          	sh	s1,40(sp)

00000000800058b4 <i_5460>:
    800058b4:	e8911b23          	sh	s1,-362(sp)

00000000800058b8 <i_5461>:
    800058b8:	f7c11483          	lh	s1,-132(sp)

00000000800058bc <i_5462>:
    800058bc:	e5a11983          	lh	s3,-422(sp)

00000000800058c0 <i_5463>:
    800058c0:	d5cbe317          	auipc	t1,0xd5cbe

00000000800058c4 <i_5464>:
    800058c4:	0069d463          	ble	t1,s3,800058cc <i_5466>

00000000800058c8 <i_5465>:
    800058c8:	c1bb4513          	xori	a0,s6,-997

00000000800058cc <i_5466>:
    800058cc:	18a14803          	lbu	a6,394(sp)

00000000800058d0 <i_5467>:
    800058d0:	0102c9b3          	xor	s3,t0,a6

00000000800058d4 <i_5468>:
    800058d4:	09013303          	ld	t1,144(sp)

00000000800058d8 <i_5469>:
    800058d8:	4049d51b          	sraiw	a0,s3,0x4

00000000800058dc <i_5470>:
    800058dc:	e86101a3          	sb	t1,-381(sp)

00000000800058e0 <i_5471>:
    800058e0:	fb813303          	ld	t1,-72(sp)

00000000800058e4 <i_5472>:
    800058e4:	89800513          	li	a0,-1896

00000000800058e8 <i_5473>:
    800058e8:	8ac00293          	li	t0,-1876

00000000800058ec <i_5474>:
    800058ec:	00000013          	nop

00000000800058f0 <i_5475>:
    800058f0:	00000013          	nop

00000000800058f4 <i_5476>:
    800058f4:	8b000313          	li	t1,-1872

00000000800058f8 <i_5477>:
    800058f8:	8bf00493          	li	s1,-1857

00000000800058fc <i_5478>:
    800058fc:	02a9c863          	blt	s3,a0,8000592c <i_5488>

0000000080005900 <i_5479>:
    80005900:	06c11983          	lh	s3,108(sp)

0000000080005904 <i_5480>:
    80005904:	03ce43b3          	div	t2,t3,t3

0000000080005908 <i_5481>:
    80005908:	00130313          	addi	t1,t1,1 # 55cc38c1 <main-0x2a33c73f>
    8000590c:	fe64d8e3          	ble	t1,s1,800058fc <i_5478>

0000000080005910 <i_5482>:
    80005910:	4014d393          	srai	t2,s1,0x1

0000000080005914 <i_5483>:
    80005914:	11c16e03          	lwu	t3,284(sp)

0000000080005918 <i_5484>:
    80005918:	0273e3bb          	remw	t2,t2,t2

000000008000591c <i_5485>:
    8000591c:	00150513          	addi	a0,a0,1
    80005920:	fc5546e3          	blt	a0,t0,800058ec <i_5474>

0000000080005924 <i_5486>:
    80005924:	f1311c23          	sh	s3,-232(sp)

0000000080005928 <i_5487>:
    80005928:	19310aa3          	sb	s3,405(sp)

000000008000592c <i_5488>:
    8000592c:	03d9d063          	ble	t4,s3,8000594c <i_5496>

0000000080005930 <i_5489>:
    80005930:	0d310383          	lb	t2,211(sp)

0000000080005934 <i_5490>:
    80005934:	01cae863          	bltu	s5,t3,80005944 <i_5494>

0000000080005938 <i_5491>:
    80005938:	03013583          	ld	a1,48(sp)

000000008000593c <i_5492>:
    8000593c:	e3c12983          	lw	s3,-452(sp)

0000000080005940 <i_5493>:
    80005940:	03c9d063          	ble	t3,s3,80005960 <i_5501>

0000000080005944 <i_5494>:
    80005944:	00000013          	nop

0000000080005948 <i_5495>:
    80005948:	fe15f213          	andi	tp,a1,-31

000000008000594c <i_5496>:
    8000594c:	dee9851b          	addiw	a0,s3,-530

0000000080005950 <i_5497>:
    80005950:	05813083          	ld	ra,88(sp)

0000000080005954 <i_5498>:
    80005954:	01100b93          	li	s7,17

0000000080005958 <i_5499>:
    80005958:	017095bb          	sllw	a1,ra,s7

000000008000595c <i_5500>:
    8000595c:	e4812a03          	lw	s4,-440(sp)

0000000080005960 <i_5501>:
    80005960:	024a4a13          	xori	s4,s4,36

0000000080005964 <i_5502>:
    80005964:	035bfa33          	remu	s4,s7,s5

0000000080005968 <i_5503>:
    80005968:	79900993          	li	s3,1945

000000008000596c <i_5504>:
    8000596c:	7ab00793          	li	a5,1963

0000000080005970 <i_5505>:
    80005970:	04016283          	lwu	t0,64(sp)

0000000080005974 <i_5506>:
    80005974:	037b8bbb          	mulw	s7,s7,s7

0000000080005978 <i_5507>:
    80005978:	f9813023          	sd	s8,-128(sp)

000000008000597c <i_5508>:
    8000597c:	00329593          	slli	a1,t0,0x3

0000000080005980 <i_5509>:
    80005980:	11415403          	lhu	s0,276(sp)

0000000080005984 <i_5510>:
    80005984:	4042d293          	srai	t0,t0,0x4

0000000080005988 <i_5511>:
    80005988:	02b11f23          	sh	a1,62(sp)

000000008000598c <i_5512>:
    8000598c:	07f14583          	lbu	a1,127(sp)

0000000080005990 <i_5513>:
    80005990:	00198993          	addi	s3,s3,1
    80005994:	fcf99ee3          	bne	s3,a5,80005970 <i_5505>

0000000080005998 <i_5514>:
    80005998:	16b12e23          	sw	a1,380(sp)

000000008000599c <i_5515>:
    8000599c:	ed014183          	lbu	gp,-304(sp)

00000000800059a0 <i_5516>:
    800059a0:	0085fe63          	bleu	s0,a1,800059bc <i_5523>

00000000800059a4 <i_5517>:
    800059a4:	10b12423          	sw	a1,264(sp)

00000000800059a8 <i_5518>:
    800059a8:	003e5e1b          	srliw	t3,t3,0x3

00000000800059ac <i_5519>:
    800059ac:	0237da33          	divu	s4,a5,gp

00000000800059b0 <i_5520>:
    800059b0:	fb010583          	lb	a1,-80(sp)

00000000800059b4 <i_5521>:
    800059b4:	0b012e23          	sw	a6,188(sp)

00000000800059b8 <i_5522>:
    800059b8:	008e0863          	beq	t3,s0,800059c8 <i_5526>

00000000800059bc <i_5523>:
    800059bc:	4025d29b          	sraiw	t0,a1,0x2

00000000800059c0 <i_5524>:
    800059c0:	f3e11a03          	lh	s4,-194(sp)

00000000800059c4 <i_5525>:
    800059c4:	025a55bb          	divuw	a1,s4,t0

00000000800059c8 <i_5526>:
    800059c8:	00000013          	nop

00000000800059cc <i_5527>:
    800059cc:	00000013          	nop

00000000800059d0 <i_5528>:
    800059d0:	8d600d93          	li	s11,-1834

00000000800059d4 <i_5529>:
    800059d4:	8e900513          	li	a0,-1815

00000000800059d8 <i_5530>:
    800059d8:	e6813a03          	ld	s4,-408(sp)

00000000800059dc <i_5531>:
    800059dc:	e6813a03          	ld	s4,-408(sp)

00000000800059e0 <i_5532>:
    800059e0:	986a4493          	xori	s1,s4,-1658

00000000800059e4 <i_5533>:
    800059e4:	fd416803          	lwu	a6,-44(sp)

00000000800059e8 <i_5534>:
    800059e8:	0344ba33          	mulhu	s4,s1,s4

00000000800059ec <i_5535>:
    800059ec:	0144de63          	ble	s4,s1,80005a08 <i_5541>

00000000800059f0 <i_5536>:
    800059f0:	01c00a13          	li	s4,28

00000000800059f4 <i_5537>:
    800059f4:	014497bb          	sllw	a5,s1,s4

00000000800059f8 <i_5538>:
    800059f8:	001d8d93          	addi	s11,s11,1
    800059fc:	fcadcee3          	blt	s11,a0,800059d8 <i_5530>

0000000080005a00 <i_5539>:
    80005a00:	e5514183          	lbu	gp,-427(sp)

0000000080005a04 <i_5540>:
    80005a04:	f2a10983          	lb	s3,-214(sp)

0000000080005a08 <i_5541>:
    80005a08:	0c713823          	sd	t2,208(sp)

0000000080005a0c <i_5542>:
    80005a0c:	1ef13023          	sd	a5,480(sp)

0000000080005a10 <i_5543>:
    80005a10:	7d100093          	li	ra,2001

0000000080005a14 <i_5544>:
    80005a14:	7dd00793          	li	a5,2013

0000000080005a18 <i_5545>:
    80005a18:	00000013          	nop

0000000080005a1c <i_5546>:
    80005a1c:	1d810283          	lb	t0,472(sp)

0000000080005a20 <i_5547>:
    80005a20:	fb013203          	ld	tp,-80(sp)

0000000080005a24 <i_5548>:
    80005a24:	10412e03          	lw	t3,260(sp)

0000000080005a28 <i_5549>:
    80005a28:	024a7433          	remu	s0,s4,tp

0000000080005a2c <i_5550>:
    80005a2c:	00108093          	addi	ra,ra,1 # ffffffffa5663001 <_end+0xffffffff25652bed>
    80005a30:	fef0e4e3          	bltu	ra,a5,80005a18 <i_5545>

0000000080005a34 <i_5551>:
    80005a34:	0c510a23          	sb	t0,212(sp)

0000000080005a38 <i_5552>:
    80005a38:	0141b4b3          	sltu	s1,gp,s4

0000000080005a3c <i_5553>:
    80005a3c:	ee615983          	lhu	s3,-282(sp)

0000000080005a40 <i_5554>:
    80005a40:	671e2993          	slti	s3,t3,1649

0000000080005a44 <i_5555>:
    80005a44:	f9c13823          	sd	t3,-112(sp)

0000000080005a48 <i_5556>:
    80005a48:	fa412e83          	lw	t4,-92(sp)

0000000080005a4c <i_5557>:
    80005a4c:	ea512a23          	sw	t0,-332(sp)

0000000080005a50 <i_5558>:
    80005a50:	02910123          	sb	s1,34(sp)

0000000080005a54 <i_5559>:
    80005a54:	02525533          	divu	a0,tp,t0

0000000080005a58 <i_5560>:
    80005a58:	3cfd0293          	addi	t0,s10,975

0000000080005a5c <i_5561>:
    80005a5c:	15c12983          	lw	s3,348(sp)

0000000080005a60 <i_5562>:
    80005a60:	00000013          	nop

0000000080005a64 <i_5563>:
    80005a64:	76700213          	li	tp,1895

0000000080005a68 <i_5564>:
    80005a68:	77600293          	li	t0,1910

0000000080005a6c <i_5565>:
    80005a6c:	00815a03          	lhu	s4,8(sp)

0000000080005a70 <i_5566>:
    80005a70:	ff413823          	sd	s4,-16(sp)

0000000080005a74 <i_5567>:
    80005a74:	17e11403          	lh	s0,382(sp)

0000000080005a78 <i_5568>:
    80005a78:	0fa13423          	sd	s10,232(sp)

0000000080005a7c <i_5569>:
    80005a7c:	eae10ea3          	sb	a4,-323(sp)

0000000080005a80 <i_5570>:
    80005a80:	005a6a33          	or	s4,s4,t0

0000000080005a84 <i_5571>:
    80005a84:	01f12623          	sw	t6,12(sp)

0000000080005a88 <i_5572>:
    80005a88:	1c110583          	lb	a1,449(sp)

0000000080005a8c <i_5573>:
    80005a8c:	0255ca13          	xori	s4,a1,37

0000000080005a90 <i_5574>:
    80005a90:	00ba4263          	blt	s4,a1,80005a94 <i_5575>

0000000080005a94 <i_5575>:
    80005a94:	02bb7533          	remu	a0,s6,a1

0000000080005a98 <i_5576>:
    80005a98:	014a05b3          	add	a1,s4,s4

0000000080005a9c <i_5577>:
    80005a9c:	05015a03          	lhu	s4,80(sp)

0000000080005aa0 <i_5578>:
    80005aa0:	00000013          	nop

0000000080005aa4 <i_5579>:
    80005aa4:	08016a03          	lwu	s4,128(sp)

0000000080005aa8 <i_5580>:
    80005aa8:	1b413023          	sd	s4,416(sp)

0000000080005aac <i_5581>:
    80005aac:	00120213          	addi	tp,tp,1 # 1 <main-0x7fffffff>
    80005ab0:	fa42fee3          	bleu	tp,t0,80005a6c <i_5565>

0000000080005ab4 <i_5582>:
    80005ab4:	00000013          	nop

0000000080005ab8 <i_5583>:
    80005ab8:	fa813a03          	ld	s4,-88(sp)

0000000080005abc <i_5584>:
    80005abc:	0252f2b3          	remu	t0,t0,t0

0000000080005ac0 <i_5585>:
    80005ac0:	0342d263          	ble	s4,t0,80005ae4 <i_5594>

0000000080005ac4 <i_5586>:
    80005ac4:	025ee463          	bltu	t4,t0,80005aec <i_5596>

0000000080005ac8 <i_5587>:
    80005ac8:	00421213          	slli	tp,tp,0x4

0000000080005acc <i_5588>:
    80005acc:	f6513423          	sd	t0,-152(sp)

0000000080005ad0 <i_5589>:
    80005ad0:	02412283          	lw	t0,36(sp)

0000000080005ad4 <i_5590>:
    80005ad4:	00000013          	nop

0000000080005ad8 <i_5591>:
    80005ad8:	00000013          	nop

0000000080005adc <i_5592>:
    80005adc:	032a543b          	divuw	s0,s4,s2

0000000080005ae0 <i_5593>:
    80005ae0:	9ccd7317          	auipc	t1,0x9ccd7

0000000080005ae4 <i_5594>:
    80005ae4:	00000013          	nop

0000000080005ae8 <i_5595>:
    80005ae8:	ec6b8b9b          	addiw	s7,s7,-314

0000000080005aec <i_5596>:
    80005aec:	1b926393          	ori	t2,tp,441

0000000080005af0 <i_5597>:
    80005af0:	02512023          	sw	t0,32(sp)

0000000080005af4 <i_5598>:
    80005af4:	78900513          	li	a0,1929

0000000080005af8 <i_5599>:
    80005af8:	79800213          	li	tp,1944

0000000080005afc <i_5600>:
    80005afc:	eea11823          	sh	a0,-272(sp)

0000000080005b00 <i_5601>:
    80005b00:	00a2c263          	blt	t0,a0,80005b04 <i_5602>

0000000080005b04 <i_5602>:
    80005b04:	03c2e263          	bltu	t0,t3,80005b28 <i_5610>

0000000080005b08 <i_5603>:
    80005b08:	4cf18193          	addi	gp,gp,1231

0000000080005b0c <i_5604>:
    80005b0c:	0f815e83          	lhu	t4,248(sp)

0000000080005b10 <i_5605>:
    80005b10:	00150513          	addi	a0,a0,1
    80005b14:	fe4544e3          	blt	a0,tp,80005afc <i_5600>

0000000080005b18 <i_5606>:
    80005b18:	18816303          	lwu	t1,392(sp)

0000000080005b1c <i_5607>:
    80005b1c:	00000013          	nop

0000000080005b20 <i_5608>:
    80005b20:	00000013          	nop

0000000080005b24 <i_5609>:
    80005b24:	1a215203          	lhu	tp,418(sp)

0000000080005b28 <i_5610>:
    80005b28:	e5813203          	ld	tp,-424(sp)

0000000080005b2c <i_5611>:
    80005b2c:	e9412e83          	lw	t4,-364(sp)

0000000080005b30 <i_5612>:
    80005b30:	7a900a13          	li	s4,1961

0000000080005b34 <i_5613>:
    80005b34:	7ba00313          	li	t1,1978

0000000080005b38 <i_5614>:
    80005b38:	e4012e03          	lw	t3,-448(sp)

0000000080005b3c <i_5615>:
    80005b3c:	74d30793          	addi	a5,t1,1869 # 1ccdd22d <main-0x63322dd3>

0000000080005b40 <i_5616>:
    80005b40:	01c24863          	blt	tp,t3,80005b50 <i_5620>

0000000080005b44 <i_5617>:
    80005b44:	1eee3793          	sltiu	a5,t3,494

0000000080005b48 <i_5618>:
    80005b48:	fec12203          	lw	tp,-20(sp)

0000000080005b4c <i_5619>:
    80005b4c:	00000013          	nop

0000000080005b50 <i_5620>:
    80005b50:	15611283          	lh	t0,342(sp)

0000000080005b54 <i_5621>:
    80005b54:	e2512623          	sw	t0,-468(sp)

0000000080005b58 <i_5622>:
    80005b58:	02016283          	lwu	t0,32(sp)

0000000080005b5c <i_5623>:
    80005b5c:	009c64b3          	or	s1,s8,s1

0000000080005b60 <i_5624>:
    80005b60:	fb816e83          	lwu	t4,-72(sp)

0000000080005b64 <i_5625>:
    80005b64:	fac16d83          	lwu	s11,-84(sp)

0000000080005b68 <i_5626>:
    80005b68:	001a0a13          	addi	s4,s4,1
    80005b6c:	fc6a66e3          	bltu	s4,t1,80005b38 <i_5614>

0000000080005b70 <i_5627>:
    80005b70:	025570bb          	remuw	ra,a0,t0

0000000080005b74 <i_5628>:
    80005b74:	00529c63          	bne	t0,t0,80005b8c <i_5634>

0000000080005b78 <i_5629>:
    80005b78:	0014ee63          	bltu	s1,ra,80005b94 <i_5636>

0000000080005b7c <i_5630>:
    80005b7c:	03aa04b3          	mul	s1,s4,s10

0000000080005b80 <i_5631>:
    80005b80:	4044d49b          	sraiw	s1,s1,0x4

0000000080005b84 <i_5632>:
    80005b84:	a8d7c317          	auipc	t1,0xa8d7c

0000000080005b88 <i_5633>:
    80005b88:	01430a33          	add	s4,t1,s4

0000000080005b8c <i_5634>:
    80005b8c:	03835533          	divu	a0,t1,s8

0000000080005b90 <i_5635>:
    80005b90:	af6c081b          	addiw	a6,s8,-1290

0000000080005b94 <i_5636>:
    80005b94:	00a11663          	bne	sp,a0,80005ba0 <i_5639>

0000000080005b98 <i_5637>:
    80005b98:	01097263          	bleu	a6,s2,80005b9c <i_5638>

0000000080005b9c <i_5638>:
    80005b9c:	0033131b          	slliw	t1,t1,0x3

0000000080005ba0 <i_5639>:
    80005ba0:	06e14503          	lbu	a0,110(sp)

0000000080005ba4 <i_5640>:
    80005ba4:	03700e13          	li	t3,55

0000000080005ba8 <i_5641>:
    80005ba8:	01c31533          	sll	a0,t1,t3

0000000080005bac <i_5642>:
    80005bac:	14a11623          	sh	a0,332(sp)

0000000080005bb0 <i_5643>:
    80005bb0:	fa813383          	ld	t2,-88(sp)

0000000080005bb4 <i_5644>:
    80005bb4:	00800993          	li	s3,8

0000000080005bb8 <i_5645>:
    80005bb8:	013e553b          	srlw	a0,t3,s3

0000000080005bbc <i_5646>:
    80005bbc:	75800313          	li	t1,1880

0000000080005bc0 <i_5647>:
    80005bc0:	76800213          	li	tp,1896

0000000080005bc4 <i_5648>:
    80005bc4:	00130313          	addi	t1,t1,1 # 28d81b85 <main-0x5727e47b>
    80005bc8:	fe434ce3          	blt	t1,tp,80005bc0 <i_5647>

0000000080005bcc <i_5649>:
    80005bcc:	02498433          	mul	s0,s3,tp

0000000080005bd0 <i_5650>:
    80005bd0:	ca733393          	sltiu	t2,t1,-857

0000000080005bd4 <i_5651>:
    80005bd4:	f6813983          	ld	s3,-152(sp)

0000000080005bd8 <i_5652>:
    80005bd8:	01346663          	bltu	s0,s3,80005be4 <i_5655>

0000000080005bdc <i_5653>:
    80005bdc:	0139cbb3          	xor	s7,s3,s3

0000000080005be0 <i_5654>:
    80005be0:	1a416983          	lwu	s3,420(sp)

0000000080005be4 <i_5655>:
    80005be4:	03ce5e3b          	divuw	t3,t3,t3

0000000080005be8 <i_5656>:
    80005be8:	e96be493          	ori	s1,s7,-362

0000000080005bec <i_5657>:
    80005bec:	013e7663          	bleu	s3,t3,80005bf8 <i_5660>

0000000080005bf0 <i_5658>:
    80005bf0:	03700b93          	li	s7,55

0000000080005bf4 <i_5659>:
    80005bf4:	017c1833          	sll	a6,s8,s7

0000000080005bf8 <i_5660>:
    80005bf8:	0c816483          	lwu	s1,200(sp)

0000000080005bfc <i_5661>:
    80005bfc:	00249e9b          	slliw	t4,s1,0x2

0000000080005c00 <i_5662>:
    80005c00:	19c10a03          	lb	s4,412(sp)

0000000080005c04 <i_5663>:
    80005c04:	030e4463          	blt	t3,a6,80005c2c <i_5673>

0000000080005c08 <i_5664>:
    80005c08:	01dd67b3          	or	a5,s10,t4

0000000080005c0c <i_5665>:
    80005c0c:	015a0eb3          	add	t4,s4,s5

0000000080005c10 <i_5666>:
    80005c10:	24da4293          	xori	t0,s4,589

0000000080005c14 <i_5667>:
    80005c14:	00000013          	nop

0000000080005c18 <i_5668>:
    80005c18:	fc512823          	sw	t0,-48(sp)

0000000080005c1c <i_5669>:
    80005c1c:	00000013          	nop

0000000080005c20 <i_5670>:
    80005c20:	0022941b          	slliw	s0,t0,0x2

0000000080005c24 <i_5671>:
    80005c24:	f7d13423          	sd	t4,-152(sp)

0000000080005c28 <i_5672>:
    80005c28:	00000013          	nop

0000000080005c2c <i_5673>:
    80005c2c:	00000013          	nop

0000000080005c30 <i_5674>:
    80005c30:	f1af2397          	auipc	t2,0xf1af2

0000000080005c34 <i_5675>:
    80005c34:	7b300293          	li	t0,1971

0000000080005c38 <i_5676>:
    80005c38:	7c000513          	li	a0,1984

0000000080005c3c <i_5677>:
    80005c3c:	1c811983          	lh	s3,456(sp)

0000000080005c40 <i_5678>:
    80005c40:	00128293          	addi	t0,t0,1 # 4f67f82d <main-0x309807d3>
    80005c44:	fea2cce3          	blt	t0,a0,80005c3c <i_5677>

0000000080005c48 <i_5679>:
    80005c48:	fe714783          	lbu	a5,-25(sp)

0000000080005c4c <i_5680>:
    80005c4c:	009c8a63          	beq	s9,s1,80005c60 <i_5685>

0000000080005c50 <i_5681>:
    80005c50:	00f08263          	beq	ra,a5,80005c54 <i_5682>

0000000080005c54 <i_5682>:
    80005c54:	407080bb          	subw	ra,ra,t2

0000000080005c58 <i_5683>:
    80005c58:	0270e063          	bltu	ra,t2,80005c78 <i_5691>

0000000080005c5c <i_5684>:
    80005c5c:	0327d0bb          	divuw	ra,a5,s2

0000000080005c60 <i_5685>:
    80005c60:	0272f063          	bleu	t2,t0,80005c80 <i_5693>

0000000080005c64 <i_5686>:
    80005c64:	be5b2293          	slti	t0,s6,-1051

0000000080005c68 <i_5687>:
    80005c68:	02afc063          	blt	t6,a0,80005c88 <i_5695>

0000000080005c6c <i_5688>:
    80005c6c:	0057f7b3          	and	a5,a5,t0

0000000080005c70 <i_5689>:
    80005c70:	03325063          	ble	s3,tp,80005c90 <i_5697>

0000000080005c74 <i_5690>:
    80005c74:	19813783          	ld	a5,408(sp)

0000000080005c78 <i_5691>:
    80005c78:	00f0ec63          	bltu	ra,a5,80005c90 <i_5697>

0000000080005c7c <i_5692>:
    80005c7c:	076102a3          	sb	s6,101(sp)

0000000080005c80 <i_5693>:
    80005c80:	08f12823          	sw	a5,144(sp)

0000000080005c84 <i_5694>:
    80005c84:	40f289b3          	sub	s3,t0,a5

0000000080005c88 <i_5695>:
    80005c88:	00f78e63          	beq	a5,a5,80005ca4 <i_5702>

0000000080005c8c <i_5696>:
    80005c8c:	4020d093          	srai	ra,ra,0x2

0000000080005c90 <i_5697>:
    80005c90:	0017c533          	xor	a0,a5,ra

0000000080005c94 <i_5698>:
    80005c94:	40a500bb          	subw	ra,a0,a0

0000000080005c98 <i_5699>:
    80005c98:	1034a217          	auipc	tp,0x1034a

0000000080005c9c <i_5700>:
    80005c9c:	8112829b          	addiw	t0,t0,-2031

0000000080005ca0 <i_5701>:
    80005ca0:	0222043b          	mulw	s0,tp,sp

0000000080005ca4 <i_5702>:
    80005ca4:	00e43db3          	sltu	s11,s0,a4

0000000080005ca8 <i_5703>:
    80005ca8:	01700213          	li	tp,23

0000000080005cac <i_5704>:
    80005cac:	0042123b          	sllw	tp,tp,tp

0000000080005cb0 <i_5705>:
    80005cb0:	e2710e83          	lb	t4,-473(sp)

0000000080005cb4 <i_5706>:
    80005cb4:	00626e63          	bltu	tp,t1,80005cd0 <i_5713>

0000000080005cb8 <i_5707>:
    80005cb8:	1db102a3          	sb	s11,453(sp)

0000000080005cbc <i_5708>:
    80005cbc:	02b20eb3          	mul	t4,tp,a1

0000000080005cc0 <i_5709>:
    80005cc0:	1e816183          	lwu	gp,488(sp)

0000000080005cc4 <i_5710>:
    80005cc4:	e6412223          	sw	tp,-412(sp)

0000000080005cc8 <i_5711>:
    80005cc8:	00000013          	nop

0000000080005ccc <i_5712>:
    80005ccc:	ea413c23          	sd	tp,-328(sp)

0000000080005cd0 <i_5713>:
    80005cd0:	00000013          	nop

0000000080005cd4 <i_5714>:
    80005cd4:	1a013483          	ld	s1,416(sp)

0000000080005cd8 <i_5715>:
    80005cd8:	7db00413          	li	s0,2011

0000000080005cdc <i_5716>:
    80005cdc:	7ee00213          	li	tp,2030

0000000080005ce0 <i_5717>:
    80005ce0:	12813783          	ld	a5,296(sp)

0000000080005ce4 <i_5718>:
    80005ce4:	f4910483          	lb	s1,-183(sp)

0000000080005ce8 <i_5719>:
    80005ce8:	f0811123          	sh	s0,-254(sp)

0000000080005cec <i_5720>:
    80005cec:	13013a03          	ld	s4,304(sp)

0000000080005cf0 <i_5721>:
    80005cf0:	fcb11023          	sh	a1,-64(sp)

0000000080005cf4 <i_5722>:
    80005cf4:	06f11e23          	sh	a5,124(sp)

0000000080005cf8 <i_5723>:
    80005cf8:	19813d83          	ld	s11,408(sp)

0000000080005cfc <i_5724>:
    80005cfc:	00000013          	nop

0000000080005d00 <i_5725>:
    80005d00:	00140413          	addi	s0,s0,1
    80005d04:	fc441ee3          	bne	s0,tp,80005ce0 <i_5717>

0000000080005d08 <i_5726>:
    80005d08:	18311723          	sh	gp,398(sp)

0000000080005d0c <i_5727>:
    80005d0c:	02f59463          	bne	a1,a5,80005d34 <i_5737>

0000000080005d10 <i_5728>:
    80005d10:	fb912823          	sw	s9,-80(sp)

0000000080005d14 <i_5729>:
    80005d14:	e5d13823          	sd	t4,-432(sp)

0000000080005d18 <i_5730>:
    80005d18:	03d2e463          	bltu	t0,t4,80005d40 <i_5740>

0000000080005d1c <i_5731>:
    80005d1c:	034df3bb          	remuw	t2,s11,s4

0000000080005d20 <i_5732>:
    80005d20:	eb410c23          	sb	s4,-328(sp)

0000000080005d24 <i_5733>:
    80005d24:	e6412403          	lw	s0,-412(sp)

0000000080005d28 <i_5734>:
    80005d28:	1b011b83          	lh	s7,432(sp)

0000000080005d2c <i_5735>:
    80005d2c:	0022d293          	srli	t0,t0,0x2

0000000080005d30 <i_5736>:
    80005d30:	00000013          	nop

0000000080005d34 <i_5737>:
    80005d34:	fdc15283          	lhu	t0,-36(sp)

0000000080005d38 <i_5738>:
    80005d38:	0a710e23          	sb	t2,188(sp)

0000000080005d3c <i_5739>:
    80005d3c:	ee711723          	sh	t2,-274(sp)

0000000080005d40 <i_5740>:
    80005d40:	edc16283          	lwu	t0,-292(sp)

0000000080005d44 <i_5741>:
    80005d44:	01800393          	li	t2,24

0000000080005d48 <i_5742>:
    80005d48:	407bd43b          	sraw	s0,s7,t2

0000000080005d4c <i_5743>:
    80005d4c:	82500a13          	li	s4,-2011

0000000080005d50 <i_5744>:
    80005d50:	82e00793          	li	a5,-2002

0000000080005d54 <i_5745>:
    80005d54:	03447263          	bleu	s4,s0,80005d78 <i_5753>

0000000080005d58 <i_5746>:
    80005d58:	001b9293          	slli	t0,s7,0x1

0000000080005d5c <i_5747>:
    80005d5c:	03779463          	bne	a5,s7,80005d84 <i_5756>

0000000080005d60 <i_5748>:
    80005d60:	10e11d23          	sh	a4,282(sp)

0000000080005d64 <i_5749>:
    80005d64:	3782b393          	sltiu	t2,t0,888

0000000080005d68 <i_5750>:
    80005d68:	001a0a13          	addi	s4,s4,1
    80005d6c:	fefa42e3          	blt	s4,a5,80005d50 <i_5744>

0000000080005d70 <i_5751>:
    80005d70:	00000013          	nop

0000000080005d74 <i_5752>:
    80005d74:	00000013          	nop

0000000080005d78 <i_5753>:
    80005d78:	03719bb3          	mulh	s7,gp,s7

0000000080005d7c <i_5754>:
    80005d7c:	14215303          	lhu	t1,322(sp)

0000000080005d80 <i_5755>:
    80005d80:	00000013          	nop

0000000080005d84 <i_5756>:
    80005d84:	02535433          	divu	s0,t1,t0

0000000080005d88 <i_5757>:
    80005d88:	017a0bb3          	add	s7,s4,s7

0000000080005d8c <i_5758>:
    80005d8c:	76e00513          	li	a0,1902

0000000080005d90 <i_5759>:
    80005d90:	77800793          	li	a5,1912

0000000080005d94 <i_5760>:
    80005d94:	09811083          	lh	ra,152(sp)

0000000080005d98 <i_5761>:
    80005d98:	17a11483          	lh	s1,378(sp)

0000000080005d9c <i_5762>:
    80005d9c:	00150513          	addi	a0,a0,1
    80005da0:	fef51ae3          	bne	a0,a5,80005d94 <i_5760>

0000000080005da4 <i_5763>:
    80005da4:	00000013          	nop

0000000080005da8 <i_5764>:
    80005da8:	19c12283          	lw	t0,412(sp)

0000000080005dac <i_5765>:
    80005dac:	409483bb          	subw	t2,s1,s1

0000000080005db0 <i_5766>:
    80005db0:	eb412b83          	lw	s7,-332(sp)

0000000080005db4 <i_5767>:
    80005db4:	ff013483          	ld	s1,-16(sp)

0000000080005db8 <i_5768>:
    80005db8:	0034d493          	srli	s1,s1,0x3

0000000080005dbc <i_5769>:
    80005dbc:	00375493          	srli	s1,a4,0x3

0000000080005dc0 <i_5770>:
    80005dc0:	1ac16b83          	lwu	s7,428(sp)

0000000080005dc4 <i_5771>:
    80005dc4:	0374e4bb          	remw	s1,s1,s7

0000000080005dc8 <i_5772>:
    80005dc8:	1c910d23          	sb	s1,474(sp)

0000000080005dcc <i_5773>:
    80005dcc:	ea911d23          	sh	s1,-326(sp)

0000000080005dd0 <i_5774>:
    80005dd0:	03b00b93          	li	s7,59

0000000080005dd4 <i_5775>:
    80005dd4:	0174dbb3          	srl	s7,s1,s7

0000000080005dd8 <i_5776>:
    80005dd8:	89400393          	li	t2,-1900

0000000080005ddc <i_5777>:
    80005ddc:	8a400493          	li	s1,-1884

0000000080005de0 <i_5778>:
    80005de0:	0372d463          	ble	s7,t0,80005e08 <i_5788>

0000000080005de4 <i_5779>:
    80005de4:	022260b3          	rem	ra,tp,sp

0000000080005de8 <i_5780>:
    80005de8:	10411503          	lh	a0,260(sp)

0000000080005dec <i_5781>:
    80005dec:	16412783          	lw	a5,356(sp)

0000000080005df0 <i_5782>:
    80005df0:	01700b93          	li	s7,23

0000000080005df4 <i_5783>:
    80005df4:	0175153b          	sllw	a0,a0,s7

0000000080005df8 <i_5784>:
    80005df8:	1a712e23          	sw	t2,444(sp)

0000000080005dfc <i_5785>:
    80005dfc:	11710223          	sb	s7,260(sp)

0000000080005e00 <i_5786>:
    80005e00:	e6013403          	ld	s0,-416(sp)

0000000080005e04 <i_5787>:
    80005e04:	e9014403          	lbu	s0,-368(sp)

0000000080005e08 <i_5788>:
    80005e08:	f6a13823          	sd	a0,-144(sp)

0000000080005e0c <i_5789>:
    80005e0c:	02fb9263          	bne	s7,a5,80005e30 <i_5797>

0000000080005e10 <i_5790>:
    80005e10:	3c056513          	ori	a0,a0,960

0000000080005e14 <i_5791>:
    80005e14:	e9f14203          	lbu	tp,-353(sp)

0000000080005e18 <i_5792>:
    80005e18:	00000013          	nop

0000000080005e1c <i_5793>:
    80005e1c:	00138393          	addi	t2,t2,1 # 71af7c31 <main-0xe5083cf>
    80005e20:	fc9390e3          	bne	t2,s1,80005de0 <i_5778>

0000000080005e24 <i_5794>:
    80005e24:	ec012203          	lw	tp,-320(sp)

0000000080005e28 <i_5795>:
    80005e28:	00000013          	nop

0000000080005e2c <i_5796>:
    80005e2c:	0312533b          	divuw	t1,tp,a7

0000000080005e30 <i_5797>:
    80005e30:	4d787393          	andi	t2,a6,1239

0000000080005e34 <i_5798>:
    80005e34:	3aa66813          	ori	a6,a2,938

0000000080005e38 <i_5799>:
    80005e38:	89f00093          	li	ra,-1889

0000000080005e3c <i_5800>:
    80005e3c:	8b000213          	li	tp,-1872

0000000080005e40 <i_5801>:
    80005e40:	f7010823          	sb	a6,-144(sp)

0000000080005e44 <i_5802>:
    80005e44:	13d10803          	lb	a6,317(sp)

0000000080005e48 <i_5803>:
    80005e48:	02785333          	divu	t1,a6,t2

0000000080005e4c <i_5804>:
    80005e4c:	025872bb          	remuw	t0,a6,t0

0000000080005e50 <i_5805>:
    80005e50:	14e15403          	lhu	s0,334(sp)

0000000080005e54 <i_5806>:
    80005e54:	965df393          	andi	t2,s11,-1691

0000000080005e58 <i_5807>:
    80005e58:	f9811283          	lh	t0,-104(sp)

0000000080005e5c <i_5808>:
    80005e5c:	87600593          	li	a1,-1930

0000000080005e60 <i_5809>:
    80005e60:	87e00813          	li	a6,-1922

0000000080005e64 <i_5810>:
    80005e64:	01700293          	li	t0,23

0000000080005e68 <i_5811>:
    80005e68:	0052d2bb          	srlw	t0,t0,t0

0000000080005e6c <i_5812>:
    80005e6c:	00158593          	addi	a1,a1,1
    80005e70:	ff05cae3          	blt	a1,a6,80005e64 <i_5810>

0000000080005e74 <i_5813>:
    80005e74:	1c513c23          	sd	t0,472(sp)

0000000080005e78 <i_5814>:
    80005e78:	191105a3          	sb	a7,395(sp)

0000000080005e7c <i_5815>:
    80005e7c:	00108093          	addi	ra,ra,1
    80005e80:	fc4090e3          	bne	ra,tp,80005e40 <i_5801>

0000000080005e84 <i_5816>:
    80005e84:	02511e23          	sh	t0,60(sp)

0000000080005e88 <i_5817>:
    80005e88:	0052dc63          	ble	t0,t0,80005ea0 <i_5823>

0000000080005e8c <i_5818>:
    80005e8c:	02012e03          	lw	t3,32(sp)

0000000080005e90 <i_5819>:
    80005e90:	00528a63          	beq	t0,t0,80005ea4 <i_5824>

0000000080005e94 <i_5820>:
    80005e94:	f45102a3          	sb	t0,-187(sp)

0000000080005e98 <i_5821>:
    80005e98:	14214283          	lbu	t0,322(sp)

0000000080005e9c <i_5822>:
    80005e9c:	f6016083          	lwu	ra,-160(sp)

0000000080005ea0 <i_5823>:
    80005ea0:	08510023          	sb	t0,128(sp)

0000000080005ea4 <i_5824>:
    80005ea4:	20fef493          	andi	s1,t4,527

0000000080005ea8 <i_5825>:
    80005ea8:	029084b3          	mul	s1,ra,s1

0000000080005eac <i_5826>:
    80005eac:	84d00293          	li	t0,-1971

0000000080005eb0 <i_5827>:
    80005eb0:	86000e13          	li	t3,-1952

0000000080005eb4 <i_5828>:
    80005eb4:	0a9106a3          	sb	s1,173(sp)

0000000080005eb8 <i_5829>:
    80005eb8:	f17ecd93          	xori	s11,t4,-233

0000000080005ebc <i_5830>:
    80005ebc:	00c16183          	lwu	gp,12(sp)

0000000080005ec0 <i_5831>:
    80005ec0:	03611e83          	lh	t4,54(sp)

0000000080005ec4 <i_5832>:
    80005ec4:	01dee1b3          	or	gp,t4,t4

0000000080005ec8 <i_5833>:
    80005ec8:	003fd463          	ble	gp,t6,80005ed0 <i_5835>

0000000080005ecc <i_5834>:
    80005ecc:	01b18263          	beq	gp,s11,80005ed0 <i_5835>

0000000080005ed0 <i_5835>:
    80005ed0:	0ab13823          	sd	a1,176(sp)

0000000080005ed4 <i_5836>:
    80005ed4:	0020ca33          	xor	s4,ra,sp

0000000080005ed8 <i_5837>:
    80005ed8:	00128293          	addi	t0,t0,1
    80005edc:	fdc2ece3          	bltu	t0,t3,80005eb4 <i_5828>

0000000080005ee0 <i_5838>:
    80005ee0:	13013083          	ld	ra,304(sp)

0000000080005ee4 <i_5839>:
    80005ee4:	03418463          	beq	gp,s4,80005f0c <i_5849>

0000000080005ee8 <i_5840>:
    80005ee8:	001ff863          	bleu	ra,t6,80005ef8 <i_5844>

0000000080005eec <i_5841>:
    80005eec:	fa310da3          	sb	gp,-69(sp)

0000000080005ef0 <i_5842>:
    80005ef0:	02f44413          	xori	s0,s0,47

0000000080005ef4 <i_5843>:
    80005ef4:	003a01b3          	add	gp,s4,gp

0000000080005ef8 <i_5844>:
    80005ef8:	bfefee97          	auipc	t4,0xbfefe

0000000080005efc <i_5845>:
    80005efc:	01d00293          	li	t0,29

0000000080005f00 <i_5846>:
    80005f00:	4054543b          	sraw	s0,s0,t0

0000000080005f04 <i_5847>:
    80005f04:	ee810fa3          	sb	s0,-257(sp)

0000000080005f08 <i_5848>:
    80005f08:	006ea1b3          	slt	gp,t4,t1

0000000080005f0c <i_5849>:
    80005f0c:	e7611383          	lh	t2,-394(sp)

0000000080005f10 <i_5850>:
    80005f10:	f5615183          	lhu	gp,-170(sp)

0000000080005f14 <i_5851>:
    80005f14:	0021d313          	srli	t1,gp,0x2

0000000080005f18 <i_5852>:
    80005f18:	0a610da3          	sb	t1,187(sp)

0000000080005f1c <i_5853>:
    80005f1c:	00336333          	or	t1,t1,gp

0000000080005f20 <i_5854>:
    80005f20:	f6313023          	sd	gp,-160(sp)

0000000080005f24 <i_5855>:
    80005f24:	0a210583          	lb	a1,162(sp)

0000000080005f28 <i_5856>:
    80005f28:	00459313          	slli	t1,a1,0x4

0000000080005f2c <i_5857>:
    80005f2c:	f5313423          	sd	s3,-184(sp)

0000000080005f30 <i_5858>:
    80005f30:	02331063          	bne	t1,gp,80005f50 <i_5866>

0000000080005f34 <i_5859>:
    80005f34:	0064de63          	ble	t1,s1,80005f50 <i_5866>

0000000080005f38 <i_5860>:
    80005f38:	02634063          	blt	t1,t1,80005f58 <i_5868>

0000000080005f3c <i_5861>:
    80005f3c:	0025de13          	srli	t3,a1,0x2

0000000080005f40 <i_5862>:
    80005f40:	003e149b          	slliw	s1,t3,0x3

0000000080005f44 <i_5863>:
    80005f44:	00000013          	nop

0000000080005f48 <i_5864>:
    80005f48:	13615083          	lhu	ra,310(sp)

0000000080005f4c <i_5865>:
    80005f4c:	e4510383          	lb	t2,-443(sp)

0000000080005f50 <i_5866>:
    80005f50:	15314b83          	lbu	s7,339(sp)

0000000080005f54 <i_5867>:
    80005f54:	109103a3          	sb	s1,263(sp)

0000000080005f58 <i_5868>:
    80005f58:	f6416803          	lwu	a6,-156(sp)

0000000080005f5c <i_5869>:
    80005f5c:	03b81e33          	mulh	t3,a6,s11

0000000080005f60 <i_5870>:
    80005f60:	78800593          	li	a1,1928

0000000080005f64 <i_5871>:
    80005f64:	79500313          	li	t1,1941

0000000080005f68 <i_5872>:
    80005f68:	f4611d23          	sh	t1,-166(sp)

0000000080005f6c <i_5873>:
    80005f6c:	0f013803          	ld	a6,240(sp)

0000000080005f70 <i_5874>:
    80005f70:	00000013          	nop

0000000080005f74 <i_5875>:
    80005f74:	02730263          	beq	t1,t2,80005f98 <i_5883>

0000000080005f78 <i_5876>:
    80005f78:	fda11123          	sh	s10,-62(sp)

0000000080005f7c <i_5877>:
    80005f7c:	03909bb3          	mulh	s7,ra,s9

0000000080005f80 <i_5878>:
    80005f80:	00158593          	addi	a1,a1,1
    80005f84:	feb352e3          	ble	a1,t1,80005f68 <i_5872>

0000000080005f88 <i_5879>:
    80005f88:	01734a63          	blt	t1,s7,80005f9c <i_5884>

0000000080005f8c <i_5880>:
    80005f8c:	0075da63          	ble	t2,a1,80005fa0 <i_5885>

0000000080005f90 <i_5881>:
    80005f90:	10a10583          	lb	a1,266(sp)

0000000080005f94 <i_5882>:
    80005f94:	1ac12783          	lw	a5,428(sp)

0000000080005f98 <i_5883>:
    80005f98:	037bb7b3          	mulhu	a5,s7,s7

0000000080005f9c <i_5884>:
    80005f9c:	0e611803          	lh	a6,230(sp)

0000000080005fa0 <i_5885>:
    80005fa0:	10914b83          	lbu	s7,265(sp)

0000000080005fa4 <i_5886>:
    80005fa4:	03cb833b          	mulw	t1,s7,t3

0000000080005fa8 <i_5887>:
    80005fa8:	02fbd463          	ble	a5,s7,80005fd0 <i_5897>

0000000080005fac <i_5888>:
    80005fac:	030484bb          	mulw	s1,s1,a6

0000000080005fb0 <i_5889>:
    80005fb0:	10610023          	sb	t1,256(sp)

0000000080005fb4 <i_5890>:
    80005fb4:	1b910623          	sb	s9,428(sp)

0000000080005fb8 <i_5891>:
    80005fb8:	e2416b83          	lwu	s7,-476(sp)

0000000080005fbc <i_5892>:
    80005fbc:	16012783          	lw	a5,352(sp)

0000000080005fc0 <i_5893>:
    80005fc0:	00000013          	nop

0000000080005fc4 <i_5894>:
    80005fc4:	00f80533          	add	a0,a6,a5

0000000080005fc8 <i_5895>:
    80005fc8:	00000013          	nop

0000000080005fcc <i_5896>:
    80005fcc:	0277e3b3          	rem	t2,a5,t2

0000000080005fd0 <i_5897>:
    80005fd0:	004bd313          	srli	t1,s7,0x4

0000000080005fd4 <i_5898>:
    80005fd4:	95953213          	sltiu	tp,a0,-1703

0000000080005fd8 <i_5899>:
    80005fd8:	79e00b93          	li	s7,1950

0000000080005fdc <i_5900>:
    80005fdc:	7ae00a13          	li	s4,1966

0000000080005fe0 <i_5901>:
    80005fe0:	0b010783          	lb	a5,176(sp)

0000000080005fe4 <i_5902>:
    80005fe4:	00013503          	ld	a0,0(sp)

0000000080005fe8 <i_5903>:
    80005fe8:	0015581b          	srliw	a6,a0,0x1

0000000080005fec <i_5904>:
    80005fec:	02a31463          	bne	t1,a0,80006014 <i_5913>

0000000080005ff0 <i_5905>:
    80005ff0:	e2c11983          	lh	s3,-468(sp)

0000000080005ff4 <i_5906>:
    80005ff4:	00000013          	nop

0000000080005ff8 <i_5907>:
    80005ff8:	0035151b          	slliw	a0,a0,0x3

0000000080005ffc <i_5908>:
    80005ffc:	eb412483          	lw	s1,-332(sp)

0000000080006000 <i_5909>:
    80006000:	001b8b93          	addi	s7,s7,1
    80006004:	fd4beee3          	bltu	s7,s4,80005fe0 <i_5901>

0000000080006008 <i_5910>:
    80006008:	eb313423          	sd	s3,-344(sp)

000000008000600c <i_5911>:
    8000600c:	030549b3          	div	s3,a0,a6

0000000080006010 <i_5912>:
    80006010:	02a8f43b          	remuw	s0,a7,a0

0000000080006014 <i_5913>:
    80006014:	03313c23          	sd	s3,56(sp)

0000000080006018 <i_5914>:
    80006018:	0139c9b3          	xor	s3,s3,s3

000000008000601c <i_5915>:
    8000601c:	17313423          	sd	s3,360(sp)

0000000080006020 <i_5916>:
    80006020:	00500293          	li	t0,5

0000000080006024 <i_5917>:
    80006024:	4053d53b          	sraw	a0,t2,t0

0000000080006028 <i_5918>:
    80006028:	e2810ea3          	sb	s0,-451(sp)

000000008000602c <i_5919>:
    8000602c:	0cc16403          	lwu	s0,204(sp)

0000000080006030 <i_5920>:
    80006030:	84800993          	li	s3,-1976

0000000080006034 <i_5921>:
    80006034:	84b00493          	li	s1,-1973

0000000080006038 <i_5922>:
    80006038:	03d47063          	bleu	t4,s0,80006058 <i_5929>

000000008000603c <i_5923>:
    8000603c:	e6c12183          	lw	gp,-404(sp)

0000000080006040 <i_5924>:
    80006040:	00198993          	addi	s3,s3,1
    80006044:	ff34fae3          	bleu	s3,s1,80006038 <i_5922>

0000000080006048 <i_5925>:
    80006048:	0d414d83          	lbu	s11,212(sp)

000000008000604c <i_5926>:
    8000604c:	025482b3          	mul	t0,s1,t0

0000000080006050 <i_5927>:
    80006050:	10911223          	sh	s1,260(sp)

0000000080006054 <i_5928>:
    80006054:	f3310ba3          	sb	s3,-201(sp)

0000000080006058 <i_5929>:
    80006058:	eb815483          	lhu	s1,-328(sp)

000000008000605c <i_5930>:
    8000605c:	e83ee093          	ori	ra,t4,-381

0000000080006060 <i_5931>:
    80006060:	029982b3          	mul	t0,s3,s1

0000000080006064 <i_5932>:
    80006064:	00300393          	li	t2,3

0000000080006068 <i_5933>:
    80006068:	407e52bb          	sraw	t0,t3,t2

000000008000606c <i_5934>:
    8000606c:	f8e14a03          	lbu	s4,-114(sp)

0000000080006070 <i_5935>:
    80006070:	f5012783          	lw	a5,-176(sp)

0000000080006074 <i_5936>:
    80006074:	003a1a63          	bne	s4,gp,80006088 <i_5941>

0000000080006078 <i_5937>:
    80006078:	02fdf3b3          	remu	t2,s11,a5

000000008000607c <i_5938>:
    8000607c:	f4210783          	lb	a5,-190(sp)

0000000080006080 <i_5939>:
    80006080:	00600a13          	li	s4,6

0000000080006084 <i_5940>:
    80006084:	4147d7bb          	sraw	a5,a5,s4

0000000080006088 <i_5941>:
    80006088:	0253c263          	blt	t2,t0,800060ac <i_5950>

000000008000608c <i_5942>:
    8000608c:	0af11c23          	sh	a5,184(sp)

0000000080006090 <i_5943>:
    80006090:	08810423          	sb	s0,136(sp)

0000000080006094 <i_5944>:
    80006094:	1e412b83          	lw	s7,484(sp)

0000000080006098 <i_5945>:
    80006098:	0b411223          	sh	s4,164(sp)

000000008000609c <i_5946>:
    8000609c:	0033db93          	srli	s7,t2,0x3

00000000800060a0 <i_5947>:
    800060a0:	007bc663          	blt	s7,t2,800060ac <i_5950>

00000000800060a4 <i_5948>:
    800060a4:	eb813c23          	sd	s8,-328(sp)

00000000800060a8 <i_5949>:
    800060a8:	0175a5b3          	slt	a1,a1,s7

00000000800060ac <i_5950>:
    800060ac:	f2013b83          	ld	s7,-224(sp)

00000000800060b0 <i_5951>:
    800060b0:	12b12823          	sw	a1,304(sp)

00000000800060b4 <i_5952>:
    800060b4:	017b8463          	beq	s7,s7,800060bc <i_5954>

00000000800060b8 <i_5953>:
    800060b8:	01758663          	beq	a1,s7,800060c4 <i_5956>

00000000800060bc <i_5954>:
    800060bc:	037b8463          	beq	s7,s7,800060e4 <i_5964>

00000000800060c0 <i_5955>:
    800060c0:	037b84b3          	mul	s1,s7,s7

00000000800060c4 <i_5956>:
    800060c4:	e8a15383          	lhu	t2,-374(sp)

00000000800060c8 <i_5957>:
    800060c8:	01799463          	bne	s3,s7,800060d0 <i_5959>

00000000800060cc <i_5958>:
    800060cc:	00738863          	beq	t2,t2,800060dc <i_5962>

00000000800060d0 <i_5959>:
    800060d0:	0fc11b83          	lh	s7,252(sp)

00000000800060d4 <i_5960>:
    800060d4:	4024d413          	srai	s0,s1,0x2

00000000800060d8 <i_5961>:
    800060d8:	ed211383          	lh	t2,-302(sp)

00000000800060dc <i_5962>:
    800060dc:	0034db93          	srli	s7,s1,0x3

00000000800060e0 <i_5963>:
    800060e0:	e6b13c23          	sd	a1,-392(sp)

00000000800060e4 <i_5964>:
    800060e4:	ea114183          	lbu	gp,-351(sp)

00000000800060e8 <i_5965>:
    800060e8:	028415b3          	mulh	a1,s0,s0

00000000800060ec <i_5966>:
    800060ec:	0d611583          	lh	a1,214(sp)

00000000800060f0 <i_5967>:
    800060f0:	75100b93          	li	s7,1873

00000000800060f4 <i_5968>:
    800060f4:	75a00413          	li	s0,1882

00000000800060f8 <i_5969>:
    800060f8:	fc913023          	sd	s1,-64(sp)

00000000800060fc <i_5970>:
    800060fc:	ef215583          	lhu	a1,-270(sp)

0000000080006100 <i_5971>:
    80006100:	00b61a63          	bne	a2,a1,80006114 <i_5976>

0000000080006104 <i_5972>:
    80006104:	02b5f5b3          	remu	a1,a1,a1

0000000080006108 <i_5973>:
    80006108:	06b13023          	sd	a1,96(sp)

000000008000610c <i_5974>:
    8000610c:	0015d59b          	srliw	a1,a1,0x1

0000000080006110 <i_5975>:
    80006110:	7c05c593          	xori	a1,a1,1984

0000000080006114 <i_5976>:
    80006114:	5175c313          	xori	t1,a1,1303

0000000080006118 <i_5977>:
    80006118:	fa016583          	lwu	a1,-96(sp)

000000008000611c <i_5978>:
    8000611c:	00b5e5b3          	or	a1,a1,a1

0000000080006120 <i_5979>:
    80006120:	e1811303          	lh	t1,-488(sp)

0000000080006124 <i_5980>:
    80006124:	001b8b93          	addi	s7,s7,1
    80006128:	fc8be8e3          	bltu	s7,s0,800060f8 <i_5969>

000000008000612c <i_5981>:
    8000612c:	02015583          	lhu	a1,32(sp)

0000000080006130 <i_5982>:
    80006130:	f4b12a23          	sw	a1,-172(sp)

0000000080006134 <i_5983>:
    80006134:	fc6103a3          	sb	t1,-57(sp)

0000000080006138 <i_5984>:
    80006138:	40b58333          	sub	t1,a1,a1

000000008000613c <i_5985>:
    8000613c:	0185c863          	blt	a1,s8,8000614c <i_5989>

0000000080006140 <i_5986>:
    80006140:	03b00213          	li	tp,59

0000000080006144 <i_5987>:
    80006144:	00459333          	sll	t1,a1,tp

0000000080006148 <i_5988>:
    80006148:	ee811383          	lh	t2,-280(sp)

000000008000614c <i_5989>:
    8000614c:	02b383bb          	mulw	t2,t2,a1

0000000080006150 <i_5990>:
    80006150:	01d59863          	bne	a1,t4,80006160 <i_5994>

0000000080006154 <i_5991>:
    80006154:	66f5f993          	andi	s3,a1,1647

0000000080006158 <i_5992>:
    80006158:	01330463          	beq	t1,s3,80006160 <i_5994>

000000008000615c <i_5993>:
    8000615c:	1dc10983          	lb	s3,476(sp)

0000000080006160 <i_5994>:
    80006160:	e6b10723          	sb	a1,-402(sp)

0000000080006164 <i_5995>:
    80006164:	f1415383          	lhu	t2,-236(sp)

0000000080006168 <i_5996>:
    80006168:	82700593          	li	a1,-2009

000000008000616c <i_5997>:
    8000616c:	83500193          	li	gp,-1995

0000000080006170 <i_5998>:
    80006170:	0eb13023          	sd	a1,224(sp)

0000000080006174 <i_5999>:
    80006174:	ea611b83          	lh	s7,-346(sp)

0000000080006178 <i_6000>:
    80006178:	00000013          	nop

000000008000617c <i_6001>:
    8000617c:	f5813a03          	ld	s4,-168(sp)

0000000080006180 <i_6002>:
    80006180:	02b5e3bb          	remw	t2,a1,a1

0000000080006184 <i_6003>:
    80006184:	0073b233          	sltu	tp,t2,t2

0000000080006188 <i_6004>:
    80006188:	00158593          	addi	a1,a1,1
    8000618c:	fe35c2e3          	blt	a1,gp,80006170 <i_5998>

0000000080006190 <i_6005>:
    80006190:	ff710823          	sb	s7,-16(sp)

0000000080006194 <i_6006>:
    80006194:	00e18663          	beq	gp,a4,800061a0 <i_6009>

0000000080006198 <i_6007>:
    80006198:	0031c1b3          	xor	gp,gp,gp

000000008000619c <i_6008>:
    8000619c:	ec3108a3          	sb	gp,-303(sp)

00000000800061a0 <i_6009>:
    800061a0:	f8c16983          	lwu	s3,-116(sp)

00000000800061a4 <i_6010>:
    800061a4:	00000013          	nop

00000000800061a8 <i_6011>:
    800061a8:	04410803          	lb	a6,68(sp)

00000000800061ac <i_6012>:
    800061ac:	81600193          	li	gp,-2026

00000000800061b0 <i_6013>:
    800061b0:	82500993          	li	s3,-2011

00000000800061b4 <i_6014>:
    800061b4:	00000013          	nop

00000000800061b8 <i_6015>:
    800061b8:	023b9663          	bne	s7,gp,800061e4 <i_6025>

00000000800061bc <i_6016>:
    800061bc:	0321f3b3          	remu	t2,gp,s2

00000000800061c0 <i_6017>:
    800061c0:	0039d41b          	srliw	s0,s3,0x3

00000000800061c4 <i_6018>:
    800061c4:	00000013          	nop

00000000800061c8 <i_6019>:
    800061c8:	16614383          	lbu	t2,358(sp)

00000000800061cc <i_6020>:
    800061cc:	00300813          	li	a6,3

00000000800061d0 <i_6021>:
    800061d0:	010853b3          	srl	t2,a6,a6

00000000800061d4 <i_6022>:
    800061d4:	00118193          	addi	gp,gp,1
    800061d8:	fd31cee3          	blt	gp,s3,800061b4 <i_6014>

00000000800061dc <i_6023>:
    800061dc:	00d39a63          	bne	t2,a3,800061f0 <i_6028>

00000000800061e0 <i_6024>:
    800061e0:	01784263          	blt	a6,s7,800061e4 <i_6025>

00000000800061e4 <i_6025>:
    800061e4:	00f180b3          	add	ra,gp,a5

00000000800061e8 <i_6026>:
    800061e8:	01599e63          	bne	s3,s5,80006204 <i_6033>

00000000800061ec <i_6027>:
    800061ec:	00a00d93          	li	s11,10

00000000800061f0 <i_6028>:
    800061f0:	01b790bb          	sllw	ra,a5,s11

00000000800061f4 <i_6029>:
    800061f4:	033e59b3          	divu	s3,t3,s3

00000000800061f8 <i_6030>:
    800061f8:	2feafd93          	andi	s11,s5,766

00000000800061fc <i_6031>:
    800061fc:	033dcdbb          	divw	s11,s11,s3

0000000080006200 <i_6032>:
    80006200:	ecd10803          	lb	a6,-307(sp)

0000000080006204 <i_6033>:
    80006204:	06214e83          	lbu	t4,98(sp)

0000000080006208 <i_6034>:
    80006208:	00000013          	nop

000000008000620c <i_6035>:
    8000620c:	78300793          	li	a5,1923

0000000080006210 <i_6036>:
    80006210:	79500e13          	li	t3,1941

0000000080006214 <i_6037>:
    80006214:	00000013          	nop

0000000080006218 <i_6038>:
    80006218:	e5012623          	sw	a6,-436(sp)

000000008000621c <i_6039>:
    8000621c:	f1b11623          	sh	s11,-244(sp)

0000000080006220 <i_6040>:
    80006220:	11b11723          	sh	s11,270(sp)

0000000080006224 <i_6041>:
    80006224:	03be8263          	beq	t4,s11,80006248 <i_6049>

0000000080006228 <i_6042>:
    80006228:	ff413023          	sd	s4,-32(sp)

000000008000622c <i_6043>:
    8000622c:	00178793          	addi	a5,a5,1
    80006230:	ffc792e3          	bne	a5,t3,80006214 <i_6037>

0000000080006234 <i_6044>:
    80006234:	02b00793          	li	a5,43

0000000080006238 <i_6045>:
    80006238:	40f859b3          	sra	s3,a6,a5

000000008000623c <i_6046>:
    8000623c:	09011023          	sh	a6,128(sp)

0000000080006240 <i_6047>:
    80006240:	0cf13423          	sd	a5,200(sp)

0000000080006244 <i_6048>:
    80006244:	01d9e663          	bltu	s3,t4,80006250 <i_6051>

0000000080006248 <i_6049>:
    80006248:	010d8a63          	beq	s11,a6,8000625c <i_6054>

000000008000624c <i_6050>:
    8000624c:	0017de93          	srli	t4,a5,0x1

0000000080006250 <i_6051>:
    80006250:	01ddca63          	blt	s11,t4,80006264 <i_6056>

0000000080006254 <i_6052>:
    80006254:	03de8eb3          	mul	t4,t4,t4

0000000080006258 <i_6053>:
    80006258:	002ede93          	srli	t4,t4,0x2

000000008000625c <i_6054>:
    8000625c:	0071ec63          	bltu	gp,t2,80006274 <i_6060>

0000000080006260 <i_6055>:
    80006260:	f3d10423          	sb	t4,-216(sp)

0000000080006264 <i_6056>:
    80006264:	03bdcebb          	divw	t4,s11,s11

0000000080006268 <i_6057>:
    80006268:	e1c14383          	lbu	t2,-484(sp)

000000008000626c <i_6058>:
    8000626c:	03d3d3b3          	divu	t2,t2,t4

0000000080006270 <i_6059>:
    80006270:	13013483          	ld	s1,304(sp)

0000000080006274 <i_6060>:
    80006274:	15a14e83          	lbu	t4,346(sp)

0000000080006278 <i_6061>:
    80006278:	f3015e83          	lhu	t4,-208(sp)

000000008000627c <i_6062>:
    8000627c:	009eda63          	ble	s1,t4,80006290 <i_6067>

0000000080006280 <i_6063>:
    80006280:	01def663          	bleu	t4,t4,8000628c <i_6066>

0000000080006284 <i_6064>:
    80006284:	00765c63          	ble	t2,a2,8000629c <i_6070>

0000000080006288 <i_6065>:
    80006288:	d164a193          	slti	gp,s1,-746

000000008000628c <i_6066>:
    8000628c:	f9d11823          	sh	t4,-112(sp)

0000000080006290 <i_6067>:
    80006290:	00816d83          	lwu	s11,8(sp)

0000000080006294 <i_6068>:
    80006294:	06f10183          	lb	gp,111(sp)

0000000080006298 <i_6069>:
    80006298:	0e713c23          	sd	t2,248(sp)

000000008000629c <i_6070>:
    8000629c:	027df463          	bleu	t2,s11,800062c4 <i_6080>

00000000800062a0 <i_6071>:
    800062a0:	01e00d93          	li	s11,30

00000000800062a4 <i_6072>:
    800062a4:	01b3d5b3          	srl	a1,t2,s11

00000000800062a8 <i_6073>:
    800062a8:	f1816283          	lwu	t0,-232(sp)

00000000800062ac <i_6074>:
    800062ac:	09412423          	sw	s4,136(sp)

00000000800062b0 <i_6075>:
    800062b0:	fab10c23          	sb	a1,-72(sp)

00000000800062b4 <i_6076>:
    800062b4:	03b3edbb          	remw	s11,t2,s11

00000000800062b8 <i_6077>:
    800062b8:	ecf10583          	lb	a1,-305(sp)

00000000800062bc <i_6078>:
    800062bc:	01a00393          	li	t2,26

00000000800062c0 <i_6079>:
    800062c0:	0073d3bb          	srlw	t2,t2,t2

00000000800062c4 <i_6080>:
    800062c4:	02a3c7bb          	divw	a5,t2,a0

00000000800062c8 <i_6081>:
    800062c8:	01d00b93          	li	s7,29

00000000800062cc <i_6082>:
    800062cc:	417dd3bb          	sraw	t2,s11,s7

00000000800062d0 <i_6083>:
    800062d0:	86300d93          	li	s11,-1949

00000000800062d4 <i_6084>:
    800062d4:	86500513          	li	a0,-1947

00000000800062d8 <i_6085>:
    800062d8:	00800193          	li	gp,8

00000000800062dc <i_6086>:
    800062dc:	003197b3          	sll	a5,gp,gp

00000000800062e0 <i_6087>:
    800062e0:	1c412203          	lw	tp,452(sp)

00000000800062e4 <i_6088>:
    800062e4:	01100993          	li	s3,17

00000000800062e8 <i_6089>:
    800062e8:	013797bb          	sllw	a5,a5,s3

00000000800062ec <i_6090>:
    800062ec:	001d8d93          	addi	s11,s11,1
    800062f0:	ffb572e3          	bleu	s11,a0,800062d4 <i_6084>

00000000800062f4 <i_6091>:
    800062f4:	4017db9b          	sraiw	s7,a5,0x1

00000000800062f8 <i_6092>:
    800062f8:	0049d263          	ble	tp,s3,800062fc <i_6093>

00000000800062fc <i_6093>:
    800062fc:	010c4663          	blt	s8,a6,80006308 <i_6096>

0000000080006300 <i_6094>:
    80006300:	f1610283          	lb	t0,-234(sp)

0000000080006304 <i_6095>:
    80006304:	4039d213          	srai	tp,s3,0x3

0000000080006308 <i_6096>:
    80006308:	02520433          	mul	s0,tp,t0

000000008000630c <i_6097>:
    8000630c:	029281bb          	mulw	gp,t0,s1

0000000080006310 <i_6098>:
    80006310:	e6310e03          	lb	t3,-413(sp)

0000000080006314 <i_6099>:
    80006314:	e3813a03          	ld	s4,-456(sp)

0000000080006318 <i_6100>:
    80006318:	fe310983          	lb	s3,-29(sp)

000000008000631c <i_6101>:
    8000631c:	7dfb0417          	auipc	s0,0x7dfb0

0000000080006320 <i_6102>:
    80006320:	03346463          	bltu	s0,s3,80006348 <i_6112>

0000000080006324 <i_6103>:
    80006324:	1ac12403          	lw	s0,428(sp)

0000000080006328 <i_6104>:
    80006328:	014f7c63          	bleu	s4,t5,80006340 <i_6110>

000000008000632c <i_6105>:
    8000632c:	01445e63          	ble	s4,s0,80006348 <i_6112>

0000000080006330 <i_6106>:
    80006330:	03343433          	mulhu	s0,s0,s3

0000000080006334 <i_6107>:
    80006334:	008eb5b3          	sltu	a1,t4,s0

0000000080006338 <i_6108>:
    80006338:	0335e9bb          	remw	s3,a1,s3

000000008000633c <i_6109>:
    8000633c:	00e5e5b3          	or	a1,a1,a4

0000000080006340 <i_6110>:
    80006340:	008d9863          	bne	s11,s0,80006350 <i_6114>

0000000080006344 <i_6111>:
    80006344:	00b98663          	beq	s3,a1,80006350 <i_6114>

0000000080006348 <i_6112>:
    80006348:	00be81b3          	add	gp,t4,a1

000000008000634c <i_6113>:
    8000634c:	0035a1b3          	slt	gp,a1,gp

0000000080006350 <i_6114>:
    80006350:	01341c63          	bne	s0,s3,80006368 <i_6120>

0000000080006354 <i_6115>:
    80006354:	4045d393          	srai	t2,a1,0x4

0000000080006358 <i_6116>:
    80006358:	07414283          	lbu	t0,116(sp)

000000008000635c <i_6117>:
    8000635c:	15411383          	lh	t2,340(sp)

0000000080006360 <i_6118>:
    80006360:	14c15203          	lhu	tp,332(sp)

0000000080006364 <i_6119>:
    80006364:	008c79b3          	and	s3,s8,s0

0000000080006368 <i_6120>:
    80006368:	01600493          	li	s1,22

000000008000636c <i_6121>:
    8000636c:	00941233          	sll	tp,s0,s1

0000000080006370 <i_6122>:
    80006370:	f67102a3          	sb	t2,-155(sp)

0000000080006374 <i_6123>:
    80006374:	fe013403          	ld	s0,-32(sp)

0000000080006378 <i_6124>:
    80006378:	03eb23b3          	mulhsu	t2,s6,t5

000000008000637c <i_6125>:
    8000637c:	029c6263          	bltu	s8,s1,800063a0 <i_6134>

0000000080006380 <i_6126>:
    80006380:	01100393          	li	t2,17

0000000080006384 <i_6127>:
    80006384:	007452bb          	srlw	t0,s0,t2

0000000080006388 <i_6128>:
    80006388:	007d8863          	beq	s11,t2,80006398 <i_6132>

000000008000638c <i_6129>:
    8000638c:	0131ec63          	bltu	gp,s3,800063a4 <i_6135>

0000000080006390 <i_6130>:
    80006390:	1a813423          	sd	s0,424(sp)

0000000080006394 <i_6131>:
    80006394:	00000013          	nop

0000000080006398 <i_6132>:
    80006398:	03cf09b3          	mul	s3,t5,t3

000000008000639c <i_6133>:
    8000639c:	00900413          	li	s0,9

00000000800063a0 <i_6134>:
    800063a0:	0083943b          	sllw	s0,t2,s0

00000000800063a4 <i_6135>:
    800063a4:	00000013          	nop

00000000800063a8 <i_6136>:
    800063a8:	10811f23          	sh	s0,286(sp)

00000000800063ac <i_6137>:
    800063ac:	77400393          	li	t2,1908

00000000800063b0 <i_6138>:
    800063b0:	77d00e13          	li	t3,1917

00000000800063b4 <i_6139>:
    800063b4:	00000013          	nop

00000000800063b8 <i_6140>:
    800063b8:	00000013          	nop

00000000800063bc <i_6141>:
    800063bc:	7cb00493          	li	s1,1995

00000000800063c0 <i_6142>:
    800063c0:	7de00993          	li	s3,2014

00000000800063c4 <i_6143>:
    800063c4:	404ddd9b          	sraiw	s11,s11,0x4

00000000800063c8 <i_6144>:
    800063c8:	f7211d83          	lh	s11,-142(sp)

00000000800063cc <i_6145>:
    800063cc:	00000013          	nop

00000000800063d0 <i_6146>:
    800063d0:	01900293          	li	t0,25

00000000800063d4 <i_6147>:
    800063d4:	005d9db3          	sll	s11,s11,t0

00000000800063d8 <i_6148>:
    800063d8:	e3b10c23          	sb	s11,-456(sp)

00000000800063dc <i_6149>:
    800063dc:	00148493          	addi	s1,s1,1
    800063e0:	fe99f2e3          	bleu	s1,s3,800063c4 <i_6143>

00000000800063e4 <i_6150>:
    800063e4:	efb12c23          	sw	s11,-264(sp)

00000000800063e8 <i_6151>:
    800063e8:	00138393          	addi	t2,t2,1
    800063ec:	fdc3c4e3          	blt	t2,t3,800063b4 <i_6139>

00000000800063f0 <i_6152>:
    800063f0:	f2215b83          	lhu	s7,-222(sp)

00000000800063f4 <i_6153>:
    800063f4:	f3013583          	ld	a1,-208(sp)

00000000800063f8 <i_6154>:
    800063f8:	03bed063          	ble	s11,t4,80006418 <i_6162>

00000000800063fc <i_6155>:
    800063fc:	02b2c263          	blt	t0,a1,80006420 <i_6164>

0000000080006400 <i_6156>:
    80006400:	ec814203          	lbu	tp,-312(sp)

0000000080006404 <i_6157>:
    80006404:	ecc16d83          	lwu	s11,-308(sp)

0000000080006408 <i_6158>:
    80006408:	01b26663          	bltu	tp,s11,80006414 <i_6161>

000000008000640c <i_6159>:
    8000640c:	ffe10da3          	sb	t5,-5(sp)

0000000080006410 <i_6160>:
    80006410:	f7b11523          	sh	s11,-150(sp)

0000000080006414 <i_6161>:
    80006414:	04013583          	ld	a1,64(sp)

0000000080006418 <i_6162>:
    80006418:	03b18dbb          	mulw	s11,gp,s11

000000008000641c <i_6163>:
    8000641c:	938dea13          	ori	s4,s11,-1736

0000000080006420 <i_6164>:
    80006420:	17411423          	sh	s4,360(sp)

0000000080006424 <i_6165>:
    80006424:	13812503          	lw	a0,312(sp)

0000000080006428 <i_6166>:
    80006428:	01b76c63          	bltu	a4,s11,80006440 <i_6172>

000000008000642c <i_6167>:
    8000642c:	01b24463          	blt	tp,s11,80006434 <i_6169>

0000000080006430 <i_6168>:
    80006430:	15c16e03          	lwu	t3,348(sp)

0000000080006434 <i_6169>:
    80006434:	12415d83          	lhu	s11,292(sp)

0000000080006438 <i_6170>:
    80006438:	00000013          	nop

000000008000643c <i_6171>:
    8000643c:	004e1d9b          	slliw	s11,t3,0x4

0000000080006440 <i_6172>:
    80006440:	f0714483          	lbu	s1,-249(sp)

0000000080006444 <i_6173>:
    80006444:	f5b10623          	sb	s11,-180(sp)

0000000080006448 <i_6174>:
    80006448:	87500e13          	li	t3,-1931

000000008000644c <i_6175>:
    8000644c:	88200513          	li	a0,-1918

0000000080006450 <i_6176>:
    80006450:	00000013          	nop

0000000080006454 <i_6177>:
    80006454:	001e0e13          	addi	t3,t3,1
    80006458:	feae1ce3          	bne	t3,a0,80006450 <i_6176>

000000008000645c <i_6178>:
    8000645c:	14012503          	lw	a0,320(sp)

0000000080006460 <i_6179>:
    80006460:	02910b83          	lb	s7,41(sp)

0000000080006464 <i_6180>:
    80006464:	f1a9a993          	slti	s3,s3,-230

0000000080006468 <i_6181>:
    80006468:	0099c663          	blt	s3,s1,80006474 <i_6184>

000000008000646c <i_6182>:
    8000646c:	40a50db3          	sub	s11,a0,a0

0000000080006470 <i_6183>:
    80006470:	0be14503          	lbu	a0,190(sp)

0000000080006474 <i_6184>:
    80006474:	19711623          	sh	s7,396(sp)

0000000080006478 <i_6185>:
    80006478:	f9311723          	sh	s3,-114(sp)

000000008000647c <i_6186>:
    8000647c:	06d14b83          	lbu	s7,109(sp)

0000000080006480 <i_6187>:
    80006480:	f4016b83          	lwu	s7,-192(sp)

0000000080006484 <i_6188>:
    80006484:	02200993          	li	s3,34

0000000080006488 <i_6189>:
    80006488:	4139d9b3          	sra	s3,s3,s3

000000008000648c <i_6190>:
    8000648c:	1b712623          	sw	s7,428(sp)

0000000080006490 <i_6191>:
    80006490:	0019d993          	srli	s3,s3,0x1

0000000080006494 <i_6192>:
    80006494:	0179c463          	blt	s3,s7,8000649c <i_6194>

0000000080006498 <i_6193>:
    80006498:	fb412503          	lw	a0,-76(sp)

000000008000649c <i_6194>:
    8000649c:	01ce0e33          	add	t3,t3,t3

00000000800064a0 <i_6195>:
    800064a0:	03c9de33          	divu	t3,s3,t3

00000000800064a4 <i_6196>:
    800064a4:	efc10123          	sb	t3,-286(sp)

00000000800064a8 <i_6197>:
    800064a8:	001e5993          	srli	s3,t3,0x1

00000000800064ac <i_6198>:
    800064ac:	00300793          	li	a5,3

00000000800064b0 <i_6199>:
    800064b0:	00f990bb          	sllw	ra,s3,a5

00000000800064b4 <i_6200>:
    800064b4:	0139b7b3          	sltu	a5,s3,s3

00000000800064b8 <i_6201>:
    800064b8:	013e0533          	add	a0,t3,s3

00000000800064bc <i_6202>:
    800064bc:	ee113823          	sd	ra,-272(sp)

00000000800064c0 <i_6203>:
    800064c0:	001e6463          	bltu	t3,ra,800064c8 <i_6205>

00000000800064c4 <i_6204>:
    800064c4:	0335483b          	divw	a6,a0,s3

00000000800064c8 <i_6205>:
    800064c8:	f5814503          	lbu	a0,-168(sp)

00000000800064cc <i_6206>:
    800064cc:	07c16983          	lwu	s3,124(sp)

00000000800064d0 <i_6207>:
    800064d0:	0b813e03          	ld	t3,184(sp)

00000000800064d4 <i_6208>:
    800064d4:	1fc13023          	sd	t3,480(sp)

00000000800064d8 <i_6209>:
    800064d8:	0d614403          	lbu	s0,214(sp)

00000000800064dc <i_6210>:
    800064dc:	00419a13          	slli	s4,gp,0x4

00000000800064e0 <i_6211>:
    800064e0:	f2a12823          	sw	a0,-208(sp)

00000000800064e4 <i_6212>:
    800064e4:	f299b417          	auipc	s0,0xf299b

00000000800064e8 <i_6213>:
    800064e8:	19313823          	sd	s3,400(sp)

00000000800064ec <i_6214>:
    800064ec:	e8811a23          	sh	s0,-364(sp)

00000000800064f0 <i_6215>:
    800064f0:	00813023          	sd	s0,0(sp)

00000000800064f4 <i_6216>:
    800064f4:	f8f10403          	lb	s0,-113(sp)

00000000800064f8 <i_6217>:
    800064f8:	01d44e63          	blt	s0,t4,80006514 <i_6224>

00000000800064fc <i_6218>:
    800064fc:	4035d593          	srai	a1,a1,0x3

0000000080006500 <i_6219>:
    80006500:	fa810223          	sb	s0,-92(sp)

0000000080006504 <i_6220>:
    80006504:	e6812223          	sw	s0,-412(sp)

0000000080006508 <i_6221>:
    80006508:	0ce13823          	sd	a4,208(sp)

000000008000650c <i_6222>:
    8000650c:	ab040e13          	addi	t3,s0,-1360 # 729a0f94 <main-0xd65f06c>

0000000080006510 <i_6223>:
    80006510:	19b12423          	sw	s11,392(sp)

0000000080006514 <i_6224>:
    80006514:	19411303          	lh	t1,404(sp)

0000000080006518 <i_6225>:
    80006518:	dfee2813          	slti	a6,t3,-514

000000008000651c <i_6226>:
    8000651c:	f7411983          	lh	s3,-140(sp)

0000000080006520 <i_6227>:
    80006520:	18110183          	lb	gp,385(sp)

0000000080006524 <i_6228>:
    80006524:	00ba1463          	bne	s4,a1,8000652c <i_6230>

0000000080006528 <i_6229>:
    80006528:	1a310283          	lb	t0,419(sp)

000000008000652c <i_6230>:
    8000652c:	01ca0a33          	add	s4,s4,t3

0000000080006530 <i_6231>:
    80006530:	13812203          	lw	tp,312(sp)

0000000080006534 <i_6232>:
    80006534:	ad846b93          	ori	s7,s0,-1320

0000000080006538 <i_6233>:
    80006538:	16114583          	lbu	a1,353(sp)

000000008000653c <i_6234>:
    8000653c:	00344c63          	blt	s0,gp,80006554 <i_6240>

0000000080006540 <i_6235>:
    80006540:	fd416a03          	lwu	s4,-44(sp)

0000000080006544 <i_6236>:
    80006544:	1b011403          	lh	s0,432(sp)

0000000080006548 <i_6237>:
    80006548:	02845463          	ble	s0,s0,80006570 <i_6247>

000000008000654c <i_6238>:
    8000654c:	92b58413          	addi	s0,a1,-1749

0000000080006550 <i_6239>:
    80006550:	f8010403          	lb	s0,-128(sp)

0000000080006554 <i_6240>:
    80006554:	09013383          	ld	t2,144(sp)

0000000080006558 <i_6241>:
    80006558:	ea810fa3          	sb	s0,-321(sp)

000000008000655c <i_6242>:
    8000655c:	028460bb          	remw	ra,s0,s0

0000000080006560 <i_6243>:
    80006560:	0040dd93          	srli	s11,ra,0x4

0000000080006564 <i_6244>:
    80006564:	01b47663          	bleu	s11,s0,80006570 <i_6247>

0000000080006568 <i_6245>:
    80006568:	02b25db3          	divu	s11,tp,a1

000000008000656c <i_6246>:
    8000656c:	1d615483          	lhu	s1,470(sp)

0000000080006570 <i_6247>:
    80006570:	1b110083          	lb	ra,433(sp)

0000000080006574 <i_6248>:
    80006574:	0093a333          	slt	t1,t2,s1

0000000080006578 <i_6249>:
    80006578:	02944263          	blt	s0,s1,8000659c <i_6258>

000000008000657c <i_6250>:
    8000657c:	001b559b          	srliw	a1,s6,0x1

0000000080006580 <i_6251>:
    80006580:	10c11483          	lh	s1,268(sp)

0000000080006584 <i_6252>:
    80006584:	18416283          	lwu	t0,388(sp)

0000000080006588 <i_6253>:
    80006588:	ff114b83          	lbu	s7,-15(sp)

000000008000658c <i_6254>:
    8000658c:	e7013583          	ld	a1,-400(sp)

0000000080006590 <i_6255>:
    80006590:	04913c23          	sd	s1,88(sp)

0000000080006594 <i_6256>:
    80006594:	00000013          	nop

0000000080006598 <i_6257>:
    80006598:	00000013          	nop

000000008000659c <i_6258>:
    8000659c:	e8013b83          	ld	s7,-384(sp)

00000000800065a0 <i_6259>:
    800065a0:	00bbebb3          	or	s7,s7,a1

00000000800065a4 <i_6260>:
    800065a4:	81f00393          	li	t2,-2017

00000000800065a8 <i_6261>:
    800065a8:	82d00813          	li	a6,-2003

00000000800065ac <i_6262>:
    800065ac:	00138393          	addi	t2,t2,1
    800065b0:	fe787ee3          	bleu	t2,a6,800065ac <i_6262>

00000000800065b4 <i_6263>:
    800065b4:	404bdb9b          	sraiw	s7,s7,0x4

00000000800065b8 <i_6264>:
    800065b8:	15d10983          	lb	s3,349(sp)

00000000800065bc <i_6265>:
    800065bc:	5aade217          	auipc	tp,0x5aade

00000000800065c0 <i_6266>:
    800065c0:	850f15b7          	lui	a1,0x850f1

00000000800065c4 <i_6267>:
    800065c4:	f3013783          	ld	a5,-208(sp)

00000000800065c8 <i_6268>:
    800065c8:	40f780bb          	subw	ra,a5,a5

00000000800065cc <i_6269>:
    800065cc:	401787bb          	subw	a5,a5,ra

00000000800065d0 <i_6270>:
    800065d0:	00178263          	beq	a5,ra,800065d4 <i_6271>

00000000800065d4 <i_6271>:
    800065d4:	e6910783          	lb	a5,-407(sp)

00000000800065d8 <i_6272>:
    800065d8:	00f7f263          	bleu	a5,a5,800065dc <i_6273>

00000000800065dc <i_6273>:
    800065dc:	fcc12203          	lw	tp,-52(sp)

00000000800065e0 <i_6274>:
    800065e0:	0017f4b3          	and	s1,a5,ra

00000000800065e4 <i_6275>:
    800065e4:	0043c863          	blt	t2,tp,800065f4 <i_6279>

00000000800065e8 <i_6276>:
    800065e8:	0099cc63          	blt	s3,s1,80006600 <i_6282>

00000000800065ec <i_6277>:
    800065ec:	f0211e03          	lh	t3,-254(sp)

00000000800065f0 <i_6278>:
    800065f0:	00959863          	bne	a1,s1,80006600 <i_6282>

00000000800065f4 <i_6279>:
    800065f4:	e6013303          	ld	t1,-416(sp)

00000000800065f8 <i_6280>:
    800065f8:	009e5663          	ble	s1,t3,80006604 <i_6283>

00000000800065fc <i_6281>:
    800065fc:	00637463          	bleu	t1,t1,80006604 <i_6283>

0000000080006600 <i_6282>:
    80006600:	01c4e663          	bltu	s1,t3,8000660c <i_6285>

0000000080006604 <i_6283>:
    80006604:	0294d4bb          	divuw	s1,s1,s1

0000000080006608 <i_6284>:
    80006608:	004e5463          	ble	tp,t3,80006610 <i_6286>

000000008000660c <i_6285>:
    8000660c:	0294be33          	mulhu	t3,s1,s1

0000000080006610 <i_6286>:
    80006610:	f2911323          	sh	s1,-218(sp)

0000000080006614 <i_6287>:
    80006614:	ef813483          	ld	s1,-264(sp)

0000000080006618 <i_6288>:
    80006618:	009e1663          	bne	t3,s1,80006624 <i_6291>

000000008000661c <i_6289>:
    8000661c:	1dc13423          	sd	t3,456(sp)

0000000080006620 <i_6290>:
    80006620:	0ac11b83          	lh	s7,172(sp)

0000000080006624 <i_6291>:
    80006624:	029b9263          	bne	s7,s1,80006648 <i_6300>

0000000080006628 <i_6292>:
    80006628:	002e1663          	bne	t3,sp,80006634 <i_6295>

000000008000662c <i_6293>:
    8000662c:	05812e03          	lw	t3,88(sp)

0000000080006630 <i_6294>:
    80006630:	e7713c23          	sd	s7,-392(sp)

0000000080006634 <i_6295>:
    80006634:	00600b93          	li	s7,6

0000000080006638 <i_6296>:
    80006638:	017b9db3          	sll	s11,s7,s7

000000008000663c <i_6297>:
    8000663c:	0c615b83          	lhu	s7,198(sp)

0000000080006640 <i_6298>:
    80006640:	03300e93          	li	t4,51

0000000080006644 <i_6299>:
    80006644:	41dbd1b3          	sra	gp,s7,t4

0000000080006648 <i_6300>:
    80006648:	017ef463          	bleu	s7,t4,80006650 <i_6302>

000000008000664c <i_6301>:
    8000664c:	017fb1b3          	sltu	gp,t6,s7

0000000080006650 <i_6302>:
    80006650:	ffa14e83          	lbu	t4,-6(sp)

0000000080006654 <i_6303>:
    80006654:	01d727b3          	slt	a5,a4,t4

0000000080006658 <i_6304>:
    80006658:	0ef11323          	sh	a5,230(sp)

000000008000665c <i_6305>:
    8000665c:	00415283          	lhu	t0,4(sp)

0000000080006660 <i_6306>:
    80006660:	0037d463          	ble	gp,a5,80006668 <i_6308>

0000000080006664 <i_6307>:
    80006664:	01d7fa63          	bleu	t4,a5,80006678 <i_6312>

0000000080006668 <i_6308>:
    80006668:	0052ec63          	bltu	t0,t0,80006680 <i_6314>

000000008000666c <i_6309>:
    8000666c:	01d18c63          	beq	gp,t4,80006684 <i_6315>

0000000080006670 <i_6310>:
    80006670:	ec015303          	lhu	t1,-320(sp)

0000000080006674 <i_6311>:
    80006674:	0232c063          	blt	t0,gp,80006694 <i_6319>

0000000080006678 <i_6312>:
    80006678:	4018581b          	sraiw	a6,a6,0x1

000000008000667c <i_6313>:
    8000667c:	006ec863          	blt	t4,t1,8000668c <i_6317>

0000000080006680 <i_6314>:
    80006680:	005c1a63          	bne	s8,t0,80006694 <i_6319>

0000000080006684 <i_6315>:
    80006684:	0102beb3          	sltu	t4,t0,a6

0000000080006688 <i_6316>:
    80006688:	0061d263          	ble	t1,gp,8000668c <i_6317>

000000008000668c <i_6317>:
    8000668c:	ed215b83          	lhu	s7,-302(sp)

0000000080006690 <i_6318>:
    80006690:	13016e83          	lwu	t4,304(sp)

0000000080006694 <i_6319>:
    80006694:	03d7d263          	ble	t4,a5,800066b8 <i_6328>

0000000080006698 <i_6320>:
    80006698:	18813e03          	ld	t3,392(sp)

000000008000669c <i_6321>:
    8000669c:	01f14083          	lbu	ra,31(sp)

00000000800066a0 <i_6322>:
    800066a0:	5d8e3793          	sltiu	a5,t3,1496

00000000800066a4 <i_6323>:
    800066a4:	03c0ee33          	rem	t3,ra,t3

00000000800066a8 <i_6324>:
    800066a8:	01100093          	li	ra,17

00000000800066ac <i_6325>:
    800066ac:	001e59bb          	srlw	s3,t3,ra

00000000800066b0 <i_6326>:
    800066b0:	f3c10e23          	sb	t3,-196(sp)

00000000800066b4 <i_6327>:
    800066b4:	03b9ee33          	rem	t3,s3,s11

00000000800066b8 <i_6328>:
    800066b8:	f7312e23          	sw	s3,-132(sp)

00000000800066bc <i_6329>:
    800066bc:	00108263          	beq	ra,ra,800066c0 <i_6330>

00000000800066c0 <i_6330>:
    800066c0:	0d011083          	lh	ra,208(sp)

00000000800066c4 <i_6331>:
    800066c4:	f0113823          	sd	ra,-240(sp)

00000000800066c8 <i_6332>:
    800066c8:	2d0d09b7          	lui	s3,0x2d0d0

00000000800066cc <i_6333>:
    800066cc:	0ea10083          	lb	ra,234(sp)

00000000800066d0 <i_6334>:
    800066d0:	19a15e83          	lhu	t4,410(sp)

00000000800066d4 <i_6335>:
    800066d4:	e8111b23          	sh	ra,-362(sp)

00000000800066d8 <i_6336>:
    800066d8:	1a810083          	lb	ra,424(sp)

00000000800066dc <i_6337>:
    800066dc:	e9813e83          	ld	t4,-360(sp)

00000000800066e0 <i_6338>:
    800066e0:	fc113023          	sd	ra,-64(sp)

00000000800066e4 <i_6339>:
    800066e4:	02b00413          	li	s0,43

00000000800066e8 <i_6340>:
    800066e8:	008a1a33          	sll	s4,s4,s0

00000000800066ec <i_6341>:
    800066ec:	e8813823          	sd	s0,-368(sp)

00000000800066f0 <i_6342>:
    800066f0:	027a0463          	beq	s4,t2,80006718 <i_6352>

00000000800066f4 <i_6343>:
    800066f4:	f94100a3          	sb	s4,-127(sp)

00000000800066f8 <i_6344>:
    800066f8:	00145e63          	ble	ra,s0,80006714 <i_6351>

00000000800066fc <i_6345>:
    800066fc:	f36ea393          	slti	t2,t4,-202

0000000080006700 <i_6346>:
    80006700:	18110a23          	sb	ra,404(sp)

0000000080006704 <i_6347>:
    80006704:	1a214403          	lbu	s0,418(sp)

0000000080006708 <i_6348>:
    80006708:	0073ee63          	bltu	t2,t2,80006724 <i_6355>

000000008000670c <i_6349>:
    8000670c:	1a810ca3          	sb	s0,441(sp)

0000000080006710 <i_6350>:
    80006710:	02741063          	bne	s0,t2,80006730 <i_6358>

0000000080006714 <i_6351>:
    80006714:	03147063          	bleu	a7,s0,80006734 <i_6359>

0000000080006718 <i_6352>:
    80006718:	f313b413          	sltiu	s0,t2,-207

000000008000671c <i_6353>:
    8000671c:	14813c23          	sd	s0,344(sp)

0000000080006720 <i_6354>:
    80006720:	028445b3          	div	a1,s0,s0

0000000080006724 <i_6355>:
    80006724:	001fd41b          	srliw	s0,t6,0x1

0000000080006728 <i_6356>:
    80006728:	1e611a03          	lh	s4,486(sp)

000000008000672c <i_6357>:
    8000672c:	034f1063          	bne	t5,s4,8000674c <i_6365>

0000000080006730 <i_6358>:
    80006730:	01000413          	li	s0,16

0000000080006734 <i_6359>:
    80006734:	00845a3b          	srlw	s4,s0,s0

0000000080006738 <i_6360>:
    80006738:	f0013503          	ld	a0,-256(sp)

000000008000673c <i_6361>:
    8000673c:	01456663          	bltu	a0,s4,80006748 <i_6364>

0000000080006740 <i_6362>:
    80006740:	012a6463          	bltu	s4,s2,80006748 <i_6364>

0000000080006744 <i_6363>:
    80006744:	15011a03          	lh	s4,336(sp)

0000000080006748 <i_6364>:
    80006748:	014a0463          	beq	s4,s4,80006750 <i_6366>

000000008000674c <i_6365>:
    8000674c:	ef412823          	sw	s4,-272(sp)

0000000080006750 <i_6366>:
    80006750:	02ea2a33          	mulhsu	s4,s4,a4

0000000080006754 <i_6367>:
    80006754:	00e00a13          	li	s4,14

0000000080006758 <i_6368>:
    80006758:	0142d4b3          	srl	s1,t0,s4

000000008000675c <i_6369>:
    8000675c:	8c000293          	li	t0,-1856

0000000080006760 <i_6370>:
    80006760:	8d300513          	li	a0,-1837

0000000080006764 <i_6371>:
    80006764:	029a44bb          	divw	s1,s4,s1

0000000080006768 <i_6372>:
    80006768:	2775adb7          	lui	s11,0x2775a

000000008000676c <i_6373>:
    8000676c:	01b94c63          	blt	s2,s11,80006784 <i_6379>

0000000080006770 <i_6374>:
    80006770:	fbb11123          	sh	s11,-94(sp)

0000000080006774 <i_6375>:
    80006774:	d0ba6993          	ori	s3,s4,-757

0000000080006778 <i_6376>:
    80006778:	004dd993          	srli	s3,s11,0x4

000000008000677c <i_6377>:
    8000677c:	00331313          	slli	t1,t1,0x3

0000000080006780 <i_6378>:
    80006780:	007d03b3          	add	t2,s10,t2

0000000080006784 <i_6379>:
    80006784:	f8211a23          	sh	sp,-108(sp)

0000000080006788 <i_6380>:
    80006788:	00737333          	and	t1,t1,t2

000000008000678c <i_6381>:
    8000678c:	035d7397          	auipc	t2,0x35d7

0000000080006790 <i_6382>:
    80006790:	ec114303          	lbu	t1,-319(sp)

0000000080006794 <i_6383>:
    80006794:	0261fdbb          	remuw	s11,gp,t1

0000000080006798 <i_6384>:
    80006798:	00608e63          	beq	ra,t1,800067b4 <i_6390>

000000008000679c <i_6385>:
    8000679c:	00128293          	addi	t0,t0,1
    800067a0:	fca2e2e3          	bltu	t0,a0,80006764 <i_6371>

00000000800067a4 <i_6386>:
    800067a4:	f3714083          	lbu	ra,-201(sp)

00000000800067a8 <i_6387>:
    800067a8:	02d3aeb3          	mulhsu	t4,t2,a3

00000000800067ac <i_6388>:
    800067ac:	41be0ebb          	subw	t4,t3,s11

00000000800067b0 <i_6389>:
    800067b0:	e1b40093          	addi	ra,s0,-485

00000000800067b4 <i_6390>:
    800067b4:	1bb10f23          	sb	s11,446(sp)

00000000800067b8 <i_6391>:
    800067b8:	03013483          	ld	s1,48(sp)

00000000800067bc <i_6392>:
    800067bc:	026ef0b3          	remu	ra,t4,t1

00000000800067c0 <i_6393>:
    800067c0:	082ec213          	xori	tp,t4,130

00000000800067c4 <i_6394>:
    800067c4:	01c00b93          	li	s7,28

00000000800067c8 <i_6395>:
    800067c8:	017ed23b          	srlw	tp,t4,s7

00000000800067cc <i_6396>:
    800067cc:	01d09263          	bne	ra,t4,800067d0 <i_6397>

00000000800067d0 <i_6397>:
    800067d0:	03013c23          	sd	a6,56(sp)

00000000800067d4 <i_6398>:
    800067d4:	e5414b83          	lbu	s7,-428(sp)

00000000800067d8 <i_6399>:
    800067d8:	e5d11923          	sh	t4,-430(sp)

00000000800067dc <i_6400>:
    800067dc:	48bebe93          	sltiu	t4,t4,1163

00000000800067e0 <i_6401>:
    800067e0:	00dac5b3          	xor	a1,s5,a3

00000000800067e4 <i_6402>:
    800067e4:	0073d463          	ble	t2,t2,800067ec <i_6404>

00000000800067e8 <i_6403>:
    800067e8:	403e833b          	subw	t1,t4,gp

00000000800067ec <i_6404>:
    800067ec:	023cf263          	bleu	gp,s9,80006810 <i_6413>

00000000800067f0 <i_6405>:
    800067f0:	f6b11123          	sh	a1,-158(sp)

00000000800067f4 <i_6406>:
    800067f4:	00100813          	li	a6,1

00000000800067f8 <i_6407>:
    800067f8:	410355b3          	sra	a1,t1,a6

00000000800067fc <i_6408>:
    800067fc:	1300e293          	ori	t0,ra,304

0000000080006800 <i_6409>:
    80006800:	03033bb3          	mulhu	s7,t1,a6

0000000080006804 <i_6410>:
    80006804:	10a11303          	lh	t1,266(sp)

0000000080006808 <i_6411>:
    80006808:	ed013823          	sd	a6,-304(sp)

000000008000680c <i_6412>:
    8000680c:	00685463          	ble	t1,a6,80006814 <i_6414>

0000000080006810 <i_6413>:
    80006810:	00637a63          	bleu	t1,t1,80006824 <i_6418>

0000000080006814 <i_6414>:
    80006814:	00686863          	bltu	a6,t1,80006824 <i_6418>

0000000080006818 <i_6415>:
    80006818:	025342bb          	divw	t0,t1,t0

000000008000681c <i_6416>:
    8000681c:	01030e63          	beq	t1,a6,80006838 <i_6423>

0000000080006820 <i_6417>:
    80006820:	f7812e83          	lw	t4,-136(sp)

0000000080006824 <i_6418>:
    80006824:	13414783          	lbu	a5,308(sp)

0000000080006828 <i_6419>:
    80006828:	03885433          	divu	s0,a6,s8

000000008000682c <i_6420>:
    8000682c:	00500793          	li	a5,5

0000000080006830 <i_6421>:
    80006830:	00f79e3b          	sllw	t3,a5,a5

0000000080006834 <i_6422>:
    80006834:	c075841b          	addiw	s0,a1,-1017

0000000080006838 <i_6423>:
    80006838:	1a512023          	sw	t0,416(sp)

000000008000683c <i_6424>:
    8000683c:	a4b2e293          	ori	t0,t0,-1461

0000000080006840 <i_6425>:
    80006840:	03c2de3b          	divuw	t3,t0,t3

0000000080006844 <i_6426>:
    80006844:	fdb10283          	lb	t0,-37(sp)

0000000080006848 <i_6427>:
    80006848:	00f8e2b3          	or	t0,a7,a5

000000008000684c <i_6428>:
    8000684c:	0259e9bb          	remw	s3,s3,t0

0000000080006850 <i_6429>:
    80006850:	19313423          	sd	s3,392(sp)

0000000080006854 <i_6430>:
    80006854:	f7612623          	sw	s6,-148(sp)

0000000080006858 <i_6431>:
    80006858:	3442f293          	andi	t0,t0,836

000000008000685c <i_6432>:
    8000685c:	77c00d93          	li	s11,1916

0000000080006860 <i_6433>:
    80006860:	78300993          	li	s3,1923

0000000080006864 <i_6434>:
    80006864:	01600513          	li	a0,22

0000000080006868 <i_6435>:
    80006868:	00a2d333          	srl	t1,t0,a0

000000008000686c <i_6436>:
    8000686c:	0301ce33          	div	t3,gp,a6

0000000080006870 <i_6437>:
    80006870:	0052b7b3          	sltu	a5,t0,t0

0000000080006874 <i_6438>:
    80006874:	001d8d93          	addi	s11,s11,1 # 2775a001 <main-0x588a5fff>
    80006878:	ff3dc6e3          	blt	s11,s3,80006864 <i_6434>

000000008000687c <i_6439>:
    8000687c:	641d0097          	auipc	ra,0x641d0

0000000080006880 <i_6440>:
    80006880:	fcf107a3          	sb	a5,-49(sp)

0000000080006884 <i_6441>:
    80006884:	f1816503          	lwu	a0,-232(sp)

0000000080006888 <i_6442>:
    80006888:	0012e863          	bltu	t0,ra,80006898 <i_6446>

000000008000688c <i_6443>:
    8000688c:	0285543b          	divuw	s0,a0,s0

0000000080006890 <i_6444>:
    80006890:	04514083          	lbu	ra,69(sp)

0000000080006894 <i_6445>:
    80006894:	40538bbb          	subw	s7,t2,t0

0000000080006898 <i_6446>:
    80006898:	0052fc63          	bleu	t0,t0,800068b0 <i_6452>

000000008000689c <i_6447>:
    8000689c:	04110923          	sb	ra,82(sp)

00000000800068a0 <i_6448>:
    800068a0:	e2310183          	lb	gp,-477(sp)

00000000800068a4 <i_6449>:
    800068a4:	0059fa63          	bleu	t0,s3,800068b8 <i_6454>

00000000800068a8 <i_6450>:
    800068a8:	04016b83          	lwu	s7,64(sp)

00000000800068ac <i_6451>:
    800068ac:	e2816483          	lwu	s1,-472(sp)

00000000800068b0 <i_6452>:
    800068b0:	03bbd83b          	divuw	a6,s7,s11

00000000800068b4 <i_6453>:
    800068b4:	01700813          	li	a6,23

00000000800068b8 <i_6454>:
    800068b8:	010b9bbb          	sllw	s7,s7,a6

00000000800068bc <i_6455>:
    800068bc:	f9412503          	lw	a0,-108(sp)

00000000800068c0 <i_6456>:
    800068c0:	00948263          	beq	s1,s1,800068c4 <i_6457>

00000000800068c4 <i_6457>:
    800068c4:	10811403          	lh	s0,264(sp)

00000000800068c8 <i_6458>:
    800068c8:	0104b433          	sltu	s0,s1,a6

00000000800068cc <i_6459>:
    800068cc:	1e016b83          	lwu	s7,480(sp)

00000000800068d0 <i_6460>:
    800068d0:	01750263          	beq	a0,s7,800068d4 <i_6461>

00000000800068d4 <i_6461>:
    800068d4:	00300b93          	li	s7,3

00000000800068d8 <i_6462>:
    800068d8:	01749e3b          	sllw	t3,s1,s7

00000000800068dc <i_6463>:
    800068dc:	f1e15183          	lhu	gp,-226(sp)

00000000800068e0 <i_6464>:
    800068e0:	e3c13c23          	sd	t3,-456(sp)

00000000800068e4 <i_6465>:
    800068e4:	18113c23          	sd	ra,408(sp)

00000000800068e8 <i_6466>:
    800068e8:	07614b83          	lbu	s7,118(sp)

00000000800068ec <i_6467>:
    800068ec:	16312223          	sw	gp,356(sp)

00000000800068f0 <i_6468>:
    800068f0:	f5712e23          	sw	s7,-164(sp)

00000000800068f4 <i_6469>:
    800068f4:	01719a63          	bne	gp,s7,80006908 <i_6474>

00000000800068f8 <i_6470>:
    800068f8:	017b8263          	beq	s7,s7,800068fc <i_6471>

00000000800068fc <i_6471>:
    800068fc:	037bc33b          	divw	t1,s7,s7

0000000080006900 <i_6472>:
    80006900:	1d012583          	lw	a1,464(sp)

0000000080006904 <i_6473>:
    80006904:	e8510da3          	sb	t0,-357(sp)

0000000080006908 <i_6474>:
    80006908:	08612e23          	sw	t1,156(sp)

000000008000690c <i_6475>:
    8000690c:	001bd99b          	srliw	s3,s7,0x1

0000000080006910 <i_6476>:
    80006910:	00b35a63          	ble	a1,t1,80006924 <i_6481>

0000000080006914 <i_6477>:
    80006914:	f3710aa3          	sb	s7,-203(sp)

0000000080006918 <i_6478>:
    80006918:	032b8063          	beq	s7,s2,80006938 <i_6486>

000000008000691c <i_6479>:
    8000691c:	06016983          	lwu	s3,96(sp)

0000000080006920 <i_6480>:
    80006920:	00a00813          	li	a6,10

0000000080006924 <i_6481>:
    80006924:	010b9bbb          	sllw	s7,s7,a6

0000000080006928 <i_6482>:
    80006928:	09012803          	lw	a6,144(sp)

000000008000692c <i_6483>:
    8000692c:	0379f263          	bleu	s7,s3,80006950 <i_6492>

0000000080006930 <i_6484>:
    80006930:	01798863          	beq	s3,s7,80006940 <i_6488>

0000000080006934 <i_6485>:
    80006934:	030bcbb3          	div	s7,s7,a6

0000000080006938 <i_6486>:
    80006938:	03085833          	divu	a6,a6,a6

000000008000693c <i_6487>:
    8000693c:	03300b93          	li	s7,51

0000000080006940 <i_6488>:
    80006940:	01711bb3          	sll	s7,sp,s7

0000000080006944 <i_6489>:
    80006944:	00200d93          	li	s11,2

0000000080006948 <i_6490>:
    80006948:	41bbd7b3          	sra	a5,s7,s11

000000008000694c <i_6491>:
    8000694c:	e3011823          	sh	a6,-464(sp)

0000000080006950 <i_6492>:
    80006950:	030b8063          	beq	s7,a6,80006970 <i_6500>

0000000080006954 <i_6493>:
    80006954:	00fbcc63          	blt	s7,a5,8000696c <i_6499>

0000000080006958 <i_6494>:
    80006958:	0c811783          	lh	a5,200(sp)

000000008000695c <i_6495>:
    8000695c:	e5013803          	ld	a6,-432(sp)

0000000080006960 <i_6496>:
    80006960:	1d214303          	lbu	t1,466(sp)

0000000080006964 <i_6497>:
    80006964:	f5e58db7          	lui	s11,0xf5e58

0000000080006968 <i_6498>:
    80006968:	18612e23          	sw	t1,412(sp)

000000008000696c <i_6499>:
    8000696c:	401dd19b          	sraiw	gp,s11,0x1

0000000080006970 <i_6500>:
    80006970:	05013783          	ld	a5,80(sp)

0000000080006974 <i_6501>:
    80006974:	e1a11403          	lh	s0,-486(sp)

0000000080006978 <i_6502>:
    80006978:	e5910803          	lb	a6,-423(sp)

000000008000697c <i_6503>:
    8000697c:	13215403          	lhu	s0,306(sp)

0000000080006980 <i_6504>:
    80006980:	02887463          	bleu	s0,a6,800069a8 <i_6514>

0000000080006984 <i_6505>:
    80006984:	f4013803          	ld	a6,-192(sp)

0000000080006988 <i_6506>:
    80006988:	fe211803          	lh	a6,-30(sp)

000000008000698c <i_6507>:
    8000698c:	03300813          	li	a6,51

0000000080006990 <i_6508>:
    80006990:	010292b3          	sll	t0,t0,a6

0000000080006994 <i_6509>:
    80006994:	02700d93          	li	s11,39

0000000080006998 <i_6510>:
    80006998:	41b2d7b3          	sra	a5,t0,s11

000000008000699c <i_6511>:
    8000699c:	e8114403          	lbu	s0,-383(sp)

00000000800069a0 <i_6512>:
    800069a0:	14615a03          	lhu	s4,326(sp)

00000000800069a4 <i_6513>:
    800069a4:	f01a029b          	addiw	t0,s4,-255

00000000800069a8 <i_6514>:
    800069a8:	ff016d83          	lwu	s11,-16(sp)

00000000800069ac <i_6515>:
    800069ac:	82048d97          	auipc	s11,0x82048

00000000800069b0 <i_6516>:
    800069b0:	05410c23          	sb	s4,88(sp)

00000000800069b4 <i_6517>:
    800069b4:	ec512c23          	sw	t0,-296(sp)

00000000800069b8 <i_6518>:
    800069b8:	014df263          	bleu	s4,s11,800069bc <i_6519>

00000000800069bc <i_6519>:
    800069bc:	ef4102a3          	sb	s4,-283(sp)

00000000800069c0 <i_6520>:
    800069c0:	03d00a13          	li	s4,61

00000000800069c4 <i_6521>:
    800069c4:	014a5233          	srl	tp,s4,s4

00000000800069c8 <i_6522>:
    800069c8:	e3413c23          	sd	s4,-456(sp)

00000000800069cc <i_6523>:
    800069cc:	004a1e63          	bne	s4,tp,800069e8 <i_6530>

00000000800069d0 <i_6524>:
    800069d0:	18114383          	lbu	t2,385(sp)

00000000800069d4 <i_6525>:
    800069d4:	007a7a63          	bleu	t2,s4,800069e8 <i_6530>

00000000800069d8 <i_6526>:
    800069d8:	014a1263          	bne	s4,s4,800069dc <i_6527>

00000000800069dc <i_6527>:
    800069dc:	1b413823          	sd	s4,432(sp)

00000000800069e0 <i_6528>:
    800069e0:	02400813          	li	a6,36

00000000800069e4 <i_6529>:
    800069e4:	010257b3          	srl	a5,tp,a6

00000000800069e8 <i_6530>:
    800069e8:	1a812803          	lw	a6,424(sp)

00000000800069ec <i_6531>:
    800069ec:	06016083          	lwu	ra,96(sp)

00000000800069f0 <i_6532>:
    800069f0:	17313c23          	sd	s3,376(sp)

00000000800069f4 <i_6533>:
    800069f4:	02422e33          	mulhsu	t3,tp,tp

00000000800069f8 <i_6534>:
    800069f8:	1d815403          	lhu	s0,472(sp)

00000000800069fc <i_6535>:
    800069fc:	10314203          	lbu	tp,259(sp)

0000000080006a00 <i_6536>:
    80006a00:	16412023          	sw	tp,352(sp)

0000000080006a04 <i_6537>:
    80006a04:	06016483          	lwu	s1,96(sp)

0000000080006a08 <i_6538>:
    80006a08:	f4f10e83          	lb	t4,-177(sp)

0000000080006a0c <i_6539>:
    80006a0c:	0144e263          	bltu	s1,s4,80006a10 <i_6540>

0000000080006a10 <i_6540>:
    80006a10:	f2e10a03          	lb	s4,-210(sp)

0000000080006a14 <i_6541>:
    80006a14:	e4813483          	ld	s1,-440(sp)

0000000080006a18 <i_6542>:
    80006a18:	04911023          	sh	s1,64(sp)

0000000080006a1c <i_6543>:
    80006a1c:	01428db3          	add	s11,t0,s4

0000000080006a20 <i_6544>:
    80006a20:	17b11823          	sh	s11,368(sp)

0000000080006a24 <i_6545>:
    80006a24:	fe813a03          	ld	s4,-24(sp)

0000000080006a28 <i_6546>:
    80006a28:	e2912623          	sw	s1,-468(sp)

0000000080006a2c <i_6547>:
    80006a2c:	03611d83          	lh	s11,54(sp)

0000000080006a30 <i_6548>:
    80006a30:	11b12423          	sw	s11,264(sp)

0000000080006a34 <i_6549>:
    80006a34:	00cd9863          	bne	s11,a2,80006a44 <i_6553>

0000000080006a38 <i_6550>:
    80006a38:	55e4c493          	xori	s1,s1,1374

0000000080006a3c <i_6551>:
    80006a3c:	4124e293          	ori	t0,s1,1042

0000000080006a40 <i_6552>:
    80006a40:	01200d93          	li	s11,18

0000000080006a44 <i_6553>:
    80006a44:	01b4ddbb          	srlw	s11,s1,s11

0000000080006a48 <i_6554>:
    80006a48:	0bb11223          	sh	s11,164(sp)

0000000080006a4c <i_6555>:
    80006a4c:	7d600513          	li	a0,2006

0000000080006a50 <i_6556>:
    80006a50:	7df00493          	li	s1,2015

0000000080006a54 <i_6557>:
    80006a54:	ef3103a3          	sb	s3,-281(sp)

0000000080006a58 <i_6558>:
    80006a58:	03bd8bb3          	mul	s7,s11,s11

0000000080006a5c <i_6559>:
    80006a5c:	4c4b899b          	addiw	s3,s7,1220

0000000080006a60 <i_6560>:
    80006a60:	f7011d83          	lh	s11,-144(sp)

0000000080006a64 <i_6561>:
    80006a64:	05011323          	sh	a6,70(sp)

0000000080006a68 <i_6562>:
    80006a68:	00150513          	addi	a0,a0,1
    80006a6c:	fe9564e3          	bltu	a0,s1,80006a54 <i_6557>

0000000080006a70 <i_6563>:
    80006a70:	ff010d83          	lb	s11,-16(sp)

0000000080006a74 <i_6564>:
    80006a74:	01384463          	blt	a6,s3,80006a7c <i_6566>

0000000080006a78 <i_6565>:
    80006a78:	07310ba3          	sb	s3,119(sp)

0000000080006a7c <i_6566>:
    80006a7c:	09c16983          	lwu	s3,156(sp)

0000000080006a80 <i_6567>:
    80006a80:	01b9adb3          	slt	s11,s3,s11

0000000080006a84 <i_6568>:
    80006a84:	00000013          	nop

0000000080006a88 <i_6569>:
    80006a88:	00000013          	nop

0000000080006a8c <i_6570>:
    80006a8c:	7d400813          	li	a6,2004

0000000080006a90 <i_6571>:
    80006a90:	7d800b93          	li	s7,2008

0000000080006a94 <i_6572>:
    80006a94:	01584263          	blt	a6,s5,80006a98 <i_6573>

0000000080006a98 <i_6573>:
    80006a98:	d9883993          	sltiu	s3,a6,-616

0000000080006a9c <i_6574>:
    80006a9c:	11211983          	lh	s3,274(sp)

0000000080006aa0 <i_6575>:
    80006aa0:	e7710123          	sb	s7,-414(sp)

0000000080006aa4 <i_6576>:
    80006aa4:	01013423          	sd	a6,8(sp)

0000000080006aa8 <i_6577>:
    80006aa8:	efe5e593          	ori	a1,a1,-258

0000000080006aac <i_6578>:
    80006aac:	05016383          	lwu	t2,80(sp)

0000000080006ab0 <i_6579>:
    80006ab0:	04416783          	lwu	a5,68(sp)

0000000080006ab4 <i_6580>:
    80006ab4:	1b312223          	sw	s3,420(sp)

0000000080006ab8 <i_6581>:
    80006ab8:	00180813          	addi	a6,a6,1
    80006abc:	fd781ce3          	bne	a6,s7,80006a94 <i_6572>

0000000080006ac0 <i_6582>:
    80006ac0:	00000013          	nop

0000000080006ac4 <i_6583>:
    80006ac4:	1a015a03          	lhu	s4,416(sp)

0000000080006ac8 <i_6584>:
    80006ac8:	e4810583          	lb	a1,-440(sp)

0000000080006acc <i_6585>:
    80006acc:	00ba2eb3          	slt	t4,s4,a1

0000000080006ad0 <i_6586>:
    80006ad0:	02ba0a3b          	mulw	s4,s4,a1

0000000080006ad4 <i_6587>:
    80006ad4:	04c15983          	lhu	s3,76(sp)

0000000080006ad8 <i_6588>:
    80006ad8:	1d413823          	sd	s4,464(sp)

0000000080006adc <i_6589>:
    80006adc:	0dd12a23          	sw	t4,212(sp)

0000000080006ae0 <i_6590>:
    80006ae0:	285fca17          	auipc	s4,0x285fc

0000000080006ae4 <i_6591>:
    80006ae4:	02b9c0bb          	divw	ra,s3,a1

0000000080006ae8 <i_6592>:
    80006ae8:	01b2d663          	ble	s11,t0,80006af4 <i_6595>

0000000080006aec <i_6593>:
    80006aec:	f5016a03          	lwu	s4,-176(sp)

0000000080006af0 <i_6594>:
    80006af0:	24e98093          	addi	ra,s3,590 # 2d0d024e <main-0x52f2fdb2>

0000000080006af4 <i_6595>:
    80006af4:	0219c463          	blt	s3,ra,80006b1c <i_6605>

0000000080006af8 <i_6596>:
    80006af8:	00a00093          	li	ra,10

0000000080006afc <i_6597>:
    80006afc:	00181833          	sll	a6,a6,ra

0000000080006b00 <i_6598>:
    80006b00:	0210deb3          	divu	t4,ra,ra

0000000080006b04 <i_6599>:
    80006b04:	13d13023          	sd	t4,288(sp)

0000000080006b08 <i_6600>:
    80006b08:	14e14283          	lbu	t0,334(sp)

0000000080006b0c <i_6601>:
    80006b0c:	00000013          	nop

0000000080006b10 <i_6602>:
    80006b10:	09c11a03          	lh	s4,156(sp)

0000000080006b14 <i_6603>:
    80006b14:	e8611803          	lh	a6,-378(sp)

0000000080006b18 <i_6604>:
    80006b18:	0332eeb3          	rem	t4,t0,s3

0000000080006b1c <i_6605>:
    80006b1c:	00000013          	nop

0000000080006b20 <i_6606>:
    80006b20:	00000013          	nop

0000000080006b24 <i_6607>:
    80006b24:	85400993          	li	s3,-1964

0000000080006b28 <i_6608>:
    80006b28:	85c00d93          	li	s11,-1956

0000000080006b2c <i_6609>:
    80006b2c:	00412e83          	lw	t4,4(sp)

0000000080006b30 <i_6610>:
    80006b30:	01210a03          	lb	s4,18(sp)

0000000080006b34 <i_6611>:
    80006b34:	001efe63          	bleu	ra,t4,80006b50 <i_6617>

0000000080006b38 <i_6612>:
    80006b38:	00198993          	addi	s3,s3,1
    80006b3c:	ffb9c8e3          	blt	s3,s11,80006b2c <i_6609>

0000000080006b40 <i_6613>:
    80006b40:	05e15583          	lhu	a1,94(sp)

0000000080006b44 <i_6614>:
    80006b44:	e4b11b23          	sh	a1,-426(sp)

0000000080006b48 <i_6615>:
    80006b48:	001b8bb3          	add	s7,s7,ra

0000000080006b4c <i_6616>:
    80006b4c:	1b713823          	sd	s7,432(sp)

0000000080006b50 <i_6617>:
    80006b50:	fff14583          	lbu	a1,-1(sp)

0000000080006b54 <i_6618>:
    80006b54:	15514d83          	lbu	s11,341(sp)

0000000080006b58 <i_6619>:
    80006b58:	b9a2ea37          	lui	s4,0xb9a2e

0000000080006b5c <i_6620>:
    80006b5c:	0255bbb3          	mulhu	s7,a1,t0

0000000080006b60 <i_6621>:
    80006b60:	0e013183          	ld	gp,224(sp)

0000000080006b64 <i_6622>:
    80006b64:	01c16383          	lwu	t2,28(sp)

0000000080006b68 <i_6623>:
    80006b68:	1c211d83          	lh	s11,450(sp)

0000000080006b6c <i_6624>:
    80006b6c:	02cdcdbb          	divw	s11,s11,a2

0000000080006b70 <i_6625>:
    80006b70:	1c113023          	sd	ra,448(sp)

0000000080006b74 <i_6626>:
    80006b74:	e2313c23          	sd	gp,-456(sp)

0000000080006b78 <i_6627>:
    80006b78:	007d8663          	beq	s11,t2,80006b84 <i_6630>

0000000080006b7c <i_6628>:
    80006b7c:	0075c833          	xor	a6,a1,t2

0000000080006b80 <i_6629>:
    80006b80:	03785263          	ble	s7,a6,80006ba4 <i_6638>

0000000080006b84 <i_6630>:
    80006b84:	f1a10aa3          	sb	s10,-235(sp)

0000000080006b88 <i_6631>:
    80006b88:	0a013b83          	ld	s7,160(sp)

0000000080006b8c <i_6632>:
    80006b8c:	e9812203          	lw	tp,-360(sp)

0000000080006b90 <i_6633>:
    80006b90:	18712c23          	sw	t2,408(sp)

0000000080006b94 <i_6634>:
    80006b94:	40255a1b          	sraiw	s4,a0,0x2

0000000080006b98 <i_6635>:
    80006b98:	17314b83          	lbu	s7,371(sp)

0000000080006b9c <i_6636>:
    80006b9c:	027bd3b3          	divu	t2,s7,t2

0000000080006ba0 <i_6637>:
    80006ba0:	187102a3          	sb	t2,389(sp)

0000000080006ba4 <i_6638>:
    80006ba4:	18e11b83          	lh	s7,398(sp)

0000000080006ba8 <i_6639>:
    80006ba8:	00000013          	nop

0000000080006bac <i_6640>:
    80006bac:	81300513          	li	a0,-2029

0000000080006bb0 <i_6641>:
    80006bb0:	81e00e93          	li	t4,-2018

0000000080006bb4 <i_6642>:
    80006bb4:	ec114383          	lbu	t2,-319(sp)

0000000080006bb8 <i_6643>:
    80006bb8:	1a713423          	sd	t2,424(sp)

0000000080006bbc <i_6644>:
    80006bbc:	00900a13          	li	s4,9

0000000080006bc0 <i_6645>:
    80006bc0:	01429a3b          	sllw	s4,t0,s4

0000000080006bc4 <i_6646>:
    80006bc4:	00150513          	addi	a0,a0,1
    80006bc8:	ffd546e3          	blt	a0,t4,80006bb4 <i_6642>

0000000080006bcc <i_6647>:
    80006bcc:	0373aa13          	slti	s4,t2,55

0000000080006bd0 <i_6648>:
    80006bd0:	00000013          	nop

0000000080006bd4 <i_6649>:
    80006bd4:	75600213          	li	tp,1878

0000000080006bd8 <i_6650>:
    80006bd8:	75b00093          	li	ra,1883

0000000080006bdc <i_6651>:
    80006bdc:	04815383          	lhu	t2,72(sp)

0000000080006be0 <i_6652>:
    80006be0:	00fa2a33          	slt	s4,s4,a5

0000000080006be4 <i_6653>:
    80006be4:	00000013          	nop

0000000080006be8 <i_6654>:
    80006be8:	f2015783          	lhu	a5,-224(sp)

0000000080006bec <i_6655>:
    80006bec:	1b410a23          	sb	s4,436(sp)

0000000080006bf0 <i_6656>:
    80006bf0:	02742433          	mulhsu	s0,s0,t2

0000000080006bf4 <i_6657>:
    80006bf4:	00640433          	add	s0,s0,t1

0000000080006bf8 <i_6658>:
    80006bf8:	c104041b          	addiw	s0,s0,-1008

0000000080006bfc <i_6659>:
    80006bfc:	fe013403          	ld	s0,-32(sp)

0000000080006c00 <i_6660>:
    80006c00:	00857e63          	bleu	s0,a0,80006c1c <i_6666>

0000000080006c04 <i_6661>:
    80006c04:	f4015403          	lhu	s0,-192(sp)

0000000080006c08 <i_6662>:
    80006c08:	00120213          	addi	tp,tp,1 # daae45bd <_end+0x5aad41a9>
    80006c0c:	fc1248e3          	blt	tp,ra,80006bdc <i_6651>

0000000080006c10 <i_6663>:
    80006c10:	00412803          	lw	a6,4(sp)

0000000080006c14 <i_6664>:
    80006c14:	eb910403          	lb	s0,-327(sp)

0000000080006c18 <i_6665>:
    80006c18:	03d0deb3          	divu	t4,ra,t4

0000000080006c1c <i_6666>:
    80006c1c:	02887463          	bleu	s0,a6,80006c44 <i_6676>

0000000080006c20 <i_6667>:
    80006c20:	0271e063          	bltu	gp,t2,80006c40 <i_6675>

0000000080006c24 <i_6668>:
    80006c24:	0f816b83          	lwu	s7,248(sp)

0000000080006c28 <i_6669>:
    80006c28:	0ac16d83          	lwu	s11,172(sp)

0000000080006c2c <i_6670>:
    80006c2c:	010ede63          	ble	a6,t4,80006c48 <i_6677>

0000000080006c30 <i_6671>:
    80006c30:	028dcdbb          	divw	s11,s11,s0

0000000080006c34 <i_6672>:
    80006c34:	fa210da3          	sb	sp,-69(sp)

0000000080006c38 <i_6673>:
    80006c38:	08812803          	lw	a6,136(sp)

0000000080006c3c <i_6674>:
    80006c3c:	e8c15e83          	lhu	t4,-372(sp)

0000000080006c40 <i_6675>:
    80006c40:	030eae33          	mulhsu	t3,t4,a6

0000000080006c44 <i_6676>:
    80006c44:	030c483b          	divw	a6,s8,a6

0000000080006c48 <i_6677>:
    80006c48:	01085e63          	ble	a6,a6,80006c64 <i_6684>

0000000080006c4c <i_6678>:
    80006c4c:	fe714483          	lbu	s1,-25(sp)

0000000080006c50 <i_6679>:
    80006c50:	08711a23          	sh	t2,148(sp)

0000000080006c54 <i_6680>:
    80006c54:	0f914483          	lbu	s1,249(sp)

0000000080006c58 <i_6681>:
    80006c58:	1a013e03          	ld	t3,416(sp)

0000000080006c5c <i_6682>:
    80006c5c:	0a815203          	lhu	tp,168(sp)

0000000080006c60 <i_6683>:
    80006c60:	ca9e6793          	ori	a5,t3,-855

0000000080006c64 <i_6684>:
    80006c64:	ec412623          	sw	tp,-308(sp)

0000000080006c68 <i_6685>:
    80006c68:	f7e11583          	lh	a1,-130(sp)

0000000080006c6c <i_6686>:
    80006c6c:	ecb11323          	sh	a1,-314(sp)

0000000080006c70 <i_6687>:
    80006c70:	02478233          	mul	tp,a5,tp

0000000080006c74 <i_6688>:
    80006c74:	40125e13          	srai	t3,tp,0x1

0000000080006c78 <i_6689>:
    80006c78:	a6b24093          	xori	ra,tp,-1429

0000000080006c7c <i_6690>:
    80006c7c:	0034121b          	slliw	tp,s0,0x3

0000000080006c80 <i_6691>:
    80006c80:	1a112223          	sw	ra,420(sp)

0000000080006c84 <i_6692>:
    80006c84:	e6b13023          	sd	a1,-416(sp)

0000000080006c88 <i_6693>:
    80006c88:	79500213          	li	tp,1941

0000000080006c8c <i_6694>:
    80006c8c:	7a000393          	li	t2,1952

0000000080006c90 <i_6695>:
    80006c90:	00000013          	nop

0000000080006c94 <i_6696>:
    80006c94:	00000013          	nop

0000000080006c98 <i_6697>:
    80006c98:	01200e93          	li	t4,18

0000000080006c9c <i_6698>:
    80006c9c:	41d25ebb          	sraw	t4,tp,t4

0000000080006ca0 <i_6699>:
    80006ca0:	00120213          	addi	tp,tp,1 # 1 <main-0x7fffffff>
    80006ca4:	fe43d6e3          	ble	tp,t2,80006c90 <i_6695>

0000000080006ca8 <i_6700>:
    80006ca8:	fa914203          	lbu	tp,-87(sp)

0000000080006cac <i_6701>:
    80006cac:	037efbbb          	remuw	s7,t4,s7

0000000080006cb0 <i_6702>:
    80006cb0:	003b9e9b          	slliw	t4,s7,0x3

0000000080006cb4 <i_6703>:
    80006cb4:	01000b93          	li	s7,16

0000000080006cb8 <i_6704>:
    80006cb8:	4171d23b          	sraw	tp,gp,s7

0000000080006cbc <i_6705>:
    80006cbc:	f6411623          	sh	tp,-148(sp)

0000000080006cc0 <i_6706>:
    80006cc0:	14813303          	ld	t1,328(sp)

0000000080006cc4 <i_6707>:
    80006cc4:	037bc263          	blt	s7,s7,80006ce8 <i_6716>

0000000080006cc8 <i_6708>:
    80006cc8:	00630663          	beq	t1,t1,80006cd4 <i_6711>

0000000080006ccc <i_6709>:
    80006ccc:	03736233          	rem	tp,t1,s7

0000000080006cd0 <i_6710>:
    80006cd0:	01724263          	blt	tp,s7,80006cd4 <i_6711>

0000000080006cd4 <i_6711>:
    80006cd4:	2cabb337          	lui	t1,0x2cabb

0000000080006cd8 <i_6712>:
    80006cd8:	1dc12283          	lw	t0,476(sp)

0000000080006cdc <i_6713>:
    80006cdc:	006b8663          	beq	s7,t1,80006ce8 <i_6716>

0000000080006ce0 <i_6714>:
    80006ce0:	2826aa37          	lui	s4,0x2826a

0000000080006ce4 <i_6715>:
    80006ce4:	00529663          	bne	t0,t0,80006cf0 <i_6718>

0000000080006ce8 <i_6716>:
    80006ce8:	1c511c23          	sh	t0,472(sp)

0000000080006cec <i_6717>:
    80006cec:	f3413423          	sd	s4,-216(sp)

0000000080006cf0 <i_6718>:
    80006cf0:	f8513823          	sd	t0,-112(sp)

0000000080006cf4 <i_6719>:
    80006cf4:	00000013          	nop

0000000080006cf8 <i_6720>:
    80006cf8:	79a00293          	li	t0,1946

0000000080006cfc <i_6721>:
    80006cfc:	7a600793          	li	a5,1958

0000000080006d00 <i_6722>:
    80006d00:	19310403          	lb	s0,403(sp)

0000000080006d04 <i_6723>:
    80006d04:	02567063          	bleu	t0,a2,80006d24 <i_6730>

0000000080006d08 <i_6724>:
    80006d08:	f4e14583          	lbu	a1,-178(sp)

0000000080006d0c <i_6725>:
    80006d0c:	e6512423          	sw	t0,-408(sp)

0000000080006d10 <i_6726>:
    80006d10:	1c812223          	sw	s0,452(sp)

0000000080006d14 <i_6727>:
    80006d14:	00128293          	addi	t0,t0,1
    80006d18:	fef2c4e3          	blt	t0,a5,80006d00 <i_6722>

0000000080006d1c <i_6728>:
    80006d1c:	ecf10483          	lb	s1,-305(sp)

0000000080006d20 <i_6729>:
    80006d20:	0145f263          	bleu	s4,a1,80006d24 <i_6730>

0000000080006d24 <i_6730>:
    80006d24:	12012783          	lw	a5,288(sp)

0000000080006d28 <i_6731>:
    80006d28:	00b61263          	bne	a2,a1,80006d2c <i_6732>

0000000080006d2c <i_6732>:
    80006d2c:	02554263          	blt	a0,t0,80006d50 <i_6741>

0000000080006d30 <i_6733>:
    80006d30:	00949e63          	bne	s1,s1,80006d4c <i_6740>

0000000080006d34 <i_6734>:
    80006d34:	02e00313          	li	t1,46

0000000080006d38 <i_6735>:
    80006d38:	4063d1b3          	sra	gp,t2,t1

0000000080006d3c <i_6736>:
    80006d3c:	fc513823          	sd	t0,-48(sp)

0000000080006d40 <i_6737>:
    80006d40:	e9016303          	lwu	t1,-368(sp)

0000000080006d44 <i_6738>:
    80006d44:	1b816a03          	lwu	s4,440(sp)

0000000080006d48 <i_6739>:
    80006d48:	e7c15983          	lhu	s3,-388(sp)

0000000080006d4c <i_6740>:
    80006d4c:	19c10383          	lb	t2,412(sp)

0000000080006d50 <i_6741>:
    80006d50:	0139abb3          	slt	s7,s3,s3

0000000080006d54 <i_6742>:
    80006d54:	0263e3b3          	rem	t2,t2,t1

0000000080006d58 <i_6743>:
    80006d58:	88100293          	li	t0,-1919

0000000080006d5c <i_6744>:
    80006d5c:	88b00213          	li	tp,-1909

0000000080006d60 <i_6745>:
    80006d60:	ee613c23          	sd	t1,-264(sp)

0000000080006d64 <i_6746>:
    80006d64:	00128293          	addi	t0,t0,1
    80006d68:	fe429ce3          	bne	t0,tp,80006d60 <i_6745>

0000000080006d6c <i_6747>:
    80006d6c:	0379f433          	remu	s0,s3,s7

0000000080006d70 <i_6748>:
    80006d70:	00437463          	bleu	tp,t1,80006d78 <i_6750>

0000000080006d74 <i_6749>:
    80006d74:	07c16203          	lwu	tp,124(sp)

0000000080006d78 <i_6750>:
    80006d78:	6e44c813          	xori	a6,s1,1764

0000000080006d7c <i_6751>:
    80006d7c:	00245493          	srli	s1,s0,0x2

0000000080006d80 <i_6752>:
    80006d80:	e4810483          	lb	s1,-440(sp)

0000000080006d84 <i_6753>:
    80006d84:	01f00213          	li	tp,31

0000000080006d88 <i_6754>:
    80006d88:	0044983b          	sllw	a6,s1,tp

0000000080006d8c <i_6755>:
    80006d8c:	029845bb          	divw	a1,a6,s1

0000000080006d90 <i_6756>:
    80006d90:	00486e63          	bltu	a6,tp,80006dac <i_6763>

0000000080006d94 <i_6757>:
    80006d94:	0304e833          	rem	a6,s1,a6

0000000080006d98 <i_6758>:
    80006d98:	11314283          	lbu	t0,275(sp)

0000000080006d9c <i_6759>:
    80006d9c:	0f815483          	lhu	s1,248(sp)

0000000080006da0 <i_6760>:
    80006da0:	02b58063          	beq	a1,a1,80006dc0 <i_6768>

0000000080006da4 <i_6761>:
    80006da4:	e1c16583          	lwu	a1,-484(sp)

0000000080006da8 <i_6762>:
    80006da8:	02b59463          	bne	a1,a1,80006dd0 <i_6772>

0000000080006dac <i_6763>:
    80006dac:	f8614583          	lbu	a1,-122(sp)

0000000080006db0 <i_6764>:
    80006db0:	0241ddb3          	divu	s11,gp,tp

0000000080006db4 <i_6765>:
    80006db4:	bb4da593          	slti	a1,s11,-1100

0000000080006db8 <i_6766>:
    80006db8:	f2813583          	ld	a1,-216(sp)

0000000080006dbc <i_6767>:
    80006dbc:	00b5c463          	blt	a1,a1,80006dc4 <i_6769>

0000000080006dc0 <i_6768>:
    80006dc0:	e2e10d83          	lb	s11,-466(sp)

0000000080006dc4 <i_6769>:
    80006dc4:	13b10483          	lb	s1,315(sp)

0000000080006dc8 <i_6770>:
    80006dc8:	9c0dbd93          	sltiu	s11,s11,-1600

0000000080006dcc <i_6771>:
    80006dcc:	02d00493          	li	s1,45

0000000080006dd0 <i_6772>:
    80006dd0:	00949433          	sll	s0,s1,s1

0000000080006dd4 <i_6773>:
    80006dd4:	00949863          	bne	s1,s1,80006de4 <i_6777>

0000000080006dd8 <i_6774>:
    80006dd8:	0084e463          	bltu	s1,s0,80006de0 <i_6776>

0000000080006ddc <i_6775>:
    80006ddc:	e9813483          	ld	s1,-360(sp)

0000000080006de0 <i_6776>:
    80006de0:	01bdbdb3          	sltu	s11,s11,s11

0000000080006de4 <i_6777>:
    80006de4:	eaa10123          	sb	a0,-350(sp)

0000000080006de8 <i_6778>:
    80006de8:	029d9263          	bne	s11,s1,80006e0c <i_6787>

0000000080006dec <i_6779>:
    80006dec:	ea411483          	lh	s1,-348(sp)

0000000080006df0 <i_6780>:
    80006df0:	029dcdb3          	div	s11,s11,s1

0000000080006df4 <i_6781>:
    80006df4:	1c412283          	lw	t0,452(sp)

0000000080006df8 <i_6782>:
    80006df8:	1dd12c23          	sw	t4,472(sp)

0000000080006dfc <i_6783>:
    80006dfc:	ed211483          	lh	s1,-302(sp)

0000000080006e00 <i_6784>:
    80006e00:	00ddd863          	ble	a3,s11,80006e10 <i_6788>

0000000080006e04 <i_6785>:
    80006e04:	56828993          	addi	s3,t0,1384

0000000080006e08 <i_6786>:
    80006e08:	fa512223          	sw	t0,-92(sp)

0000000080006e0c <i_6787>:
    80006e0c:	00000013          	nop

0000000080006e10 <i_6788>:
    80006e10:	405985b3          	sub	a1,s3,t0

0000000080006e14 <i_6789>:
    80006e14:	00000013          	nop

0000000080006e18 <i_6790>:
    80006e18:	81800293          	li	t0,-2024

0000000080006e1c <i_6791>:
    80006e1c:	82400993          	li	s3,-2012

0000000080006e20 <i_6792>:
    80006e20:	405584b3          	sub	s1,a1,t0

0000000080006e24 <i_6793>:
    80006e24:	f0b11f23          	sh	a1,-226(sp)

0000000080006e28 <i_6794>:
    80006e28:	0b013483          	ld	s1,176(sp)

0000000080006e2c <i_6795>:
    80006e2c:	00000013          	nop

0000000080006e30 <i_6796>:
    80006e30:	f3310523          	sb	s3,-214(sp)

0000000080006e34 <i_6797>:
    80006e34:	018dc263          	blt	s11,s8,80006e38 <i_6798>

0000000080006e38 <i_6798>:
    80006e38:	1f312223          	sw	s3,484(sp)

0000000080006e3c <i_6799>:
    80006e3c:	06c12083          	lw	ra,108(sp)

0000000080006e40 <i_6800>:
    80006e40:	00128293          	addi	t0,t0,1
    80006e44:	fc59dee3          	ble	t0,s3,80006e20 <i_6792>

0000000080006e48 <i_6801>:
    80006e48:	0a113c23          	sd	ra,184(sp)

0000000080006e4c <i_6802>:
    80006e4c:	00100213          	li	tp,1

0000000080006e50 <i_6803>:
    80006e50:	004499bb          	sllw	s3,s1,tp

0000000080006e54 <i_6804>:
    80006e54:	03a00293          	li	t0,58

0000000080006e58 <i_6805>:
    80006e58:	005497b3          	sll	a5,s1,t0

0000000080006e5c <i_6806>:
    80006e5c:	024e74b3          	remu	s1,t3,tp

0000000080006e60 <i_6807>:
    80006e60:	f9c15303          	lhu	t1,-100(sp)

0000000080006e64 <i_6808>:
    80006e64:	02f7c7bb          	divw	a5,a5,a5

0000000080006e68 <i_6809>:
    80006e68:	00000013          	nop

0000000080006e6c <i_6810>:
    80006e6c:	fb210823          	sb	s2,-80(sp)

0000000080006e70 <i_6811>:
    80006e70:	78300293          	li	t0,1923

0000000080006e74 <i_6812>:
    80006e74:	78d00813          	li	a6,1933

0000000080006e78 <i_6813>:
    80006e78:	14411023          	sh	tp,320(sp)

0000000080006e7c <i_6814>:
    80006e7c:	00f78263          	beq	a5,a5,80006e80 <i_6815>

0000000080006e80 <i_6815>:
    80006e80:	00000013          	nop

0000000080006e84 <i_6816>:
    80006e84:	030800bb          	mulw	ra,a6,a6

0000000080006e88 <i_6817>:
    80006e88:	03064663          	blt	a2,a6,80006eb4 <i_6827>

0000000080006e8c <i_6818>:
    80006e8c:	0a113023          	sd	ra,160(sp)

0000000080006e90 <i_6819>:
    80006e90:	03900213          	li	tp,57

0000000080006e94 <i_6820>:
    80006e94:	00481533          	sll	a0,a6,tp

0000000080006e98 <i_6821>:
    80006e98:	024845bb          	divw	a1,a6,tp

0000000080006e9c <i_6822>:
    80006e9c:	01700593          	li	a1,23

0000000080006ea0 <i_6823>:
    80006ea0:	00b550bb          	srlw	ra,a0,a1

0000000080006ea4 <i_6824>:
    80006ea4:	00128293          	addi	t0,t0,1
    80006ea8:	fc5818e3          	bne	a6,t0,80006e78 <i_6813>

0000000080006eac <i_6825>:
    80006eac:	021b9bb3          	mulh	s7,s7,ra

0000000080006eb0 <i_6826>:
    80006eb0:	14416b83          	lwu	s7,324(sp)

0000000080006eb4 <i_6827>:
    80006eb4:	00154263          	blt	a0,ra,80006eb8 <i_6828>

0000000080006eb8 <i_6828>:
    80006eb8:	02b5b5b3          	mulhu	a1,a1,a1

0000000080006ebc <i_6829>:
    80006ebc:	fee15503          	lhu	a0,-18(sp)

0000000080006ec0 <i_6830>:
    80006ec0:	bfa5c593          	xori	a1,a1,-1030

0000000080006ec4 <i_6831>:
    80006ec4:	8c600b93          	li	s7,-1850

0000000080006ec8 <i_6832>:
    80006ec8:	8cd00393          	li	t2,-1843

0000000080006ecc <i_6833>:
    80006ecc:	ea215403          	lhu	s0,-350(sp)

0000000080006ed0 <i_6834>:
    80006ed0:	013509b3          	add	s3,a0,s3

0000000080006ed4 <i_6835>:
    80006ed4:	00698863          	beq	s3,t1,80006ee4 <i_6839>

0000000080006ed8 <i_6836>:
    80006ed8:	13311423          	sh	s3,296(sp)

0000000080006edc <i_6837>:
    80006edc:	40838433          	sub	s0,t2,s0

0000000080006ee0 <i_6838>:
    80006ee0:	00b56463          	bltu	a0,a1,80006ee8 <i_6840>

0000000080006ee4 <i_6839>:
    80006ee4:	17c12783          	lw	a5,380(sp)

0000000080006ee8 <i_6840>:
    80006ee8:	00b14083          	lbu	ra,11(sp)

0000000080006eec <i_6841>:
    80006eec:	01f00093          	li	ra,31

0000000080006ef0 <i_6842>:
    80006ef0:	00141eb3          	sll	t4,s0,ra

0000000080006ef4 <i_6843>:
    80006ef4:	001b8b93          	addi	s7,s7,1
    80006ef8:	fc7beae3          	bltu	s7,t2,80006ecc <i_6833>

0000000080006efc <i_6844>:
    80006efc:	fbe11e83          	lh	t4,-66(sp)

0000000080006f00 <i_6845>:
    80006f00:	0210cebb          	divw	t4,ra,ra

0000000080006f04 <i_6846>:
    80006f04:	03d889b3          	mul	s3,a7,t4

0000000080006f08 <i_6847>:
    80006f08:	e2012403          	lw	s0,-480(sp)

0000000080006f0c <i_6848>:
    80006f0c:	039ed063          	ble	s9,t4,80006f2c <i_6856>

0000000080006f10 <i_6849>:
    80006f10:	07016283          	lwu	t0,112(sp)

0000000080006f14 <i_6850>:
    80006f14:	0fc12e83          	lw	t4,252(sp)

0000000080006f18 <i_6851>:
    80006f18:	01ded263          	ble	t4,t4,80006f1c <i_6852>

0000000080006f1c <i_6852>:
    80006f1c:	eb611503          	lh	a0,-330(sp)

0000000080006f20 <i_6853>:
    80006f20:	00556263          	bltu	a0,t0,80006f24 <i_6854>

0000000080006f24 <i_6854>:
    80006f24:	10012183          	lw	gp,256(sp)

0000000080006f28 <i_6855>:
    80006f28:	16013283          	ld	t0,352(sp)

0000000080006f2c <i_6856>:
    80006f2c:	13015403          	lhu	s0,304(sp)

0000000080006f30 <i_6857>:
    80006f30:	02f1f53b          	remuw	a0,gp,a5

0000000080006f34 <i_6858>:
    80006f34:	03deb433          	mulhu	s0,t4,t4

0000000080006f38 <i_6859>:
    80006f38:	77400e93          	li	t4,1908

0000000080006f3c <i_6860>:
    80006f3c:	77d00193          	li	gp,1917

0000000080006f40 <i_6861>:
    80006f40:	11013783          	ld	a5,272(sp)

0000000080006f44 <i_6862>:
    80006f44:	00000013          	nop

0000000080006f48 <i_6863>:
    80006f48:	fef11623          	sh	a5,-20(sp)

0000000080006f4c <i_6864>:
    80006f4c:	00000013          	nop

0000000080006f50 <i_6865>:
    80006f50:	0e615283          	lhu	t0,230(sp)

0000000080006f54 <i_6866>:
    80006f54:	00000013          	nop

0000000080006f58 <i_6867>:
    80006f58:	001e8e93          	addi	t4,t4,1 # 3ff03ef9 <main-0x400fc107>
    80006f5c:	ffd1f2e3          	bleu	t4,gp,80006f40 <i_6861>

0000000080006f60 <i_6868>:
    80006f60:	06a15403          	lhu	s0,106(sp)

0000000080006f64 <i_6869>:
    80006f64:	0287d433          	divu	s0,a5,s0

0000000080006f68 <i_6870>:
    80006f68:	e8f10d23          	sb	a5,-358(sp)

0000000080006f6c <i_6871>:
    80006f6c:	eef12a23          	sw	a5,-268(sp)

0000000080006f70 <i_6872>:
    80006f70:	4027d79b          	sraiw	a5,a5,0x2

0000000080006f74 <i_6873>:
    80006f74:	02541263          	bne	s0,t0,80006f98 <i_6882>

0000000080006f78 <i_6874>:
    80006f78:	12a15503          	lhu	a0,298(sp)

0000000080006f7c <i_6875>:
    80006f7c:	00a17663          	bleu	a0,sp,80006f88 <i_6878>

0000000080006f80 <i_6876>:
    80006f80:	e4411283          	lh	t0,-444(sp)

0000000080006f84 <i_6877>:
    80006f84:	e2215983          	lhu	s3,-478(sp)

0000000080006f88 <i_6878>:
    80006f88:	0d810da3          	sb	s8,219(sp)

0000000080006f8c <i_6879>:
    80006f8c:	03381263          	bne	a6,s3,80006fb0 <i_6888>

0000000080006f90 <i_6880>:
    80006f90:	01e9d663          	ble	t5,s3,80006f9c <i_6883>

0000000080006f94 <i_6881>:
    80006f94:	03357e3b          	remuw	t3,a0,s3

0000000080006f98 <i_6882>:
    80006f98:	f9015583          	lhu	a1,-112(sp)

0000000080006f9c <i_6883>:
    80006f9c:	80493993          	sltiu	s3,s2,-2044

0000000080006fa0 <i_6884>:
    80006fa0:	19614783          	lbu	a5,406(sp)

0000000080006fa4 <i_6885>:
    80006fa4:	06f103a3          	sb	a5,103(sp)

0000000080006fa8 <i_6886>:
    80006fa8:	00259813          	slli	a6,a1,0x2

0000000080006fac <i_6887>:
    80006fac:	0062f463          	bleu	t1,t0,80006fb4 <i_6889>

0000000080006fb0 <i_6888>:
    80006fb0:	01c85863          	ble	t3,a6,80006fc0 <i_6892>

0000000080006fb4 <i_6889>:
    80006fb4:	00200393          	li	t2,2

0000000080006fb8 <i_6890>:
    80006fb8:	0077d333          	srl	t1,a5,t2

0000000080006fbc <i_6891>:
    80006fbc:	0346f263          	bleu	s4,a3,80006fe0 <i_6900>

0000000080006fc0 <i_6892>:
    80006fc0:	e4e11983          	lh	s3,-434(sp)

0000000080006fc4 <i_6893>:
    80006fc4:	02fe5db3          	divu	s11,t3,a5

0000000080006fc8 <i_6894>:
    80006fc8:	10812483          	lw	s1,264(sp)

0000000080006fcc <i_6895>:
    80006fcc:	12214d83          	lbu	s11,290(sp)

0000000080006fd0 <i_6896>:
    80006fd0:	00a29c63          	bne	t0,a0,80006fe8 <i_6902>

0000000080006fd4 <i_6897>:
    80006fd4:	029e6463          	bltu	t3,s1,80006ffc <i_6907>

0000000080006fd8 <i_6898>:
    80006fd8:	de7da093          	slti	ra,s11,-537

0000000080006fdc <i_6899>:
    80006fdc:	03ce0e33          	mul	t3,t3,t3

0000000080006fe0 <i_6900>:
    80006fe0:	eb711423          	sh	s7,-344(sp)

0000000080006fe4 <i_6901>:
    80006fe4:	01b27663          	bleu	s11,tp,80006ff0 <i_6904>

0000000080006fe8 <i_6902>:
    80006fe8:	01ce4e63          	blt	t3,t3,80007004 <i_6909>

0000000080006fec <i_6903>:
    80006fec:	001084b3          	add	s1,ra,ra

0000000080006ff0 <i_6904>:
    80006ff0:	fd8d0e13          	addi	t3,s10,-40

0000000080006ff4 <i_6905>:
    80006ff4:	029e2e33          	mulhsu	t3,t3,s1

0000000080006ff8 <i_6906>:
    80006ff8:	002bdb93          	srli	s7,s7,0x2

0000000080006ffc <i_6907>:
    80006ffc:	1a111623          	sh	ra,428(sp)

0000000080007000 <i_6908>:
    80007000:	00155313          	srli	t1,a0,0x1

0000000080007004 <i_6909>:
    80007004:	ef016d83          	lwu	s11,-272(sp)

0000000080007008 <i_6910>:
    80007008:	16411e03          	lh	t3,356(sp)

000000008000700c <i_6911>:
    8000700c:	81f00493          	li	s1,-2017

0000000080007010 <i_6912>:
    80007010:	83000093          	li	ra,-2000

0000000080007014 <i_6913>:
    80007014:	03712623          	sw	s7,44(sp)

0000000080007018 <i_6914>:
    80007018:	bd866813          	ori	a6,a2,-1064

000000008000701c <i_6915>:
    8000701c:	e454b993          	sltiu	s3,s1,-443

0000000080007020 <i_6916>:
    80007020:	84b22213          	slti	tp,tp,-1973

0000000080007024 <i_6917>:
    80007024:	0f016203          	lwu	tp,240(sp)

0000000080007028 <i_6918>:
    80007028:	0242723b          	remuw	tp,tp,tp

000000008000702c <i_6919>:
    8000702c:	f9c11803          	lh	a6,-100(sp)

0000000080007030 <i_6920>:
    80007030:	1c413423          	sd	tp,456(sp)

0000000080007034 <i_6921>:
    80007034:	00381213          	slli	tp,a6,0x3

0000000080007038 <i_6922>:
    80007038:	004277b3          	and	a5,tp,tp

000000008000703c <i_6923>:
    8000703c:	e3015e83          	lhu	t4,-464(sp)

0000000080007040 <i_6924>:
    80007040:	00148493          	addi	s1,s1,1
    80007044:	fc90f8e3          	bleu	s1,ra,80007014 <i_6913>

0000000080007048 <i_6925>:
    80007048:	00c12203          	lw	tp,12(sp)

000000008000704c <i_6926>:
    8000704c:	0242423b          	divw	tp,tp,tp

0000000080007050 <i_6927>:
    80007050:	12412c23          	sw	tp,312(sp)

0000000080007054 <i_6928>:
    80007054:	ec114d83          	lbu	s11,-319(sp)

0000000080007058 <i_6929>:
    80007058:	02d00d93          	li	s11,45

000000008000705c <i_6930>:
    8000705c:	41b25e33          	sra	t3,tp,s11

0000000080007060 <i_6931>:
    80007060:	00421e63          	bne	tp,tp,8000707c <i_6938>

0000000080007064 <i_6932>:
    80007064:	01de1263          	bne	t3,t4,80007068 <i_6933>

0000000080007068 <i_6933>:
    80007068:	e7610323          	sb	s6,-410(sp)

000000008000706c <i_6934>:
    8000706c:	fd416783          	lwu	a5,-44(sp)

0000000080007070 <i_6935>:
    80007070:	024e8263          	beq	t4,tp,80007094 <i_6944>

0000000080007074 <i_6936>:
    80007074:	01da0e63          	beq	s4,t4,80007090 <i_6943>

0000000080007078 <i_6937>:
    80007078:	0c412a23          	sw	tp,212(sp)

000000008000707c <i_6938>:
    8000707c:	03d20063          	beq	tp,t4,8000709c <i_6946>

0000000080007080 <i_6939>:
    80007080:	f9813203          	ld	tp,-104(sp)

0000000080007084 <i_6940>:
    80007084:	01c7f233          	and	tp,a5,t3

0000000080007088 <i_6941>:
    80007088:	03825463          	ble	s8,tp,800070b0 <i_6951>

000000008000708c <i_6942>:
    8000708c:	fb412b83          	lw	s7,-76(sp)

0000000080007090 <i_6943>:
    80007090:	0247cbbb          	divw	s7,a5,tp

0000000080007094 <i_6944>:
    80007094:	01737a63          	bleu	s7,t1,800070a8 <i_6949>

0000000080007098 <i_6945>:
    80007098:	01c7fa63          	bleu	t3,a5,800070ac <i_6950>

000000008000709c <i_6946>:
    8000709c:	c54a5597          	auipc	a1,0xc54a5

00000000800070a0 <i_6947>:
    800070a0:	13314283          	lbu	t0,307(sp)

00000000800070a4 <i_6948>:
    800070a4:	01c78233          	add	tp,a5,t3

00000000800070a8 <i_6949>:
    800070a8:	00d27263          	bleu	a3,tp,800070ac <i_6950>

00000000800070ac <i_6950>:
    800070ac:	eec16e83          	lwu	t4,-276(sp)

00000000800070b0 <i_6951>:
    800070b0:	00a10a03          	lb	s4,10(sp)

00000000800070b4 <i_6952>:
    800070b4:	00fe00b3          	add	ra,t3,a5

00000000800070b8 <i_6953>:
    800070b8:	73800413          	li	s0,1848

00000000800070bc <i_6954>:
    800070bc:	74000b93          	li	s7,1856

00000000800070c0 <i_6955>:
    800070c0:	008a1663          	bne	s4,s0,800070cc <i_6958>

00000000800070c4 <i_6956>:
    800070c4:	004e22b3          	slt	t0,t3,tp

00000000800070c8 <i_6957>:
    800070c8:	1dd10e83          	lb	t4,477(sp)

00000000800070cc <i_6958>:
    800070cc:	1ef101a3          	sb	a5,483(sp)

00000000800070d0 <i_6959>:
    800070d0:	01d2e833          	or	a6,t0,t4

00000000800070d4 <i_6960>:
    800070d4:	73100193          	li	gp,1841

00000000800070d8 <i_6961>:
    800070d8:	73600e13          	li	t3,1846

00000000800070dc <i_6962>:
    800070dc:	05e15383          	lhu	t2,94(sp)

00000000800070e0 <i_6963>:
    800070e0:	00118193          	addi	gp,gp,1
    800070e4:	ffc1ece3          	bltu	gp,t3,800070dc <i_6962>

00000000800070e8 <i_6964>:
    800070e8:	00000013          	nop

00000000800070ec <i_6965>:
    800070ec:	14c12e83          	lw	t4,332(sp)

00000000800070f0 <i_6966>:
    800070f0:	007ece63          	blt	t4,t2,8000710c <i_6972>

00000000800070f4 <i_6967>:
    800070f4:	00140413          	addi	s0,s0,1
    800070f8:	fc8bf4e3          	bleu	s0,s7,800070c0 <i_6955>

00000000800070fc <i_6968>:
    800070fc:	02310983          	lb	s3,35(sp)

0000000080007100 <i_6969>:
    80007100:	f9011283          	lh	t0,-112(sp)

0000000080007104 <i_6970>:
    80007104:	03416e83          	lwu	t4,52(sp)

0000000080007108 <i_6971>:
    80007108:	09310ea3          	sb	s3,157(sp)

000000008000710c <i_6972>:
    8000710c:	15d103a3          	sb	t4,327(sp)

0000000080007110 <i_6973>:
    80007110:	033289bb          	mulw	s3,t0,s3

0000000080007114 <i_6974>:
    80007114:	0139ec63          	bltu	s3,s3,8000712c <i_6980>

0000000080007118 <i_6975>:
    80007118:	f1914e03          	lbu	t3,-231(sp)

000000008000711c <i_6976>:
    8000711c:	00400993          	li	s3,4

0000000080007120 <i_6977>:
    80007120:	0132d2bb          	srlw	t0,t0,s3

0000000080007124 <i_6978>:
    80007124:	0139dc63          	ble	s3,s3,8000713c <i_6984>

0000000080007128 <i_6979>:
    80007128:	0f312623          	sw	s3,236(sp)

000000008000712c <i_6980>:
    8000712c:	f9415b83          	lhu	s7,-108(sp)

0000000080007130 <i_6981>:
    80007130:	01600b93          	li	s7,22

0000000080007134 <i_6982>:
    80007134:	017bd4bb          	srlw	s1,s7,s7

0000000080007138 <i_6983>:
    80007138:	e7816b83          	lwu	s7,-392(sp)

000000008000713c <i_6984>:
    8000713c:	0094f663          	bleu	s1,s1,80007148 <i_6987>

0000000080007140 <i_6985>:
    80007140:	eee11283          	lh	t0,-274(sp)

0000000080007144 <i_6986>:
    80007144:	eb910283          	lb	t0,-327(sp)

0000000080007148 <i_6987>:
    80007148:	08a11283          	lh	t0,138(sp)

000000008000714c <i_6988>:
    8000714c:	03711823          	sh	s7,48(sp)

0000000080007150 <i_6989>:
    80007150:	02cb8bbb          	mulw	s7,s7,a2

0000000080007154 <i_6990>:
    80007154:	09f10383          	lb	t2,159(sp)

0000000080007158 <i_6991>:
    80007158:	75600293          	li	t0,1878

000000008000715c <i_6992>:
    8000715c:	76a00d93          	li	s11,1898

0000000080007160 <i_6993>:
    80007160:	12712623          	sw	t2,300(sp)

0000000080007164 <i_6994>:
    80007164:	00000013          	nop

0000000080007168 <i_6995>:
    80007168:	83100b93          	li	s7,-1999

000000008000716c <i_6996>:
    8000716c:	84300513          	li	a0,-1981

0000000080007170 <i_6997>:
    80007170:	0073c463          	blt	t2,t2,80007178 <i_6999>

0000000080007174 <i_6998>:
    80007174:	1de15803          	lhu	a6,478(sp)

0000000080007178 <i_6999>:
    80007178:	02743433          	mulhu	s0,s0,t2

000000008000717c <i_7000>:
    8000717c:	f1815383          	lhu	t2,-232(sp)

0000000080007180 <i_7001>:
    80007180:	ee810aa3          	sb	s0,-267(sp)

0000000080007184 <i_7002>:
    80007184:	00141393          	slli	t2,s0,0x1

0000000080007188 <i_7003>:
    80007188:	001b8b93          	addi	s7,s7,1
    8000718c:	ff7572e3          	bleu	s7,a0,80007170 <i_6997>

0000000080007190 <i_7004>:
    80007190:	00239393          	slli	t2,t2,0x2

0000000080007194 <i_7005>:
    80007194:	16e14383          	lbu	t2,366(sp)

0000000080007198 <i_7006>:
    80007198:	0073fa33          	and	s4,t2,t2

000000008000719c <i_7007>:
    8000719c:	00128293          	addi	t0,t0,1
    800071a0:	fdb2e0e3          	bltu	t0,s11,80007160 <i_6993>

00000000800071a4 <i_7008>:
    800071a4:	0e713c23          	sd	t2,248(sp)

00000000800071a8 <i_7009>:
    800071a8:	0073ca63          	blt	t2,t2,800071bc <i_7014>

00000000800071ac <i_7010>:
    800071ac:	00700093          	li	ra,7

00000000800071b0 <i_7011>:
    800071b0:	4013debb          	sraw	t4,t2,ra

00000000800071b4 <i_7012>:
    800071b4:	e6215083          	lhu	ra,-414(sp)

00000000800071b8 <i_7013>:
    800071b8:	027083b3          	mul	t2,ra,t2

00000000800071bc <i_7014>:
    800071bc:	f5814083          	lbu	ra,-168(sp)

00000000800071c0 <i_7015>:
    800071c0:	19a10303          	lb	t1,410(sp)

00000000800071c4 <i_7016>:
    800071c4:	0143ec63          	bltu	t2,s4,800071dc <i_7022>

00000000800071c8 <i_7017>:
    800071c8:	12811a23          	sh	s0,308(sp)

00000000800071cc <i_7018>:
    800071cc:	406089bb          	subw	s3,ra,t1

00000000800071d0 <i_7019>:
    800071d0:	0373c1bb          	divw	gp,t2,s7

00000000800071d4 <i_7020>:
    800071d4:	16113023          	sd	ra,352(sp)

00000000800071d8 <i_7021>:
    800071d8:	00000013          	nop

00000000800071dc <i_7022>:
    800071dc:	03013203          	ld	tp,48(sp)

00000000800071e0 <i_7023>:
    800071e0:	00000013          	nop

00000000800071e4 <i_7024>:
    800071e4:	7e400b93          	li	s7,2020

00000000800071e8 <i_7025>:
    800071e8:	7e600a13          	li	s4,2022

00000000800071ec <i_7026>:
    800071ec:	0019c663          	blt	s3,ra,800071f8 <i_7029>

00000000800071f0 <i_7027>:
    800071f0:	17b10983          	lb	s3,379(sp)

00000000800071f4 <i_7028>:
    800071f4:	00000013          	nop

00000000800071f8 <i_7029>:
    800071f8:	f74101a3          	sb	s4,-157(sp)

00000000800071fc <i_7030>:
    800071fc:	ee415303          	lhu	t1,-284(sp)

0000000080007200 <i_7031>:
    80007200:	0c412c23          	sw	tp,216(sp)

0000000080007204 <i_7032>:
    80007204:	f9c16203          	lwu	tp,-100(sp)

0000000080007208 <i_7033>:
    80007208:	02012983          	lw	s3,32(sp)

000000008000720c <i_7034>:
    8000720c:	01012203          	lw	tp,16(sp)

0000000080007210 <i_7035>:
    80007210:	05314d83          	lbu	s11,83(sp)

0000000080007214 <i_7036>:
    80007214:	03b20463          	beq	tp,s11,8000723c <i_7045>

0000000080007218 <i_7037>:
    80007218:	001b8b93          	addi	s7,s7,1
    8000721c:	fd7a78e3          	bleu	s7,s4,800071ec <i_7026>

0000000080007220 <i_7038>:
    80007220:	18413c23          	sd	tp,408(sp)

0000000080007224 <i_7039>:
    80007224:	007d9c63          	bne	s11,t2,8000723c <i_7045>

0000000080007228 <i_7040>:
    80007228:	06413423          	sd	tp,104(sp)

000000008000722c <i_7041>:
    8000722c:	fd013383          	ld	t2,-48(sp)

0000000080007230 <i_7042>:
    80007230:	03bd81b3          	mul	gp,s11,s11

0000000080007234 <i_7043>:
    80007234:	02739063          	bne	t2,t2,80007254 <i_7051>

0000000080007238 <i_7044>:
    80007238:	0043f863          	bleu	tp,t2,80007248 <i_7048>

000000008000723c <i_7045>:
    8000723c:	0a816e83          	lwu	t4,168(sp)

0000000080007240 <i_7046>:
    80007240:	e9a11403          	lh	s0,-358(sp)

0000000080007244 <i_7047>:
    80007244:	007d8e63          	beq	s11,t2,80007260 <i_7054>

0000000080007248 <i_7048>:
    80007248:	e9016403          	lwu	s0,-368(sp)

000000008000724c <i_7049>:
    8000724c:	00000013          	nop

0000000080007250 <i_7050>:
    80007250:	f1d13c23          	sd	t4,-232(sp)

0000000080007254 <i_7051>:
    80007254:	41d080b3          	sub	ra,ra,t4

0000000080007258 <i_7052>:
    80007258:	008e85b3          	add	a1,t4,s0

000000008000725c <i_7053>:
    8000725c:	005382b3          	add	t0,t2,t0

0000000080007260 <i_7054>:
    80007260:	00000013          	nop

0000000080007264 <i_7055>:
    80007264:	028372bb          	remuw	t0,t1,s0

0000000080007268 <i_7056>:
    80007268:	8ac00d93          	li	s11,-1876

000000008000726c <i_7057>:
    8000726c:	8b700393          	li	t2,-1865

0000000080007270 <i_7058>:
    80007270:	fb816403          	lwu	s0,-72(sp)

0000000080007274 <i_7059>:
    80007274:	15513023          	sd	s5,320(sp)

0000000080007278 <i_7060>:
    80007278:	f8e10583          	lb	a1,-114(sp)

000000008000727c <i_7061>:
    8000727c:	001d8d93          	addi	s11,s11,1 # 204e9ad <main-0x7dfb1653>
    80007280:	ffb3d8e3          	ble	s11,t2,80007270 <i_7058>

0000000080007284 <i_7062>:
    80007284:	06510783          	lb	a5,101(sp)

0000000080007288 <i_7063>:
    80007288:	15714583          	lbu	a1,343(sp)

000000008000728c <i_7064>:
    8000728c:	0025c663          	blt	a1,sp,80007298 <i_7067>

0000000080007290 <i_7065>:
    80007290:	0a813e03          	ld	t3,168(sp)

0000000080007294 <i_7066>:
    80007294:	01c2d863          	ble	t3,t0,800072a4 <i_7070>

0000000080007298 <i_7067>:
    80007298:	0014529b          	srliw	t0,s0,0x1

000000008000729c <i_7068>:
    8000729c:	16e2ae13          	slti	t3,t0,366

00000000800072a0 <i_7069>:
    800072a0:	02511233          	mulh	tp,sp,t0

00000000800072a4 <i_7070>:
    800072a4:	013e09b3          	add	s3,t3,s3

00000000800072a8 <i_7071>:
    800072a8:	024f09b3          	mul	s3,t5,tp

00000000800072ac <i_7072>:
    800072ac:	03900993          	li	s3,57

00000000800072b0 <i_7073>:
    800072b0:	013417b3          	sll	a5,s0,s3

00000000800072b4 <i_7074>:
    800072b4:	e2a10983          	lb	s3,-470(sp)

00000000800072b8 <i_7075>:
    800072b8:	01d9da63          	ble	t4,s3,800072cc <i_7080>

00000000800072bc <i_7076>:
    800072bc:	08c14e83          	lbu	t4,140(sp)

00000000800072c0 <i_7077>:
    800072c0:	1e814e03          	lbu	t3,488(sp)

00000000800072c4 <i_7078>:
    800072c4:	02fbbbb3          	mulhu	s7,s7,a5

00000000800072c8 <i_7079>:
    800072c8:	ff312a23          	sw	s3,-12(sp)

00000000800072cc <i_7080>:
    800072cc:	1e013283          	ld	t0,480(sp)

00000000800072d0 <i_7081>:
    800072d0:	01cbec63          	bltu	s7,t3,800072e8 <i_7087>

00000000800072d4 <i_7082>:
    800072d4:	e2611e83          	lh	t4,-474(sp)

00000000800072d8 <i_7083>:
    800072d8:	ff312a23          	sw	s3,-12(sp)

00000000800072dc <i_7084>:
    800072dc:	01c2d863          	ble	t3,t0,800072ec <i_7088>

00000000800072e0 <i_7085>:
    800072e0:	0332beb3          	mulhu	t4,t0,s3

00000000800072e4 <i_7086>:
    800072e4:	6dfec993          	xori	s3,t4,1759

00000000800072e8 <i_7087>:
    800072e8:	01100993          	li	s3,17

00000000800072ec <i_7088>:
    800072ec:	013ed2bb          	srlw	t0,t4,s3

00000000800072f0 <i_7089>:
    800072f0:	0136fbb3          	and	s7,a3,s3

00000000800072f4 <i_7090>:
    800072f4:	15713423          	sd	s7,328(sp)

00000000800072f8 <i_7091>:
    800072f8:	00000013          	nop

00000000800072fc <i_7092>:
    800072fc:	83100993          	li	s3,-1999

0000000080007300 <i_7093>:
    80007300:	83700e13          	li	t3,-1993

0000000080007304 <i_7094>:
    80007304:	01c2c863          	blt	t0,t3,80007314 <i_7098>

0000000080007308 <i_7095>:
    80007308:	c7d35297          	auipc	t0,0xc7d35

000000008000730c <i_7096>:
    8000730c:	00400393          	li	t2,4

0000000080007310 <i_7097>:
    80007310:	0074d4bb          	srlw	s1,s1,t2

0000000080007314 <i_7098>:
    80007314:	007bc463          	blt	s7,t2,8000731c <i_7100>

0000000080007318 <i_7099>:
    80007318:	03c4e53b          	remw	a0,s1,t3

000000008000731c <i_7100>:
    8000731c:	02a504bb          	mulw	s1,a0,a0

0000000080007320 <i_7101>:
    80007320:	00000013          	nop

0000000080007324 <i_7102>:
    80007324:	00000013          	nop

0000000080007328 <i_7103>:
    80007328:	00000013          	nop

000000008000732c <i_7104>:
    8000732c:	00a48533          	add	a0,s1,a0

0000000080007330 <i_7105>:
    80007330:	02a57333          	remu	t1,a0,a0

0000000080007334 <i_7106>:
    80007334:	17c12483          	lw	s1,380(sp)

0000000080007338 <i_7107>:
    80007338:	eaa11b23          	sh	a0,-330(sp)

000000008000733c <i_7108>:
    8000733c:	01e34533          	xor	a0,t1,t5

0000000080007340 <i_7109>:
    80007340:	00e00b93          	li	s7,14

0000000080007344 <i_7110>:
    80007344:	01755533          	srl	a0,a0,s7

0000000080007348 <i_7111>:
    80007348:	00198993          	addi	s3,s3,1
    8000734c:	fbc9cce3          	blt	s3,t3,80007304 <i_7094>

0000000080007350 <i_7112>:
    80007350:	03a00193          	li	gp,58

0000000080007354 <i_7113>:
    80007354:	40355433          	sra	s0,a0,gp

0000000080007358 <i_7114>:
    80007358:	f0a11b83          	lh	s7,-246(sp)

000000008000735c <i_7115>:
    8000735c:	eb415503          	lhu	a0,-332(sp)

0000000080007360 <i_7116>:
    80007360:	02cbf4b3          	remu	s1,s7,a2

0000000080007364 <i_7117>:
    80007364:	fb013083          	ld	ra,-80(sp)

0000000080007368 <i_7118>:
    80007368:	0171e463          	bltu	gp,s7,80007370 <i_7120>

000000008000736c <i_7119>:
    8000736c:	f8a11423          	sh	a0,-120(sp)

0000000080007370 <i_7120>:
    80007370:	fe312023          	sw	gp,-32(sp)

0000000080007374 <i_7121>:
    80007374:	037c6a3b          	remw	s4,s8,s7

0000000080007378 <i_7122>:
    80007378:	02700193          	li	gp,39

000000008000737c <i_7123>:
    8000737c:	00309bb3          	sll	s7,ra,gp

0000000080007380 <i_7124>:
    80007380:	4020d513          	srai	a0,ra,0x2

0000000080007384 <i_7125>:
    80007384:	eb013483          	ld	s1,-336(sp)

0000000080007388 <i_7126>:
    80007388:	fb514203          	lbu	tp,-75(sp)

000000008000738c <i_7127>:
    8000738c:	00108463          	beq	ra,ra,80007394 <i_7129>

0000000080007390 <i_7128>:
    80007390:	0284543b          	divuw	s0,s0,s0

0000000080007394 <i_7129>:
    80007394:	17812403          	lw	s0,376(sp)

0000000080007398 <i_7130>:
    80007398:	ed012283          	lw	t0,-304(sp)

000000008000739c <i_7131>:
    8000739c:	03c26e33          	rem	t3,tp,t3

00000000800073a0 <i_7132>:
    800073a0:	405c8433          	sub	s0,s9,t0

00000000800073a4 <i_7133>:
    800073a4:	00200e13          	li	t3,2

00000000800073a8 <i_7134>:
    800073a8:	01c413b3          	sll	t2,s0,t3

00000000800073ac <i_7135>:
    800073ac:	01c00413          	li	s0,28

00000000800073b0 <i_7136>:
    800073b0:	0083d2bb          	srlw	t0,t2,s0

00000000800073b4 <i_7137>:
    800073b4:	4034541b          	sraiw	s0,s0,0x3

00000000800073b8 <i_7138>:
    800073b8:	00814203          	lbu	tp,8(sp)

00000000800073bc <i_7139>:
    800073bc:	18711c23          	sh	t2,408(sp)

00000000800073c0 <i_7140>:
    800073c0:	18813823          	sd	s0,400(sp)

00000000800073c4 <i_7141>:
    800073c4:	00000013          	nop

00000000800073c8 <i_7142>:
    800073c8:	77f00e93          	li	t4,1919

00000000800073cc <i_7143>:
    800073cc:	78900993          	li	s3,1929

00000000800073d0 <i_7144>:
    800073d0:	01c2d863          	ble	t3,t0,800073e0 <i_7148>

00000000800073d4 <i_7145>:
    800073d4:	00599863          	bne	s3,t0,800073e4 <i_7149>

00000000800073d8 <i_7146>:
    800073d8:	0c411123          	sh	tp,194(sp)

00000000800073dc <i_7147>:
    800073dc:	0289e463          	bltu	s3,s0,80007404 <i_7156>

00000000800073e0 <i_7148>:
    800073e0:	e8211803          	lh	a6,-382(sp)

00000000800073e4 <i_7149>:
    800073e4:	17412a03          	lw	s4,372(sp)

00000000800073e8 <i_7150>:
    800073e8:	7a226293          	ori	t0,tp,1954

00000000800073ec <i_7151>:
    800073ec:	0e412e23          	sw	tp,252(sp)

00000000800073f0 <i_7152>:
    800073f0:	01038e63          	beq	t2,a6,8000740c <i_7158>

00000000800073f4 <i_7153>:
    800073f4:	001e8e93          	addi	t4,t4,1
    800073f8:	fd3e9ce3          	bne	t4,s3,800073d0 <i_7144>

00000000800073fc <i_7154>:
    800073fc:	00000013          	nop

0000000080007400 <i_7155>:
    80007400:	40b3823b          	subw	tp,t2,a1

0000000080007404 <i_7156>:
    80007404:	848d7d97          	auipc	s11,0x848d7

0000000080007408 <i_7157>:
    80007408:	03000593          	li	a1,48

000000008000740c <i_7158>:
    8000740c:	00b9d9b3          	srl	s3,s3,a1

0000000080007410 <i_7159>:
    80007410:	0303e463          	bltu	t2,a6,80007438 <i_7169>

0000000080007414 <i_7160>:
    80007414:	ede11e83          	lh	t4,-290(sp)

0000000080007418 <i_7161>:
    80007418:	1d012483          	lw	s1,464(sp)

000000008000741c <i_7162>:
    8000741c:	1dc12403          	lw	s0,476(sp)

0000000080007420 <i_7163>:
    80007420:	00000013          	nop

0000000080007424 <i_7164>:
    80007424:	14811823          	sh	s0,336(sp)

0000000080007428 <i_7165>:
    80007428:	0304d5b3          	divu	a1,s1,a6

000000008000742c <i_7166>:
    8000742c:	09314483          	lbu	s1,147(sp)

0000000080007430 <i_7167>:
    80007430:	77686813          	ori	a6,a6,1910

0000000080007434 <i_7168>:
    80007434:	08811623          	sh	s0,140(sp)

0000000080007438 <i_7169>:
    80007438:	02847433          	remu	s0,s0,s0

000000008000743c <i_7170>:
    8000743c:	fc814803          	lbu	a6,-56(sp)

0000000080007440 <i_7171>:
    80007440:	76b00d93          	li	s11,1899

0000000080007444 <i_7172>:
    80007444:	77900393          	li	t2,1913

0000000080007448 <i_7173>:
    80007448:	e3013023          	sd	a6,-480(sp)

000000008000744c <i_7174>:
    8000744c:	e3812403          	lw	s0,-456(sp)

0000000080007450 <i_7175>:
    80007450:	f4811923          	sh	s0,-174(sp)

0000000080007454 <i_7176>:
    80007454:	0c810f23          	sb	s0,222(sp)

0000000080007458 <i_7177>:
    80007458:	001d8d93          	addi	s11,s11,1 # 48de405 <main-0x7b721bfb>
    8000745c:	fe7dc6e3          	blt	s11,t2,80007448 <i_7173>

0000000080007460 <i_7178>:
    80007460:	00400e93          	li	t4,4

0000000080007464 <i_7179>:
    80007464:	01d7583b          	srlw	a6,a4,t4

0000000080007468 <i_7180>:
    80007468:	e4514503          	lbu	a0,-443(sp)

000000008000746c <i_7181>:
    8000746c:	01d54663          	blt	a0,t4,80007478 <i_7184>

0000000080007470 <i_7182>:
    80007470:	01040e63          	beq	s0,a6,8000748c <i_7189>

0000000080007474 <i_7183>:
    80007474:	03d51063          	bne	a0,t4,80007494 <i_7191>

0000000080007478 <i_7184>:
    80007478:	023420b3          	mulhsu	ra,s0,gp

000000008000747c <i_7185>:
    8000747c:	02813c23          	sd	s0,56(sp)

0000000080007480 <i_7186>:
    80007480:	02600493          	li	s1,38

0000000080007484 <i_7187>:
    80007484:	00959eb3          	sll	t4,a1,s1

0000000080007488 <i_7188>:
    80007488:	01d4e5b3          	or	a1,s1,t4

000000008000748c <i_7189>:
    8000748c:	0c613823          	sd	t1,208(sp)

0000000080007490 <i_7190>:
    80007490:	00949c63          	bne	s1,s1,800074a8 <i_7196>

0000000080007494 <i_7191>:
    80007494:	015e8863          	beq	t4,s5,800074a4 <i_7195>

0000000080007498 <i_7192>:
    80007498:	0e015e83          	lhu	t4,224(sp)

000000008000749c <i_7193>:
    8000749c:	c7c4a993          	slti	s3,s1,-900

00000000800074a0 <i_7194>:
    800074a0:	f6b11a23          	sh	a1,-140(sp)

00000000800074a4 <i_7195>:
    800074a4:	01d589b3          	add	s3,a1,t4

00000000800074a8 <i_7196>:
    800074a8:	6a858813          	addi	a6,a1,1704 # 454ac744 <main-0x3ab538bc>

00000000800074ac <i_7197>:
    800074ac:	f2812983          	lw	s3,-216(sp)

00000000800074b0 <i_7198>:
    800074b0:	72f00513          	li	a0,1839

00000000800074b4 <i_7199>:
    800074b4:	73700793          	li	a5,1847

00000000800074b8 <i_7200>:
    800074b8:	00259593          	slli	a1,a1,0x2

00000000800074bc <i_7201>:
    800074bc:	fd016383          	lwu	t2,-48(sp)

00000000800074c0 <i_7202>:
    800074c0:	01013023          	sd	a6,0(sp)

00000000800074c4 <i_7203>:
    800074c4:	0273c833          	div	a6,t2,t2

00000000800074c8 <i_7204>:
    800074c8:	00b81863          	bne	a6,a1,800074d8 <i_7208>

00000000800074cc <i_7205>:
    800074cc:	01100d93          	li	s11,17

00000000800074d0 <i_7206>:
    800074d0:	41b3d3bb          	sraw	t2,t2,s11

00000000800074d4 <i_7207>:
    800074d4:	fe815403          	lhu	s0,-24(sp)

00000000800074d8 <i_7208>:
    800074d8:	e4c15383          	lhu	t2,-436(sp)

00000000800074dc <i_7209>:
    800074dc:	14813023          	sd	s0,320(sp)

00000000800074e0 <i_7210>:
    800074e0:	48e43393          	sltiu	t2,s0,1166

00000000800074e4 <i_7211>:
    800074e4:	0283d433          	divu	s0,t2,s0

00000000800074e8 <i_7212>:
    800074e8:	0cc12083          	lw	ra,204(sp)

00000000800074ec <i_7213>:
    800074ec:	00000013          	nop

00000000800074f0 <i_7214>:
    800074f0:	00150513          	addi	a0,a0,1
    800074f4:	fca7d2e3          	ble	a0,a5,800074b8 <i_7200>

00000000800074f8 <i_7215>:
    800074f8:	fa013383          	ld	t2,-96(sp)

00000000800074fc <i_7216>:
    800074fc:	0167ec63          	bltu	a5,s6,80007514 <i_7222>

0000000080007500 <i_7217>:
    80007500:	00339263          	bne	t2,gp,80007504 <i_7218>

0000000080007504 <i_7218>:
    80007504:	532d6193          	ori	gp,s10,1330

0000000080007508 <i_7219>:
    80007508:	00712423          	sw	t2,8(sp)

000000008000750c <i_7220>:
    8000750c:	41c1c313          	xori	t1,gp,1052

0000000080007510 <i_7221>:
    80007510:	0fe14203          	lbu	tp,254(sp)

0000000080007514 <i_7222>:
    80007514:	fdc15783          	lhu	a5,-36(sp)

0000000080007518 <i_7223>:
    80007518:	17811203          	lh	tp,376(sp)

000000008000751c <i_7224>:
    8000751c:	f4f10723          	sb	a5,-178(sp)

0000000080007520 <i_7225>:
    80007520:	02f270bb          	remuw	ra,tp,a5

0000000080007524 <i_7226>:
    80007524:	17c12203          	lw	tp,380(sp)

0000000080007528 <i_7227>:
    80007528:	eef12223          	sw	a5,-284(sp)

000000008000752c <i_7228>:
    8000752c:	f8613023          	sd	t1,-128(sp)

0000000080007530 <i_7229>:
    80007530:	11813303          	ld	t1,280(sp)

0000000080007534 <i_7230>:
    80007534:	00430433          	add	s0,t1,tp

0000000080007538 <i_7231>:
    80007538:	08013303          	ld	t1,128(sp)

000000008000753c <i_7232>:
    8000753c:	0036d41b          	srliw	s0,a3,0x3

0000000080007540 <i_7233>:
    80007540:	41fa843b          	subw	s0,s5,t6

0000000080007544 <i_7234>:
    80007544:	73a20b93          	addi	s7,tp,1850 # 73a <main-0x7ffff8c6>

0000000080007548 <i_7235>:
    80007548:	00131863          	bne	t1,ra,80007558 <i_7239>

000000008000754c <i_7236>:
    8000754c:	026b8263          	beq	s7,t1,80007570 <i_7245>

0000000080007550 <i_7237>:
    80007550:	0339c9b3          	div	s3,s3,s3

0000000080007554 <i_7238>:
    80007554:	ea813483          	ld	s1,-344(sp)

0000000080007558 <i_7239>:
    80007558:	f7712423          	sw	s7,-152(sp)

000000008000755c <i_7240>:
    8000755c:	0134da63          	ble	s3,s1,80007570 <i_7245>

0000000080007560 <i_7241>:
    80007560:	ec411983          	lh	s3,-316(sp)

0000000080007564 <i_7242>:
    80007564:	17312e23          	sw	s3,380(sp)

0000000080007568 <i_7243>:
    80007568:	406989bb          	subw	s3,s3,t1

000000008000756c <i_7244>:
    8000756c:	00000013          	nop

0000000080007570 <i_7245>:
    80007570:	0d013403          	ld	s0,208(sp)

0000000080007574 <i_7246>:
    80007574:	ecc14b83          	lbu	s7,-308(sp)

0000000080007578 <i_7247>:
    80007578:	76f00593          	li	a1,1903

000000008000757c <i_7248>:
    8000757c:	77d00093          	li	ra,1917

0000000080007580 <i_7249>:
    80007580:	0270a9b3          	mulhsu	s3,ra,t2

0000000080007584 <i_7250>:
    80007584:	004b9663          	bne	s7,tp,80007590 <i_7253>

0000000080007588 <i_7251>:
    80007588:	02408233          	mul	tp,ra,tp

000000008000758c <i_7252>:
    8000758c:	e6410a03          	lb	s4,-412(sp)

0000000080007590 <i_7253>:
    80007590:	1a913c23          	sd	s1,440(sp)

0000000080007594 <i_7254>:
    80007594:	00847663          	bleu	s0,s0,800075a0 <i_7257>

0000000080007598 <i_7255>:
    80007598:	ec411e23          	sh	tp,-292(sp)

000000008000759c <i_7256>:
    8000759c:	f1413423          	sd	s4,-248(sp)

00000000800075a0 <i_7257>:
    800075a0:	03215503          	lhu	a0,50(sp)

00000000800075a4 <i_7258>:
    800075a4:	025442b3          	div	t0,s0,t0

00000000800075a8 <i_7259>:
    800075a8:	f9412e23          	sw	s4,-100(sp)

00000000800075ac <i_7260>:
    800075ac:	025f72b3          	remu	t0,t5,t0

00000000800075b0 <i_7261>:
    800075b0:	0342f463          	bleu	s4,t0,800075d8 <i_7270>

00000000800075b4 <i_7262>:
    800075b4:	029253bb          	divuw	t2,tp,s1

00000000800075b8 <i_7263>:
    800075b8:	eac14483          	lbu	s1,-340(sp)

00000000800075bc <i_7264>:
    800075bc:	00158593          	addi	a1,a1,1
    800075c0:	fcb0f0e3          	bleu	a1,ra,80007580 <i_7249>

00000000800075c4 <i_7265>:
    800075c4:	02951063          	bne	a0,s1,800075e4 <i_7273>

00000000800075c8 <i_7266>:
    800075c8:	f9e15503          	lhu	a0,-98(sp)

00000000800075cc <i_7267>:
    800075cc:	0023d213          	srli	tp,t2,0x2

00000000800075d0 <i_7268>:
    800075d0:	f4914383          	lbu	t2,-183(sp)

00000000800075d4 <i_7269>:
    800075d4:	e7c16783          	lwu	a5,-388(sp)

00000000800075d8 <i_7270>:
    800075d8:	02711f23          	sh	t2,62(sp)

00000000800075dc <i_7271>:
    800075dc:	41e20233          	sub	tp,tp,t5

00000000800075e0 <i_7272>:
    800075e0:	00f18233          	add	tp,gp,a5

00000000800075e4 <i_7273>:
    800075e4:	f6b10da3          	sb	a1,-133(sp)

00000000800075e8 <i_7274>:
    800075e8:	00000013          	nop

00000000800075ec <i_7275>:
    800075ec:	8bf00d93          	li	s11,-1857

00000000800075f0 <i_7276>:
    800075f0:	8cc00513          	li	a0,-1844

00000000800075f4 <i_7277>:
    800075f4:	0a810583          	lb	a1,168(sp)

00000000800075f8 <i_7278>:
    800075f8:	00000013          	nop

00000000800075fc <i_7279>:
    800075fc:	001d8d93          	addi	s11,s11,1
    80007600:	fead9ae3          	bne	s11,a0,800075f4 <i_7277>

0000000080007604 <i_7280>:
    80007604:	0305e83b          	remw	a6,a1,a6

0000000080007608 <i_7281>:
    80007608:	fac10203          	lb	tp,-84(sp)

000000008000760c <i_7282>:
    8000760c:	02b5d5b3          	divu	a1,a1,a1

0000000080007610 <i_7283>:
    80007610:	1cb14583          	lbu	a1,459(sp)

0000000080007614 <i_7284>:
    80007614:	f0b12223          	sw	a1,-252(sp)

0000000080007618 <i_7285>:
    80007618:	00000013          	nop

000000008000761c <i_7286>:
    8000761c:	04b10f23          	sb	a1,94(sp)

0000000080007620 <i_7287>:
    80007620:	7d900d93          	li	s11,2009

0000000080007624 <i_7288>:
    80007624:	7dc00213          	li	tp,2012

0000000080007628 <i_7289>:
    80007628:	01f4a5b3          	slt	a1,s1,t6

000000008000762c <i_7290>:
    8000762c:	03b2e063          	bltu	t0,s11,8000764c <i_7297>

0000000080007630 <i_7291>:
    80007630:	001d8d93          	addi	s11,s11,1
    80007634:	fe4deae3          	bltu	s11,tp,80007628 <i_7289>

0000000080007638 <i_7292>:
    80007638:	00e00293          	li	t0,14

000000008000763c <i_7293>:
    8000763c:	0055ddbb          	srlw	s11,a1,t0

0000000080007640 <i_7294>:
    80007640:	f6512c23          	sw	t0,-136(sp)

0000000080007644 <i_7295>:
    80007644:	02b2e263          	bltu	t0,a1,80007668 <i_7304>

0000000080007648 <i_7296>:
    80007648:	efb10423          	sb	s11,-280(sp)

000000008000764c <i_7297>:
    8000764c:	fb130313          	addi	t1,t1,-79 # 2cabafb1 <main-0x5354504f>

0000000080007650 <i_7298>:
    80007650:	19813303          	ld	t1,408(sp)

0000000080007654 <i_7299>:
    80007654:	e4c10583          	lb	a1,-436(sp)

0000000080007658 <i_7300>:
    80007658:	02a3053b          	mulw	a0,t1,a0

000000008000765c <i_7301>:
    8000765c:	02a51eb3          	mulh	t4,a0,a0

0000000080007660 <i_7302>:
    80007660:	01c15203          	lhu	tp,28(sp)

0000000080007664 <i_7303>:
    80007664:	02200e93          	li	t4,34

0000000080007668 <i_7304>:
    80007668:	01d392b3          	sll	t0,t2,t4

000000008000766c <i_7305>:
    8000766c:	13214303          	lbu	t1,306(sp)

0000000080007670 <i_7306>:
    80007670:	88700513          	li	a0,-1913

0000000080007674 <i_7307>:
    80007674:	88d00e13          	li	t3,-1907

0000000080007678 <i_7308>:
    80007678:	00a37e63          	bleu	a0,t1,80007694 <i_7314>

000000008000767c <i_7309>:
    8000767c:	00150513          	addi	a0,a0,1
    80007680:	feae7ce3          	bleu	a0,t3,80007678 <i_7308>

0000000080007684 <i_7310>:
    80007684:	01c2d663          	ble	t3,t0,80007690 <i_7313>

0000000080007688 <i_7311>:
    80007688:	f2816203          	lwu	tp,-216(sp)

000000008000768c <i_7312>:
    8000768c:	01c0a0b3          	slt	ra,ra,t3

0000000080007690 <i_7313>:
    80007690:	f05107a3          	sb	t0,-241(sp)

0000000080007694 <i_7314>:
    80007694:	006e0c63          	beq	t3,t1,800076ac <i_7320>

0000000080007698 <i_7315>:
    80007698:	29f0cd93          	xori	s11,ra,671

000000008000769c <i_7316>:
    8000769c:	02526533          	rem	a0,tp,t0

00000000800076a0 <i_7317>:
    800076a0:	fea33313          	sltiu	t1,t1,-22

00000000800076a4 <i_7318>:
    800076a4:	1dc102a3          	sb	t3,453(sp)

00000000800076a8 <i_7319>:
    800076a8:	003e9813          	slli	a6,t4,0x3

00000000800076ac <i_7320>:
    800076ac:	00000013          	nop

00000000800076b0 <i_7321>:
    800076b0:	f8214e83          	lbu	t4,-126(sp)

00000000800076b4 <i_7322>:
    800076b4:	82600493          	li	s1,-2010

00000000800076b8 <i_7323>:
    800076b8:	82d00193          	li	gp,-2003

00000000800076bc <i_7324>:
    800076bc:	11016a03          	lwu	s4,272(sp)

00000000800076c0 <i_7325>:
    800076c0:	04310723          	sb	gp,78(sp)

00000000800076c4 <i_7326>:
    800076c4:	fe914a03          	lbu	s4,-23(sp)

00000000800076c8 <i_7327>:
    800076c8:	01412c23          	sw	s4,24(sp)

00000000800076cc <i_7328>:
    800076cc:	00148493          	addi	s1,s1,1
    800076d0:	fe91f6e3          	bleu	s1,gp,800076bc <i_7324>

00000000800076d4 <i_7329>:
    800076d4:	030a2a33          	mulhsu	s4,s4,a6

00000000800076d8 <i_7330>:
    800076d8:	02189a33          	mulh	s4,a7,ra

00000000800076dc <i_7331>:
    800076dc:	fcc16803          	lwu	a6,-52(sp)

00000000800076e0 <i_7332>:
    800076e0:	e9412823          	sw	s4,-368(sp)

00000000800076e4 <i_7333>:
    800076e4:	29232313          	slti	t1,t1,658

00000000800076e8 <i_7334>:
    800076e8:	404ddd93          	srai	s11,s11,0x4

00000000800076ec <i_7335>:
    800076ec:	004a539b          	srliw	t2,s4,0x4

00000000800076f0 <i_7336>:
    800076f0:	ff087293          	andi	t0,a6,-16

00000000800076f4 <i_7337>:
    800076f4:	ecf10e83          	lb	t4,-305(sp)

00000000800076f8 <i_7338>:
    800076f8:	02687bb3          	remu	s7,a6,t1

00000000800076fc <i_7339>:
    800076fc:	037b9063          	bne	s7,s7,8000771c <i_7347>

0000000080007700 <i_7340>:
    80007700:	17413c23          	sd	s4,376(sp)

0000000080007704 <i_7341>:
    80007704:	01defbb3          	and	s7,t4,t4

0000000080007708 <i_7342>:
    80007708:	017b8c63          	beq	s7,s7,80007720 <i_7348>

000000008000770c <i_7343>:
    8000770c:	e1810b83          	lb	s7,-488(sp)

0000000080007710 <i_7344>:
    80007710:	02b14783          	lbu	a5,43(sp)

0000000080007714 <i_7345>:
    80007714:	12c14a03          	lbu	s4,300(sp)

0000000080007718 <i_7346>:
    80007718:	01dbec63          	bltu	s7,t4,80007730 <i_7352>

000000008000771c <i_7347>:
    8000771c:	12811783          	lh	a5,296(sp)

0000000080007720 <i_7348>:
    80007720:	0345da3b          	divuw	s4,a1,s4

0000000080007724 <i_7349>:
    80007724:	00beca33          	xor	s4,t4,a1

0000000080007728 <i_7350>:
    80007728:	03d58333          	mul	t1,a1,t4

000000008000772c <i_7351>:
    8000772c:	0c112623          	sw	ra,204(sp)

0000000080007730 <i_7352>:
    80007730:	0030d093          	srli	ra,ra,0x3

0000000080007734 <i_7353>:
    80007734:	9e834a13          	xori	s4,t1,-1560

0000000080007738 <i_7354>:
    80007738:	86700e93          	li	t4,-1945

000000008000773c <i_7355>:
    8000773c:	86c00593          	li	a1,-1940

0000000080007740 <i_7356>:
    80007740:	03431063          	bne	t1,s4,80007760 <i_7363>

0000000080007744 <i_7357>:
    80007744:	001a5d93          	srli	s11,s4,0x1

0000000080007748 <i_7358>:
    80007748:	00700a13          	li	s4,7

000000008000774c <i_7359>:
    8000774c:	4143533b          	sraw	t1,t1,s4

0000000080007750 <i_7360>:
    80007750:	001e8e93          	addi	t4,t4,1
    80007754:	febee6e3          	bltu	t4,a1,80007740 <i_7356>

0000000080007758 <i_7361>:
    80007758:	f2015a03          	lhu	s4,-224(sp)

000000008000775c <i_7362>:
    8000775c:	9ec50513          	addi	a0,a0,-1556

0000000080007760 <i_7363>:
    80007760:	ec813a03          	ld	s4,-312(sp)

0000000080007764 <i_7364>:
    80007764:	fc2a4093          	xori	ra,s4,-62

0000000080007768 <i_7365>:
    80007768:	10011483          	lh	s1,256(sp)

000000008000776c <i_7366>:
    8000776c:	1b812503          	lw	a0,440(sp)

0000000080007770 <i_7367>:
    80007770:	0090d663          	ble	s1,ra,8000777c <i_7370>

0000000080007774 <i_7368>:
    80007774:	00a4de63          	ble	a0,s1,80007790 <i_7375>

0000000080007778 <i_7369>:
    80007778:	00a4c663          	blt	s1,a0,80007784 <i_7372>

000000008000777c <i_7370>:
    8000777c:	40a484bb          	subw	s1,s1,a0

0000000080007780 <i_7371>:
    80007780:	0c914203          	lbu	tp,201(sp)

0000000080007784 <i_7372>:
    80007784:	ecc14583          	lbu	a1,-308(sp)

0000000080007788 <i_7373>:
    80007788:	02814483          	lbu	s1,40(sp)

000000008000778c <i_7374>:
    8000778c:	02423e33          	mulhu	t3,tp,tp

0000000080007790 <i_7375>:
    80007790:	01ce1463          	bne	t3,t3,80007798 <i_7377>

0000000080007794 <i_7376>:
    80007794:	036e44b3          	div	s1,t3,s6

0000000080007798 <i_7377>:
    80007798:	029e6063          	bltu	t3,s1,800077b8 <i_7385>

000000008000779c <i_7378>:
    8000779c:	0094ee63          	bltu	s1,s1,800077b8 <i_7385>

00000000800077a0 <i_7379>:
    800077a0:	f0413823          	sd	tp,-240(sp)

00000000800077a4 <i_7380>:
    800077a4:	0dc16483          	lwu	s1,220(sp)

00000000800077a8 <i_7381>:
    800077a8:	08410823          	sb	tp,144(sp)

00000000800077ac <i_7382>:
    800077ac:	024e0063          	beq	t3,tp,800077cc <i_7390>

00000000800077b0 <i_7383>:
    800077b0:	1d910e83          	lb	t4,473(sp)

00000000800077b4 <i_7384>:
    800077b4:	ff211803          	lh	a6,-14(sp)

00000000800077b8 <i_7385>:
    800077b8:	ec912823          	sw	s1,-304(sp)

00000000800077bc <i_7386>:
    800077bc:	ef812e03          	lw	t3,-264(sp)

00000000800077c0 <i_7387>:
    800077c0:	02411b23          	sh	tp,54(sp)

00000000800077c4 <i_7388>:
    800077c4:	11016083          	lwu	ra,272(sp)

00000000800077c8 <i_7389>:
    800077c8:	ec013803          	ld	a6,-320(sp)

00000000800077cc <i_7390>:
    800077cc:	f8b13423          	sd	a1,-120(sp)

00000000800077d0 <i_7391>:
    800077d0:	02f48463          	beq	s1,a5,800077f8 <i_7401>

00000000800077d4 <i_7392>:
    800077d4:	03813d83          	ld	s11,56(sp)

00000000800077d8 <i_7393>:
    800077d8:	0210cebb          	divw	t4,ra,ra

00000000800077dc <i_7394>:
    800077dc:	009e7263          	bleu	s1,t3,800077e0 <i_7395>

00000000800077e0 <i_7395>:
    800077e0:	4010da13          	srai	s4,ra,0x1

00000000800077e4 <i_7396>:
    800077e4:	00c00493          	li	s1,12

00000000800077e8 <i_7397>:
    800077e8:	009e923b          	sllw	tp,t4,s1

00000000800077ec <i_7398>:
    800077ec:	02d10283          	lb	t0,45(sp)

00000000800077f0 <i_7399>:
    800077f0:	004e6a33          	or	s4,t3,tp

00000000800077f4 <i_7400>:
    800077f4:	0ae10803          	lb	a6,174(sp)

00000000800077f8 <i_7401>:
    800077f8:	00000013          	nop

00000000800077fc <i_7402>:
    800077fc:	f8c16303          	lwu	t1,-116(sp)

0000000080007800 <i_7403>:
    80007800:	7b500293          	li	t0,1973

0000000080007804 <i_7404>:
    80007804:	7c900413          	li	s0,1993

0000000080007808 <i_7405>:
    80007808:	00128293          	addi	t0,t0,1 # 47d3c309 <main-0x382c3cf7>
    8000780c:	fe545ee3          	ble	t0,s0,80007808 <i_7405>

0000000080007810 <i_7406>:
    80007810:	0043529b          	srliw	t0,t1,0x4

0000000080007814 <i_7407>:
    80007814:	0052c663          	blt	t0,t0,80007820 <i_7410>

0000000080007818 <i_7408>:
    80007818:	00136e63          	bltu	t1,ra,80007834 <i_7415>

000000008000781c <i_7409>:
    8000781c:	02631333          	mulh	t1,t1,t1

0000000080007820 <i_7410>:
    80007820:	02546063          	bltu	s0,t0,80007840 <i_7418>

0000000080007824 <i_7411>:
    80007824:	eb215403          	lhu	s0,-334(sp)

0000000080007828 <i_7412>:
    80007828:	00000013          	nop

000000008000782c <i_7413>:
    8000782c:	02611823          	sh	t1,48(sp)

0000000080007830 <i_7414>:
    80007830:	fe710983          	lb	s3,-25(sp)

0000000080007834 <i_7415>:
    80007834:	11813983          	ld	s3,280(sp)

0000000080007838 <i_7416>:
    80007838:	c3943993          	sltiu	s3,s0,-967

000000008000783c <i_7417>:
    8000783c:	406405b3          	sub	a1,s0,t1

0000000080007840 <i_7418>:
    80007840:	0c014983          	lbu	s3,192(sp)

0000000080007844 <i_7419>:
    80007844:	00000013          	nop

0000000080007848 <i_7420>:
    80007848:	7a500313          	li	t1,1957

000000008000784c <i_7421>:
    8000784c:	7b900413          	li	s0,1977

0000000080007850 <i_7422>:
    80007850:	0333a9b3          	mulhsu	s3,t2,s3

0000000080007854 <i_7423>:
    80007854:	162c09b7          	lui	s3,0x162c0

0000000080007858 <i_7424>:
    80007858:	00844833          	xor	a6,s0,s0

000000008000785c <i_7425>:
    8000785c:	10811503          	lh	a0,264(sp)

0000000080007860 <i_7426>:
    80007860:	00130313          	addi	t1,t1,1
    80007864:	fe6476e3          	bleu	t1,s0,80007850 <i_7422>

0000000080007868 <i_7427>:
    80007868:	12812a23          	sw	s0,308(sp)

000000008000786c <i_7428>:
    8000786c:	0ec12a03          	lw	s4,236(sp)

0000000080007870 <i_7429>:
    80007870:	b3a47093          	andi	ra,s0,-1222

0000000080007874 <i_7430>:
    80007874:	02b00813          	li	a6,43

0000000080007878 <i_7431>:
    80007878:	010a51b3          	srl	gp,s4,a6

000000008000787c <i_7432>:
    8000787c:	01065463          	ble	a6,a2,80007884 <i_7434>

0000000080007880 <i_7433>:
    80007880:	06714803          	lbu	a6,103(sp)

0000000080007884 <i_7434>:
    80007884:	00b36333          	or	t1,t1,a1

0000000080007888 <i_7435>:
    80007888:	00633333          	sltu	t1,t1,t1

000000008000788c <i_7436>:
    8000788c:	ee412083          	lw	ra,-284(sp)

0000000080007890 <i_7437>:
    80007890:	e81109a3          	sb	ra,-365(sp)

0000000080007894 <i_7438>:
    80007894:	09314483          	lbu	s1,147(sp)

0000000080007898 <i_7439>:
    80007898:	00431e13          	slli	t3,t1,0x4

000000008000789c <i_7440>:
    8000789c:	d5c4c093          	xori	ra,s1,-676

00000000800078a0 <i_7441>:
    800078a0:	26ed6eb7          	lui	t4,0x26ed6

00000000800078a4 <i_7442>:
    800078a4:	07412623          	sw	s4,108(sp)

00000000800078a8 <i_7443>:
    800078a8:	0b813303          	ld	t1,184(sp)

00000000800078ac <i_7444>:
    800078ac:	eb011a23          	sh	a6,-332(sp)

00000000800078b0 <i_7445>:
    800078b0:	06612e23          	sw	t1,124(sp)

00000000800078b4 <i_7446>:
    800078b4:	006ea833          	slt	a6,t4,t1

00000000800078b8 <i_7447>:
    800078b8:	033e523b          	divuw	tp,t3,s3

00000000800078bc <i_7448>:
    800078bc:	fc411123          	sh	tp,-62(sp)

00000000800078c0 <i_7449>:
    800078c0:	01400393          	li	t2,20

00000000800078c4 <i_7450>:
    800078c4:	407ed3b3          	sra	t2,t4,t2

00000000800078c8 <i_7451>:
    800078c8:	ee713023          	sd	t2,-288(sp)

00000000800078cc <i_7452>:
    800078cc:	02843433          	mulhu	s0,s0,s0

00000000800078d0 <i_7453>:
    800078d0:	fe813203          	ld	tp,-24(sp)

00000000800078d4 <i_7454>:
    800078d4:	02300413          	li	s0,35

00000000800078d8 <i_7455>:
    800078d8:	008593b3          	sll	t2,a1,s0

00000000800078dc <i_7456>:
    800078dc:	0273ca33          	div	s4,t2,t2

00000000800078e0 <i_7457>:
    800078e0:	fa410aa3          	sb	tp,-75(sp)

00000000800078e4 <i_7458>:
    800078e4:	0343ae33          	mulhsu	t3,t2,s4

00000000800078e8 <i_7459>:
    800078e8:	0fd13023          	sd	t4,224(sp)

00000000800078ec <i_7460>:
    800078ec:	02425063          	ble	tp,tp,8000790c <i_7468>

00000000800078f0 <i_7461>:
    800078f0:	4abb0bb7          	lui	s7,0x4abb0

00000000800078f4 <i_7462>:
    800078f4:	00a269b3          	or	s3,tp,a0

00000000800078f8 <i_7463>:
    800078f8:	03f3e063          	bltu	t2,t6,80007918 <i_7471>

00000000800078fc <i_7464>:
    800078fc:	004bd513          	srli	a0,s7,0x4

0000000080007900 <i_7465>:
    80007900:	0379d263          	ble	s7,s3,80007924 <i_7474>

0000000080007904 <i_7466>:
    80007904:	12211183          	lh	gp,290(sp)

0000000080007908 <i_7467>:
    80007908:	02b9d063          	ble	a1,s3,80007928 <i_7475>

000000008000790c <i_7468>:
    8000790c:	0131d463          	ble	s3,gp,80007914 <i_7470>

0000000080007910 <i_7469>:
    80007910:	0015de1b          	srliw	t3,a1,0x1

0000000080007914 <i_7470>:
    80007914:	02abd463          	ble	a0,s7,8000793c <i_7480>

0000000080007918 <i_7471>:
    80007918:	0c313023          	sd	gp,192(sp)

000000008000791c <i_7472>:
    8000791c:	f3c12c23          	sw	t3,-200(sp)

0000000080007920 <i_7473>:
    80007920:	05c10fa3          	sb	t3,95(sp)

0000000080007924 <i_7474>:
    80007924:	03c50063          	beq	a0,t3,80007944 <i_7482>

0000000080007928 <i_7475>:
    80007928:	1dc11423          	sh	t3,456(sp)

000000008000792c <i_7476>:
    8000792c:	00300e93          	li	t4,3

0000000080007930 <i_7477>:
    80007930:	01d999bb          	sllw	s3,s3,t4

0000000080007934 <i_7478>:
    80007934:	8c81e413          	ori	s0,gp,-1848

0000000080007938 <i_7479>:
    80007938:	cdfebb93          	sltiu	s7,t4,-801

000000008000793c <i_7480>:
    8000793c:	0a013183          	ld	gp,160(sp)

0000000080007940 <i_7481>:
    80007940:	00200293          	li	t0,2

0000000080007944 <i_7482>:
    80007944:	005412bb          	sllw	t0,s0,t0

0000000080007948 <i_7483>:
    80007948:	7f62be13          	sltiu	t3,t0,2038

000000008000794c <i_7484>:
    8000794c:	f8512a23          	sw	t0,-108(sp)

0000000080007950 <i_7485>:
    80007950:	06012483          	lw	s1,96(sp)

0000000080007954 <i_7486>:
    80007954:	ec012203          	lw	tp,-320(sp)

0000000080007958 <i_7487>:
    80007958:	ffc10e23          	sb	t3,-4(sp)

000000008000795c <i_7488>:
    8000795c:	f5813803          	ld	a6,-168(sp)

0000000080007960 <i_7489>:
    80007960:	e7813283          	ld	t0,-392(sp)

0000000080007964 <i_7490>:
    80007964:	03080463          	beq	a6,a6,8000798c <i_7500>

0000000080007968 <i_7491>:
    80007968:	404e519b          	sraiw	gp,t3,0x4

000000008000796c <i_7492>:
    8000796c:	01d00e13          	li	t3,29

0000000080007970 <i_7493>:
    80007970:	01c25eb3          	srl	t4,tp,t3

0000000080007974 <i_7494>:
    80007974:	00324463          	blt	tp,gp,8000797c <i_7496>

0000000080007978 <i_7495>:
    80007978:	02c00493          	li	s1,44

000000008000797c <i_7496>:
    8000797c:	009ed5b3          	srl	a1,t4,s1

0000000080007980 <i_7497>:
    80007980:	02b701b3          	mul	gp,a4,a1

0000000080007984 <i_7498>:
    80007984:	02319263          	bne	gp,gp,800079a8 <i_7507>

0000000080007988 <i_7499>:
    80007988:	02362433          	mulhsu	s0,a2,gp

000000008000798c <i_7500>:
    8000798c:	028a83bb          	mulw	t2,s5,s0

0000000080007990 <i_7501>:
    80007990:	00b76263          	bltu	a4,a1,80007994 <i_7502>

0000000080007994 <i_7502>:
    80007994:	05a14583          	lbu	a1,90(sp)

0000000080007998 <i_7503>:
    80007998:	f4811303          	lh	t1,-184(sp)

000000008000799c <i_7504>:
    8000799c:	5fe5c593          	xori	a1,a1,1534

00000000800079a0 <i_7505>:
    800079a0:	ee013383          	ld	t2,-288(sp)

00000000800079a4 <i_7506>:
    800079a4:	05510083          	lb	ra,85(sp)

00000000800079a8 <i_7507>:
    800079a8:	0011d19b          	srliw	gp,gp,0x1

00000000800079ac <i_7508>:
    800079ac:	007085b3          	add	a1,ra,t2

00000000800079b0 <i_7509>:
    800079b0:	00900d93          	li	s11,9

00000000800079b4 <i_7510>:
    800079b4:	41b3d233          	sra	tp,t2,s11

00000000800079b8 <i_7511>:
    800079b8:	f7812183          	lw	gp,-136(sp)

00000000800079bc <i_7512>:
    800079bc:	eba15083          	lhu	ra,-326(sp)

00000000800079c0 <i_7513>:
    800079c0:	18a11403          	lh	s0,394(sp)

00000000800079c4 <i_7514>:
    800079c4:	f9814383          	lbu	t2,-104(sp)

00000000800079c8 <i_7515>:
    800079c8:	e2a10a23          	sb	a0,-460(sp)

00000000800079cc <i_7516>:
    800079cc:	00700213          	li	tp,7

00000000800079d0 <i_7517>:
    800079d0:	004390bb          	sllw	ra,t2,tp

00000000800079d4 <i_7518>:
    800079d4:	014a6a33          	or	s4,s4,s4

00000000800079d8 <i_7519>:
    800079d8:	03f10523          	sb	t6,42(sp)

00000000800079dc <i_7520>:
    800079dc:	0341843b          	mulw	s0,gp,s4

00000000800079e0 <i_7521>:
    800079e0:	95e8de17          	auipc	t3,0x95e8d

00000000800079e4 <i_7522>:
    800079e4:	cd63c393          	xori	t2,t2,-810

00000000800079e8 <i_7523>:
    800079e8:	e2c14e83          	lbu	t4,-468(sp)

00000000800079ec <i_7524>:
    800079ec:	01c223b3          	slt	t2,tp,t3

00000000800079f0 <i_7525>:
    800079f0:	11c14a03          	lbu	s4,284(sp)

00000000800079f4 <i_7526>:
    800079f4:	7ae00793          	li	a5,1966

00000000800079f8 <i_7527>:
    800079f8:	7b100413          	li	s0,1969

00000000800079fc <i_7528>:
    800079fc:	401a5a1b          	sraiw	s4,s4,0x1

0000000080007a00 <i_7529>:
    80007a00:	00178793          	addi	a5,a5,1
    80007a04:	fe87ece3          	bltu	a5,s0,800079fc <i_7528>

0000000080007a08 <i_7530>:
    80007a08:	00f25663          	ble	a5,tp,80007a14 <i_7533>

0000000080007a0c <i_7531>:
    80007a0c:	02839063          	bne	t2,s0,80007a2c <i_7539>

0000000080007a10 <i_7532>:
    80007a10:	00c47263          	bleu	a2,s0,80007a14 <i_7533>

0000000080007a14 <i_7533>:
    80007a14:	41418a33          	sub	s4,gp,s4

0000000080007a18 <i_7534>:
    80007a18:	00000013          	nop

0000000080007a1c <i_7535>:
    80007a1c:	03452533          	mulhsu	a0,a0,s4

0000000080007a20 <i_7536>:
    80007a20:	12415783          	lhu	a5,292(sp)

0000000080007a24 <i_7537>:
    80007a24:	00000013          	nop

0000000080007a28 <i_7538>:
    80007a28:	00000013          	nop

0000000080007a2c <i_7539>:
    80007a2c:	12d14a03          	lbu	s4,301(sp)

0000000080007a30 <i_7540>:
    80007a30:	00000013          	nop

0000000080007a34 <i_7541>:
    80007a34:	81500193          	li	gp,-2027

0000000080007a38 <i_7542>:
    80007a38:	82700413          	li	s0,-2009

0000000080007a3c <i_7543>:
    80007a3c:	023a4463          	blt	s4,gp,80007a64 <i_7552>

0000000080007a40 <i_7544>:
    80007a40:	f1815e03          	lhu	t3,-232(sp)

0000000080007a44 <i_7545>:
    80007a44:	034e7663          	bleu	s4,t3,80007a70 <i_7555>

0000000080007a48 <i_7546>:
    80007a48:	00118193          	addi	gp,gp,1
    80007a4c:	fe3478e3          	bleu	gp,s0,80007a3c <i_7543>

0000000080007a50 <i_7547>:
    80007a50:	032539b3          	mulhu	s3,a0,s2

0000000080007a54 <i_7548>:
    80007a54:	02fef23b          	remuw	tp,t4,a5

0000000080007a58 <i_7549>:
    80007a58:	03356533          	rem	a0,a0,s3

0000000080007a5c <i_7550>:
    80007a5c:	039a9333          	mulh	t1,s5,s9

0000000080007a60 <i_7551>:
    80007a60:	0139ee63          	bltu	s3,s3,80007a7c <i_7558>

0000000080007a64 <i_7552>:
    80007a64:	033ec4b3          	div	s1,t4,s3

0000000080007a68 <i_7553>:
    80007a68:	19210d83          	lb	s11,402(sp)

0000000080007a6c <i_7554>:
    80007a6c:	00ada7b3          	slt	a5,s11,a0

0000000080007a70 <i_7555>:
    80007a70:	ed210d83          	lb	s11,-302(sp)

0000000080007a74 <i_7556>:
    80007a74:	002d9d9b          	slliw	s11,s11,0x2

0000000080007a78 <i_7557>:
    80007a78:	16c14a03          	lbu	s4,364(sp)

0000000080007a7c <i_7558>:
    80007a7c:	01415a03          	lhu	s4,20(sp)

0000000080007a80 <i_7559>:
    80007a80:	01f13423          	sd	t6,8(sp)

0000000080007a84 <i_7560>:
    80007a84:	75900993          	li	s3,1881

0000000080007a88 <i_7561>:
    80007a88:	76d00e93          	li	t4,1901

0000000080007a8c <i_7562>:
    80007a8c:	0217cdb3          	div	s11,a5,ra

0000000080007a90 <i_7563>:
    80007a90:	5d6d8a1b          	addiw	s4,s11,1494

0000000080007a94 <i_7564>:
    80007a94:	01bd84b3          	add	s1,s11,s11

0000000080007a98 <i_7565>:
    80007a98:	fd410783          	lb	a5,-44(sp)

0000000080007a9c <i_7566>:
    80007a9c:	03b78e33          	mul	t3,a5,s11

0000000080007aa0 <i_7567>:
    80007aa0:	03479333          	mulh	t1,a5,s4

0000000080007aa4 <i_7568>:
    80007aa4:	e6613823          	sd	t1,-400(sp)

0000000080007aa8 <i_7569>:
    80007aa8:	02f7c1b3          	div	gp,a5,a5

0000000080007aac <i_7570>:
    80007aac:	0043579b          	srliw	a5,t1,0x4

0000000080007ab0 <i_7571>:
    80007ab0:	00198993          	addi	s3,s3,1 # 162c0001 <main-0x69d3ffff>
    80007ab4:	fd3edce3          	ble	s3,t4,80007a8c <i_7562>

0000000080007ab8 <i_7572>:
    80007ab8:	04813803          	ld	a6,72(sp)

0000000080007abc <i_7573>:
    80007abc:	0290c833          	div	a6,ra,s1

0000000080007ac0 <i_7574>:
    80007ac0:	00f00093          	li	ra,15

0000000080007ac4 <i_7575>:
    80007ac4:	4011d23b          	sraw	tp,gp,ra

0000000080007ac8 <i_7576>:
    80007ac8:	00000013          	nop

0000000080007acc <i_7577>:
    80007acc:	0290e0bb          	remw	ra,ra,s1

0000000080007ad0 <i_7578>:
    80007ad0:	7b000b93          	li	s7,1968

0000000080007ad4 <i_7579>:
    80007ad4:	7b500493          	li	s1,1973

0000000080007ad8 <i_7580>:
    80007ad8:	001b8b93          	addi	s7,s7,1 # 4abb0001 <main-0x3544ffff>
    80007adc:	fe9beee3          	bltu	s7,s1,80007ad8 <i_7580>

0000000080007ae0 <i_7581>:
    80007ae0:	0090a4b3          	slt	s1,ra,s1

0000000080007ae4 <i_7582>:
    80007ae4:	0094a4b3          	slt	s1,s1,s1

0000000080007ae8 <i_7583>:
    80007ae8:	0ce15303          	lhu	t1,206(sp)

0000000080007aec <i_7584>:
    80007aec:	19314983          	lbu	s3,403(sp)

0000000080007af0 <i_7585>:
    80007af0:	029374b3          	remu	s1,t1,s1

0000000080007af4 <i_7586>:
    80007af4:	0069f9b3          	and	s3,s3,t1

0000000080007af8 <i_7587>:
    80007af8:	02d00d93          	li	s11,45

0000000080007afc <i_7588>:
    80007afc:	01b9d333          	srl	t1,s3,s11

0000000080007b00 <i_7589>:
    80007b00:	0a013583          	ld	a1,160(sp)

0000000080007b04 <i_7590>:
    80007b04:	ec816403          	lwu	s0,-312(sp)

0000000080007b08 <i_7591>:
    80007b08:	01b4d863          	ble	s11,s1,80007b18 <i_7595>

0000000080007b0c <i_7592>:
    80007b0c:	00e00493          	li	s1,14

0000000080007b10 <i_7593>:
    80007b10:	4094d4bb          	sraw	s1,s1,s1

0000000080007b14 <i_7594>:
    80007b14:	7d84c793          	xori	a5,s1,2008

0000000080007b18 <i_7595>:
    80007b18:	4039d49b          	sraiw	s1,s3,0x3

0000000080007b1c <i_7596>:
    80007b1c:	00000013          	nop

0000000080007b20 <i_7597>:
    80007b20:	81c00213          	li	tp,-2020

0000000080007b24 <i_7598>:
    80007b24:	82900d93          	li	s11,-2007

0000000080007b28 <i_7599>:
    80007b28:	bc2a041b          	addiw	s0,s4,-1086

0000000080007b2c <i_7600>:
    80007b2c:	15015983          	lhu	s3,336(sp)

0000000080007b30 <i_7601>:
    80007b30:	7ae00193          	li	gp,1966

0000000080007b34 <i_7602>:
    80007b34:	7c200a13          	li	s4,1986

0000000080007b38 <i_7603>:
    80007b38:	07a15e83          	lhu	t4,122(sp)

0000000080007b3c <i_7604>:
    80007b3c:	3fde8393          	addi	t2,t4,1021 # 26ed63fd <main-0x59129c03>

0000000080007b40 <i_7605>:
    80007b40:	00118193          	addi	gp,gp,1
    80007b44:	ff419ae3          	bne	gp,s4,80007b38 <i_7603>

0000000080007b48 <i_7606>:
    80007b48:	03d45663          	ble	t4,s0,80007b74 <i_7616>

0000000080007b4c <i_7607>:
    80007b4c:	09013e83          	ld	t4,144(sp)

0000000080007b50 <i_7608>:
    80007b50:	00120213          	addi	tp,tp,1 # 1 <main-0x7fffffff>
    80007b54:	fc4dfae3          	bleu	tp,s11,80007b28 <i_7599>

0000000080007b58 <i_7609>:
    80007b58:	f3313423          	sd	s3,-216(sp)

0000000080007b5c <i_7610>:
    80007b5c:	0274e463          	bltu	s1,t2,80007b84 <i_7620>

0000000080007b60 <i_7611>:
    80007b60:	fa714183          	lbu	gp,-89(sp)

0000000080007b64 <i_7612>:
    80007b64:	62b28eb7          	lui	t4,0x62b28

0000000080007b68 <i_7613>:
    80007b68:	013ec663          	blt	t4,s3,80007b74 <i_7616>

0000000080007b6c <i_7614>:
    80007b6c:	04713c23          	sd	t2,88(sp)

0000000080007b70 <i_7615>:
    80007b70:	09313423          	sd	s3,136(sp)

0000000080007b74 <i_7616>:
    80007b74:	3da3ae93          	slti	t4,t2,986

0000000080007b78 <i_7617>:
    80007b78:	03d49263          	bne	s1,t4,80007b9c <i_7626>

0000000080007b7c <i_7618>:
    80007b7c:	0083da63          	ble	s0,t2,80007b90 <i_7623>

0000000080007b80 <i_7619>:
    80007b80:	03ca2e33          	mulhsu	t3,s4,t3

0000000080007b84 <i_7620>:
    80007b84:	11d10a03          	lb	s4,285(sp)

0000000080007b88 <i_7621>:
    80007b88:	00900e13          	li	t3,9

0000000080007b8c <i_7622>:
    80007b8c:	01ce59b3          	srl	s3,t3,t3

0000000080007b90 <i_7623>:
    80007b90:	033e4463          	blt	t3,s3,80007bb8 <i_7633>

0000000080007b94 <i_7624>:
    80007b94:	01c9dc63          	ble	t3,s3,80007bac <i_7630>

0000000080007b98 <i_7625>:
    80007b98:	014e6e63          	bltu	t3,s4,80007bb4 <i_7632>

0000000080007b9c <i_7626>:
    80007b9c:	4049da13          	srai	s4,s3,0x4

0000000080007ba0 <i_7627>:
    80007ba0:	19a15983          	lhu	s3,410(sp)

0000000080007ba4 <i_7628>:
    80007ba4:	014e8663          	beq	t4,s4,80007bb0 <i_7631>

0000000080007ba8 <i_7629>:
    80007ba8:	03ce4e33          	div	t3,t3,t3

0000000080007bac <i_7630>:
    80007bac:	ea311b23          	sh	gp,-330(sp)

0000000080007bb0 <i_7631>:
    80007bb0:	033989bb          	mulw	s3,s3,s3

0000000080007bb4 <i_7632>:
    80007bb4:	ef514403          	lbu	s0,-267(sp)

0000000080007bb8 <i_7633>:
    80007bb8:	e6810b23          	sb	s0,-394(sp)

0000000080007bbc <i_7634>:
    80007bbc:	006e0c63          	beq	t3,t1,80007bd4 <i_7640>

0000000080007bc0 <i_7635>:
    80007bc0:	03347263          	bleu	s3,s0,80007be4 <i_7644>

0000000080007bc4 <i_7636>:
    80007bc4:	03c5d263          	ble	t3,a1,80007be8 <i_7645>

0000000080007bc8 <i_7637>:
    80007bc8:	01a9fc63          	bleu	s10,s3,80007be0 <i_7643>

0000000080007bcc <i_7638>:
    80007bcc:	06812e23          	sw	s0,124(sp)

0000000080007bd0 <i_7639>:
    80007bd0:	03cec063          	blt	t4,t3,80007bf0 <i_7647>

0000000080007bd4 <i_7640>:
    80007bd4:	033e7eb3          	remu	t4,t3,s3

0000000080007bd8 <i_7641>:
    80007bd8:	01ca1e63          	bne	s4,t3,80007bf4 <i_7648>

0000000080007bdc <i_7642>:
    80007bdc:	00000013          	nop

0000000080007be0 <i_7643>:
    80007be0:	033aa533          	mulhsu	a0,s5,s3

0000000080007be4 <i_7644>:
    80007be4:	02a67e3b          	remuw	t3,a2,a0

0000000080007be8 <i_7645>:
    80007be8:	01816d83          	lwu	s11,24(sp)

0000000080007bec <i_7646>:
    80007bec:	00000013          	nop

0000000080007bf0 <i_7647>:
    80007bf0:	fc410803          	lb	a6,-60(sp)

0000000080007bf4 <i_7648>:
    80007bf4:	e2314503          	lbu	a0,-477(sp)

0000000080007bf8 <i_7649>:
    80007bf8:	18a11503          	lh	a0,394(sp)

0000000080007bfc <i_7650>:
    80007bfc:	8ca00413          	li	s0,-1846

0000000080007c00 <i_7651>:
    80007c00:	8db00993          	li	s3,-1829

0000000080007c04 <i_7652>:
    80007c04:	00140413          	addi	s0,s0,1
    80007c08:	fe899ee3          	bne	s3,s0,80007c04 <i_7652>

0000000080007c0c <i_7653>:
    80007c0c:	11c12083          	lw	ra,284(sp)

0000000080007c10 <i_7654>:
    80007c10:	01b10fa3          	sb	s11,31(sp)

0000000080007c14 <i_7655>:
    80007c14:	02afe263          	bltu	t6,a0,80007c38 <i_7664>

0000000080007c18 <i_7656>:
    80007c18:	12813503          	ld	a0,296(sp)

0000000080007c1c <i_7657>:
    80007c1c:	00a542b3          	xor	t0,a0,a0

0000000080007c20 <i_7658>:
    80007c20:	00108e63          	beq	ra,ra,80007c3c <i_7665>

0000000080007c24 <i_7659>:
    80007c24:	4045551b          	sraiw	a0,a0,0x4

0000000080007c28 <i_7660>:
    80007c28:	f6113423          	sd	ra,-152(sp)

0000000080007c2c <i_7661>:
    80007c2c:	00a0ea63          	bltu	ra,a0,80007c40 <i_7666>

0000000080007c30 <i_7662>:
    80007c30:	eb954093          	xori	ra,a0,-327

0000000080007c34 <i_7663>:
    80007c34:	14a11323          	sh	a0,326(sp)

0000000080007c38 <i_7664>:
    80007c38:	0012e263          	bltu	t0,ra,80007c3c <i_7665>

0000000080007c3c <i_7665>:
    80007c3c:	e8710803          	lb	a6,-377(sp)

0000000080007c40 <i_7666>:
    80007c40:	02bf783b          	remuw	a6,t5,a1

0000000080007c44 <i_7667>:
    80007c44:	037855b3          	divu	a1,a6,s7

0000000080007c48 <i_7668>:
    80007c48:	13c12083          	lw	ra,316(sp)

0000000080007c4c <i_7669>:
    80007c4c:	030fc0b3          	div	ra,t6,a6

0000000080007c50 <i_7670>:
    80007c50:	05414d83          	lbu	s11,84(sp)

0000000080007c54 <i_7671>:
    80007c54:	00109263          	bne	ra,ra,80007c58 <i_7672>

0000000080007c58 <i_7672>:
    80007c58:	05e15283          	lhu	t0,94(sp)

0000000080007c5c <i_7673>:
    80007c5c:	00479293          	slli	t0,a5,0x4

0000000080007c60 <i_7674>:
    80007c60:	ff810483          	lb	s1,-8(sp)

0000000080007c64 <i_7675>:
    80007c64:	fa013203          	ld	tp,-96(sp)

0000000080007c68 <i_7676>:
    80007c68:	03d4deb3          	divu	t4,s1,t4

0000000080007c6c <i_7677>:
    80007c6c:	77100793          	li	a5,1905

0000000080007c70 <i_7678>:
    80007c70:	77300593          	li	a1,1907

0000000080007c74 <i_7679>:
    80007c74:	1a912823          	sw	s1,432(sp)

0000000080007c78 <i_7680>:
    80007c78:	03e25463          	ble	t5,tp,80007ca0 <i_7689>

0000000080007c7c <i_7681>:
    80007c7c:	00178793          	addi	a5,a5,1
    80007c80:	fef5dae3          	ble	a5,a1,80007c74 <i_7679>

0000000080007c84 <i_7682>:
    80007c84:	f4911123          	sh	s1,-190(sp)

0000000080007c88 <i_7683>:
    80007c88:	2c820b93          	addi	s7,tp,712 # 2c8 <main-0x7ffffd38>

0000000080007c8c <i_7684>:
    80007c8c:	00221a13          	slli	s4,tp,0x2

0000000080007c90 <i_7685>:
    80007c90:	e9e11b83          	lh	s7,-354(sp)

0000000080007c94 <i_7686>:
    80007c94:	00000013          	nop

0000000080007c98 <i_7687>:
    80007c98:	00000013          	nop

0000000080007c9c <i_7688>:
    80007c9c:	00000013          	nop

0000000080007ca0 <i_7689>:
    80007ca0:	024999b3          	mulh	s3,s3,tp

0000000080007ca4 <i_7690>:
    80007ca4:	f3f13023          	sd	t6,-224(sp)

0000000080007ca8 <i_7691>:
    80007ca8:	73500513          	li	a0,1845

0000000080007cac <i_7692>:
    80007cac:	73c00213          	li	tp,1852

0000000080007cb0 <i_7693>:
    80007cb0:	db5ef993          	andi	s3,t4,-587

0000000080007cb4 <i_7694>:
    80007cb4:	0f412183          	lw	gp,244(sp)

0000000080007cb8 <i_7695>:
    80007cb8:	79f00493          	li	s1,1951

0000000080007cbc <i_7696>:
    80007cbc:	7ad00e13          	li	t3,1965

0000000080007cc0 <i_7697>:
    80007cc0:	01c901b3          	add	gp,s2,t3

0000000080007cc4 <i_7698>:
    80007cc4:	00148493          	addi	s1,s1,1
    80007cc8:	ffc49ce3          	bne	s1,t3,80007cc0 <i_7697>

0000000080007ccc <i_7699>:
    80007ccc:	e5e11083          	lh	ra,-418(sp)

0000000080007cd0 <i_7700>:
    80007cd0:	00150513          	addi	a0,a0,1
    80007cd4:	fc454ee3          	blt	a0,tp,80007cb0 <i_7693>

0000000080007cd8 <i_7701>:
    80007cd8:	001e4e33          	xor	t3,t3,ra

0000000080007cdc <i_7702>:
    80007cdc:	f1b14083          	lbu	ra,-229(sp)

0000000080007ce0 <i_7703>:
    80007ce0:	00189c63          	bne	a7,ra,80007cf8 <i_7709>

0000000080007ce4 <i_7704>:
    80007ce4:	0210d463          	ble	ra,ra,80007d0c <i_7714>

0000000080007ce8 <i_7705>:
    80007ce8:	0d914d83          	lbu	s11,217(sp)

0000000080007cec <i_7706>:
    80007cec:	002a9093          	slli	ra,s5,0x2

0000000080007cf0 <i_7707>:
    80007cf0:	03816083          	lwu	ra,56(sp)

0000000080007cf4 <i_7708>:
    80007cf4:	06f10983          	lb	s3,111(sp)

0000000080007cf8 <i_7709>:
    80007cf8:	01c103a3          	sb	t3,7(sp)

0000000080007cfc <i_7710>:
    80007cfc:	033e09b3          	mul	s3,t3,s3

0000000080007d00 <i_7711>:
    80007d00:	00112623          	sw	ra,12(sp)

0000000080007d04 <i_7712>:
    80007d04:	0339d9bb          	divuw	s3,s3,s3

0000000080007d08 <i_7713>:
    80007d08:	01400993          	li	s3,20

0000000080007d0c <i_7714>:
    80007d0c:	4139ddb3          	sra	s11,s3,s3

0000000080007d10 <i_7715>:
    80007d10:	13c12e03          	lw	t3,316(sp)

0000000080007d14 <i_7716>:
    80007d14:	f949c813          	xori	a6,s3,-108

0000000080007d18 <i_7717>:
    80007d18:	01bd8463          	beq	s11,s11,80007d20 <i_7719>

0000000080007d1c <i_7718>:
    80007d1c:	01800293          	li	t0,24

0000000080007d20 <i_7719>:
    80007d20:	005dd43b          	srlw	s0,s11,t0

0000000080007d24 <i_7720>:
    80007d24:	405282bb          	subw	t0,t0,t0

0000000080007d28 <i_7721>:
    80007d28:	008e0263          	beq	t3,s0,80007d2c <i_7722>

0000000080007d2c <i_7722>:
    80007d2c:	41328e33          	sub	t3,t0,s3

0000000080007d30 <i_7723>:
    80007d30:	01be32b3          	sltu	t0,t3,s11

0000000080007d34 <i_7724>:
    80007d34:	87900193          	li	gp,-1927

0000000080007d38 <i_7725>:
    80007d38:	87d00593          	li	a1,-1923

0000000080007d3c <i_7726>:
    80007d3c:	1a511923          	sh	t0,434(sp)

0000000080007d40 <i_7727>:
    80007d40:	08c16483          	lwu	s1,140(sp)

0000000080007d44 <i_7728>:
    80007d44:	e3415303          	lhu	t1,-460(sp)

0000000080007d48 <i_7729>:
    80007d48:	01b6d463          	ble	s11,a3,80007d50 <i_7731>

0000000080007d4c <i_7730>:
    80007d4c:	0085d863          	ble	s0,a1,80007d5c <i_7734>

0000000080007d50 <i_7731>:
    80007d50:	ffc11a23          	sh	t3,-12(sp)

0000000080007d54 <i_7732>:
    80007d54:	00000013          	nop

0000000080007d58 <i_7733>:
    80007d58:	ecb109a3          	sb	a1,-301(sp)

0000000080007d5c <i_7734>:
    80007d5c:	00000013          	nop

0000000080007d60 <i_7735>:
    80007d60:	13813a03          	ld	s4,312(sp)

0000000080007d64 <i_7736>:
    80007d64:	fc215b83          	lhu	s7,-62(sp)

0000000080007d68 <i_7737>:
    80007d68:	03c5c533          	div	a0,a1,t3

0000000080007d6c <i_7738>:
    80007d6c:	00118193          	addi	gp,gp,1
    80007d70:	fcb196e3          	bne	gp,a1,80007d3c <i_7726>

0000000080007d74 <i_7739>:
    80007d74:	09816303          	lwu	t1,152(sp)

0000000080007d78 <i_7740>:
    80007d78:	f5e15483          	lhu	s1,-162(sp)

0000000080007d7c <i_7741>:
    80007d7c:	41ce0e3b          	subw	t3,t3,t3

0000000080007d80 <i_7742>:
    80007d80:	0059e9b3          	or	s3,s3,t0

0000000080007d84 <i_7743>:
    80007d84:	fa4e4e13          	xori	t3,t3,-92

0000000080007d88 <i_7744>:
    80007d88:	0d013e03          	ld	t3,208(sp)

0000000080007d8c <i_7745>:
    80007d8c:	ea813183          	ld	gp,-344(sp)

0000000080007d90 <i_7746>:
    80007d90:	00a55c63          	ble	a0,a0,80007da8 <i_7752>

0000000080007d94 <i_7747>:
    80007d94:	12310b23          	sb	gp,310(sp)

0000000080007d98 <i_7748>:
    80007d98:	02a9c263          	blt	s3,a0,80007dbc <i_7757>

0000000080007d9c <i_7749>:
    80007d9c:	03d18bb3          	mul	s7,gp,t4

0000000080007da0 <i_7750>:
    80007da0:	00000013          	nop

0000000080007da4 <i_7751>:
    80007da4:	00000013          	nop

0000000080007da8 <i_7752>:
    80007da8:	00000013          	nop

0000000080007dac <i_7753>:
    80007dac:	00355b9b          	srliw	s7,a0,0x3

0000000080007db0 <i_7754>:
    80007db0:	02ab7a33          	remu	s4,s6,a0

0000000080007db4 <i_7755>:
    80007db4:	19211a03          	lh	s4,402(sp)

0000000080007db8 <i_7756>:
    80007db8:	edc16983          	lwu	s3,-292(sp)

0000000080007dbc <i_7757>:
    80007dbc:	0379c9bb          	divw	s3,s3,s7

0000000080007dc0 <i_7758>:
    80007dc0:	9d79e993          	ori	s3,s3,-1577

0000000080007dc4 <i_7759>:
    80007dc4:	74300e93          	li	t4,1859

0000000080007dc8 <i_7760>:
    80007dc8:	75700193          	li	gp,1879

0000000080007dcc <i_7761>:
    80007dcc:	e5416983          	lwu	s3,-428(sp)

0000000080007dd0 <i_7762>:
    80007dd0:	0339c9b3          	div	s3,s3,s3

0000000080007dd4 <i_7763>:
    80007dd4:	79b00213          	li	tp,1947

0000000080007dd8 <i_7764>:
    80007dd8:	7aa00513          	li	a0,1962

0000000080007ddc <i_7765>:
    80007ddc:	00120213          	addi	tp,tp,1 # 1 <main-0x7fffffff>
    80007de0:	fe457ee3          	bleu	tp,a0,80007ddc <i_7765>

0000000080007de4 <i_7766>:
    80007de4:	0139b9b3          	sltu	s3,s3,s3

0000000080007de8 <i_7767>:
    80007de8:	f3016983          	lwu	s3,-208(sp)

0000000080007dec <i_7768>:
    80007dec:	03399833          	mulh	a6,s3,s3

0000000080007df0 <i_7769>:
    80007df0:	001e8e93          	addi	t4,t4,1 # 62b28001 <main-0x1d4d7fff>
    80007df4:	fdd1dce3          	ble	t4,gp,80007dcc <i_7761>

0000000080007df8 <i_7770>:
    80007df8:	fec11583          	lh	a1,-20(sp)

0000000080007dfc <i_7771>:
    80007dfc:	16614983          	lbu	s3,358(sp)

0000000080007e00 <i_7772>:
    80007e00:	013982b3          	add	t0,s3,s3

0000000080007e04 <i_7773>:
    80007e04:	0035e5b3          	or	a1,a1,gp

0000000080007e08 <i_7774>:
    80007e08:	01600513          	li	a0,22

0000000080007e0c <i_7775>:
    80007e0c:	00a8143b          	sllw	s0,a6,a0

0000000080007e10 <i_7776>:
    80007e10:	9a39a413          	slti	s0,s3,-1629

0000000080007e14 <i_7777>:
    80007e14:	08110283          	lb	t0,129(sp)

0000000080007e18 <i_7778>:
    80007e18:	a699e993          	ori	s3,s3,-1431

0000000080007e1c <i_7779>:
    80007e1c:	1d311423          	sh	s3,456(sp)

0000000080007e20 <i_7780>:
    80007e20:	af7a0997          	auipc	s3,0xaf7a0

0000000080007e24 <i_7781>:
    80007e24:	f2813203          	ld	tp,-216(sp)

0000000080007e28 <i_7782>:
    80007e28:	14b13023          	sd	a1,320(sp)

0000000080007e2c <i_7783>:
    80007e2c:	0059a2b3          	slt	t0,s3,t0

0000000080007e30 <i_7784>:
    80007e30:	01351463          	bne	a0,s3,80007e38 <i_7786>

0000000080007e34 <i_7785>:
    80007e34:	008682b3          	add	t0,a3,s0

0000000080007e38 <i_7786>:
    80007e38:	ef812383          	lw	t2,-264(sp)

0000000080007e3c <i_7787>:
    80007e3c:	00000013          	nop

0000000080007e40 <i_7788>:
    80007e40:	73f00e13          	li	t3,1855

0000000080007e44 <i_7789>:
    80007e44:	74200293          	li	t0,1858

0000000080007e48 <i_7790>:
    80007e48:	018207b3          	add	a5,tp,s8

0000000080007e4c <i_7791>:
    80007e4c:	fc812203          	lw	tp,-56(sp)

0000000080007e50 <i_7792>:
    80007e50:	c1d5f513          	andi	a0,a1,-995

0000000080007e54 <i_7793>:
    80007e54:	001e0e13          	addi	t3,t3,1 # 15e949e1 <main-0x6a16b61f>
    80007e58:	fe5e48e3          	blt	t3,t0,80007e48 <i_7790>

0000000080007e5c <i_7794>:
    80007e5c:	00724c63          	blt	tp,t2,80007e74 <i_7800>

0000000080007e60 <i_7795>:
    80007e60:	03714503          	lbu	a0,55(sp)

0000000080007e64 <i_7796>:
    80007e64:	017503b3          	add	t2,a0,s7

0000000080007e68 <i_7797>:
    80007e68:	f8713023          	sd	t2,-128(sp)

0000000080007e6c <i_7798>:
    80007e6c:	02cbcbb3          	div	s7,s7,a2

0000000080007e70 <i_7799>:
    80007e70:	13e15b83          	lhu	s7,318(sp)

0000000080007e74 <i_7800>:
    80007e74:	02bcbbb3          	mulhu	s7,s9,a1

0000000080007e78 <i_7801>:
    80007e78:	e9712223          	sw	s7,-380(sp)

0000000080007e7c <i_7802>:
    80007e7c:	f2f13023          	sd	a5,-224(sp)

0000000080007e80 <i_7803>:
    80007e80:	00439b9b          	slliw	s7,t2,0x4

0000000080007e84 <i_7804>:
    80007e84:	f9110a23          	sb	a7,-108(sp)

0000000080007e88 <i_7805>:
    80007e88:	ee714e83          	lbu	t4,-281(sp)

0000000080007e8c <i_7806>:
    80007e8c:	4eb97393          	andi	t2,s2,1259

0000000080007e90 <i_7807>:
    80007e90:	8a700793          	li	a5,-1881

0000000080007e94 <i_7808>:
    80007e94:	8ad00d93          	li	s11,-1875

0000000080007e98 <i_7809>:
    80007e98:	f1d10403          	lb	s0,-227(sp)

0000000080007e9c <i_7810>:
    80007e9c:	00000013          	nop

0000000080007ea0 <i_7811>:
    80007ea0:	02f454bb          	divuw	s1,s0,a5

0000000080007ea4 <i_7812>:
    80007ea4:	7e200413          	li	s0,2018

0000000080007ea8 <i_7813>:
    80007ea8:	7ea00e93          	li	t4,2026

0000000080007eac <i_7814>:
    80007eac:	03200e13          	li	t3,50

0000000080007eb0 <i_7815>:
    80007eb0:	01c45a33          	srl	s4,s0,t3

0000000080007eb4 <i_7816>:
    80007eb4:	00140413          	addi	s0,s0,1
    80007eb8:	fe8edae3          	ble	s0,t4,80007eac <i_7814>

0000000080007ebc <i_7817>:
    80007ebc:	00241a13          	slli	s4,s0,0x2

0000000080007ec0 <i_7818>:
    80007ec0:	f9412503          	lw	a0,-108(sp)

0000000080007ec4 <i_7819>:
    80007ec4:	ef013403          	ld	s0,-272(sp)

0000000080007ec8 <i_7820>:
    80007ec8:	e8913823          	sd	s1,-368(sp)

0000000080007ecc <i_7821>:
    80007ecc:	00178793          	addi	a5,a5,1
    80007ed0:	fdb7c4e3          	blt	a5,s11,80007e98 <i_7809>

0000000080007ed4 <i_7822>:
    80007ed4:	03012283          	lw	t0,48(sp)

0000000080007ed8 <i_7823>:
    80007ed8:	00954a63          	blt	a0,s1,80007eec <i_7828>

0000000080007edc <i_7824>:
    80007edc:	00615a03          	lhu	s4,6(sp)

0000000080007ee0 <i_7825>:
    80007ee0:	c69a4e13          	xori	t3,s4,-919

0000000080007ee4 <i_7826>:
    80007ee4:	0054c2b3          	xor	t0,s1,t0

0000000080007ee8 <i_7827>:
    80007ee8:	f6016483          	lwu	s1,-160(sp)

0000000080007eec <i_7828>:
    80007eec:	0148d863          	ble	s4,a7,80007efc <i_7832>

0000000080007ef0 <i_7829>:
    80007ef0:	05416283          	lwu	t0,84(sp)

0000000080007ef4 <i_7830>:
    80007ef4:	0294f2b3          	remu	t0,s1,s1

0000000080007ef8 <i_7831>:
    80007ef8:	fd013283          	ld	t0,-48(sp)

0000000080007efc <i_7832>:
    80007efc:	01200493          	li	s1,18

0000000080007f00 <i_7833>:
    80007f00:	009892bb          	sllw	t0,a7,s1

0000000080007f04 <i_7834>:
    80007f04:	82900093          	li	ra,-2007

0000000080007f08 <i_7835>:
    80007f08:	83500e13          	li	t3,-1995

0000000080007f0c <i_7836>:
    80007f0c:	4024d21b          	sraiw	tp,s1,0x2

0000000080007f10 <i_7837>:
    80007f10:	10911223          	sh	s1,260(sp)

0000000080007f14 <i_7838>:
    80007f14:	00108093          	addi	ra,ra,1 # e41d687d <_end+0x641c6469>
    80007f18:	ffc0cae3          	blt	ra,t3,80007f0c <i_7836>

0000000080007f1c <i_7839>:
    80007f1c:	0054dc63          	ble	t0,s1,80007f34 <i_7845>

0000000080007f20 <i_7840>:
    80007f20:	ede15583          	lhu	a1,-290(sp)

0000000080007f24 <i_7841>:
    80007f24:	02941833          	mulh	a6,s0,s1

0000000080007f28 <i_7842>:
    80007f28:	4034de13          	srai	t3,s1,0x3

0000000080007f2c <i_7843>:
    80007f2c:	1b011423          	sh	a6,424(sp)

0000000080007f30 <i_7844>:
    80007f30:	03c28463          	beq	t0,t3,80007f58 <i_7854>

0000000080007f34 <i_7845>:
    80007f34:	004b7463          	bleu	tp,s6,80007f3c <i_7847>

0000000080007f38 <i_7846>:
    80007f38:	00f4f463          	bleu	a5,s1,80007f40 <i_7848>

0000000080007f3c <i_7847>:
    80007f3c:	0012d663          	ble	ra,t0,80007f48 <i_7850>

0000000080007f40 <i_7848>:
    80007f40:	e8c15083          	lhu	ra,-372(sp)

0000000080007f44 <i_7849>:
    80007f44:	025264b3          	rem	s1,tp,t0

0000000080007f48 <i_7850>:
    80007f48:	10c10b83          	lb	s7,268(sp)

0000000080007f4c <i_7851>:
    80007f4c:	9690f793          	andi	a5,ra,-1687

0000000080007f50 <i_7852>:
    80007f50:	e8b11e23          	sh	a1,-356(sp)

0000000080007f54 <i_7853>:
    80007f54:	fe812e83          	lw	t4,-24(sp)

0000000080007f58 <i_7854>:
    80007f58:	00f5e5b3          	or	a1,a1,a5

0000000080007f5c <i_7855>:
    80007f5c:	00a10da3          	sb	a0,27(sp)

0000000080007f60 <i_7856>:
    80007f60:	00000013          	nop

0000000080007f64 <i_7857>:
    80007f64:	74600e13          	li	t3,1862

0000000080007f68 <i_7858>:
    80007f68:	75100513          	li	a0,1873

0000000080007f6c <i_7859>:
    80007f6c:	1a013783          	ld	a5,416(sp)

0000000080007f70 <i_7860>:
    80007f70:	fe811c23          	sh	s0,-8(sp)

0000000080007f74 <i_7861>:
    80007f74:	83b00413          	li	s0,-1989

0000000080007f78 <i_7862>:
    80007f78:	84e00593          	li	a1,-1970

0000000080007f7c <i_7863>:
    80007f7c:	dec78093          	addi	ra,a5,-532

0000000080007f80 <i_7864>:
    80007f80:	00000013          	nop

0000000080007f84 <i_7865>:
    80007f84:	e4611323          	sh	t1,-442(sp)

0000000080007f88 <i_7866>:
    80007f88:	0285e7bb          	remw	a5,a1,s0

0000000080007f8c <i_7867>:
    80007f8c:	00140413          	addi	s0,s0,1
    80007f90:	feb466e3          	bltu	s0,a1,80007f7c <i_7863>

0000000080007f94 <i_7868>:
    80007f94:	00826c63          	bltu	tp,s0,80007fac <i_7873>

0000000080007f98 <i_7869>:
    80007f98:	0010fa63          	bleu	ra,ra,80007fac <i_7873>

0000000080007f9c <i_7870>:
    80007f9c:	001e0e13          	addi	t3,t3,1
    80007fa0:	fdc556e3          	ble	t3,a0,80007f6c <i_7859>

0000000080007fa4 <i_7871>:
    80007fa4:	07016783          	lwu	a5,112(sp)

0000000080007fa8 <i_7872>:
    80007fa8:	00b7da63          	ble	a1,a5,80007fbc <i_7877>

0000000080007fac <i_7873>:
    80007fac:	1050e593          	ori	a1,ra,261

0000000080007fb0 <i_7874>:
    80007fb0:	00140463          	beq	s0,ra,80007fb8 <i_7876>

0000000080007fb4 <i_7875>:
    80007fb4:	00b1dc63          	ble	a1,gp,80007fcc <i_7881>

0000000080007fb8 <i_7876>:
    80007fb8:	00140463          	beq	s0,ra,80007fc0 <i_7878>

0000000080007fbc <i_7877>:
    80007fbc:	e8c12583          	lw	a1,-372(sp)

0000000080007fc0 <i_7878>:
    80007fc0:	02f270b3          	remu	ra,tp,a5

0000000080007fc4 <i_7879>:
    80007fc4:	0a012283          	lw	t0,160(sp)

0000000080007fc8 <i_7880>:
    80007fc8:	1a510ca3          	sb	t0,441(sp)

0000000080007fcc <i_7881>:
    80007fcc:	f2c12283          	lw	t0,-212(sp)

0000000080007fd0 <i_7882>:
    80007fd0:	1b012083          	lw	ra,432(sp)

0000000080007fd4 <i_7883>:
    80007fd4:	0250d063          	ble	t0,ra,80007ff4 <i_7891>

0000000080007fd8 <i_7884>:
    80007fd8:	0082f433          	and	s0,t0,s0

0000000080007fdc <i_7885>:
    80007fdc:	0044141b          	slliw	s0,s0,0x4

0000000080007fe0 <i_7886>:
    80007fe0:	02300193          	li	gp,35

0000000080007fe4 <i_7887>:
    80007fe4:	00345833          	srl	a6,s0,gp

0000000080007fe8 <i_7888>:
    80007fe8:	fc614403          	lbu	s0,-58(sp)

0000000080007fec <i_7889>:
    80007fec:	16311523          	sh	gp,362(sp)

0000000080007ff0 <i_7890>:
    80007ff0:	fd011a23          	sh	a6,-44(sp)

0000000080007ff4 <i_7891>:
    80007ff4:	00c44a63          	blt	s0,a2,80008008 <i_7896>

0000000080007ff8 <i_7892>:
    80007ff8:	03640433          	mul	s0,s0,s6

0000000080007ffc <i_7893>:
    80007ffc:	f4813503          	ld	a0,-184(sp)

0000000080008000 <i_7894>:
    80008000:	00000013          	nop

0000000080008004 <i_7895>:
    80008004:	8ac8851b          	addiw	a0,a7,-1876

0000000080008008 <i_7896>:
    80008008:	00000013          	nop

000000008000800c <i_7897>:
    8000800c:	00000013          	nop

0000000080008010 <i_7898>:
    80008010:	82800813          	li	a6,-2008

0000000080008014 <i_7899>:
    80008014:	83300493          	li	s1,-1997

0000000080008018 <i_7900>:
    80008018:	ef910203          	lb	tp,-263(sp)

000000008000801c <i_7901>:
    8000801c:	18911d23          	sh	s1,410(sp)

0000000080008020 <i_7902>:
    80008020:	12812423          	sw	s0,296(sp)

0000000080008024 <i_7903>:
    80008024:	fd615783          	lhu	a5,-42(sp)

0000000080008028 <i_7904>:
    80008028:	997ebe93          	sltiu	t4,t4,-1641

000000008000802c <i_7905>:
    8000802c:	02f4b533          	mulhu	a0,s1,a5

0000000080008030 <i_7906>:
    80008030:	01a12a23          	sw	s10,20(sp)

0000000080008034 <i_7907>:
    80008034:	fc816983          	lwu	s3,-56(sp)

0000000080008038 <i_7908>:
    80008038:	00957263          	bleu	s1,a0,8000803c <i_7909>

000000008000803c <i_7909>:
    8000803c:	f8812023          	sw	s0,-128(sp)

0000000080008040 <i_7910>:
    80008040:	02a9a433          	mulhsu	s0,s3,a0

0000000080008044 <i_7911>:
    80008044:	00180813          	addi	a6,a6,1
    80008048:	fd0498e3          	bne	s1,a6,80008018 <i_7900>

000000008000804c <i_7912>:
    8000804c:	7fc4841b          	addiw	s0,s1,2044

0000000080008050 <i_7913>:
    80008050:	0ca10b23          	sb	a0,214(sp)

0000000080008054 <i_7914>:
    80008054:	008e2533          	slt	a0,t3,s0

0000000080008058 <i_7915>:
    80008058:	ee8102a3          	sb	s0,-283(sp)

000000008000805c <i_7916>:
    8000805c:	00857c63          	bleu	s0,a0,80008074 <i_7922>

0000000080008060 <i_7917>:
    80008060:	e4811d23          	sh	s0,-422(sp)

0000000080008064 <i_7918>:
    80008064:	1aa11923          	sh	a0,434(sp)

0000000080008068 <i_7919>:
    80008068:	e7b10e83          	lb	t4,-389(sp)

000000008000806c <i_7920>:
    8000806c:	0f013c23          	sd	a6,248(sp)

0000000080008070 <i_7921>:
    80008070:	08811623          	sh	s0,140(sp)

0000000080008074 <i_7922>:
    80008074:	00600e13          	li	t3,6

0000000080008078 <i_7923>:
    80008078:	01c0d43b          	srlw	s0,ra,t3

000000008000807c <i_7924>:
    8000807c:	00843533          	sltu	a0,s0,s0

0000000080008080 <i_7925>:
    80008080:	00813423          	sd	s0,8(sp)

0000000080008084 <i_7926>:
    80008084:	00a13423          	sd	a0,8(sp)

0000000080008088 <i_7927>:
    80008088:	008ed263          	ble	s0,t4,8000808c <i_7928>

000000008000808c <i_7928>:
    8000808c:	03d00e93          	li	t4,61

0000000080008090 <i_7929>:
    80008090:	41dede33          	sra	t3,t4,t4

0000000080008094 <i_7930>:
    80008094:	01ce7c63          	bleu	t3,t3,800080ac <i_7936>

0000000080008098 <i_7931>:
    80008098:	00200e13          	li	t3,2

000000008000809c <i_7932>:
    8000809c:	01ce5833          	srl	a6,t3,t3

00000000800080a0 <i_7933>:
    800080a0:	005e7663          	bleu	t0,t3,800080ac <i_7936>

00000000800080a4 <i_7934>:
    800080a4:	011e9863          	bne	t4,a7,800080b4 <i_7938>

00000000800080a8 <i_7935>:
    800080a8:	41b38dbb          	subw	s11,t2,s11

00000000800080ac <i_7936>:
    800080ac:	00000013          	nop

00000000800080b0 <i_7937>:
    800080b0:	12812b83          	lw	s7,296(sp)

00000000800080b4 <i_7938>:
    800080b4:	00000013          	nop

00000000800080b8 <i_7939>:
    800080b8:	e4215e83          	lhu	t4,-446(sp)

00000000800080bc <i_7940>:
    800080bc:	78f00593          	li	a1,1935

00000000800080c0 <i_7941>:
    800080c0:	7a000193          	li	gp,1952

00000000800080c4 <i_7942>:
    800080c4:	42ddcd93          	xori	s11,s11,1069

00000000800080c8 <i_7943>:
    800080c8:	a1b30317          	auipc	t1,0xa1b30

00000000800080cc <i_7944>:
    800080cc:	00149493          	slli	s1,s1,0x1

00000000800080d0 <i_7945>:
    800080d0:	02640663          	beq	s0,t1,800080fc <i_7955>

00000000800080d4 <i_7946>:
    800080d4:	20642797          	auipc	a5,0x20642

00000000800080d8 <i_7947>:
    800080d8:	00fb8533          	add	a0,s7,a5

00000000800080dc <i_7948>:
    800080dc:	00000013          	nop

00000000800080e0 <i_7949>:
    800080e0:	00158593          	addi	a1,a1,1
    800080e4:	feb1d0e3          	ble	a1,gp,800080c4 <i_7942>

00000000800080e8 <i_7950>:
    800080e8:	e9513823          	sd	s5,-368(sp)

00000000800080ec <i_7951>:
    800080ec:	03d7f5bb          	remuw	a1,a5,t4

00000000800080f0 <i_7952>:
    800080f0:	02f5d7bb          	divuw	a5,a1,a5

00000000800080f4 <i_7953>:
    800080f4:	e3014283          	lbu	t0,-464(sp)

00000000800080f8 <i_7954>:
    800080f8:	0177f7b3          	and	a5,a5,s7

00000000800080fc <i_7955>:
    800080fc:	efa10503          	lb	a0,-262(sp)

0000000080008100 <i_7956>:
    80008100:	00f52bb3          	slt	s7,a0,a5

0000000080008104 <i_7957>:
    80008104:	02fc5463          	ble	a5,s8,8000812c <i_7967>

0000000080008108 <i_7958>:
    80008108:	8647b793          	sltiu	a5,a5,-1948

000000008000810c <i_7959>:
    8000810c:	ef310983          	lb	s3,-269(sp)

0000000080008110 <i_7960>:
    80008110:	ec09a793          	slti	a5,s3,-320

0000000080008114 <i_7961>:
    80008114:	00f7f263          	bleu	a5,a5,80008118 <i_7962>

0000000080008118 <i_7962>:
    80008118:	18215303          	lhu	t1,386(sp)

000000008000811c <i_7963>:
    8000811c:	a6e78793          	addi	a5,a5,-1426 # a0649b42 <_end+0x2063972e>

0000000080008120 <i_7964>:
    80008120:	0cf11e23          	sh	a5,220(sp)

0000000080008124 <i_7965>:
    80008124:	fdd02a17          	auipc	s4,0xfdd02

0000000080008128 <i_7966>:
    80008128:	03e4d333          	divu	t1,s1,t5

000000008000812c <i_7967>:
    8000812c:	00000013          	nop

0000000080008130 <i_7968>:
    80008130:	00637333          	and	t1,t1,t1

0000000080008134 <i_7969>:
    80008134:	73700493          	li	s1,1847

0000000080008138 <i_7970>:
    80008138:	74300793          	li	a5,1859

000000008000813c <i_7971>:
    8000813c:	0f413823          	sd	s4,240(sp)

0000000080008140 <i_7972>:
    80008140:	00148493          	addi	s1,s1,1
    80008144:	fef4cce3          	blt	s1,a5,8000813c <i_7971>

0000000080008148 <i_7973>:
    80008148:	01700d93          	li	s11,23

000000008000814c <i_7974>:
    8000814c:	01b69a3b          	sllw	s4,a3,s11

0000000080008150 <i_7975>:
    80008150:	03ba6a3b          	remw	s4,s4,s11

0000000080008154 <i_7976>:
    80008154:	00600d93          	li	s11,6

0000000080008158 <i_7977>:
    80008158:	41ba543b          	sraw	s0,s4,s11

000000008000815c <i_7978>:
    8000815c:	1dc16803          	lwu	a6,476(sp)

0000000080008160 <i_7979>:
    80008160:	ea813403          	ld	s0,-344(sp)

0000000080008164 <i_7980>:
    80008164:	02a151b3          	divu	gp,sp,a0

0000000080008168 <i_7981>:
    80008168:	0080e663          	bltu	ra,s0,80008174 <i_7984>

000000008000816c <i_7982>:
    8000816c:	01b81863          	bne	a6,s11,8000817c <i_7986>

0000000080008170 <i_7983>:
    80008170:	e4712623          	sw	t2,-436(sp)

0000000080008174 <i_7984>:
    80008174:	0031ceb3          	xor	t4,gp,gp

0000000080008178 <i_7985>:
    80008178:	027e83bb          	mulw	t2,t4,t2

000000008000817c <i_7986>:
    8000817c:	027283bb          	mulw	t2,t0,t2

0000000080008180 <i_7987>:
    80008180:	00000013          	nop

0000000080008184 <i_7988>:
    80008184:	73500813          	li	a6,1845

0000000080008188 <i_7989>:
    80008188:	74900193          	li	gp,1865

000000008000818c <i_7990>:
    8000818c:	14816483          	lwu	s1,328(sp)

0000000080008190 <i_7991>:
    80008190:	02939263          	bne	t2,s1,800081b4 <i_7999>

0000000080008194 <i_7992>:
    80008194:	5ece7db7          	lui	s11,0x5ece7

0000000080008198 <i_7993>:
    80008198:	fe914483          	lbu	s1,-23(sp)

000000008000819c <i_7994>:
    8000819c:	00180813          	addi	a6,a6,1
    800081a0:	ff01d6e3          	ble	a6,gp,8000818c <i_7990>

00000000800081a4 <i_7995>:
    800081a4:	009dce63          	blt	s11,s1,800081c0 <i_8002>

00000000800081a8 <i_7996>:
    800081a8:	06811d83          	lh	s11,104(sp)

00000000800081ac <i_7997>:
    800081ac:	00696663          	bltu	s2,t1,800081b8 <i_8000>

00000000800081b0 <i_7998>:
    800081b0:	f6813303          	ld	t1,-152(sp)

00000000800081b4 <i_7999>:
    800081b4:	f8612c23          	sw	t1,-104(sp)

00000000800081b8 <i_8000>:
    800081b8:	02637a3b          	remuw	s4,t1,t1

00000000800081bc <i_8001>:
    800081bc:	f7d14303          	lbu	t1,-131(sp)

00000000800081c0 <i_8002>:
    800081c0:	17c12303          	lw	t1,380(sp)

00000000800081c4 <i_8003>:
    800081c4:	1e510303          	lb	t1,485(sp)

00000000800081c8 <i_8004>:
    800081c8:	15412e23          	sw	s4,348(sp)

00000000800081cc <i_8005>:
    800081cc:	0294d833          	divu	a6,s1,s1

00000000800081d0 <i_8006>:
    800081d0:	03600093          	li	ra,54

00000000800081d4 <i_8007>:
    800081d4:	001a1833          	sll	a6,s4,ra

00000000800081d8 <i_8008>:
    800081d8:	81100413          	li	s0,-2031

00000000800081dc <i_8009>:
    800081dc:	81900a13          	li	s4,-2023

00000000800081e0 <i_8010>:
    800081e0:	01084a63          	blt	a6,a6,800081f4 <i_8015>

00000000800081e4 <i_8011>:
    800081e4:	17012e23          	sw	a6,380(sp)

00000000800081e8 <i_8012>:
    800081e8:	0f813583          	ld	a1,248(sp)

00000000800081ec <i_8013>:
    800081ec:	05016803          	lwu	a6,80(sp)

00000000800081f0 <i_8014>:
    800081f0:	e185b213          	sltiu	tp,a1,-488

00000000800081f4 <i_8015>:
    800081f4:	e6413423          	sd	tp,-408(sp)

00000000800081f8 <i_8016>:
    800081f8:	003d02b3          	add	t0,s10,gp

00000000800081fc <i_8017>:
    800081fc:	1df5b593          	sltiu	a1,a1,479

0000000080008200 <i_8018>:
    80008200:	004ede93          	srli	t4,t4,0x4

0000000080008204 <i_8019>:
    80008204:	00140413          	addi	s0,s0,1
    80008208:	fc8a5ce3          	ble	s0,s4,800081e0 <i_8010>

000000008000820c <i_8020>:
    8000820c:	00c00a13          	li	s4,12

0000000080008210 <i_8021>:
    80008210:	01481e3b          	sllw	t3,a6,s4

0000000080008214 <i_8022>:
    80008214:	00100593          	li	a1,1

0000000080008218 <i_8023>:
    80008218:	00b8153b          	sllw	a0,a6,a1

000000008000821c <i_8024>:
    8000821c:	004e81b3          	add	gp,t4,tp

0000000080008220 <i_8025>:
    80008220:	ec313423          	sd	gp,-312(sp)

0000000080008224 <i_8026>:
    80008224:	4011d21b          	sraiw	tp,gp,0x1

0000000080008228 <i_8027>:
    80008228:	00459863          	bne	a1,tp,80008238 <i_8031>

000000008000822c <i_8028>:
    8000822c:	0041d193          	srli	gp,gp,0x4

0000000080008230 <i_8029>:
    80008230:	e3813403          	ld	s0,-456(sp)

0000000080008234 <i_8030>:
    80008234:	03a5debb          	divuw	t4,a1,s10

0000000080008238 <i_8031>:
    80008238:	0eb11c23          	sh	a1,248(sp)

000000008000823c <i_8032>:
    8000823c:	09811203          	lh	tp,152(sp)

0000000080008240 <i_8033>:
    80008240:	004ee1b3          	or	gp,t4,tp

0000000080008244 <i_8034>:
    80008244:	0e013e03          	ld	t3,224(sp)

0000000080008248 <i_8035>:
    80008248:	fbd11c23          	sh	t4,-72(sp)

000000008000824c <i_8036>:
    8000824c:	0248683b          	remw	a6,a6,tp

0000000080008250 <i_8037>:
    80008250:	01c20233          	add	tp,tp,t3

0000000080008254 <i_8038>:
    80008254:	e8016803          	lwu	a6,-384(sp)

0000000080008258 <i_8039>:
    80008258:	01025663          	ble	a6,tp,80008264 <i_8042>

000000008000825c <i_8040>:
    8000825c:	ebc15e03          	lhu	t3,-324(sp)

0000000080008260 <i_8041>:
    80008260:	01c1ea63          	bltu	gp,t3,80008274 <i_8046>

0000000080008264 <i_8042>:
    80008264:	1dc101a3          	sb	t3,451(sp)

0000000080008268 <i_8043>:
    80008268:	09712c23          	sw	s7,152(sp)

000000008000826c <i_8044>:
    8000826c:	09414383          	lbu	t2,148(sp)

0000000080008270 <i_8045>:
    80008270:	00300e13          	li	t3,3

0000000080008274 <i_8046>:
    80008274:	01c3d53b          	srlw	a0,t2,t3

0000000080008278 <i_8047>:
    80008278:	00b00b93          	li	s7,11

000000008000827c <i_8048>:
    8000827c:	4173d3bb          	sraw	t2,t2,s7

0000000080008280 <i_8049>:
    80008280:	e4a12623          	sw	a0,-436(sp)

0000000080008284 <i_8050>:
    80008284:	19813d83          	ld	s11,408(sp)

0000000080008288 <i_8051>:
    80008288:	03ba2a33          	mulhsu	s4,s4,s11

000000008000828c <i_8052>:
    8000828c:	00000013          	nop

0000000080008290 <i_8053>:
    80008290:	02414303          	lbu	t1,36(sp)

0000000080008294 <i_8054>:
    80008294:	7c600513          	li	a0,1990

0000000080008298 <i_8055>:
    80008298:	7d000793          	li	a5,2000

000000008000829c <i_8056>:
    8000829c:	ec612423          	sw	t1,-312(sp)

00000000800082a0 <i_8057>:
    800082a0:	05015e03          	lhu	t3,80(sp)

00000000800082a4 <i_8058>:
    800082a4:	00494663          	blt	s2,tp,800082b0 <i_8061>

00000000800082a8 <i_8059>:
    800082a8:	026a5463          	ble	t1,s4,800082d0 <i_8068>

00000000800082ac <i_8060>:
    800082ac:	0d0109a3          	sb	a6,211(sp)

00000000800082b0 <i_8061>:
    800082b0:	71736a37          	lui	s4,0x71736

00000000800082b4 <i_8062>:
    800082b4:	03715a3b          	divuw	s4,sp,s7

00000000800082b8 <i_8063>:
    800082b8:	09415303          	lhu	t1,148(sp)

00000000800082bc <i_8064>:
    800082bc:	00150513          	addi	a0,a0,1
    800082c0:	fcf56ee3          	bltu	a0,a5,8000829c <i_8056>

00000000800082c4 <i_8065>:
    800082c4:	034e7e33          	remu	t3,t3,s4

00000000800082c8 <i_8066>:
    800082c8:	006e05b3          	add	a1,t3,t1

00000000800082cc <i_8067>:
    800082cc:	0030d093          	srli	ra,ra,0x3

00000000800082d0 <i_8068>:
    800082d0:	f8010803          	lb	a6,-128(sp)

00000000800082d4 <i_8069>:
    800082d4:	10615583          	lhu	a1,262(sp)

00000000800082d8 <i_8070>:
    800082d8:	e27a7313          	andi	t1,s4,-473

00000000800082dc <i_8071>:
    800082dc:	9697a793          	slti	a5,a5,-1687

00000000800082e0 <i_8072>:
    800082e0:	006cf5b3          	and	a1,s9,t1

00000000800082e4 <i_8073>:
    800082e4:	16412a03          	lw	s4,356(sp)

00000000800082e8 <i_8074>:
    800082e8:	e1a10a03          	lb	s4,-486(sp)

00000000800082ec <i_8075>:
    800082ec:	414a0a3b          	subw	s4,s4,s4

00000000800082f0 <i_8076>:
    800082f0:	40325213          	srai	tp,tp,0x3

00000000800082f4 <i_8077>:
    800082f4:	004287b3          	add	a5,t0,tp

00000000800082f8 <i_8078>:
    800082f8:	005a3a33          	sltu	s4,s4,t0

00000000800082fc <i_8079>:
    800082fc:	7b200293          	li	t0,1970

0000000080008300 <i_8080>:
    80008300:	7ba00213          	li	tp,1978

0000000080008304 <i_8081>:
    80008304:	18016303          	lwu	t1,384(sp)

0000000080008308 <i_8082>:
    80008308:	f7a11783          	lh	a5,-134(sp)

000000008000830c <i_8083>:
    8000830c:	02feeeb3          	rem	t4,t4,a5

0000000080008310 <i_8084>:
    80008310:	1a815e03          	lhu	t3,424(sp)

0000000080008314 <i_8085>:
    80008314:	2abac313          	xori	t1,s5,683

0000000080008318 <i_8086>:
    80008318:	eb416a03          	lwu	s4,-332(sp)

000000008000831c <i_8087>:
    8000831c:	ecc12223          	sw	a2,-316(sp)

0000000080008320 <i_8088>:
    80008320:	16610d23          	sb	t1,378(sp)

0000000080008324 <i_8089>:
    80008324:	7a800193          	li	gp,1960

0000000080008328 <i_8090>:
    80008328:	7b800593          	li	a1,1976

000000008000832c <i_8091>:
    8000832c:	0350c4bb          	divw	s1,ra,s5

0000000080008330 <i_8092>:
    80008330:	00118193          	addi	gp,gp,1
    80008334:	feb1ece3          	bltu	gp,a1,8000832c <i_8091>

0000000080008338 <i_8093>:
    80008338:	f5d10ba3          	sb	t4,-169(sp)

000000008000833c <i_8094>:
    8000833c:	02635263          	ble	t1,t1,80008360 <i_8102>

0000000080008340 <i_8095>:
    80008340:	40658333          	sub	t1,a1,t1

0000000080008344 <i_8096>:
    80008344:	00128293          	addi	t0,t0,1
    80008348:	fa527ee3          	bleu	t0,tp,80008304 <i_8081>

000000008000834c <i_8097>:
    8000834c:	ea911323          	sh	s1,-346(sp)

0000000080008350 <i_8098>:
    80008350:	00159413          	slli	s0,a1,0x1

0000000080008354 <i_8099>:
    80008354:	008465b3          	or	a1,s0,s0

0000000080008358 <i_8100>:
    80008358:	0fc12283          	lw	t0,252(sp)

000000008000835c <i_8101>:
    8000835c:	4025d313          	srai	t1,a1,0x2

0000000080008360 <i_8102>:
    80008360:	0065e263          	bltu	a1,t1,80008364 <i_8103>

0000000080008364 <i_8103>:
    80008364:	e3c12d83          	lw	s11,-452(sp)

0000000080008368 <i_8104>:
    80008368:	02429063          	bne	t0,tp,80008388 <i_8112>

000000008000836c <i_8105>:
    8000836c:	18015303          	lhu	t1,384(sp)

0000000080008370 <i_8106>:
    80008370:	01b5c263          	blt	a1,s11,80008374 <i_8107>

0000000080008374 <i_8107>:
    80008374:	02b00793          	li	a5,43

0000000080008378 <i_8108>:
    80008378:	40f5d333          	sra	t1,a1,a5

000000008000837c <i_8109>:
    8000837c:	026d9433          	mulh	s0,s11,t1

0000000080008380 <i_8110>:
    80008380:	0af11023          	sh	a5,160(sp)

0000000080008384 <i_8111>:
    80008384:	05010203          	lb	tp,80(sp)

0000000080008388 <i_8112>:
    80008388:	0a611d23          	sh	t1,186(sp)

000000008000838c <i_8113>:
    8000838c:	00600293          	li	t0,6

0000000080008390 <i_8114>:
    80008390:	40525a3b          	sraw	s4,tp,t0

0000000080008394 <i_8115>:
    80008394:	01b27863          	bleu	s11,tp,800083a4 <i_8119>

0000000080008398 <i_8116>:
    80008398:	0085ec63          	bltu	a1,s0,800083b0 <i_8122>

000000008000839c <i_8117>:
    8000839c:	eda13423          	sd	s10,-312(sp)

00000000800083a0 <i_8118>:
    800083a0:	00b41c63          	bne	s0,a1,800083b8 <i_8124>

00000000800083a4 <i_8119>:
    800083a4:	f7812e03          	lw	t3,-136(sp)

00000000800083a8 <i_8120>:
    800083a8:	002ddd93          	srli	s11,s11,0x2

00000000800083ac <i_8121>:
    800083ac:	0034179b          	slliw	a5,s0,0x3

00000000800083b0 <i_8122>:
    800083b0:	0280d0b3          	divu	ra,ra,s0

00000000800083b4 <i_8123>:
    800083b4:	1a710d83          	lb	s11,423(sp)

00000000800083b8 <i_8124>:
    800083b8:	15f10d83          	lb	s11,351(sp)

00000000800083bc <i_8125>:
    800083bc:	fb7bf293          	andi	t0,s7,-73

00000000800083c0 <i_8126>:
    800083c0:	79000413          	li	s0,1936

00000000800083c4 <i_8127>:
    800083c4:	79d00593          	li	a1,1949

00000000800083c8 <i_8128>:
    800083c8:	025debb3          	rem	s7,s11,t0

00000000800083cc <i_8129>:
    800083cc:	e8811283          	lh	t0,-376(sp)

00000000800083d0 <i_8130>:
    800083d0:	fdd12223          	sw	t4,-60(sp)

00000000800083d4 <i_8131>:
    800083d4:	f45106a3          	sb	t0,-179(sp)

00000000800083d8 <i_8132>:
    800083d8:	01200393          	li	t2,18

00000000800083dc <i_8133>:
    800083dc:	007b93bb          	sllw	t2,s7,t2

00000000800083e0 <i_8134>:
    800083e0:	eb613c23          	sd	s6,-328(sp)

00000000800083e4 <i_8135>:
    800083e4:	01b10483          	lb	s1,27(sp)

00000000800083e8 <i_8136>:
    800083e8:	17c16b83          	lwu	s7,380(sp)

00000000800083ec <i_8137>:
    800083ec:	00140413          	addi	s0,s0,1
    800083f0:	fc85fce3          	bleu	s0,a1,800083c8 <i_8128>

00000000800083f4 <i_8138>:
    800083f4:	e85109a3          	sb	t0,-365(sp)

00000000800083f8 <i_8139>:
    800083f8:	037b9263          	bne	s7,s7,8000841c <i_8148>

00000000800083fc <i_8140>:
    800083fc:	15914483          	lbu	s1,345(sp)

0000000080008400 <i_8141>:
    80008400:	9c30f537          	lui	a0,0x9c30f

0000000080008404 <i_8142>:
    80008404:	0093de63          	ble	s1,t2,80008420 <i_8149>

0000000080008408 <i_8143>:
    80008408:	15710823          	sb	s7,336(sp)

000000008000840c <i_8144>:
    8000840c:	00796663          	bltu	s2,t2,80008418 <i_8147>

0000000080008410 <i_8145>:
    80008410:	a774f193          	andi	gp,s1,-1417

0000000080008414 <i_8146>:
    80008414:	0e512423          	sw	t0,232(sp)

0000000080008418 <i_8147>:
    80008418:	404ed293          	srai	t0,t4,0x4

000000008000841c <i_8148>:
    8000841c:	0092f463          	bleu	s1,t0,80008424 <i_8150>

0000000080008420 <i_8149>:
    80008420:	1b416503          	lwu	a0,436(sp)

0000000080008424 <i_8150>:
    80008424:	00f00b93          	li	s7,15

0000000080008428 <i_8151>:
    80008428:	017e133b          	sllw	t1,t3,s7

000000008000842c <i_8152>:
    8000842c:	8bb00193          	li	gp,-1861

0000000080008430 <i_8153>:
    80008430:	8cc00293          	li	t0,-1844

0000000080008434 <i_8154>:
    80008434:	187104a3          	sb	t2,393(sp)

0000000080008438 <i_8155>:
    80008438:	fd310503          	lb	a0,-45(sp)

000000008000843c <i_8156>:
    8000843c:	00f57e33          	and	t3,a0,a5

0000000080008440 <i_8157>:
    80008440:	4045549b          	sraiw	s1,a0,0x4

0000000080008444 <i_8158>:
    80008444:	f4611123          	sh	t1,-190(sp)

0000000080008448 <i_8159>:
    80008448:	ef74841b          	addiw	s0,s1,-265

000000008000844c <i_8160>:
    8000844c:	00118193          	addi	gp,gp,1
    80008450:	fe51e2e3          	bltu	gp,t0,80008434 <i_8154>

0000000080008454 <i_8161>:
    80008454:	1d814303          	lbu	t1,472(sp)

0000000080008458 <i_8162>:
    80008458:	00400493          	li	s1,4

000000008000845c <i_8163>:
    8000845c:	009914b3          	sll	s1,s2,s1

0000000080008460 <i_8164>:
    80008460:	0014d313          	srli	t1,s1,0x1

0000000080008464 <i_8165>:
    80008464:	00937e63          	bleu	s1,t1,80008480 <i_8172>

0000000080008468 <i_8166>:
    80008468:	06215383          	lhu	t2,98(sp)

000000008000846c <i_8167>:
    8000846c:	026d833b          	mulw	t1,s11,t1

0000000080008470 <i_8168>:
    80008470:	0094d663          	ble	s1,s1,8000847c <i_8171>

0000000080008474 <i_8169>:
    80008474:	ff815383          	lhu	t2,-8(sp)

0000000080008478 <i_8170>:
    80008478:	fd314583          	lbu	a1,-45(sp)

000000008000847c <i_8171>:
    8000847c:	e3c15303          	lhu	t1,-452(sp)

0000000080008480 <i_8172>:
    80008480:	02732e33          	mulhsu	t3,t1,t2

0000000080008484 <i_8173>:
    80008484:	11c16483          	lwu	s1,284(sp)

0000000080008488 <i_8174>:
    80008488:	002e5313          	srli	t1,t3,0x2

000000008000848c <i_8175>:
    8000848c:	57937313          	andi	t1,t1,1401

0000000080008490 <i_8176>:
    80008490:	f6c16383          	lwu	t2,-148(sp)

0000000080008494 <i_8177>:
    80008494:	02730263          	beq	t1,t2,800084b8 <i_8186>

0000000080008498 <i_8178>:
    80008498:	026373bb          	remuw	t2,t1,t1

000000008000849c <i_8179>:
    8000849c:	10416303          	lwu	t1,260(sp)

00000000800084a0 <i_8180>:
    800084a0:	00231393          	slli	t2,t1,0x2

00000000800084a4 <i_8181>:
    800084a4:	4023da1b          	sraiw	s4,t2,0x2

00000000800084a8 <i_8182>:
    800084a8:	026341bb          	divw	gp,t1,t1

00000000800084ac <i_8183>:
    800084ac:	e9012823          	sw	a6,-368(sp)

00000000800084b0 <i_8184>:
    800084b0:	f4f14383          	lbu	t2,-177(sp)

00000000800084b4 <i_8185>:
    800084b4:	0093ca33          	xor	s4,t2,s1

00000000800084b8 <i_8186>:
    800084b8:	7da1ca13          	xori	s4,gp,2010

00000000800084bc <i_8187>:
    800084bc:	02384833          	div	a6,a6,gp

00000000800084c0 <i_8188>:
    800084c0:	74000093          	li	ra,1856

00000000800084c4 <i_8189>:
    800084c4:	74c00313          	li	t1,1868

00000000800084c8 <i_8190>:
    800084c8:	0181c463          	blt	gp,s8,800084d0 <i_8192>

00000000800084cc <i_8191>:
    800084cc:	00000013          	nop

00000000800084d0 <i_8192>:
    800084d0:	04215503          	lhu	a0,66(sp)

00000000800084d4 <i_8193>:
    800084d4:	4a236db7          	lui	s11,0x4a236

00000000800084d8 <i_8194>:
    800084d8:	04310d23          	sb	gp,90(sp)

00000000800084dc <i_8195>:
    800084dc:	15011523          	sh	a6,330(sp)

00000000800084e0 <i_8196>:
    800084e0:	ff614803          	lbu	a6,-10(sp)

00000000800084e4 <i_8197>:
    800084e4:	8651841b          	addiw	s0,gp,-1947

00000000800084e8 <i_8198>:
    800084e8:	00108093          	addi	ra,ra,1
    800084ec:	fc137ee3          	bleu	ra,t1,800084c8 <i_8190>

00000000800084f0 <i_8199>:
    800084f0:	00000013          	nop

00000000800084f4 <i_8200>:
    800084f4:	00000013          	nop

00000000800084f8 <i_8201>:
    800084f8:	86800793          	li	a5,-1944

00000000800084fc <i_8202>:
    800084fc:	87200a13          	li	s4,-1934

0000000080008500 <i_8203>:
    80008500:	c4940413          	addi	s0,s0,-951

0000000080008504 <i_8204>:
    80008504:	08313023          	sd	gp,128(sp)

0000000080008508 <i_8205>:
    80008508:	0cd13823          	sd	a3,208(sp)

000000008000850c <i_8206>:
    8000850c:	0bc12503          	lw	a0,188(sp)

0000000080008510 <i_8207>:
    80008510:	0347c263          	blt	a5,s4,80008534 <i_8216>

0000000080008514 <i_8208>:
    80008514:	04013d83          	ld	s11,64(sp)

0000000080008518 <i_8209>:
    80008518:	03b3883b          	mulw	a6,t2,s11

000000008000851c <i_8210>:
    8000851c:	17812183          	lw	gp,376(sp)

0000000080008520 <i_8211>:
    80008520:	00a38c63          	beq	t2,a0,80008538 <i_8217>

0000000080008524 <i_8212>:
    80008524:	ea816503          	lwu	a0,-344(sp)

0000000080008528 <i_8213>:
    80008528:	f4f3e393          	ori	t2,t2,-177

000000008000852c <i_8214>:
    8000852c:	ef816e03          	lwu	t3,-264(sp)

0000000080008530 <i_8215>:
    80008530:	00814383          	lbu	t2,8(sp)

0000000080008534 <i_8216>:
    80008534:	5fa83197          	auipc	gp,0x5fa83

0000000080008538 <i_8217>:
    80008538:	0221ce33          	div	t3,gp,sp

000000008000853c <i_8218>:
    8000853c:	0a310723          	sb	gp,174(sp)

0000000080008540 <i_8219>:
    80008540:	00178793          	addi	a5,a5,1
    80008544:	fb47eee3          	bltu	a5,s4,80008500 <i_8203>

0000000080008548 <i_8220>:
    80008548:	026a2533          	mulhsu	a0,s4,t1

000000008000854c <i_8221>:
    8000854c:	f9415303          	lhu	t1,-108(sp)

0000000080008550 <i_8222>:
    80008550:	01757a63          	bleu	s7,a0,80008564 <i_8227>

0000000080008554 <i_8223>:
    80008554:	03c00493          	li	s1,60

0000000080008558 <i_8224>:
    80008558:	009e10b3          	sll	ra,t3,s1

000000008000855c <i_8225>:
    8000855c:	00a00493          	li	s1,10

0000000080008560 <i_8226>:
    80008560:	00919833          	sll	a6,gp,s1

0000000080008564 <i_8227>:
    80008564:	40818a3b          	subw	s4,gp,s0

0000000080008568 <i_8228>:
    80008568:	0bc103a3          	sb	t3,167(sp)

000000008000856c <i_8229>:
    8000856c:	e63104a3          	sb	gp,-407(sp)

0000000080008570 <i_8230>:
    80008570:	026345b3          	div	a1,t1,t1

0000000080008574 <i_8231>:
    80008574:	92926313          	ori	t1,tp,-1751

0000000080008578 <i_8232>:
    80008578:	0149dc63          	ble	s4,s3,80008590 <i_8238>

000000008000857c <i_8233>:
    8000857c:	00bc5a63          	ble	a1,s8,80008590 <i_8238>

0000000080008580 <i_8234>:
    80008580:	e9c16a03          	lwu	s4,-356(sp)

0000000080008584 <i_8235>:
    80008584:	e9813083          	ld	ra,-360(sp)

0000000080008588 <i_8236>:
    80008588:	02b5c063          	blt	a1,a1,800085a8 <i_8244>

000000008000858c <i_8237>:
    8000858c:	f5411423          	sh	s4,-184(sp)

0000000080008590 <i_8238>:
    80008590:	f5813a03          	ld	s4,-168(sp)

0000000080008594 <i_8239>:
    80008594:	de60c093          	xori	ra,ra,-538

0000000080008598 <i_8240>:
    80008598:	7d330a13          	addi	s4,t1,2003 # 21b3889b <main-0x5e4c7765>

000000008000859c <i_8241>:
    8000859c:	fb110503          	lb	a0,-79(sp)

00000000800085a0 <i_8242>:
    800085a0:	021a10b3          	mulh	ra,s4,ra

00000000800085a4 <i_8243>:
    800085a4:	7bf5081b          	addiw	a6,a0,1983

00000000800085a8 <i_8244>:
    800085a8:	f7413423          	sd	s4,-152(sp)

00000000800085ac <i_8245>:
    800085ac:	07810803          	lb	a6,120(sp)

00000000800085b0 <i_8246>:
    800085b0:	0090c463          	blt	ra,s1,800085b8 <i_8248>

00000000800085b4 <i_8247>:
    800085b4:	02185a3b          	divuw	s4,a6,ra

00000000800085b8 <i_8248>:
    800085b8:	07416183          	lwu	gp,116(sp)

00000000800085bc <i_8249>:
    800085bc:	7701a413          	slti	s0,gp,1904

00000000800085c0 <i_8250>:
    800085c0:	033435b3          	mulhu	a1,s0,s3

00000000800085c4 <i_8251>:
    800085c4:	88600e13          	li	t3,-1914

00000000800085c8 <i_8252>:
    800085c8:	89600b93          	li	s7,-1898

00000000800085cc <i_8253>:
    800085cc:	02b5e43b          	remw	s0,a1,a1

00000000800085d0 <i_8254>:
    800085d0:	a6d0c193          	xori	gp,ra,-1427

00000000800085d4 <i_8255>:
    800085d4:	fe011203          	lh	tp,-32(sp)

00000000800085d8 <i_8256>:
    800085d8:	0045e863          	bltu	a1,tp,800085e8 <i_8260>

00000000800085dc <i_8257>:
    800085dc:	00326663          	bltu	tp,gp,800085e8 <i_8260>

00000000800085e0 <i_8258>:
    800085e0:	6ed23213          	sltiu	tp,tp,1773

00000000800085e4 <i_8259>:
    800085e4:	00320463          	beq	tp,gp,800085ec <i_8261>

00000000800085e8 <i_8260>:
    800085e8:	01b00213          	li	tp,27

00000000800085ec <i_8261>:
    800085ec:	0042553b          	srlw	a0,tp,tp

00000000800085f0 <i_8262>:
    800085f0:	18812803          	lw	a6,392(sp)

00000000800085f4 <i_8263>:
    800085f4:	feb14583          	lbu	a1,-21(sp)

00000000800085f8 <i_8264>:
    800085f8:	03b24dbb          	divw	s11,tp,s11

00000000800085fc <i_8265>:
    800085fc:	024fc463          	blt	t6,tp,80008624 <i_8274>

0000000080008600 <i_8266>:
    80008600:	f2110283          	lb	t0,-223(sp)

0000000080008604 <i_8267>:
    80008604:	00c00e93          	li	t4,12

0000000080008608 <i_8268>:
    80008608:	01d81dbb          	sllw	s11,a6,t4

000000008000860c <i_8269>:
    8000860c:	001e0e13          	addi	t3,t3,1
    80008610:	fb7e6ee3          	bltu	t3,s7,800085cc <i_8253>

0000000080008614 <i_8270>:
    80008614:	03d0c263          	blt	ra,t4,80008638 <i_8279>

0000000080008618 <i_8271>:
    80008618:	0094b4b3          	sltu	s1,s1,s1

000000008000861c <i_8272>:
    8000861c:	fce16b97          	auipc	s7,0xfce16

0000000080008620 <i_8273>:
    80008620:	0032551b          	srliw	a0,tp,0x3

0000000080008624 <i_8274>:
    80008624:	02420eb3          	mul	t4,tp,tp

0000000080008628 <i_8275>:
    80008628:	f6a12023          	sw	a0,-160(sp)

000000008000862c <i_8276>:
    8000862c:	03800493          	li	s1,56

0000000080008630 <i_8277>:
    80008630:	00959533          	sll	a0,a1,s1

0000000080008634 <i_8278>:
    80008634:	10913023          	sd	s1,256(sp)

0000000080008638 <i_8279>:
    80008638:	402ed41b          	sraiw	s0,t4,0x2

000000008000863c <i_8280>:
    8000863c:	00a00793          	li	a5,10

0000000080008640 <i_8281>:
    80008640:	40f7d7b3          	sra	a5,a5,a5

0000000080008644 <i_8282>:
    80008644:	1cf13823          	sd	a5,464(sp)

0000000080008648 <i_8283>:
    80008648:	02f7d7b3          	divu	a5,a5,a5

000000008000864c <i_8284>:
    8000864c:	efd12e23          	sw	t4,-260(sp)

0000000080008650 <i_8285>:
    80008650:	f7c104a3          	sb	t3,-151(sp)

0000000080008654 <i_8286>:
    80008654:	03de8463          	beq	t4,t4,8000867c <i_8296>

0000000080008658 <i_8287>:
    80008658:	1da10e83          	lb	t4,474(sp)

000000008000865c <i_8288>:
    8000865c:	ea411803          	lh	a6,-348(sp)

0000000080008660 <i_8289>:
    80008660:	f1d10f23          	sb	t4,-226(sp)

0000000080008664 <i_8290>:
    80008664:	0b60a817          	auipc	a6,0xb60a

0000000080008668 <i_8291>:
    80008668:	f9d13823          	sd	t4,-112(sp)

000000008000866c <i_8292>:
    8000866c:	41480a33          	sub	s4,a6,s4

0000000080008670 <i_8293>:
    80008670:	16813e83          	ld	t4,360(sp)

0000000080008674 <i_8294>:
    80008674:	00c11783          	lh	a5,12(sp)

0000000080008678 <i_8295>:
    80008678:	0347c5bb          	divw	a1,a5,s4

000000008000867c <i_8296>:
    8000867c:	f8b10983          	lb	s3,-117(sp)

0000000080008680 <i_8297>:
    80008680:	02e9c83b          	divw	a6,s3,a4

0000000080008684 <i_8298>:
    80008684:	0242523b          	divuw	tp,tp,tp

0000000080008688 <i_8299>:
    80008688:	86c26793          	ori	a5,tp,-1940

000000008000868c <i_8300>:
    8000868c:	feb14503          	lbu	a0,-21(sp)

0000000080008690 <i_8301>:
    80008690:	00900293          	li	t0,9

0000000080008694 <i_8302>:
    80008694:	0052533b          	srlw	t1,tp,t0

0000000080008698 <i_8303>:
    80008698:	89200213          	li	tp,-1902

000000008000869c <i_8304>:
    8000869c:	8a400813          	li	a6,-1884

00000000800086a0 <i_8305>:
    800086a0:	0b414d83          	lbu	s11,180(sp)

00000000800086a4 <i_8306>:
    800086a4:	19813303          	ld	t1,408(sp)

00000000800086a8 <i_8307>:
    800086a8:	00434c63          	blt	t1,tp,800086c0 <i_8313>

00000000800086ac <i_8308>:
    800086ac:	fe92f513          	andi	a0,t0,-23

00000000800086b0 <i_8309>:
    800086b0:	0cedcd93          	xori	s11,s11,206

00000000800086b4 <i_8310>:
    800086b4:	17016183          	lwu	gp,368(sp)

00000000800086b8 <i_8311>:
    800086b8:	01b1e463          	bltu	gp,s11,800086c0 <i_8313>

00000000800086bc <i_8312>:
    800086bc:	00000013          	nop

00000000800086c0 <i_8313>:
    800086c0:	ea411183          	lh	gp,-348(sp)

00000000800086c4 <i_8314>:
    800086c4:	ff415383          	lhu	t2,-12(sp)

00000000800086c8 <i_8315>:
    800086c8:	00419393          	slli	t2,gp,0x4

00000000800086cc <i_8316>:
    800086cc:	00120213          	addi	tp,tp,1 # 1 <main-0x7fffffff>
    800086d0:	fd0216e3          	bne	tp,a6,8000869c <i_8304>

00000000800086d4 <i_8317>:
    800086d4:	003e1a63          	bne	t3,gp,800086e8 <i_8322>

00000000800086d8 <i_8318>:
    800086d8:	002dd193          	srli	gp,s11,0x2

00000000800086dc <i_8319>:
    800086dc:	01400d93          	li	s11,20

00000000800086e0 <i_8320>:
    800086e0:	01b19dbb          	sllw	s11,gp,s11

00000000800086e4 <i_8321>:
    800086e4:	01b3ec63          	bltu	t2,s11,800086fc <i_8327>

00000000800086e8 <i_8322>:
    800086e8:	0131d863          	ble	s3,gp,800086f8 <i_8326>

00000000800086ec <i_8323>:
    800086ec:	1ac11983          	lh	s3,428(sp)

00000000800086f0 <i_8324>:
    800086f0:	eb410783          	lb	a5,-332(sp)

00000000800086f4 <i_8325>:
    800086f4:	11416b83          	lwu	s7,276(sp)

00000000800086f8 <i_8326>:
    800086f8:	ee710b23          	sb	t2,-266(sp)

00000000800086fc <i_8327>:
    800086fc:	00c439b3          	sltu	s3,s0,a2

0000000080008700 <i_8328>:
    80008700:	e7713823          	sd	s7,-400(sp)

0000000080008704 <i_8329>:
    80008704:	19c10203          	lb	tp,412(sp)

0000000080008708 <i_8330>:
    80008708:	e2c10783          	lb	a5,-468(sp)

000000008000870c <i_8331>:
    8000870c:	0e4104a3          	sb	tp,233(sp)

0000000080008710 <i_8332>:
    80008710:	02200a13          	li	s4,34

0000000080008714 <i_8333>:
    80008714:	4147dbb3          	sra	s7,a5,s4

0000000080008718 <i_8334>:
    80008718:	16016183          	lwu	gp,352(sp)

000000008000871c <i_8335>:
    8000871c:	0367dbbb          	divuw	s7,a5,s6

0000000080008720 <i_8336>:
    80008720:	19010183          	lb	gp,400(sp)

0000000080008724 <i_8337>:
    80008724:	014307b3          	add	a5,t1,s4

0000000080008728 <i_8338>:
    80008728:	19411e23          	sh	s4,412(sp)

000000008000872c <i_8339>:
    8000872c:	ee313c23          	sd	gp,-264(sp)

0000000080008730 <i_8340>:
    80008730:	414781b3          	sub	gp,a5,s4

0000000080008734 <i_8341>:
    80008734:	eee15783          	lhu	a5,-274(sp)

0000000080008738 <i_8342>:
    80008738:	e6814283          	lbu	t0,-408(sp)

000000008000873c <i_8343>:
    8000873c:	01f00193          	li	gp,31

0000000080008740 <i_8344>:
    80008740:	0031d5bb          	srlw	a1,gp,gp

0000000080008744 <i_8345>:
    80008744:	0237ddb3          	divu	s11,a5,gp

0000000080008748 <i_8346>:
    80008748:	eef13023          	sd	a5,-288(sp)

000000008000874c <i_8347>:
    8000874c:	ed016583          	lwu	a1,-304(sp)

0000000080008750 <i_8348>:
    80008750:	0231cbb3          	div	s7,gp,gp

0000000080008754 <i_8349>:
    80008754:	02f331b3          	mulhu	gp,t1,a5

0000000080008758 <i_8350>:
    80008758:	02c7fe3b          	remuw	t3,a5,a2

000000008000875c <i_8351>:
    8000875c:	023581bb          	mulw	gp,a1,gp

0000000080008760 <i_8352>:
    80008760:	4416b197          	auipc	gp,0x4416b

0000000080008764 <i_8353>:
    80008764:	7e903197          	auipc	gp,0x7e903

0000000080008768 <i_8354>:
    80008768:	023e01b3          	mul	gp,t3,gp

000000008000876c <i_8355>:
    8000876c:	fa813783          	ld	a5,-88(sp)

0000000080008770 <i_8356>:
    80008770:	0e310623          	sb	gp,236(sp)

0000000080008774 <i_8357>:
    80008774:	03c7e4b3          	rem	s1,a5,t3

0000000080008778 <i_8358>:
    80008778:	ec913823          	sd	s1,-304(sp)

000000008000877c <i_8359>:
    8000877c:	0291debb          	divuw	t4,gp,s1

0000000080008780 <i_8360>:
    80008780:	01cf8533          	add	a0,t6,t3

0000000080008784 <i_8361>:
    80008784:	0091ec63          	bltu	gp,s1,8000879c <i_8367>

0000000080008788 <i_8362>:
    80008788:	f6013303          	ld	t1,-160(sp)

000000008000878c <i_8363>:
    8000878c:	fdb14783          	lbu	a5,-37(sp)

0000000080008790 <i_8364>:
    80008790:	a927879b          	addiw	a5,a5,-1390

0000000080008794 <i_8365>:
    80008794:	e3c13c23          	sd	t3,-456(sp)

0000000080008798 <i_8366>:
    80008798:	ea311023          	sh	gp,-352(sp)

000000008000879c <i_8367>:
    8000879c:	19e11e03          	lh	t3,414(sp)

00000000800087a0 <i_8368>:
    800087a0:	edc12303          	lw	t1,-292(sp)

00000000800087a4 <i_8369>:
    800087a4:	e9615503          	lhu	a0,-362(sp)

00000000800087a8 <i_8370>:
    800087a8:	03c7d063          	ble	t3,a5,800087c8 <i_8378>

00000000800087ac <i_8371>:
    800087ac:	00000013          	nop

00000000800087b0 <i_8372>:
    800087b0:	e0612c23          	sw	t1,-488(sp)

00000000800087b4 <i_8373>:
    800087b4:	18a10523          	sb	a0,394(sp)

00000000800087b8 <i_8374>:
    800087b8:	4043033b          	subw	t1,t1,tp

00000000800087bc <i_8375>:
    800087bc:	f3c12783          	lw	a5,-196(sp)

00000000800087c0 <i_8376>:
    800087c0:	00852533          	slt	a0,a0,s0

00000000800087c4 <i_8377>:
    800087c4:	00000013          	nop

00000000800087c8 <i_8378>:
    800087c8:	19813503          	ld	a0,408(sp)

00000000800087cc <i_8379>:
    800087cc:	01300593          	li	a1,19

00000000800087d0 <i_8380>:
    800087d0:	40b3d3bb          	sraw	t2,t2,a1

00000000800087d4 <i_8381>:
    800087d4:	73b00413          	li	s0,1851

00000000800087d8 <i_8382>:
    800087d8:	74f00213          	li	tp,1871

00000000800087dc <i_8383>:
    800087dc:	0145ba13          	sltiu	s4,a1,20

00000000800087e0 <i_8384>:
    800087e0:	ef412383          	lw	t2,-268(sp)

00000000800087e4 <i_8385>:
    800087e4:	fcc10723          	sb	a2,-50(sp)

00000000800087e8 <i_8386>:
    800087e8:	00140413          	addi	s0,s0,1
    800087ec:	fe8256e3          	ble	s0,tp,800087d8 <i_8382>

00000000800087f0 <i_8387>:
    800087f0:	004a1393          	slli	t2,s4,0x4

00000000800087f4 <i_8388>:
    800087f4:	16711f23          	sh	t2,382(sp)

00000000800087f8 <i_8389>:
    800087f8:	01939463          	bne	t2,s9,80008800 <i_8391>

00000000800087fc <i_8390>:
    800087fc:	01438263          	beq	t2,s4,80008800 <i_8391>

0000000080008800 <i_8391>:
    80008800:	4033da13          	srai	s4,t2,0x3

0000000080008804 <i_8392>:
    80008804:	0b614a03          	lbu	s4,182(sp)

0000000080008808 <i_8393>:
    80008808:	0210e0b3          	rem	ra,ra,ra

000000008000880c <i_8394>:
    8000880c:	08416483          	lwu	s1,132(sp)

0000000080008810 <i_8395>:
    80008810:	01cf1a63          	bne	t5,t3,80008824 <i_8400>

0000000080008814 <i_8396>:
    80008814:	f9413c23          	sd	s4,-104(sp)

0000000080008818 <i_8397>:
    80008818:	14711223          	sh	t2,324(sp)

000000008000881c <i_8398>:
    8000881c:	f2113423          	sd	ra,-216(sp)

0000000080008820 <i_8399>:
    80008820:	ee713823          	sd	t2,-272(sp)

0000000080008824 <i_8400>:
    80008824:	fb410a03          	lb	s4,-76(sp)

0000000080008828 <i_8401>:
    80008828:	76d38393          	addi	t2,t2,1901 # 835ddef9 <_end+0x35cdae5>

000000008000882c <i_8402>:
    8000882c:	08416e83          	lwu	t4,132(sp)

0000000080008830 <i_8403>:
    80008830:	f6912a23          	sw	s1,-140(sp)

0000000080008834 <i_8404>:
    80008834:	0014f663          	bleu	ra,s1,80008840 <i_8407>

0000000080008838 <i_8405>:
    80008838:	fc215d83          	lhu	s11,-62(sp)

000000008000883c <i_8406>:
    8000883c:	f1b10c23          	sb	s11,-232(sp)

0000000080008840 <i_8407>:
    80008840:	01700593          	li	a1,23

0000000080008844 <i_8408>:
    80008844:	00b099b3          	sll	s3,ra,a1

0000000080008848 <i_8409>:
    80008848:	e3610983          	lb	s3,-458(sp)

000000008000884c <i_8410>:
    8000884c:	0094b4b3          	sltu	s1,s1,s1

0000000080008850 <i_8411>:
    80008850:	1ac15e83          	lhu	t4,428(sp)

0000000080008854 <i_8412>:
    80008854:	eb311323          	sh	s3,-346(sp)

0000000080008858 <i_8413>:
    80008858:	ffc15283          	lhu	t0,-4(sp)

000000008000885c <i_8414>:
    8000885c:	8bf00493          	li	s1,-1857

0000000080008860 <i_8415>:
    80008860:	8c700993          	li	s3,-1849

0000000080008864 <i_8416>:
    80008864:	ed910803          	lb	a6,-295(sp)

0000000080008868 <i_8417>:
    80008868:	41028a3b          	subw	s4,t0,a6

000000008000886c <i_8418>:
    8000886c:	00148493          	addi	s1,s1,1
    80008870:	fe99dae3          	ble	s1,s3,80008864 <i_8416>

0000000080008874 <i_8419>:
    80008874:	d2055a17          	auipc	s4,0xd2055

0000000080008878 <i_8420>:
    80008878:	02987263          	bleu	s1,a6,8000889c <i_8429>

000000008000887c <i_8421>:
    8000887c:	033825b3          	mulhsu	a1,a6,s3

0000000080008880 <i_8422>:
    80008880:	05814e83          	lbu	t4,88(sp)

0000000080008884 <i_8423>:
    80008884:	09016583          	lwu	a1,144(sp)

0000000080008888 <i_8424>:
    80008888:	1af13823          	sd	a5,432(sp)

000000008000888c <i_8425>:
    8000888c:	18913c23          	sd	s1,408(sp)

0000000080008890 <i_8426>:
    80008890:	fac14483          	lbu	s1,-84(sp)

0000000080008894 <i_8427>:
    80008894:	1d013403          	ld	s0,464(sp)

0000000080008898 <i_8428>:
    80008898:	0304f1bb          	remuw	gp,s1,a6

000000008000889c <i_8429>:
    8000889c:	e6114483          	lbu	s1,-415(sp)

00000000800088a0 <i_8430>:
    800088a0:	f2310923          	sb	gp,-206(sp)

00000000800088a4 <i_8431>:
    800088a4:	00d00993          	li	s3,13

00000000800088a8 <i_8432>:
    800088a8:	013c51b3          	srl	gp,s8,s3

00000000800088ac <i_8433>:
    800088ac:	12911b23          	sh	s1,310(sp)

00000000800088b0 <i_8434>:
    800088b0:	03813483          	ld	s1,56(sp)

00000000800088b4 <i_8435>:
    800088b4:	3a87d1b7          	lui	gp,0x3a87d

00000000800088b8 <i_8436>:
    800088b8:	fd310023          	sb	s3,-64(sp)

00000000800088bc <i_8437>:
    800088bc:	00948663          	beq	s1,s1,800088c8 <i_8440>

00000000800088c0 <i_8438>:
    800088c0:	0139f463          	bleu	s3,s3,800088c8 <i_8440>

00000000800088c4 <i_8439>:
    800088c4:	f8a14983          	lbu	s3,-118(sp)

00000000800088c8 <i_8440>:
    800088c8:	f4013183          	ld	gp,-192(sp)

00000000800088cc <i_8441>:
    800088cc:	fd33d197          	auipc	gp,0xfd33d

00000000800088d0 <i_8442>:
    800088d0:	00318c63          	beq	gp,gp,800088e8 <i_8448>

00000000800088d4 <i_8443>:
    800088d4:	eac10183          	lb	gp,-340(sp)

00000000800088d8 <i_8444>:
    800088d8:	02925463          	ble	s1,tp,80008900 <i_8454>

00000000800088dc <i_8445>:
    800088dc:	f2813083          	ld	ra,-216(sp)

00000000800088e0 <i_8446>:
    800088e0:	00000013          	nop

00000000800088e4 <i_8447>:
    800088e4:	17013a03          	ld	s4,368(sp)

00000000800088e8 <i_8448>:
    800088e8:	eea4c193          	xori	gp,s1,-278

00000000800088ec <i_8449>:
    800088ec:	00000013          	nop

00000000800088f0 <i_8450>:
    800088f0:	04814803          	lbu	a6,72(sp)

00000000800088f4 <i_8451>:
    800088f4:	0c312e23          	sw	gp,220(sp)

00000000800088f8 <i_8452>:
    800088f8:	0301e1bb          	remw	gp,gp,a6

00000000800088fc <i_8453>:
    800088fc:	ff816183          	lwu	gp,-8(sp)

0000000080008900 <i_8454>:
    80008900:	00000013          	nop

0000000080008904 <i_8455>:
    80008904:	0f010523          	sb	a6,234(sp)

0000000080008908 <i_8456>:
    80008908:	86400e93          	li	t4,-1948

000000008000890c <i_8457>:
    8000890c:	86c00993          	li	s3,-1940

0000000080008910 <i_8458>:
    80008910:	010e4863          	blt	t3,a6,80008920 <i_8462>

0000000080008914 <i_8459>:
    80008914:	05215183          	lhu	gp,82(sp)

0000000080008918 <i_8460>:
    80008918:	01012023          	sw	a6,0(sp)

000000008000891c <i_8461>:
    8000891c:	25f17e37          	lui	t3,0x25f17

0000000080008920 <i_8462>:
    80008920:	f8312223          	sw	gp,-124(sp)

0000000080008924 <i_8463>:
    80008924:	03f19263          	bne	gp,t6,80008948 <i_8471>

0000000080008928 <i_8464>:
    80008928:	001e8e93          	addi	t4,t4,1
    8000892c:	ffd9d2e3          	ble	t4,s3,80008910 <i_8458>

0000000080008930 <i_8465>:
    80008930:	1dc12423          	sw	t3,456(sp)

0000000080008934 <i_8466>:
    80008934:	17816403          	lwu	s0,376(sp)

0000000080008938 <i_8467>:
    80008938:	0082d663          	ble	s0,t0,80008944 <i_8470>

000000008000893c <i_8468>:
    8000893c:	16311f23          	sh	gp,382(sp)

0000000080008940 <i_8469>:
    80008940:	16011183          	lh	gp,352(sp)

0000000080008944 <i_8470>:
    80008944:	1ac11403          	lh	s0,428(sp)

0000000080008948 <i_8471>:
    80008948:	e7313423          	sd	s3,-408(sp)

000000008000894c <i_8472>:
    8000894c:	0082f263          	bleu	s0,t0,80008950 <i_8473>

0000000080008950 <i_8473>:
    80008950:	025447bb          	divw	a5,s0,t0

0000000080008954 <i_8474>:
    80008954:	f5411803          	lh	a6,-172(sp)

0000000080008958 <i_8475>:
    80008958:	f3b14583          	lbu	a1,-197(sp)

000000008000895c <i_8476>:
    8000895c:	e8512623          	sw	t0,-372(sp)

0000000080008960 <i_8477>:
    80008960:	07010da3          	sb	a6,123(sp)

0000000080008964 <i_8478>:
    80008964:	02700813          	li	a6,39

0000000080008968 <i_8479>:
    80008968:	41085833          	sra	a6,a6,a6

000000008000896c <i_8480>:
    8000896c:	fae15783          	lhu	a5,-82(sp)

0000000080008970 <i_8481>:
    80008970:	11010923          	sb	a6,274(sp)

0000000080008974 <i_8482>:
    80008974:	f7610803          	lb	a6,-138(sp)

0000000080008978 <i_8483>:
    80008978:	e5812983          	lw	s3,-424(sp)

000000008000897c <i_8484>:
    8000897c:	01082eb3          	slt	t4,a6,a6

0000000080008980 <i_8485>:
    80008980:	01087263          	bleu	a6,a6,80008984 <i_8486>

0000000080008984 <i_8486>:
    80008984:	0ae11e03          	lh	t3,174(sp)

0000000080008988 <i_8487>:
    80008988:	0107fc63          	bleu	a6,a5,800089a0 <i_8493>

000000008000898c <i_8488>:
    8000898c:	f6816803          	lwu	a6,-152(sp)

0000000080008990 <i_8489>:
    80008990:	19d11b23          	sh	t4,406(sp)

0000000080008994 <i_8490>:
    80008994:	e8013283          	ld	t0,-384(sp)

0000000080008998 <i_8491>:
    80008998:	f1510e83          	lb	t4,-235(sp)

000000008000899c <i_8492>:
    8000899c:	e3410583          	lb	a1,-460(sp)

00000000800089a0 <i_8493>:
    800089a0:	19a11983          	lh	s3,410(sp)

00000000800089a4 <i_8494>:
    800089a4:	82eebb93          	sltiu	s7,t4,-2002

00000000800089a8 <i_8495>:
    800089a8:	ef816e03          	lwu	t3,-264(sp)

00000000800089ac <i_8496>:
    800089ac:	03711523          	sh	s7,42(sp)

00000000800089b0 <i_8497>:
    800089b0:	00811383          	lh	t2,8(sp)

00000000800089b4 <i_8498>:
    800089b4:	0052dc63          	ble	t0,t0,800089cc <i_8504>

00000000800089b8 <i_8499>:
    800089b8:	09013383          	ld	t2,144(sp)

00000000800089bc <i_8500>:
    800089bc:	fca10e03          	lb	t3,-54(sp)

00000000800089c0 <i_8501>:
    800089c0:	03de9263          	bne	t4,t4,800089e4 <i_8510>

00000000800089c4 <i_8502>:
    800089c4:	f4e15583          	lhu	a1,-178(sp)

00000000800089c8 <i_8503>:
    800089c8:	fbc12623          	sw	t3,-84(sp)

00000000800089cc <i_8504>:
    800089cc:	13c11223          	sh	t3,292(sp)

00000000800089d0 <i_8505>:
    800089d0:	00000013          	nop

00000000800089d4 <i_8506>:
    800089d4:	010d87b3          	add	a5,s11,a6

00000000800089d8 <i_8507>:
    800089d8:	0cc12403          	lw	s0,204(sp)

00000000800089dc <i_8508>:
    800089dc:	04013803          	ld	a6,64(sp)

00000000800089e0 <i_8509>:
    800089e0:	4018541b          	sraiw	s0,a6,0x1

00000000800089e4 <i_8510>:
    800089e4:	0283f7bb          	remuw	a5,t2,s0

00000000800089e8 <i_8511>:
    800089e8:	1ef13023          	sd	a5,480(sp)

00000000800089ec <i_8512>:
    800089ec:	85100e13          	li	t3,-1967

00000000800089f0 <i_8513>:
    800089f0:	85a00b93          	li	s7,-1958

00000000800089f4 <i_8514>:
    800089f4:	001e0e13          	addi	t3,t3,1 # 25f17001 <main-0x5a0e8fff>
    800089f8:	ff7e1ee3          	bne	t3,s7,800089f4 <i_8514>

00000000800089fc <i_8515>:
    800089fc:	05712623          	sw	s7,76(sp)

0000000080008a00 <i_8516>:
    80008a00:	0cc12583          	lw	a1,204(sp)

0000000080008a04 <i_8517>:
    80008a04:	0a415183          	lhu	gp,164(sp)

0000000080008a08 <i_8518>:
    80008a08:	fac16783          	lwu	a5,-84(sp)

0000000080008a0c <i_8519>:
    80008a0c:	00b81263          	bne	a6,a1,80008a10 <i_8520>

0000000080008a10 <i_8520>:
    80008a10:	02f19263          	bne	gp,a5,80008a34 <i_8529>

0000000080008a14 <i_8521>:
    80008a14:	04314403          	lbu	s0,67(sp)

0000000080008a18 <i_8522>:
    80008a18:	00f4e7b3          	or	a5,s1,a5

0000000080008a1c <i_8523>:
    80008a1c:	7b284593          	xori	a1,a6,1970

0000000080008a20 <i_8524>:
    80008a20:	02b7e7b3          	rem	a5,a5,a1

0000000080008a24 <i_8525>:
    80008a24:	12b100a3          	sb	a1,289(sp)

0000000080008a28 <i_8526>:
    80008a28:	ffa10303          	lb	t1,-6(sp)

0000000080008a2c <i_8527>:
    80008a2c:	016e0463          	beq	t3,s6,80008a34 <i_8529>

0000000080008a30 <i_8528>:
    80008a30:	fb514383          	lbu	t2,-75(sp)

0000000080008a34 <i_8529>:
    80008a34:	00b70263          	beq	a4,a1,80008a38 <i_8530>

0000000080008a38 <i_8530>:
    80008a38:	41338dbb          	subw	s11,t2,s3

0000000080008a3c <i_8531>:
    80008a3c:	19411d83          	lh	s11,404(sp)

0000000080008a40 <i_8532>:
    80008a40:	7be00993          	li	s3,1982

0000000080008a44 <i_8533>:
    80008a44:	7cd00393          	li	t2,1997

0000000080008a48 <i_8534>:
    80008a48:	00000013          	nop

0000000080008a4c <i_8535>:
    80008a4c:	4049dd93          	srai	s11,s3,0x4

0000000080008a50 <i_8536>:
    80008a50:	013281b3          	add	gp,t0,s3

0000000080008a54 <i_8537>:
    80008a54:	e8815283          	lhu	t0,-376(sp)

0000000080008a58 <i_8538>:
    80008a58:	0b013183          	ld	gp,176(sp)

0000000080008a5c <i_8539>:
    80008a5c:	0052ce63          	blt	t0,t0,80008a78 <i_8545>

0000000080008a60 <i_8540>:
    80008a60:	13013d83          	ld	s11,304(sp)

0000000080008a64 <i_8541>:
    80008a64:	00198993          	addi	s3,s3,1 # 2f7a7e21 <main-0x508581df>
    80008a68:	fe7990e3          	bne	s3,t2,80008a48 <i_8534>

0000000080008a6c <i_8542>:
    80008a6c:	f5a11d83          	lh	s11,-166(sp)

0000000080008a70 <i_8543>:
    80008a70:	00b00513          	li	a0,11

0000000080008a74 <i_8544>:
    80008a74:	00a292b3          	sll	t0,t0,a0

0000000080008a78 <i_8545>:
    80008a78:	00a28e63          	beq	t0,a0,80008a94 <i_8552>

0000000080008a7c <i_8546>:
    80008a7c:	00d2ea63          	bltu	t0,a3,80008a90 <i_8551>

0000000080008a80 <i_8547>:
    80008a80:	0f812403          	lw	s0,248(sp)

0000000080008a84 <i_8548>:
    80008a84:	0c813083          	ld	ra,200(sp)

0000000080008a88 <i_8549>:
    80008a88:	03445063          	ble	s4,s0,80008aa8 <i_8557>

0000000080008a8c <i_8550>:
    80008a8c:	02850333          	mul	t1,a0,s0

0000000080008a90 <i_8551>:
    80008a90:	00836663          	bltu	t1,s0,80008a9c <i_8554>

0000000080008a94 <i_8552>:
    80008a94:	01e00313          	li	t1,30

0000000080008a98 <i_8553>:
    80008a98:	006359bb          	srlw	s3,t1,t1

0000000080008a9c <i_8554>:
    80008a9c:	13815983          	lhu	s3,312(sp)

0000000080008aa0 <i_8555>:
    80008aa0:	fe512823          	sw	t0,-16(sp)

0000000080008aa4 <i_8556>:
    80008aa4:	02529463          	bne	t0,t0,80008acc <i_8566>

0000000080008aa8 <i_8557>:
    80008aa8:	0014d513          	srli	a0,s1,0x1

0000000080008aac <i_8558>:
    80008aac:	005d8e63          	beq	s11,t0,80008ac8 <i_8565>

0000000080008ab0 <i_8559>:
    80008ab0:	001e4663          	blt	t3,ra,80008abc <i_8562>

0000000080008ab4 <i_8560>:
    80008ab4:	fa013083          	ld	ra,-96(sp)

0000000080008ab8 <i_8561>:
    80008ab8:	0c111123          	sh	ra,194(sp)

0000000080008abc <i_8562>:
    80008abc:	e6a12a23          	sw	a0,-396(sp)

0000000080008ac0 <i_8563>:
    80008ac0:	01398263          	beq	s3,s3,80008ac4 <i_8564>

0000000080008ac4 <i_8564>:
    80008ac4:	00d00d93          	li	s11,13

0000000080008ac8 <i_8565>:
    80008ac8:	01b99a3b          	sllw	s4,s3,s11

0000000080008acc <i_8566>:
    80008acc:	00e57263          	bleu	a4,a0,80008ad0 <i_8567>

0000000080008ad0 <i_8567>:
    80008ad0:	f7311b23          	sh	s3,-138(sp)

0000000080008ad4 <i_8568>:
    80008ad4:	f5314503          	lbu	a0,-173(sp)

0000000080008ad8 <i_8569>:
    80008ad8:	02824db3          	div	s11,tp,s0

0000000080008adc <i_8570>:
    80008adc:	00455393          	srli	t2,a0,0x4

0000000080008ae0 <i_8571>:
    80008ae0:	06011803          	lh	a6,96(sp)

0000000080008ae4 <i_8572>:
    80008ae4:	f8e11503          	lh	a0,-114(sp)

0000000080008ae8 <i_8573>:
    80008ae8:	02879433          	mulh	s0,a5,s0

0000000080008aec <i_8574>:
    80008aec:	12713423          	sd	t2,296(sp)

0000000080008af0 <i_8575>:
    80008af0:	03d87463          	bleu	t4,a6,80008b18 <i_8585>

0000000080008af4 <i_8576>:
    80008af4:	14816503          	lwu	a0,328(sp)

0000000080008af8 <i_8577>:
    80008af8:	00000013          	nop

0000000080008afc <i_8578>:
    80008afc:	00000013          	nop

0000000080008b00 <i_8579>:
    80008b00:	00000013          	nop

0000000080008b04 <i_8580>:
    80008b04:	0a412283          	lw	t0,164(sp)

0000000080008b08 <i_8581>:
    80008b08:	f7611203          	lh	tp,-138(sp)

0000000080008b0c <i_8582>:
    80008b0c:	00f10ea3          	sb	a5,29(sp)

0000000080008b10 <i_8583>:
    80008b10:	0e413823          	sd	tp,240(sp)

0000000080008b14 <i_8584>:
    80008b14:	00850bb3          	add	s7,a0,s0

0000000080008b18 <i_8585>:
    80008b18:	0f411583          	lh	a1,244(sp)

0000000080008b1c <i_8586>:
    80008b1c:	e797b513          	sltiu	a0,a5,-391

0000000080008b20 <i_8587>:
    80008b20:	8aa00793          	li	a5,-1878

0000000080008b24 <i_8588>:
    80008b24:	8bc00413          	li	s0,-1860

0000000080008b28 <i_8589>:
    80008b28:	00178793          	addi	a5,a5,1
    80008b2c:	fef41ee3          	bne	s0,a5,80008b28 <i_8589>

0000000080008b30 <i_8590>:
    80008b30:	007ef863          	bleu	t2,t4,80008b40 <i_8594>

0000000080008b34 <i_8591>:
    80008b34:	1b211803          	lh	a6,434(sp)

0000000080008b38 <i_8592>:
    80008b38:	1e611b83          	lh	s7,486(sp)

0000000080008b3c <i_8593>:
    80008b3c:	00d28863          	beq	t0,a3,80008b4c <i_8597>

0000000080008b40 <i_8594>:
    80008b40:	028367b3          	rem	a5,t1,s0

0000000080008b44 <i_8595>:
    80008b44:	00f56eb3          	or	t4,a0,a5

0000000080008b48 <i_8596>:
    80008b48:	f6813083          	ld	ra,-152(sp)

0000000080008b4c <i_8597>:
    80008b4c:	00600e13          	li	t3,6

0000000080008b50 <i_8598>:
    80008b50:	41c55433          	sra	s0,a0,t3

0000000080008b54 <i_8599>:
    80008b54:	8b900793          	li	a5,-1863

0000000080008b58 <i_8600>:
    80008b58:	8cd00213          	li	tp,-1843

0000000080008b5c <i_8601>:
    80008b5c:	13c11083          	lh	ra,316(sp)

0000000080008b60 <i_8602>:
    80008b60:	f3a11323          	sh	s10,-218(sp)

0000000080008b64 <i_8603>:
    80008b64:	01700193          	li	gp,23

0000000080008b68 <i_8604>:
    80008b68:	003d5bbb          	srlw	s7,s10,gp

0000000080008b6c <i_8605>:
    80008b6c:	02372833          	mulhsu	a6,a4,gp

0000000080008b70 <i_8606>:
    80008b70:	00f10da3          	sb	a5,27(sp)

0000000080008b74 <i_8607>:
    80008b74:	0018519b          	srliw	gp,a6,0x1

0000000080008b78 <i_8608>:
    80008b78:	4048043b          	subw	s0,a6,tp

0000000080008b7c <i_8609>:
    80008b7c:	03c11303          	lh	t1,60(sp)

0000000080008b80 <i_8610>:
    80008b80:	00178793          	addi	a5,a5,1
    80008b84:	fcf27ce3          	bleu	a5,tp,80008b5c <i_8601>

0000000080008b88 <i_8611>:
    80008b88:	fdc16d83          	lwu	s11,-36(sp)

0000000080008b8c <i_8612>:
    80008b8c:	03300413          	li	s0,51

0000000080008b90 <i_8613>:
    80008b90:	40885833          	sra	a6,a6,s0

0000000080008b94 <i_8614>:
    80008b94:	a4e5da37          	lui	s4,0xa4e5d

0000000080008b98 <i_8615>:
    80008b98:	afad829b          	addiw	t0,s11,-1286

0000000080008b9c <i_8616>:
    80008b9c:	1b412403          	lw	s0,436(sp)

0000000080008ba0 <i_8617>:
    80008ba0:	e9813403          	ld	s0,-360(sp)

0000000080008ba4 <i_8618>:
    80008ba4:	00847533          	and	a0,s0,s0

0000000080008ba8 <i_8619>:
    80008ba8:	00a58e63          	beq	a1,a0,80008bc4 <i_8626>

0000000080008bac <i_8620>:
    80008bac:	ea950d9b          	addiw	s11,a0,-343

0000000080008bb0 <i_8621>:
    80008bb0:	0082d263          	ble	s0,t0,80008bb4 <i_8622>

0000000080008bb4 <i_8622>:
    80008bb4:	008dfe63          	bleu	s0,s11,80008bd0 <i_8629>

0000000080008bb8 <i_8623>:
    80008bb8:	ef015d83          	lhu	s11,-272(sp)

0000000080008bbc <i_8624>:
    80008bbc:	4022de1b          	sraiw	t3,t0,0x2

0000000080008bc0 <i_8625>:
    80008bc0:	0d011d83          	lh	s11,208(sp)

0000000080008bc4 <i_8626>:
    80008bc4:	13012b83          	lw	s7,304(sp)

0000000080008bc8 <i_8627>:
    80008bc8:	ef013283          	ld	t0,-272(sp)

0000000080008bcc <i_8628>:
    80008bcc:	00000013          	nop

0000000080008bd0 <i_8629>:
    80008bd0:	02ebf2b3          	remu	t0,s7,a4

0000000080008bd4 <i_8630>:
    80008bd4:	08010283          	lb	t0,128(sp)

0000000080008bd8 <i_8631>:
    80008bd8:	74100493          	li	s1,1857

0000000080008bdc <i_8632>:
    80008bdc:	74900b93          	li	s7,1865

0000000080008be0 <i_8633>:
    80008be0:	f3f10803          	lb	a6,-193(sp)

0000000080008be4 <i_8634>:
    80008be4:	4024d51b          	sraiw	a0,s1,0x2

0000000080008be8 <i_8635>:
    80008be8:	027503bb          	mulw	t2,a0,t2

0000000080008bec <i_8636>:
    80008bec:	18512623          	sw	t0,396(sp)

0000000080008bf0 <i_8637>:
    80008bf0:	00f00513          	li	a0,15

0000000080008bf4 <i_8638>:
    80008bf4:	00a515bb          	sllw	a1,a0,a0

0000000080008bf8 <i_8639>:
    80008bf8:	00a39263          	bne	t2,a0,80008bfc <i_8640>

0000000080008bfc <i_8640>:
    80008bfc:	e1d10e83          	lb	t4,-483(sp)

0000000080008c00 <i_8641>:
    80008c00:	18c15e83          	lhu	t4,396(sp)

0000000080008c04 <i_8642>:
    80008c04:	fa812503          	lw	a0,-88(sp)

0000000080008c08 <i_8643>:
    80008c08:	0294c263          	blt	s1,s1,80008c2c <i_8651>

0000000080008c0c <i_8644>:
    80008c0c:	00411e83          	lh	t4,4(sp)

0000000080008c10 <i_8645>:
    80008c10:	0cc12623          	sw	a2,204(sp)

0000000080008c14 <i_8646>:
    80008c14:	00148493          	addi	s1,s1,1
    80008c18:	fc9bf4e3          	bleu	s1,s7,80008be0 <i_8633>

0000000080008c1c <i_8647>:
    80008c1c:	f5f10e83          	lb	t4,-161(sp)

0000000080008c20 <i_8648>:
    80008c20:	fe816503          	lwu	a0,-24(sp)

0000000080008c24 <i_8649>:
    80008c24:	00500513          	li	a0,5

0000000080008c28 <i_8650>:
    80008c28:	00ae953b          	sllw	a0,t4,a0

0000000080008c2c <i_8651>:
    80008c2c:	40255e13          	srai	t3,a0,0x2

0000000080008c30 <i_8652>:
    80008c30:	00a51a63          	bne	a0,a0,80008c44 <i_8657>

0000000080008c34 <i_8653>:
    80008c34:	4026d513          	srai	a0,a3,0x2

0000000080008c38 <i_8654>:
    80008c38:	02a57263          	bleu	a0,a0,80008c5c <i_8663>

0000000080008c3c <i_8655>:
    80008c3c:	03cec5bb          	divw	a1,t4,t3

0000000080008c40 <i_8656>:
    80008c40:	41c189b3          	sub	s3,gp,t3

0000000080008c44 <i_8657>:
    80008c44:	02b6e463          	bltu	a3,a1,80008c6c <i_8667>

0000000080008c48 <i_8658>:
    80008c48:	02abc7bb          	divw	a5,s7,a0

0000000080008c4c <i_8659>:
    80008c4c:	13c16303          	lwu	t1,316(sp)

0000000080008c50 <i_8660>:
    80008c50:	16013783          	ld	a5,352(sp)

0000000080008c54 <i_8661>:
    80008c54:	f6013203          	ld	tp,-160(sp)

0000000080008c58 <i_8662>:
    80008c58:	0022929b          	slliw	t0,t0,0x2

0000000080008c5c <i_8663>:
    80008c5c:	f8d14a03          	lbu	s4,-115(sp)

0000000080008c60 <i_8664>:
    80008c60:	01d5ce63          	blt	a1,t4,80008c7c <i_8671>

0000000080008c64 <i_8665>:
    80008c64:	0857f513          	andi	a0,a5,133

0000000080008c68 <i_8666>:
    80008c68:	f4610ea3          	sb	t1,-163(sp)

0000000080008c6c <i_8667>:
    80008c6c:	00514183          	lbu	gp,5(sp)

0000000080008c70 <i_8668>:
    80008c70:	024bc463          	blt	s7,tp,80008c98 <i_8678>

0000000080008c74 <i_8669>:
    80008c74:	410303b3          	sub	t2,t1,a6

0000000080008c78 <i_8670>:
    80008c78:	034bdbbb          	divuw	s7,s7,s4

0000000080008c7c <i_8671>:
    80008c7c:	407e0e3b          	subw	t3,t3,t2

0000000080008c80 <i_8672>:
    80008c80:	eec11b83          	lh	s7,-276(sp)

0000000080008c84 <i_8673>:
    80008c84:	e1c14983          	lbu	s3,-484(sp)

0000000080008c88 <i_8674>:
    80008c88:	03739e33          	mulh	t3,t2,s7

0000000080008c8c <i_8675>:
    80008c8c:	403d81bb          	subw	gp,s11,gp

0000000080008c90 <i_8676>:
    80008c90:	ed411e83          	lh	t4,-300(sp)

0000000080008c94 <i_8677>:
    80008c94:	fb510623          	sb	s5,-84(sp)

0000000080008c98 <i_8678>:
    80008c98:	01a00e13          	li	t3,26

0000000080008c9c <i_8679>:
    80008c9c:	01ce53bb          	srlw	t2,t3,t3

0000000080008ca0 <i_8680>:
    80008ca0:	83100313          	li	t1,-1999

0000000080008ca4 <i_8681>:
    80008ca4:	84500813          	li	a6,-1979

0000000080008ca8 <i_8682>:
    80008ca8:	f5c15183          	lhu	gp,-164(sp)

0000000080008cac <i_8683>:
    80008cac:	023e4e3b          	divw	t3,t3,gp

0000000080008cb0 <i_8684>:
    80008cb0:	00130313          	addi	t1,t1,1
    80008cb4:	fe685ae3          	ble	t1,a6,80008ca8 <i_8682>

0000000080008cb8 <i_8685>:
    80008cb8:	efc16283          	lwu	t0,-260(sp)

0000000080008cbc <i_8686>:
    80008cbc:	442e6e13          	ori	t3,t3,1090

0000000080008cc0 <i_8687>:
    80008cc0:	7bbe6e13          	ori	t3,t3,1979

0000000080008cc4 <i_8688>:
    80008cc4:	19416403          	lwu	s0,404(sp)

0000000080008cc8 <i_8689>:
    80008cc8:	f0f14e03          	lbu	t3,-241(sp)

0000000080008ccc <i_8690>:
    80008ccc:	01c66463          	bltu	a2,t3,80008cd4 <i_8692>

0000000080008cd0 <i_8691>:
    80008cd0:	00000013          	nop

0000000080008cd4 <i_8692>:
    80008cd4:	40245a1b          	sraiw	s4,s0,0x2

0000000080008cd8 <i_8693>:
    80008cd8:	18013a03          	ld	s4,384(sp)

0000000080008cdc <i_8694>:
    80008cdc:	85700413          	li	s0,-1961

0000000080008ce0 <i_8695>:
    80008ce0:	85900e13          	li	t3,-1959

0000000080008ce4 <i_8696>:
    80008ce4:	fd211083          	lh	ra,-46(sp)

0000000080008ce8 <i_8697>:
    80008ce8:	00145463          	ble	ra,s0,80008cf0 <i_8699>

0000000080008cec <i_8698>:
    80008cec:	e6812e23          	sw	s0,-388(sp)

0000000080008cf0 <i_8699>:
    80008cf0:	a2ce2593          	slti	a1,t3,-1492

0000000080008cf4 <i_8700>:
    80008cf4:	12816e83          	lwu	t4,296(sp)

0000000080008cf8 <i_8701>:
    80008cf8:	036e5833          	divu	a6,t3,s6

0000000080008cfc <i_8702>:
    80008cfc:	11412203          	lw	tp,276(sp)

0000000080008d00 <i_8703>:
    80008d00:	038200bb          	mulw	ra,tp,s8

0000000080008d04 <i_8704>:
    80008d04:	00426233          	or	tp,tp,tp

0000000080008d08 <i_8705>:
    80008d08:	00482233          	slt	tp,a6,tp

0000000080008d0c <i_8706>:
    80008d0c:	0290e263          	bltu	ra,s1,80008d30 <i_8714>

0000000080008d10 <i_8707>:
    80008d10:	e2412223          	sw	tp,-476(sp)

0000000080008d14 <i_8708>:
    80008d14:	021670bb          	remuw	ra,a2,ra

0000000080008d18 <i_8709>:
    80008d18:	03e00093          	li	ra,62

0000000080008d1c <i_8710>:
    80008d1c:	001650b3          	srl	ra,a2,ra

0000000080008d20 <i_8711>:
    80008d20:	00140413          	addi	s0,s0,1
    80008d24:	fc8e10e3          	bne	t3,s0,80008ce4 <i_8696>

0000000080008d28 <i_8712>:
    80008d28:	00418e63          	beq	gp,tp,80008d44 <i_8719>

0000000080008d2c <i_8713>:
    80008d2c:	0240e063          	bltu	ra,tp,80008d4c <i_8721>

0000000080008d30 <i_8714>:
    80008d30:	fe012503          	lw	a0,-32(sp)

0000000080008d34 <i_8715>:
    80008d34:	13814203          	lbu	tp,312(sp)

0000000080008d38 <i_8716>:
    80008d38:	e4a10203          	lb	tp,-438(sp)

0000000080008d3c <i_8717>:
    80008d3c:	04411323          	sh	tp,70(sp)

0000000080008d40 <i_8718>:
    80008d40:	02a57263          	bleu	a0,a0,80008d64 <i_8727>

0000000080008d44 <i_8719>:
    80008d44:	ed416083          	lwu	ra,-300(sp)

0000000080008d48 <i_8720>:
    80008d48:	02ae7263          	bleu	a0,t3,80008d6c <i_8729>

0000000080008d4c <i_8721>:
    80008d4c:	fb416383          	lwu	t2,-76(sp)

0000000080008d50 <i_8722>:
    80008d50:	00108463          	beq	ra,ra,80008d58 <i_8724>

0000000080008d54 <i_8723>:
    80008d54:	10013203          	ld	tp,256(sp)

0000000080008d58 <i_8724>:
    80008d58:	01c00e93          	li	t4,28

0000000080008d5c <i_8725>:
    80008d5c:	01d2523b          	srlw	tp,tp,t4

0000000080008d60 <i_8726>:
    80008d60:	02d19063          	bne	gp,a3,80008d80 <i_8734>

0000000080008d64 <i_8727>:
    80008d64:	0245643b          	remw	s0,a0,tp

0000000080008d68 <i_8728>:
    80008d68:	02456463          	bltu	a0,tp,80008d90 <i_8738>

0000000080008d6c <i_8729>:
    80008d6c:	16c10203          	lb	tp,364(sp)

0000000080008d70 <i_8730>:
    80008d70:	00124663          	blt	tp,ra,80008d7c <i_8733>

0000000080008d74 <i_8731>:
    80008d74:	00d21e63          	bne	tp,a3,80008d90 <i_8738>

0000000080008d78 <i_8732>:
    80008d78:	01d201b3          	add	gp,tp,t4

0000000080008d7c <i_8733>:
    80008d7c:	15b12223          	sw	s11,324(sp)

0000000080008d80 <i_8734>:
    80008d80:	06311323          	sh	gp,102(sp)

0000000080008d84 <i_8735>:
    80008d84:	16c11183          	lh	gp,364(sp)

0000000080008d88 <i_8736>:
    80008d88:	e4013e83          	ld	t4,-448(sp)

0000000080008d8c <i_8737>:
    80008d8c:	02c12503          	lw	a0,44(sp)

0000000080008d90 <i_8738>:
    80008d90:	00a3fc63          	bleu	a0,t2,80008da8 <i_8744>

0000000080008d94 <i_8739>:
    80008d94:	02854463          	blt	a0,s0,80008dbc <i_8749>

0000000080008d98 <i_8740>:
    80008d98:	1c812a23          	sw	s0,468(sp)

0000000080008d9c <i_8741>:
    80008d9c:	fc38fe97          	auipc	t4,0xfc38f

0000000080008da0 <i_8742>:
    80008da0:	f8013403          	ld	s0,-128(sp)

0000000080008da4 <i_8743>:
    80008da4:	01846463          	bltu	s0,s8,80008dac <i_8745>

0000000080008da8 <i_8744>:
    80008da8:	00141a1b          	slliw	s4,s0,0x1

0000000080008dac <i_8745>:
    80008dac:	014eca63          	blt	t4,s4,80008dc0 <i_8750>

0000000080008db0 <i_8746>:
    80008db0:	03c4743b          	remuw	s0,s0,t3

0000000080008db4 <i_8747>:
    80008db4:	0371d1bb          	divuw	gp,gp,s7

0000000080008db8 <i_8748>:
    80008db8:	f7412983          	lw	s3,-140(sp)

0000000080008dbc <i_8749>:
    80008dbc:	0239f4bb          	remuw	s1,s3,gp

0000000080008dc0 <i_8750>:
    80008dc0:	01347463          	bleu	s3,s0,80008dc8 <i_8752>

0000000080008dc4 <i_8751>:
    80008dc4:	00812e23          	sw	s0,28(sp)

0000000080008dc8 <i_8752>:
    80008dc8:	03e9f463          	bleu	t5,s3,80008df0 <i_8762>

0000000080008dcc <i_8753>:
    80008dcc:	0031d863          	ble	gp,gp,80008ddc <i_8757>

0000000080008dd0 <i_8754>:
    80008dd0:	e8b13823          	sd	a1,-368(sp)

0000000080008dd4 <i_8755>:
    80008dd4:	00847863          	bleu	s0,s0,80008de4 <i_8759>

0000000080008dd8 <i_8756>:
    80008dd8:	0f310b23          	sb	s3,246(sp)

0000000080008ddc <i_8757>:
    80008ddc:	1e815183          	lhu	gp,488(sp)

0000000080008de0 <i_8758>:
    80008de0:	00200193          	li	gp,2

0000000080008de4 <i_8759>:
    80008de4:	0034d433          	srl	s0,s1,gp

0000000080008de8 <i_8760>:
    80008de8:	03142433          	mulhsu	s0,s0,a7

0000000080008dec <i_8761>:
    80008dec:	01d401b3          	add	gp,s0,t4

0000000080008df0 <i_8762>:
    80008df0:	ff311223          	sh	s3,-28(sp)

0000000080008df4 <i_8763>:
    80008df4:	fdc16783          	lwu	a5,-36(sp)

0000000080008df8 <i_8764>:
    80008df8:	85900193          	li	gp,-1959

0000000080008dfc <i_8765>:
    80008dfc:	86d00813          	li	a6,-1939

0000000080008e00 <i_8766>:
    80008e00:	19313023          	sd	s3,384(sp)

0000000080008e04 <i_8767>:
    80008e04:	00900213          	li	tp,9

0000000080008e08 <i_8768>:
    80008e08:	4047d23b          	sraw	tp,a5,tp

0000000080008e0c <i_8769>:
    80008e0c:	02427ebb          	remuw	t4,tp,tp

0000000080008e10 <i_8770>:
    80008e10:	006ef333          	and	t1,t4,t1

0000000080008e14 <i_8771>:
    80008e14:	00000013          	nop

0000000080008e18 <i_8772>:
    80008e18:	86900213          	li	tp,-1943

0000000080008e1c <i_8773>:
    80008e1c:	87500e93          	li	t4,-1931

0000000080008e20 <i_8774>:
    80008e20:	ea613423          	sd	t1,-344(sp)

0000000080008e24 <i_8775>:
    80008e24:	bfb5f593          	andi	a1,a1,-1029

0000000080008e28 <i_8776>:
    80008e28:	f1a14303          	lbu	t1,-230(sp)

0000000080008e2c <i_8777>:
    80008e2c:	00000013          	nop

0000000080008e30 <i_8778>:
    80008e30:	00120213          	addi	tp,tp,1 # 1 <main-0x7fffffff>
    80008e34:	fe4ed6e3          	ble	tp,t4,80008e20 <i_8774>

0000000080008e38 <i_8779>:
    80008e38:	026ad5bb          	divuw	a1,s5,t1

0000000080008e3c <i_8780>:
    80008e3c:	0032d293          	srli	t0,t0,0x3

0000000080008e40 <i_8781>:
    80008e40:	00118193          	addi	gp,gp,1 # 7d3458cd <main-0x2cba733>
    80008e44:	fb01cee3          	blt	gp,a6,80008e00 <i_8766>

0000000080008e48 <i_8782>:
    80008e48:	02559463          	bne	a1,t0,80008e70 <i_8792>

0000000080008e4c <i_8783>:
    80008e4c:	e8b12e23          	sw	a1,-356(sp)

0000000080008e50 <i_8784>:
    80008e50:	f5813b83          	ld	s7,-168(sp)

0000000080008e54 <i_8785>:
    80008e54:	15c15a03          	lhu	s4,348(sp)

0000000080008e58 <i_8786>:
    80008e58:	00000013          	nop

0000000080008e5c <i_8787>:
    80008e5c:	00000013          	nop

0000000080008e60 <i_8788>:
    80008e60:	e85104a3          	sb	t0,-375(sp)

0000000080008e64 <i_8789>:
    80008e64:	fe511323          	sh	t0,-26(sp)

0000000080008e68 <i_8790>:
    80008e68:	09812803          	lw	a6,152(sp)

0000000080008e6c <i_8791>:
    80008e6c:	01058e33          	add	t3,a1,a6

0000000080008e70 <i_8792>:
    80008e70:	e3c14803          	lbu	a6,-452(sp)

0000000080008e74 <i_8793>:
    80008e74:	00231313          	slli	t1,t1,0x2

0000000080008e78 <i_8794>:
    80008e78:	80c00593          	li	a1,-2036

0000000080008e7c <i_8795>:
    80008e7c:	81800293          	li	t0,-2024

0000000080008e80 <i_8796>:
    80008e80:	00000013          	nop

0000000080008e84 <i_8797>:
    80008e84:	00000013          	nop

0000000080008e88 <i_8798>:
    80008e88:	89500213          	li	tp,-1899

0000000080008e8c <i_8799>:
    80008e8c:	8a900b93          	li	s7,-1879

0000000080008e90 <i_8800>:
    80008e90:	7f447e17          	auipc	t3,0x7f447

0000000080008e94 <i_8801>:
    80008e94:	00120213          	addi	tp,tp,1 # 1 <main-0x7fffffff>
    80008e98:	ff721ce3          	bne	tp,s7,80008e90 <i_8800>

0000000080008e9c <i_8802>:
    80008e9c:	00335813          	srli	a6,t1,0x3

0000000080008ea0 <i_8803>:
    80008ea0:	00000013          	nop

0000000080008ea4 <i_8804>:
    80008ea4:	00158593          	addi	a1,a1,1
    80008ea8:	fc55ece3          	bltu	a1,t0,80008e80 <i_8796>

0000000080008eac <i_8805>:
    80008eac:	0ea14a03          	lbu	s4,234(sp)

0000000080008eb0 <i_8806>:
    80008eb0:	02271063          	bne	a4,sp,80008ed0 <i_8814>

0000000080008eb4 <i_8807>:
    80008eb4:	e29108a3          	sb	s1,-463(sp)

0000000080008eb8 <i_8808>:
    80008eb8:	0c610a03          	lb	s4,198(sp)

0000000080008ebc <i_8809>:
    80008ebc:	0304e43b          	remw	s0,s1,a6

0000000080008ec0 <i_8810>:
    80008ec0:	ff013483          	ld	s1,-16(sp)

0000000080008ec4 <i_8811>:
    80008ec4:	f4811803          	lh	a6,-184(sp)

0000000080008ec8 <i_8812>:
    80008ec8:	01047e63          	bleu	a6,s0,80008ee4 <i_8819>

0000000080008ecc <i_8813>:
    80008ecc:	41e404b3          	sub	s1,s0,t5

0000000080008ed0 <i_8814>:
    80008ed0:	f0013483          	ld	s1,-256(sp)

0000000080008ed4 <i_8815>:
    80008ed4:	f7013c23          	sd	a6,-136(sp)

0000000080008ed8 <i_8816>:
    80008ed8:	17011a23          	sh	a6,372(sp)

0000000080008edc <i_8817>:
    80008edc:	0f848813          	addi	a6,s1,248

0000000080008ee0 <i_8818>:
    80008ee0:	ab48049b          	addiw	s1,a6,-1356

0000000080008ee4 <i_8819>:
    80008ee4:	f3a86813          	ori	a6,a6,-198

0000000080008ee8 <i_8820>:
    80008ee8:	edc15383          	lhu	t2,-292(sp)

0000000080008eec <i_8821>:
    80008eec:	01085a63          	ble	a6,a6,80008f00 <i_8826>

0000000080008ef0 <i_8822>:
    80008ef0:	0108fc63          	bleu	a6,a7,80008f08 <i_8828>

0000000080008ef4 <i_8823>:
    80008ef4:	01081463          	bne	a6,a6,80008efc <i_8825>

0000000080008ef8 <i_8824>:
    80008ef8:	0df11323          	sh	t6,198(sp)

0000000080008efc <i_8825>:
    80008efc:	04c12803          	lw	a6,76(sp)

0000000080008f00 <i_8826>:
    80008f00:	0053a833          	slt	a6,t2,t0

0000000080008f04 <i_8827>:
    80008f04:	09013d83          	ld	s11,144(sp)

0000000080008f08 <i_8828>:
    80008f08:	f0412803          	lw	a6,-252(sp)

0000000080008f0c <i_8829>:
    80008f0c:	027c1263          	bne	s8,t2,80008f30 <i_8838>

0000000080008f10 <i_8830>:
    80008f10:	f9311f23          	sh	s3,-98(sp)

0000000080008f14 <i_8831>:
    80008f14:	01bdf3b3          	and	t2,s11,s11

0000000080008f18 <i_8832>:
    80008f18:	00000013          	nop

0000000080008f1c <i_8833>:
    80008f1c:	15816d83          	lwu	s11,344(sp)

0000000080008f20 <i_8834>:
    80008f20:	17a15d83          	lhu	s11,378(sp)

0000000080008f24 <i_8835>:
    80008f24:	007de333          	or	t1,s11,t2

0000000080008f28 <i_8836>:
    80008f28:	00000013          	nop

0000000080008f2c <i_8837>:
    80008f2c:	e3a14a03          	lbu	s4,-454(sp)

0000000080008f30 <i_8838>:
    80008f30:	014d8a33          	add	s4,s11,s4

0000000080008f34 <i_8839>:
    80008f34:	04a15803          	lhu	a6,74(sp)

0000000080008f38 <i_8840>:
    80008f38:	85400213          	li	tp,-1964

0000000080008f3c <i_8841>:
    80008f3c:	85f00993          	li	s3,-1953

0000000080008f40 <i_8842>:
    80008f40:	03b1f1b3          	remu	gp,gp,s11

0000000080008f44 <i_8843>:
    80008f44:	f1114d83          	lbu	s11,-239(sp)

0000000080008f48 <i_8844>:
    80008f48:	06c14e03          	lbu	t3,108(sp)

0000000080008f4c <i_8845>:
    80008f4c:	00000013          	nop

0000000080008f50 <i_8846>:
    80008f50:	00000013          	nop

0000000080008f54 <i_8847>:
    80008f54:	09c12e83          	lw	t4,156(sp)

0000000080008f58 <i_8848>:
    80008f58:	00120213          	addi	tp,tp,1 # 1 <main-0x7fffffff>
    80008f5c:	ff3212e3          	bne	tp,s3,80008f40 <i_8842>

0000000080008f60 <i_8849>:
    80008f60:	003e5c63          	ble	gp,t3,80008f78 <i_8855>

0000000080008f64 <i_8850>:
    80008f64:	0f011d83          	lh	s11,240(sp)

0000000080008f68 <i_8851>:
    80008f68:	023f4463          	blt	t5,gp,80008f90 <i_8861>

0000000080008f6c <i_8852>:
    80008f6c:	f0c1819b          	addiw	gp,gp,-244

0000000080008f70 <i_8853>:
    80008f70:	13415a03          	lhu	s4,308(sp)

0000000080008f74 <i_8854>:
    80008f74:	03dea1b3          	mulhsu	gp,t4,t4

0000000080008f78 <i_8855>:
    80008f78:	41d18ebb          	subw	t4,gp,t4

0000000080008f7c <i_8856>:
    80008f7c:	08714d83          	lbu	s11,135(sp)

0000000080008f80 <i_8857>:
    80008f80:	e2a18e93          	addi	t4,gp,-470

0000000080008f84 <i_8858>:
    80008f84:	401dd19b          	sraiw	gp,s11,0x1

0000000080008f88 <i_8859>:
    80008f88:	13013183          	ld	gp,304(sp)

0000000080008f8c <i_8860>:
    80008f8c:	be708eb7          	lui	t4,0xbe708

0000000080008f90 <i_8861>:
    80008f90:	01dcbeb3          	sltu	t4,s9,t4

0000000080008f94 <i_8862>:
    80008f94:	00000013          	nop

0000000080008f98 <i_8863>:
    80008f98:	78300493          	li	s1,1923

0000000080008f9c <i_8864>:
    80008f9c:	78600793          	li	a5,1926

0000000080008fa0 <i_8865>:
    80008fa0:	12714e83          	lbu	t4,295(sp)

0000000080008fa4 <i_8866>:
    80008fa4:	03be8eb3          	mul	t4,t4,s11

0000000080008fa8 <i_8867>:
    80008fa8:	8ca00393          	li	t2,-1846

0000000080008fac <i_8868>:
    80008fac:	8d300d93          	li	s11,-1837

0000000080008fb0 <i_8869>:
    80008fb0:	ffb11123          	sh	s11,-30(sp)

0000000080008fb4 <i_8870>:
    80008fb4:	00138393          	addi	t2,t2,1
    80008fb8:	ffb3ece3          	bltu	t2,s11,80008fb0 <i_8869>

0000000080008fbc <i_8871>:
    80008fbc:	151e59b7          	lui	s3,0x151e5

0000000080008fc0 <i_8872>:
    80008fc0:	03b3d063          	ble	s11,t2,80008fe0 <i_8879>

0000000080008fc4 <i_8873>:
    80008fc4:	00148493          	addi	s1,s1,1
    80008fc8:	fcf4ece3          	bltu	s1,a5,80008fa0 <i_8865>

0000000080008fcc <i_8874>:
    80008fcc:	00fd87b3          	add	a5,s11,a5

0000000080008fd0 <i_8875>:
    80008fd0:	01338463          	beq	t2,s3,80008fd8 <i_8877>

0000000080008fd4 <i_8876>:
    80008fd4:	01b99c63          	bne	s3,s11,80008fec <i_8882>

0000000080008fd8 <i_8877>:
    80008fd8:	03dfc263          	blt	t6,t4,80008ffc <i_8886>

0000000080008fdc <i_8878>:
    80008fdc:	002cd193          	srli	gp,s9,0x2

0000000080008fe0 <i_8879>:
    80008fe0:	ee812283          	lw	t0,-280(sp)

0000000080008fe4 <i_8880>:
    80008fe4:	0237f463          	bleu	gp,a5,8000900c <i_8890>

0000000080008fe8 <i_8881>:
    80008fe8:	4012d793          	srai	a5,t0,0x1

0000000080008fec <i_8882>:
    80008fec:	00f7f863          	bleu	a5,a5,80008ffc <i_8886>

0000000080008ff0 <i_8883>:
    80008ff0:	02a7d7b3          	divu	a5,a5,a0

0000000080008ff4 <i_8884>:
    80008ff4:	e4c14783          	lbu	a5,-436(sp)

0000000080008ff8 <i_8885>:
    80008ff8:	00100493          	li	s1,1

0000000080008ffc <i_8886>:
    80008ffc:	009dddbb          	srlw	s11,s11,s1

0000000080009000 <i_8887>:
    80009000:	029de53b          	remw	a0,s11,s1

0000000080009004 <i_8888>:
    80009004:	00956c63          	bltu	a0,s1,8000901c <i_8894>

0000000080009008 <i_8889>:
    80009008:	e4812d83          	lw	s11,-440(sp)

000000008000900c <i_8890>:
    8000900c:	08911823          	sh	s1,144(sp)

0000000080009010 <i_8891>:
    80009010:	5fa5051b          	addiw	a0,a0,1530

0000000080009014 <i_8892>:
    80009014:	10614d83          	lbu	s11,262(sp)

0000000080009018 <i_8893>:
    80009018:	01b49663          	bne	s1,s11,80009024 <i_8896>

000000008000901c <i_8894>:
    8000901c:	fb814803          	lbu	a6,-72(sp)

0000000080009020 <i_8895>:
    80009020:	d0bde813          	ori	a6,s11,-757

0000000080009024 <i_8896>:
    80009024:	fb011923          	sh	a6,-78(sp)

0000000080009028 <i_8897>:
    80009028:	01be8833          	add	a6,t4,s11

000000008000902c <i_8898>:
    8000902c:	fa611303          	lh	t1,-90(sp)

0000000080009030 <i_8899>:
    80009030:	e6c12d83          	lw	s11,-404(sp)

0000000080009034 <i_8900>:
    80009034:	026eeeb3          	rem	t4,t4,t1

0000000080009038 <i_8901>:
    80009038:	1ae11803          	lh	a6,430(sp)

000000008000903c <i_8902>:
    8000903c:	00800293          	li	t0,8

0000000080009040 <i_8903>:
    80009040:	4053583b          	sraw	a6,t1,t0

0000000080009044 <i_8904>:
    80009044:	4023551b          	sraiw	a0,t1,0x2

0000000080009048 <i_8905>:
    80009048:	28f47e17          	auipc	t3,0x28f47

000000008000904c <i_8906>:
    8000904c:	0024d193          	srli	gp,s1,0x2

0000000080009050 <i_8907>:
    80009050:	0c813303          	ld	t1,200(sp)

0000000080009054 <i_8908>:
    80009054:	f9a3019b          	addiw	gp,t1,-102

0000000080009058 <i_8909>:
    80009058:	03016b83          	lwu	s7,48(sp)

000000008000905c <i_8910>:
    8000905c:	01400e13          	li	t3,20

0000000080009060 <i_8911>:
    80009060:	01cb9bb3          	sll	s7,s7,t3

0000000080009064 <i_8912>:
    80009064:	0069e463          	bltu	s3,t1,8000906c <i_8914>

0000000080009068 <i_8913>:
    80009068:	04611a23          	sh	t1,84(sp)

000000008000906c <i_8914>:
    8000906c:	00b585b3          	add	a1,a1,a1

0000000080009070 <i_8915>:
    80009070:	12312223          	sw	gp,292(sp)

0000000080009074 <i_8916>:
    80009074:	11a14183          	lbu	gp,282(sp)

0000000080009078 <i_8917>:
    80009078:	00171a13          	slli	s4,a4,0x1

000000008000907c <i_8918>:
    8000907c:	00000013          	nop

0000000080009080 <i_8919>:
    80009080:	76700193          	li	gp,1895

0000000080009084 <i_8920>:
    80009084:	77400b93          	li	s7,1908

0000000080009088 <i_8921>:
    80009088:	18215583          	lhu	a1,386(sp)

000000008000908c <i_8922>:
    8000908c:	07c16283          	lwu	t0,124(sp)

0000000080009090 <i_8923>:
    80009090:	fc5105a3          	sb	t0,-53(sp)

0000000080009094 <i_8924>:
    80009094:	00118193          	addi	gp,gp,1
    80009098:	fe3bf8e3          	bleu	gp,s7,80009088 <i_8921>

000000008000909c <i_8925>:
    8000909c:	fbe11583          	lh	a1,-66(sp)

00000000800090a0 <i_8926>:
    800090a0:	0031e3b3          	or	t2,gp,gp

00000000800090a4 <i_8927>:
    800090a4:	89600b93          	li	s7,-1898

00000000800090a8 <i_8928>:
    800090a8:	8a400a13          	li	s4,-1884

00000000800090ac <i_8929>:
    800090ac:	0b610083          	lb	ra,182(sp)

00000000800090b0 <i_8930>:
    800090b0:	a65521b7          	lui	gp,0xa6552

00000000800090b4 <i_8931>:
    800090b4:	00109663          	bne	ra,ra,800090c0 <i_8934>

00000000800090b8 <i_8932>:
    800090b8:	fa816d83          	lwu	s11,-88(sp)

00000000800090bc <i_8933>:
    800090bc:	fe813d83          	ld	s11,-24(sp)

00000000800090c0 <i_8934>:
    800090c0:	03b0f0b3          	remu	ra,ra,s11

00000000800090c4 <i_8935>:
    800090c4:	02a00413          	li	s0,42

00000000800090c8 <i_8936>:
    800090c8:	00809eb3          	sll	t4,ra,s0

00000000800090cc <i_8937>:
    800090cc:	7e000393          	li	t2,2016

00000000800090d0 <i_8938>:
    800090d0:	7f000813          	li	a6,2032

00000000800090d4 <i_8939>:
    800090d4:	00138393          	addi	t2,t2,1
    800090d8:	ff03ece3          	bltu	t2,a6,800090d0 <i_8938>

00000000800090dc <i_8940>:
    800090dc:	f3a11403          	lh	s0,-198(sp)

00000000800090e0 <i_8941>:
    800090e0:	f8215083          	lhu	ra,-126(sp)

00000000800090e4 <i_8942>:
    800090e4:	002d9d9b          	slliw	s11,s11,0x2

00000000800090e8 <i_8943>:
    800090e8:	0010919b          	slliw	gp,ra,0x1

00000000800090ec <i_8944>:
    800090ec:	02a350bb          	divuw	ra,t1,a0

00000000800090f0 <i_8945>:
    800090f0:	001b8b93          	addi	s7,s7,1 # 7ce1e61d <main-0x31e19e3>
    800090f4:	fb7a5ce3          	ble	s7,s4,800090ac <i_8929>

00000000800090f8 <i_8946>:
    800090f8:	f8c15503          	lhu	a0,-116(sp)

00000000800090fc <i_8947>:
    800090fc:	f3016183          	lwu	gp,-208(sp)

0000000080009100 <i_8948>:
    80009100:	e2816583          	lwu	a1,-472(sp)

0000000080009104 <i_8949>:
    80009104:	f7d14283          	lbu	t0,-131(sp)

0000000080009108 <i_8950>:
    80009108:	3071f593          	andi	a1,gp,775

000000008000910c <i_8951>:
    8000910c:	05514183          	lbu	gp,85(sp)

0000000080009110 <i_8952>:
    80009110:	02329463          	bne	t0,gp,80009138 <i_8962>

0000000080009114 <i_8953>:
    80009114:	edf10183          	lb	gp,-289(sp)

0000000080009118 <i_8954>:
    80009118:	1e615183          	lhu	gp,486(sp)

000000008000911c <i_8955>:
    8000911c:	10013283          	ld	t0,256(sp)

0000000080009120 <i_8956>:
    80009120:	0232f463          	bleu	gp,t0,80009148 <i_8966>

0000000080009124 <i_8957>:
    80009124:	4011d213          	srai	tp,gp,0x1

0000000080009128 <i_8958>:
    80009128:	00429c63          	bne	t0,tp,80009140 <i_8964>

000000008000912c <i_8959>:
    8000912c:	00013983          	ld	s3,0(sp)

0000000080009130 <i_8960>:
    80009130:	ffa11283          	lh	t0,-6(sp)

0000000080009134 <i_8961>:
    80009134:	fc413423          	sd	tp,-56(sp)

0000000080009138 <i_8962>:
    80009138:	ff215e03          	lhu	t3,-14(sp)

000000008000913c <i_8963>:
    8000913c:	0042da63          	ble	tp,t0,80009150 <i_8968>

0000000080009140 <i_8964>:
    80009140:	00100a13          	li	s4,1

0000000080009144 <i_8965>:
    80009144:	014ad9bb          	srlw	s3,s5,s4

0000000080009148 <i_8966>:
    80009148:	0b610583          	lb	a1,182(sp)

000000008000914c <i_8967>:
    8000914c:	0a712823          	sw	t2,176(sp)

0000000080009150 <i_8968>:
    80009150:	00a18a63          	beq	gp,a0,80009164 <i_8973>

0000000080009154 <i_8969>:
    80009154:	02b2c463          	blt	t0,a1,8000917c <i_8979>

0000000080009158 <i_8970>:
    80009158:	eab11223          	sh	a1,-348(sp)

000000008000915c <i_8971>:
    8000915c:	e9e11583          	lh	a1,-354(sp)

0000000080009160 <i_8972>:
    80009160:	efa14583          	lbu	a1,-262(sp)

0000000080009164 <i_8973>:
    80009164:	034a6463          	bltu	s4,s4,8000918c <i_8983>

0000000080009168 <i_8974>:
    80009168:	0044d49b          	srliw	s1,s1,0x4

000000008000916c <i_8975>:
    8000916c:	f0412203          	lw	tp,-252(sp)

0000000080009170 <i_8976>:
    80009170:	02100a13          	li	s4,33

0000000080009174 <i_8977>:
    80009174:	014714b3          	sll	s1,a4,s4

0000000080009178 <i_8978>:
    80009178:	0a510a03          	lb	s4,165(sp)

000000008000917c <i_8979>:
    8000917c:	f0813183          	ld	gp,-248(sp)

0000000080009180 <i_8980>:
    80009180:	fac16303          	lwu	t1,-84(sp)

0000000080009184 <i_8981>:
    80009184:	003147b3          	xor	a5,sp,gp

0000000080009188 <i_8982>:
    80009188:	00ef8a63          	beq	t6,a4,8000919c <i_8987>

000000008000918c <i_8983>:
    8000918c:	efa13c23          	sd	s10,-264(sp)

0000000080009190 <i_8984>:
    80009190:	02b4c463          	blt	s1,a1,800091b8 <i_8994>

0000000080009194 <i_8985>:
    80009194:	014a4e63          	blt	s4,s4,800091b0 <i_8992>

0000000080009198 <i_8986>:
    80009198:	16412183          	lw	gp,356(sp)

000000008000919c <i_8987>:
    8000919c:	0e211283          	lh	t0,226(sp)

00000000800091a0 <i_8988>:
    800091a0:	fa814203          	lbu	tp,-88(sp)

00000000800091a4 <i_8989>:
    800091a4:	16c15203          	lhu	tp,364(sp)

00000000800091a8 <i_8990>:
    800091a8:	ea113c23          	sd	ra,-328(sp)

00000000800091ac <i_8991>:
    800091ac:	0042e863          	bltu	t0,tp,800091bc <i_8995>

00000000800091b0 <i_8992>:
    800091b0:	00526c63          	bltu	tp,t0,800091c8 <i_8998>

00000000800091b4 <i_8993>:
    800091b4:	e5010223          	sb	a6,-444(sp)

00000000800091b8 <i_8994>:
    800091b8:	00429663          	bne	t0,tp,800091c4 <i_8997>

00000000800091bc <i_8995>:
    800091bc:	e2bc33b7          	lui	t2,0xe2bc3

00000000800091c0 <i_8996>:
    800091c0:	00713c23          	sd	t2,24(sp)

00000000800091c4 <i_8997>:
    800091c4:	00428533          	add	a0,t0,tp

00000000800091c8 <i_8998>:
    800091c8:	ea413023          	sd	tp,-352(sp)

00000000800091cc <i_8999>:
    800091cc:	0043dc63          	ble	tp,t2,800091e4 <i_9005>

00000000800091d0 <i_9000>:
    800091d0:	13416e83          	lwu	t4,308(sp)

00000000800091d4 <i_9001>:
    800091d4:	407082b3          	sub	t0,ra,t2

00000000800091d8 <i_9002>:
    800091d8:	f2710223          	sb	t2,-220(sp)

00000000800091dc <i_9003>:
    800091dc:	01900313          	li	t1,25

00000000800091e0 <i_9004>:
    800091e0:	4065d4bb          	sraw	s1,a1,t1

00000000800091e4 <i_9005>:
    800091e4:	01b00293          	li	t0,27

00000000800091e8 <i_9006>:
    800091e8:	005995bb          	sllw	a1,s3,t0

00000000800091ec <i_9007>:
    800091ec:	0055d463          	ble	t0,a1,800091f4 <i_9009>

00000000800091f0 <i_9008>:
    800091f0:	0064c663          	blt	s1,t1,800091fc <i_9011>

00000000800091f4 <i_9009>:
    800091f4:	0091ce63          	blt	gp,s1,80009210 <i_9016>

00000000800091f8 <i_9010>:
    800091f8:	f8b13423          	sd	a1,-120(sp)

00000000800091fc <i_9011>:
    800091fc:	00100d93          	li	s11,1

0000000080009200 <i_9012>:
    80009200:	01b352bb          	srlw	t0,t1,s11

0000000080009204 <i_9013>:
    80009204:	fd114583          	lbu	a1,-47(sp)

0000000080009208 <i_9014>:
    80009208:	00528c63          	beq	t0,t0,80009220 <i_9020>

000000008000920c <i_9015>:
    8000920c:	f5615483          	lhu	s1,-170(sp)

0000000080009210 <i_9016>:
    80009210:	da84aa13          	slti	s4,s1,-600

0000000080009214 <i_9017>:
    80009214:	16016283          	lwu	t0,352(sp)

0000000080009218 <i_9018>:
    80009218:	1a712623          	sw	t2,428(sp)

000000008000921c <i_9019>:
    8000921c:	00000013          	nop

0000000080009220 <i_9020>:
    80009220:	03413423          	sd	s4,40(sp)

0000000080009224 <i_9021>:
    80009224:	f0e11d83          	lh	s11,-242(sp)

0000000080009228 <i_9022>:
    80009228:	84b00293          	li	t0,-1973

000000008000922c <i_9023>:
    8000922c:	85400393          	li	t2,-1964

0000000080009230 <i_9024>:
    80009230:	0163e263          	bltu	t2,s6,80009234 <i_9025>

0000000080009234 <i_9025>:
    80009234:	004d9a1b          	slliw	s4,s11,0x4

0000000080009238 <i_9026>:
    80009238:	09b11c23          	sh	s11,152(sp)

000000008000923c <i_9027>:
    8000923c:	1d415203          	lhu	tp,468(sp)

0000000080009240 <i_9028>:
    80009240:	00128293          	addi	t0,t0,1
    80009244:	fe72c6e3          	blt	t0,t2,80009230 <i_9024>

0000000080009248 <i_9029>:
    80009248:	03028593          	addi	a1,t0,48

000000008000924c <i_9030>:
    8000924c:	0252e4bb          	remw	s1,t0,t0

0000000080009250 <i_9031>:
    80009250:	09412e23          	sw	s4,156(sp)

0000000080009254 <i_9032>:
    80009254:	029a7533          	remu	a0,s4,s1

0000000080009258 <i_9033>:
    80009258:	4a9c1497          	auipc	s1,0x4a9c1

000000008000925c <i_9034>:
    8000925c:	0342e263          	bltu	t0,s4,80009280 <i_9043>

0000000080009260 <i_9035>:
    80009260:	00ad0c63          	beq	s10,a0,80009278 <i_9041>

0000000080009264 <i_9036>:
    80009264:	f9585a37          	lui	s4,0xf9585

0000000080009268 <i_9037>:
    80009268:	19c10283          	lb	t0,412(sp)

000000008000926c <i_9038>:
    8000926c:	409484b3          	sub	s1,s1,s1

0000000080009270 <i_9039>:
    80009270:	00f00513          	li	a0,15

0000000080009274 <i_9040>:
    80009274:	00a2d2bb          	srlw	t0,t0,a0

0000000080009278 <i_9041>:
    80009278:	e5813583          	ld	a1,-424(sp)

000000008000927c <i_9042>:
    8000927c:	05211503          	lh	a0,82(sp)

0000000080009280 <i_9043>:
    80009280:	0025151b          	slliw	a0,a0,0x2

0000000080009284 <i_9044>:
    80009284:	00000013          	nop

0000000080009288 <i_9045>:
    80009288:	80200293          	li	t0,-2046

000000008000928c <i_9046>:
    8000928c:	80c00413          	li	s0,-2036

0000000080009290 <i_9047>:
    80009290:	0c015583          	lhu	a1,192(sp)

0000000080009294 <i_9048>:
    80009294:	fea104a3          	sb	a0,-23(sp)

0000000080009298 <i_9049>:
    80009298:	00128293          	addi	t0,t0,1
    8000929c:	fe547ae3          	bleu	t0,s0,80009290 <i_9047>

00000000800092a0 <i_9050>:
    800092a0:	01146533          	or	a0,s0,a7

00000000800092a4 <i_9051>:
    800092a4:	02310203          	lb	tp,35(sp)

00000000800092a8 <i_9052>:
    800092a8:	0c811e03          	lh	t3,200(sp)

00000000800092ac <i_9053>:
    800092ac:	0e412023          	sw	tp,224(sp)

00000000800092b0 <i_9054>:
    800092b0:	88500413          	li	s0,-1915

00000000800092b4 <i_9055>:
    800092b4:	88f00793          	li	a5,-1905

00000000800092b8 <i_9056>:
    800092b8:	2de23213          	sltiu	tp,tp,734

00000000800092bc <i_9057>:
    800092bc:	010e4833          	xor	a6,t3,a6

00000000800092c0 <i_9058>:
    800092c0:	0de15b83          	lhu	s7,222(sp)

00000000800092c4 <i_9059>:
    800092c4:	00140413          	addi	s0,s0,1
    800092c8:	fe87d8e3          	ble	s0,a5,800092b8 <i_9056>

00000000800092cc <i_9060>:
    800092cc:	004c6463          	bltu	s8,tp,800092d4 <i_9062>

00000000800092d0 <i_9061>:
    800092d0:	01a11203          	lh	tp,26(sp)

00000000800092d4 <i_9062>:
    800092d4:	00b5b5b3          	sltu	a1,a1,a1

00000000800092d8 <i_9063>:
    800092d8:	02b35263          	ble	a1,t1,800092fc <i_9072>

00000000800092dc <i_9064>:
    800092dc:	02b81bb3          	mulh	s7,a6,a1

00000000800092e0 <i_9065>:
    800092e0:	f3214503          	lbu	a0,-206(sp)

00000000800092e4 <i_9066>:
    800092e4:	02b56533          	rem	a0,a0,a1

00000000800092e8 <i_9067>:
    800092e8:	00000013          	nop

00000000800092ec <i_9068>:
    800092ec:	03034e3b          	divw	t3,t1,a6

00000000800092f0 <i_9069>:
    800092f0:	09812383          	lw	t2,152(sp)

00000000800092f4 <i_9070>:
    800092f4:	02a295b3          	mulh	a1,t0,a0

00000000800092f8 <i_9071>:
    800092f8:	f8b13c23          	sd	a1,-104(sp)

00000000800092fc <i_9072>:
    800092fc:	00000013          	nop

0000000080009300 <i_9073>:
    80009300:	03c16183          	lwu	gp,60(sp)

0000000080009304 <i_9074>:
    80009304:	83400513          	li	a0,-1996

0000000080009308 <i_9075>:
    80009308:	84800d93          	li	s11,-1976

000000008000930c <i_9076>:
    8000930c:	0305ee33          	rem	t3,a1,a6

0000000080009310 <i_9077>:
    80009310:	401b89b3          	sub	s3,s7,ra

0000000080009314 <i_9078>:
    80009314:	ef015183          	lhu	gp,-272(sp)

0000000080009318 <i_9079>:
    80009318:	09411803          	lh	a6,148(sp)

000000008000931c <i_9080>:
    8000931c:	e6816483          	lwu	s1,-408(sp)

0000000080009320 <i_9081>:
    80009320:	40d803bb          	subw	t2,a6,a3

0000000080009324 <i_9082>:
    80009324:	e7661837          	lui	a6,0xe7661

0000000080009328 <i_9083>:
    80009328:	0293f063          	bleu	s1,t2,80009348 <i_9090>

000000008000932c <i_9084>:
    8000932c:	00150513          	addi	a0,a0,1 # ffffffff9c30f001 <_end+0xffffffff1c2febed>
    80009330:	fcadfee3          	bleu	a0,s11,8000930c <i_9076>

0000000080009334 <i_9085>:
    80009334:	1c816803          	lwu	a6,456(sp)

0000000080009338 <i_9086>:
    80009338:	00013803          	ld	a6,0(sp)

000000008000933c <i_9087>:
    8000933c:	03039063          	bne	t2,a6,8000935c <i_9095>

0000000080009340 <i_9088>:
    80009340:	f3012623          	sw	a6,-212(sp)

0000000080009344 <i_9089>:
    80009344:	0073d263          	ble	t2,t2,80009348 <i_9090>

0000000080009348 <i_9090>:
    80009348:	03016383          	lwu	t2,48(sp)

000000008000934c <i_9091>:
    8000934c:	00239393          	slli	t2,t2,0x2

0000000080009350 <i_9092>:
    80009350:	01c12183          	lw	gp,28(sp)

0000000080009354 <i_9093>:
    80009354:	1e415383          	lhu	t2,484(sp)

0000000080009358 <i_9094>:
    80009358:	0f416d83          	lwu	s11,244(sp)

000000008000935c <i_9095>:
    8000935c:	fc313423          	sd	gp,-56(sp)

0000000080009360 <i_9096>:
    80009360:	003883b3          	add	t2,a7,gp

0000000080009364 <i_9097>:
    80009364:	027dd063          	ble	t2,s11,80009384 <i_9105>

0000000080009368 <i_9098>:
    80009368:	f2813e83          	ld	t4,-216(sp)

000000008000936c <i_9099>:
    8000936c:	027dbdb3          	mulhu	s11,s11,t2

0000000080009370 <i_9100>:
    80009370:	4043d513          	srai	a0,t2,0x4

0000000080009374 <i_9101>:
    80009374:	0a712023          	sw	t2,160(sp)

0000000080009378 <i_9102>:
    80009378:	02798063          	beq	s3,t2,80009398 <i_9110>

000000008000937c <i_9103>:
    8000937c:	00a383b3          	add	t2,t2,a0

0000000080009380 <i_9104>:
    80009380:	e9b107a3          	sb	s11,-369(sp)

0000000080009384 <i_9105>:
    80009384:	00900393          	li	t2,9

0000000080009388 <i_9106>:
    80009388:	0071d3bb          	srlw	t2,gp,t2

000000008000938c <i_9107>:
    8000938c:	01139e63          	bne	t2,a7,800093a8 <i_9114>

0000000080009390 <i_9108>:
    80009390:	00a00793          	li	a5,10

0000000080009394 <i_9109>:
    80009394:	40f1d1bb          	sraw	gp,gp,a5

0000000080009398 <i_9110>:
    80009398:	00f11023          	sh	a5,0(sp)

000000008000939c <i_9111>:
    8000939c:	033eb9b3          	mulhu	s3,t4,s3

00000000800093a0 <i_9112>:
    800093a0:	0109dc63          	ble	a6,s3,800093b8 <i_9118>

00000000800093a4 <i_9113>:
    800093a4:	fd012423          	sw	a6,-56(sp)

00000000800093a8 <i_9114>:
    800093a8:	fc013383          	ld	t2,-64(sp)

00000000800093ac <i_9115>:
    800093ac:	fcd14283          	lbu	t0,-51(sp)

00000000800093b0 <i_9116>:
    800093b0:	f3411803          	lh	a6,-204(sp)

00000000800093b4 <i_9117>:
    800093b4:	03000293          	li	t0,48

00000000800093b8 <i_9118>:
    800093b8:	005995b3          	sll	a1,s3,t0

00000000800093bc <i_9119>:
    800093bc:	1ad10583          	lb	a1,429(sp)

00000000800093c0 <i_9120>:
    800093c0:	e6f5859b          	addiw	a1,a1,-401

00000000800093c4 <i_9121>:
    800093c4:	e5911923          	sh	s9,-430(sp)

00000000800093c8 <i_9122>:
    800093c8:	025282b3          	mul	t0,t0,t0

00000000800093cc <i_9123>:
    800093cc:	00b2ee63          	bltu	t0,a1,800093e8 <i_9130>

00000000800093d0 <i_9124>:
    800093d0:	00579863          	bne	a5,t0,800093e0 <i_9128>

00000000800093d4 <i_9125>:
    800093d4:	025797b3          	mulh	a5,a5,t0

00000000800093d8 <i_9126>:
    800093d8:	f7211283          	lh	t0,-142(sp)

00000000800093dc <i_9127>:
    800093dc:	08511c23          	sh	t0,152(sp)

00000000800093e0 <i_9128>:
    800093e0:	00000013          	nop

00000000800093e4 <i_9129>:
    800093e4:	01813a03          	ld	s4,24(sp)

00000000800093e8 <i_9130>:
    800093e8:	005100a3          	sb	t0,1(sp)

00000000800093ec <i_9131>:
    800093ec:	00000013          	nop

00000000800093f0 <i_9132>:
    800093f0:	8cf00b93          	li	s7,-1841

00000000800093f4 <i_9133>:
    800093f4:	8df00393          	li	t2,-1825

00000000800093f8 <i_9134>:
    800093f8:	02528063          	beq	t0,t0,80009418 <i_9141>

00000000800093fc <i_9135>:
    800093fc:	e3412803          	lw	a6,-460(sp)

0000000080009400 <i_9136>:
    80009400:	001b8b93          	addi	s7,s7,1
    80009404:	fe7b9ae3          	bne	s7,t2,800093f8 <i_9134>

0000000080009408 <i_9137>:
    80009408:	1fd10223          	sb	t4,484(sp)

000000008000940c <i_9138>:
    8000940c:	2b4492b7          	lui	t0,0x2b449

0000000080009410 <i_9139>:
    80009410:	49aa0a13          	addi	s4,s4,1178 # fffffffff958549a <_end+0xffffffff79575086>

0000000080009414 <i_9140>:
    80009414:	ff010f23          	sb	a6,-2(sp)

0000000080009418 <i_9141>:
    80009418:	18415203          	lhu	tp,388(sp)

000000008000941c <i_9142>:
    8000941c:	00aa1263          	bne	s4,a0,80009420 <i_9143>

0000000080009420 <i_9143>:
    80009420:	02528063          	beq	t0,t0,80009440 <i_9151>

0000000080009424 <i_9144>:
    80009424:	01700393          	li	t2,23

0000000080009428 <i_9145>:
    80009428:	0072d1b3          	srl	gp,t0,t2

000000008000942c <i_9146>:
    8000942c:	01427663          	bleu	s4,tp,80009438 <i_9149>

0000000080009430 <i_9147>:
    80009430:	1d313823          	sd	s3,464(sp)

0000000080009434 <i_9148>:
    80009434:	ec012283          	lw	t0,-320(sp)

0000000080009438 <i_9149>:
    80009438:	0b412503          	lw	a0,180(sp)

000000008000943c <i_9150>:
    8000943c:	ec812383          	lw	t2,-312(sp)

0000000080009440 <i_9151>:
    80009440:	02526063          	bltu	tp,t0,80009460 <i_9159>

0000000080009444 <i_9152>:
    80009444:	0c810383          	lb	t2,200(sp)

0000000080009448 <i_9153>:
    80009448:	0272d263          	ble	t2,t0,8000946c <i_9162>

000000008000944c <i_9154>:
    8000944c:	00457a63          	bleu	tp,a0,80009460 <i_9159>

0000000080009450 <i_9155>:
    80009450:	08410283          	lb	t0,132(sp)

0000000080009454 <i_9156>:
    80009454:	10412383          	lw	t2,260(sp)

0000000080009458 <i_9157>:
    80009458:	00a50a63          	beq	a0,a0,8000946c <i_9162>

000000008000945c <i_9158>:
    8000945c:	5a2882b7          	lui	t0,0x5a288

0000000080009460 <i_9159>:
    80009460:	e6813303          	ld	t1,-408(sp)

0000000080009464 <i_9160>:
    80009464:	f4512c23          	sw	t0,-168(sp)

0000000080009468 <i_9161>:
    80009468:	02a35333          	divu	t1,t1,a0

000000008000946c <i_9162>:
    8000946c:	4063833b          	subw	t1,t2,t1

0000000080009470 <i_9163>:
    80009470:	e4613023          	sd	t1,-448(sp)

0000000080009474 <i_9164>:
    80009474:	00613c23          	sd	t1,24(sp)

0000000080009478 <i_9165>:
    80009478:	40a3033b          	subw	t1,t1,a0

000000008000947c <i_9166>:
    8000947c:	00637a63          	bleu	t1,t1,80009490 <i_9171>

0000000080009480 <i_9167>:
    80009480:	1c812303          	lw	t1,456(sp)

0000000080009484 <i_9168>:
    80009484:	0ec11a03          	lh	s4,236(sp)

0000000080009488 <i_9169>:
    80009488:	02645263          	ble	t1,s0,800094ac <i_9178>

000000008000948c <i_9170>:
    8000948c:	eed14303          	lbu	t1,-275(sp)

0000000080009490 <i_9171>:
    80009490:	008502b3          	add	t0,a0,s0

0000000080009494 <i_9172>:
    80009494:	14612c23          	sw	t1,344(sp)

0000000080009498 <i_9173>:
    80009498:	00f00a13          	li	s4,15

000000008000949c <i_9174>:
    8000949c:	4142d0bb          	sraw	ra,t0,s4

00000000800094a0 <i_9175>:
    800094a0:	1cc15283          	lhu	t0,460(sp)

00000000800094a4 <i_9176>:
    800094a4:	f2511623          	sh	t0,-212(sp)

00000000800094a8 <i_9177>:
    800094a8:	00117a63          	bleu	ra,sp,800094bc <i_9182>

00000000800094ac <i_9178>:
    800094ac:	0e513823          	sd	t0,240(sp)

00000000800094b0 <i_9179>:
    800094b0:	02c15083          	lhu	ra,44(sp)

00000000800094b4 <i_9180>:
    800094b4:	01600a13          	li	s4,22

00000000800094b8 <i_9181>:
    800094b8:	014693b3          	sll	t2,a3,s4

00000000800094bc <i_9182>:
    800094bc:	41138833          	sub	a6,t2,a7

00000000800094c0 <i_9183>:
    800094c0:	0012c2b3          	xor	t0,t0,ra

00000000800094c4 <i_9184>:
    800094c4:	7e300a13          	li	s4,2019

00000000800094c8 <i_9185>:
    800094c8:	7f300413          	li	s0,2035

00000000800094cc <i_9186>:
    800094cc:	010a4a63          	blt	s4,a6,800094e0 <i_9190>

00000000800094d0 <i_9187>:
    800094d0:	001a0a13          	addi	s4,s4,1
    800094d4:	fe8a6ce3          	bltu	s4,s0,800094cc <i_9186>

00000000800094d8 <i_9188>:
    800094d8:	00000013          	nop

00000000800094dc <i_9189>:
    800094dc:	f5a14583          	lbu	a1,-166(sp)

00000000800094e0 <i_9190>:
    800094e0:	0025a833          	slt	a6,a1,sp

00000000800094e4 <i_9191>:
    800094e4:	00910923          	sb	s1,18(sp)

00000000800094e8 <i_9192>:
    800094e8:	80400093          	li	ra,-2044

00000000800094ec <i_9193>:
    800094ec:	81600513          	li	a0,-2026

00000000800094f0 <i_9194>:
    800094f0:	f3011583          	lh	a1,-208(sp)

00000000800094f4 <i_9195>:
    800094f4:	00108093          	addi	ra,ra,1
    800094f8:	fea0ece3          	bltu	ra,a0,800094f0 <i_9194>

00000000800094fc <i_9196>:
    800094fc:	f5612a23          	sw	s6,-172(sp)

0000000080009500 <i_9197>:
    80009500:	010c77b3          	and	a5,s8,a6

0000000080009504 <i_9198>:
    80009504:	0028181b          	slliw	a6,a6,0x2

0000000080009508 <i_9199>:
    80009508:	00ff1a63          	bne	t5,a5,8000951c <i_9204>

000000008000950c <i_9200>:
    8000950c:	0ec12483          	lw	s1,236(sp)

0000000080009510 <i_9201>:
    80009510:	029a7063          	bleu	s1,s4,80009530 <i_9209>

0000000080009514 <i_9202>:
    80009514:	4014d493          	srai	s1,s1,0x1

0000000080009518 <i_9203>:
    80009518:	119a2313          	slti	t1,s4,281

000000008000951c <i_9204>:
    8000951c:	ea013483          	ld	s1,-352(sp)

0000000080009520 <i_9205>:
    80009520:	b6b30b9b          	addiw	s7,t1,-1173

0000000080009524 <i_9206>:
    80009524:	00000013          	nop

0000000080009528 <i_9207>:
    80009528:	13e11483          	lh	s1,318(sp)

000000008000952c <i_9208>:
    8000952c:	fba15d83          	lhu	s11,-70(sp)

0000000080009530 <i_9209>:
    80009530:	00000013          	nop

0000000080009534 <i_9210>:
    80009534:	029d94b3          	mulh	s1,s11,s1

0000000080009538 <i_9211>:
    80009538:	87900e13          	li	t3,-1927

000000008000953c <i_9212>:
    8000953c:	87b00793          	li	a5,-1925

0000000080009540 <i_9213>:
    80009540:	bf9d8a13          	addi	s4,s11,-1031 # 4a235bf9 <main-0x35dca407>

0000000080009544 <i_9214>:
    80009544:	001e0e13          	addi	t3,t3,1 # a8f50049 <_end+0x28f3fc35>
    80009548:	ffc79ce3          	bne	a5,t3,80009540 <i_9213>

000000008000954c <i_9215>:
    8000954c:	03f00e93          	li	t4,63

0000000080009550 <i_9216>:
    80009550:	01d4ddb3          	srl	s11,s1,t4

0000000080009554 <i_9217>:
    80009554:	01ba4663          	blt	s4,s11,80009560 <i_9220>

0000000080009558 <i_9218>:
    80009558:	17415d83          	lhu	s11,372(sp)

000000008000955c <i_9219>:
    8000955c:	0a910423          	sb	s1,168(sp)

0000000080009560 <i_9220>:
    80009560:	fd813483          	ld	s1,-40(sp)

0000000080009564 <i_9221>:
    80009564:	00200e93          	li	t4,2

0000000080009568 <i_9222>:
    80009568:	41ded33b          	sraw	t1,t4,t4

000000008000956c <i_9223>:
    8000956c:	00633233          	sltu	tp,t1,t1

0000000080009570 <i_9224>:
    80009570:	f5012403          	lw	s0,-176(sp)

0000000080009574 <i_9225>:
    80009574:	4013059b          	addiw	a1,t1,1025

0000000080009578 <i_9226>:
    80009578:	1ab12e23          	sw	a1,444(sp)

000000008000957c <i_9227>:
    8000957c:	00211123          	sh	sp,2(sp)

0000000080009580 <i_9228>:
    80009580:	005be263          	bltu	s7,t0,80009584 <i_9229>

0000000080009584 <i_9229>:
    80009584:	e3016d83          	lwu	s11,-464(sp)

0000000080009588 <i_9230>:
    80009588:	00848bb3          	add	s7,s1,s0

000000008000958c <i_9231>:
    8000958c:	cb65e513          	ori	a0,a1,-842

0000000080009590 <i_9232>:
    80009590:	01b337b3          	sltu	a5,t1,s11

0000000080009594 <i_9233>:
    80009594:	024fe063          	bltu	t6,tp,800095b4 <i_9241>

0000000080009598 <i_9234>:
    80009598:	028675b3          	remu	a1,a2,s0

000000008000959c <i_9235>:
    8000959c:	40f5043b          	subw	s0,a0,a5

00000000800095a0 <i_9236>:
    800095a0:	008e9a63          	bne	t4,s0,800095b4 <i_9241>

00000000800095a4 <i_9237>:
    800095a4:	ef813783          	ld	a5,-264(sp)

00000000800095a8 <i_9238>:
    800095a8:	08611783          	lh	a5,134(sp)

00000000800095ac <i_9239>:
    800095ac:	1d910783          	lb	a5,473(sp)

00000000800095b0 <i_9240>:
    800095b0:	1df10483          	lb	s1,479(sp)

00000000800095b4 <i_9241>:
    800095b4:	01e78333          	add	t1,a5,t5

00000000800095b8 <i_9242>:
    800095b8:	1c612223          	sw	t1,452(sp)

00000000800095bc <i_9243>:
    800095bc:	8c500393          	li	t2,-1851

00000000800095c0 <i_9244>:
    800095c0:	8d600793          	li	a5,-1834

00000000800095c4 <i_9245>:
    800095c4:	0267e9b3          	rem	s3,a5,t1

00000000800095c8 <i_9246>:
    800095c8:	02400513          	li	a0,36

00000000800095cc <i_9247>:
    800095cc:	00a9d0b3          	srl	ra,s3,a0

00000000800095d0 <i_9248>:
    800095d0:	1a614b83          	lbu	s7,422(sp)

00000000800095d4 <i_9249>:
    800095d4:	02013303          	ld	t1,32(sp)

00000000800095d8 <i_9250>:
    800095d8:	f3713c23          	sd	s7,-200(sp)

00000000800095dc <i_9251>:
    800095dc:	00000013          	nop

00000000800095e0 <i_9252>:
    800095e0:	f7711723          	sh	s7,-146(sp)

00000000800095e4 <i_9253>:
    800095e4:	deb7dbb7          	lui	s7,0xdeb7d

00000000800095e8 <i_9254>:
    800095e8:	1937bb93          	sltiu	s7,a5,403

00000000800095ec <i_9255>:
    800095ec:	0219c463          	blt	s3,ra,80009614 <i_9264>

00000000800095f0 <i_9256>:
    800095f0:	00138393          	addi	t2,t2,1 # ffffffffe2bc3001 <_end+0xffffffff62bb2bed>
    800095f4:	fc77d8e3          	ble	t2,a5,800095c4 <i_9245>

00000000800095f8 <i_9257>:
    800095f8:	e4813303          	ld	t1,-440(sp)

00000000800095fc <i_9258>:
    800095fc:	e1816e83          	lwu	t4,-488(sp)

0000000080009600 <i_9259>:
    80009600:	0099a433          	slt	s0,s3,s1

0000000080009604 <i_9260>:
    80009604:	ea710e23          	sb	t2,-324(sp)

0000000080009608 <i_9261>:
    80009608:	ef011b83          	lh	s7,-272(sp)

000000008000960c <i_9262>:
    8000960c:	00ff3333          	sltu	t1,t5,a5

0000000080009610 <i_9263>:
    80009610:	0d814383          	lbu	t2,216(sp)

0000000080009614 <i_9264>:
    80009614:	0d712e23          	sw	s7,220(sp)

0000000080009618 <i_9265>:
    80009618:	19813e03          	ld	t3,408(sp)

000000008000961c <i_9266>:
    8000961c:	7cb00993          	li	s3,1995

0000000080009620 <i_9267>:
    80009620:	7d000293          	li	t0,2000

0000000080009624 <i_9268>:
    80009624:	f2512223          	sw	t0,-220(sp)

0000000080009628 <i_9269>:
    80009628:	01900213          	li	tp,25

000000008000962c <i_9270>:
    8000962c:	4047de3b          	sraw	t3,a5,tp

0000000080009630 <i_9271>:
    80009630:	8b300393          	li	t2,-1869

0000000080009634 <i_9272>:
    80009634:	8b800513          	li	a0,-1864

0000000080009638 <i_9273>:
    80009638:	00000013          	nop

000000008000963c <i_9274>:
    8000963c:	0059ca33          	xor	s4,s3,t0

0000000080009640 <i_9275>:
    80009640:	00138393          	addi	t2,t2,1
    80009644:	fea3e8e3          	bltu	t2,a0,80009634 <i_9272>

0000000080009648 <i_9276>:
    80009648:	01f3ae33          	slt	t3,t2,t6

000000008000964c <i_9277>:
    8000964c:	03c29263          	bne	t0,t3,80009670 <i_9285>

0000000080009650 <i_9278>:
    80009650:	02550263          	beq	a0,t0,80009674 <i_9286>

0000000080009654 <i_9279>:
    80009654:	00000013          	nop

0000000080009658 <i_9280>:
    80009658:	00198993          	addi	s3,s3,1 # 151e5001 <main-0x6ae1afff>
    8000965c:	fc59c4e3          	blt	s3,t0,80009624 <i_9268>

0000000080009660 <i_9281>:
    80009660:	00259213          	slli	tp,a1,0x2

0000000080009664 <i_9282>:
    80009664:	0fa15783          	lhu	a5,250(sp)

0000000080009668 <i_9283>:
    80009668:	e2815203          	lhu	tp,-472(sp)

000000008000966c <i_9284>:
    8000966c:	a0e78a1b          	addiw	s4,a5,-1522

0000000080009670 <i_9285>:
    80009670:	09815803          	lhu	a6,152(sp)

0000000080009674 <i_9286>:
    80009674:	03e7f7b3          	remu	a5,a5,t5

0000000080009678 <i_9287>:
    80009678:	00c824b3          	slt	s1,a6,a2

000000008000967c <i_9288>:
    8000967c:	89132997          	auipc	s3,0x89132

0000000080009680 <i_9289>:
    80009680:	bdf84493          	xori	s1,a6,-1057

0000000080009684 <i_9290>:
    80009684:	00da3833          	sltu	a6,s4,a3

0000000080009688 <i_9291>:
    80009688:	0104ea63          	bltu	s1,a6,8000969c <i_9296>

000000008000968c <i_9292>:
    8000968c:	010ed463          	ble	a6,t4,80009694 <i_9294>

0000000080009690 <i_9293>:
    80009690:	034a1a33          	mulh	s4,s4,s4

0000000080009694 <i_9294>:
    80009694:	12912423          	sw	s1,296(sp)

0000000080009698 <i_9295>:
    80009698:	034a4bbb          	divw	s7,s4,s4

000000008000969c <i_9296>:
    8000969c:	03dbc53b          	divw	a0,s7,t4

00000000800096a0 <i_9297>:
    800096a0:	f8711323          	sh	t2,-122(sp)

00000000800096a4 <i_9298>:
    800096a4:	014a7a63          	bleu	s4,s4,800096b8 <i_9303>

00000000800096a8 <i_9299>:
    800096a8:	ed813a03          	ld	s4,-296(sp)

00000000800096ac <i_9300>:
    800096ac:	00856663          	bltu	a0,s0,800096b8 <i_9303>

00000000800096b0 <i_9301>:
    800096b0:	19312023          	sw	s3,384(sp)

00000000800096b4 <i_9302>:
    800096b4:	10712623          	sw	t2,268(sp)

00000000800096b8 <i_9303>:
    800096b8:	f4310203          	lb	tp,-189(sp)

00000000800096bc <i_9304>:
    800096bc:	03312823          	sw	s3,48(sp)

00000000800096c0 <i_9305>:
    800096c0:	8aa00393          	li	t2,-1878

00000000800096c4 <i_9306>:
    800096c4:	8b400993          	li	s3,-1868

00000000800096c8 <i_9307>:
    800096c8:	03310623          	sb	s3,44(sp)

00000000800096cc <i_9308>:
    800096cc:	00000013          	nop

00000000800096d0 <i_9309>:
    800096d0:	034c82bb          	mulw	t0,s9,s4

00000000800096d4 <i_9310>:
    800096d4:	01bce663          	bltu	s9,s11,800096e0 <i_9313>

00000000800096d8 <i_9311>:
    800096d8:	ff812583          	lw	a1,-8(sp)

00000000800096dc <i_9312>:
    800096dc:	07615d83          	lhu	s11,118(sp)

00000000800096e0 <i_9313>:
    800096e0:	12a11823          	sh	a0,304(sp)

00000000800096e4 <i_9314>:
    800096e4:	017f6c63          	bltu	t5,s7,800096fc <i_9319>

00000000800096e8 <i_9315>:
    800096e8:	e8215e83          	lhu	t4,-382(sp)

00000000800096ec <i_9316>:
    800096ec:	00138393          	addi	t2,t2,1
    800096f0:	fd33ece3          	bltu	t2,s3,800096c8 <i_9307>

00000000800096f4 <i_9317>:
    800096f4:	b61242b7          	lui	t0,0xb6124

00000000800096f8 <i_9318>:
    800096f8:	fa710aa3          	sb	t2,-75(sp)

00000000800096fc <i_9319>:
    800096fc:	47d9e993          	ori	s3,s3,1149

0000000080009700 <i_9320>:
    80009700:	b71e8b93          	addi	s7,t4,-1167 # ffffffffbe707b71 <_end+0xffffffff3e6f775d>

0000000080009704 <i_9321>:
    80009704:	3d77f237          	lui	tp,0x3d77f

0000000080009708 <i_9322>:
    80009708:	ff215803          	lhu	a6,-14(sp)

000000008000970c <i_9323>:
    8000970c:	d4983bb7          	lui	s7,0xd4983

0000000080009710 <i_9324>:
    80009710:	18d10d83          	lb	s11,397(sp)

0000000080009714 <i_9325>:
    80009714:	e5016403          	lwu	s0,-432(sp)

0000000080009718 <i_9326>:
    80009718:	f9b11523          	sh	s11,-118(sp)

000000008000971c <i_9327>:
    8000971c:	00000013          	nop

0000000080009720 <i_9328>:
    80009720:	7d300e93          	li	t4,2003

0000000080009724 <i_9329>:
    80009724:	7e500d93          	li	s11,2021

0000000080009728 <i_9330>:
    80009728:	13812023          	sw	s8,288(sp)

000000008000972c <i_9331>:
    8000972c:	ff615483          	lhu	s1,-10(sp)

0000000080009730 <i_9332>:
    80009730:	ecc16283          	lwu	t0,-308(sp)

0000000080009734 <i_9333>:
    80009734:	11d11623          	sh	t4,268(sp)

0000000080009738 <i_9334>:
    80009738:	e2911a23          	sh	s1,-460(sp)

000000008000973c <i_9335>:
    8000973c:	e1e10483          	lb	s1,-482(sp)

0000000080009740 <i_9336>:
    80009740:	0126e263          	bltu	a3,s2,80009744 <i_9337>

0000000080009744 <i_9337>:
    80009744:	105105a3          	sb	t0,267(sp)

0000000080009748 <i_9338>:
    80009748:	0292c4bb          	divw	s1,t0,s1

000000008000974c <i_9339>:
    8000974c:	001e8e93          	addi	t4,t4,1
    80009750:	fdbe9ce3          	bne	t4,s11,80009728 <i_9330>

0000000080009754 <i_9340>:
    80009754:	0292d463          	ble	s1,t0,8000977c <i_9350>

0000000080009758 <i_9341>:
    80009758:	00000013          	nop

000000008000975c <i_9342>:
    8000975c:	ece15183          	lhu	gp,-306(sp)

0000000080009760 <i_9343>:
    80009760:	08016183          	lwu	gp,128(sp)

0000000080009764 <i_9344>:
    80009764:	f2310223          	sb	gp,-220(sp)

0000000080009768 <i_9345>:
    80009768:	023181bb          	mulw	gp,gp,gp

000000008000976c <i_9346>:
    8000976c:	023180b3          	mul	ra,gp,gp

0000000080009770 <i_9347>:
    80009770:	fd211e83          	lh	t4,-46(sp)

0000000080009774 <i_9348>:
    80009774:	00000013          	nop

0000000080009778 <i_9349>:
    80009778:	0c310f23          	sb	gp,222(sp)

000000008000977c <i_9350>:
    8000977c:	01defeb3          	and	t4,t4,t4

0000000080009780 <i_9351>:
    80009780:	00318533          	add	a0,gp,gp

0000000080009784 <i_9352>:
    80009784:	77400e13          	li	t3,1908

0000000080009788 <i_9353>:
    80009788:	78300493          	li	s1,1923

000000008000978c <i_9354>:
    8000978c:	fc214203          	lbu	tp,-62(sp)

0000000080009790 <i_9355>:
    80009790:	02319663          	bne	gp,gp,800097bc <i_9365>

0000000080009794 <i_9356>:
    80009794:	01a10203          	lb	tp,26(sp)

0000000080009798 <i_9357>:
    80009798:	001e0e13          	addi	t3,t3,1
    8000979c:	ffc4f8e3          	bleu	t3,s1,8000978c <i_9354>

00000000800097a0 <i_9358>:
    800097a0:	03451a33          	mulh	s4,a0,s4

00000000800097a4 <i_9359>:
    800097a4:	02a1e263          	bltu	gp,a0,800097c8 <i_9368>

00000000800097a8 <i_9360>:
    800097a8:	01e00513          	li	a0,30

00000000800097ac <i_9361>:
    800097ac:	00a552bb          	srlw	t0,a0,a0

00000000800097b0 <i_9362>:
    800097b0:	02385333          	divu	t1,a6,gp

00000000800097b4 <i_9363>:
    800097b4:	00456663          	bltu	a0,tp,800097c0 <i_9366>

00000000800097b8 <i_9364>:
    800097b8:	023840bb          	divw	ra,a6,gp

00000000800097bc <i_9365>:
    800097bc:	0262623b          	remw	tp,tp,t1

00000000800097c0 <i_9366>:
    800097c0:	00000013          	nop

00000000800097c4 <i_9367>:
    800097c4:	ecc11503          	lh	a0,-308(sp)

00000000800097c8 <i_9368>:
    800097c8:	e3710a03          	lb	s4,-457(sp)

00000000800097cc <i_9369>:
    800097cc:	414a0a33          	sub	s4,s4,s4

00000000800097d0 <i_9370>:
    800097d0:	84d00313          	li	t1,-1971

00000000800097d4 <i_9371>:
    800097d4:	85100393          	li	t2,-1967

00000000800097d8 <i_9372>:
    800097d8:	409a0a1b          	addiw	s4,s4,1033

00000000800097dc <i_9373>:
    800097dc:	03736463          	bltu	t1,s7,80009804 <i_9382>

00000000800097e0 <i_9374>:
    800097e0:	15c11803          	lh	a6,348(sp)

00000000800097e4 <i_9375>:
    800097e4:	eba15503          	lhu	a0,-326(sp)

00000000800097e8 <i_9376>:
    800097e8:	00130313          	addi	t1,t1,1
    800097ec:	fe63d6e3          	ble	t1,t2,800097d8 <i_9372>

00000000800097f0 <i_9377>:
    800097f0:	16615383          	lhu	t2,358(sp)

00000000800097f4 <i_9378>:
    800097f4:	0145c533          	xor	a0,a1,s4

00000000800097f8 <i_9379>:
    800097f8:	fa812803          	lw	a6,-88(sp)

00000000800097fc <i_9380>:
    800097fc:	02a55263          	ble	a0,a0,80009820 <i_9389>

0000000080009800 <i_9381>:
    80009800:	03015263          	ble	a6,sp,80009824 <i_9390>

0000000080009804 <i_9382>:
    80009804:	f8a11123          	sh	a0,-126(sp)

0000000080009808 <i_9383>:
    80009808:	01e54663          	blt	a0,t5,80009814 <i_9386>

000000008000980c <i_9384>:
    8000980c:	0bf14e83          	lbu	t4,191(sp)

0000000080009810 <i_9385>:
    80009810:	784fe393          	ori	t2,t6,1924

0000000080009814 <i_9386>:
    80009814:	e2f14503          	lbu	a0,-465(sp)

0000000080009818 <i_9387>:
    80009818:	f8e15b83          	lhu	s7,-114(sp)

000000008000981c <i_9388>:
    8000981c:	f9011303          	lh	t1,-112(sp)

0000000080009820 <i_9389>:
    80009820:	ecd11623          	sh	a3,-308(sp)

0000000080009824 <i_9390>:
    80009824:	023104a3          	sb	gp,41(sp)

0000000080009828 <i_9391>:
    80009828:	0c615303          	lhu	t1,198(sp)

000000008000982c <i_9392>:
    8000982c:	85800513          	li	a0,-1960

0000000080009830 <i_9393>:
    80009830:	86700193          	li	gp,-1945

0000000080009834 <i_9394>:
    80009834:	00150513          	addi	a0,a0,1
    80009838:	fea1fee3          	bleu	a0,gp,80009834 <i_9394>

000000008000983c <i_9395>:
    8000983c:	0043519b          	srliw	gp,t1,0x4

0000000080009840 <i_9396>:
    80009840:	f43107a3          	sb	gp,-177(sp)

0000000080009844 <i_9397>:
    80009844:	00ac0533          	add	a0,s8,a0

0000000080009848 <i_9398>:
    80009848:	a43de313          	ori	t1,s11,-1469

000000008000984c <i_9399>:
    8000984c:	09e15183          	lhu	gp,158(sp)

0000000080009850 <i_9400>:
    80009850:	fb813983          	ld	s3,-72(sp)

0000000080009854 <i_9401>:
    80009854:	e8910503          	lb	a0,-375(sp)

0000000080009858 <i_9402>:
    80009858:	f6612423          	sw	t1,-152(sp)

000000008000985c <i_9403>:
    8000985c:	09111e23          	sh	a7,156(sp)

0000000080009860 <i_9404>:
    80009860:	0039e663          	bltu	s3,gp,8000986c <i_9407>

0000000080009864 <i_9405>:
    80009864:	e5b5e313          	ori	t1,a1,-421

0000000080009868 <i_9406>:
    80009868:	02634463          	blt	t1,t1,80009890 <i_9416>

000000008000986c <i_9407>:
    8000986c:	00a55863          	ble	a0,a0,8000987c <i_9411>

0000000080009870 <i_9408>:
    80009870:	00a54263          	blt	a0,a0,80009874 <i_9409>

0000000080009874 <i_9409>:
    80009874:	01400d93          	li	s11,20

0000000080009878 <i_9410>:
    80009878:	01b9d533          	srl	a0,s3,s11

000000008000987c <i_9411>:
    8000987c:	01bdfe63          	bleu	s11,s11,80009898 <i_9418>

0000000080009880 <i_9412>:
    80009880:	1bc11503          	lh	a0,444(sp)

0000000080009884 <i_9413>:
    80009884:	010dc663          	blt	s11,a6,80009890 <i_9416>

0000000080009888 <i_9414>:
    80009888:	03ade063          	bltu	s11,s10,800098a8 <i_9422>

000000008000988c <i_9415>:
    8000988c:	00a85a63          	ble	a0,a6,800098a0 <i_9420>

0000000080009890 <i_9416>:
    80009890:	02ad8063          	beq	s11,a0,800098b0 <i_9424>

0000000080009894 <i_9417>:
    80009894:	00a86a63          	bltu	a6,a0,800098a8 <i_9422>

0000000080009898 <i_9418>:
    80009898:	5c3dc793          	xori	a5,s11,1475

000000008000989c <i_9419>:
    8000989c:	02ab20b3          	mulhsu	ra,s6,a0

00000000800098a0 <i_9420>:
    800098a0:	e9615d83          	lhu	s11,-362(sp)

00000000800098a4 <i_9421>:
    800098a4:	55ade393          	ori	t2,s11,1370

00000000800098a8 <i_9422>:
    800098a8:	1db10983          	lb	s3,475(sp)

00000000800098ac <i_9423>:
    800098ac:	f2a11083          	lh	ra,-214(sp)

00000000800098b0 <i_9424>:
    800098b0:	f3013383          	ld	t2,-208(sp)

00000000800098b4 <i_9425>:
    800098b4:	f0c16e83          	lwu	t4,-244(sp)

00000000800098b8 <i_9426>:
    800098b8:	021a53bb          	divuw	t2,s4,ra

00000000800098bc <i_9427>:
    800098bc:	03cdc7bb          	divw	a5,s11,t3

00000000800098c0 <i_9428>:
    800098c0:	18e10d83          	lb	s11,398(sp)

00000000800098c4 <i_9429>:
    800098c4:	91c9c293          	xori	t0,s3,-1764

00000000800098c8 <i_9430>:
    800098c8:	03b7de33          	divu	t3,a5,s11

00000000800098cc <i_9431>:
    800098cc:	01012383          	lw	t2,16(sp)

00000000800098d0 <i_9432>:
    800098d0:	e7310e23          	sb	s3,-388(sp)

00000000800098d4 <i_9433>:
    800098d4:	004de463          	bltu	s11,tp,800098dc <i_9435>

00000000800098d8 <i_9434>:
    800098d8:	02f2e7bb          	remw	a5,t0,a5

00000000800098dc <i_9435>:
    800098dc:	17a11183          	lh	gp,378(sp)

00000000800098e0 <i_9436>:
    800098e0:	003f1463          	bne	t5,gp,800098e8 <i_9438>

00000000800098e4 <i_9437>:
    800098e4:	11c11b23          	sh	t3,278(sp)

00000000800098e8 <i_9438>:
    800098e8:	ef811f23          	sh	s8,-258(sp)

00000000800098ec <i_9439>:
    800098ec:	04b10803          	lb	a6,75(sp)

00000000800098f0 <i_9440>:
    800098f0:	f6511c23          	sh	t0,-136(sp)

00000000800098f4 <i_9441>:
    800098f4:	08511423          	sh	t0,136(sp)

00000000800098f8 <i_9442>:
    800098f8:	ea611583          	lh	a1,-346(sp)

00000000800098fc <i_9443>:
    800098fc:	08410983          	lb	s3,132(sp)

0000000080009900 <i_9444>:
    80009900:	ffd10083          	lb	ra,-3(sp)

0000000080009904 <i_9445>:
    80009904:	7dd00e13          	li	t3,2013

0000000080009908 <i_9446>:
    80009908:	7e300293          	li	t0,2019

000000008000990c <i_9447>:
    8000990c:	03b990b3          	mulh	ra,s3,s11

0000000080009910 <i_9448>:
    80009910:	0fc0e093          	ori	ra,ra,252

0000000080009914 <i_9449>:
    80009914:	8c200313          	li	t1,-1854

0000000080009918 <i_9450>:
    80009918:	8d000993          	li	s3,-1840

000000008000991c <i_9451>:
    8000991c:	00000013          	nop

0000000080009920 <i_9452>:
    80009920:	0030d09b          	srliw	ra,ra,0x3

0000000080009924 <i_9453>:
    80009924:	04810083          	lb	ra,72(sp)

0000000080009928 <i_9454>:
    80009928:	08014083          	lbu	ra,128(sp)

000000008000992c <i_9455>:
    8000992c:	01c12a03          	lw	s4,28(sp)

0000000080009930 <i_9456>:
    80009930:	00130313          	addi	t1,t1,1
    80009934:	ff3344e3          	blt	t1,s3,8000991c <i_9451>

0000000080009938 <i_9457>:
    80009938:	e2110da3          	sb	ra,-453(sp)

000000008000993c <i_9458>:
    8000993c:	03408463          	beq	ra,s4,80009964 <i_9467>

0000000080009940 <i_9459>:
    80009940:	f8412e83          	lw	t4,-124(sp)

0000000080009944 <i_9460>:
    80009944:	18113023          	sd	ra,384(sp)

0000000080009948 <i_9461>:
    80009948:	001e0e13          	addi	t3,t3,1
    8000994c:	fc5e40e3          	blt	t3,t0,8000990c <i_9447>

0000000080009950 <i_9462>:
    80009950:	0210f5b3          	remu	a1,ra,ra

0000000080009954 <i_9463>:
    80009954:	01200093          	li	ra,18

0000000080009958 <i_9464>:
    80009958:	001a10bb          	sllw	ra,s4,ra

000000008000995c <i_9465>:
    8000995c:	f4a15303          	lhu	t1,-182(sp)

0000000080009960 <i_9466>:
    80009960:	15013303          	ld	t1,336(sp)

0000000080009964 <i_9467>:
    80009964:	00635663          	ble	t1,t1,80009970 <i_9470>

0000000080009968 <i_9468>:
    80009968:	00135213          	srli	tp,t1,0x1

000000008000996c <i_9469>:
    8000996c:	90fcf213          	andi	tp,s9,-1777

0000000080009970 <i_9470>:
    80009970:	03d10f23          	sb	t4,62(sp)

0000000080009974 <i_9471>:
    80009974:	10410c23          	sb	tp,280(sp)

0000000080009978 <i_9472>:
    80009978:	03c34e3b          	divw	t3,t1,t3

000000008000997c <i_9473>:
    8000997c:	02420263          	beq	tp,tp,800099a0 <i_9482>

0000000080009980 <i_9474>:
    80009980:	026e93b3          	mulh	t2,t4,t1

0000000080009984 <i_9475>:
    80009984:	04110623          	sb	ra,76(sp)

0000000080009988 <i_9476>:
    80009988:	12113023          	sd	ra,288(sp)

000000008000998c <i_9477>:
    8000998c:	1a510083          	lb	ra,421(sp)

0000000080009990 <i_9478>:
    80009990:	0ca11303          	lh	t1,202(sp)

0000000080009994 <i_9479>:
    80009994:	0b013303          	ld	t1,176(sp)

0000000080009998 <i_9480>:
    80009998:	00621c63          	bne	tp,t1,800099b0 <i_9486>

000000008000999c <i_9481>:
    8000999c:	41dd5517          	auipc	a0,0x41dd5

00000000800099a0 <i_9482>:
    800099a0:	05013083          	ld	ra,80(sp)

00000000800099a4 <i_9483>:
    800099a4:	0e7ac313          	xori	t1,s5,231

00000000800099a8 <i_9484>:
    800099a8:	01dbbdb3          	sltu	s11,s7,t4

00000000800099ac <i_9485>:
    800099ac:	1d013023          	sd	a6,448(sp)

00000000800099b0 <i_9486>:
    800099b0:	18a10723          	sb	a0,398(sp)

00000000800099b4 <i_9487>:
    800099b4:	0d211783          	lh	a5,210(sp)

00000000800099b8 <i_9488>:
    800099b8:	912dae93          	slti	t4,s11,-1774

00000000800099bc <i_9489>:
    800099bc:	001d9d9b          	slliw	s11,s11,0x1

00000000800099c0 <i_9490>:
    800099c0:	006ed463          	ble	t1,t4,800099c8 <i_9492>

00000000800099c4 <i_9491>:
    800099c4:	ea415583          	lhu	a1,-348(sp)

00000000800099c8 <i_9492>:
    800099c8:	1a012b83          	lw	s7,416(sp)

00000000800099cc <i_9493>:
    800099cc:	016ede63          	ble	s6,t4,800099e8 <i_9500>

00000000800099d0 <i_9494>:
    800099d0:	02bbf263          	bleu	a1,s7,800099f4 <i_9503>

00000000800099d4 <i_9495>:
    800099d4:	f5713823          	sd	s7,-176(sp)

00000000800099d8 <i_9496>:
    800099d8:	fcb12c23          	sw	a1,-40(sp)

00000000800099dc <i_9497>:
    800099dc:	ecc15b83          	lhu	s7,-308(sp)

00000000800099e0 <i_9498>:
    800099e0:	08610b83          	lb	s7,134(sp)

00000000800099e4 <i_9499>:
    800099e4:	017bf863          	bleu	s7,s7,800099f4 <i_9503>

00000000800099e8 <i_9500>:
    800099e8:	03340263          	beq	s0,s3,80009a0c <i_9509>

00000000800099ec <i_9501>:
    800099ec:	0ae15083          	lhu	ra,174(sp)

00000000800099f0 <i_9502>:
    800099f0:	11e15203          	lhu	tp,286(sp)

00000000800099f4 <i_9503>:
    800099f4:	018b87b3          	add	a5,s7,s8

00000000800099f8 <i_9504>:
    800099f8:	01400793          	li	a5,20

00000000800099fc <i_9505>:
    800099fc:	00f29e3b          	sllw	t3,t0,a5

0000000080009a00 <i_9506>:
    80009a00:	00000013          	nop

0000000080009a04 <i_9507>:
    80009a04:	eb712c23          	sw	s7,-328(sp)

0000000080009a08 <i_9508>:
    80009a08:	0263633b          	remw	t1,t1,t1

0000000080009a0c <i_9509>:
    80009a0c:	41430333          	sub	t1,t1,s4

0000000080009a10 <i_9510>:
    80009a10:	00000013          	nop

0000000080009a14 <i_9511>:
    80009a14:	89800a13          	li	s4,-1896

0000000080009a18 <i_9512>:
    80009a18:	89b00b93          	li	s7,-1893

0000000080009a1c <i_9513>:
    80009a1c:	004a131b          	slliw	t1,s4,0x4

0000000080009a20 <i_9514>:
    80009a20:	02a3453b          	divw	a0,t1,a0

0000000080009a24 <i_9515>:
    80009a24:	fd013503          	ld	a0,-48(sp)

0000000080009a28 <i_9516>:
    80009a28:	02a50463          	beq	a0,a0,80009a50 <i_9525>

0000000080009a2c <i_9517>:
    80009a2c:	1ae14483          	lbu	s1,430(sp)

0000000080009a30 <i_9518>:
    80009a30:	00a10523          	sb	a0,10(sp)

0000000080009a34 <i_9519>:
    80009a34:	00a00e93          	li	t4,10

0000000080009a38 <i_9520>:
    80009a38:	01d555bb          	srlw	a1,a0,t4

0000000080009a3c <i_9521>:
    80009a3c:	001a0a13          	addi	s4,s4,1
    80009a40:	fd4bdee3          	ble	s4,s7,80009a1c <i_9513>

0000000080009a44 <i_9522>:
    80009a44:	02648eb3          	mul	t4,s1,t1

0000000080009a48 <i_9523>:
    80009a48:	06a11f23          	sh	a0,126(sp)

0000000080009a4c <i_9524>:
    80009a4c:	fce10783          	lb	a5,-50(sp)

0000000080009a50 <i_9525>:
    80009a50:	14310d83          	lb	s11,323(sp)

0000000080009a54 <i_9526>:
    80009a54:	00615303          	lhu	t1,6(sp)

0000000080009a58 <i_9527>:
    80009a58:	50a7a793          	slti	a5,a5,1290

0000000080009a5c <i_9528>:
    80009a5c:	140db793          	sltiu	a5,s11,320

0000000080009a60 <i_9529>:
    80009a60:	00f3e863          	bltu	t2,a5,80009a70 <i_9533>

0000000080009a64 <i_9530>:
    80009a64:	10b11c23          	sh	a1,280(sp)

0000000080009a68 <i_9531>:
    80009a68:	00ff0db3          	add	s11,t5,a5

0000000080009a6c <i_9532>:
    80009a6c:	04f13423          	sd	a5,72(sp)

0000000080009a70 <i_9533>:
    80009a70:	00779463          	bne	a5,t2,80009a78 <i_9535>

0000000080009a74 <i_9534>:
    80009a74:	01b78863          	beq	a5,s11,80009a84 <i_9538>

0000000080009a78 <i_9535>:
    80009a78:	01d00313          	li	t1,29

0000000080009a7c <i_9536>:
    80009a7c:	0067d3b3          	srl	t2,a5,t1

0000000080009a80 <i_9537>:
    80009a80:	0069d663          	ble	t1,s3,80009a8c <i_9540>

0000000080009a84 <i_9538>:
    80009a84:	e2f108a3          	sb	a5,-463(sp)

0000000080009a88 <i_9539>:
    80009a88:	02a00a13          	li	s4,42

0000000080009a8c <i_9540>:
    80009a8c:	01439333          	sll	t1,t2,s4

0000000080009a90 <i_9541>:
    80009a90:	40f78e33          	sub	t3,a5,a5

0000000080009a94 <i_9542>:
    80009a94:	e4a10383          	lb	t2,-438(sp)

0000000080009a98 <i_9543>:
    80009a98:	10e105a3          	sb	a4,267(sp)

0000000080009a9c <i_9544>:
    80009a9c:	00fe29b3          	slt	s3,t3,a5

0000000080009aa0 <i_9545>:
    80009aa0:	0133a7b3          	slt	a5,t2,s3

0000000080009aa4 <i_9546>:
    80009aa4:	007787b3          	add	a5,a5,t2

0000000080009aa8 <i_9547>:
    80009aa8:	ef812303          	lw	t1,-264(sp)

0000000080009aac <i_9548>:
    80009aac:	00114483          	lbu	s1,1(sp)

0000000080009ab0 <i_9549>:
    80009ab0:	02786463          	bltu	a6,t2,80009ad8 <i_9559>

0000000080009ab4 <i_9550>:
    80009ab4:	12611e23          	sh	t1,316(sp)

0000000080009ab8 <i_9551>:
    80009ab8:	1a114183          	lbu	gp,417(sp)

0000000080009abc <i_9552>:
    80009abc:	00339a63          	bne	t2,gp,80009ad0 <i_9557>

0000000080009ac0 <i_9553>:
    80009ac0:	fa114303          	lbu	t1,-95(sp)

0000000080009ac4 <i_9554>:
    80009ac4:	e8312e23          	sw	gp,-356(sp)

0000000080009ac8 <i_9555>:
    80009ac8:	03611183          	lh	gp,54(sp)

0000000080009acc <i_9556>:
    80009acc:	0d411a23          	sh	s4,212(sp)

0000000080009ad0 <i_9557>:
    80009ad0:	05816183          	lwu	gp,88(sp)

0000000080009ad4 <i_9558>:
    80009ad4:	00000013          	nop

0000000080009ad8 <i_9559>:
    80009ad8:	f4b13c23          	sd	a1,-168(sp)

0000000080009adc <i_9560>:
    80009adc:	a411c193          	xori	gp,gp,-1471

0000000080009ae0 <i_9561>:
    80009ae0:	81200593          	li	a1,-2030

0000000080009ae4 <i_9562>:
    80009ae4:	82400793          	li	a5,-2012

0000000080009ae8 <i_9563>:
    80009ae8:	eaa12c23          	sw	a0,-328(sp)

0000000080009aec <i_9564>:
    80009aec:	00b00213          	li	tp,11

0000000080009af0 <i_9565>:
    80009af0:	404551b3          	sra	gp,a0,tp

0000000080009af4 <i_9566>:
    80009af4:	74500413          	li	s0,1861

0000000080009af8 <i_9567>:
    80009af8:	75300513          	li	a0,1875

0000000080009afc <i_9568>:
    80009afc:	00140413          	addi	s0,s0,1
    80009b00:	fea46ce3          	bltu	s0,a0,80009af8 <i_9567>

0000000080009b04 <i_9569>:
    80009b04:	e8812403          	lw	s0,-376(sp)

0000000080009b08 <i_9570>:
    80009b08:	00158593          	addi	a1,a1,1
    80009b0c:	fcf5cee3          	blt	a1,a5,80009ae8 <i_9563>

0000000080009b10 <i_9571>:
    80009b10:	13015203          	lhu	tp,304(sp)

0000000080009b14 <i_9572>:
    80009b14:	06013a03          	ld	s4,96(sp)

0000000080009b18 <i_9573>:
    80009b18:	e4012203          	lw	tp,-448(sp)

0000000080009b1c <i_9574>:
    80009b1c:	1b816983          	lwu	s3,440(sp)

0000000080009b20 <i_9575>:
    80009b20:	401a5a1b          	sraiw	s4,s4,0x1

0000000080009b24 <i_9576>:
    80009b24:	01410ba3          	sb	s4,23(sp)

0000000080009b28 <i_9577>:
    80009b28:	f4413423          	sd	tp,-184(sp)

0000000080009b2c <i_9578>:
    80009b2c:	024a2233          	mulhsu	tp,s4,tp

0000000080009b30 <i_9579>:
    80009b30:	40245413          	srai	s0,s0,0x2

0000000080009b34 <i_9580>:
    80009b34:	5847f313          	andi	t1,a5,1412

0000000080009b38 <i_9581>:
    80009b38:	ec815a03          	lhu	s4,-312(sp)

0000000080009b3c <i_9582>:
    80009b3c:	026f1433          	mulh	s0,t5,t1

0000000080009b40 <i_9583>:
    80009b40:	00900193          	li	gp,9

0000000080009b44 <i_9584>:
    80009b44:	003c93b3          	sll	t2,s9,gp

0000000080009b48 <i_9585>:
    80009b48:	02626063          	bltu	tp,t1,80009b68 <i_9593>

0000000080009b4c <i_9586>:
    80009b4c:	023f8333          	mul	t1,t6,gp

0000000080009b50 <i_9587>:
    80009b50:	f2313423          	sd	gp,-216(sp)

0000000080009b54 <i_9588>:
    80009b54:	00718263          	beq	gp,t2,80009b58 <i_9589>

0000000080009b58 <i_9589>:
    80009b58:	0033d463          	ble	gp,t2,80009b60 <i_9591>

0000000080009b5c <i_9590>:
    80009b5c:	ff013b83          	ld	s7,-16(sp)

0000000080009b60 <i_9591>:
    80009b60:	0033f663          	bleu	gp,t2,80009b6c <i_9594>

0000000080009b64 <i_9592>:
    80009b64:	037bf23b          	remuw	tp,s7,s7

0000000080009b68 <i_9593>:
    80009b68:	00339b93          	slli	s7,t2,0x3

0000000080009b6c <i_9594>:
    80009b6c:	017bea63          	bltu	s7,s7,80009b80 <i_9599>

0000000080009b70 <i_9595>:
    80009b70:	0308783b          	remuw	a6,a6,a6

0000000080009b74 <i_9596>:
    80009b74:	093a1eb7          	lui	t4,0x93a1

0000000080009b78 <i_9597>:
    80009b78:	e9e10803          	lb	a6,-354(sp)

0000000080009b7c <i_9598>:
    80009b7c:	037bf463          	bleu	s7,s7,80009ba4 <i_9608>

0000000080009b80 <i_9599>:
    80009b80:	03d25bb3          	divu	s7,tp,t4

0000000080009b84 <i_9600>:
    80009b84:	030669bb          	remw	s3,a2,a6

0000000080009b88 <i_9601>:
    80009b88:	e5714983          	lbu	s3,-425(sp)

0000000080009b8c <i_9602>:
    80009b8c:	04e15783          	lhu	a5,78(sp)

0000000080009b90 <i_9603>:
    80009b90:	1a013e83          	ld	t4,416(sp)

0000000080009b94 <i_9604>:
    80009b94:	0a813e83          	ld	t4,168(sp)

0000000080009b98 <i_9605>:
    80009b98:	00f78e63          	beq	a5,a5,80009bb4 <i_9612>

0000000080009b9c <i_9606>:
    80009b9c:	eef10123          	sb	a5,-286(sp)

0000000080009ba0 <i_9607>:
    80009ba0:	0e812e83          	lw	t4,232(sp)

0000000080009ba4 <i_9608>:
    80009ba4:	03c9be33          	mulhu	t3,s3,t3

0000000080009ba8 <i_9609>:
    80009ba8:	004e5793          	srli	a5,t3,0x4

0000000080009bac <i_9610>:
    80009bac:	f3d104a3          	sb	t4,-215(sp)

0000000080009bb0 <i_9611>:
    80009bb0:	fa611e83          	lh	t4,-90(sp)

0000000080009bb4 <i_9612>:
    80009bb4:	00f00093          	li	ra,15

0000000080009bb8 <i_9613>:
    80009bb8:	001e5e33          	srl	t3,t3,ra

0000000080009bbc <i_9614>:
    80009bbc:	f5816983          	lwu	s3,-168(sp)

0000000080009bc0 <i_9615>:
    80009bc0:	013d0e63          	beq	s10,s3,80009bdc <i_9622>

0000000080009bc4 <i_9616>:
    80009bc4:	01d00213          	li	tp,29

0000000080009bc8 <i_9617>:
    80009bc8:	0043133b          	sllw	t1,t1,tp

0000000080009bcc <i_9618>:
    80009bcc:	1cf13423          	sd	a5,456(sp)

0000000080009bd0 <i_9619>:
    80009bd0:	ef013803          	ld	a6,-272(sp)

0000000080009bd4 <i_9620>:
    80009bd4:	10813803          	ld	a6,264(sp)

0000000080009bd8 <i_9621>:
    80009bd8:	00321493          	slli	s1,tp,0x3

0000000080009bdc <i_9622>:
    80009bdc:	01035e63          	ble	a6,t1,80009bf8 <i_9629>

0000000080009be0 <i_9623>:
    80009be0:	01c87e63          	bleu	t3,a6,80009bfc <i_9630>

0000000080009be4 <i_9624>:
    80009be4:	e3813183          	ld	gp,-456(sp)

0000000080009be8 <i_9625>:
    80009be8:	fd0102a3          	sb	a6,-59(sp)

0000000080009bec <i_9626>:
    80009bec:	e5816203          	lwu	tp,-424(sp)

0000000080009bf0 <i_9627>:
    80009bf0:	e6912623          	sw	s1,-404(sp)

0000000080009bf4 <i_9628>:
    80009bf4:	1e411e03          	lh	t3,484(sp)

0000000080009bf8 <i_9629>:
    80009bf8:	ec412c23          	sw	tp,-296(sp)

0000000080009bfc <i_9630>:
    80009bfc:	01d18263          	beq	gp,t4,80009c00 <i_9631>

0000000080009c00 <i_9631>:
    80009c00:	e9c14283          	lbu	t0,-356(sp)

0000000080009c04 <i_9632>:
    80009c04:	03d8eebb          	remw	t4,a7,t4

0000000080009c08 <i_9633>:
    80009c08:	00f7fdb3          	and	s11,a5,a5

0000000080009c0c <i_9634>:
    80009c0c:	02f87263          	bleu	a5,a6,80009c30 <i_9643>

0000000080009c10 <i_9635>:
    80009c10:	e8013203          	ld	tp,-384(sp)

0000000080009c14 <i_9636>:
    80009c14:	02f7e83b          	remw	a6,a5,a5

0000000080009c18 <i_9637>:
    80009c18:	05c10ea3          	sb	t3,93(sp)

0000000080009c1c <i_9638>:
    80009c1c:	00900313          	li	t1,9

0000000080009c20 <i_9639>:
    80009c20:	006810bb          	sllw	ra,a6,t1

0000000080009c24 <i_9640>:
    80009c24:	f7c13423          	sd	t3,-152(sp)

0000000080009c28 <i_9641>:
    80009c28:	637e0093          	addi	ra,t3,1591

0000000080009c2c <i_9642>:
    80009c2c:	00000013          	nop

0000000080009c30 <i_9643>:
    80009c30:	00000013          	nop

0000000080009c34 <i_9644>:
    80009c34:	0e813303          	ld	t1,232(sp)

0000000080009c38 <i_9645>:
    80009c38:	72a00793          	li	a5,1834

0000000080009c3c <i_9646>:
    80009c3c:	73d00e13          	li	t3,1853

0000000080009c40 <i_9647>:
    80009c40:	e8416183          	lwu	gp,-380(sp)

0000000080009c44 <i_9648>:
    80009c44:	02637333          	remu	t1,t1,t1

0000000080009c48 <i_9649>:
    80009c48:	0050f1b3          	and	gp,ra,t0

0000000080009c4c <i_9650>:
    80009c4c:	00178793          	addi	a5,a5,1
    80009c50:	ffc7e8e3          	bltu	a5,t3,80009c40 <i_9647>

0000000080009c54 <i_9651>:
    80009c54:	e9812303          	lw	t1,-360(sp)

0000000080009c58 <i_9652>:
    80009c58:	16810303          	lb	t1,360(sp)

0000000080009c5c <i_9653>:
    80009c5c:	03300193          	li	gp,51

0000000080009c60 <i_9654>:
    80009c60:	4031d9b3          	sra	s3,gp,gp

0000000080009c64 <i_9655>:
    80009c64:	0239f9b3          	remu	s3,s3,gp

0000000080009c68 <i_9656>:
    80009c68:	0061cbb3          	xor	s7,gp,t1

0000000080009c6c <i_9657>:
    80009c6c:	017989b3          	add	s3,s3,s7

0000000080009c70 <i_9658>:
    80009c70:	630281b7          	lui	gp,0x63028

0000000080009c74 <i_9659>:
    80009c74:	01798e63          	beq	s3,s7,80009c90 <i_9666>

0000000080009c78 <i_9660>:
    80009c78:	0131d663          	ble	s3,gp,80009c84 <i_9663>

0000000080009c7c <i_9661>:
    80009c7c:	01f00e93          	li	t4,31

0000000080009c80 <i_9662>:
    80009c80:	01d9d1bb          	srlw	gp,s3,t4

0000000080009c84 <i_9663>:
    80009c84:	9f17a997          	auipc	s3,0x9f17a

0000000080009c88 <i_9664>:
    80009c88:	0379aeb3          	mulhsu	t4,s3,s7

0000000080009c8c <i_9665>:
    80009c8c:	001bdb9b          	srliw	s7,s7,0x1

0000000080009c90 <i_9666>:
    80009c90:	06416303          	lwu	t1,100(sp)

0000000080009c94 <i_9667>:
    80009c94:	ec514b83          	lbu	s7,-315(sp)

0000000080009c98 <i_9668>:
    80009c98:	004b951b          	slliw	a0,s7,0x4

0000000080009c9c <i_9669>:
    80009c9c:	f3013083          	ld	ra,-208(sp)

0000000080009ca0 <i_9670>:
    80009ca0:	f2a11e23          	sh	a0,-196(sp)

0000000080009ca4 <i_9671>:
    80009ca4:	04112e23          	sw	ra,92(sp)

0000000080009ca8 <i_9672>:
    80009ca8:	18814803          	lbu	a6,392(sp)

0000000080009cac <i_9673>:
    80009cac:	0033509b          	srliw	ra,t1,0x3

0000000080009cb0 <i_9674>:
    80009cb0:	0ef12623          	sw	a5,236(sp)

0000000080009cb4 <i_9675>:
    80009cb4:	01da8833          	add	a6,s5,t4

0000000080009cb8 <i_9676>:
    80009cb8:	01030663          	beq	t1,a6,80009cc4 <i_9679>

0000000080009cbc <i_9677>:
    80009cbc:	11415803          	lhu	a6,276(sp)

0000000080009cc0 <i_9678>:
    80009cc0:	40155513          	srai	a0,a0,0x1

0000000080009cc4 <i_9679>:
    80009cc4:	00000013          	nop

0000000080009cc8 <i_9680>:
    80009cc8:	00000013          	nop

0000000080009ccc <i_9681>:
    80009ccc:	72e00193          	li	gp,1838

0000000080009cd0 <i_9682>:
    80009cd0:	73f00593          	li	a1,1855

0000000080009cd4 <i_9683>:
    80009cd4:	0045979b          	slliw	a5,a1,0x4

0000000080009cd8 <i_9684>:
    80009cd8:	00b52233          	slt	tp,a0,a1

0000000080009cdc <i_9685>:
    80009cdc:	02811503          	lh	a0,40(sp)

0000000080009ce0 <i_9686>:
    80009ce0:	02413c23          	sd	tp,56(sp)

0000000080009ce4 <i_9687>:
    80009ce4:	00118193          	addi	gp,gp,1 # 63028001 <main-0x1cfd7fff>
    80009ce8:	fe35d6e3          	ble	gp,a1,80009cd4 <i_9683>

0000000080009cec <i_9688>:
    80009cec:	b0078e93          	addi	t4,a5,-1280

0000000080009cf0 <i_9689>:
    80009cf0:	03b27db3          	remu	s11,tp,s11

0000000080009cf4 <i_9690>:
    80009cf4:	004eae33          	slt	t3,t4,tp

0000000080009cf8 <i_9691>:
    80009cf8:	02aeb4b3          	mulhu	s1,t4,a0

0000000080009cfc <i_9692>:
    80009cfc:	02957263          	bleu	s1,a0,80009d20 <i_9701>

0000000080009d00 <i_9693>:
    80009d00:	b33ea793          	slti	a5,t4,-1229

0000000080009d04 <i_9694>:
    80009d04:	01ddee63          	bltu	s11,t4,80009d20 <i_9701>

0000000080009d08 <i_9695>:
    80009d08:	002e5393          	srli	t2,t3,0x2

0000000080009d0c <i_9696>:
    80009d0c:	0294f463          	bleu	s1,s1,80009d34 <i_9706>

0000000080009d10 <i_9697>:
    80009d10:	02949bb3          	mulh	s7,s1,s1

0000000080009d14 <i_9698>:
    80009d14:	00000013          	nop

0000000080009d18 <i_9699>:
    80009d18:	402bd29b          	sraiw	t0,s7,0x2

0000000080009d1c <i_9700>:
    80009d1c:	e2814383          	lbu	t2,-472(sp)

0000000080009d20 <i_9701>:
    80009d20:	10e38293          	addi	t0,t2,270

0000000080009d24 <i_9702>:
    80009d24:	11c11383          	lh	t2,284(sp)

0000000080009d28 <i_9703>:
    80009d28:	f9016383          	lwu	t2,-112(sp)

0000000080009d2c <i_9704>:
    80009d2c:	01412783          	lw	a5,20(sp)

0000000080009d30 <i_9705>:
    80009d30:	f65108a3          	sb	t0,-143(sp)

0000000080009d34 <i_9706>:
    80009d34:	00000013          	nop

0000000080009d38 <i_9707>:
    80009d38:	02e00513          	li	a0,46

0000000080009d3c <i_9708>:
    80009d3c:	00a31333          	sll	t1,t1,a0

0000000080009d40 <i_9709>:
    80009d40:	88200493          	li	s1,-1918

0000000080009d44 <i_9710>:
    80009d44:	88b00e13          	li	t3,-1909

0000000080009d48 <i_9711>:
    80009d48:	e8f13023          	sd	a5,-384(sp)

0000000080009d4c <i_9712>:
    80009d4c:	05813783          	ld	a5,88(sp)

0000000080009d50 <i_9713>:
    80009d50:	02ab9333          	mulh	t1,s7,a0

0000000080009d54 <i_9714>:
    80009d54:	02655263          	ble	t1,a0,80009d78 <i_9722>

0000000080009d58 <i_9715>:
    80009d58:	e2813503          	ld	a0,-472(sp)

0000000080009d5c <i_9716>:
    80009d5c:	00148493          	addi	s1,s1,1 # ca9ca259 <_end+0x4a9b9e45>
    80009d60:	fe9e72e3          	bleu	s1,t3,80009d44 <i_9710>

0000000080009d64 <i_9717>:
    80009d64:	01900593          	li	a1,25

0000000080009d68 <i_9718>:
    80009d68:	40b553b3          	sra	t2,a0,a1

0000000080009d6c <i_9719>:
    80009d6c:	02a504b3          	mul	s1,a0,a0

0000000080009d70 <i_9720>:
    80009d70:	02a50263          	beq	a0,a0,80009d94 <i_9729>

0000000080009d74 <i_9721>:
    80009d74:	06410983          	lb	s3,100(sp)

0000000080009d78 <i_9722>:
    80009d78:	15013583          	ld	a1,336(sp)

0000000080009d7c <i_9723>:
    80009d7c:	14813383          	ld	t2,328(sp)

0000000080009d80 <i_9724>:
    80009d80:	41780bbb          	subw	s7,a6,s7

0000000080009d84 <i_9725>:
    80009d84:	00000013          	nop

0000000080009d88 <i_9726>:
    80009d88:	e3813183          	ld	gp,-456(sp)

0000000080009d8c <i_9727>:
    80009d8c:	00000013          	nop

0000000080009d90 <i_9728>:
    80009d90:	00000013          	nop

0000000080009d94 <i_9729>:
    80009d94:	410481bb          	subw	gp,s1,a6

0000000080009d98 <i_9730>:
    80009d98:	12615403          	lhu	s0,294(sp)

0000000080009d9c <i_9731>:
    80009d9c:	8d000813          	li	a6,-1840

0000000080009da0 <i_9732>:
    80009da0:	8d300e13          	li	t3,-1837

0000000080009da4 <i_9733>:
    80009da4:	785035b7          	lui	a1,0x78503

0000000080009da8 <i_9734>:
    80009da8:	1a313823          	sd	gp,432(sp)

0000000080009dac <i_9735>:
    80009dac:	028b6663          	bltu	s6,s0,80009dd8 <i_9745>

0000000080009db0 <i_9736>:
    80009db0:	e2311923          	sh	gp,-462(sp)

0000000080009db4 <i_9737>:
    80009db4:	0285d5b3          	divu	a1,a1,s0

0000000080009db8 <i_9738>:
    80009db8:	0032c2b3          	xor	t0,t0,gp

0000000080009dbc <i_9739>:
    80009dbc:	00180813          	addi	a6,a6,1 # ffffffffe7661001 <_end+0xffffffff67650bed>
    80009dc0:	ffc862e3          	bltu	a6,t3,80009da4 <i_9733>

0000000080009dc4 <i_9740>:
    80009dc4:	0285f463          	bleu	s0,a1,80009dec <i_9750>

0000000080009dc8 <i_9741>:
    80009dc8:	13813183          	ld	gp,312(sp)

0000000080009dcc <i_9742>:
    80009dcc:	00000013          	nop

0000000080009dd0 <i_9743>:
    80009dd0:	00000013          	nop

0000000080009dd4 <i_9744>:
    80009dd4:	eb416083          	lwu	ra,-332(sp)

0000000080009dd8 <i_9745>:
    80009dd8:	e1f14303          	lbu	t1,-481(sp)

0000000080009ddc <i_9746>:
    80009ddc:	f0c12183          	lw	gp,-244(sp)

0000000080009de0 <i_9747>:
    80009de0:	1ba14e83          	lbu	t4,442(sp)

0000000080009de4 <i_9748>:
    80009de4:	f1d10523          	sb	t4,-246(sp)

0000000080009de8 <i_9749>:
    80009de8:	00000013          	nop

0000000080009dec <i_9750>:
    80009dec:	03f1b7b3          	mulhu	a5,gp,t6

0000000080009df0 <i_9751>:
    80009df0:	00000013          	nop

0000000080009df4 <i_9752>:
    80009df4:	76500e13          	li	t3,1893

0000000080009df8 <i_9753>:
    80009df8:	77500813          	li	a6,1909

0000000080009dfc <i_9754>:
    80009dfc:	09816203          	lwu	tp,152(sp)

0000000080009e00 <i_9755>:
    80009e00:	16114e83          	lbu	t4,353(sp)

0000000080009e04 <i_9756>:
    80009e04:	f7d13023          	sd	t4,-160(sp)

0000000080009e08 <i_9757>:
    80009e08:	001e0e13          	addi	t3,t3,1
    80009e0c:	ff0e18e3          	bne	t3,a6,80009dfc <i_9754>

0000000080009e10 <i_9758>:
    80009e10:	0253ceb3          	div	t4,t2,t0

0000000080009e14 <i_9759>:
    80009e14:	00425263          	ble	tp,tp,80009e18 <i_9760>

0000000080009e18 <i_9760>:
    80009e18:	1a410823          	sb	tp,432(sp)

0000000080009e1c <i_9761>:
    80009e1c:	01ddf663          	bleu	t4,s11,80009e28 <i_9764>

0000000080009e20 <i_9762>:
    80009e20:	03deceb3          	div	t4,t4,t4

0000000080009e24 <i_9763>:
    80009e24:	03d75263          	ble	t4,a4,80009e48 <i_9772>

0000000080009e28 <i_9764>:
    80009e28:	01dec463          	blt	t4,t4,80009e30 <i_9766>

0000000080009e2c <i_9765>:
    80009e2c:	09211483          	lh	s1,146(sp)

0000000080009e30 <i_9766>:
    80009e30:	ea411483          	lh	s1,-348(sp)

0000000080009e34 <i_9767>:
    80009e34:	03d48463          	beq	s1,t4,80009e5c <i_9777>

0000000080009e38 <i_9768>:
    80009e38:	f2910e23          	sb	s1,-196(sp)

0000000080009e3c <i_9769>:
    80009e3c:	03dee263          	bltu	t4,t4,80009e60 <i_9778>

0000000080009e40 <i_9770>:
    80009e40:	f1811483          	lh	s1,-232(sp)

0000000080009e44 <i_9771>:
    80009e44:	1bd12623          	sw	t4,428(sp)

0000000080009e48 <i_9772>:
    80009e48:	06842413          	slti	s0,s0,104

0000000080009e4c <i_9773>:
    80009e4c:	02a00593          	li	a1,42

0000000080009e50 <i_9774>:
    80009e50:	00b09433          	sll	s0,ra,a1

0000000080009e54 <i_9775>:
    80009e54:	18b13c23          	sd	a1,408(sp)

0000000080009e58 <i_9776>:
    80009e58:	00b5c0b3          	xor	ra,a1,a1

0000000080009e5c <i_9777>:
    80009e5c:	b1758b9b          	addiw	s7,a1,-1257

0000000080009e60 <i_9778>:
    80009e60:	03712bb3          	mulhsu	s7,sp,s7

0000000080009e64 <i_9779>:
    80009e64:	f1011583          	lh	a1,-240(sp)

0000000080009e68 <i_9780>:
    80009e68:	edc15183          	lhu	gp,-292(sp)

0000000080009e6c <i_9781>:
    80009e6c:	00a00293          	li	t0,10

0000000080009e70 <i_9782>:
    80009e70:	005d9dbb          	sllw	s11,s11,t0

0000000080009e74 <i_9783>:
    80009e74:	6e6d8d93          	addi	s11,s11,1766

0000000080009e78 <i_9784>:
    80009e78:	fbc28e13          	addi	t3,t0,-68 # ffffffffb6123fbc <_end+0xffffffff36113ba8>

0000000080009e7c <i_9785>:
    80009e7c:	02400593          	li	a1,36

0000000080009e80 <i_9786>:
    80009e80:	00b29e33          	sll	t3,t0,a1

0000000080009e84 <i_9787>:
    80009e84:	18813283          	ld	t0,392(sp)

0000000080009e88 <i_9788>:
    80009e88:	0365d263          	ble	s6,a1,80009eac <i_9797>

0000000080009e8c <i_9789>:
    80009e8c:	03f00b93          	li	s7,63

0000000080009e90 <i_9790>:
    80009e90:	0175d2b3          	srl	t0,a1,s7

0000000080009e94 <i_9791>:
    80009e94:	003e1993          	slli	s3,t3,0x3

0000000080009e98 <i_9792>:
    80009e98:	01e00b93          	li	s7,30

0000000080009e9c <i_9793>:
    80009e9c:	0170ddb3          	srl	s11,ra,s7

0000000080009ea0 <i_9794>:
    80009ea0:	03e10023          	sb	t5,32(sp)

0000000080009ea4 <i_9795>:
    80009ea4:	07813183          	ld	gp,120(sp)

0000000080009ea8 <i_9796>:
    80009ea8:	030d75b3          	remu	a1,s10,a6

0000000080009eac <i_9797>:
    80009eac:	e2f14e83          	lbu	t4,-465(sp)

0000000080009eb0 <i_9798>:
    80009eb0:	24582993          	slti	s3,a6,581

0000000080009eb4 <i_9799>:
    80009eb4:	01398433          	add	s0,s3,s3

0000000080009eb8 <i_9800>:
    80009eb8:	f3010e83          	lb	t4,-208(sp)

0000000080009ebc <i_9801>:
    80009ebc:	17e15b83          	lhu	s7,382(sp)

0000000080009ec0 <i_9802>:
    80009ec0:	f9b13c23          	sd	s11,-104(sp)

0000000080009ec4 <i_9803>:
    80009ec4:	41bd89bb          	subw	s3,s11,s11

0000000080009ec8 <i_9804>:
    80009ec8:	00800793          	li	a5,8

0000000080009ecc <i_9805>:
    80009ecc:	00fdd9b3          	srl	s3,s11,a5

0000000080009ed0 <i_9806>:
    80009ed0:	03c11f23          	sh	t3,62(sp)

0000000080009ed4 <i_9807>:
    80009ed4:	03b7f063          	bleu	s11,a5,80009ef4 <i_9815>

0000000080009ed8 <i_9808>:
    80009ed8:	0179f463          	bleu	s7,s3,80009ee0 <i_9810>

0000000080009edc <i_9809>:
    80009edc:	08811983          	lh	s3,136(sp)

0000000080009ee0 <i_9810>:
    80009ee0:	0a013983          	ld	s3,160(sp)

0000000080009ee4 <i_9811>:
    80009ee4:	08013a03          	ld	s4,128(sp)

0000000080009ee8 <i_9812>:
    80009ee8:	00e9f663          	bleu	a4,s3,80009ef4 <i_9815>

0000000080009eec <i_9813>:
    80009eec:	19311523          	sh	s3,394(sp)

0000000080009ef0 <i_9814>:
    80009ef0:	0da10583          	lb	a1,218(sp)

0000000080009ef4 <i_9815>:
    80009ef4:	0f013403          	ld	s0,240(sp)

0000000080009ef8 <i_9816>:
    80009ef8:	f1a15403          	lhu	s0,-230(sp)

0000000080009efc <i_9817>:
    80009efc:	02f5c433          	div	s0,a1,a5

0000000080009f00 <i_9818>:
    80009f00:	f2f12023          	sw	a5,-224(sp)

0000000080009f04 <i_9819>:
    80009f04:	0139b0b3          	sltu	ra,s3,s3

0000000080009f08 <i_9820>:
    80009f08:	01e15503          	lhu	a0,30(sp)

0000000080009f0c <i_9821>:
    80009f0c:	00016183          	lwu	gp,0(sp)

0000000080009f10 <i_9822>:
    80009f10:	f4d14403          	lbu	s0,-179(sp)

0000000080009f14 <i_9823>:
    80009f14:	0235e063          	bltu	a1,gp,80009f34 <i_9831>

0000000080009f18 <i_9824>:
    80009f18:	029fc1b3          	div	gp,t6,s1

0000000080009f1c <i_9825>:
    80009f1c:	03347463          	bleu	s3,s0,80009f44 <i_9835>

0000000080009f20 <i_9826>:
    80009f20:	0297e9b3          	rem	s3,a5,s1

0000000080009f24 <i_9827>:
    80009f24:	01399c63          	bne	s3,s3,80009f3c <i_9833>

0000000080009f28 <i_9828>:
    80009f28:	0139d463          	ble	s3,s3,80009f30 <i_9830>

0000000080009f2c <i_9829>:
    80009f2c:	030d8db3          	mul	s11,s11,a6

0000000080009f30 <i_9830>:
    80009f30:	e4311223          	sh	gp,-444(sp)

0000000080009f34 <i_9831>:
    80009f34:	f6312223          	sw	gp,-156(sp)

0000000080009f38 <i_9832>:
    80009f38:	f4816803          	lwu	a6,-184(sp)

0000000080009f3c <i_9833>:
    80009f3c:	010dde63          	ble	a6,s11,80009f58 <i_9840>

0000000080009f40 <i_9834>:
    80009f40:	010c7a63          	bleu	a6,s8,80009f54 <i_9839>

0000000080009f44 <i_9835>:
    80009f44:	07c12d83          	lw	s11,124(sp)

0000000080009f48 <i_9836>:
    80009f48:	0308583b          	divuw	a6,a6,a6

0000000080009f4c <i_9837>:
    80009f4c:	803a8b9b          	addiw	s7,s5,-2045

0000000080009f50 <i_9838>:
    80009f50:	f4b83813          	sltiu	a6,a6,-181

0000000080009f54 <i_9839>:
    80009f54:	02a48533          	mul	a0,s1,a0

0000000080009f58 <i_9840>:
    80009f58:	01e00513          	li	a0,30

0000000080009f5c <i_9841>:
    80009f5c:	40a55bb3          	sra	s7,a0,a0

0000000080009f60 <i_9842>:
    80009f60:	00a504b3          	add	s1,a0,a0

0000000080009f64 <i_9843>:
    80009f64:	03b00e13          	li	t3,59

0000000080009f68 <i_9844>:
    80009f68:	01cbd2b3          	srl	t0,s7,t3

0000000080009f6c <i_9845>:
    80009f6c:	03c2f463          	bleu	t3,t0,80009f94 <i_9855>

0000000080009f70 <i_9846>:
    80009f70:	f2e11d23          	sh	a4,-198(sp)

0000000080009f74 <i_9847>:
    80009f74:	0291f9b3          	remu	s3,gp,s1

0000000080009f78 <i_9848>:
    80009f78:	f6814e03          	lbu	t3,-152(sp)

0000000080009f7c <i_9849>:
    80009f7c:	0031d663          	ble	gp,gp,80009f88 <i_9852>

0000000080009f80 <i_9850>:
    80009f80:	f192c293          	xori	t0,t0,-231

0000000080009f84 <i_9851>:
    80009f84:	03c9f263          	bleu	t3,s3,80009fa8 <i_9860>

0000000080009f88 <i_9852>:
    80009f88:	2001b393          	sltiu	t2,gp,512

0000000080009f8c <i_9853>:
    80009f8c:	00399e1b          	slliw	t3,s3,0x3

0000000080009f90 <i_9854>:
    80009f90:	fb013283          	ld	t0,-80(sp)

0000000080009f94 <i_9855>:
    80009f94:	0031c463          	blt	gp,gp,80009f9c <i_9857>

0000000080009f98 <i_9856>:
    80009f98:	e9311323          	sh	s3,-378(sp)

0000000080009f9c <i_9857>:
    80009f9c:	02a28533          	mul	a0,t0,a0

0000000080009fa0 <i_9858>:
    80009fa0:	0c110983          	lb	s3,193(sp)

0000000080009fa4 <i_9859>:
    80009fa4:	06012983          	lw	s3,96(sp)

0000000080009fa8 <i_9860>:
    80009fa8:	01087833          	and	a6,a6,a6

0000000080009fac <i_9861>:
    80009fac:	06215583          	lhu	a1,98(sp)

0000000080009fb0 <i_9862>:
    80009fb0:	003dd993          	srli	s3,s11,0x3

0000000080009fb4 <i_9863>:
    80009fb4:	e6b14983          	lbu	s3,-405(sp)

0000000080009fb8 <i_9864>:
    80009fb8:	77e00d93          	li	s11,1918

0000000080009fbc <i_9865>:
    80009fbc:	78500813          	li	a6,1925

0000000080009fc0 <i_9866>:
    80009fc0:	09b102a3          	sb	s11,133(sp)

0000000080009fc4 <i_9867>:
    80009fc4:	5647de17          	auipc	t3,0x5647d

0000000080009fc8 <i_9868>:
    80009fc8:	1cc16a03          	lwu	s4,460(sp)

0000000080009fcc <i_9869>:
    80009fcc:	013a7c63          	bleu	s3,s4,80009fe4 <i_9874>

0000000080009fd0 <i_9870>:
    80009fd0:	001d8d93          	addi	s11,s11,1
    80009fd4:	ff0de6e3          	bltu	s11,a6,80009fc0 <i_9866>

0000000080009fd8 <i_9871>:
    80009fd8:	030a7833          	remu	a6,s4,a6

0000000080009fdc <i_9872>:
    80009fdc:	03600a13          	li	s4,54

0000000080009fe0 <i_9873>:
    80009fe0:	414853b3          	sra	t2,a6,s4

0000000080009fe4 <i_9874>:
    80009fe4:	ed414483          	lbu	s1,-300(sp)

0000000080009fe8 <i_9875>:
    80009fe8:	001d999b          	slliw	s3,s11,0x1

0000000080009fec <i_9876>:
    80009fec:	00000013          	nop

0000000080009ff0 <i_9877>:
    80009ff0:	e8e11983          	lh	s3,-370(sp)

0000000080009ff4 <i_9878>:
    80009ff4:	7d300e93          	li	t4,2003

0000000080009ff8 <i_9879>:
    80009ff8:	7e600813          	li	a6,2022

0000000080009ffc <i_9880>:
    80009ffc:	03be35b3          	mulhu	a1,t3,s11

000000008000a000 <i_9881>:
    8000a000:	001e8e93          	addi	t4,t4,1 # 93a1001 <main-0x76c5efff>
    8000a004:	ffd85ce3          	ble	t4,a6,80009ffc <i_9880>

000000008000a008 <i_9882>:
    8000a008:	01487c63          	bleu	s4,a6,8000a020 <i_9888>

000000008000a00c <i_9883>:
    8000a00c:	f8813e03          	ld	t3,-120(sp)

000000008000a010 <i_9884>:
    8000a010:	e2813383          	ld	t2,-472(sp)

000000008000a014 <i_9885>:
    8000a014:	f7812383          	lw	t2,-136(sp)

000000008000a018 <i_9886>:
    8000a018:	00000013          	nop

000000008000a01c <i_9887>:
    8000a01c:	94e3e393          	ori	t2,t2,-1714

000000008000a020 <i_9888>:
    8000a020:	0055f5b3          	and	a1,a1,t0

000000008000a024 <i_9889>:
    8000a024:	034c0ebb          	mulw	t4,s8,s4

000000008000a028 <i_9890>:
    8000a028:	8d600293          	li	t0,-1834

000000008000a02c <i_9891>:
    8000a02c:	8ea00a13          	li	s4,-1814

000000008000a030 <i_9892>:
    8000a030:	02b6beb3          	mulhu	t4,a3,a1

000000008000a034 <i_9893>:
    8000a034:	fec11583          	lh	a1,-20(sp)

000000008000a038 <i_9894>:
    8000a038:	00128293          	addi	t0,t0,1
    8000a03c:	ff42cae3          	blt	t0,s4,8000a030 <i_9892>

000000008000a040 <i_9895>:
    8000a040:	01de6e63          	bltu	t3,t4,8000a05c <i_9902>

000000008000a044 <i_9896>:
    8000a044:	02b8783b          	remuw	a6,a6,a1

000000008000a048 <i_9897>:
    8000a048:	010a3a33          	sltu	s4,s4,a6

000000008000a04c <i_9898>:
    8000a04c:	00300813          	li	a6,3

000000008000a050 <i_9899>:
    8000a050:	010a5ebb          	srlw	t4,s4,a6

000000008000a054 <i_9900>:
    8000a054:	023e37b3          	mulhu	a5,t3,gp

000000008000a058 <i_9901>:
    8000a058:	00424233          	xor	tp,tp,tp

000000008000a05c <i_9902>:
    8000a05c:	03da1eb3          	mulh	t4,s4,t4

000000008000a060 <i_9903>:
    8000a060:	004e9313          	slli	t1,t4,0x4

000000008000a064 <i_9904>:
    8000a064:	89800e13          	li	t3,-1896

000000008000a068 <i_9905>:
    8000a068:	8a500193          	li	gp,-1883

000000008000a06c <i_9906>:
    8000a06c:	028ec43b          	divw	s0,t4,s0

000000008000a070 <i_9907>:
    8000a070:	f4ca2a13          	slti	s4,s4,-180

000000008000a074 <i_9908>:
    8000a074:	15410ea3          	sb	s4,349(sp)

000000008000a078 <i_9909>:
    8000a078:	001e0e13          	addi	t3,t3,1 # d6486fc5 <_end+0x56476bb1>
    8000a07c:	ffc1d8e3          	ble	t3,gp,8000a06c <i_9906>

000000008000a080 <i_9910>:
    8000a080:	010edc63          	ble	a6,t4,8000a098 <i_9916>

000000008000a084 <i_9911>:
    8000a084:	00b30233          	add	tp,t1,a1

000000008000a088 <i_9912>:
    8000a088:	023a1eb3          	mulh	t4,s4,gp

000000008000a08c <i_9913>:
    8000a08c:	00c00e93          	li	t4,12

000000008000a090 <i_9914>:
    8000a090:	01ded33b          	srlw	t1,t4,t4

000000008000a094 <i_9915>:
    8000a094:	f2812a03          	lw	s4,-216(sp)

000000008000a098 <i_9916>:
    8000a098:	00000013          	nop

000000008000a09c <i_9917>:
    8000a09c:	1ce15303          	lhu	t1,462(sp)

000000008000a0a0 <i_9918>:
    8000a0a0:	8b200d93          	li	s11,-1870

000000008000a0a4 <i_9919>:
    8000a0a4:	8c100193          	li	gp,-1855

000000008000a0a8 <i_9920>:
    8000a0a8:	c031ce13          	xori	t3,gp,-1021

000000008000a0ac <i_9921>:
    8000a0ac:	ea013303          	ld	t1,-352(sp)

000000008000a0b0 <i_9922>:
    8000a0b0:	02833433          	mulhu	s0,t1,s0

000000008000a0b4 <i_9923>:
    8000a0b4:	7e500a13          	li	s4,2021

000000008000a0b8 <i_9924>:
    8000a0b8:	7ec00513          	li	a0,2028

000000008000a0bc <i_9925>:
    8000a0bc:	00000013          	nop

000000008000a0c0 <i_9926>:
    8000a0c0:	ebc16283          	lwu	t0,-324(sp)

000000008000a0c4 <i_9927>:
    8000a0c4:	d7d47797          	auipc	a5,0xd7d47

000000008000a0c8 <i_9928>:
    8000a0c8:	001a0a13          	addi	s4,s4,1
    8000a0cc:	feaa68e3          	bltu	s4,a0,8000a0bc <i_9925>

000000008000a0d0 <i_9929>:
    8000a0d0:	03c17663          	bleu	t3,sp,8000a0fc <i_9939>

000000008000a0d4 <i_9930>:
    8000a0d4:	00000013          	nop

000000008000a0d8 <i_9931>:
    8000a0d8:	1d016403          	lwu	s0,464(sp)

000000008000a0dc <i_9932>:
    8000a0dc:	038dde33          	divu	t3,s11,s8

000000008000a0e0 <i_9933>:
    8000a0e0:	00f427b3          	slt	a5,s0,a5

000000008000a0e4 <i_9934>:
    8000a0e4:	001d8d93          	addi	s11,s11,1
    8000a0e8:	fc3dc0e3          	blt	s11,gp,8000a0a8 <i_9920>

000000008000a0ec <i_9935>:
    8000a0ec:	ec016403          	lwu	s0,-320(sp)

000000008000a0f0 <i_9936>:
    8000a0f0:	07e10183          	lb	gp,126(sp)

000000008000a0f4 <i_9937>:
    8000a0f4:	001d941b          	slliw	s0,s11,0x1

000000008000a0f8 <i_9938>:
    8000a0f8:	efe14083          	lbu	ra,-258(sp)

000000008000a0fc <i_9939>:
    8000a0fc:	0033ee63          	bltu	t2,gp,8000a118 <i_9946>

000000008000a100 <i_9940>:
    8000a100:	03900393          	li	t2,57

000000008000a104 <i_9941>:
    8000a104:	007092b3          	sll	t0,ra,t2

000000008000a108 <i_9942>:
    8000a108:	fc812283          	lw	t0,-56(sp)

000000008000a10c <i_9943>:
    8000a10c:	f9813083          	ld	ra,-104(sp)

000000008000a110 <i_9944>:
    8000a110:	0253d3b3          	divu	t2,t2,t0

000000008000a114 <i_9945>:
    8000a114:	18713823          	sd	t2,400(sp)

000000008000a118 <i_9946>:
    8000a118:	0079c263          	blt	s3,t2,8000a11c <i_9947>

000000008000a11c <i_9947>:
    8000a11c:	00538233          	add	tp,t2,t0

000000008000a120 <i_9948>:
    8000a120:	0273c33b          	divw	t1,t2,t2

000000008000a124 <i_9949>:
    8000a124:	0250e063          	bltu	ra,t0,8000a144 <i_9957>

000000008000a128 <i_9950>:
    8000a128:	15c11303          	lh	t1,348(sp)

000000008000a12c <i_9951>:
    8000a12c:	0074dc63          	ble	t2,s1,8000a144 <i_9957>

000000008000a130 <i_9952>:
    8000a130:	b22eb397          	auipc	t2,0xb22eb

000000008000a134 <i_9953>:
    8000a134:	f7012383          	lw	t2,-144(sp)

000000008000a138 <i_9954>:
    8000a138:	02633e33          	mulhu	t3,t1,t1

000000008000a13c <i_9955>:
    8000a13c:	e7310e03          	lb	t3,-397(sp)

000000008000a140 <i_9956>:
    8000a140:	41c38bbb          	subw	s7,t2,t3

000000008000a144 <i_9957>:
    8000a144:	0ca11e03          	lh	t3,202(sp)

000000008000a148 <i_9958>:
    8000a148:	02740463          	beq	s0,t2,8000a170 <i_9968>

000000008000a14c <i_9959>:
    8000a14c:	07c12623          	sw	t3,108(sp)

000000008000a150 <i_9960>:
    8000a150:	ff512623          	sw	s5,-20(sp)

000000008000a154 <i_9961>:
    8000a154:	ed816583          	lwu	a1,-296(sp)

000000008000a158 <i_9962>:
    8000a158:	0c611023          	sh	t1,192(sp)

000000008000a15c <i_9963>:
    8000a15c:	0255a3b3          	mulhsu	t2,a1,t0

000000008000a160 <i_9964>:
    8000a160:	d88cf097          	auipc	ra,0xd88cf

000000008000a164 <i_9965>:
    8000a164:	41728533          	sub	a0,t0,s7

000000008000a168 <i_9966>:
    8000a168:	14612a23          	sw	t1,340(sp)

000000008000a16c <i_9967>:
    8000a16c:	00000013          	nop

000000008000a170 <i_9968>:
    8000a170:	e2a12823          	sw	a0,-464(sp)

000000008000a174 <i_9969>:
    8000a174:	e5310483          	lb	s1,-429(sp)

000000008000a178 <i_9970>:
    8000a178:	73200293          	li	t0,1842

000000008000a17c <i_9971>:
    8000a17c:	73a00393          	li	t2,1850

000000008000a180 <i_9972>:
    8000a180:	0244d23b          	divuw	tp,s1,tp

000000008000a184 <i_9973>:
    8000a184:	08111f23          	sh	ra,158(sp)

000000008000a188 <i_9974>:
    8000a188:	f87101a3          	sb	t2,-125(sp)

000000008000a18c <i_9975>:
    8000a18c:	01a00213          	li	tp,26

000000008000a190 <i_9976>:
    8000a190:	4040dbbb          	sraw	s7,ra,tp

000000008000a194 <i_9977>:
    8000a194:	00420e63          	beq	tp,tp,8000a1b0 <i_9984>

000000008000a198 <i_9978>:
    8000a198:	ea413023          	sd	tp,-352(sp)

000000008000a19c <i_9979>:
    8000a19c:	00000013          	nop

000000008000a1a0 <i_9980>:
    8000a1a0:	17013203          	ld	tp,368(sp)

000000008000a1a4 <i_9981>:
    8000a1a4:	ee013083          	ld	ra,-288(sp)

000000008000a1a8 <i_9982>:
    8000a1a8:	404989bb          	subw	s3,s3,tp

000000008000a1ac <i_9983>:
    8000a1ac:	01900193          	li	gp,25

000000008000a1b0 <i_9984>:
    8000a1b0:	003211b3          	sll	gp,tp,gp

000000008000a1b4 <i_9985>:
    8000a1b4:	0239e233          	rem	tp,s3,gp

000000008000a1b8 <i_9986>:
    8000a1b8:	6277c793          	xori	a5,a5,1575

000000008000a1bc <i_9987>:
    8000a1bc:	00128293          	addi	t0,t0,1
    8000a1c0:	fc7290e3          	bne	t0,t2,8000a180 <i_9972>

000000008000a1c4 <i_9988>:
    8000a1c4:	13615983          	lhu	s3,310(sp)

000000008000a1c8 <i_9989>:
    8000a1c8:	00f00993          	li	s3,15

000000008000a1cc <i_9990>:
    8000a1cc:	0139d9bb          	srlw	s3,s3,s3

000000008000a1d0 <i_9991>:
    8000a1d0:	86000d93          	li	s11,-1952

000000008000a1d4 <i_9992>:
    8000a1d4:	86800093          	li	ra,-1944

000000008000a1d8 <i_9993>:
    8000a1d8:	001d8d93          	addi	s11,s11,1
    8000a1dc:	ffb0fce3          	bleu	s11,ra,8000a1d4 <i_9992>

000000008000a1e0 <i_9994>:
    8000a1e0:	f1b105a3          	sb	s11,-245(sp)

000000008000a1e4 <i_9995>:
    8000a1e4:	00f787b3          	add	a5,a5,a5

000000008000a1e8 <i_9996>:
    8000a1e8:	14f10f23          	sb	a5,350(sp)

000000008000a1ec <i_9997>:
    8000a1ec:	eba10e03          	lb	t3,-326(sp)

000000008000a1f0 <i_9998>:
    8000a1f0:	02fd9db3          	mulh	s11,s11,a5

000000008000a1f4 <i_9999>:
    8000a1f4:	01bdfe63          	bleu	s11,s11,8000a210 <i_10006>

000000008000a1f8 <i_10000>:
    8000a1f8:	09c16083          	lwu	ra,156(sp)

000000008000a1fc <i_10001>:
    8000a1fc:	e4c16503          	lwu	a0,-436(sp)

000000008000a200 <i_10002>:
    8000a200:	0020979b          	slliw	a5,ra,0x2

000000008000a204 <i_10003>:
    8000a204:	02a55463          	ble	a0,a0,8000a22c <i_10013>

000000008000a208 <i_10004>:
    8000a208:	02fe5263          	ble	a5,t3,8000a22c <i_10013>

000000008000a20c <i_10005>:
    8000a20c:	11114083          	lbu	ra,273(sp)

000000008000a210 <i_10006>:
    8000a210:	ee714e03          	lbu	t3,-281(sp)

000000008000a214 <i_10007>:
    8000a214:	00000013          	nop

000000008000a218 <i_10008>:
    8000a218:	01c805b3          	add	a1,a6,t3

000000008000a21c <i_10009>:
    8000a21c:	00b80e33          	add	t3,a6,a1

000000008000a220 <i_10010>:
    8000a220:	06110a03          	lb	s4,97(sp)

000000008000a224 <i_10011>:
    8000a224:	00000013          	nop

000000008000a228 <i_10012>:
    8000a228:	00600a13          	li	s4,6

000000008000a22c <i_10013>:
    8000a22c:	014a15bb          	sllw	a1,s4,s4

000000008000a230 <i_10014>:
    8000a230:	e8614083          	lbu	ra,-378(sp)

000000008000a234 <i_10015>:
    8000a234:	7b600e93          	li	t4,1974

000000008000a238 <i_10016>:
    8000a238:	7c300513          	li	a0,1987

000000008000a23c <i_10017>:
    8000a23c:	014080b3          	add	ra,ra,s4

000000008000a240 <i_10018>:
    8000a240:	00000013          	nop

000000008000a244 <i_10019>:
    8000a244:	001e8e93          	addi	t4,t4,1
    8000a248:	feae9ae3          	bne	t4,a0,8000a23c <i_10017>

000000008000a24c <i_10020>:
    8000a24c:	e3416183          	lwu	gp,-460(sp)

000000008000a250 <i_10021>:
    8000a250:	01400213          	li	tp,20

000000008000a254 <i_10022>:
    8000a254:	004ddbbb          	srlw	s7,s11,tp

000000008000a258 <i_10023>:
    8000a258:	41718233          	sub	tp,gp,s7

000000008000a25c <i_10024>:
    8000a25c:	00d20463          	beq	tp,a3,8000a264 <i_10026>

000000008000a260 <i_10025>:
    8000a260:	004ece63          	blt	t4,tp,8000a27c <i_10032>

000000008000a264 <i_10026>:
    8000a264:	00811023          	sh	s0,0(sp)

000000008000a268 <i_10027>:
    8000a268:	04012e03          	lw	t3,64(sp)

000000008000a26c <i_10028>:
    8000a26c:	f31cb293          	sltiu	t0,s9,-207

000000008000a270 <i_10029>:
    8000a270:	e6412583          	lw	a1,-412(sp)

000000008000a274 <i_10030>:
    8000a274:	e5c13423          	sd	t3,-440(sp)

000000008000a278 <i_10031>:
    8000a278:	f9c10e23          	sb	t3,-100(sp)

000000008000a27c <i_10032>:
    8000a27c:	f5215583          	lhu	a1,-174(sp)

000000008000a280 <i_10033>:
    8000a280:	00459663          	bne	a1,tp,8000a28c <i_10036>

000000008000a284 <i_10034>:
    8000a284:	0e013803          	ld	a6,224(sp)

000000008000a288 <i_10035>:
    8000a288:	ea016283          	lwu	t0,-352(sp)

000000008000a28c <i_10036>:
    8000a28c:	00a2e863          	bltu	t0,a0,8000a29c <i_10040>

000000008000a290 <i_10037>:
    8000a290:	18b109a3          	sb	a1,403(sp)

000000008000a294 <i_10038>:
    8000a294:	4015d49b          	sraiw	s1,a1,0x1

000000008000a298 <i_10039>:
    8000a298:	00400b93          	li	s7,4

000000008000a29c <i_10040>:
    8000a29c:	017292bb          	sllw	t0,t0,s7

000000008000a2a0 <i_10041>:
    8000a2a0:	03828a3b          	mulw	s4,t0,s8

000000008000a2a4 <i_10042>:
    8000a2a4:	e2512823          	sw	t0,-464(sp)

000000008000a2a8 <i_10043>:
    8000a2a8:	e8816d83          	lwu	s11,-376(sp)

000000008000a2ac <i_10044>:
    8000a2ac:	02981463          	bne	a6,s1,8000a2d4 <i_10054>

000000008000a2b0 <i_10045>:
    8000a2b0:	865a4813          	xori	a6,s4,-1947

000000008000a2b4 <i_10046>:
    8000a2b4:	f9b13c23          	sd	s11,-104(sp)

000000008000a2b8 <i_10047>:
    8000a2b8:	17013823          	sd	a6,368(sp)

000000008000a2bc <i_10048>:
    8000a2bc:	f5b10ea3          	sb	s11,-163(sp)

000000008000a2c0 <i_10049>:
    8000a2c0:	00b00813          	li	a6,11

000000008000a2c4 <i_10050>:
    8000a2c4:	010a5e33          	srl	t3,s4,a6

000000008000a2c8 <i_10051>:
    8000a2c8:	ff012d83          	lw	s11,-16(sp)

000000008000a2cc <i_10052>:
    8000a2cc:	03c10723          	sb	t3,46(sp)

000000008000a2d0 <i_10053>:
    8000a2d0:	030b6463          	bltu	s6,a6,8000a2f8 <i_10063>

000000008000a2d4 <i_10054>:
    8000a2d4:	f0510b83          	lb	s7,-251(sp)

000000008000a2d8 <i_10055>:
    8000a2d8:	025be1b3          	rem	gp,s7,t0

000000008000a2dc <i_10056>:
    8000a2dc:	1a615483          	lhu	s1,422(sp)

000000008000a2e0 <i_10057>:
    8000a2e0:	01bd7e63          	bleu	s11,s10,8000a2fc <i_10064>

000000008000a2e4 <i_10058>:
    8000a2e4:	f4810d83          	lb	s11,-184(sp)

000000008000a2e8 <i_10059>:
    8000a2e8:	12611183          	lh	gp,294(sp)

000000008000a2ec <i_10060>:
    8000a2ec:	03b18413          	addi	s0,gp,59

000000008000a2f0 <i_10061>:
    8000a2f0:	0a914d83          	lbu	s11,169(sp)

000000008000a2f4 <i_10062>:
    8000a2f4:	00000013          	nop

000000008000a2f8 <i_10063>:
    8000a2f8:	ff416383          	lwu	t2,-12(sp)

000000008000a2fc <i_10064>:
    8000a2fc:	e0410e23          	sb	tp,-484(sp)

000000008000a300 <i_10065>:
    8000a300:	06712823          	sw	t2,112(sp)

000000008000a304 <i_10066>:
    8000a304:	7ae00213          	li	tp,1966

000000008000a308 <i_10067>:
    8000a308:	7b200493          	li	s1,1970

000000008000a30c <i_10068>:
    8000a30c:	fba12a23          	sw	s10,-76(sp)

000000008000a310 <i_10069>:
    8000a310:	f6816d83          	lwu	s11,-152(sp)

000000008000a314 <i_10070>:
    8000a314:	0093c463          	blt	t2,s1,8000a31c <i_10072>

000000008000a318 <i_10071>:
    8000a318:	4023d39b          	sraiw	t2,t2,0x2

000000008000a31c <i_10072>:
    8000a31c:	eb514383          	lbu	t2,-331(sp)

000000008000a320 <i_10073>:
    8000a320:	6773c393          	xori	t2,t2,1655

000000008000a324 <i_10074>:
    8000a324:	00120213          	addi	tp,tp,1 # 3d77f001 <main-0x42880fff>
    8000a328:	fe44f2e3          	bleu	tp,s1,8000a30c <i_10068>

000000008000a32c <i_10075>:
    8000a32c:	f9b10023          	sb	s11,-128(sp)

000000008000a330 <i_10076>:
    8000a330:	0253c2b3          	div	t0,t2,t0

000000008000a334 <i_10077>:
    8000a334:	00000013          	nop

000000008000a338 <i_10078>:
    8000a338:	86a00393          	li	t2,-1942

000000008000a33c <i_10079>:
    8000a33c:	87600593          	li	a1,-1930

000000008000a340 <i_10080>:
    8000a340:	00000013          	nop

000000008000a344 <i_10081>:
    8000a344:	0275c9bb          	divw	s3,a1,t2

000000008000a348 <i_10082>:
    8000a348:	0252a2b3          	mulhsu	t0,t0,t0

000000008000a34c <i_10083>:
    8000a34c:	025282bb          	mulw	t0,t0,t0

000000008000a350 <i_10084>:
    8000a350:	4109f993          	andi	s3,s3,1040

000000008000a354 <i_10085>:
    8000a354:	f3312e23          	sw	s3,-196(sp)

000000008000a358 <i_10086>:
    8000a358:	08013283          	ld	t0,128(sp)

000000008000a35c <i_10087>:
    8000a35c:	13311523          	sh	s3,298(sp)

000000008000a360 <i_10088>:
    8000a360:	02529bb3          	mulh	s7,t0,t0

000000008000a364 <i_10089>:
    8000a364:	00138393          	addi	t2,t2,1 # 322f5131 <main-0x4dd0aecf>
    8000a368:	fc75fce3          	bleu	t2,a1,8000a340 <i_10080>

000000008000a36c <i_10090>:
    8000a36c:	fb312823          	sw	s3,-80(sp)

000000008000a370 <i_10091>:
    8000a370:	01b9f9b3          	and	s3,s3,s11

000000008000a374 <i_10092>:
    8000a374:	004bd993          	srli	s3,s7,0x4

000000008000a378 <i_10093>:
    8000a378:	0339c263          	blt	s3,s3,8000a39c <i_10102>

000000008000a37c <i_10094>:
    8000a37c:	03e9f463          	bleu	t5,s3,8000a3a4 <i_10104>

000000008000a380 <i_10095>:
    8000a380:	013f39b3          	sltu	s3,t5,s3

000000008000a384 <i_10096>:
    8000a384:	16a11983          	lh	s3,362(sp)

000000008000a388 <i_10097>:
    8000a388:	15310e23          	sb	s3,348(sp)

000000008000a38c <i_10098>:
    8000a38c:	ef816383          	lwu	t2,-264(sp)

000000008000a390 <i_10099>:
    8000a390:	1b014383          	lbu	t2,432(sp)

000000008000a394 <i_10100>:
    8000a394:	77d9b393          	sltiu	t2,s3,1917

000000008000a398 <i_10101>:
    8000a398:	e8013e03          	ld	t3,-384(sp)

000000008000a39c <i_10102>:
    8000a39c:	d40e2393          	slti	t2,t3,-704

000000008000a3a0 <i_10103>:
    8000a3a0:	ea711823          	sh	t2,-336(sp)

000000008000a3a4 <i_10104>:
    8000a3a4:	033bf7b3          	remu	a5,s7,s3

000000008000a3a8 <i_10105>:
    8000a3a8:	00114383          	lbu	t2,1(sp)

000000008000a3ac <i_10106>:
    8000a3ac:	78300993          	li	s3,1923

000000008000a3b0 <i_10107>:
    8000a3b0:	79100b93          	li	s7,1937

000000008000a3b4 <i_10108>:
    8000a3b4:	ff712a23          	sw	s7,-12(sp)

000000008000a3b8 <i_10109>:
    8000a3b8:	03c9e263          	bltu	s3,t3,8000a3dc <i_10117>

000000008000a3bc <i_10110>:
    8000a3bc:	00198993          	addi	s3,s3,1 # 1f183c85 <main-0x60e7c37b>
    8000a3c0:	ff79eae3          	bltu	s3,s7,8000a3b4 <i_10108>

000000008000a3c4 <i_10111>:
    8000a3c4:	0139da63          	ble	s3,s3,8000a3d8 <i_10116>

000000008000a3c8 <i_10112>:
    8000a3c8:	01cbec63          	bltu	s7,t3,8000a3e0 <i_10118>

000000008000a3cc <i_10113>:
    8000a3cc:	0dc12783          	lw	a5,220(sp)

000000008000a3d0 <i_10114>:
    8000a3d0:	0370a533          	mulhsu	a0,ra,s7

000000008000a3d4 <i_10115>:
    8000a3d4:	0053d263          	ble	t0,t2,8000a3d8 <i_10116>

000000008000a3d8 <i_10116>:
    8000a3d8:	03c7c463          	blt	a5,t3,8000a400 <i_10126>

000000008000a3dc <i_10117>:
    8000a3dc:	f3310723          	sb	s3,-210(sp)

000000008000a3e0 <i_10118>:
    8000a3e0:	0019d29b          	srliw	t0,s3,0x1

000000008000a3e4 <i_10119>:
    8000a3e4:	037794b3          	mulh	s1,a5,s7

000000008000a3e8 <i_10120>:
    8000a3e8:	01328e63          	beq	t0,s3,8000a404 <i_10127>

000000008000a3ec <i_10121>:
    8000a3ec:	aed5d3b7          	lui	t2,0xaed5d

000000008000a3f0 <i_10122>:
    8000a3f0:	f7c16b83          	lwu	s7,-132(sp)

000000008000a3f4 <i_10123>:
    8000a3f4:	e4f11023          	sh	a5,-448(sp)

000000008000a3f8 <i_10124>:
    8000a3f8:	0339e463          	bltu	s3,s3,8000a420 <i_10134>

000000008000a3fc <i_10125>:
    8000a3fc:	00a00993          	li	s3,10

000000008000a400 <i_10126>:
    8000a400:	013dd533          	srl	a0,s11,s3

000000008000a404 <i_10127>:
    8000a404:	40155d93          	srai	s11,a0,0x1

000000008000a408 <i_10128>:
    8000a408:	7bede513          	ori	a0,s11,1982

000000008000a40c <i_10129>:
    8000a40c:	95fe3093          	sltiu	ra,t3,-1697

000000008000a410 <i_10130>:
    8000a410:	0fb10ea3          	sb	s11,253(sp)

000000008000a414 <i_10131>:
    8000a414:	0029a833          	slt	a6,s3,sp

000000008000a418 <i_10132>:
    8000a418:	00179263          	bne	a5,ra,8000a41c <i_10133>

000000008000a41c <i_10133>:
    8000a41c:	025e04b3          	mul	s1,t3,t0

000000008000a420 <i_10134>:
    8000a420:	0339d063          	ble	s3,s3,8000a440 <i_10142>

000000008000a424 <i_10135>:
    8000a424:	eb013203          	ld	tp,-336(sp)

000000008000a428 <i_10136>:
    8000a428:	cf323293          	sltiu	t0,tp,-781

000000008000a42c <i_10137>:
    8000a42c:	0294febb          	remuw	t4,s1,s1

000000008000a430 <i_10138>:
    8000a430:	0254e4bb          	remw	s1,s1,t0

000000008000a434 <i_10139>:
    8000a434:	ee813483          	ld	s1,-280(sp)

000000008000a438 <i_10140>:
    8000a438:	e4412e83          	lw	t4,-444(sp)

000000008000a43c <i_10141>:
    8000a43c:	02528263          	beq	t0,t0,8000a460 <i_10150>

000000008000a440 <i_10142>:
    8000a440:	0252f463          	bleu	t0,t0,8000a468 <i_10152>

000000008000a444 <i_10143>:
    8000a444:	f0211e23          	sh	sp,-228(sp)

000000008000a448 <i_10144>:
    8000a448:	fa913023          	sd	s1,-96(sp)

000000008000a44c <i_10145>:
    8000a44c:	08e13c23          	sd	a4,152(sp)

000000008000a450 <i_10146>:
    8000a450:	03d0d0b3          	divu	ra,ra,t4

000000008000a454 <i_10147>:
    8000a454:	08812503          	lw	a0,136(sp)

000000008000a458 <i_10148>:
    8000a458:	403bdb9b          	sraiw	s7,s7,0x3

000000008000a45c <i_10149>:
    8000a45c:	0da15983          	lhu	s3,218(sp)

000000008000a460 <i_10150>:
    8000a460:	1e013303          	ld	t1,480(sp)

000000008000a464 <i_10151>:
    8000a464:	aac37b93          	andi	s7,t1,-1364

000000008000a468 <i_10152>:
    8000a468:	0d416e83          	lwu	t4,212(sp)

000000008000a46c <i_10153>:
    8000a46c:	01800e93          	li	t4,24

000000008000a470 <i_10154>:
    8000a470:	01db5233          	srl	tp,s6,t4

000000008000a474 <i_10155>:
    8000a474:	76000d93          	li	s11,1888

000000008000a478 <i_10156>:
    8000a478:	76e00513          	li	a0,1902

000000008000a47c <i_10157>:
    8000a47c:	0247f7bb          	remuw	a5,a5,tp

000000008000a480 <i_10158>:
    8000a480:	fc413c23          	sd	tp,-40(sp)

000000008000a484 <i_10159>:
    8000a484:	eb410183          	lb	gp,-332(sp)

000000008000a488 <i_10160>:
    8000a488:	17416b83          	lwu	s7,372(sp)

000000008000a48c <i_10161>:
    8000a48c:	00000013          	nop

000000008000a490 <i_10162>:
    8000a490:	ff310183          	lb	gp,-13(sp)

000000008000a494 <i_10163>:
    8000a494:	00000013          	nop

000000008000a498 <i_10164>:
    8000a498:	76d00393          	li	t2,1901

000000008000a49c <i_10165>:
    8000a49c:	77200793          	li	a5,1906

000000008000a4a0 <i_10166>:
    8000a4a0:	02ff433b          	divw	t1,t5,a5

000000008000a4a4 <i_10167>:
    8000a4a4:	00138393          	addi	t2,t2,1 # ffffffffaed5d001 <_end+0xffffffff2ed4cbed>
    8000a4a8:	fef3ece3          	bltu	t2,a5,8000a4a0 <i_10166>

000000008000a4ac <i_10168>:
    8000a4ac:	1a612423          	sw	t1,424(sp)

000000008000a4b0 <i_10169>:
    8000a4b0:	024ac23b          	divw	tp,s5,tp

000000008000a4b4 <i_10170>:
    8000a4b4:	001d8d93          	addi	s11,s11,1
    8000a4b8:	fcadc0e3          	blt	s11,a0,8000a478 <i_10156>

000000008000a4bc <i_10171>:
    8000a4bc:	00339a63          	bne	t2,gp,8000a4d0 <i_10176>

000000008000a4c0 <i_10172>:
    8000a4c0:	7a1ebe13          	sltiu	t3,t4,1953

000000008000a4c4 <i_10173>:
    8000a4c4:	11015503          	lhu	a0,272(sp)

000000008000a4c8 <i_10174>:
    8000a4c8:	19610203          	lb	tp,406(sp)

000000008000a4cc <i_10175>:
    8000a4cc:	0a416183          	lwu	gp,164(sp)

000000008000a4d0 <i_10176>:
    8000a4d0:	02ce4263          	blt	t3,a2,8000a4f4 <i_10185>

000000008000a4d4 <i_10177>:
    8000a4d4:	1b615183          	lhu	gp,438(sp)

000000008000a4d8 <i_10178>:
    8000a4d8:	00ae0663          	beq	t3,a0,8000a4e4 <i_10181>

000000008000a4dc <i_10179>:
    8000a4dc:	11016183          	lwu	gp,272(sp)

000000008000a4e0 <i_10180>:
    8000a4e0:	17013783          	ld	a5,368(sp)

000000008000a4e4 <i_10181>:
    8000a4e4:	00a56663          	bltu	a0,a0,8000a4f0 <i_10184>

000000008000a4e8 <i_10182>:
    8000a4e8:	b0c8c7b7          	lui	a5,0xb0c8c

000000008000a4ec <i_10183>:
    8000a4ec:	00a12623          	sw	a0,12(sp)

000000008000a4f0 <i_10184>:
    8000a4f0:	00313823          	sd	gp,16(sp)

000000008000a4f4 <i_10185>:
    8000a4f4:	19410283          	lb	t0,404(sp)

000000008000a4f8 <i_10186>:
    8000a4f8:	03c12023          	sw	t3,32(sp)

000000008000a4fc <i_10187>:
    8000a4fc:	1b110983          	lb	s3,433(sp)

000000008000a500 <i_10188>:
    8000a500:	01399463          	bne	s3,s3,8000a508 <i_10190>

000000008000a504 <i_10189>:
    8000a504:	e3013783          	ld	a5,-464(sp)

000000008000a508 <i_10190>:
    8000a508:	07215983          	lhu	s3,114(sp)

000000008000a50c <i_10191>:
    8000a50c:	ef313c23          	sd	s3,-264(sp)

000000008000a510 <i_10192>:
    8000a510:	f5011d83          	lh	s11,-176(sp)

000000008000a514 <i_10193>:
    8000a514:	f1215d83          	lhu	s11,-238(sp)

000000008000a518 <i_10194>:
    8000a518:	e5811e03          	lh	t3,-424(sp)

000000008000a51c <i_10195>:
    8000a51c:	7bae0d9b          	addiw	s11,t3,1978

000000008000a520 <i_10196>:
    8000a520:	01be0663          	beq	t3,s11,8000a52c <i_10199>

000000008000a524 <i_10197>:
    8000a524:	1a813083          	ld	ra,424(sp)

000000008000a528 <i_10198>:
    8000a528:	01bc87b3          	add	a5,s9,s11

000000008000a52c <i_10199>:
    8000a52c:	030d823b          	mulw	tp,s11,a6

000000008000a530 <i_10200>:
    8000a530:	00408a63          	beq	ra,tp,8000a544 <i_10205>

000000008000a534 <i_10201>:
    8000a534:	00d00b93          	li	s7,13

000000008000a538 <i_10202>:
    8000a538:	0177ddbb          	srlw	s11,a5,s7

000000008000a53c <i_10203>:
    8000a53c:	01211783          	lh	a5,18(sp)

000000008000a540 <i_10204>:
    8000a540:	01727c63          	bleu	s7,tp,8000a558 <i_10210>

000000008000a544 <i_10205>:
    8000a544:	00000013          	nop

000000008000a548 <i_10206>:
    8000a548:	02572db3          	mulhsu	s11,a4,t0

000000008000a54c <i_10207>:
    8000a54c:	00000013          	nop

000000008000a550 <i_10208>:
    8000a550:	00000013          	nop

000000008000a554 <i_10209>:
    8000a554:	07911123          	sh	s9,98(sp)

000000008000a558 <i_10210>:
    8000a558:	00000013          	nop

000000008000a55c <i_10211>:
    8000a55c:	00000013          	nop

000000008000a560 <i_10212>:
    8000a560:	7d500413          	li	s0,2005

000000008000a564 <i_10213>:
    8000a564:	7e700293          	li	t0,2023

000000008000a568 <i_10214>:
    8000a568:	00140413          	addi	s0,s0,1
    8000a56c:	fe546ee3          	bltu	s0,t0,8000a568 <i_10214>

000000008000a570 <i_10215>:
    8000a570:	01b8dc63          	ble	s11,a7,8000a588 <i_10221>

000000008000a574 <i_10216>:
    8000a574:	00844663          	blt	s0,s0,8000a580 <i_10219>

000000008000a578 <i_10217>:
    8000a578:	e1e15303          	lhu	t1,-482(sp)

000000008000a57c <i_10218>:
    8000a57c:	02a00813          	li	a6,42

000000008000a580 <i_10219>:
    8000a580:	41025233          	sra	tp,tp,a6

000000008000a584 <i_10220>:
    8000a584:	02e7ca33          	div	s4,a5,a4

000000008000a588 <i_10221>:
    8000a588:	00000013          	nop

000000008000a58c <i_10222>:
    8000a58c:	0b011723          	sh	a6,174(sp)

000000008000a590 <i_10223>:
    8000a590:	80600413          	li	s0,-2042

000000008000a594 <i_10224>:
    8000a594:	81600d93          	li	s11,-2026

000000008000a598 <i_10225>:
    8000a598:	0b114283          	lbu	t0,177(sp)

000000008000a59c <i_10226>:
    8000a59c:	00140413          	addi	s0,s0,1
    8000a5a0:	ffb44ce3          	blt	s0,s11,8000a598 <i_10225>

000000008000a5a4 <i_10227>:
    8000a5a4:	10013783          	ld	a5,256(sp)

000000008000a5a8 <i_10228>:
    8000a5a8:	00521e63          	bne	tp,t0,8000a5c4 <i_10235>

000000008000a5ac <i_10229>:
    8000a5ac:	17b11b23          	sh	s11,374(sp)

000000008000a5b0 <i_10230>:
    8000a5b0:	e8812e23          	sw	s0,-356(sp)

000000008000a5b4 <i_10231>:
    8000a5b4:	03ba51b3          	divu	gp,s4,s11

000000008000a5b8 <i_10232>:
    8000a5b8:	02346463          	bltu	s0,gp,8000a5e0 <i_10242>

000000008000a5bc <i_10233>:
    8000a5bc:	dac26b93          	ori	s7,tp,-596

000000008000a5c0 <i_10234>:
    8000a5c0:	14812803          	lw	a6,328(sp)

000000008000a5c4 <i_10235>:
    8000a5c4:	f9e11e03          	lh	t3,-98(sp)

000000008000a5c8 <i_10236>:
    8000a5c8:	0251d263          	ble	t0,gp,8000a5ec <i_10245>

000000008000a5cc <i_10237>:
    8000a5cc:	e2813803          	ld	a6,-472(sp)

000000008000a5d0 <i_10238>:
    8000a5d0:	e7c12c23          	sw	t3,-392(sp)

000000008000a5d4 <i_10239>:
    8000a5d4:	03486063          	bltu	a6,s4,8000a5f4 <i_10247>

000000008000a5d8 <i_10240>:
    8000a5d8:	01b7de63          	ble	s11,a5,8000a5f4 <i_10247>

000000008000a5dc <i_10241>:
    8000a5dc:	037c22b3          	mulhsu	t0,s8,s7

000000008000a5e0 <i_10242>:
    8000a5e0:	008473b3          	and	t2,s0,s0

000000008000a5e4 <i_10243>:
    8000a5e4:	16812823          	sw	s0,368(sp)

000000008000a5e8 <i_10244>:
    8000a5e8:	06512823          	sw	t0,112(sp)

000000008000a5ec <i_10245>:
    8000a5ec:	11215083          	lhu	ra,274(sp)

000000008000a5f0 <i_10246>:
    8000a5f0:	00800b93          	li	s7,8

000000008000a5f4 <i_10247>:
    8000a5f4:	4173d9bb          	sraw	s3,t2,s7

000000008000a5f8 <i_10248>:
    8000a5f8:	0059c2b3          	xor	t0,s3,t0

000000008000a5fc <i_10249>:
    8000a5fc:	025be263          	bltu	s7,t0,8000a620 <i_10258>

000000008000a600 <i_10250>:
    8000a600:	017c6663          	bltu	s8,s7,8000a60c <i_10253>

000000008000a604 <i_10251>:
    8000a604:	f8813283          	ld	t0,-120(sp)

000000008000a608 <i_10252>:
    8000a608:	01813283          	ld	t0,24(sp)

000000008000a60c <i_10253>:
    8000a60c:	0379b1b3          	mulhu	gp,s3,s7

000000008000a610 <i_10254>:
    8000a610:	0346debb          	divuw	t4,a3,s4

000000008000a614 <i_10255>:
    8000a614:	fb811b83          	lh	s7,-72(sp)

000000008000a618 <i_10256>:
    8000a618:	18211a03          	lh	s4,386(sp)

000000008000a61c <i_10257>:
    8000a61c:	03de8bb3          	mul	s7,t4,t4

000000008000a620 <i_10258>:
    8000a620:	e5711223          	sh	s7,-444(sp)

000000008000a624 <i_10259>:
    8000a624:	ed710ca3          	sb	s7,-295(sp)

000000008000a628 <i_10260>:
    8000a628:	00000013          	nop

000000008000a62c <i_10261>:
    8000a62c:	73d00b93          	li	s7,1853

000000008000a630 <i_10262>:
    8000a630:	74700e93          	li	t4,1863

000000008000a634 <i_10263>:
    8000a634:	001b8b93          	addi	s7,s7,1 # ffffffffd4983001 <_end+0xffffffff54972bed>
    8000a638:	ff7edee3          	ble	s7,t4,8000a634 <i_10263>

000000008000a63c <i_10264>:
    8000a63c:	4011d19b          	sraiw	gp,gp,0x1

000000008000a640 <i_10265>:
    8000a640:	4041dd9b          	sraiw	s11,gp,0x4

000000008000a644 <i_10266>:
    8000a644:	037e9063          	bne	t4,s7,8000a664 <i_10274>

000000008000a648 <i_10267>:
    8000a648:	e4611503          	lh	a0,-442(sp)

000000008000a64c <i_10268>:
    8000a64c:	004fdb9b          	srliw	s7,t6,0x4

000000008000a650 <i_10269>:
    8000a650:	054103a3          	sb	s4,71(sp)

000000008000a654 <i_10270>:
    8000a654:	02a56263          	bltu	a0,a0,8000a678 <i_10279>

000000008000a658 <i_10271>:
    8000a658:	eeb14583          	lbu	a1,-277(sp)

000000008000a65c <i_10272>:
    8000a65c:	fb812303          	lw	t1,-72(sp)

000000008000a660 <i_10273>:
    8000a660:	8b1daa13          	slti	s4,s11,-1871

000000008000a664 <i_10274>:
    8000a664:	01b1ee63          	bltu	gp,s11,8000a680 <i_10281>

000000008000a668 <i_10275>:
    8000a668:	02ab853b          	mulw	a0,s7,a0

000000008000a66c <i_10276>:
    8000a66c:	00c12b83          	lw	s7,12(sp)

000000008000a670 <i_10277>:
    8000a670:	00b59463          	bne	a1,a1,8000a678 <i_10279>

000000008000a674 <i_10278>:
    8000a674:	037dd9b3          	divu	s3,s11,s7

000000008000a678 <i_10279>:
    8000a678:	e9813583          	ld	a1,-360(sp)

000000008000a67c <i_10280>:
    8000a67c:	00aed263          	ble	a0,t4,8000a680 <i_10281>

000000008000a680 <i_10281>:
    8000a680:	05614403          	lbu	s0,86(sp)

000000008000a684 <i_10282>:
    8000a684:	07012b83          	lw	s7,112(sp)

000000008000a688 <i_10283>:
    8000a688:	037be263          	bltu	s7,s7,8000a6ac <i_10292>

000000008000a68c <i_10284>:
    8000a68c:	689d8d93          	addi	s11,s11,1673

000000008000a690 <i_10285>:
    8000a690:	1f312223          	sw	s3,484(sp)

000000008000a694 <i_10286>:
    8000a694:	00647463          	bleu	t1,s0,8000a69c <i_10288>

000000008000a698 <i_10287>:
    8000a698:	00900393          	li	t2,9

000000008000a69c <i_10288>:
    8000a69c:	4079d9bb          	sraw	s3,s3,t2

000000008000a6a0 <i_10289>:
    8000a6a0:	00111423          	sh	ra,8(sp)

000000008000a6a4 <i_10290>:
    8000a6a4:	0049999b          	slliw	s3,s3,0x4

000000008000a6a8 <i_10291>:
    8000a6a8:	e2013503          	ld	a0,-480(sp)

000000008000a6ac <i_10292>:
    8000a6ac:	03600493          	li	s1,54

000000008000a6b0 <i_10293>:
    8000a6b0:	4099deb3          	sra	t4,s3,s1

000000008000a6b4 <i_10294>:
    8000a6b4:	00739663          	bne	t2,t2,8000a6c0 <i_10297>

000000008000a6b8 <i_10295>:
    8000a6b8:	0024de1b          	srliw	t3,s1,0x2

000000008000a6bc <i_10296>:
    8000a6bc:	029549b3          	div	s3,a0,s1

000000008000a6c0 <i_10297>:
    8000a6c0:	1d311e23          	sh	s3,476(sp)

000000008000a6c4 <i_10298>:
    8000a6c4:	0b312623          	sw	s3,172(sp)

000000008000a6c8 <i_10299>:
    8000a6c8:	00000013          	nop

000000008000a6cc <i_10300>:
    8000a6cc:	fd812503          	lw	a0,-40(sp)

000000008000a6d0 <i_10301>:
    8000a6d0:	7a000593          	li	a1,1952

000000008000a6d4 <i_10302>:
    8000a6d4:	7a900993          	li	s3,1961

000000008000a6d8 <i_10303>:
    8000a6d8:	d1206317          	auipc	t1,0xd1206

000000008000a6dc <i_10304>:
    8000a6dc:	00158593          	addi	a1,a1,1 # 78503001 <main-0x7afcfff>
    8000a6e0:	feb9dce3          	ble	a1,s3,8000a6d8 <i_10303>

000000008000a6e4 <i_10305>:
    8000a6e4:	ed613823          	sd	s6,-304(sp)

000000008000a6e8 <i_10306>:
    8000a6e8:	d5156213          	ori	tp,a0,-687

000000008000a6ec <i_10307>:
    8000a6ec:	e6411723          	sh	tp,-402(sp)

000000008000a6f0 <i_10308>:
    8000a6f0:	02b57063          	bleu	a1,a0,8000a710 <i_10316>

000000008000a6f4 <i_10309>:
    8000a6f4:	0fc12e03          	lw	t3,252(sp)

000000008000a6f8 <i_10310>:
    8000a6f8:	0b110ca3          	sb	a7,185(sp)

000000008000a6fc <i_10311>:
    8000a6fc:	f8f13c23          	sd	a5,-104(sp)

000000008000a700 <i_10312>:
    8000a700:	0049999b          	slliw	s3,s3,0x4

000000008000a704 <i_10313>:
    8000a704:	f8811503          	lh	a0,-120(sp)

000000008000a708 <i_10314>:
    8000a708:	e3f13c23          	sd	t6,-456(sp)

000000008000a70c <i_10315>:
    8000a70c:	17615983          	lhu	s3,374(sp)

000000008000a710 <i_10316>:
    8000a710:	00000013          	nop

000000008000a714 <i_10317>:
    8000a714:	f7311623          	sh	s3,-148(sp)

000000008000a718 <i_10318>:
    8000a718:	87500793          	li	a5,-1931

000000008000a71c <i_10319>:
    8000a71c:	88800413          	li	s0,-1912

000000008000a720 <i_10320>:
    8000a720:	01f9e9b3          	or	s3,s3,t6

000000008000a724 <i_10321>:
    8000a724:	08813183          	ld	gp,136(sp)

000000008000a728 <i_10322>:
    8000a728:	023659b3          	divu	s3,a2,gp

000000008000a72c <i_10323>:
    8000a72c:	00178793          	addi	a5,a5,1 # ffffffffb0c8c001 <_end+0xffffffff30c7bbed>
    8000a730:	fe87c8e3          	blt	a5,s0,8000a720 <i_10320>

000000008000a734 <i_10324>:
    8000a734:	0339c463          	blt	s3,s3,8000a75c <i_10334>

000000008000a738 <i_10325>:
    8000a738:	fe311323          	sh	gp,-26(sp)

000000008000a73c <i_10326>:
    8000a73c:	b3b1819b          	addiw	gp,gp,-1221

000000008000a740 <i_10327>:
    8000a740:	00000013          	nop

000000008000a744 <i_10328>:
    8000a744:	00000013          	nop

000000008000a748 <i_10329>:
    8000a748:	eb410523          	sb	s4,-342(sp)

000000008000a74c <i_10330>:
    8000a74c:	e5113823          	sd	a7,-432(sp)

000000008000a750 <i_10331>:
    8000a750:	1a013183          	ld	gp,416(sp)

000000008000a754 <i_10332>:
    8000a754:	034e42b3          	div	t0,t3,s4

000000008000a758 <i_10333>:
    8000a758:	fe812d83          	lw	s11,-24(sp)

000000008000a75c <i_10334>:
    8000a75c:	0340c83b          	divw	a6,ra,s4

000000008000a760 <i_10335>:
    8000a760:	e2815083          	lhu	ra,-472(sp)

000000008000a764 <i_10336>:
    8000a764:	8b600993          	li	s3,-1866

000000008000a768 <i_10337>:
    8000a768:	8c500a13          	li	s4,-1851

000000008000a76c <i_10338>:
    8000a76c:	00000013          	nop

000000008000a770 <i_10339>:
    8000a770:	0b0104a3          	sb	a6,169(sp)

000000008000a774 <i_10340>:
    8000a774:	01bd83b3          	add	t2,s11,s11

000000008000a778 <i_10341>:
    8000a778:	01d00793          	li	a5,29

000000008000a77c <i_10342>:
    8000a77c:	00f0ddbb          	srlw	s11,ra,a5

000000008000a780 <i_10343>:
    8000a780:	00198993          	addi	s3,s3,1
    8000a784:	ff49e4e3          	bltu	s3,s4,8000a76c <i_10338>

000000008000a788 <i_10344>:
    8000a788:	027a7063          	bleu	t2,s4,8000a7a8 <i_10352>

000000008000a78c <i_10345>:
    8000a78c:	021884b3          	mul	s1,a7,ra

000000008000a790 <i_10346>:
    8000a790:	0093c863          	blt	t2,s1,8000a7a0 <i_10350>

000000008000a794 <i_10347>:
    8000a794:	ee914083          	lbu	ra,-279(sp)

000000008000a798 <i_10348>:
    8000a798:	10c12483          	lw	s1,268(sp)

000000008000a79c <i_10349>:
    8000a79c:	3a53b5b7          	lui	a1,0x3a53b

000000008000a7a0 <i_10350>:
    8000a7a0:	1b313c23          	sd	s3,440(sp)

000000008000a7a4 <i_10351>:
    8000a7a4:	e8013583          	ld	a1,-384(sp)

000000008000a7a8 <i_10352>:
    8000a7a8:	002c5493          	srli	s1,s8,0x2

000000008000a7ac <i_10353>:
    8000a7ac:	1b013583          	ld	a1,432(sp)

000000008000a7b0 <i_10354>:
    8000a7b0:	ff54f193          	andi	gp,s1,-11

000000008000a7b4 <i_10355>:
    8000a7b4:	98f5a493          	slti	s1,a1,-1649

000000008000a7b8 <i_10356>:
    8000a7b8:	11215483          	lhu	s1,274(sp)

000000008000a7bc <i_10357>:
    8000a7bc:	fd014e03          	lbu	t3,-48(sp)

000000008000a7c0 <i_10358>:
    8000a7c0:	4034d41b          	sraiw	s0,s1,0x3

000000008000a7c4 <i_10359>:
    8000a7c4:	00d00493          	li	s1,13

000000008000a7c8 <i_10360>:
    8000a7c8:	409b57bb          	sraw	a5,s6,s1

000000008000a7cc <i_10361>:
    8000a7cc:	fe816583          	lwu	a1,-24(sp)

000000008000a7d0 <i_10362>:
    8000a7d0:	e5415483          	lhu	s1,-428(sp)

000000008000a7d4 <i_10363>:
    8000a7d4:	f4b11423          	sh	a1,-184(sp)

000000008000a7d8 <i_10364>:
    8000a7d8:	f0510583          	lb	a1,-251(sp)

000000008000a7dc <i_10365>:
    8000a7dc:	4de36413          	ori	s0,t1,1246

000000008000a7e0 <i_10366>:
    8000a7e0:	ceb48793          	addi	a5,s1,-789

000000008000a7e4 <i_10367>:
    8000a7e4:	f2f13423          	sd	a5,-216(sp)

000000008000a7e8 <i_10368>:
    8000a7e8:	ee910923          	sb	s1,-270(sp)

000000008000a7ec <i_10369>:
    8000a7ec:	01c11403          	lh	s0,28(sp)

000000008000a7f0 <i_10370>:
    8000a7f0:	09815503          	lhu	a0,152(sp)

000000008000a7f4 <i_10371>:
    8000a7f4:	09010783          	lb	a5,144(sp)

000000008000a7f8 <i_10372>:
    8000a7f8:	4019d99b          	sraiw	s3,s3,0x1

000000008000a7fc <i_10373>:
    8000a7fc:	ee911923          	sh	s1,-270(sp)

000000008000a800 <i_10374>:
    8000a800:	0284d433          	divu	s0,s1,s0

000000008000a804 <i_10375>:
    8000a804:	e8210283          	lb	t0,-382(sp)

000000008000a808 <i_10376>:
    8000a808:	75a00993          	li	s3,1882

000000008000a80c <i_10377>:
    8000a80c:	76500493          	li	s1,1893

000000008000a810 <i_10378>:
    8000a810:	03300393          	li	t2,51

000000008000a814 <i_10379>:
    8000a814:	007412b3          	sll	t0,s0,t2

000000008000a818 <i_10380>:
    8000a818:	0274a333          	mulhsu	t1,s1,t2

000000008000a81c <i_10381>:
    8000a81c:	0364643b          	remw	s0,s0,s6

000000008000a820 <i_10382>:
    8000a820:	00000013          	nop

000000008000a824 <i_10383>:
    8000a824:	e2c16083          	lwu	ra,-468(sp)

000000008000a828 <i_10384>:
    8000a828:	f1e15583          	lhu	a1,-226(sp)

000000008000a82c <i_10385>:
    8000a82c:	17713423          	sd	s7,360(sp)

000000008000a830 <i_10386>:
    8000a830:	00198993          	addi	s3,s3,1
    8000a834:	fc99cee3          	blt	s3,s1,8000a810 <i_10378>

000000008000a838 <i_10387>:
    8000a838:	04013b83          	ld	s7,64(sp)

000000008000a83c <i_10388>:
    8000a83c:	007404b3          	add	s1,s0,t2

000000008000a840 <i_10389>:
    8000a840:	0070d263          	ble	t2,ra,8000a844 <i_10390>

000000008000a844 <i_10390>:
    8000a844:	0b710223          	sb	s7,164(sp)

000000008000a848 <i_10391>:
    8000a848:	0173a3b3          	slt	t2,t2,s7

000000008000a84c <i_10392>:
    8000a84c:	029b8bbb          	mulw	s7,s7,s1

000000008000a850 <i_10393>:
    8000a850:	0b812803          	lw	a6,184(sp)

000000008000a854 <i_10394>:
    8000a854:	00000013          	nop

000000008000a858 <i_10395>:
    8000a858:	0377c83b          	divw	a6,a5,s7

000000008000a85c <i_10396>:
    8000a85c:	7f700293          	li	t0,2039

000000008000a860 <i_10397>:
    8000a860:	7f900b93          	li	s7,2041

000000008000a864 <i_10398>:
    8000a864:	f3611803          	lh	a6,-202(sp)

000000008000a868 <i_10399>:
    8000a868:	17816a03          	lwu	s4,376(sp)

000000008000a86c <i_10400>:
    8000a86c:	0348583b          	divuw	a6,a6,s4

000000008000a870 <i_10401>:
    8000a870:	e2013983          	ld	s3,-480(sp)

000000008000a874 <i_10402>:
    8000a874:	03a00513          	li	a0,58

000000008000a878 <i_10403>:
    8000a878:	00a85833          	srl	a6,a6,a0

000000008000a87c <i_10404>:
    8000a87c:	02a8d53b          	divuw	a0,a7,a0

000000008000a880 <i_10405>:
    8000a880:	f6816803          	lwu	a6,-152(sp)

000000008000a884 <i_10406>:
    8000a884:	f2a13823          	sd	a0,-208(sp)

000000008000a888 <i_10407>:
    8000a888:	0dc12383          	lw	t2,220(sp)

000000008000a88c <i_10408>:
    8000a88c:	76938513          	addi	a0,t2,1897

000000008000a890 <i_10409>:
    8000a890:	02ad0463          	beq	s10,a0,8000a8b8 <i_10418>

000000008000a894 <i_10410>:
    8000a894:	0270e1b3          	rem	gp,ra,t2

000000008000a898 <i_10411>:
    8000a898:	00128293          	addi	t0,t0,1
    8000a89c:	fc5bf4e3          	bleu	t0,s7,8000a864 <i_10398>

000000008000a8a0 <i_10412>:
    8000a8a0:	10a13423          	sd	a0,264(sp)

000000008000a8a4 <i_10413>:
    8000a8a4:	00718863          	beq	gp,t2,8000a8b4 <i_10417>

000000008000a8a8 <i_10414>:
    8000a8a8:	00a3e663          	bltu	t2,a0,8000a8b4 <i_10417>

000000008000a8ac <i_10415>:
    8000a8ac:	fc816303          	lwu	t1,-56(sp)

000000008000a8b0 <i_10416>:
    8000a8b0:	f8612423          	sw	t1,-120(sp)

000000008000a8b4 <i_10417>:
    8000a8b4:	00377e63          	bleu	gp,a4,8000a8d0 <i_10424>

000000008000a8b8 <i_10418>:
    8000a8b8:	17d13c23          	sd	t4,376(sp)

000000008000a8bc <i_10419>:
    8000a8bc:	0274543b          	divuw	s0,s0,t2

000000008000a8c0 <i_10420>:
    8000a8c0:	02835433          	divu	s0,t1,s0

000000008000a8c4 <i_10421>:
    8000a8c4:	16416403          	lwu	s0,356(sp)

000000008000a8c8 <i_10422>:
    8000a8c8:	001b9b93          	slli	s7,s7,0x1

000000008000a8cc <i_10423>:
    8000a8cc:	ecf10403          	lb	s0,-305(sp)

000000008000a8d0 <i_10424>:
    8000a8d0:	001bd413          	srli	s0,s7,0x1

000000008000a8d4 <i_10425>:
    8000a8d4:	028b9db3          	mulh	s11,s7,s0

000000008000a8d8 <i_10426>:
    8000a8d8:	7e0b8b93          	addi	s7,s7,2016

000000008000a8dc <i_10427>:
    8000a8dc:	0285753b          	remuw	a0,a0,s0

000000008000a8e0 <i_10428>:
    8000a8e0:	f6a10023          	sb	a0,-160(sp)

000000008000a8e4 <i_10429>:
    8000a8e4:	01045463          	ble	a6,s0,8000a8ec <i_10431>

000000008000a8e8 <i_10430>:
    8000a8e8:	001bd813          	srli	a6,s7,0x1

000000008000a8ec <i_10431>:
    8000a8ec:	0e812403          	lw	s0,232(sp)

000000008000a8f0 <i_10432>:
    8000a8f0:	02a56463          	bltu	a0,a0,8000a918 <i_10442>

000000008000a8f4 <i_10433>:
    8000a8f4:	fc012583          	lw	a1,-64(sp)

000000008000a8f8 <i_10434>:
    8000a8f8:	771e6313          	ori	t1,t3,1905

000000008000a8fc <i_10435>:
    8000a8fc:	565ee813          	ori	a6,t4,1381

000000008000a900 <i_10436>:
    8000a900:	03600a13          	li	s4,54

000000008000a904 <i_10437>:
    8000a904:	014550b3          	srl	ra,a0,s4

000000008000a908 <i_10438>:
    8000a908:	01246663          	bltu	s0,s2,8000a914 <i_10441>

000000008000a90c <i_10439>:
    8000a90c:	0b011e23          	sh	a6,188(sp)

000000008000a910 <i_10440>:
    8000a910:	1b811e83          	lh	t4,440(sp)

000000008000a914 <i_10441>:
    8000a914:	09c16e83          	lwu	t4,156(sp)

000000008000a918 <i_10442>:
    8000a918:	00bef263          	bleu	a1,t4,8000a91c <i_10443>

000000008000a91c <i_10443>:
    8000a91c:	024ef23b          	remuw	tp,t4,tp

000000008000a920 <i_10444>:
    8000a920:	290efe93          	andi	t4,t4,656

000000008000a924 <i_10445>:
    8000a924:	e6111823          	sh	ra,-400(sp)

000000008000a928 <i_10446>:
    8000a928:	4043d99b          	sraiw	s3,t2,0x4

000000008000a92c <i_10447>:
    8000a92c:	006089b3          	add	s3,ra,t1

000000008000a930 <i_10448>:
    8000a930:	82800393          	li	t2,-2008

000000008000a934 <i_10449>:
    8000a934:	83600093          	li	ra,-1994

000000008000a938 <i_10450>:
    8000a938:	00000013          	nop

000000008000a93c <i_10451>:
    8000a93c:	05d9f193          	andi	gp,s3,93

000000008000a940 <i_10452>:
    8000a940:	7ee00213          	li	tp,2030

000000008000a944 <i_10453>:
    8000a944:	7fc00313          	li	t1,2044

000000008000a948 <i_10454>:
    8000a948:	05f10e03          	lb	t3,95(sp)

000000008000a94c <i_10455>:
    8000a94c:	e22e4d93          	xori	s11,t3,-478

000000008000a950 <i_10456>:
    8000a950:	013989b3          	add	s3,s3,s3

000000008000a954 <i_10457>:
    8000a954:	00120213          	addi	tp,tp,1 # 1 <main-0x7fffffff>
    8000a958:	fe6248e3          	blt	tp,t1,8000a948 <i_10454>

000000008000a95c <i_10458>:
    8000a95c:	ed3105a3          	sb	s3,-309(sp)

000000008000a960 <i_10459>:
    8000a960:	0fc11c23          	sh	t3,248(sp)

000000008000a964 <i_10460>:
    8000a964:	00000013          	nop

000000008000a968 <i_10461>:
    8000a968:	03bd8463          	beq	s11,s11,8000a990 <i_10470>

000000008000a96c <i_10462>:
    8000a96c:	f8014303          	lbu	t1,-128(sp)

000000008000a970 <i_10463>:
    8000a970:	10613423          	sd	t1,264(sp)

000000008000a974 <i_10464>:
    8000a974:	00138393          	addi	t2,t2,1
    8000a978:	fc1390e3          	bne	t2,ra,8000a938 <i_10450>

000000008000a97c <i_10465>:
    8000a97c:	01a3ee63          	bltu	t2,s10,8000a998 <i_10472>

000000008000a980 <i_10466>:
    8000a980:	01d2fc63          	bleu	t4,t0,8000a998 <i_10472>

000000008000a984 <i_10467>:
    8000a984:	10914283          	lbu	t0,265(sp)

000000008000a988 <i_10468>:
    8000a988:	025e8ebb          	mulw	t4,t4,t0

000000008000a98c <i_10469>:
    8000a98c:	00528863          	beq	t0,t0,8000a99c <i_10473>

000000008000a990 <i_10470>:
    8000a990:	07814283          	lbu	t0,120(sp)

000000008000a994 <i_10471>:
    8000a994:	fdd11923          	sh	t4,-46(sp)

000000008000a998 <i_10472>:
    8000a998:	f5e10283          	lb	t0,-162(sp)

000000008000a99c <i_10473>:
    8000a99c:	f5910e03          	lb	t3,-167(sp)

000000008000a9a0 <i_10474>:
    8000a9a0:	003dde9b          	srliw	t4,s11,0x3

000000008000a9a4 <i_10475>:
    8000a9a4:	7e100513          	li	a0,2017

000000008000a9a8 <i_10476>:
    8000a9a8:	7f000293          	li	t0,2032

000000008000a9ac <i_10477>:
    8000a9ac:	00150513          	addi	a0,a0,1 # c1dde99d <_end+0x41dce589>
    8000a9b0:	fea2fee3          	bleu	a0,t0,8000a9ac <i_10477>

000000008000a9b4 <i_10478>:
    8000a9b4:	01cdc863          	blt	s11,t3,8000a9c4 <i_10482>

000000008000a9b8 <i_10479>:
    8000a9b8:	01d1e663          	bltu	gp,t4,8000a9c4 <i_10482>

000000008000a9bc <i_10480>:
    8000a9bc:	f1d13023          	sd	t4,-256(sp)

000000008000a9c0 <i_10481>:
    8000a9c0:	ffc12c23          	sw	t3,-8(sp)

000000008000a9c4 <i_10482>:
    8000a9c4:	1bc12d83          	lw	s11,444(sp)

000000008000a9c8 <i_10483>:
    8000a9c8:	02ae9263          	bne	t4,a0,8000a9ec <i_10492>

000000008000a9cc <i_10484>:
    8000a9cc:	09211503          	lh	a0,146(sp)

000000008000a9d0 <i_10485>:
    8000a9d0:	e7710803          	lb	a6,-393(sp)

000000008000a9d4 <i_10486>:
    8000a9d4:	03d51463          	bne	a0,t4,8000a9fc <i_10496>

000000008000a9d8 <i_10487>:
    8000a9d8:	02900813          	li	a6,41

000000008000a9dc <i_10488>:
    8000a9dc:	41085eb3          	sra	t4,a6,a6

000000008000a9e0 <i_10489>:
    8000a9e0:	c4c82813          	slti	a6,a6,-948

000000008000a9e4 <i_10490>:
    8000a9e4:	030549b3          	div	s3,a0,a6

000000008000a9e8 <i_10491>:
    8000a9e8:	03551533          	mulh	a0,a0,s5

000000008000a9ec <i_10492>:
    8000a9ec:	04a13423          	sd	a0,72(sp)

000000008000a9f0 <i_10493>:
    8000a9f0:	11312023          	sw	s3,256(sp)

000000008000a9f4 <i_10494>:
    8000a9f4:	0029d493          	srli	s1,s3,0x2

000000008000a9f8 <i_10495>:
    8000a9f8:	03ad8db3          	mul	s11,s11,s10

000000008000a9fc <i_10496>:
    8000a9fc:	05614983          	lbu	s3,86(sp)

000000008000aa00 <i_10497>:
    8000aa00:	f4013483          	ld	s1,-192(sp)

000000008000aa04 <i_10498>:
    8000aa04:	0a611d83          	lh	s11,166(sp)

000000008000aa08 <i_10499>:
    8000aa08:	f2016303          	lwu	t1,-224(sp)

000000008000aa0c <i_10500>:
    8000aa0c:	03b9c53b          	divw	a0,s3,s11

000000008000aa10 <i_10501>:
    8000aa10:	00635c63          	ble	t1,t1,8000aa28 <i_10507>

000000008000aa14 <i_10502>:
    8000aa14:	0d415303          	lhu	t1,212(sp)

000000008000aa18 <i_10503>:
    8000aa18:	4048599b          	sraiw	s3,a6,0x4

000000008000aa1c <i_10504>:
    8000aa1c:	01d327b3          	slt	a5,t1,t4

000000008000aa20 <i_10505>:
    8000aa20:	ea211783          	lh	a5,-350(sp)

000000008000aa24 <i_10506>:
    8000aa24:	02651263          	bne	a0,t1,8000aa48 <i_10515>

000000008000aa28 <i_10507>:
    8000aa28:	58d23213          	sltiu	tp,tp,1421

000000008000aa2c <i_10508>:
    8000aa2c:	eca10923          	sb	a0,-302(sp)

000000008000aa30 <i_10509>:
    8000aa30:	fa012a03          	lw	s4,-96(sp)

000000008000aa34 <i_10510>:
    8000aa34:	0013131b          	slliw	t1,t1,0x1

000000008000aa38 <i_10511>:
    8000aa38:	ea215d83          	lhu	s11,-350(sp)

000000008000aa3c <i_10512>:
    8000aa3c:	ee812d83          	lw	s11,-280(sp)

000000008000aa40 <i_10513>:
    8000aa40:	f4611d23          	sh	t1,-166(sp)

000000008000aa44 <i_10514>:
    8000aa44:	ead14b83          	lbu	s7,-339(sp)

000000008000aa48 <i_10515>:
    8000aa48:	e2611123          	sh	t1,-478(sp)

000000008000aa4c <i_10516>:
    8000aa4c:	12c16083          	lwu	ra,300(sp)

000000008000aa50 <i_10517>:
    8000aa50:	86e00d93          	li	s11,-1938

000000008000aa54 <i_10518>:
    8000aa54:	87200313          	li	t1,-1934

000000008000aa58 <i_10519>:
    8000aa58:	01b31e63          	bne	t1,s11,8000aa74 <i_10526>

000000008000aa5c <i_10520>:
    8000aa5c:	986d8a13          	addi	s4,s11,-1658

000000008000aa60 <i_10521>:
    8000aa60:	01ba2e33          	slt	t3,s4,s11

000000008000aa64 <i_10522>:
    8000aa64:	07415b83          	lhu	s7,116(sp)

000000008000aa68 <i_10523>:
    8000aa68:	00000013          	nop

000000008000aa6c <i_10524>:
    8000aa6c:	0010d863          	ble	ra,ra,8000aa7c <i_10528>

000000008000aa70 <i_10525>:
    8000aa70:	01cdea63          	bltu	s11,t3,8000aa84 <i_10530>

000000008000aa74 <i_10526>:
    8000aa74:	0f416283          	lwu	t0,244(sp)

000000008000aa78 <i_10527>:
    8000aa78:	18812a03          	lw	s4,392(sp)

000000008000aa7c <i_10528>:
    8000aa7c:	e6013203          	ld	tp,-416(sp)

000000008000aa80 <i_10529>:
    8000aa80:	b12bab93          	slti	s7,s7,-1262

000000008000aa84 <i_10530>:
    8000aa84:	00000013          	nop

000000008000aa88 <i_10531>:
    8000aa88:	001a69b3          	or	s3,s4,ra

000000008000aa8c <i_10532>:
    8000aa8c:	013bb7b3          	sltu	a5,s7,s3

000000008000aa90 <i_10533>:
    8000aa90:	001d8d93          	addi	s11,s11,1
    8000aa94:	fdb372e3          	bleu	s11,t1,8000aa58 <i_10519>

000000008000aa98 <i_10534>:
    8000aa98:	03bbe063          	bltu	s7,s11,8000aab8 <i_10542>

000000008000aa9c <i_10535>:
    8000aa9c:	e8812b83          	lw	s7,-376(sp)

000000008000aaa0 <i_10536>:
    8000aaa0:	00000013          	nop

000000008000aaa4 <i_10537>:
    8000aaa4:	00000013          	nop

000000008000aaa8 <i_10538>:
    8000aaa8:	08610483          	lb	s1,134(sp)

000000008000aaac <i_10539>:
    8000aaac:	0e110483          	lb	s1,225(sp)

000000008000aab0 <i_10540>:
    8000aab0:	0eb10583          	lb	a1,235(sp)

000000008000aab4 <i_10541>:
    8000aab4:	00c00a13          	li	s4,12

000000008000aab8 <i_10542>:
    8000aab8:	0144d1b3          	srl	gp,s1,s4

000000008000aabc <i_10543>:
    8000aabc:	00c16483          	lwu	s1,12(sp)

000000008000aac0 <i_10544>:
    8000aac0:	81700b93          	li	s7,-2025

000000008000aac4 <i_10545>:
    8000aac4:	82900d93          	li	s11,-2007

000000008000aac8 <i_10546>:
    8000aac8:	f8a10383          	lb	t2,-118(sp)

000000008000aacc <i_10547>:
    8000aacc:	fec16a03          	lwu	s4,-20(sp)

000000008000aad0 <i_10548>:
    8000aad0:	0e013383          	ld	t2,224(sp)

000000008000aad4 <i_10549>:
    8000aad4:	f9310e83          	lb	t4,-109(sp)

000000008000aad8 <i_10550>:
    8000aad8:	03d12e23          	sw	t4,60(sp)

000000008000aadc <i_10551>:
    8000aadc:	0273e263          	bltu	t2,t2,8000ab00 <i_10559>

000000008000aae0 <i_10552>:
    8000aae0:	16013e83          	ld	t4,352(sp)

000000008000aae4 <i_10553>:
    8000aae4:	4013d313          	srai	t1,t2,0x1

000000008000aae8 <i_10554>:
    8000aae8:	18013783          	ld	a5,384(sp)

000000008000aaec <i_10555>:
    8000aaec:	001b8b93          	addi	s7,s7,1
    8000aaf0:	fd7ddce3          	ble	s7,s11,8000aac8 <i_10546>

000000008000aaf4 <i_10556>:
    8000aaf4:	ed415283          	lhu	t0,-300(sp)

000000008000aaf8 <i_10557>:
    8000aaf8:	e6910b83          	lb	s7,-407(sp)

000000008000aafc <i_10558>:
    8000aafc:	ab128393          	addi	t2,t0,-1359

000000008000ab00 <i_10559>:
    8000ab00:	00000013          	nop

000000008000ab04 <i_10560>:
    8000ab04:	eec16803          	lwu	a6,-276(sp)

000000008000ab08 <i_10561>:
    8000ab08:	7f200393          	li	t2,2034

000000008000ab0c <i_10562>:
    8000ab0c:	7ff00293          	li	t0,2047

000000008000ab10 <i_10563>:
    8000ab10:	03b14083          	lbu	ra,59(sp)

000000008000ab14 <i_10564>:
    8000ab14:	00000013          	nop

000000008000ab18 <i_10565>:
    8000ab18:	00138393          	addi	t2,t2,1
    8000ab1c:	fe539ae3          	bne	t2,t0,8000ab10 <i_10563>

000000008000ab20 <i_10566>:
    8000ab20:	4da5a593          	slti	a1,a1,1242

000000008000ab24 <i_10567>:
    8000ab24:	05d13023          	sd	t4,64(sp)

000000008000ab28 <i_10568>:
    8000ab28:	0215d263          	ble	ra,a1,8000ab4c <i_10577>

000000008000ab2c <i_10569>:
    8000ab2c:	02b5f5bb          	remuw	a1,a1,a1

000000008000ab30 <i_10570>:
    8000ab30:	6117879b          	addiw	a5,a5,1553

000000008000ab34 <i_10571>:
    8000ab34:	01900593          	li	a1,25

000000008000ab38 <i_10572>:
    8000ab38:	40b5d5bb          	sraw	a1,a1,a1

000000008000ab3c <i_10573>:
    8000ab3c:	0355b0b3          	mulhu	ra,a1,s5

000000008000ab40 <i_10574>:
    8000ab40:	0b615983          	lhu	s3,182(sp)

000000008000ab44 <i_10575>:
    8000ab44:	04412583          	lw	a1,68(sp)

000000008000ab48 <i_10576>:
    8000ab48:	02bde263          	bltu	s11,a1,8000ab6c <i_10585>

000000008000ab4c <i_10577>:
    8000ab4c:	00633333          	sltu	t1,t1,t1

000000008000ab50 <i_10578>:
    8000ab50:	f9510283          	lb	t0,-107(sp)

000000008000ab54 <i_10579>:
    8000ab54:	0a613423          	sd	t1,168(sp)

000000008000ab58 <i_10580>:
    8000ab58:	00632333          	slt	t1,t1,t1

000000008000ab5c <i_10581>:
    8000ab5c:	02934063          	blt	t1,s1,8000ab7c <i_10589>

000000008000ab60 <i_10582>:
    8000ab60:	04510523          	sb	t0,74(sp)

000000008000ab64 <i_10583>:
    8000ab64:	00000013          	nop

000000008000ab68 <i_10584>:
    8000ab68:	0034d393          	srli	t2,s1,0x3

000000008000ab6c <i_10585>:
    8000ab6c:	0257e7bb          	remw	a5,a5,t0

000000008000ab70 <i_10586>:
    8000ab70:	ef813983          	ld	s3,-264(sp)

000000008000ab74 <i_10587>:
    8000ab74:	00200593          	li	a1,2

000000008000ab78 <i_10588>:
    8000ab78:	00bdde33          	srl	t3,s11,a1

000000008000ab7c <i_10589>:
    8000ab7c:	00fb8bb3          	add	s7,s7,a5

000000008000ab80 <i_10590>:
    8000ab80:	0af10303          	lb	t1,175(sp)

000000008000ab84 <i_10591>:
    8000ab84:	81f00493          	li	s1,-2017

000000008000ab88 <i_10592>:
    8000ab88:	82e00293          	li	t0,-2002

000000008000ab8c <i_10593>:
    8000ab8c:	00148493          	addi	s1,s1,1
    8000ab90:	fe92dee3          	ble	s1,t0,8000ab8c <i_10593>

000000008000ab94 <i_10594>:
    8000ab94:	c92195b7          	lui	a1,0xc9219

000000008000ab98 <i_10595>:
    8000ab98:	00f4b4b3          	sltu	s1,s1,a5

000000008000ab9c <i_10596>:
    8000ab9c:	fac14403          	lbu	s0,-84(sp)

000000008000aba0 <i_10597>:
    8000aba0:	013be463          	bltu	s7,s3,8000aba8 <i_10599>

000000008000aba4 <i_10598>:
    8000aba4:	0176da63          	ble	s7,a3,8000abb8 <i_10603>

000000008000aba8 <i_10599>:
    8000aba8:	02b5c9bb          	divw	s3,a1,a1

000000008000abac <i_10600>:
    8000abac:	1da10283          	lb	t0,474(sp)

000000008000abb0 <i_10601>:
    8000abb0:	f5e14803          	lbu	a6,-162(sp)

000000008000abb4 <i_10602>:
    8000abb4:	10010583          	lb	a1,256(sp)

000000008000abb8 <i_10603>:
    8000abb8:	abc86093          	ori	ra,a6,-1348

000000008000abbc <i_10604>:
    8000abbc:	0335b833          	mulhu	a6,a1,s3

000000008000abc0 <i_10605>:
    8000abc0:	e6c12803          	lw	a6,-404(sp)

000000008000abc4 <i_10606>:
    8000abc4:	08813a03          	ld	s4,136(sp)

000000008000abc8 <i_10607>:
    8000abc8:	158103a3          	sb	s8,327(sp)

000000008000abcc <i_10608>:
    8000abcc:	7b000093          	li	ra,1968

000000008000abd0 <i_10609>:
    8000abd0:	7bf00813          	li	a6,1983

000000008000abd4 <i_10610>:
    8000abd4:	00400a13          	li	s4,4

000000008000abd8 <i_10611>:
    8000abd8:	01485a3b          	srlw	s4,a6,s4

000000008000abdc <i_10612>:
    8000abdc:	fd012823          	sw	a6,-48(sp)

000000008000abe0 <i_10613>:
    8000abe0:	03485433          	divu	s0,a6,s4

000000008000abe4 <i_10614>:
    8000abe4:	18a15383          	lhu	t2,394(sp)

000000008000abe8 <i_10615>:
    8000abe8:	00108093          	addi	ra,ra,1 # 588d9161 <main-0x27726e9f>
    8000abec:	fe1874e3          	bleu	ra,a6,8000abd4 <i_10610>

000000008000abf0 <i_10616>:
    8000abf0:	00000013          	nop

000000008000abf4 <i_10617>:
    8000abf4:	f1611583          	lh	a1,-234(sp)

000000008000abf8 <i_10618>:
    8000abf8:	e7411a03          	lh	s4,-396(sp)

000000008000abfc <i_10619>:
    8000abfc:	00300593          	li	a1,3

000000008000ac00 <i_10620>:
    8000ac00:	00ba153b          	sllw	a0,s4,a1

000000008000ac04 <i_10621>:
    8000ac04:	003ed99b          	srliw	s3,t4,0x3

000000008000ac08 <i_10622>:
    8000ac08:	01100593          	li	a1,17

000000008000ac0c <i_10623>:
    8000ac0c:	00b5553b          	srlw	a0,a0,a1

000000008000ac10 <i_10624>:
    8000ac10:	13412283          	lw	t0,308(sp)

000000008000ac14 <i_10625>:
    8000ac14:	00b5e863          	bltu	a1,a1,8000ac24 <i_10629>

000000008000ac18 <i_10626>:
    8000ac18:	fc513423          	sd	t0,-56(sp)

000000008000ac1c <i_10627>:
    8000ac1c:	02500213          	li	tp,37

000000008000ac20 <i_10628>:
    8000ac20:	4042d2b3          	sra	t0,t0,tp

000000008000ac24 <i_10629>:
    8000ac24:	fd75e293          	ori	t0,a1,-41

000000008000ac28 <i_10630>:
    8000ac28:	f5412583          	lw	a1,-172(sp)

000000008000ac2c <i_10631>:
    8000ac2c:	0045e0b3          	or	ra,a1,tp

000000008000ac30 <i_10632>:
    8000ac30:	eac12583          	lw	a1,-340(sp)

000000008000ac34 <i_10633>:
    8000ac34:	1a413c23          	sd	tp,440(sp)

000000008000ac38 <i_10634>:
    8000ac38:	03828263          	beq	t0,s8,8000ac5c <i_10643>

000000008000ac3c <i_10635>:
    8000ac3c:	1a710983          	lb	s3,423(sp)

000000008000ac40 <i_10636>:
    8000ac40:	e8512a23          	sw	t0,-364(sp)

000000008000ac44 <i_10637>:
    8000ac44:	1e215e03          	lhu	t3,482(sp)

000000008000ac48 <i_10638>:
    8000ac48:	01200293          	li	t0,18

000000008000ac4c <i_10639>:
    8000ac4c:	4052de3b          	sraw	t3,t0,t0

000000008000ac50 <i_10640>:
    8000ac50:	ea210983          	lb	s3,-350(sp)

000000008000ac54 <i_10641>:
    8000ac54:	f8511923          	sh	t0,-110(sp)

000000008000ac58 <i_10642>:
    8000ac58:	0039d79b          	srliw	a5,s3,0x3

000000008000ac5c <i_10643>:
    8000ac5c:	f3813083          	ld	ra,-200(sp)

000000008000ac60 <i_10644>:
    8000ac60:	01377463          	bleu	s3,a4,8000ac68 <i_10646>

000000008000ac64 <i_10645>:
    8000ac64:	e6812283          	lw	t0,-408(sp)

000000008000ac68 <i_10646>:
    8000ac68:	02111123          	sh	ra,34(sp)

000000008000ac6c <i_10647>:
    8000ac6c:	00000013          	nop

000000008000ac70 <i_10648>:
    8000ac70:	e9c12783          	lw	a5,-356(sp)

000000008000ac74 <i_10649>:
    8000ac74:	84200393          	li	t2,-1982

000000008000ac78 <i_10650>:
    8000ac78:	84c00a13          	li	s4,-1972

000000008000ac7c <i_10651>:
    8000ac7c:	e8812e03          	lw	t3,-376(sp)

000000008000ac80 <i_10652>:
    8000ac80:	01c38a63          	beq	t2,t3,8000ac94 <i_10656>

000000008000ac84 <i_10653>:
    8000ac84:	00138393          	addi	t2,t2,1
    8000ac88:	fe7a5ae3          	ble	t2,s4,8000ac7c <i_10651>

000000008000ac8c <i_10654>:
    8000ac8c:	14c54997          	auipc	s3,0x14c54

000000008000ac90 <i_10655>:
    8000ac90:	03487233          	remu	tp,a6,s4

000000008000ac94 <i_10656>:
    8000ac94:	19c11e23          	sh	t3,412(sp)

000000008000ac98 <i_10657>:
    8000ac98:	c39a4a13          	xori	s4,s4,-967

000000008000ac9c <i_10658>:
    8000ac9c:	e2812e83          	lw	t4,-472(sp)

000000008000aca0 <i_10659>:
    8000aca0:	01028663          	beq	t0,a6,8000acac <i_10662>

000000008000aca4 <i_10660>:
    8000aca4:	014ed663          	ble	s4,t4,8000acb0 <i_10663>

000000008000aca8 <i_10661>:
    8000aca8:	00a23233          	sltu	tp,tp,a0

000000008000acac <i_10662>:
    8000acac:	0c111323          	sh	ra,198(sp)

000000008000acb0 <i_10663>:
    8000acb0:	571e3837          	lui	a6,0x571e3

000000008000acb4 <i_10664>:
    8000acb4:	19d13c23          	sd	t4,408(sp)

000000008000acb8 <i_10665>:
    8000acb8:	74500093          	li	ra,1861

000000008000acbc <i_10666>:
    8000acbc:	75600e93          	li	t4,1878

000000008000acc0 <i_10667>:
    8000acc0:	05d11123          	sh	t4,66(sp)

000000008000acc4 <i_10668>:
    8000acc4:	e7d13c23          	sd	t4,-392(sp)

000000008000acc8 <i_10669>:
    8000acc8:	01087a63          	bleu	a6,a6,8000acdc <i_10674>

000000008000accc <i_10670>:
    8000accc:	efd13823          	sd	t4,-272(sp)

000000008000acd0 <i_10671>:
    8000acd0:	00c85263          	ble	a2,a6,8000acd4 <i_10672>

000000008000acd4 <i_10672>:
    8000acd4:	00000013          	nop

000000008000acd8 <i_10673>:
    8000acd8:	f4215483          	lhu	s1,-190(sp)

000000008000acdc <i_10674>:
    8000acdc:	7bcdad93          	slti	s11,s11,1980

000000008000ace0 <i_10675>:
    8000ace0:	03afc3bb          	divw	t2,t6,s10

000000008000ace4 <i_10676>:
    8000ace4:	03bdd43b          	divuw	s0,s11,s11

000000008000ace8 <i_10677>:
    8000ace8:	00108093          	addi	ra,ra,1
    8000acec:	fdd0cae3          	blt	ra,t4,8000acc0 <i_10667>

000000008000acf0 <i_10678>:
    8000acf0:	e3a11d83          	lh	s11,-454(sp)

000000008000acf4 <i_10679>:
    8000acf4:	12610d83          	lb	s11,294(sp)

000000008000acf8 <i_10680>:
    8000acf8:	403dd31b          	sraiw	t1,s11,0x3

000000008000acfc <i_10681>:
    8000acfc:	00145413          	srli	s0,s0,0x1

000000008000ad00 <i_10682>:
    8000ad00:	01bdc663          	blt	s11,s11,8000ad0c <i_10685>

000000008000ad04 <i_10683>:
    8000ad04:	0063fc63          	bleu	t1,t2,8000ad1c <i_10689>

000000008000ad08 <i_10684>:
    8000ad08:	60e3c193          	xori	gp,t2,1550

000000008000ad0c <i_10685>:
    8000ad0c:	0264743b          	remuw	s0,s0,t1

000000008000ad10 <i_10686>:
    8000ad10:	0121e863          	bltu	gp,s2,8000ad20 <i_10690>

000000008000ad14 <i_10687>:
    8000ad14:	40640433          	sub	s0,s0,t1

000000008000ad18 <i_10688>:
    8000ad18:	0273a9b3          	mulhsu	s3,t2,t2

000000008000ad1c <i_10689>:
    8000ad1c:	14c16783          	lwu	a5,332(sp)

000000008000ad20 <i_10690>:
    8000ad20:	00f98a63          	beq	s3,a5,8000ad34 <i_10695>

000000008000ad24 <i_10691>:
    8000ad24:	005429b3          	slt	s3,s0,t0

000000008000ad28 <i_10692>:
    8000ad28:	1b410183          	lb	gp,436(sp)

000000008000ad2c <i_10693>:
    8000ad2c:	028352b3          	divu	t0,t1,s0

000000008000ad30 <i_10694>:
    8000ad30:	01f9fe63          	bleu	t6,s3,8000ad4c <i_10701>

000000008000ad34 <i_10695>:
    8000ad34:	3611e193          	ori	gp,gp,865

000000008000ad38 <i_10696>:
    8000ad38:	195108a3          	sb	s5,401(sp)

000000008000ad3c <i_10697>:
    8000ad3c:	0279d063          	ble	t2,s3,8000ad5c <i_10705>

000000008000ad40 <i_10698>:
    8000ad40:	1a713423          	sd	t2,424(sp)

000000008000ad44 <i_10699>:
    8000ad44:	00396663          	bltu	s2,gp,8000ad50 <i_10702>

000000008000ad48 <i_10700>:
    8000ad48:	f7013783          	ld	a5,-144(sp)

000000008000ad4c <i_10701>:
    8000ad4c:	0089d463          	ble	s0,s3,8000ad54 <i_10703>

000000008000ad50 <i_10702>:
    8000ad50:	8fb9859b          	addiw	a1,s3,-1797

000000008000ad54 <i_10703>:
    8000ad54:	e8415403          	lhu	s0,-380(sp)

000000008000ad58 <i_10704>:
    8000ad58:	00600513          	li	a0,6

000000008000ad5c <i_10705>:
    8000ad5c:	40a1d533          	sra	a0,gp,a0

000000008000ad60 <i_10706>:
    8000ad60:	d7b5a193          	slti	gp,a1,-645

000000008000ad64 <i_10707>:
    8000ad64:	f3f14403          	lbu	s0,-193(sp)

000000008000ad68 <i_10708>:
    8000ad68:	0081ea63          	bltu	gp,s0,8000ad7c <i_10713>

000000008000ad6c <i_10709>:
    8000ad6c:	eca12423          	sw	a0,-312(sp)

000000008000ad70 <i_10710>:
    8000ad70:	00356463          	bltu	a0,gp,8000ad78 <i_10712>

000000008000ad74 <i_10711>:
    8000ad74:	69417393          	andi	t2,sp,1684

000000008000ad78 <i_10712>:
    8000ad78:	00741a63          	bne	s0,t2,8000ad8c <i_10717>

000000008000ad7c <i_10713>:
    8000ad7c:	00800393          	li	t2,8

000000008000ad80 <i_10714>:
    8000ad80:	407657b3          	sra	a5,a2,t2

000000008000ad84 <i_10715>:
    8000ad84:	0073c5b3          	xor	a1,t2,t2

000000008000ad88 <i_10716>:
    8000ad88:	0045951b          	slliw	a0,a1,0x4

000000008000ad8c <i_10717>:
    8000ad8c:	ee812b83          	lw	s7,-280(sp)

000000008000ad90 <i_10718>:
    8000ad90:	01900413          	li	s0,25

000000008000ad94 <i_10719>:
    8000ad94:	008555b3          	srl	a1,a0,s0

000000008000ad98 <i_10720>:
    8000ad98:	07412d83          	lw	s11,116(sp)

000000008000ad9c <i_10721>:
    8000ad9c:	03b175b3          	remu	a1,sp,s11

000000008000ada0 <i_10722>:
    8000ada0:	01b47463          	bleu	s11,s0,8000ada8 <i_10724>

000000008000ada4 <i_10723>:
    8000ada4:	01b45e63          	ble	s11,s0,8000adc0 <i_10730>

000000008000ada8 <i_10724>:
    8000ada8:	01b5dc63          	ble	s11,a1,8000adc0 <i_10730>

000000008000adac <i_10725>:
    8000adac:	05e15783          	lhu	a5,94(sp)

000000008000adb0 <i_10726>:
    8000adb0:	f8f10e23          	sb	a5,-100(sp)

000000008000adb4 <i_10727>:
    8000adb4:	003ddd93          	srli	s11,s11,0x3

000000008000adb8 <i_10728>:
    8000adb8:	03b7d063          	ble	s11,a5,8000add8 <i_10736>

000000008000adbc <i_10729>:
    8000adbc:	03c7fe3b          	remuw	t3,a5,t3

000000008000adc0 <i_10730>:
    8000adc0:	02b99bb3          	mulh	s7,s3,a1

000000008000adc4 <i_10731>:
    8000adc4:	c6ec89b7          	lui	s3,0xc6ec8

000000008000adc8 <i_10732>:
    8000adc8:	c7c9ae13          	slti	t3,s3,-900

000000008000adcc <i_10733>:
    8000adcc:	00fe6863          	bltu	t3,a5,8000addc <i_10737>

000000008000add0 <i_10734>:
    8000add0:	413b82bb          	subw	t0,s7,s3

000000008000add4 <i_10735>:
    8000add4:	0b214283          	lbu	t0,178(sp)

000000008000add8 <i_10736>:
    8000add8:	03bbd5bb          	divuw	a1,s7,s11

000000008000addc <i_10737>:
    8000addc:	f4a11483          	lh	s1,-182(sp)

000000008000ade0 <i_10738>:
    8000ade0:	fc510223          	sb	t0,-60(sp)

000000008000ade4 <i_10739>:
    8000ade4:	16f12423          	sw	a5,360(sp)

000000008000ade8 <i_10740>:
    8000ade8:	1b712623          	sw	s7,428(sp)

000000008000adec <i_10741>:
    8000adec:	15d10803          	lb	a6,349(sp)

000000008000adf0 <i_10742>:
    8000adf0:	409287b3          	sub	a5,t0,s1

000000008000adf4 <i_10743>:
    8000adf4:	00f4f463          	bleu	a5,s1,8000adfc <i_10745>

000000008000adf8 <i_10744>:
    8000adf8:	02fcf063          	bleu	a5,s9,8000ae18 <i_10752>

000000008000adfc <i_10745>:
    8000adfc:	f4f10d23          	sb	a5,-166(sp)

000000008000ae00 <i_10746>:
    8000ae00:	89cfb493          	sltiu	s1,t6,-1892

000000008000ae04 <i_10747>:
    8000ae04:	07f14803          	lbu	a6,127(sp)

000000008000ae08 <i_10748>:
    8000ae08:	11012223          	sw	a6,260(sp)

000000008000ae0c <i_10749>:
    8000ae0c:	fe510803          	lb	a6,-27(sp)

000000008000ae10 <i_10750>:
    8000ae10:	f0e11783          	lh	a5,-242(sp)

000000008000ae14 <i_10751>:
    8000ae14:	02f55833          	divu	a6,a0,a5

000000008000ae18 <i_10752>:
    8000ae18:	03282793          	slti	a5,a6,50

000000008000ae1c <i_10753>:
    8000ae1c:	0bc10183          	lb	gp,188(sp)

000000008000ae20 <i_10754>:
    8000ae20:	09011523          	sh	a6,138(sp)

000000008000ae24 <i_10755>:
    8000ae24:	f8313c23          	sd	gp,-104(sp)

000000008000ae28 <i_10756>:
    8000ae28:	00f1da63          	ble	a5,gp,8000ae3c <i_10761>

000000008000ae2c <i_10757>:
    8000ae2c:	0be11183          	lh	gp,190(sp)

000000008000ae30 <i_10758>:
    8000ae30:	0038581b          	srliw	a6,a6,0x3

000000008000ae34 <i_10759>:
    8000ae34:	1a110183          	lb	gp,417(sp)

000000008000ae38 <i_10760>:
    8000ae38:	00000013          	nop

000000008000ae3c <i_10761>:
    8000ae3c:	e7a10983          	lb	s3,-390(sp)

000000008000ae40 <i_10762>:
    8000ae40:	e3415183          	lhu	gp,-460(sp)

000000008000ae44 <i_10763>:
    8000ae44:	7ca00413          	li	s0,1994

000000008000ae48 <i_10764>:
    8000ae48:	7dc00a13          	li	s4,2012

000000008000ae4c <i_10765>:
    8000ae4c:	f1811b83          	lh	s7,-232(sp)

000000008000ae50 <i_10766>:
    8000ae50:	05312223          	sw	s3,68(sp)

000000008000ae54 <i_10767>:
    8000ae54:	e3011923          	sh	a6,-462(sp)

000000008000ae58 <i_10768>:
    8000ae58:	18214e03          	lbu	t3,386(sp)

000000008000ae5c <i_10769>:
    8000ae5c:	05d14983          	lbu	s3,93(sp)

000000008000ae60 <i_10770>:
    8000ae60:	0b710aa3          	sb	s7,181(sp)

000000008000ae64 <i_10771>:
    8000ae64:	15215e03          	lhu	t3,338(sp)

000000008000ae68 <i_10772>:
    8000ae68:	00000013          	nop

000000008000ae6c <i_10773>:
    8000ae6c:	11014e03          	lbu	t3,272(sp)

000000008000ae70 <i_10774>:
    8000ae70:	03c5e663          	bltu	a1,t3,8000ae9c <i_10784>

000000008000ae74 <i_10775>:
    8000ae74:	00140413          	addi	s0,s0,1
    8000ae78:	fd444ae3          	blt	s0,s4,8000ae4c <i_10765>

000000008000ae7c <i_10776>:
    8000ae7c:	01ce1a63          	bne	t3,t3,8000ae90 <i_10781>

000000008000ae80 <i_10777>:
    8000ae80:	e73104a3          	sb	s3,-407(sp)

000000008000ae84 <i_10778>:
    8000ae84:	00de6e63          	bltu	t3,a3,8000aea0 <i_10785>

000000008000ae88 <i_10779>:
    8000ae88:	fb512823          	sw	s5,-80(sp)

000000008000ae8c <i_10780>:
    8000ae8c:	18f14983          	lbu	s3,399(sp)

000000008000ae90 <i_10781>:
    8000ae90:	1a110023          	sb	ra,416(sp)

000000008000ae94 <i_10782>:
    8000ae94:	eb016983          	lwu	s3,-336(sp)

000000008000ae98 <i_10783>:
    8000ae98:	f8b10283          	lb	t0,-117(sp)

000000008000ae9c <i_10784>:
    8000ae9c:	5ddfde37          	lui	t3,0x5ddfd

000000008000aea0 <i_10785>:
    8000aea0:	0132da63          	ble	s3,t0,8000aeb4 <i_10790>

000000008000aea4 <i_10786>:
    8000aea4:	03ce3e33          	mulhu	t3,t3,t3

000000008000aea8 <i_10787>:
    8000aea8:	005e6e63          	bltu	t3,t0,8000aec4 <i_10794>

000000008000aeac <i_10788>:
    8000aeac:	0259b9b3          	mulhu	s3,s3,t0

000000008000aeb0 <i_10789>:
    8000aeb0:	0c416a03          	lwu	s4,196(sp)

000000008000aeb4 <i_10790>:
    8000aeb4:	55aa3493          	sltiu	s1,s4,1370

000000008000aeb8 <i_10791>:
    8000aeb8:	e5c11823          	sh	t3,-432(sp)

000000008000aebc <i_10792>:
    8000aebc:	f6815183          	lhu	gp,-152(sp)

000000008000aec0 <i_10793>:
    8000aec0:	0018d793          	srli	a5,a7,0x1

000000008000aec4 <i_10794>:
    8000aec4:	00000013          	nop

000000008000aec8 <i_10795>:
    8000aec8:	00000013          	nop

000000008000aecc <i_10796>:
    8000aecc:	80300e13          	li	t3,-2045

000000008000aed0 <i_10797>:
    8000aed0:	80f00213          	li	tp,-2033

000000008000aed4 <i_10798>:
    8000aed4:	65ee2413          	slti	s0,t3,1630

000000008000aed8 <i_10799>:
    8000aed8:	0289833b          	mulw	t1,s3,s0

000000008000aedc <i_10800>:
    8000aedc:	12913c23          	sd	s1,312(sp)

000000008000aee0 <i_10801>:
    8000aee0:	001e0e13          	addi	t3,t3,1 # 5ddfd001 <main-0x22202fff>
    8000aee4:	fe4e48e3          	blt	t3,tp,8000aed4 <i_10798>

000000008000aee8 <i_10802>:
    8000aee8:	0022de13          	srli	t3,t0,0x2

000000008000aeec <i_10803>:
    8000aeec:	0097e7b3          	or	a5,a5,s1

000000008000aef0 <i_10804>:
    8000aef0:	ee012a03          	lw	s4,-288(sp)

000000008000aef4 <i_10805>:
    8000aef4:	f2613023          	sd	t1,-224(sp)

000000008000aef8 <i_10806>:
    8000aef8:	0f816e83          	lwu	t4,248(sp)

000000008000aefc <i_10807>:
    8000aefc:	00f45463          	ble	a5,s0,8000af04 <i_10809>

000000008000af00 <i_10808>:
    8000af00:	fb910423          	sb	s9,-88(sp)

000000008000af04 <i_10809>:
    8000af04:	1cc12283          	lw	t0,460(sp)

000000008000af08 <i_10810>:
    8000af08:	00b00e13          	li	t3,11

000000008000af0c <i_10811>:
    8000af0c:	01c2d4b3          	srl	s1,t0,t3

000000008000af10 <i_10812>:
    8000af10:	01400393          	li	t2,20

000000008000af14 <i_10813>:
    8000af14:	007490bb          	sllw	ra,s1,t2

000000008000af18 <i_10814>:
    8000af18:	00711b23          	sh	t2,22(sp)

000000008000af1c <i_10815>:
    8000af1c:	003e921b          	slliw	tp,t4,0x3

000000008000af20 <i_10816>:
    8000af20:	1d410d83          	lb	s11,468(sp)

000000008000af24 <i_10817>:
    8000af24:	e5e11783          	lh	a5,-418(sp)

000000008000af28 <i_10818>:
    8000af28:	00546c63          	bltu	s0,t0,8000af40 <i_10824>

000000008000af2c <i_10819>:
    8000af2c:	17e15e83          	lhu	t4,382(sp)

000000008000af30 <i_10820>:
    8000af30:	f5c16803          	lwu	a6,-164(sp)

000000008000af34 <i_10821>:
    8000af34:	05a11e03          	lh	t3,90(sp)

000000008000af38 <i_10822>:
    8000af38:	409d82b3          	sub	t0,s11,s1

000000008000af3c <i_10823>:
    8000af3c:	02745263          	ble	t2,s0,8000af60 <i_10832>

000000008000af40 <i_10824>:
    8000af40:	e9814e83          	lbu	t4,-360(sp)

000000008000af44 <i_10825>:
    8000af44:	03047433          	remu	s0,s0,a6

000000008000af48 <i_10826>:
    8000af48:	03ee7e3b          	remuw	t3,t3,t5

000000008000af4c <i_10827>:
    8000af4c:	0304d4b3          	divu	s1,s1,a6

000000008000af50 <i_10828>:
    8000af50:	fc211303          	lh	t1,-62(sp)

000000008000af54 <i_10829>:
    8000af54:	00611383          	lh	t2,6(sp)

000000008000af58 <i_10830>:
    8000af58:	fde15803          	lhu	a6,-34(sp)

000000008000af5c <i_10831>:
    8000af5c:	04610223          	sb	t1,68(sp)

000000008000af60 <i_10832>:
    8000af60:	00000013          	nop

000000008000af64 <i_10833>:
    8000af64:	08611323          	sh	t1,134(sp)

000000008000af68 <i_10834>:
    8000af68:	85100513          	li	a0,-1967

000000008000af6c <i_10835>:
    8000af6c:	86100813          	li	a6,-1951

000000008000af70 <i_10836>:
    8000af70:	01039463          	bne	t2,a6,8000af78 <i_10838>

000000008000af74 <i_10837>:
    8000af74:	f4611a03          	lh	s4,-186(sp)

000000008000af78 <i_10838>:
    8000af78:	01480333          	add	t1,a6,s4

000000008000af7c <i_10839>:
    8000af7c:	0bc15203          	lhu	tp,188(sp)

000000008000af80 <i_10840>:
    8000af80:	00421a1b          	slliw	s4,tp,0x4

000000008000af84 <i_10841>:
    8000af84:	00150513          	addi	a0,a0,1
    8000af88:	fea854e3          	ble	a0,a6,8000af70 <i_10836>

000000008000af8c <i_10842>:
    8000af8c:	00016503          	lwu	a0,0(sp)

000000008000af90 <i_10843>:
    8000af90:	02bb92b3          	mulh	t0,s7,a1

000000008000af94 <i_10844>:
    8000af94:	02a28a3b          	mulw	s4,t0,a0

000000008000af98 <i_10845>:
    8000af98:	02555463          	ble	t0,a0,8000afc0 <i_10855>

000000008000af9c <i_10846>:
    8000af9c:	14014d83          	lbu	s11,320(sp)

000000008000afa0 <i_10847>:
    8000afa0:	003a5a1b          	srliw	s4,s4,0x3

000000008000afa4 <i_10848>:
    8000afa4:	fd413823          	sd	s4,-48(sp)

000000008000afa8 <i_10849>:
    8000afa8:	13e11e23          	sh	t5,316(sp)

000000008000afac <i_10850>:
    8000afac:	02da5063          	ble	a3,s4,8000afcc <i_10858>

000000008000afb0 <i_10851>:
    8000afb0:	0d413c23          	sd	s4,216(sp)

000000008000afb4 <i_10852>:
    8000afb4:	01425c63          	ble	s4,tp,8000afcc <i_10858>

000000008000afb8 <i_10853>:
    8000afb8:	01ba42b3          	xor	t0,s4,s11

000000008000afbc <i_10854>:
    8000afbc:	0287cbb3          	div	s7,a5,s0

000000008000afc0 <i_10855>:
    8000afc0:	ebb14583          	lbu	a1,-325(sp)

000000008000afc4 <i_10856>:
    8000afc4:	003a1293          	slli	t0,s4,0x3

000000008000afc8 <i_10857>:
    8000afc8:	019542b3          	xor	t0,a0,s9

000000008000afcc <i_10858>:
    8000afcc:	1c511923          	sh	t0,466(sp)

000000008000afd0 <i_10859>:
    8000afd0:	a5026793          	ori	a5,tp,-1456

000000008000afd4 <i_10860>:
    8000afd4:	04713423          	sd	t2,72(sp)

000000008000afd8 <i_10861>:
    8000afd8:	02f7d463          	ble	a5,a5,8000b000 <i_10871>

000000008000afdc <i_10862>:
    8000afdc:	0252e263          	bltu	t0,t0,8000b000 <i_10871>

000000008000afe0 <i_10863>:
    8000afe0:	0f812283          	lw	t0,248(sp)

000000008000afe4 <i_10864>:
    8000afe4:	0257d263          	ble	t0,a5,8000b008 <i_10873>

000000008000afe8 <i_10865>:
    8000afe8:	e2511823          	sh	t0,-464(sp)

000000008000afec <i_10866>:
    8000afec:	00f78a33          	add	s4,a5,a5

000000008000aff0 <i_10867>:
    8000aff0:	e3412623          	sw	s4,-468(sp)

000000008000aff4 <i_10868>:
    8000aff4:	74dece93          	xori	t4,t4,1869

000000008000aff8 <i_10869>:
    8000aff8:	00c00b93          	li	s7,12

000000008000affc <i_10870>:
    8000affc:	017e9433          	sll	s0,t4,s7

000000008000b000 <i_10871>:
    8000b000:	00578a63          	beq	a5,t0,8000b014 <i_10876>

000000008000b004 <i_10872>:
    8000b004:	1b013823          	sd	a6,432(sp)

000000008000b008 <i_10873>:
    8000b008:	0052d463          	ble	t0,t0,8000b010 <i_10875>

000000008000b00c <i_10874>:
    8000b00c:	f8813403          	ld	s0,-120(sp)

000000008000b010 <i_10875>:
    8000b010:	fb912e23          	sw	s9,-68(sp)

000000008000b014 <i_10876>:
    8000b014:	01712e23          	sw	s7,28(sp)

000000008000b018 <i_10877>:
    8000b018:	9152eb93          	ori	s7,t0,-1771

000000008000b01c <i_10878>:
    8000b01c:	01c14583          	lbu	a1,28(sp)

000000008000b020 <i_10879>:
    8000b020:	00ba5e63          	ble	a1,s4,8000b03c <i_10886>

000000008000b024 <i_10880>:
    8000b024:	e8b10ba3          	sb	a1,-361(sp)

000000008000b028 <i_10881>:
    8000b028:	0af11d23          	sh	a5,186(sp)

000000008000b02c <i_10882>:
    8000b02c:	40475293          	srai	t0,a4,0x4

000000008000b030 <i_10883>:
    8000b030:	10513023          	sd	t0,256(sp)

000000008000b034 <i_10884>:
    8000b034:	02bf02b3          	mul	t0,t5,a1

000000008000b038 <i_10885>:
    8000b038:	02582433          	mulhsu	s0,a6,t0

000000008000b03c <i_10886>:
    8000b03c:	00bc5863          	ble	a1,s8,8000b04c <i_10890>

000000008000b040 <i_10887>:
    8000b040:	00e59e63          	bne	a1,a4,8000b05c <i_10894>

000000008000b044 <i_10888>:
    8000b044:	02b465b3          	rem	a1,s0,a1

000000008000b048 <i_10889>:
    8000b048:	1e38f293          	andi	t0,a7,483

000000008000b04c <i_10890>:
    8000b04c:	002a7c63          	bleu	sp,s4,8000b064 <i_10896>

000000008000b050 <i_10891>:
    8000b050:	0055c863          	blt	a1,t0,8000b060 <i_10895>

000000008000b054 <i_10892>:
    8000b054:	ecb10323          	sb	a1,-314(sp)

000000008000b058 <i_10893>:
    8000b058:	005a32b3          	sltu	t0,s4,t0

000000008000b05c <i_10894>:
    8000b05c:	08a11b83          	lh	s7,138(sp)

000000008000b060 <i_10895>:
    8000b060:	025bb533          	mulhu	a0,s7,t0

000000008000b064 <i_10896>:
    8000b064:	fb4106a3          	sb	s4,-83(sp)

000000008000b068 <i_10897>:
    8000b068:	1d714503          	lbu	a0,471(sp)

000000008000b06c <i_10898>:
    8000b06c:	75100293          	li	t0,1873

000000008000b070 <i_10899>:
    8000b070:	75e00a13          	li	s4,1886

000000008000b074 <i_10900>:
    8000b074:	037be663          	bltu	s7,s7,8000b0a0 <i_10910>

000000008000b078 <i_10901>:
    8000b078:	025f8263          	beq	t6,t0,8000b09c <i_10909>

000000008000b07c <i_10902>:
    8000b07c:	14510e03          	lb	t3,325(sp)

000000008000b080 <i_10903>:
    8000b080:	03400993          	li	s3,52

000000008000b084 <i_10904>:
    8000b084:	013adbb3          	srl	s7,s5,s3

000000008000b088 <i_10905>:
    8000b088:	17412183          	lw	gp,372(sp)

000000008000b08c <i_10906>:
    8000b08c:	00128293          	addi	t0,t0,1
    8000b090:	ff42c2e3          	blt	t0,s4,8000b074 <i_10900>

000000008000b094 <i_10907>:
    8000b094:	fc813b83          	ld	s7,-56(sp)

000000008000b098 <i_10908>:
    8000b098:	08d12023          	sw	a3,128(sp)

000000008000b09c <i_10909>:
    8000b09c:	01816a03          	lwu	s4,24(sp)

000000008000b0a0 <i_10910>:
    8000b0a0:	025a7433          	remu	s0,s4,t0

000000008000b0a4 <i_10911>:
    8000b0a4:	118cbb93          	sltiu	s7,s9,280

000000008000b0a8 <i_10912>:
    8000b0a8:	028a4463          	blt	s4,s0,8000b0d0 <i_10922>

000000008000b0ac <i_10913>:
    8000b0ac:	014e4433          	xor	s0,t3,s4

000000008000b0b0 <i_10914>:
    8000b0b0:	08f10303          	lb	t1,143(sp)

000000008000b0b4 <i_10915>:
    8000b0b4:	034e60bb          	remw	ra,t3,s4

000000008000b0b8 <i_10916>:
    8000b0b8:	0e812623          	sw	s0,236(sp)

000000008000b0bc <i_10917>:
    8000b0bc:	03746063          	bltu	s0,s7,8000b0dc <i_10925>

000000008000b0c0 <i_10918>:
    8000b0c0:	0264043b          	mulw	s0,s0,t1

000000008000b0c4 <i_10919>:
    8000b0c4:	1c016403          	lwu	s0,448(sp)

000000008000b0c8 <i_10920>:
    8000b0c8:	00141c63          	bne	s0,ra,8000b0e0 <i_10926>

000000008000b0cc <i_10921>:
    8000b0cc:	00309093          	slli	ra,ra,0x3

000000008000b0d0 <i_10922>:
    8000b0d0:	00841863          	bne	s0,s0,8000b0e0 <i_10926>

000000008000b0d4 <i_10923>:
    8000b0d4:	008ecc63          	blt	t4,s0,8000b0ec <i_10929>

000000008000b0d8 <i_10924>:
    8000b0d8:	0010cc63          	blt	ra,ra,8000b0f0 <i_10930>

000000008000b0dc <i_10925>:
    8000b0dc:	008f5863          	ble	s0,t5,8000b0ec <i_10929>

000000008000b0e0 <i_10926>:
    8000b0e0:	ef314083          	lbu	ra,-269(sp)

000000008000b0e4 <i_10927>:
    8000b0e4:	00140c63          	beq	s0,ra,8000b0fc <i_10933>

000000008000b0e8 <i_10928>:
    8000b0e8:	01e00e13          	li	t3,30

000000008000b0ec <i_10929>:
    8000b0ec:	01c0d43b          	srlw	s0,ra,t3

000000008000b0f0 <i_10930>:
    8000b0f0:	021451b3          	divu	gp,s0,ra

000000008000b0f4 <i_10931>:
    8000b0f4:	1e313023          	sd	gp,480(sp)

000000008000b0f8 <i_10932>:
    8000b0f8:	edf12823          	sw	t6,-304(sp)

000000008000b0fc <i_10933>:
    8000b0fc:	00357863          	bleu	gp,a0,8000b10c <i_10937>

000000008000b100 <i_10934>:
    8000b100:	fe811a03          	lh	s4,-24(sp)

000000008000b104 <i_10935>:
    8000b104:	01016203          	lwu	tp,16(sp)

000000008000b108 <i_10936>:
    8000b108:	40255513          	srai	a0,a0,0x2

000000008000b10c <i_10937>:
    8000b10c:	02454063          	blt	a0,tp,8000b12c <i_10945>

000000008000b110 <i_10938>:
    8000b110:	024883b3          	mul	t2,a7,tp

000000008000b114 <i_10939>:
    8000b114:	13814203          	lbu	tp,312(sp)

000000008000b118 <i_10940>:
    8000b118:	00c22213          	slti	tp,tp,12

000000008000b11c <i_10941>:
    8000b11c:	00426c63          	bltu	tp,tp,8000b134 <i_10947>

000000008000b120 <i_10942>:
    8000b120:	00b00e93          	li	t4,11

000000008000b124 <i_10943>:
    8000b124:	41d2523b          	sraw	tp,tp,t4

000000008000b128 <i_10944>:
    8000b128:	0045c263          	blt	a1,tp,8000b12c <i_10945>

000000008000b12c <i_10945>:
    8000b12c:	00000013          	nop

000000008000b130 <i_10946>:
    8000b130:	daf8a517          	auipc	a0,0xdaf8a

000000008000b134 <i_10947>:
    8000b134:	0aa12623          	sw	a0,172(sp)

000000008000b138 <i_10948>:
    8000b138:	f83bc093          	xori	ra,s7,-125

000000008000b13c <i_10949>:
    8000b13c:	85f00d93          	li	s11,-1953

000000008000b140 <i_10950>:
    8000b140:	87100b93          	li	s7,-1935

000000008000b144 <i_10951>:
    8000b144:	03d785b3          	mul	a1,a5,t4

000000008000b148 <i_10952>:
    8000b148:	e7d13c23          	sd	t4,-392(sp)

000000008000b14c <i_10953>:
    8000b14c:	0245f463          	bleu	tp,a1,8000b174 <i_10963>

000000008000b150 <i_10954>:
    8000b150:	f8412a23          	sw	tp,-108(sp)

000000008000b154 <i_10955>:
    8000b154:	00a08863          	beq	ra,a0,8000b164 <i_10959>

000000008000b158 <i_10956>:
    8000b158:	f9d14203          	lbu	tp,-99(sp)

000000008000b15c <i_10957>:
    8000b15c:	4917f793          	andi	a5,a5,1169

000000008000b160 <i_10958>:
    8000b160:	f3c10803          	lb	a6,-196(sp)

000000008000b164 <i_10959>:
    8000b164:	00000013          	nop

000000008000b168 <i_10960>:
    8000b168:	03f00593          	li	a1,63

000000008000b16c <i_10961>:
    8000b16c:	00bb9233          	sll	tp,s7,a1

000000008000b170 <i_10962>:
    8000b170:	fbe11283          	lh	t0,-66(sp)

000000008000b174 <i_10963>:
    8000b174:	ffb12223          	sw	s11,-28(sp)

000000008000b178 <i_10964>:
    8000b178:	ff013283          	ld	t0,-16(sp)

000000008000b17c <i_10965>:
    8000b17c:	001d8d93          	addi	s11,s11,1
    8000b180:	fdbbd2e3          	ble	s11,s7,8000b144 <i_10951>

000000008000b184 <i_10966>:
    8000b184:	0072cbb3          	xor	s7,t0,t2

000000008000b188 <i_10967>:
    8000b188:	00000013          	nop

000000008000b18c <i_10968>:
    8000b18c:	79a00393          	li	t2,1946

000000008000b190 <i_10969>:
    8000b190:	7a600593          	li	a1,1958

000000008000b194 <i_10970>:
    8000b194:	f7c16b83          	lwu	s7,-132(sp)

000000008000b198 <i_10971>:
    8000b198:	05910083          	lb	ra,89(sp)

000000008000b19c <i_10972>:
    8000b19c:	f9211203          	lh	tp,-110(sp)

000000008000b1a0 <i_10973>:
    8000b1a0:	00321b93          	slli	s7,tp,0x3

000000008000b1a4 <i_10974>:
    8000b1a4:	0174a4b3          	slt	s1,s1,s7

000000008000b1a8 <i_10975>:
    8000b1a8:	e4012e83          	lw	t4,-448(sp)

000000008000b1ac <i_10976>:
    8000b1ac:	ff7104a3          	sb	s7,-23(sp)

000000008000b1b0 <i_10977>:
    8000b1b0:	01500b93          	li	s7,21

000000008000b1b4 <i_10978>:
    8000b1b4:	017bdbbb          	srlw	s7,s7,s7

000000008000b1b8 <i_10979>:
    8000b1b8:	41720ebb          	subw	t4,tp,s7

000000008000b1bc <i_10980>:
    8000b1bc:	00138393          	addi	t2,t2,1
    8000b1c0:	fcb39ae3          	bne	t2,a1,8000b194 <i_10970>

000000008000b1c4 <i_10981>:
    8000b1c4:	026679b3          	remu	s3,a2,t1

000000008000b1c8 <i_10982>:
    8000b1c8:	0195ceb3          	xor	t4,a1,s9

000000008000b1cc <i_10983>:
    8000b1cc:	028bd833          	divu	a6,s7,s0

000000008000b1d0 <i_10984>:
    8000b1d0:	001fdb93          	srli	s7,t6,0x1

000000008000b1d4 <i_10985>:
    8000b1d4:	e7813403          	ld	s0,-392(sp)

000000008000b1d8 <i_10986>:
    8000b1d8:	efc10a03          	lb	s4,-260(sp)

000000008000b1dc <i_10987>:
    8000b1dc:	00880463          	beq	a6,s0,8000b1e4 <i_10989>

000000008000b1e0 <i_10988>:
    8000b1e0:	417a0833          	sub	a6,s4,s7

000000008000b1e4 <i_10989>:
    8000b1e4:	1d4104a3          	sb	s4,457(sp)

000000008000b1e8 <i_10990>:
    8000b1e8:	023a683b          	remw	a6,s4,gp

000000008000b1ec <i_10991>:
    8000b1ec:	73700a13          	li	s4,1847

000000008000b1f0 <i_10992>:
    8000b1f0:	74800193          	li	gp,1864

000000008000b1f4 <i_10993>:
    8000b1f4:	341e029b          	addiw	t0,t3,833

000000008000b1f8 <i_10994>:
    8000b1f8:	35487813          	andi	a6,a6,852

000000008000b1fc <i_10995>:
    8000b1fc:	7c100413          	li	s0,1985

000000008000b200 <i_10996>:
    8000b200:	7c900793          	li	a5,1993

000000008000b204 <i_10997>:
    8000b204:	0b314383          	lbu	t2,179(sp)

000000008000b208 <i_10998>:
    8000b208:	00140413          	addi	s0,s0,1
    8000b20c:	fef44ce3          	blt	s0,a5,8000b204 <i_10997>

000000008000b210 <i_10999>:
    8000b210:	05812383          	lw	t2,88(sp)

000000008000b214 <i_11000>:
    8000b214:	01080e63          	beq	a6,a6,8000b230 <i_11006>

000000008000b218 <i_11001>:
    8000b218:	03019263          	bne	gp,a6,8000b23c <i_11009>

000000008000b21c <i_11002>:
    8000b21c:	001a0a13          	addi	s4,s4,1
    8000b220:	fc3a6ae3          	bltu	s4,gp,8000b1f4 <i_10993>

000000008000b224 <i_11003>:
    8000b224:	3883e993          	ori	s3,t2,904

000000008000b228 <i_11004>:
    8000b228:	01e41463          	bne	s0,t5,8000b230 <i_11006>

000000008000b22c <i_11005>:
    8000b22c:	0109e863          	bltu	s3,a6,8000b23c <i_11009>

000000008000b230 <i_11006>:
    8000b230:	f2b13423          	sd	a1,-216(sp)

000000008000b234 <i_11007>:
    8000b234:	fc810ea3          	sb	s0,-35(sp)

000000008000b238 <i_11008>:
    8000b238:	01500393          	li	t2,21

000000008000b23c <i_11009>:
    8000b23c:	4072d1bb          	sraw	gp,t0,t2

000000008000b240 <i_11010>:
    8000b240:	00000013          	nop

000000008000b244 <i_11011>:
    8000b244:	0040d99b          	srliw	s3,ra,0x4

000000008000b248 <i_11012>:
    8000b248:	7cf00193          	li	gp,1999

000000008000b24c <i_11013>:
    8000b24c:	7d900e93          	li	t4,2009

000000008000b250 <i_11014>:
    8000b250:	0189b5b3          	sltu	a1,s3,s8

000000008000b254 <i_11015>:
    8000b254:	03fa49bb          	divw	s3,s4,t6

000000008000b258 <i_11016>:
    8000b258:	f1010383          	lb	t2,-240(sp)

000000008000b25c <i_11017>:
    8000b25c:	07010423          	sb	a6,104(sp)

000000008000b260 <i_11018>:
    8000b260:	00000013          	nop

000000008000b264 <i_11019>:
    8000b264:	fa012783          	lw	a5,-96(sp)

000000008000b268 <i_11020>:
    8000b268:	0039999b          	slliw	s3,s3,0x3

000000008000b26c <i_11021>:
    8000b26c:	15312823          	sw	s3,336(sp)

000000008000b270 <i_11022>:
    8000b270:	1ae15d83          	lhu	s11,430(sp)

000000008000b274 <i_11023>:
    8000b274:	00118193          	addi	gp,gp,1
    8000b278:	fdd1cce3          	blt	gp,t4,8000b250 <i_11014>

000000008000b27c <i_11024>:
    8000b27c:	00000013          	nop

000000008000b280 <i_11025>:
    8000b280:	00f79263          	bne	a5,a5,8000b284 <i_11026>

000000008000b284 <i_11026>:
    8000b284:	a1649497          	auipc	s1,0xa1649

000000008000b288 <i_11027>:
    8000b288:	40135793          	srai	a5,t1,0x1

000000008000b28c <i_11028>:
    8000b28c:	fc211083          	lh	ra,-62(sp)

000000008000b290 <i_11029>:
    8000b290:	1efd849b          	addiw	s1,s11,495

000000008000b294 <i_11030>:
    8000b294:	e2810823          	sb	s0,-464(sp)

000000008000b298 <i_11031>:
    8000b298:	e6416403          	lwu	s0,-412(sp)

000000008000b29c <i_11032>:
    8000b29c:	03ddcebb          	divw	t4,s11,t4

000000008000b2a0 <i_11033>:
    8000b2a0:	01800393          	li	t2,24

000000008000b2a4 <i_11034>:
    8000b2a4:	007f51bb          	srlw	gp,t5,t2

000000008000b2a8 <i_11035>:
    8000b2a8:	eda11e83          	lh	t4,-294(sp)

000000008000b2ac <i_11036>:
    8000b2ac:	01b7c863          	blt	a5,s11,8000b2bc <i_11040>

000000008000b2b0 <i_11037>:
    8000b2b0:	58147e93          	andi	t4,s0,1409

000000008000b2b4 <i_11038>:
    8000b2b4:	e8911823          	sh	s1,-368(sp)

000000008000b2b8 <i_11039>:
    8000b2b8:	00514383          	lbu	t2,5(sp)

000000008000b2bc <i_11040>:
    8000b2bc:	ccef0d97          	auipc	s11,0xccef0

000000008000b2c0 <i_11041>:
    8000b2c0:	03def463          	bleu	t4,t4,8000b2e8 <i_11051>

000000008000b2c4 <i_11042>:
    8000b2c4:	01de0c63          	beq	t3,t4,8000b2dc <i_11048>

000000008000b2c8 <i_11043>:
    8000b2c8:	03bed463          	ble	s11,t4,8000b2f0 <i_11053>

000000008000b2cc <i_11044>:
    8000b2cc:	403d81bb          	subw	gp,s11,gp

000000008000b2d0 <i_11045>:
    8000b2d0:	01beda63          	ble	s11,t4,8000b2e4 <i_11050>

000000008000b2d4 <i_11046>:
    8000b2d4:	01d3d863          	ble	t4,t2,8000b2e4 <i_11050>

000000008000b2d8 <i_11047>:
    8000b2d8:	0231adb3          	mulhsu	s11,gp,gp

000000008000b2dc <i_11048>:
    8000b2dc:	02ccedbb          	remw	s11,s9,a2

000000008000b2e0 <i_11049>:
    8000b2e0:	016da1b3          	slt	gp,s11,s6

000000008000b2e4 <i_11050>:
    8000b2e4:	00600293          	li	t0,6

000000008000b2e8 <i_11051>:
    8000b2e8:	00519dbb          	sllw	s11,gp,t0

000000008000b2ec <i_11052>:
    8000b2ec:	09c10f23          	sb	t3,158(sp)

000000008000b2f0 <i_11053>:
    8000b2f0:	fd413823          	sd	s4,-48(sp)

000000008000b2f4 <i_11054>:
    8000b2f4:	efc12a03          	lw	s4,-260(sp)

000000008000b2f8 <i_11055>:
    8000b2f8:	04210283          	lb	t0,66(sp)

000000008000b2fc <i_11056>:
    8000b2fc:	003106a3          	sb	gp,13(sp)

000000008000b300 <i_11057>:
    8000b300:	03b1c433          	div	s0,gp,s11

000000008000b304 <i_11058>:
    8000b304:	14812a03          	lw	s4,328(sp)

000000008000b308 <i_11059>:
    8000b308:	0c815983          	lhu	s3,200(sp)

000000008000b30c <i_11060>:
    8000b30c:	0b312423          	sw	s3,168(sp)

000000008000b310 <i_11061>:
    8000b310:	f7b11023          	sh	s11,-160(sp)

000000008000b314 <i_11062>:
    8000b314:	fbe12023          	sw	t5,-96(sp)

000000008000b318 <i_11063>:
    8000b318:	e6b28213          	addi	tp,t0,-405

000000008000b31c <i_11064>:
    8000b31c:	0342543b          	divuw	s0,tp,s4

000000008000b320 <i_11065>:
    8000b320:	0a412a23          	sw	tp,180(sp)

000000008000b324 <i_11066>:
    8000b324:	1ae12a23          	sw	a4,436(sp)

000000008000b328 <i_11067>:
    8000b328:	e3e14203          	lbu	tp,-450(sp)

000000008000b32c <i_11068>:
    8000b32c:	00f00413          	li	s0,15

000000008000b330 <i_11069>:
    8000b330:	0084543b          	srlw	s0,s0,s0

000000008000b334 <i_11070>:
    8000b334:	13a10503          	lb	a0,314(sp)

000000008000b338 <i_11071>:
    8000b338:	e64102a3          	sb	tp,-411(sp)

000000008000b33c <i_11072>:
    8000b33c:	01f37663          	bleu	t6,t1,8000b348 <i_11075>

000000008000b340 <i_11073>:
    8000b340:	02a46463          	bltu	s0,a0,8000b368 <i_11083>

000000008000b344 <i_11074>:
    8000b344:	031ed463          	ble	a7,t4,8000b36c <i_11084>

000000008000b348 <i_11075>:
    8000b348:	0024199b          	slliw	s3,s0,0x2

000000008000b34c <i_11076>:
    8000b34c:	fa215b83          	lhu	s7,-94(sp)

000000008000b350 <i_11077>:
    8000b350:	01c00793          	li	a5,28

000000008000b354 <i_11078>:
    8000b354:	00fbdebb          	srlw	t4,s7,a5

000000008000b358 <i_11079>:
    8000b358:	02f9ce3b          	divw	t3,s3,a5

000000008000b35c <i_11080>:
    8000b35c:	19d13823          	sd	t4,400(sp)

000000008000b360 <i_11081>:
    8000b360:	06013083          	ld	ra,96(sp)

000000008000b364 <i_11082>:
    8000b364:	0d615e83          	lhu	t4,214(sp)

000000008000b368 <i_11083>:
    8000b368:	17c105a3          	sb	t3,363(sp)

000000008000b36c <i_11084>:
    8000b36c:	0010aeb3          	slt	t4,ra,ra

000000008000b370 <i_11085>:
    8000b370:	f0b11023          	sh	a1,-256(sp)

000000008000b374 <i_11086>:
    8000b374:	16815083          	lhu	ra,360(sp)

000000008000b378 <i_11087>:
    8000b378:	03300813          	li	a6,51

000000008000b37c <i_11088>:
    8000b37c:	010e9433          	sll	s0,t4,a6

000000008000b380 <i_11089>:
    8000b380:	03d5e9b3          	rem	s3,a1,t4

000000008000b384 <i_11090>:
    8000b384:	017e4863          	blt	t3,s7,8000b394 <i_11094>

000000008000b388 <i_11091>:
    8000b388:	03008263          	beq	ra,a6,8000b3ac <i_11100>

000000008000b38c <i_11092>:
    8000b38c:	fc016083          	lwu	ra,-64(sp)

000000008000b390 <i_11093>:
    8000b390:	028ce463          	bltu	s9,s0,8000b3b8 <i_11103>

000000008000b394 <i_11094>:
    8000b394:	0100ca63          	blt	ra,a6,8000b3a8 <i_11099>

000000008000b398 <i_11095>:
    8000b398:	0339e463          	bltu	s3,s3,8000b3c0 <i_11105>

000000008000b39c <i_11096>:
    8000b39c:	f7013023          	sd	a6,-160(sp)

000000008000b3a0 <i_11097>:
    8000b3a0:	0307e263          	bltu	a5,a6,8000b3c4 <i_11106>

000000008000b3a4 <i_11098>:
    8000b3a4:	e7c12983          	lw	s3,-388(sp)

000000008000b3a8 <i_11099>:
    8000b3a8:	02f87463          	bleu	a5,a6,8000b3d0 <i_11109>

000000008000b3ac <i_11100>:
    8000b3ac:	02646333          	rem	t1,s0,t1

000000008000b3b0 <i_11101>:
    8000b3b0:	fca15303          	lhu	t1,-54(sp)

000000008000b3b4 <i_11102>:
    8000b3b4:	11b10203          	lb	tp,283(sp)

000000008000b3b8 <i_11103>:
    8000b3b8:	ff312a23          	sw	s3,-12(sp)

000000008000b3bc <i_11104>:
    8000b3bc:	16613023          	sd	t1,352(sp)

000000008000b3c0 <i_11105>:
    8000b3c0:	00000013          	nop

000000008000b3c4 <i_11106>:
    8000b3c4:	4030d21b          	sraiw	tp,ra,0x3

000000008000b3c8 <i_11107>:
    8000b3c8:	868af337          	lui	t1,0x868af

000000008000b3cc <i_11108>:
    8000b3cc:	00000013          	nop

000000008000b3d0 <i_11109>:
    8000b3d0:	e6412203          	lw	tp,-412(sp)

000000008000b3d4 <i_11110>:
    8000b3d4:	06412023          	sw	tp,96(sp)

000000008000b3d8 <i_11111>:
    8000b3d8:	83300813          	li	a6,-1997

000000008000b3dc <i_11112>:
    8000b3dc:	83800093          	li	ra,-1992

000000008000b3e0 <i_11113>:
    8000b3e0:	12c12203          	lw	tp,300(sp)

000000008000b3e4 <i_11114>:
    8000b3e4:	00180813          	addi	a6,a6,1 # 571e3001 <main-0x28e1cfff>
    8000b3e8:	fe186ce3          	bltu	a6,ra,8000b3e0 <i_11113>

000000008000b3ec <i_11115>:
    8000b3ec:	f1812803          	lw	a6,-232(sp)

000000008000b3f0 <i_11116>:
    8000b3f0:	01034c63          	blt	t1,a6,8000b408 <i_11122>

000000008000b3f4 <i_11117>:
    8000b3f4:	19012423          	sw	a6,392(sp)

000000008000b3f8 <i_11118>:
    8000b3f8:	02635463          	ble	t1,t1,8000b420 <i_11128>

000000008000b3fc <i_11119>:
    8000b3fc:	410207b3          	sub	a5,tp,a6

000000008000b400 <i_11120>:
    8000b400:	0c012b83          	lw	s7,192(sp)

000000008000b404 <i_11121>:
    8000b404:	c7336e93          	ori	t4,t1,-909

000000008000b408 <i_11122>:
    8000b408:	002b921b          	slliw	tp,s7,0x2

000000008000b40c <i_11123>:
    8000b40c:	15611523          	sh	s6,330(sp)

000000008000b410 <i_11124>:
    8000b410:	037242bb          	divw	t0,tp,s7

000000008000b414 <i_11125>:
    8000b414:	e3013283          	ld	t0,-464(sp)

000000008000b418 <i_11126>:
    8000b418:	41080233          	sub	tp,a6,a6

000000008000b41c <i_11127>:
    8000b41c:	00000013          	nop

000000008000b420 <i_11128>:
    8000b420:	0371d1b3          	divu	gp,gp,s7

000000008000b424 <i_11129>:
    8000b424:	e5c15203          	lhu	tp,-420(sp)

000000008000b428 <i_11130>:
    8000b428:	76800813          	li	a6,1896

000000008000b42c <i_11131>:
    8000b42c:	77900b93          	li	s7,1913

000000008000b430 <i_11132>:
    8000b430:	02d00a13          	li	s4,45

000000008000b434 <i_11133>:
    8000b434:	0141d7b3          	srl	a5,gp,s4

000000008000b438 <i_11134>:
    8000b438:	00180813          	addi	a6,a6,1
    8000b43c:	ff786ae3          	bltu	a6,s7,8000b430 <i_11132>

000000008000b440 <i_11135>:
    8000b440:	03008463          	beq	ra,a6,8000b468 <i_11145>

000000008000b444 <i_11136>:
    8000b444:	eb114983          	lbu	s3,-335(sp)

000000008000b448 <i_11137>:
    8000b448:	0249f463          	bleu	tp,s3,8000b470 <i_11147>

000000008000b44c <i_11138>:
    8000b44c:	6c027993          	andi	s3,tp,1728

000000008000b450 <i_11139>:
    8000b450:	1a310423          	sb	gp,424(sp)

000000008000b454 <i_11140>:
    8000b454:	010b89b3          	add	s3,s7,a6

000000008000b458 <i_11141>:
    8000b458:	0a816203          	lwu	tp,168(sp)

000000008000b45c <i_11142>:
    8000b45c:	01398c63          	beq	s3,s3,8000b474 <i_11148>

000000008000b460 <i_11143>:
    8000b460:	02e9d9b3          	divu	s3,s3,a4

000000008000b464 <i_11144>:
    8000b464:	ecc12983          	lw	s3,-308(sp)

000000008000b468 <i_11145>:
    8000b468:	0019ce63          	blt	s3,ra,8000b484 <i_11152>

000000008000b46c <i_11146>:
    8000b46c:	0022199b          	slliw	s3,tp,0x2

000000008000b470 <i_11147>:
    8000b470:	01308e63          	beq	ra,s3,8000b48c <i_11154>

000000008000b474 <i_11148>:
    8000b474:	1d310823          	sb	s3,464(sp)

000000008000b478 <i_11149>:
    8000b478:	0339d063          	ble	s3,s3,8000b498 <i_11157>

000000008000b47c <i_11150>:
    8000b47c:	09514503          	lbu	a0,149(sp)

000000008000b480 <i_11151>:
    8000b480:	19e15e83          	lhu	t4,414(sp)

000000008000b484 <i_11152>:
    8000b484:	f7311123          	sh	s3,-158(sp)

000000008000b488 <i_11153>:
    8000b488:	03300793          	li	a5,51

000000008000b48c <i_11154>:
    8000b48c:	00fe1e33          	sll	t3,t3,a5

000000008000b490 <i_11155>:
    8000b490:	fdc12e03          	lw	t3,-36(sp)

000000008000b494 <i_11156>:
    8000b494:	41ce8e3b          	subw	t3,t4,t3

000000008000b498 <i_11157>:
    8000b498:	03c5ea3b          	remw	s4,a1,t3

000000008000b49c <i_11158>:
    8000b49c:	00b47e63          	bleu	a1,s0,8000b4b8 <i_11165>

000000008000b4a0 <i_11159>:
    8000b4a0:	e4412a23          	sw	tp,-428(sp)

000000008000b4a4 <i_11160>:
    8000b4a4:	fae14183          	lbu	gp,-82(sp)

000000008000b4a8 <i_11161>:
    8000b4a8:	0037d263          	ble	gp,a5,8000b4ac <i_11162>

000000008000b4ac <i_11162>:
    8000b4ac:	7101c813          	xori	a6,gp,1808

000000008000b4b0 <i_11163>:
    8000b4b0:	01418a33          	add	s4,gp,s4

000000008000b4b4 <i_11164>:
    8000b4b4:	e8f12023          	sw	a5,-384(sp)

000000008000b4b8 <i_11165>:
    8000b4b8:	01479a63          	bne	a5,s4,8000b4cc <i_11170>

000000008000b4bc <i_11166>:
    8000b4bc:	0c211183          	lh	gp,194(sp)

000000008000b4c0 <i_11167>:
    8000b4c0:	00f872b3          	and	t0,a6,a5

000000008000b4c4 <i_11168>:
    8000b4c4:	00000013          	nop

000000008000b4c8 <i_11169>:
    8000b4c8:	0bc12c23          	sw	t3,184(sp)

000000008000b4cc <i_11170>:
    8000b4cc:	08513023          	sd	t0,128(sp)

000000008000b4d0 <i_11171>:
    8000b4d0:	0277dbbb          	divuw	s7,a5,t2

000000008000b4d4 <i_11172>:
    8000b4d4:	81300513          	li	a0,-2029

000000008000b4d8 <i_11173>:
    8000b4d8:	81800793          	li	a5,-2024

000000008000b4dc <i_11174>:
    8000b4dc:	01079463          	bne	a5,a6,8000b4e4 <i_11176>

000000008000b4e0 <i_11175>:
    8000b4e0:	fa416583          	lwu	a1,-92(sp)

000000008000b4e4 <i_11176>:
    8000b4e4:	f8f10483          	lb	s1,-113(sp)

000000008000b4e8 <i_11177>:
    8000b4e8:	00800593          	li	a1,8

000000008000b4ec <i_11178>:
    8000b4ec:	00b5983b          	sllw	a6,a1,a1

000000008000b4f0 <i_11179>:
    8000b4f0:	00150513          	addi	a0,a0,1 # 5af95131 <main-0x2506aecf>
    8000b4f4:	fef544e3          	blt	a0,a5,8000b4dc <i_11174>

000000008000b4f8 <i_11180>:
    8000b4f8:	e7c15503          	lhu	a0,-388(sp)

000000008000b4fc <i_11181>:
    8000b4fc:	03a00413          	li	s0,58

000000008000b500 <i_11182>:
    8000b500:	0084de33          	srl	t3,s1,s0

000000008000b504 <i_11183>:
    8000b504:	03b68463          	beq	a3,s11,8000b52c <i_11193>

000000008000b508 <i_11184>:
    8000b508:	f3013283          	ld	t0,-208(sp)

000000008000b50c <i_11185>:
    8000b50c:	02946433          	rem	s0,s0,s1

000000008000b510 <i_11186>:
    8000b510:	00900413          	li	s0,9

000000008000b514 <i_11187>:
    8000b514:	0085543b          	srlw	s0,a0,s0

000000008000b518 <i_11188>:
    8000b518:	0a813423          	sd	s0,168(sp)

000000008000b51c <i_11189>:
    8000b51c:	fa012483          	lw	s1,-96(sp)

000000008000b520 <i_11190>:
    8000b520:	02847433          	remu	s0,s0,s0

000000008000b524 <i_11191>:
    8000b524:	88d46413          	ori	s0,s0,-1907

000000008000b528 <i_11192>:
    8000b528:	00930433          	add	s0,t1,s1

000000008000b52c <i_11193>:
    8000b52c:	e2813423          	sd	s0,-472(sp)

000000008000b530 <i_11194>:
    8000b530:	01412e83          	lw	t4,20(sp)

000000008000b534 <i_11195>:
    8000b534:	00813823          	sd	s0,16(sp)

000000008000b538 <i_11196>:
    8000b538:	f8813823          	sd	s0,-112(sp)

000000008000b53c <i_11197>:
    8000b53c:	0094fa33          	and	s4,s1,s1

000000008000b540 <i_11198>:
    8000b540:	47160313          	addi	t1,a2,1137

000000008000b544 <i_11199>:
    8000b544:	02e00e13          	li	t3,46

000000008000b548 <i_11200>:
    8000b548:	01c39db3          	sll	s11,t2,t3

000000008000b54c <i_11201>:
    8000b54c:	03811483          	lh	s1,56(sp)

000000008000b550 <i_11202>:
    8000b550:	00100293          	li	t0,1

000000008000b554 <i_11203>:
    8000b554:	005097b3          	sll	a5,ra,t0

000000008000b558 <i_11204>:
    8000b558:	eb210783          	lb	a5,-334(sp)

000000008000b55c <i_11205>:
    8000b55c:	ef910283          	lb	t0,-263(sp)

000000008000b560 <i_11206>:
    8000b560:	ee211803          	lh	a6,-286(sp)

000000008000b564 <i_11207>:
    8000b564:	009e4463          	blt	t3,s1,8000b56c <i_11209>

000000008000b568 <i_11208>:
    8000b568:	e7c13823          	sd	t3,-400(sp)

000000008000b56c <i_11209>:
    8000b56c:	a90793b7          	lui	t2,0xa9079

000000008000b570 <i_11210>:
    8000b570:	00300293          	li	t0,3

000000008000b574 <i_11211>:
    8000b574:	0057d43b          	srlw	s0,a5,t0

000000008000b578 <i_11212>:
    8000b578:	01240e33          	add	t3,s0,s2

000000008000b57c <i_11213>:
    8000b57c:	0a713c23          	sd	t2,184(sp)

000000008000b580 <i_11214>:
    8000b580:	fd615e83          	lhu	t4,-42(sp)

000000008000b584 <i_11215>:
    8000b584:	6a40cb93          	xori	s7,ra,1700

000000008000b588 <i_11216>:
    8000b588:	021b80b3          	mul	ra,s7,ra

000000008000b58c <i_11217>:
    8000b58c:	017e84b3          	add	s1,t4,s7

000000008000b590 <i_11218>:
    8000b590:	00700d93          	li	s11,7

000000008000b594 <i_11219>:
    8000b594:	41b0d3bb          	sraw	t2,ra,s11

000000008000b598 <i_11220>:
    8000b598:	401dd19b          	sraiw	gp,s11,0x1

000000008000b59c <i_11221>:
    8000b59c:	01dd8e63          	beq	s11,t4,8000b5b8 <i_11228>

000000008000b5a0 <i_11222>:
    8000b5a0:	ed815d83          	lhu	s11,-296(sp)

000000008000b5a4 <i_11223>:
    8000b5a4:	0e510d83          	lb	s11,229(sp)

000000008000b5a8 <i_11224>:
    8000b5a8:	12810d23          	sb	s0,314(sp)

000000008000b5ac <i_11225>:
    8000b5ac:	402dd193          	srai	gp,s11,0x2

000000008000b5b0 <i_11226>:
    8000b5b0:	003a7a33          	and	s4,s4,gp

000000008000b5b4 <i_11227>:
    8000b5b4:	eb413823          	sd	s4,-336(sp)

000000008000b5b8 <i_11228>:
    8000b5b8:	01100a13          	li	s4,17

000000008000b5bc <i_11229>:
    8000b5bc:	0141d33b          	srlw	t1,gp,s4

000000008000b5c0 <i_11230>:
    8000b5c0:	006d8e63          	beq	s11,t1,8000b5dc <i_11237>

000000008000b5c4 <i_11231>:
    8000b5c4:	1c710083          	lb	ra,455(sp)

000000008000b5c8 <i_11232>:
    8000b5c8:	efb1ca13          	xori	s4,gp,-261

000000008000b5cc <i_11233>:
    8000b5cc:	feb13423          	sd	a1,-24(sp)

000000008000b5d0 <i_11234>:
    8000b5d0:	e6010583          	lb	a1,-416(sp)

000000008000b5d4 <i_11235>:
    8000b5d4:	403085bb          	subw	a1,ra,gp

000000008000b5d8 <i_11236>:
    8000b5d8:	17412083          	lw	ra,372(sp)

000000008000b5dc <i_11237>:
    8000b5dc:	1ca11183          	lh	gp,458(sp)

000000008000b5e0 <i_11238>:
    8000b5e0:	01812303          	lw	t1,24(sp)

000000008000b5e4 <i_11239>:
    8000b5e4:	173109a3          	sb	s3,371(sp)

000000008000b5e8 <i_11240>:
    8000b5e8:	011582b3          	add	t0,a1,a7

000000008000b5ec <i_11241>:
    8000b5ec:	f6412083          	lw	ra,-156(sp)

000000008000b5f0 <i_11242>:
    8000b5f0:	e8511523          	sh	t0,-374(sp)

000000008000b5f4 <i_11243>:
    8000b5f4:	02313c23          	sd	gp,56(sp)

000000008000b5f8 <i_11244>:
    8000b5f8:	e9a10083          	lb	ra,-358(sp)

000000008000b5fc <i_11245>:
    8000b5fc:	10416303          	lwu	t1,260(sp)

000000008000b600 <i_11246>:
    8000b600:	fcc16403          	lwu	s0,-52(sp)

000000008000b604 <i_11247>:
    8000b604:	e6811923          	sh	s0,-398(sp)

000000008000b608 <i_11248>:
    8000b608:	0018d463          	ble	ra,a7,8000b610 <i_11250>

000000008000b60c <i_11249>:
    8000b60c:	02a081bb          	mulw	gp,ra,a0

000000008000b610 <i_11250>:
    8000b610:	e28101a3          	sb	s0,-477(sp)

000000008000b614 <i_11251>:
    8000b614:	01146463          	bltu	s0,a7,8000b61c <i_11253>

000000008000b618 <i_11252>:
    8000b618:	025af0b3          	remu	ra,s5,t0

000000008000b61c <i_11253>:
    8000b61c:	00000013          	nop

000000008000b620 <i_11254>:
    8000b620:	00000013          	nop

000000008000b624 <i_11255>:
    8000b624:	7f800793          	li	a5,2040

000000008000b628 <i_11256>:
    8000b628:	7fa00293          	li	t0,2042

000000008000b62c <i_11257>:
    8000b62c:	e2c12e83          	lw	t4,-468(sp)

000000008000b630 <i_11258>:
    8000b630:	f9f10e83          	lb	t4,-97(sp)

000000008000b634 <i_11259>:
    8000b634:	02fefdbb          	remuw	s11,t4,a5

000000008000b638 <i_11260>:
    8000b638:	11a14e83          	lbu	t4,282(sp)

000000008000b63c <i_11261>:
    8000b63c:	d81efe93          	andi	t4,t4,-639

000000008000b640 <i_11262>:
    8000b640:	f2c14e83          	lbu	t4,-212(sp)

000000008000b644 <i_11263>:
    8000b644:	005df463          	bleu	t0,s11,8000b64c <i_11265>

000000008000b648 <i_11264>:
    8000b648:	e1b12e23          	sw	s11,-484(sp)

000000008000b64c <i_11265>:
    8000b64c:	fe811223          	sh	s0,-28(sp)

000000008000b650 <i_11266>:
    8000b650:	e3b12023          	sw	s11,-480(sp)

000000008000b654 <i_11267>:
    8000b654:	00000013          	nop

000000008000b658 <i_11268>:
    8000b658:	02f2b9b3          	mulhu	s3,t0,a5

000000008000b65c <i_11269>:
    8000b65c:	00178793          	addi	a5,a5,1
    8000b660:	fc5796e3          	bne	a5,t0,8000b62c <i_11257>

000000008000b664 <i_11270>:
    8000b664:	eb313823          	sd	s3,-336(sp)

000000008000b668 <i_11271>:
    8000b668:	0059e463          	bltu	s3,t0,8000b670 <i_11273>

000000008000b66c <i_11272>:
    8000b66c:	f5d13023          	sd	t4,-192(sp)

000000008000b670 <i_11273>:
    8000b670:	00000013          	nop

000000008000b674 <i_11274>:
    8000b674:	0f310e23          	sb	s3,252(sp)

000000008000b678 <i_11275>:
    8000b678:	81b00493          	li	s1,-2021

000000008000b67c <i_11276>:
    8000b67c:	82200793          	li	a5,-2014

000000008000b680 <i_11277>:
    8000b680:	e3d11623          	sh	t4,-468(sp)

000000008000b684 <i_11278>:
    8000b684:	0015d39b          	srliw	t2,a1,0x1

000000008000b688 <i_11279>:
    8000b688:	00439e93          	slli	t4,t2,0x4

000000008000b68c <i_11280>:
    8000b68c:	00000013          	nop

000000008000b690 <i_11281>:
    8000b690:	00000013          	nop

000000008000b694 <i_11282>:
    8000b694:	e4211203          	lh	tp,-446(sp)

000000008000b698 <i_11283>:
    8000b698:	00148493          	addi	s1,s1,1 # 21654285 <main-0x5e9abd7b>
    8000b69c:	fef4c2e3          	blt	s1,a5,8000b680 <i_11277>

000000008000b6a0 <i_11284>:
    8000b6a0:	eec16083          	lwu	ra,-276(sp)

000000008000b6a4 <i_11285>:
    8000b6a4:	f5a15383          	lhu	t2,-166(sp)

000000008000b6a8 <i_11286>:
    8000b6a8:	0015ec63          	bltu	a1,ra,8000b6c0 <i_11292>

000000008000b6ac <i_11287>:
    8000b6ac:	1da15083          	lhu	ra,474(sp)

000000008000b6b0 <i_11288>:
    8000b6b0:	e8c12203          	lw	tp,-372(sp)

000000008000b6b4 <i_11289>:
    8000b6b4:	19813e83          	ld	t4,408(sp)

000000008000b6b8 <i_11290>:
    8000b6b8:	01400a13          	li	s4,20

000000008000b6bc <i_11291>:
    8000b6bc:	4143d233          	sra	tp,t2,s4

000000008000b6c0 <i_11292>:
    8000b6c0:	f5c16b83          	lwu	s7,-164(sp)

000000008000b6c4 <i_11293>:
    8000b6c4:	13c12403          	lw	s0,316(sp)

000000008000b6c8 <i_11294>:
    8000b6c8:	01720863          	beq	tp,s7,8000b6d8 <i_11298>

000000008000b6cc <i_11295>:
    8000b6cc:	e650b413          	sltiu	s0,ra,-411

000000008000b6d0 <i_11296>:
    8000b6d0:	00421a63          	bne	tp,tp,8000b6e4 <i_11301>

000000008000b6d4 <i_11297>:
    8000b6d4:	e1c16083          	lwu	ra,-484(sp)

000000008000b6d8 <i_11298>:
    8000b6d8:	f8a10aa3          	sb	a0,-107(sp)

000000008000b6dc <i_11299>:
    8000b6dc:	00000013          	nop

000000008000b6e0 <i_11300>:
    8000b6e0:	68024513          	xori	a0,tp,1664

000000008000b6e4 <i_11301>:
    8000b6e4:	00000013          	nop

000000008000b6e8 <i_11302>:
    8000b6e8:	02a7b7b3          	mulhu	a5,a5,a0

000000008000b6ec <i_11303>:
    8000b6ec:	88b00093          	li	ra,-1909

000000008000b6f0 <i_11304>:
    8000b6f0:	89f00213          	li	tp,-1889

000000008000b6f4 <i_11305>:
    8000b6f4:	02800793          	li	a5,40

000000008000b6f8 <i_11306>:
    8000b6f8:	00f0d833          	srl	a6,ra,a5

000000008000b6fc <i_11307>:
    8000b6fc:	00108093          	addi	ra,ra,1
    8000b700:	fe40cae3          	blt	ra,tp,8000b6f4 <i_11305>

000000008000b704 <i_11308>:
    8000b704:	e5314083          	lbu	ra,-429(sp)

000000008000b708 <i_11309>:
    8000b708:	02f787b3          	mul	a5,a5,a5

000000008000b70c <i_11310>:
    8000b70c:	f0112623          	sw	ra,-244(sp)

000000008000b710 <i_11311>:
    8000b710:	fef11923          	sh	a5,-14(sp)

000000008000b714 <i_11312>:
    8000b714:	11012403          	lw	s0,272(sp)

000000008000b718 <i_11313>:
    8000b718:	0017e7b3          	or	a5,a5,ra

000000008000b71c <i_11314>:
    8000b71c:	e6815783          	lhu	a5,-408(sp)

000000008000b720 <i_11315>:
    8000b720:	00f41463          	bne	s0,a5,8000b728 <i_11317>

000000008000b724 <i_11316>:
    8000b724:	ed013783          	ld	a5,-304(sp)

000000008000b728 <i_11317>:
    8000b728:	e9e14b83          	lbu	s7,-354(sp)

000000008000b72c <i_11318>:
    8000b72c:	03778bbb          	mulw	s7,a5,s7

000000008000b730 <i_11319>:
    8000b730:	8b500793          	li	a5,-1867

000000008000b734 <i_11320>:
    8000b734:	8c800413          	li	s0,-1848

000000008000b738 <i_11321>:
    8000b738:	024b9233          	mulh	tp,s7,tp

000000008000b73c <i_11322>:
    8000b73c:	0372a2b3          	mulhsu	t0,t0,s7

000000008000b740 <i_11323>:
    8000b740:	0192ca63          	blt	t0,s9,8000b754 <i_11328>

000000008000b744 <i_11324>:
    8000b744:	f1415283          	lhu	t0,-236(sp)

000000008000b748 <i_11325>:
    8000b748:	0ec12e83          	lw	t4,236(sp)

000000008000b74c <i_11326>:
    8000b74c:	03dea2b3          	mulhsu	t0,t4,t4

000000008000b750 <i_11327>:
    8000b750:	eb411823          	sh	s4,-336(sp)

000000008000b754 <i_11328>:
    8000b754:	005864b3          	or	s1,a6,t0

000000008000b758 <i_11329>:
    8000b758:	03de9663          	bne	t4,t4,8000b784 <i_11339>

000000008000b75c <i_11330>:
    8000b75c:	005e9863          	bne	t4,t0,8000b76c <i_11334>

000000008000b760 <i_11331>:
    8000b760:	019ed663          	ble	s9,t4,8000b76c <i_11334>

000000008000b764 <i_11332>:
    8000b764:	037e1bb3          	mulh	s7,t3,s7

000000008000b768 <i_11333>:
    8000b768:	03200b93          	li	s7,50

000000008000b76c <i_11334>:
    8000b76c:	017b9eb3          	sll	t4,s7,s7

000000008000b770 <i_11335>:
    8000b770:	02949663          	bne	s1,s1,8000b79c <i_11345>

000000008000b774 <i_11336>:
    8000b774:	00178793          	addi	a5,a5,1
    8000b778:	fc87c0e3          	blt	a5,s0,8000b738 <i_11321>

000000008000b77c <i_11337>:
    8000b77c:	09d12423          	sw	t4,136(sp)

000000008000b780 <i_11338>:
    8000b780:	404bda13          	srai	s4,s7,0x4

000000008000b784 <i_11339>:
    8000b784:	03dedeb3          	divu	t4,t4,t4

000000008000b788 <i_11340>:
    8000b788:	03600b93          	li	s7,54

000000008000b78c <i_11341>:
    8000b78c:	417dd0b3          	sra	ra,s11,s7

000000008000b790 <i_11342>:
    8000b790:	e7312023          	sw	s3,-416(sp)

000000008000b794 <i_11343>:
    8000b794:	e8f10d83          	lb	s11,-369(sp)

000000008000b798 <i_11344>:
    8000b798:	00109a63          	bne	ra,ra,8000b7ac <i_11349>

000000008000b79c <i_11345>:
    8000b79c:	14016e83          	lwu	t4,320(sp)

000000008000b7a0 <i_11346>:
    8000b7a0:	03bb8063          	beq	s7,s11,8000b7c0 <i_11354>

000000008000b7a4 <i_11347>:
    8000b7a4:	01100093          	li	ra,17

000000008000b7a8 <i_11348>:
    8000b7a8:	401e5e3b          	sraw	t3,t3,ra

000000008000b7ac <i_11349>:
    8000b7ac:	f8111f23          	sh	ra,-98(sp)

000000008000b7b0 <i_11350>:
    8000b7b0:	19712223          	sw	s7,388(sp)

000000008000b7b4 <i_11351>:
    8000b7b4:	f6112023          	sw	ra,-160(sp)

000000008000b7b8 <i_11352>:
    8000b7b8:	0170adb3          	slt	s11,ra,s7

000000008000b7bc <i_11353>:
    8000b7bc:	e3615583          	lhu	a1,-458(sp)

000000008000b7c0 <i_11354>:
    8000b7c0:	0049509b          	srliw	ra,s2,0x4

000000008000b7c4 <i_11355>:
    8000b7c4:	ee110223          	sb	ra,-284(sp)

000000008000b7c8 <i_11356>:
    8000b7c8:	e4810283          	lb	t0,-440(sp)

000000008000b7cc <i_11357>:
    8000b7cc:	0ce11183          	lh	gp,206(sp)

000000008000b7d0 <i_11358>:
    8000b7d0:	01500193          	li	gp,21

000000008000b7d4 <i_11359>:
    8000b7d4:	0030d1b3          	srl	gp,ra,gp

000000008000b7d8 <i_11360>:
    8000b7d8:	01c00093          	li	ra,28

000000008000b7dc <i_11361>:
    8000b7dc:	001611bb          	sllw	gp,a2,ra

000000008000b7e0 <i_11362>:
    8000b7e0:	01200193          	li	gp,18

000000008000b7e4 <i_11363>:
    8000b7e4:	003251bb          	srlw	gp,tp,gp

000000008000b7e8 <i_11364>:
    8000b7e8:	0211e9bb          	remw	s3,gp,ra

000000008000b7ec <i_11365>:
    8000b7ec:	19a10503          	lb	a0,410(sp)

000000008000b7f0 <i_11366>:
    8000b7f0:	04c12503          	lw	a0,76(sp)

000000008000b7f4 <i_11367>:
    8000b7f4:	00a54e63          	blt	a0,a0,8000b810 <i_11374>

000000008000b7f8 <i_11368>:
    8000b7f8:	01354e63          	blt	a0,s3,8000b814 <i_11375>

000000008000b7fc <i_11369>:
    8000b7fc:	4025551b          	sraiw	a0,a0,0x2

000000008000b800 <i_11370>:
    8000b800:	00a55c63          	ble	a0,a0,8000b818 <i_11376>

000000008000b804 <i_11371>:
    8000b804:	ec652513          	slti	a0,a0,-314

000000008000b808 <i_11372>:
    8000b808:	1b012503          	lw	a0,432(sp)

000000008000b80c <i_11373>:
    8000b80c:	02a56463          	bltu	a0,a0,8000b834 <i_11383>

000000008000b810 <i_11374>:
    8000b810:	06a12223          	sw	a0,100(sp)

000000008000b814 <i_11375>:
    8000b814:	02157533          	remu	a0,a0,ra

000000008000b818 <i_11376>:
    8000b818:	01800513          	li	a0,24

000000008000b81c <i_11377>:
    8000b81c:	00aa1a3b          	sllw	s4,s4,a0

000000008000b820 <i_11378>:
    8000b820:	fca12e23          	sw	a0,-36(sp)

000000008000b824 <i_11379>:
    8000b824:	03488063          	beq	a7,s4,8000b844 <i_11387>

000000008000b828 <i_11380>:
    8000b828:	00a55e63          	ble	a0,a0,8000b844 <i_11387>

000000008000b82c <i_11381>:
    8000b82c:	1aa12023          	sw	a0,416(sp)

000000008000b830 <i_11382>:
    8000b830:	00ae7e33          	and	t3,t3,a0

000000008000b834 <i_11383>:
    8000b834:	04a11723          	sh	a0,78(sp)

000000008000b838 <i_11384>:
    8000b838:	03ca7a3b          	remuw	s4,s4,t3

000000008000b83c <i_11385>:
    8000b83c:	00ae6263          	bltu	t3,a0,8000b840 <i_11386>

000000008000b840 <i_11386>:
    8000b840:	032e0463          	beq	t3,s2,8000b868 <i_11396>

000000008000b844 <i_11387>:
    8000b844:	00a56c63          	bltu	a0,a0,8000b85c <i_11393>

000000008000b848 <i_11388>:
    8000b848:	78a64313          	xori	t1,a2,1930

000000008000b84c <i_11389>:
    8000b84c:	e9813483          	ld	s1,-360(sp)

000000008000b850 <i_11390>:
    8000b850:	5135099b          	addiw	s3,a0,1299

000000008000b854 <i_11391>:
    8000b854:	01400513          	li	a0,20

000000008000b858 <i_11392>:
    8000b858:	40a4dbbb          	sraw	s7,s1,a0

000000008000b85c <i_11393>:
    8000b85c:	02a55063          	ble	a0,a0,8000b87c <i_11401>

000000008000b860 <i_11394>:
    8000b860:	f2c10403          	lb	s0,-212(sp)

000000008000b864 <i_11395>:
    8000b864:	02a55533          	divu	a0,a0,a0

000000008000b868 <i_11396>:
    8000b868:	03713823          	sd	s7,48(sp)

000000008000b86c <i_11397>:
    8000b86c:	00a50663          	beq	a0,a0,8000b878 <i_11400>

000000008000b870 <i_11398>:
    8000b870:	fad14b83          	lbu	s7,-83(sp)

000000008000b874 <i_11399>:
    8000b874:	40255513          	srai	a0,a0,0x2

000000008000b878 <i_11400>:
    8000b878:	01757c63          	bleu	s7,a0,8000b890 <i_11406>

000000008000b87c <i_11401>:
    8000b87c:	08c12503          	lw	a0,140(sp)

000000008000b880 <i_11402>:
    8000b880:	efc10783          	lb	a5,-260(sp)

000000008000b884 <i_11403>:
    8000b884:	41078833          	sub	a6,a5,a6

000000008000b888 <i_11404>:
    8000b888:	00fb8263          	beq	s7,a5,8000b88c <i_11405>

000000008000b88c <i_11405>:
    8000b88c:	fda14403          	lbu	s0,-38(sp)

000000008000b890 <i_11406>:
    8000b890:	1b416803          	lwu	a6,436(sp)

000000008000b894 <i_11407>:
    8000b894:	00416303          	lwu	t1,4(sp)

000000008000b898 <i_11408>:
    8000b898:	04813b83          	ld	s7,72(sp)

000000008000b89c <i_11409>:
    8000b89c:	00000013          	nop

000000008000b8a0 <i_11410>:
    8000b8a0:	80c00313          	li	t1,-2036

000000008000b8a4 <i_11411>:
    8000b8a4:	81d00813          	li	a6,-2019

000000008000b8a8 <i_11412>:
    8000b8a8:	00135513          	srli	a0,t1,0x1

000000008000b8ac <i_11413>:
    8000b8ac:	ffc12503          	lw	a0,-4(sp)

000000008000b8b0 <i_11414>:
    8000b8b0:	00000013          	nop

000000008000b8b4 <i_11415>:
    8000b8b4:	19210f23          	sb	s2,414(sp)

000000008000b8b8 <i_11416>:
    8000b8b8:	00000013          	nop

000000008000b8bc <i_11417>:
    8000b8bc:	01d00513          	li	a0,29

000000008000b8c0 <i_11418>:
    8000b8c0:	00a55a3b          	srlw	s4,a0,a0

000000008000b8c4 <i_11419>:
    8000b8c4:	00130313          	addi	t1,t1,1 # ffffffff868af001 <_end+0xffffffff0689ebed>
    8000b8c8:	ff0340e3          	blt	t1,a6,8000b8a8 <i_11412>

000000008000b8cc <i_11420>:
    8000b8cc:	01755863          	ble	s7,a0,8000b8dc <i_11424>

000000008000b8d0 <i_11421>:
    8000b8d0:	eee11a03          	lh	s4,-274(sp)

000000008000b8d4 <i_11422>:
    8000b8d4:	0149cc63          	blt	s3,s4,8000b8ec <i_11428>

000000008000b8d8 <i_11423>:
    8000b8d8:	0f710d23          	sb	s7,250(sp)

000000008000b8dc <i_11424>:
    8000b8dc:	00a54463          	blt	a0,a0,8000b8e4 <i_11426>

000000008000b8e0 <i_11425>:
    8000b8e0:	00a13823          	sd	a0,16(sp)

000000008000b8e4 <i_11426>:
    8000b8e4:	00b50533          	add	a0,a0,a1

000000008000b8e8 <i_11427>:
    8000b8e8:	00a51463          	bne	a0,a0,8000b8f0 <i_11429>

000000008000b8ec <i_11428>:
    8000b8ec:	02a50263          	beq	a0,a0,8000b910 <i_11437>

000000008000b8f0 <i_11429>:
    8000b8f0:	1e015303          	lhu	t1,480(sp)

000000008000b8f4 <i_11430>:
    8000b8f4:	e6c16303          	lwu	t1,-404(sp)

000000008000b8f8 <i_11431>:
    8000b8f8:	00635263          	ble	t1,t1,8000b8fc <i_11432>

000000008000b8fc <i_11432>:
    8000b8fc:	13110383          	lb	t2,305(sp)

000000008000b900 <i_11433>:
    8000b900:	0293a533          	mulhsu	a0,t2,s1

000000008000b904 <i_11434>:
    8000b904:	e4a101a3          	sb	a0,-445(sp)

000000008000b908 <i_11435>:
    8000b908:	00a521b3          	slt	gp,a0,a0

000000008000b90c <i_11436>:
    8000b90c:	03451063          	bne	a0,s4,8000b92c <i_11444>

000000008000b910 <i_11437>:
    8000b910:	0021da13          	srli	s4,gp,0x2

000000008000b914 <i_11438>:
    8000b914:	002bde9b          	srliw	t4,s7,0x2

000000008000b918 <i_11439>:
    8000b918:	93256a13          	ori	s4,a0,-1742

000000008000b91c <i_11440>:
    8000b91c:	00ea6263          	bltu	s4,a4,8000b920 <i_11441>

000000008000b920 <i_11441>:
    8000b920:	0f411503          	lh	a0,244(sp)

000000008000b924 <i_11442>:
    8000b924:	11411123          	sh	s4,258(sp)

000000008000b928 <i_11443>:
    8000b928:	036a7263          	bleu	s6,s4,8000b94c <i_11452>

000000008000b92c <i_11444>:
    8000b92c:	03c55463          	ble	t3,a0,8000b954 <i_11454>

000000008000b930 <i_11445>:
    8000b930:	014a6663          	bltu	s4,s4,8000b93c <i_11448>

000000008000b934 <i_11446>:
    8000b934:	57ea2d93          	slti	s11,s4,1406

000000008000b938 <i_11447>:
    8000b938:	009544b3          	xor	s1,a0,s1

000000008000b93c <i_11448>:
    8000b93c:	06813b83          	ld	s7,104(sp)

000000008000b940 <i_11449>:
    8000b940:	01dbca33          	xor	s4,s7,t4

000000008000b944 <i_11450>:
    8000b944:	b4364d93          	xori	s11,a2,-1213

000000008000b948 <i_11451>:
    8000b948:	034a6ebb          	remw	t4,s4,s4

000000008000b94c <i_11452>:
    8000b94c:	034ee263          	bltu	t4,s4,8000b970 <i_11461>

000000008000b950 <i_11453>:
    8000b950:	0fc11e83          	lh	t4,252(sp)

000000008000b954 <i_11454>:
    8000b954:	f6016503          	lwu	a0,-160(sp)

000000008000b958 <i_11455>:
    8000b958:	004e9a13          	slli	s4,t4,0x4

000000008000b95c <i_11456>:
    8000b95c:	1fd13023          	sd	t4,480(sp)

000000008000b960 <i_11457>:
    8000b960:	00500793          	li	a5,5

000000008000b964 <i_11458>:
    8000b964:	00fedebb          	srlw	t4,t4,a5

000000008000b968 <i_11459>:
    8000b968:	03de91b3          	mulh	gp,t4,t4

000000008000b96c <i_11460>:
    8000b96c:	03618ebb          	mulw	t4,gp,s6

000000008000b970 <i_11461>:
    8000b970:	00013e83          	ld	t4,0(sp)

000000008000b974 <i_11462>:
    8000b974:	03d1e263          	bltu	gp,t4,8000b998 <i_11471>

000000008000b978 <i_11463>:
    8000b978:	402edd93          	srai	s11,t4,0x2

000000008000b97c <i_11464>:
    8000b97c:	f3a14083          	lbu	ra,-198(sp)

000000008000b980 <i_11465>:
    8000b980:	e7c15d83          	lhu	s11,-388(sp)

000000008000b984 <i_11466>:
    8000b984:	16013403          	ld	s0,352(sp)

000000008000b988 <i_11467>:
    8000b988:	001403b3          	add	t2,s0,ra

000000008000b98c <i_11468>:
    8000b98c:	e1418d97          	auipc	s11,0xe1418

000000008000b990 <i_11469>:
    8000b990:	0cc15d83          	lhu	s11,204(sp)

000000008000b994 <i_11470>:
    8000b994:	1b012283          	lw	t0,432(sp)

000000008000b998 <i_11471>:
    8000b998:	00000013          	nop

000000008000b99c <i_11472>:
    8000b99c:	00713423          	sd	t2,8(sp)

000000008000b9a0 <i_11473>:
    8000b9a0:	8c100593          	li	a1,-1855

000000008000b9a4 <i_11474>:
    8000b9a4:	8d100493          	li	s1,-1839

000000008000b9a8 <i_11475>:
    8000b9a8:	0382f533          	remu	a0,t0,s8

000000008000b9ac <i_11476>:
    8000b9ac:	ea213423          	sd	sp,-344(sp)

000000008000b9b0 <i_11477>:
    8000b9b0:	00000013          	nop

000000008000b9b4 <i_11478>:
    8000b9b4:	107104a3          	sb	t2,265(sp)

000000008000b9b8 <i_11479>:
    8000b9b8:	7e000393          	li	t2,2016

000000008000b9bc <i_11480>:
    8000b9bc:	7ef00293          	li	t0,2031

000000008000b9c0 <i_11481>:
    8000b9c0:	11210d23          	sb	s2,282(sp)

000000008000b9c4 <i_11482>:
    8000b9c4:	09013083          	ld	ra,144(sp)

000000008000b9c8 <i_11483>:
    8000b9c8:	0073da63          	ble	t2,t2,8000b9dc <i_11487>

000000008000b9cc <i_11484>:
    8000b9cc:	00138393          	addi	t2,t2,1 # ffffffffa9079001 <_end+0xffffffff29068bed>
    8000b9d0:	fe53c8e3          	blt	t2,t0,8000b9c0 <i_11481>

000000008000b9d4 <i_11485>:
    8000b9d4:	0252e83b          	remw	a6,t0,t0

000000008000b9d8 <i_11486>:
    8000b9d8:	02b2d0bb          	divuw	ra,t0,a1

000000008000b9dc <i_11487>:
    8000b9dc:	00000013          	nop

000000008000b9e0 <i_11488>:
    8000b9e0:	f9813283          	ld	t0,-104(sp)

000000008000b9e4 <i_11489>:
    8000b9e4:	f7f10383          	lb	t2,-129(sp)

000000008000b9e8 <i_11490>:
    8000b9e8:	00148e63          	beq	s1,ra,8000ba04 <i_11496>

000000008000b9ec <i_11491>:
    8000b9ec:	00158593          	addi	a1,a1,1 # ffffffffc9219001 <_end+0xffffffff49208bed>
    8000b9f0:	fa959ce3          	bne	a1,s1,8000b9a8 <i_11475>

000000008000b9f4 <i_11492>:
    8000b9f4:	efa13823          	sd	s10,-272(sp)

000000008000b9f8 <i_11493>:
    8000b9f8:	07514803          	lbu	a6,117(sp)

000000008000b9fc <i_11494>:
    8000b9fc:	1a710ba3          	sb	t2,439(sp)

000000008000ba00 <i_11495>:
    8000ba00:	fb812383          	lw	t2,-72(sp)

000000008000ba04 <i_11496>:
    8000ba04:	0383f83b          	remuw	a6,t2,s8

000000008000ba08 <i_11497>:
    8000ba08:	06013383          	ld	t2,96(sp)

000000008000ba0c <i_11498>:
    8000ba0c:	02739463          	bne	t2,t2,8000ba34 <i_11508>

000000008000ba10 <i_11499>:
    8000ba10:	00739863          	bne	t2,t2,8000ba20 <i_11503>

000000008000ba14 <i_11500>:
    8000ba14:	e67101a3          	sb	t2,-413(sp)

000000008000ba18 <i_11501>:
    8000ba18:	027a0433          	mul	s0,s4,t2

000000008000ba1c <i_11502>:
    8000ba1c:	00845a63          	ble	s0,s0,8000ba30 <i_11507>

000000008000ba20 <i_11503>:
    8000ba20:	00000013          	nop

000000008000ba24 <i_11504>:
    8000ba24:	fce15503          	lhu	a0,-50(sp)

000000008000ba28 <i_11505>:
    8000ba28:	00000013          	nop

000000008000ba2c <i_11506>:
    8000ba2c:	00000013          	nop

000000008000ba30 <i_11507>:
    8000ba30:	fb816383          	lwu	t2,-72(sp)

000000008000ba34 <i_11508>:
    8000ba34:	02a3f3b3          	remu	t2,t2,a0

000000008000ba38 <i_11509>:
    8000ba38:	00000013          	nop

000000008000ba3c <i_11510>:
    8000ba3c:	8ad00413          	li	s0,-1875

000000008000ba40 <i_11511>:
    8000ba40:	8be00813          	li	a6,-1858

000000008000ba44 <i_11512>:
    8000ba44:	16812383          	lw	t2,360(sp)

000000008000ba48 <i_11513>:
    8000ba48:	00140413          	addi	s0,s0,1
    8000ba4c:	fe887ce3          	bleu	s0,a6,8000ba44 <i_11512>

000000008000ba50 <i_11514>:
    8000ba50:	0e710d23          	sb	t2,250(sp)

000000008000ba54 <i_11515>:
    8000ba54:	010a7663          	bleu	a6,s4,8000ba60 <i_11518>

000000008000ba58 <i_11516>:
    8000ba58:	02a865bb          	remw	a1,a6,a0

000000008000ba5c <i_11517>:
    8000ba5c:	e1a15583          	lhu	a1,-486(sp)

000000008000ba60 <i_11518>:
    8000ba60:	02b3b5b3          	mulhu	a1,t2,a1

000000008000ba64 <i_11519>:
    8000ba64:	00000013          	nop

000000008000ba68 <i_11520>:
    8000ba68:	7eb00a13          	li	s4,2027

000000008000ba6c <i_11521>:
    8000ba6c:	7f100393          	li	t2,2033

000000008000ba70 <i_11522>:
    8000ba70:	14c12283          	lw	t0,332(sp)

000000008000ba74 <i_11523>:
    8000ba74:	00544533          	xor	a0,s0,t0

000000008000ba78 <i_11524>:
    8000ba78:	00a437b3          	sltu	a5,s0,a0

000000008000ba7c <i_11525>:
    8000ba7c:	aa5de517          	auipc	a0,0xaa5de

000000008000ba80 <i_11526>:
    8000ba80:	0a016583          	lwu	a1,160(sp)

000000008000ba84 <i_11527>:
    8000ba84:	0c614203          	lbu	tp,198(sp)

000000008000ba88 <i_11528>:
    8000ba88:	ece15e03          	lhu	t3,-306(sp)

000000008000ba8c <i_11529>:
    8000ba8c:	fe914403          	lbu	s0,-23(sp)

000000008000ba90 <i_11530>:
    8000ba90:	001a0a13          	addi	s4,s4,1
    8000ba94:	fc7a6ee3          	bltu	s4,t2,8000ba70 <i_11522>

000000008000ba98 <i_11531>:
    8000ba98:	10510023          	sb	t0,256(sp)

000000008000ba9c <i_11532>:
    8000ba9c:	004441b3          	xor	gp,s0,tp

000000008000baa0 <i_11533>:
    8000baa0:	f3813403          	ld	s0,-200(sp)

000000008000baa4 <i_11534>:
    8000baa4:	e6614183          	lbu	gp,-410(sp)

000000008000baa8 <i_11535>:
    8000baa8:	1b510403          	lb	s0,437(sp)

000000008000baac <i_11536>:
    8000baac:	035451bb          	divuw	gp,s0,s5

000000008000bab0 <i_11537>:
    8000bab0:	4047d393          	srai	t2,a5,0x4

000000008000bab4 <i_11538>:
    8000bab4:	01340663          	beq	s0,s3,8000bac0 <i_11541>

000000008000bab8 <i_11539>:
    8000bab8:	625053b7          	lui	t2,0x62505

000000008000babc <i_11540>:
    8000babc:	00747e33          	and	t3,s0,t2

000000008000bac0 <i_11541>:
    8000bac0:	f0913023          	sd	s1,-256(sp)

000000008000bac4 <i_11542>:
    8000bac4:	f8813b83          	ld	s7,-120(sp)

000000008000bac8 <i_11543>:
    8000bac8:	402b8333          	sub	t1,s7,sp

000000008000bacc <i_11544>:
    8000bacc:	1b016283          	lwu	t0,432(sp)

000000008000bad0 <i_11545>:
    8000bad0:	e5b10203          	lb	tp,-421(sp)

000000008000bad4 <i_11546>:
    8000bad4:	7ba00d93          	li	s11,1978

000000008000bad8 <i_11547>:
    8000bad8:	7bd00413          	li	s0,1981

000000008000badc <i_11548>:
    8000badc:	001d8d93          	addi	s11,s11,1 # 6142398d <main-0x1ebdc673>
    8000bae0:	ffb45ee3          	ble	s11,s0,8000badc <i_11548>

000000008000bae4 <i_11549>:
    8000bae4:	00000013          	nop

000000008000bae8 <i_11550>:
    8000bae8:	02300313          	li	t1,35

000000008000baec <i_11551>:
    8000baec:	00631333          	sll	t1,t1,t1

000000008000baf0 <i_11552>:
    8000baf0:	74900393          	li	t2,1865

000000008000baf4 <i_11553>:
    8000baf4:	74e00e93          	li	t4,1870

000000008000baf8 <i_11554>:
    8000baf8:	00138393          	addi	t2,t2,1 # 62505001 <main-0x1dafafff>
    8000bafc:	ffd3ece3          	bltu	t2,t4,8000baf4 <i_11553>

000000008000bb00 <i_11555>:
    8000bb00:	f7416303          	lwu	t1,-140(sp)

000000008000bb04 <i_11556>:
    8000bb04:	11815e83          	lhu	t4,280(sp)

000000008000bb08 <i_11557>:
    8000bb08:	029ef463          	bleu	s1,t4,8000bb30 <i_11567>

000000008000bb0c <i_11558>:
    8000bb0c:	01c00293          	li	t0,28

000000008000bb10 <i_11559>:
    8000bb10:	005352bb          	srlw	t0,t1,t0

000000008000bb14 <i_11560>:
    8000bb14:	00a00993          	li	s3,10

000000008000bb18 <i_11561>:
    8000bb18:	013d19b3          	sll	s3,s10,s3

000000008000bb1c <i_11562>:
    8000bb1c:	1e013e83          	ld	t4,480(sp)

000000008000bb20 <i_11563>:
    8000bb20:	0332f263          	bleu	s3,t0,8000bb44 <i_11572>

000000008000bb24 <i_11564>:
    8000bb24:	5a49a313          	slti	t1,s3,1444

000000008000bb28 <i_11565>:
    8000bb28:	e3013d83          	ld	s11,-464(sp)

000000008000bb2c <i_11566>:
    8000bb2c:	fe512823          	sw	t0,-16(sp)

000000008000bb30 <i_11567>:
    8000bb30:	0032d99b          	srliw	s3,t0,0x3

000000008000bb34 <i_11568>:
    8000bb34:	01326e63          	bltu	tp,s3,8000bb50 <i_11575>

000000008000bb38 <i_11569>:
    8000bb38:	1e710803          	lb	a6,487(sp)

000000008000bb3c <i_11570>:
    8000bb3c:	1bc11283          	lh	t0,444(sp)

000000008000bb40 <i_11571>:
    8000bb40:	fd012803          	lw	a6,-48(sp)

000000008000bb44 <i_11572>:
    8000bb44:	00000013          	nop

000000008000bb48 <i_11573>:
    8000bb48:	79c52237          	lui	tp,0x79c52

000000008000bb4c <i_11574>:
    8000bb4c:	1b0105a3          	sb	a6,427(sp)

000000008000bb50 <i_11575>:
    8000bb50:	00000013          	nop

000000008000bb54 <i_11576>:
    8000bb54:	06812203          	lw	tp,104(sp)

000000008000bb58 <i_11577>:
    8000bb58:	83c00993          	li	s3,-1988

000000008000bb5c <i_11578>:
    8000bb5c:	84400a13          	li	s4,-1980

000000008000bb60 <i_11579>:
    8000bb60:	02214783          	lbu	a5,34(sp)

000000008000bb64 <i_11580>:
    8000bb64:	03429663          	bne	t0,s4,8000bb90 <i_11590>

000000008000bb68 <i_11581>:
    8000bb68:	0052f263          	bleu	t0,t0,8000bb6c <i_11582>

000000008000bb6c <i_11582>:
    8000bb6c:	02428233          	mul	tp,t0,tp

000000008000bb70 <i_11583>:
    8000bb70:	f0c11b83          	lh	s7,-244(sp)

000000008000bb74 <i_11584>:
    8000bb74:	03910383          	lb	t2,57(sp)

000000008000bb78 <i_11585>:
    8000bb78:	00198993          	addi	s3,s3,1 # ffffffffc6ec8001 <_end+0xffffffff46eb7bed>
    8000bb7c:	ff3a72e3          	bleu	s3,s4,8000bb60 <i_11579>

000000008000bb80 <i_11586>:
    8000bb80:	00000013          	nop

000000008000bb84 <i_11587>:
    8000bb84:	003d1e13          	slli	t3,s10,0x3

000000008000bb88 <i_11588>:
    8000bb88:	1b110283          	lb	t0,433(sp)

000000008000bb8c <i_11589>:
    8000bb8c:	007643b3          	xor	t2,a2,t2

000000008000bb90 <i_11590>:
    8000bb90:	f4c16503          	lwu	a0,-180(sp)

000000008000bb94 <i_11591>:
    8000bb94:	70c7c813          	xori	a6,a5,1804

000000008000bb98 <i_11592>:
    8000bb98:	82300793          	li	a5,-2013

000000008000bb9c <i_11593>:
    8000bb9c:	82a00213          	li	tp,-2006

000000008000bba0 <i_11594>:
    8000bba0:	f2c12383          	lw	t2,-212(sp)

000000008000bba4 <i_11595>:
    8000bba4:	02751063          	bne	a0,t2,8000bbc4 <i_11603>

000000008000bba8 <i_11596>:
    8000bba8:	00a403b3          	add	t2,s0,a0

000000008000bbac <i_11597>:
    8000bbac:	18910ba3          	sb	s1,407(sp)

000000008000bbb0 <i_11598>:
    8000bbb0:	e8b10383          	lb	t2,-373(sp)

000000008000bbb4 <i_11599>:
    8000bbb4:	9fe52513          	slti	a0,a0,-1538

000000008000bbb8 <i_11600>:
    8000bbb8:	0073f463          	bleu	t2,t2,8000bbc0 <i_11602>

000000008000bbbc <i_11601>:
    8000bbbc:	18011383          	lh	t2,384(sp)

000000008000bbc0 <i_11602>:
    8000bbc0:	01e50e63          	beq	a0,t5,8000bbdc <i_11608>

000000008000bbc4 <i_11603>:
    8000bbc4:	47857a13          	andi	s4,a0,1144

000000008000bbc8 <i_11604>:
    8000bbc8:	ee411983          	lh	s3,-284(sp)

000000008000bbcc <i_11605>:
    8000bbcc:	00178793          	addi	a5,a5,1
    8000bbd0:	fcf278e3          	bleu	a5,tp,8000bba0 <i_11594>

000000008000bbd4 <i_11606>:
    8000bbd4:	7304cd93          	xori	s11,s1,1840

000000008000bbd8 <i_11607>:
    8000bbd8:	f8e13c23          	sd	a4,-104(sp)

000000008000bbdc <i_11608>:
    8000bbdc:	00000013          	nop

000000008000bbe0 <i_11609>:
    8000bbe0:	00145d9b          	srliw	s11,s0,0x1

000000008000bbe4 <i_11610>:
    8000bbe4:	7e500e13          	li	t3,2021

000000008000bbe8 <i_11611>:
    8000bbe8:	7f100a13          	li	s4,2033

000000008000bbec <i_11612>:
    8000bbec:	09813403          	ld	s0,152(sp)

000000008000bbf0 <i_11613>:
    8000bbf0:	40345413          	srai	s0,s0,0x3

000000008000bbf4 <i_11614>:
    8000bbf4:	0137e663          	bltu	a5,s3,8000bc00 <i_11617>

000000008000bbf8 <i_11615>:
    8000bbf8:	10416983          	lwu	s3,260(sp)

000000008000bbfc <i_11616>:
    8000bbfc:	1c214503          	lbu	a0,450(sp)

000000008000bc00 <i_11617>:
    8000bc00:	10813c23          	sd	s0,280(sp)

000000008000bc04 <i_11618>:
    8000bc04:	0045141b          	slliw	s0,a0,0x4

000000008000bc08 <i_11619>:
    8000bc08:	e2111723          	sh	ra,-466(sp)

000000008000bc0c <i_11620>:
    8000bc0c:	0280823b          	mulw	tp,ra,s0

000000008000bc10 <i_11621>:
    8000bc10:	75000093          	li	ra,1872

000000008000bc14 <i_11622>:
    8000bc14:	75200793          	li	a5,1874

000000008000bc18 <i_11623>:
    8000bc18:	00a11403          	lh	s0,10(sp)

000000008000bc1c <i_11624>:
    8000bc1c:	f4410f23          	sb	tp,-162(sp)

000000008000bc20 <i_11625>:
    8000bc20:	00108093          	addi	ra,ra,1
    8000bc24:	fe17dae3          	ble	ra,a5,8000bc18 <i_11623>

000000008000bc28 <i_11626>:
    8000bc28:	00944c63          	blt	s0,s1,8000bc40 <i_11631>

000000008000bc2c <i_11627>:
    8000bc2c:	001e0e13          	addi	t3,t3,1
    8000bc30:	fb4e1ee3          	bne	t3,s4,8000bbec <i_11612>

000000008000bc34 <i_11628>:
    8000bc34:	00000013          	nop

000000008000bc38 <i_11629>:
    8000bc38:	02940463          	beq	s0,s1,8000bc60 <i_11639>

000000008000bc3c <i_11630>:
    8000bc3c:	00912a23          	sw	s1,20(sp)

000000008000bc40 <i_11631>:
    8000bc40:	1b015e83          	lhu	t4,432(sp)

000000008000bc44 <i_11632>:
    8000bc44:	17714783          	lbu	a5,375(sp)

000000008000bc48 <i_11633>:
    8000bc48:	00f78663          	beq	a5,a5,8000bc54 <i_11636>

000000008000bc4c <i_11634>:
    8000bc4c:	01d26bb3          	or	s7,tp,t4

000000008000bc50 <i_11635>:
    8000bc50:	1a812623          	sw	s0,428(sp)

000000008000bc54 <i_11636>:
    8000bc54:	1d011983          	lh	s3,464(sp)

000000008000bc58 <i_11637>:
    8000bc58:	0087c463          	blt	a5,s0,8000bc60 <i_11639>

000000008000bc5c <i_11638>:
    8000bc5c:	0374d263          	ble	s7,s1,8000bc80 <i_11647>

000000008000bc60 <i_11639>:
    8000bc60:	4014521b          	sraiw	tp,s0,0x1

000000008000bc64 <i_11640>:
    8000bc64:	00424263          	blt	tp,tp,8000bc68 <i_11641>

000000008000bc68 <i_11641>:
    8000bc68:	0f412403          	lw	s0,244(sp)

000000008000bc6c <i_11642>:
    8000bc6c:	f1314203          	lbu	tp,-237(sp)

000000008000bc70 <i_11643>:
    8000bc70:	f7611b23          	sh	s6,-138(sp)

000000008000bc74 <i_11644>:
    8000bc74:	0bc16803          	lwu	a6,188(sp)

000000008000bc78 <i_11645>:
    8000bc78:	00480533          	add	a0,a6,tp

000000008000bc7c <i_11646>:
    8000bc7c:	fb011483          	lh	s1,-80(sp)

000000008000bc80 <i_11647>:
    8000bc80:	13813583          	ld	a1,312(sp)

000000008000bc84 <i_11648>:
    8000bc84:	03f00413          	li	s0,63

000000008000bc88 <i_11649>:
    8000bc88:	0085d333          	srl	t1,a1,s0

000000008000bc8c <i_11650>:
    8000bc8c:	79800093          	li	ra,1944

000000008000bc90 <i_11651>:
    8000bc90:	7ac00213          	li	tp,1964

000000008000bc94 <i_11652>:
    8000bc94:	0ab11b23          	sh	a1,182(sp)

000000008000bc98 <i_11653>:
    8000bc98:	02997eb3          	remu	t4,s2,s1

000000008000bc9c <i_11654>:
    8000bc9c:	00108093          	addi	ra,ra,1
    8000bca0:	fe4098e3          	bne	ra,tp,8000bc90 <i_11651>

000000008000bca4 <i_11655>:
    8000bca4:	0028181b          	slliw	a6,a6,0x2

000000008000bca8 <i_11656>:
    8000bca8:	14a10da3          	sb	a0,347(sp)

000000008000bcac <i_11657>:
    8000bcac:	19813483          	ld	s1,408(sp)

000000008000bcb0 <i_11658>:
    8000bcb0:	01900e93          	li	t4,25

000000008000bcb4 <i_11659>:
    8000bcb4:	01d09a3b          	sllw	s4,ra,t4

000000008000bcb8 <i_11660>:
    8000bcb8:	11016403          	lwu	s0,272(sp)

000000008000bcbc <i_11661>:
    8000bcbc:	74a84213          	xori	tp,a6,1866

000000008000bcc0 <i_11662>:
    8000bcc0:	f1112a23          	sw	a7,-236(sp)

000000008000bcc4 <i_11663>:
    8000bcc4:	0144e263          	bltu	s1,s4,8000bcc8 <i_11664>

000000008000bcc8 <i_11664>:
    8000bcc8:	024600b3          	mul	ra,a2,tp

000000008000bccc <i_11665>:
    8000bccc:	7434851b          	addiw	a0,s1,1859

000000008000bcd0 <i_11666>:
    8000bcd0:	00b47863          	bleu	a1,s0,8000bce0 <i_11670>

000000008000bcd4 <i_11667>:
    8000bcd4:	15d107a3          	sb	t4,335(sp)

000000008000bcd8 <i_11668>:
    8000bcd8:	f2312c23          	sw	gp,-200(sp)

000000008000bcdc <i_11669>:
    8000bcdc:	026c65bb          	remw	a1,s8,t1

000000008000bce0 <i_11670>:
    8000bce0:	026819b3          	mulh	s3,a6,t1

000000008000bce4 <i_11671>:
    8000bce4:	0139c463          	blt	s3,s3,8000bcec <i_11673>

000000008000bce8 <i_11672>:
    8000bce8:	00a54a63          	blt	a0,a0,8000bcfc <i_11677>

000000008000bcec <i_11673>:
    8000bcec:	f3610383          	lb	t2,-202(sp)

000000008000bcf0 <i_11674>:
    8000bcf0:	f2416803          	lwu	a6,-220(sp)

000000008000bcf4 <i_11675>:
    8000bcf4:	17910203          	lb	tp,377(sp)

000000008000bcf8 <i_11676>:
    8000bcf8:	01738463          	beq	t2,s7,8000bd00 <i_11678>

000000008000bcfc <i_11677>:
    8000bcfc:	17310383          	lb	t2,371(sp)

000000008000bd00 <i_11678>:
    8000bd00:	02ddd23b          	divuw	tp,s11,a3

000000008000bd04 <i_11679>:
    8000bd04:	0108e263          	bltu	a7,a6,8000bd08 <i_11680>

000000008000bd08 <i_11680>:
    8000bd08:	0243a533          	mulhsu	a0,t2,tp

000000008000bd0c <i_11681>:
    8000bd0c:	ff013183          	ld	gp,-16(sp)

000000008000bd10 <i_11682>:
    8000bd10:	e9410203          	lb	tp,-364(sp)

000000008000bd14 <i_11683>:
    8000bd14:	00a200b3          	add	ra,tp,a0

000000008000bd18 <i_11684>:
    8000bd18:	86200493          	li	s1,-1950

000000008000bd1c <i_11685>:
    8000bd1c:	87100513          	li	a0,-1935

000000008000bd20 <i_11686>:
    8000bd20:	00150463          	beq	a0,ra,8000bd28 <i_11688>

000000008000bd24 <i_11687>:
    8000bd24:	ef012083          	lw	ra,-272(sp)

000000008000bd28 <i_11688>:
    8000bd28:	f8412083          	lw	ra,-124(sp)

000000008000bd2c <i_11689>:
    8000bd2c:	fa110c23          	sb	ra,-72(sp)

000000008000bd30 <i_11690>:
    8000bd30:	1a110b23          	sb	ra,438(sp)

000000008000bd34 <i_11691>:
    8000bd34:	0040d263          	ble	tp,ra,8000bd38 <i_11692>

000000008000bd38 <i_11692>:
    8000bd38:	fc111023          	sh	ra,-64(sp)

000000008000bd3c <i_11693>:
    8000bd3c:	0010f1b3          	and	gp,ra,ra

000000008000bd40 <i_11694>:
    8000bd40:	e9816e03          	lwu	t3,-360(sp)

000000008000bd44 <i_11695>:
    8000bd44:	18f1e993          	ori	s3,gp,399

000000008000bd48 <i_11696>:
    8000bd48:	00000013          	nop

000000008000bd4c <i_11697>:
    8000bd4c:	00148493          	addi	s1,s1,1
    8000bd50:	fca4e8e3          	bltu	s1,a0,8000bd20 <i_11686>

000000008000bd54 <i_11698>:
    8000bd54:	f9416083          	lwu	ra,-108(sp)

000000008000bd58 <i_11699>:
    8000bd58:	0339de33          	divu	t3,s3,s3

000000008000bd5c <i_11700>:
    8000bd5c:	01c08a63          	beq	ra,t3,8000bd70 <i_11705>

000000008000bd60 <i_11701>:
    8000bd60:	e3c12e83          	lw	t4,-452(sp)

000000008000bd64 <i_11702>:
    8000bd64:	0130de63          	ble	s3,ra,8000bd80 <i_11709>

000000008000bd68 <i_11703>:
    8000bd68:	01400e13          	li	t3,20

000000008000bd6c <i_11704>:
    8000bd6c:	01ce99bb          	sllw	s3,t4,t3

000000008000bd70 <i_11705>:
    8000bd70:	013e7bb3          	and	s7,t3,s3

000000008000bd74 <i_11706>:
    8000bd74:	18415183          	lhu	gp,388(sp)

000000008000bd78 <i_11707>:
    8000bd78:	01dbd863          	ble	t4,s7,8000bd88 <i_11711>

000000008000bd7c <i_11708>:
    8000bd7c:	00369413          	slli	s0,a3,0x3

000000008000bd80 <i_11709>:
    8000bd80:	03de4463          	blt	t3,t4,8000bda8 <i_11719>

000000008000bd84 <i_11710>:
    8000bd84:	03cb8263          	beq	s7,t3,8000bda8 <i_11719>

000000008000bd88 <i_11711>:
    8000bd88:	003e9e93          	slli	t4,t4,0x3

000000008000bd8c <i_11712>:
    8000bd8c:	023ec433          	div	s0,t4,gp

000000008000bd90 <i_11713>:
    8000bd90:	fc510323          	sb	t0,-58(sp)

000000008000bd94 <i_11714>:
    8000bd94:	03fb8eb3          	mul	t4,s7,t6

000000008000bd98 <i_11715>:
    8000bd98:	17712e23          	sw	s7,380(sp)

000000008000bd9c <i_11716>:
    8000bd9c:	00000013          	nop

000000008000bda0 <i_11717>:
    8000bda0:	0f013403          	ld	s0,240(sp)

000000008000bda4 <i_11718>:
    8000bda4:	3b0e6393          	ori	t2,t3,944

000000008000bda8 <i_11719>:
    8000bda8:	028bf233          	remu	tp,s7,s0

000000008000bdac <i_11720>:
    8000bdac:	05b14783          	lbu	a5,91(sp)

000000008000bdb0 <i_11721>:
    8000bdb0:	88200293          	li	t0,-1918

000000008000bdb4 <i_11722>:
    8000bdb4:	88600493          	li	s1,-1914

000000008000bdb8 <i_11723>:
    8000bdb8:	ee210183          	lb	gp,-286(sp)

000000008000bdbc <i_11724>:
    8000bdbc:	fdd11423          	sh	t4,-56(sp)

000000008000bdc0 <i_11725>:
    8000bdc0:	0c013783          	ld	a5,192(sp)

000000008000bdc4 <i_11726>:
    8000bdc4:	04013e83          	ld	t4,64(sp)

000000008000bdc8 <i_11727>:
    8000bdc8:	00128293          	addi	t0,t0,1
    8000bdcc:	fe54d6e3          	ble	t0,s1,8000bdb8 <i_11723>

000000008000bdd0 <i_11728>:
    8000bdd0:	03d00e93          	li	t4,61

000000008000bdd4 <i_11729>:
    8000bdd4:	01dedeb3          	srl	t4,t4,t4

000000008000bdd8 <i_11730>:
    8000bdd8:	c188c193          	xori	gp,a7,-1000

000000008000bddc <i_11731>:
    8000bddc:	0308783b          	remuw	a6,a6,a6

000000008000bde0 <i_11732>:
    8000bde0:	f8c11583          	lh	a1,-116(sp)

000000008000bde4 <i_11733>:
    8000bde4:	1b714e83          	lbu	t4,439(sp)

000000008000bde8 <i_11734>:
    8000bde8:	03d58263          	beq	a1,t4,8000be0c <i_11743>

000000008000bdec <i_11735>:
    8000bdec:	01b00593          	li	a1,27

000000008000bdf0 <i_11736>:
    8000bdf0:	00be983b          	sllw	a6,t4,a1

000000008000bdf4 <i_11737>:
    8000bdf4:	01d87a63          	bleu	t4,a6,8000be08 <i_11742>

000000008000bdf8 <i_11738>:
    8000bdf8:	01500993          	li	s3,21

000000008000bdfc <i_11739>:
    8000bdfc:	01385ebb          	srlw	t4,a6,s3

000000008000be00 <i_11740>:
    8000be00:	0145ee63          	bltu	a1,s4,8000be1c <i_11747>

000000008000be04 <i_11741>:
    8000be04:	f1013803          	ld	a6,-240(sp)

000000008000be08 <i_11742>:
    8000be08:	22054837          	lui	a6,0x22054

000000008000be0c <i_11743>:
    8000be0c:	03385263          	ble	s3,a6,8000be30 <i_11752>

000000008000be10 <i_11744>:
    8000be10:	014a7a33          	and	s4,s4,s4

000000008000be14 <i_11745>:
    8000be14:	03c00a13          	li	s4,60

000000008000be18 <i_11746>:
    8000be18:	01499833          	sll	a6,s3,s4

000000008000be1c <i_11747>:
    8000be1c:	eee14a03          	lbu	s4,-274(sp)

000000008000be20 <i_11748>:
    8000be20:	029a9263          	bne	s5,s1,8000be44 <i_11757>

000000008000be24 <i_11749>:
    8000be24:	f9413823          	sd	s4,-112(sp)

000000008000be28 <i_11750>:
    8000be28:	19412a23          	sw	s4,404(sp)

000000008000be2c <i_11751>:
    8000be2c:	034a4a3b          	divw	s4,s4,s4

000000008000be30 <i_11752>:
    8000be30:	00100313          	li	t1,1

000000008000be34 <i_11753>:
    8000be34:	006d1a33          	sll	s4,s10,t1

000000008000be38 <i_11754>:
    8000be38:	05815a03          	lhu	s4,88(sp)

000000008000be3c <i_11755>:
    8000be3c:	05411223          	sh	s4,68(sp)

000000008000be40 <i_11756>:
    8000be40:	e7410723          	sb	s4,-402(sp)

000000008000be44 <i_11757>:
    8000be44:	ef410b23          	sb	s4,-266(sp)

000000008000be48 <i_11758>:
    8000be48:	006a5463          	ble	t1,s4,8000be50 <i_11760>

000000008000be4c <i_11759>:
    8000be4c:	034a6063          	bltu	s4,s4,8000be6c <i_11767>

000000008000be50 <i_11760>:
    8000be50:	026a1463          	bne	s4,t1,8000be78 <i_11770>

000000008000be54 <i_11761>:
    8000be54:	01437eb3          	and	t4,t1,s4

000000008000be58 <i_11762>:
    8000be58:	03d34263          	blt	t1,t4,8000be7c <i_11771>

000000008000be5c <i_11763>:
    8000be5c:	01487a33          	and	s4,a6,s4

000000008000be60 <i_11764>:
    8000be60:	00a772b3          	and	t0,a4,a0

000000008000be64 <i_11765>:
    8000be64:	0259e533          	rem	a0,s3,t0

000000008000be68 <i_11766>:
    8000be68:	025252b3          	divu	t0,tp,t0

000000008000be6c <i_11767>:
    8000be6c:	41c509bb          	subw	s3,a0,t3

000000008000be70 <i_11768>:
    8000be70:	00000013          	nop

000000008000be74 <i_11769>:
    8000be74:	08812e03          	lw	t3,136(sp)

000000008000be78 <i_11770>:
    8000be78:	e7013983          	ld	s3,-400(sp)

000000008000be7c <i_11771>:
    8000be7c:	00000013          	nop

000000008000be80 <i_11772>:
    8000be80:	01500593          	li	a1,21

000000008000be84 <i_11773>:
    8000be84:	40be553b          	sraw	a0,t3,a1

000000008000be88 <i_11774>:
    8000be88:	76600a13          	li	s4,1894

000000008000be8c <i_11775>:
    8000be8c:	77a00e93          	li	t4,1914

000000008000be90 <i_11776>:
    8000be90:	001a0a13          	addi	s4,s4,1
    8000be94:	ffda6ce3          	bltu	s4,t4,8000be8c <i_11775>

000000008000be98 <i_11777>:
    8000be98:	003e5e13          	srli	t3,t3,0x3

000000008000be9c <i_11778>:
    8000be9c:	0045fc63          	bleu	tp,a1,8000beb4 <i_11784>

000000008000bea0 <i_11779>:
    8000bea0:	00600493          	li	s1,6

000000008000bea4 <i_11780>:
    8000bea4:	009e1e3b          	sllw	t3,t3,s1

000000008000bea8 <i_11781>:
    8000bea8:	00000013          	nop

000000008000beac <i_11782>:
    8000beac:	01c4b233          	sltu	tp,s1,t3

000000008000beb0 <i_11783>:
    8000beb0:	1e213423          	sd	sp,488(sp)

000000008000beb4 <i_11784>:
    8000beb4:	05c14383          	lbu	t2,92(sp)

000000008000beb8 <i_11785>:
    8000beb8:	01d00813          	li	a6,29

000000008000bebc <i_11786>:
    8000bebc:	4100d33b          	sraw	t1,ra,a6

000000008000bec0 <i_11787>:
    8000bec0:	87100493          	li	s1,-1935

000000008000bec4 <i_11788>:
    8000bec4:	87300e13          	li	t3,-1933

000000008000bec8 <i_11789>:
    8000bec8:	00148493          	addi	s1,s1,1
    8000becc:	fe9e5ce3          	ble	s1,t3,8000bec4 <i_11788>

000000008000bed0 <i_11790>:
    8000bed0:	ff6104a3          	sb	s6,-23(sp)

000000008000bed4 <i_11791>:
    8000bed4:	ec113423          	sd	ra,-312(sp)

000000008000bed8 <i_11792>:
    8000bed8:	86200093          	li	ra,-1950

000000008000bedc <i_11793>:
    8000bedc:	86400313          	li	t1,-1948

000000008000bee0 <i_11794>:
    8000bee0:	03035eb3          	divu	t4,t1,a6

000000008000bee4 <i_11795>:
    8000bee4:	00000013          	nop

000000008000bee8 <i_11796>:
    8000bee8:	01dec663          	blt	t4,t4,8000bef4 <i_11799>

000000008000beec <i_11797>:
    8000beec:	0e111b23          	sh	ra,246(sp)

000000008000bef0 <i_11798>:
    8000bef0:	ff012223          	sw	a6,-28(sp)

000000008000bef4 <i_11799>:
    8000bef4:	1b013823          	sd	a6,432(sp)

000000008000bef8 <i_11800>:
    8000bef8:	01de82b3          	add	t0,t4,t4

000000008000befc <i_11801>:
    8000befc:	00108093          	addi	ra,ra,1
    8000bf00:	fe60c0e3          	blt	ra,t1,8000bee0 <i_11794>

000000008000bf04 <i_11802>:
    8000bf04:	0e111c23          	sh	ra,248(sp)

000000008000bf08 <i_11803>:
    8000bf08:	03d57333          	remu	t1,a0,t4

000000008000bf0c <i_11804>:
    8000bf0c:	1b014183          	lbu	gp,432(sp)

000000008000bf10 <i_11805>:
    8000bf10:	0382f463          	bleu	s8,t0,8000bf38 <i_11815>

000000008000bf14 <i_11806>:
    8000bf14:	16510723          	sb	t0,366(sp)

000000008000bf18 <i_11807>:
    8000bf18:	e9011023          	sh	a6,-384(sp)

000000008000bf1c <i_11808>:
    8000bf1c:	e2513c23          	sd	t0,-456(sp)

000000008000bf20 <i_11809>:
    8000bf20:	0210e0b3          	rem	ra,ra,ra

000000008000bf24 <i_11810>:
    8000bf24:	4030d093          	srai	ra,ra,0x3

000000008000bf28 <i_11811>:
    8000bf28:	00000013          	nop

000000008000bf2c <i_11812>:
    8000bf2c:	00000013          	nop

000000008000bf30 <i_11813>:
    8000bf30:	eae1849b          	addiw	s1,gp,-338

000000008000bf34 <i_11814>:
    8000bf34:	14310423          	sb	gp,328(sp)

000000008000bf38 <i_11815>:
    8000bf38:	03800d93          	li	s11,56

000000008000bf3c <i_11816>:
    8000bf3c:	41b1deb3          	sra	t4,gp,s11

000000008000bf40 <i_11817>:
    8000bf40:	76900093          	li	ra,1897

000000008000bf44 <i_11818>:
    8000bf44:	77400e13          	li	t3,1908

000000008000bf48 <i_11819>:
    8000bf48:	00108093          	addi	ra,ra,1
    8000bf4c:	ffc0cee3          	blt	ra,t3,8000bf48 <i_11819>

000000008000bf50 <i_11820>:
    8000bf50:	00e00093          	li	ra,14

000000008000bf54 <i_11821>:
    8000bf54:	0010d0bb          	srlw	ra,ra,ra

000000008000bf58 <i_11822>:
    8000bf58:	021d0063          	beq	s10,ra,8000bf78 <i_11830>

000000008000bf5c <i_11823>:
    8000bf5c:	03e09063          	bne	ra,t5,8000bf7c <i_11831>

000000008000bf60 <i_11824>:
    8000bf60:	4040d09b          	sraiw	ra,ra,0x4

000000008000bf64 <i_11825>:
    8000bf64:	001df263          	bleu	ra,s11,8000bf68 <i_11826>

000000008000bf68 <i_11826>:
    8000bf68:	03b0bdb3          	mulhu	s11,ra,s11

000000008000bf6c <i_11827>:
    8000bf6c:	73b5e593          	ori	a1,a1,1851

000000008000bf70 <i_11828>:
    8000bf70:	02bbe463          	bltu	s7,a1,8000bf98 <i_11838>

000000008000bf74 <i_11829>:
    8000bf74:	17816983          	lwu	s3,376(sp)

000000008000bf78 <i_11830>:
    8000bf78:	00209d9b          	slliw	s11,ra,0x2

000000008000bf7c <i_11831>:
    8000bf7c:	4c7df093          	andi	ra,s11,1223

000000008000bf80 <i_11832>:
    8000bf80:	0139da63          	ble	s3,s3,8000bf94 <i_11837>

000000008000bf84 <i_11833>:
    8000bf84:	01b58c63          	beq	a1,s11,8000bf9c <i_11839>

000000008000bf88 <i_11834>:
    8000bf88:	04012d83          	lw	s11,64(sp)

000000008000bf8c <i_11835>:
    8000bf8c:	00000013          	nop

000000008000bf90 <i_11836>:
    8000bf90:	e4816b83          	lwu	s7,-440(sp)

000000008000bf94 <i_11837>:
    8000bf94:	0db11523          	sh	s11,202(sp)

000000008000bf98 <i_11838>:
    8000bf98:	00000013          	nop

000000008000bf9c <i_11839>:
    8000bf9c:	f3311823          	sh	s3,-208(sp)

000000008000bfa0 <i_11840>:
    8000bfa0:	08c15283          	lhu	t0,140(sp)

000000008000bfa4 <i_11841>:
    8000bfa4:	74200413          	li	s0,1858

000000008000bfa8 <i_11842>:
    8000bfa8:	74c00093          	li	ra,1868

000000008000bfac <i_11843>:
    8000bfac:	410787b3          	sub	a5,a5,a6

000000008000bfb0 <i_11844>:
    8000bfb0:	0132ca63          	blt	t0,s3,8000bfc4 <i_11848>

000000008000bfb4 <i_11845>:
    8000bfb4:	00140413          	addi	s0,s0,1
    8000bfb8:	fe141ae3          	bne	s0,ra,8000bfac <i_11843>

000000008000bfbc <i_11846>:
    8000bfbc:	00828c63          	beq	t0,s0,8000bfd4 <i_11852>

000000008000bfc0 <i_11847>:
    8000bfc0:	f8813183          	ld	gp,-120(sp)

000000008000bfc4 <i_11848>:
    8000bfc4:	1c813283          	ld	t0,456(sp)

000000008000bfc8 <i_11849>:
    8000bfc8:	04416483          	lwu	s1,68(sp)

000000008000bfcc <i_11850>:
    8000bfcc:	05811483          	lh	s1,88(sp)

000000008000bfd0 <i_11851>:
    8000bfd0:	00000013          	nop

000000008000bfd4 <i_11852>:
    8000bfd4:	0251a0b3          	mulhsu	ra,gp,t0

000000008000bfd8 <i_11853>:
    8000bfd8:	00000013          	nop

000000008000bfdc <i_11854>:
    8000bfdc:	81d00193          	li	gp,-2019

000000008000bfe0 <i_11855>:
    8000bfe0:	82d00b93          	li	s7,-2003

000000008000bfe4 <i_11856>:
    8000bfe4:	18312e23          	sw	gp,412(sp)

000000008000bfe8 <i_11857>:
    8000bfe8:	00000013          	nop

000000008000bfec <i_11858>:
    8000bfec:	01709263          	bne	ra,s7,8000bff0 <i_11859>

000000008000bff0 <i_11859>:
    8000bff0:	ff013583          	ld	a1,-16(sp)

000000008000bff4 <i_11860>:
    8000bff4:	ff713423          	sd	s7,-24(sp)

000000008000bff8 <i_11861>:
    8000bff8:	00700413          	li	s0,7

000000008000bffc <i_11862>:
    8000bffc:	4082523b          	sraw	tp,tp,s0

000000008000c000 <i_11863>:
    8000c000:	00118193          	addi	gp,gp,1
    8000c004:	fe3bd0e3          	ble	gp,s7,8000bfe4 <i_11856>

000000008000c008 <i_11864>:
    8000c008:	11410803          	lb	a6,276(sp)

000000008000c00c <i_11865>:
    8000c00c:	12811a23          	sh	s0,308(sp)

000000008000c010 <i_11866>:
    8000c010:	02887463          	bleu	s0,a6,8000c038 <i_11876>

000000008000c014 <i_11867>:
    8000c014:	028425b3          	mulhsu	a1,s0,s0

000000008000c018 <i_11868>:
    8000c018:	02445463          	ble	tp,s0,8000c040 <i_11878>

000000008000c01c <i_11869>:
    8000c01c:	f7012623          	sw	a6,-148(sp)

000000008000c020 <i_11870>:
    8000c020:	03009433          	mulh	s0,ra,a6

000000008000c024 <i_11871>:
    8000c024:	05414a03          	lbu	s4,84(sp)

000000008000c028 <i_11872>:
    8000c028:	15144d93          	xori	s11,s0,337

000000008000c02c <i_11873>:
    8000c02c:	01b422b3          	slt	t0,s0,s11

000000008000c030 <i_11874>:
    8000c030:	05812e83          	lw	t4,88(sp)

000000008000c034 <i_11875>:
    8000c034:	408805bb          	subw	a1,a6,s0

000000008000c038 <i_11876>:
    8000c038:	034447b3          	div	a5,s0,s4

000000008000c03c <i_11877>:
    8000c03c:	028104bb          	mulw	s1,sp,s0

000000008000c040 <i_11878>:
    8000c040:	03320463          	beq	tp,s3,8000c068 <i_11888>

000000008000c044 <i_11879>:
    8000c044:	19411a23          	sh	s4,404(sp)

000000008000c048 <i_11880>:
    8000c048:	0ab10423          	sb	a1,168(sp)

000000008000c04c <i_11881>:
    8000c04c:	0f416283          	lwu	t0,244(sp)

000000008000c050 <i_11882>:
    8000c050:	fb815203          	lhu	tp,-72(sp)

000000008000c054 <i_11883>:
    8000c054:	0284ea33          	rem	s4,s1,s0

000000008000c058 <i_11884>:
    8000c058:	b0fa7413          	andi	s0,s4,-1265

000000008000c05c <i_11885>:
    8000c05c:	00f21663          	bne	tp,a5,8000c068 <i_11888>

000000008000c060 <i_11886>:
    8000c060:	0288e7bb          	remw	a5,a7,s0

000000008000c064 <i_11887>:
    8000c064:	e8f10483          	lb	s1,-369(sp)

000000008000c068 <i_11888>:
    8000c068:	12c11e83          	lh	t4,300(sp)

000000008000c06c <i_11889>:
    8000c06c:	0a813823          	sd	s0,176(sp)

000000008000c070 <i_11890>:
    8000c070:	f2414403          	lbu	s0,-220(sp)

000000008000c074 <i_11891>:
    8000c074:	ea416a03          	lwu	s4,-348(sp)

000000008000c078 <i_11892>:
    8000c078:	19714e83          	lbu	t4,407(sp)

000000008000c07c <i_11893>:
    8000c07c:	0142ee33          	or	t3,t0,s4

000000008000c080 <i_11894>:
    8000c080:	fd416e03          	lwu	t3,-44(sp)

000000008000c084 <i_11895>:
    8000c084:	008efe63          	bleu	s0,t4,8000c0a0 <i_11902>

000000008000c088 <i_11896>:
    8000c088:	efc13823          	sd	t3,-272(sp)

000000008000c08c <i_11897>:
    8000c08c:	08c14e03          	lbu	t3,140(sp)

000000008000c090 <i_11898>:
    8000c090:	f9b11f23          	sh	s11,-98(sp)

000000008000c094 <i_11899>:
    8000c094:	19211e03          	lh	t3,402(sp)

000000008000c098 <i_11900>:
    8000c098:	00200e93          	li	t4,2

000000008000c09c <i_11901>:
    8000c09c:	01d4543b          	srlw	s0,s0,t4

000000008000c0a0 <i_11902>:
    8000c0a0:	02345063          	ble	gp,s0,8000c0c0 <i_11910>

000000008000c0a4 <i_11903>:
    8000c0a4:	03ce0463          	beq	t3,t3,8000c0cc <i_11913>

000000008000c0a8 <i_11904>:
    8000c0a8:	00ce7263          	bleu	a2,t3,8000c0ac <i_11905>

000000008000c0ac <i_11905>:
    8000c0ac:	028e5433          	divu	s0,t3,s0

000000008000c0b0 <i_11906>:
    8000c0b0:	e2812e03          	lw	t3,-472(sp)

000000008000c0b4 <i_11907>:
    8000c0b4:	03c09463          	bne	ra,t3,8000c0dc <i_11917>

000000008000c0b8 <i_11908>:
    8000c0b8:	0fc11f23          	sh	t3,254(sp)

000000008000c0bc <i_11909>:
    8000c0bc:	e6712423          	sw	t2,-408(sp)

000000008000c0c0 <i_11910>:
    8000c0c0:	0e814303          	lbu	t1,232(sp)

000000008000c0c4 <i_11911>:
    8000c0c4:	03c16083          	lwu	ra,60(sp)

000000008000c0c8 <i_11912>:
    8000c0c8:	fb214083          	lbu	ra,-78(sp)

000000008000c0cc <i_11913>:
    8000c0cc:	f9c13023          	sd	t3,-128(sp)

000000008000c0d0 <i_11914>:
    8000c0d0:	0d610303          	lb	t1,214(sp)

000000008000c0d4 <i_11915>:
    8000c0d4:	0010ebb3          	or	s7,ra,ra

000000008000c0d8 <i_11916>:
    8000c0d8:	410080b3          	sub	ra,ra,a6

000000008000c0dc <i_11917>:
    8000c0dc:	01f2c663          	blt	t0,t6,8000c0e8 <i_11920>

000000008000c0e0 <i_11918>:
    8000c0e0:	00814b83          	lbu	s7,8(sp)

000000008000c0e4 <i_11919>:
    8000c0e4:	0379683b          	remw	a6,s2,s7

000000008000c0e8 <i_11920>:
    8000c0e8:	00186e63          	bltu	a6,ra,8000c104 <i_11927>

000000008000c0ec <i_11921>:
    8000c0ec:	01008863          	beq	ra,a6,8000c0fc <i_11925>

000000008000c0f0 <i_11922>:
    8000c0f0:	ffb14b83          	lbu	s7,-5(sp)

000000008000c0f4 <i_11923>:
    8000c0f4:	01087663          	bleu	a6,a6,8000c100 <i_11926>

000000008000c0f8 <i_11924>:
    8000c0f8:	ef013e83          	ld	t4,-272(sp)

000000008000c0fc <i_11925>:
    8000c0fc:	fc111c23          	sh	ra,-40(sp)

000000008000c100 <i_11926>:
    8000c100:	02184ebb          	divw	t4,a6,ra

000000008000c104 <i_11927>:
    8000c104:	0010c263          	blt	ra,ra,8000c108 <i_11928>

000000008000c108 <i_11928>:
    8000c108:	03611083          	lh	ra,54(sp)

000000008000c10c <i_11929>:
    8000c10c:	00a00993          	li	s3,10

000000008000c110 <i_11930>:
    8000c110:	013ed3bb          	srlw	t2,t4,s3

000000008000c114 <i_11931>:
    8000c114:	f9211e83          	lh	t4,-110(sp)

000000008000c118 <i_11932>:
    8000c118:	0040909b          	slliw	ra,ra,0x4

000000008000c11c <i_11933>:
    8000c11c:	e9412083          	lw	ra,-364(sp)

000000008000c120 <i_11934>:
    8000c120:	0a811783          	lh	a5,168(sp)

000000008000c124 <i_11935>:
    8000c124:	4040d093          	srai	ra,ra,0x4

000000008000c128 <i_11936>:
    8000c128:	12f13423          	sd	a5,296(sp)

000000008000c12c <i_11937>:
    8000c12c:	01900793          	li	a5,25

000000008000c130 <i_11938>:
    8000c130:	00fe90bb          	sllw	ra,t4,a5

000000008000c134 <i_11939>:
    8000c134:	11b14783          	lbu	a5,283(sp)

000000008000c138 <i_11940>:
    8000c138:	f7ebeb93          	ori	s7,s7,-130

000000008000c13c <i_11941>:
    8000c13c:	03300093          	li	ra,51

000000008000c140 <i_11942>:
    8000c140:	001bd533          	srl	a0,s7,ra

000000008000c144 <i_11943>:
    8000c144:	037547b3          	div	a5,a0,s7

000000008000c148 <i_11944>:
    8000c148:	00f7d663          	ble	a5,a5,8000c154 <i_11947>

000000008000c14c <i_11945>:
    8000c14c:	00b6f263          	bleu	a1,a3,8000c150 <i_11946>

000000008000c150 <i_11946>:
    8000c150:	02fbabb3          	mulhsu	s7,s7,a5

000000008000c154 <i_11947>:
    8000c154:	001bf263          	bleu	ra,s7,8000c158 <i_11948>

000000008000c158 <i_11948>:
    8000c158:	00a12e23          	sw	a0,28(sp)

000000008000c15c <i_11949>:
    8000c15c:	11c11783          	lh	a5,284(sp)

000000008000c160 <i_11950>:
    8000c160:	00000013          	nop

000000008000c164 <i_11951>:
    8000c164:	77400593          	li	a1,1908

000000008000c168 <i_11952>:
    8000c168:	78600493          	li	s1,1926

000000008000c16c <i_11953>:
    8000c16c:	0299bbb3          	mulhu	s7,s3,s1

000000008000c170 <i_11954>:
    8000c170:	0ba11183          	lh	gp,186(sp)

000000008000c174 <i_11955>:
    8000c174:	1559899b          	addiw	s3,s3,341

000000008000c178 <i_11956>:
    8000c178:	034bd063          	ble	s4,s7,8000c198 <i_11964>

000000008000c17c <i_11957>:
    8000c17c:	0c013b83          	ld	s7,192(sp)

000000008000c180 <i_11958>:
    8000c180:	1b310ca3          	sb	s3,441(sp)

000000008000c184 <i_11959>:
    8000c184:	0b910983          	lb	s3,185(sp)

000000008000c188 <i_11960>:
    8000c188:	00800d93          	li	s11,8

000000008000c18c <i_11961>:
    8000c18c:	01b1d3bb          	srlw	t2,gp,s11

000000008000c190 <i_11962>:
    8000c190:	d4adb193          	sltiu	gp,s11,-694

000000008000c194 <i_11963>:
    8000c194:	fc311023          	sh	gp,-64(sp)

000000008000c198 <i_11964>:
    8000c198:	e6813303          	ld	t1,-408(sp)

000000008000c19c <i_11965>:
    8000c19c:	0061d263          	ble	t1,gp,8000c1a0 <i_11966>

000000008000c1a0 <i_11966>:
    8000c1a0:	ec613c23          	sd	t1,-296(sp)

000000008000c1a4 <i_11967>:
    8000c1a4:	0f013803          	ld	a6,240(sp)

000000008000c1a8 <i_11968>:
    8000c1a8:	ee3106a3          	sb	gp,-275(sp)

000000008000c1ac <i_11969>:
    8000c1ac:	00158593          	addi	a1,a1,1
    8000c1b0:	fa95cee3          	blt	a1,s1,8000c16c <i_11953>

000000008000c1b4 <i_11970>:
    8000c1b4:	026804b3          	mul	s1,a6,t1

000000008000c1b8 <i_11971>:
    8000c1b8:	04612223          	sw	t1,68(sp)

000000008000c1bc <i_11972>:
    8000c1bc:	f7811303          	lh	t1,-136(sp)

000000008000c1c0 <i_11973>:
    8000c1c0:	00300313          	li	t1,3

000000008000c1c4 <i_11974>:
    8000c1c4:	0064d333          	srl	t1,s1,t1

000000008000c1c8 <i_11975>:
    8000c1c8:	00700313          	li	t1,7

000000008000c1cc <i_11976>:
    8000c1cc:	00631ebb          	sllw	t4,t1,t1

000000008000c1d0 <i_11977>:
    8000c1d0:	00c00993          	li	s3,12

000000008000c1d4 <i_11978>:
    8000c1d4:	013eddbb          	srlw	s11,t4,s3

000000008000c1d8 <i_11979>:
    8000c1d8:	be7d7e93          	andi	t4,s10,-1049

000000008000c1dc <i_11980>:
    8000c1dc:	01dd9863          	bne	s11,t4,8000c1ec <i_11984>

000000008000c1e0 <i_11981>:
    8000c1e0:	01bd8db3          	add	s11,s11,s11

000000008000c1e4 <i_11982>:
    8000c1e4:	f2012d83          	lw	s11,-224(sp)

000000008000c1e8 <i_11983>:
    8000c1e8:	10c10d83          	lb	s11,268(sp)

000000008000c1ec <i_11984>:
    8000c1ec:	033d8db3          	mul	s11,s11,s3

000000008000c1f0 <i_11985>:
    8000c1f0:	0fd104a3          	sb	t4,233(sp)

000000008000c1f4 <i_11986>:
    8000c1f4:	10412483          	lw	s1,260(sp)

000000008000c1f8 <i_11987>:
    8000c1f8:	804d8d9b          	addiw	s11,s11,-2044

000000008000c1fc <i_11988>:
    8000c1fc:	e5816e83          	lwu	t4,-424(sp)

000000008000c200 <i_11989>:
    8000c200:	02949063          	bne	s1,s1,8000c220 <i_11997>

000000008000c204 <i_11990>:
    8000c204:	028ea433          	mulhsu	s0,t4,s0

000000008000c208 <i_11991>:
    8000c208:	40345493          	srai	s1,s0,0x3

000000008000c20c <i_11992>:
    8000c20c:	03dedbbb          	divuw	s7,t4,t4

000000008000c210 <i_11993>:
    8000c210:	0174d463          	ble	s7,s1,8000c218 <i_11995>

000000008000c214 <i_11994>:
    8000c214:	001b9513          	slli	a0,s7,0x1

000000008000c218 <i_11995>:
    8000c218:	01d400b3          	add	ra,s0,t4

000000008000c21c <i_11996>:
    8000c21c:	f7e12a23          	sw	t5,-140(sp)

000000008000c220 <i_11997>:
    8000c220:	02adfdbb          	remuw	s11,s11,a0

000000008000c224 <i_11998>:
    8000c224:	00951863          	bne	a0,s1,8000c234 <i_12002>

000000008000c228 <i_11999>:
    8000c228:	03b0b2b3          	mulhu	t0,ra,s11

000000008000c22c <i_12000>:
    8000c22c:	00000013          	nop

000000008000c230 <i_12001>:
    8000c230:	00000013          	nop

000000008000c234 <i_12002>:
    8000c234:	00000013          	nop

000000008000c238 <i_12003>:
    8000c238:	00000013          	nop

000000008000c23c <i_12004>:
    8000c23c:	00000013          	nop

000000008000c240 <i_12005>:
    8000c240:	00000013          	nop

000000008000c244 <i_12006>:
    8000c244:	00000013          	nop

000000008000c248 <i_12007>:
    8000c248:	00000013          	nop

000000008000c24c <i_12008>:
    8000c24c:	00000013          	nop

000000008000c250 <i_12009>:
    8000c250:	00000013          	nop
    8000c254:	0040006f          	j	8000c258 <tohost_exit>

000000008000c258 <tohost_exit>:
    8000c258:	00100113          	li	sp,1
    8000c25c:	01f11113          	slli	sp,sp,0x1f
    8000c260:	000101b7          	lui	gp,0x10
    8000c264:	00310133          	add	sp,sp,gp
    8000c268:	00100713          	li	a4,1
    8000c26c:	40e12023          	sw	a4,1024(sp)

000000008000c270 <loop>:
    8000c270:	0000006f          	j	8000c270 <loop>

Disassembly of section .data:

0000000080010000 <data>:
    80010000:	68f61d07          	0x68f61d07
    80010004:	05e4                	addi	s1,sp,716
    80010006:	f106                	sd	ra,160(sp)
    80010008:	6600                	ld	s0,8(a2)
    8001000a:	76ee                	ld	a3,248(sp)
    8001000c:	31fc                	fld	fa5,224(a1)
    8001000e:	c8dd                	beqz	s1,800100c4 <data+0xc4>
    80010010:	e8ff                	0xe8ff
    80010012:	d1c0                	sw	s0,36(a1)
    80010014:	fd35                	bnez	a0,8000ff90 <loop+0x3d20>
    80010016:	a71a                	fsd	ft6,392(sp)
    80010018:	743a                	ld	s0,424(sp)
    8001001a:	1870                	addi	a2,sp,60
    8001001c:	e171                	bnez	a0,800100e0 <data+0xe0>
    8001001e:	003c                	addi	a5,sp,8
    80010020:	0c3d65cf          	0xc3d65cf
    80010024:	0e571d2f          	0xe571d2f
    80010028:	1f80                	addi	s0,sp,1008
    8001002a:	db50                	sw	a2,52(a4)
    8001002c:	53fc                	lw	a5,100(a5)
    8001002e:	77e5ba3f 19e7578a 	0x19e7578a77e5ba3f
    80010036:	451e                	lw	a0,196(sp)
    80010038:	cf7d                	beqz	a4,80010136 <data+0x136>
    8001003a:	f794                	sd	a3,40(a5)
    8001003c:	dc54                	sw	a3,60(s0)
    8001003e:	868d                	srai	a3,a3,0x3
    80010040:	67e5                	lui	a5,0x19
    80010042:	d330                	sw	a2,96(a4)
    80010044:	2b0e                	fld	fs6,192(sp)
    80010046:	9781                	srai	a5,a5,0x20
    80010048:	792d                	lui	s2,0xfffeb
    8001004a:	e05a                	sd	s6,0(sp)
    8001004c:	483c                	lw	a5,80(s0)
    8001004e:	c872                	sw	t3,16(sp)
    80010050:	42025493          	srai	s1,tp,0x20
    80010054:	4cc63a53          	0x4cc63a53
    80010058:	9e22                	add	t3,t3,s0
    8001005a:	1c71                	addi	s8,s8,-4
    8001005c:	0bd2                	slli	s7,s7,0x14
    8001005e:	c0c5                	beqz	s1,800100fe <data+0xfe>
    80010060:	e822                	sd	s0,16(sp)
    80010062:	1328                	addi	a0,sp,424
    80010064:	37d8                	fld	fa4,168(a5)
    80010066:	147e                	slli	s0,s0,0x3f
    80010068:	387f                	0x387f
    8001006a:	07e24c6b          	0x7e24c6b
    8001006e:	db2e                	sw	a1,180(sp)
    80010070:	23f1                	addiw	t2,t2,28
    80010072:	b7996d37          	lui	s10,0xb7996
    80010076:	c1fd                	beqz	a1,8001015c <data+0x15c>
    80010078:	c14d                	beqz	a0,8001011a <data+0x11a>
    8001007a:	cf5e                	sw	s7,156(sp)
    8001007c:	61beacf3          	csrrs	s9,0x61b,t4
    80010080:	5a74a76b          	0x5a74a76b
    80010084:	8c80                	0x8c80
    80010086:	a26347f3          	0xa26347f3
    8001008a:	c46c                	sw	a1,76(s0)
    8001008c:	0cee                	slli	s9,s9,0x1b
    8001008e:	0104                	addi	s1,sp,128
    80010090:	5159                	li	sp,-10
    80010092:	e79c                	sd	a5,8(a5)
    80010094:	661a                	ld	a2,384(sp)
    80010096:	de1e                	sw	t2,60(sp)
    80010098:	4ee5                	li	t4,25
    8001009a:	30ba7f8f          	0x30ba7f8f
    8001009e:	0480                	addi	s0,sp,576
    800100a0:	8c3ecccf          	0x8c3ecccf
    800100a4:	a92026a7          	fsw	fs2,-1395(zero) # fffffffffffffa8d <_end+0xffffffff7ffef679>
    800100a8:	b5d63c8b          	0xb5d63c8b
    800100ac:	d8de                	sw	s7,112(sp)
    800100ae:	abb9                	j	8001060c <_end+0x1f8>
    800100b0:	7d50                	ld	a2,184(a0)
    800100b2:	d6ff                	0xd6ff
    800100b4:	8ddf513b          	0x8ddf513b
    800100b8:	c569                	beqz	a0,80010182 <data+0x182>
    800100ba:	94635ef3          	csrrwi	t4,0x946,6
    800100be:	34de5167          	0x34de5167
    800100c2:	150e                	slli	a0,a0,0x23
    800100c4:	83de                	mv	t2,s7
    800100c6:	ab4e                	fsd	fs3,400(sp)
    800100c8:	bd3521b3          	0xbd3521b3
    800100cc:	a658                	fsd	fa4,136(a2)
    800100ce:	6dfa                	ld	s11,408(sp)
    800100d0:	9e39                	addw	a2,a2,a4
    800100d2:	7d110fab          	0x7d110fab
    800100d6:	56de                	lw	a3,244(sp)
    800100d8:	9370                	0x9370
    800100da:	46a9a62f          	amoor.w.aqrl	a2,a0,(s3)
    800100de:	5d29                	li	s10,-22
    800100e0:	29de                	fld	fs3,464(sp)
    800100e2:	aef1                	j	800104be <_end+0xaa>
    800100e4:	7edd                	lui	t4,0xffff7
    800100e6:	d88c                	sw	a1,48(s1)
    800100e8:	c43a                	sw	a4,8(sp)
    800100ea:	9732                	add	a4,a4,a2
    800100ec:	405b09e7          	jalr	s3,1029(s6)
    800100f0:	6726                	ld	a4,72(sp)
    800100f2:	624ee753          	0x624ee753
    800100f6:	2421                	addiw	s0,s0,8
    800100f8:	a0e6                	fsd	fs9,64(sp)
    800100fa:	2217ad6b          	0x2217ad6b
    800100fe:	058d                	addi	a1,a1,3
    80010100:	a4f0                	fsd	fa2,200(s1)
    80010102:	6b8defdb          	0x6b8defdb
    80010106:	35f1                	addiw	a1,a1,-4
    80010108:	1bd1                	addi	s7,s7,-12
    8001010a:	23c6                	fld	ft7,80(sp)
    8001010c:	c012                	sw	tp,0(sp)
    8001010e:	e7b9                	bnez	a5,8001015c <data+0x15c>
    80010110:	7c84                	ld	s1,56(s1)
    80010112:	1006                	c.slli	zero,0x21
    80010114:	ea76c8b3          	0xea76c8b3
    80010118:	2ccc5e13          	0x2ccc5e13
    8001011c:	eca17e07          	0xeca17e07
    80010120:	c186                	sw	ra,192(sp)
    80010122:	52d6                	lw	t0,116(sp)
    80010124:	53b4                	lw	a3,96(a5)
    80010126:	b2a1                	j	8000fa6e <loop+0x37fe>
    80010128:	0f1d                	addi	t5,t5,7
    8001012a:	69ca                	ld	s3,144(sp)
    8001012c:	02ba                	slli	t0,t0,0xe
    8001012e:	1eb2                	slli	t4,t4,0x2c
    80010130:	3230b5bf cad91ba7 	0xcad91ba73230b5bf
    80010138:	76f5                	lui	a3,0xffffd
    8001013a:	034e                	slli	t1,t1,0x13
    8001013c:	899f 21d4 8ab8      	0x8ab821d4899f
    80010142:	ebfc                	sd	a5,208(a5)
    80010144:	8f695af3          	csrrwi	s5,0x8f6,18
    80010148:	caea                	sw	s10,84(sp)
    8001014a:	95f6                	add	a1,a1,t4
    8001014c:	ffeade8f          	0xffeade8f
    80010150:	5be4                	lw	s1,116(a5)
    80010152:	aa6e                	fsd	fs11,272(sp)
    80010154:	1446                	slli	s0,s0,0x31
    80010156:	e15c                	sd	a5,128(a0)
    80010158:	3589                	addiw	a1,a1,-30
    8001015a:	fd98                	sd	a4,56(a1)
    8001015c:	d238dea3          	0xd238dea3
    80010160:	9db4                	0x9db4
    80010162:	0b82                	slli	s7,s7,0x0
    80010164:	a86a                	fsd	fs10,16(sp)
    80010166:	220d                	addiw	tp,tp,3
    80010168:	bc85643b          	0xbc85643b
    8001016c:	966d7f2f          	0x966d7f2f
    80010170:	a6a2                	fsd	fs0,328(sp)
    80010172:	7e91                	lui	t4,0xfffe4
    80010174:	94a6                	add	s1,s1,s1
    80010176:	0e71                	addi	t3,t3,28
    80010178:	2fc1                	addiw	t6,t6,16
    8001017a:	d5a1                	beqz	a1,800100c2 <data+0xc2>
    8001017c:	a638741b          	0xa638741b
    80010180:	c1ce                	sw	s3,192(sp)
    80010182:	577e                	lw	a4,252(sp)
    80010184:	1644                	addi	s1,sp,804
    80010186:	8d30                	0x8d30
    80010188:	cb7a9353          	0xcb7a9353
    8001018c:	c31a                	sw	t1,132(sp)
    8001018e:	48ff2ebb          	0x48ff2ebb
    80010192:	0bbdfd47          	fmsub.d	fs10,fs11,fs11,ft1
    80010196:	f625                	bnez	a2,800100fe <data+0xfe>
    80010198:	e31db163          	0xe31db163
    8001019c:	66ac                	ld	a1,72(a3)
    8001019e:	9704                	0x9704
    800101a0:	be808aa3          	sb	s0,-1035(ra)
    800101a4:	1c76                	slli	s8,s8,0x3d
    800101a6:	7066                	0x7066
    800101a8:	9b14                	0x9b14
    800101aa:	4a10                	lw	a2,16(a2)
    800101ac:	364c                	fld	fa1,168(a2)
    800101ae:	487e                	lw	a6,220(sp)
    800101b0:	1d00                	addi	s0,sp,688
    800101b2:	ea66                	sd	s9,272(sp)
    800101b4:	8d7cba67          	0x8d7cba67
    800101b8:	d985                	beqz	a1,800100e8 <data+0xe8>
    800101ba:	7e61                	lui	t3,0xffff8
    800101bc:	702dc80f          	0x702dc80f
    800101c0:	32d8                	fld	fa4,160(a3)
    800101c2:	d64d                	beqz	a2,8001016c <data+0x16c>
    800101c4:	aae5                	j	800103bc <data+0x3bc>
    800101c6:	b669                	j	8000fd50 <loop+0x3ae0>
    800101c8:	02a1                	addi	t0,t0,8
    800101ca:	ccc5                	beqz	s1,80010282 <data+0x282>
    800101cc:	e46e                	sd	s11,8(sp)
    800101ce:	87d5                	srai	a5,a5,0x15
    800101d0:	8851                	andi	s0,s0,20
    800101d2:	52d6                	lw	t0,116(sp)
    800101d4:	69f5                	lui	s3,0x1d
    800101d6:	b044                	fsd	fs1,160(s0)
    800101d8:	6dea                	ld	s11,152(sp)
    800101da:	8f5a                	mv	t5,s6
    800101dc:	9392                	add	t2,t2,tp
    800101de:	9bd6                	add	s7,s7,s5
    800101e0:	598d                	li	s3,-29
    800101e2:	ec06                	sd	ra,24(sp)
    800101e4:	a868                	fsd	fa0,208(s0)
    800101e6:	169c                	addi	a5,sp,864
    800101e8:	67bc                	ld	a5,72(a5)
    800101ea:	098a                	slli	s3,s3,0x2
    800101ec:	a675                	j	80010598 <_end+0x184>
    800101ee:	2ef4                	fld	fa3,216(a3)
    800101f0:	4270                	lw	a2,68(a2)
    800101f2:	6c91                	lui	s9,0x4
    800101f4:	59fd                	li	s3,-1
    800101f6:	4906                	lw	s2,64(sp)
    800101f8:	d7f5                	beqz	a5,800101e4 <data+0x1e4>
    800101fa:	f880                	sd	s0,48(s1)
    800101fc:	dbde                	sw	s7,244(sp)
    800101fe:	5774                	lw	a3,108(a4)
    80010200:	6f84                	ld	s1,24(a5)
    80010202:	db96                	sw	t0,244(sp)
    80010204:	c848a19b          	0xc848a19b
    80010208:	f1ec                	sd	a1,224(a1)
    8001020a:	dd96                	sw	t0,248(sp)
    8001020c:	9581                	srai	a1,a1,0x20
    8001020e:	b9a46ea3          	0xb9a46ea3
    80010212:	b538                	fsd	fa4,104(a0)
    80010214:	c785                	beqz	a5,8001023c <data+0x23c>
    80010216:	ac6c                	fsd	fa1,216(s0)
    80010218:	b714                	fsd	fa3,40(a4)
    8001021a:	3f8c                	fld	fa1,56(a5)
    8001021c:	696e                	ld	s2,216(sp)
    8001021e:	f174                	sd	a3,224(a0)
    80010220:	3096                	fld	ft1,352(sp)
    80010222:	7e3a                	ld	t3,424(sp)
    80010224:	b91f 0004 b08d      	0xb08d0004b91f
    8001022a:	32d960e3          	bltu	s2,a3,80010d4a <_end+0x936>
    8001022e:	be567e73          	csrrci	t3,0xbe5,12
    80010232:	6bb5                	lui	s7,0xd
    80010234:	2e43a163          	0x2e43a163
    80010238:	c28e                	sw	gp,68(sp)
    8001023a:	0815                	addi	a6,a6,5
    8001023c:	5565                	li	a0,-7
    8001023e:	a35e                	fsd	fs7,384(sp)
    80010240:	cbd4a35b          	0xcbd4a35b
    80010244:	8bdc                	0x8bdc
    80010246:	d27f                	0xd27f
    80010248:	e08fdd9b          	0xe08fdd9b
    8001024c:	46a8                	lw	a0,72(a3)
    8001024e:	d476880f          	0xd476880f
    80010252:	c392                	sw	tp,196(sp)
    80010254:	1c86                	slli	s9,s9,0x21
    80010256:	80c1                	srli	s1,s1,0x10
    80010258:	6e759ecb          	fnmsub.q	ft9,fa1,ft7,fa3,rtz
    8001025c:	4e4e                	lw	t3,208(sp)
    8001025e:	fd20                	sd	s0,120(a0)
    80010260:	9fdf 3eca 9028      	0x90283eca9fdf
    80010266:	c2d9                	beqz	a3,800102ec <data+0x2ec>
    80010268:	48ea                	lw	a7,152(sp)
    8001026a:	2f2dda6f          	jal	s4,800ed55c <_end+0xdd148>
    8001026e:	ef12                	sd	tp,408(sp)
    80010270:	8269                	srli	a2,a2,0x1a
    80010272:	7009                	c.lui	zero,0xfffe2
    80010274:	923c                	0x923c
    80010276:	db71                	beqz	a4,8001024a <data+0x24a>
    80010278:	1c85                	addi	s9,s9,-31
    8001027a:	f48591f7          	0xf48591f7
    8001027e:	a4d8                	fsd	fa4,136(s1)
    80010280:	93ba                	add	t2,t2,a4
    80010282:	9f5e                	add	t5,t5,s7
    80010284:	5b573fe7          	0x5b573fe7
    80010288:	6d18                	ld	a4,24(a0)
    8001028a:	c5ced0c7          	0xc5ced0c7
    8001028e:	0abd                	addi	s5,s5,15
    80010290:	40b6                	lw	ra,76(sp)
    80010292:	5925                	li	s2,-23
    80010294:	3359                	addiw	t1,t1,-10
    80010296:	c422                	sw	s0,8(sp)
    80010298:	16ca                	slli	a3,a3,0x32
    8001029a:	4929d81b          	0x4929d81b
    8001029e:	b120                	fsd	fs0,96(a0)
    800102a0:	eab6                	sd	a3,336(sp)
    800102a2:	81f2                	mv	gp,t3
    800102a4:	61a9f017          	auipc	zero,0x61a9f
    800102a8:	e49c                	sd	a5,8(s1)
    800102aa:	b3a0                	fsd	fs0,96(a5)
    800102ac:	fa45                	bnez	a2,8001025c <data+0x25c>
    800102ae:	244c                	fld	fa1,136(s0)
    800102b0:	cebe0b3f fea61fde 	0xfea61fdecebe0b3f
    800102b8:	fef4                	sd	a3,248(a3)
    800102ba:	c8cd                	beqz	s1,8001036c <data+0x36c>
    800102bc:	0426                	slli	s0,s0,0x9
    800102be:	a856                	fsd	fs5,16(sp)
    800102c0:	334e                	fld	ft6,240(sp)
    800102c2:	82e4                	0x82e4
    800102c4:	87134db7          	lui	s11,0x87134
    800102c8:	e7f9                	bnez	a5,80010396 <data+0x396>
    800102ca:	b5de                	fsd	fs7,232(sp)
    800102cc:	4154                	lw	a3,4(a0)
    800102ce:	0a06                	slli	s4,s4,0x1
    800102d0:	4585                	li	a1,1
    800102d2:	03be                	slli	t2,t2,0xf
    800102d4:	e8095d57          	0xe8095d57
    800102d8:	8fac                	0x8fac
    800102da:	62d9                	lui	t0,0x16
    800102dc:	fa8fcdb7          	lui	s11,0xfa8fc
    800102e0:	d799b00b          	0xd799b00b
    800102e4:	7b94                	ld	a3,48(a5)
    800102e6:	13a9                	addi	t2,t2,-22
    800102e8:	8fb4                	0x8fb4
    800102ea:	1240                	addi	s0,sp,292
    800102ec:	bf0e                	fsd	ft3,440(sp)
    800102ee:	26b1                	addiw	a3,a3,12
    800102f0:	3f2c                	fld	fa1,120(a4)
    800102f2:	49ba                	lw	s3,140(sp)
    800102f4:	2b66                	fld	fs6,88(sp)
    800102f6:	b790e62b          	0xb790e62b
    800102fa:	43c49f03          	lh	t5,1084(s1)
    800102fe:	33ddb837          	lui	a6,0x33ddb
    80010302:	bae9                	j	8000fcdc <loop+0x3a6c>
    80010304:	27c1fe3b          	0x27c1fe3b
    80010308:	8ca6                	mv	s9,s1
    8001030a:	cc79                	beqz	s0,800103e8 <data+0x3e8>
    8001030c:	c1d0                	sw	a2,4(a1)
    8001030e:	0a292ee3          	0xa292ee3
    80010312:	dd81b34b          	0xdd81b34b
    80010316:	699ca2b7          	lui	t0,0x699ca
    8001031a:	2271                	addiw	tp,tp,28
    8001031c:	4789                	li	a5,2
    8001031e:	af60                	fsd	fs0,216(a4)
    80010320:	7acd                	lui	s5,0xffff3
    80010322:	88ddf2f7          	0x88ddf2f7
    80010326:	a091                	j	8001036a <data+0x36a>
    80010328:	054a                	slli	a0,a0,0x12
    8001032a:	1fa1                	addi	t6,t6,-24
    8001032c:	901a                	c.add	zero,t1
    8001032e:	6fc5                	lui	t6,0x11
    80010330:	38cfb57b          	0x38cfb57b
    80010334:	2bd293a7          	0x2bd293a7
    80010338:	af6d77d3          	0xaf6d77d3
    8001033c:	88b4                	0x88b4
    8001033e:	1a35                	addi	s4,s4,-19
    80010340:	b14d4d73          	0xb14d4d73
    80010344:	e8cd                	bnez	s1,800103f6 <data+0x3f6>
    80010346:	a354                	fsd	fa3,128(a4)
    80010348:	87d50f3f 4922f3d7 	0x4922f3d787d50f3f
    80010350:	4d20f42f          	0x4d20f42f
    80010354:	4d60                	lw	s0,92(a0)
    80010356:	8a22                	mv	s4,s0
    80010358:	061ca7e3          	0x61ca7e3
    8001035c:	3308                	fld	fa0,32(a4)
    8001035e:	d294c127          	fsq	fs1,-734(s1)
    80010362:	8332                	mv	t1,a2
    80010364:	1a64                	addi	s1,sp,316
    80010366:	8f76                	mv	t5,t4
    80010368:	782c2eef          	jal	t4,800d2aea <_end+0xc26d6>
    8001036c:	ec5a                	sd	s6,24(sp)
    8001036e:	b49a                	fsd	ft6,104(sp)
    80010370:	14d68d07          	0x14d68d07
    80010374:	40bd                	li	ra,15
    80010376:	ba270e07          	0xba270e07
    8001037a:	8892bd8b          	0x8892bd8b
    8001037e:	53de                	lw	t2,244(sp)
    80010380:	39a6                	fld	fs3,104(sp)
    80010382:	2738db6f          	jal	s6,8009ddf4 <_end+0x8d9e0>
    80010386:	a144                	fsd	fs1,128(a0)
    80010388:	db8630c7          	fmsub.d	ft1,fa2,fs8,fs11,rup
    8001038c:	9bce                	add	s7,s7,s3
    8001038e:	30a4                	fld	fs1,96(s1)
    80010390:	ab5e                	fsd	fs7,400(sp)
    80010392:	c4ac                	sw	a1,72(s1)
    80010394:	9b5bad33          	0x9b5bad33
    80010398:	0e14                	addi	a3,sp,784
    8001039a:	9054                	0x9054
    8001039c:	ad1d                	j	800109d2 <_end+0x5be>
    8001039e:	1550                	addi	a2,sp,676
    800103a0:	d59e                	sw	t2,232(sp)
    800103a2:	0a78                	addi	a4,sp,284
    800103a4:	d6f9                	beqz	a3,80010372 <data+0x372>
    800103a6:	5dc96cab          	0x5dc96cab
    800103aa:	fb9d224b          	fnmsub.d	ft4,fs10,fs9,ft11,rdn
    800103ae:	2788                	fld	fa0,8(a5)
    800103b0:	0e3eb54f          	fnmadd.q	fa0,ft9,ft3,ft1,rup
    800103b4:	7300                	ld	s0,32(a4)
    800103b6:	54127d37          	lui	s10,0x54127
    800103ba:	dfe0                	sw	s0,124(a5)
    800103bc:	83c5                	srli	a5,a5,0x11
    800103be:	183e                	slli	a6,a6,0x2f
    800103c0:	ee2e                	sd	a1,280(sp)
    800103c2:	6a8cb0e7          	0x6a8cb0e7
    800103c6:	d2a5                	beqz	a3,80010326 <data+0x326>
    800103c8:	8a85f58f          	0x8a85f58f
    800103cc:	8e39                	xor	a2,a2,a4
    800103ce:	baac                	fsd	fa1,112(a3)
    800103d0:	c49a                	sw	t1,72(sp)
    800103d2:	51df 4b4d 9439      	0x94394b4d51df
    800103d8:	a794                	fsd	fa3,8(a5)
    800103da:	90c4                	0x90c4
    800103dc:	dd8d                	beqz	a1,80010316 <data+0x316>
    800103de:	b59d                	j	80010244 <data+0x244>
    800103e0:	94d6                	add	s1,s1,s5
    800103e2:	3894                	fld	fa3,48(s1)
    800103e4:	a14a                	fsd	fs2,128(sp)
    800103e6:	b6543397          	auipc	t2,0xb6543
    800103ea:	32c4                	fld	fs1,160(a3)
    800103ec:	d1cd3b17          	auipc	s6,0xd1cd3
    800103f0:	3849                	addiw	a6,a6,-14
    800103f2:	6d3ccf03          	lbu	t5,1747(s9) # 46d3 <main-0x7fffb92d>
    800103f6:	dcca                	sw	s2,120(sp)
    800103f8:	d65a                	sw	s6,44(sp)
    800103fa:	5ab0                	lw	a2,112(a3)
    800103fc:	ef11                	bnez	a4,80010418 <_end+0x4>
    800103fe:	5512                	lw	a0,36(sp)

Disassembly of section .tohost:

0000000080010400 <tohost>:
	...

0000000080010410 <fromhost>:
    80010410:	0000                	unimp
	...
