
output.riscv:     file format elf64-littleriscv


Disassembly of section .text:

0000000080000000 <main>:
    80000000:	40000137          	lui	sp,0x40000
    80000004:	00111113          	slli	sp,sp,0x1
    80000008:	000101b7          	lui	gp,0x10
    8000000c:	00310133          	add	sp,sp,gp
    80000010:	000032b7          	lui	t0,0x3
    80000014:	3002a073          	csrs	mstatus,t0
    80000018:	09f00293          	li	t0,159
    8000001c:	0032a073          	csrs	fcsr,t0
    80000020:	00813083          	ld	ra,8(sp) # 40000008 <main-0x3ffffff8>
    80000024:	01813183          	ld	gp,24(sp)
    80000028:	02013203          	ld	tp,32(sp)
    8000002c:	02813283          	ld	t0,40(sp)
    80000030:	03013303          	ld	t1,48(sp)
    80000034:	03813383          	ld	t2,56(sp)
    80000038:	04013403          	ld	s0,64(sp)
    8000003c:	04813483          	ld	s1,72(sp)
    80000040:	05013503          	ld	a0,80(sp)
    80000044:	05813583          	ld	a1,88(sp)
    80000048:	06013603          	ld	a2,96(sp)
    8000004c:	06813683          	ld	a3,104(sp)
    80000050:	07013703          	ld	a4,112(sp)
    80000054:	07813783          	ld	a5,120(sp)
    80000058:	08013803          	ld	a6,128(sp)
    8000005c:	08813883          	ld	a7,136(sp)
    80000060:	09013903          	ld	s2,144(sp)
    80000064:	09813983          	ld	s3,152(sp)
    80000068:	0a013a03          	ld	s4,160(sp)
    8000006c:	0a813a83          	ld	s5,168(sp)
    80000070:	0b013b03          	ld	s6,176(sp)
    80000074:	0b813b83          	ld	s7,184(sp)
    80000078:	0c013c03          	ld	s8,192(sp)
    8000007c:	0c813c83          	ld	s9,200(sp)
    80000080:	0d013d03          	ld	s10,208(sp)
    80000084:	0d813d83          	ld	s11,216(sp)
    80000088:	0e013e03          	ld	t3,224(sp)
    8000008c:	0e813e83          	ld	t4,232(sp)
    80000090:	0f013f03          	ld	t5,240(sp)
    80000094:	0f813f83          	ld	t6,248(sp)

0000000080000098 <i_0>:
    80000098:	fc812b83          	lw	s7,-56(sp)

000000008000009c <i_1>:
    8000009c:	032b64b3          	rem	s1,s6,s2

00000000800000a0 <i_2>:
    800000a0:	15713c23          	sd	s7,344(sp)

00000000800000a4 <i_3>:
    800000a4:	01e486b3          	add	a3,s1,t5

00000000800000a8 <i_4>:
    800000a8:	0f813f03          	ld	t5,248(sp)

00000000800000ac <i_5>:
    800000ac:	01e50c63          	beq	a0,t5,800000c4 <i_11>

00000000800000b0 <i_6>:
    800000b0:	029bc263          	blt	s7,s1,800000d4 <i_15>

00000000800000b4 <i_7>:
    800000b4:	0a911e23          	sh	s1,188(sp)

00000000800000b8 <i_8>:
    800000b8:	0d914f03          	lbu	t5,217(sp)

00000000800000bc <i_9>:
    800000bc:	1f611123          	sh	s6,482(sp)

00000000800000c0 <i_10>:
    800000c0:	03eb3f33          	mulhu	t5,s6,t5

00000000800000c4 <i_11>:
    800000c4:	eb610823          	sb	s6,-336(sp)

00000000800000c8 <i_12>:
    800000c8:	fe015783          	lhu	a5,-32(sp)

00000000800000cc <i_13>:
    800000cc:	05e11783          	lh	a5,94(sp)

00000000800000d0 <i_14>:
    800000d0:	0ef13023          	sd	a5,224(sp)

00000000800000d4 <i_15>:
    800000d4:	00000013          	nop

00000000800000d8 <i_16>:
    800000d8:	001b4bb3          	xor	s7,s6,ra

00000000800000dc <i_17>:
    800000dc:	78800613          	li	a2,1928

00000000800000e0 <i_18>:
    800000e0:	78a00b13          	li	s6,1930

00000000800000e4 <i_19>:
    800000e4:	038645b3          	div	a1,a2,s8

00000000800000e8 <i_20>:
    800000e8:	02c88663          	beq	a7,a2,80000114 <i_30>

00000000800000ec <i_21>:
    800000ec:	00000013          	nop

00000000800000f0 <i_22>:
    800000f0:	f4612623          	sw	t1,-180(sp)

00000000800000f4 <i_23>:
    800000f4:	21bb0e9b          	addiw	t4,s6,539

00000000800000f8 <i_24>:
    800000f8:	06013f03          	ld	t5,96(sp)

00000000800000fc <i_25>:
    800000fc:	416b85b3          	sub	a1,s7,s6

0000000080000100 <i_26>:
    80000100:	021bc0bb          	divw	ra,s7,ra

0000000080000104 <i_27>:
    80000104:	00160613          	addi	a2,a2,1
    80000108:	fd664ee3          	blt	a2,s6,800000e4 <i_19>

000000008000010c <i_28>:
    8000010c:	06815683          	lhu	a3,104(sp)

0000000080000110 <i_29>:
    80000110:	403bdb9b          	sraiw	s7,s7,0x3

0000000080000114 <i_30>:
    80000114:	02db8bbb          	mulw	s7,s7,a3

0000000080000118 <i_31>:
    80000118:	f0a10823          	sb	a0,-240(sp)

000000008000011c <i_32>:
    8000011c:	f6d11f23          	sh	a3,-130(sp)

0000000080000120 <i_33>:
    80000120:	4036d69b          	sraiw	a3,a3,0x3

0000000080000124 <i_34>:
    80000124:	01769263          	bne	a3,s7,80000128 <i_35>

0000000080000128 <i_35>:
    80000128:	0d914503          	lbu	a0,217(sp)

000000008000012c <i_36>:
    8000012c:	402bdb9b          	sraiw	s7,s7,0x2

0000000080000130 <i_37>:
    80000130:	f1b13423          	sd	s11,-248(sp)

0000000080000134 <i_38>:
    80000134:	7c800b13          	li	s6,1992

0000000080000138 <i_39>:
    80000138:	7db00693          	li	a3,2011

000000008000013c <i_40>:
    8000013c:	f2d10ca3          	sb	a3,-199(sp)

0000000080000140 <i_41>:
    80000140:	23868b93          	addi	s7,a3,568

0000000080000144 <i_42>:
    80000144:	0dc11d83          	lh	s11,220(sp)

0000000080000148 <i_43>:
    80000148:	001b0b13          	addi	s6,s6,1
    8000014c:	fedb68e3          	bltu	s6,a3,8000013c <i_40>

0000000080000150 <i_44>:
    80000150:	19b11b23          	sh	s11,406(sp)

0000000080000154 <i_45>:
    80000154:	e3a14083          	lbu	ra,-454(sp)

0000000080000158 <i_46>:
    80000158:	00000013          	nop

000000008000015c <i_47>:
    8000015c:	78800693          	li	a3,1928

0000000080000160 <i_48>:
    80000160:	79b00d93          	li	s11,1947

0000000080000164 <i_49>:
    80000164:	00c14b83          	lbu	s7,12(sp)

0000000080000168 <i_50>:
    80000168:	02c36633          	rem	a2,t1,a2

000000008000016c <i_51>:
    8000016c:	0d815303          	lhu	t1,216(sp)

0000000080000170 <i_52>:
    80000170:	03731663          	bne	t1,s7,8000019c <i_62>

0000000080000174 <i_53>:
    80000174:	26636293          	ori	t0,t1,614

0000000080000178 <i_54>:
    80000178:	ea111923          	sh	ra,-334(sp)

000000008000017c <i_55>:
    8000017c:	01b00093          	li	ra,27

0000000080000180 <i_56>:
    80000180:	0012d0bb          	srlw	ra,t0,ra

0000000080000184 <i_57>:
    80000184:	00168693          	addi	a3,a3,1
    80000188:	fcddfee3          	bleu	a3,s11,80000164 <i_49>

000000008000018c <i_58>:
    8000018c:	11412303          	lw	t1,276(sp)

0000000080000190 <i_59>:
    80000190:	f5410d83          	lb	s11,-172(sp)

0000000080000194 <i_60>:
    80000194:	02150d3b          	mulw	s10,a0,ra

0000000080000198 <i_61>:
    80000198:	e2710583          	lb	a1,-473(sp)

000000008000019c <i_62>:
    8000019c:	405d85bb          	subw	a1,s11,t0

00000000800001a0 <i_63>:
    800001a0:	15016a83          	lwu	s5,336(sp)

00000000800001a4 <i_64>:
    800001a4:	f6c12283          	lw	t0,-148(sp)

00000000800001a8 <i_65>:
    800001a8:	0215e263          	bltu	a1,ra,800001cc <i_74>

00000000800001ac <i_66>:
    800001ac:	005db0b3          	sltu	ra,s11,t0

00000000800001b0 <i_67>:
    800001b0:	008a8933          	add	s2,s5,s0

00000000800001b4 <i_68>:
    800001b4:	03d5cdbb          	divw	s11,a1,t4

00000000800001b8 <i_69>:
    800001b8:	0065fa63          	bleu	t1,a1,800001cc <i_74>

00000000800001bc <i_70>:
    800001bc:	01bae433          	or	s0,s5,s11

00000000800001c0 <i_71>:
    800001c0:	92244413          	xori	s0,s0,-1758

00000000800001c4 <i_72>:
    800001c4:	00000013          	nop

00000000800001c8 <i_73>:
    800001c8:	008d0433          	add	s0,s10,s0

00000000800001cc <i_74>:
    800001cc:	0280ceb3          	div	t4,ra,s0

00000000800001d0 <i_75>:
    800001d0:	00000013          	nop

00000000800001d4 <i_76>:
    800001d4:	87b00e13          	li	t3,-1925

00000000800001d8 <i_77>:
    800001d8:	87f00313          	li	t1,-1921

00000000800001dc <i_78>:
    800001dc:	011d7a63          	bleu	a7,s10,800001f0 <i_83>

00000000800001e0 <i_79>:
    800001e0:	013a8463          	beq	s5,s3,800001e8 <i_81>

00000000800001e4 <i_80>:
    800001e4:	00012583          	lw	a1,0(sp)

00000000800001e8 <i_81>:
    800001e8:	0060c433          	xor	s0,ra,t1

00000000800001ec <i_82>:
    800001ec:	0285843b          	mulw	s0,a1,s0

00000000800001f0 <i_83>:
    800001f0:	40e58bb3          	sub	s7,a1,a4

00000000800001f4 <i_84>:
    800001f4:	0190e3b3          	or	t2,ra,s9

00000000800001f8 <i_85>:
    800001f8:	e5813d03          	ld	s10,-424(sp)

00000000800001fc <i_86>:
    800001fc:	02b5d7b3          	divu	a5,a1,a1

0000000080000200 <i_87>:
    80000200:	0080b5b3          	sltu	a1,ra,s0

0000000080000204 <i_88>:
    80000204:	03210663          	beq	sp,s2,80000230 <i_98>

0000000080000208 <i_89>:
    80000208:	e4813823          	sd	s0,-432(sp)

000000008000020c <i_90>:
    8000020c:	02b58233          	mul	tp,a1,a1

0000000080000210 <i_91>:
    80000210:	001e0e13          	addi	t3,t3,1
    80000214:	fc6e44e3          	blt	t3,t1,800001dc <i_78>

0000000080000218 <i_92>:
    80000218:	0368d43b          	divuw	s0,a7,s6

000000008000021c <i_93>:
    8000021c:	4ad7af13          	slti	t5,a5,1197

0000000080000220 <i_94>:
    80000220:	0e812b03          	lw	s6,232(sp)

0000000080000224 <i_95>:
    80000224:	00000013          	nop

0000000080000228 <i_96>:
    80000228:	156105a3          	sb	s6,331(sp)

000000008000022c <i_97>:
    8000022c:	f4012383          	lw	t2,-192(sp)

0000000080000230 <i_98>:
    80000230:	02ff03bb          	mulw	t2,t5,a5

0000000080000234 <i_99>:
    80000234:	03ef0f33          	mul	t5,t5,t5

0000000080000238 <i_100>:
    80000238:	89500413          	li	s0,-1899

000000008000023c <i_101>:
    8000023c:	8a400793          	li	a5,-1884

0000000080000240 <i_102>:
    80000240:	8a63ff13          	andi	t5,t2,-1882

0000000080000244 <i_103>:
    80000244:	0db14f03          	lbu	t5,219(sp)

0000000080000248 <i_104>:
    80000248:	17813603          	ld	a2,376(sp)

000000008000024c <i_105>:
    8000024c:	00140413          	addi	s0,s0,1
    80000250:	fef448e3          	blt	s0,a5,80000240 <i_102>

0000000080000254 <i_106>:
    80000254:	03016603          	lwu	a2,48(sp)

0000000080000258 <i_107>:
    80000258:	030f2833          	mulhsu	a6,t5,a6

000000008000025c <i_108>:
    8000025c:	00c50e63          	beq	a0,a2,80000278 <i_115>

0000000080000260 <i_109>:
    80000260:	00761a63          	bne	a2,t2,80000274 <i_114>

0000000080000264 <i_110>:
    80000264:	010f4c63          	blt	t5,a6,8000027c <i_116>

0000000080000268 <i_111>:
    80000268:	02cfc063          	blt	t6,a2,80000288 <i_119>

000000008000026c <i_112>:
    8000026c:	8d8f4f13          	xori	t5,t5,-1832

0000000080000270 <i_113>:
    80000270:	03e8763b          	remuw	a2,a6,t5

0000000080000274 <i_114>:
    80000274:	030f083b          	mulw	a6,t5,a6

0000000080000278 <i_115>:
    80000278:	07e12423          	sw	t5,104(sp)

000000008000027c <i_116>:
    8000027c:	00000013          	nop

0000000080000280 <i_117>:
    80000280:	02c60233          	mul	tp,a2,a2

0000000080000284 <i_118>:
    80000284:	00400593          	li	a1,4

0000000080000288 <i_119>:
    80000288:	40bdddbb          	sraw	s11,s11,a1

000000008000028c <i_120>:
    8000028c:	1a110d83          	lb	s11,417(sp)

0000000080000290 <i_121>:
    80000290:	79b00f13          	li	t5,1947

0000000080000294 <i_122>:
    80000294:	7af00813          	li	a6,1967

0000000080000298 <i_123>:
    80000298:	1ad13823          	sd	a3,432(sp)

000000008000029c <i_124>:
    8000029c:	11013583          	ld	a1,272(sp)

00000000800002a0 <i_125>:
    800002a0:	03ba6233          	rem	tp,s4,s11

00000000800002a4 <i_126>:
    800002a4:	004d2db3          	slt	s11,s10,tp

00000000800002a8 <i_127>:
    800002a8:	03b20a33          	mul	s4,tp,s11

00000000800002ac <i_128>:
    800002ac:	e2b12e23          	sw	a1,-452(sp)

00000000800002b0 <i_129>:
    800002b0:	001f0f13          	addi	t5,t5,1
    800002b4:	ffe852e3          	ble	t5,a6,80000298 <i_123>

00000000800002b8 <i_130>:
    800002b8:	40125813          	srai	a6,tp,0x1

00000000800002bc <i_131>:
    800002bc:	004db5b3          	sltu	a1,s11,tp

00000000800002c0 <i_132>:
    800002c0:	16b106a3          	sb	a1,365(sp)

00000000800002c4 <i_133>:
    800002c4:	004df263          	bleu	tp,s11,800002c8 <i_134>

00000000800002c8 <i_134>:
    800002c8:	fc413023          	sd	tp,-64(sp)

00000000800002cc <i_135>:
    800002cc:	0385dc3b          	divuw	s8,a1,s8

00000000800002d0 <i_136>:
    800002d0:	e6013583          	ld	a1,-416(sp)

00000000800002d4 <i_137>:
    800002d4:	ad184213          	xori	tp,a6,-1327

00000000800002d8 <i_138>:
    800002d8:	f22c2c13          	slti	s8,s8,-222

00000000800002dc <i_139>:
    800002dc:	76800813          	li	a6,1896

00000000800002e0 <i_140>:
    800002e0:	77700493          	li	s1,1911

00000000800002e4 <i_141>:
    800002e4:	00626b33          	or	s6,tp,t1

00000000800002e8 <i_142>:
    800002e8:	024b7663          	bleu	tp,s6,80000314 <i_152>

00000000800002ec <i_143>:
    800002ec:	02d00213          	li	tp,45

00000000800002f0 <i_144>:
    800002f0:	0044db33          	srl	s6,s1,tp

00000000800002f4 <i_145>:
    800002f4:	036f7f33          	remu	t5,t5,s6

00000000800002f8 <i_146>:
    800002f8:	00180813          	addi	a6,a6,1
    800002fc:	fe9814e3          	bne	a6,s1,800002e4 <i_141>

0000000080000300 <i_147>:
    80000300:	00000013          	nop

0000000080000304 <i_148>:
    80000304:	0d611f03          	lh	t5,214(sp)

0000000080000308 <i_149>:
    80000308:	413f04bb          	subw	s1,t5,s3

000000008000030c <i_150>:
    8000030c:	00000013          	nop

0000000080000310 <i_151>:
    80000310:	02e15683          	lhu	a3,46(sp)

0000000080000314 <i_152>:
    80000314:	1c114f03          	lbu	t5,449(sp)

0000000080000318 <i_153>:
    80000318:	4036d41b          	sraiw	s0,a3,0x3

000000008000031c <i_154>:
    8000031c:	77c00213          	li	tp,1916

0000000080000320 <i_155>:
    80000320:	78400f93          	li	t6,1924

0000000080000324 <i_156>:
    80000324:	00120213          	addi	tp,tp,1 # 1 <main-0x7fffffff>
    80000328:	fff26ee3          	bltu	tp,t6,80000324 <i_156>

000000008000032c <i_157>:
    8000032c:	eb813683          	ld	a3,-328(sp)

0000000080000330 <i_158>:
    80000330:	da1cc6b7          	lui	a3,0xda1cc

0000000080000334 <i_159>:
    80000334:	0086ce63          	blt	a3,s0,80000350 <i_166>

0000000080000338 <i_160>:
    80000338:	0264733b          	remuw	t1,s0,t1

000000008000033c <i_161>:
    8000033c:	00869c63          	bne	a3,s0,80000354 <i_167>

0000000080000340 <i_162>:
    80000340:	fec15403          	lhu	s0,-20(sp)

0000000080000344 <i_163>:
    80000344:	07a14303          	lbu	t1,122(sp)

0000000080000348 <i_164>:
    80000348:	ecd12e23          	sw	a3,-292(sp)

000000008000034c <i_165>:
    8000034c:	04ad1f17          	auipc	t5,0x4ad1

0000000080000350 <i_166>:
    80000350:	1dc15983          	lhu	s3,476(sp)

0000000080000354 <i_167>:
    80000354:	04d11623          	sh	a3,76(sp)

0000000080000358 <i_168>:
    80000358:	03c15fb3          	divu	t6,sp,t3

000000008000035c <i_169>:
    8000035c:	00000013          	nop

0000000080000360 <i_170>:
    80000360:	83d00e13          	li	t3,-1987

0000000080000364 <i_171>:
    80000364:	84f00693          	li	a3,-1969

0000000080000368 <i_172>:
    80000368:	033e39b3          	mulhu	s3,t3,s3

000000008000036c <i_173>:
    8000036c:	00013483          	ld	s1,0(sp)

0000000080000370 <i_174>:
    80000370:	11c15083          	lhu	ra,284(sp)

0000000080000374 <i_175>:
    80000374:	001e0e13          	addi	t3,t3,1
    80000378:	fede48e3          	blt	t3,a3,80000368 <i_172>

000000008000037c <i_176>:
    8000037c:	02148d33          	mul	s10,s1,ra

0000000080000380 <i_177>:
    80000380:	fd114483          	lbu	s1,-47(sp)

0000000080000384 <i_178>:
    80000384:	e2f11e23          	sh	a5,-452(sp)

0000000080000388 <i_179>:
    80000388:	e4a10903          	lb	s2,-438(sp)

000000008000038c <i_180>:
    8000038c:	f6713023          	sd	t2,-160(sp)

0000000080000390 <i_181>:
    80000390:	0099b9b3          	sltu	s3,s3,s1

0000000080000394 <i_182>:
    80000394:	75200e93          	li	t4,1874

0000000080000398 <i_183>:
    80000398:	76100d13          	li	s10,1889

000000008000039c <i_184>:
    8000039c:	00b1cc63          	blt	gp,a1,800003b4 <i_190>

00000000800003a0 <i_185>:
    800003a0:	eba13023          	sd	s10,-352(sp)

00000000800003a4 <i_186>:
    800003a4:	fb614903          	lbu	s2,-74(sp)

00000000800003a8 <i_187>:
    800003a8:	02b4f0bb          	remuw	ra,s1,a1

00000000800003ac <i_188>:
    800003ac:	f7aef213          	andi	tp,t4,-134

00000000800003b0 <i_189>:
    800003b0:	00000013          	nop

00000000800003b4 <i_190>:
    800003b4:	00000013          	nop

00000000800003b8 <i_191>:
    800003b8:	004d4463          	blt	s10,tp,800003c0 <i_193>

00000000800003bc <i_192>:
    800003bc:	00000013          	nop

00000000800003c0 <i_193>:
    800003c0:	02b98463          	beq	s3,a1,800003e8 <i_202>

00000000800003c4 <i_194>:
    800003c4:	f1815203          	lhu	tp,-232(sp)

00000000800003c8 <i_195>:
    800003c8:	00000013          	nop

00000000800003cc <i_196>:
    800003cc:	02d00213          	li	tp,45

00000000800003d0 <i_197>:
    800003d0:	40425233          	sra	tp,tp,tp

00000000800003d4 <i_198>:
    800003d4:	001e8e93          	addi	t4,t4,1
    800003d8:	fdaec2e3          	blt	t4,s10,8000039c <i_184>

00000000800003dc <i_199>:
    800003dc:	02424063          	blt	tp,tp,800003fc <i_207>

00000000800003e0 <i_200>:
    800003e0:	10911623          	sh	s1,268(sp)

00000000800003e4 <i_201>:
    800003e4:	25423313          	sltiu	t1,tp,596

00000000800003e8 <i_202>:
    800003e8:	00431c63          	bne	t1,tp,80000400 <i_208>

00000000800003ec <i_203>:
    800003ec:	60e22313          	slti	t1,tp,1550

00000000800003f0 <i_204>:
    800003f0:	41de0ebb          	subw	t4,t3,t4

00000000800003f4 <i_205>:
    800003f4:	00000013          	nop

00000000800003f8 <i_206>:
    800003f8:	e9c16e03          	lwu	t3,-356(sp)

00000000800003fc <i_207>:
    800003fc:	03ae9533          	mulh	a0,t4,s10

0000000080000400 <i_208>:
    80000400:	00000013          	nop

0000000080000404 <i_209>:
    80000404:	00000013          	nop

0000000080000408 <i_210>:
    80000408:	7e800213          	li	tp,2024

000000008000040c <i_211>:
    8000040c:	7fa00d13          	li	s10,2042

0000000080000410 <i_212>:
    80000410:	03a50ebb          	mulw	t4,a0,s10

0000000080000414 <i_213>:
    80000414:	026d14b3          	mulh	s1,s10,t1

0000000080000418 <i_214>:
    80000418:	009e6e63          	bltu	t3,s1,80000434 <i_220>

000000008000041c <i_215>:
    8000041c:	d1a94613          	xori	a2,s2,-742

0000000080000420 <i_216>:
    80000420:	f5b10e03          	lb	t3,-165(sp)

0000000080000424 <i_217>:
    80000424:	00120213          	addi	tp,tp,1 # 1 <main-0x7fffffff>
    80000428:	ffa214e3          	bne	tp,s10,80000410 <i_212>

000000008000042c <i_218>:
    8000042c:	10a10903          	lb	s2,266(sp)

0000000080000430 <i_219>:
    80000430:	ec816a83          	lwu	s5,-312(sp)

0000000080000434 <i_220>:
    80000434:	01890863          	beq	s2,s8,80000444 <i_224>

0000000080000438 <i_221>:
    80000438:	ffc16f03          	lwu	t5,-4(sp)

000000008000043c <i_222>:
    8000043c:	f0510f83          	lb	t6,-251(sp)

0000000080000440 <i_223>:
    80000440:	ff611603          	lh	a2,-10(sp)

0000000080000444 <i_224>:
    80000444:	1e013b83          	ld	s7,480(sp)

0000000080000448 <i_225>:
    80000448:	e2615d03          	lhu	s10,-474(sp)

000000008000044c <i_226>:
    8000044c:	41ff883b          	subw	a6,t6,t6

0000000080000450 <i_227>:
    80000450:	0be14383          	lbu	t2,190(sp)

0000000080000454 <i_228>:
    80000454:	87c00e13          	li	t3,-1924

0000000080000458 <i_229>:
    80000458:	88b00d93          	li	s11,-1909

000000008000045c <i_230>:
    8000045c:	00000013          	nop

0000000080000460 <i_231>:
    80000460:	003d9f1b          	slliw	t5,s11,0x3

0000000080000464 <i_232>:
    80000464:	7e800613          	li	a2,2024

0000000080000468 <i_233>:
    80000468:	7f800f93          	li	t6,2040

000000008000046c <i_234>:
    8000046c:	0279d9bb          	divuw	s3,s3,t2

0000000080000470 <i_235>:
    80000470:	033986bb          	mulw	a3,s3,s3

0000000080000474 <i_236>:
    80000474:	f8713c23          	sd	t2,-104(sp)

0000000080000478 <i_237>:
    80000478:	e3e10f23          	sb	t5,-450(sp)

000000008000047c <i_238>:
    8000047c:	00160613          	addi	a2,a2,1
    80000480:	fff646e3          	blt	a2,t6,8000046c <i_234>

0000000080000484 <i_239>:
    80000484:	0139e463          	bltu	s3,s3,8000048c <i_241>

0000000080000488 <i_240>:
    80000488:	fed12c23          	sw	a3,-8(sp)

000000008000048c <i_241>:
    8000048c:	001b9b93          	slli	s7,s7,0x1

0000000080000490 <i_242>:
    80000490:	fa412983          	lw	s3,-92(sp)

0000000080000494 <i_243>:
    80000494:	0b210b83          	lb	s7,178(sp)

0000000080000498 <i_244>:
    80000498:	001e0e13          	addi	t3,t3,1
    8000049c:	fdcdd0e3          	ble	t3,s11,8000045c <i_230>

00000000800004a0 <i_245>:
    800004a0:	89c6af13          	slti	t5,a3,-1892

00000000800004a4 <i_246>:
    800004a4:	013f46b3          	xor	a3,t5,s3

00000000800004a8 <i_247>:
    800004a8:	ec611f03          	lh	t5,-314(sp)

00000000800004ac <i_248>:
    800004ac:	01ef8663          	beq	t6,t5,800004b8 <i_251>

00000000800004b0 <i_249>:
    800004b0:	013f1263          	bne	t5,s3,800004b4 <i_250>

00000000800004b4 <i_250>:
    800004b4:	03f52fb3          	mulhsu	t6,a0,t6

00000000800004b8 <i_251>:
    800004b8:	01c20e33          	add	t3,tp,t3

00000000800004bc <i_252>:
    800004bc:	21bffa93          	andi	s5,t6,539

00000000800004c0 <i_253>:
    800004c0:	01f68fb3          	add	t6,a3,t6

00000000800004c4 <i_254>:
    800004c4:	14d10ca3          	sb	a3,345(sp)

00000000800004c8 <i_255>:
    800004c8:	019afc63          	bleu	s9,s5,800004e0 <i_261>

00000000800004cc <i_256>:
    800004cc:	0be11823          	sh	t5,176(sp)

00000000800004d0 <i_257>:
    800004d0:	ed816f03          	lwu	t5,-296(sp)

00000000800004d4 <i_258>:
    800004d4:	fa514683          	lbu	a3,-91(sp)

00000000800004d8 <i_259>:
    800004d8:	15013c03          	ld	s8,336(sp)

00000000800004dc <i_260>:
    800004dc:	0f914583          	lbu	a1,249(sp)

00000000800004e0 <i_261>:
    800004e0:	f3812223          	sw	s8,-220(sp)

00000000800004e4 <i_262>:
    800004e4:	0e013583          	ld	a1,224(sp)

00000000800004e8 <i_263>:
    800004e8:	ed813583          	ld	a1,-296(sp)

00000000800004ec <i_264>:
    800004ec:	00b00413          	li	s0,11

00000000800004f0 <i_265>:
    800004f0:	00859fbb          	sllw	t6,a1,s0

00000000800004f4 <i_266>:
    800004f4:	fab13823          	sd	a1,-80(sp)

00000000800004f8 <i_267>:
    800004f8:	e5813f83          	ld	t6,-424(sp)

00000000800004fc <i_268>:
    800004fc:	09112a23          	sw	a7,148(sp)

0000000080000500 <i_269>:
    80000500:	00145f9b          	srliw	t6,s0,0x1

0000000080000504 <i_270>:
    80000504:	01ffacb3          	slt	s9,t6,t6

0000000080000508 <i_271>:
    80000508:	00f40a63          	beq	s0,a5,8000051c <i_276>

000000008000050c <i_272>:
    8000050c:	00b9b5b3          	sltu	a1,s3,a1

0000000080000510 <i_273>:
    80000510:	408f8fb3          	sub	t6,t6,s0

0000000080000514 <i_274>:
    80000514:	fd813f83          	ld	t6,-40(sp)

0000000080000518 <i_275>:
    80000518:	70472413          	slti	s0,a4,1796

000000008000051c <i_276>:
    8000051c:	fa8103a3          	sb	s0,-89(sp)

0000000080000520 <i_277>:
    80000520:	0043531b          	srliw	t1,t1,0x4

0000000080000524 <i_278>:
    80000524:	8d100593          	li	a1,-1839

0000000080000528 <i_279>:
    80000528:	8d400f93          	li	t6,-1836

000000008000052c <i_280>:
    8000052c:	0df10403          	lb	s0,223(sp)

0000000080000530 <i_281>:
    80000530:	01734c63          	blt	t1,s7,80000548 <i_287>

0000000080000534 <i_282>:
    80000534:	01537663          	bleu	s5,t1,80000540 <i_285>

0000000080000538 <i_283>:
    80000538:	03700513          	li	a0,55

000000008000053c <i_284>:
    8000053c:	40aadab3          	sra	s5,s5,a0

0000000080000540 <i_285>:
    80000540:	8ba36c93          	ori	s9,t1,-1862

0000000080000544 <i_286>:
    80000544:	ed412803          	lw	a6,-300(sp)

0000000080000548 <i_287>:
    80000548:	01137cb3          	and	s9,t1,a7

000000008000054c <i_288>:
    8000054c:	004cd313          	srli	t1,s9,0x4

0000000080000550 <i_289>:
    80000550:	00a00d93          	li	s11,10

0000000080000554 <i_290>:
    80000554:	01b090b3          	sll	ra,ra,s11

0000000080000558 <i_291>:
    80000558:	00158593          	addi	a1,a1,1
    8000055c:	fdf5c8e3          	blt	a1,t6,8000052c <i_280>

0000000080000560 <i_292>:
    80000560:	f1013023          	sd	a6,-256(sp)

0000000080000564 <i_293>:
    80000564:	f2816d83          	lwu	s11,-216(sp)

0000000080000568 <i_294>:
    80000568:	ee711f23          	sh	t2,-258(sp)

000000008000056c <i_295>:
    8000056c:	a784f337          	lui	t1,0xa784f

0000000080000570 <i_296>:
    80000570:	d1ee0a13          	addi	s4,t3,-738

0000000080000574 <i_297>:
    80000574:	0267c463          	blt	a5,t1,8000059c <i_307>

0000000080000578 <i_298>:
    80000578:	e5710383          	lb	t2,-425(sp)

000000008000057c <i_299>:
    8000057c:	d93a2a13          	slti	s4,s4,-621

0000000080000580 <i_300>:
    80000580:	e6015303          	lhu	t1,-416(sp)

0000000080000584 <i_301>:
    80000584:	03411383          	lh	t2,52(sp)

0000000080000588 <i_302>:
    80000588:	021a5fbb          	divuw	t6,s4,ra

000000008000058c <i_303>:
    8000058c:	d85d7193          	andi	gp,s10,-635

0000000080000590 <i_304>:
    80000590:	ffb13023          	sd	s11,-32(sp)

0000000080000594 <i_305>:
    80000594:	ff611503          	lh	a0,-10(sp)

0000000080000598 <i_306>:
    80000598:	a1208a1b          	addiw	s4,ra,-1518

000000008000059c <i_307>:
    8000059c:	f3013c83          	ld	s9,-208(sp)

00000000800005a0 <i_308>:
    800005a0:	649ced93          	ori	s11,s9,1609

00000000800005a4 <i_309>:
    800005a4:	039d8cb3          	mul	s9,s11,s9

00000000800005a8 <i_310>:
    800005a8:	18813c83          	ld	s9,392(sp)

00000000800005ac <i_311>:
    800005ac:	0bb10723          	sb	s11,174(sp)

00000000800005b0 <i_312>:
    800005b0:	019dfab3          	and	s5,s11,s9

00000000800005b4 <i_313>:
    800005b4:	02ccf63b          	remuw	a2,s9,a2

00000000800005b8 <i_314>:
    800005b8:	1fb11123          	sh	s11,482(sp)

00000000800005bc <i_315>:
    800005bc:	ee310d83          	lb	s11,-285(sp)

00000000800005c0 <i_316>:
    800005c0:	f7514c83          	lbu	s9,-139(sp)

00000000800005c4 <i_317>:
    800005c4:	037671b3          	remu	gp,a2,s7

00000000800005c8 <i_318>:
    800005c8:	01baca63          	blt	s5,s11,800005dc <i_323>

00000000800005cc <i_319>:
    800005cc:	a2ec8f1b          	addiw	t5,s9,-1490

00000000800005d0 <i_320>:
    800005d0:	04013383          	ld	t2,64(sp)

00000000800005d4 <i_321>:
    800005d4:	019ce463          	bltu	s9,s9,800005dc <i_323>

00000000800005d8 <i_322>:
    800005d8:	1be12623          	sw	t5,428(sp)

00000000800005dc <i_323>:
    800005dc:	03e39db3          	mulh	s11,t2,t5

00000000800005e0 <i_324>:
    800005e0:	0231b7b3          	mulhu	a5,gp,gp

00000000800005e4 <i_325>:
    800005e4:	89200393          	li	t2,-1902

00000000800005e8 <i_326>:
    800005e8:	8a000c93          	li	s9,-1888

00000000800005ec <i_327>:
    800005ec:	72ff6f13          	ori	t5,t5,1839

00000000800005f0 <i_328>:
    800005f0:	0ef11423          	sh	a5,232(sp)

00000000800005f4 <i_329>:
    800005f4:	11013483          	ld	s1,272(sp)

00000000800005f8 <i_330>:
    800005f8:	02ffcfb3          	div	t6,t6,a5

00000000800005fc <i_331>:
    800005fc:	001f979b          	slliw	a5,t6,0x1

0000000080000600 <i_332>:
    80000600:	7f600913          	li	s2,2038

0000000080000604 <i_333>:
    80000604:	7fb00093          	li	ra,2043

0000000080000608 <i_334>:
    80000608:	19610403          	lb	s0,406(sp)

000000008000060c <i_335>:
    8000060c:	00190913          	addi	s2,s2,1
    80000610:	fe194ce3          	blt	s2,ra,80000608 <i_334>

0000000080000614 <i_336>:
    80000614:	03f14783          	lbu	a5,63(sp)

0000000080000618 <i_337>:
    80000618:	eff10123          	sb	t6,-286(sp)

000000008000061c <i_338>:
    8000061c:	4036561b          	sraiw	a2,a2,0x3

0000000080000620 <i_339>:
    80000620:	0a412f83          	lw	t6,164(sp)

0000000080000624 <i_340>:
    80000624:	00138393          	addi	t2,t2,1
    80000628:	fd93e2e3          	bltu	t2,s9,800005ec <i_327>

000000008000062c <i_341>:
    8000062c:	02866263          	bltu	a2,s0,80000650 <i_350>

0000000080000630 <i_342>:
    80000630:	e3816603          	lwu	a2,-456(sp)

0000000080000634 <i_343>:
    80000634:	004fd61b          	srliw	a2,t6,0x4

0000000080000638 <i_344>:
    80000638:	028f443b          	divw	s0,t5,s0

000000008000063c <i_345>:
    8000063c:	0c811083          	lh	ra,200(sp)

0000000080000640 <i_346>:
    80000640:	ec416403          	lwu	s0,-316(sp)

0000000080000644 <i_347>:
    80000644:	40c08a3b          	subw	s4,ra,a2

0000000080000648 <i_348>:
    80000648:	003bd41b          	srliw	s0,s7,0x3

000000008000064c <i_349>:
    8000064c:	f8b11923          	sh	a1,-110(sp)

0000000080000650 <i_350>:
    80000650:	00000013          	nop

0000000080000654 <i_351>:
    80000654:	036b8c3b          	mulw	s8,s7,s6

0000000080000658 <i_352>:
    80000658:	86c00b93          	li	s7,-1940

000000008000065c <i_353>:
    8000065c:	87900f93          	li	t6,-1927

0000000080000660 <i_354>:
    80000660:	0340e063          	bltu	ra,s4,80000680 <i_361>

0000000080000664 <i_355>:
    80000664:	001b8b93          	addi	s7,s7,1
    80000668:	fffbcce3          	blt	s7,t6,80000660 <i_354>

000000008000066c <i_356>:
    8000066c:	02a00b93          	li	s7,42

0000000080000670 <i_357>:
    80000670:	4170dc33          	sra	s8,ra,s7

0000000080000674 <i_358>:
    80000674:	e5410023          	sb	s4,-448(sp)

0000000080000678 <i_359>:
    80000678:	031a4463          	blt	s4,a7,800006a0 <i_369>

000000008000067c <i_360>:
    8000067c:	09711023          	sh	s7,128(sp)

0000000080000680 <i_361>:
    80000680:	e3711523          	sh	s7,-470(sp)

0000000080000684 <i_362>:
    80000684:	03b45063          	ble	s11,s0,800006a4 <i_370>

0000000080000688 <i_363>:
    80000688:	033097b3          	mulh	a5,ra,s3

000000008000068c <i_364>:
    8000068c:	001c7463          	bleu	ra,s8,80000694 <i_366>

0000000080000690 <i_365>:
    80000690:	0e813b83          	ld	s7,232(sp)

0000000080000694 <i_366>:
    80000694:	017bfab3          	and	s5,s7,s7

0000000080000698 <i_367>:
    80000698:	00abc533          	xor	a0,s7,a0

000000008000069c <i_368>:
    8000069c:	03555bb3          	divu	s7,a0,s5

00000000800006a0 <i_369>:
    800006a0:	01000b93          	li	s7,16

00000000800006a4 <i_370>:
    800006a4:	01755bb3          	srl	s7,a0,s7

00000000800006a8 <i_371>:
    800006a8:	0c816503          	lwu	a0,200(sp)

00000000800006ac <i_372>:
    800006ac:	40ab8ab3          	sub	s5,s7,a0

00000000800006b0 <i_373>:
    800006b0:	00baf863          	bleu	a1,s5,800006c0 <i_377>

00000000800006b4 <i_374>:
    800006b4:	40155513          	srai	a0,a0,0x1

00000000800006b8 <i_375>:
    800006b8:	00551e63          	bne	a0,t0,800006d4 <i_382>

00000000800006bc <i_376>:
    800006bc:	03550063          	beq	a0,s5,800006dc <i_384>

00000000800006c0 <i_377>:
    800006c0:	02a51463          	bne	a0,a0,800006e8 <i_387>

00000000800006c4 <i_378>:
    800006c4:	00a20eb3          	add	t4,tp,a0

00000000800006c8 <i_379>:
    800006c8:	02457063          	bleu	tp,a0,800006e8 <i_387>

00000000800006cc <i_380>:
    800006cc:	f9811403          	lh	s0,-104(sp)

00000000800006d0 <i_381>:
    800006d0:	13314503          	lbu	a0,307(sp)

00000000800006d4 <i_382>:
    800006d4:	03447eb3          	remu	t4,s0,s4

00000000800006d8 <i_383>:
    800006d8:	00351a1b          	slliw	s4,a0,0x3

00000000800006dc <i_384>:
    800006dc:	00a51663          	bne	a0,a0,800006e8 <i_387>

00000000800006e0 <i_385>:
    800006e0:	f8514503          	lbu	a0,-123(sp)

00000000800006e4 <i_386>:
    800006e4:	f0c12403          	lw	s0,-244(sp)

00000000800006e8 <i_387>:
    800006e8:	01100493          	li	s1,17

00000000800006ec <i_388>:
    800006ec:	40945a33          	sra	s4,s0,s1

00000000800006f0 <i_389>:
    800006f0:	0ea13c23          	sd	a0,248(sp)

00000000800006f4 <i_390>:
    800006f4:	e8a15d83          	lhu	s11,-374(sp)

00000000800006f8 <i_391>:
    800006f8:	036ddebb          	divuw	t4,s11,s6

00000000800006fc <i_392>:
    800006fc:	03b404b3          	mul	s1,s0,s11

0000000080000700 <i_393>:
    80000700:	80ee8d93          	addi	s11,t4,-2034

0000000080000704 <i_394>:
    80000704:	ed813b03          	ld	s6,-296(sp)

0000000080000708 <i_395>:
    80000708:	1e9100a3          	sb	s1,481(sp)

000000008000070c <i_396>:
    8000070c:	10f10023          	sb	a5,256(sp)

0000000080000710 <i_397>:
    80000710:	05b10d03          	lb	s10,91(sp)

0000000080000714 <i_398>:
    80000714:	13a102a3          	sb	s10,293(sp)

0000000080000718 <i_399>:
    80000718:	03afa4b3          	mulhsu	s1,t6,s10

000000008000071c <i_400>:
    8000071c:	1b812203          	lw	tp,440(sp)

0000000080000720 <i_401>:
    80000720:	02412e23          	sw	tp,60(sp)

0000000080000724 <i_402>:
    80000724:	00115d13          	srli	s10,sp,0x1

0000000080000728 <i_403>:
    80000728:	eda12e23          	sw	s10,-292(sp)

000000008000072c <i_404>:
    8000072c:	eba13823          	sd	s10,-336(sp)

0000000080000730 <i_405>:
    80000730:	19812d03          	lw	s10,408(sp)

0000000080000734 <i_406>:
    80000734:	b82cea13          	ori	s4,s9,-1150

0000000080000738 <i_407>:
    80000738:	00000013          	nop

000000008000073c <i_408>:
    8000073c:	8c000413          	li	s0,-1856

0000000080000740 <i_409>:
    80000740:	8c300093          	li	ra,-1853

0000000080000744 <i_410>:
    80000744:	04012a03          	lw	s4,64(sp)

0000000080000748 <i_411>:
    80000748:	13016503          	lwu	a0,304(sp)

000000008000074c <i_412>:
    8000074c:	014ac463          	blt	s5,s4,80000754 <i_414>

0000000080000750 <i_413>:
    80000750:	f9311023          	sh	s3,-128(sp)

0000000080000754 <i_414>:
    80000754:	01d00193          	li	gp,29

0000000080000758 <i_415>:
    80000758:	403d59b3          	sra	s3,s10,gp

000000008000075c <i_416>:
    8000075c:	81900e93          	li	t4,-2023

0000000080000760 <i_417>:
    80000760:	82a00d13          	li	s10,-2006

0000000080000764 <i_418>:
    80000764:	03700793          	li	a5,55

0000000080000768 <i_419>:
    80000768:	00ff1db3          	sll	s11,t5,a5

000000008000076c <i_420>:
    8000076c:	001e8e93          	addi	t4,t4,1
    80000770:	ffdd7ae3          	bleu	t4,s10,80000764 <i_418>

0000000080000774 <i_421>:
    80000774:	00140413          	addi	s0,s0,1
    80000778:	fc80d6e3          	ble	s0,ra,80000744 <i_410>

000000008000077c <i_422>:
    8000077c:	00b00193          	li	gp,11

0000000080000780 <i_423>:
    80000780:	4031d7bb          	sraw	a5,gp,gp

0000000080000784 <i_424>:
    80000784:	02f7f5b3          	remu	a1,a5,a5

0000000080000788 <i_425>:
    80000788:	19013303          	ld	t1,400(sp)

000000008000078c <i_426>:
    8000078c:	00bdf863          	bleu	a1,s11,8000079c <i_430>

0000000080000790 <i_427>:
    80000790:	ed714d83          	lbu	s11,-297(sp)

0000000080000794 <i_428>:
    80000794:	01b89663          	bne	a7,s11,800007a0 <i_431>

0000000080000798 <i_429>:
    80000798:	14a11683          	lh	a3,330(sp)

000000008000079c <i_430>:
    8000079c:	00a00213          	li	tp,10

00000000800007a0 <i_431>:
    800007a0:	404dddbb          	sraw	s11,s11,tp

00000000800007a4 <i_432>:
    800007a4:	003c5413          	srli	s0,s8,0x3

00000000800007a8 <i_433>:
    800007a8:	03d6e063          	bltu	a3,t4,800007c8 <i_441>

00000000800007ac <i_434>:
    800007ac:	00b00913          	li	s2,11

00000000800007b0 <i_435>:
    800007b0:	0127d233          	srl	tp,a5,s2

00000000800007b4 <i_436>:
    800007b4:	032dc1bb          	divw	gp,s11,s2

00000000800007b8 <i_437>:
    800007b8:	0029179b          	slliw	a5,s2,0x2

00000000800007bc <i_438>:
    800007bc:	03000513          	li	a0,48

00000000800007c0 <i_439>:
    800007c0:	00a99933          	sll	s2,s3,a0

00000000800007c4 <i_440>:
    800007c4:	08210783          	lb	a5,130(sp)

00000000800007c8 <i_441>:
    800007c8:	05c11e03          	lh	t3,92(sp)

00000000800007cc <i_442>:
    800007cc:	00279d9b          	slliw	s11,a5,0x2

00000000800007d0 <i_443>:
    800007d0:	87700c93          	li	s9,-1929

00000000800007d4 <i_444>:
    800007d4:	87a00593          	li	a1,-1926

00000000800007d8 <i_445>:
    800007d8:	001c8c93          	addi	s9,s9,1
    800007dc:	ff95fee3          	bleu	s9,a1,800007d8 <i_445>

00000000800007e0 <i_446>:
    800007e0:	00ab2b33          	slt	s6,s6,a0

00000000800007e4 <i_447>:
    800007e4:	10813d83          	ld	s11,264(sp)

00000000800007e8 <i_448>:
    800007e8:	e8f13423          	sd	a5,-376(sp)

00000000800007ec <i_449>:
    800007ec:	f9412783          	lw	a5,-108(sp)

00000000800007f0 <i_450>:
    800007f0:	00f1c663          	blt	gp,a5,800007fc <i_453>

00000000800007f4 <i_451>:
    800007f4:	01b1fa63          	bleu	s11,gp,80000808 <i_456>

00000000800007f8 <i_452>:
    800007f8:	e7612423          	sw	s6,-408(sp)

00000000800007fc <i_453>:
    800007fc:	02394063          	blt	s2,gp,8000081c <i_461>

0000000080000800 <i_454>:
    80000800:	5aaea913          	slti	s2,t4,1450

0000000080000804 <i_455>:
    80000804:	02fdf933          	remu	s2,s11,a5

0000000080000808 <i_456>:
    80000808:	01288db3          	add	s11,a7,s2

000000008000080c <i_457>:
    8000080c:	02a1d463          	ble	a0,gp,80000834 <i_467>

0000000080000810 <i_458>:
    80000810:	03c1a533          	mulhsu	a0,gp,t3

0000000080000814 <i_459>:
    80000814:	0357dab3          	divu	s5,a5,s5

0000000080000818 <i_460>:
    80000818:	02f50533          	mul	a0,a0,a5

000000008000081c <i_461>:
    8000081c:	00000013          	nop

0000000080000820 <i_462>:
    80000820:	0d013403          	ld	s0,208(sp)

0000000080000824 <i_463>:
    80000824:	41e9019b          	addiw	gp,s2,1054

0000000080000828 <i_464>:
    80000828:	2f4dce93          	xori	t4,s11,756

000000008000082c <i_465>:
    8000082c:	f3b10d03          	lb	s10,-197(sp)

0000000080000830 <i_466>:
    80000830:	eaa11f23          	sh	a0,-322(sp)

0000000080000834 <i_467>:
    80000834:	00000013          	nop

0000000080000838 <i_468>:
    80000838:	16912a23          	sw	s1,372(sp)

000000008000083c <i_469>:
    8000083c:	88b00493          	li	s1,-1909

0000000080000840 <i_470>:
    80000840:	89900793          	li	a5,-1895

0000000080000844 <i_471>:
    80000844:	01a16533          	or	a0,sp,s10

0000000080000848 <i_472>:
    80000848:	003e951b          	slliw	a0,t4,0x3

000000008000084c <i_473>:
    8000084c:	f8710d03          	lb	s10,-121(sp)

0000000080000850 <i_474>:
    80000850:	f9412f83          	lw	t6,-108(sp)

0000000080000854 <i_475>:
    80000854:	02a8f513          	andi	a0,a7,42

0000000080000858 <i_476>:
    80000858:	03ffdebb          	divuw	t4,t6,t6

000000008000085c <i_477>:
    8000085c:	00148493          	addi	s1,s1,1
    80000860:	fef4c2e3          	blt	s1,a5,80000844 <i_471>

0000000080000864 <i_478>:
    80000864:	12c12023          	sw	a2,288(sp)

0000000080000868 <i_479>:
    80000868:	01f77e33          	and	t3,a4,t6

000000008000086c <i_480>:
    8000086c:	03fe1063          	bne	t3,t6,8000088c <i_488>

0000000080000870 <i_481>:
    80000870:	03c34e3b          	divw	t3,t1,t3

0000000080000874 <i_482>:
    80000874:	0e816e03          	lwu	t3,232(sp)

0000000080000878 <i_483>:
    80000878:	0327f933          	remu	s2,a5,s2

000000008000087c <i_484>:
    8000087c:	e1c10ea3          	sb	t3,-483(sp)

0000000080000880 <i_485>:
    80000880:	00500d13          	li	s10,5

0000000080000884 <i_486>:
    80000884:	01ae1d3b          	sllw	s10,t3,s10

0000000080000888 <i_487>:
    80000888:	0a812b03          	lw	s6,168(sp)

000000008000088c <i_488>:
    8000088c:	01cb6263          	bltu	s6,t3,80000890 <i_489>

0000000080000890 <i_489>:
    80000890:	00be0c63          	beq	t3,a1,800008a8 <i_495>

0000000080000894 <i_490>:
    80000894:	fe416903          	lwu	s2,-28(sp)

0000000080000898 <i_491>:
    80000898:	e4514383          	lbu	t2,-443(sp)

000000008000089c <i_492>:
    8000089c:	ef910383          	lb	t2,-263(sp)

00000000800008a0 <i_493>:
    800008a0:	01a00513          	li	a0,26

00000000800008a4 <i_494>:
    800008a4:	40a3d5bb          	sraw	a1,t2,a0

00000000800008a8 <i_495>:
    800008a8:	0e813383          	ld	t2,232(sp)

00000000800008ac <i_496>:
    800008ac:	f3c12383          	lw	t2,-196(sp)

00000000800008b0 <i_497>:
    800008b0:	0bc15383          	lhu	t2,188(sp)

00000000800008b4 <i_498>:
    800008b4:	ee812f03          	lw	t5,-280(sp)

00000000800008b8 <i_499>:
    800008b8:	03e3e333          	rem	t1,t2,t5

00000000800008bc <i_500>:
    800008bc:	edf10383          	lb	t2,-289(sp)

00000000800008c0 <i_501>:
    800008c0:	0046d69b          	srliw	a3,a3,0x4

00000000800008c4 <i_502>:
    800008c4:	cf4e0f13          	addi	t5,t3,-780

00000000800008c8 <i_503>:
    800008c8:	00000013          	nop

00000000800008cc <i_504>:
    800008cc:	00f9c3b3          	xor	t2,s3,a5

00000000800008d0 <i_505>:
    800008d0:	7b600993          	li	s3,1974

00000000800008d4 <i_506>:
    800008d4:	7bf00793          	li	a5,1983

00000000800008d8 <i_507>:
    800008d8:	03e7f3bb          	remuw	t2,a5,t5

00000000800008dc <i_508>:
    800008dc:	e8415383          	lhu	t2,-380(sp)

00000000800008e0 <i_509>:
    800008e0:	fd615d03          	lhu	s10,-42(sp)

00000000800008e4 <i_510>:
    800008e4:	21db6393          	ori	t2,s6,541

00000000800008e8 <i_511>:
    800008e8:	82d00b13          	li	s6,-2003

00000000800008ec <i_512>:
    800008ec:	83400f13          	li	t5,-1996

00000000800008f0 <i_513>:
    800008f0:	ed813583          	ld	a1,-296(sp)

00000000800008f4 <i_514>:
    800008f4:	14415583          	lhu	a1,324(sp)

00000000800008f8 <i_515>:
    800008f8:	003d5593          	srli	a1,s10,0x3

00000000800008fc <i_516>:
    800008fc:	001b0b13          	addi	s6,s6,1
    80000900:	ff6f78e3          	bleu	s6,t5,800008f0 <i_513>

0000000080000904 <i_517>:
    80000904:	f5114683          	lbu	a3,-175(sp)

0000000080000908 <i_518>:
    80000908:	e3c16d03          	lwu	s10,-452(sp)

000000008000090c <i_519>:
    8000090c:	e2013583          	ld	a1,-480(sp)

0000000080000910 <i_520>:
    80000910:	00391913          	slli	s2,s2,0x3

0000000080000914 <i_521>:
    80000914:	05210423          	sb	s2,72(sp)

0000000080000918 <i_522>:
    80000918:	00198993          	addi	s3,s3,1
    8000091c:	faf9cee3          	blt	s3,a5,800008d8 <i_507>

0000000080000920 <i_523>:
    80000920:	00000013          	nop

0000000080000924 <i_524>:
    80000924:	01a91663          	bne	s2,s10,80000930 <i_527>

0000000080000928 <i_525>:
    80000928:	01815e83          	lhu	t4,24(sp)

000000008000092c <i_526>:
    8000092c:	e1f10583          	lb	a1,-481(sp)

0000000080000930 <i_527>:
    80000930:	00b31663          	bne	t1,a1,8000093c <i_530>

0000000080000934 <i_528>:
    80000934:	fcb12623          	sw	a1,-52(sp)

0000000080000938 <i_529>:
    80000938:	00beca63          	blt	t4,a1,8000094c <i_534>

000000008000093c <i_530>:
    8000093c:	02deab33          	mulhsu	s6,t4,a3

0000000080000940 <i_531>:
    80000940:	0b612223          	sw	s6,164(sp)

0000000080000944 <i_532>:
    80000944:	08c16983          	lwu	s3,140(sp)

0000000080000948 <i_533>:
    80000948:	14812903          	lw	s2,328(sp)

000000008000094c <i_534>:
    8000094c:	07a101a3          	sb	s10,99(sp)

0000000080000950 <i_535>:
    80000950:	120d2693          	slti	a3,s10,288

0000000080000954 <i_536>:
    80000954:	73400b13          	li	s6,1844

0000000080000958 <i_537>:
    80000958:	73f00e13          	li	t3,1855

000000008000095c <i_538>:
    8000095c:	07812d03          	lw	s10,120(sp)

0000000080000960 <i_539>:
    80000960:	03ae5263          	ble	s10,t3,80000984 <i_547>

0000000080000964 <i_540>:
    80000964:	e3312e23          	sw	s3,-452(sp)

0000000080000968 <i_541>:
    80000968:	001b0b13          	addi	s6,s6,1
    8000096c:	ffcb18e3          	bne	s6,t3,8000095c <i_538>

0000000080000970 <i_542>:
    80000970:	ed013823          	sd	a6,-304(sp)

0000000080000974 <i_543>:
    80000974:	e9614e03          	lbu	t3,-362(sp)

0000000080000978 <i_544>:
    80000978:	013d4c63          	blt	s10,s3,80000990 <i_550>

000000008000097c <i_545>:
    8000097c:	01900513          	li	a0,25

0000000080000980 <i_546>:
    80000980:	40a9dd3b          	sraw	s10,s3,a0

0000000080000984 <i_547>:
    80000984:	02ad56bb          	divuw	a3,s10,a0

0000000080000988 <i_548>:
    80000988:	16d11d23          	sh	a3,378(sp)

000000008000098c <i_549>:
    8000098c:	00000013          	nop

0000000080000990 <i_550>:
    80000990:	00000013          	nop

0000000080000994 <i_551>:
    80000994:	19415683          	lhu	a3,404(sp)

0000000080000998 <i_552>:
    80000998:	83e00c13          	li	s8,-1986

000000008000099c <i_553>:
    8000099c:	84f00e13          	li	t3,-1969

00000000800009a0 <i_554>:
    800009a0:	0096fc63          	bleu	s1,a3,800009b8 <i_560>

00000000800009a4 <i_555>:
    800009a4:	0184c663          	blt	s1,s8,800009b0 <i_558>

00000000800009a8 <i_556>:
    800009a8:	e6012403          	lw	s0,-416(sp)

00000000800009ac <i_557>:
    800009ac:	034e50b3          	divu	ra,t3,s4

00000000800009b0 <i_558>:
    800009b0:	00db6263          	bltu	s6,a3,800009b4 <i_559>

00000000800009b4 <i_559>:
    800009b4:	1fc12223          	sw	t3,484(sp)

00000000800009b8 <i_560>:
    800009b8:	11a11f83          	lh	t6,282(sp)

00000000800009bc <i_561>:
    800009bc:	00100293          	li	t0,1

00000000800009c0 <i_562>:
    800009c0:	0056983b          	sllw	a6,a3,t0

00000000800009c4 <i_563>:
    800009c4:	01db3833          	sltu	a6,s6,t4

00000000800009c8 <i_564>:
    800009c8:	00000013          	nop

00000000800009cc <i_565>:
    800009cc:	edc16283          	lwu	t0,-292(sp)

00000000800009d0 <i_566>:
    800009d0:	f4d11923          	sh	a3,-174(sp)

00000000800009d4 <i_567>:
    800009d4:	001c0c13          	addi	s8,s8,1
    800009d8:	fdcc64e3          	bltu	s8,t3,800009a0 <i_554>

00000000800009dc <i_568>:
    800009dc:	00000013          	nop

00000000800009e0 <i_569>:
    800009e0:	e5412183          	lw	gp,-428(sp)

00000000800009e4 <i_570>:
    800009e4:	e3c15d03          	lhu	s10,-452(sp)

00000000800009e8 <i_571>:
    800009e8:	03a922b3          	mulhsu	t0,s2,s10

00000000800009ec <i_572>:
    800009ec:	f2211683          	lh	a3,-222(sp)

00000000800009f0 <i_573>:
    800009f0:	7a900913          	li	s2,1961

00000000800009f4 <i_574>:
    800009f4:	7ac00f93          	li	t6,1964

00000000800009f8 <i_575>:
    800009f8:	025292b3          	mulh	t0,t0,t0

00000000800009fc <i_576>:
    800009fc:	e8a12c23          	sw	a0,-360(sp)

0000000080000a00 <i_577>:
    80000a00:	00c2fe63          	bleu	a2,t0,80000a1c <i_584>

0000000080000a04 <i_578>:
    80000a04:	ed012403          	lw	s0,-304(sp)

0000000080000a08 <i_579>:
    80000a08:	e4513823          	sd	t0,-432(sp)

0000000080000a0c <i_580>:
    80000a0c:	00000013          	nop

0000000080000a10 <i_581>:
    80000a10:	005eec63          	bltu	t4,t0,80000a28 <i_587>

0000000080000a14 <i_582>:
    80000a14:	4036d193          	srai	gp,a3,0x3

0000000080000a18 <i_583>:
    80000a18:	01619263          	bne	gp,s6,80000a1c <i_584>

0000000080000a1c <i_584>:
    80000a1c:	01e28663          	beq	t0,t5,80000a28 <i_587>

0000000080000a20 <i_585>:
    80000a20:	1e415683          	lhu	a3,484(sp)

0000000080000a24 <i_586>:
    80000a24:	01200c93          	li	s9,18

0000000080000a28 <i_587>:
    80000a28:	0196de33          	srl	t3,a3,s9

0000000080000a2c <i_588>:
    80000a2c:	00000013          	nop

0000000080000a30 <i_589>:
    80000a30:	019f3433          	sltu	s0,t5,s9

0000000080000a34 <i_590>:
    80000a34:	00190913          	addi	s2,s2,1
    80000a38:	fdf960e3          	bltu	s2,t6,800009f8 <i_575>

0000000080000a3c <i_591>:
    80000a3c:	008e3ab3          	sltu	s5,t3,s0

0000000080000a40 <i_592>:
    80000a40:	1d013a83          	ld	s5,464(sp)

0000000080000a44 <i_593>:
    80000a44:	e9412683          	lw	a3,-364(sp)

0000000080000a48 <i_594>:
    80000a48:	00000013          	nop

0000000080000a4c <i_595>:
    80000a4c:	7f500f93          	li	t6,2037

0000000080000a50 <i_596>:
    80000a50:	7fe00c93          	li	s9,2046

0000000080000a54 <i_597>:
    80000a54:	02dc8e3b          	mulw	t3,s9,a3

0000000080000a58 <i_598>:
    80000a58:	f7e11683          	lh	a3,-130(sp)

0000000080000a5c <i_599>:
    80000a5c:	c446b913          	sltiu	s2,a3,-956

0000000080000a60 <i_600>:
    80000a60:	00469663          	bne	a3,tp,80000a6c <i_603>

0000000080000a64 <i_601>:
    80000a64:	0387e7b3          	rem	a5,a5,s8

0000000080000a68 <i_602>:
    80000a68:	00f10623          	sb	a5,12(sp)

0000000080000a6c <i_603>:
    80000a6c:	e8c10ca3          	sb	a2,-359(sp)

0000000080000a70 <i_604>:
    80000a70:	e3312623          	sw	s3,-468(sp)

0000000080000a74 <i_605>:
    80000a74:	001f8f93          	addi	t6,t6,1
    80000a78:	fd9feee3          	bltu	t6,s9,80000a54 <i_597>

0000000080000a7c <i_606>:
    80000a7c:	13210123          	sb	s2,290(sp)

0000000080000a80 <i_607>:
    80000a80:	02cdf633          	remu	a2,s11,a2

0000000080000a84 <i_608>:
    80000a84:	00000013          	nop

0000000080000a88 <i_609>:
    80000a88:	09d12023          	sw	t4,128(sp)

0000000080000a8c <i_610>:
    80000a8c:	77900213          	li	tp,1913

0000000080000a90 <i_611>:
    80000a90:	77e00e93          	li	t4,1918

0000000080000a94 <i_612>:
    80000a94:	0f415603          	lhu	a2,244(sp)

0000000080000a98 <i_613>:
    80000a98:	0240893b          	mulw	s2,ra,tp

0000000080000a9c <i_614>:
    80000a9c:	01221463          	bne	tp,s2,80000aa4 <i_616>

0000000080000aa0 <i_615>:
    80000aa0:	11816603          	lwu	a2,280(sp)

0000000080000aa4 <i_616>:
    80000aa4:	fbd11d23          	sh	t4,-70(sp)

0000000080000aa8 <i_617>:
    80000aa8:	f9a60f1b          	addiw	t5,a2,-102

0000000080000aac <i_618>:
    80000aac:	02862833          	mulhsu	a6,a2,s0

0000000080000ab0 <i_619>:
    80000ab0:	00120213          	addi	tp,tp,1 # 1 <main-0x7fffffff>
    80000ab4:	fe4ed0e3          	ble	tp,t4,80000a94 <i_612>

0000000080000ab8 <i_620>:
    80000ab8:	1416ce93          	xori	t4,a3,321

0000000080000abc <i_621>:
    80000abc:	f9a15683          	lhu	a3,-102(sp)

0000000080000ac0 <i_622>:
    80000ac0:	00d8c263          	blt	a7,a3,80000ac4 <i_623>

0000000080000ac4 <i_623>:
    80000ac4:	e4d11323          	sh	a3,-442(sp)

0000000080000ac8 <i_624>:
    80000ac8:	00d3f663          	bleu	a3,t2,80000ad4 <i_627>

0000000080000acc <i_625>:
    80000acc:	02dec6b3          	div	a3,t4,a3

0000000080000ad0 <i_626>:
    80000ad0:	00000013          	nop

0000000080000ad4 <i_627>:
    80000ad4:	19211783          	lh	a5,402(sp)

0000000080000ad8 <i_628>:
    80000ad8:	db70a537          	lui	a0,0xdb70a

0000000080000adc <i_629>:
    80000adc:	80900693          	li	a3,-2039

0000000080000ae0 <i_630>:
    80000ae0:	81500e93          	li	t4,-2027

0000000080000ae4 <i_631>:
    80000ae4:	0ea11c23          	sh	a0,248(sp)

0000000080000ae8 <i_632>:
    80000ae8:	f1215203          	lhu	tp,-238(sp)

0000000080000aec <i_633>:
    80000aec:	16a13423          	sd	a0,360(sp)

0000000080000af0 <i_634>:
    80000af0:	005ede63          	ble	t0,t4,80000b0c <i_641>

0000000080000af4 <i_635>:
    80000af4:	12f11923          	sh	a5,306(sp)

0000000080000af8 <i_636>:
    80000af8:	e5810583          	lb	a1,-424(sp)

0000000080000afc <i_637>:
    80000afc:	02d9d663          	ble	a3,s3,80000b28 <i_647>

0000000080000b00 <i_638>:
    80000b00:	00000013          	nop

0000000080000b04 <i_639>:
    80000b04:	02a00593          	li	a1,42

0000000080000b08 <i_640>:
    80000b08:	00b71533          	sll	a0,a4,a1

0000000080000b0c <i_641>:
    80000b0c:	ee914403          	lbu	s0,-279(sp)

0000000080000b10 <i_642>:
    80000b10:	0ca15183          	lhu	gp,202(sp)

0000000080000b14 <i_643>:
    80000b14:	f8810123          	sb	s0,-126(sp)

0000000080000b18 <i_644>:
    80000b18:	00168693          	addi	a3,a3,1 # ffffffffda1cc001 <_end+0xffffffff5a1bbbed>
    80000b1c:	fcdef4e3          	bleu	a3,t4,80000ae4 <i_631>

0000000080000b20 <i_645>:
    80000b20:	05811583          	lh	a1,88(sp)

0000000080000b24 <i_646>:
    80000b24:	ec311b23          	sh	gp,-298(sp)

0000000080000b28 <i_647>:
    80000b28:	1a012583          	lw	a1,416(sp)

0000000080000b2c <i_648>:
    80000b2c:	0a510b03          	lb	s6,165(sp)

0000000080000b30 <i_649>:
    80000b30:	e6c15a83          	lhu	s5,-404(sp)

0000000080000b34 <i_650>:
    80000b34:	003a6e63          	bltu	s4,gp,80000b50 <i_657>

0000000080000b38 <i_651>:
    80000b38:	02819263          	bne	gp,s0,80000b5c <i_660>

0000000080000b3c <i_652>:
    80000b3c:	0365febb          	remuw	t4,a1,s6

0000000080000b40 <i_653>:
    80000b40:	4031dc13          	srai	s8,gp,0x3

0000000080000b44 <i_654>:
    80000b44:	01dfc463          	blt	t6,t4,80000b4c <i_656>

0000000080000b48 <i_655>:
    80000b48:	003c7a63          	bleu	gp,s8,80000b5c <i_660>

0000000080000b4c <i_656>:
    80000b4c:	f3c15183          	lhu	gp,-196(sp)

0000000080000b50 <i_657>:
    80000b50:	efd12823          	sw	t4,-272(sp)

0000000080000b54 <i_658>:
    80000b54:	06312023          	sw	gp,96(sp)

0000000080000b58 <i_659>:
    80000b58:	4041de9b          	sraiw	t4,gp,0x4

0000000080000b5c <i_660>:
    80000b5c:	f3d13023          	sd	t4,-224(sp)

0000000080000b60 <i_661>:
    80000b60:	0a310fa3          	sb	gp,191(sp)

0000000080000b64 <i_662>:
    80000b64:	fb911323          	sh	s9,-90(sp)

0000000080000b68 <i_663>:
    80000b68:	1c610c83          	lb	s9,454(sp)

0000000080000b6c <i_664>:
    80000b6c:	028e9463          	bne	t4,s0,80000b94 <i_674>

0000000080000b70 <i_665>:
    80000b70:	19510423          	sb	s5,392(sp)

0000000080000b74 <i_666>:
    80000b74:	02934e93          	xori	t4,t1,41

0000000080000b78 <i_667>:
    80000b78:	10816a83          	lwu	s5,264(sp)

0000000080000b7c <i_668>:
    80000b7c:	01dace63          	blt	s5,t4,80000b98 <i_675>

0000000080000b80 <i_669>:
    80000b80:	e9913423          	sd	s9,-376(sp)

0000000080000b84 <i_670>:
    80000b84:	015af863          	bleu	s5,s5,80000b94 <i_674>

0000000080000b88 <i_671>:
    80000b88:	004f1e9b          	slliw	t4,t5,0x4

0000000080000b8c <i_672>:
    80000b8c:	03d7f7bb          	remuw	a5,a5,t4

0000000080000b90 <i_673>:
    80000b90:	e6611e83          	lh	t4,-410(sp)

0000000080000b94 <i_674>:
    80000b94:	03779f33          	mulh	t5,a5,s7

0000000080000b98 <i_675>:
    80000b98:	19e10123          	sb	t5,386(sp)

0000000080000b9c <i_676>:
    80000b9c:	404f5f13          	srai	t5,t5,0x4

0000000080000ba0 <i_677>:
    80000ba0:	02fe0233          	mul	tp,t3,a5

0000000080000ba4 <i_678>:
    80000ba4:	fcf13823          	sd	a5,-48(sp)

0000000080000ba8 <i_679>:
    80000ba8:	73e00793          	li	a5,1854

0000000080000bac <i_680>:
    80000bac:	74600593          	li	a1,1862

0000000080000bb0 <i_681>:
    80000bb0:	00121e13          	slli	t3,tp,0x1

0000000080000bb4 <i_682>:
    80000bb4:	00178793          	addi	a5,a5,1
    80000bb8:	feb7ece3          	bltu	a5,a1,80000bb0 <i_681>

0000000080000bbc <i_683>:
    80000bbc:	09d13023          	sd	t4,128(sp)

0000000080000bc0 <i_684>:
    80000bc0:	01cf4663          	blt	t5,t3,80000bcc <i_687>

0000000080000bc4 <i_685>:
    80000bc4:	13c12023          	sw	t3,288(sp)

0000000080000bc8 <i_686>:
    80000bc8:	01e59e63          	bne	a1,t5,80000be4 <i_693>

0000000080000bcc <i_687>:
    80000bcc:	e5910083          	lb	ra,-423(sp)

0000000080000bd0 <i_688>:
    80000bd0:	00000013          	nop

0000000080000bd4 <i_689>:
    80000bd4:	6f344397          	auipc	t2,0x6f344

0000000080000bd8 <i_690>:
    80000bd8:	027108a3          	sb	t2,49(sp)

0000000080000bdc <i_691>:
    80000bdc:	0343cdbb          	divw	s11,t2,s4

0000000080000be0 <i_692>:
    80000be0:	10815a03          	lhu	s4,264(sp)

0000000080000be4 <i_693>:
    80000be4:	00000013          	nop

0000000080000be8 <i_694>:
    80000be8:	e3611c03          	lh	s8,-458(sp)

0000000080000bec <i_695>:
    80000bec:	85400e13          	li	t3,-1964

0000000080000bf0 <i_696>:
    80000bf0:	86700093          	li	ra,-1945

0000000080000bf4 <i_697>:
    80000bf4:	e2710d23          	sb	t2,-454(sp)

0000000080000bf8 <i_698>:
    80000bf8:	001e0e13          	addi	t3,t3,1
    80000bfc:	fe1e4ce3          	blt	t3,ra,80000bf4 <i_697>

0000000080000c00 <i_699>:
    80000c00:	ffc12423          	sw	t3,-24(sp)

0000000080000c04 <i_700>:
    80000c04:	06712e23          	sw	t2,124(sp)

0000000080000c08 <i_701>:
    80000c08:	018b9663          	bne	s7,s8,80000c14 <i_704>

0000000080000c0c <i_702>:
    80000c0c:	01808d33          	add	s10,ra,s8

0000000080000c10 <i_703>:
    80000c10:	018d6c33          	or	s8,s10,s8

0000000080000c14 <i_704>:
    80000c14:	ab6c4c13          	xori	s8,s8,-1354

0000000080000c18 <i_705>:
    80000c18:	018d7663          	bleu	s8,s10,80000c24 <i_708>

0000000080000c1c <i_706>:
    80000c1c:	07a13c23          	sd	s10,120(sp)

0000000080000c20 <i_707>:
    80000c20:	1e114d03          	lbu	s10,481(sp)

0000000080000c24 <i_708>:
    80000c24:	03816a03          	lwu	s4,56(sp)

0000000080000c28 <i_709>:
    80000c28:	01ad2233          	slt	tp,s10,s10

0000000080000c2c <i_710>:
    80000c2c:	004a0d33          	add	s10,s4,tp

0000000080000c30 <i_711>:
    80000c30:	1a412023          	sw	tp,416(sp)

0000000080000c34 <i_712>:
    80000c34:	416a09b3          	sub	s3,s4,s6

0000000080000c38 <i_713>:
    80000c38:	249d2993          	slti	s3,s10,585

0000000080000c3c <i_714>:
    80000c3c:	0179e463          	bltu	s3,s7,80000c44 <i_716>

0000000080000c40 <i_715>:
    80000c40:	01420663          	beq	tp,s4,80000c4c <i_718>

0000000080000c44 <i_716>:
    80000c44:	033a5c3b          	divuw	s8,s4,s3

0000000080000c48 <i_717>:
    80000c48:	038d5263          	ble	s8,s10,80000c6c <i_726>

0000000080000c4c <i_718>:
    80000c4c:	fcb14a03          	lbu	s4,-53(sp)

0000000080000c50 <i_719>:
    80000c50:	00b00a13          	li	s4,11

0000000080000c54 <i_720>:
    80000c54:	414c5fbb          	sraw	t6,s8,s4

0000000080000c58 <i_721>:
    80000c58:	034fe063          	bltu	t6,s4,80000c78 <i_729>

0000000080000c5c <i_722>:
    80000c5c:	03ffdf3b          	divuw	t5,t6,t6

0000000080000c60 <i_723>:
    80000c60:	0a1a6f13          	ori	t5,s4,161

0000000080000c64 <i_724>:
    80000c64:	ee411f83          	lh	t6,-284(sp)

0000000080000c68 <i_725>:
    80000c68:	01f46fb3          	or	t6,s0,t6

0000000080000c6c <i_726>:
    80000c6c:	11c15283          	lhu	t0,284(sp)

0000000080000c70 <i_727>:
    80000c70:	ea813a83          	ld	s5,-344(sp)

0000000080000c74 <i_728>:
    80000c74:	ed614f83          	lbu	t6,-298(sp)

0000000080000c78 <i_729>:
    80000c78:	03ffd463          	ble	t6,t6,80000ca0 <i_739>

0000000080000c7c <i_730>:
    80000c7c:	17f13c23          	sd	t6,376(sp)

0000000080000c80 <i_731>:
    80000c80:	00000013          	nop

0000000080000c84 <i_732>:
    80000c84:	0a512023          	sw	t0,160(sp)

0000000080000c88 <i_733>:
    80000c88:	04a11a83          	lh	s5,74(sp)

0000000080000c8c <i_734>:
    80000c8c:	02d894b3          	mulh	s1,a7,a3

0000000080000c90 <i_735>:
    80000c90:	8826bd13          	sltiu	s10,a3,-1918

0000000080000c94 <i_736>:
    80000c94:	02700a93          	li	s5,39

0000000080000c98 <i_737>:
    80000c98:	015a9fb3          	sll	t6,s5,s5

0000000080000c9c <i_738>:
    80000c9c:	00000013          	nop

0000000080000ca0 <i_739>:
    80000ca0:	f3412383          	lw	t2,-204(sp)

0000000080000ca4 <i_740>:
    80000ca4:	00000013          	nop

0000000080000ca8 <i_741>:
    80000ca8:	82100293          	li	t0,-2015

0000000080000cac <i_742>:
    80000cac:	82900693          	li	a3,-2007

0000000080000cb0 <i_743>:
    80000cb0:	55988b37          	lui	s6,0x55988

0000000080000cb4 <i_744>:
    80000cb4:	01a3cfb3          	xor	t6,t2,s10

0000000080000cb8 <i_745>:
    80000cb8:	00128293          	addi	t0,t0,1 # 3001 <main-0x7fffcfff>
    80000cbc:	fed29ae3          	bne	t0,a3,80000cb0 <i_743>

0000000080000cc0 <i_746>:
    80000cc0:	91757d37          	lui	s10,0x91757

0000000080000cc4 <i_747>:
    80000cc4:	00757533          	and	a0,a0,t2

0000000080000cc8 <i_748>:
    80000cc8:	01ff9e63          	bne	t6,t6,80000ce4 <i_755>

0000000080000ccc <i_749>:
    80000ccc:	73972813          	slti	a6,a4,1849

0000000080000cd0 <i_750>:
    80000cd0:	0048151b          	slliw	a0,a6,0x4

0000000080000cd4 <i_751>:
    80000cd4:	4e653513          	sltiu	a0,a0,1254

0000000080000cd8 <i_752>:
    80000cd8:	02700f93          	li	t6,39

0000000080000cdc <i_753>:
    80000cdc:	01fb1533          	sll	a0,s6,t6

0000000080000ce0 <i_754>:
    80000ce0:	037f9533          	mulh	a0,t6,s7

0000000080000ce4 <i_755>:
    80000ce4:	03f51063          	bne	a0,t6,80000d04 <i_763>

0000000080000ce8 <i_756>:
    80000ce8:	02afdfbb          	divuw	t6,t6,a0

0000000080000cec <i_757>:
    80000cec:	1ca15383          	lhu	t2,458(sp)

0000000080000cf0 <i_758>:
    80000cf0:	ff813383          	ld	t2,-8(sp)

0000000080000cf4 <i_759>:
    80000cf4:	00a50c63          	beq	a0,a0,80000d0c <i_765>

0000000080000cf8 <i_760>:
    80000cf8:	e4011503          	lh	a0,-448(sp)

0000000080000cfc <i_761>:
    80000cfc:	09c16a83          	lwu	s5,156(sp)

0000000080000d00 <i_762>:
    80000d00:	0e710303          	lb	t1,231(sp)

0000000080000d04 <i_763>:
    80000d04:	0d214183          	lbu	gp,210(sp)

0000000080000d08 <i_764>:
    80000d08:	0a813383          	ld	t2,168(sp)

0000000080000d0c <i_765>:
    80000d0c:	0b416383          	lwu	t2,180(sp)

0000000080000d10 <i_766>:
    80000d10:	05011503          	lh	a0,80(sp)

0000000080000d14 <i_767>:
    80000d14:	00000013          	nop

0000000080000d18 <i_768>:
    80000d18:	87c00193          	li	gp,-1924

0000000080000d1c <i_769>:
    80000d1c:	88600393          	li	t2,-1914

0000000080000d20 <i_770>:
    80000d20:	02650533          	mul	a0,a0,t1

0000000080000d24 <i_771>:
    80000d24:	02d565b3          	rem	a1,a0,a3

0000000080000d28 <i_772>:
    80000d28:	144f3f13          	sltiu	t5,t5,324

0000000080000d2c <i_773>:
    80000d2c:	00a50eb3          	add	t4,a0,a0

0000000080000d30 <i_774>:
    80000d30:	e8814f03          	lbu	t5,-376(sp)

0000000080000d34 <i_775>:
    80000d34:	fda10403          	lb	s0,-38(sp)

0000000080000d38 <i_776>:
    80000d38:	402f5e93          	srai	t4,t5,0x2

0000000080000d3c <i_777>:
    80000d3c:	f0813f03          	ld	t5,-248(sp)

0000000080000d40 <i_778>:
    80000d40:	01ee9e63          	bne	t4,t5,80000d5c <i_784>

0000000080000d44 <i_779>:
    80000d44:	00118193          	addi	gp,gp,1 # 10001 <main-0x7ffeffff>
    80000d48:	fc71cce3          	blt	gp,t2,80000d20 <i_770>

0000000080000d4c <i_780>:
    80000d4c:	010f2833          	slt	a6,t5,a6

0000000080000d50 <i_781>:
    80000d50:	03eec43b          	divw	s0,t4,t5

0000000080000d54 <i_782>:
    80000d54:	e4114403          	lbu	s0,-447(sp)

0000000080000d58 <i_783>:
    80000d58:	00810f23          	sb	s0,30(sp)

0000000080000d5c <i_784>:
    80000d5c:	00000013          	nop

0000000080000d60 <i_785>:
    80000d60:	1e015203          	lhu	tp,480(sp)

0000000080000d64 <i_786>:
    80000d64:	75900493          	li	s1,1881

0000000080000d68 <i_787>:
    80000d68:	76400f13          	li	t5,1892

0000000080000d6c <i_788>:
    80000d6c:	00821e63          	bne	tp,s0,80000d88 <i_794>

0000000080000d70 <i_789>:
    80000d70:	f4410723          	sb	tp,-178(sp)

0000000080000d74 <i_790>:
    80000d74:	00148493          	addi	s1,s1,1
    80000d78:	ffe49ae3          	bne	s1,t5,80000d6c <i_788>

0000000080000d7c <i_791>:
    80000d7c:	01e00e93          	li	t4,30

0000000080000d80 <i_792>:
    80000d80:	41d5dd3b          	sraw	s10,a1,t4

0000000080000d84 <i_793>:
    80000d84:	02d44063          	blt	s0,a3,80000da4 <i_801>

0000000080000d88 <i_794>:
    80000d88:	e9211403          	lh	s0,-366(sp)

0000000080000d8c <i_795>:
    80000d8c:	f7e11823          	sh	t5,-144(sp)

0000000080000d90 <i_796>:
    80000d90:	f2911823          	sh	s1,-208(sp)

0000000080000d94 <i_797>:
    80000d94:	02013483          	ld	s1,32(sp)

0000000080000d98 <i_798>:
    80000d98:	e8412403          	lw	s0,-380(sp)

0000000080000d9c <i_799>:
    80000d9c:	eca10403          	lb	s0,-310(sp)

0000000080000da0 <i_800>:
    80000da0:	028744bb          	divw	s1,a4,s0

0000000080000da4 <i_801>:
    80000da4:	00345413          	srli	s0,s0,0x3

0000000080000da8 <i_802>:
    80000da8:	009eb4b3          	sltu	s1,t4,s1

0000000080000dac <i_803>:
    80000dac:	e8913823          	sd	s1,-368(sp)

0000000080000db0 <i_804>:
    80000db0:	00908433          	add	s0,ra,s1

0000000080000db4 <i_805>:
    80000db4:	8a53b413          	sltiu	s0,t2,-1883

0000000080000db8 <i_806>:
    80000db8:	03d13023          	sd	t4,32(sp)

0000000080000dbc <i_807>:
    80000dbc:	f8811723          	sh	s0,-114(sp)

0000000080000dc0 <i_808>:
    80000dc0:	02946463          	bltu	s0,s1,80000de8 <i_818>

0000000080000dc4 <i_809>:
    80000dc4:	2293e1b7          	lui	gp,0x2293e

0000000080000dc8 <i_810>:
    80000dc8:	fc31b413          	sltiu	s0,gp,-61

0000000080000dcc <i_811>:
    80000dcc:	f9c15403          	lhu	s0,-100(sp)

0000000080000dd0 <i_812>:
    80000dd0:	0031dc63          	ble	gp,gp,80000de8 <i_818>

0000000080000dd4 <i_813>:
    80000dd4:	00840433          	add	s0,s0,s0

0000000080000dd8 <i_814>:
    80000dd8:	00846a63          	bltu	s0,s0,80000dec <i_819>

0000000080000ddc <i_815>:
    80000ddc:	06013303          	ld	t1,96(sp)

0000000080000de0 <i_816>:
    80000de0:	03816403          	lwu	s0,56(sp)

0000000080000de4 <i_817>:
    80000de4:	12812623          	sw	s0,300(sp)

0000000080000de8 <i_818>:
    80000de8:	13514303          	lbu	t1,309(sp)

0000000080000dec <i_819>:
    80000dec:	02d00e13          	li	t3,45

0000000080000df0 <i_820>:
    80000df0:	41c45333          	sra	t1,s0,t3

0000000080000df4 <i_821>:
    80000df4:	e6810a23          	sb	s0,-396(sp)

0000000080000df8 <i_822>:
    80000df8:	13c12e23          	sw	t3,316(sp)

0000000080000dfc <i_823>:
    80000dfc:	00846863          	bltu	s0,s0,80000e0c <i_827>

0000000080000e00 <i_824>:
    80000e00:	0170fa63          	bleu	s7,ra,80000e14 <i_829>

0000000080000e04 <i_825>:
    80000e04:	1b015583          	lhu	a1,432(sp)

0000000080000e08 <i_826>:
    80000e08:	0c612023          	sw	t1,192(sp)

0000000080000e0c <i_827>:
    80000e0c:	00841263          	bne	s0,s0,80000e10 <i_828>

0000000080000e10 <i_828>:
    80000e10:	ea012b83          	lw	s7,-352(sp)

0000000080000e14 <i_829>:
    80000e14:	2cf08693          	addi	a3,ra,719

0000000080000e18 <i_830>:
    80000e18:	584e0f9b          	addiw	t6,t3,1412

0000000080000e1c <i_831>:
    80000e1c:	028e1263          	bne	t3,s0,80000e40 <i_840>

0000000080000e20 <i_832>:
    80000e20:	ea812023          	sw	s0,-352(sp)

0000000080000e24 <i_833>:
    80000e24:	e4310e03          	lb	t3,-445(sp)

0000000080000e28 <i_834>:
    80000e28:	0c813e03          	ld	t3,200(sp)

0000000080000e2c <i_835>:
    80000e2c:	ed712223          	sw	s7,-316(sp)

0000000080000e30 <i_836>:
    80000e30:	ee014403          	lbu	s0,-288(sp)

0000000080000e34 <i_837>:
    80000e34:	00000013          	nop

0000000080000e38 <i_838>:
    80000e38:	00000013          	nop

0000000080000e3c <i_839>:
    80000e3c:	03444433          	div	s0,s0,s4

0000000080000e40 <i_840>:
    80000e40:	16814183          	lbu	gp,360(sp)

0000000080000e44 <i_841>:
    80000e44:	f2812a23          	sw	s0,-204(sp)

0000000080000e48 <i_842>:
    80000e48:	80b00e13          	li	t3,-2037

0000000080000e4c <i_843>:
    80000e4c:	81600393          	li	t2,-2026

0000000080000e50 <i_844>:
    80000e50:	40718ab3          	sub	s5,gp,t2

0000000080000e54 <i_845>:
    80000e54:	01ba1263          	bne	s4,s11,80000e58 <i_846>

0000000080000e58 <i_846>:
    80000e58:	1d513c23          	sd	s5,472(sp)

0000000080000e5c <i_847>:
    80000e5c:	f0a15a83          	lhu	s5,-246(sp)

0000000080000e60 <i_848>:
    80000e60:	15513823          	sd	s5,336(sp)

0000000080000e64 <i_849>:
    80000e64:	028787bb          	mulw	a5,a5,s0

0000000080000e68 <i_850>:
    80000e68:	e4b10083          	lb	ra,-437(sp)

0000000080000e6c <i_851>:
    80000e6c:	001e0e13          	addi	t3,t3,1
    80000e70:	fe7e60e3          	bltu	t3,t2,80000e50 <i_844>

0000000080000e74 <i_852>:
    80000e74:	02766e3b          	remw	t3,a2,t2

0000000080000e78 <i_853>:
    80000e78:	13c13423          	sd	t3,296(sp)

0000000080000e7c <i_854>:
    80000e7c:	ec813e03          	ld	t3,-312(sp)

0000000080000e80 <i_855>:
    80000e80:	0d015303          	lhu	t1,208(sp)

0000000080000e84 <i_856>:
    80000e84:	11c11e23          	sh	t3,284(sp)

0000000080000e88 <i_857>:
    80000e88:	01c3ed33          	or	s10,t2,t3

0000000080000e8c <i_858>:
    80000e8c:	e2a1a913          	slti	s2,gp,-470

0000000080000e90 <i_859>:
    80000e90:	00013e03          	ld	t3,0(sp)

0000000080000e94 <i_860>:
    80000e94:	03100a93          	li	s5,49

0000000080000e98 <i_861>:
    80000e98:	4150d933          	sra	s2,ra,s5

0000000080000e9c <i_862>:
    80000e9c:	012a9663          	bne	s5,s2,80000ea8 <i_865>

0000000080000ea0 <i_863>:
    80000ea0:	ca580d9b          	addiw	s11,a6,-859

0000000080000ea4 <i_864>:
    80000ea4:	010e0833          	add	a6,t3,a6

0000000080000ea8 <i_865>:
    80000ea8:	00325f13          	srli	t5,tp,0x3

0000000080000eac <i_866>:
    80000eac:	0a41b193          	sltiu	gp,gp,164

0000000080000eb0 <i_867>:
    80000eb0:	01b19263          	bne	gp,s11,80000eb4 <i_868>

0000000080000eb4 <i_868>:
    80000eb4:	02defebb          	remuw	t4,t4,a3

0000000080000eb8 <i_869>:
    80000eb8:	ab187e93          	andi	t4,a6,-1359

0000000080000ebc <i_870>:
    80000ebc:	0a311323          	sh	gp,166(sp)

0000000080000ec0 <i_871>:
    80000ec0:	13012803          	lw	a6,304(sp)

0000000080000ec4 <i_872>:
    80000ec4:	12114203          	lbu	tp,289(sp)

0000000080000ec8 <i_873>:
    80000ec8:	e6a11803          	lh	a6,-406(sp)

0000000080000ecc <i_874>:
    80000ecc:	fd0108a3          	sb	a6,-47(sp)

0000000080000ed0 <i_875>:
    80000ed0:	e4411823          	sh	tp,-432(sp)

0000000080000ed4 <i_876>:
    80000ed4:	fc211f23          	sh	sp,-34(sp)

0000000080000ed8 <i_877>:
    80000ed8:	02ce5bb3          	divu	s7,t3,a2

0000000080000edc <i_878>:
    80000edc:	00000013          	nop

0000000080000ee0 <i_879>:
    80000ee0:	7cd00813          	li	a6,1997

0000000080000ee4 <i_880>:
    80000ee4:	7da00213          	li	tp,2010

0000000080000ee8 <i_881>:
    80000ee8:	03b00b93          	li	s7,59

0000000080000eec <i_882>:
    80000eec:	017bda33          	srl	s4,s7,s7

0000000080000ef0 <i_883>:
    80000ef0:	40480a33          	sub	s4,a6,tp

0000000080000ef4 <i_884>:
    80000ef4:	ed015783          	lhu	a5,-304(sp)

0000000080000ef8 <i_885>:
    80000ef8:	02813d83          	ld	s11,40(sp)

0000000080000efc <i_886>:
    80000efc:	e8714783          	lbu	a5,-377(sp)

0000000080000f00 <i_887>:
    80000f00:	17412783          	lw	a5,372(sp)

0000000080000f04 <i_888>:
    80000f04:	00f78a63          	beq	a5,a5,80000f18 <i_893>

0000000080000f08 <i_889>:
    80000f08:	00000013          	nop

0000000080000f0c <i_890>:
    80000f0c:	f8f11d23          	sh	a5,-102(sp)

0000000080000f10 <i_891>:
    80000f10:	40fd8ab3          	sub	s5,s11,a5

0000000080000f14 <i_892>:
    80000f14:	1cf10e23          	sb	a5,476(sp)

0000000080000f18 <i_893>:
    80000f18:	f5513c23          	sd	s5,-168(sp)

0000000080000f1c <i_894>:
    80000f1c:	41570dbb          	subw	s11,a4,s5

0000000080000f20 <i_895>:
    80000f20:	02fc1f33          	mulh	t5,s8,a5

0000000080000f24 <i_896>:
    80000f24:	577bd7b7          	lui	a5,0x577bd

0000000080000f28 <i_897>:
    80000f28:	00180813          	addi	a6,a6,1
    80000f2c:	fb027ee3          	bleu	a6,tp,80000ee8 <i_881>

0000000080000f30 <i_898>:
    80000f30:	00f54663          	blt	a0,a5,80000f3c <i_901>

0000000080000f34 <i_899>:
    80000f34:	035f7f3b          	remuw	t5,t5,s5

0000000080000f38 <i_900>:
    80000f38:	0d812083          	lw	ra,216(sp)

0000000080000f3c <i_901>:
    80000f3c:	035ad263          	ble	s5,s5,80000f60 <i_910>

0000000080000f40 <i_902>:
    80000f40:	ea615783          	lhu	a5,-346(sp)

0000000080000f44 <i_903>:
    80000f44:	4017dd13          	srai	s10,a5,0x1

0000000080000f48 <i_904>:
    80000f48:	41af0d3b          	subw	s10,t5,s10

0000000080000f4c <i_905>:
    80000f4c:	e9816203          	lwu	tp,-360(sp)

0000000080000f50 <i_906>:
    80000f50:	01adc663          	blt	s11,s10,80000f5c <i_909>

0000000080000f54 <i_907>:
    80000f54:	007d77b3          	and	a5,s10,t2

0000000080000f58 <i_908>:
    80000f58:	4047dd1b          	sraiw	s10,a5,0x4

0000000080000f5c <i_909>:
    80000f5c:	00ff8633          	add	a2,t6,a5

0000000080000f60 <i_910>:
    80000f60:	033989bb          	mulw	s3,s3,s3

0000000080000f64 <i_911>:
    80000f64:	18c13823          	sd	a2,400(sp)

0000000080000f68 <i_912>:
    80000f68:	03a10a23          	sb	s10,52(sp)

0000000080000f6c <i_913>:
    80000f6c:	04c15983          	lhu	s3,76(sp)

0000000080000f70 <i_914>:
    80000f70:	03dd2d33          	mulhsu	s10,s10,t4

0000000080000f74 <i_915>:
    80000f74:	f9c13c23          	sd	t3,-104(sp)

0000000080000f78 <i_916>:
    80000f78:	fa013d03          	ld	s10,-96(sp)

0000000080000f7c <i_917>:
    80000f7c:	001e1c93          	slli	s9,t3,0x1

0000000080000f80 <i_918>:
    80000f80:	15310aa3          	sb	s3,341(sp)

0000000080000f84 <i_919>:
    80000f84:	003c9e1b          	slliw	t3,s9,0x3

0000000080000f88 <i_920>:
    80000f88:	05c11a23          	sh	t3,84(sp)

0000000080000f8c <i_921>:
    80000f8c:	f3c10123          	sb	t3,-222(sp)

0000000080000f90 <i_922>:
    80000f90:	0ac16e03          	lwu	t3,172(sp)

0000000080000f94 <i_923>:
    80000f94:	001cd213          	srli	tp,s9,0x1

0000000080000f98 <i_924>:
    80000f98:	ff913423          	sd	s9,-24(sp)

0000000080000f9c <i_925>:
    80000f9c:	0335863b          	mulw	a2,a1,s3

0000000080000fa0 <i_926>:
    80000fa0:	09410c83          	lb	s9,148(sp)

0000000080000fa4 <i_927>:
    80000fa4:	03924463          	blt	tp,s9,80000fcc <i_937>

0000000080000fa8 <i_928>:
    80000fa8:	02426263          	bltu	tp,tp,80000fcc <i_937>

0000000080000fac <i_929>:
    80000fac:	016e1c63          	bne	t3,s6,80000fc4 <i_935>

0000000080000fb0 <i_930>:
    80000fb0:	f2f10e03          	lb	t3,-209(sp)

0000000080000fb4 <i_931>:
    80000fb4:	01ccfc63          	bleu	t3,s9,80000fcc <i_937>

0000000080000fb8 <i_932>:
    80000fb8:	03f00e13          	li	t3,63

0000000080000fbc <i_933>:
    80000fbc:	41ccdb33          	sra	s6,s9,t3

0000000080000fc0 <i_934>:
    80000fc0:	06813b03          	ld	s6,104(sp)

0000000080000fc4 <i_935>:
    80000fc4:	019cee33          	or	t3,s9,s9

0000000080000fc8 <i_936>:
    80000fc8:	f5c10a23          	sb	t3,-172(sp)

0000000080000fcc <i_937>:
    80000fcc:	01ccefb3          	or	t6,s9,t3

0000000080000fd0 <i_938>:
    80000fd0:	1df10aa3          	sb	t6,469(sp)

0000000080000fd4 <i_939>:
    80000fd4:	0116ffb3          	and	t6,a3,a7

0000000080000fd8 <i_940>:
    80000fd8:	01ce5263          	ble	t3,t3,80000fdc <i_941>

0000000080000fdc <i_941>:
    80000fdc:	fa114b03          	lbu	s6,-95(sp)

0000000080000fe0 <i_942>:
    80000fe0:	001b5e1b          	srliw	t3,s6,0x1

0000000080000fe4 <i_943>:
    80000fe4:	1a416e03          	lwu	t3,420(sp)

0000000080000fe8 <i_944>:
    80000fe8:	89800813          	li	a6,-1896

0000000080000fec <i_945>:
    80000fec:	8a600c93          	li	s9,-1882

0000000080000ff0 <i_946>:
    80000ff0:	039cfabb          	remuw	s5,s9,s9

0000000080000ff4 <i_947>:
    80000ff4:	fee15083          	lhu	ra,-18(sp)

0000000080000ff8 <i_948>:
    80000ff8:	00180813          	addi	a6,a6,1
    80000ffc:	ff0cfae3          	bleu	a6,s9,80000ff0 <i_946>

0000000080001000 <i_949>:
    80001000:	01987c63          	bleu	s9,a6,80001018 <i_955>

0000000080001004 <i_950>:
    80001004:	1b813503          	ld	a0,440(sp)

0000000080001008 <i_951>:
    80001008:	03508533          	mul	a0,ra,s5

000000008000100c <i_952>:
    8000100c:	02a0d0bb          	divuw	ra,ra,a0

0000000080001010 <i_953>:
    80001010:	035aca3b          	divw	s4,s5,s5

0000000080001014 <i_954>:
    80001014:	0240d463          	ble	tp,ra,8000103c <i_964>

0000000080001018 <i_955>:
    80001018:	02844a3b          	divw	s4,s0,s0

000000008000101c <i_956>:
    8000101c:	034c8a33          	mul	s4,s9,s4

0000000080001020 <i_957>:
    80001020:	fa014503          	lbu	a0,-96(sp)

0000000080001024 <i_958>:
    80001024:	034ceabb          	remw	s5,s9,s4

0000000080001028 <i_959>:
    80001028:	1e410603          	lb	a2,484(sp)

000000008000102c <i_960>:
    8000102c:	f9415283          	lhu	t0,-108(sp)

0000000080001030 <i_961>:
    80001030:	f4710603          	lb	a2,-185(sp)

0000000080001034 <i_962>:
    80001034:	21e35637          	lui	a2,0x21e35

0000000080001038 <i_963>:
    80001038:	00000013          	nop

000000008000103c <i_964>:
    8000103c:	00c2acb3          	slt	s9,t0,a2

0000000080001040 <i_965>:
    80001040:	02412603          	lw	a2,36(sp)

0000000080001044 <i_966>:
    80001044:	78300413          	li	s0,1923

0000000080001048 <i_967>:
    80001048:	78c00093          	li	ra,1932

000000008000104c <i_968>:
    8000104c:	00cccc63          	blt	s9,a2,80001064 <i_973>

0000000080001050 <i_969>:
    80001050:	cba63793          	sltiu	a5,a2,-838

0000000080001054 <i_970>:
    80001054:	00140413          	addi	s0,s0,1
    80001058:	fe141ae3          	bne	s0,ra,8000104c <i_968>

000000008000105c <i_971>:
    8000105c:	f3012e03          	lw	t3,-208(sp)

0000000080001060 <i_972>:
    80001060:	01a7c263          	blt	a5,s10,80001064 <i_973>

0000000080001064 <i_973>:
    80001064:	00441993          	slli	s3,s0,0x4

0000000080001068 <i_974>:
    80001068:	01812c83          	lw	s9,24(sp)

000000008000106c <i_975>:
    8000106c:	00a00c13          	li	s8,10

0000000080001070 <i_976>:
    80001070:	0182dcbb          	srlw	s9,t0,s8

0000000080001074 <i_977>:
    80001074:	019675b3          	and	a1,a2,s9

0000000080001078 <i_978>:
    80001078:	e2013c83          	ld	s9,-480(sp)

000000008000107c <i_979>:
    8000107c:	12611403          	lh	s0,294(sp)

0000000080001080 <i_980>:
    80001080:	0252ccb3          	div	s9,t0,t0

0000000080001084 <i_981>:
    80001084:	02ccc53b          	divw	a0,s9,a2

0000000080001088 <i_982>:
    80001088:	1a010583          	lb	a1,416(sp)

000000008000108c <i_983>:
    8000108c:	0e615d03          	lhu	s10,230(sp)

0000000080001090 <i_984>:
    80001090:	e3813803          	ld	a6,-456(sp)

0000000080001094 <i_985>:
    80001094:	02e18463          	beq	gp,a4,800010bc <i_995>

0000000080001098 <i_986>:
    80001098:	e3c12403          	lw	s0,-452(sp)

000000008000109c <i_987>:
    8000109c:	0cc13823          	sd	a2,208(sp)

00000000800010a0 <i_988>:
    800010a0:	f84102a3          	sb	tp,-123(sp)

00000000800010a4 <i_989>:
    800010a4:	00000013          	nop

00000000800010a8 <i_990>:
    800010a8:	02c1fdb3          	remu	s11,gp,a2

00000000800010ac <i_991>:
    800010ac:	00200e13          	li	t3,2

00000000800010b0 <i_992>:
    800010b0:	01c2db3b          	srlw	s6,t0,t3

00000000800010b4 <i_993>:
    800010b4:	3c51bd13          	sltiu	s10,gp,965

00000000800010b8 <i_994>:
    800010b8:	41c882b3          	sub	t0,a7,t3

00000000800010bc <i_995>:
    800010bc:	0f416d03          	lwu	s10,244(sp)

00000000800010c0 <i_996>:
    800010c0:	0b811903          	lh	s2,184(sp)

00000000800010c4 <i_997>:
    800010c4:	7b000613          	li	a2,1968

00000000800010c8 <i_998>:
    800010c8:	7c200193          	li	gp,1986

00000000800010cc <i_999>:
    800010cc:	012d6c63          	bltu	s10,s2,800010e4 <i_1005>

00000000800010d0 <i_1000>:
    800010d0:	00000013          	nop

00000000800010d4 <i_1001>:
    800010d4:	f5c16383          	lwu	t2,-164(sp)

00000000800010d8 <i_1002>:
    800010d8:	fec15683          	lhu	a3,-20(sp)

00000000800010dc <i_1003>:
    800010dc:	02339263          	bne	t2,gp,80001100 <i_1011>

00000000800010e0 <i_1004>:
    800010e0:	03c6e663          	bltu	a3,t3,8000110c <i_1014>

00000000800010e4 <i_1005>:
    800010e4:	fb213423          	sd	s2,-88(sp)

00000000800010e8 <i_1006>:
    800010e8:	f9d14e03          	lbu	t3,-99(sp)

00000000800010ec <i_1007>:
    800010ec:	00160613          	addi	a2,a2,1 # 21e35001 <main-0x5e1cafff>
    800010f0:	fc366ee3          	bltu	a2,gp,800010cc <i_999>

00000000800010f4 <i_1008>:
    800010f4:	17c12423          	sw	t3,360(sp)

00000000800010f8 <i_1009>:
    800010f8:	00c00e93          	li	t4,12

00000000800010fc <i_1010>:
    800010fc:	41d8583b          	sraw	a6,a6,t4

0000000080001100 <i_1011>:
    80001100:	00491c13          	slli	s8,s2,0x4

0000000080001104 <i_1012>:
    80001104:	0083da63          	ble	s0,t2,80001118 <i_1017>

0000000080001108 <i_1013>:
    80001108:	01b00e13          	li	t3,27

000000008000110c <i_1014>:
    8000110c:	01c694b3          	sll	s1,a3,t3

0000000080001110 <i_1015>:
    80001110:	7984fe13          	andi	t3,s1,1944

0000000080001114 <i_1016>:
    80001114:	00000013          	nop

0000000080001118 <i_1017>:
    80001118:	00000013          	nop

000000008000111c <i_1018>:
    8000111c:	ee911623          	sh	s1,-276(sp)

0000000080001120 <i_1019>:
    80001120:	7aa00493          	li	s1,1962

0000000080001124 <i_1020>:
    80001124:	7b100c13          	li	s8,1969

0000000080001128 <i_1021>:
    80001128:	f1e14e03          	lbu	t3,-226(sp)

000000008000112c <i_1022>:
    8000112c:	e1c12903          	lw	s2,-484(sp)

0000000080001130 <i_1023>:
    80001130:	fcc12e03          	lw	t3,-52(sp)

0000000080001134 <i_1024>:
    80001134:	00148493          	addi	s1,s1,1
    80001138:	ff84e8e3          	bltu	s1,s8,80001128 <i_1021>

000000008000113c <i_1025>:
    8000113c:	f3714e03          	lbu	t3,-201(sp)

0000000080001140 <i_1026>:
    80001140:	01ce6e33          	or	t3,t3,t3

0000000080001144 <i_1027>:
    80001144:	f9211e03          	lh	t3,-110(sp)

0000000080001148 <i_1028>:
    80001148:	0fc12c23          	sw	t3,248(sp)

000000008000114c <i_1029>:
    8000114c:	00000013          	nop

0000000080001150 <i_1030>:
    80001150:	83c00e13          	li	t3,-1988

0000000080001154 <i_1031>:
    80001154:	84000613          	li	a2,-1984

0000000080001158 <i_1032>:
    80001158:	00000013          	nop

000000008000115c <i_1033>:
    8000115c:	e9211123          	sh	s2,-382(sp)

0000000080001160 <i_1034>:
    80001160:	00000013          	nop

0000000080001164 <i_1035>:
    80001164:	244e7213          	andi	tp,t3,580

0000000080001168 <i_1036>:
    80001168:	f8811803          	lh	a6,-120(sp)

000000008000116c <i_1037>:
    8000116c:	c8c7cc93          	xori	s9,a5,-884

0000000080001170 <i_1038>:
    80001170:	ea013d03          	ld	s10,-352(sp)

0000000080001174 <i_1039>:
    80001174:	001e0e13          	addi	t3,t3,1
    80001178:	fece10e3          	bne	t3,a2,80001158 <i_1032>

000000008000117c <i_1040>:
    8000117c:	03f14803          	lbu	a6,63(sp)

0000000080001180 <i_1041>:
    80001180:	01b00d13          	li	s10,27

0000000080001184 <i_1042>:
    80001184:	01ac5e3b          	srlw	t3,s8,s10

0000000080001188 <i_1043>:
    80001188:	015c9a63          	bne	s9,s5,8000119c <i_1048>

000000008000118c <i_1044>:
    8000118c:	1ba10523          	sb	s10,426(sp)

0000000080001190 <i_1045>:
    80001190:	01eccd33          	xor	s10,s9,t5

0000000080001194 <i_1046>:
    80001194:	f6610083          	lb	ra,-154(sp)

0000000080001198 <i_1047>:
    80001198:	004d1e1b          	slliw	t3,s10,0x4

000000008000119c <i_1048>:
    8000119c:	e3d14d03          	lbu	s10,-451(sp)

00000000800011a0 <i_1049>:
    800011a0:	03cd65b3          	rem	a1,s10,t3

00000000800011a4 <i_1050>:
    800011a4:	03a0f0bb          	remuw	ra,ra,s10

00000000800011a8 <i_1051>:
    800011a8:	4010d413          	srai	s0,ra,0x1

00000000800011ac <i_1052>:
    800011ac:	408700bb          	subw	ra,a4,s0

00000000800011b0 <i_1053>:
    800011b0:	00e00093          	li	ra,14

00000000800011b4 <i_1054>:
    800011b4:	0010d833          	srl	a6,ra,ra

00000000800011b8 <i_1055>:
    800011b8:	1d010c23          	sb	a6,472(sp)

00000000800011bc <i_1056>:
    800011bc:	f4416803          	lwu	a6,-188(sp)

00000000800011c0 <i_1057>:
    800011c0:	00485513          	srli	a0,a6,0x4

00000000800011c4 <i_1058>:
    800011c4:	f9010aa3          	sb	a6,-107(sp)

00000000800011c8 <i_1059>:
    800011c8:	0010d263          	ble	ra,ra,800011cc <i_1060>

00000000800011cc <i_1060>:
    800011cc:	e7415183          	lhu	gp,-396(sp)

00000000800011d0 <i_1061>:
    800011d0:	01086463          	bltu	a6,a6,800011d8 <i_1063>

00000000800011d4 <i_1062>:
    800011d4:	ed612823          	sw	s6,-304(sp)

00000000800011d8 <i_1063>:
    800011d8:	02fdd1bb          	divuw	gp,s11,a5

00000000800011dc <i_1064>:
    800011dc:	f0215503          	lhu	a0,-254(sp)

00000000800011e0 <i_1065>:
    800011e0:	00381463          	bne	a6,gp,800011e8 <i_1067>

00000000800011e4 <i_1066>:
    800011e4:	01000693          	li	a3,16

00000000800011e8 <i_1067>:
    800011e8:	40d0ddbb          	sraw	s11,ra,a3

00000000800011ec <i_1068>:
    800011ec:	f7412603          	lw	a2,-140(sp)

00000000800011f0 <i_1069>:
    800011f0:	1bf10303          	lb	t1,447(sp)

00000000800011f4 <i_1070>:
    800011f4:	08a10683          	lb	a3,138(sp)

00000000800011f8 <i_1071>:
    800011f8:	14416503          	lwu	a0,324(sp)

00000000800011fc <i_1072>:
    800011fc:	19013083          	ld	ra,400(sp)

0000000080001200 <i_1073>:
    80001200:	00000013          	nop

0000000080001204 <i_1074>:
    80001204:	79200613          	li	a2,1938

0000000080001208 <i_1075>:
    80001208:	79a00513          	li	a0,1946

000000008000120c <i_1076>:
    8000120c:	01352b33          	slt	s6,a0,s3

0000000080001210 <i_1077>:
    80001210:	06812d03          	lw	s10,104(sp)

0000000080001214 <i_1078>:
    80001214:	00160613          	addi	a2,a2,1
    80001218:	fea64ae3          	blt	a2,a0,8000120c <i_1076>

000000008000121c <i_1079>:
    8000121c:	02660263          	beq	a2,t1,80001240 <i_1088>

0000000080001220 <i_1080>:
    80001220:	1d813483          	ld	s1,472(sp)

0000000080001224 <i_1081>:
    80001224:	0f411b83          	lh	s7,244(sp)

0000000080001228 <i_1082>:
    80001228:	03a49263          	bne	s1,s10,8000124c <i_1091>

000000008000122c <i_1083>:
    8000122c:	01900d13          	li	s10,25

0000000080001230 <i_1084>:
    80001230:	41a4dbb3          	sra	s7,s1,s10

0000000080001234 <i_1085>:
    80001234:	037d5933          	divu	s2,s10,s7

0000000080001238 <i_1086>:
    80001238:	01797c63          	bleu	s7,s2,80001250 <i_1092>

000000008000123c <i_1087>:
    8000123c:	018bc463          	blt	s7,s8,80001244 <i_1089>

0000000080001240 <i_1088>:
    80001240:	ea912a23          	sw	s1,-332(sp)

0000000080001244 <i_1089>:
    80001244:	b141b993          	sltiu	s3,gp,-1260

0000000080001248 <i_1090>:
    80001248:	08816583          	lwu	a1,136(sp)

000000008000124c <i_1091>:
    8000124c:	002b9b9b          	slliw	s7,s7,0x2

0000000080001250 <i_1092>:
    80001250:	033d4463          	blt	s10,s3,80001278 <i_1102>

0000000080001254 <i_1093>:
    80001254:	03713423          	sd	s7,40(sp)

0000000080001258 <i_1094>:
    80001258:	02013d03          	ld	s10,32(sp)

000000008000125c <i_1095>:
    8000125c:	0359f6bb          	remuw	a3,s3,s5

0000000080001260 <i_1096>:
    80001260:	004d1793          	slli	a5,s10,0x4

0000000080001264 <i_1097>:
    80001264:	02fd7263          	bleu	a5,s10,80001288 <i_1106>

0000000080001268 <i_1098>:
    80001268:	02befd3b          	remuw	s10,t4,a1

000000008000126c <i_1099>:
    8000126c:	f8b10ea3          	sb	a1,-99(sp)

0000000080001270 <i_1100>:
    80001270:	00bd0a33          	add	s4,s10,a1

0000000080001274 <i_1101>:
    80001274:	004d5993          	srli	s3,s10,0x4

0000000080001278 <i_1102>:
    80001278:	ed816c03          	lwu	s8,-296(sp)

000000008000127c <i_1103>:
    8000127c:	03a9f463          	bleu	s10,s3,800012a4 <i_1113>

0000000080001280 <i_1104>:
    80001280:	05a11723          	sh	s10,78(sp)

0000000080001284 <i_1105>:
    80001284:	0bc11403          	lh	s0,188(sp)

0000000080001288 <i_1106>:
    80001288:	ebe15983          	lhu	s3,-322(sp)

000000008000128c <i_1107>:
    8000128c:	02b5e5bb          	remw	a1,a1,a1

0000000080001290 <i_1108>:
    80001290:	f1013983          	ld	s3,-240(sp)

0000000080001294 <i_1109>:
    80001294:	efa10a03          	lb	s4,-262(sp)

0000000080001298 <i_1110>:
    80001298:	02859463          	bne	a1,s0,800012c0 <i_1120>

000000008000129c <i_1111>:
    8000129c:	014989b3          	add	s3,s3,s4

00000000800012a0 <i_1112>:
    800012a0:	ed413c23          	sd	s4,-296(sp)

00000000800012a4 <i_1113>:
    800012a4:	1ccc6b93          	ori	s7,s8,460

00000000800012a8 <i_1114>:
    800012a8:	0375f263          	bleu	s7,a1,800012cc <i_1123>

00000000800012ac <i_1115>:
    800012ac:	e6615583          	lhu	a1,-410(sp)

00000000800012b0 <i_1116>:
    800012b0:	11413023          	sd	s4,256(sp)

00000000800012b4 <i_1117>:
    800012b4:	00b5f663          	bleu	a1,a1,800012c0 <i_1120>

00000000800012b8 <i_1118>:
    800012b8:	e9611a83          	lh	s5,-362(sp)

00000000800012bc <i_1119>:
    800012bc:	e95101a3          	sb	s5,-381(sp)

00000000800012c0 <i_1120>:
    800012c0:	00000013          	nop

00000000800012c4 <i_1121>:
    800012c4:	00000013          	nop

00000000800012c8 <i_1122>:
    800012c8:	01822833          	slt	a6,tp,s8

00000000800012cc <i_1123>:
    800012cc:	00000013          	nop

00000000800012d0 <i_1124>:
    800012d0:	03100b93          	li	s7,49

00000000800012d4 <i_1125>:
    800012d4:	417adbb3          	sra	s7,s5,s7

00000000800012d8 <i_1126>:
    800012d8:	8b900213          	li	tp,-1863

00000000800012dc <i_1127>:
    800012dc:	8c700a93          	li	s5,-1849

00000000800012e0 <i_1128>:
    800012e0:	00120213          	addi	tp,tp,1 # 1 <main-0x7fffffff>
    800012e4:	ff524ce3          	blt	tp,s5,800012dc <i_1127>

00000000800012e8 <i_1129>:
    800012e8:	f1210e83          	lb	t4,-238(sp)

00000000800012ec <i_1130>:
    800012ec:	02700e93          	li	t4,39

00000000800012f0 <i_1131>:
    800012f0:	41dbd633          	sra	a2,s7,t4

00000000800012f4 <i_1132>:
    800012f4:	01200593          	li	a1,18

00000000800012f8 <i_1133>:
    800012f8:	00beda3b          	srlw	s4,t4,a1

00000000800012fc <i_1134>:
    800012fc:	7bf00413          	li	s0,1983

0000000080001300 <i_1135>:
    80001300:	7c700b93          	li	s7,1991

0000000080001304 <i_1136>:
    80001304:	014b8263          	beq	s7,s4,80001308 <i_1137>

0000000080001308 <i_1137>:
    80001308:	01da6eb3          	or	t4,s4,t4

000000008000130c <i_1138>:
    8000130c:	0145fa33          	and	s4,a1,s4

0000000080001310 <i_1139>:
    80001310:	16816e83          	lwu	t4,360(sp)

0000000080001314 <i_1140>:
    80001314:	00140413          	addi	s0,s0,1
    80001318:	fe8bd6e3          	ble	s0,s7,80001304 <i_1136>

000000008000131c <i_1141>:
    8000131c:	01500993          	li	s3,21

0000000080001320 <i_1142>:
    80001320:	413f5f33          	sra	t5,t5,s3

0000000080001324 <i_1143>:
    80001324:	e5f14383          	lbu	t2,-417(sp)

0000000080001328 <i_1144>:
    80001328:	00c00f93          	li	t6,12

000000008000132c <i_1145>:
    8000132c:	01f9d1bb          	srlw	gp,s3,t6

0000000080001330 <i_1146>:
    80001330:	04114783          	lbu	a5,65(sp)

0000000080001334 <i_1147>:
    80001334:	ed016983          	lwu	s3,-304(sp)

0000000080001338 <i_1148>:
    80001338:	09015b83          	lhu	s7,144(sp)

000000008000133c <i_1149>:
    8000133c:	1a210483          	lb	s1,418(sp)

0000000080001340 <i_1150>:
    80001340:	76f00993          	li	s3,1903

0000000080001344 <i_1151>:
    80001344:	77200193          	li	gp,1906

0000000080001348 <i_1152>:
    80001348:	018204b3          	add	s1,tp,s8

000000008000134c <i_1153>:
    8000134c:	00000013          	nop

0000000080001350 <i_1154>:
    80001350:	f2813b83          	ld	s7,-216(sp)

0000000080001354 <i_1155>:
    80001354:	f9713423          	sd	s7,-120(sp)

0000000080001358 <i_1156>:
    80001358:	2994ed13          	ori	s10,s1,665

000000008000135c <i_1157>:
    8000135c:	00900313          	li	t1,9

0000000080001360 <i_1158>:
    80001360:	0062123b          	sllw	tp,tp,t1

0000000080001364 <i_1159>:
    80001364:	00198993          	addi	s3,s3,1
    80001368:	fe39e0e3          	bltu	s3,gp,80001348 <i_1152>

000000008000136c <i_1160>:
    8000136c:	01a48663          	beq	s1,s10,80001378 <i_1163>

0000000080001370 <i_1161>:
    80001370:	0041c263          	blt	gp,tp,80001374 <i_1162>

0000000080001374 <i_1162>:
    80001374:	f8214783          	lbu	a5,-126(sp)

0000000080001378 <i_1163>:
    80001378:	10016e03          	lwu	t3,256(sp)

000000008000137c <i_1164>:
    8000137c:	01cd7a63          	bleu	t3,s10,80001390 <i_1169>

0000000080001380 <i_1165>:
    80001380:	00813303          	ld	t1,8(sp)

0000000080001384 <i_1166>:
    80001384:	f4613423          	sd	t1,-184(sp)

0000000080001388 <i_1167>:
    80001388:	12c16e03          	lwu	t3,300(sp)

000000008000138c <i_1168>:
    8000138c:	04211e23          	sh	sp,92(sp)

0000000080001390 <i_1169>:
    80001390:	03700493          	li	s1,55

0000000080001394 <i_1170>:
    80001394:	4094df33          	sra	t5,s1,s1

0000000080001398 <i_1171>:
    80001398:	7b500193          	li	gp,1973

000000008000139c <i_1172>:
    8000139c:	7bf00a93          	li	s5,1983

00000000800013a0 <i_1173>:
    800013a0:	ede13023          	sd	t5,-320(sp)

00000000800013a4 <i_1174>:
    800013a4:	0e613823          	sd	t1,240(sp)

00000000800013a8 <i_1175>:
    800013a8:	001f5f1b          	srliw	t5,t5,0x1

00000000800013ac <i_1176>:
    800013ac:	03e1533b          	divuw	t1,sp,t5

00000000800013b0 <i_1177>:
    800013b0:	00118193          	addi	gp,gp,1 # 2293e001 <main-0x5d6c1fff>
    800013b4:	ff51c6e3          	blt	gp,s5,800013a0 <i_1173>

00000000800013b8 <i_1178>:
    800013b8:	e9816383          	lwu	t2,-360(sp)

00000000800013bc <i_1179>:
    800013bc:	029ce063          	bltu	s9,s1,800013dc <i_1187>

00000000800013c0 <i_1180>:
    800013c0:	eae11e03          	lh	t3,-338(sp)

00000000800013c4 <i_1181>:
    800013c4:	00665a63          	ble	t1,a2,800013d8 <i_1186>

00000000800013c8 <i_1182>:
    800013c8:	039e43b3          	div	t2,t3,s9

00000000800013cc <i_1183>:
    800013cc:	10a14a03          	lbu	s4,266(sp)

00000000800013d0 <i_1184>:
    800013d0:	007cccb3          	xor	s9,s9,t2

00000000800013d4 <i_1185>:
    800013d4:	f2513023          	sd	t0,-224(sp)

00000000800013d8 <i_1186>:
    800013d8:	0a811b83          	lh	s7,168(sp)

00000000800013dc <i_1187>:
    800013dc:	12c15983          	lhu	s3,300(sp)

00000000800013e0 <i_1188>:
    800013e0:	1b016783          	lwu	a5,432(sp)

00000000800013e4 <i_1189>:
    800013e4:	05f10fa3          	sb	t6,95(sp)

00000000800013e8 <i_1190>:
    800013e8:	414b84b3          	sub	s1,s7,s4

00000000800013ec <i_1191>:
    800013ec:	f0816783          	lwu	a5,-248(sp)

00000000800013f0 <i_1192>:
    800013f0:	01968a63          	beq	a3,s9,80001404 <i_1197>

00000000800013f4 <i_1193>:
    800013f4:	0334fa3b          	remuw	s4,s1,s3

00000000800013f8 <i_1194>:
    800013f8:	e3014283          	lbu	t0,-464(sp)

00000000800013fc <i_1195>:
    800013fc:	0147da63          	ble	s4,a5,80001410 <i_1200>

0000000080001400 <i_1196>:
    80001400:	0359e463          	bltu	s3,s5,80001428 <i_1206>

0000000080001404 <i_1197>:
    80001404:	e9c15a03          	lhu	s4,-356(sp)

0000000080001408 <i_1198>:
    80001408:	10615c83          	lhu	s9,262(sp)

000000008000140c <i_1199>:
    8000140c:	039a7e3b          	remuw	t3,s4,s9

0000000080001410 <i_1200>:
    80001410:	f4813303          	ld	t1,-184(sp)

0000000080001414 <i_1201>:
    80001414:	019f72b3          	and	t0,t5,s9

0000000080001418 <i_1202>:
    80001418:	006cfeb3          	and	t4,s9,t1

000000008000141c <i_1203>:
    8000141c:	00211203          	lh	tp,2(sp)

0000000080001420 <i_1204>:
    80001420:	14411f23          	sh	tp,350(sp)

0000000080001424 <i_1205>:
    80001424:	03ccce3b          	divw	t3,s9,t3

0000000080001428 <i_1206>:
    80001428:	0252e263          	bltu	t0,t0,8000144c <i_1215>

000000008000142c <i_1207>:
    8000142c:	00300513          	li	a0,3

0000000080001430 <i_1208>:
    80001430:	00a21e33          	sll	t3,tp,a0

0000000080001434 <i_1209>:
    80001434:	17811983          	lh	s3,376(sp)

0000000080001438 <i_1210>:
    80001438:	00455c63          	ble	tp,a0,80001450 <i_1216>

000000008000143c <i_1211>:
    8000143c:	03714e33          	div	t3,sp,s7

0000000080001440 <i_1212>:
    80001440:	fd310c23          	sb	s3,-40(sp)

0000000080001444 <i_1213>:
    80001444:	efc11d03          	lh	s10,-260(sp)

0000000080001448 <i_1214>:
    80001448:	01c96933          	or	s2,s2,t3

000000008000144c <i_1215>:
    8000144c:	01ce0633          	add	a2,t3,t3

0000000080001450 <i_1216>:
    80001450:	03c90463          	beq	s2,t3,80001478 <i_1226>

0000000080001454 <i_1217>:
    80001454:	e3b10983          	lb	s3,-453(sp)

0000000080001458 <i_1218>:
    80001458:	0d816903          	lwu	s2,216(sp)

000000008000145c <i_1219>:
    8000145c:	13311823          	sh	s3,304(sp)

0000000080001460 <i_1220>:
    80001460:	1bc11f23          	sh	t3,446(sp)

0000000080001464 <i_1221>:
    80001464:	e7415603          	lhu	a2,-396(sp)

0000000080001468 <i_1222>:
    80001468:	00411f1b          	slliw	t5,sp,0x4

000000008000146c <i_1223>:
    8000146c:	e8211f83          	lh	t6,-382(sp)

0000000080001470 <i_1224>:
    80001470:	1d911123          	sh	s9,450(sp)

0000000080001474 <i_1225>:
    80001474:	07012a03          	lw	s4,112(sp)

0000000080001478 <i_1226>:
    80001478:	fb215e03          	lhu	t3,-78(sp)

000000008000147c <i_1227>:
    8000147c:	01700213          	li	tp,23

0000000080001480 <i_1228>:
    80001480:	004f59b3          	srl	s3,t5,tp

0000000080001484 <i_1229>:
    80001484:	8b000c93          	li	s9,-1872

0000000080001488 <i_1230>:
    80001488:	8b400b93          	li	s7,-1868

000000008000148c <i_1231>:
    8000148c:	00000013          	nop

0000000080001490 <i_1232>:
    80001490:	1b910803          	lb	a6,441(sp)

0000000080001494 <i_1233>:
    80001494:	001c8c93          	addi	s9,s9,1
    80001498:	ff9b98e3          	bne	s7,s9,80001488 <i_1230>

000000008000149c <i_1234>:
    8000149c:	02e22c33          	mulhsu	s8,tp,a4

00000000800014a0 <i_1235>:
    800014a0:	00485463          	ble	tp,a6,800014a8 <i_1237>

00000000800014a4 <i_1236>:
    800014a4:	f2014903          	lbu	s2,-224(sp)

00000000800014a8 <i_1237>:
    800014a8:	12413c23          	sd	tp,312(sp)

00000000800014ac <i_1238>:
    800014ac:	b38c4c13          	xori	s8,s8,-1224

00000000800014b0 <i_1239>:
    800014b0:	00000013          	nop

00000000800014b4 <i_1240>:
    800014b4:	75100f93          	li	t6,1873

00000000800014b8 <i_1241>:
    800014b8:	75600a13          	li	s4,1878

00000000800014bc <i_1242>:
    800014bc:	e4c10203          	lb	tp,-436(sp)

00000000800014c0 <i_1243>:
    800014c0:	fb212023          	sw	s2,-96(sp)

00000000800014c4 <i_1244>:
    800014c4:	07e10423          	sb	t5,104(sp)

00000000800014c8 <i_1245>:
    800014c8:	004f131b          	slliw	t1,t5,0x4

00000000800014cc <i_1246>:
    800014cc:	03e82333          	mulhsu	t1,a6,t5

00000000800014d0 <i_1247>:
    800014d0:	11e11723          	sh	t5,270(sp)

00000000800014d4 <i_1248>:
    800014d4:	0a412b03          	lw	s6,164(sp)

00000000800014d8 <i_1249>:
    800014d8:	001f8f93          	addi	t6,t6,1
    800014dc:	ff4fe0e3          	bltu	t6,s4,800014bc <i_1242>

00000000800014e0 <i_1250>:
    800014e0:	f2114383          	lbu	t2,-223(sp)

00000000800014e4 <i_1251>:
    800014e4:	efe13023          	sd	t5,-288(sp)

00000000800014e8 <i_1252>:
    800014e8:	f0a10b03          	lb	s6,-246(sp)

00000000800014ec <i_1253>:
    800014ec:	01300513          	li	a0,19

00000000800014f0 <i_1254>:
    800014f0:	00ac96bb          	sllw	a3,s9,a0

00000000800014f4 <i_1255>:
    800014f4:	73d00913          	li	s2,1853

00000000800014f8 <i_1256>:
    800014f8:	74600593          	li	a1,1862

00000000800014fc <i_1257>:
    800014fc:	fa214603          	lbu	a2,-94(sp)

0000000080001500 <i_1258>:
    80001500:	12d11f23          	sh	a3,318(sp)

0000000080001504 <i_1259>:
    80001504:	00190913          	addi	s2,s2,1
    80001508:	feb96ae3          	bltu	s2,a1,800014fc <i_1257>

000000008000150c <i_1260>:
    8000150c:	ecd10aa3          	sb	a3,-299(sp)

0000000080001510 <i_1261>:
    80001510:	0732e813          	ori	a6,t0,115

0000000080001514 <i_1262>:
    80001514:	ee012683          	lw	a3,-288(sp)

0000000080001518 <i_1263>:
    80001518:	f6310d03          	lb	s10,-157(sp)

000000008000151c <i_1264>:
    8000151c:	18a10023          	sb	a0,384(sp)

0000000080001520 <i_1265>:
    80001520:	0275f9bb          	remuw	s3,a1,t2

0000000080001524 <i_1266>:
    80001524:	08110583          	lb	a1,129(sp)

0000000080001528 <i_1267>:
    80001528:	f5214d03          	lbu	s10,-174(sp)

000000008000152c <i_1268>:
    8000152c:	fe713823          	sd	t2,-16(sp)

0000000080001530 <i_1269>:
    80001530:	11410083          	lb	ra,276(sp)

0000000080001534 <i_1270>:
    80001534:	0100de63          	ble	a6,ra,80001550 <i_1277>

0000000080001538 <i_1271>:
    80001538:	00200c13          	li	s8,2

000000008000153c <i_1272>:
    8000153c:	01819d3b          	sllw	s10,gp,s8

0000000080001540 <i_1273>:
    80001540:	0389d1b3          	divu	gp,s3,s8

0000000080001544 <i_1274>:
    80001544:	abd95b17          	auipc	s6,0xabd95

0000000080001548 <i_1275>:
    80001548:	a42b0d13          	addi	s10,s6,-1470 # 2bd95f86 <main-0x5426a07a>

000000008000154c <i_1276>:
    8000154c:	013189b3          	add	s3,gp,s3

0000000080001550 <i_1277>:
    80001550:	00399e93          	slli	t4,s3,0x3

0000000080001554 <i_1278>:
    80001554:	681b6e93          	ori	t4,s6,1665

0000000080001558 <i_1279>:
    80001558:	01db6663          	bltu	s6,t4,80001564 <i_1282>

000000008000155c <i_1280>:
    8000155c:	11813b03          	ld	s6,280(sp)

0000000080001560 <i_1281>:
    80001560:	00c00b13          	li	s6,12

0000000080001564 <i_1282>:
    80001564:	4167da33          	sra	s4,a5,s6

0000000080001568 <i_1283>:
    80001568:	034b0263          	beq	s6,s4,8000158c <i_1292>

000000008000156c <i_1284>:
    8000156c:	41d40e3b          	subw	t3,s0,t4

0000000080001570 <i_1285>:
    80001570:	00be25b3          	slt	a1,t3,a1

0000000080001574 <i_1286>:
    80001574:	fda11b03          	lh	s6,-38(sp)

0000000080001578 <i_1287>:
    80001578:	03d1acb3          	mulhsu	s9,gp,t4

000000008000157c <i_1288>:
    8000157c:	1a016e83          	lwu	t4,416(sp)

0000000080001580 <i_1289>:
    80001580:	001b5d93          	srli	s11,s6,0x1

0000000080001584 <i_1290>:
    80001584:	e6314183          	lbu	gp,-413(sp)

0000000080001588 <i_1291>:
    80001588:	f7b12223          	sw	s11,-156(sp)

000000008000158c <i_1292>:
    8000158c:	001edd9b          	srliw	s11,t4,0x1

0000000080001590 <i_1293>:
    80001590:	03de8263          	beq	t4,t4,800015b4 <i_1302>

0000000080001594 <i_1294>:
    80001594:	0231e5b3          	rem	a1,gp,gp

0000000080001598 <i_1295>:
    80001598:	05412e83          	lw	t4,84(sp)

000000008000159c <i_1296>:
    8000159c:	14410403          	lb	s0,324(sp)

00000000800015a0 <i_1297>:
    800015a0:	03b11923          	sh	s11,50(sp)

00000000800015a4 <i_1298>:
    800015a4:	fd914403          	lbu	s0,-39(sp)

00000000800015a8 <i_1299>:
    800015a8:	9494019b          	addiw	gp,s0,-1719

00000000800015ac <i_1300>:
    800015ac:	10813823          	sd	s0,272(sp)

00000000800015b0 <i_1301>:
    800015b0:	00b66663          	bltu	a2,a1,800015bc <i_1304>

00000000800015b4 <i_1302>:
    800015b4:	ef940413          	addi	s0,s0,-263

00000000800015b8 <i_1303>:
    800015b8:	0b215403          	lhu	s0,178(sp)

00000000800015bc <i_1304>:
    800015bc:	98eb8617          	auipc	a2,0x98eb8

00000000800015c0 <i_1305>:
    800015c0:	f2610403          	lb	s0,-218(sp)

00000000800015c4 <i_1306>:
    800015c4:	00347ab3          	and	s5,s0,gp

00000000800015c8 <i_1307>:
    800015c8:	03500093          	li	ra,53

00000000800015cc <i_1308>:
    800015cc:	40145233          	sra	tp,s0,ra

00000000800015d0 <i_1309>:
    800015d0:	f6f10203          	lb	tp,-145(sp)

00000000800015d4 <i_1310>:
    800015d4:	e2110503          	lb	a0,-479(sp)

00000000800015d8 <i_1311>:
    800015d8:	f8e10a83          	lb	s5,-114(sp)

00000000800015dc <i_1312>:
    800015dc:	003a9c9b          	slliw	s9,s5,0x3

00000000800015e0 <i_1313>:
    800015e0:	021cab33          	mulhsu	s6,s9,ra

00000000800015e4 <i_1314>:
    800015e4:	e6a11c83          	lh	s9,-406(sp)

00000000800015e8 <i_1315>:
    800015e8:	038f1bb3          	mulh	s7,t5,s8

00000000800015ec <i_1316>:
    800015ec:	029ba4b3          	mulhsu	s1,s7,s1

00000000800015f0 <i_1317>:
    800015f0:	019b6a63          	bltu	s6,s9,80001604 <i_1322>

00000000800015f4 <i_1318>:
    800015f4:	02ab9263          	bne	s7,a0,80001618 <i_1327>

00000000800015f8 <i_1319>:
    800015f8:	00e00493          	li	s1,14

00000000800015fc <i_1320>:
    800015fc:	4097dcb3          	sra	s9,a5,s1

0000000080001600 <i_1321>:
    80001600:	2b14fb93          	andi	s7,s1,689

0000000080001604 <i_1322>:
    80001604:	e7e10c83          	lb	s9,-386(sp)

0000000080001608 <i_1323>:
    80001608:	0097a7b3          	slt	a5,a5,s1

000000008000160c <i_1324>:
    8000160c:	c61c8793          	addi	a5,s9,-927

0000000080001610 <i_1325>:
    80001610:	03c16183          	lwu	gp,60(sp)

0000000080001614 <i_1326>:
    80001614:	ff611383          	lh	t2,-10(sp)

0000000080001618 <i_1327>:
    80001618:	02c79263          	bne	a5,a2,8000163c <i_1336>

000000008000161c <i_1328>:
    8000161c:	1fb10223          	sb	s11,484(sp)

0000000080001620 <i_1329>:
    80001620:	0191a7b3          	slt	a5,gp,s9

0000000080001624 <i_1330>:
    80001624:	00318263          	beq	gp,gp,80001628 <i_1331>

0000000080001628 <i_1331>:
    80001628:	40738e33          	sub	t3,t2,t2

000000008000162c <i_1332>:
    8000162c:	02400393          	li	t2,36

0000000080001630 <i_1333>:
    80001630:	00739e33          	sll	t3,t2,t2

0000000080001634 <i_1334>:
    80001634:	02751463          	bne	a0,t2,8000165c <i_1344>

0000000080001638 <i_1335>:
    80001638:	ffc10f23          	sb	t3,-2(sp)

000000008000163c <i_1336>:
    8000163c:	02200093          	li	ra,34

0000000080001640 <i_1337>:
    80001640:	001e1833          	sll	a6,t3,ra

0000000080001644 <i_1338>:
    80001644:	e7013383          	ld	t2,-400(sp)

0000000080001648 <i_1339>:
    80001648:	0013c263          	blt	t2,ra,8000164c <i_1340>

000000008000164c <i_1340>:
    8000164c:	fac12483          	lw	s1,-84(sp)

0000000080001650 <i_1341>:
    80001650:	0306e6b3          	rem	a3,a3,a6

0000000080001654 <i_1342>:
    80001654:	0016dc63          	ble	ra,a3,8000166c <i_1348>

0000000080001658 <i_1343>:
    80001658:	0072e263          	bltu	t0,t2,8000165c <i_1344>

000000008000165c <i_1344>:
    8000165c:	0ae13823          	sd	a4,176(sp)

0000000080001660 <i_1345>:
    80001660:	1a010d03          	lb	s10,416(sp)

0000000080001664 <i_1346>:
    80001664:	0a912c23          	sw	s1,184(sp)

0000000080001668 <i_1347>:
    80001668:	027dc3b3          	div	t2,s11,t2

000000008000166c <i_1348>:
    8000166c:	00000013          	nop

0000000080001670 <i_1349>:
    80001670:	02108d33          	mul	s10,ra,ra

0000000080001674 <i_1350>:
    80001674:	83800d93          	li	s11,-1992

0000000080001678 <i_1351>:
    80001678:	84200813          	li	a6,-1982

000000008000167c <i_1352>:
    8000167c:	402ddb93          	srai	s7,s11,0x2

0000000080001680 <i_1353>:
    80001680:	fa615b83          	lhu	s7,-90(sp)

0000000080001684 <i_1354>:
    80001684:	00000013          	nop

0000000080001688 <i_1355>:
    80001688:	004bd29b          	srliw	t0,s7,0x4

000000008000168c <i_1356>:
    8000168c:	029bd2b3          	divu	t0,s7,s1

0000000080001690 <i_1357>:
    80001690:	e5a12a23          	sw	s10,-428(sp)

0000000080001694 <i_1358>:
    80001694:	001d8d93          	addi	s11,s11,1
    80001698:	ff0d92e3          	bne	s11,a6,8000167c <i_1352>

000000008000169c <i_1359>:
    8000169c:	09a13c23          	sd	s10,152(sp)

00000000800016a0 <i_1360>:
    800016a0:	09510403          	lb	s0,149(sp)

00000000800016a4 <i_1361>:
    800016a4:	17914283          	lbu	t0,377(sp)

00000000800016a8 <i_1362>:
    800016a8:	03740bbb          	mulw	s7,s0,s7

00000000800016ac <i_1363>:
    800016ac:	fb813283          	ld	t0,-72(sp)

00000000800016b0 <i_1364>:
    800016b0:	fd713423          	sd	s7,-56(sp)

00000000800016b4 <i_1365>:
    800016b4:	00512423          	sw	t0,8(sp)

00000000800016b8 <i_1366>:
    800016b8:	f4615203          	lhu	tp,-186(sp)

00000000800016bc <i_1367>:
    800016bc:	01a3d863          	ble	s10,t2,800016cc <i_1371>

00000000800016c0 <i_1368>:
    800016c0:	00421d13          	slli	s10,tp,0x4

00000000800016c4 <i_1369>:
    800016c4:	e2c12203          	lw	tp,-468(sp)

00000000800016c8 <i_1370>:
    800016c8:	0052b633          	sltu	a2,t0,t0

00000000800016cc <i_1371>:
    800016cc:	17c15283          	lhu	t0,380(sp)

00000000800016d0 <i_1372>:
    800016d0:	02340463          	beq	s0,gp,800016f8 <i_1382>

00000000800016d4 <i_1373>:
    800016d4:	01a44e63          	blt	s0,s10,800016f0 <i_1380>

00000000800016d8 <i_1374>:
    800016d8:	01a00413          	li	s0,26

00000000800016dc <i_1375>:
    800016dc:	0089d9b3          	srl	s3,s3,s0

00000000800016e0 <i_1376>:
    800016e0:	0089f9b3          	and	s3,s3,s0

00000000800016e4 <i_1377>:
    800016e4:	0139c463          	blt	s3,s3,800016ec <i_1379>

00000000800016e8 <i_1378>:
    800016e8:	1e013403          	ld	s0,480(sp)

00000000800016ec <i_1379>:
    800016ec:	0139ea63          	bltu	s3,s3,80001700 <i_1384>

00000000800016f0 <i_1380>:
    800016f0:	e9813983          	ld	s3,-360(sp)

00000000800016f4 <i_1381>:
    800016f4:	008c8cb3          	add	s9,s9,s0

00000000800016f8 <i_1382>:
    800016f8:	00000013          	nop

00000000800016fc <i_1383>:
    800016fc:	c07b3b93          	sltiu	s7,s6,-1017

0000000080001700 <i_1384>:
    80001700:	0399ffbb          	remuw	t6,s3,s9

0000000080001704 <i_1385>:
    80001704:	69046413          	ori	s0,s0,1680

0000000080001708 <i_1386>:
    80001708:	87c00b13          	li	s6,-1924

000000008000170c <i_1387>:
    8000170c:	88a00993          	li	s3,-1910

0000000080001710 <i_1388>:
    80001710:	028fe43b          	remw	s0,t6,s0

0000000080001714 <i_1389>:
    80001714:	01c14303          	lbu	t1,28(sp)

0000000080001718 <i_1390>:
    80001718:	02630333          	mul	t1,t1,t1

000000008000171c <i_1391>:
    8000171c:	10612423          	sw	t1,264(sp)

0000000080001720 <i_1392>:
    80001720:	f3813e03          	ld	t3,-200(sp)

0000000080001724 <i_1393>:
    80001724:	03c13823          	sd	t3,48(sp)

0000000080001728 <i_1394>:
    80001728:	026346bb          	divw	a3,t1,t1

000000008000172c <i_1395>:
    8000172c:	001b0b13          	addi	s6,s6,1
    80001730:	ff3b60e3          	bltu	s6,s3,80001710 <i_1388>

0000000080001734 <i_1396>:
    80001734:	02df9bb3          	mulh	s7,t6,a3

0000000080001738 <i_1397>:
    80001738:	e6e11a03          	lh	s4,-402(sp)

000000008000173c <i_1398>:
    8000173c:	0a816683          	lwu	a3,168(sp)

0000000080001740 <i_1399>:
    80001740:	02b11d23          	sh	a1,58(sp)

0000000080001744 <i_1400>:
    80001744:	01469c63          	bne	a3,s4,8000175c <i_1406>

0000000080001748 <i_1401>:
    80001748:	00d68863          	beq	a3,a3,80001758 <i_1405>

000000008000174c <i_1402>:
    8000174c:	02d28463          	beq	t0,a3,80001774 <i_1412>

0000000080001750 <i_1403>:
    80001750:	01455e63          	ble	s4,a0,8000176c <i_1410>

0000000080001754 <i_1404>:
    80001754:	ea410d03          	lb	s10,-348(sp)

0000000080001758 <i_1405>:
    80001758:	00325c63          	ble	gp,tp,80001770 <i_1411>

000000008000175c <i_1406>:
    8000175c:	18810d03          	lb	s10,392(sp)

0000000080001760 <i_1407>:
    80001760:	01ad5463          	ble	s10,s10,80001768 <i_1409>

0000000080001764 <i_1408>:
    80001764:	f7c16d03          	lwu	s10,-132(sp)

0000000080001768 <i_1409>:
    80001768:	17cab4b7          	lui	s1,0x17cab

000000008000176c <i_1410>:
    8000176c:	eb011303          	lh	t1,-336(sp)

0000000080001770 <i_1411>:
    80001770:	00012d03          	lw	s10,0(sp)

0000000080001774 <i_1412>:
    80001774:	01ad1863          	bne	s10,s10,80001784 <i_1416>

0000000080001778 <i_1413>:
    80001778:	01f35c63          	ble	t6,t1,80001790 <i_1419>

000000008000177c <i_1414>:
    8000177c:	00648663          	beq	s1,t1,80001788 <i_1417>

0000000080001780 <i_1415>:
    80001780:	1d813303          	ld	t1,472(sp)

0000000080001784 <i_1416>:
    80001784:	009d4663          	blt	s10,s1,80001790 <i_1419>

0000000080001788 <i_1417>:
    80001788:	01f00413          	li	s0,31

000000008000178c <i_1418>:
    8000178c:	4086543b          	sraw	s0,a2,s0

0000000080001790 <i_1419>:
    80001790:	00635263          	ble	t1,t1,80001794 <i_1420>

0000000080001794 <i_1420>:
    80001794:	aaeac697          	auipc	a3,0xaaeac

0000000080001798 <i_1421>:
    80001798:	1a813c23          	sd	s0,440(sp)

000000008000179c <i_1422>:
    8000179c:	fa74f493          	andi	s1,s1,-89

00000000800017a0 <i_1423>:
    800017a0:	76200313          	li	t1,1890

00000000800017a4 <i_1424>:
    800017a4:	77200413          	li	s0,1906

00000000800017a8 <i_1425>:
    800017a8:	00130313          	addi	t1,t1,1 # ffffffffa784f001 <_end+0xffffffff2783ebed>
    800017ac:	fe647ee3          	bleu	t1,s0,800017a8 <i_1425>

00000000800017b0 <i_1426>:
    800017b0:	03016803          	lwu	a6,48(sp)

00000000800017b4 <i_1427>:
    800017b4:	fa812423          	sw	s0,-88(sp)

00000000800017b8 <i_1428>:
    800017b8:	00d6d263          	ble	a3,a3,800017bc <i_1429>

00000000800017bc <i_1429>:
    800017bc:	16e15403          	lhu	s0,366(sp)

00000000800017c0 <i_1430>:
    800017c0:	02849463          	bne	s1,s0,800017e8 <i_1440>

00000000800017c4 <i_1431>:
    800017c4:	0d816403          	lwu	s0,216(sp)

00000000800017c8 <i_1432>:
    800017c8:	03031463          	bne	t1,a6,800017f0 <i_1442>

00000000800017cc <i_1433>:
    800017cc:	10811123          	sh	s0,258(sp)

00000000800017d0 <i_1434>:
    800017d0:	404ed313          	srai	t1,t4,0x4

00000000800017d4 <i_1435>:
    800017d4:	04310803          	lb	a6,67(sp)

00000000800017d8 <i_1436>:
    800017d8:	0fd13823          	sd	t4,240(sp)

00000000800017dc <i_1437>:
    800017dc:	00f00193          	li	gp,15

00000000800017e0 <i_1438>:
    800017e0:	00381ebb          	sllw	t4,a6,gp

00000000800017e4 <i_1439>:
    800017e4:	030e8463          	beq	t4,a6,8000180c <i_1449>

00000000800017e8 <i_1440>:
    800017e8:	14814e83          	lbu	t4,328(sp)

00000000800017ec <i_1441>:
    800017ec:	ebd11223          	sh	t4,-348(sp)

00000000800017f0 <i_1442>:
    800017f0:	014a6a33          	or	s4,s4,s4

00000000800017f4 <i_1443>:
    800017f4:	e7010f23          	sb	a6,-386(sp)

00000000800017f8 <i_1444>:
    800017f8:	014baeb3          	slt	t4,s7,s4

00000000800017fc <i_1445>:
    800017fc:	01d1d263          	ble	t4,gp,80001800 <i_1446>

0000000080001800 <i_1446>:
    80001800:	03de9463          	bne	t4,t4,80001828 <i_1456>

0000000080001804 <i_1447>:
    80001804:	e3310183          	lb	gp,-461(sp)

0000000080001808 <i_1448>:
    80001808:	ed411b23          	sh	s4,-298(sp)

000000008000180c <i_1449>:
    8000180c:	02318463          	beq	gp,gp,80001834 <i_1459>

0000000080001810 <i_1450>:
    80001810:	00000013          	nop

0000000080001814 <i_1451>:
    80001814:	00000013          	nop

0000000080001818 <i_1452>:
    80001818:	0f810483          	lb	s1,248(sp)

000000008000181c <i_1453>:
    8000181c:	e1c12783          	lw	a5,-484(sp)

0000000080001820 <i_1454>:
    80001820:	00000013          	nop

0000000080001824 <i_1455>:
    80001824:	13215d83          	lhu	s11,306(sp)

0000000080001828 <i_1456>:
    80001828:	00000013          	nop

000000008000182c <i_1457>:
    8000182c:	0232023b          	mulw	tp,tp,gp

0000000080001830 <i_1458>:
    80001830:	59d1879b          	addiw	a5,gp,1437

0000000080001834 <i_1459>:
    80001834:	0d812d83          	lw	s11,216(sp)

0000000080001838 <i_1460>:
    80001838:	e6d14483          	lbu	s1,-403(sp)

000000008000183c <i_1461>:
    8000183c:	7b500f13          	li	t5,1973

0000000080001840 <i_1462>:
    80001840:	7c600193          	li	gp,1990

0000000080001844 <i_1463>:
    80001844:	00000013          	nop

0000000080001848 <i_1464>:
    80001848:	03c12783          	lw	a5,60(sp)

000000008000184c <i_1465>:
    8000184c:	0311d463          	ble	a7,gp,80001874 <i_1474>

0000000080001850 <i_1466>:
    80001850:	f9811c23          	sh	s8,-104(sp)

0000000080001854 <i_1467>:
    80001854:	1bb12e23          	sw	s11,444(sp)

0000000080001858 <i_1468>:
    80001858:	001f0f13          	addi	t5,t5,1 # 84ad134d <_end+0x4ac0f39>
    8000185c:	ffe1d4e3          	ble	t5,gp,80001844 <i_1463>

0000000080001860 <i_1469>:
    80001860:	9e394993          	xori	s3,s2,-1565

0000000080001864 <i_1470>:
    80001864:	4240cdb7          	lui	s11,0x4240c

0000000080001868 <i_1471>:
    80001868:	00000013          	nop

000000008000186c <i_1472>:
    8000186c:	44cf2d93          	slti	s11,t5,1100

0000000080001870 <i_1473>:
    80001870:	01ef2fb3          	slt	t6,t5,t5

0000000080001874 <i_1474>:
    80001874:	03efffb3          	remu	t6,t6,t5

0000000080001878 <i_1475>:
    80001878:	f2310803          	lb	a6,-221(sp)

000000008000187c <i_1476>:
    8000187c:	77b00793          	li	a5,1915

0000000080001880 <i_1477>:
    80001880:	78900f13          	li	t5,1929

0000000080001884 <i_1478>:
    80001884:	01084c63          	blt	a6,a6,8000189c <i_1484>

0000000080001888 <i_1479>:
    80001888:	01bdb533          	sltu	a0,s11,s11

000000008000188c <i_1480>:
    8000188c:	01fdde63          	ble	t6,s11,800018a8 <i_1487>

0000000080001890 <i_1481>:
    80001890:	815f4a13          	xori	s4,t5,-2027

0000000080001894 <i_1482>:
    80001894:	08014803          	lbu	a6,128(sp)

0000000080001898 <i_1483>:
    80001898:	01b86263          	bltu	a6,s11,8000189c <i_1484>

000000008000189c <i_1484>:
    8000189c:	00000013          	nop

00000000800018a0 <i_1485>:
    800018a0:	11816d83          	lwu	s11,280(sp)

00000000800018a4 <i_1486>:
    800018a4:	0263e333          	rem	t1,t2,t1

00000000800018a8 <i_1487>:
    800018a8:	00000013          	nop

00000000800018ac <i_1488>:
    800018ac:	f9256213          	ori	tp,a0,-110

00000000800018b0 <i_1489>:
    800018b0:	00178793          	addi	a5,a5,1 # 577bd001 <main-0x28842fff>
    800018b4:	fde7e8e3          	bltu	a5,t5,80001884 <i_1478>

00000000800018b8 <i_1490>:
    800018b8:	10610123          	sb	t1,258(sp)

00000000800018bc <i_1491>:
    800018bc:	030db833          	mulhu	a6,s11,a6

00000000800018c0 <i_1492>:
    800018c0:	e51b8393          	addi	t2,s7,-431

00000000800018c4 <i_1493>:
    800018c4:	00786863          	bltu	a6,t2,800018d4 <i_1497>

00000000800018c8 <i_1494>:
    800018c8:	0c713c23          	sd	t2,216(sp)

00000000800018cc <i_1495>:
    800018cc:	01756663          	bltu	a0,s7,800018d8 <i_1498>

00000000800018d0 <i_1496>:
    800018d0:	01476c63          	bltu	a4,s4,800018e8 <i_1502>

00000000800018d4 <i_1497>:
    800018d4:	00485863          	ble	tp,a6,800018e4 <i_1501>

00000000800018d8 <i_1498>:
    800018d8:	034dfeb3          	remu	t4,s11,s4

00000000800018dc <i_1499>:
    800018dc:	fa813983          	ld	s3,-88(sp)

00000000800018e0 <i_1500>:
    800018e0:	ef311823          	sh	s3,-272(sp)

00000000800018e4 <i_1501>:
    800018e4:	e60a0a13          	addi	s4,s4,-416

00000000800018e8 <i_1502>:
    800018e8:	003eda63          	ble	gp,t4,800018fc <i_1507>

00000000800018ec <i_1503>:
    800018ec:	f4816a03          	lwu	s4,-184(sp)

00000000800018f0 <i_1504>:
    800018f0:	0349c063          	blt	s3,s4,80001910 <i_1512>

00000000800018f4 <i_1505>:
    800018f4:	033a7063          	bleu	s3,s4,80001914 <i_1513>

00000000800018f8 <i_1506>:
    800018f8:	034dd263          	ble	s4,s11,8000191c <i_1515>

00000000800018fc <i_1507>:
    800018fc:	ebc11e03          	lh	t3,-324(sp)

0000000080001900 <i_1508>:
    80001900:	034a4263          	blt	s4,s4,80001924 <i_1517>

0000000080001904 <i_1509>:
    80001904:	0aa15383          	lhu	t2,170(sp)

0000000080001908 <i_1510>:
    80001908:	0133ea33          	or	s4,t2,s3

000000008000190c <i_1511>:
    8000190c:	027a7463          	bleu	t2,s4,80001934 <i_1521>

0000000080001910 <i_1512>:
    80001910:	0039d993          	srli	s3,s3,0x3

0000000080001914 <i_1513>:
    80001914:	03c9f063          	bleu	t3,s3,80001934 <i_1521>

0000000080001918 <i_1514>:
    80001918:	eca13423          	sd	a0,-312(sp)

000000008000191c <i_1515>:
    8000191c:	027e7bb3          	remu	s7,t3,t2

0000000080001920 <i_1516>:
    80001920:	ed416d03          	lwu	s10,-300(sp)

0000000080001924 <i_1517>:
    80001924:	0339c063          	blt	s3,s3,80001944 <i_1525>

0000000080001928 <i_1518>:
    80001928:	01c109b3          	add	s3,sp,t3

000000008000192c <i_1519>:
    8000192c:	0110cc63          	blt	ra,a7,80001944 <i_1525>

0000000080001930 <i_1520>:
    80001930:	ef311423          	sh	s3,-280(sp)

0000000080001934 <i_1521>:
    80001934:	0fe15a83          	lhu	s5,254(sp)

0000000080001938 <i_1522>:
    80001938:	18012e03          	lw	t3,384(sp)

000000008000193c <i_1523>:
    8000193c:	419b8bbb          	subw	s7,s7,s9

0000000080001940 <i_1524>:
    80001940:	1c416803          	lwu	a6,452(sp)

0000000080001944 <i_1525>:
    80001944:	00000013          	nop

0000000080001948 <i_1526>:
    80001948:	00000013          	nop

000000008000194c <i_1527>:
    8000194c:	85700993          	li	s3,-1961

0000000080001950 <i_1528>:
    80001950:	86200613          	li	a2,-1950

0000000080001954 <i_1529>:
    80001954:	ee415803          	lhu	a6,-284(sp)

0000000080001958 <i_1530>:
    80001958:	f0013a83          	ld	s5,-256(sp)

000000008000195c <i_1531>:
    8000195c:	76200e13          	li	t3,1890

0000000080001960 <i_1532>:
    80001960:	77400a13          	li	s4,1908

0000000080001964 <i_1533>:
    80001964:	00000013          	nop

0000000080001968 <i_1534>:
    80001968:	001e0e13          	addi	t3,t3,1
    8000196c:	ffca7ce3          	bleu	t3,s4,80001964 <i_1533>

0000000080001970 <i_1535>:
    80001970:	386a2f17          	auipc	t5,0x386a2

0000000080001974 <i_1536>:
    80001974:	03b00f13          	li	t5,59

0000000080001978 <i_1537>:
    80001978:	01ef5a33          	srl	s4,t5,t5

000000008000197c <i_1538>:
    8000197c:	00198993          	addi	s3,s3,1
    80001980:	fd367ae3          	bleu	s3,a2,80001954 <i_1529>

0000000080001984 <i_1539>:
    80001984:	08815903          	lhu	s2,136(sp)

0000000080001988 <i_1540>:
    80001988:	02190933          	mul	s2,s2,ra

000000008000198c <i_1541>:
    8000198c:	01908cb3          	add	s9,ra,s9

0000000080001990 <i_1542>:
    80001990:	03455cbb          	divuw	s9,a0,s4

0000000080001994 <i_1543>:
    80001994:	0194cf33          	xor	t5,s1,s9

0000000080001998 <i_1544>:
    80001998:	01ea5e63          	ble	t5,s4,800019b4 <i_1551>

000000008000199c <i_1545>:
    8000199c:	e7213823          	sd	s2,-400(sp)

00000000800019a0 <i_1546>:
    800019a0:	e5412223          	sw	s4,-444(sp)

00000000800019a4 <i_1547>:
    800019a4:	03997463          	bleu	s9,s2,800019cc <i_1557>

00000000800019a8 <i_1548>:
    800019a8:	e7013a03          	ld	s4,-400(sp)

00000000800019ac <i_1549>:
    800019ac:	1a713423          	sd	t2,424(sp)

00000000800019b0 <i_1550>:
    800019b0:	41030333          	sub	t1,t1,a6

00000000800019b4 <i_1551>:
    800019b4:	eec15303          	lhu	t1,-276(sp)

00000000800019b8 <i_1552>:
    800019b8:	fffcb313          	sltiu	t1,s9,-1

00000000800019bc <i_1553>:
    800019bc:	02512e23          	sw	t0,60(sp)

00000000800019c0 <i_1554>:
    800019c0:	18212223          	sw	sp,388(sp)

00000000800019c4 <i_1555>:
    800019c4:	02632f33          	mulhsu	t5,t1,t1

00000000800019c8 <i_1556>:
    800019c8:	03813d83          	ld	s11,56(sp)

00000000800019cc <i_1557>:
    800019cc:	03937cbb          	remuw	s9,t1,s9

00000000800019d0 <i_1558>:
    800019d0:	19912c23          	sw	s9,408(sp)

00000000800019d4 <i_1559>:
    800019d4:	006f0463          	beq	t5,t1,800019dc <i_1561>

00000000800019d8 <i_1560>:
    800019d8:	04612423          	sw	t1,72(sp)

00000000800019dc <i_1561>:
    800019dc:	eb912e23          	sw	s9,-324(sp)

00000000800019e0 <i_1562>:
    800019e0:	13013583          	ld	a1,304(sp)

00000000800019e4 <i_1563>:
    800019e4:	02500593          	li	a1,37

00000000800019e8 <i_1564>:
    800019e8:	40bcd433          	sra	s0,s9,a1

00000000800019ec <i_1565>:
    800019ec:	02b41463          	bne	s0,a1,80001a14 <i_1575>

00000000800019f0 <i_1566>:
    800019f0:	e5811583          	lh	a1,-424(sp)

00000000800019f4 <i_1567>:
    800019f4:	02b8c5bb          	divw	a1,a7,a1

00000000800019f8 <i_1568>:
    800019f8:	01c5de63          	ble	t3,a1,80001a14 <i_1575>

00000000800019fc <i_1569>:
    800019fc:	01015403          	lhu	s0,16(sp)

0000000080001a00 <i_1570>:
    80001a00:	00395913          	srli	s2,s2,0x3

0000000080001a04 <i_1571>:
    80001a04:	06016d03          	lwu	s10,96(sp)

0000000080001a08 <i_1572>:
    80001a08:	fbe15783          	lhu	a5,-66(sp)

0000000080001a0c <i_1573>:
    80001a0c:	00fe6863          	bltu	t3,a5,80001a1c <i_1577>

0000000080001a10 <i_1574>:
    80001a10:	fee15583          	lhu	a1,-18(sp)

0000000080001a14 <i_1575>:
    80001a14:	03e5d063          	ble	t5,a1,80001a34 <i_1583>

0000000080001a18 <i_1576>:
    80001a18:	1e214783          	lbu	a5,482(sp)

0000000080001a1c <i_1577>:
    80001a1c:	02f79d33          	mulh	s10,a5,a5

0000000080001a20 <i_1578>:
    80001a20:	7c47851b          	addiw	a0,a5,1988

0000000080001a24 <i_1579>:
    80001a24:	fba10783          	lb	a5,-70(sp)

0000000080001a28 <i_1580>:
    80001a28:	00000013          	nop

0000000080001a2c <i_1581>:
    80001a2c:	1e510c83          	lb	s9,485(sp)

0000000080001a30 <i_1582>:
    80001a30:	01e6b6b3          	sltu	a3,a3,t5

0000000080001a34 <i_1583>:
    80001a34:	f0512a23          	sw	t0,-236(sp)

0000000080001a38 <i_1584>:
    80001a38:	02d6e1b3          	rem	gp,a3,a3

0000000080001a3c <i_1585>:
    80001a3c:	77600d13          	li	s10,1910

0000000080001a40 <i_1586>:
    80001a40:	77b00b13          	li	s6,1915

0000000080001a44 <i_1587>:
    80001a44:	001d0d13          	addi	s10,s10,1 # ffffffff91757001 <_end+0xffffffff11746bed>
    80001a48:	ffab5ee3          	ble	s10,s6,80001a44 <i_1587>

0000000080001a4c <i_1588>:
    80001a4c:	15a10ea3          	sb	s10,349(sp)

0000000080001a50 <i_1589>:
    80001a50:	1a411d23          	sh	tp,442(sp)

0000000080001a54 <i_1590>:
    80001a54:	89a00213          	li	tp,-1894

0000000080001a58 <i_1591>:
    80001a58:	8ad00793          	li	a5,-1875

0000000080001a5c <i_1592>:
    80001a5c:	fd416a03          	lwu	s4,-44(sp)

0000000080001a60 <i_1593>:
    80001a60:	08411723          	sh	tp,142(sp)

0000000080001a64 <i_1594>:
    80001a64:	fde11b03          	lh	s6,-34(sp)

0000000080001a68 <i_1595>:
    80001a68:	00fc8463          	beq	s9,a5,80001a70 <i_1597>

0000000080001a6c <i_1596>:
    80001a6c:	6c71ce13          	xori	t3,gp,1735

0000000080001a70 <i_1597>:
    80001a70:	f9c13423          	sd	t3,-120(sp)

0000000080001a74 <i_1598>:
    80001a74:	40be0c33          	sub	s8,t3,a1

0000000080001a78 <i_1599>:
    80001a78:	fd810683          	lb	a3,-40(sp)

0000000080001a7c <i_1600>:
    80001a7c:	00120213          	addi	tp,tp,1 # 1 <main-0x7fffffff>
    80001a80:	fcf24ee3          	blt	tp,a5,80001a5c <i_1592>

0000000080001a84 <i_1601>:
    80001a84:	e8813783          	ld	a5,-376(sp)

0000000080001a88 <i_1602>:
    80001a88:	e4a11503          	lh	a0,-438(sp)

0000000080001a8c <i_1603>:
    80001a8c:	02a51063          	bne	a0,a0,80001aac <i_1611>

0000000080001a90 <i_1604>:
    80001a90:	00acca63          	blt	s9,a0,80001aa4 <i_1609>

0000000080001a94 <i_1605>:
    80001a94:	0db10c83          	lb	s9,219(sp)

0000000080001a98 <i_1606>:
    80001a98:	88750693          	addi	a3,a0,-1913 # ffffffffdb709887 <_end+0xffffffff5b6f9473>

0000000080001a9c <i_1607>:
    80001a9c:	0016dc93          	srli	s9,a3,0x1

0000000080001aa0 <i_1608>:
    80001aa0:	0396d263          	ble	s9,a3,80001ac4 <i_1617>

0000000080001aa4 <i_1609>:
    80001aa4:	03968063          	beq	a3,s9,80001ac4 <i_1617>

0000000080001aa8 <i_1610>:
    80001aa8:	0026969b          	slliw	a3,a3,0x2

0000000080001aac <i_1611>:
    80001aac:	12816f83          	lwu	t6,296(sp)

0000000080001ab0 <i_1612>:
    80001ab0:	01fce863          	bltu	s9,t6,80001ac0 <i_1616>

0000000080001ab4 <i_1613>:
    80001ab4:	02dfaab3          	mulhsu	s5,t6,a3

0000000080001ab8 <i_1614>:
    80001ab8:	09c10d03          	lb	s10,156(sp)

0000000080001abc <i_1615>:
    80001abc:	0352ad33          	mulhsu	s10,t0,s5

0000000080001ac0 <i_1616>:
    80001ac0:	01ad4a63          	blt	s10,s10,80001ad4 <i_1621>

0000000080001ac4 <i_1617>:
    80001ac4:	07813503          	ld	a0,120(sp)

0000000080001ac8 <i_1618>:
    80001ac8:	02a40463          	beq	s0,a0,80001af0 <i_1628>

0000000080001acc <i_1619>:
    80001acc:	ecc12a03          	lw	s4,-308(sp)

0000000080001ad0 <i_1620>:
    80001ad0:	0e415303          	lhu	t1,228(sp)

0000000080001ad4 <i_1621>:
    80001ad4:	00836433          	or	s0,t1,s0

0000000080001ad8 <i_1622>:
    80001ad8:	03435a33          	divu	s4,t1,s4

0000000080001adc <i_1623>:
    80001adc:	134103a3          	sb	s4,295(sp)

0000000080001ae0 <i_1624>:
    80001ae0:	01698cb3          	add	s9,s3,s6

0000000080001ae4 <i_1625>:
    80001ae4:	0029d993          	srli	s3,s3,0x2

0000000080001ae8 <i_1626>:
    80001ae8:	07015483          	lhu	s1,112(sp)

0000000080001aec <i_1627>:
    80001aec:	09611523          	sh	s6,138(sp)

0000000080001af0 <i_1628>:
    80001af0:	00000013          	nop

0000000080001af4 <i_1629>:
    80001af4:	00000013          	nop

0000000080001af8 <i_1630>:
    80001af8:	7cb00413          	li	s0,1995

0000000080001afc <i_1631>:
    80001afc:	7d900b13          	li	s6,2009

0000000080001b00 <i_1632>:
    80001b00:	04013983          	ld	s3,64(sp)

0000000080001b04 <i_1633>:
    80001b04:	00140413          	addi	s0,s0,1
    80001b08:	fe8b5ce3          	ble	s0,s6,80001b00 <i_1632>

0000000080001b0c <i_1634>:
    80001b0c:	19013f03          	ld	t5,400(sp)

0000000080001b10 <i_1635>:
    80001b10:	03acdcbb          	divuw	s9,s9,s10

0000000080001b14 <i_1636>:
    80001b14:	13812203          	lw	tp,312(sp)

0000000080001b18 <i_1637>:
    80001b18:	00420f33          	add	t5,tp,tp

0000000080001b1c <i_1638>:
    80001b1c:	4bbd0d13          	addi	s10,s10,1211

0000000080001b20 <i_1639>:
    80001b20:	00a21e63          	bne	tp,a0,80001b3c <i_1646>

0000000080001b24 <i_1640>:
    80001b24:	00700813          	li	a6,7

0000000080001b28 <i_1641>:
    80001b28:	410d523b          	sraw	tp,s10,a6

0000000080001b2c <i_1642>:
    80001b2c:	01027863          	bleu	a6,tp,80001b3c <i_1646>

0000000080001b30 <i_1643>:
    80001b30:	fc413423          	sd	tp,-56(sp)

0000000080001b34 <i_1644>:
    80001b34:	f6e14d03          	lbu	s10,-146(sp)

0000000080001b38 <i_1645>:
    80001b38:	0a813403          	ld	s0,168(sp)

0000000080001b3c <i_1646>:
    80001b3c:	19410983          	lb	s3,404(sp)

0000000080001b40 <i_1647>:
    80001b40:	03a9cd3b          	divw	s10,s3,s10

0000000080001b44 <i_1648>:
    80001b44:	ef914a03          	lbu	s4,-263(sp)

0000000080001b48 <i_1649>:
    80001b48:	03100393          	li	t2,49

0000000080001b4c <i_1650>:
    80001b4c:	007d5433          	srl	s0,s10,t2

0000000080001b50 <i_1651>:
    80001b50:	0344793b          	remuw	s2,s0,s4

0000000080001b54 <i_1652>:
    80001b54:	03a55dbb          	divuw	s11,a0,s10

0000000080001b58 <i_1653>:
    80001b58:	fb414603          	lbu	a2,-76(sp)

0000000080001b5c <i_1654>:
    80001b5c:	40445a13          	srai	s4,s0,0x4

0000000080001b60 <i_1655>:
    80001b60:	07a12823          	sw	s10,112(sp)

0000000080001b64 <i_1656>:
    80001b64:	0273dcb3          	divu	s9,t2,t2

0000000080001b68 <i_1657>:
    80001b68:	03a46b33          	rem	s6,s0,s10

0000000080001b6c <i_1658>:
    80001b6c:	01300093          	li	ra,19

0000000080001b70 <i_1659>:
    80001b70:	00199cbb          	sllw	s9,s3,ra

0000000080001b74 <i_1660>:
    80001b74:	02c38463          	beq	t2,a2,80001b9c <i_1670>

0000000080001b78 <i_1661>:
    80001b78:	4033de9b          	sraiw	t4,t2,0x3

0000000080001b7c <i_1662>:
    80001b7c:	efa11403          	lh	s0,-262(sp)

0000000080001b80 <i_1663>:
    80001b80:	02267263          	bleu	sp,a2,80001ba4 <i_1672>

0000000080001b84 <i_1664>:
    80001b84:	e8016a83          	lwu	s5,-384(sp)

0000000080001b88 <i_1665>:
    80001b88:	01aace63          	blt	s5,s10,80001ba4 <i_1672>

0000000080001b8c <i_1666>:
    80001b8c:	0394cfb3          	div	t6,s1,s9

0000000080001b90 <i_1667>:
    80001b90:	fc112423          	sw	ra,-56(sp)

0000000080001b94 <i_1668>:
    80001b94:	02cef833          	remu	a6,t4,a2

0000000080001b98 <i_1669>:
    80001b98:	f6813403          	ld	s0,-152(sp)

0000000080001b9c <i_1670>:
    80001b9c:	1bd10b23          	sb	t4,438(sp)

0000000080001ba0 <i_1671>:
    80001ba0:	01d87eb3          	and	t4,a6,t4

0000000080001ba4 <i_1672>:
    80001ba4:	0018181b          	slliw	a6,a6,0x1

0000000080001ba8 <i_1673>:
    80001ba8:	009ed863          	ble	s1,t4,80001bb8 <i_1677>

0000000080001bac <i_1674>:
    80001bac:	03de9063          	bne	t4,t4,80001bcc <i_1682>

0000000080001bb0 <i_1675>:
    80001bb0:	01d86c63          	bltu	a6,t4,80001bc8 <i_1681>

0000000080001bb4 <i_1676>:
    80001bb4:	e9d11223          	sh	t4,-380(sp)

0000000080001bb8 <i_1677>:
    80001bb8:	14814e83          	lbu	t4,328(sp)

0000000080001bbc <i_1678>:
    80001bbc:	030ed263          	ble	a6,t4,80001be0 <i_1687>

0000000080001bc0 <i_1679>:
    80001bc0:	030abeb3          	mulhu	t4,s5,a6

0000000080001bc4 <i_1680>:
    80001bc4:	03dee6b3          	rem	a3,t4,t4

0000000080001bc8 <i_1681>:
    80001bc8:	f5d13023          	sd	t4,-192(sp)

0000000080001bcc <i_1682>:
    80001bcc:	fc911723          	sh	s1,-50(sp)

0000000080001bd0 <i_1683>:
    80001bd0:	ede12623          	sw	t5,-308(sp)

0000000080001bd4 <i_1684>:
    80001bd4:	409280bb          	subw	ra,t0,s1

0000000080001bd8 <i_1685>:
    80001bd8:	f8611283          	lh	t0,-122(sp)

0000000080001bdc <i_1686>:
    80001bdc:	ea611903          	lh	s2,-346(sp)

0000000080001be0 <i_1687>:
    80001be0:	15111e23          	sh	a7,348(sp)

0000000080001be4 <i_1688>:
    80001be4:	09010903          	lb	s2,144(sp)

0000000080001be8 <i_1689>:
    80001be8:	7e200c13          	li	s8,2018

0000000080001bec <i_1690>:
    80001bec:	7f300293          	li	t0,2035

0000000080001bf0 <i_1691>:
    80001bf0:	fa410ba3          	sb	tp,-73(sp)

0000000080001bf4 <i_1692>:
    80001bf4:	00000013          	nop

0000000080001bf8 <i_1693>:
    80001bf8:	032c1063          	bne	s8,s2,80001c18 <i_1700>

0000000080001bfc <i_1694>:
    80001bfc:	00000013          	nop

0000000080001c00 <i_1695>:
    80001c00:	09810aa3          	sb	s8,149(sp)

0000000080001c04 <i_1696>:
    80001c04:	001c0c13          	addi	s8,s8,1
    80001c08:	ff82f4e3          	bleu	s8,t0,80001bf0 <i_1691>

0000000080001c0c <i_1697>:
    80001c0c:	00391b1b          	slliw	s6,s2,0x3

0000000080001c10 <i_1698>:
    80001c10:	0127fc33          	and	s8,a5,s2

0000000080001c14 <i_1699>:
    80001c14:	016c5863          	ble	s6,s8,80001c24 <i_1703>

0000000080001c18 <i_1700>:
    80001c18:	1e411c03          	lh	s8,484(sp)

0000000080001c1c <i_1701>:
    80001c1c:	ee811a03          	lh	s4,-280(sp)

0000000080001c20 <i_1702>:
    80001c20:	03ca4b33          	div	s6,s4,t3

0000000080001c24 <i_1703>:
    80001c24:	034b693b          	remw	s2,s6,s4

0000000080001c28 <i_1704>:
    80001c28:	014d6a63          	bltu	s10,s4,80001c3c <i_1709>

0000000080001c2c <i_1705>:
    80001c2c:	ed611223          	sh	s6,-316(sp)

0000000080001c30 <i_1706>:
    80001c30:	0074c3b3          	xor	t2,s1,t2

0000000080001c34 <i_1707>:
    80001c34:	036b5263          	ble	s6,s6,80001c58 <i_1716>

0000000080001c38 <i_1708>:
    80001c38:	eb9a6913          	ori	s2,s4,-327

0000000080001c3c <i_1709>:
    80001c3c:	01246c63          	bltu	s0,s2,80001c54 <i_1715>

0000000080001c40 <i_1710>:
    80001c40:	5233fb13          	andi	s6,t2,1315

0000000080001c44 <i_1711>:
    80001c44:	01815b03          	lhu	s6,24(sp)

0000000080001c48 <i_1712>:
    80001c48:	4129063b          	subw	a2,s2,s2

0000000080001c4c <i_1713>:
    80001c4c:	fcc11f23          	sh	a2,-34(sp)

0000000080001c50 <i_1714>:
    80001c50:	f9816b83          	lwu	s7,-104(sp)

0000000080001c54 <i_1715>:
    80001c54:	403b5c1b          	sraiw	s8,s6,0x3

0000000080001c58 <i_1716>:
    80001c58:	00c60e63          	beq	a2,a2,80001c74 <i_1723>

0000000080001c5c <i_1717>:
    80001c5c:	f1812a83          	lw	s5,-232(sp)

0000000080001c60 <i_1718>:
    80001c60:	0243e0b3          	rem	ra,t2,tp

0000000080001c64 <i_1719>:
    80001c64:	ed615a03          	lhu	s4,-298(sp)

0000000080001c68 <i_1720>:
    80001c68:	01b00213          	li	tp,27

0000000080001c6c <i_1721>:
    80001c6c:	4043df3b          	sraw	t5,t2,tp

0000000080001c70 <i_1722>:
    80001c70:	00cb8a63          	beq	s7,a2,80001c84 <i_1727>

0000000080001c74 <i_1723>:
    80001c74:	004ada1b          	srliw	s4,s5,0x4

0000000080001c78 <i_1724>:
    80001c78:	11e11f23          	sh	t5,286(sp)

0000000080001c7c <i_1725>:
    80001c7c:	00ec5e63          	ble	a4,s8,80001c98 <i_1732>

0000000080001c80 <i_1726>:
    80001c80:	15416783          	lwu	a5,340(sp)

0000000080001c84 <i_1727>:
    80001c84:	eb314b83          	lbu	s7,-333(sp)

0000000080001c88 <i_1728>:
    80001c88:	40f90bb3          	sub	s7,s2,a5

0000000080001c8c <i_1729>:
    80001c8c:	002f561b          	srliw	a2,t5,0x2

0000000080001c90 <i_1730>:
    80001c90:	004f151b          	slliw	a0,t5,0x4

0000000080001c94 <i_1731>:
    80001c94:	01ee5c63          	ble	t5,t3,80001cac <i_1737>

0000000080001c98 <i_1732>:
    80001c98:	03012a03          	lw	s4,48(sp)

0000000080001c9c <i_1733>:
    80001c9c:	01e60e63          	beq	a2,t5,80001cb8 <i_1740>

0000000080001ca0 <i_1734>:
    80001ca0:	f96107a3          	sb	s6,-113(sp)

0000000080001ca4 <i_1735>:
    80001ca4:	001b9a93          	slli	s5,s7,0x1

0000000080001ca8 <i_1736>:
    80001ca8:	a2890f1b          	addiw	t5,s2,-1496

0000000080001cac <i_1737>:
    80001cac:	03409263          	bne	ra,s4,80001cd0 <i_1746>

0000000080001cb0 <i_1738>:
    80001cb0:	17712023          	sw	s7,352(sp)

0000000080001cb4 <i_1739>:
    80001cb4:	8bfbb793          	sltiu	a5,s7,-1857

0000000080001cb8 <i_1740>:
    80001cb8:	1ca15783          	lhu	a5,458(sp)

0000000080001cbc <i_1741>:
    80001cbc:	08412b03          	lw	s6,132(sp)

0000000080001cc0 <i_1742>:
    80001cc0:	01e79c63          	bne	a5,t5,80001cd8 <i_1748>

0000000080001cc4 <i_1743>:
    80001cc4:	03e12623          	sw	t5,44(sp)

0000000080001cc8 <i_1744>:
    80001cc8:	48b7ff13          	andi	t5,a5,1163

0000000080001ccc <i_1745>:
    80001ccc:	09e12e23          	sw	t5,156(sp)

0000000080001cd0 <i_1746>:
    80001cd0:	028f4a13          	xori	s4,t5,40

0000000080001cd4 <i_1747>:
    80001cd4:	13e105a3          	sb	t5,299(sp)

0000000080001cd8 <i_1748>:
    80001cd8:	03478463          	beq	a5,s4,80001d00 <i_1758>

0000000080001cdc <i_1749>:
    80001cdc:	774f6393          	ori	t2,t5,1908

0000000080001ce0 <i_1750>:
    80001ce0:	f8f10223          	sb	a5,-124(sp)

0000000080001ce4 <i_1751>:
    80001ce4:	edb12a23          	sw	s11,-300(sp)

0000000080001ce8 <i_1752>:
    80001ce8:	03c11983          	lh	s3,60(sp)

0000000080001cec <i_1753>:
    80001cec:	034f7333          	remu	t1,t5,s4

0000000080001cf0 <i_1754>:
    80001cf0:	0397d263          	ble	s9,a5,80001d14 <i_1763>

0000000080001cf4 <i_1755>:
    80001cf4:	00bb4863          	blt	s6,a1,80001d04 <i_1759>

0000000080001cf8 <i_1756>:
    80001cf8:	016df463          	bleu	s6,s11,80001d00 <i_1758>

0000000080001cfc <i_1757>:
    80001cfc:	f9c12403          	lw	s0,-100(sp)

0000000080001d00 <i_1758>:
    80001d00:	f3b10f23          	sb	s11,-194(sp)

0000000080001d04 <i_1759>:
    80001d04:	40235a13          	srai	s4,t1,0x2

0000000080001d08 <i_1760>:
    80001d08:	038465b3          	rem	a1,s0,s8

0000000080001d0c <i_1761>:
    80001d0c:	0d311b23          	sh	s3,214(sp)

0000000080001d10 <i_1762>:
    80001d10:	0a813423          	sd	s0,168(sp)

0000000080001d14 <i_1763>:
    80001d14:	00000013          	nop

0000000080001d18 <i_1764>:
    80001d18:	ff314903          	lbu	s2,-13(sp)

0000000080001d1c <i_1765>:
    80001d1c:	73000693          	li	a3,1840

0000000080001d20 <i_1766>:
    80001d20:	74000413          	li	s0,1856

0000000080001d24 <i_1767>:
    80001d24:	02100913          	li	s2,33

0000000080001d28 <i_1768>:
    80001d28:	01295cb3          	srl	s9,s2,s2

0000000080001d2c <i_1769>:
    80001d2c:	00395263          	ble	gp,s2,80001d30 <i_1770>

0000000080001d30 <i_1770>:
    80001d30:	f5c14983          	lbu	s3,-164(sp)

0000000080001d34 <i_1771>:
    80001d34:	f7015d83          	lhu	s11,-144(sp)

0000000080001d38 <i_1772>:
    80001d38:	e7913c23          	sd	s9,-392(sp)

0000000080001d3c <i_1773>:
    80001d3c:	00000013          	nop

0000000080001d40 <i_1774>:
    80001d40:	00000013          	nop

0000000080001d44 <i_1775>:
    80001d44:	002db9b3          	sltu	s3,s11,sp

0000000080001d48 <i_1776>:
    80001d48:	0284cf3b          	divw	t5,s1,s0

0000000080001d4c <i_1777>:
    80001d4c:	f3611603          	lh	a2,-202(sp)

0000000080001d50 <i_1778>:
    80001d50:	e4314283          	lbu	t0,-445(sp)

0000000080001d54 <i_1779>:
    80001d54:	fd212e23          	sw	s2,-36(sp)

0000000080001d58 <i_1780>:
    80001d58:	0b912223          	sw	s9,164(sp)

0000000080001d5c <i_1781>:
    80001d5c:	00168693          	addi	a3,a3,1 # 2aead795 <main-0x5515286b>
    80001d60:	fc8692e3          	bne	a3,s0,80001d24 <i_1767>

0000000080001d64 <i_1782>:
    80001d64:	01016983          	lwu	s3,16(sp)

0000000080001d68 <i_1783>:
    80001d68:	01300c93          	li	s9,19

0000000080001d6c <i_1784>:
    80001d6c:	0195553b          	srlw	a0,a0,s9

0000000080001d70 <i_1785>:
    80001d70:	e6510ba3          	sb	t0,-393(sp)

0000000080001d74 <i_1786>:
    80001d74:	0397f7bb          	remuw	a5,a5,s9

0000000080001d78 <i_1787>:
    80001d78:	0197ccb3          	xor	s9,a5,s9

0000000080001d7c <i_1788>:
    80001d7c:	019787b3          	add	a5,a5,s9

0000000080001d80 <i_1789>:
    80001d80:	02fcecb3          	rem	s9,s9,a5

0000000080001d84 <i_1790>:
    80001d84:	019df463          	bleu	s9,s11,80001d8c <i_1792>

0000000080001d88 <i_1791>:
    80001d88:	e9614383          	lbu	t2,-362(sp)

0000000080001d8c <i_1792>:
    80001d8c:	019ce663          	bltu	s9,s9,80001d98 <i_1795>

0000000080001d90 <i_1793>:
    80001d90:	03ece463          	bltu	s9,t5,80001db8 <i_1803>

0000000080001d94 <i_1794>:
    80001d94:	12f13423          	sd	a5,296(sp)

0000000080001d98 <i_1795>:
    80001d98:	027cccb3          	div	s9,s9,t2

0000000080001d9c <i_1796>:
    80001d9c:	0273c263          	blt	t2,t2,80001dc0 <i_1805>

0000000080001da0 <i_1797>:
    80001da0:	002d9c93          	slli	s9,s11,0x2

0000000080001da4 <i_1798>:
    80001da4:	0073d863          	ble	t2,t2,80001db4 <i_1802>

0000000080001da8 <i_1799>:
    80001da8:	f1910ba3          	sb	s9,-233(sp)

0000000080001dac <i_1800>:
    80001dac:	0193b3b3          	sltu	t2,t2,s9

0000000080001db0 <i_1801>:
    80001db0:	17415c83          	lhu	s9,372(sp)

0000000080001db4 <i_1802>:
    80001db4:	16016e03          	lwu	t3,352(sp)

0000000080001db8 <i_1803>:
    80001db8:	e8c16983          	lwu	s3,-372(sp)

0000000080001dbc <i_1804>:
    80001dbc:	f5013c83          	ld	s9,-176(sp)

0000000080001dc0 <i_1805>:
    80001dc0:	018c86b3          	add	a3,s9,s8

0000000080001dc4 <i_1806>:
    80001dc4:	05215c83          	lhu	s9,82(sp)

0000000080001dc8 <i_1807>:
    80001dc8:	039683bb          	mulw	t2,a3,s9

0000000080001dcc <i_1808>:
    80001dcc:	0276d463          	ble	t2,a3,80001df4 <i_1818>

0000000080001dd0 <i_1809>:
    80001dd0:	02d3e263          	bltu	t2,a3,80001df4 <i_1818>

0000000080001dd4 <i_1810>:
    80001dd4:	0139f463          	bleu	s3,s3,80001ddc <i_1812>

0000000080001dd8 <i_1811>:
    80001dd8:	05312823          	sw	s3,80(sp)

0000000080001ddc <i_1812>:
    80001ddc:	19714c83          	lbu	s9,407(sp)

0000000080001de0 <i_1813>:
    80001de0:	02d10d23          	sb	a3,58(sp)

0000000080001de4 <i_1814>:
    80001de4:	00000013          	nop

0000000080001de8 <i_1815>:
    80001de8:	ea712e23          	sw	t2,-324(sp)

0000000080001dec <i_1816>:
    80001dec:	16015f83          	lhu	t6,352(sp)

0000000080001df0 <i_1817>:
    80001df0:	00000013          	nop

0000000080001df4 <i_1818>:
    80001df4:	1b013383          	ld	t2,432(sp)

0000000080001df8 <i_1819>:
    80001df8:	07811683          	lh	a3,120(sp)

0000000080001dfc <i_1820>:
    80001dfc:	89b00613          	li	a2,-1893

0000000080001e00 <i_1821>:
    80001e00:	8a400993          	li	s3,-1884

0000000080001e04 <i_1822>:
    80001e04:	18010803          	lb	a6,384(sp)

0000000080001e08 <i_1823>:
    80001e08:	18416a83          	lwu	s5,388(sp)

0000000080001e0c <i_1824>:
    80001e0c:	09012b83          	lw	s7,144(sp)

0000000080001e10 <i_1825>:
    80001e10:	02dfd063          	ble	a3,t6,80001e30 <i_1832>

0000000080001e14 <i_1826>:
    80001e14:	003a9813          	slli	a6,s5,0x3

0000000080001e18 <i_1827>:
    80001e18:	00160613          	addi	a2,a2,1 # 18eb95bd <main-0x67146a43>
    80001e1c:	fec9f4e3          	bleu	a2,s3,80001e04 <i_1822>

0000000080001e20 <i_1828>:
    80001e20:	010bc663          	blt	s7,a6,80001e2c <i_1831>

0000000080001e24 <i_1829>:
    80001e24:	19810b23          	sb	s8,406(sp)

0000000080001e28 <i_1830>:
    80001e28:	15a11083          	lh	ra,346(sp)

0000000080001e2c <i_1831>:
    80001e2c:	00d86663          	bltu	a6,a3,80001e38 <i_1834>

0000000080001e30 <i_1832>:
    80001e30:	03414a83          	lbu	s5,52(sp)

0000000080001e34 <i_1833>:
    80001e34:	eae15d03          	lhu	s10,-338(sp)

0000000080001e38 <i_1834>:
    80001e38:	ed513423          	sd	s5,-312(sp)

0000000080001e3c <i_1835>:
    80001e3c:	01000093          	li	ra,16

0000000080001e40 <i_1836>:
    80001e40:	001d5abb          	srlw	s5,s10,ra

0000000080001e44 <i_1837>:
    80001e44:	009a84b3          	add	s1,s5,s1

0000000080001e48 <i_1838>:
    80001e48:	f0910a23          	sb	s1,-236(sp)

0000000080001e4c <i_1839>:
    80001e4c:	03ad7063          	bleu	s10,s10,80001e6c <i_1847>

0000000080001e50 <i_1840>:
    80001e50:	00ca8633          	add	a2,s5,a2

0000000080001e54 <i_1841>:
    80001e54:	fe813603          	ld	a2,-24(sp)

0000000080001e58 <i_1842>:
    80001e58:	1c510a03          	lb	s4,453(sp)

0000000080001e5c <i_1843>:
    80001e5c:	00c60e63          	beq	a2,a2,80001e78 <i_1850>

0000000080001e60 <i_1844>:
    80001e60:	09611a83          	lh	s5,150(sp)

0000000080001e64 <i_1845>:
    80001e64:	02ca2633          	mulhsu	a2,s4,a2

0000000080001e68 <i_1846>:
    80001e68:	18c11223          	sh	a2,388(sp)

0000000080001e6c <i_1847>:
    80001e6c:	b0faaf93          	slti	t6,s5,-1265

0000000080001e70 <i_1848>:
    80001e70:	870a3f93          	sltiu	t6,s4,-1936

0000000080001e74 <i_1849>:
    80001e74:	18e11783          	lh	a5,398(sp)

0000000080001e78 <i_1850>:
    80001e78:	00c7ce63          	blt	a5,a2,80001e94 <i_1857>

0000000080001e7c <i_1851>:
    80001e7c:	03f685b3          	mul	a1,a3,t6

0000000080001e80 <i_1852>:
    80001e80:	e37a3f13          	sltiu	t5,s4,-457

0000000080001e84 <i_1853>:
    80001e84:	41ef0a33          	sub	s4,t5,t5

0000000080001e88 <i_1854>:
    80001e88:	00bf1863          	bne	t5,a1,80001e98 <i_1858>

0000000080001e8c <i_1855>:
    80001e8c:	00a2ee63          	bltu	t0,a0,80001ea8 <i_1862>

0000000080001e90 <i_1856>:
    80001e90:	006ee663          	bltu	t4,t1,80001e9c <i_1859>

0000000080001e94 <i_1857>:
    80001e94:	ed410aa3          	sb	s4,-299(sp)

0000000080001e98 <i_1858>:
    80001e98:	0046969b          	slliw	a3,a3,0x4

0000000080001e9c <i_1859>:
    80001e9c:	04a10fa3          	sb	a0,95(sp)

0000000080001ea0 <i_1860>:
    80001ea0:	02ba0263          	beq	s4,a1,80001ec4 <i_1869>

0000000080001ea4 <i_1861>:
    80001ea4:	01e5c863          	blt	a1,t5,80001eb4 <i_1865>

0000000080001ea8 <i_1862>:
    80001ea8:	00d58863          	beq	a1,a3,80001eb8 <i_1866>

0000000080001eac <i_1863>:
    80001eac:	02da3933          	mulhu	s2,s4,a3

0000000080001eb0 <i_1864>:
    80001eb0:	03118533          	mul	a0,gp,a7

0000000080001eb4 <i_1865>:
    80001eb4:	e9611283          	lh	t0,-362(sp)

0000000080001eb8 <i_1866>:
    80001eb8:	02b2533b          	divuw	t1,tp,a1

0000000080001ebc <i_1867>:
    80001ebc:	08d50c13          	addi	s8,a0,141

0000000080001ec0 <i_1868>:
    80001ec0:	01400093          	li	ra,20

0000000080001ec4 <i_1869>:
    80001ec4:	001a1433          	sll	s0,s4,ra

0000000080001ec8 <i_1870>:
    80001ec8:	13412823          	sw	s4,304(sp)

0000000080001ecc <i_1871>:
    80001ecc:	86800693          	li	a3,-1944

0000000080001ed0 <i_1872>:
    80001ed0:	86b00a93          	li	s5,-1941

0000000080001ed4 <i_1873>:
    80001ed4:	4036df93          	srai	t6,a3,0x3

0000000080001ed8 <i_1874>:
    80001ed8:	e9511223          	sh	s5,-380(sp)

0000000080001edc <i_1875>:
    80001edc:	ee214a03          	lbu	s4,-286(sp)

0000000080001ee0 <i_1876>:
    80001ee0:	00000013          	nop

0000000080001ee4 <i_1877>:
    80001ee4:	021fc0bb          	divw	ra,t6,ra

0000000080001ee8 <i_1878>:
    80001ee8:	13a15083          	lhu	ra,314(sp)

0000000080001eec <i_1879>:
    80001eec:	00168693          	addi	a3,a3,1
    80001ef0:	ff5692e3          	bne	a3,s5,80001ed4 <i_1873>

0000000080001ef4 <i_1880>:
    80001ef4:	f7013b83          	ld	s7,-144(sp)

0000000080001ef8 <i_1881>:
    80001ef8:	037a1463          	bne	s4,s7,80001f20 <i_1891>

0000000080001efc <i_1882>:
    80001efc:	001a6863          	bltu	s4,ra,80001f0c <i_1886>

0000000080001f00 <i_1883>:
    80001f00:	05013083          	ld	ra,80(sp)

0000000080001f04 <i_1884>:
    80001f04:	05211083          	lh	ra,82(sp)

0000000080001f08 <i_1885>:
    80001f08:	1bc10983          	lb	s3,444(sp)

0000000080001f0c <i_1886>:
    80001f0c:	00000013          	nop

0000000080001f10 <i_1887>:
    80001f10:	0f410c23          	sb	s4,248(sp)

0000000080001f14 <i_1888>:
    80001f14:	0346fb3b          	remuw	s6,a3,s4

0000000080001f18 <i_1889>:
    80001f18:	ef310a03          	lb	s4,-269(sp)

0000000080001f1c <i_1890>:
    80001f1c:	00000013          	nop

0000000080001f20 <i_1891>:
    80001f20:	001a5b9b          	srliw	s7,s4,0x1

0000000080001f24 <i_1892>:
    80001f24:	fd114e83          	lbu	t4,-47(sp)

0000000080001f28 <i_1893>:
    80001f28:	8c600693          	li	a3,-1850

0000000080001f2c <i_1894>:
    80001f2c:	8d100093          	li	ra,-1839

0000000080001f30 <i_1895>:
    80001f30:	e8013983          	ld	s3,-384(sp)

0000000080001f34 <i_1896>:
    80001f34:	00168693          	addi	a3,a3,1
    80001f38:	fe169ce3          	bne	a3,ra,80001f30 <i_1895>

0000000080001f3c <i_1897>:
    80001f3c:	001e9093          	slli	ra,t4,0x1

0000000080001f40 <i_1898>:
    80001f40:	fd411603          	lh	a2,-44(sp)

0000000080001f44 <i_1899>:
    80001f44:	413a0a3b          	subw	s4,s4,s3

0000000080001f48 <i_1900>:
    80001f48:	03d62eb3          	mulhsu	t4,a2,t4

0000000080001f4c <i_1901>:
    80001f4c:	12012e03          	lw	t3,288(sp)

0000000080001f50 <i_1902>:
    80001f50:	03c12603          	lw	a2,60(sp)

0000000080001f54 <i_1903>:
    80001f54:	01260933          	add	s2,a2,s2

0000000080001f58 <i_1904>:
    80001f58:	02d606bb          	mulw	a3,a2,a3

0000000080001f5c <i_1905>:
    80001f5c:	fe815683          	lhu	a3,-24(sp)

0000000080001f60 <i_1906>:
    80001f60:	40d6833b          	subw	t1,a3,a3

0000000080001f64 <i_1907>:
    80001f64:	01513423          	sd	s5,8(sp)

0000000080001f68 <i_1908>:
    80001f68:	15412d83          	lw	s11,340(sp)

0000000080001f6c <i_1909>:
    80001f6c:	86f00b93          	li	s7,-1937

0000000080001f70 <i_1910>:
    80001f70:	87800313          	li	t1,-1928

0000000080001f74 <i_1911>:
    80001f74:	00013483          	ld	s1,0(sp)

0000000080001f78 <i_1912>:
    80001f78:	fca11283          	lh	t0,-54(sp)

0000000080001f7c <i_1913>:
    80001f7c:	87700093          	li	ra,-1929

0000000080001f80 <i_1914>:
    80001f80:	88300693          	li	a3,-1917

0000000080001f84 <i_1915>:
    80001f84:	00108093          	addi	ra,ra,1
    80001f88:	fed0eee3          	bltu	ra,a3,80001f84 <i_1915>

0000000080001f8c <i_1916>:
    80001f8c:	ef712223          	sw	s7,-284(sp)

0000000080001f90 <i_1917>:
    80001f90:	ad40e213          	ori	tp,ra,-1324

0000000080001f94 <i_1918>:
    80001f94:	fd713423          	sd	s7,-56(sp)

0000000080001f98 <i_1919>:
    80001f98:	02929463          	bne	t0,s1,80001fc0 <i_1928>

0000000080001f9c <i_1920>:
    80001f9c:	ec416283          	lwu	t0,-316(sp)

0000000080001fa0 <i_1921>:
    80001fa0:	11711123          	sh	s7,258(sp)

0000000080001fa4 <i_1922>:
    80001fa4:	405204b3          	sub	s1,tp,t0

0000000080001fa8 <i_1923>:
    80001fa8:	001b8b93          	addi	s7,s7,1
    80001fac:	fd7374e3          	bleu	s7,t1,80001f74 <i_1911>

0000000080001fb0 <i_1924>:
    80001fb0:	ef813183          	ld	gp,-264(sp)

0000000080001fb4 <i_1925>:
    80001fb4:	f3712a23          	sw	s7,-204(sp)

0000000080001fb8 <i_1926>:
    80001fb8:	e4e11203          	lh	tp,-434(sp)

0000000080001fbc <i_1927>:
    80001fbc:	0b011583          	lh	a1,176(sp)

0000000080001fc0 <i_1928>:
    80001fc0:	1d411503          	lh	a0,468(sp)

0000000080001fc4 <i_1929>:
    80001fc4:	07411b83          	lh	s7,116(sp)

0000000080001fc8 <i_1930>:
    80001fc8:	06b13c23          	sd	a1,120(sp)

0000000080001fcc <i_1931>:
    80001fcc:	1dc15283          	lhu	t0,476(sp)

0000000080001fd0 <i_1932>:
    80001fd0:	62e2a793          	slti	a5,t0,1582

0000000080001fd4 <i_1933>:
    80001fd4:	00f7d463          	ble	a5,a5,80001fdc <i_1935>

0000000080001fd8 <i_1934>:
    80001fd8:	08812783          	lw	a5,136(sp)

0000000080001fdc <i_1935>:
    80001fdc:	fcc28b13          	addi	s6,t0,-52

0000000080001fe0 <i_1936>:
    80001fe0:	00f2c863          	blt	t0,a5,80001ff0 <i_1940>

0000000080001fe4 <i_1937>:
    80001fe4:	0cf11b23          	sh	a5,214(sp)

0000000080001fe8 <i_1938>:
    80001fe8:	0012b0b3          	sltu	ra,t0,ra

0000000080001fec <i_1939>:
    80001fec:	11ea7a13          	andi	s4,s4,286

0000000080001ff0 <i_1940>:
    80001ff0:	e9110a03          	lb	s4,-367(sp)

0000000080001ff4 <i_1941>:
    80001ff4:	00000013          	nop

0000000080001ff8 <i_1942>:
    80001ff8:	e89101a3          	sb	s1,-381(sp)

0000000080001ffc <i_1943>:
    80001ffc:	76e00093          	li	ra,1902

0000000080002000 <i_1944>:
    80002000:	77200c93          	li	s9,1906

0000000080002004 <i_1945>:
    80002004:	6fccaa13          	slti	s4,s9,1788

0000000080002008 <i_1946>:
    80002008:	e5413023          	sd	s4,-448(sp)

000000008000200c <i_1947>:
    8000200c:	ee314503          	lbu	a0,-285(sp)

0000000080002010 <i_1948>:
    80002010:	fa110223          	sb	ra,-92(sp)

0000000080002014 <i_1949>:
    80002014:	00108093          	addi	ra,ra,1
    80002018:	fe1cd6e3          	ble	ra,s9,80002004 <i_1945>

000000008000201c <i_1950>:
    8000201c:	0c013a03          	ld	s4,192(sp)

0000000080002020 <i_1951>:
    80002020:	006a6463          	bltu	s4,t1,80002028 <i_1953>

0000000080002024 <i_1952>:
    80002024:	e8a10fa3          	sb	a0,-353(sp)

0000000080002028 <i_1953>:
    80002028:	01937333          	and	t1,t1,s9

000000008000202c <i_1954>:
    8000202c:	039a5263          	ble	s9,s4,80002050 <i_1963>

0000000080002030 <i_1955>:
    80002030:	4036db13          	srai	s6,a3,0x3

0000000080002034 <i_1956>:
    80002034:	10611c23          	sh	t1,280(sp)

0000000080002038 <i_1957>:
    80002038:	19c16c83          	lwu	s9,412(sp)

000000008000203c <i_1958>:
    8000203c:	01410cb3          	add	s9,sp,s4

0000000080002040 <i_1959>:
    80002040:	019f0cb3          	add	s9,t5,s9

0000000080002044 <i_1960>:
    80002044:	019f2ab3          	slt	s5,t5,s9

0000000080002048 <i_1961>:
    80002048:	16c16403          	lwu	s0,364(sp)

000000008000204c <i_1962>:
    8000204c:	ef016d83          	lwu	s11,-272(sp)

0000000080002050 <i_1963>:
    80002050:	10812823          	sw	s0,272(sp)

0000000080002054 <i_1964>:
    80002054:	f1614e83          	lbu	t4,-234(sp)

0000000080002058 <i_1965>:
    80002058:	8c600b13          	li	s6,-1850

000000008000205c <i_1966>:
    8000205c:	8d300f13          	li	t5,-1837

0000000080002060 <i_1967>:
    80002060:	1cc16c83          	lwu	s9,460(sp)

0000000080002064 <i_1968>:
    80002064:	01700d93          	li	s11,23

0000000080002068 <i_1969>:
    80002068:	41b45dbb          	sraw	s11,s0,s11

000000008000206c <i_1970>:
    8000206c:	fa013903          	ld	s2,-96(sp)

0000000080002070 <i_1971>:
    80002070:	02860fbb          	mulw	t6,a2,s0

0000000080002074 <i_1972>:
    80002074:	001b0b13          	addi	s6,s6,1
    80002078:	ffeb64e3          	bltu	s6,t5,80002060 <i_1967>

000000008000207c <i_1973>:
    8000207c:	e4c11303          	lh	t1,-436(sp)

0000000080002080 <i_1974>:
    80002080:	004d9e13          	slli	t3,s11,0x4

0000000080002084 <i_1975>:
    80002084:	83900b13          	li	s6,-1991

0000000080002088 <i_1976>:
    80002088:	83d00d93          	li	s11,-1987

000000008000208c <i_1977>:
    8000208c:	1d612423          	sw	s6,456(sp)

0000000080002090 <i_1978>:
    80002090:	00000013          	nop

0000000080002094 <i_1979>:
    80002094:	01be6463          	bltu	t3,s11,8000209c <i_1981>

0000000080002098 <i_1980>:
    80002098:	00fe4863          	blt	t3,a5,800020a8 <i_1984>

000000008000209c <i_1981>:
    8000209c:	ec811d23          	sh	s0,-294(sp)

00000000800020a0 <i_1982>:
    800020a0:	ff016403          	lwu	s0,-16(sp)

00000000800020a4 <i_1983>:
    800020a4:	e8813423          	sd	s0,-376(sp)

00000000800020a8 <i_1984>:
    800020a8:	e9110983          	lb	s3,-367(sp)

00000000800020ac <i_1985>:
    800020ac:	0139be33          	sltu	t3,s3,s3

00000000800020b0 <i_1986>:
    800020b0:	e5611e03          	lh	t3,-426(sp)

00000000800020b4 <i_1987>:
    800020b4:	ffc103a3          	sb	t3,-25(sp)

00000000800020b8 <i_1988>:
    800020b8:	001b0b13          	addi	s6,s6,1
    800020bc:	fdbb68e3          	bltu	s6,s11,8000208c <i_1977>

00000000800020c0 <i_1989>:
    800020c0:	05214e03          	lbu	t3,82(sp)

00000000800020c4 <i_1990>:
    800020c4:	55c30e13          	addi	t3,t1,1372

00000000800020c8 <i_1991>:
    800020c8:	010e0863          	beq	t3,a6,800020d8 <i_1995>

00000000800020cc <i_1992>:
    800020cc:	ec012383          	lw	t2,-320(sp)

00000000800020d0 <i_1993>:
    800020d0:	15f10f03          	lb	t5,351(sp)

00000000800020d4 <i_1994>:
    800020d4:	038e0eb3          	mul	t4,t3,s8

00000000800020d8 <i_1995>:
    800020d8:	f5016803          	lwu	a6,-176(sp)

00000000800020dc <i_1996>:
    800020dc:	03cf24b3          	mulhsu	s1,t5,t3

00000000800020e0 <i_1997>:
    800020e0:	01a00513          	li	a0,26

00000000800020e4 <i_1998>:
    800020e4:	00a813b3          	sll	t2,a6,a0

00000000800020e8 <i_1999>:
    800020e8:	02a5453b          	divw	a0,a0,a0

00000000800020ec <i_2000>:
    800020ec:	06913c23          	sd	s1,120(sp)

00000000800020f0 <i_2001>:
    800020f0:	fb813803          	ld	a6,-72(sp)

00000000800020f4 <i_2002>:
    800020f4:	ece15483          	lhu	s1,-306(sp)

00000000800020f8 <i_2003>:
    800020f8:	0094cc63          	blt	s1,s1,80002110 <i_2009>

00000000800020fc <i_2004>:
    800020fc:	fd811f83          	lh	t6,-40(sp)

0000000080002100 <i_2005>:
    80002100:	fce15183          	lhu	gp,-50(sp)

0000000080002104 <i_2006>:
    80002104:	ffb14783          	lbu	a5,-5(sp)

0000000080002108 <i_2007>:
    80002108:	004a919b          	slliw	gp,s5,0x4

000000008000210c <i_2008>:
    8000210c:	09016183          	lwu	gp,144(sp)

0000000080002110 <i_2009>:
    80002110:	00000013          	nop

0000000080002114 <i_2010>:
    80002114:	eda15a03          	lhu	s4,-294(sp)

0000000080002118 <i_2011>:
    80002118:	75300493          	li	s1,1875

000000008000211c <i_2012>:
    8000211c:	75600613          	li	a2,1878

0000000080002120 <i_2013>:
    80002120:	02c1aab3          	mulhsu	s5,gp,a2

0000000080002124 <i_2014>:
    80002124:	0151b7b3          	sltu	a5,gp,s5

0000000080002128 <i_2015>:
    80002128:	1cf103a3          	sb	a5,455(sp)

000000008000212c <i_2016>:
    8000212c:	01165463          	ble	a7,a2,80002134 <i_2018>

0000000080002130 <i_2017>:
    80002130:	1c911b23          	sh	s1,470(sp)

0000000080002134 <i_2018>:
    80002134:	ee814a83          	lbu	s5,-280(sp)

0000000080002138 <i_2019>:
    80002138:	10210623          	sb	sp,268(sp)

000000008000213c <i_2020>:
    8000213c:	14416e83          	lwu	t4,324(sp)

0000000080002140 <i_2021>:
    80002140:	034ef33b          	remuw	t1,t4,s4

0000000080002144 <i_2022>:
    80002144:	03400313          	li	t1,52

0000000080002148 <i_2023>:
    80002148:	006edab3          	srl	s5,t4,t1

000000008000214c <i_2024>:
    8000214c:	0013531b          	srliw	t1,t1,0x1

0000000080002150 <i_2025>:
    80002150:	15512223          	sw	s5,324(sp)

0000000080002154 <i_2026>:
    80002154:	02012b83          	lw	s7,32(sp)

0000000080002158 <i_2027>:
    80002158:	40630333          	sub	t1,t1,t1

000000008000215c <i_2028>:
    8000215c:	00148493          	addi	s1,s1,1 # 17cab001 <main-0x68354fff>
    80002160:	fc9650e3          	ble	s1,a2,80002120 <i_2013>

0000000080002164 <i_2029>:
    80002164:	190d8d9b          	addiw	s11,s11,400

0000000080002168 <i_2030>:
    80002168:	026bbbb3          	mulhu	s7,s7,t1

000000008000216c <i_2031>:
    8000216c:	0b611e03          	lh	t3,182(sp)

0000000080002170 <i_2032>:
    80002170:	02c00d93          	li	s11,44

0000000080002174 <i_2033>:
    80002174:	41b9d9b3          	sra	s3,s3,s11

0000000080002178 <i_2034>:
    80002178:	e9416283          	lwu	t0,-364(sp)

000000008000217c <i_2035>:
    8000217c:	e5c11383          	lh	t2,-420(sp)

0000000080002180 <i_2036>:
    80002180:	ef713423          	sd	s7,-280(sp)

0000000080002184 <i_2037>:
    80002184:	f8813e03          	ld	t3,-120(sp)

0000000080002188 <i_2038>:
    80002188:	ee114e03          	lbu	t3,-287(sp)

000000008000218c <i_2039>:
    8000218c:	f7b11823          	sh	s11,-144(sp)

0000000080002190 <i_2040>:
    80002190:	e3b12423          	sw	s11,-472(sp)

0000000080002194 <i_2041>:
    80002194:	03d9c263          	blt	s3,t4,800021b8 <i_2050>

0000000080002198 <i_2042>:
    80002198:	fb010603          	lb	a2,-80(sp)

000000008000219c <i_2043>:
    8000219c:	0081fe63          	bleu	s0,gp,800021b8 <i_2050>

00000000800021a0 <i_2044>:
    800021a0:	ea513823          	sd	t0,-336(sp)

00000000800021a4 <i_2045>:
    800021a4:	e6c12603          	lw	a2,-404(sp)

00000000800021a8 <i_2046>:
    800021a8:	17416203          	lwu	tp,372(sp)

00000000800021ac <i_2047>:
    800021ac:	07c16c83          	lwu	s9,124(sp)

00000000800021b0 <i_2048>:
    800021b0:	93f42413          	slti	s0,s0,-1729

00000000800021b4 <i_2049>:
    800021b4:	00000013          	nop

00000000800021b8 <i_2050>:
    800021b8:	7c2c8f13          	addi	t5,s9,1986

00000000800021bc <i_2051>:
    800021bc:	0c713c23          	sd	t2,216(sp)

00000000800021c0 <i_2052>:
    800021c0:	74800393          	li	t2,1864

00000000800021c4 <i_2053>:
    800021c4:	74e00293          	li	t0,1870

00000000800021c8 <i_2054>:
    800021c8:	ea511f23          	sh	t0,-322(sp)

00000000800021cc <i_2055>:
    800021cc:	00138393          	addi	t2,t2,1 # ef344bd5 <_end+0x6f3347c1>
    800021d0:	fe72dce3          	ble	t2,t0,800021c8 <i_2054>

00000000800021d4 <i_2056>:
    800021d4:	007cea63          	bltu	s9,t2,800021e8 <i_2061>

00000000800021d8 <i_2057>:
    800021d8:	01affd33          	and	s10,t6,s10

00000000800021dc <i_2058>:
    800021dc:	028d0263          	beq	s10,s0,80002200 <i_2067>

00000000800021e0 <i_2059>:
    800021e0:	03c00a13          	li	s4,60

00000000800021e4 <i_2060>:
    800021e4:	414d5d33          	sra	s10,s10,s4

00000000800021e8 <i_2061>:
    800021e8:	17a11d03          	lh	s10,378(sp)

00000000800021ec <i_2062>:
    800021ec:	02cd5d3b          	divuw	s10,s10,a2

00000000800021f0 <i_2063>:
    800021f0:	fe410d03          	lb	s10,-28(sp)

00000000800021f4 <i_2064>:
    800021f4:	009d7863          	bleu	s1,s10,80002204 <i_2068>

00000000800021f8 <i_2065>:
    800021f8:	f6211d83          	lh	s11,-158(sp)

00000000800021fc <i_2066>:
    800021fc:	03bdf463          	bleu	s11,s11,80002224 <i_2076>

0000000080002200 <i_2067>:
    80002200:	03ad0bb3          	mul	s7,s10,s10

0000000080002204 <i_2068>:
    80002204:	03711023          	sh	s7,32(sp)

0000000080002208 <i_2069>:
    80002208:	013d0263          	beq	s10,s3,8000220c <i_2070>

000000008000220c <i_2070>:
    8000220c:	021f70b3          	remu	ra,t5,ra

0000000080002210 <i_2071>:
    80002210:	00000013          	nop

0000000080002214 <i_2072>:
    80002214:	16016503          	lwu	a0,352(sp)

0000000080002218 <i_2073>:
    80002218:	03a52d33          	mulhsu	s10,a0,s10

000000008000221c <i_2074>:
    8000221c:	eea11d83          	lh	s11,-278(sp)

0000000080002220 <i_2075>:
    80002220:	f6c16d83          	lwu	s11,-148(sp)

0000000080002224 <i_2076>:
    80002224:	00000013          	nop

0000000080002228 <i_2077>:
    80002228:	f1411603          	lh	a2,-236(sp)

000000008000222c <i_2078>:
    8000222c:	85100a93          	li	s5,-1967

0000000080002230 <i_2079>:
    80002230:	86200993          	li	s3,-1950

0000000080002234 <i_2080>:
    80002234:	e9711723          	sh	s7,-370(sp)

0000000080002238 <i_2081>:
    80002238:	0d610d03          	lb	s10,214(sp)

000000008000223c <i_2082>:
    8000223c:	8ce00b93          	li	s7,-1842

0000000080002240 <i_2083>:
    80002240:	8d200913          	li	s2,-1838

0000000080002244 <i_2084>:
    80002244:	001b8b93          	addi	s7,s7,1
    80002248:	ff2b9ee3          	bne	s7,s2,80002244 <i_2084>

000000008000224c <i_2085>:
    8000224c:	02c73933          	mulhu	s2,a4,a2

0000000080002250 <i_2086>:
    80002250:	02910603          	lb	a2,41(sp)

0000000080002254 <i_2087>:
    80002254:	001a8a93          	addi	s5,s5,1
    80002258:	fd59dee3          	ble	s5,s3,80002234 <i_2080>

000000008000225c <i_2088>:
    8000225c:	03467633          	remu	a2,a2,s4

0000000080002260 <i_2089>:
    80002260:	0016161b          	slliw	a2,a2,0x1

0000000080002264 <i_2090>:
    80002264:	f3a15603          	lhu	a2,-198(sp)

0000000080002268 <i_2091>:
    80002268:	02c2b2b3          	mulhu	t0,t0,a2

000000008000226c <i_2092>:
    8000226c:	f8813b03          	ld	s6,-120(sp)

0000000080002270 <i_2093>:
    80002270:	1e416b83          	lwu	s7,484(sp)

0000000080002274 <i_2094>:
    80002274:	0046561b          	srliw	a2,a2,0x4

0000000080002278 <i_2095>:
    80002278:	0213e3b3          	rem	t2,t2,ra

000000008000227c <i_2096>:
    8000227c:	01c00393          	li	t2,28

0000000080002280 <i_2097>:
    80002280:	4073d3bb          	sraw	t2,t2,t2

0000000080002284 <i_2098>:
    80002284:	16416383          	lwu	t2,356(sp)

0000000080002288 <i_2099>:
    80002288:	fce12223          	sw	a4,-60(sp)

000000008000228c <i_2100>:
    8000228c:	00739263          	bne	t2,t2,80002290 <i_2101>

0000000080002290 <i_2101>:
    80002290:	0393f463          	bleu	s9,t2,800022b8 <i_2111>

0000000080002294 <i_2102>:
    80002294:	00700393          	li	t2,7

0000000080002298 <i_2103>:
    80002298:	407b5b3b          	sraw	s6,s6,t2

000000008000229c <i_2104>:
    8000229c:	0070b9b3          	sltu	s3,ra,t2

00000000800022a0 <i_2105>:
    800022a0:	03f38263          	beq	t2,t6,800022c4 <i_2114>

00000000800022a4 <i_2106>:
    800022a4:	10c12083          	lw	ra,268(sp)

00000000800022a8 <i_2107>:
    800022a8:	016b6c63          	bltu	s6,s6,800022c0 <i_2113>

00000000800022ac <i_2108>:
    800022ac:	001e7c63          	bleu	ra,t3,800022c4 <i_2114>

00000000800022b0 <i_2109>:
    800022b0:	0a812183          	lw	gp,168(sp)

00000000800022b4 <i_2110>:
    800022b4:	01100093          	li	ra,17

00000000800022b8 <i_2111>:
    800022b8:	001b1bbb          	sllw	s7,s6,ra

00000000800022bc <i_2112>:
    800022bc:	0210d233          	divu	tp,ra,ra

00000000800022c0 <i_2113>:
    800022c0:	00d00993          	li	s3,13

00000000800022c4 <i_2114>:
    800022c4:	4130d9bb          	sraw	s3,ra,s3

00000000800022c8 <i_2115>:
    800022c8:	03398263          	beq	s3,s3,800022ec <i_2124>

00000000800022cc <i_2116>:
    800022cc:	f6210aa3          	sb	sp,-139(sp)

00000000800022d0 <i_2117>:
    800022d0:	01100993          	li	s3,17

00000000800022d4 <i_2118>:
    800022d4:	0139d9b3          	srl	s3,s3,s3

00000000800022d8 <i_2119>:
    800022d8:	013c29b3          	slt	s3,s8,s3

00000000800022dc <i_2120>:
    800022dc:	0339d263          	ble	s3,s3,80002300 <i_2129>

00000000800022e0 <i_2121>:
    800022e0:	02813d83          	ld	s11,40(sp)

00000000800022e4 <i_2122>:
    800022e4:	ed513423          	sd	s5,-312(sp)

00000000800022e8 <i_2123>:
    800022e8:	0339edbb          	remw	s11,s3,s3

00000000800022ec <i_2124>:
    800022ec:	07b11b23          	sh	s11,118(sp)

00000000800022f0 <i_2125>:
    800022f0:	e2215983          	lhu	s3,-478(sp)

00000000800022f4 <i_2126>:
    800022f4:	e7310ca3          	sb	s3,-391(sp)

00000000800022f8 <i_2127>:
    800022f8:	1be12223          	sw	t5,420(sp)

00000000800022fc <i_2128>:
    800022fc:	00000013          	nop

0000000080002300 <i_2129>:
    80002300:	0159cab3          	xor	s5,s3,s5

0000000080002304 <i_2130>:
    80002304:	13813983          	ld	s3,312(sp)

0000000080002308 <i_2131>:
    80002308:	73100193          	li	gp,1841

000000008000230c <i_2132>:
    8000230c:	73800f13          	li	t5,1848

0000000080002310 <i_2133>:
    80002310:	07510323          	sb	s5,102(sp)

0000000080002314 <i_2134>:
    80002314:	08815683          	lhu	a3,136(sp)

0000000080002318 <i_2135>:
    80002318:	7da00993          	li	s3,2010

000000008000231c <i_2136>:
    8000231c:	7ee00913          	li	s2,2030

0000000080002320 <i_2137>:
    80002320:	03a96833          	rem	a6,s2,s10

0000000080002324 <i_2138>:
    80002324:	f3815203          	lhu	tp,-200(sp)

0000000080002328 <i_2139>:
    80002328:	62197093          	andi	ra,s2,1569

000000008000232c <i_2140>:
    8000232c:	a461a693          	slti	a3,gp,-1466

0000000080002330 <i_2141>:
    80002330:	0f513c23          	sd	s5,248(sp)

0000000080002334 <i_2142>:
    80002334:	00198993          	addi	s3,s3,1
    80002338:	ff3954e3          	ble	s3,s2,80002320 <i_2137>

000000008000233c <i_2143>:
    8000233c:	00000013          	nop

0000000080002340 <i_2144>:
    80002340:	4aa6a813          	slti	a6,a3,1194

0000000080002344 <i_2145>:
    80002344:	00118193          	addi	gp,gp,1
    80002348:	fde194e3          	bne	gp,t5,80002310 <i_2133>

000000008000234c <i_2146>:
    8000234c:	01e6dc63          	ble	t5,a3,80002364 <i_2152>

0000000080002350 <i_2147>:
    80002350:	01700d93          	li	s11,23

0000000080002354 <i_2148>:
    80002354:	41bb5b3b          	sraw	s6,s6,s11

0000000080002358 <i_2149>:
    80002358:	01ea8a63          	beq	s5,t5,8000236c <i_2154>

000000008000235c <i_2150>:
    8000235c:	14111523          	sh	ra,330(sp)

0000000080002360 <i_2151>:
    80002360:	002a9f93          	slli	t6,s5,0x2

0000000080002364 <i_2152>:
    80002364:	03346063          	bltu	s0,s3,80002384 <i_2160>

0000000080002368 <i_2153>:
    80002368:	03f94463          	blt	s2,t6,80002390 <i_2163>

000000008000236c <i_2154>:
    8000236c:	01400f93          	li	t6,20

0000000080002370 <i_2155>:
    80002370:	01fad933          	srl	s2,s5,t6

0000000080002374 <i_2156>:
    80002374:	4155aa93          	slti	s5,a1,1045

0000000080002378 <i_2157>:
    80002378:	001fd39b          	srliw	t2,t6,0x1

000000008000237c <i_2158>:
    8000237c:	e6215c03          	lhu	s8,-414(sp)

0000000080002380 <i_2159>:
    80002380:	f3810f23          	sb	s8,-194(sp)

0000000080002384 <i_2160>:
    80002384:	00b38bb3          	add	s7,t2,a1

0000000080002388 <i_2161>:
    80002388:	fc812483          	lw	s1,-56(sp)

000000008000238c <i_2162>:
    8000238c:	00000013          	nop

0000000080002390 <i_2163>:
    80002390:	16a12623          	sw	a0,364(sp)

0000000080002394 <i_2164>:
    80002394:	10812683          	lw	a3,264(sp)

0000000080002398 <i_2165>:
    80002398:	82200513          	li	a0,-2014

000000008000239c <i_2166>:
    8000239c:	83300593          	li	a1,-1997

00000000800023a0 <i_2167>:
    800023a0:	00000013          	nop

00000000800023a4 <i_2168>:
    800023a4:	cffbe493          	ori	s1,s7,-769

00000000800023a8 <i_2169>:
    800023a8:	15211483          	lh	s1,338(sp)

00000000800023ac <i_2170>:
    800023ac:	f5310b03          	lb	s6,-173(sp)

00000000800023b0 <i_2171>:
    800023b0:	00a3ce63          	blt	t2,a0,800023cc <i_2177>

00000000800023b4 <i_2172>:
    800023b4:	00012283          	lw	t0,0(sp)

00000000800023b8 <i_2173>:
    800023b8:	00150513          	addi	a0,a0,1
    800023bc:	fea5d2e3          	ble	a0,a1,800023a0 <i_2167>

00000000800023c0 <i_2174>:
    800023c0:	02d68263          	beq	a3,a3,800023e4 <i_2183>

00000000800023c4 <i_2175>:
    800023c4:	14a100a3          	sb	a0,321(sp)

00000000800023c8 <i_2176>:
    800023c8:	01657a63          	bleu	s6,a0,800023dc <i_2181>

00000000800023cc <i_2177>:
    800023cc:	00ac7263          	bleu	a0,s8,800023d0 <i_2178>

00000000800023d0 <i_2178>:
    800023d0:	0f211083          	lh	ra,242(sp)

00000000800023d4 <i_2179>:
    800023d4:	00969863          	bne	a3,s1,800023e4 <i_2183>

00000000800023d8 <i_2180>:
    800023d8:	0273cbbb          	divw	s7,t2,t2

00000000800023dc <i_2181>:
    800023dc:	00aa4863          	blt	s4,a0,800023ec <i_2185>

00000000800023e0 <i_2182>:
    800023e0:	e3f10503          	lb	a0,-449(sp)

00000000800023e4 <i_2183>:
    800023e4:	01dce2b3          	or	t0,s9,t4

00000000800023e8 <i_2184>:
    800023e8:	12513823          	sd	t0,304(sp)

00000000800023ec <i_2185>:
    800023ec:	1e112423          	sw	ra,488(sp)

00000000800023f0 <i_2186>:
    800023f0:	18314b83          	lbu	s7,387(sp)

00000000800023f4 <i_2187>:
    800023f4:	f3713c23          	sd	s7,-200(sp)

00000000800023f8 <i_2188>:
    800023f8:	15314f83          	lbu	t6,339(sp)

00000000800023fc <i_2189>:
    800023fc:	037b8063          	beq	s7,s7,8000241c <i_2197>

0000000080002400 <i_2190>:
    80002400:	08e11283          	lh	t0,142(sp)

0000000080002404 <i_2191>:
    80002404:	017fee63          	bltu	t6,s7,80002420 <i_2198>

0000000080002408 <i_2192>:
    80002408:	f6112a23          	sw	ra,-140(sp)

000000008000240c <i_2193>:
    8000240c:	1c914903          	lbu	s2,457(sp)

0000000080002410 <i_2194>:
    80002410:	0dc13023          	sd	t3,192(sp)

0000000080002414 <i_2195>:
    80002414:	013cf263          	bleu	s3,s9,80002418 <i_2196>

0000000080002418 <i_2196>:
    80002418:	01d00b93          	li	s7,29

000000008000241c <i_2197>:
    8000241c:	417bd93b          	sraw	s2,s7,s7

0000000080002420 <i_2198>:
    80002420:	a9490f9b          	addiw	t6,s2,-1388

0000000080002424 <i_2199>:
    80002424:	eda11f83          	lh	t6,-294(sp)

0000000080002428 <i_2200>:
    80002428:	00314463          	blt	sp,gp,80002430 <i_2202>

000000008000242c <i_2201>:
    8000242c:	fca15303          	lhu	t1,-54(sp)

0000000080002430 <i_2202>:
    80002430:	e4012f83          	lw	t6,-448(sp)

0000000080002434 <i_2203>:
    80002434:	026fd1bb          	divuw	gp,t6,t1

0000000080002438 <i_2204>:
    80002438:	01f1d663          	ble	t6,gp,80002444 <i_2207>

000000008000243c <i_2205>:
    8000243c:	eea11183          	lh	gp,-278(sp)

0000000080002440 <i_2206>:
    80002440:	10611e23          	sh	t1,284(sp)

0000000080002444 <i_2207>:
    80002444:	00900513          	li	a0,9

0000000080002448 <i_2208>:
    80002448:	00a191bb          	sllw	gp,gp,a0

000000008000244c <i_2209>:
    8000244c:	13c11383          	lh	t2,316(sp)

0000000080002450 <i_2210>:
    80002450:	00a181b3          	add	gp,gp,a0

0000000080002454 <i_2211>:
    80002454:	17015e83          	lhu	t4,368(sp)

0000000080002458 <i_2212>:
    80002458:	f9812303          	lw	t1,-104(sp)

000000008000245c <i_2213>:
    8000245c:	e6a11423          	sh	a0,-408(sp)

0000000080002460 <i_2214>:
    80002460:	1d514503          	lbu	a0,469(sp)

0000000080002464 <i_2215>:
    80002464:	00319513          	slli	a0,gp,0x3

0000000080002468 <i_2216>:
    80002468:	00a31a63          	bne	t1,a0,8000247c <i_2221>

000000008000246c <i_2217>:
    8000246c:	00a13423          	sd	a0,8(sp)

0000000080002470 <i_2218>:
    80002470:	f3d12623          	sw	t4,-212(sp)

0000000080002474 <i_2219>:
    80002474:	0273f463          	bleu	t2,t2,8000249c <i_2229>

0000000080002478 <i_2220>:
    80002478:	1d511f23          	sh	s5,478(sp)

000000008000247c <i_2221>:
    8000247c:	00000013          	nop

0000000080002480 <i_2222>:
    80002480:	1d342397          	auipc	t2,0x1d342

0000000080002484 <i_2223>:
    80002484:	17211203          	lh	tp,370(sp)

0000000080002488 <i_2224>:
    80002488:	1c054193          	xori	gp,a0,448

000000008000248c <i_2225>:
    8000248c:	eb923313          	sltiu	t1,tp,-327

0000000080002490 <i_2226>:
    80002490:	00000013          	nop

0000000080002494 <i_2227>:
    80002494:	e7d10823          	sb	t4,-400(sp)

0000000080002498 <i_2228>:
    80002498:	02700493          	li	s1,39

000000008000249c <i_2229>:
    8000249c:	00925d33          	srl	s10,tp,s1

00000000800024a0 <i_2230>:
    800024a0:	f6310023          	sb	gp,-160(sp)

00000000800024a4 <i_2231>:
    800024a4:	80b00513          	li	a0,-2037

00000000800024a8 <i_2232>:
    800024a8:	81f00e93          	li	t4,-2017

00000000800024ac <i_2233>:
    800024ac:	00150513          	addi	a0,a0,1
    800024b0:	ffd51ee3          	bne	a0,t4,800024ac <i_2233>

00000000800024b4 <i_2234>:
    800024b4:	0ba11503          	lh	a0,186(sp)

00000000800024b8 <i_2235>:
    800024b8:	00a20c63          	beq	tp,a0,800024d0 <i_2241>

00000000800024bc <i_2236>:
    800024bc:	032d7933          	remu	s2,s10,s2

00000000800024c0 <i_2237>:
    800024c0:	00000013          	nop

00000000800024c4 <i_2238>:
    800024c4:	09213c23          	sd	s2,152(sp)

00000000800024c8 <i_2239>:
    800024c8:	00000013          	nop

00000000800024cc <i_2240>:
    800024cc:	001d1e93          	slli	t4,s10,0x1

00000000800024d0 <i_2241>:
    800024d0:	00000013          	nop

00000000800024d4 <i_2242>:
    800024d4:	1b212423          	sw	s2,424(sp)

00000000800024d8 <i_2243>:
    800024d8:	82f00d13          	li	s10,-2001

00000000800024dc <i_2244>:
    800024dc:	83800d93          	li	s11,-1992

00000000800024e0 <i_2245>:
    800024e0:	402d5e9b          	sraiw	t4,s10,0x2

00000000800024e4 <i_2246>:
    800024e4:	e6013903          	ld	s2,-416(sp)

00000000800024e8 <i_2247>:
    800024e8:	01bde463          	bltu	s11,s11,800024f0 <i_2249>

00000000800024ec <i_2248>:
    800024ec:	04110e83          	lb	t4,65(sp)

00000000800024f0 <i_2249>:
    800024f0:	e6910483          	lb	s1,-407(sp)

00000000800024f4 <i_2250>:
    800024f4:	f1013c03          	ld	s8,-240(sp)

00000000800024f8 <i_2251>:
    800024f8:	03d4d463          	ble	t4,s1,80002520 <i_2260>

00000000800024fc <i_2252>:
    800024fc:	00100613          	li	a2,1

0000000080002500 <i_2253>:
    80002500:	40c4d4bb          	sraw	s1,s1,a2

0000000080002504 <i_2254>:
    80002504:	00100613          	li	a2,1

0000000080002508 <i_2255>:
    80002508:	40c159b3          	sra	s3,sp,a2

000000008000250c <i_2256>:
    8000250c:	0334e663          	bltu	s1,s3,80002538 <i_2266>

0000000080002510 <i_2257>:
    80002510:	001d0d13          	addi	s10,s10,1
    80002514:	fdad96e3          	bne	s11,s10,800024e0 <i_2245>

0000000080002518 <i_2258>:
    80002518:	2d098993          	addi	s3,s3,720

000000008000251c <i_2259>:
    8000251c:	113100a3          	sb	s3,257(sp)

0000000080002520 <i_2260>:
    80002520:	4010d993          	srai	s3,ra,0x1

0000000080002524 <i_2261>:
    80002524:	00c00993          	li	s3,12

0000000080002528 <i_2262>:
    80002528:	0130d9bb          	srlw	s3,ra,s3

000000008000252c <i_2263>:
    8000252c:	01399a63          	bne	s3,s3,80002540 <i_2268>

0000000080002530 <i_2264>:
    80002530:	00131e63          	bne	t1,ra,8000254c <i_2271>

0000000080002534 <i_2265>:
    80002534:	fe013683          	ld	a3,-32(sp)

0000000080002538 <i_2266>:
    80002538:	0139ca63          	blt	s3,s3,8000254c <i_2271>

000000008000253c <i_2267>:
    8000253c:	e2f14903          	lbu	s2,-465(sp)

0000000080002540 <i_2268>:
    80002540:	01295263          	ble	s2,s2,80002544 <i_2269>

0000000080002544 <i_2269>:
    80002544:	009924b3          	slt	s1,s2,s1

0000000080002548 <i_2270>:
    80002548:	01500313          	li	t1,21

000000008000254c <i_2271>:
    8000254c:	40695eb3          	sra	t4,s2,t1

0000000080002550 <i_2272>:
    80002550:	f3415e83          	lhu	t4,-204(sp)

0000000080002554 <i_2273>:
    80002554:	004ed41b          	srliw	s0,t4,0x4

0000000080002558 <i_2274>:
    80002558:	04a11183          	lh	gp,74(sp)

000000008000255c <i_2275>:
    8000255c:	00946eb3          	or	t4,s0,s1

0000000080002560 <i_2276>:
    80002560:	1e615a83          	lhu	s5,486(sp)

0000000080002564 <i_2277>:
    80002564:	40365693          	srai	a3,a2,0x3

0000000080002568 <i_2278>:
    80002568:	02400593          	li	a1,36

000000008000256c <i_2279>:
    8000256c:	00bad6b3          	srl	a3,s5,a1

0000000080002570 <i_2280>:
    80002570:	01546a63          	bltu	s0,s5,80002584 <i_2285>

0000000080002574 <i_2281>:
    80002574:	0cd12423          	sw	a3,200(sp)

0000000080002578 <i_2282>:
    80002578:	e2b10683          	lb	a3,-469(sp)

000000008000257c <i_2283>:
    8000257c:	00dace63          	blt	s5,a3,80002598 <i_2290>

0000000080002580 <i_2284>:
    80002580:	08c10403          	lb	s0,140(sp)

0000000080002584 <i_2285>:
    80002584:	12412c83          	lw	s9,292(sp)

0000000080002588 <i_2286>:
    80002588:	03940a33          	mul	s4,s0,s9

000000008000258c <i_2287>:
    8000258c:	e8c109a3          	sb	a2,-365(sp)

0000000080002590 <i_2288>:
    80002590:	01c109b3          	add	s3,sp,t3

0000000080002594 <i_2289>:
    80002594:	03ad0933          	mul	s2,s10,s10

0000000080002598 <i_2290>:
    80002598:	07012a83          	lw	s5,112(sp)

000000008000259c <i_2291>:
    8000259c:	00000013          	nop

00000000800025a0 <i_2292>:
    800025a0:	7cc00493          	li	s1,1996

00000000800025a4 <i_2293>:
    800025a4:	7d200613          	li	a2,2002

00000000800025a8 <i_2294>:
    800025a8:	033c8bbb          	mulw	s7,s9,s3

00000000800025ac <i_2295>:
    800025ac:	0d815d83          	lhu	s11,216(sp)

00000000800025b0 <i_2296>:
    800025b0:	682be993          	ori	s3,s7,1666

00000000800025b4 <i_2297>:
    800025b4:	fa710b83          	lb	s7,-89(sp)

00000000800025b8 <i_2298>:
    800025b8:	0379fbbb          	remuw	s7,s3,s7

00000000800025bc <i_2299>:
    800025bc:	401ad993          	srai	s3,s5,0x1

00000000800025c0 <i_2300>:
    800025c0:	00148493          	addi	s1,s1,1
    800025c4:	fe9672e3          	bleu	s1,a2,800025a8 <i_2294>

00000000800025c8 <i_2301>:
    800025c8:	e5b105a3          	sb	s11,-437(sp)

00000000800025cc <i_2302>:
    800025cc:	0b910a83          	lb	s5,185(sp)

00000000800025d0 <i_2303>:
    800025d0:	027a86bb          	mulw	a3,s5,t2

00000000800025d4 <i_2304>:
    800025d4:	f7713423          	sd	s7,-152(sp)

00000000800025d8 <i_2305>:
    800025d8:	032bd063          	ble	s2,s7,800025f8 <i_2313>

00000000800025dc <i_2306>:
    800025dc:	f5510fa3          	sb	s5,-161(sp)

00000000800025e0 <i_2307>:
    800025e0:	033af463          	bleu	s3,s5,80002608 <i_2317>

00000000800025e4 <i_2308>:
    800025e4:	037df9bb          	remuw	s3,s11,s7

00000000800025e8 <i_2309>:
    800025e8:	ffa10483          	lb	s1,-6(sp)

00000000800025ec <i_2310>:
    800025ec:	fed13023          	sd	a3,-32(sp)

00000000800025f0 <i_2311>:
    800025f0:	fad12e23          	sw	a3,-68(sp)

00000000800025f4 <i_2312>:
    800025f4:	11a3ea93          	ori	s5,t2,282

00000000800025f8 <i_2313>:
    800025f8:	00000013          	nop

00000000800025fc <i_2314>:
    800025fc:	0024d693          	srli	a3,s1,0x2

0000000080002600 <i_2315>:
    80002600:	00000013          	nop

0000000080002604 <i_2316>:
    80002604:	e6416e03          	lwu	t3,-412(sp)

0000000080002608 <i_2317>:
    80002608:	03c3fe33          	remu	t3,t2,t3

000000008000260c <i_2318>:
    8000260c:	0016da93          	srli	s5,a3,0x1

0000000080002610 <i_2319>:
    80002610:	80600e93          	li	t4,-2042

0000000080002614 <i_2320>:
    80002614:	81700393          	li	t2,-2025

0000000080002618 <i_2321>:
    80002618:	15416a83          	lwu	s5,340(sp)

000000008000261c <i_2322>:
    8000261c:	00d9fe63          	bleu	a3,s3,80002638 <i_2328>

0000000080002620 <i_2323>:
    80002620:	40908dbb          	subw	s11,ra,s1

0000000080002624 <i_2324>:
    80002624:	001e8e93          	addi	t4,t4,1
    80002628:	ffd3f8e3          	bleu	t4,t2,80002618 <i_2321>

000000008000262c <i_2325>:
    8000262c:	014dda63          	ble	s4,s11,80002640 <i_2330>

0000000080002630 <i_2326>:
    80002630:	01a14603          	lbu	a2,26(sp)

0000000080002634 <i_2327>:
    80002634:	e4212623          	sw	sp,-436(sp)

0000000080002638 <i_2328>:
    80002638:	f4011983          	lh	s3,-192(sp)

000000008000263c <i_2329>:
    8000263c:	ef416903          	lwu	s2,-268(sp)

0000000080002640 <i_2330>:
    80002640:	1a011e83          	lh	t4,416(sp)

0000000080002644 <i_2331>:
    80002644:	0079fa63          	bleu	t2,s3,80002658 <i_2336>

0000000080002648 <i_2332>:
    80002648:	e7816403          	lwu	s0,-392(sp)

000000008000264c <i_2333>:
    8000264c:	0076c663          	blt	a3,t2,80002658 <i_2336>

0000000080002650 <i_2334>:
    80002650:	015ac263          	blt	s5,s5,80002654 <i_2335>

0000000080002654 <i_2335>:
    80002654:	0b114c83          	lbu	s9,177(sp)

0000000080002658 <i_2336>:
    80002658:	4049d513          	srai	a0,s3,0x4

000000008000265c <i_2337>:
    8000265c:	02de73b3          	remu	t2,t3,a3

0000000080002660 <i_2338>:
    80002660:	0337edbb          	remw	s11,a5,s3

0000000080002664 <i_2339>:
    80002664:	15a12223          	sw	s10,324(sp)

0000000080002668 <i_2340>:
    80002668:	eaa15d03          	lhu	s10,-342(sp)

000000008000266c <i_2341>:
    8000266c:	009d40b3          	xor	ra,s10,s1

0000000080002670 <i_2342>:
    80002670:	fc816383          	lwu	t2,-56(sp)

0000000080002674 <i_2343>:
    80002674:	00e00393          	li	t2,14

0000000080002678 <i_2344>:
    80002678:	4073d3bb          	sraw	t2,t2,t2

000000008000267c <i_2345>:
    8000267c:	8a100d93          	li	s11,-1887

0000000080002680 <i_2346>:
    80002680:	8ad00293          	li	t0,-1875

0000000080002684 <i_2347>:
    80002684:	0363cb3b          	divw	s6,t2,s6

0000000080002688 <i_2348>:
    80002688:	00c3ca63          	blt	t2,a2,8000269c <i_2353>

000000008000268c <i_2349>:
    8000268c:	039b4f3b          	divw	t5,s6,s9

0000000080002690 <i_2350>:
    80002690:	0d013383          	ld	t2,208(sp)

0000000080002694 <i_2351>:
    80002694:	00af6e63          	bltu	t5,a0,800026b0 <i_2358>

0000000080002698 <i_2352>:
    80002698:	13813c83          	ld	s9,312(sp)

000000008000269c <i_2353>:
    8000269c:	aaaf0f1b          	addiw	t5,t5,-1366

00000000800026a0 <i_2354>:
    800026a0:	007f1863          	bne	t5,t2,800026b0 <i_2358>

00000000800026a4 <i_2355>:
    800026a4:	ef015203          	lhu	tp,-272(sp)

00000000800026a8 <i_2356>:
    800026a8:	10e11a83          	lh	s5,270(sp)

00000000800026ac <i_2357>:
    800026ac:	024f6063          	bltu	t5,tp,800026cc <i_2364>

00000000800026b0 <i_2358>:
    800026b0:	039d6c33          	rem	s8,s10,s9

00000000800026b4 <i_2359>:
    800026b4:	01ef4233          	xor	tp,t5,t5

00000000800026b8 <i_2360>:
    800026b8:	ede12823          	sw	t5,-304(sp)

00000000800026bc <i_2361>:
    800026bc:	001d8d93          	addi	s11,s11,1 # 4240c001 <main-0x3dbf3fff>
    800026c0:	fdb2f2e3          	bleu	s11,t0,80002684 <i_2347>

00000000800026c4 <i_2362>:
    800026c4:	099637b7          	lui	a5,0x9963

00000000800026c8 <i_2363>:
    800026c8:	038f3f33          	mulhu	t5,t5,s8

00000000800026cc <i_2364>:
    800026cc:	018c1a63          	bne	s8,s8,800026e0 <i_2369>

00000000800026d0 <i_2365>:
    800026d0:	19c11a83          	lh	s5,412(sp)

00000000800026d4 <i_2366>:
    800026d4:	00000013          	nop

00000000800026d8 <i_2367>:
    800026d8:	12013683          	ld	a3,288(sp)

00000000800026dc <i_2368>:
    800026dc:	e8b10923          	sb	a1,-366(sp)

00000000800026e0 <i_2369>:
    800026e0:	ef015c03          	lhu	s8,-272(sp)

00000000800026e4 <i_2370>:
    800026e4:	00900c93          	li	s9,9

00000000800026e8 <i_2371>:
    800026e8:	419e5e3b          	sraw	t3,t3,s9

00000000800026ec <i_2372>:
    800026ec:	7b100f13          	li	t5,1969

00000000800026f0 <i_2373>:
    800026f0:	7c200593          	li	a1,1986

00000000800026f4 <i_2374>:
    800026f4:	0395c063          	blt	a1,s9,80002714 <i_2382>

00000000800026f8 <i_2375>:
    800026f8:	18b109a3          	sb	a1,403(sp)

00000000800026fc <i_2376>:
    800026fc:	0391f1bb          	remuw	gp,gp,s9

0000000080002700 <i_2377>:
    80002700:	0145ec63          	bltu	a1,s4,80002718 <i_2383>

0000000080002704 <i_2378>:
    80002704:	0181c863          	blt	gp,s8,80002714 <i_2382>

0000000080002708 <i_2379>:
    80002708:	00000013          	nop

000000008000270c <i_2380>:
    8000270c:	ed913423          	sd	s9,-312(sp)

0000000080002710 <i_2381>:
    80002710:	0d813023          	sd	s8,192(sp)

0000000080002714 <i_2382>:
    80002714:	03e15d83          	lhu	s11,62(sp)

0000000080002718 <i_2383>:
    80002718:	ffc12d83          	lw	s11,-4(sp)

000000008000271c <i_2384>:
    8000271c:	00c00993          	li	s3,12

0000000080002720 <i_2385>:
    80002720:	413c50b3          	sra	ra,s8,s3

0000000080002724 <i_2386>:
    80002724:	001f0f13          	addi	t5,t5,1 # b86a3971 <_end+0x3869355d>
    80002728:	fcbf64e3          	bltu	t5,a1,800026f0 <i_2373>

000000008000272c <i_2387>:
    8000272c:	00000013          	nop

0000000080002730 <i_2388>:
    80002730:	00000013          	nop

0000000080002734 <i_2389>:
    80002734:	8a200193          	li	gp,-1886

0000000080002738 <i_2390>:
    80002738:	8ab00a13          	li	s4,-1877

000000008000273c <i_2391>:
    8000273c:	05314d83          	lbu	s11,83(sp)

0000000080002740 <i_2392>:
    80002740:	bc81ee93          	ori	t4,gp,-1080

0000000080002744 <i_2393>:
    80002744:	0199feb3          	and	t4,s3,s9

0000000080002748 <i_2394>:
    80002748:	53f1b697          	auipc	a3,0x53f1b

000000008000274c <i_2395>:
    8000274c:	f6d13023          	sd	a3,-160(sp)

0000000080002750 <i_2396>:
    80002750:	0236e6bb          	remw	a3,a3,gp

0000000080002754 <i_2397>:
    80002754:	023d59b3          	divu	s3,s10,gp

0000000080002758 <i_2398>:
    80002758:	1d611d03          	lh	s10,470(sp)

000000008000275c <i_2399>:
    8000275c:	00118193          	addi	gp,gp,1
    80002760:	fc3a7ee3          	bleu	gp,s4,8000273c <i_2391>

0000000080002764 <i_2400>:
    80002764:	00d9ad33          	slt	s10,s3,a3

0000000080002768 <i_2401>:
    80002768:	004d0cb3          	add	s9,s10,tp

000000008000276c <i_2402>:
    8000276c:	0029db9b          	srliw	s7,s3,0x2

0000000080002770 <i_2403>:
    80002770:	0e813203          	ld	tp,232(sp)

0000000080002774 <i_2404>:
    80002774:	01cb9863          	bne	s7,t3,80002784 <i_2408>

0000000080002778 <i_2405>:
    80002778:	01975663          	ble	s9,a4,80002784 <i_2408>

000000008000277c <i_2406>:
    8000277c:	03786bbb          	remw	s7,a6,s7

0000000080002780 <i_2407>:
    80002780:	037c9bb3          	mulh	s7,s9,s7

0000000080002784 <i_2408>:
    80002784:	d54bc493          	xori	s1,s7,-684

0000000080002788 <i_2409>:
    80002788:	00000013          	nop

000000008000278c <i_2410>:
    8000278c:	85f00213          	li	tp,-1953

0000000080002790 <i_2411>:
    80002790:	86600c93          	li	s9,-1946

0000000080002794 <i_2412>:
    80002794:	00000013          	nop

0000000080002798 <i_2413>:
    80002798:	0ee11783          	lh	a5,238(sp)

000000008000279c <i_2414>:
    8000279c:	02f40663          	beq	s0,a5,800027c8 <i_2424>

00000000800027a0 <i_2415>:
    800027a0:	e5011783          	lh	a5,-432(sp)

00000000800027a4 <i_2416>:
    800027a4:	00120213          	addi	tp,tp,1 # 1 <main-0x7fffffff>
    800027a8:	ff9216e3          	bne	tp,s9,80002794 <i_2412>

00000000800027ac <i_2417>:
    800027ac:	1ac15b83          	lhu	s7,428(sp)

00000000800027b0 <i_2418>:
    800027b0:	07016983          	lwu	s3,112(sp)

00000000800027b4 <i_2419>:
    800027b4:	2e7e4cb7          	lui	s9,0x2e7e4

00000000800027b8 <i_2420>:
    800027b8:	15016e03          	lwu	t3,336(sp)

00000000800027bc <i_2421>:
    800027bc:	fc013c83          	ld	s9,-64(sp)

00000000800027c0 <i_2422>:
    800027c0:	e3813023          	sd	s8,-480(sp)

00000000800027c4 <i_2423>:
    800027c4:	01b00993          	li	s3,27

00000000800027c8 <i_2424>:
    800027c8:	0139d23b          	srlw	tp,s3,s3

00000000800027cc <i_2425>:
    800027cc:	03900993          	li	s3,57

00000000800027d0 <i_2426>:
    800027d0:	01325c33          	srl	s8,tp,s3

00000000800027d4 <i_2427>:
    800027d4:	033c4463          	blt	s8,s3,800027fc <i_2437>

00000000800027d8 <i_2428>:
    800027d8:	1d811723          	sh	s8,462(sp)

00000000800027dc <i_2429>:
    800027dc:	11610483          	lb	s1,278(sp)

00000000800027e0 <i_2430>:
    800027e0:	0247453b          	divw	a0,a4,tp

00000000800027e4 <i_2431>:
    800027e4:	e5812223          	sw	s8,-444(sp)

00000000800027e8 <i_2432>:
    800027e8:	02a15603          	lhu	a2,42(sp)

00000000800027ec <i_2433>:
    800027ec:	fc714483          	lbu	s1,-57(sp)

00000000800027f0 <i_2434>:
    800027f0:	02c64e3b          	divw	t3,a2,a2

00000000800027f4 <i_2435>:
    800027f4:	e4013203          	ld	tp,-448(sp)

00000000800027f8 <i_2436>:
    800027f8:	ed013483          	ld	s1,-304(sp)

00000000800027fc <i_2437>:
    800027fc:	e6811503          	lh	a0,-408(sp)

0000000080002800 <i_2438>:
    80002800:	0047121b          	slliw	tp,a4,0x4

0000000080002804 <i_2439>:
    80002804:	8ac00c13          	li	s8,-1876

0000000080002808 <i_2440>:
    80002808:	8bf00993          	li	s3,-1857

000000008000280c <i_2441>:
    8000280c:	001c0c13          	addi	s8,s8,1
    80002810:	ff3c6ee3          	bltu	s8,s3,8000280c <i_2441>

0000000080002814 <i_2442>:
    80002814:	e6013503          	ld	a0,-416(sp)

0000000080002818 <i_2443>:
    80002818:	0045529b          	srliw	t0,a0,0x4

000000008000281c <i_2444>:
    8000281c:	e9c13423          	sd	t3,-376(sp)

0000000080002820 <i_2445>:
    80002820:	f4c12c23          	sw	a2,-168(sp)

0000000080002824 <i_2446>:
    80002824:	11816903          	lwu	s2,280(sp)

0000000080002828 <i_2447>:
    80002828:	005a7d33          	and	s10,s4,t0

000000008000282c <i_2448>:
    8000282c:	4652a293          	slti	t0,t0,1125

0000000080002830 <i_2449>:
    80002830:	4032d51b          	sraiw	a0,t0,0x3

0000000080002834 <i_2450>:
    80002834:	01b00513          	li	a0,27

0000000080002838 <i_2451>:
    80002838:	00a95b3b          	srlw	s6,s2,a0

000000008000283c <i_2452>:
    8000283c:	7ca00293          	li	t0,1994

0000000080002840 <i_2453>:
    80002840:	7cf00a13          	li	s4,1999

0000000080002844 <i_2454>:
    80002844:	01000b13          	li	s6,16

0000000080002848 <i_2455>:
    80002848:	0169593b          	srlw	s2,s2,s6

000000008000284c <i_2456>:
    8000284c:	00000013          	nop

0000000080002850 <i_2457>:
    80002850:	1e811b03          	lh	s6,488(sp)

0000000080002854 <i_2458>:
    80002854:	012904b3          	add	s1,s2,s2

0000000080002858 <i_2459>:
    80002858:	00c00593          	li	a1,12

000000008000285c <i_2460>:
    8000285c:	00b090bb          	sllw	ra,ra,a1

0000000080002860 <i_2461>:
    80002860:	00128293          	addi	t0,t0,1
    80002864:	fd429ee3          	bne	t0,s4,80002840 <i_2453>

0000000080002868 <i_2462>:
    80002868:	0125feb3          	and	t4,a1,s2

000000008000286c <i_2463>:
    8000286c:	032e8bbb          	mulw	s7,t4,s2

0000000080002870 <i_2464>:
    80002870:	00a27863          	bleu	a0,tp,80002880 <i_2468>

0000000080002874 <i_2465>:
    80002874:	03649533          	mulh	a0,s1,s6

0000000080002878 <i_2466>:
    80002878:	05215403          	lhu	s0,82(sp)

000000008000287c <i_2467>:
    8000287c:	03397bbb          	remuw	s7,s2,s3

0000000080002880 <i_2468>:
    80002880:	014b9863          	bne	s7,s4,80002890 <i_2472>

0000000080002884 <i_2469>:
    80002884:	07410923          	sb	s4,114(sp)

0000000080002888 <i_2470>:
    80002888:	00af9e63          	bne	t6,a0,800028a4 <i_2477>

000000008000288c <i_2471>:
    8000288c:	03643433          	mulhu	s0,s0,s6

0000000080002890 <i_2472>:
    80002890:	ebe10b83          	lb	s7,-322(sp)

0000000080002894 <i_2473>:
    80002894:	01500c13          	li	s8,21

0000000080002898 <i_2474>:
    80002898:	0182da33          	srl	s4,t0,s8

000000008000289c <i_2475>:
    8000289c:	16a10503          	lb	a0,362(sp)

00000000800028a0 <i_2476>:
    800028a0:	003f1f1b          	slliw	t5,t5,0x3

00000000800028a4 <i_2477>:
    800028a4:	0d012383          	lw	t2,208(sp)

00000000800028a8 <i_2478>:
    800028a8:	45e43393          	sltiu	t2,s0,1118

00000000800028ac <i_2479>:
    800028ac:	b7c8a417          	auipc	s0,0xb7c8a

00000000800028b0 <i_2480>:
    800028b0:	00241f1b          	slliw	t5,s0,0x2

00000000800028b4 <i_2481>:
    800028b4:	01790bb3          	add	s7,s2,s7

00000000800028b8 <i_2482>:
    800028b8:	fd813423          	sd	s8,-56(sp)

00000000800028bc <i_2483>:
    800028bc:	3673841b          	addiw	s0,t2,871

00000000800028c0 <i_2484>:
    800028c0:	0a810903          	lb	s2,168(sp)

00000000800028c4 <i_2485>:
    800028c4:	1c813c23          	sd	s0,472(sp)

00000000800028c8 <i_2486>:
    800028c8:	0a813c23          	sd	s0,184(sp)

00000000800028cc <i_2487>:
    800028cc:	41138933          	sub	s2,t2,a7

00000000800028d0 <i_2488>:
    800028d0:	05410283          	lb	t0,84(sp)

00000000800028d4 <i_2489>:
    800028d4:	00d3fa63          	bleu	a3,t2,800028e8 <i_2494>

00000000800028d8 <i_2490>:
    800028d8:	f5816d03          	lwu	s10,-168(sp)

00000000800028dc <i_2491>:
    800028dc:	00540c63          	beq	s0,t0,800028f4 <i_2497>

00000000800028e0 <i_2492>:
    800028e0:	0a511e23          	sh	t0,188(sp)

00000000800028e4 <i_2493>:
    800028e4:	edef2293          	slti	t0,t5,-290

00000000800028e8 <i_2494>:
    800028e8:	02100f13          	li	t5,33

00000000800028ec <i_2495>:
    800028ec:	01e29933          	sll	s2,t0,t5

00000000800028f0 <i_2496>:
    800028f0:	e7211323          	sh	s2,-410(sp)

00000000800028f4 <i_2497>:
    800028f4:	00d926b3          	slt	a3,s2,a3

00000000800028f8 <i_2498>:
    800028f8:	ea310f03          	lb	t5,-349(sp)

00000000800028fc <i_2499>:
    800028fc:	35f22793          	slti	a5,tp,863

0000000080002900 <i_2500>:
    80002900:	0052c663          	blt	t0,t0,8000290c <i_2503>

0000000080002904 <i_2501>:
    80002904:	e4014203          	lbu	tp,-448(sp)

0000000080002908 <i_2502>:
    80002908:	02f7a433          	mulhsu	s0,a5,a5

000000008000290c <i_2503>:
    8000290c:	18812783          	lw	a5,392(sp)

0000000080002910 <i_2504>:
    80002910:	08416783          	lwu	a5,132(sp)

0000000080002914 <i_2505>:
    80002914:	ee114c83          	lbu	s9,-287(sp)

0000000080002918 <i_2506>:
    80002918:	84d00813          	li	a6,-1971

000000008000291c <i_2507>:
    8000291c:	85e00f13          	li	t5,-1954

0000000080002920 <i_2508>:
    80002920:	00000013          	nop

0000000080002924 <i_2509>:
    80002924:	02ff5063          	ble	a5,t5,80002944 <i_2516>

0000000080002928 <i_2510>:
    80002928:	0d016783          	lwu	a5,208(sp)

000000008000292c <i_2511>:
    8000292c:	00180813          	addi	a6,a6,1
    80002930:	ffe868e3          	bltu	a6,t5,80002920 <i_2508>

0000000080002934 <i_2512>:
    80002934:	efa15383          	lhu	t2,-262(sp)

0000000080002938 <i_2513>:
    80002938:	11416503          	lwu	a0,276(sp)

000000008000293c <i_2514>:
    8000293c:	00455793          	srli	a5,a0,0x4

0000000080002940 <i_2515>:
    80002940:	00f79663          	bne	a5,a5,8000294c <i_2518>

0000000080002944 <i_2516>:
    80002944:	4015551b          	sraiw	a0,a0,0x1

0000000080002948 <i_2517>:
    80002948:	02a50263          	beq	a0,a0,8000296c <i_2526>

000000008000294c <i_2518>:
    8000294c:	03bdf3bb          	remuw	t2,s11,s11

0000000080002950 <i_2519>:
    80002950:	027dab33          	mulhsu	s6,s11,t2

0000000080002954 <i_2520>:
    80002954:	00ab3db3          	sltu	s11,s6,a0

0000000080002958 <i_2521>:
    80002958:	00000013          	nop

000000008000295c <i_2522>:
    8000295c:	ee710e03          	lb	t3,-281(sp)

0000000080002960 <i_2523>:
    80002960:	00100b13          	li	s6,1

0000000080002964 <i_2524>:
    80002964:	016512bb          	sllw	t0,a0,s6

0000000080002968 <i_2525>:
    80002968:	19411583          	lh	a1,404(sp)

000000008000296c <i_2526>:
    8000296c:	e542ae13          	slti	t3,t0,-428

0000000080002970 <i_2527>:
    80002970:	40528d33          	sub	s10,t0,t0

0000000080002974 <i_2528>:
    80002974:	8bd00513          	li	a0,-1859

0000000080002978 <i_2529>:
    80002978:	8c300f13          	li	t5,-1853

000000008000297c <i_2530>:
    8000297c:	03a2f263          	bleu	s10,t0,800029a0 <i_2538>

0000000080002980 <i_2531>:
    80002980:	eec11583          	lh	a1,-276(sp)

0000000080002984 <i_2532>:
    80002984:	1c415783          	lhu	a5,452(sp)

0000000080002988 <i_2533>:
    80002988:	00150513          	addi	a0,a0,1
    8000298c:	ffe568e3          	bltu	a0,t5,8000297c <i_2530>

0000000080002990 <i_2534>:
    80002990:	00000013          	nop

0000000080002994 <i_2535>:
    80002994:	0c013603          	ld	a2,192(sp)

0000000080002998 <i_2536>:
    80002998:	0265f7bb          	remuw	a5,a1,t1

000000008000299c <i_2537>:
    8000299c:	08f13023          	sd	a5,128(sp)

00000000800029a0 <i_2538>:
    800029a0:	f5a15483          	lhu	s1,-166(sp)

00000000800029a4 <i_2539>:
    800029a4:	10c15503          	lhu	a0,268(sp)

00000000800029a8 <i_2540>:
    800029a8:	7d000f93          	li	t6,2000

00000000800029ac <i_2541>:
    800029ac:	7de00913          	li	s2,2014

00000000800029b0 <i_2542>:
    800029b0:	00c2e263          	bltu	t0,a2,800029b4 <i_2543>

00000000800029b4 <i_2543>:
    800029b4:	b9d8ae13          	slti	t3,a7,-1123

00000000800029b8 <i_2544>:
    800029b8:	03615c03          	lhu	s8,54(sp)

00000000800029bc <i_2545>:
    800029bc:	001f8f93          	addi	t6,t6,1
    800029c0:	ff2fe8e3          	bltu	t6,s2,800029b0 <i_2542>

00000000800029c4 <i_2546>:
    800029c4:	00fd5e63          	ble	a5,s10,800029e0 <i_2553>

00000000800029c8 <i_2547>:
    800029c8:	05c16d03          	lwu	s10,92(sp)

00000000800029cc <i_2548>:
    800029cc:	e4812b03          	lw	s6,-440(sp)

00000000800029d0 <i_2549>:
    800029d0:	05816d03          	lwu	s10,88(sp)

00000000800029d4 <i_2550>:
    800029d4:	00b00f93          	li	t6,11

00000000800029d8 <i_2551>:
    800029d8:	41f65bb3          	sra	s7,a2,t6

00000000800029dc <i_2552>:
    800029dc:	01900f93          	li	t6,25

00000000800029e0 <i_2553>:
    800029e0:	41f45d3b          	sraw	s10,s0,t6

00000000800029e4 <i_2554>:
    800029e4:	03f1b1b3          	mulhu	gp,gp,t6

00000000800029e8 <i_2555>:
    800029e8:	f3712e23          	sw	s7,-196(sp)

00000000800029ec <i_2556>:
    800029ec:	17712023          	sw	s7,352(sp)

00000000800029f0 <i_2557>:
    800029f0:	0fc12483          	lw	s1,252(sp)

00000000800029f4 <i_2558>:
    800029f4:	fe013f03          	ld	t5,-32(sp)

00000000800029f8 <i_2559>:
    800029f8:	009f8a63          	beq	t6,s1,80002a0c <i_2564>

00000000800029fc <i_2560>:
    800029fc:	05611683          	lh	a3,86(sp)

0000000080002a00 <i_2561>:
    80002a00:	03ffd263          	ble	t6,t6,80002a24 <i_2570>

0000000080002a04 <i_2562>:
    80002a04:	01ef1e63          	bne	t5,t5,80002a20 <i_2569>

0000000080002a08 <i_2563>:
    80002a08:	03411783          	lh	a5,52(sp)

0000000080002a0c <i_2564>:
    80002a0c:	02d65f3b          	divuw	t5,a2,a3

0000000080002a10 <i_2565>:
    80002a10:	75de7f17          	auipc	t5,0x75de7

0000000080002a14 <i_2566>:
    80002a14:	3b46af93          	slti	t6,a3,948

0000000080002a18 <i_2567>:
    80002a18:	404f5f9b          	sraiw	t6,t5,0x4

0000000080002a1c <i_2568>:
    80002a1c:	01e6ffb3          	and	t6,a3,t5

0000000080002a20 <i_2569>:
    80002a20:	ea510603          	lb	a2,-347(sp)

0000000080002a24 <i_2570>:
    80002a24:	004fe263          	bltu	t6,tp,80002a28 <i_2571>

0000000080002a28 <i_2571>:
    80002a28:	fdb14f03          	lbu	t5,-37(sp)

0000000080002a2c <i_2572>:
    80002a2c:	00c3ea63          	bltu	t2,a2,80002a40 <i_2577>

0000000080002a30 <i_2573>:
    80002a30:	16012283          	lw	t0,352(sp)

0000000080002a34 <i_2574>:
    80002a34:	03ff6fbb          	remw	t6,t5,t6

0000000080002a38 <i_2575>:
    80002a38:	e1c15403          	lhu	s0,-484(sp)

0000000080002a3c <i_2576>:
    80002a3c:	00610483          	lb	s1,6(sp)

0000000080002a40 <i_2577>:
    80002a40:	1b510b83          	lb	s7,437(sp)

0000000080002a44 <i_2578>:
    80002a44:	ee510683          	lb	a3,-283(sp)

0000000080002a48 <i_2579>:
    80002a48:	06813283          	ld	t0,104(sp)

0000000080002a4c <i_2580>:
    80002a4c:	025bf463          	bleu	t0,s7,80002a74 <i_2590>

0000000080002a50 <i_2581>:
    80002a50:	02948263          	beq	s1,s1,80002a74 <i_2590>

0000000080002a54 <i_2582>:
    80002a54:	e7a15e03          	lhu	t3,-390(sp)

0000000080002a58 <i_2583>:
    80002a58:	4022d493          	srai	s1,t0,0x2

0000000080002a5c <i_2584>:
    80002a5c:	005e0fb3          	add	t6,t3,t0

0000000080002a60 <i_2585>:
    80002a60:	03fe1333          	mulh	t1,t3,t6

0000000080002a64 <i_2586>:
    80002a64:	16414203          	lbu	tp,356(sp)

0000000080002a68 <i_2587>:
    80002a68:	00000013          	nop

0000000080002a6c <i_2588>:
    80002a6c:	eb314783          	lbu	a5,-333(sp)

0000000080002a70 <i_2589>:
    80002a70:	0255453b          	divw	a0,a0,t0

0000000080002a74 <i_2590>:
    80002a74:	4015569b          	sraiw	a3,a0,0x1

0000000080002a78 <i_2591>:
    80002a78:	01f7e3b3          	or	t2,a5,t6

0000000080002a7c <i_2592>:
    80002a7c:	75700293          	li	t0,1879

0000000080002a80 <i_2593>:
    80002a80:	76300e13          	li	t3,1891

0000000080002a84 <i_2594>:
    80002a84:	00000013          	nop

0000000080002a88 <i_2595>:
    80002a88:	414f87b3          	sub	a5,t6,s4

0000000080002a8c <i_2596>:
    80002a8c:	0251d663          	ble	t0,gp,80002ab8 <i_2606>

0000000080002a90 <i_2597>:
    80002a90:	ec912423          	sw	s1,-312(sp)

0000000080002a94 <i_2598>:
    80002a94:	01c14e63          	blt	sp,t3,80002ab0 <i_2604>

0000000080002a98 <i_2599>:
    80002a98:	00128293          	addi	t0,t0,1
    80002a9c:	ffc2e4e3          	bltu	t0,t3,80002a84 <i_2594>

0000000080002aa0 <i_2600>:
    80002aa0:	1dc16603          	lwu	a2,476(sp)

0000000080002aa4 <i_2601>:
    80002aa4:	00924e63          	blt	tp,s1,80002ac0 <i_2608>

0000000080002aa8 <i_2602>:
    80002aa8:	41548e3b          	subw	t3,s1,s5

0000000080002aac <i_2603>:
    80002aac:	01c2c863          	blt	t0,t3,80002abc <i_2607>

0000000080002ab0 <i_2604>:
    80002ab0:	fa013203          	ld	tp,-96(sp)

0000000080002ab4 <i_2605>:
    80002ab4:	c1d6861b          	addiw	a2,a3,-995

0000000080002ab8 <i_2606>:
    80002ab8:	02413c23          	sd	tp,56(sp)

0000000080002abc <i_2607>:
    80002abc:	00000013          	nop

0000000080002ac0 <i_2608>:
    80002ac0:	ebc13c23          	sd	t3,-328(sp)

0000000080002ac4 <i_2609>:
    80002ac4:	f8412a03          	lw	s4,-124(sp)

0000000080002ac8 <i_2610>:
    80002ac8:	73c00d93          	li	s11,1852

0000000080002acc <i_2611>:
    80002acc:	74000e13          	li	t3,1856

0000000080002ad0 <i_2612>:
    80002ad0:	e9012983          	lw	s3,-368(sp)

0000000080002ad4 <i_2613>:
    80002ad4:	9713a193          	slti	gp,t2,-1679

0000000080002ad8 <i_2614>:
    80002ad8:	fc813c03          	ld	s8,-56(sp)

0000000080002adc <i_2615>:
    80002adc:	0381e633          	rem	a2,gp,s8

0000000080002ae0 <i_2616>:
    80002ae0:	eb313023          	sd	s3,-352(sp)

0000000080002ae4 <i_2617>:
    80002ae4:	11015f03          	lhu	t5,272(sp)

0000000080002ae8 <i_2618>:
    80002ae8:	03d8ccbb          	divw	s9,a7,t4

0000000080002aec <i_2619>:
    80002aec:	ff815f83          	lhu	t6,-8(sp)

0000000080002af0 <i_2620>:
    80002af0:	00000013          	nop

0000000080002af4 <i_2621>:
    80002af4:	0391f663          	bleu	s9,gp,80002b20 <i_2631>

0000000080002af8 <i_2622>:
    80002af8:	001d8d93          	addi	s11,s11,1
    80002afc:	fdcdcae3          	blt	s11,t3,80002ad0 <i_2612>

0000000080002b00 <i_2623>:
    80002b00:	04415603          	lhu	a2,68(sp)

0000000080002b04 <i_2624>:
    80002b04:	e9013183          	ld	gp,-368(sp)

0000000080002b08 <i_2625>:
    80002b08:	00365613          	srli	a2,a2,0x3

0000000080002b0c <i_2626>:
    80002b0c:	05510183          	lb	gp,85(sp)

0000000080002b10 <i_2627>:
    80002b10:	11a14a83          	lbu	s5,282(sp)

0000000080002b14 <i_2628>:
    80002b14:	ea416c83          	lwu	s9,-348(sp)

0000000080002b18 <i_2629>:
    80002b18:	e3611203          	lh	tp,-458(sp)

0000000080002b1c <i_2630>:
    80002b1c:	00100a93          	li	s5,1

0000000080002b20 <i_2631>:
    80002b20:	015214bb          	sllw	s1,tp,s5

0000000080002b24 <i_2632>:
    80002b24:	01314803          	lbu	a6,19(sp)

0000000080002b28 <i_2633>:
    80002b28:	01c00613          	li	a2,28

0000000080002b2c <i_2634>:
    80002b2c:	00c49d33          	sll	s10,s1,a2

0000000080002b30 <i_2635>:
    80002b30:	1d016c03          	lwu	s8,464(sp)

0000000080002b34 <i_2636>:
    80002b34:	0031e233          	or	tp,gp,gp

0000000080002b38 <i_2637>:
    80002b38:	01e1e263          	bltu	gp,t5,80002b3c <i_2638>

0000000080002b3c <i_2638>:
    80002b3c:	0154ee63          	bltu	s1,s5,80002b58 <i_2645>

0000000080002b40 <i_2639>:
    80002b40:	03a66263          	bltu	a2,s10,80002b64 <i_2648>

0000000080002b44 <i_2640>:
    80002b44:	009c44b3          	xor	s1,s8,s1

0000000080002b48 <i_2641>:
    80002b48:	0294c7bb          	divw	a5,s1,s1

0000000080002b4c <i_2642>:
    80002b4c:	02f294b3          	mulh	s1,t0,a5

0000000080002b50 <i_2643>:
    80002b50:	02c63c33          	mulhu	s8,a2,a2

0000000080002b54 <i_2644>:
    80002b54:	00900613          	li	a2,9

0000000080002b58 <i_2645>:
    80002b58:	00c49633          	sll	a2,s1,a2

0000000080002b5c <i_2646>:
    80002b5c:	e9614183          	lbu	gp,-362(sp)

0000000080002b60 <i_2647>:
    80002b60:	06912a23          	sw	s1,116(sp)

0000000080002b64 <i_2648>:
    80002b64:	4031d49b          	sraiw	s1,gp,0x3

0000000080002b68 <i_2649>:
    80002b68:	00911d23          	sh	s1,26(sp)

0000000080002b6c <i_2650>:
    80002b6c:	15910483          	lb	s1,345(sp)

0000000080002b70 <i_2651>:
    80002b70:	009c1a63          	bne	s8,s1,80002b84 <i_2656>

0000000080002b74 <i_2652>:
    80002b74:	ff514183          	lbu	gp,-11(sp)

0000000080002b78 <i_2653>:
    80002b78:	01463fb3          	sltu	t6,a2,s4

0000000080002b7c <i_2654>:
    80002b7c:	01000993          	li	s3,16

0000000080002b80 <i_2655>:
    80002b80:	013a1a33          	sll	s4,s4,s3

0000000080002b84 <i_2656>:
    80002b84:	01512a23          	sw	s5,20(sp)

0000000080002b88 <i_2657>:
    80002b88:	e7011f83          	lh	t6,-400(sp)

0000000080002b8c <i_2658>:
    80002b8c:	8a700a93          	li	s5,-1881

0000000080002b90 <i_2659>:
    80002b90:	8b100613          	li	a2,-1871

0000000080002b94 <i_2660>:
    80002b94:	11416f83          	lwu	t6,276(sp)

0000000080002b98 <i_2661>:
    80002b98:	4d49b993          	sltiu	s3,s3,1236

0000000080002b9c <i_2662>:
    80002b9c:	00000013          	nop

0000000080002ba0 <i_2663>:
    80002ba0:	7ee00f93          	li	t6,2030

0000000080002ba4 <i_2664>:
    80002ba4:	7f700d13          	li	s10,2039

0000000080002ba8 <i_2665>:
    80002ba8:	001f8f93          	addi	t6,t6,1
    80002bac:	fffd5ee3          	ble	t6,s10,80002ba8 <i_2665>

0000000080002bb0 <i_2666>:
    80002bb0:	fd013f83          	ld	t6,-48(sp)

0000000080002bb4 <i_2667>:
    80002bb4:	efa11983          	lh	s3,-262(sp)

0000000080002bb8 <i_2668>:
    80002bb8:	f7610783          	lb	a5,-138(sp)

0000000080002bbc <i_2669>:
    80002bbc:	ffa10b23          	sb	s10,-10(sp)

0000000080002bc0 <i_2670>:
    80002bc0:	e6010783          	lb	a5,-416(sp)

0000000080002bc4 <i_2671>:
    80002bc4:	001a8a93          	addi	s5,s5,1
    80002bc8:	fccac6e3          	blt	s5,a2,80002b94 <i_2660>

0000000080002bcc <i_2672>:
    80002bcc:	fb013d83          	ld	s11,-80(sp)

0000000080002bd0 <i_2673>:
    80002bd0:	03b4c7b3          	div	a5,s1,s11

0000000080002bd4 <i_2674>:
    80002bd4:	86e00d13          	li	s10,-1938

0000000080002bd8 <i_2675>:
    80002bd8:	87100f93          	li	t6,-1935

0000000080002bdc <i_2676>:
    80002bdc:	00000013          	nop

0000000080002be0 <i_2677>:
    80002be0:	e9015d83          	lhu	s11,-368(sp)

0000000080002be4 <i_2678>:
    80002be4:	001d0d13          	addi	s10,s10,1
    80002be8:	fffd1ae3          	bne	s10,t6,80002bdc <i_2676>

0000000080002bec <i_2679>:
    80002bec:	41fb8433          	sub	s0,s7,t6

0000000080002bf0 <i_2680>:
    80002bf0:	1e416d83          	lwu	s11,484(sp)

0000000080002bf4 <i_2681>:
    80002bf4:	ebb13023          	sd	s11,-352(sp)

0000000080002bf8 <i_2682>:
    80002bf8:	f6a11d83          	lh	s11,-150(sp)

0000000080002bfc <i_2683>:
    80002bfc:	13c11183          	lh	gp,316(sp)

0000000080002c00 <i_2684>:
    80002c00:	10310d83          	lb	s11,259(sp)

0000000080002c04 <i_2685>:
    80002c04:	02ed8e33          	mul	t3,s11,a4

0000000080002c08 <i_2686>:
    80002c08:	0b611d83          	lh	s11,182(sp)

0000000080002c0c <i_2687>:
    80002c0c:	1c013183          	ld	gp,448(sp)

0000000080002c10 <i_2688>:
    80002c10:	52ddf513          	andi	a0,s11,1325

0000000080002c14 <i_2689>:
    80002c14:	f0a13423          	sd	a0,-248(sp)

0000000080002c18 <i_2690>:
    80002c18:	0078b3b3          	sltu	t2,a7,t2

0000000080002c1c <i_2691>:
    80002c1c:	fa411503          	lh	a0,-92(sp)

0000000080002c20 <i_2692>:
    80002c20:	00000013          	nop

0000000080002c24 <i_2693>:
    80002c24:	e89d6e37          	lui	t3,0xe89d6

0000000080002c28 <i_2694>:
    80002c28:	73800393          	li	t2,1848

0000000080002c2c <i_2695>:
    80002c2c:	74100513          	li	a0,1857

0000000080002c30 <i_2696>:
    80002c30:	03c3ce33          	div	t3,t2,t3

0000000080002c34 <i_2697>:
    80002c34:	06a11023          	sh	a0,96(sp)

0000000080002c38 <i_2698>:
    80002c38:	02755463          	ble	t2,a0,80002c60 <i_2708>

0000000080002c3c <i_2699>:
    80002c3c:	3a9d6d13          	ori	s10,s10,937

0000000080002c40 <i_2700>:
    80002c40:	00acad33          	slt	s10,s9,a0

0000000080002c44 <i_2701>:
    80002c44:	02a55c3b          	divuw	s8,a0,a0

0000000080002c48 <i_2702>:
    80002c48:	edc10623          	sb	t3,-308(sp)

0000000080002c4c <i_2703>:
    80002c4c:	00500a93          	li	s5,5

0000000080002c50 <i_2704>:
    80002c50:	01589c3b          	sllw	s8,a7,s5

0000000080002c54 <i_2705>:
    80002c54:	06a15a83          	lhu	s5,106(sp)

0000000080002c58 <i_2706>:
    80002c58:	f7a11f23          	sh	s10,-130(sp)

0000000080002c5c <i_2707>:
    80002c5c:	ff412403          	lw	s0,-12(sp)

0000000080002c60 <i_2708>:
    80002c60:	03fc6063          	bltu	s8,t6,80002c80 <i_2715>

0000000080002c64 <i_2709>:
    80002c64:	036d30b3          	mulhu	ra,s10,s6

0000000080002c68 <i_2710>:
    80002c68:	00143b33          	sltu	s6,s0,ra

0000000080002c6c <i_2711>:
    80002c6c:	f2012403          	lw	s0,-224(sp)

0000000080002c70 <i_2712>:
    80002c70:	00138393          	addi	t2,t2,1 # 9d344481 <_end+0x1d33406d>
    80002c74:	faa3cee3          	blt	t2,a0,80002c30 <i_2696>

0000000080002c78 <i_2713>:
    80002c78:	05610e83          	lb	t4,86(sp)

0000000080002c7c <i_2714>:
    80002c7c:	1e126097          	auipc	ra,0x1e126

0000000080002c80 <i_2715>:
    80002c80:	01d0f663          	bleu	t4,ra,80002c8c <i_2718>

0000000080002c84 <i_2716>:
    80002c84:	00a0ba33          	sltu	s4,ra,a0

0000000080002c88 <i_2717>:
    80002c88:	0080d863          	ble	s0,ra,80002c98 <i_2721>

0000000080002c8c <i_2718>:
    80002c8c:	fad14e83          	lbu	t4,-83(sp)

0000000080002c90 <i_2719>:
    80002c90:	401d80bb          	subw	ra,s11,ra

0000000080002c94 <i_2720>:
    80002c94:	40c08633          	sub	a2,ra,a2

0000000080002c98 <i_2721>:
    80002c98:	e2016683          	lwu	a3,-480(sp)

0000000080002c9c <i_2722>:
    80002c9c:	18d104a3          	sb	a3,393(sp)

0000000080002ca0 <i_2723>:
    80002ca0:	7a000093          	li	ra,1952

0000000080002ca4 <i_2724>:
    80002ca4:	7b100613          	li	a2,1969

0000000080002ca8 <i_2725>:
    80002ca8:	008e6d33          	or	s10,t3,s0

0000000080002cac <i_2726>:
    80002cac:	02110aa3          	sb	ra,53(sp)

0000000080002cb0 <i_2727>:
    80002cb0:	0020dd93          	srli	s11,ra,0x2

0000000080002cb4 <i_2728>:
    80002cb4:	e3f13823          	sd	t6,-464(sp)

0000000080002cb8 <i_2729>:
    80002cb8:	00108093          	addi	ra,ra,1 # 9e128c7d <_end+0x1e118869>
    80002cbc:	fe1656e3          	ble	ra,a2,80002ca8 <i_2725>

0000000080002cc0 <i_2730>:
    80002cc0:	1ac13823          	sd	a2,432(sp)

0000000080002cc4 <i_2731>:
    80002cc4:	f9813603          	ld	a2,-104(sp)

0000000080002cc8 <i_2732>:
    80002cc8:	00faf663          	bleu	a5,s5,80002cd4 <i_2735>

0000000080002ccc <i_2733>:
    80002ccc:	fbb10223          	sb	s11,-92(sp)

0000000080002cd0 <i_2734>:
    80002cd0:	01410383          	lb	t2,20(sp)

0000000080002cd4 <i_2735>:
    80002cd4:	03a3d0b3          	divu	ra,t2,s10

0000000080002cd8 <i_2736>:
    80002cd8:	0ec10723          	sb	a2,238(sp)

0000000080002cdc <i_2737>:
    80002cdc:	03300613          	li	a2,51

0000000080002ce0 <i_2738>:
    80002ce0:	40c3dd33          	sra	s10,t2,a2

0000000080002ce4 <i_2739>:
    80002ce4:	00611383          	lh	t2,6(sp)

0000000080002ce8 <i_2740>:
    80002ce8:	01786833          	or	a6,a6,s7

0000000080002cec <i_2741>:
    80002cec:	f0712a23          	sw	t2,-236(sp)

0000000080002cf0 <i_2742>:
    80002cf0:	fac16e03          	lwu	t3,-84(sp)

0000000080002cf4 <i_2743>:
    80002cf4:	010e0863          	beq	t3,a6,80002d04 <i_2747>

0000000080002cf8 <i_2744>:
    80002cf8:	fb812c03          	lw	s8,-72(sp)

0000000080002cfc <i_2745>:
    80002cfc:	e5016e83          	lwu	t4,-432(sp)

0000000080002d00 <i_2746>:
    80002d00:	00000013          	nop

0000000080002d04 <i_2747>:
    80002d04:	0283dabb          	divuw	s5,t2,s0

0000000080002d08 <i_2748>:
    80002d08:	00000013          	nop

0000000080002d0c <i_2749>:
    80002d0c:	83b00e13          	li	t3,-1989

0000000080002d10 <i_2750>:
    80002d10:	84700413          	li	s0,-1977

0000000080002d14 <i_2751>:
    80002d14:	ffc13423          	sd	t3,-24(sp)

0000000080002d18 <i_2752>:
    80002d18:	02862b33          	mulhsu	s6,a2,s0

0000000080002d1c <i_2753>:
    80002d1c:	402adc1b          	sraiw	s8,s5,0x2

0000000080002d20 <i_2754>:
    80002d20:	12016f03          	lwu	t5,288(sp)

0000000080002d24 <i_2755>:
    80002d24:	04812823          	sw	s0,80(sp)

0000000080002d28 <i_2756>:
    80002d28:	03e85233          	divu	tp,a6,t5

0000000080002d2c <i_2757>:
    80002d2c:	02caf4bb          	remuw	s1,s5,a2

0000000080002d30 <i_2758>:
    80002d30:	001e0e13          	addi	t3,t3,1 # ffffffffe89d6001 <_end+0xffffffff689c5bed>
    80002d34:	fe8e10e3          	bne	t3,s0,80002d14 <i_2751>

0000000080002d38 <i_2759>:
    80002d38:	f8013c83          	ld	s9,-128(sp)

0000000080002d3c <i_2760>:
    80002d3c:	03acde3b          	divuw	t3,s9,s10

0000000080002d40 <i_2761>:
    80002d40:	038c8f33          	mul	t5,s9,s8

0000000080002d44 <i_2762>:
    80002d44:	16811923          	sh	s0,370(sp)

0000000080002d48 <i_2763>:
    80002d48:	e9613423          	sd	s6,-376(sp)

0000000080002d4c <i_2764>:
    80002d4c:	16811a03          	lh	s4,360(sp)

0000000080002d50 <i_2765>:
    80002d50:	03649463          	bne	s1,s6,80002d78 <i_2775>

0000000080002d54 <i_2766>:
    80002d54:	034de463          	bltu	s11,s4,80002d7c <i_2776>

0000000080002d58 <i_2767>:
    80002d58:	ed012d03          	lw	s10,-304(sp)

0000000080002d5c <i_2768>:
    80002d5c:	e9d11623          	sh	t4,-372(sp)

0000000080002d60 <i_2769>:
    80002d60:	014c4463          	blt	s8,s4,80002d68 <i_2771>

0000000080002d64 <i_2770>:
    80002d64:	1c013f03          	ld	t5,448(sp)

0000000080002d68 <i_2771>:
    80002d68:	028c0063          	beq	s8,s0,80002d88 <i_2779>

0000000080002d6c <i_2772>:
    80002d6c:	02949633          	mulh	a2,s1,s1

0000000080002d70 <i_2773>:
    80002d70:	05a14383          	lbu	t2,90(sp)

0000000080002d74 <i_2774>:
    80002d74:	41ed0e3b          	subw	t3,s10,t5

0000000080002d78 <i_2775>:
    80002d78:	403e5e1b          	sraiw	t3,t3,0x3

0000000080002d7c <i_2776>:
    80002d7c:	038445b3          	div	a1,s0,s8

0000000080002d80 <i_2777>:
    80002d80:	00cf1863          	bne	t5,a2,80002d90 <i_2781>

0000000080002d84 <i_2778>:
    80002d84:	01c39c63          	bne	t2,t3,80002d9c <i_2784>

0000000080002d88 <i_2779>:
    80002d88:	e5c14403          	lbu	s0,-420(sp)

0000000080002d8c <i_2780>:
    80002d8c:	fde12423          	sw	t5,-56(sp)

0000000080002d90 <i_2781>:
    80002d90:	02f66063          	bltu	a2,a5,80002db0 <i_2789>

0000000080002d94 <i_2782>:
    80002d94:	03c5e263          	bltu	a1,t3,80002db8 <i_2791>

0000000080002d98 <i_2783>:
    80002d98:	fec15283          	lhu	t0,-20(sp)

0000000080002d9c <i_2784>:
    80002d9c:	00b581b3          	add	gp,a1,a1

0000000080002da0 <i_2785>:
    80002da0:	42b1ae13          	slti	t3,gp,1067

0000000080002da4 <i_2786>:
    80002da4:	03c1d1bb          	divuw	gp,gp,t3

0000000080002da8 <i_2787>:
    80002da8:	1051c193          	xori	gp,gp,261

0000000080002dac <i_2788>:
    80002dac:	023e61bb          	remw	gp,t3,gp

0000000080002db0 <i_2789>:
    80002db0:	0231debb          	divuw	t4,gp,gp

0000000080002db4 <i_2790>:
    80002db4:	01ceceb3          	xor	t4,t4,t3

0000000080002db8 <i_2791>:
    80002db8:	1b416183          	lwu	gp,436(sp)

0000000080002dbc <i_2792>:
    80002dbc:	003acab3          	xor	s5,s5,gp

0000000080002dc0 <i_2793>:
    80002dc0:	7c100593          	li	a1,1985

0000000080002dc4 <i_2794>:
    80002dc4:	7d300413          	li	s0,2003

0000000080002dc8 <i_2795>:
    80002dc8:	00158593          	addi	a1,a1,1
    80002dcc:	feb47ee3          	bleu	a1,s0,80002dc8 <i_2795>

0000000080002dd0 <i_2796>:
    80002dd0:	00318463          	beq	gp,gp,80002dd8 <i_2798>

0000000080002dd4 <i_2797>:
    80002dd4:	03574ebb          	divw	t4,a4,s5

0000000080002dd8 <i_2798>:
    80002dd8:	008a9463          	bne	s5,s0,80002de0 <i_2800>

0000000080002ddc <i_2799>:
    80002ddc:	03ca8c33          	mul	s8,s5,t3

0000000080002de0 <i_2800>:
    80002de0:	023eaeb3          	mulhsu	t4,t4,gp

0000000080002de4 <i_2801>:
    80002de4:	03d18ab3          	mul	s5,gp,t4

0000000080002de8 <i_2802>:
    80002de8:	f5810e83          	lb	t4,-168(sp)

0000000080002dec <i_2803>:
    80002dec:	ef810823          	sb	s8,-272(sp)

0000000080002df0 <i_2804>:
    80002df0:	00ba9c63          	bne	s5,a1,80002e08 <i_2810>

0000000080002df4 <i_2805>:
    80002df4:	1c415183          	lhu	gp,452(sp)

0000000080002df8 <i_2806>:
    80002df8:	fa812383          	lw	t2,-88(sp)

0000000080002dfc <i_2807>:
    80002dfc:	019382b3          	add	t0,t2,s9

0000000080002e00 <i_2808>:
    80002e00:	01a00a93          	li	s5,26

0000000080002e04 <i_2809>:
    80002e04:	01529abb          	sllw	s5,t0,s5

0000000080002e08 <i_2810>:
    80002e08:	e2012683          	lw	a3,-480(sp)

0000000080002e0c <i_2811>:
    80002e0c:	02da77bb          	remuw	a5,s4,a3

0000000080002e10 <i_2812>:
    80002e10:	03d00693          	li	a3,61

0000000080002e14 <i_2813>:
    80002e14:	00d692b3          	sll	t0,a3,a3

0000000080002e18 <i_2814>:
    80002e18:	d51c839b          	addiw	t2,s9,-687

0000000080002e1c <i_2815>:
    80002e1c:	f0a13423          	sd	a0,-248(sp)

0000000080002e20 <i_2816>:
    80002e20:	00521463          	bne	tp,t0,80002e28 <i_2818>

0000000080002e24 <i_2817>:
    80002e24:	025a8f3b          	mulw	t5,s5,t0

0000000080002e28 <i_2818>:
    80002e28:	5fb2a293          	slti	t0,t0,1531

0000000080002e2c <i_2819>:
    80002e2c:	03828263          	beq	t0,s8,80002e50 <i_2828>

0000000080002e30 <i_2820>:
    80002e30:	00f2f463          	bleu	a5,t0,80002e38 <i_2822>

0000000080002e34 <i_2821>:
    80002e34:	005f5463          	ble	t0,t5,80002e3c <i_2823>

0000000080002e38 <i_2822>:
    80002e38:	005f0e63          	beq	t5,t0,80002e54 <i_2829>

0000000080002e3c <i_2823>:
    80002e3c:	01a00793          	li	a5,26

0000000080002e40 <i_2824>:
    80002e40:	40f7dabb          	sraw	s5,a5,a5

0000000080002e44 <i_2825>:
    80002e44:	0257dab3          	divu	s5,a5,t0

0000000080002e48 <i_2826>:
    80002e48:	eac15a83          	lhu	s5,-340(sp)

0000000080002e4c <i_2827>:
    80002e4c:	00fefeb3          	and	t4,t4,a5

0000000080002e50 <i_2828>:
    80002e50:	0d812823          	sw	s8,208(sp)

0000000080002e54 <i_2829>:
    80002e54:	18510f23          	sb	t0,414(sp)

0000000080002e58 <i_2830>:
    80002e58:	025f2db3          	mulhsu	s11,t5,t0

0000000080002e5c <i_2831>:
    80002e5c:	8c500613          	li	a2,-1851

0000000080002e60 <i_2832>:
    80002e60:	8cf00a93          	li	s5,-1841

0000000080002e64 <i_2833>:
    80002e64:	03bdcc33          	div	s8,s11,s11

0000000080002e68 <i_2834>:
    80002e68:	1bb13423          	sd	s11,424(sp)

0000000080002e6c <i_2835>:
    80002e6c:	02cdf43b          	remuw	s0,s11,a2

0000000080002e70 <i_2836>:
    80002e70:	00900c13          	li	s8,9

0000000080002e74 <i_2837>:
    80002e74:	018d9b33          	sll	s6,s11,s8

0000000080002e78 <i_2838>:
    80002e78:	02811f23          	sh	s0,62(sp)

0000000080002e7c <i_2839>:
    80002e7c:	00160613          	addi	a2,a2,1
    80002e80:	ff5662e3          	bltu	a2,s5,80002e64 <i_2833>

0000000080002e84 <i_2840>:
    80002e84:	028a0463          	beq	s4,s0,80002eac <i_2850>

0000000080002e88 <i_2841>:
    80002e88:	f2e11a03          	lh	s4,-210(sp)

0000000080002e8c <i_2842>:
    80002e8c:	eb015a03          	lhu	s4,-336(sp)

0000000080002e90 <i_2843>:
    80002e90:	011ef663          	bleu	a7,t4,80002e9c <i_2846>

0000000080002e94 <i_2844>:
    80002e94:	03013603          	ld	a2,48(sp)

0000000080002e98 <i_2845>:
    80002e98:	1e013a03          	ld	s4,480(sp)

0000000080002e9c <i_2846>:
    80002e9c:	002a5a13          	srli	s4,s4,0x2

0000000080002ea0 <i_2847>:
    80002ea0:	0d811a03          	lh	s4,216(sp)

0000000080002ea4 <i_2848>:
    80002ea4:	02100c13          	li	s8,33

0000000080002ea8 <i_2849>:
    80002ea8:	018a15b3          	sll	a1,s4,s8

0000000080002eac <i_2850>:
    80002eac:	c94cc693          	xori	a3,s9,-876

0000000080002eb0 <i_2851>:
    80002eb0:	fab13023          	sd	a1,-96(sp)

0000000080002eb4 <i_2852>:
    80002eb4:	86a00a93          	li	s5,-1942

0000000080002eb8 <i_2853>:
    80002eb8:	87c00c93          	li	s9,-1924

0000000080002ebc <i_2854>:
    80002ebc:	07811323          	sh	s8,102(sp)

0000000080002ec0 <i_2855>:
    80002ec0:	00b5c5b3          	xor	a1,a1,a1

0000000080002ec4 <i_2856>:
    80002ec4:	014cec63          	bltu	s9,s4,80002edc <i_2861>

0000000080002ec8 <i_2857>:
    80002ec8:	00bc84b3          	add	s1,s9,a1

0000000080002ecc <i_2858>:
    80002ecc:	001a8a93          	addi	s5,s5,1
    80002ed0:	ff9ae6e3          	bltu	s5,s9,80002ebc <i_2854>

0000000080002ed4 <i_2859>:
    80002ed4:	04b13023          	sd	a1,64(sp)

0000000080002ed8 <i_2860>:
    80002ed8:	12b12a23          	sw	a1,308(sp)

0000000080002edc <i_2861>:
    80002edc:	406a05bb          	subw	a1,s4,t1

0000000080002ee0 <i_2862>:
    80002ee0:	009a2cb3          	slt	s9,s4,s1

0000000080002ee4 <i_2863>:
    80002ee4:	039a6c33          	rem	s8,s4,s9

0000000080002ee8 <i_2864>:
    80002ee8:	0346abb3          	mulhsu	s7,a3,s4

0000000080002eec <i_2865>:
    80002eec:	02959fb3          	mulh	t6,a1,s1

0000000080002ef0 <i_2866>:
    80002ef0:	02b11123          	sh	a1,34(sp)

0000000080002ef4 <i_2867>:
    80002ef4:	f2812b83          	lw	s7,-216(sp)

0000000080002ef8 <i_2868>:
    80002ef8:	19f11023          	sh	t6,384(sp)

0000000080002efc <i_2869>:
    80002efc:	f1013683          	ld	a3,-240(sp)

0000000080002f00 <i_2870>:
    80002f00:	f81e0f17          	auipc	t5,0xf81e0

0000000080002f04 <i_2871>:
    80002f04:	02b6b233          	mulhu	tp,a3,a1

0000000080002f08 <i_2872>:
    80002f08:	03468263          	beq	a3,s4,80002f2c <i_2881>

0000000080002f0c <i_2873>:
    80002f0c:	00b13c23          	sd	a1,24(sp)

0000000080002f10 <i_2874>:
    80002f10:	badb5fb7          	lui	t6,0xbadb5

0000000080002f14 <i_2875>:
    80002f14:	ea211a83          	lh	s5,-350(sp)

0000000080002f18 <i_2876>:
    80002f18:	0f012d83          	lw	s11,240(sp)

0000000080002f1c <i_2877>:
    80002f1c:	0241ed3b          	remw	s10,gp,tp

0000000080002f20 <i_2878>:
    80002f20:	004a0a63          	beq	s4,tp,80002f34 <i_2883>

0000000080002f24 <i_2879>:
    80002f24:	00bbca63          	blt	s7,a1,80002f38 <i_2884>

0000000080002f28 <i_2880>:
    80002f28:	002d9b9b          	slliw	s7,s11,0x2

0000000080002f2c <i_2881>:
    80002f2c:	01012503          	lw	a0,16(sp)

0000000080002f30 <i_2882>:
    80002f30:	84cd6d13          	ori	s10,s10,-1972

0000000080002f34 <i_2883>:
    80002f34:	037dddbb          	divuw	s11,s11,s7

0000000080002f38 <i_2884>:
    80002f38:	01615d83          	lhu	s11,22(sp)

0000000080002f3c <i_2885>:
    80002f3c:	77bed517          	auipc	a0,0x77bed

0000000080002f40 <i_2886>:
    80002f40:	03bad463          	ble	s11,s5,80002f68 <i_2896>

0000000080002f44 <i_2887>:
    80002f44:	f7b13823          	sd	s11,-144(sp)

0000000080002f48 <i_2888>:
    80002f48:	04c12303          	lw	t1,76(sp)

0000000080002f4c <i_2889>:
    80002f4c:	01b10403          	lb	s0,27(sp)

0000000080002f50 <i_2890>:
    80002f50:	03b31463          	bne	t1,s11,80002f78 <i_2900>

0000000080002f54 <i_2891>:
    80002f54:	0061ec63          	bltu	gp,t1,80002f6c <i_2897>

0000000080002f58 <i_2892>:
    80002f58:	03730263          	beq	t1,s7,80002f7c <i_2901>

0000000080002f5c <i_2893>:
    80002f5c:	02ab7463          	bleu	a0,s6,80002f84 <i_2903>

0000000080002f60 <i_2894>:
    80002f60:	f4416b83          	lwu	s7,-188(sp)

0000000080002f64 <i_2895>:
    80002f64:	f8e14303          	lbu	t1,-114(sp)

0000000080002f68 <i_2896>:
    80002f68:	00500b93          	li	s7,5

0000000080002f6c <i_2897>:
    80002f6c:	417bd33b          	sraw	t1,s7,s7

0000000080002f70 <i_2898>:
    80002f70:	02a3633b          	remw	t1,t1,a0

0000000080002f74 <i_2899>:
    80002f74:	e8d10723          	sb	a3,-370(sp)

0000000080002f78 <i_2900>:
    80002f78:	18611a23          	sh	t1,404(sp)

0000000080002f7c <i_2901>:
    80002f7c:	e5a10803          	lb	a6,-422(sp)

0000000080002f80 <i_2902>:
    80002f80:	07c10a83          	lb	s5,124(sp)

0000000080002f84 <i_2903>:
    80002f84:	e7412223          	sw	s4,-412(sp)

0000000080002f88 <i_2904>:
    80002f88:	0c810803          	lb	a6,200(sp)

0000000080002f8c <i_2905>:
    80002f8c:	78c00a13          	li	s4,1932

0000000080002f90 <i_2906>:
    80002f90:	79b00513          	li	a0,1947

0000000080002f94 <i_2907>:
    80002f94:	010842b3          	xor	t0,a6,a6

0000000080002f98 <i_2908>:
    80002f98:	001a0a13          	addi	s4,s4,1
    80002f9c:	ff455ce3          	ble	s4,a0,80002f94 <i_2907>

0000000080002fa0 <i_2909>:
    80002fa0:	0142f463          	bleu	s4,t0,80002fa8 <i_2911>

0000000080002fa4 <i_2910>:
    80002fa4:	f5013283          	ld	t0,-176(sp)

0000000080002fa8 <i_2911>:
    80002fa8:	015bce63          	blt	s7,s5,80002fc4 <i_2918>

0000000080002fac <i_2912>:
    80002fac:	17712c23          	sw	s7,376(sp)

0000000080002fb0 <i_2913>:
    80002fb0:	10012803          	lw	a6,256(sp)

0000000080002fb4 <i_2914>:
    80002fb4:	010c4263          	blt	s8,a6,80002fb8 <i_2915>

0000000080002fb8 <i_2915>:
    80002fb8:	e9511423          	sh	s5,-376(sp)

0000000080002fbc <i_2916>:
    80002fbc:	f1611783          	lh	a5,-234(sp)

0000000080002fc0 <i_2917>:
    80002fc0:	025a8c33          	mul	s8,s5,t0

0000000080002fc4 <i_2918>:
    80002fc4:	9905b317          	auipc	t1,0x9905b

0000000080002fc8 <i_2919>:
    80002fc8:	40255513          	srai	a0,a0,0x2

0000000080002fcc <i_2920>:
    80002fcc:	01830c63          	beq	t1,s8,80002fe4 <i_2926>

0000000080002fd0 <i_2921>:
    80002fd0:	367f2d37          	lui	s10,0x367f2

0000000080002fd4 <i_2922>:
    80002fd4:	15c16783          	lwu	a5,348(sp)

0000000080002fd8 <i_2923>:
    80002fd8:	0017c5b3          	xor	a1,a5,ra

0000000080002fdc <i_2924>:
    80002fdc:	028805b3          	mul	a1,a6,s0

0000000080002fe0 <i_2925>:
    80002fe0:	e9a10e23          	sb	s10,-356(sp)

0000000080002fe4 <i_2926>:
    80002fe4:	0122c263          	blt	t0,s2,80002fe8 <i_2927>

0000000080002fe8 <i_2927>:
    80002fe8:	02b456b3          	divu	a3,s0,a1

0000000080002fec <i_2928>:
    80002fec:	f8d11c23          	sh	a3,-104(sp)

0000000080002ff0 <i_2929>:
    80002ff0:	fcb12a23          	sw	a1,-44(sp)

0000000080002ff4 <i_2930>:
    80002ff4:	02d5e263          	bltu	a1,a3,80003018 <i_2939>

0000000080002ff8 <i_2931>:
    80002ff8:	15815683          	lhu	a3,344(sp)

0000000080002ffc <i_2932>:
    80002ffc:	02d575bb          	remuw	a1,a0,a3

0000000080003000 <i_2933>:
    80003000:	00000013          	nop

0000000080003004 <i_2934>:
    80003004:	f5610d83          	lb	s11,-170(sp)

0000000080003008 <i_2935>:
    80003008:	0e816683          	lwu	a3,232(sp)

000000008000300c <i_2936>:
    8000300c:	ff013803          	ld	a6,-16(sp)

0000000080003010 <i_2937>:
    80003010:	03e797b3          	mulh	a5,a5,t5

0000000080003014 <i_2938>:
    80003014:	00800a93          	li	s5,8

0000000080003018 <i_2939>:
    80003018:	4158583b          	sraw	a6,a6,s5

000000008000301c <i_2940>:
    8000301c:	00000013          	nop

0000000080003020 <i_2941>:
    80003020:	7cc00513          	li	a0,1996

0000000080003024 <i_2942>:
    80003024:	7e000213          	li	tp,2016

0000000080003028 <i_2943>:
    80003028:	00150513          	addi	a0,a0,1 # f7beff3d <_end+0x77bdfb29>
    8000302c:	fe454ee3          	blt	a0,tp,80003028 <i_2943>

0000000080003030 <i_2944>:
    80003030:	1e013283          	ld	t0,480(sp)

0000000080003034 <i_2945>:
    80003034:	04816783          	lwu	a5,72(sp)

0000000080003038 <i_2946>:
    80003038:	4102883b          	subw	a6,t0,a6

000000008000303c <i_2947>:
    8000303c:	01529663          	bne	t0,s5,80003048 <i_2950>

0000000080003040 <i_2948>:
    80003040:	030c1263          	bne	s8,a6,80003064 <i_2957>

0000000080003044 <i_2949>:
    80003044:	01587863          	bleu	s5,a6,80003054 <i_2953>

0000000080003048 <i_2950>:
    80003048:	010a82b3          	add	t0,s5,a6

000000008000304c <i_2951>:
    8000304c:	01080c63          	beq	a6,a6,80003064 <i_2957>

0000000080003050 <i_2952>:
    80003050:	010ae463          	bltu	s5,a6,80003058 <i_2954>

0000000080003054 <i_2953>:
    80003054:	01600f13          	li	t5,22

0000000080003058 <i_2954>:
    80003058:	01e4d9bb          	srlw	s3,s1,t5

000000008000305c <i_2955>:
    8000305c:	010f4f33          	xor	t5,t5,a6

0000000080003060 <i_2956>:
    80003060:	0132e663          	bltu	t0,s3,8000306c <i_2959>

0000000080003064 <i_2957>:
    80003064:	03e41333          	mulh	t1,s0,t5

0000000080003068 <i_2958>:
    80003068:	0fc12f03          	lw	t5,252(sp)

000000008000306c <i_2959>:
    8000306c:	12412f03          	lw	t5,292(sp)

0000000080003070 <i_2960>:
    80003070:	01c31c63          	bne	t1,t3,80003088 <i_2966>

0000000080003074 <i_2961>:
    80003074:	08013283          	ld	t0,128(sp)

0000000080003078 <i_2962>:
    80003078:	e86104a3          	sb	t1,-375(sp)

000000008000307c <i_2963>:
    8000307c:	01ef5c63          	ble	t5,t5,80003094 <i_2969>

0000000080003080 <i_2964>:
    80003080:	005f0ab3          	add	s5,t5,t0

0000000080003084 <i_2965>:
    80003084:	f3e12023          	sw	t5,-224(sp)

0000000080003088 <i_2966>:
    80003088:	00b00293          	li	t0,11

000000008000308c <i_2967>:
    8000308c:	4053533b          	sraw	t1,t1,t0

0000000080003090 <i_2968>:
    80003090:	e3416283          	lwu	t0,-460(sp)

0000000080003094 <i_2969>:
    80003094:	fef10303          	lb	t1,-17(sp)

0000000080003098 <i_2970>:
    80003098:	00000013          	nop

000000008000309c <i_2971>:
    8000309c:	8a300a13          	li	s4,-1885

00000000800030a0 <i_2972>:
    800030a0:	8ab00613          	li	a2,-1877

00000000800030a4 <i_2973>:
    800030a4:	02611583          	lh	a1,38(sp)

00000000800030a8 <i_2974>:
    800030a8:	0165de63          	ble	s6,a1,800030c4 <i_2980>

00000000800030ac <i_2975>:
    800030ac:	7433079b          	addiw	a5,t1,1859

00000000800030b0 <i_2976>:
    800030b0:	ff011803          	lh	a6,-16(sp)

00000000800030b4 <i_2977>:
    800030b4:	001a0a13          	addi	s4,s4,1
    800030b8:	ff4656e3          	ble	s4,a2,800030a4 <i_2973>

00000000800030bc <i_2978>:
    800030bc:	f4814583          	lbu	a1,-184(sp)

00000000800030c0 <i_2979>:
    800030c0:	00181793          	slli	a5,a6,0x1

00000000800030c4 <i_2980>:
    800030c4:	0ee15783          	lhu	a5,238(sp)

00000000800030c8 <i_2981>:
    800030c8:	0b412083          	lw	ra,180(sp)

00000000800030cc <i_2982>:
    800030cc:	89700813          	li	a6,-1897

00000000800030d0 <i_2983>:
    800030d0:	89a00693          	li	a3,-1894

00000000800030d4 <i_2984>:
    800030d4:	0d013083          	ld	ra,208(sp)

00000000800030d8 <i_2985>:
    800030d8:	00000013          	nop

00000000800030dc <i_2986>:
    800030dc:	03021263          	bne	tp,a6,80003100 <i_2994>

00000000800030e0 <i_2987>:
    800030e0:	03e15083          	lhu	ra,62(sp)

00000000800030e4 <i_2988>:
    800030e4:	00180813          	addi	a6,a6,1
    800030e8:	fed866e3          	bltu	a6,a3,800030d4 <i_2984>

00000000800030ec <i_2989>:
    800030ec:	f8113423          	sd	ra,-120(sp)

00000000800030f0 <i_2990>:
    800030f0:	03f85833          	divu	a6,a6,t6

00000000800030f4 <i_2991>:
    800030f4:	01f84833          	xor	a6,a6,t6

00000000800030f8 <i_2992>:
    800030f8:	01800613          	li	a2,24

00000000800030fc <i_2993>:
    800030fc:	00c81e33          	sll	t3,a6,a2

0000000080003100 <i_2994>:
    80003100:	40365813          	srai	a6,a2,0x3

0000000080003104 <i_2995>:
    80003104:	f9211d03          	lh	s10,-110(sp)

0000000080003108 <i_2996>:
    80003108:	73700693          	li	a3,1847

000000008000310c <i_2997>:
    8000310c:	74100f93          	li	t6,1857

0000000080003110 <i_2998>:
    80003110:	00168693          	addi	a3,a3,1 # d3f1d749 <_end+0x53f0d335>
    80003114:	fedfdee3          	ble	a3,t6,80003110 <i_2998>

0000000080003118 <i_2999>:
    80003118:	72e0ec93          	ori	s9,ra,1838

000000008000311c <i_3000>:
    8000311c:	ed815803          	lhu	a6,-296(sp)

0000000080003120 <i_3001>:
    80003120:	05013423          	sd	a6,72(sp)

0000000080003124 <i_3002>:
    80003124:	019d0c63          	beq	s10,s9,8000313c <i_3008>

0000000080003128 <i_3003>:
    80003128:	06215e03          	lhu	t3,98(sp)

000000008000312c <i_3004>:
    8000312c:	010cc863          	blt	s9,a6,8000313c <i_3008>

0000000080003130 <i_3005>:
    80003130:	03ccd463          	ble	t3,s9,80003158 <i_3015>

0000000080003134 <i_3006>:
    80003134:	03957fb3          	remu	t6,a0,s9

0000000080003138 <i_3007>:
    80003138:	f7011723          	sh	a6,-146(sp)

000000008000313c <i_3008>:
    8000313c:	f3f13823          	sd	t6,-208(sp)

0000000080003140 <i_3009>:
    80003140:	e9012423          	sw	a6,-376(sp)

0000000080003144 <i_3010>:
    80003144:	fd911223          	sh	s9,-60(sp)

0000000080003148 <i_3011>:
    80003148:	028d0463          	beq	s10,s0,80003170 <i_3021>

000000008000314c <i_3012>:
    8000314c:	039f8063          	beq	t6,s9,8000316c <i_3020>

0000000080003150 <i_3013>:
    80003150:	12514f83          	lbu	t6,293(sp)

0000000080003154 <i_3014>:
    80003154:	f0013c83          	ld	s9,-256(sp)

0000000080003158 <i_3015>:
    80003158:	01ccd263          	ble	t3,s9,8000315c <i_3016>

000000008000315c <i_3016>:
    8000315c:	73efee13          	ori	t3,t6,1854

0000000080003160 <i_3017>:
    80003160:	03015463          	ble	a6,sp,80003188 <i_3027>

0000000080003164 <i_3018>:
    80003164:	025e6e3b          	remw	t3,t3,t0

0000000080003168 <i_3019>:
    80003168:	f0312223          	sw	gp,-252(sp)

000000008000316c <i_3020>:
    8000316c:	02ae0fbb          	mulw	t6,t3,a0

0000000080003170 <i_3021>:
    80003170:	02800f93          	li	t6,40

0000000080003174 <i_3022>:
    80003174:	41ffdfb3          	sra	t6,t6,t6

0000000080003178 <i_3023>:
    80003178:	05f10f83          	lb	t6,95(sp)

000000008000317c <i_3024>:
    8000317c:	419f86bb          	subw	a3,t6,s9

0000000080003180 <i_3025>:
    80003180:	031c87b3          	mul	a5,s9,a7

0000000080003184 <i_3026>:
    80003184:	01ce6a63          	bltu	t3,t3,80003198 <i_3031>

0000000080003188 <i_3027>:
    80003188:	e7c12783          	lw	a5,-388(sp)

000000008000318c <i_3028>:
    8000318c:	009f8e33          	add	t3,t6,s1

0000000080003190 <i_3029>:
    80003190:	1d310a83          	lb	s5,467(sp)

0000000080003194 <i_3030>:
    80003194:	f3816f83          	lwu	t6,-200(sp)

0000000080003198 <i_3031>:
    80003198:	01cf9e63          	bne	t6,t3,800031b4 <i_3038>

000000008000319c <i_3032>:
    8000319c:	0bc16c83          	lwu	s9,188(sp)

00000000800031a0 <i_3033>:
    800031a0:	f7c12683          	lw	a3,-132(sp)

00000000800031a4 <i_3034>:
    800031a4:	019ce863          	bltu	s9,s9,800031b4 <i_3038>

00000000800031a8 <i_3035>:
    800031a8:	0356ebbb          	remw	s7,a3,s5

00000000800031ac <i_3036>:
    800031ac:	01715e63          	ble	s7,sp,800031c8 <i_3043>

00000000800031b0 <i_3037>:
    800031b0:	00dbec63          	bltu	s7,a3,800031c8 <i_3043>

00000000800031b4 <i_3038>:
    800031b4:	f0815a83          	lhu	s5,-248(sp)

00000000800031b8 <i_3039>:
    800031b8:	e7911e23          	sh	s9,-388(sp)

00000000800031bc <i_3040>:
    800031bc:	e7a15483          	lhu	s1,-390(sp)

00000000800031c0 <i_3041>:
    800031c0:	640b8693          	addi	a3,s7,1600

00000000800031c4 <i_3042>:
    800031c4:	011be863          	bltu	s7,a7,800031d4 <i_3046>

00000000800031c8 <i_3043>:
    800031c8:	023bd6b3          	divu	a3,s7,gp

00000000800031cc <i_3044>:
    800031cc:	0365553b          	divuw	a0,a0,s6

00000000800031d0 <i_3045>:
    800031d0:	4171823b          	subw	tp,gp,s7

00000000800031d4 <i_3046>:
    800031d4:	1d512623          	sw	s5,460(sp)

00000000800031d8 <i_3047>:
    800031d8:	f9615a83          	lhu	s5,-106(sp)

00000000800031dc <i_3048>:
    800031dc:	76900b93          	li	s7,1897

00000000800031e0 <i_3049>:
    800031e0:	77800193          	li	gp,1912

00000000800031e4 <i_3050>:
    800031e4:	96218a93          	addi	s5,gp,-1694

00000000800031e8 <i_3051>:
    800031e8:	fc814a83          	lbu	s5,-56(sp)

00000000800031ec <i_3052>:
    800031ec:	7b82e497          	auipc	s1,0x7b82e

00000000800031f0 <i_3053>:
    800031f0:	024383b3          	mul	t2,t2,tp

00000000800031f4 <i_3054>:
    800031f4:	10212823          	sw	sp,272(sp)

00000000800031f8 <i_3055>:
    800031f8:	ea013903          	ld	s2,-352(sp)

00000000800031fc <i_3056>:
    800031fc:	001b8b93          	addi	s7,s7,1
    80003200:	ff71d2e3          	ble	s7,gp,800031e4 <i_3050>

0000000080003204 <i_3057>:
    80003204:	415c04b3          	sub	s1,s8,s5

0000000080003208 <i_3058>:
    80003208:	0094e233          	or	tp,s1,s1

000000008000320c <i_3059>:
    8000320c:	f0712023          	sw	t2,-256(sp)

0000000080003210 <i_3060>:
    80003210:	002203b3          	add	t2,tp,sp

0000000080003214 <i_3061>:
    80003214:	12c12c23          	sw	a2,312(sp)

0000000080003218 <i_3062>:
    80003218:	f6412083          	lw	ra,-156(sp)

000000008000321c <i_3063>:
    8000321c:	e8112423          	sw	ra,-376(sp)

0000000080003220 <i_3064>:
    80003220:	01225463          	ble	s2,tp,80003228 <i_3066>

0000000080003224 <i_3065>:
    80003224:	0350c0bb          	divw	ra,ra,s5

0000000080003228 <i_3066>:
    80003228:	e6710623          	sb	t2,-404(sp)

000000008000322c <i_3067>:
    8000322c:	00000013          	nop

0000000080003230 <i_3068>:
    80003230:	7b600a93          	li	s5,1974

0000000080003234 <i_3069>:
    80003234:	7c700493          	li	s1,1991

0000000080003238 <i_3070>:
    80003238:	0070c463          	blt	ra,t2,80003240 <i_3072>

000000008000323c <i_3071>:
    8000323c:	00927c63          	bleu	s1,tp,80003254 <i_3077>

0000000080003240 <i_3072>:
    80003240:	0153f263          	bleu	s5,t2,80003244 <i_3073>

0000000080003244 <i_3073>:
    80003244:	0090bf33          	sltu	t5,ra,s1

0000000080003248 <i_3074>:
    80003248:	f5e10423          	sb	t5,-184(sp)

000000008000324c <i_3075>:
    8000324c:	e6911623          	sh	s1,-404(sp)

0000000080003250 <i_3076>:
    80003250:	0150c263          	blt	ra,s5,80003254 <i_3077>

0000000080003254 <i_3077>:
    80003254:	16913423          	sd	s1,360(sp)

0000000080003258 <i_3078>:
    80003258:	eca11083          	lh	ra,-310(sp)

000000008000325c <i_3079>:
    8000325c:	f8113823          	sd	ra,-112(sp)

0000000080003260 <i_3080>:
    80003260:	16013583          	ld	a1,352(sp)

0000000080003264 <i_3081>:
    80003264:	7878c513          	xori	a0,a7,1927

0000000080003268 <i_3082>:
    80003268:	41b58f3b          	subw	t5,a1,s11

000000008000326c <i_3083>:
    8000326c:	001a8a93          	addi	s5,s5,1
    80003270:	fd54f4e3          	bleu	s5,s1,80003238 <i_3070>

0000000080003274 <i_3084>:
    80003274:	01b00913          	li	s2,27

0000000080003278 <i_3085>:
    80003278:	012191bb          	sllw	gp,gp,s2

000000008000327c <i_3086>:
    8000327c:	0215fcb3          	remu	s9,a1,ra

0000000080003280 <i_3087>:
    80003280:	2f3c819b          	addiw	gp,s9,755

0000000080003284 <i_3088>:
    80003284:	02200c93          	li	s9,34

0000000080003288 <i_3089>:
    80003288:	419956b3          	sra	a3,s2,s9

000000008000328c <i_3090>:
    8000328c:	00d18c63          	beq	gp,a3,800032a4 <i_3096>

0000000080003290 <i_3091>:
    80003290:	0b211223          	sh	s2,164(sp)

0000000080003294 <i_3092>:
    80003294:	09211223          	sh	s2,132(sp)

0000000080003298 <i_3093>:
    80003298:	f9812183          	lw	gp,-104(sp)

000000008000329c <i_3094>:
    8000329c:	039cecb3          	rem	s9,s9,s9

00000000800032a0 <i_3095>:
    800032a0:	19accc93          	xori	s9,s9,410

00000000800032a4 <i_3096>:
    800032a4:	00000013          	nop

00000000800032a8 <i_3097>:
    800032a8:	c5ccbc13          	sltiu	s8,s9,-932

00000000800032ac <i_3098>:
    800032ac:	74d00c93          	li	s9,1869

00000000800032b0 <i_3099>:
    800032b0:	75800a93          	li	s5,1880

00000000800032b4 <i_3100>:
    800032b4:	039addb3          	divu	s11,s5,s9

00000000800032b8 <i_3101>:
    800032b8:	01928263          	beq	t0,s9,800032bc <i_3102>

00000000800032bc <i_3102>:
    800032bc:	f0d10e03          	lb	t3,-243(sp)

00000000800032c0 <i_3103>:
    800032c0:	e7510da3          	sb	s5,-389(sp)

00000000800032c4 <i_3104>:
    800032c4:	01912e23          	sw	s9,28(sp)

00000000800032c8 <i_3105>:
    800032c8:	07416203          	lwu	tp,116(sp)

00000000800032cc <i_3106>:
    800032cc:	1bb13423          	sd	s11,424(sp)

00000000800032d0 <i_3107>:
    800032d0:	1bc11083          	lh	ra,444(sp)

00000000800032d4 <i_3108>:
    800032d4:	02155463          	ble	ra,a0,800032fc <i_3117>

00000000800032d8 <i_3109>:
    800032d8:	00309d93          	slli	s11,ra,0x3

00000000800032dc <i_3110>:
    800032dc:	001c8c93          	addi	s9,s9,1 # 2e7e4001 <main-0x5181bfff>
    800032e0:	fd9afae3          	bleu	s9,s5,800032b4 <i_3100>

00000000800032e4 <i_3111>:
    800032e4:	e4416603          	lwu	a2,-444(sp)

00000000800032e8 <i_3112>:
    800032e8:	0040d263          	ble	tp,ra,800032ec <i_3113>

00000000800032ec <i_3113>:
    800032ec:	fa413423          	sd	tp,-88(sp)

00000000800032f0 <i_3114>:
    800032f0:	03910d83          	lb	s11,57(sp)

00000000800032f4 <i_3115>:
    800032f4:	02d00213          	li	tp,45

00000000800032f8 <i_3116>:
    800032f8:	0040ddb3          	srl	s11,ra,tp

00000000800032fc <i_3117>:
    800032fc:	1db10b03          	lb	s6,475(sp)

0000000080003300 <i_3118>:
    80003300:	036de263          	bltu	s11,s6,80003324 <i_3127>

0000000080003304 <i_3119>:
    80003304:	fb9b4b13          	xori	s6,s6,-71

0000000080003308 <i_3120>:
    80003308:	e9215983          	lhu	s3,-366(sp)

000000008000330c <i_3121>:
    8000330c:	00000013          	nop

0000000080003310 <i_3122>:
    80003310:	00000013          	nop

0000000080003314 <i_3123>:
    80003314:	00000013          	nop

0000000080003318 <i_3124>:
    80003318:	016b05b3          	add	a1,s6,s6

000000008000331c <i_3125>:
    8000331c:	00000013          	nop

0000000080003320 <i_3126>:
    80003320:	0c210983          	lb	s3,194(sp)

0000000080003324 <i_3127>:
    80003324:	10415983          	lhu	s3,260(sp)

0000000080003328 <i_3128>:
    80003328:	0260a0b3          	mulhsu	ra,ra,t1

000000008000332c <i_3129>:
    8000332c:	7cc00193          	li	gp,1996

0000000080003330 <i_3130>:
    80003330:	7e000d93          	li	s11,2016

0000000080003334 <i_3131>:
    80003334:	00bc8463          	beq	s9,a1,8000333c <i_3133>

0000000080003338 <i_3132>:
    80003338:	69b447b7          	lui	a5,0x69b44

000000008000333c <i_3133>:
    8000333c:	0fa13823          	sd	s10,240(sp)

0000000080003340 <i_3134>:
    80003340:	00109e63          	bne	ra,ra,8000335c <i_3140>

0000000080003344 <i_3135>:
    80003344:	00118193          	addi	gp,gp,1
    80003348:	fe3dd6e3          	ble	gp,s11,80003334 <i_3131>

000000008000334c <i_3136>:
    8000334c:	feb14083          	lbu	ra,-21(sp)

0000000080003350 <i_3137>:
    80003350:	00e00693          	li	a3,14

0000000080003354 <i_3138>:
    80003354:	00d49ebb          	sllw	t4,s1,a3

0000000080003358 <i_3139>:
    80003358:	03cac5bb          	divw	a1,s5,t3

000000008000335c <i_3140>:
    8000335c:	1bd13c23          	sd	t4,440(sp)

0000000080003360 <i_3141>:
    80003360:	0ee10083          	lb	ra,238(sp)

0000000080003364 <i_3142>:
    80003364:	f3114e83          	lbu	t4,-207(sp)

0000000080003368 <i_3143>:
    80003368:	017ef663          	bleu	s7,t4,80003374 <i_3146>

000000008000336c <i_3144>:
    8000336c:	0336d263          	ble	s3,a3,80003390 <i_3153>

0000000080003370 <i_3145>:
    80003370:	0139e463          	bltu	s3,s3,80003378 <i_3147>

0000000080003374 <i_3146>:
    80003374:	fe910583          	lb	a1,-23(sp)

0000000080003378 <i_3147>:
    80003378:	00b5fa63          	bleu	a1,a1,8000338c <i_3152>

000000008000337c <i_3148>:
    8000337c:	19016183          	lwu	gp,400(sp)

0000000080003380 <i_3149>:
    80003380:	f5b13c23          	sd	s11,-168(sp)

0000000080003384 <i_3150>:
    80003384:	1b91859b          	addiw	a1,gp,441

0000000080003388 <i_3151>:
    80003388:	1b416f83          	lwu	t6,436(sp)

000000008000338c <i_3152>:
    8000338c:	01c00093          	li	ra,28

0000000080003390 <i_3153>:
    80003390:	0015dab3          	srl	s5,a1,ra

0000000080003394 <i_3154>:
    80003394:	0f016a83          	lwu	s5,240(sp)

0000000080003398 <i_3155>:
    80003398:	8d300193          	li	gp,-1837

000000008000339c <i_3156>:
    8000339c:	8da00993          	li	s3,-1830

00000000800033a0 <i_3157>:
    800033a0:	02813903          	ld	s2,40(sp)

00000000800033a4 <i_3158>:
    800033a4:	0ca15083          	lhu	ra,202(sp)

00000000800033a8 <i_3159>:
    800033a8:	163104a3          	sb	gp,361(sp)

00000000800033ac <i_3160>:
    800033ac:	03c95e33          	divu	t3,s2,t3

00000000800033b0 <i_3161>:
    800033b0:	00118193          	addi	gp,gp,1
    800033b4:	fe39d6e3          	ble	gp,s3,800033a0 <i_3157>

00000000800033b8 <i_3162>:
    800033b8:	11211b23          	sh	s2,278(sp)

00000000800033bc <i_3163>:
    800033bc:	01398863          	beq	s3,s3,800033cc <i_3167>

00000000800033c0 <i_3164>:
    800033c0:	00f98463          	beq	s3,a5,800033c8 <i_3166>

00000000800033c4 <i_3165>:
    800033c4:	8c5ab913          	sltiu	s2,s5,-1851

00000000800033c8 <i_3166>:
    800033c8:	1d614a83          	lbu	s5,470(sp)

00000000800033cc <i_3167>:
    800033cc:	edc12303          	lw	t1,-292(sp)

00000000800033d0 <i_3168>:
    800033d0:	01b00313          	li	t1,27

00000000800033d4 <i_3169>:
    800033d4:	00609abb          	sllw	s5,ra,t1

00000000800033d8 <i_3170>:
    800033d8:	04015b83          	lhu	s7,64(sp)

00000000800033dc <i_3171>:
    800033dc:	0210a3b3          	mulhsu	t2,ra,ra

00000000800033e0 <i_3172>:
    800033e0:	03765063          	ble	s7,a2,80003400 <i_3180>

00000000800033e4 <i_3173>:
    800033e4:	10011083          	lh	ra,256(sp)

00000000800033e8 <i_3174>:
    800033e8:	fa813b83          	ld	s7,-88(sp)

00000000800033ec <i_3175>:
    800033ec:	197104a3          	sb	s7,393(sp)

00000000800033f0 <i_3176>:
    800033f0:	402bd093          	srai	ra,s7,0x2

00000000800033f4 <i_3177>:
    800033f4:	ebc11a03          	lh	s4,-324(sp)

00000000800033f8 <i_3178>:
    800033f8:	e8110d83          	lb	s11,-383(sp)

00000000800033fc <i_3179>:
    800033fc:	02510933          	mul	s2,sp,t0

0000000080003400 <i_3180>:
    80003400:	00bdebb3          	or	s7,s11,a1

0000000080003404 <i_3181>:
    80003404:	e5f10c83          	lb	s9,-417(sp)

0000000080003408 <i_3182>:
    80003408:	76b00e13          	li	t3,1899

000000008000340c <i_3183>:
    8000340c:	77200313          	li	t1,1906

0000000080003410 <i_3184>:
    80003410:	f2a10503          	lb	a0,-214(sp)

0000000080003414 <i_3185>:
    80003414:	40bc85bb          	subw	a1,s9,a1

0000000080003418 <i_3186>:
    80003418:	04013503          	ld	a0,64(sp)

000000008000341c <i_3187>:
    8000341c:	001e0e13          	addi	t3,t3,1
    80003420:	fe6e48e3          	blt	t3,t1,80003410 <i_3184>

0000000080003424 <i_3188>:
    80003424:	0296e6b3          	rem	a3,a3,s1

0000000080003428 <i_3189>:
    80003428:	e3013c83          	ld	s9,-464(sp)

000000008000342c <i_3190>:
    8000342c:	09b10903          	lb	s2,155(sp)

0000000080003430 <i_3191>:
    80003430:	00f5ea63          	bltu	a1,a5,80003444 <i_3196>

0000000080003434 <i_3192>:
    80003434:	1b016c83          	lwu	s9,432(sp)

0000000080003438 <i_3193>:
    80003438:	032cc533          	div	a0,s9,s2

000000008000343c <i_3194>:
    8000343c:	1ca13423          	sd	a0,456(sp)

0000000080003440 <i_3195>:
    80003440:	e6411f83          	lh	t6,-412(sp)

0000000080003444 <i_3196>:
    80003444:	e8d13c23          	sd	a3,-360(sp)

0000000080003448 <i_3197>:
    80003448:	f2b10f23          	sb	a1,-194(sp)

000000008000344c <i_3198>:
    8000344c:	82e00d13          	li	s10,-2002

0000000080003450 <i_3199>:
    80003450:	83900393          	li	t2,-1991

0000000080003454 <i_3200>:
    80003454:	00ad1e63          	bne	s10,a0,80003470 <i_3206>

0000000080003458 <i_3201>:
    80003458:	001d0d13          	addi	s10,s10,1 # 367f2001 <main-0x4980dfff>
    8000345c:	ffa3fce3          	bleu	s10,t2,80003454 <i_3200>

0000000080003460 <i_3202>:
    80003460:	ff813903          	ld	s2,-8(sp)

0000000080003464 <i_3203>:
    80003464:	ebd14983          	lbu	s3,-323(sp)

0000000080003468 <i_3204>:
    80003468:	ff013903          	ld	s2,-16(sp)

000000008000346c <i_3205>:
    8000346c:	0125fd33          	and	s10,a1,s2

0000000080003470 <i_3206>:
    80003470:	0b012983          	lw	s3,176(sp)

0000000080003474 <i_3207>:
    80003474:	004ede9b          	srliw	t4,t4,0x4

0000000080003478 <i_3208>:
    80003478:	003e86b3          	add	a3,t4,gp

000000008000347c <i_3209>:
    8000347c:	ff813183          	ld	gp,-8(sp)

0000000080003480 <i_3210>:
    80003480:	fae15e83          	lhu	t4,-82(sp)

0000000080003484 <i_3211>:
    80003484:	fcd13823          	sd	a3,-48(sp)

0000000080003488 <i_3212>:
    80003488:	004f9f9b          	slliw	t6,t6,0x4

000000008000348c <i_3213>:
    8000348c:	03fec7bb          	divw	a5,t4,t6

0000000080003490 <i_3214>:
    80003490:	02fe8fbb          	mulw	t6,t4,a5

0000000080003494 <i_3215>:
    80003494:	edd13823          	sd	t4,-304(sp)

0000000080003498 <i_3216>:
    80003498:	01ff8263          	beq	t6,t6,8000349c <i_3217>

000000008000349c <i_3217>:
    8000349c:	01f7afb3          	slt	t6,a5,t6

00000000800034a0 <i_3218>:
    800034a0:	03813f83          	ld	t6,56(sp)

00000000800034a4 <i_3219>:
    800034a4:	02f22933          	mulhsu	s2,tp,a5

00000000800034a8 <i_3220>:
    800034a8:	02ffe463          	bltu	t6,a5,800034d0 <i_3230>

00000000800034ac <i_3221>:
    800034ac:	4036561b          	sraiw	a2,a2,0x3

00000000800034b0 <i_3222>:
    800034b0:	0037d863          	ble	gp,a5,800034c0 <i_3226>

00000000800034b4 <i_3223>:
    800034b4:	e4314d03          	lbu	s10,-445(sp)

00000000800034b8 <i_3224>:
    800034b8:	7ee63813          	sltiu	a6,a2,2030

00000000800034bc <i_3225>:
    800034bc:	fe815603          	lhu	a2,-24(sp)

00000000800034c0 <i_3226>:
    800034c0:	e5811e83          	lh	t4,-424(sp)

00000000800034c4 <i_3227>:
    800034c4:	40465613          	srai	a2,a2,0x4

00000000800034c8 <i_3228>:
    800034c8:	f6016a83          	lwu	s5,-160(sp)

00000000800034cc <i_3229>:
    800034cc:	13511f23          	sh	s5,318(sp)

00000000800034d0 <i_3230>:
    800034d0:	fdc15303          	lhu	t1,-36(sp)

00000000800034d4 <i_3231>:
    800034d4:	e3016b03          	lwu	s6,-464(sp)

00000000800034d8 <i_3232>:
    800034d8:	79700793          	li	a5,1943

00000000800034dc <i_3233>:
    800034dc:	7a900613          	li	a2,1961

00000000800034e0 <i_3234>:
    800034e0:	19614f83          	lbu	t6,406(sp)

00000000800034e4 <i_3235>:
    800034e4:	00000013          	nop

00000000800034e8 <i_3236>:
    800034e8:	86900a93          	li	s5,-1943

00000000800034ec <i_3237>:
    800034ec:	87400313          	li	t1,-1932

00000000800034f0 <i_3238>:
    800034f0:	03ca843b          	mulw	s0,s5,t3

00000000800034f4 <i_3239>:
    800034f4:	f8810d23          	sb	s0,-102(sp)

00000000800034f8 <i_3240>:
    800034f8:	001a8a93          	addi	s5,s5,1
    800034fc:	fe6a9ae3          	bne	s5,t1,800034f0 <i_3238>

0000000080003500 <i_3241>:
    80003500:	00000013          	nop

0000000080003504 <i_3242>:
    80003504:	00178793          	addi	a5,a5,1 # 69b44001 <main-0x164bbfff>
    80003508:	fcf65ce3          	ble	a5,a2,800034e0 <i_3234>

000000008000350c <i_3243>:
    8000350c:	036aaab3          	mulhsu	s5,s5,s6

0000000080003510 <i_3244>:
    80003510:	01016e83          	lwu	t4,16(sp)

0000000080003514 <i_3245>:
    80003514:	015edc63          	ble	s5,t4,8000352c <i_3251>

0000000080003518 <i_3246>:
    80003518:	01d20c63          	beq	tp,t4,80003530 <i_3252>

000000008000351c <i_3247>:
    8000351c:	19511823          	sh	s5,400(sp)

0000000080003520 <i_3248>:
    80003520:	e9c16403          	lwu	s0,-356(sp)

0000000080003524 <i_3249>:
    80003524:	13511123          	sh	s5,290(sp)

0000000080003528 <i_3250>:
    80003528:	f1816903          	lwu	s2,-232(sp)

000000008000352c <i_3251>:
    8000352c:	11110503          	lb	a0,273(sp)

0000000080003530 <i_3252>:
    80003530:	035af463          	bleu	s5,s5,80003558 <i_3262>

0000000080003534 <i_3253>:
    80003534:	02aaf063          	bleu	a0,s5,80003554 <i_3261>

0000000080003538 <i_3254>:
    80003538:	16a11a83          	lh	s5,362(sp)

000000008000353c <i_3255>:
    8000353c:	01b00913          	li	s2,27

0000000080003540 <i_3256>:
    80003540:	0120993b          	sllw	s2,ra,s2

0000000080003544 <i_3257>:
    80003544:	1ce14e83          	lbu	t4,462(sp)

0000000080003548 <i_3258>:
    80003548:	ebc15c83          	lhu	s9,-324(sp)

000000008000354c <i_3259>:
    8000354c:	03dee263          	bltu	t4,t4,80003570 <i_3268>

0000000080003550 <i_3260>:
    80003550:	03994263          	blt	s2,s9,80003574 <i_3269>

0000000080003554 <i_3261>:
    80003554:	18812e83          	lw	t4,392(sp)

0000000080003558 <i_3262>:
    80003558:	01a00093          	li	ra,26

000000008000355c <i_3263>:
    8000355c:	40155bbb          	sraw	s7,a0,ra

0000000080003560 <i_3264>:
    80003560:	fff10323          	sb	t6,-26(sp)

0000000080003564 <i_3265>:
    80003564:	fe397613          	andi	a2,s2,-29

0000000080003568 <i_3266>:
    80003568:	a7b28ab7          	lui	s5,0xa7b28

000000008000356c <i_3267>:
    8000356c:	e3012a83          	lw	s5,-464(sp)

0000000080003570 <i_3268>:
    80003570:	fbc10f23          	sb	t3,-66(sp)

0000000080003574 <i_3269>:
    80003574:	03dcf9bb          	remuw	s3,s9,t4

0000000080003578 <i_3270>:
    80003578:	f2013903          	ld	s2,-224(sp)

000000008000357c <i_3271>:
    8000357c:	17710b23          	sb	s7,374(sp)

0000000080003580 <i_3272>:
    80003580:	00d9b6b3          	sltu	a3,s3,a3

0000000080003584 <i_3273>:
    80003584:	01750863          	beq	a0,s7,80003594 <i_3277>

0000000080003588 <i_3274>:
    80003588:	04416b83          	lwu	s7,68(sp)

000000008000358c <i_3275>:
    8000358c:	f6416503          	lwu	a0,-156(sp)

0000000080003590 <i_3276>:
    80003590:	017e5e63          	ble	s7,t3,800035ac <i_3283>

0000000080003594 <i_3277>:
    80003594:	0146f263          	bleu	s4,a3,80003598 <i_3278>

0000000080003598 <i_3278>:
    80003598:	e3415c83          	lhu	s9,-460(sp)

000000008000359c <i_3279>:
    8000359c:	f8a12423          	sw	a0,-120(sp)

00000000800035a0 <i_3280>:
    800035a0:	e7711923          	sh	s7,-398(sp)

00000000800035a4 <i_3281>:
    800035a4:	02a6553b          	divuw	a0,a2,a0

00000000800035a8 <i_3282>:
    800035a8:	417c8bb3          	sub	s7,s9,s7

00000000800035ac <i_3283>:
    800035ac:	40af0833          	sub	a6,t5,a0

00000000800035b0 <i_3284>:
    800035b0:	037ce533          	rem	a0,s9,s7

00000000800035b4 <i_3285>:
    800035b4:	f8b10b83          	lb	s7,-117(sp)

00000000800035b8 <i_3286>:
    800035b8:	02a879bb          	remuw	s3,a6,a0

00000000800035bc <i_3287>:
    800035bc:	79300c93          	li	s9,1939

00000000800035c0 <i_3288>:
    800035c0:	79e00813          	li	a6,1950

00000000800035c4 <i_3289>:
    800035c4:	0f016e03          	lwu	t3,240(sp)

00000000800035c8 <i_3290>:
    800035c8:	00000013          	nop

00000000800035cc <i_3291>:
    800035cc:	001c8c93          	addi	s9,s9,1
    800035d0:	ff0ccae3          	blt	s9,a6,800035c4 <i_3289>

00000000800035d4 <i_3292>:
    800035d4:	06b10b83          	lb	s7,107(sp)

00000000800035d8 <i_3293>:
    800035d8:	f9015583          	lhu	a1,-112(sp)

00000000800035dc <i_3294>:
    800035dc:	01fc2233          	slt	tp,s8,t6

00000000800035e0 <i_3295>:
    800035e0:	00300e13          	li	t3,3

00000000800035e4 <i_3296>:
    800035e4:	01c519b3          	sll	s3,a0,t3

00000000800035e8 <i_3297>:
    800035e8:	13013603          	ld	a2,304(sp)

00000000800035ec <i_3298>:
    800035ec:	a38e3e13          	sltiu	t3,t3,-1480

00000000800035f0 <i_3299>:
    800035f0:	03c7c7bb          	divw	a5,a5,t3

00000000800035f4 <i_3300>:
    800035f4:	00fe4e33          	xor	t3,t3,a5

00000000800035f8 <i_3301>:
    800035f8:	2a1e7793          	andi	a5,t3,673

00000000800035fc <i_3302>:
    800035fc:	14f11723          	sh	a5,334(sp)

0000000080003600 <i_3303>:
    80003600:	84600e13          	li	t3,-1978

0000000080003604 <i_3304>:
    80003604:	84b00293          	li	t0,-1973

0000000080003608 <i_3305>:
    80003608:	01a14603          	lbu	a2,26(sp)

000000008000360c <i_3306>:
    8000360c:	41c609bb          	subw	s3,a2,t3

0000000080003610 <i_3307>:
    80003610:	01cb2433          	slt	s0,s6,t3

0000000080003614 <i_3308>:
    80003614:	f6f10b03          	lb	s6,-145(sp)

0000000080003618 <i_3309>:
    80003618:	005b0c63          	beq	s6,t0,80003630 <i_3315>

000000008000361c <i_3310>:
    8000361c:	fdc11b03          	lh	s6,-36(sp)

0000000080003620 <i_3311>:
    80003620:	e6011503          	lh	a0,-416(sp)

0000000080003624 <i_3312>:
    80003624:	036b1663          	bne	s6,s6,80003650 <i_3322>

0000000080003628 <i_3313>:
    80003628:	f6d10b03          	lb	s6,-147(sp)

000000008000362c <i_3314>:
    8000362c:	00000013          	nop

0000000080003630 <i_3315>:
    80003630:	f1611e23          	sh	s6,-228(sp)

0000000080003634 <i_3316>:
    80003634:	00235f1b          	srliw	t5,t1,0x2

0000000080003638 <i_3317>:
    80003638:	00000013          	nop

000000008000363c <i_3318>:
    8000363c:	01b00b13          	li	s6,27

0000000080003640 <i_3319>:
    80003640:	416f5533          	sra	a0,t5,s6

0000000080003644 <i_3320>:
    80003644:	001e0e13          	addi	t3,t3,1
    80003648:	fdc2d0e3          	ble	t3,t0,80003608 <i_3305>

000000008000364c <i_3321>:
    8000364c:	00af0a63          	beq	t5,a0,80003660 <i_3326>

0000000080003650 <i_3322>:
    80003650:	03e57f33          	remu	t5,a0,t5

0000000080003654 <i_3323>:
    80003654:	00000013          	nop

0000000080003658 <i_3324>:
    80003658:	00000013          	nop

000000008000365c <i_3325>:
    8000365c:	e5210f23          	sb	s2,-418(sp)

0000000080003660 <i_3326>:
    80003660:	41750bb3          	sub	s7,a0,s7

0000000080003664 <i_3327>:
    80003664:	00000013          	nop

0000000080003668 <i_3328>:
    80003668:	81f00513          	li	a0,-2017

000000008000366c <i_3329>:
    8000366c:	82900f13          	li	t5,-2007

0000000080003670 <i_3330>:
    80003670:	e3615303          	lhu	t1,-458(sp)

0000000080003674 <i_3331>:
    80003674:	00114183          	lbu	gp,1(sp)

0000000080003678 <i_3332>:
    80003678:	fd012203          	lw	tp,-48(sp)

000000008000367c <i_3333>:
    8000367c:	0323f23b          	remuw	tp,t2,s2

0000000080003680 <i_3334>:
    80003680:	01400193          	li	gp,20

0000000080003684 <i_3335>:
    80003684:	403f5abb          	sraw	s5,t5,gp

0000000080003688 <i_3336>:
    80003688:	00150513          	addi	a0,a0,1
    8000368c:	ffe512e3          	bne	a0,t5,80003670 <i_3330>

0000000080003690 <i_3337>:
    80003690:	01c24663          	blt	tp,t3,8000369c <i_3340>

0000000080003694 <i_3338>:
    80003694:	0241c83b          	divw	a6,gp,tp

0000000080003698 <i_3339>:
    80003698:	00427263          	bleu	tp,tp,8000369c <i_3340>

000000008000369c <i_3340>:
    8000369c:	01557463          	bleu	s5,a0,800036a4 <i_3342>

00000000800036a0 <i_3341>:
    800036a0:	003af263          	bleu	gp,s5,800036a4 <i_3342>

00000000800036a4 <i_3342>:
    800036a4:	0249623b          	remw	tp,s2,tp

00000000800036a8 <i_3343>:
    800036a8:	f2714303          	lbu	t1,-217(sp)

00000000800036ac <i_3344>:
    800036ac:	ff816a83          	lwu	s5,-8(sp)

00000000800036b0 <i_3345>:
    800036b0:	0fc16503          	lwu	a0,252(sp)

00000000800036b4 <i_3346>:
    800036b4:	00431e63          	bne	t1,tp,800036d0 <i_3353>

00000000800036b8 <i_3347>:
    800036b8:	03caee3b          	remw	t3,s5,t3

00000000800036bc <i_3348>:
    800036bc:	002e1313          	slli	t1,t3,0x2

00000000800036c0 <i_3349>:
    800036c0:	01ce0a63          	beq	t3,t3,800036d4 <i_3354>

00000000800036c4 <i_3350>:
    800036c4:	00251d1b          	slliw	s10,a0,0x2

00000000800036c8 <i_3351>:
    800036c8:	f2012783          	lw	a5,-224(sp)

00000000800036cc <i_3352>:
    800036cc:	02f54463          	blt	a0,a5,800036f4 <i_3362>

00000000800036d0 <i_3353>:
    800036d0:	02ee1063          	bne	t3,a4,800036f0 <i_3361>

00000000800036d4 <i_3354>:
    800036d4:	02c10303          	lb	t1,44(sp)

00000000800036d8 <i_3355>:
    800036d8:	faf11e23          	sh	a5,-68(sp)

00000000800036dc <i_3356>:
    800036dc:	ed812d03          	lw	s10,-296(sp)

00000000800036e0 <i_3357>:
    800036e0:	e4a10e03          	lb	t3,-438(sp)

00000000800036e4 <i_3358>:
    800036e4:	03c14263          	blt	sp,t3,80003708 <i_3367>

00000000800036e8 <i_3359>:
    800036e8:	402e5e13          	srai	t3,t3,0x2

00000000800036ec <i_3360>:
    800036ec:	f2a11c23          	sh	a0,-200(sp)

00000000800036f0 <i_3361>:
    800036f0:	03cd3ab3          	mulhu	s5,s10,t3

00000000800036f4 <i_3362>:
    800036f4:	00813783          	ld	a5,8(sp)

00000000800036f8 <i_3363>:
    800036f8:	01a36463          	bltu	t1,s10,80003700 <i_3365>

00000000800036fc <i_3364>:
    800036fc:	01ae6e63          	bltu	t3,s10,80003718 <i_3371>

0000000080003700 <i_3365>:
    80003700:	01b7fc63          	bleu	s11,a5,80003718 <i_3371>

0000000080003704 <i_3366>:
    80003704:	01ad6863          	bltu	s10,s10,80003714 <i_3370>

0000000080003708 <i_3367>:
    80003708:	fba13823          	sd	s10,-80(sp)

000000008000370c <i_3368>:
    8000370c:	ee416d83          	lwu	s11,-284(sp)

0000000080003710 <i_3369>:
    80003710:	00000013          	nop

0000000080003714 <i_3370>:
    80003714:	02fdbd33          	mulhu	s10,s11,a5

0000000080003718 <i_3371>:
    80003718:	8ed78793          	addi	a5,a5,-1811

000000008000371c <i_3372>:
    8000371c:	02dd57bb          	divuw	a5,s10,a3

0000000080003720 <i_3373>:
    80003720:	77700e13          	li	t3,1911

0000000080003724 <i_3374>:
    80003724:	78700693          	li	a3,1927

0000000080003728 <i_3375>:
    80003728:	4016d293          	srai	t0,a3,0x1

000000008000372c <i_3376>:
    8000372c:	02dde53b          	remw	a0,s11,a3

0000000080003730 <i_3377>:
    80003730:	01bb6b33          	or	s6,s6,s11

0000000080003734 <i_3378>:
    80003734:	0c6ded13          	ori	s10,s11,198

0000000080003738 <i_3379>:
    80003738:	29381797          	auipc	a5,0x29381

000000008000373c <i_3380>:
    8000373c:	f5510d83          	lb	s11,-171(sp)

0000000080003740 <i_3381>:
    80003740:	008dfdb3          	and	s11,s11,s0

0000000080003744 <i_3382>:
    80003744:	f1b11b23          	sh	s11,-234(sp)

0000000080003748 <i_3383>:
    80003748:	11b10f23          	sb	s11,286(sp)

000000008000374c <i_3384>:
    8000374c:	01bdc263          	blt	s11,s11,80003750 <i_3385>

0000000080003750 <i_3385>:
    80003750:	01b77db3          	and	s11,a4,s11

0000000080003754 <i_3386>:
    80003754:	03bdf663          	bleu	s11,s11,80003780 <i_3396>

0000000080003758 <i_3387>:
    80003758:	001e0e13          	addi	t3,t3,1
    8000375c:	fdc6d6e3          	ble	t3,a3,80003728 <i_3375>

0000000080003760 <i_3388>:
    80003760:	00000013          	nop

0000000080003764 <i_3389>:
    80003764:	00000013          	nop

0000000080003768 <i_3390>:
    80003768:	07b11023          	sh	s11,96(sp)

000000008000376c <i_3391>:
    8000376c:	401ddb93          	srai	s7,s11,0x1

0000000080003770 <i_3392>:
    80003770:	01bbae33          	slt	t3,s7,s11

0000000080003774 <i_3393>:
    80003774:	0375d6b3          	divu	a3,a1,s7

0000000080003778 <i_3394>:
    80003778:	733c3c13          	sltiu	s8,s8,1843

000000008000377c <i_3395>:
    8000377c:	078a0b93          	addi	s7,s4,120

0000000080003780 <i_3396>:
    80003780:	d73beb93          	ori	s7,s7,-653

0000000080003784 <i_3397>:
    80003784:	00d6cbb3          	xor	s7,a3,a3

0000000080003788 <i_3398>:
    80003788:	8a900d93          	li	s11,-1879

000000008000378c <i_3399>:
    8000378c:	8b200593          	li	a1,-1870

0000000080003790 <i_3400>:
    80003790:	f8d10c23          	sb	a3,-104(sp)

0000000080003794 <i_3401>:
    80003794:	1d711d23          	sh	s7,474(sp)

0000000080003798 <i_3402>:
    80003798:	02c16b83          	lwu	s7,44(sp)

000000008000379c <i_3403>:
    8000379c:	00b6e4b3          	or	s1,a3,a1

00000000800037a0 <i_3404>:
    800037a0:	001d8d93          	addi	s11,s11,1
    800037a4:	ffb5f6e3          	bleu	s11,a1,80003790 <i_3400>

00000000800037a8 <i_3405>:
    800037a8:	f3111e23          	sh	a7,-196(sp)

00000000800037ac <i_3406>:
    800037ac:	017c1263          	bne	s8,s7,800037b0 <i_3407>

00000000800037b0 <i_3407>:
    800037b0:	00dbf863          	bleu	a3,s7,800037c0 <i_3411>

00000000800037b4 <i_3408>:
    800037b4:	e1813d83          	ld	s11,-488(sp)

00000000800037b8 <i_3409>:
    800037b8:	003dd31b          	srliw	t1,s11,0x3

00000000800037bc <i_3410>:
    800037bc:	018c7263          	bleu	s8,s8,800037c0 <i_3411>

00000000800037c0 <i_3411>:
    800037c0:	03b6f263          	bleu	s11,a3,800037e4 <i_3420>

00000000800037c4 <i_3412>:
    800037c4:	037bc263          	blt	s7,s7,800037e8 <i_3421>

00000000800037c8 <i_3413>:
    800037c8:	d90deb93          	ori	s7,s11,-624

00000000800037cc <i_3414>:
    800037cc:	f4912a23          	sw	s1,-172(sp)

00000000800037d0 <i_3415>:
    800037d0:	03736db3          	rem	s11,t1,s7

00000000800037d4 <i_3416>:
    800037d4:	026108a3          	sb	t1,49(sp)

00000000800037d8 <i_3417>:
    800037d8:	ff210da3          	sb	s2,-5(sp)

00000000800037dc <i_3418>:
    800037dc:	030d9333          	mulh	t1,s11,a6

00000000800037e0 <i_3419>:
    800037e0:	fa612623          	sw	t1,-84(sp)

00000000800037e4 <i_3420>:
    800037e4:	c4746c13          	ori	s8,s0,-953

00000000800037e8 <i_3421>:
    800037e8:	03bdda33          	divu	s4,s11,s11

00000000800037ec <i_3422>:
    800037ec:	f5b13423          	sd	s11,-184(sp)

00000000800037f0 <i_3423>:
    800037f0:	0185e663          	bltu	a1,s8,800037fc <i_3426>

00000000800037f4 <i_3424>:
    800037f4:	03bc4263          	blt	s8,s11,80003818 <i_3433>

00000000800037f8 <i_3425>:
    800037f8:	e6510083          	lb	ra,-411(sp)

00000000800037fc <i_3426>:
    800037fc:	00836c63          	bltu	t1,s0,80003814 <i_3432>

0000000080003800 <i_3427>:
    80003800:	f5416a83          	lwu	s5,-172(sp)

0000000080003804 <i_3428>:
    80003804:	11a15a03          	lhu	s4,282(sp)

0000000080003808 <i_3429>:
    80003808:	03e11403          	lh	s0,62(sp)

000000008000380c <i_3430>:
    8000380c:	f5811923          	sh	s8,-174(sp)

0000000080003810 <i_3431>:
    80003810:	03300d93          	li	s11,51

0000000080003814 <i_3432>:
    80003814:	01bb9ab3          	sll	s5,s7,s11

0000000080003818 <i_3433>:
    80003818:	e8613823          	sd	t1,-368(sp)

000000008000381c <i_3434>:
    8000381c:	4030db93          	srai	s7,ra,0x3

0000000080003820 <i_3435>:
    80003820:	7e900313          	li	t1,2025

0000000080003824 <i_3436>:
    80003824:	7fc00993          	li	s3,2044

0000000080003828 <i_3437>:
    80003828:	017c6463          	bltu	s8,s7,80003830 <i_3439>

000000008000382c <i_3438>:
    8000382c:	0f512223          	sw	s5,228(sp)

0000000080003830 <i_3439>:
    80003830:	01cad463          	ble	t3,s5,80003838 <i_3441>

0000000080003834 <i_3440>:
    80003834:	00500e13          	li	t3,5

0000000080003838 <i_3441>:
    80003838:	01c9ddb3          	srl	s11,s3,t3

000000008000383c <i_3442>:
    8000383c:	028c6533          	rem	a0,s8,s0

0000000080003840 <i_3443>:
    80003840:	61437513          	andi	a0,t1,1556

0000000080003844 <i_3444>:
    80003844:	024de463          	bltu	s11,tp,8000386c <i_3453>

0000000080003848 <i_3445>:
    80003848:	00130313          	addi	t1,t1,1 # 1905dfc5 <main-0x66fa203b>
    8000384c:	fd334ee3          	blt	t1,s3,80003828 <i_3437>

0000000080003850 <i_3446>:
    80003850:	efb12e23          	sw	s11,-260(sp)

0000000080003854 <i_3447>:
    80003854:	ffe14b83          	lbu	s7,-2(sp)

0000000080003858 <i_3448>:
    80003858:	1811c517          	auipc	a0,0x1811c

000000008000385c <i_3449>:
    8000385c:	00a51463          	bne	a0,a0,80003864 <i_3451>

0000000080003860 <i_3450>:
    80003860:	25857393          	andi	t2,a0,600

0000000080003864 <i_3451>:
    80003864:	15816583          	lwu	a1,344(sp)

0000000080003868 <i_3452>:
    80003868:	03256933          	rem	s2,a0,s2

000000008000386c <i_3453>:
    8000386c:	eb416503          	lwu	a0,-332(sp)

0000000080003870 <i_3454>:
    80003870:	eda15203          	lhu	tp,-294(sp)

0000000080003874 <i_3455>:
    80003874:	4045539b          	sraiw	t2,a0,0x4

0000000080003878 <i_3456>:
    80003878:	e9412903          	lw	s2,-364(sp)

000000008000387c <i_3457>:
    8000387c:	09610d83          	lb	s11,150(sp)

0000000080003880 <i_3458>:
    80003880:	018daf33          	slt	t5,s11,s8

0000000080003884 <i_3459>:
    80003884:	007dd863          	ble	t2,s11,80003894 <i_3463>

0000000080003888 <i_3460>:
    80003888:	ed611383          	lh	t2,-298(sp)

000000008000388c <i_3461>:
    8000388c:	01edd863          	ble	t5,s11,8000389c <i_3465>

0000000080003890 <i_3462>:
    80003890:	02a11f23          	sh	a0,62(sp)

0000000080003894 <i_3463>:
    80003894:	036f5263          	ble	s6,t5,800038b8 <i_3472>

0000000080003898 <i_3464>:
    80003898:	e4713023          	sd	t2,-448(sp)

000000008000389c <i_3465>:
    8000389c:	407b0b3b          	subw	s6,s6,t2

00000000800038a0 <i_3466>:
    800038a0:	11813383          	ld	t2,280(sp)

00000000800038a4 <i_3467>:
    800038a4:	18713423          	sd	t2,392(sp)

00000000800038a8 <i_3468>:
    800038a8:	00b00f93          	li	t6,11

00000000800038ac <i_3469>:
    800038ac:	01f3d83b          	srlw	a6,t2,t6

00000000800038b0 <i_3470>:
    800038b0:	1c813583          	ld	a1,456(sp)

00000000800038b4 <i_3471>:
    800038b4:	06813f03          	ld	t5,104(sp)

00000000800038b8 <i_3472>:
    800038b8:	004fdf9b          	srliw	t6,t6,0x4

00000000800038bc <i_3473>:
    800038bc:	fb013c23          	sd	a6,-72(sp)

00000000800038c0 <i_3474>:
    800038c0:	7be00d93          	li	s11,1982

00000000800038c4 <i_3475>:
    800038c4:	7c400513          	li	a0,1988

00000000800038c8 <i_3476>:
    800038c8:	03ff95b3          	mulh	a1,t6,t6

00000000800038cc <i_3477>:
    800038cc:	ebc15483          	lhu	s1,-324(sp)

00000000800038d0 <i_3478>:
    800038d0:	001d8d93          	addi	s11,s11,1
    800038d4:	ffb55ae3          	ble	s11,a0,800038c8 <i_3476>

00000000800038d8 <i_3479>:
    800038d8:	00000013          	nop

00000000800038dc <i_3480>:
    800038dc:	03e314b3          	mulh	s1,t1,t5

00000000800038e0 <i_3481>:
    800038e0:	f4412a83          	lw	s5,-188(sp)

00000000800038e4 <i_3482>:
    800038e4:	00000013          	nop

00000000800038e8 <i_3483>:
    800038e8:	86600d93          	li	s11,-1946

00000000800038ec <i_3484>:
    800038ec:	87700313          	li	t1,-1929

00000000800038f0 <i_3485>:
    800038f0:	00a884b3          	add	s1,a7,a0

00000000800038f4 <i_3486>:
    800038f4:	00bda533          	slt	a0,s11,a1

00000000800038f8 <i_3487>:
    800038f8:	001d8d93          	addi	s11,s11,1
    800038fc:	fe6deae3          	bltu	s11,t1,800038f0 <i_3485>

0000000080003900 <i_3488>:
    80003900:	416a8dbb          	subw	s11,s5,s6

0000000080003904 <i_3489>:
    80003904:	03555abb          	divuw	s5,a0,s5

0000000080003908 <i_3490>:
    80003908:	0a714e83          	lbu	t4,167(sp)

000000008000390c <i_3491>:
    8000390c:	10013f83          	ld	t6,256(sp)

0000000080003910 <i_3492>:
    80003910:	402f8db3          	sub	s11,t6,sp

0000000080003914 <i_3493>:
    80003914:	16615d83          	lhu	s11,358(sp)

0000000080003918 <i_3494>:
    80003918:	ebc15583          	lhu	a1,-324(sp)

000000008000391c <i_3495>:
    8000391c:	00bdf463          	bleu	a1,s11,80003924 <i_3497>

0000000080003920 <i_3496>:
    80003920:	02bdfdb3          	remu	s11,s11,a1

0000000080003924 <i_3497>:
    80003924:	10511c23          	sh	t0,280(sp)

0000000080003928 <i_3498>:
    80003928:	01ff9c63          	bne	t6,t6,80003940 <i_3504>

000000008000392c <i_3499>:
    8000392c:	03bda5b3          	mulhsu	a1,s11,s11

0000000080003930 <i_3500>:
    80003930:	1a013203          	ld	tp,416(sp)

0000000080003934 <i_3501>:
    80003934:	f4416783          	lwu	a5,-188(sp)

0000000080003938 <i_3502>:
    80003938:	007ff863          	bleu	t2,t6,80003948 <i_3506>

000000008000393c <i_3503>:
    8000393c:	07b11923          	sh	s11,114(sp)

0000000080003940 <i_3504>:
    80003940:	ffe11183          	lh	gp,-2(sp)

0000000080003944 <i_3505>:
    80003944:	40208db3          	sub	s11,ra,sp

0000000080003948 <i_3506>:
    80003948:	e5114083          	lbu	ra,-431(sp)

000000008000394c <i_3507>:
    8000394c:	eac16203          	lwu	tp,-340(sp)

0000000080003950 <i_3508>:
    80003950:	00221093          	slli	ra,tp,0x2

0000000080003954 <i_3509>:
    80003954:	fc1104a3          	sb	ra,-55(sp)

0000000080003958 <i_3510>:
    80003958:	fbb10603          	lb	a2,-69(sp)

000000008000395c <i_3511>:
    8000395c:	0030f263          	bleu	gp,ra,80003960 <i_3512>

0000000080003960 <i_3512>:
    80003960:	15411183          	lh	gp,340(sp)

0000000080003964 <i_3513>:
    80003964:	67c0fc93          	andi	s9,ra,1660

0000000080003968 <i_3514>:
    80003968:	69c1ba17          	auipc	s4,0x69c1b

000000008000396c <i_3515>:
    8000396c:	023a71bb          	remuw	gp,s4,gp

0000000080003970 <i_3516>:
    80003970:	e98c2a17          	auipc	s4,0xe98c2

0000000080003974 <i_3517>:
    80003974:	e7410123          	sb	s4,-414(sp)

0000000080003978 <i_3518>:
    80003978:	00e080b3          	add	ra,ra,a4

000000008000397c <i_3519>:
    8000397c:	00dd0333          	add	t1,s10,a3

0000000080003980 <i_3520>:
    80003980:	00000013          	nop

0000000080003984 <i_3521>:
    80003984:	03f11d23          	sh	t6,58(sp)

0000000080003988 <i_3522>:
    80003988:	7d400f93          	li	t6,2004

000000008000398c <i_3523>:
    8000398c:	7de00a13          	li	s4,2014

0000000080003990 <i_3524>:
    80003990:	e9c109a3          	sb	t3,-365(sp)

0000000080003994 <i_3525>:
    80003994:	03411a83          	lh	s5,52(sp)

0000000080003998 <i_3526>:
    80003998:	015ace63          	blt	s5,s5,800039b4 <i_3533>

000000008000399c <i_3527>:
    8000399c:	1c412d83          	lw	s11,452(sp)

00000000800039a0 <i_3528>:
    800039a0:	e6811e23          	sh	s0,-388(sp)

00000000800039a4 <i_3529>:
    800039a4:	03411c23          	sh	s4,56(sp)

00000000800039a8 <i_3530>:
    800039a8:	16c10303          	lb	t1,364(sp)

00000000800039ac <i_3531>:
    800039ac:	0150d463          	ble	s5,ra,800039b4 <i_3533>

00000000800039b0 <i_3532>:
    800039b0:	02816a83          	lwu	s5,40(sp)

00000000800039b4 <i_3533>:
    800039b4:	03b00b93          	li	s7,59

00000000800039b8 <i_3534>:
    800039b8:	017a9433          	sll	s0,s5,s7

00000000800039bc <i_3535>:
    800039bc:	05d14803          	lbu	a6,93(sp)

00000000800039c0 <i_3536>:
    800039c0:	ef712a23          	sw	s7,-268(sp)

00000000800039c4 <i_3537>:
    800039c4:	03528abb          	mulw	s5,t0,s5

00000000800039c8 <i_3538>:
    800039c8:	17013823          	sd	a6,368(sp)

00000000800039cc <i_3539>:
    800039cc:	001f8f93          	addi	t6,t6,1 # ffffffffbadb5001 <_end+0xffffffff3ada4bed>
    800039d0:	fdfa50e3          	ble	t6,s4,80003990 <i_3524>

00000000800039d4 <i_3540>:
    800039d4:	40345a93          	srai	s5,s0,0x3

00000000800039d8 <i_3541>:
    800039d8:	001a1a1b          	slliw	s4,s4,0x1

00000000800039dc <i_3542>:
    800039dc:	00000013          	nop

00000000800039e0 <i_3543>:
    800039e0:	0ba13423          	sd	s10,168(sp)

00000000800039e4 <i_3544>:
    800039e4:	89f00d13          	li	s10,-1889

00000000800039e8 <i_3545>:
    800039e8:	8b000813          	li	a6,-1872

00000000800039ec <i_3546>:
    800039ec:	01500313          	li	t1,21

00000000800039f0 <i_3547>:
    800039f0:	006a17bb          	sllw	a5,s4,t1

00000000800039f4 <i_3548>:
    800039f4:	75e00513          	li	a0,1886

00000000800039f8 <i_3549>:
    800039f8:	76e00a13          	li	s4,1902

00000000800039fc <i_3550>:
    800039fc:	fd4102a3          	sb	s4,-59(sp)

0000000080003a00 <i_3551>:
    80003a00:	ec810e83          	lb	t4,-312(sp)

0000000080003a04 <i_3552>:
    80003a04:	08210783          	lb	a5,130(sp)

0000000080003a08 <i_3553>:
    80003a08:	e5811783          	lh	a5,-424(sp)

0000000080003a0c <i_3554>:
    80003a0c:	19815303          	lhu	t1,408(sp)

0000000080003a10 <i_3555>:
    80003a10:	00150513          	addi	a0,a0,1 # 9811f859 <_end+0x1810f445>
    80003a14:	feaa74e3          	bleu	a0,s4,800039fc <i_3550>

0000000080003a18 <i_3556>:
    80003a18:	006a4eb3          	xor	t4,s4,t1

0000000080003a1c <i_3557>:
    80003a1c:	f5414e83          	lbu	t4,-172(sp)

0000000080003a20 <i_3558>:
    80003a20:	001d0d13          	addi	s10,s10,1
    80003a24:	fd0d64e3          	bltu	s10,a6,800039ec <i_3546>

0000000080003a28 <i_3559>:
    80003a28:	e6411a03          	lh	s4,-412(sp)

0000000080003a2c <i_3560>:
    80003a2c:	0023539b          	srliw	t2,t1,0x2

0000000080003a30 <i_3561>:
    80003a30:	00412303          	lw	t1,4(sp)

0000000080003a34 <i_3562>:
    80003a34:	e9e10783          	lb	a5,-354(sp)

0000000080003a38 <i_3563>:
    80003a38:	15814803          	lbu	a6,344(sp)

0000000080003a3c <i_3564>:
    80003a3c:	9f34b493          	sltiu	s1,s1,-1549

0000000080003a40 <i_3565>:
    80003a40:	02f31333          	mulh	t1,t1,a5

0000000080003a44 <i_3566>:
    80003a44:	00781463          	bne	a6,t2,80003a4c <i_3568>

0000000080003a48 <i_3567>:
    80003a48:	f7615f83          	lhu	t6,-138(sp)

0000000080003a4c <i_3568>:
    80003a4c:	1d813903          	ld	s2,472(sp)

0000000080003a50 <i_3569>:
    80003a50:	00495693          	srli	a3,s2,0x4

0000000080003a54 <i_3570>:
    80003a54:	02400193          	li	gp,36

0000000080003a58 <i_3571>:
    80003a58:	4036d6b3          	sra	a3,a3,gp

0000000080003a5c <i_3572>:
    80003a5c:	0f411683          	lh	a3,244(sp)

0000000080003a60 <i_3573>:
    80003a60:	ef010503          	lb	a0,-272(sp)

0000000080003a64 <i_3574>:
    80003a64:	f9f6f513          	andi	a0,a3,-97

0000000080003a68 <i_3575>:
    80003a68:	ed812903          	lw	s2,-296(sp)

0000000080003a6c <i_3576>:
    80003a6c:	003a4cb3          	xor	s9,s4,gp

0000000080003a70 <i_3577>:
    80003a70:	e5412903          	lw	s2,-428(sp)

0000000080003a74 <i_3578>:
    80003a74:	03013503          	ld	a0,48(sp)

0000000080003a78 <i_3579>:
    80003a78:	01295e63          	ble	s2,s2,80003a94 <i_3586>

0000000080003a7c <i_3580>:
    80003a7c:	f4910903          	lb	s2,-183(sp)

0000000080003a80 <i_3581>:
    80003a80:	009935b3          	sltu	a1,s2,s1

0000000080003a84 <i_3582>:
    80003a84:	01290933          	add	s2,s2,s2

0000000080003a88 <i_3583>:
    80003a88:	03b00493          	li	s1,59

0000000080003a8c <i_3584>:
    80003a8c:	4093d4b3          	sra	s1,t2,s1

0000000080003a90 <i_3585>:
    80003a90:	06c12483          	lw	s1,108(sp)

0000000080003a94 <i_3586>:
    80003a94:	0234d463          	ble	gp,s1,80003abc <i_3596>

0000000080003a98 <i_3587>:
    80003a98:	f6013483          	ld	s1,-160(sp)

0000000080003a9c <i_3588>:
    80003a9c:	02514483          	lbu	s1,37(sp)

0000000080003aa0 <i_3589>:
    80003aa0:	f09102a3          	sb	s1,-251(sp)

0000000080003aa4 <i_3590>:
    80003aa4:	001c1493          	slli	s1,s8,0x1

0000000080003aa8 <i_3591>:
    80003aa8:	0296f4bb          	remuw	s1,a3,s1

0000000080003aac <i_3592>:
    80003aac:	00949663          	bne	s1,s1,80003ab8 <i_3595>

0000000080003ab0 <i_3593>:
    80003ab0:	f6010483          	lb	s1,-160(sp)

0000000080003ab4 <i_3594>:
    80003ab4:	e9b14783          	lbu	a5,-357(sp)

0000000080003ab8 <i_3595>:
    80003ab8:	0e016583          	lwu	a1,224(sp)

0000000080003abc <i_3596>:
    80003abc:	f1610483          	lb	s1,-234(sp)

0000000080003ac0 <i_3597>:
    80003ac0:	0096c463          	blt	a3,s1,80003ac8 <i_3599>

0000000080003ac4 <i_3598>:
    80003ac4:	e4e10783          	lb	a5,-434(sp)

0000000080003ac8 <i_3599>:
    80003ac8:	00f59463          	bne	a1,a5,80003ad0 <i_3601>

0000000080003acc <i_3600>:
    80003acc:	15813783          	ld	a5,344(sp)

0000000080003ad0 <i_3601>:
    80003ad0:	1a812483          	lw	s1,424(sp)

0000000080003ad4 <i_3602>:
    80003ad4:	00449493          	slli	s1,s1,0x4

0000000080003ad8 <i_3603>:
    80003ad8:	e7011583          	lh	a1,-400(sp)

0000000080003adc <i_3604>:
    80003adc:	ec314183          	lbu	gp,-317(sp)

0000000080003ae0 <i_3605>:
    80003ae0:	fd815283          	lhu	t0,-40(sp)

0000000080003ae4 <i_3606>:
    80003ae4:	1b016e83          	lwu	t4,432(sp)

0000000080003ae8 <i_3607>:
    80003ae8:	771b4593          	xori	a1,s6,1905

0000000080003aec <i_3608>:
    80003aec:	0251cebb          	divw	t4,gp,t0

0000000080003af0 <i_3609>:
    80003af0:	e3c11403          	lh	s0,-452(sp)

0000000080003af4 <i_3610>:
    80003af4:	f1b10783          	lb	a5,-229(sp)

0000000080003af8 <i_3611>:
    80003af8:	fdc15583          	lhu	a1,-36(sp)

0000000080003afc <i_3612>:
    80003afc:	00f8a1b3          	slt	gp,a7,a5

0000000080003b00 <i_3613>:
    80003b00:	0281f063          	bleu	s0,gp,80003b20 <i_3621>

0000000080003b04 <i_3614>:
    80003b04:	12d10783          	lb	a5,301(sp)

0000000080003b08 <i_3615>:
    80003b08:	17812903          	lw	s2,376(sp)

0000000080003b0c <i_3616>:
    80003b0c:	02918063          	beq	gp,s1,80003b2c <i_3624>

0000000080003b10 <i_3617>:
    80003b10:	f4816203          	lwu	tp,-184(sp)

0000000080003b14 <i_3618>:
    80003b14:	02f1d3b3          	divu	t2,gp,a5

0000000080003b18 <i_3619>:
    80003b18:	01f96a63          	bltu	s2,t6,80003b2c <i_3624>

0000000080003b1c <i_3620>:
    80003b1c:	f8412903          	lw	s2,-124(sp)

0000000080003b20 <i_3621>:
    80003b20:	01b27663          	bleu	s11,tp,80003b2c <i_3624>

0000000080003b24 <i_3622>:
    80003b24:	00e20c63          	beq	tp,a4,80003b3c <i_3628>

0000000080003b28 <i_3623>:
    80003b28:	0ec16383          	lwu	t2,236(sp)

0000000080003b2c <i_3624>:
    80003b2c:	40cf8633          	sub	a2,t6,a2

0000000080003b30 <i_3625>:
    80003b30:	02765463          	ble	t2,a2,80003b58 <i_3635>

0000000080003b34 <i_3626>:
    80003b34:	02c4e463          	bltu	s1,a2,80003b5c <i_3636>

0000000080003b38 <i_3627>:
    80003b38:	1ad13c23          	sd	a3,440(sp)

0000000080003b3c <i_3628>:
    80003b3c:	02139063          	bne	t2,ra,80003b5c <i_3636>

0000000080003b40 <i_3629>:
    80003b40:	0275e63b          	remw	a2,a1,t2

0000000080003b44 <i_3630>:
    80003b44:	ee416583          	lwu	a1,-284(sp)

0000000080003b48 <i_3631>:
    80003b48:	fe013503          	ld	a0,-32(sp)

0000000080003b4c <i_3632>:
    80003b4c:	efa10023          	sb	s10,-288(sp)

0000000080003b50 <i_3633>:
    80003b50:	08f14583          	lbu	a1,143(sp)

0000000080003b54 <i_3634>:
    80003b54:	0305d833          	divu	a6,a1,a6

0000000080003b58 <i_3635>:
    80003b58:	00d81463          	bne	a6,a3,80003b60 <i_3637>

0000000080003b5c <i_3636>:
    80003b5c:	f1013583          	ld	a1,-240(sp)

0000000080003b60 <i_3637>:
    80003b60:	0107ee63          	bltu	a5,a6,80003b7c <i_3644>

0000000080003b64 <i_3638>:
    80003b64:	eb014583          	lbu	a1,-336(sp)

0000000080003b68 <i_3639>:
    80003b68:	08816083          	lwu	ra,136(sp)

0000000080003b6c <i_3640>:
    80003b6c:	00c59463          	bne	a1,a2,80003b74 <i_3642>

0000000080003b70 <i_3641>:
    80003b70:	18411683          	lh	a3,388(sp)

0000000080003b74 <i_3642>:
    80003b74:	02166e33          	rem	t3,a2,ra

0000000080003b78 <i_3643>:
    80003b78:	17013c83          	ld	s9,368(sp)

0000000080003b7c <i_3644>:
    80003b7c:	02a6d063          	ble	a0,a3,80003b9c <i_3652>

0000000080003b80 <i_3645>:
    80003b80:	beacc613          	xori	a2,s9,-1046

0000000080003b84 <i_3646>:
    80003b84:	00a11683          	lh	a3,10(sp)

0000000080003b88 <i_3647>:
    80003b88:	ebc16c03          	lwu	s8,-324(sp)

0000000080003b8c <i_3648>:
    80003b8c:	03615983          	lhu	s3,54(sp)

0000000080003b90 <i_3649>:
    80003b90:	08c12823          	sw	a2,144(sp)

0000000080003b94 <i_3650>:
    80003b94:	07c12823          	sw	t3,112(sp)

0000000080003b98 <i_3651>:
    80003b98:	00000013          	nop

0000000080003b9c <i_3652>:
    80003b9c:	f5d11d23          	sh	t4,-166(sp)

0000000080003ba0 <i_3653>:
    80003ba0:	00000013          	nop

0000000080003ba4 <i_3654>:
    80003ba4:	7d100693          	li	a3,2001

0000000080003ba8 <i_3655>:
    80003ba8:	7e000213          	li	tp,2016

0000000080003bac <i_3656>:
    80003bac:	0019c3b3          	xor	t2,s3,ra

0000000080003bb0 <i_3657>:
    80003bb0:	19813c23          	sd	s8,408(sp)

0000000080003bb4 <i_3658>:
    80003bb4:	e4415583          	lhu	a1,-444(sp)

0000000080003bb8 <i_3659>:
    80003bb8:	021e7063          	bleu	ra,t3,80003bd8 <i_3666>

0000000080003bbc <i_3660>:
    80003bbc:	00168693          	addi	a3,a3,1
    80003bc0:	fed276e3          	bleu	a3,tp,80003bac <i_3656>

0000000080003bc4 <i_3661>:
    80003bc4:	1dc11123          	sh	t3,450(sp)

0000000080003bc8 <i_3662>:
    80003bc8:	c4368693          	addi	a3,a3,-957

0000000080003bcc <i_3663>:
    80003bcc:	0336cb3b          	divw	s6,a3,s3

0000000080003bd0 <i_3664>:
    80003bd0:	05016983          	lwu	s3,80(sp)

0000000080003bd4 <i_3665>:
    80003bd4:	f5312023          	sw	s3,-192(sp)

0000000080003bd8 <i_3666>:
    80003bd8:	edc13c23          	sd	t3,-296(sp)

0000000080003bdc <i_3667>:
    80003bdc:	00000013          	nop

0000000080003be0 <i_3668>:
    80003be0:	75600813          	li	a6,1878

0000000080003be4 <i_3669>:
    80003be4:	76200e13          	li	t3,1890

0000000080003be8 <i_3670>:
    80003be8:	02e00693          	li	a3,46

0000000080003bec <i_3671>:
    80003bec:	00d85433          	srl	s0,a6,a3

0000000080003bf0 <i_3672>:
    80003bf0:	01760a63          	beq	a2,s7,80003c04 <i_3677>

0000000080003bf4 <i_3673>:
    80003bf4:	00000013          	nop

0000000080003bf8 <i_3674>:
    80003bf8:	09c11b83          	lh	s7,156(sp)

0000000080003bfc <i_3675>:
    80003bfc:	2ea5b3b7          	lui	t2,0x2ea5b

0000000080003c00 <i_3676>:
    80003c00:	00395913          	srli	s2,s2,0x3

0000000080003c04 <i_3677>:
    80003c04:	f9f11423          	sh	t6,-120(sp)

0000000080003c08 <i_3678>:
    80003c08:	01745e63          	ble	s7,s0,80003c24 <i_3684>

0000000080003c0c <i_3679>:
    80003c0c:	e8d11623          	sh	a3,-372(sp)

0000000080003c10 <i_3680>:
    80003c10:	00180813          	addi	a6,a6,1
    80003c14:	fd0e5ae3          	ble	a6,t3,80003be8 <i_3670>

0000000080003c18 <i_3681>:
    80003c18:	003b01b3          	add	gp,s6,gp

0000000080003c1c <i_3682>:
    80003c1c:	0076c863          	blt	a3,t2,80003c2c <i_3686>

0000000080003c20 <i_3683>:
    80003c20:	e7c10383          	lb	t2,-388(sp)

0000000080003c24 <i_3684>:
    80003c24:	f4310523          	sb	gp,-182(sp)

0000000080003c28 <i_3685>:
    80003c28:	fe210b83          	lb	s7,-30(sp)

0000000080003c2c <i_3686>:
    80003c2c:	0031e263          	bltu	gp,gp,80003c30 <i_3687>

0000000080003c30 <i_3687>:
    80003c30:	ed314903          	lbu	s2,-301(sp)

0000000080003c34 <i_3688>:
    80003c34:	00000013          	nop

0000000080003c38 <i_3689>:
    80003c38:	74f00b93          	li	s7,1871

0000000080003c3c <i_3690>:
    80003c3c:	75900193          	li	gp,1881

0000000080003c40 <i_3691>:
    80003c40:	e8714303          	lbu	t1,-377(sp)

0000000080003c44 <i_3692>:
    80003c44:	0b0f4917          	auipc	s2,0xb0f4

0000000080003c48 <i_3693>:
    80003c48:	fb016903          	lwu	s2,-80(sp)

0000000080003c4c <i_3694>:
    80003c4c:	0120b0b3          	sltu	ra,ra,s2

0000000080003c50 <i_3695>:
    80003c50:	001b8b93          	addi	s7,s7,1
    80003c54:	fe3bc6e3          	blt	s7,gp,80003c40 <i_3691>

0000000080003c58 <i_3696>:
    80003c58:	f1c12083          	lw	ra,-228(sp)

0000000080003c5c <i_3697>:
    80003c5c:	0a112e23          	sw	ra,188(sp)

0000000080003c60 <i_3698>:
    80003c60:	4ee33313          	sltiu	t1,t1,1262

0000000080003c64 <i_3699>:
    80003c64:	0214d4bb          	divuw	s1,s1,ra

0000000080003c68 <i_3700>:
    80003c68:	02615783          	lhu	a5,38(sp)

0000000080003c6c <i_3701>:
    80003c6c:	40110e33          	sub	t3,sp,ra

0000000080003c70 <i_3702>:
    80003c70:	f0013083          	ld	ra,-256(sp)

0000000080003c74 <i_3703>:
    80003c74:	00f7ee63          	bltu	a5,a5,80003c90 <i_3710>

0000000080003c78 <i_3704>:
    80003c78:	e4412903          	lw	s2,-444(sp)

0000000080003c7c <i_3705>:
    80003c7c:	0015cc63          	blt	a1,ra,80003c94 <i_3711>

0000000080003c80 <i_3706>:
    80003c80:	eaf10123          	sb	a5,-350(sp)

0000000080003c84 <i_3707>:
    80003c84:	10815483          	lhu	s1,264(sp)

0000000080003c88 <i_3708>:
    80003c88:	032216b3          	mulh	a3,tp,s2

0000000080003c8c <i_3709>:
    80003c8c:	00800913          	li	s2,8

0000000080003c90 <i_3710>:
    80003c90:	0129193b          	sllw	s2,s2,s2

0000000080003c94 <i_3711>:
    80003c94:	40790633          	sub	a2,s2,t2

0000000080003c98 <i_3712>:
    80003c98:	03766e33          	rem	t3,a2,s7

0000000080003c9c <i_3713>:
    80003c9c:	8a300793          	li	a5,-1885

0000000080003ca0 <i_3714>:
    80003ca0:	8aa00393          	li	t2,-1878

0000000080003ca4 <i_3715>:
    80003ca4:	00d686b3          	add	a3,a3,a3

0000000080003ca8 <i_3716>:
    80003ca8:	e7f14683          	lbu	a3,-385(sp)

0000000080003cac <i_3717>:
    80003cac:	eb812e03          	lw	t3,-328(sp)

0000000080003cb0 <i_3718>:
    80003cb0:	09811c03          	lh	s8,152(sp)

0000000080003cb4 <i_3719>:
    80003cb4:	038e0063          	beq	t3,s8,80003cd4 <i_3726>

0000000080003cb8 <i_3720>:
    80003cb8:	f2615683          	lhu	a3,-218(sp)

0000000080003cbc <i_3721>:
    80003cbc:	1b816183          	lwu	gp,440(sp)

0000000080003cc0 <i_3722>:
    80003cc0:	0216e23b          	remw	tp,a3,ra

0000000080003cc4 <i_3723>:
    80003cc4:	00178793          	addi	a5,a5,1 # a9384739 <_end+0x29374325>
    80003cc8:	fc779ee3          	bne	a5,t2,80003ca4 <i_3715>

0000000080003ccc <i_3724>:
    80003ccc:	e3011683          	lh	a3,-464(sp)

0000000080003cd0 <i_3725>:
    80003cd0:	0041e6b3          	or	a3,gp,tp

0000000080003cd4 <i_3726>:
    80003cd4:	03731463          	bne	t1,s7,80003cfc <i_3736>

0000000080003cd8 <i_3727>:
    80003cd8:	023201b3          	mul	gp,tp,gp

0000000080003cdc <i_3728>:
    80003cdc:	0236f1bb          	remuw	gp,a3,gp

0000000080003ce0 <i_3729>:
    80003ce0:	e8311523          	sh	gp,-374(sp)

0000000080003ce4 <i_3730>:
    80003ce4:	e3914683          	lbu	a3,-455(sp)

0000000080003ce8 <i_3731>:
    80003ce8:	3d45859b          	addiw	a1,a1,980

0000000080003cec <i_3732>:
    80003cec:	f8d10ba3          	sb	a3,-105(sp)

0000000080003cf0 <i_3733>:
    80003cf0:	e3813583          	ld	a1,-456(sp)

0000000080003cf4 <i_3734>:
    80003cf4:	f1b11e23          	sh	s11,-228(sp)

0000000080003cf8 <i_3735>:
    80003cf8:	17312a23          	sw	s3,372(sp)

0000000080003cfc <i_3736>:
    80003cfc:	0195ccb3          	xor	s9,a1,s9

0000000080003d00 <i_3737>:
    80003d00:	03600693          	li	a3,54

0000000080003d04 <i_3738>:
    80003d04:	00da5a33          	srl	s4,s4,a3

0000000080003d08 <i_3739>:
    80003d08:	78e00d93          	li	s11,1934

0000000080003d0c <i_3740>:
    80003d0c:	79000c93          	li	s9,1936

0000000080003d10 <i_3741>:
    80003d10:	003a1d1b          	slliw	s10,s4,0x3

0000000080003d14 <i_3742>:
    80003d14:	19911723          	sh	s9,398(sp)

0000000080003d18 <i_3743>:
    80003d18:	039cc263          	blt	s9,s9,80003d3c <i_3751>

0000000080003d1c <i_3744>:
    80003d1c:	f0ca0a13          	addi	s4,s4,-244 # 698c587c <main-0x1673a784>

0000000080003d20 <i_3745>:
    80003d20:	00a00793          	li	a5,10

0000000080003d24 <i_3746>:
    80003d24:	40f45a3b          	sraw	s4,s0,a5

0000000080003d28 <i_3747>:
    80003d28:	0af10e23          	sb	a5,188(sp)

0000000080003d2c <i_3748>:
    80003d2c:	001d8d93          	addi	s11,s11,1
    80003d30:	ff9dc0e3          	blt	s11,s9,80003d10 <i_3741>

0000000080003d34 <i_3749>:
    80003d34:	1b410fa3          	sb	s4,447(sp)

0000000080003d38 <i_3750>:
    80003d38:	09410d23          	sb	s4,154(sp)

0000000080003d3c <i_3751>:
    80003d3c:	12c12783          	lw	a5,300(sp)

0000000080003d40 <i_3752>:
    80003d40:	0c910383          	lb	t2,201(sp)

0000000080003d44 <i_3753>:
    80003d44:	05c16383          	lwu	t2,92(sp)

0000000080003d48 <i_3754>:
    80003d48:	e2c12d83          	lw	s11,-468(sp)

0000000080003d4c <i_3755>:
    80003d4c:	03f65fbb          	divuw	t6,a2,t6

0000000080003d50 <i_3756>:
    80003d50:	1d412623          	sw	s4,460(sp)

0000000080003d54 <i_3757>:
    80003d54:	03b7c433          	div	s0,a5,s11

0000000080003d58 <i_3758>:
    80003d58:	e4c13823          	sd	a2,-432(sp)

0000000080003d5c <i_3759>:
    80003d5c:	034d1063          	bne	s10,s4,80003d7c <i_3767>

0000000080003d60 <i_3760>:
    80003d60:	eea11583          	lh	a1,-278(sp)

0000000080003d64 <i_3761>:
    80003d64:	02f46d3b          	remw	s10,s0,a5

0000000080003d68 <i_3762>:
    80003d68:	f2f12023          	sw	a5,-224(sp)

0000000080003d6c <i_3763>:
    80003d6c:	03bd6463          	bltu	s10,s11,80003d94 <i_3773>

0000000080003d70 <i_3764>:
    80003d70:	e2712023          	sw	t2,-480(sp)

0000000080003d74 <i_3765>:
    80003d74:	0083fa63          	bleu	s0,t2,80003d88 <i_3770>

0000000080003d78 <i_3766>:
    80003d78:	001d1413          	slli	s0,s10,0x1

0000000080003d7c <i_3767>:
    80003d7c:	03a5f063          	bleu	s10,a1,80003d9c <i_3775>

0000000080003d80 <i_3768>:
    80003d80:	03046433          	rem	s0,s0,a6

0000000080003d84 <i_3769>:
    80003d84:	02844d3b          	divw	s10,s0,s0

0000000080003d88 <i_3770>:
    80003d88:	02700313          	li	t1,39

0000000080003d8c <i_3771>:
    80003d8c:	006599b3          	sll	s3,a1,t1

0000000080003d90 <i_3772>:
    80003d90:	40340433          	sub	s0,s0,gp

0000000080003d94 <i_3773>:
    80003d94:	09812d03          	lw	s10,152(sp)

0000000080003d98 <i_3774>:
    80003d98:	00b00a93          	li	s5,11

0000000080003d9c <i_3775>:
    80003d9c:	415d51bb          	sraw	gp,s10,s5

0000000080003da0 <i_3776>:
    80003da0:	06810a83          	lb	s5,104(sp)

0000000080003da4 <i_3777>:
    80003da4:	4013531b          	sraiw	t1,t1,0x1

0000000080003da8 <i_3778>:
    80003da8:	10011d83          	lh	s11,256(sp)

0000000080003dac <i_3779>:
    80003dac:	f5016283          	lwu	t0,-176(sp)

0000000080003db0 <i_3780>:
    80003db0:	01100d93          	li	s11,17

0000000080003db4 <i_3781>:
    80003db4:	01bc9dbb          	sllw	s11,s9,s11

0000000080003db8 <i_3782>:
    80003db8:	016a8463          	beq	s5,s6,80003dc0 <i_3784>

0000000080003dbc <i_3783>:
    80003dbc:	002e9c63          	bne	t4,sp,80003dd4 <i_3789>

0000000080003dc0 <i_3784>:
    80003dc0:	ee310aa3          	sb	gp,-267(sp)

0000000080003dc4 <i_3785>:
    80003dc4:	00528db3          	add	s11,t0,t0

0000000080003dc8 <i_3786>:
    80003dc8:	0141c463          	blt	gp,s4,80003dd0 <i_3788>

0000000080003dcc <i_3787>:
    80003dcc:	023af063          	bleu	gp,s5,80003dec <i_3795>

0000000080003dd0 <i_3788>:
    80003dd0:	0392bcb3          	mulhu	s9,t0,s9

0000000080003dd4 <i_3789>:
    80003dd4:	f1910023          	sb	s9,-256(sp)

0000000080003dd8 <i_3790>:
    80003dd8:	025191b3          	mulh	gp,gp,t0

0000000080003ddc <i_3791>:
    80003ddc:	00700c93          	li	s9,7

0000000080003de0 <i_3792>:
    80003de0:	4192d2bb          	sraw	t0,t0,s9

0000000080003de4 <i_3793>:
    80003de4:	0253e3b3          	rem	t2,t2,t0

0000000080003de8 <i_3794>:
    80003de8:	00b00313          	li	t1,11

0000000080003dec <i_3795>:
    80003dec:	00639f3b          	sllw	t5,t2,t1

0000000080003df0 <i_3796>:
    80003df0:	005f22b3          	slt	t0,t5,t0

0000000080003df4 <i_3797>:
    80003df4:	00600793          	li	a5,6

0000000080003df8 <i_3798>:
    80003df8:	00f653b3          	srl	t2,a2,a5

0000000080003dfc <i_3799>:
    80003dfc:	79d00293          	li	t0,1949

0000000080003e00 <i_3800>:
    80003e00:	7ac00f13          	li	t5,1964

0000000080003e04 <i_3801>:
    80003e04:	03d35463          	ble	t4,t1,80003e2c <i_3811>

0000000080003e08 <i_3802>:
    80003e08:	03a35b3b          	divuw	s6,t1,s10

0000000080003e0c <i_3803>:
    80003e0c:	cd5f4393          	xori	t2,t5,-811

0000000080003e10 <i_3804>:
    80003e10:	001b60b3          	or	ra,s6,ra

0000000080003e14 <i_3805>:
    80003e14:	ec215f83          	lhu	t6,-318(sp)

0000000080003e18 <i_3806>:
    80003e18:	ee110923          	sb	ra,-270(sp)

0000000080003e1c <i_3807>:
    80003e1c:	00000013          	nop

0000000080003e20 <i_3808>:
    80003e20:	40108b3b          	subw	s6,ra,ra

0000000080003e24 <i_3809>:
    80003e24:	ff914503          	lbu	a0,-7(sp)

0000000080003e28 <i_3810>:
    80003e28:	f1c11b03          	lh	s6,-228(sp)

0000000080003e2c <i_3811>:
    80003e2c:	004d199b          	slliw	s3,s10,0x4

0000000080003e30 <i_3812>:
    80003e30:	07e11083          	lh	ra,126(sp)

0000000080003e34 <i_3813>:
    80003e34:	f2013403          	ld	s0,-224(sp)

0000000080003e38 <i_3814>:
    80003e38:	00128293          	addi	t0,t0,1
    80003e3c:	fde2c4e3          	blt	t0,t5,80003e04 <i_3801>

0000000080003e40 <i_3815>:
    80003e40:	4dd47093          	andi	ra,s0,1245

0000000080003e44 <i_3816>:
    80003e44:	f3816083          	lwu	ra,-200(sp)

0000000080003e48 <i_3817>:
    80003e48:	6e2ac093          	xori	ra,s5,1762

0000000080003e4c <i_3818>:
    80003e4c:	f1416083          	lwu	ra,-236(sp)

0000000080003e50 <i_3819>:
    80003e50:	a090e393          	ori	t2,ra,-1527

0000000080003e54 <i_3820>:
    80003e54:	00808263          	beq	ra,s0,80003e58 <i_3821>

0000000080003e58 <i_3821>:
    80003e58:	00000013          	nop

0000000080003e5c <i_3822>:
    80003e5c:	00a46233          	or	tp,s0,a0

0000000080003e60 <i_3823>:
    80003e60:	8a500413          	li	s0,-1883

0000000080003e64 <i_3824>:
    80003e64:	8ab00793          	li	a5,-1877

0000000080003e68 <i_3825>:
    80003e68:	005ff463          	bleu	t0,t6,80003e70 <i_3827>

0000000080003e6c <i_3826>:
    80003e6c:	fef13023          	sd	a5,-32(sp)

0000000080003e70 <i_3827>:
    80003e70:	44098f9b          	addiw	t6,s3,1088

0000000080003e74 <i_3828>:
    80003e74:	03f7b933          	mulhu	s2,a5,t6

0000000080003e78 <i_3829>:
    80003e78:	e8411623          	sh	tp,-372(sp)

0000000080003e7c <i_3830>:
    80003e7c:	00f78263          	beq	a5,a5,80003e80 <i_3831>

0000000080003e80 <i_3831>:
    80003e80:	1833a937          	lui	s2,0x1833a

0000000080003e84 <i_3832>:
    80003e84:	06f14903          	lbu	s2,111(sp)

0000000080003e88 <i_3833>:
    80003e88:	334fbf93          	sltiu	t6,t6,820

0000000080003e8c <i_3834>:
    80003e8c:	03228fb3          	mul	t6,t0,s2

0000000080003e90 <i_3835>:
    80003e90:	03f60663          	beq	a2,t6,80003ebc <i_3845>

0000000080003e94 <i_3836>:
    80003e94:	f1f13823          	sd	t6,-240(sp)

0000000080003e98 <i_3837>:
    80003e98:	00140413          	addi	s0,s0,1 # 37c8c8ad <main-0x48373753>
    80003e9c:	fc87d6e3          	ble	s0,a5,80003e68 <i_3825>

0000000080003ea0 <i_3838>:
    80003ea0:	01294c63          	blt	s2,s2,80003eb8 <i_3844>

0000000080003ea4 <i_3839>:
    80003ea4:	e5a10f03          	lb	t5,-422(sp)

0000000080003ea8 <i_3840>:
    80003ea8:	404fd413          	srai	s0,t6,0x4

0000000080003eac <i_3841>:
    80003eac:	ea514f83          	lbu	t6,-347(sp)

0000000080003eb0 <i_3842>:
    80003eb0:	07013603          	ld	a2,112(sp)

0000000080003eb4 <i_3843>:
    80003eb4:	f3412b83          	lw	s7,-204(sp)

0000000080003eb8 <i_3844>:
    80003eb8:	05012903          	lw	s2,80(sp)

0000000080003ebc <i_3845>:
    80003ebc:	10c10ea3          	sb	a2,285(sp)

0000000080003ec0 <i_3846>:
    80003ec0:	ffb14e83          	lbu	t4,-5(sp)

0000000080003ec4 <i_3847>:
    80003ec4:	fa011183          	lh	gp,-96(sp)

0000000080003ec8 <i_3848>:
    80003ec8:	e4410e83          	lb	t4,-444(sp)

0000000080003ecc <i_3849>:
    80003ecc:	408e83bb          	subw	t2,t4,s0

0000000080003ed0 <i_3850>:
    80003ed0:	f3714383          	lbu	t2,-201(sp)

0000000080003ed4 <i_3851>:
    80003ed4:	78f00f93          	li	t6,1935

0000000080003ed8 <i_3852>:
    80003ed8:	7a200b13          	li	s6,1954

0000000080003edc <i_3853>:
    80003edc:	007bf433          	and	s0,s7,t2

0000000080003ee0 <i_3854>:
    80003ee0:	001f8f93          	addi	t6,t6,1
    80003ee4:	ff6fcce3          	blt	t6,s6,80003edc <i_3853>

0000000080003ee8 <i_3855>:
    80003ee8:	ea412283          	lw	t0,-348(sp)

0000000080003eec <i_3856>:
    80003eec:	012b7e63          	bleu	s2,s6,80003f08 <i_3863>

0000000080003ef0 <i_3857>:
    80003ef0:	00329e1b          	slliw	t3,t0,0x3

0000000080003ef4 <i_3858>:
    80003ef4:	e8810283          	lb	t0,-376(sp)

0000000080003ef8 <i_3859>:
    80003ef8:	12014b03          	lbu	s6,288(sp)

0000000080003efc <i_3860>:
    80003efc:	ef812383          	lw	t2,-264(sp)

0000000080003f00 <i_3861>:
    80003f00:	eb813e03          	ld	t3,-328(sp)

0000000080003f04 <i_3862>:
    80003f04:	f8412e03          	lw	t3,-124(sp)

0000000080003f08 <i_3863>:
    80003f08:	00f00793          	li	a5,15

0000000080003f0c <i_3864>:
    80003f0c:	40fe5e3b          	sraw	t3,t3,a5

0000000080003f10 <i_3865>:
    80003f10:	83b00293          	li	t0,-1989

0000000080003f14 <i_3866>:
    80003f14:	84e00093          	li	ra,-1970

0000000080003f18 <i_3867>:
    80003f18:	06512e23          	sw	t0,124(sp)

0000000080003f1c <i_3868>:
    80003f1c:	00509663          	bne	ra,t0,80003f28 <i_3871>

0000000080003f20 <i_3869>:
    80003f20:	05011e83          	lh	t4,80(sp)

0000000080003f24 <i_3870>:
    80003f24:	02e15383          	lhu	t2,46(sp)

0000000080003f28 <i_3871>:
    80003f28:	02f38063          	beq	t2,a5,80003f48 <i_3878>

0000000080003f2c <i_3872>:
    80003f2c:	f9e10e83          	lb	t4,-98(sp)

0000000080003f30 <i_3873>:
    80003f30:	00128293          	addi	t0,t0,1
    80003f34:	fe50d2e3          	ble	t0,ra,80003f18 <i_3867>

0000000080003f38 <i_3874>:
    80003f38:	17c13023          	sd	t3,352(sp)

0000000080003f3c <i_3875>:
    80003f3c:	05814e83          	lbu	t4,88(sp)

0000000080003f40 <i_3876>:
    80003f40:	018eda63          	ble	s8,t4,80003f54 <i_3881>

0000000080003f44 <i_3877>:
    80003f44:	14712623          	sw	t2,332(sp)

0000000080003f48 <i_3878>:
    80003f48:	eb812e03          	lw	t3,-328(sp)

0000000080003f4c <i_3879>:
    80003f4c:	17813183          	ld	gp,376(sp)

0000000080003f50 <i_3880>:
    80003f50:	00ff8663          	beq	t6,a5,80003f5c <i_3883>

0000000080003f54 <i_3881>:
    80003f54:	01dec663          	blt	t4,t4,80003f60 <i_3884>

0000000080003f58 <i_3882>:
    80003f58:	f5013e83          	ld	t4,-176(sp)

0000000080003f5c <i_3883>:
    80003f5c:	19615783          	lhu	a5,406(sp)

0000000080003f60 <i_3884>:
    80003f60:	0fd14b83          	lbu	s7,253(sp)

0000000080003f64 <i_3885>:
    80003f64:	00f00b93          	li	s7,15

0000000080003f68 <i_3886>:
    80003f68:	017bde3b          	srlw	t3,s7,s7

0000000080003f6c <i_3887>:
    80003f6c:	0f710da3          	sb	s7,251(sp)

0000000080003f70 <i_3888>:
    80003f70:	037e5e33          	divu	t3,t3,s7

0000000080003f74 <i_3889>:
    80003f74:	e6811b83          	lh	s7,-408(sp)

0000000080003f78 <i_3890>:
    80003f78:	13f105a3          	sb	t6,299(sp)

0000000080003f7c <i_3891>:
    80003f7c:	f7813e03          	ld	t3,-136(sp)

0000000080003f80 <i_3892>:
    80003f80:	e7416e03          	lwu	t3,-396(sp)

0000000080003f84 <i_3893>:
    80003f84:	e7c11c83          	lh	s9,-388(sp)

0000000080003f88 <i_3894>:
    80003f88:	16a11683          	lh	a3,362(sp)

0000000080003f8c <i_3895>:
    80003f8c:	84000e93          	li	t4,-1984

0000000080003f90 <i_3896>:
    80003f90:	85100593          	li	a1,-1967

0000000080003f94 <i_3897>:
    80003f94:	001e8e93          	addi	t4,t4,1
    80003f98:	febeeee3          	bltu	t4,a1,80003f94 <i_3897>

0000000080003f9c <i_3898>:
    80003f9c:	9eee3413          	sltiu	s0,t3,-1554

0000000080003fa0 <i_3899>:
    80003fa0:	1a016b83          	lwu	s7,416(sp)

0000000080003fa4 <i_3900>:
    80003fa4:	02812483          	lw	s1,40(sp)

0000000080003fa8 <i_3901>:
    80003fa8:	17710383          	lb	t2,375(sp)

0000000080003fac <i_3902>:
    80003fac:	00914663          	blt	sp,s1,80003fb8 <i_3905>

0000000080003fb0 <i_3903>:
    80003fb0:	029be463          	bltu	s7,s1,80003fd8 <i_3913>

0000000080003fb4 <i_3904>:
    80003fb4:	0278083b          	mulw	a6,a6,t2

0000000080003fb8 <i_3905>:
    80003fb8:	5fbbab93          	slti	s7,s7,1531

0000000080003fbc <i_3906>:
    80003fbc:	921e1317          	auipc	t1,0x921e1

0000000080003fc0 <i_3907>:
    80003fc0:	4011d493          	srai	s1,gp,0x1

0000000080003fc4 <i_3908>:
    80003fc4:	00000013          	nop

0000000080003fc8 <i_3909>:
    80003fc8:	00600993          	li	s3,6

0000000080003fcc <i_3910>:
    80003fcc:	013815bb          	sllw	a1,a6,s3

0000000080003fd0 <i_3911>:
    80003fd0:	e73104a3          	sb	s3,-407(sp)

0000000080003fd4 <i_3912>:
    80003fd4:	fae10583          	lb	a1,-82(sp)

0000000080003fd8 <i_3913>:
    80003fd8:	00000013          	nop

0000000080003fdc <i_3914>:
    80003fdc:	0075c9b3          	xor	s3,a1,t2

0000000080003fe0 <i_3915>:
    80003fe0:	89900413          	li	s0,-1895

0000000080003fe4 <i_3916>:
    80003fe4:	8a900613          	li	a2,-1879

0000000080003fe8 <i_3917>:
    80003fe8:	f6013083          	ld	ra,-160(sp)

0000000080003fec <i_3918>:
    80003fec:	001085b3          	add	a1,ra,ra

0000000080003ff0 <i_3919>:
    80003ff0:	eeb13023          	sd	a1,-288(sp)

0000000080003ff4 <i_3920>:
    80003ff4:	02634333          	div	t1,t1,t1

0000000080003ff8 <i_3921>:
    80003ff8:	00140413          	addi	s0,s0,1
    80003ffc:	fec466e3          	bltu	s0,a2,80003fe8 <i_3917>

0000000080004000 <i_3922>:
    80004000:	03c00313          	li	t1,60

0000000080004004 <i_3923>:
    80004004:	006659b3          	srl	s3,a2,t1

0000000080004008 <i_3924>:
    80004008:	00637c63          	bleu	t1,t1,80004020 <i_3930>

000000008000400c <i_3925>:
    8000400c:	ee911a23          	sh	s1,-268(sp)

0000000080004010 <i_3926>:
    80004010:	00000013          	nop

0000000080004014 <i_3927>:
    80004014:	ee911723          	sh	s1,-274(sp)

0000000080004018 <i_3928>:
    80004018:	00000013          	nop

000000008000401c <i_3929>:
    8000401c:	02b595b3          	mulh	a1,a1,a1

0000000080004020 <i_3930>:
    80004020:	00400193          	li	gp,4

0000000080004024 <i_3931>:
    80004024:	003595bb          	sllw	a1,a1,gp

0000000080004028 <i_3932>:
    80004028:	78500493          	li	s1,1925

000000008000402c <i_3933>:
    8000402c:	79000313          	li	t1,1936

0000000080004030 <i_3934>:
    80004030:	00148493          	addi	s1,s1,1 # fb8311ed <_end+0x7b820dd9>
    80004034:	fe64eee3          	bltu	s1,t1,80004030 <i_3934>

0000000080004038 <i_3935>:
    80004038:	1c6101a3          	sb	t1,451(sp)

000000008000403c <i_3936>:
    8000403c:	08a10483          	lb	s1,138(sp)

0000000080004040 <i_3937>:
    80004040:	039b4263          	blt	s6,s9,80004064 <i_3946>

0000000080004044 <i_3938>:
    80004044:	00637f33          	and	t5,t1,t1

0000000080004048 <i_3939>:
    80004048:	1a412303          	lw	t1,420(sp)

000000008000404c <i_3940>:
    8000404c:	02d00313          	li	t1,45

0000000080004050 <i_3941>:
    80004050:	00619fb3          	sll	t6,gp,t1

0000000080004054 <i_3942>:
    80004054:	021f0063          	beq	t5,ra,80004074 <i_3950>

0000000080004058 <i_3943>:
    80004058:	eb812e03          	lw	t3,-328(sp)

000000008000405c <i_3944>:
    8000405c:	01200493          	li	s1,18

0000000080004060 <i_3945>:
    80004060:	0093de3b          	srlw	t3,t2,s1

0000000080004064 <i_3946>:
    80004064:	92ce3493          	sltiu	s1,t3,-1748

0000000080004068 <i_3947>:
    80004068:	18813a03          	ld	s4,392(sp)

000000008000406c <i_3948>:
    8000406c:	034f14b3          	mulh	s1,t5,s4

0000000080004070 <i_3949>:
    80004070:	009fc4b3          	xor	s1,t6,s1

0000000080004074 <i_3950>:
    80004074:	6a7fa913          	slti	s2,t6,1703

0000000080004078 <i_3951>:
    80004078:	00300493          	li	s1,3

000000008000407c <i_3952>:
    8000407c:	0094dfbb          	srlw	t6,s1,s1

0000000080004080 <i_3953>:
    80004080:	0f213423          	sd	s2,232(sp)

0000000080004084 <i_3954>:
    80004084:	01297863          	bleu	s2,s2,80004094 <i_3958>

0000000080004088 <i_3955>:
    80004088:	012fc463          	blt	t6,s2,80004090 <i_3957>

000000008000408c <i_3956>:
    8000408c:	0115bfb3          	sltu	t6,a1,a7

0000000080004090 <i_3957>:
    80004090:	009f8c63          	beq	t6,s1,800040a8 <i_3963>

0000000080004094 <i_3958>:
    80004094:	e7e15683          	lhu	a3,-386(sp)

0000000080004098 <i_3959>:
    80004098:	02d22233          	mulhsu	tp,tp,a3

000000008000409c <i_3960>:
    8000409c:	03f6d263          	ble	t6,a3,800040c0 <i_3969>

00000000800040a0 <i_3961>:
    800040a0:	00497263          	bleu	tp,s2,800040a4 <i_3962>

00000000800040a4 <i_3962>:
    800040a4:	02d6c23b          	divw	tp,a3,a3

00000000800040a8 <i_3963>:
    800040a8:	f1e15283          	lhu	t0,-226(sp)

00000000800040ac <i_3964>:
    800040ac:	02300993          	li	s3,35

00000000800040b0 <i_3965>:
    800040b0:	413e5e33          	sra	t3,t3,s3

00000000800040b4 <i_3966>:
    800040b4:	00000013          	nop

00000000800040b8 <i_3967>:
    800040b8:	401f5613          	srai	a2,t5,0x1

00000000800040bc <i_3968>:
    800040bc:	4029de9b          	sraiw	t4,s3,0x2

00000000800040c0 <i_3969>:
    800040c0:	030e2e33          	mulhsu	t3,t3,a6

00000000800040c4 <i_3970>:
    800040c4:	03c64c33          	div	s8,a2,t3

00000000800040c8 <i_3971>:
    800040c8:	81c00093          	li	ra,-2020

00000000800040cc <i_3972>:
    800040cc:	82400693          	li	a3,-2012

00000000800040d0 <i_3973>:
    800040d0:	00108093          	addi	ra,ra,1
    800040d4:	fe16fee3          	bleu	ra,a3,800040d0 <i_3973>

00000000800040d8 <i_3974>:
    800040d8:	418c033b          	subw	t1,s8,s8

00000000800040dc <i_3975>:
    800040dc:	eb016f83          	lwu	t6,-336(sp)

00000000800040e0 <i_3976>:
    800040e0:	01cce9b3          	or	s3,s9,t3

00000000800040e4 <i_3977>:
    800040e4:	bf168e9b          	addiw	t4,a3,-1039

00000000800040e8 <i_3978>:
    800040e8:	038e4f3b          	divw	t5,t3,s8

00000000800040ec <i_3979>:
    800040ec:	16c12223          	sw	a2,356(sp)

00000000800040f0 <i_3980>:
    800040f0:	598eee17          	auipc	t3,0x598ee

00000000800040f4 <i_3981>:
    800040f4:	ea410d83          	lb	s11,-348(sp)

00000000800040f8 <i_3982>:
    800040f8:	01bdf663          	bleu	s11,s11,80004104 <i_3985>

00000000800040fc <i_3983>:
    800040fc:	1b813023          	sd	s8,416(sp)

0000000080004100 <i_3984>:
    80004100:	e4c12e03          	lw	t3,-436(sp)

0000000080004104 <i_3985>:
    80004104:	01f67a63          	bleu	t6,a2,80004118 <i_3990>

0000000080004108 <i_3986>:
    80004108:	01700793          	li	a5,23

000000008000410c <i_3987>:
    8000410c:	00fe1db3          	sll	s11,t3,a5

0000000080004110 <i_3988>:
    80004110:	03e79f33          	mulh	t5,a5,t5

0000000080004114 <i_3989>:
    80004114:	41b282bb          	subw	t0,t0,s11

0000000080004118 <i_3990>:
    80004118:	f8410483          	lb	s1,-124(sp)

000000008000411c <i_3991>:
    8000411c:	ea412403          	lw	s0,-348(sp)

0000000080004120 <i_3992>:
    80004120:	01ef6a63          	bltu	t5,t5,80004134 <i_3997>

0000000080004124 <i_3993>:
    80004124:	fa013b83          	ld	s7,-96(sp)

0000000080004128 <i_3994>:
    80004128:	f9e12223          	sw	t5,-124(sp)

000000008000412c <i_3995>:
    8000412c:	145f7493          	andi	s1,t5,325

0000000080004130 <i_3996>:
    80004130:	f7e13823          	sd	t5,-144(sp)

0000000080004134 <i_3997>:
    80004134:	023fd1bb          	divuw	gp,t6,gp

0000000080004138 <i_3998>:
    80004138:	02894263          	blt	s2,s0,8000415c <i_4007>

000000008000413c <i_3999>:
    8000413c:	5faf3093          	sltiu	ra,t5,1530

0000000080004140 <i_4000>:
    80004140:	01e2fc63          	bleu	t5,t0,80004158 <i_4006>

0000000080004144 <i_4001>:
    80004144:	06813f03          	ld	t5,104(sp)

0000000080004148 <i_4002>:
    80004148:	0231ecbb          	remw	s9,gp,gp

000000008000414c <i_4003>:
    8000414c:	f0011503          	lh	a0,-256(sp)

0000000080004150 <i_4004>:
    80004150:	e6a12823          	sw	a0,-400(sp)

0000000080004154 <i_4005>:
    80004154:	5a763f37          	lui	t5,0x5a763

0000000080004158 <i_4006>:
    80004158:	003f6263          	bltu	t5,gp,8000415c <i_4007>

000000008000415c <i_4007>:
    8000415c:	02acff33          	remu	t5,s9,a0

0000000080004160 <i_4008>:
    80004160:	ede11f23          	sh	t5,-290(sp)

0000000080004164 <i_4009>:
    80004164:	81400193          	li	gp,-2028

0000000080004168 <i_4010>:
    80004168:	81f00c93          	li	s9,-2017

000000008000416c <i_4011>:
    8000416c:	00118193          	addi	gp,gp,1
    80004170:	ff919ee3          	bne	gp,s9,8000416c <i_4011>

0000000080004174 <i_4012>:
    80004174:	02ac9b33          	mulh	s6,s9,a0

0000000080004178 <i_4013>:
    80004178:	03ce7e33          	remu	t3,t3,t3

000000008000417c <i_4014>:
    8000417c:	003e551b          	srliw	a0,t3,0x3

0000000080004180 <i_4015>:
    80004180:	15510b03          	lb	s6,341(sp)

0000000080004184 <i_4016>:
    80004184:	e3c13c23          	sd	t3,-456(sp)

0000000080004188 <i_4017>:
    80004188:	01654863          	blt	a0,s6,80004198 <i_4021>

000000008000418c <i_4018>:
    8000418c:	eca107a3          	sb	a0,-305(sp)

0000000080004190 <i_4019>:
    80004190:	03ce6263          	bltu	t3,t3,800041b4 <i_4028>

0000000080004194 <i_4020>:
    80004194:	14d14403          	lbu	s0,333(sp)

0000000080004198 <i_4021>:
    80004198:	027973bb          	remuw	t2,s2,t2

000000008000419c <i_4022>:
    8000419c:	e7416503          	lwu	a0,-396(sp)

00000000800041a0 <i_4023>:
    800041a0:	0073ab33          	slt	s6,t2,t2

00000000800041a4 <i_4024>:
    800041a4:	01c00293          	li	t0,28

00000000800041a8 <i_4025>:
    800041a8:	40545c3b          	sraw	s8,s0,t0

00000000800041ac <i_4026>:
    800041ac:	e7813423          	sd	s8,-408(sp)

00000000800041b0 <i_4027>:
    800041b0:	016b7e63          	bleu	s6,s6,800041cc <i_4034>

00000000800041b4 <i_4028>:
    800041b4:	00129463          	bne	t0,ra,800041bc <i_4030>

00000000800041b8 <i_4029>:
    800041b8:	0252e2bb          	remw	t0,t0,t0

00000000800041bc <i_4030>:
    800041bc:	f5e14283          	lbu	t0,-162(sp)

00000000800041c0 <i_4031>:
    800041c0:	010c2833          	slt	a6,s8,a6

00000000800041c4 <i_4032>:
    800041c4:	e6e14c03          	lbu	s8,-402(sp)

00000000800041c8 <i_4033>:
    800041c8:	e3615c03          	lhu	s8,-458(sp)

00000000800041cc <i_4034>:
    800041cc:	03400a93          	li	s5,52

00000000800041d0 <i_4035>:
    800041d0:	415c5633          	sra	a2,s8,s5

00000000800041d4 <i_4036>:
    800041d4:	1dc10603          	lb	a2,476(sp)

00000000800041d8 <i_4037>:
    800041d8:	038c2433          	mulhsu	s0,s8,s8

00000000800041dc <i_4038>:
    800041dc:	0046561b          	srliw	a2,a2,0x4

00000000800041e0 <i_4039>:
    800041e0:	00866a33          	or	s4,a2,s0

00000000800041e4 <i_4040>:
    800041e4:	00d00d13          	li	s10,13

00000000800041e8 <i_4041>:
    800041e8:	01a41d3b          	sllw	s10,s0,s10

00000000800041ec <i_4042>:
    800041ec:	81c00c13          	li	s8,-2020

00000000800041f0 <i_4043>:
    800041f0:	82000613          	li	a2,-2016

00000000800041f4 <i_4044>:
    800041f4:	007d4a63          	blt	s10,t2,80004208 <i_4049>

00000000800041f8 <i_4045>:
    800041f8:	04c12a23          	sw	a2,84(sp)

00000000800041fc <i_4046>:
    800041fc:	01a60663          	beq	a2,s10,80004208 <i_4049>

0000000080004200 <i_4047>:
    80004200:	014d1263          	bne	s10,s4,80004204 <i_4048>

0000000080004204 <i_4048>:
    80004204:	00000013          	nop

0000000080004208 <i_4049>:
    80004208:	003d1213          	slli	tp,s10,0x3

000000008000420c <i_4050>:
    8000420c:	fe413423          	sd	tp,-24(sp)

0000000080004210 <i_4051>:
    80004210:	00000013          	nop

0000000080004214 <i_4052>:
    80004214:	06813503          	ld	a0,104(sp)

0000000080004218 <i_4053>:
    80004218:	ff310383          	lb	t2,-13(sp)

000000008000421c <i_4054>:
    8000421c:	001c0c13          	addi	s8,s8,1
    80004220:	fd8658e3          	ble	s8,a2,800041f0 <i_4043>

0000000080004224 <i_4055>:
    80004224:	40a5053b          	subw	a0,a0,a0

0000000080004228 <i_4056>:
    80004228:	f4f14383          	lbu	t2,-177(sp)

000000008000422c <i_4057>:
    8000422c:	08712823          	sw	t2,144(sp)

0000000080004230 <i_4058>:
    80004230:	00750533          	add	a0,a0,t2

0000000080004234 <i_4059>:
    80004234:	032e7263          	bleu	s2,t3,80004258 <i_4068>

0000000080004238 <i_4060>:
    80004238:	00757a63          	bleu	t2,a0,8000424c <i_4065>

000000008000423c <i_4061>:
    8000423c:	01011923          	sh	a6,18(sp)

0000000080004240 <i_4062>:
    80004240:	f0314503          	lbu	a0,-253(sp)

0000000080004244 <i_4063>:
    80004244:	00000013          	nop

0000000080004248 <i_4064>:
    80004248:	00afa2b3          	slt	t0,t6,a0

000000008000424c <i_4065>:
    8000424c:	0056b533          	sltu	a0,a3,t0

0000000080004250 <i_4066>:
    80004250:	fb416483          	lwu	s1,-76(sp)

0000000080004254 <i_4067>:
    80004254:	14d10783          	lb	a5,333(sp)

0000000080004258 <i_4068>:
    80004258:	00000013          	nop

000000008000425c <i_4069>:
    8000425c:	029492b3          	mulh	t0,s1,s1

0000000080004260 <i_4070>:
    80004260:	77e00913          	li	s2,1918

0000000080004264 <i_4071>:
    80004264:	79000593          	li	a1,1936

0000000080004268 <i_4072>:
    80004268:	02a5e463          	bltu	a1,a0,80004290 <i_4081>

000000008000426c <i_4073>:
    8000426c:	04416483          	lwu	s1,68(sp)

0000000080004270 <i_4074>:
    80004270:	030c4463          	blt	s8,a6,80004298 <i_4083>

0000000080004274 <i_4075>:
    80004274:	86c3e837          	lui	a6,0x86c3e

0000000080004278 <i_4076>:
    80004278:	f9011e23          	sh	a6,-100(sp)

000000008000427c <i_4077>:
    8000427c:	139108a3          	sb	s9,305(sp)

0000000080004280 <i_4078>:
    80004280:	00190913          	addi	s2,s2,1 # 1833a001 <main-0x67cc5fff>
    80004284:	ff25f2e3          	bleu	s2,a1,80004268 <i_4072>

0000000080004288 <i_4079>:
    80004288:	02b7f5b3          	remu	a1,a5,a1

000000008000428c <i_4080>:
    8000428c:	9d5b2813          	slti	a6,s6,-1579

0000000080004290 <i_4081>:
    80004290:	02b80263          	beq	a6,a1,800042b4 <i_4090>

0000000080004294 <i_4082>:
    80004294:	16b13823          	sd	a1,368(sp)

0000000080004298 <i_4083>:
    80004298:	0309f263          	bleu	a6,s3,800042bc <i_4092>

000000008000429c <i_4084>:
    8000429c:	13011423          	sh	a6,296(sp)

00000000800042a0 <i_4085>:
    800042a0:	01081e63          	bne	a6,a6,800042bc <i_4092>

00000000800042a4 <i_4086>:
    800042a4:	00185793          	srli	a5,a6,0x1

00000000800042a8 <i_4087>:
    800042a8:	e5910803          	lb	a6,-423(sp)

00000000800042ac <i_4088>:
    800042ac:	abf04eb7          	lui	t4,0xabf04

00000000800042b0 <i_4089>:
    800042b0:	03d85eb3          	divu	t4,a6,t4

00000000800042b4 <i_4090>:
    800042b4:	0d010e23          	sb	a6,220(sp)

00000000800042b8 <i_4091>:
    800042b8:	e8814b83          	lbu	s7,-376(sp)

00000000800042bc <i_4092>:
    800042bc:	418e8bb3          	sub	s7,t4,s8

00000000800042c0 <i_4093>:
    800042c0:	0047919b          	slliw	gp,a5,0x4

00000000800042c4 <i_4094>:
    800042c4:	f6c16c03          	lwu	s8,-148(sp)

00000000800042c8 <i_4095>:
    800042c8:	f7711123          	sh	s7,-158(sp)

00000000800042cc <i_4096>:
    800042cc:	14a11b83          	lh	s7,330(sp)

00000000800042d0 <i_4097>:
    800042d0:	0181ee63          	bltu	gp,s8,800042ec <i_4104>

00000000800042d4 <i_4098>:
    800042d4:	15a11603          	lh	a2,346(sp)

00000000800042d8 <i_4099>:
    800042d8:	038c6533          	rem	a0,s8,s8

00000000800042dc <i_4100>:
    800042dc:	05611583          	lh	a1,86(sp)

00000000800042e0 <i_4101>:
    800042e0:	14b10723          	sb	a1,334(sp)

00000000800042e4 <i_4102>:
    800042e4:	26556e13          	ori	t3,a0,613

00000000800042e8 <i_4103>:
    800042e8:	003bd463          	ble	gp,s7,800042f0 <i_4105>

00000000800042ec <i_4104>:
    800042ec:	fbc12023          	sw	t3,-96(sp)

00000000800042f0 <i_4105>:
    800042f0:	f0c12423          	sw	a2,-248(sp)

00000000800042f4 <i_4106>:
    800042f4:	f5710583          	lb	a1,-169(sp)

00000000800042f8 <i_4107>:
    800042f8:	f5e11e03          	lh	t3,-162(sp)

00000000800042fc <i_4108>:
    800042fc:	e3c12a23          	sw	t3,-460(sp)

0000000080004300 <i_4109>:
    80004300:	03ce0463          	beq	t3,t3,80004328 <i_4119>

0000000080004304 <i_4110>:
    80004304:	15bfff93          	andi	t6,t6,347

0000000080004308 <i_4111>:
    80004308:	0a013f83          	ld	t6,160(sp)

000000008000430c <i_4112>:
    8000430c:	eb911a23          	sh	s9,-332(sp)

0000000080004310 <i_4113>:
    80004310:	00000013          	nop

0000000080004314 <i_4114>:
    80004314:	4fe68d1b          	addiw	s10,a3,1278

0000000080004318 <i_4115>:
    80004318:	f2412d03          	lw	s10,-220(sp)

000000008000431c <i_4116>:
    8000431c:	ead13023          	sd	a3,-352(sp)

0000000080004320 <i_4117>:
    80004320:	00100a13          	li	s4,1

0000000080004324 <i_4118>:
    80004324:	014a55b3          	srl	a1,s4,s4

0000000080004328 <i_4119>:
    80004328:	f1013a03          	ld	s4,-240(sp)

000000008000432c <i_4120>:
    8000432c:	fd410623          	sb	s4,-52(sp)

0000000080004330 <i_4121>:
    80004330:	7dd00693          	li	a3,2013

0000000080004334 <i_4122>:
    80004334:	7ed00c93          	li	s9,2029

0000000080004338 <i_4123>:
    80004338:	034a7663          	bleu	s4,s4,80004364 <i_4133>

000000008000433c <i_4124>:
    8000433c:	02300a13          	li	s4,35

0000000080004340 <i_4125>:
    80004340:	014a5a33          	srl	s4,s4,s4

0000000080004344 <i_4126>:
    80004344:	00168693          	addi	a3,a3,1
    80004348:	fedcd8e3          	ble	a3,s9,80004338 <i_4123>

000000008000434c <i_4127>:
    8000434c:	13416a83          	lwu	s5,308(sp)

0000000080004350 <i_4128>:
    80004350:	00000013          	nop

0000000080004354 <i_4129>:
    80004354:	034acf33          	div	t5,s5,s4

0000000080004358 <i_4130>:
    80004358:	00000013          	nop

000000008000435c <i_4131>:
    8000435c:	00000013          	nop

0000000080004360 <i_4132>:
    80004360:	e2011c83          	lh	s9,-480(sp)

0000000080004364 <i_4133>:
    80004364:	003f1b93          	slli	s7,t5,0x3

0000000080004368 <i_4134>:
    80004368:	ee614f83          	lbu	t6,-282(sp)

000000008000436c <i_4135>:
    8000436c:	8b700a93          	li	s5,-1865

0000000080004370 <i_4136>:
    80004370:	8c400d93          	li	s11,-1852

0000000080004374 <i_4137>:
    80004374:	12215683          	lhu	a3,290(sp)

0000000080004378 <i_4138>:
    80004378:	02df9bb3          	mulh	s7,t6,a3

000000008000437c <i_4139>:
    8000437c:	11912a23          	sw	s9,276(sp)

0000000080004380 <i_4140>:
    80004380:	001a8a93          	addi	s5,s5,1 # ffffffffa7b28001 <_end+0xffffffff27b17bed>
    80004384:	ffba98e3          	bne	s5,s11,80004374 <i_4137>

0000000080004388 <i_4141>:
    80004388:	e3a11903          	lh	s2,-454(sp)

000000008000438c <i_4142>:
    8000438c:	00000013          	nop

0000000080004390 <i_4143>:
    80004390:	10813c83          	ld	s9,264(sp)

0000000080004394 <i_4144>:
    80004394:	77e00f93          	li	t6,1918

0000000080004398 <i_4145>:
    80004398:	78f00693          	li	a3,1935

000000008000439c <i_4146>:
    8000439c:	03fffa3b          	remuw	s4,t6,t6

00000000800043a0 <i_4147>:
    800043a0:	c866a913          	slti	s2,a3,-890

00000000800043a4 <i_4148>:
    800043a4:	08812583          	lw	a1,136(sp)

00000000800043a8 <i_4149>:
    800043a8:	fc013a03          	ld	s4,-64(sp)

00000000800043ac <i_4150>:
    800043ac:	11615f03          	lhu	t5,278(sp)

00000000800043b0 <i_4151>:
    800043b0:	01469a63          	bne	a3,s4,800043c4 <i_4156>

00000000800043b4 <i_4152>:
    800043b4:	02d6c0b3          	div	ra,a3,a3

00000000800043b8 <i_4153>:
    800043b8:	01e11a03          	lh	s4,30(sp)

00000000800043bc <i_4154>:
    800043bc:	014a0a63          	beq	s4,s4,800043d0 <i_4159>

00000000800043c0 <i_4155>:
    800043c0:	ed411b23          	sh	s4,-298(sp)

00000000800043c4 <i_4156>:
    800043c4:	034fe633          	rem	a2,t6,s4

00000000800043c8 <i_4157>:
    800043c8:	15412083          	lw	ra,340(sp)

00000000800043cc <i_4158>:
    800043cc:	ef416a03          	lwu	s4,-268(sp)

00000000800043d0 <i_4159>:
    800043d0:	00613c23          	sd	t1,24(sp)

00000000800043d4 <i_4160>:
    800043d4:	e6c12283          	lw	t0,-404(sp)

00000000800043d8 <i_4161>:
    800043d8:	001f8f93          	addi	t6,t6,1
    800043dc:	fcdfc0e3          	blt	t6,a3,8000439c <i_4146>

00000000800043e0 <i_4162>:
    800043e0:	0032d093          	srli	ra,t0,0x3

00000000800043e4 <i_4163>:
    800043e4:	f2337497          	auipc	s1,0xf2337

00000000800043e8 <i_4164>:
    800043e8:	0342f463          	bleu	s4,t0,80004410 <i_4174>

00000000800043ec <i_4165>:
    800043ec:	40345c1b          	sraiw	s8,s0,0x3

00000000800043f0 <i_4166>:
    800043f0:	01500493          	li	s1,21

00000000800043f4 <i_4167>:
    800043f4:	0092d2bb          	srlw	t0,t0,s1

00000000800043f8 <i_4168>:
    800043f8:	f7016a83          	lwu	s5,-144(sp)

00000000800043fc <i_4169>:
    800043fc:	f0a11283          	lh	t0,-246(sp)

0000000080004400 <i_4170>:
    80004400:	12615a83          	lhu	s5,294(sp)

0000000080004404 <i_4171>:
    80004404:	035bc063          	blt	s7,s5,80004424 <i_4179>

0000000080004408 <i_4172>:
    80004408:	f5512223          	sw	s5,-188(sp)

000000008000440c <i_4173>:
    8000440c:	035af063          	bleu	s5,s5,8000442c <i_4181>

0000000080004410 <i_4174>:
    80004410:	403ada93          	srai	s5,s5,0x3

0000000080004414 <i_4175>:
    80004414:	13513023          	sd	s5,288(sp)

0000000080004418 <i_4176>:
    80004418:	eb513423          	sd	s5,-344(sp)

000000008000441c <i_4177>:
    8000441c:	015a8263          	beq	s5,s5,80004420 <i_4178>

0000000080004420 <i_4178>:
    80004420:	e1c12303          	lw	t1,-484(sp)

0000000080004424 <i_4179>:
    80004424:	0f313023          	sd	s3,224(sp)

0000000080004428 <i_4180>:
    80004428:	11513823          	sd	s5,272(sp)

000000008000442c <i_4181>:
    8000442c:	0137aab3          	slt	s5,a5,s3

0000000080004430 <i_4182>:
    80004430:	028af43b          	remuw	s0,s5,s0

0000000080004434 <i_4183>:
    80004434:	76300993          	li	s3,1891

0000000080004438 <i_4184>:
    80004438:	76700793          	li	a5,1895

000000008000443c <i_4185>:
    8000443c:	fd310723          	sb	s3,-50(sp)

0000000080004440 <i_4186>:
    80004440:	0359e463          	bltu	s3,s5,80004468 <i_4196>

0000000080004444 <i_4187>:
    80004444:	15512623          	sw	s5,332(sp)

0000000080004448 <i_4188>:
    80004448:	0287d263          	ble	s0,a5,8000446c <i_4197>

000000008000444c <i_4189>:
    8000444c:	0139fe63          	bleu	s3,s3,80004468 <i_4196>

0000000080004450 <i_4190>:
    80004450:	82042f13          	slti	t5,s0,-2016

0000000080004454 <i_4191>:
    80004454:	004f9b9b          	slliw	s7,t6,0x4

0000000080004458 <i_4192>:
    80004458:	d01f7a93          	andi	s5,t5,-767

000000008000445c <i_4193>:
    8000445c:	b609b197          	auipc	gp,0xb609b

0000000080004460 <i_4194>:
    80004460:	02f79ab3          	mulh	s5,a5,a5

0000000080004464 <i_4195>:
    80004464:	003a8fb3          	add	t6,s5,gp

0000000080004468 <i_4196>:
    80004468:	f7415d03          	lhu	s10,-140(sp)

000000008000446c <i_4197>:
    8000446c:	0b813f83          	ld	t6,184(sp)

0000000080004470 <i_4198>:
    80004470:	02500b13          	li	s6,37

0000000080004474 <i_4199>:
    80004474:	016d5a33          	srl	s4,s10,s6

0000000080004478 <i_4200>:
    80004478:	00198993          	addi	s3,s3,1
    8000447c:	fcf9c0e3          	blt	s3,a5,8000443c <i_4185>

0000000080004480 <i_4201>:
    80004480:	003b6a63          	bltu	s6,gp,80004494 <i_4206>

0000000080004484 <i_4202>:
    80004484:	bb0eed93          	ori	s11,t4,-1104

0000000080004488 <i_4203>:
    80004488:	e6914b03          	lbu	s6,-407(sp)

000000008000448c <i_4204>:
    8000448c:	e9512e23          	sw	s5,-356(sp)

0000000080004490 <i_4205>:
    80004490:	01bf8bb3          	add	s7,t6,s11

0000000080004494 <i_4206>:
    80004494:	00313023          	sd	gp,0(sp)

0000000080004498 <i_4207>:
    80004498:	ef412023          	sw	s4,-288(sp)

000000008000449c <i_4208>:
    8000449c:	00141f93          	slli	t6,s0,0x1

00000000800044a0 <i_4209>:
    800044a0:	e8813823          	sd	s0,-368(sp)

00000000800044a4 <i_4210>:
    800044a4:	014b8f33          	add	t5,s7,s4

00000000800044a8 <i_4211>:
    800044a8:	7d500a13          	li	s4,2005

00000000800044ac <i_4212>:
    800044ac:	7d900413          	li	s0,2009

00000000800044b0 <i_4213>:
    800044b0:	015a5263          	ble	s5,s4,800044b4 <i_4214>

00000000800044b4 <i_4214>:
    800044b4:	fa314983          	lbu	s3,-93(sp)

00000000800044b8 <i_4215>:
    800044b8:	58643793          	sltiu	a5,s0,1414

00000000800044bc <i_4216>:
    800044bc:	fd813a83          	ld	s5,-40(sp)

00000000800044c0 <i_4217>:
    800044c0:	e5f12423          	sw	t6,-440(sp)

00000000800044c4 <i_4218>:
    800044c4:	00240313          	addi	t1,s0,2

00000000800044c8 <i_4219>:
    800044c8:	01b2ffb3          	and	t6,t0,s11

00000000800044cc <i_4220>:
    800044cc:	04d10a23          	sb	a3,84(sp)

00000000800044d0 <i_4221>:
    800044d0:	f8914303          	lbu	t1,-119(sp)

00000000800044d4 <i_4222>:
    800044d4:	01cf8933          	add	s2,t6,t3

00000000800044d8 <i_4223>:
    800044d8:	0ec10723          	sb	a2,238(sp)

00000000800044dc <i_4224>:
    800044dc:	00229f93          	slli	t6,t0,0x2

00000000800044e0 <i_4225>:
    800044e0:	001a0a13          	addi	s4,s4,1
    800044e4:	fc8a16e3          	bne	s4,s0,800044b0 <i_4213>

00000000800044e8 <i_4226>:
    800044e8:	01f2d863          	ble	t6,t0,800044f8 <i_4230>

00000000800044ec <i_4227>:
    800044ec:	3770f613          	andi	a2,ra,887

00000000800044f0 <i_4228>:
    800044f0:	fcc12c23          	sw	a2,-40(sp)

00000000800044f4 <i_4229>:
    800044f4:	19c11383          	lh	t2,412(sp)

00000000800044f8 <i_4230>:
    800044f8:	fcb90493          	addi	s1,s2,-53

00000000800044fc <i_4231>:
    800044fc:	03ff9633          	mulh	a2,t6,t6

0000000080004500 <i_4232>:
    80004500:	76f00913          	li	s2,1903

0000000080004504 <i_4233>:
    80004504:	77b00793          	li	a5,1915

0000000080004508 <i_4234>:
    80004508:	00930a63          	beq	t1,s1,8000451c <i_4239>

000000008000450c <i_4235>:
    8000450c:	00991463          	bne	s2,s1,80004514 <i_4237>

0000000080004510 <i_4236>:
    80004510:	02015d83          	lhu	s11,32(sp)

0000000080004514 <i_4237>:
    80004514:	4041d19b          	sraiw	gp,gp,0x4

0000000080004518 <i_4238>:
    80004518:	f9211f23          	sh	s2,-98(sp)

000000008000451c <i_4239>:
    8000451c:	0ef11723          	sh	a5,238(sp)

0000000080004520 <i_4240>:
    80004520:	05012483          	lw	s1,80(sp)

0000000080004524 <i_4241>:
    80004524:	e6c101a3          	sb	a2,-413(sp)

0000000080004528 <i_4242>:
    80004528:	03f3f063          	bleu	t6,t2,80004548 <i_4249>

000000008000452c <i_4243>:
    8000452c:	00190913          	addi	s2,s2,1
    80004530:	fcf94ce3          	blt	s2,a5,80004508 <i_4234>

0000000080004534 <i_4244>:
    80004534:	01100213          	li	tp,17

0000000080004538 <i_4245>:
    80004538:	404957bb          	sraw	a5,s2,tp

000000008000453c <i_4246>:
    8000453c:	1b416d03          	lwu	s10,436(sp)

0000000080004540 <i_4247>:
    80004540:	03286063          	bltu	a6,s2,80004560 <i_4255>

0000000080004544 <i_4248>:
    80004544:	0094f463          	bleu	s1,s1,8000454c <i_4250>

0000000080004548 <i_4249>:
    80004548:	03b7e263          	bltu	a5,s11,8000456c <i_4258>

000000008000454c <i_4250>:
    8000454c:	03add063          	ble	s10,s11,8000456c <i_4258>

0000000080004550 <i_4251>:
    80004550:	ffb13c23          	sd	s11,-8(sp)

0000000080004554 <i_4252>:
    80004554:	00c4f663          	bleu	a2,s1,80004560 <i_4255>

0000000080004558 <i_4253>:
    80004558:	00c49463          	bne	s1,a2,80004560 <i_4255>

000000008000455c <i_4254>:
    8000455c:	00727a63          	bleu	t2,tp,80004570 <i_4259>

0000000080004560 <i_4255>:
    80004560:	eeb3b293          	sltiu	t0,t2,-277

0000000080004564 <i_4256>:
    80004564:	02cdc463          	blt	s11,a2,8000458c <i_4266>

0000000080004568 <i_4257>:
    80004568:	01bfde63          	ble	s11,t6,80004584 <i_4264>

000000008000456c <i_4258>:
    8000456c:	ff813e03          	ld	t3,-8(sp)

0000000080004570 <i_4259>:
    80004570:	01b4d663          	ble	s11,s1,8000457c <i_4262>

0000000080004574 <i_4260>:
    80004574:	f6610903          	lb	s2,-154(sp)

0000000080004578 <i_4261>:
    80004578:	92037313          	andi	t1,t1,-1760

000000008000457c <i_4262>:
    8000457c:	ea611a23          	sh	t1,-332(sp)

0000000080004580 <i_4263>:
    80004580:	05c12623          	sw	t3,76(sp)

0000000080004584 <i_4264>:
    80004584:	40730c33          	sub	s8,t1,t2

0000000080004588 <i_4265>:
    80004588:	eb811d23          	sh	s8,-326(sp)

000000008000458c <i_4266>:
    8000458c:	e7310e03          	lb	t3,-397(sp)

0000000080004590 <i_4267>:
    80004590:	40770333          	sub	t1,a4,t2

0000000080004594 <i_4268>:
    80004594:	03ce7063          	bleu	t3,t3,800045b4 <i_4276>

0000000080004598 <i_4269>:
    80004598:	1f20cf93          	xori	t6,ra,498

000000008000459c <i_4270>:
    8000459c:	0026969b          	slliw	a3,a3,0x2

00000000800045a0 <i_4271>:
    800045a0:	00000013          	nop

00000000800045a4 <i_4272>:
    800045a4:	0154f333          	and	t1,s1,s5

00000000800045a8 <i_4273>:
    800045a8:	fa714183          	lbu	gp,-89(sp)

00000000800045ac <i_4274>:
    800045ac:	fe310023          	sb	gp,-32(sp)

00000000800045b0 <i_4275>:
    800045b0:	00000013          	nop

00000000800045b4 <i_4276>:
    800045b4:	fad10623          	sb	a3,-84(sp)

00000000800045b8 <i_4277>:
    800045b8:	0b512423          	sw	s5,168(sp)

00000000800045bc <i_4278>:
    800045bc:	81a00a93          	li	s5,-2022

00000000800045c0 <i_4279>:
    800045c0:	82800393          	li	t2,-2008

00000000800045c4 <i_4280>:
    800045c4:	03c1c333          	div	t1,gp,t3

00000000800045c8 <i_4281>:
    800045c8:	02530463          	beq	t1,t0,800045f0 <i_4290>

00000000800045cc <i_4282>:
    800045cc:	00730e63          	beq	t1,t2,800045e8 <i_4288>

00000000800045d0 <i_4283>:
    800045d0:	01518c63          	beq	gp,s5,800045e8 <i_4288>

00000000800045d4 <i_4284>:
    800045d4:	004f1f13          	slli	t5,t5,0x4

00000000800045d8 <i_4285>:
    800045d8:	001a8a93          	addi	s5,s5,1
    800045dc:	fe7a94e3          	bne	s5,t2,800045c4 <i_4280>

00000000800045e0 <i_4286>:
    800045e0:	12914903          	lbu	s2,297(sp)

00000000800045e4 <i_4287>:
    800045e4:	01ef5263          	ble	t5,t5,800045e8 <i_4288>

00000000800045e8 <i_4288>:
    800045e8:	f0513423          	sd	t0,-248(sp)

00000000800045ec <i_4289>:
    800045ec:	01d00513          	li	a0,29

00000000800045f0 <i_4290>:
    800045f0:	00a19fbb          	sllw	t6,gp,a0

00000000800045f4 <i_4291>:
    800045f4:	e3310f83          	lb	t6,-461(sp)

00000000800045f8 <i_4292>:
    800045f8:	05513423          	sd	s5,72(sp)

00000000800045fc <i_4293>:
    800045fc:	01f56833          	or	a6,a0,t6

0000000080004600 <i_4294>:
    80004600:	00b69463          	bne	a3,a1,80004608 <i_4296>

0000000080004604 <i_4295>:
    80004604:	f0013f83          	ld	t6,-256(sp)

0000000080004608 <i_4296>:
    80004608:	ed016203          	lwu	tp,-304(sp)

000000008000460c <i_4297>:
    8000460c:	0ad10d03          	lb	s10,173(sp)

0000000080004610 <i_4298>:
    80004610:	72e00393          	li	t2,1838

0000000080004614 <i_4299>:
    80004614:	73800593          	li	a1,1848

0000000080004618 <i_4300>:
    80004618:	17a12a23          	sw	s10,372(sp)

000000008000461c <i_4301>:
    8000461c:	02426d33          	rem	s10,tp,tp

0000000080004620 <i_4302>:
    80004620:	1d810ea3          	sb	s8,477(sp)

0000000080004624 <i_4303>:
    80004624:	f3013203          	ld	tp,-208(sp)

0000000080004628 <i_4304>:
    80004628:	22fd7e93          	andi	t4,s10,559

000000008000462c <i_4305>:
    8000462c:	004103a3          	sb	tp,7(sp)

0000000080004630 <i_4306>:
    80004630:	00100f13          	li	t5,1

0000000080004634 <i_4307>:
    80004634:	01ee91bb          	sllw	gp,t4,t5

0000000080004638 <i_4308>:
    80004638:	03e26663          	bltu	tp,t5,80004664 <i_4318>

000000008000463c <i_4309>:
    8000463c:	00d2e2b3          	or	t0,t0,a3

0000000080004640 <i_4310>:
    80004640:	fda10623          	sb	s10,-52(sp)

0000000080004644 <i_4311>:
    80004644:	0ae10283          	lb	t0,174(sp)

0000000080004648 <i_4312>:
    80004648:	0a511023          	sh	t0,160(sp)

000000008000464c <i_4313>:
    8000464c:	03a12823          	sw	s10,48(sp)

0000000080004650 <i_4314>:
    80004650:	01de82b3          	add	t0,t4,t4

0000000080004654 <i_4315>:
    80004654:	00138393          	addi	t2,t2,1 # 2ea5b001 <main-0x515a4fff>
    80004658:	fcb390e3          	bne	t2,a1,80004618 <i_4300>

000000008000465c <i_4316>:
    8000465c:	0ac16e83          	lwu	t4,172(sp)

0000000080004660 <i_4317>:
    80004660:	01e11e83          	lh	t4,30(sp)

0000000080004664 <i_4318>:
    80004664:	403ede93          	srai	t4,t4,0x3

0000000080004668 <i_4319>:
    80004668:	e3a10e03          	lb	t3,-454(sp)

000000008000466c <i_4320>:
    8000466c:	01de8c63          	beq	t4,t4,80004684 <i_4326>

0000000080004670 <i_4321>:
    80004670:	19c10b23          	sb	t3,406(sp)

0000000080004674 <i_4322>:
    80004674:	e7012b03          	lw	s6,-400(sp)

0000000080004678 <i_4323>:
    80004678:	03db7f3b          	remuw	t5,s6,t4

000000008000467c <i_4324>:
    8000467c:	f1d13c23          	sd	t4,-232(sp)

0000000080004680 <i_4325>:
    80004680:	00f00a13          	li	s4,15

0000000080004684 <i_4326>:
    80004684:	014611bb          	sllw	gp,a2,s4

0000000080004688 <i_4327>:
    80004688:	03ce0f3b          	mulw	t5,t3,t3

000000008000468c <i_4328>:
    8000468c:	f5d10723          	sb	t4,-178(sp)

0000000080004690 <i_4329>:
    80004690:	036a6eb3          	rem	t4,s4,s6

0000000080004694 <i_4330>:
    80004694:	e5410123          	sb	s4,-446(sp)

0000000080004698 <i_4331>:
    80004698:	1a1a7e93          	andi	t4,s4,417

000000008000469c <i_4332>:
    8000469c:	00200493          	li	s1,2

00000000800046a0 <i_4333>:
    800046a0:	009b5b3b          	srlw	s6,s6,s1

00000000800046a4 <i_4334>:
    800046a4:	e6e14183          	lbu	gp,-402(sp)

00000000800046a8 <i_4335>:
    800046a8:	0231c463          	blt	gp,gp,800046d0 <i_4345>

00000000800046ac <i_4336>:
    800046ac:	036e8ebb          	mulw	t4,t4,s6

00000000800046b0 <i_4337>:
    800046b0:	009ed863          	ble	s1,t4,800046c0 <i_4341>

00000000800046b4 <i_4338>:
    800046b4:	00000013          	nop

00000000800046b8 <i_4339>:
    800046b8:	02a54abb          	divw	s5,a0,a0

00000000800046bc <i_4340>:
    800046bc:	11015183          	lhu	gp,272(sp)

00000000800046c0 <i_4341>:
    800046c0:	03c16b03          	lwu	s6,60(sp)

00000000800046c4 <i_4342>:
    800046c4:	09812583          	lw	a1,152(sp)

00000000800046c8 <i_4343>:
    800046c8:	14012483          	lw	s1,320(sp)

00000000800046cc <i_4344>:
    800046cc:	01900193          	li	gp,25

00000000800046d0 <i_4345>:
    800046d0:	4031de3b          	sraw	t3,gp,gp

00000000800046d4 <i_4346>:
    800046d4:	f0311323          	sh	gp,-250(sp)

00000000800046d8 <i_4347>:
    800046d8:	7dc00f13          	li	t5,2012

00000000800046dc <i_4348>:
    800046dc:	7e600513          	li	a0,2022

00000000800046e0 <i_4349>:
    800046e0:	1b812303          	lw	t1,440(sp)

00000000800046e4 <i_4350>:
    800046e4:	036ad463          	ble	s6,s5,8000470c <i_4359>

00000000800046e8 <i_4351>:
    800046e8:	10710683          	lb	a3,263(sp)

00000000800046ec <i_4352>:
    800046ec:	00000013          	nop

00000000800046f0 <i_4353>:
    800046f0:	03c48263          	beq	s1,t3,80004714 <i_4361>

00000000800046f4 <i_4354>:
    800046f4:	01e00e13          	li	t3,30

00000000800046f8 <i_4355>:
    800046f8:	01c711bb          	sllw	gp,a4,t3

00000000800046fc <i_4356>:
    800046fc:	001f0f13          	addi	t5,t5,1 # 5a763001 <main-0x2589cfff>
    80004700:	feaf40e3          	blt	t5,a0,800046e0 <i_4349>

0000000080004704 <i_4357>:
    80004704:	fe016983          	lwu	s3,-32(sp)

0000000080004708 <i_4358>:
    80004708:	02700693          	li	a3,39

000000008000470c <i_4359>:
    8000470c:	40d6d2b3          	sra	t0,a3,a3

0000000080004710 <i_4360>:
    80004710:	01368863          	beq	a3,s3,80004720 <i_4364>

0000000080004714 <i_4361>:
    80004714:	418284b3          	sub	s1,t0,s8

0000000080004718 <i_4362>:
    80004718:	0c416083          	lwu	ra,196(sp)

000000008000471c <i_4363>:
    8000471c:	0340a2b3          	mulhsu	t0,ra,s4

0000000080004720 <i_4364>:
    80004720:	0344ea3b          	remw	s4,s1,s4

0000000080004724 <i_4365>:
    80004724:	01e00093          	li	ra,30

0000000080004728 <i_4366>:
    80004728:	4010d0bb          	sraw	ra,ra,ra

000000008000472c <i_4367>:
    8000472c:	82b00c13          	li	s8,-2005

0000000080004730 <i_4368>:
    80004730:	83400693          	li	a3,-1996

0000000080004734 <i_4369>:
    80004734:	eb410523          	sb	s4,-342(sp)

0000000080004738 <i_4370>:
    80004738:	001a5a13          	srli	s4,s4,0x1

000000008000473c <i_4371>:
    8000473c:	f9012183          	lw	gp,-112(sp)

0000000080004740 <i_4372>:
    80004740:	0231c4b3          	div	s1,gp,gp

0000000080004744 <i_4373>:
    80004744:	00000013          	nop

0000000080004748 <i_4374>:
    80004748:	001a60b3          	or	ra,s4,ra

000000008000474c <i_4375>:
    8000474c:	001c0c13          	addi	s8,s8,1
    80004750:	fedc10e3          	bne	s8,a3,80004730 <i_4368>

0000000080004754 <i_4376>:
    80004754:	fc011a03          	lh	s4,-64(sp)

0000000080004758 <i_4377>:
    80004758:	fc913823          	sd	s1,-48(sp)

000000008000475c <i_4378>:
    8000475c:	0234d263          	ble	gp,s1,80004780 <i_4387>

0000000080004760 <i_4379>:
    80004760:	00419193          	slli	gp,gp,0x4

0000000080004764 <i_4380>:
    80004764:	003a5e63          	ble	gp,s4,80004780 <i_4387>

0000000080004768 <i_4381>:
    80004768:	44aa4313          	xori	t1,s4,1098

000000008000476c <i_4382>:
    8000476c:	e4610aa3          	sb	t1,-427(sp)

0000000080004770 <i_4383>:
    80004770:	00700a13          	li	s4,7

0000000080004774 <i_4384>:
    80004774:	014f1a3b          	sllw	s4,t5,s4

0000000080004778 <i_4385>:
    80004778:	01413c23          	sd	s4,24(sp)

000000008000477c <i_4386>:
    8000477c:	f0d10e83          	lb	t4,-243(sp)

0000000080004780 <i_4387>:
    80004780:	004eda93          	srli	s5,t4,0x4

0000000080004784 <i_4388>:
    80004784:	f4b11c23          	sh	a1,-168(sp)

0000000080004788 <i_4389>:
    80004788:	79700593          	li	a1,1943

000000008000478c <i_4390>:
    8000478c:	79f00f13          	li	t5,1951

0000000080004790 <i_4391>:
    80004790:	19d13c23          	sd	t4,408(sp)

0000000080004794 <i_4392>:
    80004794:	e7e11183          	lh	gp,-386(sp)

0000000080004798 <i_4393>:
    80004798:	0a9aaa93          	slti	s5,s5,169

000000008000479c <i_4394>:
    8000479c:	00158593          	addi	a1,a1,1
    800047a0:	febf78e3          	bleu	a1,t5,80004790 <i_4391>

00000000800047a4 <i_4395>:
    800047a4:	e5813a83          	ld	s5,-424(sp)

00000000800047a8 <i_4396>:
    800047a8:	19813483          	ld	s1,408(sp)

00000000800047ac <i_4397>:
    800047ac:	ed5104a3          	sb	s5,-311(sp)

00000000800047b0 <i_4398>:
    800047b0:	f3513823          	sd	s5,-208(sp)

00000000800047b4 <i_4399>:
    800047b4:	79000a13          	li	s4,1936

00000000800047b8 <i_4400>:
    800047b8:	7a000a93          	li	s5,1952

00000000800047bc <i_4401>:
    800047bc:	ffe15383          	lhu	t2,-2(sp)

00000000800047c0 <i_4402>:
    800047c0:	0bc12c03          	lw	s8,188(sp)

00000000800047c4 <i_4403>:
    800047c4:	911d2f93          	slti	t6,s10,-1775

00000000800047c8 <i_4404>:
    800047c8:	f4a10183          	lb	gp,-182(sp)

00000000800047cc <i_4405>:
    800047cc:	e2711f23          	sh	t2,-450(sp)

00000000800047d0 <i_4406>:
    800047d0:	14313023          	sd	gp,320(sp)

00000000800047d4 <i_4407>:
    800047d4:	f5813183          	ld	gp,-168(sp)

00000000800047d8 <i_4408>:
    800047d8:	17f13023          	sd	t6,352(sp)

00000000800047dc <i_4409>:
    800047dc:	001a0a13          	addi	s4,s4,1
    800047e0:	fd5a1ee3          	bne	s4,s5,800047bc <i_4401>

00000000800047e4 <i_4410>:
    800047e4:	03f1d1b3          	divu	gp,gp,t6

00000000800047e8 <i_4411>:
    800047e8:	77634193          	xori	gp,t1,1910

00000000800047ec <i_4412>:
    800047ec:	01e00193          	li	gp,30

00000000800047f0 <i_4413>:
    800047f0:	0031dc3b          	srlw	s8,gp,gp

00000000800047f4 <i_4414>:
    800047f4:	00b00f13          	li	t5,11

00000000800047f8 <i_4415>:
    800047f8:	01ec1f33          	sll	t5,s8,t5

00000000800047fc <i_4416>:
    800047fc:	f7e12023          	sw	t5,-160(sp)

0000000080004800 <i_4417>:
    80004800:	b52c2c93          	slti	s9,s8,-1198

0000000080004804 <i_4418>:
    80004804:	03ef3cb3          	mulhu	s9,t5,t5

0000000080004808 <i_4419>:
    80004808:	0ec10283          	lb	t0,236(sp)

000000008000480c <i_4420>:
    8000480c:	039f6f3b          	remw	t5,t5,s9

0000000080004810 <i_4421>:
    80004810:	0192da63          	ble	s9,t0,80004824 <i_4426>

0000000080004814 <i_4422>:
    80004814:	17c15b03          	lhu	s6,380(sp)

0000000080004818 <i_4423>:
    80004818:	019f0663          	beq	t5,s9,80004824 <i_4426>

000000008000481c <i_4424>:
    8000481c:	bf078c93          	addi	s9,a5,-1040

0000000080004820 <i_4425>:
    80004820:	02013583          	ld	a1,32(sp)

0000000080004824 <i_4426>:
    80004824:	0b811e23          	sh	s8,188(sp)

0000000080004828 <i_4427>:
    80004828:	19014c83          	lbu	s9,400(sp)

000000008000482c <i_4428>:
    8000482c:	fcb10603          	lb	a2,-53(sp)

0000000080004830 <i_4429>:
    80004830:	0cb7d697          	auipc	a3,0xcb7d

0000000080004834 <i_4430>:
    80004834:	e5812983          	lw	s3,-424(sp)

0000000080004838 <i_4431>:
    80004838:	03e99463          	bne	s3,t5,80004860 <i_4441>

000000008000483c <i_4432>:
    8000483c:	f2513023          	sd	t0,-224(sp)

0000000080004840 <i_4433>:
    80004840:	09911923          	sh	s9,146(sp)

0000000080004844 <i_4434>:
    80004844:	13432c93          	slti	s9,t1,308

0000000080004848 <i_4435>:
    80004848:	1e810983          	lb	s3,488(sp)

000000008000484c <i_4436>:
    8000484c:	01700593          	li	a1,23

0000000080004850 <i_4437>:
    80004850:	40b2d6b3          	sra	a3,t0,a1

0000000080004854 <i_4438>:
    80004854:	0a011503          	lh	a0,160(sp)

0000000080004858 <i_4439>:
    80004858:	fe815c83          	lhu	s9,-24(sp)

000000008000485c <i_4440>:
    8000485c:	977ccb13          	xori	s6,s9,-1673

0000000080004860 <i_4441>:
    80004860:	ed312a23          	sw	s3,-300(sp)

0000000080004864 <i_4442>:
    80004864:	ee5919b7          	lui	s3,0xee591

0000000080004868 <i_4443>:
    80004868:	10a10223          	sb	a0,260(sp)

000000008000486c <i_4444>:
    8000486c:	002f5c13          	srli	s8,t5,0x2

0000000080004870 <i_4445>:
    80004870:	0367c7b3          	div	a5,a5,s6

0000000080004874 <i_4446>:
    80004874:	07815f03          	lhu	t5,120(sp)

0000000080004878 <i_4447>:
    80004878:	01013b03          	ld	s6,16(sp)

000000008000487c <i_4448>:
    8000487c:	0367b7b3          	mulhu	a5,a5,s6

0000000080004880 <i_4449>:
    80004880:	00a7bb13          	sltiu	s6,a5,10

0000000080004884 <i_4450>:
    80004884:	02fb7f3b          	remuw	t5,s6,a5

0000000080004888 <i_4451>:
    80004888:	0107ec63          	bltu	a5,a6,800048a0 <i_4457>

000000008000488c <i_4452>:
    8000488c:	08f11023          	sh	a5,128(sp)

0000000080004890 <i_4453>:
    80004890:	ea416783          	lwu	a5,-348(sp)

0000000080004894 <i_4454>:
    80004894:	02fb0b33          	mul	s6,s6,a5

0000000080004898 <i_4455>:
    80004898:	1be11903          	lh	s2,446(sp)

000000008000489c <i_4456>:
    8000489c:	03e14783          	lbu	a5,62(sp)

00000000800048a0 <i_4457>:
    800048a0:	021afab3          	remu	s5,s5,ra

00000000800048a4 <i_4458>:
    800048a4:	016ad463          	ble	s6,s5,800048ac <i_4460>

00000000800048a8 <i_4459>:
    800048a8:	f7610a83          	lb	s5,-138(sp)

00000000800048ac <i_4460>:
    800048ac:	e9210ca3          	sb	s2,-359(sp)

00000000800048b0 <i_4461>:
    800048b0:	14f11023          	sh	a5,320(sp)

00000000800048b4 <i_4462>:
    800048b4:	ebc16c03          	lwu	s8,-324(sp)

00000000800048b8 <i_4463>:
    800048b8:	ba994793          	xori	a5,s2,-1111

00000000800048bc <i_4464>:
    800048bc:	ea013a03          	ld	s4,-352(sp)

00000000800048c0 <i_4465>:
    800048c0:	fd811123          	sh	s8,-62(sp)

00000000800048c4 <i_4466>:
    800048c4:	e7612c23          	sw	s6,-392(sp)

00000000800048c8 <i_4467>:
    800048c8:	01578e63          	beq	a5,s5,800048e4 <i_4474>

00000000800048cc <i_4468>:
    800048cc:	365c2d13          	slti	s10,s8,869

00000000800048d0 <i_4469>:
    800048d0:	f55105a3          	sb	s5,-181(sp)

00000000800048d4 <i_4470>:
    800048d4:	022a0ab3          	mul	s5,s4,sp

00000000800048d8 <i_4471>:
    800048d8:	f1e12a23          	sw	t5,-236(sp)

00000000800048dc <i_4472>:
    800048dc:	00000013          	nop

00000000800048e0 <i_4473>:
    800048e0:	00000013          	nop

00000000800048e4 <i_4474>:
    800048e4:	00000013          	nop

00000000800048e8 <i_4475>:
    800048e8:	02dac23b          	divw	tp,s5,a3

00000000800048ec <i_4476>:
    800048ec:	75000b13          	li	s6,1872

00000000800048f0 <i_4477>:
    800048f0:	76200f13          	li	t5,1890

00000000800048f4 <i_4478>:
    800048f4:	03ef1433          	mulh	s0,t5,t5

00000000800048f8 <i_4479>:
    800048f8:	01600093          	li	ra,22

00000000800048fc <i_4480>:
    800048fc:	401add3b          	sraw	s10,s5,ra

0000000080004900 <i_4481>:
    80004900:	001b0b13          	addi	s6,s6,1
    80004904:	ff6f58e3          	ble	s6,t5,800048f4 <i_4478>

0000000080004908 <i_4482>:
    80004908:	f3813e03          	ld	t3,-200(sp)

000000008000490c <i_4483>:
    8000490c:	04c10e03          	lb	t3,76(sp)

0000000080004910 <i_4484>:
    80004910:	00844c63          	blt	s0,s0,80004928 <i_4490>

0000000080004914 <i_4485>:
    80004914:	04412023          	sw	tp,64(sp)

0000000080004918 <i_4486>:
    80004918:	004e1c63          	bne	t3,tp,80004930 <i_4492>

000000008000491c <i_4487>:
    8000491c:	17c12a23          	sw	t3,372(sp)

0000000080004920 <i_4488>:
    80004920:	015f1e63          	bne	t5,s5,8000493c <i_4495>

0000000080004924 <i_4489>:
    80004924:	ffa10523          	sb	s10,-22(sp)

0000000080004928 <i_4490>:
    80004928:	401f0f33          	sub	t5,t5,ra

000000008000492c <i_4491>:
    8000492c:	0ad08d1b          	addiw	s10,ra,173

0000000080004930 <i_4492>:
    80004930:	f3e107a3          	sb	t5,-209(sp)

0000000080004934 <i_4493>:
    80004934:	403d599b          	sraiw	s3,s10,0x3

0000000080004938 <i_4494>:
    80004938:	02f00993          	li	s3,47

000000008000493c <i_4495>:
    8000493c:	0133d1b3          	srl	gp,t2,s3

0000000080004940 <i_4496>:
    80004940:	00000013          	nop

0000000080004944 <i_4497>:
    80004944:	83a00093          	li	ra,-1990

0000000080004948 <i_4498>:
    80004948:	83d00393          	li	t2,-1987

000000008000494c <i_4499>:
    8000494c:	40338333          	sub	t1,t2,gp

0000000080004950 <i_4500>:
    80004950:	00336a63          	bltu	t1,gp,80004964 <i_4505>

0000000080004954 <i_4501>:
    80004954:	00000013          	nop

0000000080004958 <i_4502>:
    80004958:	00431193          	slli	gp,t1,0x4

000000008000495c <i_4503>:
    8000495c:	0061c463          	blt	gp,t1,80004964 <i_4505>

0000000080004960 <i_4504>:
    80004960:	06412983          	lw	s3,100(sp)

0000000080004964 <i_4505>:
    80004964:	0e813b83          	ld	s7,232(sp)

0000000080004968 <i_4506>:
    80004968:	00638d33          	add	s10,t2,t1

000000008000496c <i_4507>:
    8000496c:	01ad05b3          	add	a1,s10,s10

0000000080004970 <i_4508>:
    80004970:	c4555d37          	lui	s10,0xc4555

0000000080004974 <i_4509>:
    80004974:	00108093          	addi	ra,ra,1
    80004978:	fc70eae3          	bltu	ra,t2,8000494c <i_4499>

000000008000497c <i_4510>:
    8000497c:	0035959b          	slliw	a1,a1,0x3

0000000080004980 <i_4511>:
    80004980:	eda10483          	lb	s1,-294(sp)

0000000080004984 <i_4512>:
    80004984:	01ad05b3          	add	a1,s10,s10

0000000080004988 <i_4513>:
    80004988:	ec611623          	sh	t1,-308(sp)

000000008000498c <i_4514>:
    8000498c:	41d30c33          	sub	s8,t1,t4

0000000080004990 <i_4515>:
    80004990:	15013303          	ld	t1,336(sp)

0000000080004994 <i_4516>:
    80004994:	80e00413          	li	s0,-2034

0000000080004998 <i_4517>:
    80004998:	82000e93          	li	t4,-2016

000000008000499c <i_4518>:
    8000499c:	038c1263          	bne	s8,s8,800049c0 <i_4527>

00000000800049a0 <i_4519>:
    800049a0:	f7412603          	lw	a2,-140(sp)

00000000800049a4 <i_4520>:
    800049a4:	ecbc0c1b          	addiw	s8,s8,-309

00000000800049a8 <i_4521>:
    800049a8:	01866463          	bltu	a2,s8,800049b0 <i_4523>

00000000800049ac <i_4522>:
    800049ac:	03012383          	lw	t2,48(sp)

00000000800049b0 <i_4523>:
    800049b0:	007e8e63          	beq	t4,t2,800049cc <i_4530>

00000000800049b4 <i_4524>:
    800049b4:	1a813303          	ld	t1,424(sp)

00000000800049b8 <i_4525>:
    800049b8:	fa613423          	sd	t1,-88(sp)

00000000800049bc <i_4526>:
    800049bc:	17c14e03          	lbu	t3,380(sp)

00000000800049c0 <i_4527>:
    800049c0:	0273fc3b          	remuw	s8,t2,t2

00000000800049c4 <i_4528>:
    800049c4:	e9a15483          	lhu	s1,-358(sp)

00000000800049c8 <i_4529>:
    800049c8:	09113c23          	sd	a7,152(sp)

00000000800049cc <i_4530>:
    800049cc:	027e7d33          	remu	s10,t3,t2

00000000800049d0 <i_4531>:
    800049d0:	01ae2d33          	slt	s10,t3,s10

00000000800049d4 <i_4532>:
    800049d4:	004d5e1b          	srliw	t3,s10,0x4

00000000800049d8 <i_4533>:
    800049d8:	fa013a03          	ld	s4,-96(sp)

00000000800049dc <i_4534>:
    800049dc:	00140413          	addi	s0,s0,1
    800049e0:	fbd44ee3          	blt	s0,t4,8000499c <i_4518>

00000000800049e4 <i_4535>:
    800049e4:	03ad4a33          	div	s4,s10,s10

00000000800049e8 <i_4536>:
    800049e8:	f9710a03          	lb	s4,-105(sp)

00000000800049ec <i_4537>:
    800049ec:	fd812403          	lw	s0,-40(sp)

00000000800049f0 <i_4538>:
    800049f0:	408a04bb          	subw	s1,s4,s0

00000000800049f4 <i_4539>:
    800049f4:	2a84c793          	xori	a5,s1,680

00000000800049f8 <i_4540>:
    800049f8:	ef610783          	lb	a5,-266(sp)

00000000800049fc <i_4541>:
    800049fc:	02890a33          	mul	s4,s2,s0

0000000080004a00 <i_4542>:
    80004a00:	0d812303          	lw	t1,216(sp)

0000000080004a04 <i_4543>:
    80004a04:	02648463          	beq	s1,t1,80004a2c <i_4553>

0000000080004a08 <i_4544>:
    80004a08:	01d00c13          	li	s8,29

0000000080004a0c <i_4545>:
    80004a0c:	01831a33          	sll	s4,t1,s8

0000000080004a10 <i_4546>:
    80004a10:	01836463          	bltu	t1,s8,80004a18 <i_4548>

0000000080004a14 <i_4547>:
    80004a14:	02934c33          	div	s8,t1,s1

0000000080004a18 <i_4548>:
    80004a18:	01a86833          	or	a6,a6,s10

0000000080004a1c <i_4549>:
    80004a1c:	0366f263          	bleu	s6,a3,80004a40 <i_4558>

0000000080004a20 <i_4550>:
    80004a20:	01ac0533          	add	a0,s8,s10

0000000080004a24 <i_4551>:
    80004a24:	1ff12423          	sw	t6,488(sp)

0000000080004a28 <i_4552>:
    80004a28:	02700813          	li	a6,39

0000000080004a2c <i_4553>:
    80004a2c:	410d59b3          	sra	s3,s10,a6

0000000080004a30 <i_4554>:
    80004a30:	07412a23          	sw	s4,116(sp)

0000000080004a34 <i_4555>:
    80004a34:	01aeed33          	or	s10,t4,s10

0000000080004a38 <i_4556>:
    80004a38:	f03d3b93          	sltiu	s7,s10,-253

0000000080004a3c <i_4557>:
    80004a3c:	013d7663          	bleu	s3,s10,80004a48 <i_4560>

0000000080004a40 <i_4558>:
    80004a40:	01c88463          	beq	a7,t3,80004a48 <i_4560>

0000000080004a44 <i_4559>:
    80004a44:	17910d03          	lb	s10,377(sp)

0000000080004a48 <i_4560>:
    80004a48:	037bb9b3          	mulhu	s3,s7,s7

0000000080004a4c <i_4561>:
    80004a4c:	fb415b83          	lhu	s7,-76(sp)

0000000080004a50 <i_4562>:
    80004a50:	1f711223          	sh	s7,484(sp)

0000000080004a54 <i_4563>:
    80004a54:	00300b93          	li	s7,3

0000000080004a58 <i_4564>:
    80004a58:	417a5a3b          	sraw	s4,s4,s7

0000000080004a5c <i_4565>:
    80004a5c:	16d11a23          	sh	a3,372(sp)

0000000080004a60 <i_4566>:
    80004a60:	ef414c03          	lbu	s8,-268(sp)

0000000080004a64 <i_4567>:
    80004a64:	0336e063          	bltu	a3,s3,80004a84 <i_4575>

0000000080004a68 <i_4568>:
    80004a68:	0f7102a3          	sb	s7,229(sp)

0000000080004a6c <i_4569>:
    80004a6c:	af46eb93          	ori	s7,a3,-1292

0000000080004a70 <i_4570>:
    80004a70:	fbb10423          	sb	s11,-88(sp)

0000000080004a74 <i_4571>:
    80004a74:	0386b9b3          	mulhu	s3,a3,s8

0000000080004a78 <i_4572>:
    80004a78:	0016d993          	srli	s3,a3,0x1

0000000080004a7c <i_4573>:
    80004a7c:	013c0663          	beq	s8,s3,80004a88 <i_4576>

0000000080004a80 <i_4574>:
    80004a80:	17013383          	ld	t2,368(sp)

0000000080004a84 <i_4575>:
    80004a84:	b143c993          	xori	s3,t2,-1260

0000000080004a88 <i_4576>:
    80004a88:	fc016403          	lwu	s0,-64(sp)

0000000080004a8c <i_4577>:
    80004a8c:	e4711023          	sh	t2,-448(sp)

0000000080004a90 <i_4578>:
    80004a90:	75500993          	li	s3,1877

0000000080004a94 <i_4579>:
    80004a94:	76500393          	li	t2,1893

0000000080004a98 <i_4580>:
    80004a98:	ef015803          	lhu	a6,-272(sp)

0000000080004a9c <i_4581>:
    80004a9c:	16813b03          	ld	s6,360(sp)

0000000080004aa0 <i_4582>:
    80004aa0:	ec712823          	sw	t2,-304(sp)

0000000080004aa4 <i_4583>:
    80004aa4:	02780263          	beq	a6,t2,80004ac8 <i_4591>

0000000080004aa8 <i_4584>:
    80004aa8:	11511e23          	sh	s5,284(sp)

0000000080004aac <i_4585>:
    80004aac:	00198993          	addi	s3,s3,1 # ffffffffee591001 <_end+0xffffffff6e580bed>
    80004ab0:	ff33f4e3          	bleu	s3,t2,80004a98 <i_4580>

0000000080004ab4 <i_4586>:
    80004ab4:	e2614983          	lbu	s3,-474(sp)

0000000080004ab8 <i_4587>:
    80004ab8:	04816a83          	lwu	s5,72(sp)

0000000080004abc <i_4588>:
    80004abc:	010800b3          	add	ra,a6,a6

0000000080004ac0 <i_4589>:
    80004ac0:	015af263          	bleu	s5,s5,80004ac4 <i_4590>

0000000080004ac4 <i_4590>:
    80004ac4:	0026969b          	slliw	a3,a3,0x2

0000000080004ac8 <i_4591>:
    80004ac8:	ef015e83          	lhu	t4,-272(sp)

0000000080004acc <i_4592>:
    80004acc:	01500a93          	li	s5,21

0000000080004ad0 <i_4593>:
    80004ad0:	4159dab3          	sra	s5,s3,s5

0000000080004ad4 <i_4594>:
    80004ad4:	f5d12a23          	sw	t4,-172(sp)

0000000080004ad8 <i_4595>:
    80004ad8:	015a8ab3          	add	s5,s5,s5

0000000080004adc <i_4596>:
    80004adc:	015fcc63          	blt	t6,s5,80004af4 <i_4602>

0000000080004ae0 <i_4597>:
    80004ae0:	0ef14683          	lbu	a3,239(sp)

0000000080004ae4 <i_4598>:
    80004ae4:	13415d03          	lhu	s10,308(sp)

0000000080004ae8 <i_4599>:
    80004ae8:	ef513c23          	sd	s5,-264(sp)

0000000080004aec <i_4600>:
    80004aec:	03aae533          	rem	a0,s5,s10

0000000080004af0 <i_4601>:
    80004af0:	ef512223          	sw	s5,-284(sp)

0000000080004af4 <i_4602>:
    80004af4:	fe014383          	lbu	t2,-32(sp)

0000000080004af8 <i_4603>:
    80004af8:	ff015a03          	lhu	s4,-16(sp)

0000000080004afc <i_4604>:
    80004afc:	f8711d23          	sh	t2,-102(sp)

0000000080004b00 <i_4605>:
    80004b00:	034ae4b3          	rem	s1,s5,s4

0000000080004b04 <i_4606>:
    80004b04:	01410ca3          	sb	s4,25(sp)

0000000080004b08 <i_4607>:
    80004b08:	0196f933          	and	s2,a3,s9

0000000080004b0c <i_4608>:
    80004b0c:	09513823          	sd	s5,144(sp)

0000000080004b10 <i_4609>:
    80004b10:	1a615483          	lhu	s1,422(sp)

0000000080004b14 <i_4610>:
    80004b14:	e2412483          	lw	s1,-476(sp)

0000000080004b18 <i_4611>:
    80004b18:	eca14603          	lbu	a2,-310(sp)

0000000080004b1c <i_4612>:
    80004b1c:	00994e63          	blt	s2,s1,80004b38 <i_4619>

0000000080004b20 <i_4613>:
    80004b20:	029629b3          	mulhsu	s3,a2,s1

0000000080004b24 <i_4614>:
    80004b24:	00165993          	srli	s3,a2,0x1

0000000080004b28 <i_4615>:
    80004b28:	01600413          	li	s0,22

0000000080004b2c <i_4616>:
    80004b2c:	00891a33          	sll	s4,s2,s0

0000000080004b30 <i_4617>:
    80004b30:	e9910903          	lb	s2,-359(sp)

0000000080004b34 <i_4618>:
    80004b34:	235b7a37          	lui	s4,0x235b7

0000000080004b38 <i_4619>:
    80004b38:	ff811f83          	lh	t6,-8(sp)

0000000080004b3c <i_4620>:
    80004b3c:	57747413          	andi	s0,s0,1399

0000000080004b40 <i_4621>:
    80004b40:	79900493          	li	s1,1945

0000000080004b44 <i_4622>:
    80004b44:	79e00613          	li	a2,1950

0000000080004b48 <i_4623>:
    80004b48:	09f12a23          	sw	t6,148(sp)

0000000080004b4c <i_4624>:
    80004b4c:	03400413          	li	s0,52

0000000080004b50 <i_4625>:
    80004b50:	008a5433          	srl	s0,s4,s0

0000000080004b54 <i_4626>:
    80004b54:	00000013          	nop

0000000080004b58 <i_4627>:
    80004b58:	16a11803          	lh	a6,362(sp)

0000000080004b5c <i_4628>:
    80004b5c:	00148493          	addi	s1,s1,1 # 7233b3e5 <main-0xdcc4c1b>
    80004b60:	fec4c4e3          	blt	s1,a2,80004b48 <i_4623>

0000000080004b64 <i_4629>:
    80004b64:	e7c15483          	lhu	s1,-388(sp)

0000000080004b68 <i_4630>:
    80004b68:	f7010d23          	sb	a6,-134(sp)

0000000080004b6c <i_4631>:
    80004b6c:	1cc12f83          	lw	t6,460(sp)

0000000080004b70 <i_4632>:
    80004b70:	01247663          	bleu	s2,s0,80004b7c <i_4635>

0000000080004b74 <i_4633>:
    80004b74:	00131913          	slli	s2,t1,0x1

0000000080004b78 <i_4634>:
    80004b78:	0c611403          	lh	s0,198(sp)

0000000080004b7c <i_4635>:
    80004b7c:	e6610483          	lb	s1,-410(sp)

0000000080004b80 <i_4636>:
    80004b80:	007163b3          	or	t2,sp,t2

0000000080004b84 <i_4637>:
    80004b84:	008f9a63          	bne	t6,s0,80004b98 <i_4642>

0000000080004b88 <i_4638>:
    80004b88:	0274d263          	ble	t2,s1,80004bac <i_4647>

0000000080004b8c <i_4639>:
    80004b8c:	007afa63          	bleu	t2,s5,80004ba0 <i_4644>

0000000080004b90 <i_4640>:
    80004b90:	0bc16f83          	lwu	t6,188(sp)

0000000080004b94 <i_4641>:
    80004b94:	0a711523          	sh	t2,170(sp)

0000000080004b98 <i_4642>:
    80004b98:	007ffe63          	bleu	t2,t6,80004bb4 <i_4649>

0000000080004b9c <i_4643>:
    80004b9c:	fd014203          	lbu	tp,-48(sp)

0000000080004ba0 <i_4644>:
    80004ba0:	024267b3          	rem	a5,tp,tp

0000000080004ba4 <i_4645>:
    80004ba4:	01238433          	add	s0,t2,s2

0000000080004ba8 <i_4646>:
    80004ba8:	0287dc3b          	divuw	s8,a5,s0

0000000080004bac <i_4647>:
    80004bac:	fe813823          	sd	s0,-16(sp)

0000000080004bb0 <i_4648>:
    80004bb0:	00000013          	nop

0000000080004bb4 <i_4649>:
    80004bb4:	07e10603          	lb	a2,126(sp)

0000000080004bb8 <i_4650>:
    80004bb8:	01300c13          	li	s8,19

0000000080004bbc <i_4651>:
    80004bbc:	018c1b3b          	sllw	s6,s8,s8

0000000080004bc0 <i_4652>:
    80004bc0:	77d00f93          	li	t6,1917

0000000080004bc4 <i_4653>:
    80004bc4:	78700393          	li	t2,1927

0000000080004bc8 <i_4654>:
    80004bc8:	00cb1e63          	bne	s6,a2,80004be4 <i_4660>

0000000080004bcc <i_4655>:
    80004bcc:	41cb0bbb          	subw	s7,s6,t3

0000000080004bd0 <i_4656>:
    80004bd0:	001f8f93          	addi	t6,t6,1
    80004bd4:	fff3f8e3          	bleu	t6,t2,80004bc4 <i_4653>

0000000080004bd8 <i_4657>:
    80004bd8:	03621233          	mulh	tp,tp,s6

0000000080004bdc <i_4658>:
    80004bdc:	03781833          	mulh	a6,a6,s7

0000000080004be0 <i_4659>:
    80004be0:	004624b3          	slt	s1,a2,tp

0000000080004be4 <i_4660>:
    80004be4:	14d10a83          	lb	s5,333(sp)

0000000080004be8 <i_4661>:
    80004be8:	00ce6a63          	bltu	t3,a2,80004bfc <i_4666>

0000000080004bec <i_4662>:
    80004bec:	00dc7a63          	bleu	a3,s8,80004c00 <i_4667>

0000000080004bf0 <i_4663>:
    80004bf0:	0b813b03          	ld	s6,184(sp)

0000000080004bf4 <i_4664>:
    80004bf4:	15811603          	lh	a2,344(sp)

0000000080004bf8 <i_4665>:
    80004bf8:	e6015203          	lhu	tp,-416(sp)

0000000080004bfc <i_4666>:
    80004bfc:	ef016203          	lwu	tp,-272(sp)

0000000080004c00 <i_4667>:
    80004c00:	035a9063          	bne	s5,s5,80004c20 <i_4675>

0000000080004c04 <i_4668>:
    80004c04:	ef611423          	sh	s6,-280(sp)

0000000080004c08 <i_4669>:
    80004c08:	03560063          	beq	a2,s5,80004c28 <i_4677>

0000000080004c0c <i_4670>:
    80004c0c:	016b1c63          	bne	s6,s6,80004c24 <i_4676>

0000000080004c10 <i_4671>:
    80004c10:	403ad793          	srai	a5,s5,0x3

0000000080004c14 <i_4672>:
    80004c14:	434e8e9b          	addiw	t4,t4,1076

0000000080004c18 <i_4673>:
    80004c18:	ef012d03          	lw	s10,-272(sp)

0000000080004c1c <i_4674>:
    80004c1c:	1ca11c23          	sh	a0,472(sp)

0000000080004c20 <i_4675>:
    80004c20:	4018581b          	sraiw	a6,a6,0x1

0000000080004c24 <i_4676>:
    80004c24:	09811303          	lh	t1,152(sp)

0000000080004c28 <i_4677>:
    80004c28:	f6014f83          	lbu	t6,-160(sp)

0000000080004c2c <i_4678>:
    80004c2c:	01500e13          	li	t3,21

0000000080004c30 <i_4679>:
    80004c30:	41c85cbb          	sraw	s9,a6,t3

0000000080004c34 <i_4680>:
    80004c34:	7e400813          	li	a6,2020

0000000080004c38 <i_4681>:
    80004c38:	7e600f13          	li	t5,2022

0000000080004c3c <i_4682>:
    80004c3c:	fd416e03          	lwu	t3,-44(sp)

0000000080004c40 <i_4683>:
    80004c40:	17c11423          	sh	t3,360(sp)

0000000080004c44 <i_4684>:
    80004c44:	00180813          	addi	a6,a6,1 # ffffffff86c3e001 <_end+0xffffffff06c2dbed>
    80004c48:	ffe818e3          	bne	a6,t5,80004c38 <i_4681>

0000000080004c4c <i_4685>:
    80004c4c:	7a84c397          	auipc	t2,0x7a84c

0000000080004c50 <i_4686>:
    80004c50:	007ce5b3          	or	a1,s9,t2

0000000080004c54 <i_4687>:
    80004c54:	41958e33          	sub	t3,a1,s9

0000000080004c58 <i_4688>:
    80004c58:	01c5d463          	ble	t3,a1,80004c60 <i_4690>

0000000080004c5c <i_4689>:
    80004c5c:	00500b93          	li	s7,5

0000000080004c60 <i_4690>:
    80004c60:	4173ddbb          	sraw	s11,t2,s7

0000000080004c64 <i_4691>:
    80004c64:	12113023          	sd	ra,288(sp)

0000000080004c68 <i_4692>:
    80004c68:	007be663          	bltu	s7,t2,80004c74 <i_4695>

0000000080004c6c <i_4693>:
    80004c6c:	037b9e33          	mulh	t3,s7,s7

0000000080004c70 <i_4694>:
    80004c70:	19c104a3          	sb	t3,393(sp)

0000000080004c74 <i_4695>:
    80004c74:	fa610183          	lb	gp,-90(sp)

0000000080004c78 <i_4696>:
    80004c78:	033dc263          	blt	s11,s3,80004c9c <i_4705>

0000000080004c7c <i_4697>:
    80004c7c:	61fc8a17          	auipc	s4,0x61fc8

0000000080004c80 <i_4698>:
    80004c80:	01bb4ab3          	xor	s5,s6,s11

0000000080004c84 <i_4699>:
    80004c84:	8e9df813          	andi	a6,s11,-1815

0000000080004c88 <i_4700>:
    80004c88:	eab12423          	sw	a1,-344(sp)

0000000080004c8c <i_4701>:
    80004c8c:	ebc11023          	sh	t3,-352(sp)

0000000080004c90 <i_4702>:
    80004c90:	eb014483          	lbu	s1,-336(sp)

0000000080004c94 <i_4703>:
    80004c94:	014e1e63          	bne	t3,s4,80004cb0 <i_4710>

0000000080004c98 <i_4704>:
    80004c98:	45e053b7          	lui	t2,0x45e05

0000000080004c9c <i_4705>:
    80004c9c:	0075a5b3          	slt	a1,a1,t2

0000000080004ca0 <i_4706>:
    80004ca0:	00b3f663          	bleu	a1,t2,80004cac <i_4709>

0000000080004ca4 <i_4707>:
    80004ca4:	00712623          	sw	t2,12(sp)

0000000080004ca8 <i_4708>:
    80004ca8:	0073a3b3          	slt	t2,t2,t2

0000000080004cac <i_4709>:
    80004cac:	25ed0597          	auipc	a1,0x25ed0

0000000080004cb0 <i_4710>:
    80004cb0:	f7610c83          	lb	s9,-138(sp)

0000000080004cb4 <i_4711>:
    80004cb4:	13412383          	lw	t2,308(sp)

0000000080004cb8 <i_4712>:
    80004cb8:	e2710423          	sb	t2,-472(sp)

0000000080004cbc <i_4713>:
    80004cbc:	e8713c23          	sd	t2,-360(sp)

0000000080004cc0 <i_4714>:
    80004cc0:	087107a3          	sb	t2,143(sp)

0000000080004cc4 <i_4715>:
    80004cc4:	0273d063          	ble	t2,t2,80004ce4 <i_4723>

0000000080004cc8 <i_4716>:
    80004cc8:	12412383          	lw	t2,292(sp)

0000000080004ccc <i_4717>:
    80004ccc:	0075ce63          	blt	a1,t2,80004ce8 <i_4724>

0000000080004cd0 <i_4718>:
    80004cd0:	e3310603          	lb	a2,-461(sp)

0000000080004cd4 <i_4719>:
    80004cd4:	01938c63          	beq	t2,s9,80004cec <i_4725>

0000000080004cd8 <i_4720>:
    80004cd8:	f6211383          	lh	t2,-158(sp)

0000000080004cdc <i_4721>:
    80004cdc:	e4411603          	lh	a2,-444(sp)

0000000080004ce0 <i_4722>:
    80004ce0:	09813383          	ld	t2,152(sp)

0000000080004ce4 <i_4723>:
    80004ce4:	e5813f83          	ld	t6,-424(sp)

0000000080004ce8 <i_4724>:
    80004ce8:	003b5d93          	srli	s11,s6,0x3

0000000080004cec <i_4725>:
    80004cec:	027ccdbb          	divw	s11,s9,t2

0000000080004cf0 <i_4726>:
    80004cf0:	0043df9b          	srliw	t6,t2,0x4

0000000080004cf4 <i_4727>:
    80004cf4:	01900093          	li	ra,25

0000000080004cf8 <i_4728>:
    80004cf8:	001fdfb3          	srl	t6,t6,ra

0000000080004cfc <i_4729>:
    80004cfc:	01f10663          	beq	sp,t6,80004d08 <i_4732>

0000000080004d00 <i_4730>:
    80004d00:	eb013823          	sd	a6,-336(sp)

0000000080004d04 <i_4731>:
    80004d04:	02c16803          	lwu	a6,44(sp)

0000000080004d08 <i_4732>:
    80004d08:	0e112c23          	sw	ra,248(sp)

0000000080004d0c <i_4733>:
    80004d0c:	0300f0b3          	remu	ra,ra,a6

0000000080004d10 <i_4734>:
    80004d10:	79d00813          	li	a6,1949

0000000080004d14 <i_4735>:
    80004d14:	7b000f93          	li	t6,1968

0000000080004d18 <i_4736>:
    80004d18:	01ffe263          	bltu	t6,t6,80004d1c <i_4737>

0000000080004d1c <i_4737>:
    80004d1c:	01feaeb3          	slt	t4,t4,t6

0000000080004d20 <i_4738>:
    80004d20:	f3810503          	lb	a0,-200(sp)

0000000080004d24 <i_4739>:
    80004d24:	01011503          	lh	a0,16(sp)

0000000080004d28 <i_4740>:
    80004d28:	11815c03          	lhu	s8,280(sp)

0000000080004d2c <i_4741>:
    80004d2c:	eaa13823          	sd	a0,-336(sp)

0000000080004d30 <i_4742>:
    80004d30:	00180813          	addi	a6,a6,1
    80004d34:	ff0ff2e3          	bleu	a6,t6,80004d18 <i_4736>

0000000080004d38 <i_4743>:
    80004d38:	0382c0bb          	divw	ra,t0,s8

0000000080004d3c <i_4744>:
    80004d3c:	0f215403          	lhu	s0,242(sp)

0000000080004d40 <i_4745>:
    80004d40:	fd416c83          	lwu	s9,-44(sp)

0000000080004d44 <i_4746>:
    80004d44:	ef215f83          	lhu	t6,-270(sp)

0000000080004d48 <i_4747>:
    80004d48:	019ff663          	bleu	s9,t6,80004d54 <i_4750>

0000000080004d4c <i_4748>:
    80004d4c:	401c0e33          	sub	t3,s8,ra

0000000080004d50 <i_4749>:
    80004d50:	10111a23          	sh	ra,276(sp)

0000000080004d54 <i_4750>:
    80004d54:	00f08cb3          	add	s9,ra,a5

0000000080004d58 <i_4751>:
    80004d58:	06211d83          	lh	s11,98(sp)

0000000080004d5c <i_4752>:
    80004d5c:	01fecc63          	blt	t4,t6,80004d74 <i_4758>

0000000080004d60 <i_4753>:
    80004d60:	09c16c03          	lwu	s8,156(sp)

0000000080004d64 <i_4754>:
    80004d64:	fe215483          	lhu	s1,-30(sp)

0000000080004d68 <i_4755>:
    80004d68:	00d00e93          	li	t4,13

0000000080004d6c <i_4756>:
    80004d6c:	01d517b3          	sll	a5,a0,t4

0000000080004d70 <i_4757>:
    80004d70:	414ece93          	xori	t4,t4,1044

0000000080004d74 <i_4758>:
    80004d74:	0bd13423          	sd	t4,168(sp)

0000000080004d78 <i_4759>:
    80004d78:	03415803          	lhu	a6,52(sp)

0000000080004d7c <i_4760>:
    80004d7c:	16016803          	lwu	a6,352(sp)

0000000080004d80 <i_4761>:
    80004d80:	03d7e463          	bltu	a5,t4,80004da8 <i_4771>

0000000080004d84 <i_4762>:
    80004d84:	01d85263          	ble	t4,a6,80004d88 <i_4763>

0000000080004d88 <i_4763>:
    80004d88:	14c11423          	sh	a2,328(sp)

0000000080004d8c <i_4764>:
    80004d8c:	01300c13          	li	s8,19

0000000080004d90 <i_4765>:
    80004d90:	018651bb          	srlw	gp,a2,s8

0000000080004d94 <i_4766>:
    80004d94:	11813823          	sd	s8,272(sp)

0000000080004d98 <i_4767>:
    80004d98:	00400c13          	li	s8,4

0000000080004d9c <i_4768>:
    80004d9c:	0181dfbb          	srlw	t6,gp,s8

0000000080004da0 <i_4769>:
    80004da0:	01fc4c33          	xor	s8,s8,t6

0000000080004da4 <i_4770>:
    80004da4:	003d5193          	srli	gp,s10,0x3

0000000080004da8 <i_4771>:
    80004da8:	06016a03          	lwu	s4,96(sp)

0000000080004dac <i_4772>:
    80004dac:	018a5c63          	ble	s8,s4,80004dc4 <i_4778>

0000000080004db0 <i_4773>:
    80004db0:	018ade63          	ble	s8,s5,80004dcc <i_4780>

0000000080004db4 <i_4774>:
    80004db4:	0bc15383          	lhu	t2,188(sp)

0000000080004db8 <i_4775>:
    80004db8:	15510c03          	lb	s8,341(sp)

0000000080004dbc <i_4776>:
    80004dbc:	007a6863          	bltu	s4,t2,80004dcc <i_4780>

0000000080004dc0 <i_4777>:
    80004dc0:	fa710023          	sb	t2,-96(sp)

0000000080004dc4 <i_4778>:
    80004dc4:	036e7db3          	remu	s11,t3,s6

0000000080004dc8 <i_4779>:
    80004dc8:	ff813c03          	ld	s8,-8(sp)

0000000080004dcc <i_4780>:
    80004dcc:	04b14583          	lbu	a1,75(sp)

0000000080004dd0 <i_4781>:
    80004dd0:	00edee63          	bltu	s11,a4,80004dec <i_4788>

0000000080004dd4 <i_4782>:
    80004dd4:	01fc5463          	ble	t6,s8,80004ddc <i_4784>

0000000080004dd8 <i_4783>:
    80004dd8:	f5812e23          	sw	s8,-164(sp)

0000000080004ddc <i_4784>:
    80004ddc:	fab11023          	sh	a1,-96(sp)

0000000080004de0 <i_4785>:
    80004de0:	00000013          	nop

0000000080004de4 <i_4786>:
    80004de4:	02b58533          	mul	a0,a1,a1

0000000080004de8 <i_4787>:
    80004de8:	11812503          	lw	a0,280(sp)

0000000080004dec <i_4788>:
    80004dec:	00000013          	nop

0000000080004df0 <i_4789>:
    80004df0:	00000013          	nop

0000000080004df4 <i_4790>:
    80004df4:	80700593          	li	a1,-2041

0000000080004df8 <i_4791>:
    80004df8:	80b00693          	li	a3,-2037

0000000080004dfc <i_4792>:
    80004dfc:	00158593          	addi	a1,a1,1 # a5ed4cad <_end+0x25ec4899>
    80004e00:	fed5cee3          	blt	a1,a3,80004dfc <i_4792>

0000000080004e04 <i_4793>:
    80004e04:	03856463          	bltu	a0,s8,80004e2c <i_4803>

0000000080004e08 <i_4794>:
    80004e08:	0ea10aa3          	sb	a0,245(sp)

0000000080004e0c <i_4795>:
    80004e0c:	e9013e03          	ld	t3,-368(sp)

0000000080004e10 <i_4796>:
    80004e10:	00fc4c63          	blt	s8,a5,80004e28 <i_4802>

0000000080004e14 <i_4797>:
    80004e14:	18314d03          	lbu	s10,387(sp)

0000000080004e18 <i_4798>:
    80004e18:	002e1513          	slli	a0,t3,0x2

0000000080004e1c <i_4799>:
    80004e1c:	f8c15d03          	lhu	s10,-116(sp)

0000000080004e20 <i_4800>:
    80004e20:	02bd6263          	bltu	s10,a1,80004e44 <i_4809>

0000000080004e24 <i_4801>:
    80004e24:	0f514b03          	lbu	s6,245(sp)

0000000080004e28 <i_4802>:
    80004e28:	036616b3          	mulh	a3,a2,s6

0000000080004e2c <i_4803>:
    80004e2c:	f6412803          	lw	a6,-156(sp)

0000000080004e30 <i_4804>:
    80004e30:	e6d13423          	sd	a3,-408(sp)

0000000080004e34 <i_4805>:
    80004e34:	f5012603          	lw	a2,-176(sp)

0000000080004e38 <i_4806>:
    80004e38:	06411723          	sh	tp,110(sp)

0000000080004e3c <i_4807>:
    80004e3c:	e4c12a83          	lw	s5,-436(sp)

0000000080004e40 <i_4808>:
    80004e40:	1cc13c23          	sd	a2,472(sp)

0000000080004e44 <i_4809>:
    80004e44:	17013303          	ld	t1,368(sp)

0000000080004e48 <i_4810>:
    80004e48:	02ce9eb3          	mulh	t4,t4,a2

0000000080004e4c <i_4811>:
    80004e4c:	8a500b13          	li	s6,-1883

0000000080004e50 <i_4812>:
    80004e50:	8ad00693          	li	a3,-1875

0000000080004e54 <i_4813>:
    80004e54:	00000013          	nop

0000000080004e58 <i_4814>:
    80004e58:	0bd12623          	sw	t4,172(sp)

0000000080004e5c <i_4815>:
    80004e5c:	1d612a23          	sw	s6,468(sp)

0000000080004e60 <i_4816>:
    80004e60:	00000013          	nop

0000000080004e64 <i_4817>:
    80004e64:	0ea14d03          	lbu	s10,234(sp)

0000000080004e68 <i_4818>:
    80004e68:	001b0b13          	addi	s6,s6,1
    80004e6c:	fedb64e3          	bltu	s6,a3,80004e54 <i_4813>

0000000080004e70 <i_4819>:
    80004e70:	40dd0ab3          	sub	s5,s10,a3

0000000080004e74 <i_4820>:
    80004e74:	02686063          	bltu	a6,t1,80004e94 <i_4828>

0000000080004e78 <i_4821>:
    80004e78:	01bef263          	bleu	s11,t4,80004e7c <i_4822>

0000000080004e7c <i_4822>:
    80004e7c:	09a12023          	sw	s10,128(sp)

0000000080004e80 <i_4823>:
    80004e80:	eda11783          	lh	a5,-294(sp)

0000000080004e84 <i_4824>:
    80004e84:	03011603          	lh	a2,48(sp)

0000000080004e88 <i_4825>:
    80004e88:	02d7e263          	bltu	a5,a3,80004eac <i_4834>

0000000080004e8c <i_4826>:
    80004e8c:	730b4a93          	xori	s5,s6,1840

0000000080004e90 <i_4827>:
    80004e90:	0157ce63          	blt	a5,s5,80004eac <i_4834>

0000000080004e94 <i_4828>:
    80004e94:	1af12823          	sw	a5,432(sp)

0000000080004e98 <i_4829>:
    80004e98:	f7016583          	lwu	a1,-144(sp)

0000000080004e9c <i_4830>:
    80004e9c:	01900d93          	li	s11,25

0000000080004ea0 <i_4831>:
    80004ea0:	01bad1b3          	srl	gp,s5,s11

0000000080004ea4 <i_4832>:
    80004ea4:	e7013c03          	ld	s8,-400(sp)

0000000080004ea8 <i_4833>:
    80004ea8:	0a013f83          	ld	t6,160(sp)

0000000080004eac <i_4834>:
    80004eac:	02b100a3          	sb	a1,33(sp)

0000000080004eb0 <i_4835>:
    80004eb0:	027af93b          	remuw	s2,s5,t2

0000000080004eb4 <i_4836>:
    80004eb4:	19f11e23          	sh	t6,412(sp)

0000000080004eb8 <i_4837>:
    80004eb8:	f4e11f03          	lh	t5,-178(sp)

0000000080004ebc <i_4838>:
    80004ebc:	00dfec63          	bltu	t6,a3,80004ed4 <i_4844>

0000000080004ec0 <i_4839>:
    80004ec0:	0cc11c03          	lh	s8,204(sp)

0000000080004ec4 <i_4840>:
    80004ec4:	f4e14f83          	lbu	t6,-178(sp)

0000000080004ec8 <i_4841>:
    80004ec8:	023c6063          	bltu	s8,gp,80004ee8 <i_4849>

0000000080004ecc <i_4842>:
    80004ecc:	e4416a03          	lwu	s4,-444(sp)

0000000080004ed0 <i_4843>:
    80004ed0:	00000013          	nop

0000000080004ed4 <i_4844>:
    80004ed4:	1b310b83          	lb	s7,435(sp)

0000000080004ed8 <i_4845>:
    80004ed8:	f7412a23          	sw	s4,-140(sp)

0000000080004edc <i_4846>:
    80004edc:	0e013a03          	ld	s4,224(sp)

0000000080004ee0 <i_4847>:
    80004ee0:	00000013          	nop

0000000080004ee4 <i_4848>:
    80004ee4:	00000013          	nop

0000000080004ee8 <i_4849>:
    80004ee8:	10412e83          	lw	t4,260(sp)

0000000080004eec <i_4850>:
    80004eec:	00000013          	nop

0000000080004ef0 <i_4851>:
    80004ef0:	79700693          	li	a3,1943

0000000080004ef4 <i_4852>:
    80004ef4:	7a000c13          	li	s8,1952

0000000080004ef8 <i_4853>:
    80004ef8:	ed710b23          	sb	s7,-298(sp)

0000000080004efc <i_4854>:
    80004efc:	039ef263          	bleu	s9,t4,80004f20 <i_4862>

0000000080004f00 <i_4855>:
    80004f00:	03400e93          	li	t4,52

0000000080004f04 <i_4856>:
    80004f04:	41ded833          	sra	a6,t4,t4

0000000080004f08 <i_4857>:
    80004f08:	00168693          	addi	a3,a3,1 # 8cb81831 <_end+0xcb7141d>
    80004f0c:	ff86c6e3          	blt	a3,s8,80004ef8 <i_4853>

0000000080004f10 <i_4858>:
    80004f10:	01db9863          	bne	s7,t4,80004f20 <i_4862>

0000000080004f14 <i_4859>:
    80004f14:	01011d23          	sh	a6,26(sp)

0000000080004f18 <i_4860>:
    80004f18:	16813b83          	ld	s7,360(sp)

0000000080004f1c <i_4861>:
    80004f1c:	0c614c83          	lbu	s9,198(sp)

0000000080004f20 <i_4862>:
    80004f20:	17d12823          	sw	t4,368(sp)

0000000080004f24 <i_4863>:
    80004f24:	0c110f23          	sb	ra,222(sp)

0000000080004f28 <i_4864>:
    80004f28:	7df00f13          	li	t5,2015

0000000080004f2c <i_4865>:
    80004f2c:	7f100813          	li	a6,2033

0000000080004f30 <i_4866>:
    80004f30:	07c16b83          	lwu	s7,124(sp)

0000000080004f34 <i_4867>:
    80004f34:	001f0f13          	addi	t5,t5,1
    80004f38:	ff0f6ce3          	bltu	t5,a6,80004f30 <i_4866>

0000000080004f3c <i_4868>:
    80004f3c:	039cf463          	bleu	s9,s9,80004f64 <i_4878>

0000000080004f40 <i_4869>:
    80004f40:	03dbf263          	bleu	t4,s7,80004f64 <i_4878>

0000000080004f44 <i_4870>:
    80004f44:	0dd12223          	sw	t4,196(sp)

0000000080004f48 <i_4871>:
    80004f48:	03dcbeb3          	mulhu	t4,s9,t4

0000000080004f4c <i_4872>:
    80004f4c:	06a11b83          	lh	s7,106(sp)

0000000080004f50 <i_4873>:
    80004f50:	017edc63          	ble	s7,t4,80004f68 <i_4879>

0000000080004f54 <i_4874>:
    80004f54:	00cebbb3          	sltu	s7,t4,a2

0000000080004f58 <i_4875>:
    80004f58:	037bd063          	ble	s7,s7,80004f78 <i_4883>

0000000080004f5c <i_4876>:
    80004f5c:	e8812b83          	lw	s7,-376(sp)

0000000080004f60 <i_4877>:
    80004f60:	e9d13423          	sd	t4,-376(sp)

0000000080004f64 <i_4878>:
    80004f64:	1e015a83          	lhu	s5,480(sp)

0000000080004f68 <i_4879>:
    80004f68:	08a10d23          	sb	a0,154(sp)

0000000080004f6c <i_4880>:
    80004f6c:	003f9a63          	bne	t6,gp,80004f80 <i_4885>

0000000080004f70 <i_4881>:
    80004f70:	017ec463          	blt	t4,s7,80004f78 <i_4883>

0000000080004f74 <i_4882>:
    80004f74:	01dbf4b3          	and	s1,s7,t4

0000000080004f78 <i_4883>:
    80004f78:	029afeb3          	remu	t4,s5,s1

0000000080004f7c <i_4884>:
    80004f7c:	01d14e83          	lbu	t4,29(sp)

0000000080004f80 <i_4885>:
    80004f80:	e2215a83          	lhu	s5,-478(sp)

0000000080004f84 <i_4886>:
    80004f84:	015acc63          	blt	s5,s5,80004f9c <i_4892>

0000000080004f88 <i_4887>:
    80004f88:	f0c16b83          	lwu	s7,-244(sp)

0000000080004f8c <i_4888>:
    80004f8c:	15a11b83          	lh	s7,346(sp)

0000000080004f90 <i_4889>:
    80004f90:	00349a9b          	slliw	s5,s1,0x3

0000000080004f94 <i_4890>:
    80004f94:	f5416503          	lwu	a0,-172(sp)

0000000080004f98 <i_4891>:
    80004f98:	0dd13823          	sd	t4,208(sp)

0000000080004f9c <i_4892>:
    80004f9c:	415a8fbb          	subw	t6,s5,s5

0000000080004fa0 <i_4893>:
    80004fa0:	4974ce93          	xori	t4,s1,1175

0000000080004fa4 <i_4894>:
    80004fa4:	eb513c23          	sd	s5,-328(sp)

0000000080004fa8 <i_4895>:
    80004fa8:	003adb93          	srli	s7,s5,0x3

0000000080004fac <i_4896>:
    80004fac:	04e15903          	lhu	s2,78(sp)

0000000080004fb0 <i_4897>:
    80004fb0:	032ae463          	bltu	s5,s2,80004fd8 <i_4907>

0000000080004fb4 <i_4898>:
    80004fb4:	00a00513          	li	a0,10

0000000080004fb8 <i_4899>:
    80004fb8:	40adddbb          	sraw	s11,s11,a0

0000000080004fbc <i_4900>:
    80004fbc:	01f41c63          	bne	s0,t6,80004fd4 <i_4906>

0000000080004fc0 <i_4901>:
    80004fc0:	00cfa633          	slt	a2,t6,a2

0000000080004fc4 <i_4902>:
    80004fc4:	00000013          	nop

0000000080004fc8 <i_4903>:
    80004fc8:	03f12023          	sw	t6,32(sp)

0000000080004fcc <i_4904>:
    80004fcc:	f9211323          	sh	s2,-122(sp)

0000000080004fd0 <i_4905>:
    80004fd0:	f3f10fa3          	sb	t6,-193(sp)

0000000080004fd4 <i_4906>:
    80004fd4:	00000013          	nop

0000000080004fd8 <i_4907>:
    80004fd8:	feb11423          	sh	a1,-24(sp)

0000000080004fdc <i_4908>:
    80004fdc:	00000013          	nop

0000000080004fe0 <i_4909>:
    80004fe0:	73700913          	li	s2,1847

0000000080004fe4 <i_4910>:
    80004fe4:	73d00593          	li	a1,1853

0000000080004fe8 <i_4911>:
    80004fe8:	14b11523          	sh	a1,330(sp)

0000000080004fec <i_4912>:
    80004fec:	07416f83          	lwu	t6,116(sp)

0000000080004ff0 <i_4913>:
    80004ff0:	00b58463          	beq	a1,a1,80004ff8 <i_4915>

0000000080004ff4 <i_4914>:
    80004ff4:	00000013          	nop

0000000080004ff8 <i_4915>:
    80004ff8:	02b5e6bb          	remw	a3,a1,a1

0000000080004ffc <i_4916>:
    80004ffc:	00c4cc63          	blt	s1,a2,80005014 <i_4921>

0000000080005000 <i_4917>:
    80005000:	fc164613          	xori	a2,a2,-63

0000000080005004 <i_4918>:
    80005004:	00190913          	addi	s2,s2,1
    80005008:	feb910e3          	bne	s2,a1,80004fe8 <i_4911>

000000008000500c <i_4919>:
    8000500c:	00000013          	nop

0000000080005010 <i_4920>:
    80005010:	03fb0b3b          	mulw	s6,s6,t6

0000000080005014 <i_4921>:
    80005014:	00012a03          	lw	s4,0(sp)

0000000080005018 <i_4922>:
    80005018:	03f6023b          	mulw	tp,a2,t6

000000008000501c <i_4923>:
    8000501c:	01ffea63          	bltu	t6,t6,80005030 <i_4928>

0000000080005020 <i_4924>:
    80005020:	0da11c83          	lh	s9,218(sp)

0000000080005024 <i_4925>:
    80005024:	00721fb7          	lui	t6,0x721

0000000080005028 <i_4926>:
    80005028:	fee15f83          	lhu	t6,-18(sp)

000000008000502c <i_4927>:
    8000502c:	04810c83          	lb	s9,72(sp)

0000000080005030 <i_4928>:
    80005030:	019c8c63          	beq	s9,s9,80005048 <i_4934>

0000000080005034 <i_4929>:
    80005034:	e5c16f03          	lwu	t5,-420(sp)

0000000080005038 <i_4930>:
    80005038:	01ff0863          	beq	t5,t6,80005048 <i_4934>

000000008000503c <i_4931>:
    8000503c:	10416a03          	lwu	s4,260(sp)

0000000080005040 <i_4932>:
    80005040:	159102a3          	sb	s9,325(sp)

0000000080005044 <i_4933>:
    80005044:	e4014483          	lbu	s1,-448(sp)

0000000080005048 <i_4934>:
    80005048:	13412b03          	lw	s6,308(sp)

000000008000504c <i_4935>:
    8000504c:	fa215c83          	lhu	s9,-94(sp)

0000000080005050 <i_4936>:
    80005050:	0369e933          	rem	s2,s3,s6

0000000080005054 <i_4937>:
    80005054:	40495f9b          	sraiw	t6,s2,0x4

0000000080005058 <i_4938>:
    80005058:	00495a1b          	srliw	s4,s2,0x4

000000008000505c <i_4939>:
    8000505c:	83800193          	li	gp,-1992

0000000080005060 <i_4940>:
    80005060:	84200493          	li	s1,-1982

0000000080005064 <i_4941>:
    80005064:	188800b7          	lui	ra,0x18880

0000000080005068 <i_4942>:
    80005068:	00000013          	nop

000000008000506c <i_4943>:
    8000506c:	00118193          	addi	gp,gp,1 # 3609f45d <main-0x49f60ba3>
    80005070:	fe91cae3          	blt	gp,s1,80005064 <i_4941>

0000000080005074 <i_4944>:
    80005074:	0029d59b          	srliw	a1,s3,0x2

0000000080005078 <i_4945>:
    80005078:	018b5c63          	ble	s8,s6,80005090 <i_4951>

000000008000507c <i_4946>:
    8000507c:	e6912023          	sw	s1,-416(sp)

0000000080005080 <i_4947>:
    80005080:	01270463          	beq	a4,s2,80005088 <i_4949>

0000000080005084 <i_4948>:
    80005084:	01700b93          	li	s7,23

0000000080005088 <i_4949>:
    80005088:	017c90bb          	sllw	ra,s9,s7

000000008000508c <i_4950>:
    8000508c:	f2416483          	lwu	s1,-220(sp)

0000000080005090 <i_4951>:
    80005090:	0294c063          	blt	s1,s1,800050b0 <i_4959>

0000000080005094 <i_4952>:
    80005094:	016d5a63          	ble	s6,s10,800050a8 <i_4957>

0000000080005098 <i_4953>:
    80005098:	fd711023          	sh	s7,-64(sp)

000000008000509c <i_4954>:
    8000509c:	00000013          	nop

00000000800050a0 <i_4955>:
    800050a0:	efd10303          	lb	t1,-259(sp)

00000000800050a4 <i_4956>:
    800050a4:	13a2bc37          	lui	s8,0x13a2b

00000000800050a8 <i_4957>:
    800050a8:	e8610c03          	lb	s8,-378(sp)

00000000800050ac <i_4958>:
    800050ac:	f0813803          	ld	a6,-248(sp)

00000000800050b0 <i_4959>:
    800050b0:	e4612623          	sw	t1,-436(sp)

00000000800050b4 <i_4960>:
    800050b4:	e4211803          	lh	a6,-446(sp)

00000000800050b8 <i_4961>:
    800050b8:	88a00593          	li	a1,-1910

00000000800050bc <i_4962>:
    800050bc:	88e00493          	li	s1,-1906

00000000800050c0 <i_4963>:
    800050c0:	0377e83b          	remw	a6,a5,s7

00000000800050c4 <i_4964>:
    800050c4:	09215d03          	lhu	s10,146(sp)

00000000800050c8 <i_4965>:
    800050c8:	00158593          	addi	a1,a1,1
    800050cc:	feb4dae3          	ble	a1,s1,800050c0 <i_4963>

00000000800050d0 <i_4966>:
    800050d0:	037d0bb3          	mul	s7,s10,s7

00000000800050d4 <i_4967>:
    800050d4:	017c45b3          	xor	a1,s8,s7

00000000800050d8 <i_4968>:
    800050d8:	0d810423          	sb	s8,200(sp)

00000000800050dc <i_4969>:
    800050dc:	018c4c33          	xor	s8,s8,s8

00000000800050e0 <i_4970>:
    800050e0:	0b011b23          	sh	a6,182(sp)

00000000800050e4 <i_4971>:
    800050e4:	022bcc3b          	divw	s8,s7,sp

00000000800050e8 <i_4972>:
    800050e8:	19a10423          	sb	s10,392(sp)

00000000800050ec <i_4973>:
    800050ec:	19016583          	lwu	a1,400(sp)

00000000800050f0 <i_4974>:
    800050f0:	017d0c63          	beq	s10,s7,80005108 <i_4980>

00000000800050f4 <i_4975>:
    800050f4:	01011303          	lh	t1,16(sp)

00000000800050f8 <i_4976>:
    800050f8:	41058833          	sub	a6,a1,a6

00000000800050fc <i_4977>:
    800050fc:	e3810c03          	lb	s8,-456(sp)

0000000080005100 <i_4978>:
    80005100:	03032833          	mulhsu	a6,t1,a6

0000000080005104 <i_4979>:
    80005104:	01000f13          	li	t5,16

0000000080005108 <i_4980>:
    80005108:	01e8553b          	srlw	a0,a6,t5

000000008000510c <i_4981>:
    8000510c:	e7211583          	lh	a1,-398(sp)

0000000080005110 <i_4982>:
    80005110:	003f1e1b          	slliw	t3,t5,0x3

0000000080005114 <i_4983>:
    80005114:	1d813e03          	ld	t3,472(sp)

0000000080005118 <i_4984>:
    80005118:	02c15383          	lhu	t2,44(sp)

000000008000511c <i_4985>:
    8000511c:	4046de1b          	sraiw	t3,a3,0x4

0000000080005120 <i_4986>:
    80005120:	41ce0a3b          	subw	s4,t3,t3

0000000080005124 <i_4987>:
    80005124:	00419b93          	slli	s7,gp,0x4

0000000080005128 <i_4988>:
    80005128:	00ea79b3          	and	s3,s4,a4

000000008000512c <i_4989>:
    8000512c:	ef011c83          	lh	s9,-272(sp)

0000000080005130 <i_4990>:
    80005130:	402cd59b          	sraiw	a1,s9,0x2

0000000080005134 <i_4991>:
    80005134:	01800c93          	li	s9,24

0000000080005138 <i_4992>:
    80005138:	0195dab3          	srl	s5,a1,s9

000000008000513c <i_4993>:
    8000513c:	1c813a83          	ld	s5,456(sp)

0000000080005140 <i_4994>:
    80005140:	1abcec93          	ori	s9,s9,427

0000000080005144 <i_4995>:
    80005144:	039c8dbb          	mulw	s11,s9,s9

0000000080005148 <i_4996>:
    80005148:	01b20e63          	beq	tp,s11,80005164 <i_5003>

000000008000514c <i_4997>:
    8000514c:	f5416503          	lwu	a0,-172(sp)

0000000080005150 <i_4998>:
    80005150:	015cec63          	bltu	s9,s5,80005168 <i_5004>

0000000080005154 <i_4999>:
    80005154:	007cf663          	bleu	t2,s9,80005160 <i_5002>

0000000080005158 <i_5000>:
    80005158:	03531833          	mulh	a6,t1,s5

000000008000515c <i_5001>:
    8000515c:	fe815503          	lhu	a0,-24(sp)

0000000080005160 <i_5002>:
    80005160:	01a00393          	li	t2,26

0000000080005164 <i_5003>:
    80005164:	407853bb          	sraw	t2,a6,t2

0000000080005168 <i_5004>:
    80005168:	007383b3          	add	t2,t2,t2

000000008000516c <i_5005>:
    8000516c:	0c712223          	sw	t2,196(sp)

0000000080005170 <i_5006>:
    80005170:	02a0d0b3          	divu	ra,ra,a0

0000000080005174 <i_5007>:
    80005174:	0d610483          	lb	s1,214(sp)

0000000080005178 <i_5008>:
    80005178:	00a80863          	beq	a6,a0,80005188 <i_5012>

000000008000517c <i_5009>:
    8000517c:	f2714083          	lbu	ra,-217(sp)

0000000080005180 <i_5010>:
    80005180:	1a912223          	sw	s1,420(sp)

0000000080005184 <i_5011>:
    80005184:	409f86bb          	subw	a3,t6,s1

0000000080005188 <i_5012>:
    80005188:	00000013          	nop

000000008000518c <i_5013>:
    8000518c:	1e64c093          	xori	ra,s1,486

0000000080005190 <i_5014>:
    80005190:	82b00813          	li	a6,-2005

0000000080005194 <i_5015>:
    80005194:	83500493          	li	s1,-1995

0000000080005198 <i_5016>:
    80005198:	030826b3          	mulhsu	a3,a6,a6

000000008000519c <i_5017>:
    8000519c:	aca40697          	auipc	a3,0xaca40

00000000800051a0 <i_5018>:
    800051a0:	00980263          	beq	a6,s1,800051a4 <i_5019>

00000000800051a4 <i_5019>:
    800051a4:	fb812403          	lw	s0,-72(sp)

00000000800051a8 <i_5020>:
    800051a8:	00251313          	slli	t1,a0,0x2

00000000800051ac <i_5021>:
    800051ac:	0294863b          	mulw	a2,s1,s1

00000000800051b0 <i_5022>:
    800051b0:	00000013          	nop

00000000800051b4 <i_5023>:
    800051b4:	41a3053b          	subw	a0,t1,s10

00000000800051b8 <i_5024>:
    800051b8:	19813983          	ld	s3,408(sp)

00000000800051bc <i_5025>:
    800051bc:	ff513823          	sd	s5,-16(sp)

00000000800051c0 <i_5026>:
    800051c0:	f0610c23          	sb	t1,-232(sp)

00000000800051c4 <i_5027>:
    800051c4:	18c15d03          	lhu	s10,396(sp)

00000000800051c8 <i_5028>:
    800051c8:	00000013          	nop

00000000800051cc <i_5029>:
    800051cc:	01a12623          	sw	s10,12(sp)

00000000800051d0 <i_5030>:
    800051d0:	00180813          	addi	a6,a6,1
    800051d4:	fd04f2e3          	bleu	a6,s1,80005198 <i_5016>

00000000800051d8 <i_5031>:
    800051d8:	faf14783          	lbu	a5,-81(sp)

00000000800051dc <i_5032>:
    800051dc:	194109a3          	sb	s4,403(sp)

00000000800051e0 <i_5033>:
    800051e0:	ed510783          	lb	a5,-299(sp)

00000000800051e4 <i_5034>:
    800051e4:	19812d03          	lw	s10,408(sp)

00000000800051e8 <i_5035>:
    800051e8:	00f7f663          	bleu	a5,a5,800051f4 <i_5038>

00000000800051ec <i_5036>:
    800051ec:	01812783          	lw	a5,24(sp)

00000000800051f0 <i_5037>:
    800051f0:	e2412503          	lw	a0,-476(sp)

00000000800051f4 <i_5038>:
    800051f4:	f5614783          	lbu	a5,-170(sp)

00000000800051f8 <i_5039>:
    800051f8:	e2710f03          	lb	t5,-473(sp)

00000000800051fc <i_5040>:
    800051fc:	b48a079b          	addiw	a5,s4,-1208

0000000080005200 <i_5041>:
    80005200:	03900793          	li	a5,57

0000000080005204 <i_5042>:
    80005204:	00ff1f33          	sll	t5,t5,a5

0000000080005208 <i_5043>:
    80005208:	12015683          	lhu	a3,288(sp)

000000008000520c <i_5044>:
    8000520c:	00f78f33          	add	t5,a5,a5

0000000080005210 <i_5045>:
    80005210:	01d00693          	li	a3,29

0000000080005214 <i_5046>:
    80005214:	00d696bb          	sllw	a3,a3,a3

0000000080005218 <i_5047>:
    80005218:	ede12423          	sw	t5,-312(sp)

000000008000521c <i_5048>:
    8000521c:	40dc0c3b          	subw	s8,s8,a3

0000000080005220 <i_5049>:
    80005220:	ffe10fa3          	sb	t5,-1(sp)

0000000080005224 <i_5050>:
    80005224:	07c11783          	lh	a5,124(sp)

0000000080005228 <i_5051>:
    80005228:	00d6d463          	ble	a3,a3,80005230 <i_5053>

000000008000522c <i_5052>:
    8000522c:	01900a93          	li	s5,25

0000000080005230 <i_5053>:
    80005230:	4157d0bb          	sraw	ra,a5,s5

0000000080005234 <i_5054>:
    80005234:	e9412e83          	lw	t4,-364(sp)

0000000080005238 <i_5055>:
    80005238:	403d5293          	srai	t0,s10,0x3

000000008000523c <i_5056>:
    8000523c:	01213423          	sd	s2,8(sp)

0000000080005240 <i_5057>:
    80005240:	11410803          	lb	a6,276(sp)

0000000080005244 <i_5058>:
    80005244:	02f867bb          	remw	a5,a6,a5

0000000080005248 <i_5059>:
    80005248:	14514f03          	lbu	t5,325(sp)

000000008000524c <i_5060>:
    8000524c:	0d615283          	lhu	t0,214(sp)

0000000080005250 <i_5061>:
    80005250:	eec12503          	lw	a0,-276(sp)

0000000080005254 <i_5062>:
    80005254:	350a3593          	sltiu	a1,s4,848

0000000080005258 <i_5063>:
    80005258:	fd014d03          	lbu	s10,-48(sp)

000000008000525c <i_5064>:
    8000525c:	01000a13          	li	s4,16

0000000080005260 <i_5065>:
    80005260:	014815bb          	sllw	a1,a6,s4

0000000080005264 <i_5066>:
    80005264:	7ca00193          	li	gp,1994

0000000080005268 <i_5067>:
    80005268:	7d000813          	li	a6,2000

000000008000526c <i_5068>:
    8000526c:	00118193          	addi	gp,gp,1
    80005270:	ff01cce3          	blt	gp,a6,80005268 <i_5067>

0000000080005274 <i_5069>:
    80005274:	f0b12223          	sw	a1,-252(sp)

0000000080005278 <i_5070>:
    80005278:	034a3e33          	mulhu	t3,s4,s4

000000008000527c <i_5071>:
    8000527c:	f9410aa3          	sb	s4,-107(sp)

0000000080005280 <i_5072>:
    80005280:	a64d6a13          	ori	s4,s10,-1436

0000000080005284 <i_5073>:
    80005284:	eb412a23          	sw	s4,-332(sp)

0000000080005288 <i_5074>:
    80005288:	eb815803          	lhu	a6,-328(sp)

000000008000528c <i_5075>:
    8000528c:	00000013          	nop

0000000080005290 <i_5076>:
    80005290:	73600a13          	li	s4,1846

0000000080005294 <i_5077>:
    80005294:	74300f93          	li	t6,1859

0000000080005298 <i_5078>:
    80005298:	03446f3b          	remw	t5,s0,s4

000000008000529c <i_5079>:
    8000529c:	b6b83813          	sltiu	a6,a6,-1173

00000000800052a0 <i_5080>:
    800052a0:	89300413          	li	s0,-1901

00000000800052a4 <i_5081>:
    800052a4:	89800393          	li	t2,-1896

00000000800052a8 <i_5082>:
    800052a8:	030fc263          	blt	t6,a6,800052cc <i_5090>

00000000800052ac <i_5083>:
    800052ac:	030386b3          	mul	a3,t2,a6

00000000800052b0 <i_5084>:
    800052b0:	01c86e63          	bltu	a6,t3,800052cc <i_5090>

00000000800052b4 <i_5085>:
    800052b4:	02d83833          	mulhu	a6,a6,a3

00000000800052b8 <i_5086>:
    800052b8:	00140413          	addi	s0,s0,1
    800052bc:	fe7416e3          	bne	s0,t2,800052a8 <i_5082>

00000000800052c0 <i_5087>:
    800052c0:	00d6b6b3          	sltu	a3,a3,a3

00000000800052c4 <i_5088>:
    800052c4:	00000013          	nop

00000000800052c8 <i_5089>:
    800052c8:	a701f693          	andi	a3,gp,-1424

00000000800052cc <i_5090>:
    800052cc:	03068bbb          	mulw	s7,a3,a6

00000000800052d0 <i_5091>:
    800052d0:	98ba9537          	lui	a0,0x98ba9

00000000800052d4 <i_5092>:
    800052d4:	001a0a13          	addi	s4,s4,1 # e1fccc7d <_end+0x61fbc869>
    800052d8:	fdfa10e3          	bne	s4,t6,80005298 <i_5078>

00000000800052dc <i_5093>:
    800052dc:	00000013          	nop

00000000800052e0 <i_5094>:
    800052e0:	00a69663          	bne	a3,a0,800052ec <i_5097>

00000000800052e4 <i_5095>:
    800052e4:	01b00393          	li	t2,27

00000000800052e8 <i_5096>:
    800052e8:	4076d33b          	sraw	t1,a3,t2

00000000800052ec <i_5097>:
    800052ec:	4032dd1b          	sraiw	s10,t0,0x3

00000000800052f0 <i_5098>:
    800052f0:	027d52b3          	divu	t0,s10,t2

00000000800052f4 <i_5099>:
    800052f4:	8a000513          	li	a0,-1888

00000000800052f8 <i_5100>:
    800052f8:	8b100693          	li	a3,-1871

00000000800052fc <i_5101>:
    800052fc:	00150513          	addi	a0,a0,1 # ffffffff98ba9001 <_end+0xffffffff18b98bed>
    80005300:	fea6dee3          	ble	a0,a3,800052fc <i_5101>

0000000080005304 <i_5102>:
    80005304:	01b28863          	beq	t0,s11,80005314 <i_5106>

0000000080005308 <i_5103>:
    80005308:	01bd2db3          	slt	s11,s10,s11

000000008000530c <i_5104>:
    8000530c:	05b12e23          	sw	s11,92(sp)

0000000080005310 <i_5105>:
    80005310:	01bdf463          	bleu	s11,s11,80005318 <i_5107>

0000000080005314 <i_5106>:
    80005314:	eb813423          	sd	s8,-344(sp)

0000000080005318 <i_5107>:
    80005318:	01ad4c63          	blt	s10,s10,80005330 <i_5113>

000000008000531c <i_5108>:
    8000531c:	00429d1b          	slliw	s10,t0,0x4

0000000080005320 <i_5109>:
    80005320:	01b28a63          	beq	t0,s11,80005334 <i_5114>

0000000080005324 <i_5110>:
    80005324:	efe14c03          	lbu	s8,-258(sp)

0000000080005328 <i_5111>:
    80005328:	00000013          	nop

000000008000532c <i_5112>:
    8000532c:	e3011f83          	lh	t6,-464(sp)

0000000080005330 <i_5113>:
    80005330:	00000013          	nop

0000000080005334 <i_5114>:
    80005334:	ea110d83          	lb	s11,-351(sp)

0000000080005338 <i_5115>:
    80005338:	17812e23          	sw	s8,380(sp)

000000008000533c <i_5116>:
    8000533c:	88500813          	li	a6,-1915

0000000080005340 <i_5117>:
    80005340:	88a00213          	li	tp,-1910

0000000080005344 <i_5118>:
    80005344:	017a86b3          	add	a3,s5,s7

0000000080005348 <i_5119>:
    80005348:	00180813          	addi	a6,a6,1
    8000534c:	fe486ce3          	bltu	a6,tp,80005344 <i_5118>

0000000080005350 <i_5120>:
    80005350:	00429a1b          	slliw	s4,t0,0x4

0000000080005354 <i_5121>:
    80005354:	e1c15503          	lhu	a0,-484(sp)

0000000080005358 <i_5122>:
    80005358:	08413c23          	sd	tp,152(sp)

000000008000535c <i_5123>:
    8000535c:	14511c23          	sh	t0,344(sp)

0000000080005360 <i_5124>:
    80005360:	004fd663          	ble	tp,t6,8000536c <i_5127>

0000000080005364 <i_5125>:
    80005364:	06310b03          	lb	s6,99(sp)

0000000080005368 <i_5126>:
    80005368:	09813a03          	ld	s4,152(sp)

000000008000536c <i_5127>:
    8000536c:	02412d03          	lw	s10,36(sp)

0000000080005370 <i_5128>:
    80005370:	14d10223          	sb	a3,324(sp)

0000000080005374 <i_5129>:
    80005374:	016b1a63          	bne	s6,s6,80005388 <i_5134>

0000000080005378 <i_5130>:
    80005378:	038b47b3          	div	a5,s6,s8

000000008000537c <i_5131>:
    8000537c:	015b4463          	blt	s6,s5,80005384 <i_5133>

0000000080005380 <i_5132>:
    80005380:	0a311423          	sh	gp,168(sp)

0000000080005384 <i_5133>:
    80005384:	0c013c83          	ld	s9,192(sp)

0000000080005388 <i_5134>:
    80005388:	0317aa33          	mulhsu	s4,a5,a7

000000008000538c <i_5135>:
    8000538c:	14812b03          	lw	s6,328(sp)

0000000080005390 <i_5136>:
    80005390:	1e611a83          	lh	s5,486(sp)

0000000080005394 <i_5137>:
    80005394:	85500c13          	li	s8,-1963

0000000080005398 <i_5138>:
    80005398:	85700813          	li	a6,-1961

000000008000539c <i_5139>:
    8000539c:	015867b3          	or	a5,a6,s5

00000000800053a0 <i_5140>:
    800053a0:	ee411a83          	lh	s5,-284(sp)

00000000800053a4 <i_5141>:
    800053a4:	8a100b13          	li	s6,-1887

00000000800053a8 <i_5142>:
    800053a8:	8a900c93          	li	s9,-1879

00000000800053ac <i_5143>:
    800053ac:	00179793          	slli	a5,a5,0x1

00000000800053b0 <i_5144>:
    800053b0:	02500593          	li	a1,37

00000000800053b4 <i_5145>:
    800053b4:	00b797b3          	sll	a5,a5,a1

00000000800053b8 <i_5146>:
    800053b8:	001b0b13          	addi	s6,s6,1
    800053bc:	ff6cd8e3          	ble	s6,s9,800053ac <i_5143>

00000000800053c0 <i_5147>:
    800053c0:	00000013          	nop

00000000800053c4 <i_5148>:
    800053c4:	01c16583          	lwu	a1,28(sp)

00000000800053c8 <i_5149>:
    800053c8:	001c0c13          	addi	s8,s8,1 # 13a2b001 <main-0x6c5d4fff>
    800053cc:	fd8878e3          	bleu	s8,a6,8000539c <i_5139>

00000000800053d0 <i_5150>:
    800053d0:	00b5ea63          	bltu	a1,a1,800053e4 <i_5155>

00000000800053d4 <i_5151>:
    800053d4:	40a785bb          	subw	a1,a5,a0

00000000800053d8 <i_5152>:
    800053d8:	ff412283          	lw	t0,-12(sp)

00000000800053dc <i_5153>:
    800053dc:	01659863          	bne	a1,s6,800053ec <i_5157>

00000000800053e0 <i_5154>:
    800053e0:	17e10203          	lb	tp,382(sp)

00000000800053e4 <i_5155>:
    800053e4:	01400593          	li	a1,20

00000000800053e8 <i_5156>:
    800053e8:	00b2d1b3          	srl	gp,t0,a1

00000000800053ec <i_5157>:
    800053ec:	025512b3          	mulh	t0,a0,t0

00000000800053f0 <i_5158>:
    800053f0:	fea11283          	lh	t0,-22(sp)

00000000800053f4 <i_5159>:
    800053f4:	ee511323          	sh	t0,-282(sp)

00000000800053f8 <i_5160>:
    800053f8:	01800293          	li	t0,24

00000000800053fc <i_5161>:
    800053fc:	4055d2bb          	sraw	t0,a1,t0

0000000080005400 <i_5162>:
    80005400:	00229c63          	bne	t0,sp,80005418 <i_5168>

0000000080005404 <i_5163>:
    80005404:	05d2b393          	sltiu	t2,t0,93

0000000080005408 <i_5164>:
    80005408:	005df863          	bleu	t0,s11,80005418 <i_5168>

000000008000540c <i_5165>:
    8000540c:	40728cb3          	sub	s9,t0,t2

0000000080005410 <i_5166>:
    80005410:	02587263          	bleu	t0,a6,80005434 <i_5175>

0000000080005414 <i_5167>:
    80005414:	69b28293          	addi	t0,t0,1691

0000000080005418 <i_5168>:
    80005418:	4e02e513          	ori	a0,t0,1248

000000008000541c <i_5169>:
    8000541c:	ee712623          	sw	t2,-276(sp)

0000000080005420 <i_5170>:
    80005420:	00000013          	nop

0000000080005424 <i_5171>:
    80005424:	ea813283          	ld	t0,-344(sp)

0000000080005428 <i_5172>:
    80005428:	00185f9b          	srliw	t6,a6,0x1

000000008000542c <i_5173>:
    8000542c:	f3c16683          	lwu	a3,-196(sp)

0000000080005430 <i_5174>:
    80005430:	00000013          	nop

0000000080005434 <i_5175>:
    80005434:	001b5f9b          	srliw	t6,s6,0x1

0000000080005438 <i_5176>:
    80005438:	eec12b03          	lw	s6,-276(sp)

000000008000543c <i_5177>:
    8000543c:	8ad00813          	li	a6,-1875

0000000080005440 <i_5178>:
    80005440:	8b300393          	li	t2,-1869

0000000080005444 <i_5179>:
    80005444:	defda6b7          	lui	a3,0xdefda

0000000080005448 <i_5180>:
    80005448:	404f5b1b          	sraiw	s6,t5,0x4

000000008000544c <i_5181>:
    8000544c:	00180813          	addi	a6,a6,1
    80005450:	fe781ae3          	bne	a6,t2,80005444 <i_5179>

0000000080005454 <i_5182>:
    80005454:	e5f11823          	sh	t6,-432(sp)

0000000080005458 <i_5183>:
    80005458:	01ffec63          	bltu	t6,t6,80005470 <i_5189>

000000008000545c <i_5184>:
    8000545c:	17c11f03          	lh	t5,380(sp)

0000000080005460 <i_5185>:
    80005460:	41ef0f3b          	subw	t5,t5,t5

0000000080005464 <i_5186>:
    80005464:	f5e12c23          	sw	t5,-168(sp)

0000000080005468 <i_5187>:
    80005468:	ebe13c23          	sd	t5,-328(sp)

000000008000546c <i_5188>:
    8000546c:	016b7263          	bleu	s6,s6,80005470 <i_5189>

0000000080005470 <i_5189>:
    80005470:	0fc15d83          	lhu	s11,252(sp)

0000000080005474 <i_5190>:
    80005474:	448f2413          	slti	s0,t5,1096

0000000080005478 <i_5191>:
    80005478:	17016783          	lwu	a5,368(sp)

000000008000547c <i_5192>:
    8000547c:	1f611323          	sh	s6,486(sp)

0000000080005480 <i_5193>:
    80005480:	00000013          	nop

0000000080005484 <i_5194>:
    80005484:	09c12f83          	lw	t6,156(sp)

0000000080005488 <i_5195>:
    80005488:	82a00b93          	li	s7,-2006

000000008000548c <i_5196>:
    8000548c:	83c00793          	li	a5,-1988

0000000080005490 <i_5197>:
    80005490:	01e79a63          	bne	a5,t5,800054a4 <i_5202>

0000000080005494 <i_5198>:
    80005494:	00f00613          	li	a2,15

0000000080005498 <i_5199>:
    80005498:	40cb51b3          	sra	gp,s6,a2

000000008000549c <i_5200>:
    8000549c:	03e44fb3          	div	t6,s0,t5

00000000800054a0 <i_5201>:
    800054a0:	f6013c03          	ld	s8,-160(sp)

00000000800054a4 <i_5202>:
    800054a4:	02cc093b          	mulw	s2,s8,a2

00000000800054a8 <i_5203>:
    800054a8:	ef813823          	sd	s8,-272(sp)

00000000800054ac <i_5204>:
    800054ac:	81500413          	li	s0,-2027

00000000800054b0 <i_5205>:
    800054b0:	81900693          	li	a3,-2023

00000000800054b4 <i_5206>:
    800054b4:	efe10603          	lb	a2,-258(sp)

00000000800054b8 <i_5207>:
    800054b8:	00140413          	addi	s0,s0,1
    800054bc:	fed41ce3          	bne	s0,a3,800054b4 <i_5206>

00000000800054c0 <i_5208>:
    800054c0:	13212e23          	sw	s2,316(sp)

00000000800054c4 <i_5209>:
    800054c4:	01897e63          	bleu	s8,s2,800054e0 <i_5215>

00000000800054c8 <i_5210>:
    800054c8:	001b8b93          	addi	s7,s7,1
    800054cc:	fcfbc2e3          	blt	s7,a5,80005490 <i_5197>

00000000800054d0 <i_5211>:
    800054d0:	e4d13c23          	sd	a3,-424(sp)

00000000800054d4 <i_5212>:
    800054d4:	e7d13c23          	sd	t4,-392(sp)

00000000800054d8 <i_5213>:
    800054d8:	01896663          	bltu	s2,s8,800054e4 <i_5216>

00000000800054dc <i_5214>:
    800054dc:	e1b14683          	lbu	a3,-485(sp)

00000000800054e0 <i_5215>:
    800054e0:	01f97663          	bleu	t6,s2,800054ec <i_5218>

00000000800054e4 <i_5216>:
    800054e4:	00400d93          	li	s11,4

00000000800054e8 <i_5217>:
    800054e8:	01be5c3b          	srlw	s8,t3,s11

00000000800054ec <i_5218>:
    800054ec:	001c161b          	slliw	a2,s8,0x1

00000000800054f0 <i_5219>:
    800054f0:	001f969b          	slliw	a3,t6,0x1

00000000800054f4 <i_5220>:
    800054f4:	fd614c03          	lbu	s8,-42(sp)

00000000800054f8 <i_5221>:
    800054f8:	f7012f03          	lw	t5,-144(sp)

00000000800054fc <i_5222>:
    800054fc:	0d615603          	lhu	a2,214(sp)

0000000080005500 <i_5223>:
    80005500:	e5910083          	lb	ra,-423(sp)

0000000080005504 <i_5224>:
    80005504:	01e6de63          	ble	t5,a3,80005520 <i_5231>

0000000080005508 <i_5225>:
    80005508:	e4812c03          	lw	s8,-440(sp)

000000008000550c <i_5226>:
    8000550c:	03811683          	lh	a3,56(sp)

0000000080005510 <i_5227>:
    80005510:	ed514303          	lbu	t1,-299(sp)

0000000080005514 <i_5228>:
    80005514:	0064fa63          	bleu	t1,s1,80005528 <i_5233>

0000000080005518 <i_5229>:
    80005518:	0043531b          	srliw	t1,t1,0x4

000000008000551c <i_5230>:
    8000551c:	00637863          	bleu	t1,t1,8000552c <i_5234>

0000000080005520 <i_5231>:
    80005520:	02108233          	mul	tp,ra,ra

0000000080005524 <i_5232>:
    80005524:	f56106a3          	sb	s6,-179(sp)

0000000080005528 <i_5233>:
    80005528:	18111423          	sh	ra,392(sp)

000000008000552c <i_5234>:
    8000552c:	00410da3          	sb	tp,27(sp)

0000000080005530 <i_5235>:
    80005530:	01b30333          	add	t1,t1,s11

0000000080005534 <i_5236>:
    80005534:	00420333          	add	t1,tp,tp

0000000080005538 <i_5237>:
    80005538:	02434c3b          	divw	s8,t1,tp

000000008000553c <i_5238>:
    8000553c:	01f00813          	li	a6,31

0000000080005540 <i_5239>:
    80005540:	01035cbb          	srlw	s9,t1,a6

0000000080005544 <i_5240>:
    80005544:	47d3031b          	addiw	t1,t1,1149

0000000080005548 <i_5241>:
    80005548:	03908abb          	mulw	s5,ra,s9

000000008000554c <i_5242>:
    8000554c:	04613823          	sd	t1,80(sp)

0000000080005550 <i_5243>:
    80005550:	035afcb3          	remu	s9,s5,s5

0000000080005554 <i_5244>:
    80005554:	f2012e03          	lw	t3,-224(sp)

0000000080005558 <i_5245>:
    80005558:	0141c863          	blt	gp,s4,80005568 <i_5249>

000000008000555c <i_5246>:
    8000555c:	1a011903          	lh	s2,416(sp)

0000000080005560 <i_5247>:
    80005560:	e7814c83          	lbu	s9,-392(sp)

0000000080005564 <i_5248>:
    80005564:	fb9106a3          	sb	s9,-83(sp)

0000000080005568 <i_5249>:
    80005568:	00495e1b          	srliw	t3,s2,0x4

000000008000556c <i_5250>:
    8000556c:	002cdc9b          	srliw	s9,s9,0x2

0000000080005570 <i_5251>:
    80005570:	02013c83          	ld	s9,32(sp)

0000000080005574 <i_5252>:
    80005574:	f7012823          	sw	a6,-144(sp)

0000000080005578 <i_5253>:
    80005578:	15611603          	lh	a2,342(sp)

000000008000557c <i_5254>:
    8000557c:	84c00813          	li	a6,-1972

0000000080005580 <i_5255>:
    80005580:	85c00a13          	li	s4,-1956

0000000080005584 <i_5256>:
    80005584:	01058bb3          	add	s7,a1,a6

0000000080005588 <i_5257>:
    80005588:	02ccc333          	div	t1,s9,a2

000000008000558c <i_5258>:
    8000558c:	030e1663          	bne	t3,a6,800055b8 <i_5268>

0000000080005590 <i_5259>:
    80005590:	e6411c83          	lh	s9,-412(sp)

0000000080005594 <i_5260>:
    80005594:	00000013          	nop

0000000080005598 <i_5261>:
    80005598:	ed411a23          	sh	s4,-300(sp)

000000008000559c <i_5262>:
    8000559c:	14e13423          	sd	a4,328(sp)

00000000800055a0 <i_5263>:
    800055a0:	00180813          	addi	a6,a6,1
    800055a4:	ff4860e3          	bltu	a6,s4,80005584 <i_5256>

00000000800055a8 <i_5264>:
    800055a8:	0060d863          	ble	t1,ra,800055b8 <i_5268>

00000000800055ac <i_5265>:
    800055ac:	1882d637          	lui	a2,0x1882d

00000000800055b0 <i_5266>:
    800055b0:	f5012a03          	lw	s4,-176(sp)

00000000800055b4 <i_5267>:
    800055b4:	401b561b          	sraiw	a2,s6,0x1

00000000800055b8 <i_5268>:
    800055b8:	410b8e33          	sub	t3,s7,a6

00000000800055bc <i_5269>:
    800055bc:	17414383          	lbu	t2,372(sp)

00000000800055c0 <i_5270>:
    800055c0:	034cd3b3          	divu	t2,s9,s4

00000000800055c4 <i_5271>:
    800055c4:	022e463b          	divw	a2,t3,sp

00000000800055c8 <i_5272>:
    800055c8:	17310083          	lb	ra,371(sp)

00000000800055cc <i_5273>:
    800055cc:	00000013          	nop

00000000800055d0 <i_5274>:
    800055d0:	7b500a13          	li	s4,1973

00000000800055d4 <i_5275>:
    800055d4:	7b800213          	li	tp,1976

00000000800055d8 <i_5276>:
    800055d8:	001a0a13          	addi	s4,s4,1
    800055dc:	fe4a1ee3          	bne	s4,tp,800055d8 <i_5276>

00000000800055e0 <i_5277>:
    800055e0:	14713c23          	sd	t2,344(sp)

00000000800055e4 <i_5278>:
    800055e4:	40460eb3          	sub	t4,a2,tp

00000000800055e8 <i_5279>:
    800055e8:	f75f04b7          	lui	s1,0xf75f0

00000000800055ec <i_5280>:
    800055ec:	004c4c33          	xor	s8,s8,tp

00000000800055f0 <i_5281>:
    800055f0:	00138c63          	beq	t2,ra,80005608 <i_5287>

00000000800055f4 <i_5282>:
    800055f4:	12411a83          	lh	s5,292(sp)

00000000800055f8 <i_5283>:
    800055f8:	17615083          	lhu	ra,374(sp)

00000000800055fc <i_5284>:
    800055fc:	404c823b          	subw	tp,s9,tp

0000000080005600 <i_5285>:
    80005600:	00200a93          	li	s5,2

0000000080005604 <i_5286>:
    80005604:	01541b33          	sll	s6,s0,s5

0000000080005608 <i_5287>:
    80005608:	1c410b23          	sb	tp,470(sp)

000000008000560c <i_5288>:
    8000560c:	02190463          	beq	s2,ra,80005634 <i_5298>

0000000080005610 <i_5289>:
    80005610:	f1011c03          	lh	s8,-240(sp)

0000000080005614 <i_5290>:
    80005614:	09813683          	ld	a3,152(sp)

0000000080005618 <i_5291>:
    80005618:	94320f1b          	addiw	t5,tp,-1725

000000008000561c <i_5292>:
    8000561c:	035c1063          	bne	s8,s5,8000563c <i_5300>

0000000080005620 <i_5293>:
    80005620:	0160ee63          	bltu	ra,s6,8000563c <i_5300>

0000000080005624 <i_5294>:
    80005624:	021dfdbb          	remuw	s11,s11,ra

0000000080005628 <i_5295>:
    80005628:	10016b03          	lwu	s6,256(sp)

000000008000562c <i_5296>:
    8000562c:	1f811223          	sh	s8,484(sp)

0000000080005630 <i_5297>:
    80005630:	17012b03          	lw	s6,368(sp)

0000000080005634 <i_5298>:
    80005634:	ee811303          	lh	t1,-280(sp)

0000000080005638 <i_5299>:
    80005638:	01b42f33          	slt	t5,s0,s11

000000008000563c <i_5300>:
    8000563c:	12013203          	ld	tp,288(sp)

0000000080005640 <i_5301>:
    80005640:	039bdf33          	divu	t5,s7,s9

0000000080005644 <i_5302>:
    80005644:	01bacc63          	blt	s5,s11,8000565c <i_5308>

0000000080005648 <i_5303>:
    80005648:	0c012d83          	lw	s11,192(sp)

000000008000564c <i_5304>:
    8000564c:	f7e11223          	sh	t5,-156(sp)

0000000080005650 <i_5305>:
    80005650:	fda11e03          	lh	t3,-38(sp)

0000000080005654 <i_5306>:
    80005654:	01e10e63          	beq	sp,t5,80005670 <i_5313>

0000000080005658 <i_5307>:
    80005658:	e8016203          	lwu	tp,-384(sp)

000000008000565c <i_5308>:
    8000565c:	0a416e03          	lwu	t3,164(sp)

0000000080005660 <i_5309>:
    80005660:	06211823          	sh	sp,112(sp)

0000000080005664 <i_5310>:
    80005664:	404e5e1b          	sraiw	t3,t3,0x4

0000000080005668 <i_5311>:
    80005668:	f7c12423          	sw	t3,-152(sp)

000000008000566c <i_5312>:
    8000566c:	e5813e03          	ld	t3,-424(sp)

0000000080005670 <i_5313>:
    80005670:	9b8c3c13          	sltiu	s8,s8,-1608

0000000080005674 <i_5314>:
    80005674:	00000013          	nop

0000000080005678 <i_5315>:
    80005678:	84100e93          	li	t4,-1983

000000008000567c <i_5316>:
    8000567c:	84300d93          	li	s11,-1981

0000000080005680 <i_5317>:
    80005680:	0b812223          	sw	s8,164(sp)

0000000080005684 <i_5318>:
    80005684:	038eae33          	mulhsu	t3,t4,s8

0000000080005688 <i_5319>:
    80005688:	8ba00293          	li	t0,-1862

000000008000568c <i_5320>:
    8000568c:	8be00613          	li	a2,-1858

0000000080005690 <i_5321>:
    80005690:	00128293          	addi	t0,t0,1
    80005694:	fec2cee3          	blt	t0,a2,80005690 <i_5321>

0000000080005698 <i_5322>:
    80005698:	1cc16683          	lwu	a3,460(sp)

000000008000569c <i_5323>:
    8000569c:	03d26063          	bltu	tp,t4,800056bc <i_5330>

00000000800056a0 <i_5324>:
    800056a0:	03c2c1b3          	div	gp,t0,t3

00000000800056a4 <i_5325>:
    800056a4:	fbdc4293          	xori	t0,s8,-67

00000000800056a8 <i_5326>:
    800056a8:	f3510323          	sb	s5,-218(sp)

00000000800056ac <i_5327>:
    800056ac:	001e8e93          	addi	t4,t4,1 # ffffffffabf04001 <_end+0xffffffff2bef3bed>
    800056b0:	fdddf8e3          	bleu	t4,s11,80005680 <i_5317>

00000000800056b4 <i_5328>:
    800056b4:	03ce6333          	rem	t1,t3,t3

00000000800056b8 <i_5329>:
    800056b8:	8d32881b          	addiw	a6,t0,-1837

00000000800056bc <i_5330>:
    800056bc:	0261d463          	ble	t1,gp,800056e4 <i_5340>

00000000800056c0 <i_5331>:
    800056c0:	f4813503          	ld	a0,-184(sp)

00000000800056c4 <i_5332>:
    800056c4:	ee611023          	sh	t1,-288(sp)

00000000800056c8 <i_5333>:
    800056c8:	ee613423          	sd	t1,-280(sp)

00000000800056cc <i_5334>:
    800056cc:	010b72b3          	and	t0,s6,a6

00000000800056d0 <i_5335>:
    800056d0:	006adc63          	ble	t1,s5,800056e8 <i_5341>

00000000800056d4 <i_5336>:
    800056d4:	f7010123          	sb	a6,-158(sp)

00000000800056d8 <i_5337>:
    800056d8:	03585263          	ble	s5,a6,800056fc <i_5346>

00000000800056dc <i_5338>:
    800056dc:	026add3b          	divuw	s10,s5,t1

00000000800056e0 <i_5339>:
    800056e0:	01800a93          	li	s5,24

00000000800056e4 <i_5340>:
    800056e4:	415853bb          	sraw	t2,a6,s5

00000000800056e8 <i_5341>:
    800056e8:	1bc14383          	lbu	t2,444(sp)

00000000800056ec <i_5342>:
    800056ec:	026389b3          	mul	s3,t2,t1

00000000800056f0 <i_5343>:
    800056f0:	06215183          	lhu	gp,98(sp)

00000000800056f4 <i_5344>:
    800056f4:	e6416283          	lwu	t0,-412(sp)

00000000800056f8 <i_5345>:
    800056f8:	18511e23          	sh	t0,412(sp)

00000000800056fc <i_5346>:
    800056fc:	01512223          	sw	s5,4(sp)

0000000080005700 <i_5347>:
    80005700:	0c215683          	lhu	a3,194(sp)

0000000080005704 <i_5348>:
    80005704:	0152e263          	bltu	t0,s5,80005708 <i_5349>

0000000080005708 <i_5349>:
    80005708:	1c414283          	lbu	t0,452(sp)

000000008000570c <i_5350>:
    8000570c:	025d7bbb          	remuw	s7,s10,t0

0000000080005710 <i_5351>:
    80005710:	12511a23          	sh	t0,308(sp)

0000000080005714 <i_5352>:
    80005714:	85c00a93          	li	s5,-1956

0000000080005718 <i_5353>:
    80005718:	86600293          	li	t0,-1946

000000008000571c <i_5354>:
    8000571c:	15d14c03          	lbu	s8,349(sp)

0000000080005720 <i_5355>:
    80005720:	f6812b83          	lw	s7,-152(sp)

0000000080005724 <i_5356>:
    80005724:	017bce33          	xor	t3,s7,s7

0000000080005728 <i_5357>:
    80005728:	06110383          	lb	t2,97(sp)

000000008000572c <i_5358>:
    8000572c:	e7c10383          	lb	t2,-388(sp)

0000000080005730 <i_5359>:
    80005730:	09013b03          	ld	s6,144(sp)

0000000080005734 <i_5360>:
    80005734:	e5611c23          	sh	s6,-424(sp)

0000000080005738 <i_5361>:
    80005738:	02800c13          	li	s8,40

000000008000573c <i_5362>:
    8000573c:	018c14b3          	sll	s1,s8,s8

0000000080005740 <i_5363>:
    80005740:	fc214083          	lbu	ra,-62(sp)

0000000080005744 <i_5364>:
    80005744:	00000013          	nop

0000000080005748 <i_5365>:
    80005748:	029f8fb3          	mul	t6,t6,s1

000000008000574c <i_5366>:
    8000574c:	001a8a93          	addi	s5,s5,1
    80005750:	fd52d6e3          	ble	s5,t0,8000571c <i_5354>

0000000080005754 <i_5367>:
    80005754:	f1013f83          	ld	t6,-240(sp)

0000000080005758 <i_5368>:
    80005758:	0066ca63          	blt	a3,t1,8000576c <i_5373>

000000008000575c <i_5369>:
    8000575c:	0bf11423          	sh	t6,168(sp)

0000000080005760 <i_5370>:
    80005760:	ffaac513          	xori	a0,s5,-6

0000000080005764 <i_5371>:
    80005764:	17c16683          	lwu	a3,380(sp)

0000000080005768 <i_5372>:
    80005768:	eda14e03          	lbu	t3,-294(sp)

000000008000576c <i_5373>:
    8000576c:	ffc16a83          	lwu	s5,-4(sp)

0000000080005770 <i_5374>:
    80005770:	17c11723          	sh	t3,366(sp)

0000000080005774 <i_5375>:
    80005774:	feb13823          	sd	a1,-16(sp)

0000000080005778 <i_5376>:
    80005778:	1dc13823          	sd	t3,464(sp)

000000008000577c <i_5377>:
    8000577c:	0c811783          	lh	a5,200(sp)

0000000080005780 <i_5378>:
    80005780:	ff615403          	lhu	s0,-10(sp)

0000000080005784 <i_5379>:
    80005784:	f8412a83          	lw	s5,-124(sp)

0000000080005788 <i_5380>:
    80005788:	fd710983          	lb	s3,-41(sp)

000000008000578c <i_5381>:
    8000578c:	1e214403          	lbu	s0,482(sp)

0000000080005790 <i_5382>:
    80005790:	001cdf93          	srli	t6,s9,0x1

0000000080005794 <i_5383>:
    80005794:	00810ba3          	sb	s0,23(sp)

0000000080005798 <i_5384>:
    80005798:	00d32333          	slt	t1,t1,a3

000000008000579c <i_5385>:
    8000579c:	02c3533b          	divuw	t1,t1,a2

00000000800057a0 <i_5386>:
    800057a0:	026fc263          	blt	t6,t1,800057c4 <i_5395>

00000000800057a4 <i_5387>:
    800057a4:	01000313          	li	t1,16

00000000800057a8 <i_5388>:
    800057a8:	0063533b          	srlw	t1,t1,t1

00000000800057ac <i_5389>:
    800057ac:	004ecbb3          	xor	s7,t4,tp

00000000800057b0 <i_5390>:
    800057b0:	16612823          	sw	t1,368(sp)

00000000800057b4 <i_5391>:
    800057b4:	526eee93          	ori	t4,t4,1318

00000000800057b8 <i_5392>:
    800057b8:	f1510303          	lb	t1,-235(sp)

00000000800057bc <i_5393>:
    800057bc:	01737663          	bleu	s7,t1,800057c8 <i_5396>

00000000800057c0 <i_5394>:
    800057c0:	04b33e93          	sltiu	t4,t1,75

00000000800057c4 <i_5395>:
    800057c4:	03d3c3b3          	div	t2,t2,t4

00000000800057c8 <i_5396>:
    800057c8:	fa612623          	sw	t1,-84(sp)

00000000800057cc <i_5397>:
    800057cc:	ed016083          	lwu	ra,-304(sp)

00000000800057d0 <i_5398>:
    800057d0:	00134663          	blt	t1,ra,800057dc <i_5401>

00000000800057d4 <i_5399>:
    800057d4:	006b80b3          	add	ra,s7,t1

00000000800057d8 <i_5400>:
    800057d8:	f0813083          	ld	ra,-248(sp)

00000000800057dc <i_5401>:
    800057dc:	00608333          	add	t1,ra,t1

00000000800057e0 <i_5402>:
    800057e0:	021bfc3b          	remuw	s8,s7,ra

00000000800057e4 <i_5403>:
    800057e4:	017bf663          	bleu	s7,s7,800057f0 <i_5406>

00000000800057e8 <i_5404>:
    800057e8:	4043df13          	srai	t5,t2,0x4

00000000800057ec <i_5405>:
    800057ec:	0383d93b          	divuw	s2,t2,s8

00000000800057f0 <i_5406>:
    800057f0:	0f016303          	lwu	t1,240(sp)

00000000800057f4 <i_5407>:
    800057f4:	037c6263          	bltu	s8,s7,80005818 <i_5416>

00000000800057f8 <i_5408>:
    800057f8:	00bf05b3          	add	a1,t5,a1

00000000800057fc <i_5409>:
    800057fc:	2275af13          	slti	t5,a1,551

0000000080005800 <i_5410>:
    80005800:	f0813e03          	ld	t3,-248(sp)

0000000080005804 <i_5411>:
    80005804:	01c5ee63          	bltu	a1,t3,80005820 <i_5418>

0000000080005808 <i_5412>:
    80005808:	f3fa8793          	addi	a5,s5,-193

000000008000580c <i_5413>:
    8000580c:	19813583          	ld	a1,408(sp)

0000000080005810 <i_5414>:
    80005810:	ef5e4793          	xori	a5,t3,-267

0000000080005814 <i_5415>:
    80005814:	01400a13          	li	s4,20

0000000080005818 <i_5416>:
    80005818:	01435b33          	srl	s6,t1,s4

000000008000581c <i_5417>:
    8000581c:	001b159b          	slliw	a1,s6,0x1

0000000080005820 <i_5418>:
    80005820:	02fb5463          	ble	a5,s6,80005848 <i_5428>

0000000080005824 <i_5419>:
    80005824:	026302b3          	mul	t0,t1,t1

0000000080005828 <i_5420>:
    80005828:	01a5e463          	bltu	a1,s10,80005830 <i_5422>

000000008000582c <i_5421>:
    8000582c:	00431313          	slli	t1,t1,0x4

0000000080005830 <i_5422>:
    80005830:	1c512023          	sw	t0,448(sp)

0000000080005834 <i_5423>:
    80005834:	0e013083          	ld	ra,224(sp)

0000000080005838 <i_5424>:
    80005838:	03437a33          	remu	s4,t1,s4

000000008000583c <i_5425>:
    8000583c:	00b00a13          	li	s4,11

0000000080005840 <i_5426>:
    80005840:	014a5a3b          	srlw	s4,s4,s4

0000000080005844 <i_5427>:
    80005844:	014a1863          	bne	s4,s4,80005854 <i_5431>

0000000080005848 <i_5428>:
    80005848:	03813a03          	ld	s4,56(sp)

000000008000584c <i_5429>:
    8000584c:	01436e63          	bltu	t1,s4,80005868 <i_5436>

0000000080005850 <i_5430>:
    80005850:	03416a03          	lwu	s4,52(sp)

0000000080005854 <i_5431>:
    80005854:	e3412a03          	lw	s4,-460(sp)

0000000080005858 <i_5432>:
    80005858:	014e9663          	bne	t4,s4,80005864 <i_5435>

000000008000585c <i_5433>:
    8000585c:	3da5e813          	ori	a6,a1,986

0000000080005860 <i_5434>:
    80005860:	06b12e23          	sw	a1,124(sp)

0000000080005864 <i_5435>:
    80005864:	03459633          	mulh	a2,a1,s4

0000000080005868 <i_5436>:
    80005868:	404a5a13          	srai	s4,s4,0x4

000000008000586c <i_5437>:
    8000586c:	004a1a13          	slli	s4,s4,0x4

0000000080005870 <i_5438>:
    80005870:	73c00093          	li	ra,1852

0000000080005874 <i_5439>:
    80005874:	74200593          	li	a1,1858

0000000080005878 <i_5440>:
    80005878:	02cbe53b          	remw	a0,s7,a2

000000008000587c <i_5441>:
    8000587c:	005a33b3          	sltu	t2,s4,t0

0000000080005880 <i_5442>:
    80005880:	e5c12f03          	lw	t5,-420(sp)

0000000080005884 <i_5443>:
    80005884:	00108093          	addi	ra,ra,1 # 18880001 <main-0x6777ffff>
    80005888:	fe15d8e3          	ble	ra,a1,80005878 <i_5440>

000000008000588c <i_5444>:
    8000588c:	e1a15f03          	lhu	t5,-486(sp)

0000000080005890 <i_5445>:
    80005890:	15813a03          	ld	s4,344(sp)

0000000080005894 <i_5446>:
    80005894:	0e815e03          	lhu	t3,232(sp)

0000000080005898 <i_5447>:
    80005898:	553870b7          	lui	ra,0x55387

000000008000589c <i_5448>:
    8000589c:	0ea12a23          	sw	a0,244(sp)

00000000800058a0 <i_5449>:
    800058a0:	40c383b3          	sub	t2,t2,a2

00000000800058a4 <i_5450>:
    800058a4:	00100613          	li	a2,1

00000000800058a8 <i_5451>:
    800058a8:	40cf5d3b          	sraw	s10,t5,a2

00000000800058ac <i_5452>:
    800058ac:	17e11923          	sh	t5,370(sp)

00000000800058b0 <i_5453>:
    800058b0:	00465e63          	ble	tp,a2,800058cc <i_5460>

00000000800058b4 <i_5454>:
    800058b4:	02538063          	beq	t2,t0,800058d4 <i_5462>

00000000800058b8 <i_5455>:
    800058b8:	01464463          	blt	a2,s4,800058c0 <i_5457>

00000000800058bc <i_5456>:
    800058bc:	08813b83          	ld	s7,136(sp)

00000000800058c0 <i_5457>:
    800058c0:	f0214403          	lbu	s0,-254(sp)

00000000800058c4 <i_5458>:
    800058c4:	0f4103a3          	sb	s4,231(sp)

00000000800058c8 <i_5459>:
    800058c8:	014a1863          	bne	s4,s4,800058d8 <i_5463>

00000000800058cc <i_5460>:
    800058cc:	0269593b          	divuw	s2,s2,t1

00000000800058d0 <i_5461>:
    800058d0:	00760c63          	beq	a2,t2,800058e8 <i_5467>

00000000800058d4 <i_5462>:
    800058d4:	fde15903          	lhu	s2,-34(sp)

00000000800058d8 <i_5463>:
    800058d8:	1cc16803          	lwu	a6,460(sp)

00000000800058dc <i_5464>:
    800058dc:	0321cd3b          	divw	s10,gp,s2

00000000800058e0 <i_5465>:
    800058e0:	03aee9bb          	remw	s3,t4,s10

00000000800058e4 <i_5466>:
    800058e4:	03a9a933          	mulhsu	s2,s3,s10

00000000800058e8 <i_5467>:
    800058e8:	f6710e83          	lb	t4,-153(sp)

00000000800058ec <i_5468>:
    800058ec:	0150ee63          	bltu	ra,s5,80005908 <i_5475>

00000000800058f0 <i_5469>:
    800058f0:	028d4933          	div	s2,s10,s0

00000000800058f4 <i_5470>:
    800058f4:	0349da33          	divu	s4,s3,s4

00000000800058f8 <i_5471>:
    800058f8:	f2416403          	lwu	s0,-220(sp)

00000000800058fc <i_5472>:
    800058fc:	00000013          	nop

0000000080005900 <i_5473>:
    80005900:	00000013          	nop

0000000080005904 <i_5474>:
    80005904:	15413823          	sd	s4,336(sp)

0000000080005908 <i_5475>:
    80005908:	fb411223          	sh	s4,-92(sp)

000000008000590c <i_5476>:
    8000590c:	15812a03          	lw	s4,344(sp)

0000000080005910 <i_5477>:
    80005910:	86d00693          	li	a3,-1939

0000000080005914 <i_5478>:
    80005914:	88100d13          	li	s10,-1919

0000000080005918 <i_5479>:
    80005918:	0e615a03          	lhu	s4,230(sp)

000000008000591c <i_5480>:
    8000591c:	00168693          	addi	a3,a3,1 # ffffffffdefda001 <_end+0xffffffff5efc9bed>
    80005920:	ffa6cce3          	blt	a3,s10,80005918 <i_5479>

0000000080005924 <i_5481>:
    80005924:	01469863          	bne	a3,s4,80005934 <i_5485>

0000000080005928 <i_5482>:
    80005928:	00d6ea63          	bltu	a3,a3,8000593c <i_5487>

000000008000592c <i_5483>:
    8000592c:	00a69663          	bne	a3,a0,80005938 <i_5486>

0000000080005930 <i_5484>:
    80005930:	11413c23          	sd	s4,280(sp)

0000000080005934 <i_5485>:
    80005934:	0286e463          	bltu	a3,s0,8000595c <i_5495>

0000000080005938 <i_5486>:
    80005938:	fec16683          	lwu	a3,-20(sp)

000000008000593c <i_5487>:
    8000593c:	02df6063          	bltu	t5,a3,8000595c <i_5495>

0000000080005940 <i_5488>:
    80005940:	11815683          	lhu	a3,280(sp)

0000000080005944 <i_5489>:
    80005944:	008a7263          	bleu	s0,s4,80005948 <i_5490>

0000000080005948 <i_5490>:
    80005948:	4026da1b          	sraiw	s4,a3,0x2

000000008000594c <i_5491>:
    8000594c:	00faaa33          	slt	s4,s5,a5

0000000080005950 <i_5492>:
    80005950:	02690063          	beq	s2,t1,80005970 <i_5500>

0000000080005954 <i_5493>:
    80005954:	d4f47693          	andi	a3,s0,-689

0000000080005958 <i_5494>:
    80005958:	1cc11903          	lh	s2,460(sp)

000000008000595c <i_5495>:
    8000595c:	09c16183          	lwu	gp,156(sp)

0000000080005960 <i_5496>:
    80005960:	18a10903          	lb	s2,394(sp)

0000000080005964 <i_5497>:
    80005964:	01b1adb3          	slt	s11,gp,s11

0000000080005968 <i_5498>:
    80005968:	1c110603          	lb	a2,449(sp)

000000008000596c <i_5499>:
    8000596c:	10816903          	lwu	s2,264(sp)

0000000080005970 <i_5500>:
    80005970:	18415983          	lhu	s3,388(sp)

0000000080005974 <i_5501>:
    80005974:	01614783          	lbu	a5,22(sp)

0000000080005978 <i_5502>:
    80005978:	f3011a83          	lh	s5,-208(sp)

000000008000597c <i_5503>:
    8000597c:	00299d93          	slli	s11,s3,0x2

0000000080005980 <i_5504>:
    80005980:	8d200293          	li	t0,-1838

0000000080005984 <i_5505>:
    80005984:	8e300093          	li	ra,-1821

0000000080005988 <i_5506>:
    80005988:	00528233          	add	tp,t0,t0

000000008000598c <i_5507>:
    8000598c:	e4812503          	lw	a0,-440(sp)

0000000080005990 <i_5508>:
    80005990:	03bd93b3          	mulh	t2,s11,s11

0000000080005994 <i_5509>:
    80005994:	00128293          	addi	t0,t0,1
    80005998:	fe50d8e3          	ble	t0,ra,80005988 <i_5506>

000000008000599c <i_5510>:
    8000599c:	003d1813          	slli	a6,s10,0x3

00000000800059a0 <i_5511>:
    800059a0:	0192c533          	xor	a0,t0,s9

00000000800059a4 <i_5512>:
    800059a4:	fa410ca3          	sb	tp,-71(sp)

00000000800059a8 <i_5513>:
    800059a8:	16c105a3          	sb	a2,363(sp)

00000000800059ac <i_5514>:
    800059ac:	013a5863          	ble	s3,s4,800059bc <i_5518>

00000000800059b0 <i_5515>:
    800059b0:	03b919b3          	mulh	s3,s2,s11

00000000800059b4 <i_5516>:
    800059b4:	08513423          	sd	t0,136(sp)

00000000800059b8 <i_5517>:
    800059b8:	01279863          	bne	a5,s2,800059c8 <i_5521>

00000000800059bc <i_5518>:
    800059bc:	0bb10323          	sb	s11,166(sp)

00000000800059c0 <i_5519>:
    800059c0:	00a00e93          	li	t4,10

00000000800059c4 <i_5520>:
    800059c4:	01d792b3          	sll	t0,a5,t4

00000000800059c8 <i_5521>:
    800059c8:	0240cdbb          	divw	s11,ra,tp

00000000800059cc <i_5522>:
    800059cc:	0c512623          	sw	t0,204(sp)

00000000800059d0 <i_5523>:
    800059d0:	06411523          	sh	tp,106(sp)

00000000800059d4 <i_5524>:
    800059d4:	03eeff33          	remu	t5,t4,t5

00000000800059d8 <i_5525>:
    800059d8:	86a00213          	li	tp,-1942

00000000800059dc <i_5526>:
    800059dc:	87200093          	li	ra,-1934

00000000800059e0 <i_5527>:
    800059e0:	004abab3          	sltu	s5,s5,tp

00000000800059e4 <i_5528>:
    800059e4:	01ef0f33          	add	t5,t5,t5

00000000800059e8 <i_5529>:
    800059e8:	00000013          	nop

00000000800059ec <i_5530>:
    800059ec:	00000013          	nop

00000000800059f0 <i_5531>:
    800059f0:	01ef0f33          	add	t5,t5,t5

00000000800059f4 <i_5532>:
    800059f4:	fc412c03          	lw	s8,-60(sp)

00000000800059f8 <i_5533>:
    800059f8:	00120213          	addi	tp,tp,1 # 1 <main-0x7fffffff>
    800059fc:	fe40f2e3          	bleu	tp,ra,800059e0 <i_5527>

0000000080005a00 <i_5534>:
    80005a00:	01eccc33          	xor	s8,s9,t5

0000000080005a04 <i_5535>:
    80005a04:	038f6263          	bltu	t5,s8,80005a28 <i_5544>

0000000080005a08 <i_5536>:
    80005a08:	0de10623          	sb	t5,204(sp)

0000000080005a0c <i_5537>:
    80005a0c:	f6015f83          	lhu	t6,-160(sp)

0000000080005a10 <i_5538>:
    80005a10:	01000c93          	li	s9,16

0000000080005a14 <i_5539>:
    80005a14:	019f5c3b          	srlw	s8,t5,s9

0000000080005a18 <i_5540>:
    80005a18:	12211c83          	lh	s9,290(sp)

0000000080005a1c <i_5541>:
    80005a1c:	17e11d23          	sh	t5,378(sp)

0000000080005a20 <i_5542>:
    80005a20:	038c0463          	beq	s8,s8,80005a48 <i_5552>

0000000080005a24 <i_5543>:
    80005a24:	f9c12c03          	lw	s8,-100(sp)

0000000080005a28 <i_5544>:
    80005a28:	cf4d7c17          	auipc	s8,0xcf4d7

0000000080005a2c <i_5545>:
    80005a2c:	1b813c23          	sd	s8,440(sp)

0000000080005a30 <i_5546>:
    80005a30:	00d00d13          	li	s10,13

0000000080005a34 <i_5547>:
    80005a34:	01ad1d3b          	sllw	s10,s10,s10

0000000080005a38 <i_5548>:
    80005a38:	01ad1263          	bne	s10,s10,80005a3c <i_5549>

0000000080005a3c <i_5549>:
    80005a3c:	03a7f7b3          	remu	a5,a5,s10

0000000080005a40 <i_5550>:
    80005a40:	01d00d13          	li	s10,29

0000000080005a44 <i_5551>:
    80005a44:	01a7d43b          	srlw	s0,a5,s10

0000000080005a48 <i_5552>:
    80005a48:	3ded0d1b          	addiw	s10,s10,990

0000000080005a4c <i_5553>:
    80005a4c:	03834c3b          	divw	s8,t1,s8

0000000080005a50 <i_5554>:
    80005a50:	06f100a3          	sb	a5,97(sp)

0000000080005a54 <i_5555>:
    80005a54:	008d0d33          	add	s10,s10,s0

0000000080005a58 <i_5556>:
    80005a58:	1b812d03          	lw	s10,440(sp)

0000000080005a5c <i_5557>:
    80005a5c:	01600093          	li	ra,22

0000000080005a60 <i_5558>:
    80005a60:	001d50bb          	srlw	ra,s10,ra

0000000080005a64 <i_5559>:
    80005a64:	01c00093          	li	ra,28

0000000080005a68 <i_5560>:
    80005a68:	0010d0bb          	srlw	ra,ra,ra

0000000080005a6c <i_5561>:
    80005a6c:	02157d3b          	remuw	s10,a0,ra

0000000080005a70 <i_5562>:
    80005a70:	40108d3b          	subw	s10,ra,ra

0000000080005a74 <i_5563>:
    80005a74:	f4816083          	lwu	ra,-184(sp)

0000000080005a78 <i_5564>:
    80005a78:	0a110ca3          	sb	ra,185(sp)

0000000080005a7c <i_5565>:
    80005a7c:	03a0e0b3          	rem	ra,ra,s10

0000000080005a80 <i_5566>:
    80005a80:	001c1c63          	bne	s8,ra,80005a98 <i_5572>

0000000080005a84 <i_5567>:
    80005a84:	0210a0b3          	mulhsu	ra,ra,ra

0000000080005a88 <i_5568>:
    80005a88:	404bd09b          	sraiw	ra,s7,0x4

0000000080005a8c <i_5569>:
    80005a8c:	0260c063          	blt	ra,t1,80005aac <i_5577>

0000000080005a90 <i_5570>:
    80005a90:	1d215783          	lhu	a5,466(sp)

0000000080005a94 <i_5571>:
    80005a94:	f5510083          	lb	ra,-171(sp)

0000000080005a98 <i_5572>:
    80005a98:	0211693b          	remw	s2,sp,ra

0000000080005a9c <i_5573>:
    80005a9c:	f7416b03          	lwu	s6,-140(sp)

0000000080005aa0 <i_5574>:
    80005aa0:	0b514083          	lbu	ra,181(sp)

0000000080005aa4 <i_5575>:
    80005aa4:	0320d933          	divu	s2,ra,s2

0000000080005aa8 <i_5576>:
    80005aa8:	1d813903          	ld	s2,472(sp)

0000000080005aac <i_5577>:
    80005aac:	001dbdb3          	sltu	s11,s11,ra

0000000080005ab0 <i_5578>:
    80005ab0:	01b94933          	xor	s2,s2,s11

0000000080005ab4 <i_5579>:
    80005ab4:	003f1f13          	slli	t5,t5,0x3

0000000080005ab8 <i_5580>:
    80005ab8:	ffe15b83          	lhu	s7,-2(sp)

0000000080005abc <i_5581>:
    80005abc:	02000093          	li	ra,32

0000000080005ac0 <i_5582>:
    80005ac0:	001b97b3          	sll	a5,s7,ra

0000000080005ac4 <i_5583>:
    80005ac4:	14a15b83          	lhu	s7,330(sp)

0000000080005ac8 <i_5584>:
    80005ac8:	fef14d03          	lbu	s10,-17(sp)

0000000080005acc <i_5585>:
    80005acc:	001badb3          	slt	s11,s7,ra

0000000080005ad0 <i_5586>:
    80005ad0:	e3712023          	sw	s7,-480(sp)

0000000080005ad4 <i_5587>:
    80005ad4:	e2816b83          	lwu	s7,-472(sp)

0000000080005ad8 <i_5588>:
    80005ad8:	01ab8e63          	beq	s7,s10,80005af4 <i_5595>

0000000080005adc <i_5589>:
    80005adc:	f6215d83          	lhu	s11,-158(sp)

0000000080005ae0 <i_5590>:
    80005ae0:	037dcbb3          	div	s7,s11,s7

0000000080005ae4 <i_5591>:
    80005ae4:	fde10203          	lb	tp,-34(sp)

0000000080005ae8 <i_5592>:
    80005ae8:	9f5bbb93          	sltiu	s7,s7,-1547

0000000080005aec <i_5593>:
    80005aec:	02427bbb          	remuw	s7,tp,tp

0000000080005af0 <i_5594>:
    80005af0:	00000013          	nop

0000000080005af4 <i_5595>:
    80005af4:	00000013          	nop

0000000080005af8 <i_5596>:
    80005af8:	00000013          	nop

0000000080005afc <i_5597>:
    80005afc:	8c700213          	li	tp,-1849

0000000080005b00 <i_5598>:
    80005b00:	8d300413          	li	s0,-1837

0000000080005b04 <i_5599>:
    80005b04:	017bdc63          	ble	s7,s7,80005b1c <i_5605>

0000000080005b08 <i_5600>:
    80005b08:	06811f23          	sh	s0,126(sp)

0000000080005b0c <i_5601>:
    80005b0c:	024471bb          	remuw	gp,s0,tp

0000000080005b10 <i_5602>:
    80005b10:	ec215903          	lhu	s2,-318(sp)

0000000080005b14 <i_5603>:
    80005b14:	18016583          	lwu	a1,384(sp)

0000000080005b18 <i_5604>:
    80005b18:	03643eb3          	mulhu	t4,s0,s6

0000000080005b1c <i_5605>:
    80005b1c:	13014e83          	lbu	t4,304(sp)

0000000080005b20 <i_5606>:
    80005b20:	01200b93          	li	s7,18

0000000080005b24 <i_5607>:
    80005b24:	0174d4b3          	srl	s1,s1,s7

0000000080005b28 <i_5608>:
    80005b28:	e3410283          	lb	t0,-460(sp)

0000000080005b2c <i_5609>:
    80005b2c:	01c00a13          	li	s4,28

0000000080005b30 <i_5610>:
    80005b30:	01419a3b          	sllw	s4,gp,s4

0000000080005b34 <i_5611>:
    80005b34:	00120213          	addi	tp,tp,1 # 1 <main-0x7fffffff>
    80005b38:	fc8246e3          	blt	tp,s0,80005b04 <i_5599>

0000000080005b3c <i_5612>:
    80005b3c:	02a00613          	li	a2,42

0000000080005b40 <i_5613>:
    80005b40:	00cb9fb3          	sll	t6,s7,a2

0000000080005b44 <i_5614>:
    80005b44:	4035d59b          	sraiw	a1,a1,0x3

0000000080005b48 <i_5615>:
    80005b48:	03b21263          	bne	tp,s11,80005b6c <i_5624>

0000000080005b4c <i_5616>:
    80005b4c:	89eecf93          	xori	t6,t4,-1890

0000000080005b50 <i_5617>:
    80005b50:	e8910e83          	lb	t4,-375(sp)

0000000080005b54 <i_5618>:
    80005b54:	1c813e83          	ld	t4,456(sp)

0000000080005b58 <i_5619>:
    80005b58:	00cfafb3          	slt	t6,t6,a2

0000000080005b5c <i_5620>:
    80005b5c:	efe15e83          	lhu	t4,-258(sp)

0000000080005b60 <i_5621>:
    80005b60:	01a60a63          	beq	a2,s10,80005b74 <i_5626>

0000000080005b64 <i_5622>:
    80005b64:	597e861b          	addiw	a2,t4,1431

0000000080005b68 <i_5623>:
    80005b68:	f5c16f03          	lwu	t5,-164(sp)

0000000080005b6c <i_5624>:
    80005b6c:	eec13823          	sd	a2,-272(sp)

0000000080005b70 <i_5625>:
    80005b70:	07e15483          	lhu	s1,126(sp)

0000000080005b74 <i_5626>:
    80005b74:	00000013          	nop

0000000080005b78 <i_5627>:
    80005b78:	ea215803          	lhu	a6,-350(sp)

0000000080005b7c <i_5628>:
    80005b7c:	89800f13          	li	t5,-1896

0000000080005b80 <i_5629>:
    80005b80:	8a000d13          	li	s10,-1888

0000000080005b84 <i_5630>:
    80005b84:	e5815683          	lhu	a3,-424(sp)

0000000080005b88 <i_5631>:
    80005b88:	14013683          	ld	a3,320(sp)

0000000080005b8c <i_5632>:
    80005b8c:	02d0d0bb          	divuw	ra,ra,a3

0000000080005b90 <i_5633>:
    80005b90:	02d08063          	beq	ra,a3,80005bb0 <i_5641>

0000000080005b94 <i_5634>:
    80005b94:	00d68e33          	add	t3,a3,a3

0000000080005b98 <i_5635>:
    80005b98:	10814683          	lbu	a3,264(sp)

0000000080005b9c <i_5636>:
    80005b9c:	00000013          	nop

0000000080005ba0 <i_5637>:
    80005ba0:	f8114083          	lbu	ra,-127(sp)

0000000080005ba4 <i_5638>:
    80005ba4:	40168e3b          	subw	t3,a3,ra

0000000080005ba8 <i_5639>:
    80005ba8:	03ce6663          	bltu	t3,t3,80005bd4 <i_5649>

0000000080005bac <i_5640>:
    80005bac:	f6f10e83          	lb	t4,-145(sp)

0000000080005bb0 <i_5641>:
    80005bb0:	00000013          	nop

0000000080005bb4 <i_5642>:
    80005bb4:	40d20233          	sub	tp,tp,a3

0000000080005bb8 <i_5643>:
    80005bb8:	aa083b93          	sltiu	s7,a6,-1376

0000000080005bbc <i_5644>:
    80005bbc:	001f0f13          	addi	t5,t5,1
    80005bc0:	fded72e3          	bleu	t5,s10,80005b84 <i_5630>

0000000080005bc4 <i_5645>:
    80005bc4:	eb016a83          	lwu	s5,-336(sp)

0000000080005bc8 <i_5646>:
    80005bc8:	021af063          	bleu	ra,s5,80005be8 <i_5654>

0000000080005bcc <i_5647>:
    80005bcc:	015eec63          	bltu	t4,s5,80005be4 <i_5653>

0000000080005bd0 <i_5648>:
    80005bd0:	004a9e93          	slli	t4,s5,0x4

0000000080005bd4 <i_5649>:
    80005bd4:	e8210c83          	lb	s9,-382(sp)

0000000080005bd8 <i_5650>:
    80005bd8:	01d9fe63          	bleu	t4,s3,80005bf4 <i_5657>

0000000080005bdc <i_5651>:
    80005bdc:	02a00e93          	li	t4,42

0000000080005be0 <i_5652>:
    80005be0:	01de9cb3          	sll	s9,t4,t4

0000000080005be4 <i_5653>:
    80005be4:	00000013          	nop

0000000080005be8 <i_5654>:
    80005be8:	00000013          	nop

0000000080005bec <i_5655>:
    80005bec:	f5415e83          	lhu	t4,-172(sp)

0000000080005bf0 <i_5656>:
    80005bf0:	17c12e83          	lw	t4,380(sp)

0000000080005bf4 <i_5657>:
    80005bf4:	e3513023          	sd	s5,-480(sp)

0000000080005bf8 <i_5658>:
    80005bf8:	01ce75b3          	and	a1,t3,t3

0000000080005bfc <i_5659>:
    80005bfc:	79600f93          	li	t6,1942

0000000080005c00 <i_5660>:
    80005c00:	79c00e13          	li	t3,1948

0000000080005c04 <i_5661>:
    80005c04:	ee914a83          	lbu	s5,-279(sp)

0000000080005c08 <i_5662>:
    80005c08:	004e959b          	slliw	a1,t4,0x4

0000000080005c0c <i_5663>:
    80005c0c:	0eb13c23          	sd	a1,248(sp)

0000000080005c10 <i_5664>:
    80005c10:	02411583          	lh	a1,36(sp)

0000000080005c14 <i_5665>:
    80005c14:	03d5e463          	bltu	a1,t4,80005c3c <i_5674>

0000000080005c18 <i_5666>:
    80005c18:	0cb12223          	sw	a1,196(sp)

0000000080005c1c <i_5667>:
    80005c1c:	001f8f93          	addi	t6,t6,1 # 721001 <main-0x7f8defff>
    80005c20:	ffcfe2e3          	bltu	t6,t3,80005c04 <i_5661>

0000000080005c24 <i_5668>:
    80005c24:	0355b933          	mulhu	s2,a1,s5

0000000080005c28 <i_5669>:
    80005c28:	f1813503          	ld	a0,-232(sp)

0000000080005c2c <i_5670>:
    80005c2c:	fbb10083          	lb	ra,-69(sp)

0000000080005c30 <i_5671>:
    80005c30:	fe016583          	lwu	a1,-32(sp)

0000000080005c34 <i_5672>:
    80005c34:	00259913          	slli	s2,a1,0x2

0000000080005c38 <i_5673>:
    80005c38:	00800593          	li	a1,8

0000000080005c3c <i_5674>:
    80005c3c:	00b91e3b          	sllw	t3,s2,a1

0000000080005c40 <i_5675>:
    80005c40:	02b080b3          	mul	ra,ra,a1

0000000080005c44 <i_5676>:
    80005c44:	012e6a63          	bltu	t3,s2,80005c58 <i_5681>

0000000080005c48 <i_5677>:
    80005c48:	ffa15903          	lhu	s2,-6(sp)

0000000080005c4c <i_5678>:
    80005c4c:	001e4eb3          	xor	t4,t3,ra

0000000080005c50 <i_5679>:
    80005c50:	e3012083          	lw	ra,-464(sp)

0000000080005c54 <i_5680>:
    80005c54:	eac12d03          	lw	s10,-340(sp)

0000000080005c58 <i_5681>:
    80005c58:	00000013          	nop

0000000080005c5c <i_5682>:
    80005c5c:	c25a8193          	addi	gp,s5,-987

0000000080005c60 <i_5683>:
    80005c60:	76600a93          	li	s5,1894

0000000080005c64 <i_5684>:
    80005c64:	76800593          	li	a1,1896

0000000080005c68 <i_5685>:
    80005c68:	00000013          	nop

0000000080005c6c <i_5686>:
    80005c6c:	00395e9b          	srliw	t4,s2,0x3

0000000080005c70 <i_5687>:
    80005c70:	001a8a93          	addi	s5,s5,1
    80005c74:	ff55dae3          	ble	s5,a1,80005c68 <i_5685>

0000000080005c78 <i_5688>:
    80005c78:	01cd0e63          	beq	s10,t3,80005c94 <i_5695>

0000000080005c7c <i_5689>:
    80005c7c:	04b14d03          	lbu	s10,75(sp)

0000000080005c80 <i_5690>:
    80005c80:	03c0f7b3          	remu	a5,ra,t3

0000000080005c84 <i_5691>:
    80005c84:	f8811d83          	lh	s11,-120(sp)

0000000080005c88 <i_5692>:
    80005c88:	06f10e83          	lb	t4,111(sp)

0000000080005c8c <i_5693>:
    80005c8c:	ef411083          	lh	ra,-268(sp)

0000000080005c90 <i_5694>:
    80005c90:	035a8abb          	mulw	s5,s5,s5

0000000080005c94 <i_5695>:
    80005c94:	4037d39b          	sraiw	t2,a5,0x3

0000000080005c98 <i_5696>:
    80005c98:	00200793          	li	a5,2

0000000080005c9c <i_5697>:
    80005c9c:	00f3d7bb          	srlw	a5,t2,a5

0000000080005ca0 <i_5698>:
    80005ca0:	f3013603          	ld	a2,-208(sp)

0000000080005ca4 <i_5699>:
    80005ca4:	0017d39b          	srliw	t2,a5,0x1

0000000080005ca8 <i_5700>:
    80005ca8:	11c15683          	lhu	a3,284(sp)

0000000080005cac <i_5701>:
    80005cac:	02d6c6bb          	divw	a3,a3,a3

0000000080005cb0 <i_5702>:
    80005cb0:	fec13023          	sd	a2,-32(sp)

0000000080005cb4 <i_5703>:
    80005cb4:	e3415f03          	lhu	t5,-460(sp)

0000000080005cb8 <i_5704>:
    80005cb8:	03e7c463          	blt	a5,t5,80005ce0 <i_5714>

0000000080005cbc <i_5705>:
    80005cbc:	02dd67b3          	rem	a5,s10,a3

0000000080005cc0 <i_5706>:
    80005cc0:	f4c11323          	sh	a2,-186(sp)

0000000080005cc4 <i_5707>:
    80005cc4:	00d3ce63          	blt	t2,a3,80005ce0 <i_5714>

0000000080005cc8 <i_5708>:
    80005cc8:	08e15683          	lhu	a3,142(sp)

0000000080005ccc <i_5709>:
    80005ccc:	02ddcdbb          	divw	s11,s11,a3

0000000080005cd0 <i_5710>:
    80005cd0:	0e514503          	lbu	a0,229(sp)

0000000080005cd4 <i_5711>:
    80005cd4:	e1a10303          	lb	t1,-486(sp)

0000000080005cd8 <i_5712>:
    80005cd8:	18a13023          	sd	a0,384(sp)

0000000080005cdc <i_5713>:
    80005cdc:	00e11d23          	sh	a4,26(sp)

0000000080005ce0 <i_5714>:
    80005ce0:	1be15903          	lhu	s2,446(sp)

0000000080005ce4 <i_5715>:
    80005ce4:	00000013          	nop

0000000080005ce8 <i_5716>:
    80005ce8:	1a813383          	ld	t2,424(sp)

0000000080005cec <i_5717>:
    80005cec:	74500d13          	li	s10,1861

0000000080005cf0 <i_5718>:
    80005cf0:	74700693          	li	a3,1863

0000000080005cf4 <i_5719>:
    80005cf4:	40295913          	srai	s2,s2,0x2

0000000080005cf8 <i_5720>:
    80005cf8:	00791e63          	bne	s2,t2,80005d14 <i_5726>

0000000080005cfc <i_5721>:
    80005cfc:	0ff10903          	lb	s2,255(sp)

0000000080005d00 <i_5722>:
    80005d00:	001d0d13          	addi	s10,s10,1 # ffffffffc4555001 <_end+0xffffffff44544bed>
    80005d04:	ffa6d8e3          	ble	s10,a3,80005cf4 <i_5719>

0000000080005d08 <i_5723>:
    80005d08:	08d12023          	sw	a3,128(sp)

0000000080005d0c <i_5724>:
    80005d0c:	e6014303          	lbu	t1,-416(sp)

0000000080005d10 <i_5725>:
    80005d10:	687b4313          	xori	t1,s6,1671

0000000080005d14 <i_5726>:
    80005d14:	0276f333          	remu	t1,a3,t2

0000000080005d18 <i_5727>:
    80005d18:	00000013          	nop

0000000080005d1c <i_5728>:
    80005d1c:	0e613c23          	sd	t1,248(sp)

0000000080005d20 <i_5729>:
    80005d20:	7cd00f13          	li	t5,1997

0000000080005d24 <i_5730>:
    80005d24:	7d900b13          	li	s6,2009

0000000080005d28 <i_5731>:
    80005d28:	01630863          	beq	t1,s6,80005d38 <i_5735>

0000000080005d2c <i_5732>:
    80005d2c:	0165e663          	bltu	a1,s6,80005d38 <i_5735>

0000000080005d30 <i_5733>:
    80005d30:	eb012c03          	lw	s8,-336(sp)

0000000080005d34 <i_5734>:
    80005d34:	f6713823          	sd	t2,-144(sp)

0000000080005d38 <i_5735>:
    80005d38:	bd8a8a93          	addi	s5,s5,-1064

0000000080005d3c <i_5736>:
    80005d3c:	fee10823          	sb	a4,-16(sp)

0000000080005d40 <i_5737>:
    80005d40:	f9313023          	sd	s3,-128(sp)

0000000080005d44 <i_5738>:
    80005d44:	001f0f13          	addi	t5,t5,1
    80005d48:	ff6f10e3          	bne	t5,s6,80005d28 <i_5731>

0000000080005d4c <i_5739>:
    80005d4c:	00000013          	nop

0000000080005d50 <i_5740>:
    80005d50:	e7615f03          	lhu	t5,-394(sp)

0000000080005d54 <i_5741>:
    80005d54:	e4012083          	lw	ra,-448(sp)

0000000080005d58 <i_5742>:
    80005d58:	03d13823          	sd	t4,48(sp)

0000000080005d5c <i_5743>:
    80005d5c:	403adb1b          	sraiw	s6,s5,0x3

0000000080005d60 <i_5744>:
    80005d60:	0bc14c03          	lbu	s8,188(sp)

0000000080005d64 <i_5745>:
    80005d64:	edd10b03          	lb	s6,-291(sp)

0000000080005d68 <i_5746>:
    80005d68:	036b1463          	bne	s6,s6,80005d90 <i_5756>

0000000080005d6c <i_5747>:
    80005d6c:	018c1c63          	bne	s8,s8,80005d84 <i_5753>

0000000080005d70 <i_5748>:
    80005d70:	b3d0eb93          	ori	s7,ra,-1219

0000000080005d74 <i_5749>:
    80005d74:	01713c23          	sd	s7,24(sp)

0000000080005d78 <i_5750>:
    80005d78:	0b413c23          	sd	s4,184(sp)

0000000080005d7c <i_5751>:
    80005d7c:	ff813983          	ld	s3,-8(sp)

0000000080005d80 <i_5752>:
    80005d80:	00411183          	lh	gp,4(sp)

0000000080005d84 <i_5753>:
    80005d84:	17c12a03          	lw	s4,380(sp)

0000000080005d88 <i_5754>:
    80005d88:	01da6a63          	bltu	s4,t4,80005d9c <i_5759>

0000000080005d8c <i_5755>:
    80005d8c:	e7d13823          	sd	t4,-400(sp)

0000000080005d90 <i_5756>:
    80005d90:	fa812083          	lw	ra,-88(sp)

0000000080005d94 <i_5757>:
    80005d94:	023cceb3          	div	t4,s9,gp

0000000080005d98 <i_5758>:
    80005d98:	f6114383          	lbu	t2,-159(sp)

0000000080005d9c <i_5759>:
    80005d9c:	e8311923          	sh	gp,-366(sp)

0000000080005da0 <i_5760>:
    80005da0:	023a5263          	ble	gp,s4,80005dc4 <i_5769>

0000000080005da4 <i_5761>:
    80005da4:	0033fe63          	bleu	gp,t2,80005dc0 <i_5768>

0000000080005da8 <i_5762>:
    80005da8:	f3813383          	ld	t2,-200(sp)

0000000080005dac <i_5763>:
    80005dac:	03f00393          	li	t2,63

0000000080005db0 <i_5764>:
    80005db0:	0073d1b3          	srl	gp,t2,t2

0000000080005db4 <i_5765>:
    80005db4:	01c12b03          	lw	s6,28(sp)

0000000080005db8 <i_5766>:
    80005db8:	18412f03          	lw	t5,388(sp)

0000000080005dbc <i_5767>:
    80005dbc:	09c12b83          	lw	s7,156(sp)

0000000080005dc0 <i_5768>:
    80005dc0:	027bc3b3          	div	t2,s7,t2

0000000080005dc4 <i_5769>:
    80005dc4:	0e213023          	sd	sp,224(sp)

0000000080005dc8 <i_5770>:
    80005dc8:	ed713823          	sd	s7,-304(sp)

0000000080005dcc <i_5771>:
    80005dcc:	08812203          	lw	tp,136(sp)

0000000080005dd0 <i_5772>:
    80005dd0:	02d46463          	bltu	s0,a3,80005df8 <i_5782>

0000000080005dd4 <i_5773>:
    80005dd4:	f4510e03          	lb	t3,-187(sp)

0000000080005dd8 <i_5774>:
    80005dd8:	00291e9b          	slliw	t4,s2,0x2

0000000080005ddc <i_5775>:
    80005ddc:	0143ff33          	and	t5,t2,s4

0000000080005de0 <i_5776>:
    80005de0:	0fd107a3          	sb	t4,239(sp)

0000000080005de4 <i_5777>:
    80005de4:	01e6fcb3          	and	s9,a3,t5

0000000080005de8 <i_5778>:
    80005de8:	00239d1b          	slliw	s10,t2,0x2

0000000080005dec <i_5779>:
    80005dec:	01900093          	li	ra,25

0000000080005df0 <i_5780>:
    80005df0:	001b9a33          	sll	s4,s7,ra

0000000080005df4 <i_5781>:
    80005df4:	00000013          	nop

0000000080005df8 <i_5782>:
    80005df8:	00000013          	nop

0000000080005dfc <i_5783>:
    80005dfc:	4012023b          	subw	tp,tp,ra

0000000080005e00 <i_5784>:
    80005e00:	73e00413          	li	s0,1854

0000000080005e04 <i_5785>:
    80005e04:	74a00f13          	li	t5,1866

0000000080005e08 <i_5786>:
    80005e08:	f0012e83          	lw	t4,-256(sp)

0000000080005e0c <i_5787>:
    80005e0c:	00df0263          	beq	t5,a3,80005e10 <i_5788>

0000000080005e10 <i_5788>:
    80005e10:	0244653b          	remw	a0,s0,tp

0000000080005e14 <i_5789>:
    80005e14:	eb514283          	lbu	t0,-331(sp)

0000000080005e18 <i_5790>:
    80005e18:	00000013          	nop

0000000080005e1c <i_5791>:
    80005e1c:	84600d93          	li	s11,-1978

0000000080005e20 <i_5792>:
    80005e20:	85500693          	li	a3,-1963

0000000080005e24 <i_5793>:
    80005e24:	0b412503          	lw	a0,180(sp)

0000000080005e28 <i_5794>:
    80005e28:	001d8d93          	addi	s11,s11,1
    80005e2c:	feddece3          	bltu	s11,a3,80005e24 <i_5793>

0000000080005e30 <i_5795>:
    80005e30:	03b68063          	beq	a3,s11,80005e50 <i_5802>

0000000080005e34 <i_5796>:
    80005e34:	02d54663          	blt	a0,a3,80005e60 <i_5806>

0000000080005e38 <i_5797>:
    80005e38:	02416603          	lwu	a2,36(sp)

0000000080005e3c <i_5798>:
    80005e3c:	00140413          	addi	s0,s0,1
    80005e40:	fc8f74e3          	bleu	s0,t5,80005e08 <i_5786>

0000000080005e44 <i_5799>:
    80005e44:	02def7bb          	remuw	a5,t4,a3

0000000080005e48 <i_5800>:
    80005e48:	16c12423          	sw	a2,360(sp)

0000000080005e4c <i_5801>:
    80005e4c:	e9310803          	lb	a6,-365(sp)

0000000080005e50 <i_5802>:
    80005e50:	13215603          	lhu	a2,306(sp)

0000000080005e54 <i_5803>:
    80005e54:	ff813683          	ld	a3,-8(sp)

0000000080005e58 <i_5804>:
    80005e58:	03059833          	mulh	a6,a1,a6

0000000080005e5c <i_5805>:
    80005e5c:	01000813          	li	a6,16

0000000080005e60 <i_5806>:
    80005e60:	0108183b          	sllw	a6,a6,a6

0000000080005e64 <i_5807>:
    80005e64:	00000013          	nop

0000000080005e68 <i_5808>:
    80005e68:	89f00393          	li	t2,-1889

0000000080005e6c <i_5809>:
    80005e6c:	8ae00993          	li	s3,-1874

0000000080005e70 <i_5810>:
    80005e70:	00000013          	nop

0000000080005e74 <i_5811>:
    80005e74:	b2782813          	slti	a6,a6,-1241

0000000080005e78 <i_5812>:
    80005e78:	8c700613          	li	a2,-1849

0000000080005e7c <i_5813>:
    80005e7c:	8d400593          	li	a1,-1836

0000000080005e80 <i_5814>:
    80005e80:	f9c12623          	sw	t3,-116(sp)

0000000080005e84 <i_5815>:
    80005e84:	0309e83b          	remw	a6,s3,a6

0000000080005e88 <i_5816>:
    80005e88:	00160613          	addi	a2,a2,1 # 1882d001 <main-0x677d2fff>
    80005e8c:	fec5fae3          	bleu	a2,a1,80005e80 <i_5814>

0000000080005e90 <i_5817>:
    80005e90:	e2f14803          	lbu	a6,-465(sp)

0000000080005e94 <i_5818>:
    80005e94:	0306a6b3          	mulhsu	a3,a3,a6

0000000080005e98 <i_5819>:
    80005e98:	11816c03          	lwu	s8,280(sp)

0000000080005e9c <i_5820>:
    80005e9c:	00500413          	li	s0,5

0000000080005ea0 <i_5821>:
    80005ea0:	0086dd3b          	srlw	s10,a3,s0

0000000080005ea4 <i_5822>:
    80005ea4:	00138393          	addi	t2,t2,1 # 45e05001 <main-0x3a1fafff>
    80005ea8:	fd3394e3          	bne	t2,s3,80005e70 <i_5810>

0000000080005eac <i_5823>:
    80005eac:	33283813          	sltiu	a6,a6,818

0000000080005eb0 <i_5824>:
    80005eb0:	f1c16a03          	lwu	s4,-228(sp)

0000000080005eb4 <i_5825>:
    80005eb4:	02ad0263          	beq	s10,a0,80005ed8 <i_5834>

0000000080005eb8 <i_5826>:
    80005eb8:	1a8102a3          	sb	s0,421(sp)

0000000080005ebc <i_5827>:
    80005ebc:	01200513          	li	a0,18

0000000080005ec0 <i_5828>:
    80005ec0:	40a8543b          	sraw	s0,a6,a0

0000000080005ec4 <i_5829>:
    80005ec4:	0e812023          	sw	s0,224(sp)

0000000080005ec8 <i_5830>:
    80005ec8:	00945c63          	ble	s1,s0,80005ee0 <i_5836>

0000000080005ecc <i_5831>:
    80005ecc:	00957863          	bleu	s1,a0,80005edc <i_5835>

0000000080005ed0 <i_5832>:
    80005ed0:	008d4e63          	blt	s10,s0,80005eec <i_5839>

0000000080005ed4 <i_5833>:
    80005ed4:	0349c263          	blt	s3,s4,80005ef8 <i_5842>

0000000080005ed8 <i_5834>:
    80005ed8:	e9013823          	sd	a6,-368(sp)

0000000080005edc <i_5835>:
    80005edc:	03ca4063          	blt	s4,t3,80005efc <i_5843>

0000000080005ee0 <i_5836>:
    80005ee0:	00a47e63          	bleu	a0,s0,80005efc <i_5843>

0000000080005ee4 <i_5837>:
    80005ee4:	01a13423          	sd	s10,8(sp)

0000000080005ee8 <i_5838>:
    80005ee8:	e8c16e03          	lwu	t3,-372(sp)

0000000080005eec <i_5839>:
    80005eec:	10813f83          	ld	t6,264(sp)

0000000080005ef0 <i_5840>:
    80005ef0:	00e57663          	bleu	a4,a0,80005efc <i_5843>

0000000080005ef4 <i_5841>:
    80005ef4:	01cf9e63          	bne	t6,t3,80005f10 <i_5848>

0000000080005ef8 <i_5842>:
    80005ef8:	14a11723          	sh	a0,334(sp)

0000000080005efc <i_5843>:
    80005efc:	002e1f9b          	slliw	t6,t3,0x2

0000000080005f00 <i_5844>:
    80005f00:	15210a23          	sb	s2,340(sp)

0000000080005f04 <i_5845>:
    80005f04:	03c51463          	bne	a0,t3,80005f2c <i_5855>

0000000080005f08 <i_5846>:
    80005f08:	f5f10f23          	sb	t6,-162(sp)

0000000080005f0c <i_5847>:
    80005f0c:	02300413          	li	s0,35

0000000080005f10 <i_5848>:
    80005f10:	00845eb3          	srl	t4,s0,s0

0000000080005f14 <i_5849>:
    80005f14:	09813983          	ld	s3,152(sp)

0000000080005f18 <i_5850>:
    80005f18:	419e8cb3          	sub	s9,t4,s9

0000000080005f1c <i_5851>:
    80005f1c:	029fe063          	bltu	t6,s1,80005f3c <i_5859>

0000000080005f20 <i_5852>:
    80005f20:	08013983          	ld	s3,128(sp)

0000000080005f24 <i_5853>:
    80005f24:	b899ba93          	sltiu	s5,s3,-1143

0000000080005f28 <i_5854>:
    80005f28:	01848ab3          	add	s5,s1,s8

0000000080005f2c <i_5855>:
    80005f2c:	00000013          	nop

0000000080005f30 <i_5856>:
    80005f30:	f7c16983          	lwu	s3,-132(sp)

0000000080005f34 <i_5857>:
    80005f34:	033ac23b          	divw	tp,s5,s3

0000000080005f38 <i_5858>:
    80005f38:	03540ab3          	mul	s5,s0,s5

0000000080005f3c <i_5859>:
    80005f3c:	2f296497          	auipc	s1,0x2f296

0000000080005f40 <i_5860>:
    80005f40:	00000013          	nop

0000000080005f44 <i_5861>:
    80005f44:	86300e93          	li	t4,-1949

0000000080005f48 <i_5862>:
    80005f48:	86b00c13          	li	s8,-1941

0000000080005f4c <i_5863>:
    80005f4c:	001e8e93          	addi	t4,t4,1
    80005f50:	ff8e9ee3          	bne	t4,s8,80005f4c <i_5863>

0000000080005f54 <i_5864>:
    80005f54:	03b00313          	li	t1,59

0000000080005f58 <i_5865>:
    80005f58:	4064d4b3          	sra	s1,s1,t1

0000000080005f5c <i_5866>:
    80005f5c:	031bfbb3          	remu	s7,s7,a7

0000000080005f60 <i_5867>:
    80005f60:	e7d12223          	sw	t4,-412(sp)

0000000080005f64 <i_5868>:
    80005f64:	fe611323          	sh	t1,-26(sp)

0000000080005f68 <i_5869>:
    80005f68:	006b89b3          	add	s3,s7,t1

0000000080005f6c <i_5870>:
    80005f6c:	12913423          	sd	s1,296(sp)

0000000080005f70 <i_5871>:
    80005f70:	0f013283          	ld	t0,240(sp)

0000000080005f74 <i_5872>:
    80005f74:	03431333          	mulh	t1,t1,s4

0000000080005f78 <i_5873>:
    80005f78:	025080b3          	mul	ra,ra,t0

0000000080005f7c <i_5874>:
    80005f7c:	dc72e313          	ori	t1,t0,-569

0000000080005f80 <i_5875>:
    80005f80:	0330b333          	mulhu	t1,ra,s3

0000000080005f84 <i_5876>:
    80005f84:	0069d663          	ble	t1,s3,80005f90 <i_5879>

0000000080005f88 <i_5877>:
    80005f88:	d0f9829b          	addiw	t0,s3,-753

0000000080005f8c <i_5878>:
    80005f8c:	0c013403          	ld	s0,192(sp)

0000000080005f90 <i_5879>:
    80005f90:	14012983          	lw	s3,320(sp)

0000000080005f94 <i_5880>:
    80005f94:	0339e43b          	remw	s0,s3,s3

0000000080005f98 <i_5881>:
    80005f98:	18811a23          	sh	s0,404(sp)

0000000080005f9c <i_5882>:
    80005f9c:	0339e263          	bltu	s3,s3,80005fc0 <i_5891>

0000000080005fa0 <i_5883>:
    80005fa0:	0b214983          	lbu	s3,178(sp)

0000000080005fa4 <i_5884>:
    80005fa4:	12015403          	lhu	s0,288(sp)

0000000080005fa8 <i_5885>:
    80005fa8:	dc19fb93          	andi	s7,s3,-575

0000000080005fac <i_5886>:
    80005fac:	f5211303          	lh	t1,-174(sp)

0000000080005fb0 <i_5887>:
    80005fb0:	40335993          	srai	s3,t1,0x3

0000000080005fb4 <i_5888>:
    80005fb4:	00000013          	nop

0000000080005fb8 <i_5889>:
    80005fb8:	00000013          	nop

0000000080005fbc <i_5890>:
    80005fbc:	f1312a23          	sw	s3,-236(sp)

0000000080005fc0 <i_5891>:
    80005fc0:	00000013          	nop

0000000080005fc4 <i_5892>:
    80005fc4:	00000013          	nop

0000000080005fc8 <i_5893>:
    80005fc8:	7f500993          	li	s3,2037

0000000080005fcc <i_5894>:
    80005fcc:	7f700613          	li	a2,2039

0000000080005fd0 <i_5895>:
    80005fd0:	1a211183          	lh	gp,418(sp)

0000000080005fd4 <i_5896>:
    80005fd4:	03500c93          	li	s9,53

0000000080005fd8 <i_5897>:
    80005fd8:	419350b3          	sra	ra,t1,s9

0000000080005fdc <i_5898>:
    80005fdc:	13713c23          	sd	s7,312(sp)

0000000080005fe0 <i_5899>:
    80005fe0:	04310623          	sb	gp,76(sp)

0000000080005fe4 <i_5900>:
    80005fe4:	00198993          	addi	s3,s3,1
    80005fe8:	ff3654e3          	ble	s3,a2,80005fd0 <i_5895>

0000000080005fec <i_5901>:
    80005fec:	023be463          	bltu	s7,gp,80006014 <i_5911>

0000000080005ff0 <i_5902>:
    80005ff0:	dd0fdeb7          	lui	t4,0xdd0fd

0000000080005ff4 <i_5903>:
    80005ff4:	10310ba3          	sb	gp,279(sp)

0000000080005ff8 <i_5904>:
    80005ff8:	04015a83          	lhu	s5,64(sp)

0000000080005ffc <i_5905>:
    80005ffc:	0359f263          	bleu	s5,s3,80006020 <i_5914>

0000000080006000 <i_5906>:
    80006000:	0010dc9b          	srliw	s9,ra,0x1

0000000080006004 <i_5907>:
    80006004:	02b0a833          	mulhsu	a6,ra,a1

0000000080006008 <i_5908>:
    80006008:	e5214e03          	lbu	t3,-430(sp)

000000008000600c <i_5909>:
    8000600c:	03600e93          	li	t4,54

0000000080006010 <i_5910>:
    80006010:	01dc9433          	sll	s0,s9,t4

0000000080006014 <i_5911>:
    80006014:	eb112a23          	sw	a7,-332(sp)

0000000080006018 <i_5912>:
    80006018:	00000013          	nop

000000008000601c <i_5913>:
    8000601c:	00000013          	nop

0000000080006020 <i_5914>:
    80006020:	00498e33          	add	t3,s3,tp

0000000080006024 <i_5915>:
    80006024:	03200e93          	li	t4,50

0000000080006028 <i_5916>:
    80006028:	41d351b3          	sra	gp,t1,t4

000000008000602c <i_5917>:
    8000602c:	81700c13          	li	s8,-2025

0000000080006030 <i_5918>:
    80006030:	82300993          	li	s3,-2013

0000000080006034 <i_5919>:
    80006034:	fdd10183          	lb	gp,-35(sp)

0000000080006038 <i_5920>:
    80006038:	0061a333          	slt	t1,gp,t1

000000008000603c <i_5921>:
    8000603c:	0023181b          	slliw	a6,t1,0x2

0000000080006040 <i_5922>:
    80006040:	12611e23          	sh	t1,316(sp)

0000000080006044 <i_5923>:
    80006044:	00000013          	nop

0000000080006048 <i_5924>:
    80006048:	0031c6b3          	xor	a3,gp,gp

000000008000604c <i_5925>:
    8000604c:	001c0c13          	addi	s8,s8,1 # 4f4dca29 <main-0x30b235d7>
    80006050:	ff3c10e3          	bne	s8,s3,80006030 <i_5918>

0000000080006054 <i_5926>:
    80006054:	e2314183          	lbu	gp,-477(sp)

0000000080006058 <i_5927>:
    80006058:	402f5f13          	srai	t5,t5,0x2

000000008000605c <i_5928>:
    8000605c:	f8815603          	lhu	a2,-120(sp)

0000000080006060 <i_5929>:
    80006060:	e0911c23          	sh	s1,-488(sp)

0000000080006064 <i_5930>:
    80006064:	401edf1b          	sraiw	t5,t4,0x1

0000000080006068 <i_5931>:
    80006068:	0f416783          	lwu	a5,244(sp)

000000008000606c <i_5932>:
    8000606c:	03400c93          	li	s9,52

0000000080006070 <i_5933>:
    80006070:	019791b3          	sll	gp,a5,s9

0000000080006074 <i_5934>:
    80006074:	59a77937          	lui	s2,0x59a77

0000000080006078 <i_5935>:
    80006078:	00f13823          	sd	a5,16(sp)

000000008000607c <i_5936>:
    8000607c:	0197a633          	slt	a2,a5,s9

0000000080006080 <i_5937>:
    80006080:	0121dc63          	ble	s2,gp,80006098 <i_5943>

0000000080006084 <i_5938>:
    80006084:	00879463          	bne	a5,s0,8000608c <i_5940>

0000000080006088 <i_5939>:
    80006088:	023cb1b3          	mulhu	gp,s9,gp

000000008000608c <i_5940>:
    8000608c:	ef816d83          	lwu	s11,-264(sp)

0000000080006090 <i_5941>:
    80006090:	fbb107a3          	sb	s11,-81(sp)

0000000080006094 <i_5942>:
    80006094:	f8412b03          	lw	s6,-124(sp)

0000000080006098 <i_5943>:
    80006098:	03b977bb          	remuw	a5,s2,s11

000000008000609c <i_5944>:
    8000609c:	01bcdc63          	ble	s11,s9,800060b4 <i_5950>

00000000800060a0 <i_5945>:
    800060a0:	f3415383          	lhu	t2,-204(sp)

00000000800060a4 <i_5946>:
    800060a4:	e2311123          	sh	gp,-478(sp)

00000000800060a8 <i_5947>:
    800060a8:	02733933          	mulhu	s2,t1,t2

00000000800060ac <i_5948>:
    800060ac:	eb415d83          	lhu	s11,-332(sp)

00000000800060b0 <i_5949>:
    800060b0:	03bcb633          	mulhu	a2,s9,s11

00000000800060b4 <i_5950>:
    800060b4:	e5211903          	lh	s2,-430(sp)

00000000800060b8 <i_5951>:
    800060b8:	ff011c83          	lh	s9,-16(sp)

00000000800060bc <i_5952>:
    800060bc:	fad14303          	lbu	t1,-83(sp)

00000000800060c0 <i_5953>:
    800060c0:	03bcd063          	ble	s11,s9,800060e0 <i_5961>

00000000800060c4 <i_5954>:
    800060c4:	05013c83          	ld	s9,80(sp)

00000000800060c8 <i_5955>:
    800060c8:	11a14983          	lbu	s3,282(sp)

00000000800060cc <i_5956>:
    800060cc:	009cc4b3          	xor	s1,s9,s1

00000000800060d0 <i_5957>:
    800060d0:	fcc16183          	lwu	gp,-52(sp)

00000000800060d4 <i_5958>:
    800060d4:	0399d463          	ble	s9,s3,800060fc <i_5968>

00000000800060d8 <i_5959>:
    800060d8:	18a12c23          	sw	a0,408(sp)

00000000800060dc <i_5960>:
    800060dc:	06813783          	ld	a5,104(sp)

00000000800060e0 <i_5961>:
    800060e0:	f5812383          	lw	t2,-168(sp)

00000000800060e4 <i_5962>:
    800060e4:	05816783          	lwu	a5,88(sp)

00000000800060e8 <i_5963>:
    800060e8:	00000013          	nop

00000000800060ec <i_5964>:
    800060ec:	f6f13023          	sd	a5,-160(sp)

00000000800060f0 <i_5965>:
    800060f0:	19314783          	lbu	a5,403(sp)

00000000800060f4 <i_5966>:
    800060f4:	12313423          	sd	gp,296(sp)

00000000800060f8 <i_5967>:
    800060f8:	eae14183          	lbu	gp,-338(sp)

00000000800060fc <i_5968>:
    800060fc:	0024979b          	slliw	a5,s1,0x2

0000000080006100 <i_5969>:
    80006100:	00000013          	nop

0000000080006104 <i_5970>:
    80006104:	84500993          	li	s3,-1979

0000000080006108 <i_5971>:
    80006108:	84e00493          	li	s1,-1970

000000008000610c <i_5972>:
    8000610c:	00920663          	beq	tp,s1,80006118 <i_5975>

0000000080006110 <i_5973>:
    80006110:	0b415d03          	lhu	s10,180(sp)

0000000080006114 <i_5974>:
    80006114:	03a1b633          	mulhu	a2,gp,s10

0000000080006118 <i_5975>:
    80006118:	02c7d7b3          	divu	a5,a5,a2

000000008000611c <i_5976>:
    8000611c:	03a7f6b3          	remu	a3,a5,s10

0000000080006120 <i_5977>:
    80006120:	00198993          	addi	s3,s3,1
    80006124:	fe9994e3          	bne	s3,s1,8000610c <i_5972>

0000000080006128 <i_5978>:
    80006128:	12810b83          	lb	s7,296(sp)

000000008000612c <i_5979>:
    8000612c:	02110d3b          	mulw	s10,sp,ra

0000000080006130 <i_5980>:
    80006130:	03abe263          	bltu	s7,s10,80006154 <i_5989>

0000000080006134 <i_5981>:
    80006134:	0347f263          	bleu	s4,a5,80006158 <i_5990>

0000000080006138 <i_5982>:
    80006138:	622d2493          	slti	s1,s10,1570

000000008000613c <i_5983>:
    8000613c:	02f00e13          	li	t3,47

0000000080006140 <i_5984>:
    80006140:	01cbde33          	srl	t3,s7,t3

0000000080006144 <i_5985>:
    80006144:	b74d8d9b          	addiw	s11,s11,-1164

0000000080006148 <i_5986>:
    80006148:	009e5263          	ble	s1,t3,8000614c <i_5987>

000000008000614c <i_5987>:
    8000614c:	033df4b3          	remu	s1,s11,s3

0000000080006150 <i_5988>:
    80006150:	00b16863          	bltu	sp,a1,80006160 <i_5992>

0000000080006154 <i_5989>:
    80006154:	ec012403          	lw	s0,-320(sp)

0000000080006158 <i_5990>:
    80006158:	01b13023          	sd	s11,0(sp)

000000008000615c <i_5991>:
    8000615c:	0c912c23          	sw	s1,216(sp)

0000000080006160 <i_5992>:
    80006160:	17415383          	lhu	t2,372(sp)

0000000080006164 <i_5993>:
    80006164:	0a9100a3          	sb	s1,161(sp)

0000000080006168 <i_5994>:
    80006168:	7e100493          	li	s1,2017

000000008000616c <i_5995>:
    8000616c:	7e300913          	li	s2,2019

0000000080006170 <i_5996>:
    80006170:	07416d83          	lwu	s11,116(sp)

0000000080006174 <i_5997>:
    80006174:	3543059b          	addiw	a1,t1,852

0000000080006178 <i_5998>:
    80006178:	80900313          	li	t1,-2039

000000008000617c <i_5999>:
    8000617c:	81300b13          	li	s6,-2029

0000000080006180 <i_6000>:
    80006180:	41248a33          	sub	s4,s1,s2

0000000080006184 <i_6001>:
    80006184:	19012503          	lw	a0,400(sp)

0000000080006188 <i_6002>:
    80006188:	00130313          	addi	t1,t1,1 # 121e4fbd <main-0x6de1b043>
    8000618c:	fe6b5ae3          	ble	t1,s6,80006180 <i_6000>

0000000080006190 <i_6003>:
    80006190:	1a811f23          	sh	s0,446(sp)

0000000080006194 <i_6004>:
    80006194:	ed011403          	lh	s0,-304(sp)

0000000080006198 <i_6005>:
    80006198:	00148493          	addi	s1,s1,1 # af29bf3d <_end+0x2f28bb29>
    8000619c:	fd249ae3          	bne	s1,s2,80006170 <i_5996>

00000000800061a0 <i_6006>:
    800061a0:	f1412c23          	sw	s4,-232(sp)

00000000800061a4 <i_6007>:
    800061a4:	03454463          	blt	a0,s4,800061cc <i_6017>

00000000800061a8 <i_6008>:
    800061a8:	02d00093          	li	ra,45

00000000800061ac <i_6009>:
    800061ac:	0015d5b3          	srl	a1,a1,ra

00000000800061b0 <i_6010>:
    800061b0:	f2611a03          	lh	s4,-218(sp)

00000000800061b4 <i_6011>:
    800061b4:	f2a57c13          	andi	s8,a0,-214

00000000800061b8 <i_6012>:
    800061b8:	f0110fa3          	sb	ra,-225(sp)

00000000800061bc <i_6013>:
    800061bc:	015a4663          	blt	s4,s5,800061c8 <i_6016>

00000000800061c0 <i_6014>:
    800061c0:	0d714503          	lbu	a0,215(sp)

00000000800061c4 <i_6015>:
    800061c4:	03485633          	divu	a2,a6,s4

00000000800061c8 <i_6016>:
    800061c8:	0085dc63          	ble	s0,a1,800061e0 <i_6022>

00000000800061cc <i_6017>:
    800061cc:	0d010583          	lb	a1,208(sp)

00000000800061d0 <i_6018>:
    800061d0:	10c11323          	sh	a2,262(sp)

00000000800061d4 <i_6019>:
    800061d4:	5466099b          	addiw	s3,a2,1350

00000000800061d8 <i_6020>:
    800061d8:	1d110903          	lb	s2,465(sp)

00000000800061dc <i_6021>:
    800061dc:	11013c03          	ld	s8,272(sp)

00000000800061e0 <i_6022>:
    800061e0:	00bc7633          	and	a2,s8,a1

00000000800061e4 <i_6023>:
    800061e4:	0b812783          	lw	a5,184(sp)

00000000800061e8 <i_6024>:
    800061e8:	02c674b3          	remu	s1,a2,a2

00000000800061ec <i_6025>:
    800061ec:	20c4f493          	andi	s1,s1,524

00000000800061f0 <i_6026>:
    800061f0:	fd364813          	xori	a6,a2,-45

00000000800061f4 <i_6027>:
    800061f4:	012935b3          	sltu	a1,s2,s2

00000000800061f8 <i_6028>:
    800061f8:	0335f263          	bleu	s3,a1,8000621c <i_6037>

00000000800061fc <i_6029>:
    800061fc:	e5015983          	lhu	s3,-432(sp)

0000000080006200 <i_6030>:
    80006200:	f5412083          	lw	ra,-172(sp)

0000000080006204 <i_6031>:
    80006204:	0339e23b          	remw	tp,s3,s3

0000000080006208 <i_6032>:
    80006208:	f3310723          	sb	s3,-210(sp)

000000008000620c <i_6033>:
    8000620c:	08e14983          	lbu	s3,142(sp)

0000000080006210 <i_6034>:
    80006210:	1b014083          	lbu	ra,432(sp)

0000000080006214 <i_6035>:
    80006214:	ff011f23          	sh	a6,-2(sp)

0000000080006218 <i_6036>:
    80006218:	d759ef13          	ori	t5,s3,-651

000000008000621c <i_6037>:
    8000621c:	fc813803          	ld	a6,-56(sp)

0000000080006220 <i_6038>:
    80006220:	f7010923          	sb	a6,-142(sp)

0000000080006224 <i_6039>:
    80006224:	03e80d3b          	mulw	s10,a6,t5

0000000080006228 <i_6040>:
    80006228:	f7c16803          	lwu	a6,-132(sp)

000000008000622c <i_6041>:
    8000622c:	fe810d03          	lb	s10,-24(sp)

0000000080006230 <i_6042>:
    80006230:	00000013          	nop

0000000080006234 <i_6043>:
    80006234:	e5011523          	sh	a6,-438(sp)

0000000080006238 <i_6044>:
    80006238:	87e00993          	li	s3,-1922

000000008000623c <i_6045>:
    8000623c:	88600393          	li	t2,-1914

0000000080006240 <i_6046>:
    80006240:	02786533          	rem	a0,a6,t2

0000000080006244 <i_6047>:
    80006244:	00000013          	nop

0000000080006248 <i_6048>:
    80006248:	73000e13          	li	t3,1840

000000008000624c <i_6049>:
    8000624c:	73c00813          	li	a6,1852

0000000080006250 <i_6050>:
    80006250:	f3e12423          	sw	t5,-216(sp)

0000000080006254 <i_6051>:
    80006254:	01381463          	bne	a6,s3,8000625c <i_6053>

0000000080006258 <i_6052>:
    80006258:	02a8663b          	remw	a2,a6,a0

000000008000625c <i_6053>:
    8000625c:	002c551b          	srliw	a0,s8,0x2

0000000080006260 <i_6054>:
    80006260:	e6d14a83          	lbu	s5,-403(sp)

0000000080006264 <i_6055>:
    80006264:	0277e63b          	remw	a2,a5,t2

0000000080006268 <i_6056>:
    80006268:	001e0e13          	addi	t3,t3,1 # d98f20f1 <_end+0x598e1cdd>
    8000626c:	ffc872e3          	bleu	t3,a6,80006250 <i_6050>

0000000080006270 <i_6057>:
    80006270:	01ee0c33          	add	s8,t3,t5

0000000080006274 <i_6058>:
    80006274:	e7611e03          	lh	t3,-394(sp)

0000000080006278 <i_6059>:
    80006278:	035e60bb          	remw	ra,t3,s5

000000008000627c <i_6060>:
    8000627c:	00198993          	addi	s3,s3,1
    80006280:	fc79c0e3          	blt	s3,t2,80006240 <i_6046>

0000000080006284 <i_6061>:
    80006284:	f7013f03          	ld	t5,-144(sp)

0000000080006288 <i_6062>:
    80006288:	0359eabb          	remw	s5,s3,s5

000000008000628c <i_6063>:
    8000628c:	f0112623          	sw	ra,-244(sp)

0000000080006290 <i_6064>:
    80006290:	19512023          	sw	s5,384(sp)

0000000080006294 <i_6065>:
    80006294:	fc411c23          	sh	tp,-40(sp)

0000000080006298 <i_6066>:
    80006298:	11c11503          	lh	a0,284(sp)

000000008000629c <i_6067>:
    8000629c:	02cb7463          	bleu	a2,s6,800062c4 <i_6077>

00000000800062a0 <i_6068>:
    800062a0:	e430a093          	slti	ra,ra,-445

00000000800062a4 <i_6069>:
    800062a4:	01b10e63          	beq	sp,s11,800062c0 <i_6076>

00000000800062a8 <i_6070>:
    800062a8:	0210c63b          	divw	a2,ra,ra

00000000800062ac <i_6071>:
    800062ac:	aa7a2d97          	auipc	s11,0xaa7a2

00000000800062b0 <i_6072>:
    800062b0:	02615303          	lhu	t1,38(sp)

00000000800062b4 <i_6073>:
    800062b4:	0010fdb3          	and	s11,ra,ra

00000000800062b8 <i_6074>:
    800062b8:	00000013          	nop

00000000800062bc <i_6075>:
    800062bc:	fab14803          	lbu	a6,-85(sp)

00000000800062c0 <i_6076>:
    800062c0:	f3112c23          	sw	a7,-200(sp)

00000000800062c4 <i_6077>:
    800062c4:	e6e11683          	lh	a3,-402(sp)

00000000800062c8 <i_6078>:
    800062c8:	1b010123          	sb	a6,418(sp)

00000000800062cc <i_6079>:
    800062cc:	72d00f13          	li	t5,1837

00000000800062d0 <i_6080>:
    800062d0:	73c00093          	li	ra,1852

00000000800062d4 <i_6081>:
    800062d4:	e3412283          	lw	t0,-460(sp)

00000000800062d8 <i_6082>:
    800062d8:	0294b4b3          	mulhu	s1,s1,s1

00000000800062dc <i_6083>:
    800062dc:	18510403          	lb	s0,389(sp)

00000000800062e0 <i_6084>:
    800062e0:	02210c83          	lb	s9,34(sp)

00000000800062e4 <i_6085>:
    800062e4:	eac15283          	lhu	t0,-340(sp)

00000000800062e8 <i_6086>:
    800062e8:	18416403          	lwu	s0,388(sp)

00000000800062ec <i_6087>:
    800062ec:	f1113423          	sd	a7,-248(sp)

00000000800062f0 <i_6088>:
    800062f0:	0351eabb          	remw	s5,gp,s5

00000000800062f4 <i_6089>:
    800062f4:	001f0f13          	addi	t5,t5,1
    800062f8:	fde0dee3          	ble	t5,ra,800062d4 <i_6081>

00000000800062fc <i_6090>:
    800062fc:	10812083          	lw	ra,264(sp)

0000000080006300 <i_6091>:
    80006300:	1c816a83          	lwu	s5,456(sp)

0000000080006304 <i_6092>:
    80006304:	0350d833          	divu	a6,ra,s5

0000000080006308 <i_6093>:
    80006308:	06c14803          	lbu	a6,108(sp)

000000008000630c <i_6094>:
    8000630c:	d0c86093          	ori	ra,a6,-756

0000000080006310 <i_6095>:
    80006310:	01384463          	blt	a6,s3,80006318 <i_6097>

0000000080006314 <i_6096>:
    80006314:	0cc16783          	lwu	a5,204(sp)

0000000080006318 <i_6097>:
    80006318:	00f81863          	bne	a6,a5,80006328 <i_6101>

000000008000631c <i_6098>:
    8000631c:	0030be33          	sltu	t3,ra,gp

0000000080006320 <i_6099>:
    80006320:	15615e03          	lhu	t3,342(sp)

0000000080006324 <i_6100>:
    80006324:	00000013          	nop

0000000080006328 <i_6101>:
    80006328:	02400d13          	li	s10,36

000000008000632c <i_6102>:
    8000632c:	01a21e33          	sll	t3,tp,s10

0000000080006330 <i_6103>:
    80006330:	82100813          	li	a6,-2015

0000000080006334 <i_6104>:
    80006334:	83500093          	li	ra,-1995

0000000080006338 <i_6105>:
    80006338:	01a7c263          	blt	a5,s10,8000633c <i_6106>

000000008000633c <i_6106>:
    8000633c:	00000013          	nop

0000000080006340 <i_6107>:
    80006340:	00200d13          	li	s10,2

0000000080006344 <i_6108>:
    80006344:	01a099bb          	sllw	s3,ra,s10

0000000080006348 <i_6109>:
    80006348:	03ae4063          	blt	t3,s10,80006368 <i_6116>

000000008000634c <i_6110>:
    8000634c:	00180813          	addi	a6,a6,1
    80006350:	ff00d4e3          	ble	a6,ra,80006338 <i_6105>

0000000080006354 <i_6111>:
    80006354:	efa15783          	lhu	a5,-262(sp)

0000000080006358 <i_6112>:
    80006358:	40315393          	srai	t2,sp,0x3

000000008000635c <i_6113>:
    8000635c:	01caec63          	bltu	s5,t3,80006374 <i_6119>

0000000080006360 <i_6114>:
    80006360:	03b00313          	li	t1,59

0000000080006364 <i_6115>:
    80006364:	4063df33          	sra	t5,t2,t1

0000000080006368 <i_6116>:
    80006368:	003a9293          	slli	t0,s5,0x3

000000008000636c <i_6117>:
    8000636c:	16611123          	sh	t1,354(sp)

0000000080006370 <i_6118>:
    80006370:	0aa100a3          	sb	a0,161(sp)

0000000080006374 <i_6119>:
    80006374:	0153e0b3          	or	ra,t2,s5

0000000080006378 <i_6120>:
    80006378:	19816c83          	lwu	s9,408(sp)

000000008000637c <i_6121>:
    8000637c:	4040d693          	srai	a3,ra,0x4

0000000080006380 <i_6122>:
    80006380:	e8b10b83          	lb	s7,-373(sp)

0000000080006384 <i_6123>:
    80006384:	e3615283          	lhu	t0,-458(sp)

0000000080006388 <i_6124>:
    80006388:	0276f3b3          	remu	t2,a3,t2

000000008000638c <i_6125>:
    8000638c:	007bc1b3          	xor	gp,s7,t2

0000000080006390 <i_6126>:
    80006390:	0271f1bb          	remuw	gp,gp,t2

0000000080006394 <i_6127>:
    80006394:	10ce7e17          	auipc	t3,0x10ce7

0000000080006398 <i_6128>:
    80006398:	00699c63          	bne	s3,t1,800063b0 <i_6134>

000000008000639c <i_6129>:
    8000639c:	ac83e393          	ori	t2,t2,-1336

00000000800063a0 <i_6130>:
    800063a0:	0012de63          	ble	ra,t0,800063bc <i_6137>

00000000800063a4 <i_6131>:
    800063a4:	02728263          	beq	t0,t2,800063c8 <i_6140>

00000000800063a8 <i_6132>:
    800063a8:	01d1f863          	bleu	t4,gp,800063b8 <i_6136>

00000000800063ac <i_6133>:
    800063ac:	035be263          	bltu	s7,s5,800063d0 <i_6142>

00000000800063b0 <i_6134>:
    800063b0:	ff813b83          	ld	s7,-8(sp)

00000000800063b4 <i_6135>:
    800063b4:	0300dab3          	divu	s5,ra,a6

00000000800063b8 <i_6136>:
    800063b8:	0271ab33          	mulhsu	s6,gp,t2

00000000800063bc <i_6137>:
    800063bc:	05913823          	sd	s9,80(sp)

00000000800063c0 <i_6138>:
    800063c0:	0361f063          	bleu	s6,gp,800063e0 <i_6146>

00000000800063c4 <i_6139>:
    800063c4:	023a92b3          	mulh	t0,s5,gp

00000000800063c8 <i_6140>:
    800063c8:	0273e7b3          	rem	a5,t2,t2

00000000800063cc <i_6141>:
    800063cc:	ef211383          	lh	t2,-270(sp)

00000000800063d0 <i_6142>:
    800063d0:	00900a93          	li	s5,9

00000000800063d4 <i_6143>:
    800063d4:	415e5f3b          	sraw	t5,t3,s5

00000000800063d8 <i_6144>:
    800063d8:	f1414303          	lbu	t1,-236(sp)

00000000800063dc <i_6145>:
    800063dc:	ecd11023          	sh	a3,-320(sp)

00000000800063e0 <i_6146>:
    800063e0:	037f01bb          	mulw	gp,t5,s7

00000000800063e4 <i_6147>:
    800063e4:	0fa100a3          	sb	s10,225(sp)

00000000800063e8 <i_6148>:
    800063e8:	f2c11583          	lh	a1,-212(sp)

00000000800063ec <i_6149>:
    800063ec:	02485333          	divu	t1,a6,tp

00000000800063f0 <i_6150>:
    800063f0:	02d852bb          	divuw	t0,a6,a3

00000000800063f4 <i_6151>:
    800063f4:	10012b03          	lw	s6,256(sp)

00000000800063f8 <i_6152>:
    800063f8:	f7a10503          	lb	a0,-134(sp)

00000000800063fc <i_6153>:
    800063fc:	ee416483          	lwu	s1,-284(sp)

0000000080006400 <i_6154>:
    80006400:	00a00513          	li	a0,10

0000000080006404 <i_6155>:
    80006404:	40a554b3          	sra	s1,a0,a0

0000000080006408 <i_6156>:
    80006408:	7b200a13          	li	s4,1970

000000008000640c <i_6157>:
    8000640c:	7bf00b13          	li	s6,1983

0000000080006410 <i_6158>:
    80006410:	1e510503          	lb	a0,485(sp)

0000000080006414 <i_6159>:
    80006414:	034a433b          	divw	t1,s4,s4

0000000080006418 <i_6160>:
    80006418:	01454533          	xor	a0,a0,s4

000000008000641c <i_6161>:
    8000641c:	00a6fa63          	bleu	a0,a3,80006430 <i_6166>

0000000080006420 <i_6162>:
    80006420:	e0352513          	slti	a0,a0,-509

0000000080006424 <i_6163>:
    80006424:	0264adb3          	mulhsu	s11,s1,t1

0000000080006428 <i_6164>:
    80006428:	034237b3          	mulhu	a5,tp,s4

000000008000642c <i_6165>:
    8000642c:	fa816183          	lwu	gp,-88(sp)

0000000080006430 <i_6166>:
    80006430:	e337a793          	slti	a5,a5,-461

0000000080006434 <i_6167>:
    80006434:	01700993          	li	s3,23

0000000080006438 <i_6168>:
    80006438:	0137d53b          	srlw	a0,a5,s3

000000008000643c <i_6169>:
    8000643c:	00000013          	nop

0000000080006440 <i_6170>:
    80006440:	02412983          	lw	s3,36(sp)

0000000080006444 <i_6171>:
    80006444:	0237f663          	bleu	gp,a5,80006470 <i_6181>

0000000080006448 <i_6172>:
    80006448:	001a0a13          	addi	s4,s4,1
    8000644c:	fd6a60e3          	bltu	s4,s6,8000640c <i_6157>

0000000080006450 <i_6173>:
    80006450:	033f09b3          	mul	s3,t5,s3

0000000080006454 <i_6174>:
    80006454:	00000013          	nop

0000000080006458 <i_6175>:
    80006458:	00000013          	nop

000000008000645c <i_6176>:
    8000645c:	00100393          	li	t2,1

0000000080006460 <i_6177>:
    80006460:	00755f3b          	srlw	t5,a0,t2

0000000080006464 <i_6178>:
    80006464:	41e6063b          	subw	a2,a2,t5

0000000080006468 <i_6179>:
    80006468:	00cf0bb3          	add	s7,t5,a2

000000008000646c <i_6180>:
    8000646c:	48ef6b93          	ori	s7,t5,1166

0000000080006470 <i_6181>:
    80006470:	01c12203          	lw	tp,28(sp)

0000000080006474 <i_6182>:
    80006474:	f3e11f23          	sh	t5,-194(sp)

0000000080006478 <i_6183>:
    80006478:	7fc00993          	li	s3,2044

000000008000647c <i_6184>:
    8000647c:	7ff00f93          	li	t6,2047

0000000080006480 <i_6185>:
    80006480:	017bff33          	and	t5,s7,s7

0000000080006484 <i_6186>:
    80006484:	01b00213          	li	tp,27

0000000080006488 <i_6187>:
    80006488:	004690b3          	sll	ra,a3,tp

000000008000648c <i_6188>:
    8000648c:	8c600513          	li	a0,-1850

0000000080006490 <i_6189>:
    80006490:	8d200313          	li	t1,-1838

0000000080006494 <i_6190>:
    80006494:	00150513          	addi	a0,a0,1
    80006498:	fea37ce3          	bleu	a0,t1,80006490 <i_6189>

000000008000649c <i_6191>:
    8000649c:	02108463          	beq	ra,ra,800064c4 <i_6200>

00000000800064a0 <i_6192>:
    800064a0:	0ee14683          	lbu	a3,238(sp)

00000000800064a4 <i_6193>:
    800064a4:	141107a3          	sb	ra,335(sp)

00000000800064a8 <i_6194>:
    800064a8:	00198993          	addi	s3,s3,1
    800064ac:	fd3ffae3          	bleu	s3,t6,80006480 <i_6185>

00000000800064b0 <i_6195>:
    800064b0:	02a5553b          	divuw	a0,a0,a0

00000000800064b4 <i_6196>:
    800064b4:	0146cbb3          	xor	s7,a3,s4

00000000800064b8 <i_6197>:
    800064b8:	e3214b03          	lbu	s6,-462(sp)

00000000800064bc <i_6198>:
    800064bc:	0b012e23          	sw	a6,188(sp)

00000000800064c0 <i_6199>:
    800064c0:	02500f13          	li	t5,37

00000000800064c4 <i_6200>:
    800064c4:	01eb99b3          	sll	s3,s7,t5

00000000800064c8 <i_6201>:
    800064c8:	eb813b83          	ld	s7,-328(sp)

00000000800064cc <i_6202>:
    800064cc:	030850b3          	divu	ra,a6,a6

00000000800064d0 <i_6203>:
    800064d0:	03918cb3          	mul	s9,gp,s9

00000000800064d4 <i_6204>:
    800064d4:	80b00b93          	li	s7,-2037

00000000800064d8 <i_6205>:
    800064d8:	81600193          	li	gp,-2026

00000000800064dc <i_6206>:
    800064dc:	18e15803          	lhu	a6,398(sp)

00000000800064e0 <i_6207>:
    800064e0:	03085063          	ble	a6,a6,80006500 <i_6215>

00000000800064e4 <i_6208>:
    800064e4:	41980db3          	sub	s11,a6,s9

00000000800064e8 <i_6209>:
    800064e8:	1d813603          	ld	a2,472(sp)

00000000800064ec <i_6210>:
    800064ec:	15013403          	ld	s0,336(sp)

00000000800064f0 <i_6211>:
    800064f0:	05c10783          	lb	a5,92(sp)

00000000800064f4 <i_6212>:
    800064f4:	01978c63          	beq	a5,s9,8000650c <i_6218>

00000000800064f8 <i_6213>:
    800064f8:	72febc97          	auipc	s9,0x72feb

00000000800064fc <i_6214>:
    800064fc:	02c00e13          	li	t3,44

0000000080006500 <i_6215>:
    80006500:	01c31333          	sll	t1,t1,t3

0000000080006504 <i_6216>:
    80006504:	00844463          	blt	s0,s0,8000650c <i_6218>

0000000080006508 <i_6217>:
    80006508:	02c40263          	beq	s0,a2,8000652c <i_6225>

000000008000650c <i_6218>:
    8000650c:	00fe1e63          	bne	t3,a5,80006528 <i_6224>

0000000080006510 <i_6219>:
    80006510:	02144263          	blt	s0,ra,80006534 <i_6227>

0000000080006514 <i_6220>:
    80006514:	001b8b93          	addi	s7,s7,1
    80006518:	fd71f2e3          	bleu	s7,gp,800064dc <i_6206>

000000008000651c <i_6221>:
    8000651c:	09016d83          	lwu	s11,144(sp)

0000000080006520 <i_6222>:
    80006520:	0ec16183          	lwu	gp,236(sp)

0000000080006524 <i_6223>:
    80006524:	fb416803          	lwu	a6,-76(sp)

0000000080006528 <i_6224>:
    80006528:	f43100a3          	sb	gp,-191(sp)

000000008000652c <i_6225>:
    8000652c:	410d883b          	subw	a6,s11,a6

0000000080006530 <i_6226>:
    80006530:	01e00193          	li	gp,30

0000000080006534 <i_6227>:
    80006534:	403dda3b          	sraw	s4,s11,gp

0000000080006538 <i_6228>:
    80006538:	e7712423          	sw	s7,-408(sp)

000000008000653c <i_6229>:
    8000653c:	00386833          	or	a6,a6,gp

0000000080006540 <i_6230>:
    80006540:	030b03b3          	mul	t2,s6,a6

0000000080006544 <i_6231>:
    80006544:	13311423          	sh	s3,296(sp)

0000000080006548 <i_6232>:
    80006548:	525a2193          	slti	gp,s4,1317

000000008000654c <i_6233>:
    8000654c:	19015a03          	lhu	s4,400(sp)

0000000080006550 <i_6234>:
    80006550:	cc418193          	addi	gp,gp,-828

0000000080006554 <i_6235>:
    80006554:	e3e11483          	lh	s1,-450(sp)

0000000080006558 <i_6236>:
    80006558:	0031c463          	blt	gp,gp,80006560 <i_6238>

000000008000655c <i_6237>:
    8000655c:	0c312623          	sw	gp,204(sp)

0000000080006560 <i_6238>:
    80006560:	01d00193          	li	gp,29

0000000080006564 <i_6239>:
    80006564:	003493bb          	sllw	t2,s1,gp

0000000080006568 <i_6240>:
    80006568:	1a615283          	lhu	t0,422(sp)

000000008000656c <i_6241>:
    8000656c:	00271f13          	slli	t5,a4,0x2

0000000080006570 <i_6242>:
    80006570:	18c10383          	lb	t2,396(sp)

0000000080006574 <i_6243>:
    80006574:	1622e393          	ori	t2,t0,354

0000000080006578 <i_6244>:
    80006578:	1a910423          	sb	s1,424(sp)

000000008000657c <i_6245>:
    8000657c:	00312223          	sw	gp,4(sp)

0000000080006580 <i_6246>:
    80006580:	f0812623          	sw	s0,-244(sp)

0000000080006584 <i_6247>:
    80006584:	1c813283          	ld	t0,456(sp)

0000000080006588 <i_6248>:
    80006588:	fb114383          	lbu	t2,-79(sp)

000000008000658c <i_6249>:
    8000658c:	f0013d83          	ld	s11,-256(sp)

0000000080006590 <i_6250>:
    80006590:	01500493          	li	s1,21

0000000080006594 <i_6251>:
    80006594:	4098583b          	sraw	a6,a6,s1

0000000080006598 <i_6252>:
    80006598:	401dd513          	srai	a0,s11,0x1

000000008000659c <i_6253>:
    8000659c:	eaa11023          	sh	a0,-352(sp)

00000000800065a0 <i_6254>:
    800065a0:	0fb13423          	sd	s11,232(sp)

00000000800065a4 <i_6255>:
    800065a4:	3d4d8d93          	addi	s11,s11,980 # 2a7a8680 <main-0x55857980>

00000000800065a8 <i_6256>:
    800065a8:	e4812d83          	lw	s11,-440(sp)

00000000800065ac <i_6257>:
    800065ac:	00100b13          	li	s6,1

00000000800065b0 <i_6258>:
    800065b0:	4163db3b          	sraw	s6,t2,s6

00000000800065b4 <i_6259>:
    800065b4:	78c00393          	li	t2,1932

00000000800065b8 <i_6260>:
    800065b8:	79c00593          	li	a1,1948

00000000800065bc <i_6261>:
    800065bc:	403b5d9b          	sraiw	s11,s6,0x3

00000000800065c0 <i_6262>:
    800065c0:	04813203          	ld	tp,72(sp)

00000000800065c4 <i_6263>:
    800065c4:	00626b33          	or	s6,tp,t1

00000000800065c8 <i_6264>:
    800065c8:	00620663          	beq	tp,t1,800065d4 <i_6267>

00000000800065cc <i_6265>:
    800065cc:	03a13423          	sd	s10,40(sp)

00000000800065d0 <i_6266>:
    800065d0:	01600c13          	li	s8,22

00000000800065d4 <i_6267>:
    800065d4:	0183133b          	sllw	t1,t1,s8

00000000800065d8 <i_6268>:
    800065d8:	f9013d83          	ld	s11,-112(sp)

00000000800065dc <i_6269>:
    800065dc:	404c5c1b          	sraiw	s8,s8,0x4

00000000800065e0 <i_6270>:
    800065e0:	0e814b83          	lbu	s7,232(sp)

00000000800065e4 <i_6271>:
    800065e4:	02200813          	li	a6,34

00000000800065e8 <i_6272>:
    800065e8:	01031933          	sll	s2,t1,a6

00000000800065ec <i_6273>:
    800065ec:	00138393          	addi	t2,t2,1
    800065f0:	fc7594e3          	bne	a1,t2,800065b8 <i_6260>

00000000800065f4 <i_6274>:
    800065f4:	038319b3          	mulh	s3,t1,s8

00000000800065f8 <i_6275>:
    800065f8:	4133033b          	subw	t1,t1,s3

00000000800065fc <i_6276>:
    800065fc:	fb016b03          	lwu	s6,-80(sp)

0000000080006600 <i_6277>:
    80006600:	790b0c13          	addi	s8,s6,1936

0000000080006604 <i_6278>:
    80006604:	038c033b          	mulw	t1,s8,s8

0000000080006608 <i_6279>:
    80006608:	05c16c03          	lwu	s8,92(sp)

000000008000660c <i_6280>:
    8000660c:	1d411c03          	lh	s8,468(sp)

0000000080006610 <i_6281>:
    80006610:	00016c03          	lwu	s8,0(sp)

0000000080006614 <i_6282>:
    80006614:	018321b3          	slt	gp,t1,s8

0000000080006618 <i_6283>:
    80006618:	0181d463          	ble	s8,gp,80006620 <i_6285>

000000008000661c <i_6284>:
    8000661c:	01900c13          	li	s8,25

0000000080006620 <i_6285>:
    80006620:	0181943b          	sllw	s0,gp,s8

0000000080006624 <i_6286>:
    80006624:	1b810fa3          	sb	s8,447(sp)

0000000080006628 <i_6287>:
    80006628:	347cc693          	xori	a3,s9,839

000000008000662c <i_6288>:
    8000662c:	e7a15183          	lhu	gp,-390(sp)

0000000080006630 <i_6289>:
    80006630:	0281d063          	ble	s0,gp,80006650 <i_6297>

0000000080006634 <i_6290>:
    80006634:	08313823          	sd	gp,144(sp)

0000000080006638 <i_6291>:
    80006638:	1646c513          	xori	a0,a3,356

000000008000663c <i_6292>:
    8000663c:	fec16183          	lwu	gp,-20(sp)

0000000080006640 <i_6293>:
    80006640:	e4013403          	ld	s0,-448(sp)

0000000080006644 <i_6294>:
    80006644:	3071e693          	ori	a3,gp,775

0000000080006648 <i_6295>:
    80006648:	0281f933          	remu	s2,gp,s0

000000008000664c <i_6296>:
    8000664c:	14413c23          	sd	tp,344(sp)

0000000080006650 <i_6297>:
    80006650:	0ca11983          	lh	s3,202(sp)

0000000080006654 <i_6298>:
    80006654:	01500413          	li	s0,21

0000000080006658 <i_6299>:
    80006658:	008916bb          	sllw	a3,s2,s0

000000008000665c <i_6300>:
    8000665c:	02898bb3          	mul	s7,s3,s0

0000000080006660 <i_6301>:
    80006660:	1b311323          	sh	s3,422(sp)

0000000080006664 <i_6302>:
    80006664:	f5c16783          	lwu	a5,-164(sp)

0000000080006668 <i_6303>:
    80006668:	01714683          	lbu	a3,23(sp)

000000008000666c <i_6304>:
    8000666c:	028479bb          	remuw	s3,s0,s0

0000000080006670 <i_6305>:
    80006670:	01312823          	sw	s3,16(sp)

0000000080006674 <i_6306>:
    80006674:	ed714583          	lbu	a1,-297(sp)

0000000080006678 <i_6307>:
    80006678:	17614403          	lbu	s0,374(sp)

000000008000667c <i_6308>:
    8000667c:	00b40e63          	beq	s0,a1,80006698 <i_6315>

0000000080006680 <i_6309>:
    80006680:	1cb13023          	sd	a1,448(sp)

0000000080006684 <i_6310>:
    80006684:	0179ce63          	blt	s3,s7,800066a0 <i_6317>

0000000080006688 <i_6311>:
    80006688:	00d6b6b3          	sltu	a3,a3,a3

000000008000668c <i_6312>:
    8000668c:	15694213          	xori	tp,s2,342

0000000080006690 <i_6313>:
    80006690:	4026dc93          	srai	s9,a3,0x2

0000000080006694 <i_6314>:
    80006694:	02d9e1b3          	rem	gp,s3,a3

0000000080006698 <i_6315>:
    80006698:	00125393          	srli	t2,tp,0x1

000000008000669c <i_6316>:
    8000669c:	ed011203          	lh	tp,-304(sp)

00000000800066a0 <i_6317>:
    800066a0:	16a14483          	lbu	s1,362(sp)

00000000800066a4 <i_6318>:
    800066a4:	00d9f463          	bleu	a3,s3,800066ac <i_6320>

00000000800066a8 <i_6319>:
    800066a8:	0014d19b          	srliw	gp,s1,0x1

00000000800066ac <i_6320>:
    800066ac:	0364c3b3          	div	t2,s1,s6

00000000800066b0 <i_6321>:
    800066b0:	00165e9b          	srliw	t4,a2,0x1

00000000800066b4 <i_6322>:
    800066b4:	18713823          	sd	t2,400(sp)

00000000800066b8 <i_6323>:
    800066b8:	0094d263          	ble	s1,s1,800066bc <i_6324>

00000000800066bc <i_6324>:
    800066bc:	0093a4b3          	slt	s1,t2,s1

00000000800066c0 <i_6325>:
    800066c0:	0296d463          	ble	s1,a3,800066e8 <i_6335>

00000000800066c4 <i_6326>:
    800066c4:	11110523          	sb	a7,266(sp)

00000000800066c8 <i_6327>:
    800066c8:	e3011383          	lh	t2,-464(sp)

00000000800066cc <i_6328>:
    800066cc:	ee812f83          	lw	t6,-280(sp)

00000000800066d0 <i_6329>:
    800066d0:	404fd493          	srai	s1,t6,0x4

00000000800066d4 <i_6330>:
    800066d4:	03ffffbb          	remuw	t6,t6,t6

00000000800066d8 <i_6331>:
    800066d8:	1c913023          	sd	s1,448(sp)

00000000800066dc <i_6332>:
    800066dc:	03fa5d3b          	divuw	s10,s4,t6

00000000800066e0 <i_6333>:
    800066e0:	843ffb93          	andi	s7,t6,-1981

00000000800066e4 <i_6334>:
    800066e4:	00979663          	bne	a5,s1,800066f0 <i_6337>

00000000800066e8 <i_6335>:
    800066e8:	0a412f83          	lw	t6,164(sp)

00000000800066ec <i_6336>:
    800066ec:	04416f83          	lwu	t6,68(sp)

00000000800066f0 <i_6337>:
    800066f0:	01a0d463          	ble	s10,ra,800066f8 <i_6339>

00000000800066f4 <i_6338>:
    800066f4:	b97d7d13          	andi	s10,s10,-1129

00000000800066f8 <i_6339>:
    800066f8:	01800b93          	li	s7,24

00000000800066fc <i_6340>:
    800066fc:	417fd9b3          	sra	s3,t6,s7

0000000080006700 <i_6341>:
    80006700:	15812b83          	lw	s7,344(sp)

0000000080006704 <i_6342>:
    80006704:	03398633          	mul	a2,s3,s3

0000000080006708 <i_6343>:
    80006708:	e7710823          	sb	s7,-400(sp)

000000008000670c <i_6344>:
    8000670c:	09611a83          	lh	s5,150(sp)

0000000080006710 <i_6345>:
    80006710:	02267463          	bleu	sp,a2,80006738 <i_6355>

0000000080006714 <i_6346>:
    80006714:	03561633          	mulh	a2,a2,s5

0000000080006718 <i_6347>:
    80006718:	01011a23          	sh	a6,20(sp)

000000008000671c <i_6348>:
    8000671c:	1d510aa3          	sb	s5,469(sp)

0000000080006720 <i_6349>:
    80006720:	e1a11f03          	lh	t5,-486(sp)

0000000080006724 <i_6350>:
    80006724:	02c85833          	divu	a6,a6,a2

0000000080006728 <i_6351>:
    80006728:	e2810a83          	lb	s5,-472(sp)

000000008000672c <i_6352>:
    8000672c:	f8215803          	lhu	a6,-126(sp)

0000000080006730 <i_6353>:
    80006730:	003a981b          	slliw	a6,s5,0x3

0000000080006734 <i_6354>:
    80006734:	f75107a3          	sb	s5,-145(sp)

0000000080006738 <i_6355>:
    80006738:	f5412383          	lw	t2,-172(sp)

000000008000673c <i_6356>:
    8000673c:	01882c33          	slt	s8,a6,s8

0000000080006740 <i_6357>:
    80006740:	08712223          	sw	t2,132(sp)

0000000080006744 <i_6358>:
    80006744:	03881263          	bne	a6,s8,80006768 <i_6367>

0000000080006748 <i_6359>:
    80006748:	2c860db7          	lui	s11,0x2c860

000000008000674c <i_6360>:
    8000674c:	01c00c13          	li	s8,28

0000000080006750 <i_6361>:
    80006750:	0186d83b          	srlw	a6,a3,s8

0000000080006754 <i_6362>:
    80006754:	f9b105a3          	sb	s11,-117(sp)

0000000080006758 <i_6363>:
    80006758:	f1a11783          	lh	a5,-230(sp)

000000008000675c <i_6364>:
    8000675c:	01c14c03          	lbu	s8,28(sp)

0000000080006760 <i_6365>:
    80006760:	1cc15903          	lhu	s2,460(sp)

0000000080006764 <i_6366>:
    80006764:	01ec5463          	ble	t5,s8,8000676c <i_6368>

0000000080006768 <i_6367>:
    80006768:	11110403          	lb	s0,273(sp)

000000008000676c <i_6368>:
    8000676c:	0d310503          	lb	a0,211(sp)

0000000080006770 <i_6369>:
    80006770:	fc812403          	lw	s0,-56(sp)

0000000080006774 <i_6370>:
    80006774:	15211723          	sh	s2,334(sp)

0000000080006778 <i_6371>:
    80006778:	f9b4fc13          	andi	s8,s1,-101

000000008000677c <i_6372>:
    8000677c:	0285683b          	remw	a6,a0,s0

0000000080006780 <i_6373>:
    80006780:	403c5493          	srai	s1,s8,0x3

0000000080006784 <i_6374>:
    80006784:	f4d86813          	ori	a6,a6,-179

0000000080006788 <i_6375>:
    80006788:	e3816c83          	lwu	s9,-456(sp)

000000008000678c <i_6376>:
    8000678c:	ea016403          	lwu	s0,-352(sp)

0000000080006790 <i_6377>:
    80006790:	08215a03          	lhu	s4,130(sp)

0000000080006794 <i_6378>:
    80006794:	00c00e93          	li	t4,12

0000000080006798 <i_6379>:
    80006798:	41dcd9bb          	sraw	s3,s9,t4

000000008000679c <i_6380>:
    8000679c:	08414c83          	lbu	s9,132(sp)

00000000800067a0 <i_6381>:
    800067a0:	06610f83          	lb	t6,102(sp)

00000000800067a4 <i_6382>:
    800067a4:	0219dfb3          	divu	t6,s3,ra

00000000800067a8 <i_6383>:
    800067a8:	039ef833          	remu	a6,t4,s9

00000000800067ac <i_6384>:
    800067ac:	003fde9b          	srliw	t4,t6,0x3

00000000800067b0 <i_6385>:
    800067b0:	03fe8833          	mul	a6,t4,t6

00000000800067b4 <i_6386>:
    800067b4:	eeb12a23          	sw	a1,-268(sp)

00000000800067b8 <i_6387>:
    800067b8:	0b013823          	sd	a6,176(sp)

00000000800067bc <i_6388>:
    800067bc:	1bd10203          	lb	tp,445(sp)

00000000800067c0 <i_6389>:
    800067c0:	01d21263          	bne	tp,t4,800067c4 <i_6390>

00000000800067c4 <i_6390>:
    800067c4:	10eb8b93          	addi	s7,s7,270

00000000800067c8 <i_6391>:
    800067c8:	f3011e83          	lh	t4,-208(sp)

00000000800067cc <i_6392>:
    800067cc:	09011823          	sh	a6,144(sp)

00000000800067d0 <i_6393>:
    800067d0:	1b013203          	ld	tp,432(sp)

00000000800067d4 <i_6394>:
    800067d4:	fbf10723          	sb	t6,-82(sp)

00000000800067d8 <i_6395>:
    800067d8:	40185613          	srai	a2,a6,0x1

00000000800067dc <i_6396>:
    800067dc:	0ad11823          	sh	a3,176(sp)

00000000800067e0 <i_6397>:
    800067e0:	fc411683          	lh	a3,-60(sp)

00000000800067e4 <i_6398>:
    800067e4:	05813483          	ld	s1,88(sp)

00000000800067e8 <i_6399>:
    800067e8:	0355aab3          	mulhsu	s5,a1,s5

00000000800067ec <i_6400>:
    800067ec:	03525463          	ble	s5,tp,80006814 <i_6410>

00000000800067f0 <i_6401>:
    800067f0:	02d6f263          	bleu	a3,a3,80006814 <i_6410>

00000000800067f4 <i_6402>:
    800067f4:	0e013683          	ld	a3,224(sp)

00000000800067f8 <i_6403>:
    800067f8:	11615983          	lhu	s3,278(sp)

00000000800067fc <i_6404>:
    800067fc:	02700613          	li	a2,39

0000000080006800 <i_6405>:
    80006800:	00c9df33          	srl	t5,s3,a2

0000000080006804 <i_6406>:
    80006804:	b769e993          	ori	s3,s3,-1162

0000000080006808 <i_6407>:
    80006808:	e2f12423          	sw	a5,-472(sp)

000000008000680c <i_6408>:
    8000680c:	03a677bb          	remuw	a5,a2,s10

0000000080006810 <i_6409>:
    80006810:	4032521b          	sraiw	tp,tp,0x3

0000000080006814 <i_6410>:
    80006814:	1a412023          	sw	tp,416(sp)

0000000080006818 <i_6411>:
    80006818:	12410a03          	lb	s4,292(sp)

000000008000681c <i_6412>:
    8000681c:	41298d33          	sub	s10,s3,s2

0000000080006820 <i_6413>:
    80006820:	0077ee63          	bltu	a5,t2,8000683c <i_6420>

0000000080006824 <i_6414>:
    80006824:	0f416303          	lwu	t1,244(sp)

0000000080006828 <i_6415>:
    80006828:	026347bb          	divw	a5,t1,t1

000000008000682c <i_6416>:
    8000682c:	03dfff33          	remu	t5,t6,t4

0000000080006830 <i_6417>:
    80006830:	00000013          	nop

0000000080006834 <i_6418>:
    80006834:	40e5fd13          	andi	s10,a1,1038

0000000080006838 <i_6419>:
    80006838:	026d7f33          	remu	t5,s10,t1

000000008000683c <i_6420>:
    8000683c:	ee012d03          	lw	s10,-288(sp)

0000000080006840 <i_6421>:
    80006840:	03af04bb          	mulw	s1,t5,s10

0000000080006844 <i_6422>:
    80006844:	82500313          	li	t1,-2011

0000000080006848 <i_6423>:
    80006848:	83500593          	li	a1,-1995

000000008000684c <i_6424>:
    8000684c:	e4513023          	sd	t0,-448(sp)

0000000080006850 <i_6425>:
    80006850:	18510203          	lb	tp,389(sp)

0000000080006854 <i_6426>:
    80006854:	0044919b          	slliw	gp,s1,0x4

0000000080006858 <i_6427>:
    80006858:	035d1db3          	mulh	s11,s10,s5

000000008000685c <i_6428>:
    8000685c:	00130313          	addi	t1,t1,1
    80006860:	feb346e3          	blt	t1,a1,8000684c <i_6424>

0000000080006864 <i_6429>:
    80006864:	028d44b3          	div	s1,s10,s0

0000000080006868 <i_6430>:
    80006868:	ec410323          	sb	tp,-314(sp)

000000008000686c <i_6431>:
    8000686c:	f9e11d23          	sh	t5,-102(sp)

0000000080006870 <i_6432>:
    80006870:	03e24463          	blt	tp,t5,80006898 <i_6442>

0000000080006874 <i_6433>:
    80006874:	0035c263          	blt	a1,gp,80006878 <i_6434>

0000000080006878 <i_6434>:
    80006878:	01b9b9b3          	sltu	s3,s3,s11

000000008000687c <i_6435>:
    8000687c:	e69102a3          	sb	s1,-411(sp)

0000000080006880 <i_6436>:
    80006880:	1d914503          	lbu	a0,473(sp)

0000000080006884 <i_6437>:
    80006884:	937a3997          	auipc	s3,0x937a3

0000000080006888 <i_6438>:
    80006888:	fba12023          	sw	s10,-96(sp)

000000008000688c <i_6439>:
    8000688c:	1e811303          	lh	t1,488(sp)

0000000080006890 <i_6440>:
    80006890:	18c12f03          	lw	t5,396(sp)

0000000080006894 <i_6441>:
    80006894:	00b00c93          	li	s9,11

0000000080006898 <i_6442>:
    80006898:	01925933          	srl	s2,tp,s9

000000008000689c <i_6443>:
    8000689c:	01b27463          	bleu	s11,tp,800068a4 <i_6445>

00000000800068a0 <i_6444>:
    800068a0:	0e016203          	lwu	tp,224(sp)

00000000800068a4 <i_6445>:
    800068a4:	08c14f83          	lbu	t6,140(sp)

00000000800068a8 <i_6446>:
    800068a8:	01f11863          	bne	sp,t6,800068b8 <i_6450>

00000000800068ac <i_6447>:
    800068ac:	e4810b23          	sb	s0,-426(sp)

00000000800068b0 <i_6448>:
    800068b0:	ec410203          	lb	tp,-316(sp)

00000000800068b4 <i_6449>:
    800068b4:	f7211f83          	lh	t6,-142(sp)

00000000800068b8 <i_6450>:
    800068b8:	fdf12c23          	sw	t6,-40(sp)

00000000800068bc <i_6451>:
    800068bc:	fe016203          	lwu	tp,-32(sp)

00000000800068c0 <i_6452>:
    800068c0:	004fdb13          	srli	s6,t6,0x4

00000000800068c4 <i_6453>:
    800068c4:	0b412483          	lw	s1,180(sp)

00000000800068c8 <i_6454>:
    800068c8:	17710e83          	lb	t4,375(sp)

00000000800068cc <i_6455>:
    800068cc:	f3feaf93          	slti	t6,t4,-193

00000000800068d0 <i_6456>:
    800068d0:	00000013          	nop

00000000800068d4 <i_6457>:
    800068d4:	f4812283          	lw	t0,-184(sp)

00000000800068d8 <i_6458>:
    800068d8:	7bc00913          	li	s2,1980

00000000800068dc <i_6459>:
    800068dc:	7c800e93          	li	t4,1992

00000000800068e0 <i_6460>:
    800068e0:	f1d13c23          	sd	t4,-232(sp)

00000000800068e4 <i_6461>:
    800068e4:	0d610303          	lb	t1,214(sp)

00000000800068e8 <i_6462>:
    800068e8:	15f11023          	sh	t6,320(sp)

00000000800068ec <i_6463>:
    800068ec:	dc882c93          	slti	s9,a6,-568

00000000800068f0 <i_6464>:
    800068f0:	0329033b          	mulw	t1,s2,s2

00000000800068f4 <i_6465>:
    800068f4:	00000013          	nop

00000000800068f8 <i_6466>:
    800068f8:	fbe10303          	lb	t1,-66(sp)

00000000800068fc <i_6467>:
    800068fc:	00000013          	nop

0000000080006900 <i_6468>:
    80006900:	0e4c829b          	addiw	t0,s9,228

0000000080006904 <i_6469>:
    80006904:	11013183          	ld	gp,272(sp)

0000000080006908 <i_6470>:
    80006908:	40235a1b          	sraiw	s4,t1,0x2

000000008000690c <i_6471>:
    8000690c:	e6610f83          	lb	t6,-410(sp)

0000000080006910 <i_6472>:
    80006910:	01400993          	li	s3,20

0000000080006914 <i_6473>:
    80006914:	013fdcbb          	srlw	s9,t6,s3

0000000080006918 <i_6474>:
    80006918:	00190913          	addi	s2,s2,1 # 59a77001 <main-0x26588fff>
    8000691c:	fdd912e3          	bne	s2,t4,800068e0 <i_6460>

0000000080006920 <i_6475>:
    80006920:	f0012d83          	lw	s11,-256(sp)

0000000080006924 <i_6476>:
    80006924:	f9114383          	lbu	t2,-111(sp)

0000000080006928 <i_6477>:
    80006928:	039ecebb          	divw	t4,t4,s9

000000008000692c <i_6478>:
    8000692c:	0b312023          	sw	s3,160(sp)

0000000080006930 <i_6479>:
    80006930:	034ffdb3          	remu	s11,t6,s4

0000000080006934 <i_6480>:
    80006934:	016d8863          	beq	s11,s6,80006944 <i_6484>

0000000080006938 <i_6481>:
    80006938:	fb910123          	sb	s9,-94(sp)

000000008000693c <i_6482>:
    8000693c:	0bc15f83          	lhu	t6,188(sp)

0000000080006940 <i_6483>:
    80006940:	e6713c23          	sd	t2,-392(sp)

0000000080006944 <i_6484>:
    80006944:	11311f23          	sh	s3,286(sp)

0000000080006948 <i_6485>:
    80006948:	17c10483          	lb	s1,380(sp)

000000008000694c <i_6486>:
    8000694c:	01bee863          	bltu	t4,s11,8000695c <i_6490>

0000000080006950 <i_6487>:
    80006950:	ff113c23          	sd	a7,-8(sp)

0000000080006954 <i_6488>:
    80006954:	403a5613          	srai	a2,s4,0x3

0000000080006958 <i_6489>:
    80006958:	0df13423          	sd	t6,200(sp)

000000008000695c <i_6490>:
    8000695c:	0189d863          	ble	s8,s3,8000696c <i_6494>

0000000080006960 <i_6491>:
    80006960:	f9e12823          	sw	t5,-112(sp)

0000000080006964 <i_6492>:
    80006964:	17c16c03          	lwu	s8,380(sp)

0000000080006968 <i_6493>:
    80006968:	f7bc6613          	ori	a2,s8,-133

000000008000696c <i_6494>:
    8000696c:	eac10f23          	sb	a2,-322(sp)

0000000080006970 <i_6495>:
    80006970:	ef211603          	lh	a2,-270(sp)

0000000080006974 <i_6496>:
    80006974:	03860063          	beq	a2,s8,80006994 <i_6504>

0000000080006978 <i_6497>:
    80006978:	02cbc63b          	divw	a2,s7,a2

000000008000697c <i_6498>:
    8000697c:	01300c13          	li	s8,19

0000000080006980 <i_6499>:
    80006980:	018c9cb3          	sll	s9,s9,s8

0000000080006984 <i_6500>:
    80006984:	f5013503          	ld	a0,-176(sp)

0000000080006988 <i_6501>:
    80006988:	02cc8063          	beq	s9,a2,800069a8 <i_6509>

000000008000698c <i_6502>:
    8000698c:	02ac1c33          	mulh	s8,s8,a0

0000000080006990 <i_6503>:
    80006990:	f8c11223          	sh	a2,-124(sp)

0000000080006994 <i_6504>:
    80006994:	39ff3f13          	sltiu	t5,t5,927

0000000080006998 <i_6505>:
    80006998:	00ccea63          	bltu	s9,a2,800069ac <i_6510>

000000008000699c <i_6506>:
    8000699c:	f7610b03          	lb	s6,-138(sp)

00000000800069a0 <i_6507>:
    800069a0:	ed016a03          	lwu	s4,-304(sp)

00000000800069a4 <i_6508>:
    800069a4:	01ef1c63          	bne	t5,t5,800069bc <i_6514>

00000000800069a8 <i_6509>:
    800069a8:	ecc105a3          	sb	a2,-309(sp)

00000000800069ac <i_6510>:
    800069ac:	02800313          	li	t1,40

00000000800069b0 <i_6511>:
    800069b0:	00655a33          	srl	s4,a0,t1

00000000800069b4 <i_6512>:
    800069b4:	1e416a03          	lwu	s4,484(sp)

00000000800069b8 <i_6513>:
    800069b8:	0b615303          	lhu	t1,182(sp)

00000000800069bc <i_6514>:
    800069bc:	01630c63          	beq	t1,s6,800069d4 <i_6520>

00000000800069c0 <i_6515>:
    800069c0:	038a3a33          	mulhu	s4,s4,s8

00000000800069c4 <i_6516>:
    800069c4:	f5e13c23          	sd	t5,-168(sp)

00000000800069c8 <i_6517>:
    800069c8:	01e67a63          	bleu	t5,a2,800069dc <i_6522>

00000000800069cc <i_6518>:
    800069cc:	ff812a23          	sw	s8,-12(sp)

00000000800069d0 <i_6519>:
    800069d0:	036f4063          	blt	t5,s6,800069f0 <i_6527>

00000000800069d4 <i_6520>:
    800069d4:	14a10b03          	lb	s6,330(sp)

00000000800069d8 <i_6521>:
    800069d8:	1c813c03          	ld	s8,456(sp)

00000000800069dc <i_6522>:
    800069dc:	18a15a83          	lhu	s5,394(sp)

00000000800069e0 <i_6523>:
    800069e0:	eec16b03          	lwu	s6,-276(sp)

00000000800069e4 <i_6524>:
    800069e4:	13412623          	sw	s4,300(sp)

00000000800069e8 <i_6525>:
    800069e8:	03900e13          	li	t3,57

00000000800069ec <i_6526>:
    800069ec:	01ca9a33          	sll	s4,s5,t3

00000000800069f0 <i_6527>:
    800069f0:	0b014a03          	lbu	s4,176(sp)

00000000800069f4 <i_6528>:
    800069f4:	014a7e33          	and	t3,s4,s4

00000000800069f8 <i_6529>:
    800069f8:	87c00813          	li	a6,-1924

00000000800069fc <i_6530>:
    800069fc:	88200513          	li	a0,-1918

0000000080006a00 <i_6531>:
    80006a00:	fec16c83          	lwu	s9,-20(sp)

0000000080006a04 <i_6532>:
    80006a04:	00180813          	addi	a6,a6,1
    80006a08:	fea84ce3          	blt	a6,a0,80006a00 <i_6531>

0000000080006a0c <i_6533>:
    80006a0c:	039c9a33          	mulh	s4,s9,s9

0000000080006a10 <i_6534>:
    80006a10:	019e0a33          	add	s4,t3,s9

0000000080006a14 <i_6535>:
    80006a14:	03c12e23          	sw	t3,60(sp)

0000000080006a18 <i_6536>:
    80006a18:	e4411a03          	lh	s4,-444(sp)

0000000080006a1c <i_6537>:
    80006a1c:	03ca7463          	bleu	t3,s4,80006a44 <i_6547>

0000000080006a20 <i_6538>:
    80006a20:	f8d14e03          	lbu	t3,-115(sp)

0000000080006a24 <i_6539>:
    80006a24:	014a4e63          	blt	s4,s4,80006a40 <i_6546>

0000000080006a28 <i_6540>:
    80006a28:	01ce5263          	ble	t3,t3,80006a2c <i_6541>

0000000080006a2c <i_6541>:
    80006a2c:	16711923          	sh	t2,370(sp)

0000000080006a30 <i_6542>:
    80006a30:	03d18a33          	mul	s4,gp,t4

0000000080006a34 <i_6543>:
    80006a34:	09813f83          	ld	t6,152(sp)

0000000080006a38 <i_6544>:
    80006a38:	09e15a03          	lhu	s4,158(sp)

0000000080006a3c <i_6545>:
    80006a3c:	fa4a6c93          	ori	s9,s4,-92

0000000080006a40 <i_6546>:
    80006a40:	09411a03          	lh	s4,148(sp)

0000000080006a44 <i_6547>:
    80006a44:	034a1a33          	mulh	s4,s4,s4

0000000080006a48 <i_6548>:
    80006a48:	f0210f03          	lb	t5,-254(sp)

0000000080006a4c <i_6549>:
    80006a4c:	06c14083          	lbu	ra,108(sp)

0000000080006a50 <i_6550>:
    80006a50:	ca7f0a13          	addi	s4,t5,-857

0000000080006a54 <i_6551>:
    80006a54:	01e0fa63          	bleu	t5,ra,80006a68 <i_6556>

0000000080006a58 <i_6552>:
    80006a58:	009a1263          	bne	s4,s1,80006a5c <i_6553>

0000000080006a5c <i_6553>:
    80006a5c:	001d3f33          	sltu	t5,s10,ra

0000000080006a60 <i_6554>:
    80006a60:	03b08263          	beq	ra,s11,80006a84 <i_6563>

0000000080006a64 <i_6555>:
    80006a64:	02ca70bb          	remuw	ra,s4,a2

0000000080006a68 <i_6556>:
    80006a68:	021a50b3          	divu	ra,s4,ra

0000000080006a6c <i_6557>:
    80006a6c:	f8816a03          	lwu	s4,-120(sp)

0000000080006a70 <i_6558>:
    80006a70:	014a5663          	ble	s4,s4,80006a7c <i_6561>

0000000080006a74 <i_6559>:
    80006a74:	e6110023          	sb	ra,-416(sp)

0000000080006a78 <i_6560>:
    80006a78:	e6d11523          	sh	a3,-406(sp)

0000000080006a7c <i_6561>:
    80006a7c:	00108c63          	beq	ra,ra,80006a94 <i_6567>

0000000080006a80 <i_6562>:
    80006a80:	02109463          	bne	ra,ra,80006aa8 <i_6572>

0000000080006a84 <i_6563>:
    80006a84:	f2811083          	lh	ra,-216(sp)

0000000080006a88 <i_6564>:
    80006a88:	014a1a63          	bne	s4,s4,80006a9c <i_6569>

0000000080006a8c <i_6565>:
    80006a8c:	10813a03          	ld	s4,264(sp)

0000000080006a90 <i_6566>:
    80006a90:	0340c063          	blt	ra,s4,80006ab0 <i_6574>

0000000080006a94 <i_6567>:
    80006a94:	1c015403          	lhu	s0,448(sp)

0000000080006a98 <i_6568>:
    80006a98:	0140ca63          	blt	ra,s4,80006aac <i_6573>

0000000080006a9c <i_6569>:
    80006a9c:	f1611483          	lh	s1,-234(sp)

0000000080006aa0 <i_6570>:
    80006aa0:	00000013          	nop

0000000080006aa4 <i_6571>:
    80006aa4:	00000013          	nop

0000000080006aa8 <i_6572>:
    80006aa8:	0010969b          	slliw	a3,ra,0x1

0000000080006aac <i_6573>:
    80006aac:	00000013          	nop

0000000080006ab0 <i_6574>:
    80006ab0:	00000013          	nop

0000000080006ab4 <i_6575>:
    80006ab4:	017f8533          	add	a0,t6,s7

0000000080006ab8 <i_6576>:
    80006ab8:	7ef00493          	li	s1,2031

0000000080006abc <i_6577>:
    80006abc:	7fe00b93          	li	s7,2046

0000000080006ac0 <i_6578>:
    80006ac0:	02a13023          	sd	a0,32(sp)

0000000080006ac4 <i_6579>:
    80006ac4:	021bf663          	bleu	ra,s7,80006af0 <i_6589>

0000000080006ac8 <i_6580>:
    80006ac8:	f9012f83          	lw	t6,-112(sp)

0000000080006acc <i_6581>:
    80006acc:	00355093          	srli	ra,a0,0x3

0000000080006ad0 <i_6582>:
    80006ad0:	00000013          	nop

0000000080006ad4 <i_6583>:
    80006ad4:	e9215f83          	lhu	t6,-366(sp)

0000000080006ad8 <i_6584>:
    80006ad8:	00148493          	addi	s1,s1,1
    80006adc:	fe9bf2e3          	bleu	s1,s7,80006ac0 <i_6578>

0000000080006ae0 <i_6585>:
    80006ae0:	00a12623          	sw	a0,12(sp)

0000000080006ae4 <i_6586>:
    80006ae4:	16210f83          	lb	t6,354(sp)

0000000080006ae8 <i_6587>:
    80006ae8:	01ffe863          	bltu	t6,t6,80006af8 <i_6591>

0000000080006aec <i_6588>:
    80006aec:	0a111a23          	sh	ra,180(sp)

0000000080006af0 <i_6589>:
    80006af0:	004fd513          	srli	a0,t6,0x4

0000000080006af4 <i_6590>:
    80006af4:	18c12303          	lw	t1,396(sp)

0000000080006af8 <i_6591>:
    80006af8:	40435b93          	srai	s7,t1,0x4

0000000080006afc <i_6592>:
    80006afc:	f8211b83          	lh	s7,-126(sp)

0000000080006b00 <i_6593>:
    80006b00:	b9634f93          	xori	t6,t1,-1130

0000000080006b04 <i_6594>:
    80006b04:	e7812b83          	lw	s7,-392(sp)

0000000080006b08 <i_6595>:
    80006b08:	4027581b          	sraiw	a6,a4,0x2

0000000080006b0c <i_6596>:
    80006b0c:	013feb93          	ori	s7,t6,19

0000000080006b10 <i_6597>:
    80006b10:	002cdc93          	srli	s9,s9,0x2

0000000080006b14 <i_6598>:
    80006b14:	029b8463          	beq	s7,s1,80006b3c <i_6608>

0000000080006b18 <i_6599>:
    80006b18:	01ff9a63          	bne	t6,t6,80006b2c <i_6604>

0000000080006b1c <i_6600>:
    80006b1c:	ffe14283          	lbu	t0,-2(sp)

0000000080006b20 <i_6601>:
    80006b20:	fce10923          	sb	a4,-46(sp)

0000000080006b24 <i_6602>:
    80006b24:	037860b3          	rem	ra,a6,s7

0000000080006b28 <i_6603>:
    80006b28:	00813083          	ld	ra,8(sp)

0000000080006b2c <i_6604>:
    80006b2c:	fb713c23          	sd	s7,-72(sp)

0000000080006b30 <i_6605>:
    80006b30:	0b910223          	sb	s9,164(sp)

0000000080006b34 <i_6606>:
    80006b34:	05710b23          	sb	s7,86(sp)

0000000080006b38 <i_6607>:
    80006b38:	6f2cbf93          	sltiu	t6,s9,1778

0000000080006b3c <i_6608>:
    80006b3c:	00b00a93          	li	s5,11

0000000080006b40 <i_6609>:
    80006b40:	015b9bb3          	sll	s7,s7,s5

0000000080006b44 <i_6610>:
    80006b44:	001acd33          	xor	s10,s5,ra

0000000080006b48 <i_6611>:
    80006b48:	00285e93          	srli	t4,a6,0x2

0000000080006b4c <i_6612>:
    80006b4c:	0210c463          	blt	ra,ra,80006b74 <i_6622>

0000000080006b50 <i_6613>:
    80006b50:	a190bb93          	sltiu	s7,ra,-1511

0000000080006b54 <i_6614>:
    80006b54:	f9211383          	lh	t2,-110(sp)

0000000080006b58 <i_6615>:
    80006b58:	f1011803          	lh	a6,-240(sp)

0000000080006b5c <i_6616>:
    80006b5c:	00000013          	nop

0000000080006b60 <i_6617>:
    80006b60:	00000013          	nop

0000000080006b64 <i_6618>:
    80006b64:	12812803          	lw	a6,296(sp)

0000000080006b68 <i_6619>:
    80006b68:	9f97e617          	auipc	a2,0x9f97e

0000000080006b6c <i_6620>:
    80006b6c:	00000013          	nop

0000000080006b70 <i_6621>:
    80006b70:	e7e14e83          	lbu	t4,-386(sp)

0000000080006b74 <i_6622>:
    80006b74:	a13eb613          	sltiu	a2,t4,-1517

0000000080006b78 <i_6623>:
    80006b78:	efd10c23          	sb	t4,-264(sp)

0000000080006b7c <i_6624>:
    80006b7c:	83600093          	li	ra,-1994

0000000080006b80 <i_6625>:
    80006b80:	84200c13          	li	s8,-1982

0000000080006b84 <i_6626>:
    80006b84:	e4415283          	lhu	t0,-444(sp)

0000000080006b88 <i_6627>:
    80006b88:	0f013c83          	ld	s9,240(sp)

0000000080006b8c <i_6628>:
    80006b8c:	bae63b93          	sltiu	s7,a2,-1106

0000000080006b90 <i_6629>:
    80006b90:	1de11383          	lh	t2,478(sp)

0000000080006b94 <i_6630>:
    80006b94:	0b1aab97          	auipc	s7,0xb1aa

0000000080006b98 <i_6631>:
    80006b98:	03967463          	bleu	s9,a2,80006bc0 <i_6640>

0000000080006b9c <i_6632>:
    80006b9c:	00108093          	addi	ra,ra,1 # 55387001 <main-0x2ac78fff>
    80006ba0:	ff80c2e3          	blt	ra,s8,80006b84 <i_6626>

0000000080006ba4 <i_6633>:
    80006ba4:	02500393          	li	t2,37

0000000080006ba8 <i_6634>:
    80006ba8:	00761633          	sll	a2,a2,t2

0000000080006bac <i_6635>:
    80006bac:	09a12a23          	sw	s10,148(sp)

0000000080006bb0 <i_6636>:
    80006bb0:	e7815083          	lhu	ra,-392(sp)

0000000080006bb4 <i_6637>:
    80006bb4:	0c015d83          	lhu	s11,192(sp)

0000000080006bb8 <i_6638>:
    80006bb8:	00000013          	nop

0000000080006bbc <i_6639>:
    80006bbc:	007d8d33          	add	s10,s11,t2

0000000080006bc0 <i_6640>:
    80006bc0:	0c810303          	lb	t1,200(sp)

0000000080006bc4 <i_6641>:
    80006bc4:	fb416b03          	lwu	s6,-76(sp)

0000000080006bc8 <i_6642>:
    80006bc8:	74200393          	li	t2,1858

0000000080006bcc <i_6643>:
    80006bcc:	75500f13          	li	t5,1877

0000000080006bd0 <i_6644>:
    80006bd0:	1d163e93          	sltiu	t4,a2,465

0000000080006bd4 <i_6645>:
    80006bd4:	0e210fa3          	sb	sp,255(sp)

0000000080006bd8 <i_6646>:
    80006bd8:	1aa15403          	lhu	s0,426(sp)

0000000080006bdc <i_6647>:
    80006bdc:	f7c15e83          	lhu	t4,-132(sp)

0000000080006be0 <i_6648>:
    80006be0:	f0813603          	ld	a2,-248(sp)

0000000080006be4 <i_6649>:
    80006be4:	00c67e63          	bleu	a2,a2,80006c00 <i_6655>

0000000080006be8 <i_6650>:
    80006be8:	0c813c23          	sd	s0,216(sp)

0000000080006bec <i_6651>:
    80006bec:	cc1e8613          	addi	a2,t4,-831 # ffffffffdd0fccc1 <_end+0xffffffff5d0ec8ad>

0000000080006bf0 <i_6652>:
    80006bf0:	00138393          	addi	t2,t2,1
    80006bf4:	fde3eee3          	bltu	t2,t5,80006bd0 <i_6644>

0000000080006bf8 <i_6653>:
    80006bf8:	41d60433          	sub	s0,a2,t4

0000000080006bfc <i_6654>:
    80006bfc:	e9013b83          	ld	s7,-368(sp)

0000000080006c00 <i_6655>:
    80006c00:	027653bb          	divuw	t2,a2,t2

0000000080006c04 <i_6656>:
    80006c04:	01bb8bb3          	add	s7,s7,s11

0000000080006c08 <i_6657>:
    80006c08:	88400613          	li	a2,-1916

0000000080006c0c <i_6658>:
    80006c0c:	89500e93          	li	t4,-1899

0000000080006c10 <i_6659>:
    80006c10:	4bd989b7          	lui	s3,0x4bd98

0000000080006c14 <i_6660>:
    80006c14:	14b14d83          	lbu	s11,331(sp)

0000000080006c18 <i_6661>:
    80006c18:	016dd463          	ble	s6,s11,80006c20 <i_6663>

0000000080006c1c <i_6662>:
    80006c1c:	00000013          	nop

0000000080006c20 <i_6663>:
    80006c20:	03500e13          	li	t3,53

0000000080006c24 <i_6664>:
    80006c24:	01c4ddb3          	srl	s11,s1,t3

0000000080006c28 <i_6665>:
    80006c28:	ea710023          	sb	t2,-352(sp)

0000000080006c2c <i_6666>:
    80006c2c:	00160613          	addi	a2,a2,1 # 1f984b69 <main-0x6067b497>
    80006c30:	feced0e3          	ble	a2,t4,80006c10 <i_6659>

0000000080006c34 <i_6667>:
    80006c34:	fb411483          	lh	s1,-76(sp)

0000000080006c38 <i_6668>:
    80006c38:	03013b03          	ld	s6,48(sp)

0000000080006c3c <i_6669>:
    80006c3c:	029d5063          	ble	s1,s10,80006c5c <i_6677>

0000000080006c40 <i_6670>:
    80006c40:	b8a4ee93          	ori	t4,s1,-1142

0000000080006c44 <i_6671>:
    80006c44:	116107a3          	sb	s6,271(sp)

0000000080006c48 <i_6672>:
    80006c48:	03dc6eb3          	rem	t4,s8,t4

0000000080006c4c <i_6673>:
    80006c4c:	169107a3          	sb	s1,367(sp)

0000000080006c50 <i_6674>:
    80006c50:	04411e83          	lh	t4,68(sp)

0000000080006c54 <i_6675>:
    80006c54:	402e5e1b          	sraiw	t3,t3,0x2

0000000080006c58 <i_6676>:
    80006c58:	0d015583          	lhu	a1,208(sp)

0000000080006c5c <i_6677>:
    80006c5c:	01b00e13          	li	t3,27

0000000080006c60 <i_6678>:
    80006c60:	01c994bb          	sllw	s1,s3,t3

0000000080006c64 <i_6679>:
    80006c64:	f9013203          	ld	tp,-112(sp)

0000000080006c68 <i_6680>:
    80006c68:	f4411b23          	sh	tp,-170(sp)

0000000080006c6c <i_6681>:
    80006c6c:	ced4fb93          	andi	s7,s1,-787

0000000080006c70 <i_6682>:
    80006c70:	1e016e03          	lwu	t3,480(sp)

0000000080006c74 <i_6683>:
    80006c74:	c66b8b93          	addi	s7,s7,-922 # 8b1b07fa <_end+0xb1a03e6>

0000000080006c78 <i_6684>:
    80006c78:	017bd263          	ble	s7,s7,80006c7c <i_6685>

0000000080006c7c <i_6685>:
    80006c7c:	404e063b          	subw	a2,t3,tp

0000000080006c80 <i_6686>:
    80006c80:	10413c23          	sd	tp,280(sp)

0000000080006c84 <i_6687>:
    80006c84:	fe415b83          	lhu	s7,-28(sp)

0000000080006c88 <i_6688>:
    80006c88:	01cbf863          	bleu	t3,s7,80006c98 <i_6692>

0000000080006c8c <i_6689>:
    80006c8c:	02c82bb3          	mulhsu	s7,a6,a2

0000000080006c90 <i_6690>:
    80006c90:	12311e23          	sh	gp,316(sp)

0000000080006c94 <i_6691>:
    80006c94:	018bb9b3          	sltu	s3,s7,s8

0000000080006c98 <i_6692>:
    80006c98:	017bbf33          	sltu	t5,s7,s7

0000000080006c9c <i_6693>:
    80006c9c:	01f7e263          	bltu	a5,t6,80006ca0 <i_6694>

0000000080006ca0 <i_6694>:
    80006ca0:	00cf4633          	xor	a2,t5,a2

0000000080006ca4 <i_6695>:
    80006ca4:	0b910923          	sb	s9,178(sp)

0000000080006ca8 <i_6696>:
    80006ca8:	013f5263          	ble	s3,t5,80006cac <i_6697>

0000000080006cac <i_6697>:
    80006cac:	01e3e463          	bltu	t2,t5,80006cb4 <i_6699>

0000000080006cb0 <i_6698>:
    80006cb0:	e9711923          	sh	s7,-366(sp)

0000000080006cb4 <i_6699>:
    80006cb4:	00c11b23          	sh	a2,22(sp)

0000000080006cb8 <i_6700>:
    80006cb8:	0f710423          	sb	s7,232(sp)

0000000080006cbc <i_6701>:
    80006cbc:	0ed14603          	lbu	a2,237(sp)

0000000080006cc0 <i_6702>:
    80006cc0:	d69bbc13          	sltiu	s8,s7,-663

0000000080006cc4 <i_6703>:
    80006cc4:	06c11823          	sh	a2,112(sp)

0000000080006cc8 <i_6704>:
    80006cc8:	016c4863          	blt	s8,s6,80006cd8 <i_6708>

0000000080006ccc <i_6705>:
    80006ccc:	03013603          	ld	a2,48(sp)

0000000080006cd0 <i_6706>:
    80006cd0:	f4c10623          	sb	a2,-180(sp)

0000000080006cd4 <i_6707>:
    80006cd4:	03e18463          	beq	gp,t5,80006cfc <i_6717>

0000000080006cd8 <i_6708>:
    80006cd8:	018f5a63          	ble	s8,t5,80006cec <i_6713>

0000000080006cdc <i_6709>:
    80006cdc:	ef514603          	lbu	a2,-267(sp)

0000000080006ce0 <i_6710>:
    80006ce0:	03ec0063          	beq	s8,t5,80006d00 <i_6718>

0000000080006ce4 <i_6711>:
    80006ce4:	ff411e03          	lh	t3,-12(sp)

0000000080006ce8 <i_6712>:
    80006ce8:	02ce4463          	blt	t3,a2,80006d10 <i_6722>

0000000080006cec <i_6713>:
    80006cec:	403ade1b          	sraiw	t3,s5,0x3

0000000080006cf0 <i_6714>:
    80006cf0:	fee11783          	lh	a5,-18(sp)

0000000080006cf4 <i_6715>:
    80006cf4:	09510d83          	lb	s11,149(sp)

0000000080006cf8 <i_6716>:
    80006cf8:	01ee0933          	add	s2,t3,t5

0000000080006cfc <i_6717>:
    80006cfc:	f4610403          	lb	s0,-186(sp)

0000000080006d00 <i_6718>:
    80006d00:	9bee0e1b          	addiw	t3,t3,-1602

0000000080006d04 <i_6719>:
    80006d04:	024dfc33          	remu	s8,s11,tp

0000000080006d08 <i_6720>:
    80006d08:	002e02b3          	add	t0,t3,sp

0000000080006d0c <i_6721>:
    80006d0c:	f2812c03          	lw	s8,-216(sp)

0000000080006d10 <i_6722>:
    80006d10:	028c6433          	rem	s0,s8,s0

0000000080006d14 <i_6723>:
    80006d14:	0056e6b3          	or	a3,a3,t0

0000000080006d18 <i_6724>:
    80006d18:	0282ba33          	mulhu	s4,t0,s0

0000000080006d1c <i_6725>:
    80006d1c:	1d112623          	sw	a7,460(sp)

0000000080006d20 <i_6726>:
    80006d20:	0052da63          	ble	t0,t0,80006d34 <i_6731>

0000000080006d24 <i_6727>:
    80006d24:	02d4643b          	remw	s0,s0,a3

0000000080006d28 <i_6728>:
    80006d28:	0346c53b          	divw	a0,a3,s4

0000000080006d2c <i_6729>:
    80006d2c:	ead11723          	sh	a3,-338(sp)

0000000080006d30 <i_6730>:
    80006d30:	025536b3          	mulhu	a3,a0,t0

0000000080006d34 <i_6731>:
    80006d34:	e5614683          	lbu	a3,-426(sp)

0000000080006d38 <i_6732>:
    80006d38:	07013303          	ld	t1,112(sp)

0000000080006d3c <i_6733>:
    80006d3c:	08c12303          	lw	t1,140(sp)

0000000080006d40 <i_6734>:
    80006d40:	02a104a3          	sb	a0,41(sp)

0000000080006d44 <i_6735>:
    80006d44:	0264543b          	divuw	s0,s0,t1

0000000080006d48 <i_6736>:
    80006d48:	02f4033b          	mulw	t1,s0,a5

0000000080006d4c <i_6737>:
    80006d4c:	02851063          	bne	a0,s0,80006d6c <i_6745>

0000000080006d50 <i_6738>:
    80006d50:	00840533          	add	a0,s0,s0

0000000080006d54 <i_6739>:
    80006d54:	1c614d03          	lbu	s10,454(sp)

0000000080006d58 <i_6740>:
    80006d58:	00200d13          	li	s10,2

0000000080006d5c <i_6741>:
    80006d5c:	01ad5333          	srl	t1,s10,s10

0000000080006d60 <i_6742>:
    80006d60:	f1a10f23          	sb	s10,-226(sp)

0000000080006d64 <i_6743>:
    80006d64:	03a25063          	ble	s10,tp,80006d84 <i_6751>

0000000080006d68 <i_6744>:
    80006d68:	006d1463          	bne	s10,t1,80006d70 <i_6746>

0000000080006d6c <i_6745>:
    80006d6c:	f6210303          	lb	t1,-158(sp)

0000000080006d70 <i_6746>:
    80006d70:	0a611623          	sh	t1,172(sp)

0000000080006d74 <i_6747>:
    80006d74:	02d00293          	li	t0,45

0000000080006d78 <i_6748>:
    80006d78:	00535333          	srl	t1,t1,t0

0000000080006d7c <i_6749>:
    80006d7c:	03013403          	ld	s0,48(sp)

0000000080006d80 <i_6750>:
    80006d80:	00533333          	sltu	t1,t1,t0

0000000080006d84 <i_6751>:
    80006d84:	fb812983          	lw	s3,-72(sp)

0000000080006d88 <i_6752>:
    80006d88:	0332e2b3          	rem	t0,t0,s3

0000000080006d8c <i_6753>:
    80006d8c:	8b623993          	sltiu	s3,tp,-1866

0000000080006d90 <i_6754>:
    80006d90:	16812983          	lw	s3,360(sp)

0000000080006d94 <i_6755>:
    80006d94:	6d62821b          	addiw	tp,t0,1750

0000000080006d98 <i_6756>:
    80006d98:	03e282b3          	mul	t0,t0,t5

0000000080006d9c <i_6757>:
    80006d9c:	0049f863          	bleu	tp,s3,80006dac <i_6761>

0000000080006da0 <i_6758>:
    80006da0:	0c815e83          	lhu	t4,200(sp)

0000000080006da4 <i_6759>:
    80006da4:	00aecf33          	xor	t5,t4,a0

0000000080006da8 <i_6760>:
    80006da8:	00000013          	nop

0000000080006dac <i_6761>:
    80006dac:	00265613          	srli	a2,a2,0x2

0000000080006db0 <i_6762>:
    80006db0:	08c16603          	lwu	a2,140(sp)

0000000080006db4 <i_6763>:
    80006db4:	7d800593          	li	a1,2008

0000000080006db8 <i_6764>:
    80006db8:	7e900513          	li	a0,2025

0000000080006dbc <i_6765>:
    80006dbc:	01300e93          	li	t4,19

0000000080006dc0 <i_6766>:
    80006dc0:	41d2523b          	sraw	tp,tp,t4

0000000080006dc4 <i_6767>:
    80006dc4:	14412a83          	lw	s5,324(sp)

0000000080006dc8 <i_6768>:
    80006dc8:	0a815083          	lhu	ra,168(sp)

0000000080006dcc <i_6769>:
    80006dcc:	02cc4063          	blt	s8,a2,80006dec <i_6776>

0000000080006dd0 <i_6770>:
    80006dd0:	00000013          	nop

0000000080006dd4 <i_6771>:
    80006dd4:	00158593          	addi	a1,a1,1
    80006dd8:	fea5c2e3          	blt	a1,a0,80006dbc <i_6765>

0000000080006ddc <i_6772>:
    80006ddc:	f5e11623          	sh	t5,-180(sp)

0000000080006de0 <i_6773>:
    80006de0:	02cac63b          	divw	a2,s5,a2

0000000080006de4 <i_6774>:
    80006de4:	1cc12223          	sw	a2,452(sp)

0000000080006de8 <i_6775>:
    80006de8:	02c6053b          	mulw	a0,a2,a2

0000000080006dec <i_6776>:
    80006dec:	0a112a23          	sw	ra,180(sp)

0000000080006df0 <i_6777>:
    80006df0:	001d561b          	srliw	a2,s10,0x1

0000000080006df4 <i_6778>:
    80006df4:	7d600413          	li	s0,2006

0000000080006df8 <i_6779>:
    80006df8:	7e100d13          	li	s10,2017

0000000080006dfc <i_6780>:
    80006dfc:	e5f10303          	lb	t1,-417(sp)

0000000080006e00 <i_6781>:
    80006e00:	ec812423          	sw	s0,-312(sp)

0000000080006e04 <i_6782>:
    80006e04:	01a67263          	bleu	s10,a2,80006e08 <i_6783>

0000000080006e08 <i_6783>:
    80006e08:	05c13423          	sd	t3,72(sp)

0000000080006e0c <i_6784>:
    80006e0c:	97c5c793          	xori	a5,a1,-1668

0000000080006e10 <i_6785>:
    80006e10:	fa416603          	lwu	a2,-92(sp)

0000000080006e14 <i_6786>:
    80006e14:	01f65c63          	ble	t6,a2,80006e2c <i_6791>

0000000080006e18 <i_6787>:
    80006e18:	f6c12483          	lw	s1,-148(sp)

0000000080006e1c <i_6788>:
    80006e1c:	00140413          	addi	s0,s0,1
    80006e20:	fc8d5ee3          	ble	s0,s10,80006dfc <i_6780>

0000000080006e24 <i_6789>:
    80006e24:	40b48c3b          	subw	s8,s1,a1

0000000080006e28 <i_6790>:
    80006e28:	ff211b03          	lh	s6,-14(sp)

0000000080006e2c <i_6791>:
    80006e2c:	09f12023          	sw	t6,128(sp)

0000000080006e30 <i_6792>:
    80006e30:	f8013e03          	ld	t3,-128(sp)

0000000080006e34 <i_6793>:
    80006e34:	fa610fa3          	sb	t1,-65(sp)

0000000080006e38 <i_6794>:
    80006e38:	e4c10623          	sb	a2,-436(sp)

0000000080006e3c <i_6795>:
    80006e3c:	01467633          	and	a2,a2,s4

0000000080006e40 <i_6796>:
    80006e40:	fcc12603          	lw	a2,-52(sp)

0000000080006e44 <i_6797>:
    80006e44:	82400e13          	li	t3,-2012

0000000080006e48 <i_6798>:
    80006e48:	82600313          	li	t1,-2010

0000000080006e4c <i_6799>:
    80006e4c:	04810603          	lb	a2,72(sp)

0000000080006e50 <i_6800>:
    80006e50:	e2c12823          	sw	a2,-464(sp)

0000000080006e54 <i_6801>:
    80006e54:	02c31633          	mulh	a2,t1,a2

0000000080006e58 <i_6802>:
    80006e58:	001e0e13          	addi	t3,t3,1 # 90ced395 <_end+0x10cdcf81>
    80006e5c:	fe6e68e3          	bltu	t3,t1,80006e4c <i_6799>

0000000080006e60 <i_6803>:
    80006e60:	3d9e4513          	xori	a0,t3,985

0000000080006e64 <i_6804>:
    80006e64:	03d11f23          	sh	t4,62(sp)

0000000080006e68 <i_6805>:
    80006e68:	02100f93          	li	t6,33

0000000080006e6c <i_6806>:
    80006e6c:	01f55c33          	srl	s8,a0,t6

0000000080006e70 <i_6807>:
    80006e70:	06b12c23          	sw	a1,120(sp)

0000000080006e74 <i_6808>:
    80006e74:	406e033b          	subw	t1,t3,t1

0000000080006e78 <i_6809>:
    80006e78:	0dc16683          	lwu	a3,220(sp)

0000000080006e7c <i_6810>:
    80006e7c:	e2016c03          	lwu	s8,-480(sp)

0000000080006e80 <i_6811>:
    80006e80:	00000013          	nop

0000000080006e84 <i_6812>:
    80006e84:	00800c13          	li	s8,8

0000000080006e88 <i_6813>:
    80006e88:	0184dfb3          	srl	t6,s1,s8

0000000080006e8c <i_6814>:
    80006e8c:	88f00313          	li	t1,-1905

0000000080006e90 <i_6815>:
    80006e90:	89c00493          	li	s1,-1892

0000000080006e94 <i_6816>:
    80006e94:	00000013          	nop

0000000080006e98 <i_6817>:
    80006e98:	17f10223          	sb	t6,356(sp)

0000000080006e9c <i_6818>:
    80006e9c:	fe9107a3          	sb	s1,-17(sp)

0000000080006ea0 <i_6819>:
    80006ea0:	16910d03          	lb	s10,361(sp)

0000000080006ea4 <i_6820>:
    80006ea4:	06911323          	sh	s1,102(sp)

0000000080006ea8 <i_6821>:
    80006ea8:	00130313          	addi	t1,t1,1
    80006eac:	fe9362e3          	bltu	t1,s1,80006e90 <i_6815>

0000000080006eb0 <i_6822>:
    80006eb0:	05a11483          	lh	s1,90(sp)

0000000080006eb4 <i_6823>:
    80006eb4:	e5611d03          	lh	s10,-426(sp)

0000000080006eb8 <i_6824>:
    80006eb8:	003c141b          	slliw	s0,s8,0x3

0000000080006ebc <i_6825>:
    80006ebc:	72a00f93          	li	t6,1834

0000000080006ec0 <i_6826>:
    80006ec0:	72e00293          	li	t0,1838

0000000080006ec4 <i_6827>:
    80006ec4:	f1013f03          	ld	t5,-240(sp)

0000000080006ec8 <i_6828>:
    80006ec8:	03600313          	li	t1,54

0000000080006ecc <i_6829>:
    80006ecc:	406d54b3          	sra	s1,s10,t1

0000000080006ed0 <i_6830>:
    80006ed0:	f0813483          	ld	s1,-248(sp)

0000000080006ed4 <i_6831>:
    80006ed4:	00000013          	nop

0000000080006ed8 <i_6832>:
    80006ed8:	02630f33          	mul	t5,t1,t1

0000000080006edc <i_6833>:
    80006edc:	10c12e03          	lw	t3,268(sp)

0000000080006ee0 <i_6834>:
    80006ee0:	01cf1463          	bne	t5,t3,80006ee8 <i_6836>

0000000080006ee4 <i_6835>:
    80006ee4:	f3011403          	lh	s0,-208(sp)

0000000080006ee8 <i_6836>:
    80006ee8:	16514e03          	lbu	t3,357(sp)

0000000080006eec <i_6837>:
    80006eec:	028e0f3b          	mulw	t5,t3,s0

0000000080006ef0 <i_6838>:
    80006ef0:	001f8f93          	addi	t6,t6,1
    80006ef4:	fdf2d8e3          	ble	t6,t0,80006ec4 <i_6827>

0000000080006ef8 <i_6839>:
    80006ef8:	01ee5c63          	ble	t5,t3,80006f10 <i_6845>

0000000080006efc <i_6840>:
    80006efc:	f7c105a3          	sb	t3,-149(sp)

0000000080006f00 <i_6841>:
    80006f00:	403e5e13          	srai	t3,t3,0x3

0000000080006f04 <i_6842>:
    80006f04:	f3c16e83          	lwu	t4,-196(sp)

0000000080006f08 <i_6843>:
    80006f08:	01ced863          	ble	t3,t4,80006f18 <i_6847>

0000000080006f0c <i_6844>:
    80006f0c:	f1012f03          	lw	t5,-240(sp)

0000000080006f10 <i_6845>:
    80006f10:	15e11c23          	sh	t5,344(sp)

0000000080006f14 <i_6846>:
    80006f14:	f9013903          	ld	s2,-112(sp)

0000000080006f18 <i_6847>:
    80006f18:	e9d10d03          	lb	s10,-355(sp)

0000000080006f1c <i_6848>:
    80006f1c:	00000013          	nop

0000000080006f20 <i_6849>:
    80006f20:	7dc00e93          	li	t4,2012

0000000080006f24 <i_6850>:
    80006f24:	7e900b13          	li	s6,2025

0000000080006f28 <i_6851>:
    80006f28:	e9c16983          	lwu	s3,-356(sp)

0000000080006f2c <i_6852>:
    80006f2c:	01467a63          	bleu	s4,a2,80006f40 <i_6856>

0000000080006f30 <i_6853>:
    80006f30:	001e8e93          	addi	t4,t4,1
    80006f34:	ffdb5ae3          	ble	t4,s6,80006f28 <i_6851>

0000000080006f38 <i_6854>:
    80006f38:	03c00593          	li	a1,60

0000000080006f3c <i_6855>:
    80006f3c:	00bb1233          	sll	tp,s6,a1

0000000080006f40 <i_6856>:
    80006f40:	0329d463          	ble	s2,s3,80006f68 <i_6866>

0000000080006f44 <i_6857>:
    80006f44:	fd2100a3          	sb	s2,-63(sp)

0000000080006f48 <i_6858>:
    80006f48:	0045f663          	bleu	tp,a1,80006f54 <i_6861>

0000000080006f4c <i_6859>:
    80006f4c:	fdc13823          	sd	t3,-48(sp)

0000000080006f50 <i_6860>:
    80006f50:	03227933          	remu	s2,tp,s2

0000000080006f54 <i_6861>:
    80006f54:	e8410e23          	sb	tp,-356(sp)

0000000080006f58 <i_6862>:
    80006f58:	aa320213          	addi	tp,tp,-1373 # fffffffffffffaa3 <_end+0xffffffff7ffef68f>

0000000080006f5c <i_6863>:
    80006f5c:	00464c63          	blt	a2,tp,80006f74 <i_6869>

0000000080006f60 <i_6864>:
    80006f60:	fd415503          	lhu	a0,-44(sp)

0000000080006f64 <i_6865>:
    80006f64:	03219063          	bne	gp,s2,80006f84 <i_6873>

0000000080006f68 <i_6866>:
    80006f68:	11813183          	ld	gp,280(sp)

0000000080006f6c <i_6867>:
    80006f6c:	03b56db3          	rem	s11,a0,s11

0000000080006f70 <i_6868>:
    80006f70:	0231cfb3          	div	t6,gp,gp

0000000080006f74 <i_6869>:
    80006f74:	01fc8463          	beq	s9,t6,80006f7c <i_6871>

0000000080006f78 <i_6870>:
    80006f78:	03bd9063          	bne	s11,s11,80006f98 <i_6878>

0000000080006f7c <i_6871>:
    80006f7c:	e9811983          	lh	s3,-360(sp)

0000000080006f80 <i_6872>:
    80006f80:	003f9863          	bne	t6,gp,80006f90 <i_6876>

0000000080006f84 <i_6873>:
    80006f84:	04c11f83          	lh	t6,76(sp)

0000000080006f88 <i_6874>:
    80006f88:	02422f33          	mulhsu	t5,tp,tp

0000000080006f8c <i_6875>:
    80006f8c:	03efe063          	bltu	t6,t5,80006fac <i_6883>

0000000080006f90 <i_6876>:
    80006f90:	fe412083          	lw	ra,-28(sp)

0000000080006f94 <i_6877>:
    80006f94:	01308663          	beq	ra,s3,80006fa0 <i_6880>

0000000080006f98 <i_6878>:
    80006f98:	01813803          	ld	a6,24(sp)

0000000080006f9c <i_6879>:
    80006f9c:	e6016303          	lwu	t1,-416(sp)

0000000080006fa0 <i_6880>:
    80006fa0:	00450463          	beq	a0,tp,80006fa8 <i_6882>

0000000080006fa4 <i_6881>:
    80006fa4:	06013d83          	ld	s11,96(sp)

0000000080006fa8 <i_6882>:
    80006fa8:	02a7b333          	mulhu	t1,a5,a0

0000000080006fac <i_6883>:
    80006fac:	006cd463          	ble	t1,s9,80006fb4 <i_6885>

0000000080006fb0 <i_6884>:
    80006fb0:	00812d03          	lw	s10,8(sp)

0000000080006fb4 <i_6885>:
    80006fb4:	f3416403          	lwu	s0,-204(sp)

0000000080006fb8 <i_6886>:
    80006fb8:	07b13423          	sd	s11,104(sp)

0000000080006fbc <i_6887>:
    80006fbc:	bb5d3693          	sltiu	a3,s10,-1099

0000000080006fc0 <i_6888>:
    80006fc0:	16b10723          	sb	a1,366(sp)

0000000080006fc4 <i_6889>:
    80006fc4:	17e11c83          	lh	s9,382(sp)

0000000080006fc8 <i_6890>:
    80006fc8:	00200693          	li	a3,2

0000000080006fcc <i_6891>:
    80006fcc:	00d4543b          	srlw	s0,s0,a3

0000000080006fd0 <i_6892>:
    80006fd0:	fba11d03          	lh	s10,-70(sp)

0000000080006fd4 <i_6893>:
    80006fd4:	019f4a63          	blt	t5,s9,80006fe8 <i_6898>

0000000080006fd8 <i_6894>:
    80006fd8:	f6412083          	lw	ra,-156(sp)

0000000080006fdc <i_6895>:
    80006fdc:	02809f33          	mulh	t5,ra,s0

0000000080006fe0 <i_6896>:
    80006fe0:	e4113823          	sd	ra,-432(sp)

0000000080006fe4 <i_6897>:
    80006fe4:	03514ab3          	div	s5,sp,s5

0000000080006fe8 <i_6898>:
    80006fe8:	0d411c23          	sh	s4,216(sp)

0000000080006fec <i_6899>:
    80006fec:	fa110ca3          	sb	ra,-71(sp)

0000000080006ff0 <i_6900>:
    80006ff0:	02194063          	blt	s2,ra,80007010 <i_6908>

0000000080006ff4 <i_6901>:
    80006ff4:	f8e11083          	lh	ra,-114(sp)

0000000080006ff8 <i_6902>:
    80006ff8:	4024509b          	sraiw	ra,s0,0x2

0000000080006ffc <i_6903>:
    80006ffc:	00195a63          	ble	ra,s2,80007010 <i_6908>

0000000080007000 <i_6904>:
    80007000:	fe112a23          	sw	ra,-12(sp)

0000000080007004 <i_6905>:
    80007004:	01e00f13          	li	t5,30

0000000080007008 <i_6906>:
    80007008:	01e0993b          	sllw	s2,ra,t5

000000008000700c <i_6907>:
    8000700c:	eb213823          	sd	s2,-336(sp)

0000000080007010 <i_6908>:
    80007010:	0210d93b          	divuw	s2,ra,ra

0000000080007014 <i_6909>:
    80007014:	01bf7263          	bleu	s11,t5,80007018 <i_6910>

0000000080007018 <i_6910>:
    80007018:	004f1093          	slli	ra,t5,0x4

000000008000701c <i_6911>:
    8000701c:	f0c10e83          	lb	t4,-244(sp)

0000000080007020 <i_6912>:
    80007020:	001ede9b          	srliw	t4,t4,0x1

0000000080007024 <i_6913>:
    80007024:	01900d13          	li	s10,25

0000000080007028 <i_6914>:
    80007028:	01a09f3b          	sllw	t5,ra,s10

000000008000702c <i_6915>:
    8000702c:	09d10523          	sb	t4,138(sp)

0000000080007030 <i_6916>:
    80007030:	01def263          	bleu	t4,t4,80007034 <i_6917>

0000000080007034 <i_6917>:
    80007034:	01aef863          	bleu	s10,t4,80007044 <i_6921>

0000000080007038 <i_6918>:
    80007038:	f3d107a3          	sb	t4,-209(sp)

000000008000703c <i_6919>:
    8000703c:	02812e83          	lw	t4,40(sp)

0000000080007040 <i_6920>:
    80007040:	01ef0663          	beq	t5,t5,8000704c <i_6923>

0000000080007044 <i_6921>:
    80007044:	ea411d83          	lh	s11,-348(sp)

0000000080007048 <i_6922>:
    80007048:	03eecf33          	div	t5,t4,t5

000000008000704c <i_6923>:
    8000704c:	f7b13423          	sd	s11,-152(sp)

0000000080007050 <i_6924>:
    80007050:	01de9a63          	bne	t4,t4,80007064 <i_6929>

0000000080007054 <i_6925>:
    80007054:	04412d03          	lw	s10,68(sp)

0000000080007058 <i_6926>:
    80007058:	01eef5b3          	and	a1,t4,t5

000000008000705c <i_6927>:
    8000705c:	01ebe263          	bltu	s7,t5,80007060 <i_6928>

0000000080007060 <i_6928>:
    80007060:	dbf7fd93          	andi	s11,a5,-577

0000000080007064 <i_6929>:
    80007064:	e4611d03          	lh	s10,-442(sp)

0000000080007068 <i_6930>:
    80007068:	fe210683          	lb	a3,-30(sp)

000000008000706c <i_6931>:
    8000706c:	0f415e03          	lhu	t3,244(sp)

0000000080007070 <i_6932>:
    80007070:	03ad6263          	bltu	s10,s10,80007094 <i_6941>

0000000080007074 <i_6933>:
    80007074:	00be8263          	beq	t4,a1,80007078 <i_6934>

0000000080007078 <i_6934>:
    80007078:	10610403          	lb	s0,262(sp)

000000008000707c <i_6935>:
    8000707c:	f6415d03          	lhu	s10,-156(sp)

0000000080007080 <i_6936>:
    80007080:	01d00b13          	li	s6,29

0000000080007084 <i_6937>:
    80007084:	016b5d3b          	srlw	s10,s6,s6

0000000080007088 <i_6938>:
    80007088:	ff611d23          	sh	s6,-6(sp)

000000008000708c <i_6939>:
    8000708c:	00c674b3          	and	s1,a2,a2

0000000080007090 <i_6940>:
    80007090:	03e00093          	li	ra,62

0000000080007094 <i_6941>:
    80007094:	0014db33          	srl	s6,s1,ra

0000000080007098 <i_6942>:
    80007098:	02011803          	lh	a6,32(sp)

000000008000709c <i_6943>:
    8000709c:	01848c33          	add	s8,s1,s8

00000000800070a0 <i_6944>:
    800070a0:	03d00293          	li	t0,61

00000000800070a4 <i_6945>:
    800070a4:	00509833          	sll	a6,ra,t0

00000000800070a8 <i_6946>:
    800070a8:	78b8081b          	addiw	a6,a6,1931

00000000800070ac <i_6947>:
    800070ac:	0ea15583          	lhu	a1,234(sp)

00000000800070b0 <i_6948>:
    800070b0:	02b5d83b          	divuw	a6,a1,a1

00000000800070b4 <i_6949>:
    800070b4:	04b11423          	sh	a1,72(sp)

00000000800070b8 <i_6950>:
    800070b8:	10511023          	sh	t0,256(sp)

00000000800070bc <i_6951>:
    800070bc:	e0b10c23          	sb	a1,-488(sp)

00000000800070c0 <i_6952>:
    800070c0:	f0016483          	lwu	s1,-256(sp)

00000000800070c4 <i_6953>:
    800070c4:	0304ab33          	mulhsu	s6,s1,a6

00000000800070c8 <i_6954>:
    800070c8:	e2c12b03          	lw	s6,-468(sp)

00000000800070cc <i_6955>:
    800070cc:	17c11923          	sh	t3,370(sp)

00000000800070d0 <i_6956>:
    800070d0:	01680b33          	add	s6,a6,s6

00000000800070d4 <i_6957>:
    800070d4:	8cb00813          	li	a6,-1845

00000000800070d8 <i_6958>:
    800070d8:	8d200193          	li	gp,-1838

00000000800070dc <i_6959>:
    800070dc:	03c86e33          	rem	t3,a6,t3

00000000800070e0 <i_6960>:
    800070e0:	1e013b83          	ld	s7,480(sp)

00000000800070e4 <i_6961>:
    800070e4:	1a813e03          	ld	t3,424(sp)

00000000800070e8 <i_6962>:
    800070e8:	06013083          	ld	ra,96(sp)

00000000800070ec <i_6963>:
    800070ec:	037ba6b3          	mulhsu	a3,s7,s7

00000000800070f0 <i_6964>:
    800070f0:	00d0f0b3          	and	ra,ra,a3

00000000800070f4 <i_6965>:
    800070f4:	ecf13823          	sd	a5,-304(sp)

00000000800070f8 <i_6966>:
    800070f8:	00000013          	nop

00000000800070fc <i_6967>:
    800070fc:	e6110e23          	sb	ra,-388(sp)

0000000080007100 <i_6968>:
    80007100:	09c12683          	lw	a3,156(sp)

0000000080007104 <i_6969>:
    80007104:	10e11b03          	lh	s6,270(sp)

0000000080007108 <i_6970>:
    80007108:	17c11283          	lh	t0,380(sp)

000000008000710c <i_6971>:
    8000710c:	f2c12283          	lw	t0,-212(sp)

0000000080007110 <i_6972>:
    80007110:	00180813          	addi	a6,a6,1
    80007114:	fd01f4e3          	bleu	a6,gp,800070dc <i_6959>

0000000080007118 <i_6973>:
    80007118:	0376eeb3          	rem	t4,a3,s7

000000008000711c <i_6974>:
    8000711c:	f1911723          	sh	s9,-242(sp)

0000000080007120 <i_6975>:
    80007120:	01c15783          	lhu	a5,28(sp)

0000000080007124 <i_6976>:
    80007124:	0055e463          	bltu	a1,t0,8000712c <i_6978>

0000000080007128 <i_6977>:
    80007128:	f1813803          	ld	a6,-232(sp)

000000008000712c <i_6978>:
    8000712c:	1c816983          	lwu	s3,456(sp)

0000000080007130 <i_6979>:
    80007130:	e2611983          	lh	s3,-474(sp)

0000000080007134 <i_6980>:
    80007134:	11813983          	ld	s3,280(sp)

0000000080007138 <i_6981>:
    80007138:	7f184993          	xori	s3,a6,2033

000000008000713c <i_6982>:
    8000713c:	e2c12803          	lw	a6,-468(sp)

0000000080007140 <i_6983>:
    80007140:	404a5813          	srai	a6,s4,0x4

0000000080007144 <i_6984>:
    80007144:	007843b3          	xor	t2,a6,t2

0000000080007148 <i_6985>:
    80007148:	4023d313          	srai	t1,t2,0x2

000000008000714c <i_6986>:
    8000714c:	0073ce63          	blt	t2,t2,80007168 <i_6993>

0000000080007150 <i_6987>:
    80007150:	08612623          	sw	t1,140(sp)

0000000080007154 <i_6988>:
    80007154:	12713c23          	sd	t2,312(sp)

0000000080007158 <i_6989>:
    80007158:	f6712223          	sw	t2,-156(sp)

000000008000715c <i_6990>:
    8000715c:	0076c7b3          	xor	a5,a3,t2

0000000080007160 <i_6991>:
    80007160:	01e37f33          	and	t5,t1,t5

0000000080007164 <i_6992>:
    80007164:	0139c663          	blt	s3,s3,80007170 <i_6995>

0000000080007168 <i_6993>:
    80007168:	e1a11303          	lh	t1,-486(sp)

000000008000716c <i_6994>:
    8000716c:	0d4ec993          	xori	s3,t4,212

0000000080007170 <i_6995>:
    80007170:	99b5c997          	auipc	s3,0x99b5c

0000000080007174 <i_6996>:
    80007174:	00a26663          	bltu	tp,a0,80007180 <i_6999>

0000000080007178 <i_6997>:
    80007178:	01348a63          	beq	s1,s3,8000718c <i_7002>

000000008000717c <i_6998>:
    8000717c:	83c93913          	sltiu	s2,s2,-1988

0000000080007180 <i_6999>:
    80007180:	07011783          	lh	a5,112(sp)

0000000080007184 <i_7000>:
    80007184:	033791b3          	mulh	gp,a5,s3

0000000080007188 <i_7001>:
    80007188:	01318c63          	beq	gp,s3,800071a0 <i_7007>

000000008000718c <i_7002>:
    8000718c:	f4f11c23          	sh	a5,-168(sp)

0000000080007190 <i_7003>:
    80007190:	01e13423          	sd	t5,8(sp)

0000000080007194 <i_7004>:
    80007194:	004c9c93          	slli	s9,s9,0x4

0000000080007198 <i_7005>:
    80007198:	e5012483          	lw	s1,-432(sp)

000000008000719c <i_7006>:
    8000719c:	08c12f03          	lw	t5,140(sp)

00000000800071a0 <i_7007>:
    800071a0:	01ee4d33          	xor	s10,t3,t5

00000000800071a4 <i_7008>:
    800071a4:	fc910f23          	sb	s1,-34(sp)

00000000800071a8 <i_7009>:
    800071a8:	01ef74b3          	and	s1,t5,t5

00000000800071ac <i_7010>:
    800071ac:	01acfc63          	bleu	s10,s9,800071c4 <i_7016>

00000000800071b0 <i_7011>:
    800071b0:	031f6abb          	remw	s5,t5,a7

00000000800071b4 <i_7012>:
    800071b4:	009dec63          	bltu	s11,s1,800071cc <i_7018>

00000000800071b8 <i_7013>:
    800071b8:	0294f063          	bleu	s1,s1,800071d8 <i_7021>

00000000800071bc <i_7014>:
    800071bc:	035ae33b          	remw	t1,s5,s5

00000000800071c0 <i_7015>:
    800071c0:	0294cdb3          	div	s11,s1,s1

00000000800071c4 <i_7016>:
    800071c4:	1a014a03          	lbu	s4,416(sp)

00000000800071c8 <i_7017>:
    800071c8:	f3512023          	sw	s5,-224(sp)

00000000800071cc <i_7018>:
    800071cc:	00014d03          	lbu	s10,0(sp)

00000000800071d0 <i_7019>:
    800071d0:	00949c63          	bne	s1,s1,800071e8 <i_7025>

00000000800071d4 <i_7020>:
    800071d4:	03aa5263          	ble	s10,s4,800071f8 <i_7029>

00000000800071d8 <i_7021>:
    800071d8:	e9e10aa3          	sb	t5,-363(sp)

00000000800071dc <i_7022>:
    800071dc:	eeb12023          	sw	a1,-288(sp)

00000000800071e0 <i_7023>:
    800071e0:	01b44d33          	xor	s10,s0,s11

00000000800071e4 <i_7024>:
    800071e4:	edc11d83          	lh	s11,-292(sp)

00000000800071e8 <i_7025>:
    800071e8:	01bd83b3          	add	t2,s11,s11

00000000800071ec <i_7026>:
    800071ec:	0094d263          	ble	s1,s1,800071f0 <i_7027>

00000000800071f0 <i_7027>:
    800071f0:	09813483          	ld	s1,152(sp)

00000000800071f4 <i_7028>:
    800071f4:	01200c13          	li	s8,18

00000000800071f8 <i_7029>:
    800071f8:	018ddc33          	srl	s8,s11,s8

00000000800071fc <i_7030>:
    800071fc:	0f611d83          	lh	s11,246(sp)

0000000080007200 <i_7031>:
    80007200:	05611383          	lh	t2,86(sp)

0000000080007204 <i_7032>:
    80007204:	00000013          	nop

0000000080007208 <i_7033>:
    80007208:	1d013603          	ld	a2,464(sp)

000000008000720c <i_7034>:
    8000720c:	89000413          	li	s0,-1904

0000000080007210 <i_7035>:
    80007210:	89900393          	li	t2,-1895

0000000080007214 <i_7036>:
    80007214:	fce14803          	lbu	a6,-50(sp)

0000000080007218 <i_7037>:
    80007218:	e8c12503          	lw	a0,-372(sp)

000000008000721c <i_7038>:
    8000721c:	0303853b          	mulw	a0,t2,a6

0000000080007220 <i_7039>:
    80007220:	e2c13423          	sd	a2,-472(sp)

0000000080007224 <i_7040>:
    80007224:	00a40863          	beq	s0,a0,80007234 <i_7044>

0000000080007228 <i_7041>:
    80007228:	00d51463          	bne	a0,a3,80007230 <i_7043>

000000008000722c <i_7042>:
    8000722c:	0073ffb3          	and	t6,t2,t2

0000000080007230 <i_7043>:
    80007230:	00765263          	ble	t2,a2,80007234 <i_7044>

0000000080007234 <i_7044>:
    80007234:	03e3cf33          	div	t5,t2,t5

0000000080007238 <i_7045>:
    80007238:	00a3ca63          	blt	t2,a0,8000724c <i_7049>

000000008000723c <i_7046>:
    8000723c:	00140413          	addi	s0,s0,1
    80007240:	fc744ae3          	blt	s0,t2,80007214 <i_7036>

0000000080007244 <i_7047>:
    80007244:	14414183          	lbu	gp,324(sp)

0000000080007248 <i_7048>:
    80007248:	f2d10f03          	lb	t5,-211(sp)

000000008000724c <i_7049>:
    8000724c:	a004041b          	addiw	s0,s0,-1536

0000000080007250 <i_7050>:
    80007250:	00846263          	bltu	s0,s0,80007254 <i_7051>

0000000080007254 <i_7051>:
    80007254:	0239f9b3          	remu	s3,s3,gp

0000000080007258 <i_7052>:
    80007258:	008ec263          	blt	t4,s0,8000725c <i_7053>

000000008000725c <i_7053>:
    8000725c:	e5943413          	sltiu	s0,s0,-423

0000000080007260 <i_7054>:
    80007260:	402d5d1b          	sraiw	s10,s10,0x2

0000000080007264 <i_7055>:
    80007264:	008484b3          	add	s1,s1,s0

0000000080007268 <i_7056>:
    80007268:	0314e463          	bltu	s1,a7,80007290 <i_7066>

000000008000726c <i_7057>:
    8000726c:	f3813483          	ld	s1,-200(sp)

0000000080007270 <i_7058>:
    80007270:	02d484bb          	mulw	s1,s1,a3

0000000080007274 <i_7059>:
    80007274:	ef013c03          	ld	s8,-272(sp)

0000000080007278 <i_7060>:
    80007278:	00948cb3          	add	s9,s1,s1

000000008000727c <i_7061>:
    8000727c:	1b813023          	sd	s8,416(sp)

0000000080007280 <i_7062>:
    80007280:	00000013          	nop

0000000080007284 <i_7063>:
    80007284:	e29107a3          	sb	s1,-465(sp)

0000000080007288 <i_7064>:
    80007288:	11010483          	lb	s1,272(sp)

000000008000728c <i_7065>:
    8000728c:	e3a2829b          	addiw	t0,t0,-454

0000000080007290 <i_7066>:
    80007290:	fd910e03          	lb	t3,-39(sp)

0000000080007294 <i_7067>:
    80007294:	00812e03          	lw	t3,8(sp)

0000000080007298 <i_7068>:
    80007298:	8ad00413          	li	s0,-1875

000000008000729c <i_7069>:
    8000729c:	8b200693          	li	a3,-1870

00000000800072a0 <i_7070>:
    800072a0:	009fc3b3          	xor	t2,t6,s1

00000000800072a4 <i_7071>:
    800072a4:	00140413          	addi	s0,s0,1
    800072a8:	fe86dce3          	ble	s0,a3,800072a0 <i_7070>

00000000800072ac <i_7072>:
    800072ac:	03013c03          	ld	s8,48(sp)

00000000800072b0 <i_7073>:
    800072b0:	029e543b          	divuw	s0,t3,s1

00000000800072b4 <i_7074>:
    800072b4:	19911723          	sh	s9,398(sp)

00000000800072b8 <i_7075>:
    800072b8:	e6511f23          	sh	t0,-386(sp)

00000000800072bc <i_7076>:
    800072bc:	003e5e13          	srli	t3,t3,0x3

00000000800072c0 <i_7077>:
    800072c0:	01143433          	sltu	s0,s0,a7

00000000800072c4 <i_7078>:
    800072c4:	01ce6463          	bltu	t3,t3,800072cc <i_7080>

00000000800072c8 <i_7079>:
    800072c8:	eb816203          	lwu	tp,-328(sp)

00000000800072cc <i_7080>:
    800072cc:	af062c17          	auipc	s8,0xaf062

00000000800072d0 <i_7081>:
    800072d0:	f2c16483          	lwu	s1,-212(sp)

00000000800072d4 <i_7082>:
    800072d4:	03813423          	sd	s8,40(sp)

00000000800072d8 <i_7083>:
    800072d8:	0291b1b3          	mulhu	gp,gp,s1

00000000800072dc <i_7084>:
    800072dc:	4a2e2b93          	slti	s7,t3,1186

00000000800072e0 <i_7085>:
    800072e0:	0384d2b3          	divu	t0,s1,s8

00000000800072e4 <i_7086>:
    800072e4:	f2815483          	lhu	s1,-216(sp)

00000000800072e8 <i_7087>:
    800072e8:	0371b1b3          	mulhu	gp,gp,s7

00000000800072ec <i_7088>:
    800072ec:	fd016803          	lwu	a6,-48(sp)

00000000800072f0 <i_7089>:
    800072f0:	2a91e593          	ori	a1,gp,681

00000000800072f4 <i_7090>:
    800072f4:	00181213          	slli	tp,a6,0x1

00000000800072f8 <i_7091>:
    800072f8:	00b18a63          	beq	gp,a1,8000730c <i_7096>

00000000800072fc <i_7092>:
    800072fc:	0035c233          	xor	tp,a1,gp

0000000080007300 <i_7093>:
    80007300:	ec311123          	sh	gp,-318(sp)

0000000080007304 <i_7094>:
    80007304:	02012183          	lw	gp,32(sp)

0000000080007308 <i_7095>:
    80007308:	10a15803          	lhu	a6,266(sp)

000000008000730c <i_7096>:
    8000730c:	13011c23          	sh	a6,312(sp)

0000000080007310 <i_7097>:
    80007310:	01026863          	bltu	tp,a6,80007320 <i_7101>

0000000080007314 <i_7098>:
    80007314:	03c85463          	ble	t3,a6,8000733c <i_7108>

0000000080007318 <i_7099>:
    80007318:	03484263          	blt	a6,s4,8000733c <i_7108>

000000008000731c <i_7100>:
    8000731c:	16410283          	lb	t0,356(sp)

0000000080007320 <i_7101>:
    80007320:	00000013          	nop

0000000080007324 <i_7102>:
    80007324:	4011d413          	srai	s0,gp,0x1

0000000080007328 <i_7103>:
    80007328:	028241bb          	divw	gp,tp,s0

000000008000732c <i_7104>:
    8000732c:	fea14203          	lbu	tp,-22(sp)

0000000080007330 <i_7105>:
    80007330:	04812b83          	lw	s7,72(sp)

0000000080007334 <i_7106>:
    80007334:	f5415283          	lhu	t0,-172(sp)

0000000080007338 <i_7107>:
    80007338:	00000013          	nop

000000008000733c <i_7108>:
    8000733c:	0025931b          	slliw	t1,a1,0x2

0000000080007340 <i_7109>:
    80007340:	c8bcf237          	lui	tp,0xc8bcf

0000000080007344 <i_7110>:
    80007344:	85800813          	li	a6,-1960

0000000080007348 <i_7111>:
    80007348:	85f00593          	li	a1,-1953

000000008000734c <i_7112>:
    8000734c:	e4412303          	lw	t1,-444(sp)

0000000080007350 <i_7113>:
    80007350:	024852bb          	divuw	t0,a6,tp

0000000080007354 <i_7114>:
    80007354:	1cb12a23          	sw	a1,468(sp)

0000000080007358 <i_7115>:
    80007358:	0235f663          	bleu	gp,a1,80007384 <i_7125>

000000008000735c <i_7116>:
    8000735c:	00000013          	nop

0000000080007360 <i_7117>:
    80007360:	02526063          	bltu	tp,t0,80007380 <i_7124>

0000000080007364 <i_7118>:
    80007364:	00180813          	addi	a6,a6,1
    80007368:	ff05f2e3          	bleu	a6,a1,8000734c <i_7112>

000000008000736c <i_7119>:
    8000736c:	f9b10e83          	lb	t4,-101(sp)

0000000080007370 <i_7120>:
    80007370:	ec312423          	sw	gp,-312(sp)

0000000080007374 <i_7121>:
    80007374:	0232f263          	bleu	gp,t0,80007398 <i_7130>

0000000080007378 <i_7122>:
    80007378:	001e9413          	slli	s0,t4,0x1

000000008000737c <i_7123>:
    8000737c:	004eda1b          	srliw	s4,t4,0x4

0000000080007380 <i_7124>:
    80007380:	e8c16283          	lwu	t0,-372(sp)

0000000080007384 <i_7125>:
    80007384:	0342f833          	remu	a6,t0,s4

0000000080007388 <i_7126>:
    80007388:	ff413823          	sd	s4,-16(sp)

000000008000738c <i_7127>:
    8000738c:	f8e11e83          	lh	t4,-114(sp)

0000000080007390 <i_7128>:
    80007390:	fec10e83          	lb	t4,-20(sp)

0000000080007394 <i_7129>:
    80007394:	eb214a03          	lbu	s4,-334(sp)

0000000080007398 <i_7130>:
    80007398:	01700f13          	li	t5,23

000000008000739c <i_7131>:
    8000739c:	01e85433          	srl	s0,a6,t5

00000000800073a0 <i_7132>:
    800073a0:	f9614803          	lbu	a6,-106(sp)

00000000800073a4 <i_7133>:
    800073a4:	bf43fb97          	auipc	s7,0xbf43f

00000000800073a8 <i_7134>:
    800073a8:	002b981b          	slliw	a6,s7,0x2

00000000800073ac <i_7135>:
    800073ac:	7a4bcb93          	xori	s7,s7,1956

00000000800073b0 <i_7136>:
    800073b0:	f2611b83          	lh	s7,-218(sp)

00000000800073b4 <i_7137>:
    800073b4:	1c015b83          	lhu	s7,448(sp)

00000000800073b8 <i_7138>:
    800073b8:	01016503          	lwu	a0,16(sp)

00000000800073bc <i_7139>:
    800073bc:	00684863          	blt	a6,t1,800073cc <i_7143>

00000000800073c0 <i_7140>:
    800073c0:	003b9813          	slli	a6,s7,0x3

00000000800073c4 <i_7141>:
    800073c4:	00000013          	nop

00000000800073c8 <i_7142>:
    800073c8:	fb713823          	sd	s7,-80(sp)

00000000800073cc <i_7143>:
    800073cc:	02857533          	remu	a0,a0,s0

00000000800073d0 <i_7144>:
    800073d0:	ef713423          	sd	s7,-280(sp)

00000000800073d4 <i_7145>:
    800073d4:	81300b93          	li	s7,-2029

00000000800073d8 <i_7146>:
    800073d8:	82500413          	li	s0,-2011

00000000800073dc <i_7147>:
    800073dc:	02a40063          	beq	s0,a0,800073fc <i_7155>

00000000800073e0 <i_7148>:
    800073e0:	0035151b          	slliw	a0,a0,0x3

00000000800073e4 <i_7149>:
    800073e4:	13713c23          	sd	s7,312(sp)

00000000800073e8 <i_7150>:
    800073e8:	001d1f13          	slli	t5,s10,0x1

00000000800073ec <i_7151>:
    800073ec:	011b8863          	beq	s7,a7,800073fc <i_7155>

00000000800073f0 <i_7152>:
    800073f0:	01711663          	bne	sp,s7,800073fc <i_7155>

00000000800073f4 <i_7153>:
    800073f4:	0da15d03          	lhu	s10,218(sp)

00000000800073f8 <i_7154>:
    800073f8:	ff314b03          	lbu	s6,-13(sp)

00000000800073fc <i_7155>:
    800073fc:	e7712023          	sw	s7,-416(sp)

0000000080007400 <i_7156>:
    80007400:	00000013          	nop

0000000080007404 <i_7157>:
    80007404:	00000013          	nop

0000000080007408 <i_7158>:
    80007408:	001b8b93          	addi	s7,s7,1 # 3f4463a5 <main-0x40bb9c5b>
    8000740c:	fc8bc8e3          	blt	s7,s0,800073dc <i_7147>

0000000080007410 <i_7159>:
    80007410:	01ef6863          	bltu	t5,t5,80007420 <i_7163>

0000000080007414 <i_7160>:
    80007414:	02a449b3          	div	s3,s0,a0

0000000080007418 <i_7161>:
    80007418:	01a56db3          	or	s11,a0,s10

000000008000741c <i_7162>:
    8000741c:	017f4463          	blt	t5,s7,80007424 <i_7164>

0000000080007420 <i_7163>:
    80007420:	01000c13          	li	s8,16

0000000080007424 <i_7164>:
    80007424:	41855f3b          	sraw	t5,a0,s8

0000000080007428 <i_7165>:
    80007428:	fd813b83          	ld	s7,-40(sp)

000000008000742c <i_7166>:
    8000742c:	140bef13          	ori	t5,s7,320

0000000080007430 <i_7167>:
    80007430:	01ac2d33          	slt	s10,s8,s10

0000000080007434 <i_7168>:
    80007434:	00ec6c63          	bltu	s8,a4,8000744c <i_7174>

0000000080007438 <i_7169>:
    80007438:	00100d13          	li	s10,1

000000008000743c <i_7170>:
    8000743c:	01ad5d3b          	srlw	s10,s10,s10

0000000080007440 <i_7171>:
    80007440:	01ad3d33          	sltu	s10,s10,s10

0000000080007444 <i_7172>:
    80007444:	03ad4d33          	div	s10,s10,s10

0000000080007448 <i_7173>:
    80007448:	18f14383          	lbu	t2,399(sp)

000000008000744c <i_7174>:
    8000744c:	03ae9263          	bne	t4,s10,80007470 <i_7183>

0000000080007450 <i_7175>:
    80007450:	05010283          	lb	t0,80(sp)

0000000080007454 <i_7176>:
    80007454:	01ad5e63          	ble	s10,s10,80007470 <i_7183>

0000000080007458 <i_7177>:
    80007458:	0253e463          	bltu	t2,t0,80007480 <i_7187>

000000008000745c <i_7178>:
    8000745c:	005d0633          	add	a2,s10,t0

0000000080007460 <i_7179>:
    80007460:	13712023          	sw	s7,288(sp)

0000000080007464 <i_7180>:
    80007464:	04414603          	lbu	a2,68(sp)

0000000080007468 <i_7181>:
    80007468:	40265a9b          	sraiw	s5,a2,0x2

000000008000746c <i_7182>:
    8000746c:	16813423          	sd	s0,360(sp)

0000000080007470 <i_7183>:
    80007470:	01714483          	lbu	s1,23(sp)

0000000080007474 <i_7184>:
    80007474:	0ba15603          	lhu	a2,186(sp)

0000000080007478 <i_7185>:
    80007478:	f8810323          	sb	s0,-122(sp)

000000008000747c <i_7186>:
    8000747c:	14415303          	lhu	t1,324(sp)

0000000080007480 <i_7187>:
    80007480:	f8c10a23          	sb	a2,-108(sp)

0000000080007484 <i_7188>:
    80007484:	00300293          	li	t0,3

0000000080007488 <i_7189>:
    80007488:	40535d3b          	sraw	s10,t1,t0

000000008000748c <i_7190>:
    8000748c:	00578463          	beq	a5,t0,80007494 <i_7192>

0000000080007490 <i_7191>:
    80007490:	fd010603          	lb	a2,-48(sp)

0000000080007494 <i_7192>:
    80007494:	01ac7c63          	bleu	s10,s8,800074ac <i_7198>

0000000080007498 <i_7193>:
    80007498:	00c13423          	sd	a2,8(sp)

000000008000749c <i_7194>:
    8000749c:	03a28d33          	mul	s10,t0,s10

00000000800074a0 <i_7195>:
    800074a0:	00b00d13          	li	s10,11

00000000800074a4 <i_7196>:
    800074a4:	41a2d2bb          	sraw	t0,t0,s10

00000000800074a8 <i_7197>:
    800074a8:	f6812d03          	lw	s10,-152(sp)

00000000800074ac <i_7198>:
    800074ac:	025d0d33          	mul	s10,s10,t0

00000000800074b0 <i_7199>:
    800074b0:	0e812f03          	lw	t5,232(sp)

00000000800074b4 <i_7200>:
    800074b4:	0014159b          	slliw	a1,s0,0x1

00000000800074b8 <i_7201>:
    800074b8:	03a595b3          	mulh	a1,a1,s10

00000000800074bc <i_7202>:
    800074bc:	18511023          	sh	t0,384(sp)

00000000800074c0 <i_7203>:
    800074c0:	e9814283          	lbu	t0,-360(sp)

00000000800074c4 <i_7204>:
    800074c4:	02b5e2bb          	remw	t0,a1,a1

00000000800074c8 <i_7205>:
    800074c8:	03e31063          	bne	t1,t5,800074e8 <i_7213>

00000000800074cc <i_7206>:
    800074cc:	e1914303          	lbu	t1,-487(sp)

00000000800074d0 <i_7207>:
    800074d0:	02bf1463          	bne	t5,a1,800074f8 <i_7217>

00000000800074d4 <i_7208>:
    800074d4:	00634263          	blt	t1,t1,800074d8 <i_7209>

00000000800074d8 <i_7209>:
    800074d8:	00459d93          	slli	s11,a1,0x4

00000000800074dc <i_7210>:
    800074dc:	00400793          	li	a5,4

00000000800074e0 <i_7211>:
    800074e0:	00f2d5bb          	srlw	a1,t0,a5

00000000800074e4 <i_7212>:
    800074e4:	006d9863          	bne	s11,t1,800074f4 <i_7216>

00000000800074e8 <i_7213>:
    800074e8:	e6215d83          	lhu	s11,-414(sp)

00000000800074ec <i_7214>:
    800074ec:	030ebeb3          	mulhu	t4,t4,a6

00000000800074f0 <i_7215>:
    800074f0:	1ae14583          	lbu	a1,430(sp)

00000000800074f4 <i_7216>:
    800074f4:	006e9863          	bne	t4,t1,80007504 <i_7220>

00000000800074f8 <i_7217>:
    800074f8:	00b11d23          	sh	a1,26(sp)

00000000800074fc <i_7218>:
    800074fc:	0065c863          	blt	a1,t1,8000750c <i_7222>

0000000080007500 <i_7219>:
    80007500:	e5416803          	lwu	a6,-428(sp)

0000000080007504 <i_7220>:
    80007504:	f6016083          	lwu	ra,-160(sp)

0000000080007508 <i_7221>:
    80007508:	01600313          	li	t1,22

000000008000750c <i_7222>:
    8000750c:	0068583b          	srlw	a6,a6,t1

0000000080007510 <i_7223>:
    80007510:	00b13023          	sd	a1,0(sp)

0000000080007514 <i_7224>:
    80007514:	00f58e63          	beq	a1,a5,80007530 <i_7231>

0000000080007518 <i_7225>:
    80007518:	00b086b3          	add	a3,ra,a1

000000008000751c <i_7226>:
    8000751c:	02b83833          	mulhu	a6,a6,a1

0000000080007520 <i_7227>:
    80007520:	ae75fe97          	auipc	t4,0xae75f

0000000080007524 <i_7228>:
    80007524:	ee1109a3          	sb	ra,-269(sp)

0000000080007528 <i_7229>:
    80007528:	ead12423          	sw	a3,-344(sp)

000000008000752c <i_7230>:
    8000752c:	e7813583          	ld	a1,-392(sp)

0000000080007530 <i_7231>:
    80007530:	f9015583          	lhu	a1,-112(sp)

0000000080007534 <i_7232>:
    80007534:	0025d59b          	srliw	a1,a1,0x2

0000000080007538 <i_7233>:
    80007538:	84600a13          	li	s4,-1978

000000008000753c <i_7234>:
    8000753c:	85700093          	li	ra,-1961

0000000080007540 <i_7235>:
    80007540:	e7c10683          	lb	a3,-388(sp)

0000000080007544 <i_7236>:
    80007544:	001a0a13          	addi	s4,s4,1
    80007548:	ff40fce3          	bleu	s4,ra,80007540 <i_7235>

000000008000754c <i_7237>:
    8000754c:	02143fb3          	mulhu	t6,s0,ra

0000000080007550 <i_7238>:
    80007550:	02000693          	li	a3,32

0000000080007554 <i_7239>:
    80007554:	00d31533          	sll	a0,t1,a3

0000000080007558 <i_7240>:
    80007558:	00b15663          	ble	a1,sp,80007564 <i_7243>

000000008000755c <i_7241>:
    8000755c:	0013559b          	srliw	a1,t1,0x1

0000000080007560 <i_7242>:
    80007560:	0fa10d03          	lb	s10,250(sp)

0000000080007564 <i_7243>:
    80007564:	f81105a3          	sb	ra,-117(sp)

0000000080007568 <i_7244>:
    80007568:	02b00593          	li	a1,43

000000008000756c <i_7245>:
    8000756c:	00bd5833          	srl	a6,s10,a1

0000000080007570 <i_7246>:
    80007570:	03ffd333          	divu	t1,t6,t6

0000000080007574 <i_7247>:
    80007574:	15011083          	lh	ra,336(sp)

0000000080007578 <i_7248>:
    80007578:	ec615583          	lhu	a1,-314(sp)

000000008000757c <i_7249>:
    8000757c:	03f0a333          	mulhsu	t1,ra,t6

0000000080007580 <i_7250>:
    80007580:	f9408f1b          	addiw	t5,ra,-108

0000000080007584 <i_7251>:
    80007584:	021f8d33          	mul	s10,t6,ra

0000000080007588 <i_7252>:
    80007588:	14510823          	sb	t0,336(sp)

000000008000758c <i_7253>:
    8000758c:	0105c463          	blt	a1,a6,80007594 <i_7255>

0000000080007590 <i_7254>:
    80007590:	002f5c9b          	srliw	s9,t5,0x2

0000000080007594 <i_7255>:
    80007594:	f9416c03          	lwu	s8,-108(sp)

0000000080007598 <i_7256>:
    80007598:	13813023          	sd	s8,288(sp)

000000008000759c <i_7257>:
    8000759c:	02b0d263          	ble	a1,ra,800075c0 <i_7266>

00000000800075a0 <i_7258>:
    800075a0:	05011f83          	lh	t6,80(sp)

00000000800075a4 <i_7259>:
    800075a4:	0210fb33          	remu	s6,ra,ra

00000000800075a8 <i_7260>:
    800075a8:	0140f663          	bleu	s4,ra,800075b4 <i_7263>

00000000800075ac <i_7261>:
    800075ac:	001f06b3          	add	a3,t5,ra

00000000800075b0 <i_7262>:
    800075b0:	f9816803          	lwu	a6,-104(sp)

00000000800075b4 <i_7263>:
    800075b4:	016a7a33          	and	s4,s4,s6

00000000800075b8 <i_7264>:
    800075b8:	03ba4a3b          	divw	s4,s4,s11

00000000800075bc <i_7265>:
    800075bc:	0116ca63          	blt	a3,a7,800075d0 <i_7270>

00000000800075c0 <i_7266>:
    800075c0:	002a5d9b          	srliw	s11,s4,0x2

00000000800075c4 <i_7267>:
    800075c4:	03ba61bb          	remw	gp,s4,s11

00000000800075c8 <i_7268>:
    800075c8:	faa10a03          	lb	s4,-86(sp)

00000000800075cc <i_7269>:
    800075cc:	15211183          	lh	gp,338(sp)

00000000800075d0 <i_7270>:
    800075d0:	003f9a63          	bne	t6,gp,800075e4 <i_7275>

00000000800075d4 <i_7271>:
    800075d4:	c8119c17          	auipc	s8,0xc8119

00000000800075d8 <i_7272>:
    800075d8:	f7710223          	sb	s7,-156(sp)

00000000800075dc <i_7273>:
    800075dc:	f7110183          	lb	gp,-143(sp)

00000000800075e0 <i_7274>:
    800075e0:	1bc12183          	lw	gp,444(sp)

00000000800075e4 <i_7275>:
    800075e4:	ea012b83          	lw	s7,-352(sp)

00000000800075e8 <i_7276>:
    800075e8:	d41e6b97          	auipc	s7,0xd41e6

00000000800075ec <i_7277>:
    800075ec:	043103a3          	sb	gp,71(sp)

00000000800075f0 <i_7278>:
    800075f0:	00812183          	lw	gp,8(sp)

00000000800075f4 <i_7279>:
    800075f4:	0231c433          	div	s0,gp,gp

00000000800075f8 <i_7280>:
    800075f8:	298db1b7          	lui	gp,0x298db

00000000800075fc <i_7281>:
    800075fc:	01811683          	lh	a3,24(sp)

0000000080007600 <i_7282>:
    80007600:	01719c63          	bne	gp,s7,80007618 <i_7288>

0000000080007604 <i_7283>:
    80007604:	e7813823          	sd	s8,-400(sp)

0000000080007608 <i_7284>:
    80007608:	e16bb393          	sltiu	t2,s7,-490

000000008000760c <i_7285>:
    8000760c:	0231a1b3          	mulhsu	gp,gp,gp

0000000080007610 <i_7286>:
    80007610:	0a614b03          	lbu	s6,166(sp)

0000000080007614 <i_7287>:
    80007614:	02344263          	blt	s0,gp,80007638 <i_7296>

0000000080007618 <i_7288>:
    80007618:	02d1de33          	divu	t3,gp,a3

000000008000761c <i_7289>:
    8000761c:	f0012403          	lw	s0,-256(sp)

0000000080007620 <i_7290>:
    80007620:	eb312c23          	sw	s3,-328(sp)

0000000080007624 <i_7291>:
    80007624:	0372b2b3          	mulhu	t0,t0,s7

0000000080007628 <i_7292>:
    80007628:	fb812283          	lw	t0,-72(sp)

000000008000762c <i_7293>:
    8000762c:	1c412783          	lw	a5,452(sp)

0000000080007630 <i_7294>:
    80007630:	00279d1b          	slliw	s10,a5,0x2

0000000080007634 <i_7295>:
    80007634:	00318463          	beq	gp,gp,8000763c <i_7297>

0000000080007638 <i_7296>:
    80007638:	014e09b3          	add	s3,t3,s4

000000008000763c <i_7297>:
    8000763c:	fa612a23          	sw	t1,-76(sp)

0000000080007640 <i_7298>:
    80007640:	eeb36313          	ori	t1,t1,-277

0000000080007644 <i_7299>:
    80007644:	08610023          	sb	t1,128(sp)

0000000080007648 <i_7300>:
    80007648:	17312223          	sw	s3,356(sp)

000000008000764c <i_7301>:
    8000764c:	16813c03          	ld	s8,360(sp)

0000000080007650 <i_7302>:
    80007650:	08812403          	lw	s0,136(sp)

0000000080007654 <i_7303>:
    80007654:	003d1993          	slli	s3,s10,0x3

0000000080007658 <i_7304>:
    80007658:	03813823          	sd	s8,48(sp)

000000008000765c <i_7305>:
    8000765c:	01797833          	and	a6,s2,s7

0000000080007660 <i_7306>:
    80007660:	f2714383          	lbu	t2,-217(sp)

0000000080007664 <i_7307>:
    80007664:	f4d14383          	lbu	t2,-179(sp)

0000000080007668 <i_7308>:
    80007668:	6e63cc13          	xori	s8,t2,1766

000000008000766c <i_7309>:
    8000766c:	eec12183          	lw	gp,-276(sp)

0000000080007670 <i_7310>:
    80007670:	418c03bb          	subw	t2,s8,s8

0000000080007674 <i_7311>:
    80007674:	e4e15183          	lhu	gp,-434(sp)

0000000080007678 <i_7312>:
    80007678:	0a312223          	sw	gp,164(sp)

000000008000767c <i_7313>:
    8000767c:	02396ab3          	rem	s5,s2,gp

0000000080007680 <i_7314>:
    80007680:	e48af313          	andi	t1,s5,-440

0000000080007684 <i_7315>:
    80007684:	06312823          	sw	gp,112(sp)

0000000080007688 <i_7316>:
    80007688:	0031e863          	bltu	gp,gp,80007698 <i_7320>

000000008000768c <i_7317>:
    8000768c:	e2816d03          	lwu	s10,-472(sp)

0000000080007690 <i_7318>:
    80007690:	4031569b          	sraiw	a3,sp,0x3

0000000080007694 <i_7319>:
    80007694:	f8313423          	sd	gp,-120(sp)

0000000080007698 <i_7320>:
    80007698:	e4514183          	lbu	gp,-443(sp)

000000008000769c <i_7321>:
    8000769c:	01000793          	li	a5,16

00000000800076a0 <i_7322>:
    800076a0:	00f399bb          	sllw	s3,t2,a5

00000000800076a4 <i_7323>:
    800076a4:	7c600a93          	li	s5,1990

00000000800076a8 <i_7324>:
    800076a8:	7d500213          	li	tp,2005

00000000800076ac <i_7325>:
    800076ac:	00479c63          	bne	a5,tp,800076c4 <i_7331>

00000000800076b0 <i_7326>:
    800076b0:	08212c23          	sw	sp,152(sp)

00000000800076b4 <i_7327>:
    800076b4:	41ea8f3b          	subw	t5,s5,t5

00000000800076b8 <i_7328>:
    800076b8:	0276d333          	divu	t1,a3,t2

00000000800076bc <i_7329>:
    800076bc:	04813303          	ld	t1,72(sp)

00000000800076c0 <i_7330>:
    800076c0:	250be697          	auipc	a3,0x250be

00000000800076c4 <i_7331>:
    800076c4:	01545463          	ble	s5,s0,800076cc <i_7333>

00000000800076c8 <i_7332>:
    800076c8:	f0610383          	lb	t2,-250(sp)

00000000800076cc <i_7333>:
    800076cc:	08610423          	sb	t1,136(sp)

00000000800076d0 <i_7334>:
    800076d0:	06613823          	sd	t1,112(sp)

00000000800076d4 <i_7335>:
    800076d4:	03f00d13          	li	s10,63

00000000800076d8 <i_7336>:
    800076d8:	01a69333          	sll	t1,a3,s10

00000000800076dc <i_7337>:
    800076dc:	8db2e813          	ori	a6,t0,-1829

00000000800076e0 <i_7338>:
    800076e0:	01087833          	and	a6,a6,a6

00000000800076e4 <i_7339>:
    800076e4:	e4c15083          	lhu	ra,-436(sp)

00000000800076e8 <i_7340>:
    800076e8:	00000013          	nop

00000000800076ec <i_7341>:
    800076ec:	001a8a93          	addi	s5,s5,1
    800076f0:	fb527ee3          	bleu	s5,tp,800076ac <i_7325>

00000000800076f4 <i_7342>:
    800076f4:	16613c23          	sd	t1,376(sp)

00000000800076f8 <i_7343>:
    800076f8:	ee812503          	lw	a0,-280(sp)

00000000800076fc <i_7344>:
    800076fc:	03c57263          	bleu	t3,a0,80007720 <i_7353>

0000000080007700 <i_7345>:
    80007700:	eb012e03          	lw	t3,-336(sp)

0000000080007704 <i_7346>:
    80007704:	f7c12823          	sw	t3,-144(sp)

0000000080007708 <i_7347>:
    80007708:	00634463          	blt	t1,t1,80007710 <i_7349>

000000008000770c <i_7348>:
    8000770c:	05a13c23          	sd	s10,88(sp)

0000000080007710 <i_7349>:
    80007710:	02657063          	bleu	t1,a0,80007730 <i_7357>

0000000080007714 <i_7350>:
    80007714:	e3c12603          	lw	a2,-452(sp)

0000000080007718 <i_7351>:
    80007718:	00ce4863          	blt	t3,a2,80007728 <i_7355>

000000008000771c <i_7352>:
    8000771c:	01ce7463          	bleu	t3,t3,80007724 <i_7354>

0000000080007720 <i_7353>:
    80007720:	01cef933          	and	s2,t4,t3

0000000080007724 <i_7354>:
    80007724:	e9412783          	lw	a5,-364(sp)

0000000080007728 <i_7355>:
    80007728:	01ae6d33          	or	s10,t3,s10

000000008000772c <i_7356>:
    8000772c:	00cd0e63          	beq	s10,a2,80007748 <i_7363>

0000000080007730 <i_7357>:
    80007730:	08c10723          	sb	a2,142(sp)

0000000080007734 <i_7358>:
    80007734:	03251463          	bne	a0,s2,8000775c <i_7368>

0000000080007738 <i_7359>:
    80007738:	03ce0463          	beq	t3,t3,80007760 <i_7369>

000000008000773c <i_7360>:
    8000773c:	0c510503          	lb	a0,197(sp)

0000000080007740 <i_7361>:
    80007740:	00000013          	nop

0000000080007744 <i_7362>:
    80007744:	f1710b23          	sb	s7,-234(sp)

0000000080007748 <i_7363>:
    80007748:	f6016503          	lwu	a0,-160(sp)

000000008000774c <i_7364>:
    8000774c:	fe7104a3          	sb	t2,-23(sp)

0000000080007750 <i_7365>:
    80007750:	00800d93          	li	s11,8

0000000080007754 <i_7366>:
    80007754:	01bdd63b          	srlw	a2,s11,s11

0000000080007758 <i_7367>:
    80007758:	0265463b          	divw	a2,a0,t1

000000008000775c <i_7368>:
    8000775c:	00000013          	nop

0000000080007760 <i_7369>:
    80007760:	03bd9ab3          	mulh	s5,s11,s11

0000000080007764 <i_7370>:
    80007764:	015101a3          	sb	s5,3(sp)

0000000080007768 <i_7371>:
    80007768:	83500313          	li	t1,-1995

000000008000776c <i_7372>:
    8000776c:	84100193          	li	gp,-1983

0000000080007770 <i_7373>:
    80007770:	00c19463          	bne	gp,a2,80007778 <i_7375>

0000000080007774 <i_7374>:
    80007774:	08412603          	lw	a2,132(sp)

0000000080007778 <i_7375>:
    80007778:	fc012383          	lw	t2,-64(sp)

000000008000777c <i_7376>:
    8000777c:	02cdcabb          	divw	s5,s11,a2

0000000080007780 <i_7377>:
    80007780:	fc614c03          	lbu	s8,-58(sp)

0000000080007784 <i_7378>:
    80007784:	00130313          	addi	t1,t1,1
    80007788:	fe61f4e3          	bleu	t1,gp,80007770 <i_7373>

000000008000778c <i_7379>:
    8000778c:	01ea8863          	beq	s5,t5,8000779c <i_7383>

0000000080007790 <i_7380>:
    80007790:	00cf2c33          	slt	s8,t5,a2

0000000080007794 <i_7381>:
    80007794:	40475a9b          	sraiw	s5,a4,0x4

0000000080007798 <i_7382>:
    80007798:	02cf4d33          	div	s10,t5,a2

000000008000779c <i_7383>:
    8000779c:	f3816d03          	lwu	s10,-200(sp)

00000000800077a0 <i_7384>:
    800077a0:	e9816d03          	lwu	s10,-360(sp)

00000000800077a4 <i_7385>:
    800077a4:	80400f13          	li	t5,-2044

00000000800077a8 <i_7386>:
    800077a8:	80b00613          	li	a2,-2037

00000000800077ac <i_7387>:
    800077ac:	0355fdb3          	remu	s11,a1,s5

00000000800077b0 <i_7388>:
    800077b0:	02cb50bb          	divuw	ra,s6,a2

00000000800077b4 <i_7389>:
    800077b4:	edb12023          	sw	s11,-320(sp)

00000000800077b8 <i_7390>:
    800077b8:	033f6463          	bltu	t5,s3,800077e0 <i_7399>

00000000800077bc <i_7391>:
    800077bc:	1ba11a23          	sh	s10,436(sp)

00000000800077c0 <i_7392>:
    800077c0:	03910183          	lb	gp,57(sp)

00000000800077c4 <i_7393>:
    800077c4:	001f0f13          	addi	t5,t5,1
    800077c8:	fecf42e3          	blt	t5,a2,800077ac <i_7387>

00000000800077cc <i_7394>:
    800077cc:	037d46bb          	divw	a3,s10,s7

00000000800077d0 <i_7395>:
    800077d0:	f8c16b83          	lwu	s7,-116(sp)

00000000800077d4 <i_7396>:
    800077d4:	00dbc263          	blt	s7,a3,800077d8 <i_7397>

00000000800077d8 <i_7397>:
    800077d8:	05816183          	lwu	gp,88(sp)

00000000800077dc <i_7398>:
    800077dc:	18d13c23          	sd	a3,408(sp)

00000000800077e0 <i_7399>:
    800077e0:	15a10683          	lb	a3,346(sp)

00000000800077e4 <i_7400>:
    800077e4:	17711023          	sh	s7,352(sp)

00000000800077e8 <i_7401>:
    800077e8:	f5013d83          	ld	s11,-176(sp)

00000000800077ec <i_7402>:
    800077ec:	e5012a83          	lw	s5,-432(sp)

00000000800077f0 <i_7403>:
    800077f0:	00dd7863          	bleu	a3,s10,80007800 <i_7407>

00000000800077f4 <i_7404>:
    800077f4:	03b9863b          	mulw	a2,s3,s11

00000000800077f8 <i_7405>:
    800077f8:	401bd39b          	sraiw	t2,s7,0x1

00000000800077fc <i_7406>:
    800077fc:	10813d83          	ld	s11,264(sp)

0000000080007800 <i_7407>:
    80007800:	f2914e83          	lbu	t4,-215(sp)

0000000080007804 <i_7408>:
    80007804:	f4813203          	ld	tp,-184(sp)

0000000080007808 <i_7409>:
    80007808:	0244823b          	mulw	tp,s1,tp

000000008000780c <i_7410>:
    8000780c:	12412a23          	sw	tp,308(sp)

0000000080007810 <i_7411>:
    80007810:	024a6233          	rem	tp,s4,tp

0000000080007814 <i_7412>:
    80007814:	01b203b3          	add	t2,tp,s11

0000000080007818 <i_7413>:
    80007818:	fdd14783          	lbu	a5,-35(sp)

000000008000781c <i_7414>:
    8000781c:	4d122993          	slti	s3,tp,1233

0000000080007820 <i_7415>:
    80007820:	e6012683          	lw	a3,-416(sp)

0000000080007824 <i_7416>:
    80007824:	0a412623          	sw	tp,172(sp)

0000000080007828 <i_7417>:
    80007828:	02426e3b          	remw	t3,tp,tp

000000008000782c <i_7418>:
    8000782c:	1af10e83          	lb	t4,431(sp)

0000000080007830 <i_7419>:
    80007830:	00479a63          	bne	a5,tp,80007844 <i_7424>

0000000080007834 <i_7420>:
    80007834:	15d10c23          	sb	t4,344(sp)

0000000080007838 <i_7421>:
    80007838:	0a411c23          	sh	tp,184(sp)

000000008000783c <i_7422>:
    8000783c:	0049e463          	bltu	s3,tp,80007844 <i_7424>

0000000080007840 <i_7423>:
    80007840:	03d20263          	beq	tp,t4,80007864 <i_7432>

0000000080007844 <i_7424>:
    80007844:	0333f2b3          	remu	t0,t2,s3

0000000080007848 <i_7425>:
    80007848:	efc10ea3          	sb	t3,-259(sp)

000000008000784c <i_7426>:
    8000784c:	1dc12683          	lw	a3,476(sp)

0000000080007850 <i_7427>:
    80007850:	01d9c263          	blt	s3,t4,80007854 <i_7428>

0000000080007854 <i_7428>:
    80007854:	03611083          	lh	ra,54(sp)

0000000080007858 <i_7429>:
    80007858:	12314583          	lbu	a1,291(sp)

000000008000785c <i_7430>:
    8000785c:	40b9843b          	subw	s0,s3,a1

0000000080007860 <i_7431>:
    80007860:	024e3ab3          	mulhu	s5,t3,tp

0000000080007864 <i_7432>:
    80007864:	e5d10ba3          	sb	t4,-425(sp)

0000000080007868 <i_7433>:
    80007868:	0ac15803          	lhu	a6,172(sp)

000000008000786c <i_7434>:
    8000786c:	7d200313          	li	t1,2002

0000000080007870 <i_7435>:
    80007870:	7da00293          	li	t0,2010

0000000080007874 <i_7436>:
    80007874:	01e00c13          	li	s8,30

0000000080007878 <i_7437>:
    80007878:	018859bb          	srlw	s3,a6,s8

000000008000787c <i_7438>:
    8000787c:	78900693          	li	a3,1929

0000000080007880 <i_7439>:
    80007880:	79800b93          	li	s7,1944

0000000080007884 <i_7440>:
    80007884:	02700c13          	li	s8,39

0000000080007888 <i_7441>:
    80007888:	018990b3          	sll	ra,s3,s8

000000008000788c <i_7442>:
    8000788c:	00168693          	addi	a3,a3,1 # a50c56c1 <_end+0x250b52ad>
    80007890:	ff76cae3          	blt	a3,s7,80007884 <i_7440>

0000000080007894 <i_7443>:
    80007894:	02d6e1b3          	rem	gp,a3,a3

0000000080007898 <i_7444>:
    80007898:	01e00393          	li	t2,30

000000008000789c <i_7445>:
    8000789c:	00721f33          	sll	t5,tp,t2

00000000800078a0 <i_7446>:
    800078a0:	00231c63          	bne	t1,sp,800078b8 <i_7451>

00000000800078a4 <i_7447>:
    800078a4:	00130313          	addi	t1,t1,1
    800078a8:	fc62f6e3          	bleu	t1,t0,80007874 <i_7436>

00000000800078ac <i_7448>:
    800078ac:	00499493          	slli	s1,s3,0x4

00000000800078b0 <i_7449>:
    800078b0:	01369863          	bne	a3,s3,800078c0 <i_7453>

00000000800078b4 <i_7450>:
    800078b4:	03c5ef33          	rem	t5,a1,t3

00000000800078b8 <i_7451>:
    800078b8:	d0a96813          	ori	a6,s2,-758

00000000800078bc <i_7452>:
    800078bc:	12513c23          	sd	t0,312(sp)

00000000800078c0 <i_7453>:
    800078c0:	029f60b3          	rem	ra,t5,s1

00000000800078c4 <i_7454>:
    800078c4:	023b6463          	bltu	s6,gp,800078ec <i_7464>

00000000800078c8 <i_7455>:
    800078c8:	fec11503          	lh	a0,-20(sp)

00000000800078cc <i_7456>:
    800078cc:	0040cc63          	blt	ra,tp,800078e4 <i_7462>

00000000800078d0 <i_7457>:
    800078d0:	1d412823          	sw	s4,464(sp)

00000000800078d4 <i_7458>:
    800078d4:	f3412e03          	lw	t3,-204(sp)

00000000800078d8 <i_7459>:
    800078d8:	fc816503          	lwu	a0,-56(sp)

00000000800078dc <i_7460>:
    800078dc:	1e416b83          	lwu	s7,484(sp)

00000000800078e0 <i_7461>:
    800078e0:	1b811123          	sh	s8,418(sp)

00000000800078e4 <i_7462>:
    800078e4:	40a1853b          	subw	a0,gp,a0

00000000800078e8 <i_7463>:
    800078e8:	f0c16183          	lwu	gp,-244(sp)

00000000800078ec <i_7464>:
    800078ec:	02a08463          	beq	ra,a0,80007914 <i_7474>

00000000800078f0 <i_7465>:
    800078f0:	ecb10123          	sb	a1,-318(sp)

00000000800078f4 <i_7466>:
    800078f4:	00a50d33          	add	s10,a0,a0

00000000800078f8 <i_7467>:
    800078f8:	01a50463          	beq	a0,s10,80007900 <i_7469>

00000000800078fc <i_7468>:
    800078fc:	11a13423          	sd	s10,264(sp)

0000000080007900 <i_7469>:
    80007900:	037b9533          	mulh	a0,s7,s7

0000000080007904 <i_7470>:
    80007904:	037b9463          	bne	s7,s7,8000792c <i_7480>

0000000080007908 <i_7471>:
    80007908:	00a1e263          	bltu	gp,a0,8000790c <i_7472>

000000008000790c <i_7472>:
    8000790c:	01b00d13          	li	s10,27

0000000080007910 <i_7473>:
    80007910:	01a0d533          	srl	a0,ra,s10

0000000080007914 <i_7474>:
    80007914:	40155913          	srai	s2,a0,0x1

0000000080007918 <i_7475>:
    80007918:	0f415283          	lhu	t0,244(sp)

000000008000791c <i_7476>:
    8000791c:	e5052413          	slti	s0,a0,-432

0000000080007920 <i_7477>:
    80007920:	0fa15303          	lhu	t1,250(sp)

0000000080007924 <i_7478>:
    80007924:	06b11823          	sh	a1,112(sp)

0000000080007928 <i_7479>:
    80007928:	0b110503          	lb	a0,177(sp)

000000008000792c <i_7480>:
    8000792c:	fcb14303          	lbu	t1,-53(sp)

0000000080007930 <i_7481>:
    80007930:	00646663          	bltu	s0,t1,8000793c <i_7484>

0000000080007934 <i_7482>:
    80007934:	40455093          	srai	ra,a0,0x4

0000000080007938 <i_7483>:
    80007938:	402cd31b          	sraiw	t1,s9,0x2

000000008000793c <i_7484>:
    8000793c:	f6015503          	lhu	a0,-160(sp)

0000000080007940 <i_7485>:
    80007940:	10c14083          	lbu	ra,268(sp)

0000000080007944 <i_7486>:
    80007944:	f9215783          	lhu	a5,-110(sp)

0000000080007948 <i_7487>:
    80007948:	0038d913          	srli	s2,a7,0x3

000000008000794c <i_7488>:
    8000794c:	03b00513          	li	a0,59

0000000080007950 <i_7489>:
    80007950:	00aed7b3          	srl	a5,t4,a0

0000000080007954 <i_7490>:
    80007954:	00f57c63          	bleu	a5,a0,8000796c <i_7496>

0000000080007958 <i_7491>:
    80007958:	01250663          	beq	a0,s2,80007964 <i_7494>

000000008000795c <i_7492>:
    8000795c:	2739b613          	sltiu	a2,s3,627

0000000080007960 <i_7493>:
    80007960:	ff016e83          	lwu	t4,-16(sp)

0000000080007964 <i_7494>:
    80007964:	07a11683          	lh	a3,122(sp)

0000000080007968 <i_7495>:
    80007968:	f0c10223          	sb	a2,-252(sp)

000000008000796c <i_7496>:
    8000796c:	02d650b3          	divu	ra,a2,a3

0000000080007970 <i_7497>:
    80007970:	03d537b3          	mulhu	a5,a0,t4

0000000080007974 <i_7498>:
    80007974:	f4411403          	lh	s0,-188(sp)

0000000080007978 <i_7499>:
    80007978:	12813983          	ld	s3,296(sp)

000000008000797c <i_7500>:
    8000797c:	78f00693          	li	a3,1935

0000000080007980 <i_7501>:
    80007980:	79d00513          	li	a0,1949

0000000080007984 <i_7502>:
    80007984:	a1f12093          	slti	ra,sp,-1505

0000000080007988 <i_7503>:
    80007988:	033d5d3b          	divuw	s10,s10,s3

000000008000798c <i_7504>:
    8000798c:	03800993          	li	s3,56

0000000080007990 <i_7505>:
    80007990:	013259b3          	srl	s3,tp,s3

0000000080007994 <i_7506>:
    80007994:	e5112223          	sw	a7,-444(sp)

0000000080007998 <i_7507>:
    80007998:	18412983          	lw	s3,388(sp)

000000008000799c <i_7508>:
    8000799c:	00168693          	addi	a3,a3,1
    800079a0:	fea6c2e3          	blt	a3,a0,80007984 <i_7502>

00000000800079a4 <i_7509>:
    800079a4:	0e011983          	lh	s3,224(sp)

00000000800079a8 <i_7510>:
    800079a8:	0a013a83          	ld	s5,160(sp)

00000000800079ac <i_7511>:
    800079ac:	03290933          	mul	s2,s2,s2

00000000800079b0 <i_7512>:
    800079b0:	f0714b83          	lbu	s7,-249(sp)

00000000800079b4 <i_7513>:
    800079b4:	0359c9b3          	div	s3,s3,s5

00000000800079b8 <i_7514>:
    800079b8:	ff512223          	sw	s5,-28(sp)

00000000800079bc <i_7515>:
    800079bc:	013b8a63          	beq	s7,s3,800079d0 <i_7520>

00000000800079c0 <i_7516>:
    800079c0:	e6a11983          	lh	s3,-406(sp)

00000000800079c4 <i_7517>:
    800079c4:	033b89b3          	mul	s3,s7,s3

00000000800079c8 <i_7518>:
    800079c8:	f7611e23          	sh	s6,-132(sp)

00000000800079cc <i_7519>:
    800079cc:	0169aab3          	slt	s5,s3,s6

00000000800079d0 <i_7520>:
    800079d0:	00000013          	nop

00000000800079d4 <i_7521>:
    800079d4:	00000013          	nop

00000000800079d8 <i_7522>:
    800079d8:	82f00b13          	li	s6,-2001

00000000800079dc <i_7523>:
    800079dc:	83300b93          	li	s7,-1997

00000000800079e0 <i_7524>:
    800079e0:	03398663          	beq	s3,s3,80007a0c <i_7534>

00000000800079e4 <i_7525>:
    800079e4:	02eb43b3          	div	t2,s6,a4

00000000800079e8 <i_7526>:
    800079e8:	001b0b13          	addi	s6,s6,1
    800079ec:	ff6bfae3          	bleu	s6,s7,800079e0 <i_7524>

00000000800079f0 <i_7527>:
    800079f0:	e5812d03          	lw	s10,-424(sp)

00000000800079f4 <i_7528>:
    800079f4:	00000013          	nop

00000000800079f8 <i_7529>:
    800079f8:	402ad293          	srai	t0,s5,0x2

00000000800079fc <i_7530>:
    800079fc:	00000013          	nop

0000000080007a00 <i_7531>:
    80007a00:	10511d23          	sh	t0,282(sp)

0000000080007a04 <i_7532>:
    80007a04:	0e016a83          	lwu	s5,224(sp)

0000000080007a08 <i_7533>:
    80007a08:	41aa833b          	subw	t1,s5,s10

0000000080007a0c <i_7534>:
    80007a0c:	18710e83          	lb	t4,391(sp)

0000000080007a10 <i_7535>:
    80007a10:	1d416283          	lwu	t0,468(sp)

0000000080007a14 <i_7536>:
    80007a14:	7d500693          	li	a3,2005

0000000080007a18 <i_7537>:
    80007a18:	7d900993          	li	s3,2009

0000000080007a1c <i_7538>:
    80007a1c:	00168693          	addi	a3,a3,1
    80007a20:	fed9dee3          	ble	a3,s3,80007a1c <i_7538>

0000000080007a24 <i_7539>:
    80007a24:	01d30463          	beq	t1,t4,80007a2c <i_7541>

0000000080007a28 <i_7540>:
    80007a28:	ff211283          	lh	t0,-14(sp)

0000000080007a2c <i_7541>:
    80007a2c:	026b733b          	remuw	t1,s6,t1

0000000080007a30 <i_7542>:
    80007a30:	11012303          	lw	t1,272(sp)

0000000080007a34 <i_7543>:
    80007a34:	fe0d9317          	auipc	t1,0xfe0d9

0000000080007a38 <i_7544>:
    80007a38:	00631a63          	bne	t1,t1,80007a4c <i_7549>

0000000080007a3c <i_7545>:
    80007a3c:	01013c83          	ld	s9,16(sp)

0000000080007a40 <i_7546>:
    80007a40:	13611323          	sh	s6,294(sp)

0000000080007a44 <i_7547>:
    80007a44:	1a214183          	lbu	gp,418(sp)

0000000080007a48 <i_7548>:
    80007a48:	fa013283          	ld	t0,-96(sp)

0000000080007a4c <i_7549>:
    80007a4c:	0ea11303          	lh	t1,234(sp)

0000000080007a50 <i_7550>:
    80007a50:	e4611a23          	sh	t1,-428(sp)

0000000080007a54 <i_7551>:
    80007a54:	fe611323          	sh	t1,-26(sp)

0000000080007a58 <i_7552>:
    80007a58:	04c16303          	lwu	t1,76(sp)

0000000080007a5c <i_7553>:
    80007a5c:	eb416303          	lwu	t1,-332(sp)

0000000080007a60 <i_7554>:
    80007a60:	01937c33          	and	s8,t1,s9

0000000080007a64 <i_7555>:
    80007a64:	e8c12a83          	lw	s5,-372(sp)

0000000080007a68 <i_7556>:
    80007a68:	10c15b03          	lhu	s6,268(sp)

0000000080007a6c <i_7557>:
    80007a6c:	19416303          	lwu	t1,404(sp)

0000000080007a70 <i_7558>:
    80007a70:	f2813403          	ld	s0,-216(sp)

0000000080007a74 <i_7559>:
    80007a74:	00140c33          	add	s8,s0,ra

0000000080007a78 <i_7560>:
    80007a78:	7a500993          	li	s3,1957

0000000080007a7c <i_7561>:
    80007a7c:	7b600193          	li	gp,1974

0000000080007a80 <i_7562>:
    80007a80:	1d811383          	lh	t2,472(sp)

0000000080007a84 <i_7563>:
    80007a84:	12e14e03          	lbu	t3,302(sp)

0000000080007a88 <i_7564>:
    80007a88:	e7c15c03          	lhu	s8,-388(sp)

0000000080007a8c <i_7565>:
    80007a8c:	00000013          	nop

0000000080007a90 <i_7566>:
    80007a90:	00000013          	nop

0000000080007a94 <i_7567>:
    80007a94:	405c0c33          	sub	s8,s8,t0

0000000080007a98 <i_7568>:
    80007a98:	0b012c03          	lw	s8,176(sp)

0000000080007a9c <i_7569>:
    80007a9c:	f5811623          	sh	s8,-180(sp)

0000000080007aa0 <i_7570>:
    80007aa0:	1ac16283          	lwu	t0,428(sp)

0000000080007aa4 <i_7571>:
    80007aa4:	4012d293          	srai	t0,t0,0x1

0000000080007aa8 <i_7572>:
    80007aa8:	00000013          	nop

0000000080007aac <i_7573>:
    80007aac:	e6013083          	ld	ra,-416(sp)

0000000080007ab0 <i_7574>:
    80007ab0:	00198993          	addi	s3,s3,1 # 19b63171 <main-0x6649ce8f>
    80007ab4:	fc39c6e3          	blt	s3,gp,80007a80 <i_7562>

0000000080007ab8 <i_7575>:
    80007ab8:	1b813823          	sd	s8,432(sp)

0000000080007abc <i_7576>:
    80007abc:	e9812803          	lw	a6,-360(sp)

0000000080007ac0 <i_7577>:
    80007ac0:	f9811e23          	sh	s8,-100(sp)

0000000080007ac4 <i_7578>:
    80007ac4:	005284b3          	add	s1,t0,t0

0000000080007ac8 <i_7579>:
    80007ac8:	01087263          	bleu	a6,a6,80007acc <i_7580>

0000000080007acc <i_7580>:
    80007acc:	001522b3          	slt	t0,a0,ra

0000000080007ad0 <i_7581>:
    80007ad0:	e5611983          	lh	s3,-426(sp)

0000000080007ad4 <i_7582>:
    80007ad4:	ebd14d83          	lbu	s11,-323(sp)

0000000080007ad8 <i_7583>:
    80007ad8:	03dd1fb3          	mulh	t6,s10,t4

0000000080007adc <i_7584>:
    80007adc:	87500093          	li	ra,-1931

0000000080007ae0 <i_7585>:
    80007ae0:	87f00313          	li	t1,-1921

0000000080007ae4 <i_7586>:
    80007ae4:	00f00f93          	li	t6,15

0000000080007ae8 <i_7587>:
    80007ae8:	01f2d7bb          	srlw	a5,t0,t6

0000000080007aec <i_7588>:
    80007aec:	023801bb          	mulw	gp,a6,gp

0000000080007af0 <i_7589>:
    80007af0:	02680fbb          	mulw	t6,a6,t1

0000000080007af4 <i_7590>:
    80007af4:	030f883b          	mulw	a6,t6,a6

0000000080007af8 <i_7591>:
    80007af8:	00108093          	addi	ra,ra,1
    80007afc:	fe60e4e3          	bltu	ra,t1,80007ae4 <i_7586>

0000000080007b00 <i_7592>:
    80007b00:	01d48463          	beq	s1,t4,80007b08 <i_7594>

0000000080007b04 <i_7593>:
    80007b04:	17013823          	sd	a6,368(sp)

0000000080007b08 <i_7594>:
    80007b08:	15813c83          	ld	s9,344(sp)

0000000080007b0c <i_7595>:
    80007b0c:	01500b13          	li	s6,21

0000000080007b10 <i_7596>:
    80007b10:	016596b3          	sll	a3,a1,s6

0000000080007b14 <i_7597>:
    80007b14:	0305a5b3          	mulhsu	a1,a1,a6

0000000080007b18 <i_7598>:
    80007b18:	1d013583          	ld	a1,464(sp)

0000000080007b1c <i_7599>:
    80007b1c:	0eb10423          	sb	a1,232(sp)

0000000080007b20 <i_7600>:
    80007b20:	ecc12303          	lw	t1,-308(sp)

0000000080007b24 <i_7601>:
    80007b24:	01c00993          	li	s3,28

0000000080007b28 <i_7602>:
    80007b28:	0131193b          	sllw	s2,sp,s3

0000000080007b2c <i_7603>:
    80007b2c:	9cedeb97          	auipc	s7,0x9cede

0000000080007b30 <i_7604>:
    80007b30:	0135d263          	ble	s3,a1,80007b34 <i_7605>

0000000080007b34 <i_7605>:
    80007b34:	02c11223          	sh	a2,36(sp)

0000000080007b38 <i_7606>:
    80007b38:	fd412783          	lw	a5,-44(sp)

0000000080007b3c <i_7607>:
    80007b3c:	f2611f03          	lh	t5,-218(sp)

0000000080007b40 <i_7608>:
    80007b40:	01e78533          	add	a0,a5,t5

0000000080007b44 <i_7609>:
    80007b44:	f5611d03          	lh	s10,-170(sp)

0000000080007b48 <i_7610>:
    80007b48:	f7911323          	sh	s9,-154(sp)

0000000080007b4c <i_7611>:
    80007b4c:	1aa11b83          	lh	s7,426(sp)

0000000080007b50 <i_7612>:
    80007b50:	0131e463          	bltu	gp,s3,80007b58 <i_7614>

0000000080007b54 <i_7613>:
    80007b54:	37bf3c37          	lui	s8,0x37bf3

0000000080007b58 <i_7614>:
    80007b58:	404f5c13          	srai	s8,t5,0x4

0000000080007b5c <i_7615>:
    80007b5c:	f5016203          	lwu	tp,-176(sp)

0000000080007b60 <i_7616>:
    80007b60:	00f6f833          	and	a6,a3,a5

0000000080007b64 <i_7617>:
    80007b64:	1b114d03          	lbu	s10,433(sp)

0000000080007b68 <i_7618>:
    80007b68:	034d5233          	divu	tp,s10,s4

0000000080007b6c <i_7619>:
    80007b6c:	01621463          	bne	tp,s6,80007b74 <i_7621>

0000000080007b70 <i_7620>:
    80007b70:	0a811503          	lh	a0,168(sp)

0000000080007b74 <i_7621>:
    80007b74:	010cc463          	blt	s9,a6,80007b7c <i_7623>

0000000080007b78 <i_7622>:
    80007b78:	eef11d23          	sh	a5,-262(sp)

0000000080007b7c <i_7623>:
    80007b7c:	037c7463          	bleu	s7,s8,80007ba4 <i_7633>

0000000080007b80 <i_7624>:
    80007b80:	b25d7913          	andi	s2,s10,-1243

0000000080007b84 <i_7625>:
    80007b84:	00200913          	li	s2,2

0000000080007b88 <i_7626>:
    80007b88:	01295d3b          	srlw	s10,s2,s2

0000000080007b8c <i_7627>:
    80007b8c:	65063913          	sltiu	s2,a2,1616

0000000080007b90 <i_7628>:
    80007b90:	03a37063          	bleu	s10,t1,80007bb0 <i_7636>

0000000080007b94 <i_7629>:
    80007b94:	008d6463          	bltu	s10,s0,80007b9c <i_7631>

0000000080007b98 <i_7630>:
    80007b98:	10e15f83          	lhu	t6,270(sp)

0000000080007b9c <i_7631>:
    80007b9c:	fa811f23          	sh	s0,-66(sp)

0000000080007ba0 <i_7632>:
    80007ba0:	17913023          	sd	s9,352(sp)

0000000080007ba4 <i_7633>:
    80007ba4:	404fdc9b          	sraiw	s9,t6,0x4

0000000080007ba8 <i_7634>:
    80007ba8:	028cf43b          	remuw	s0,s9,s0

0000000080007bac <i_7635>:
    80007bac:	e5816283          	lwu	t0,-424(sp)

0000000080007bb0 <i_7636>:
    80007bb0:	0d013d83          	ld	s11,208(sp)

0000000080007bb4 <i_7637>:
    80007bb4:	0e813823          	sd	s0,240(sp)

0000000080007bb8 <i_7638>:
    80007bb8:	8be00913          	li	s2,-1858

0000000080007bbc <i_7639>:
    80007bbc:	8c100a13          	li	s4,-1855

0000000080007bc0 <i_7640>:
    80007bc0:	4028d39b          	sraiw	t2,a7,0x2

0000000080007bc4 <i_7641>:
    80007bc4:	033579bb          	remuw	s3,a0,s3

0000000080007bc8 <i_7642>:
    80007bc8:	012271b3          	and	gp,tp,s2

0000000080007bcc <i_7643>:
    80007bcc:	e6814983          	lbu	s3,-408(sp)

0000000080007bd0 <i_7644>:
    80007bd0:	e9411a23          	sh	s4,-364(sp)

0000000080007bd4 <i_7645>:
    80007bd4:	01429c63          	bne	t0,s4,80007bec <i_7651>

0000000080007bd8 <i_7646>:
    80007bd8:	00915a63          	ble	s1,sp,80007bec <i_7651>

0000000080007bdc <i_7647>:
    80007bdc:	01e109a3          	sb	t5,19(sp)

0000000080007be0 <i_7648>:
    80007be0:	04816503          	lwu	a0,72(sp)

0000000080007be4 <i_7649>:
    80007be4:	00413c23          	sd	tp,24(sp)

0000000080007be8 <i_7650>:
    80007be8:	ef811023          	sh	s8,-288(sp)

0000000080007bec <i_7651>:
    80007bec:	00155d1b          	srliw	s10,a0,0x1

0000000080007bf0 <i_7652>:
    80007bf0:	f4416083          	lwu	ra,-188(sp)

0000000080007bf4 <i_7653>:
    80007bf4:	ef215f83          	lhu	t6,-270(sp)

0000000080007bf8 <i_7654>:
    80007bf8:	00190913          	addi	s2,s2,1
    80007bfc:	fd4962e3          	bltu	s2,s4,80007bc0 <i_7640>

0000000080007c00 <i_7655>:
    80007c00:	03844d33          	div	s10,s0,s8

0000000080007c04 <i_7656>:
    80007c04:	06416983          	lwu	s3,100(sp)

0000000080007c08 <i_7657>:
    80007c08:	03224a3b          	divw	s4,tp,s2

0000000080007c0c <i_7658>:
    80007c0c:	12e15903          	lhu	s2,302(sp)

0000000080007c10 <i_7659>:
    80007c10:	00800b13          	li	s6,8

0000000080007c14 <i_7660>:
    80007c14:	0169593b          	srlw	s2,s2,s6

0000000080007c18 <i_7661>:
    80007c18:	032d7933          	remu	s2,s10,s2

0000000080007c1c <i_7662>:
    80007c1c:	012f0663          	beq	t5,s2,80007c28 <i_7665>

0000000080007c20 <i_7663>:
    80007c20:	1da11a23          	sh	s10,468(sp)

0000000080007c24 <i_7664>:
    80007c24:	01ab1463          	bne	s6,s10,80007c2c <i_7666>

0000000080007c28 <i_7665>:
    80007c28:	032b6f33          	rem	t5,s6,s2

0000000080007c2c <i_7666>:
    80007c2c:	01a106a3          	sb	s10,13(sp)

0000000080007c30 <i_7667>:
    80007c30:	7c5b7d13          	andi	s10,s6,1989

0000000080007c34 <i_7668>:
    80007c34:	016c1263          	bne	s8,s6,80007c38 <i_7669>

0000000080007c38 <i_7669>:
    80007c38:	f0412b03          	lw	s6,-252(sp)

0000000080007c3c <i_7670>:
    80007c3c:	e5e10623          	sb	t5,-436(sp)

0000000080007c40 <i_7671>:
    80007c40:	f3011b03          	lh	s6,-208(sp)

0000000080007c44 <i_7672>:
    80007c44:	f9013a03          	ld	s4,-112(sp)

0000000080007c48 <i_7673>:
    80007c48:	03eb7bbb          	remuw	s7,s6,t5

0000000080007c4c <i_7674>:
    80007c4c:	fc3b0b13          	addi	s6,s6,-61

0000000080007c50 <i_7675>:
    80007c50:	0cb14d03          	lbu	s10,203(sp)

0000000080007c54 <i_7676>:
    80007c54:	036b4933          	div	s2,s6,s6

0000000080007c58 <i_7677>:
    80007c58:	01413423          	sd	s4,8(sp)

0000000080007c5c <i_7678>:
    80007c5c:	01e97663          	bleu	t5,s2,80007c68 <i_7681>

0000000080007c60 <i_7679>:
    80007c60:	01300693          	li	a3,19

0000000080007c64 <i_7680>:
    80007c64:	40dd5abb          	sraw	s5,s10,a3

0000000080007c68 <i_7681>:
    80007c68:	02bb4063          	blt	s6,a1,80007c88 <i_7689>

0000000080007c6c <i_7682>:
    80007c6c:	1c012b03          	lw	s6,448(sp)

0000000080007c70 <i_7683>:
    80007c70:	016c9e63          	bne	s9,s6,80007c8c <i_7690>

0000000080007c74 <i_7684>:
    80007c74:	3336e693          	ori	a3,a3,819

0000000080007c78 <i_7685>:
    80007c78:	f6c12503          	lw	a0,-148(sp)

0000000080007c7c <i_7686>:
    80007c7c:	02dc2b33          	mulhsu	s6,s8,a3

0000000080007c80 <i_7687>:
    80007c80:	03014283          	lbu	t0,48(sp)

0000000080007c84 <i_7688>:
    80007c84:	00a00a93          	li	s5,10

0000000080007c88 <i_7689>:
    80007c88:	015316bb          	sllw	a3,t1,s5

0000000080007c8c <i_7690>:
    80007c8c:	0236f1b3          	remu	gp,a3,gp

0000000080007c90 <i_7691>:
    80007c90:	003ad51b          	srliw	a0,s5,0x3

0000000080007c94 <i_7692>:
    80007c94:	02d1eb33          	rem	s6,gp,a3

0000000080007c98 <i_7693>:
    80007c98:	003a4463          	blt	s4,gp,80007ca0 <i_7695>

0000000080007c9c <i_7694>:
    80007c9c:	01ba8ab3          	add	s5,s5,s11

0000000080007ca0 <i_7695>:
    80007ca0:	68eb7d93          	andi	s11,s6,1678

0000000080007ca4 <i_7696>:
    80007ca4:	e3513023          	sd	s5,-480(sp)

0000000080007ca8 <i_7697>:
    80007ca8:	05e15803          	lhu	a6,94(sp)

0000000080007cac <i_7698>:
    80007cac:	035afab3          	remu	s5,s5,s5

0000000080007cb0 <i_7699>:
    80007cb0:	c9782a93          	slti	s5,a6,-873

0000000080007cb4 <i_7700>:
    80007cb4:	015a9863          	bne	s5,s5,80007cc4 <i_7704>

0000000080007cb8 <i_7701>:
    80007cb8:	f4813303          	ld	t1,-184(sp)

0000000080007cbc <i_7702>:
    80007cbc:	03540063          	beq	s0,s5,80007cdc <i_7710>

0000000080007cc0 <i_7703>:
    80007cc0:	03625063          	ble	s6,tp,80007ce0 <i_7711>

0000000080007cc4 <i_7704>:
    80007cc4:	035c4233          	div	tp,s8,s5

0000000080007cc8 <i_7705>:
    80007cc8:	00800813          	li	a6,8

0000000080007ccc <i_7706>:
    80007ccc:	010855bb          	srlw	a1,a6,a6

0000000080007cd0 <i_7707>:
    80007cd0:	015b5c63          	ble	s5,s6,80007ce8 <i_7713>

0000000080007cd4 <i_7708>:
    80007cd4:	04b10a83          	lb	s5,75(sp)

0000000080007cd8 <i_7709>:
    80007cd8:	004ada1b          	srliw	s4,s5,0x4

0000000080007cdc <i_7710>:
    80007cdc:	00baec63          	bltu	s5,a1,80007cf4 <i_7716>

0000000080007ce0 <i_7711>:
    80007ce0:	17513023          	sd	s5,352(sp)

0000000080007ce4 <i_7712>:
    80007ce4:	e8c11583          	lh	a1,-372(sp)

0000000080007ce8 <i_7713>:
    80007ce8:	f4b11f23          	sh	a1,-162(sp)

0000000080007cec <i_7714>:
    80007cec:	74d58d93          	addi	s11,a1,1869

0000000080007cf0 <i_7715>:
    80007cf0:	4028559b          	sraiw	a1,a6,0x2

0000000080007cf4 <i_7716>:
    80007cf4:	01400593          	li	a1,20

0000000080007cf8 <i_7717>:
    80007cf8:	40bddf33          	sra	t5,s11,a1

0000000080007cfc <i_7718>:
    80007cfc:	85500313          	li	t1,-1963

0000000080007d00 <i_7719>:
    80007d00:	85b00393          	li	t2,-1957

0000000080007d04 <i_7720>:
    80007d04:	d202a913          	slti	s2,t0,-736

0000000080007d08 <i_7721>:
    80007d08:	02c5e5b3          	rem	a1,a1,a2

0000000080007d0c <i_7722>:
    80007d0c:	00000013          	nop

0000000080007d10 <i_7723>:
    80007d10:	ecb11023          	sh	a1,-320(sp)

0000000080007d14 <i_7724>:
    80007d14:	00130313          	addi	t1,t1,1 # 7e0e0a35 <main-0x1f1f5cb>
    80007d18:	fe63d6e3          	ble	t1,t2,80007d04 <i_7720>

0000000080007d1c <i_7725>:
    80007d1c:	00b30463          	beq	t1,a1,80007d24 <i_7727>

0000000080007d20 <i_7726>:
    80007d20:	02b91263          	bne	s2,a1,80007d44 <i_7735>

0000000080007d24 <i_7727>:
    80007d24:	fec11583          	lh	a1,-20(sp)

0000000080007d28 <i_7728>:
    80007d28:	eb610823          	sb	s6,-336(sp)

0000000080007d2c <i_7729>:
    80007d2c:	02016483          	lwu	s1,32(sp)

0000000080007d30 <i_7730>:
    80007d30:	ed412483          	lw	s1,-300(sp)

0000000080007d34 <i_7731>:
    80007d34:	0073e263          	bltu	t2,t2,80007d38 <i_7732>

0000000080007d38 <i_7732>:
    80007d38:	00a90863          	beq	s2,a0,80007d48 <i_7736>

0000000080007d3c <i_7733>:
    80007d3c:	00f00b13          	li	s6,15

0000000080007d40 <i_7734>:
    80007d40:	016d97bb          	sllw	a5,s11,s6

0000000080007d44 <i_7735>:
    80007d44:	1b414383          	lbu	t2,436(sp)

0000000080007d48 <i_7736>:
    80007d48:	1ba11623          	sh	s10,428(sp)

0000000080007d4c <i_7737>:
    80007d4c:	03bb7433          	remu	s0,s6,s11

0000000080007d50 <i_7738>:
    80007d50:	02838263          	beq	t2,s0,80007d74 <i_7747>

0000000080007d54 <i_7739>:
    80007d54:	027bfb3b          	remuw	s6,s7,t2

0000000080007d58 <i_7740>:
    80007d58:	02914383          	lbu	t2,41(sp)

0000000080007d5c <i_7741>:
    80007d5c:	00000013          	nop

0000000080007d60 <i_7742>:
    80007d60:	0f812b03          	lw	s6,248(sp)

0000000080007d64 <i_7743>:
    80007d64:	09811823          	sh	s8,144(sp)

0000000080007d68 <i_7744>:
    80007d68:	05211e83          	lh	t4,82(sp)

0000000080007d6c <i_7745>:
    80007d6c:	00000013          	nop

0000000080007d70 <i_7746>:
    80007d70:	0f3fae97          	auipc	t4,0xf3fa

0000000080007d74 <i_7747>:
    80007d74:	17c15f83          	lhu	t6,380(sp)

0000000080007d78 <i_7748>:
    80007d78:	00000013          	nop

0000000080007d7c <i_7749>:
    80007d7c:	84d00c13          	li	s8,-1971

0000000080007d80 <i_7750>:
    80007d80:	85700613          	li	a2,-1961

0000000080007d84 <i_7751>:
    80007d84:	11016f83          	lwu	t6,272(sp)

0000000080007d88 <i_7752>:
    80007d88:	02f14803          	lbu	a6,47(sp)

0000000080007d8c <i_7753>:
    80007d8c:	ec012403          	lw	s0,-320(sp)

0000000080007d90 <i_7754>:
    80007d90:	ec813423          	sd	s0,-312(sp)

0000000080007d94 <i_7755>:
    80007d94:	001c0c13          	addi	s8,s8,1 # 37bf3001 <main-0x4840cfff>
    80007d98:	ff8656e3          	ble	s8,a2,80007d84 <i_7751>

0000000080007d9c <i_7756>:
    80007d9c:	010fa933          	slt	s2,t6,a6

0000000080007da0 <i_7757>:
    80007da0:	00816f83          	lwu	t6,8(sp)

0000000080007da4 <i_7758>:
    80007da4:	f7714903          	lbu	s2,-137(sp)

0000000080007da8 <i_7759>:
    80007da8:	7aaeef93          	ori	t6,t4,1962

0000000080007dac <i_7760>:
    80007dac:	e5314c03          	lbu	s8,-429(sp)

0000000080007db0 <i_7761>:
    80007db0:	00341e1b          	slliw	t3,s0,0x3

0000000080007db4 <i_7762>:
    80007db4:	b563ce97          	auipc	t4,0xb563c

0000000080007db8 <i_7763>:
    80007db8:	0012941b          	slliw	s0,t0,0x1

0000000080007dbc <i_7764>:
    80007dbc:	401e5e13          	srai	t3,t3,0x1

0000000080007dc0 <i_7765>:
    80007dc0:	1a816583          	lwu	a1,424(sp)

0000000080007dc4 <i_7766>:
    80007dc4:	e7013f83          	ld	t6,-400(sp)

0000000080007dc8 <i_7767>:
    80007dc8:	f5012f83          	lw	t6,-176(sp)

0000000080007dcc <i_7768>:
    80007dcc:	fd910e83          	lb	t4,-39(sp)

0000000080007dd0 <i_7769>:
    80007dd0:	0fd14d03          	lbu	s10,253(sp)

0000000080007dd4 <i_7770>:
    80007dd4:	00000013          	nop

0000000080007dd8 <i_7771>:
    80007dd8:	89d00e13          	li	t3,-1891

0000000080007ddc <i_7772>:
    80007ddc:	8a000913          	li	s2,-1888

0000000080007de0 <i_7773>:
    80007de0:	01ae0eb3          	add	t4,t3,s10

0000000080007de4 <i_7774>:
    80007de4:	8daeca13          	xori	s4,t4,-1830

0000000080007de8 <i_7775>:
    80007de8:	00000013          	nop

0000000080007dec <i_7776>:
    80007dec:	02de69b3          	rem	s3,t3,a3

0000000080007df0 <i_7777>:
    80007df0:	001e0e13          	addi	t3,t3,1
    80007df4:	ffc976e3          	bleu	t3,s2,80007de0 <i_7773>

0000000080007df8 <i_7778>:
    80007df8:	01aa4c63          	blt	s4,s10,80007e10 <i_7784>

0000000080007dfc <i_7779>:
    80007dfc:	0b013a03          	ld	s4,176(sp)

0000000080007e00 <i_7780>:
    80007e00:	e4111f23          	sh	ra,-418(sp)

0000000080007e04 <i_7781>:
    80007e04:	034a6463          	bltu	s4,s4,80007e2c <i_7791>

0000000080007e08 <i_7782>:
    80007e08:	fac12a03          	lw	s4,-84(sp)

0000000080007e0c <i_7783>:
    80007e0c:	1bc12183          	lw	gp,444(sp)

0000000080007e10 <i_7784>:
    80007e10:	1b013383          	ld	t2,432(sp)

0000000080007e14 <i_7785>:
    80007e14:	0133e463          	bltu	t2,s3,80007e1c <i_7787>

0000000080007e18 <i_7786>:
    80007e18:	09e109a3          	sb	t5,147(sp)

0000000080007e1c <i_7787>:
    80007e1c:	013a23b3          	slt	t2,s4,s3

0000000080007e20 <i_7788>:
    80007e20:	025b61bb          	remw	gp,s6,t0

0000000080007e24 <i_7789>:
    80007e24:	014a32b3          	sltu	t0,s4,s4

0000000080007e28 <i_7790>:
    80007e28:	0339cfb3          	div	t6,s3,s3

0000000080007e2c <i_7791>:
    80007e2c:	fc312623          	sw	gp,-52(sp)

0000000080007e30 <i_7792>:
    80007e30:	0143e2b3          	or	t0,t2,s4

0000000080007e34 <i_7793>:
    80007e34:	17215483          	lhu	s1,370(sp)

0000000080007e38 <i_7794>:
    80007e38:	f1810923          	sb	s8,-238(sp)

0000000080007e3c <i_7795>:
    80007e3c:	fff10623          	sb	t6,-20(sp)

0000000080007e40 <i_7796>:
    80007e40:	0df10223          	sb	t6,196(sp)

0000000080007e44 <i_7797>:
    80007e44:	014f8463          	beq	t6,s4,80007e4c <i_7799>

0000000080007e48 <i_7798>:
    80007e48:	0344ca33          	div	s4,s1,s4

0000000080007e4c <i_7799>:
    80007e4c:	e2412d83          	lw	s11,-476(sp)

0000000080007e50 <i_7800>:
    80007e50:	0052c4b3          	xor	s1,t0,t0

0000000080007e54 <i_7801>:
    80007e54:	4fd7c793          	xori	a5,a5,1277

0000000080007e58 <i_7802>:
    80007e58:	02e10783          	lb	a5,46(sp)

0000000080007e5c <i_7803>:
    80007e5c:	025a42b3          	div	t0,s4,t0

0000000080007e60 <i_7804>:
    80007e60:	e8110783          	lb	a5,-383(sp)

0000000080007e64 <i_7805>:
    80007e64:	025a3833          	mulhu	a6,s4,t0

0000000080007e68 <i_7806>:
    80007e68:	0af12c23          	sw	a5,184(sp)

0000000080007e6c <i_7807>:
    80007e6c:	1fa103a3          	sb	s10,487(sp)

0000000080007e70 <i_7808>:
    80007e70:	009f8e63          	beq	t6,s1,80007e8c <i_7815>

0000000080007e74 <i_7809>:
    80007e74:	0047d993          	srli	s3,a5,0x4

0000000080007e78 <i_7810>:
    80007e78:	0337e6bb          	remw	a3,a5,s3

0000000080007e7c <i_7811>:
    80007e7c:	003f1093          	slli	ra,t5,0x3

0000000080007e80 <i_7812>:
    80007e80:	00000013          	nop

0000000080007e84 <i_7813>:
    80007e84:	408680bb          	subw	ra,a3,s0

0000000080007e88 <i_7814>:
    80007e88:	553d2d13          	slti	s10,s10,1363

0000000080007e8c <i_7815>:
    80007e8c:	14112423          	sw	ra,328(sp)

0000000080007e90 <i_7816>:
    80007e90:	022d0d33          	mul	s10,s10,sp

0000000080007e94 <i_7817>:
    80007e94:	81600793          	li	a5,-2026

0000000080007e98 <i_7818>:
    80007e98:	82500213          	li	tp,-2011

0000000080007e9c <i_7819>:
    80007e9c:	03400e13          	li	t3,52

0000000080007ea0 <i_7820>:
    80007ea0:	01c81e33          	sll	t3,a6,t3

0000000080007ea4 <i_7821>:
    80007ea4:	80800813          	li	a6,-2040

0000000080007ea8 <i_7822>:
    80007ea8:	81300413          	li	s0,-2029

0000000080007eac <i_7823>:
    80007eac:	00180813          	addi	a6,a6,1
    80007eb0:	fe886ee3          	bltu	a6,s0,80007eac <i_7823>

0000000080007eb4 <i_7824>:
    80007eb4:	21c0f813          	andi	a6,ra,540

0000000080007eb8 <i_7825>:
    80007eb8:	4018519b          	sraiw	gp,a6,0x1

0000000080007ebc <i_7826>:
    80007ebc:	00178793          	addi	a5,a5,1
    80007ec0:	fc47eee3          	bltu	a5,tp,80007e9c <i_7819>

0000000080007ec4 <i_7827>:
    80007ec4:	06813e03          	ld	t3,104(sp)

0000000080007ec8 <i_7828>:
    80007ec8:	02380833          	mul	a6,a6,gp

0000000080007ecc <i_7829>:
    80007ecc:	14811e83          	lh	t4,328(sp)

0000000080007ed0 <i_7830>:
    80007ed0:	0101fe63          	bleu	a6,gp,80007eec <i_7837>

0000000080007ed4 <i_7831>:
    80007ed4:	0031a933          	slt	s2,gp,gp

0000000080007ed8 <i_7832>:
    80007ed8:	01c00913          	li	s2,28

0000000080007edc <i_7833>:
    80007edc:	412e5bbb          	sraw	s7,t3,s2

0000000080007ee0 <i_7834>:
    80007ee0:	f9ada513          	slti	a0,s11,-102

0000000080007ee4 <i_7835>:
    80007ee4:	ef011a83          	lh	s5,-272(sp)

0000000080007ee8 <i_7836>:
    80007ee8:	00000013          	nop

0000000080007eec <i_7837>:
    80007eec:	00d56433          	or	s0,a0,a3

0000000080007ef0 <i_7838>:
    80007ef0:	10415683          	lhu	a3,260(sp)

0000000080007ef4 <i_7839>:
    80007ef4:	72b00393          	li	t2,1835

0000000080007ef8 <i_7840>:
    80007ef8:	73000d93          	li	s11,1840

0000000080007efc <i_7841>:
    80007efc:	404f5f9b          	sraiw	t6,t5,0x4

0000000080007f00 <i_7842>:
    80007f00:	00000013          	nop

0000000080007f04 <i_7843>:
    80007f04:	030ae663          	bltu	s5,a6,80007f30 <i_7853>

0000000080007f08 <i_7844>:
    80007f08:	03f1bfb3          	mulhu	t6,gp,t6

0000000080007f0c <i_7845>:
    80007f0c:	0308f463          	bleu	a6,a7,80007f34 <i_7854>

0000000080007f10 <i_7846>:
    80007f10:	01f84b33          	xor	s6,a6,t6

0000000080007f14 <i_7847>:
    80007f14:	00138393          	addi	t2,t2,1
    80007f18:	ffb3e2e3          	bltu	t2,s11,80007efc <i_7841>

0000000080007f1c <i_7848>:
    80007f1c:	17813023          	sd	s8,352(sp)

0000000080007f20 <i_7849>:
    80007f20:	fff13023          	sd	t6,-32(sp)

0000000080007f24 <i_7850>:
    80007f24:	09612823          	sw	s6,144(sp)

0000000080007f28 <i_7851>:
    80007f28:	03fb6fb3          	rem	t6,s6,t6

0000000080007f2c <i_7852>:
    80007f2c:	02bb7063          	bleu	a1,s6,80007f4c <i_7860>

0000000080007f30 <i_7853>:
    80007f30:	f9813583          	ld	a1,-104(sp)

0000000080007f34 <i_7854>:
    80007f34:	03c00813          	li	a6,60

0000000080007f38 <i_7855>:
    80007f38:	010fdfb3          	srl	t6,t6,a6

0000000080007f3c <i_7856>:
    80007f3c:	07010ca3          	sb	a6,121(sp)

0000000080007f40 <i_7857>:
    80007f40:	00013683          	ld	a3,0(sp)

0000000080007f44 <i_7858>:
    80007f44:	fef12623          	sw	a5,-20(sp)

0000000080007f48 <i_7859>:
    80007f48:	15211f83          	lh	t6,338(sp)

0000000080007f4c <i_7860>:
    80007f4c:	03ffc463          	blt	t6,t6,80007f74 <i_7870>

0000000080007f50 <i_7861>:
    80007f50:	00dd3d33          	sltu	s10,s10,a3

0000000080007f54 <i_7862>:
    80007f54:	84782c93          	slti	s9,a6,-1977

0000000080007f58 <i_7863>:
    80007f58:	03986fb3          	rem	t6,a6,s9

0000000080007f5c <i_7864>:
    80007f5c:	03fce063          	bltu	s9,t6,80007f7c <i_7872>

0000000080007f60 <i_7865>:
    80007f60:	02df9463          	bne	t6,a3,80007f88 <i_7875>

0000000080007f64 <i_7866>:
    80007f64:	03f5cfb3          	div	t6,a1,t6

0000000080007f68 <i_7867>:
    80007f68:	f1810b23          	sb	s8,-234(sp)

0000000080007f6c <i_7868>:
    80007f6c:	01ae8fb3          	add	t6,t4,s10

0000000080007f70 <i_7869>:
    80007f70:	e8415e83          	lhu	t4,-380(sp)

0000000080007f74 <i_7870>:
    80007f74:	019cf263          	bleu	s9,s9,80007f78 <i_7871>

0000000080007f78 <i_7871>:
    80007f78:	fbd12c23          	sw	t4,-72(sp)

0000000080007f7c <i_7872>:
    80007f7c:	13d11a23          	sh	t4,308(sp)

0000000080007f80 <i_7873>:
    80007f80:	019f9663          	bne	t6,s9,80007f8c <i_7876>

0000000080007f84 <i_7874>:
    80007f84:	e2813183          	ld	gp,-472(sp)

0000000080007f88 <i_7875>:
    80007f88:	ef215d83          	lhu	s11,-270(sp)

0000000080007f8c <i_7876>:
    80007f8c:	16f10c03          	lb	s8,367(sp)

0000000080007f90 <i_7877>:
    80007f90:	01bd8c63          	beq	s11,s11,80007fa8 <i_7883>

0000000080007f94 <i_7878>:
    80007f94:	e9714c03          	lbu	s8,-361(sp)

0000000080007f98 <i_7879>:
    80007f98:	01dc1a63          	bne	s8,t4,80007fac <i_7884>

0000000080007f9c <i_7880>:
    80007f9c:	e2610c03          	lb	s8,-474(sp)

0000000080007fa0 <i_7881>:
    80007fa0:	00300d93          	li	s11,3

0000000080007fa4 <i_7882>:
    80007fa4:	01bed1b3          	srl	gp,t4,s11

0000000080007fa8 <i_7883>:
    80007fa8:	0e813d83          	ld	s11,232(sp)

0000000080007fac <i_7884>:
    80007fac:	0e815e03          	lhu	t3,232(sp)

0000000080007fb0 <i_7885>:
    80007fb0:	018f9263          	bne	t6,s8,80007fb4 <i_7886>

0000000080007fb4 <i_7886>:
    80007fb4:	019df863          	bleu	s9,s11,80007fc4 <i_7890>

0000000080007fb8 <i_7887>:
    80007fb8:	ee614c03          	lbu	s8,-282(sp)

0000000080007fbc <i_7888>:
    80007fbc:	01813023          	sd	s8,0(sp)

0000000080007fc0 <i_7889>:
    80007fc0:	0185d263          	ble	s8,a1,80007fc4 <i_7890>

0000000080007fc4 <i_7890>:
    80007fc4:	eb314983          	lbu	s3,-333(sp)

0000000080007fc8 <i_7891>:
    80007fc8:	e9c10e23          	sb	t3,-356(sp)

0000000080007fcc <i_7892>:
    80007fcc:	ef013e83          	ld	t4,-272(sp)

0000000080007fd0 <i_7893>:
    80007fd0:	0f615483          	lhu	s1,246(sp)

0000000080007fd4 <i_7894>:
    80007fd4:	f9412183          	lw	gp,-108(sp)

0000000080007fd8 <i_7895>:
    80007fd8:	0011de93          	srli	t4,gp,0x1

0000000080007fdc <i_7896>:
    80007fdc:	03b00193          	li	gp,59

0000000080007fe0 <i_7897>:
    80007fe0:	0031d233          	srl	tp,gp,gp

0000000080007fe4 <i_7898>:
    80007fe4:	76500493          	li	s1,1893

0000000080007fe8 <i_7899>:
    80007fe8:	76a00613          	li	a2,1898

0000000080007fec <i_7900>:
    80007fec:	03761663          	bne	a2,s7,80008018 <i_7910>

0000000080007ff0 <i_7901>:
    80007ff0:	4041d19b          	sraiw	gp,gp,0x4

0000000080007ff4 <i_7902>:
    80007ff4:	28dbcc13          	xori	s8,s7,653

0000000080007ff8 <i_7903>:
    80007ff8:	0031fe63          	bleu	gp,gp,80008014 <i_7909>

0000000080007ffc <i_7904>:
    80007ffc:	03e18bbb          	mulw	s7,gp,t5

0000000080008000 <i_7905>:
    80008000:	f9811023          	sh	s8,-128(sp)

0000000080008004 <i_7906>:
    80008004:	00148493          	addi	s1,s1,1
    80008008:	fec4c2e3          	blt	s1,a2,80007fec <i_7900>

000000008000800c <i_7907>:
    8000800c:	0031e863          	bltu	gp,gp,8000801c <i_7911>

0000000080008010 <i_7908>:
    80008010:	0aa11823          	sh	a0,176(sp)

0000000080008014 <i_7909>:
    80008014:	01829a63          	bne	t0,s8,80008028 <i_7914>

0000000080008018 <i_7910>:
    80008018:	fb412c03          	lw	s8,-76(sp)

000000008000801c <i_7911>:
    8000801c:	02812d33          	mulhsu	s10,sp,s0

0000000080008020 <i_7912>:
    80008020:	0256ae33          	mulhsu	t3,a3,t0

0000000080008024 <i_7913>:
    80008024:	00bb8e63          	beq	s7,a1,80008040 <i_7920>

0000000080008028 <i_7914>:
    80008028:	e2b13023          	sd	a1,-480(sp)

000000008000802c <i_7915>:
    8000802c:	01c9f863          	bleu	t3,s3,8000803c <i_7919>

0000000080008030 <i_7916>:
    80008030:	3838fb93          	andi	s7,a7,899

0000000080008034 <i_7917>:
    80008034:	037d1263          	bne	s10,s7,80008058 <i_7926>

0000000080008038 <i_7918>:
    80008038:	ed0e7e13          	andi	t3,t3,-304

000000008000803c <i_7919>:
    8000803c:	03a5e33b          	remw	t1,a1,s10

0000000080008040 <i_7920>:
    80008040:	02a13c23          	sd	a0,56(sp)

0000000080008044 <i_7921>:
    80008044:	03713423          	sd	s7,40(sp)

0000000080008048 <i_7922>:
    80008048:	003ba3b3          	slt	t2,s7,gp

000000008000804c <i_7923>:
    8000804c:	0d412603          	lw	a2,212(sp)

0000000080008050 <i_7924>:
    80008050:	01729a63          	bne	t0,s7,80008064 <i_7929>

0000000080008054 <i_7925>:
    80008054:	f0013603          	ld	a2,-256(sp)

0000000080008058 <i_7926>:
    80008058:	0d813803          	ld	a6,216(sp)

000000008000805c <i_7927>:
    8000805c:	002b9a9b          	slliw	s5,s7,0x2

0000000080008060 <i_7928>:
    80008060:	ee812803          	lw	a6,-280(sp)

0000000080008064 <i_7929>:
    80008064:	037664b3          	rem	s1,a2,s7

0000000080008068 <i_7930>:
    80008068:	e7c16b03          	lwu	s6,-388(sp)

000000008000806c <i_7931>:
    8000806c:	75300393          	li	t2,1875

0000000080008070 <i_7932>:
    80008070:	75500b93          	li	s7,1877

0000000080008074 <i_7933>:
    80008074:	02c391b3          	mulh	gp,t2,a2

0000000080008078 <i_7934>:
    80008078:	ee813603          	ld	a2,-280(sp)

000000008000807c <i_7935>:
    8000807c:	eb6109a3          	sb	s6,-333(sp)

0000000080008080 <i_7936>:
    80008080:	00138393          	addi	t2,t2,1
    80008084:	ff73e8e3          	bltu	t2,s7,80008074 <i_7933>

0000000080008088 <i_7937>:
    80008088:	1e6aea93          	ori	s5,s5,486

000000008000808c <i_7938>:
    8000808c:	01664e63          	blt	a2,s6,800080a8 <i_7945>

0000000080008090 <i_7939>:
    80008090:	15014183          	lbu	gp,336(sp)

0000000080008094 <i_7940>:
    80008094:	10016a83          	lwu	s5,256(sp)

0000000080008098 <i_7941>:
    80008098:	01b1f463          	bleu	s11,gp,800080a0 <i_7943>

000000008000809c <i_7942>:
    8000809c:	03a60263          	beq	a2,s10,800080c0 <i_7951>

00000000800080a0 <i_7943>:
    800080a0:	19015183          	lhu	gp,400(sp)

00000000800080a4 <i_7944>:
    800080a4:	10016e83          	lwu	t4,256(sp)

00000000800080a8 <i_7945>:
    800080a8:	41da8cbb          	subw	s9,s5,t4

00000000800080ac <i_7946>:
    800080ac:	e72cfc13          	andi	s8,s9,-398

00000000800080b0 <i_7947>:
    800080b0:	018cd463          	ble	s8,s9,800080b8 <i_7949>

00000000800080b4 <i_7948>:
    800080b4:	f6a15503          	lhu	a0,-150(sp)

00000000800080b8 <i_7949>:
    800080b8:	5a954513          	xori	a0,a0,1449

00000000800080bc <i_7950>:
    800080bc:	fa012a03          	lw	s4,-96(sp)

00000000800080c0 <i_7951>:
    800080c0:	00900213          	li	tp,9

00000000800080c4 <i_7952>:
    800080c4:	404a5333          	sra	t1,s4,tp

00000000800080c8 <i_7953>:
    800080c8:	00c00913          	li	s2,12

00000000800080cc <i_7954>:
    800080cc:	012212bb          	sllw	t0,tp,s2

00000000800080d0 <i_7955>:
    800080d0:	e3013183          	ld	gp,-464(sp)

00000000800080d4 <i_7956>:
    800080d4:	ffe15683          	lhu	a3,-2(sp)

00000000800080d8 <i_7957>:
    800080d8:	0362c2bb          	divw	t0,t0,s6

00000000800080dc <i_7958>:
    800080dc:	f0015303          	lhu	t1,-256(sp)

00000000800080e0 <i_7959>:
    800080e0:	0036d863          	ble	gp,a3,800080f0 <i_7963>

00000000800080e4 <i_7960>:
    800080e4:	0e015b83          	lhu	s7,224(sp)

00000000800080e8 <i_7961>:
    800080e8:	f0313c23          	sd	gp,-232(sp)

00000000800080ec <i_7962>:
    800080ec:	fecbc393          	xori	t2,s7,-20

00000000800080f0 <i_7963>:
    800080f0:	02119463          	bne	gp,ra,80008118 <i_7973>

00000000800080f4 <i_7964>:
    800080f4:	ea712e23          	sw	t2,-324(sp)

00000000800080f8 <i_7965>:
    800080f8:	0064a9b3          	slt	s3,s1,t1

00000000800080fc <i_7966>:
    800080fc:	ec013303          	ld	t1,-320(sp)

0000000080008100 <i_7967>:
    80008100:	f9614a83          	lbu	s5,-106(sp)

0000000080008104 <i_7968>:
    80008104:	f5511023          	sh	s5,-192(sp)

0000000080008108 <i_7969>:
    80008108:	01531c63          	bne	t1,s5,80008120 <i_7975>

000000008000810c <i_7970>:
    8000810c:	01730a63          	beq	t1,s7,80008120 <i_7975>

0000000080008110 <i_7971>:
    80008110:	4026d79b          	sraiw	a5,a3,0x2

0000000080008114 <i_7972>:
    80008114:	1b611303          	lh	t1,438(sp)

0000000080008118 <i_7973>:
    80008118:	e2013303          	ld	t1,-480(sp)

000000008000811c <i_7974>:
    8000811c:	06813d03          	ld	s10,104(sp)

0000000080008120 <i_7975>:
    80008120:	72fd4393          	xori	t2,s10,1839

0000000080008124 <i_7976>:
    80008124:	11215503          	lhu	a0,274(sp)

0000000080008128 <i_7977>:
    80008128:	74300b93          	li	s7,1859

000000008000812c <i_7978>:
    8000812c:	75400693          	li	a3,1876

0000000080008130 <i_7979>:
    80008130:	1df36313          	ori	t1,t1,479

0000000080008134 <i_7980>:
    80008134:	00c00d13          	li	s10,12

0000000080008138 <i_7981>:
    80008138:	01a55a3b          	srlw	s4,a0,s10

000000008000813c <i_7982>:
    8000813c:	02510503          	lb	a0,37(sp)

0000000080008140 <i_7983>:
    80008140:	e3410c23          	sb	s4,-456(sp)

0000000080008144 <i_7984>:
    80008144:	001b8b93          	addi	s7,s7,1 # 1cee5b2d <main-0x6311a4d3>
    80008148:	ff76f4e3          	bleu	s7,a3,80008130 <i_7979>

000000008000814c <i_7985>:
    8000814c:	02435a3b          	divuw	s4,t1,tp

0000000080008150 <i_7986>:
    80008150:	026f67bb          	remw	a5,t5,t1

0000000080008154 <i_7987>:
    80008154:	001d1c63          	bne	s10,ra,8000816c <i_7993>

0000000080008158 <i_7988>:
    80008158:	007d6533          	or	a0,s10,t2

000000008000815c <i_7989>:
    8000815c:	03da7063          	bleu	t4,s4,8000817c <i_7997>

0000000080008160 <i_7990>:
    80008160:	00a36463          	bltu	t1,a0,80008168 <i_7992>

0000000080008164 <i_7991>:
    80008164:	00aa6663          	bltu	s4,a0,80008170 <i_7994>

0000000080008168 <i_7992>:
    80008168:	014a0a63          	beq	s4,s4,8000817c <i_7997>

000000008000816c <i_7993>:
    8000816c:	027352b3          	divu	t0,t1,t2

0000000080008170 <i_7994>:
    80008170:	026a7463          	bleu	t1,s4,80008198 <i_8004>

0000000080008174 <i_7995>:
    80008174:	07354a13          	xori	s4,a0,115

0000000080008178 <i_7996>:
    80008178:	01456863          	bltu	a0,s4,80008188 <i_8000>

000000008000817c <i_7997>:
    8000817c:	03fa4063          	blt	s4,t6,8000819c <i_8005>

0000000080008180 <i_7998>:
    80008180:	90147a37          	lui	s4,0x90147

0000000080008184 <i_7999>:
    80008184:	f7714a03          	lbu	s4,-137(sp)

0000000080008188 <i_8000>:
    80008188:	032be93b          	remw	s2,s7,s2

000000008000818c <i_8001>:
    8000818c:	022a7a3b          	remuw	s4,s4,sp

0000000080008190 <i_8002>:
    80008190:	7e71ba17          	auipc	s4,0x7e71b

0000000080008194 <i_8003>:
    80008194:	0d413c23          	sd	s4,216(sp)

0000000080008198 <i_8004>:
    80008198:	f6c11783          	lh	a5,-148(sp)

000000008000819c <i_8005>:
    8000819c:	02fa2fb3          	mulhsu	t6,s4,a5

00000000800081a0 <i_8006>:
    800081a0:	01490a33          	add	s4,s2,s4

00000000800081a4 <i_8007>:
    800081a4:	74700513          	li	a0,1863

00000000800081a8 <i_8008>:
    800081a8:	75400b93          	li	s7,1876

00000000800081ac <i_8009>:
    800081ac:	15211323          	sh	s2,326(sp)

00000000800081b0 <i_8010>:
    800081b0:	0017d91b          	srliw	s2,a5,0x1

00000000800081b4 <i_8011>:
    800081b4:	b49f8913          	addi	s2,t6,-1207

00000000800081b8 <i_8012>:
    800081b8:	00150513          	addi	a0,a0,1
    800081bc:	feabf8e3          	bleu	a0,s7,800081ac <i_8009>

00000000800081c0 <i_8013>:
    800081c0:	02b00f93          	li	t6,43

00000000800081c4 <i_8014>:
    800081c4:	41f95333          	sra	t1,s2,t6

00000000800081c8 <i_8015>:
    800081c8:	e5016903          	lwu	s2,-432(sp)

00000000800081cc <i_8016>:
    800081cc:	02b00913          	li	s2,43

00000000800081d0 <i_8017>:
    800081d0:	412b5b33          	sra	s6,s6,s2

00000000800081d4 <i_8018>:
    800081d4:	09211903          	lh	s2,146(sp)

00000000800081d8 <i_8019>:
    800081d8:	036f9263          	bne	t6,s6,800081fc <i_8028>

00000000800081dc <i_8020>:
    800081dc:	00ffec63          	bltu	t6,a5,800081f4 <i_8026>

00000000800081e0 <i_8021>:
    800081e0:	ffb14c03          	lbu	s8,-5(sp)

00000000800081e4 <i_8022>:
    800081e4:	00410e03          	lb	t3,4(sp)

00000000800081e8 <i_8023>:
    800081e8:	01294933          	xor	s2,s2,s2

00000000800081ec <i_8024>:
    800081ec:	fca14b83          	lbu	s7,-54(sp)

00000000800081f0 <i_8025>:
    800081f0:	ec810a03          	lb	s4,-312(sp)

00000000800081f4 <i_8026>:
    800081f4:	032de263          	bltu	s11,s2,80008218 <i_8035>

00000000800081f8 <i_8027>:
    800081f8:	012e7263          	bleu	s2,t3,800081fc <i_8028>

00000000800081fc <i_8028>:
    800081fc:	0144d663          	ble	s4,s1,80008208 <i_8031>

0000000080008200 <i_8029>:
    80008200:	e8810503          	lb	a0,-376(sp)

0000000080008204 <i_8030>:
    80008204:	03ce0463          	beq	t3,t3,8000822c <i_8040>

0000000080008208 <i_8031>:
    80008208:	1d914403          	lbu	s0,473(sp)

000000008000820c <i_8032>:
    8000820c:	fb012083          	lw	ra,-80(sp)

0000000080008210 <i_8033>:
    80008210:	001e5e1b          	srliw	t3,t3,0x1

0000000080008214 <i_8034>:
    80008214:	f6112423          	sw	ra,-152(sp)

0000000080008218 <i_8035>:
    80008218:	01c0f463          	bleu	t3,ra,80008220 <i_8037>

000000008000821c <i_8036>:
    8000821c:	02149e33          	mulh	t3,s1,ra

0000000080008220 <i_8037>:
    80008220:	e5c11e03          	lh	t3,-420(sp)

0000000080008224 <i_8038>:
    80008224:	03000193          	li	gp,48

0000000080008228 <i_8039>:
    80008228:	003099b3          	sll	s3,ra,gp

000000008000822c <i_8040>:
    8000822c:	f3811e03          	lh	t3,-200(sp)

0000000080008230 <i_8041>:
    80008230:	003e3633          	sltu	a2,t3,gp

0000000080008234 <i_8042>:
    80008234:	04112a23          	sw	ra,84(sp)

0000000080008238 <i_8043>:
    80008238:	00000013          	nop

000000008000823c <i_8044>:
    8000823c:	0dc16f03          	lwu	t5,220(sp)

0000000080008240 <i_8045>:
    80008240:	76800e13          	li	t3,1896

0000000080008244 <i_8046>:
    80008244:	76f00913          	li	s2,1903

0000000080008248 <i_8047>:
    80008248:	00cf5c63          	ble	a2,t5,80008260 <i_8053>

000000008000824c <i_8048>:
    8000824c:	17c12083          	lw	ra,380(sp)

0000000080008250 <i_8049>:
    80008250:	01f18463          	beq	gp,t6,80008258 <i_8051>

0000000080008254 <i_8050>:
    80008254:	056106a3          	sb	s6,77(sp)

0000000080008258 <i_8051>:
    80008258:	937c6f17          	auipc	t5,0x937c6

000000008000825c <i_8052>:
    8000825c:	01c1c633          	xor	a2,gp,t3

0000000080008260 <i_8053>:
    80008260:	fc815303          	lhu	t1,-56(sp)

0000000080008264 <i_8054>:
    80008264:	b61e0193          	addi	gp,t3,-1183

0000000080008268 <i_8055>:
    80008268:	0010931b          	slliw	t1,ra,0x1

000000008000826c <i_8056>:
    8000826c:	03e08f3b          	mulw	t5,ra,t5

0000000080008270 <i_8057>:
    80008270:	fec12303          	lw	t1,-20(sp)

0000000080008274 <i_8058>:
    80008274:	01e903b3          	add	t2,s2,t5

0000000080008278 <i_8059>:
    80008278:	00732eb3          	slt	t4,t1,t2

000000008000827c <i_8060>:
    8000827c:	27f61c37          	lui	s8,0x27f61

0000000080008280 <i_8061>:
    80008280:	001e0e13          	addi	t3,t3,1
    80008284:	fd2e62e3          	bltu	t3,s2,80008248 <i_8047>

0000000080008288 <i_8062>:
    80008288:	0cc14083          	lbu	ra,204(sp)

000000008000828c <i_8063>:
    8000828c:	fd511723          	sh	s5,-50(sp)

0000000080008290 <i_8064>:
    80008290:	01e29263          	bne	t0,t5,80008294 <i_8065>

0000000080008294 <i_8065>:
    80008294:	00430a63          	beq	t1,tp,800082a8 <i_8070>

0000000080008298 <i_8066>:
    80008298:	f1e15f03          	lhu	t5,-226(sp)

000000008000829c <i_8067>:
    8000829c:	41e08f3b          	subw	t5,ra,t5

00000000800082a0 <i_8068>:
    800082a0:	15e102a3          	sb	t5,325(sp)

00000000800082a4 <i_8069>:
    800082a4:	01c0f663          	bleu	t3,ra,800082b0 <i_8072>

00000000800082a8 <i_8070>:
    800082a8:	0012b4b3          	sltu	s1,t0,ra

00000000800082ac <i_8071>:
    800082ac:	10a14303          	lbu	t1,266(sp)

00000000800082b0 <i_8072>:
    800082b0:	02549463          	bne	s1,t0,800082d8 <i_8082>

00000000800082b4 <i_8073>:
    800082b4:	0295653b          	remw	a0,a0,s1

00000000800082b8 <i_8074>:
    800082b8:	03b10f23          	sb	s11,62(sp)

00000000800082bc <i_8075>:
    800082bc:	f0a13823          	sd	a0,-240(sp)

00000000800082c0 <i_8076>:
    800082c0:	fa210383          	lb	t2,-94(sp)

00000000800082c4 <i_8077>:
    800082c4:	02a15933          	divu	s2,sp,a0

00000000800082c8 <i_8078>:
    800082c8:	038c443b          	divw	s0,s8,s8

00000000800082cc <i_8079>:
    800082cc:	01b45c63          	ble	s11,s0,800082e4 <i_8085>

00000000800082d0 <i_8080>:
    800082d0:	009f0e63          	beq	t5,s1,800082ec <i_8087>

00000000800082d4 <i_8081>:
    800082d4:	01a0dc63          	ble	s10,ra,800082ec <i_8087>

00000000800082d8 <i_8082>:
    800082d8:	00141a63          	bne	s0,ra,800082ec <i_8087>

00000000800082dc <i_8083>:
    800082dc:	02120d33          	mul	s10,tp,ra

00000000800082e0 <i_8084>:
    800082e0:	004d5f1b          	srliw	t5,s10,0x4

00000000800082e4 <i_8085>:
    800082e4:	01a383b3          	add	t2,t2,s10

00000000800082e8 <i_8086>:
    800082e8:	0213ff33          	remu	t5,t2,ra

00000000800082ec <i_8087>:
    800082ec:	03a0e23b          	remw	tp,ra,s10

00000000800082f0 <i_8088>:
    800082f0:	1be103a3          	sb	t5,423(sp)

00000000800082f4 <i_8089>:
    800082f4:	75e00b13          	li	s6,1886

00000000800082f8 <i_8090>:
    800082f8:	76a00093          	li	ra,1898

00000000800082fc <i_8091>:
    800082fc:	005f32b3          	sltu	t0,t5,t0

0000000080008300 <i_8092>:
    80008300:	e2513423          	sd	t0,-472(sp)

0000000080008304 <i_8093>:
    80008304:	016d7ab3          	and	s5,s10,s6

0000000080008308 <i_8094>:
    80008308:	03e94533          	div	a0,s2,t5

000000008000830c <i_8095>:
    8000830c:	0270e333          	rem	t1,ra,t2

0000000080008310 <i_8096>:
    80008310:	026ac63b          	divw	a2,s5,t1

0000000080008314 <i_8097>:
    80008314:	401ad213          	srai	tp,s5,0x1

0000000080008318 <i_8098>:
    80008318:	1a212023          	sw	sp,416(sp)

000000008000831c <i_8099>:
    8000831c:	e4112623          	sw	ra,-436(sp)

0000000080008320 <i_8100>:
    80008320:	c1c2879b          	addiw	a5,t0,-996

0000000080008324 <i_8101>:
    80008324:	001b0b13          	addi	s6,s6,1
    80008328:	fd60fae3          	bleu	s6,ra,800082fc <i_8091>

000000008000832c <i_8102>:
    8000832c:	eb824f13          	xori	t5,tp,-328

0000000080008330 <i_8103>:
    80008330:	02b0d263          	ble	a1,ra,80008354 <i_8112>

0000000080008334 <i_8104>:
    80008334:	404f0f3b          	subw	t5,t5,tp

0000000080008338 <i_8105>:
    80008338:	e5310e83          	lb	t4,-429(sp)

000000008000833c <i_8106>:
    8000833c:	00c57533          	and	a0,a0,a2

0000000080008340 <i_8107>:
    80008340:	01ae8863          	beq	t4,s10,80008350 <i_8111>

0000000080008344 <i_8108>:
    80008344:	ecb10603          	lb	a2,-309(sp)

0000000080008348 <i_8109>:
    80008348:	15d14503          	lbu	a0,349(sp)

000000008000834c <i_8110>:
    8000834c:	18612e23          	sw	t1,412(sp)

0000000080008350 <i_8111>:
    80008350:	03c50e33          	mul	t3,a0,t3

0000000080008354 <i_8112>:
    80008354:	00000013          	nop

0000000080008358 <i_8113>:
    80008358:	f7012a83          	lw	s5,-144(sp)

000000008000835c <i_8114>:
    8000835c:	82900f13          	li	t5,-2007

0000000080008360 <i_8115>:
    80008360:	83400313          	li	t1,-1996

0000000080008364 <i_8116>:
    80008364:	1aa12a23          	sw	a0,436(sp)

0000000080008368 <i_8117>:
    80008368:	15813603          	ld	a2,344(sp)

000000008000836c <i_8118>:
    8000836c:	00b00e13          	li	t3,11

0000000080008370 <i_8119>:
    80008370:	41c6553b          	sraw	a0,a2,t3

0000000080008374 <i_8120>:
    80008374:	e3016a83          	lwu	s5,-464(sp)

0000000080008378 <i_8121>:
    80008378:	031660b3          	rem	ra,a2,a7

000000008000837c <i_8122>:
    8000837c:	17815383          	lhu	t2,376(sp)

0000000080008380 <i_8123>:
    80008380:	02750063          	beq	a0,t2,800083a0 <i_8130>

0000000080008384 <i_8124>:
    80008384:	e6612223          	sw	t1,-412(sp)

0000000080008388 <i_8125>:
    80008388:	02816383          	lwu	t2,40(sp)

000000008000838c <i_8126>:
    8000838c:	001f0f13          	addi	t5,t5,1 # 137ce259 <main-0x6c831da7>
    80008390:	fc6f6ae3          	bltu	t5,t1,80008364 <i_8116>

0000000080008394 <i_8127>:
    80008394:	fe710383          	lb	t2,-25(sp)

0000000080008398 <i_8128>:
    80008398:	0393d263          	ble	s9,t2,800083bc <i_8137>

000000008000839c <i_8129>:
    8000839c:	00c38463          	beq	t2,a2,800083a4 <i_8131>

00000000800083a0 <i_8130>:
    800083a0:	00389793          	slli	a5,a7,0x3

00000000800083a4 <i_8131>:
    800083a4:	09f10803          	lb	a6,159(sp)

00000000800083a8 <i_8132>:
    800083a8:	e8f12023          	sw	a5,-384(sp)

00000000800083ac <i_8133>:
    800083ac:	0217ed3b          	remw	s10,a5,ra

00000000800083b0 <i_8134>:
    800083b0:	0277f9b3          	remu	s3,a5,t2

00000000800083b4 <i_8135>:
    800083b4:	0da10023          	sb	s10,192(sp)

00000000800083b8 <i_8136>:
    800083b8:	027d8463          	beq	s11,t2,800083e0 <i_8146>

00000000800083bc <i_8137>:
    800083bc:	fbe13823          	sd	t5,-80(sp)

00000000800083c0 <i_8138>:
    800083c0:	01038a63          	beq	t2,a6,800083d4 <i_8143>

00000000800083c4 <i_8139>:
    800083c4:	001d1393          	slli	t2,s10,0x1

00000000800083c8 <i_8140>:
    800083c8:	0f812803          	lw	a6,248(sp)

00000000800083cc <i_8141>:
    800083cc:	0073f263          	bleu	t2,t2,800083d0 <i_8142>

00000000800083d0 <i_8142>:
    800083d0:	1c113023          	sd	ra,448(sp)

00000000800083d4 <i_8143>:
    800083d4:	00996a63          	bltu	s2,s1,800083e8 <i_8148>

00000000800083d8 <i_8144>:
    800083d8:	00c85463          	ble	a2,a6,800083e0 <i_8146>

00000000800083dc <i_8145>:
    800083dc:	004d1a63          	bne	s10,tp,800083f0 <i_8150>

00000000800083e0 <i_8146>:
    800083e0:	e9010f23          	sb	a6,-354(sp)

00000000800083e4 <i_8147>:
    800083e4:	0136ad33          	slt	s10,a3,s3

00000000800083e8 <i_8148>:
    800083e8:	e3e15b03          	lhu	s6,-450(sp)

00000000800083ec <i_8149>:
    800083ec:	033107a3          	sb	s3,47(sp)

00000000800083f0 <i_8150>:
    800083f0:	11013903          	ld	s2,272(sp)

00000000800083f4 <i_8151>:
    800083f4:	eb411983          	lh	s3,-332(sp)

00000000800083f8 <i_8152>:
    800083f8:	faa13c23          	sd	a0,-72(sp)

00000000800083fc <i_8153>:
    800083fc:	fc416603          	lwu	a2,-60(sp)

0000000080008400 <i_8154>:
    80008400:	ed813c03          	ld	s8,-296(sp)

0000000080008404 <i_8155>:
    80008404:	0189d263          	ble	s8,s3,80008408 <i_8156>

0000000080008408 <i_8156>:
    80008408:	01665263          	ble	s6,a2,8000840c <i_8157>

000000008000840c <i_8157>:
    8000840c:	8e7d7d13          	andi	s10,s10,-1817

0000000080008410 <i_8158>:
    80008410:	016d5c63          	ble	s6,s10,80008428 <i_8164>

0000000080008414 <i_8159>:
    80008414:	01295463          	ble	s2,s2,8000841c <i_8161>

0000000080008418 <i_8160>:
    80008418:	016b5863          	ble	s6,s6,80008428 <i_8164>

000000008000841c <i_8161>:
    8000841c:	038b0063          	beq	s6,s8,8000843c <i_8169>

0000000080008420 <i_8162>:
    80008420:	eff14c03          	lbu	s8,-257(sp)

0000000080008424 <i_8163>:
    80008424:	f0412c03          	lw	s8,-252(sp)

0000000080008428 <i_8164>:
    80008428:	025d5463          	ble	t0,s10,80008450 <i_8174>

000000008000842c <i_8165>:
    8000842c:	fe813a03          	ld	s4,-24(sp)

0000000080008430 <i_8166>:
    80008430:	014c4633          	xor	a2,s8,s4

0000000080008434 <i_8167>:
    80008434:	efc12203          	lw	tp,-260(sp)

0000000080008438 <i_8168>:
    80008438:	016c2c33          	slt	s8,s8,s6

000000008000843c <i_8169>:
    8000843c:	00c96633          	or	a2,s2,a2

0000000080008440 <i_8170>:
    80008440:	00c3b3b3          	sltu	t2,t2,a2

0000000080008444 <i_8171>:
    80008444:	02a60bb3          	mul	s7,a2,a0

0000000080008448 <i_8172>:
    80008448:	02c24463          	blt	tp,a2,80008470 <i_8182>

000000008000844c <i_8173>:
    8000844c:	0b816383          	lwu	t2,184(sp)

0000000080008450 <i_8174>:
    80008450:	c8e26993          	ori	s3,tp,-882

0000000080008454 <i_8175>:
    80008454:	fc911023          	sh	s1,-64(sp)

0000000080008458 <i_8176>:
    80008458:	14e14503          	lbu	a0,334(sp)

000000008000845c <i_8177>:
    8000845c:	00000013          	nop

0000000080008460 <i_8178>:
    80008460:	00000013          	nop

0000000080008464 <i_8179>:
    80008464:	00000013          	nop

0000000080008468 <i_8180>:
    80008468:	00c62bb3          	slt	s7,a2,a2

000000008000846c <i_8181>:
    8000846c:	ec015583          	lhu	a1,-320(sp)

0000000080008470 <i_8182>:
    80008470:	00000013          	nop

0000000080008474 <i_8183>:
    80008474:	0271f1bb          	remuw	gp,gp,t2

0000000080008478 <i_8184>:
    80008478:	7b500213          	li	tp,1973

000000008000847c <i_8185>:
    8000847c:	7c700493          	li	s1,1991

0000000080008480 <i_8186>:
    80008480:	037bbe33          	mulhu	t3,s7,s7

0000000080008484 <i_8187>:
    80008484:	ba05ab93          	slti	s7,a1,-1120

0000000080008488 <i_8188>:
    80008488:	9beb8613          	addi	a2,s7,-1602

000000008000848c <i_8189>:
    8000848c:	41cb85bb          	subw	a1,s7,t3

0000000080008490 <i_8190>:
    80008490:	e9711b23          	sh	s7,-362(sp)

0000000080008494 <i_8191>:
    80008494:	f1710a23          	sb	s7,-236(sp)

0000000080008498 <i_8192>:
    80008498:	00fb87b3          	add	a5,s7,a5

000000008000849c <i_8193>:
    8000849c:	00120213          	addi	tp,tp,1 # ffffffffc8bcf001 <_end+0xffffffff48bbebed>
    800084a0:	fe44f0e3          	bleu	tp,s1,80008480 <i_8186>

00000000800084a4 <i_8194>:
    800084a4:	02416a83          	lwu	s5,36(sp)

00000000800084a8 <i_8195>:
    800084a8:	42f7bd13          	sltiu	s10,a5,1071

00000000800084ac <i_8196>:
    800084ac:	eb510b83          	lb	s7,-331(sp)

00000000800084b0 <i_8197>:
    800084b0:	02fa87bb          	mulw	a5,s5,a5

00000000800084b4 <i_8198>:
    800084b4:	11a13823          	sd	s10,272(sp)

00000000800084b8 <i_8199>:
    800084b8:	13113c23          	sd	a7,312(sp)

00000000800084bc <i_8200>:
    800084bc:	18f100a3          	sb	a5,385(sp)

00000000800084c0 <i_8201>:
    800084c0:	015d5263          	ble	s5,s10,800084c4 <i_8202>

00000000800084c4 <i_8202>:
    800084c4:	fef13c23          	sd	a5,-8(sp)

00000000800084c8 <i_8203>:
    800084c8:	11b14603          	lbu	a2,283(sp)

00000000800084cc <i_8204>:
    800084cc:	00c6e863          	bltu	a3,a2,800084dc <i_8208>

00000000800084d0 <i_8205>:
    800084d0:	40365d13          	srai	s10,a2,0x3

00000000800084d4 <i_8206>:
    800084d4:	b9610493          	addi	s1,sp,-1130

00000000800084d8 <i_8207>:
    800084d8:	fec15603          	lhu	a2,-20(sp)

00000000800084dc <i_8208>:
    800084dc:	e905f593          	andi	a1,a1,-368

00000000800084e0 <i_8209>:
    800084e0:	07e15b83          	lhu	s7,126(sp)

00000000800084e4 <i_8210>:
    800084e4:	01e00b93          	li	s7,30

00000000800084e8 <i_8211>:
    800084e8:	017bd63b          	srlw	a2,s7,s7

00000000800084ec <i_8212>:
    800084ec:	00210683          	lb	a3,2(sp)

00000000800084f0 <i_8213>:
    800084f0:	f9a15b83          	lhu	s7,-102(sp)

00000000800084f4 <i_8214>:
    800084f4:	01e68f33          	add	t5,a3,t5

00000000800084f8 <i_8215>:
    800084f8:	02dbe4bb          	remw	s1,s7,a3

00000000800084fc <i_8216>:
    800084fc:	0f412d83          	lw	s11,244(sp)

0000000080008500 <i_8217>:
    80008500:	f6e10b83          	lb	s7,-146(sp)

0000000080008504 <i_8218>:
    80008504:	001bc0b3          	xor	ra,s7,ra

0000000080008508 <i_8219>:
    80008508:	f1815b83          	lhu	s7,-232(sp)

000000008000850c <i_8220>:
    8000850c:	401bd09b          	sraiw	ra,s7,0x1

0000000080008510 <i_8221>:
    80008510:	08811183          	lh	gp,136(sp)

0000000080008514 <i_8222>:
    80008514:	0a312023          	sw	gp,160(sp)

0000000080008518 <i_8223>:
    80008518:	01812c03          	lw	s8,24(sp)

000000008000851c <i_8224>:
    8000851c:	01300513          	li	a0,19

0000000080008520 <i_8225>:
    80008520:	00ab1433          	sll	s0,s6,a0

0000000080008524 <i_8226>:
    80008524:	4025519b          	sraiw	gp,a0,0x2

0000000080008528 <i_8227>:
    80008528:	03700193          	li	gp,55

000000008000852c <i_8228>:
    8000852c:	4031dbb3          	sra	s7,gp,gp

0000000080008530 <i_8229>:
    80008530:	0237a433          	mulhsu	s0,a5,gp

0000000080008534 <i_8230>:
    80008534:	0171f463          	bleu	s7,gp,8000853c <i_8232>

0000000080008538 <i_8231>:
    80008538:	19011b83          	lh	s7,400(sp)

000000008000853c <i_8232>:
    8000853c:	01300a93          	li	s5,19

0000000080008540 <i_8233>:
    80008540:	0156563b          	srlw	a2,a2,s5

0000000080008544 <i_8234>:
    80008544:	03b00a93          	li	s5,59

0000000080008548 <i_8235>:
    80008548:	41545ab3          	sra	s5,s0,s5

000000008000854c <i_8236>:
    8000854c:	f9813f83          	ld	t6,-104(sp)

0000000080008550 <i_8237>:
    80008550:	403185b3          	sub	a1,gp,gp

0000000080008554 <i_8238>:
    80008554:	eea15683          	lhu	a3,-278(sp)

0000000080008558 <i_8239>:
    80008558:	15011083          	lh	ra,336(sp)

000000008000855c <i_8240>:
    8000855c:	e4016183          	lwu	gp,-448(sp)

0000000080008560 <i_8241>:
    80008560:	0260f263          	bleu	t1,ra,80008584 <i_8250>

0000000080008564 <i_8242>:
    80008564:	0b712023          	sw	s7,160(sp)

0000000080008568 <i_8243>:
    80008568:	0036c863          	blt	a3,gp,80008578 <i_8247>

000000008000856c <i_8244>:
    8000856c:	00d8e463          	bltu	a7,a3,80008574 <i_8246>

0000000080008570 <i_8245>:
    80008570:	f2d107a3          	sb	a3,-209(sp)

0000000080008574 <i_8246>:
    80008574:	ecb10323          	sb	a1,-314(sp)

0000000080008578 <i_8247>:
    80008578:	17c14683          	lbu	a3,380(sp)

000000008000857c <i_8248>:
    8000857c:	00141e63          	bne	s0,ra,80008598 <i_8255>

0000000080008580 <i_8249>:
    80008580:	e2013983          	ld	s3,-480(sp)

0000000080008584 <i_8250>:
    80008584:	0289f433          	remu	s0,s3,s0

0000000080008588 <i_8251>:
    80008588:	02d00193          	li	gp,45

000000008000858c <i_8252>:
    8000858c:	4039d833          	sra	a6,s3,gp

0000000080008590 <i_8253>:
    80008590:	ef015203          	lhu	tp,-272(sp)

0000000080008594 <i_8254>:
    80008594:	00219413          	slli	s0,gp,0x2

0000000080008598 <i_8255>:
    80008598:	02318263          	beq	gp,gp,800085bc <i_8264>

000000008000859c <i_8256>:
    8000859c:	003441b3          	xor	gp,s0,gp

00000000800085a0 <i_8257>:
    800085a0:	01f18e63          	beq	gp,t6,800085bc <i_8264>

00000000800085a4 <i_8258>:
    800085a4:	0231edbb          	remw	s11,gp,gp

00000000800085a8 <i_8259>:
    800085a8:	04a11183          	lh	gp,74(sp)

00000000800085ac <i_8260>:
    800085ac:	f6311523          	sh	gp,-150(sp)

00000000800085b0 <i_8261>:
    800085b0:	0031fe63          	bleu	gp,gp,800085cc <i_8268>

00000000800085b4 <i_8262>:
    800085b4:	fa411623          	sh	tp,-84(sp)

00000000800085b8 <i_8263>:
    800085b8:	0022579b          	srliw	a5,tp,0x2

00000000800085bc <i_8264>:
    800085bc:	10c16183          	lwu	gp,268(sp)

00000000800085c0 <i_8265>:
    800085c0:	f1b107a3          	sb	s11,-241(sp)

00000000800085c4 <i_8266>:
    800085c4:	02f1e2b3          	rem	t0,gp,a5

00000000800085c8 <i_8267>:
    800085c8:	00329263          	bne	t0,gp,800085cc <i_8268>

00000000800085cc <i_8268>:
    800085cc:	16812783          	lw	a5,360(sp)

00000000800085d0 <i_8269>:
    800085d0:	ef957513          	andi	a0,a0,-263

00000000800085d4 <i_8270>:
    800085d4:	09811f03          	lh	t5,152(sp)

00000000800085d8 <i_8271>:
    800085d8:	00f7dc63          	ble	a5,a5,800085f0 <i_8277>

00000000800085dc <i_8272>:
    800085dc:	ef810ca3          	sb	s8,-263(sp)

00000000800085e0 <i_8273>:
    800085e0:	e8513c23          	sd	t0,-360(sp)

00000000800085e4 <i_8274>:
    800085e4:	4b131497          	auipc	s1,0x4b131

00000000800085e8 <i_8275>:
    800085e8:	00f4f263          	bleu	a5,s1,800085ec <i_8276>

00000000800085ec <i_8276>:
    800085ec:	0a211483          	lh	s1,162(sp)

00000000800085f0 <i_8277>:
    800085f0:	05812283          	lw	t0,88(sp)

00000000800085f4 <i_8278>:
    800085f4:	ed714f03          	lbu	t5,-297(sp)

00000000800085f8 <i_8279>:
    800085f8:	0af107a3          	sb	a5,175(sp)

00000000800085fc <i_8280>:
    800085fc:	02af54b3          	divu	s1,t5,a0

0000000080008600 <i_8281>:
    80008600:	fa911c23          	sh	s1,-72(sp)

0000000080008604 <i_8282>:
    80008604:	03bf4cb3          	div	s9,t5,s11

0000000080008608 <i_8283>:
    80008608:	41e48c3b          	subw	s8,s1,t5

000000008000860c <i_8284>:
    8000860c:	00412b83          	lw	s7,4(sp)

0000000080008610 <i_8285>:
    80008610:	039bbb33          	mulhu	s6,s7,s9

0000000080008614 <i_8286>:
    80008614:	eaa11823          	sh	a0,-336(sp)

0000000080008618 <i_8287>:
    80008618:	00ab8863          	beq	s7,a0,80008628 <i_8291>

000000008000861c <i_8288>:
    8000861c:	018f7263          	bleu	s8,t5,80008620 <i_8289>

0000000080008620 <i_8289>:
    80008620:	01755e63          	ble	s7,a0,8000863c <i_8296>

0000000080008624 <i_8290>:
    80008624:	0e811803          	lh	a6,232(sp)

0000000080008628 <i_8291>:
    80008628:	037b583b          	divuw	a6,s6,s7

000000008000862c <i_8292>:
    8000862c:	009c8663          	beq	s9,s1,80008638 <i_8295>

0000000080008630 <i_8293>:
    80008630:	12e15803          	lhu	a6,302(sp)

0000000080008634 <i_8294>:
    80008634:	0101e233          	or	tp,gp,a6

0000000080008638 <i_8295>:
    80008638:	f2a13823          	sd	a0,-208(sp)

000000008000863c <i_8296>:
    8000863c:	04412023          	sw	tp,64(sp)

0000000080008640 <i_8297>:
    80008640:	409b0a33          	sub	s4,s6,s1

0000000080008644 <i_8298>:
    80008644:	10a11723          	sh	a0,270(sp)

0000000080008648 <i_8299>:
    80008648:	018a4463          	blt	s4,s8,80008650 <i_8301>

000000008000864c <i_8300>:
    8000864c:	03a5533b          	divuw	t1,a0,s10

0000000080008650 <i_8301>:
    80008650:	01fbd863          	ble	t6,s7,80008660 <i_8305>

0000000080008654 <i_8302>:
    80008654:	e77107a3          	sb	s7,-401(sp)

0000000080008658 <i_8303>:
    80008658:	d04b6d97          	auipc	s11,0xd04b6

000000008000865c <i_8304>:
    8000865c:	bc1046b7          	lui	a3,0xbc104

0000000080008660 <i_8305>:
    80008660:	036c893b          	mulw	s2,s9,s6

0000000080008664 <i_8306>:
    80008664:	09812e03          	lw	t3,152(sp)

0000000080008668 <i_8307>:
    80008668:	0046dc93          	srli	s9,a3,0x4

000000008000866c <i_8308>:
    8000866c:	83f00093          	li	ra,-1985

0000000080008670 <i_8309>:
    80008670:	84f00e93          	li	t4,-1969

0000000080008674 <i_8310>:
    80008674:	00200f13          	li	t5,2

0000000080008678 <i_8311>:
    80008678:	01e4d2bb          	srlw	t0,s1,t5

000000008000867c <i_8312>:
    8000867c:	006c9663          	bne	s9,t1,80008688 <i_8315>

0000000080008680 <i_8313>:
    80008680:	1cc15d03          	lhu	s10,460(sp)

0000000080008684 <i_8314>:
    80008684:	002e9e1b          	slliw	t3,t4,0x2

0000000080008688 <i_8315>:
    80008688:	ef412d83          	lw	s11,-268(sp)

000000008000868c <i_8316>:
    8000868c:	00000013          	nop

0000000080008690 <i_8317>:
    80008690:	16012603          	lw	a2,352(sp)

0000000080008694 <i_8318>:
    80008694:	00ce9863          	bne	t4,a2,800086a4 <i_8322>

0000000080008698 <i_8319>:
    80008698:	01b4c663          	blt	s1,s11,800086a4 <i_8322>

000000008000869c <i_8320>:
    8000869c:	00000013          	nop

00000000800086a0 <i_8321>:
    800086a0:	01b00313          	li	t1,27

00000000800086a4 <i_8322>:
    800086a4:	00689c33          	sll	s8,a7,t1

00000000800086a8 <i_8323>:
    800086a8:	01ec4f33          	xor	t5,s8,t5

00000000800086ac <i_8324>:
    800086ac:	00108093          	addi	ra,ra,1
    800086b0:	fdd0e2e3          	bltu	ra,t4,80008674 <i_8310>

00000000800086b4 <i_8325>:
    800086b4:	026f6263          	bltu	t5,t1,800086d8 <i_8334>

00000000800086b8 <i_8326>:
    800086b8:	f4016d83          	lwu	s11,-192(sp)

00000000800086bc <i_8327>:
    800086bc:	06c16c03          	lwu	s8,108(sp)

00000000800086c0 <i_8328>:
    800086c0:	00a15e83          	lhu	t4,10(sp)

00000000800086c4 <i_8329>:
    800086c4:	01e11403          	lh	s0,30(sp)

00000000800086c8 <i_8330>:
    800086c8:	e4714783          	lbu	a5,-441(sp)

00000000800086cc <i_8331>:
    800086cc:	02fc57bb          	divuw	a5,s8,a5

00000000800086d0 <i_8332>:
    800086d0:	0ec11203          	lh	tp,236(sp)

00000000800086d4 <i_8333>:
    800086d4:	00487b33          	and	s6,a6,tp

00000000800086d8 <i_8334>:
    800086d8:	e9a15783          	lhu	a5,-358(sp)

00000000800086dc <i_8335>:
    800086dc:	03a79063          	bne	a5,s10,800086fc <i_8343>

00000000800086e0 <i_8336>:
    800086e0:	13011b03          	lh	s6,304(sp)

00000000800086e4 <i_8337>:
    800086e4:	03611223          	sh	s6,36(sp)

00000000800086e8 <i_8338>:
    800086e8:	f9610783          	lb	a5,-106(sp)

00000000800086ec <i_8339>:
    800086ec:	80154f97          	auipc	t6,0x80154

00000000800086f0 <i_8340>:
    800086f0:	03fb0b33          	mul	s6,s6,t6

00000000800086f4 <i_8341>:
    800086f4:	f9112a23          	sw	a7,-108(sp)

00000000800086f8 <i_8342>:
    800086f8:	e6c12b03          	lw	s6,-404(sp)

00000000800086fc <i_8343>:
    800086fc:	f9613823          	sd	s6,-112(sp)

0000000080008700 <i_8344>:
    80008700:	eb016503          	lwu	a0,-336(sp)

0000000080008704 <i_8345>:
    80008704:	00afcc63          	blt	t6,a0,8000871c <i_8351>

0000000080008708 <i_8346>:
    80008708:	0bf13023          	sd	t6,160(sp)

000000008000870c <i_8347>:
    8000870c:	18a11423          	sh	a0,392(sp)

0000000080008710 <i_8348>:
    80008710:	7a8ea3b7          	lui	t2,0x7a8ea

0000000080008714 <i_8349>:
    80008714:	07411b03          	lh	s6,116(sp)

0000000080008718 <i_8350>:
    80008718:	1b014b03          	lbu	s6,432(sp)

000000008000871c <i_8351>:
    8000871c:	016b7663          	bleu	s6,s6,80008728 <i_8354>

0000000080008720 <i_8352>:
    80008720:	02f3f463          	bleu	a5,t2,80008748 <i_8362>

0000000080008724 <i_8353>:
    80008724:	016b1663          	bne	s6,s6,80008730 <i_8356>

0000000080008728 <i_8354>:
    80008728:	00d38f33          	add	t5,t2,a3

000000008000872c <i_8355>:
    8000872c:	1c912623          	sw	s1,460(sp)

0000000080008730 <i_8356>:
    80008730:	001b161b          	slliw	a2,s6,0x1

0000000080008734 <i_8357>:
    80008734:	03ece93b          	remw	s2,s9,t5

0000000080008738 <i_8358>:
    80008738:	f5813403          	ld	s0,-168(sp)

000000008000873c <i_8359>:
    8000873c:	401c5c13          	srai	s8,s8,0x1

0000000080008740 <i_8360>:
    80008740:	036645bb          	divw	a1,a2,s6

0000000080008744 <i_8361>:
    80008744:	00000013          	nop

0000000080008748 <i_8362>:
    80008748:	14b14983          	lbu	s3,331(sp)

000000008000874c <i_8363>:
    8000874c:	00c47933          	and	s2,s0,a2

0000000080008750 <i_8364>:
    80008750:	88a00b13          	li	s6,-1910

0000000080008754 <i_8365>:
    80008754:	89000c93          	li	s9,-1904

0000000080008758 <i_8366>:
    80008758:	f5212c23          	sw	s2,-168(sp)

000000008000875c <i_8367>:
    8000875c:	12812403          	lw	s0,296(sp)

0000000080008760 <i_8368>:
    80008760:	01245e63          	ble	s2,s0,8000877c <i_8374>

0000000080008764 <i_8369>:
    80008764:	00000013          	nop

0000000080008768 <i_8370>:
    80008768:	12312a23          	sw	gp,308(sp)

000000008000876c <i_8371>:
    8000876c:	001b0b13          	addi	s6,s6,1
    80008770:	ff9b64e3          	bltu	s6,s9,80008758 <i_8366>

0000000080008774 <i_8372>:
    80008774:	00882cb3          	slt	s9,a6,s0

0000000080008778 <i_8373>:
    80008778:	e9013023          	sd	a6,-384(sp)

000000008000877c <i_8374>:
    8000877c:	010ceb33          	or	s6,s9,a6

0000000080008780 <i_8375>:
    80008780:	00c12623          	sw	a2,12(sp)

0000000080008784 <i_8376>:
    80008784:	7b700813          	li	a6,1975

0000000080008788 <i_8377>:
    80008788:	7ca00613          	li	a2,1994

000000008000878c <i_8378>:
    8000878c:	00180813          	addi	a6,a6,1
    80008790:	ff065ee3          	ble	a6,a2,8000878c <i_8378>

0000000080008794 <i_8379>:
    80008794:	00000013          	nop

0000000080008798 <i_8380>:
    80008798:	1e013083          	ld	ra,480(sp)

000000008000879c <i_8381>:
    8000879c:	86500d93          	li	s11,-1947

00000000800087a0 <i_8382>:
    800087a0:	87300813          	li	a6,-1933

00000000800087a4 <i_8383>:
    800087a4:	e8910623          	sb	s1,-372(sp)

00000000800087a8 <i_8384>:
    800087a8:	00000013          	nop

00000000800087ac <i_8385>:
    800087ac:	78600493          	li	s1,1926

00000000800087b0 <i_8386>:
    800087b0:	79100a13          	li	s4,1937

00000000800087b4 <i_8387>:
    800087b4:	e9c16203          	lwu	tp,-356(sp)

00000000800087b8 <i_8388>:
    800087b8:	0b416e03          	lwu	t3,180(sp)

00000000800087bc <i_8389>:
    800087bc:	034a063b          	mulw	a2,s4,s4

00000000800087c0 <i_8390>:
    800087c0:	1c412623          	sw	tp,460(sp)

00000000800087c4 <i_8391>:
    800087c4:	00325213          	srli	tp,tp,0x3

00000000800087c8 <i_8392>:
    800087c8:	1da11023          	sh	s10,448(sp)

00000000800087cc <i_8393>:
    800087cc:	00148493          	addi	s1,s1,1 # cb1395e5 <_end+0x4b1291d1>
    800087d0:	ff44e2e3          	bltu	s1,s4,800087b4 <i_8387>

00000000800087d4 <i_8394>:
    800087d4:	e9f10623          	sb	t6,-372(sp)

00000000800087d8 <i_8395>:
    800087d8:	024e7fbb          	remuw	t6,t3,tp

00000000800087dc <i_8396>:
    800087dc:	001d8d93          	addi	s11,s11,1 # 504be659 <main-0x2fb419a7>
    800087e0:	fdb872e3          	bleu	s11,a6,800087a4 <i_8383>

00000000800087e4 <i_8397>:
    800087e4:	e3f13423          	sd	t6,-472(sp)

00000000800087e8 <i_8398>:
    800087e8:	01f20463          	beq	tp,t6,800087f0 <i_8400>

00000000800087ec <i_8399>:
    800087ec:	01200213          	li	tp,18

00000000800087f0 <i_8400>:
    800087f0:	004fd0bb          	srlw	ra,t6,tp

00000000800087f4 <i_8401>:
    800087f4:	02fcf263          	bleu	a5,s9,80008818 <i_8410>

00000000800087f8 <i_8402>:
    800087f8:	09416283          	lwu	t0,148(sp)

00000000800087fc <i_8403>:
    800087fc:	fb214583          	lbu	a1,-78(sp)

0000000080008800 <i_8404>:
    80008800:	2d858793          	addi	a5,a1,728

0000000080008804 <i_8405>:
    80008804:	002a9263          	bne	s5,sp,80008808 <i_8406>

0000000080008808 <i_8406>:
    80008808:	03ce0e3b          	mulw	t3,t3,t3

000000008000880c <i_8407>:
    8000880c:	10c12203          	lw	tp,268(sp)

0000000080008810 <i_8408>:
    80008810:	526b7c17          	auipc	s8,0x526b7

0000000080008814 <i_8409>:
    80008814:	005b7b33          	and	s6,s6,t0

0000000080008818 <i_8410>:
    80008818:	0b810903          	lb	s2,184(sp)

000000008000881c <i_8411>:
    8000881c:	00508a63          	beq	ra,t0,80008830 <i_8416>

0000000080008820 <i_8412>:
    80008820:	03f14903          	lbu	s2,63(sp)

0000000080008824 <i_8413>:
    80008824:	00bc7c63          	bleu	a1,s8,8000883c <i_8419>

0000000080008828 <i_8414>:
    80008828:	003f9913          	slli	s2,t6,0x3

000000008000882c <i_8415>:
    8000882c:	12511723          	sh	t0,302(sp)

0000000080008830 <i_8416>:
    80008830:	1c113c23          	sd	ra,472(sp)

0000000080008834 <i_8417>:
    80008834:	00115663          	ble	ra,sp,80008840 <i_8420>

0000000080008838 <i_8418>:
    80008838:	01626a63          	bltu	tp,s6,8000884c <i_8423>

000000008000883c <i_8419>:
    8000883c:	ff613c23          	sd	s6,-8(sp)

0000000080008840 <i_8420>:
    80008840:	032940bb          	divw	ra,s2,s2

0000000080008844 <i_8421>:
    80008844:	01294663          	blt	s2,s2,80008850 <i_8424>

0000000080008848 <i_8422>:
    80008848:	01a68a63          	beq	a3,s10,8000885c <i_8427>

000000008000884c <i_8423>:
    8000884c:	03213823          	sd	s2,48(sp)

0000000080008850 <i_8424>:
    80008850:	16415d03          	lhu	s10,356(sp)

0000000080008854 <i_8425>:
    80008854:	8f27cd13          	xori	s10,a5,-1806

0000000080008858 <i_8426>:
    80008858:	012d4e63          	blt	s10,s2,80008874 <i_8433>

000000008000885c <i_8427>:
    8000885c:	05816903          	lwu	s2,88(sp)

0000000080008860 <i_8428>:
    80008860:	ee110903          	lb	s2,-287(sp)

0000000080008864 <i_8429>:
    80008864:	e8016e83          	lwu	t4,-384(sp)

0000000080008868 <i_8430>:
    80008868:	e52103a3          	sb	s2,-441(sp)

000000008000886c <i_8431>:
    8000886c:	00000013          	nop

0000000080008870 <i_8432>:
    80008870:	0034d393          	srli	t2,s1,0x3

0000000080008874 <i_8433>:
    80008874:	00000013          	nop

0000000080008878 <i_8434>:
    80008878:	06813383          	ld	t2,104(sp)

000000008000887c <i_8435>:
    8000887c:	7c000493          	li	s1,1984

0000000080008880 <i_8436>:
    80008880:	7c700d13          	li	s10,1991

0000000080008884 <i_8437>:
    80008884:	00148493          	addi	s1,s1,1
    80008888:	fe9d5ee3          	ble	s1,s10,80008884 <i_8437>

000000008000888c <i_8438>:
    8000888c:	88908d1b          	addiw	s10,ra,-1911

0000000080008890 <i_8439>:
    80008890:	007eb1b3          	sltu	gp,t4,t2

0000000080008894 <i_8440>:
    80008894:	014d6263          	bltu	s10,s4,80008898 <i_8441>

0000000080008898 <i_8441>:
    80008898:	0010d29b          	srliw	t0,ra,0x1

000000008000889c <i_8442>:
    8000889c:	01a37263          	bleu	s10,t1,800088a0 <i_8443>

00000000800088a0 <i_8443>:
    800088a0:	01d00f93          	li	t6,29

00000000800088a4 <i_8444>:
    800088a4:	41f95bbb          	sraw	s7,s2,t6

00000000800088a8 <i_8445>:
    800088a8:	1f211323          	sh	s2,486(sp)

00000000800088ac <i_8446>:
    800088ac:	17d13c23          	sd	t4,376(sp)

00000000800088b0 <i_8447>:
    800088b0:	ea897913          	andi	s2,s2,-344

00000000800088b4 <i_8448>:
    800088b4:	1a016f83          	lwu	t6,416(sp)

00000000800088b8 <i_8449>:
    800088b8:	e5213c23          	sd	s2,-424(sp)

00000000800088bc <i_8450>:
    800088bc:	fd016983          	lwu	s3,-48(sp)

00000000800088c0 <i_8451>:
    800088c0:	01270663          	beq	a4,s2,800088cc <i_8454>

00000000800088c4 <i_8452>:
    800088c4:	ef712e23          	sw	s7,-260(sp)

00000000800088c8 <i_8453>:
    800088c8:	00c16803          	lwu	a6,12(sp)

00000000800088cc <i_8454>:
    800088cc:	03ffc063          	blt	t6,t6,800088ec <i_8462>

00000000800088d0 <i_8455>:
    800088d0:	e7211383          	lh	t2,-398(sp)

00000000800088d4 <i_8456>:
    800088d4:	00000013          	nop

00000000800088d8 <i_8457>:
    800088d8:	0c811f83          	lh	t6,200(sp)

00000000800088dc <i_8458>:
    800088dc:	0ff11123          	sh	t6,226(sp)

00000000800088e0 <i_8459>:
    800088e0:	00000013          	nop

00000000800088e4 <i_8460>:
    800088e4:	00412d83          	lw	s11,4(sp)

00000000800088e8 <i_8461>:
    800088e8:	01838c33          	add	s8,t2,s8

00000000800088ec <i_8462>:
    800088ec:	e1810d83          	lb	s11,-488(sp)

00000000800088f0 <i_8463>:
    800088f0:	18b14d83          	lbu	s11,395(sp)

00000000800088f4 <i_8464>:
    800088f4:	8ce00b93          	li	s7,-1842

00000000800088f8 <i_8465>:
    800088f8:	8d000a13          	li	s4,-1840

00000000800088fc <i_8466>:
    800088fc:	03842433          	mulhsu	s0,s0,s8

0000000080008900 <i_8467>:
    80008900:	03500913          	li	s2,53

0000000080008904 <i_8468>:
    80008904:	41265933          	sra	s2,a2,s2

0000000080008908 <i_8469>:
    80008908:	0d411e03          	lh	t3,212(sp)

000000008000890c <i_8470>:
    8000890c:	12813423          	sd	s0,296(sp)

0000000080008910 <i_8471>:
    80008910:	00000013          	nop

0000000080008914 <i_8472>:
    80008914:	9eec6813          	ori	a6,s8,-1554

0000000080008918 <i_8473>:
    80008918:	001b8b93          	addi	s7,s7,1
    8000891c:	ff7a70e3          	bleu	s7,s4,800088fc <i_8466>

0000000080008920 <i_8474>:
    80008920:	0048179b          	slliw	a5,a6,0x4

0000000080008924 <i_8475>:
    80008924:	01b7cc63          	blt	a5,s11,8000893c <i_8481>

0000000080008928 <i_8476>:
    80008928:	00b00813          	li	a6,11

000000008000892c <i_8477>:
    8000892c:	01081dbb          	sllw	s11,a6,a6

0000000080008930 <i_8478>:
    80008930:	3c41041b          	addiw	s0,sp,964

0000000080008934 <i_8479>:
    80008934:	ec813e03          	ld	t3,-312(sp)

0000000080008938 <i_8480>:
    80008938:	03f00b93          	li	s7,63

000000008000893c <i_8481>:
    8000893c:	017590b3          	sll	ra,a1,s7

0000000080008940 <i_8482>:
    80008940:	e7412c03          	lw	s8,-396(sp)

0000000080008944 <i_8483>:
    80008944:	0181c663          	blt	gp,s8,80008950 <i_8486>

0000000080008948 <i_8484>:
    80008948:	0177a933          	slt	s2,a5,s7

000000008000894c <i_8485>:
    8000894c:	0d416403          	lwu	s0,212(sp)

0000000080008950 <i_8486>:
    80008950:	03f14f03          	lbu	t5,63(sp)

0000000080008954 <i_8487>:
    80008954:	02314503          	lbu	a0,35(sp)

0000000080008958 <i_8488>:
    80008958:	0ab47c13          	andi	s8,s0,171

000000008000895c <i_8489>:
    8000895c:	1b010023          	sb	a6,416(sp)

0000000080008960 <i_8490>:
    80008960:	f8f10123          	sb	a5,-126(sp)

0000000080008964 <i_8491>:
    80008964:	0d816b83          	lwu	s7,216(sp)

0000000080008968 <i_8492>:
    80008968:	00600813          	li	a6,6

000000008000896c <i_8493>:
    8000896c:	01095a3b          	srlw	s4,s2,a6

0000000080008970 <i_8494>:
    80008970:	78f00593          	li	a1,1935

0000000080008974 <i_8495>:
    80008974:	79900993          	li	s3,1945

0000000080008978 <i_8496>:
    80008978:	00000013          	nop

000000008000897c <i_8497>:
    8000897c:	f6810d23          	sb	s0,-134(sp)

0000000080008980 <i_8498>:
    80008980:	002bdc93          	srli	s9,s7,0x2

0000000080008984 <i_8499>:
    80008984:	f9813f03          	ld	t5,-104(sp)

0000000080008988 <i_8500>:
    80008988:	00158593          	addi	a1,a1,1
    8000898c:	ff3594e3          	bne	a1,s3,80008974 <i_8495>

0000000080008990 <i_8501>:
    80008990:	9280fcb7          	lui	s9,0x9280f

0000000080008994 <i_8502>:
    80008994:	b7d6be13          	sltiu	t3,a3,-1155

0000000080008998 <i_8503>:
    80008998:	e90100a3          	sb	a6,-383(sp)

000000008000899c <i_8504>:
    8000899c:	019f6263          	bltu	t5,s9,800089a0 <i_8505>

00000000800089a0 <i_8505>:
    800089a0:	e9c12c23          	sw	t3,-360(sp)

00000000800089a4 <i_8506>:
    800089a4:	11510f03          	lb	t5,277(sp)

00000000800089a8 <i_8507>:
    800089a8:	01e54e63          	blt	a0,t5,800089c4 <i_8514>

00000000800089ac <i_8508>:
    800089ac:	00000013          	nop

00000000800089b0 <i_8509>:
    800089b0:	ea013c03          	ld	s8,-352(sp)

00000000800089b4 <i_8510>:
    800089b4:	01215c03          	lhu	s8,18(sp)

00000000800089b8 <i_8511>:
    800089b8:	0c711c23          	sh	t2,216(sp)

00000000800089bc <i_8512>:
    800089bc:	0bc16a03          	lwu	s4,188(sp)

00000000800089c0 <i_8513>:
    800089c0:	02f717b3          	mulh	a5,a4,a5

00000000800089c4 <i_8514>:
    800089c4:	00000013          	nop

00000000800089c8 <i_8515>:
    800089c8:	00000013          	nop

00000000800089cc <i_8516>:
    800089cc:	77500e13          	li	t3,1909

00000000800089d0 <i_8517>:
    800089d0:	77d00c93          	li	s9,1917

00000000800089d4 <i_8518>:
    800089d4:	f8414a03          	lbu	s4,-124(sp)

00000000800089d8 <i_8519>:
    800089d8:	16510783          	lb	a5,357(sp)

00000000800089dc <i_8520>:
    800089dc:	01495463          	ble	s4,s2,800089e4 <i_8522>

00000000800089e0 <i_8521>:
    800089e0:	dd630c37          	lui	s8,0xdd630

00000000800089e4 <i_8522>:
    800089e4:	e6012383          	lw	t2,-416(sp)

00000000800089e8 <i_8523>:
    800089e8:	02c3863b          	mulw	a2,t2,a2

00000000800089ec <i_8524>:
    800089ec:	00000013          	nop

00000000800089f0 <i_8525>:
    800089f0:	00c3cc63          	blt	t2,a2,80008a08 <i_8530>

00000000800089f4 <i_8526>:
    800089f4:	00000013          	nop

00000000800089f8 <i_8527>:
    800089f8:	001e0e13          	addi	t3,t3,1
    800089fc:	fdccdce3          	ble	t3,s9,800089d4 <i_8518>

0000000080008a00 <i_8528>:
    80008a00:	02c65063          	ble	a2,a2,80008a20 <i_8536>

0000000080008a04 <i_8529>:
    80008a04:	1c812383          	lw	t2,456(sp)

0000000080008a08 <i_8530>:
    80008a08:	7e17e813          	ori	a6,a5,2017

0000000080008a0c <i_8531>:
    80008a0c:	08712623          	sw	t2,140(sp)

0000000080008a10 <i_8532>:
    80008a10:	89d66093          	ori	ra,a2,-1891

0000000080008a14 <i_8533>:
    80008a14:	eac12c23          	sw	a2,-328(sp)

0000000080008a18 <i_8534>:
    80008a18:	03681b33          	mulh	s6,a6,s6

0000000080008a1c <i_8535>:
    80008a1c:	07a11f03          	lh	t5,122(sp)

0000000080008a20 <i_8536>:
    80008a20:	00367263          	bleu	gp,a2,80008a24 <i_8537>

0000000080008a24 <i_8537>:
    80008a24:	00164c63          	blt	a2,ra,80008a3c <i_8543>

0000000080008a28 <i_8538>:
    80008a28:	0ab10603          	lb	a2,171(sp)

0000000080008a2c <i_8539>:
    80008a2c:	0ec12c23          	sw	a2,248(sp)

0000000080008a30 <i_8540>:
    80008a30:	ff010c03          	lb	s8,-16(sp)

0000000080008a34 <i_8541>:
    80008a34:	00c104b3          	add	s1,sp,a2

0000000080008a38 <i_8542>:
    80008a38:	0be13823          	sd	t5,176(sp)

0000000080008a3c <i_8543>:
    80008a3c:	016b4463          	blt	s6,s6,80008a44 <i_8545>

0000000080008a40 <i_8544>:
    80008a40:	f6610383          	lb	t2,-154(sp)

0000000080008a44 <i_8545>:
    80008a44:	e1811c23          	sh	s8,-488(sp)

0000000080008a48 <i_8546>:
    80008a48:	f6011403          	lh	s0,-160(sp)

0000000080008a4c <i_8547>:
    80008a4c:	01300393          	li	t2,19

0000000080008a50 <i_8548>:
    80008a50:	007f1b3b          	sllw	s6,t5,t2

0000000080008a54 <i_8549>:
    80008a54:	0363e263          	bltu	t2,s6,80008a78 <i_8558>

0000000080008a58 <i_8550>:
    80008a58:	36e4c413          	xori	s0,s1,878

0000000080008a5c <i_8551>:
    80008a5c:	00841863          	bne	s0,s0,80008a6c <i_8555>

0000000080008a60 <i_8552>:
    80008a60:	02845b3b          	divuw	s6,s0,s0

0000000080008a64 <i_8553>:
    80008a64:	004cd19b          	srliw	gp,s9,0x4

0000000080008a68 <i_8554>:
    80008a68:	1e614b83          	lbu	s7,486(sp)

0000000080008a6c <i_8555>:
    80008a6c:	02700193          	li	gp,39

0000000080008a70 <i_8556>:
    80008a70:	003b12b3          	sll	t0,s6,gp

0000000080008a74 <i_8557>:
    80008a74:	00300613          	li	a2,3

0000000080008a78 <i_8558>:
    80008a78:	00c393b3          	sll	t2,t2,a2

0000000080008a7c <i_8559>:
    80008a7c:	0252c1bb          	divw	gp,t0,t0

0000000080008a80 <i_8560>:
    80008a80:	72a00413          	li	s0,1834

0000000080008a84 <i_8561>:
    80008a84:	73d00c93          	li	s9,1853

0000000080008a88 <i_8562>:
    80008a88:	1a514d03          	lbu	s10,421(sp)

0000000080008a8c <i_8563>:
    80008a8c:	00140413          	addi	s0,s0,1
    80008a90:	fe8cdce3          	ble	s0,s9,80008a88 <i_8562>

0000000080008a94 <i_8564>:
    80008a94:	98162313          	slti	t1,a2,-1663

0000000080008a98 <i_8565>:
    80008a98:	ee211b83          	lh	s7,-286(sp)

0000000080008a9c <i_8566>:
    80008a9c:	007de863          	bltu	s11,t2,80008aac <i_8570>

0000000080008aa0 <i_8567>:
    80008aa0:	00c83833          	sltu	a6,a6,a2

0000000080008aa4 <i_8568>:
    80008aa4:	ebe3f493          	andi	s1,t2,-322

0000000080008aa8 <i_8569>:
    80008aa8:	10e14303          	lbu	t1,270(sp)

0000000080008aac <i_8570>:
    80008aac:	0102de63          	ble	a6,t0,80008ac8 <i_8577>

0000000080008ab0 <i_8571>:
    80008ab0:	00c2fa63          	bleu	a2,t0,80008ac4 <i_8576>

0000000080008ab4 <i_8572>:
    80008ab4:	00948663          	beq	s1,s1,80008ac0 <i_8575>

0000000080008ab8 <i_8573>:
    80008ab8:	01300e93          	li	t4,19

0000000080008abc <i_8574>:
    80008abc:	41d4d2bb          	sraw	t0,s1,t4

0000000080008ac0 <i_8575>:
    80008ac0:	0bd10f83          	lb	t6,189(sp)

0000000080008ac4 <i_8576>:
    80008ac4:	007803b3          	add	t2,a6,t2

0000000080008ac8 <i_8577>:
    80008ac8:	035edebb          	divuw	t4,t4,s5

0000000080008acc <i_8578>:
    80008acc:	f8416903          	lwu	s2,-124(sp)

0000000080008ad0 <i_8579>:
    80008ad0:	037eabb3          	mulhsu	s7,t4,s7

0000000080008ad4 <i_8580>:
    80008ad4:	f7e14d03          	lbu	s10,-130(sp)

0000000080008ad8 <i_8581>:
    80008ad8:	01f96c63          	bltu	s2,t6,80008af0 <i_8587>

0000000080008adc <i_8582>:
    80008adc:	01dd0263          	beq	s10,t4,80008ae0 <i_8583>

0000000080008ae0 <i_8583>:
    80008ae0:	03d3f263          	bleu	t4,t2,80008b04 <i_8592>

0000000080008ae4 <i_8584>:
    80008ae4:	e5a12a23          	sw	s10,-428(sp)

0000000080008ae8 <i_8585>:
    80008ae8:	8b69091b          	addiw	s2,s2,-1866

0000000080008aec <i_8586>:
    80008aec:	03f96463          	bltu	s2,t6,80008b14 <i_8596>

0000000080008af0 <i_8587>:
    80008af0:	fe914d03          	lbu	s10,-23(sp)

0000000080008af4 <i_8588>:
    80008af4:	032beab3          	rem	s5,s7,s2

0000000080008af8 <i_8589>:
    80008af8:	ea615783          	lhu	a5,-346(sp)

0000000080008afc <i_8590>:
    80008afc:	e7b12823          	sw	s11,-400(sp)

0000000080008b00 <i_8591>:
    80008b00:	e4911023          	sh	s1,-448(sp)

0000000080008b04 <i_8592>:
    80008b04:	e6215d83          	lhu	s11,-414(sp)

0000000080008b08 <i_8593>:
    80008b08:	01e00a93          	li	s5,30

0000000080008b0c <i_8594>:
    80008b0c:	015d95bb          	sllw	a1,s11,s5

0000000080008b10 <i_8595>:
    80008b10:	17211d83          	lh	s11,370(sp)

0000000080008b14 <i_8596>:
    80008b14:	00000013          	nop

0000000080008b18 <i_8597>:
    80008b18:	00000013          	nop

0000000080008b1c <i_8598>:
    80008b1c:	7d400413          	li	s0,2004

0000000080008b20 <i_8599>:
    80008b20:	7d700613          	li	a2,2007

0000000080008b24 <i_8600>:
    80008b24:	00140413          	addi	s0,s0,1
    80008b28:	fec44ee3          	blt	s0,a2,80008b24 <i_8600>

0000000080008b2c <i_8601>:
    80008b2c:	0355af33          	mulhsu	t5,a1,s5

0000000080008b30 <i_8602>:
    80008b30:	03ef7f33          	remu	t5,t5,t5

0000000080008b34 <i_8603>:
    80008b34:	f3910203          	lb	tp,-199(sp)

0000000080008b38 <i_8604>:
    80008b38:	01f12423          	sw	t6,8(sp)

0000000080008b3c <i_8605>:
    80008b3c:	03ede0b3          	rem	ra,s11,t5

0000000080008b40 <i_8606>:
    80008b40:	02200213          	li	tp,34

0000000080008b44 <i_8607>:
    80008b44:	004ad533          	srl	a0,s5,tp

0000000080008b48 <i_8608>:
    80008b48:	00157233          	and	tp,a0,ra

0000000080008b4c <i_8609>:
    80008b4c:	16411023          	sh	tp,352(sp)

0000000080008b50 <i_8610>:
    80008b50:	efa11503          	lh	a0,-262(sp)

0000000080008b54 <i_8611>:
    80008b54:	e8f12023          	sw	a5,-384(sp)

0000000080008b58 <i_8612>:
    80008b58:	00200213          	li	tp,2

0000000080008b5c <i_8613>:
    80008b5c:	404dde3b          	sraw	t3,s11,tp

0000000080008b60 <i_8614>:
    80008b60:	01412503          	lw	a0,20(sp)

0000000080008b64 <i_8615>:
    80008b64:	00000013          	nop

0000000080008b68 <i_8616>:
    80008b68:	ed814e03          	lbu	t3,-296(sp)

0000000080008b6c <i_8617>:
    80008b6c:	87f00213          	li	tp,-1921

0000000080008b70 <i_8618>:
    80008b70:	89200513          	li	a0,-1902

0000000080008b74 <i_8619>:
    80008b74:	01810c23          	sb	s8,24(sp)

0000000080008b78 <i_8620>:
    80008b78:	02455e3b          	divuw	t3,a0,tp

0000000080008b7c <i_8621>:
    80008b7c:	00421a63          	bne	tp,tp,80008b90 <i_8625>

0000000080008b80 <i_8622>:
    80008b80:	00120213          	addi	tp,tp,1 # 1 <main-0x7fffffff>
    80008b84:	fea248e3          	blt	tp,a0,80008b74 <i_8619>

0000000080008b88 <i_8623>:
    80008b88:	ea013283          	ld	t0,-352(sp)

0000000080008b8c <i_8624>:
    80008b8c:	ed011203          	lh	tp,-304(sp)

0000000080008b90 <i_8625>:
    80008b90:	08e10203          	lb	tp,142(sp)

0000000080008b94 <i_8626>:
    80008b94:	14514383          	lbu	t2,325(sp)

0000000080008b98 <i_8627>:
    80008b98:	00800393          	li	t2,8

0000000080008b9c <i_8628>:
    80008b9c:	4072543b          	sraw	s0,tp,t2

0000000080008ba0 <i_8629>:
    80008ba0:	18511423          	sh	t0,392(sp)

0000000080008ba4 <i_8630>:
    80008ba4:	0173dc63          	ble	s7,t2,80008bbc <i_8636>

0000000080008ba8 <i_8631>:
    80008ba8:	027443bb          	divw	t2,s0,t2

0000000080008bac <i_8632>:
    80008bac:	db24039b          	addiw	t2,s0,-590

0000000080008bb0 <i_8633>:
    80008bb0:	18611903          	lh	s2,390(sp)

0000000080008bb4 <i_8634>:
    80008bb4:	1c013383          	ld	t2,448(sp)

0000000080008bb8 <i_8635>:
    80008bb8:	0273893b          	mulw	s2,t2,t2

0000000080008bbc <i_8636>:
    80008bbc:	032d8263          	beq	s11,s2,80008be0 <i_8645>

0000000080008bc0 <i_8637>:
    80008bc0:	ee710b23          	sb	t2,-266(sp)

0000000080008bc4 <i_8638>:
    80008bc4:	02195db3          	divu	s11,s2,ra

0000000080008bc8 <i_8639>:
    80008bc8:	7909039b          	addiw	t2,s2,1936

0000000080008bcc <i_8640>:
    80008bcc:	fd213823          	sd	s2,-48(sp)

0000000080008bd0 <i_8641>:
    80008bd0:	07677913          	andi	s2,a4,118

0000000080008bd4 <i_8642>:
    80008bd4:	08211b23          	sh	sp,150(sp)

0000000080008bd8 <i_8643>:
    80008bd8:	0072da63          	ble	t2,t0,80008bec <i_8648>

0000000080008bdc <i_8644>:
    80008bdc:	01bf8933          	add	s2,t6,s11

0000000080008be0 <i_8645>:
    80008be0:	11213c23          	sd	s2,280(sp)

0000000080008be4 <i_8646>:
    80008be4:	f0016303          	lwu	t1,-256(sp)

0000000080008be8 <i_8647>:
    80008be8:	1c810903          	lb	s2,456(sp)

0000000080008bec <i_8648>:
    80008bec:	006ef933          	and	s2,t4,t1

0000000080008bf0 <i_8649>:
    80008bf0:	0b213823          	sd	s2,176(sp)

0000000080008bf4 <i_8650>:
    80008bf4:	01246263          	bltu	s0,s2,80008bf8 <i_8651>

0000000080008bf8 <i_8651>:
    80008bf8:	fec16903          	lwu	s2,-20(sp)

0000000080008bfc <i_8652>:
    80008bfc:	03091063          	bne	s2,a6,80008c1c <i_8660>

0000000080008c00 <i_8653>:
    80008c00:	12710183          	lb	gp,295(sp)

0000000080008c04 <i_8654>:
    80008c04:	002b1b1b          	slliw	s6,s6,0x2

0000000080008c08 <i_8655>:
    80008c08:	00119213          	slli	tp,gp,0x1

0000000080008c0c <i_8656>:
    80008c0c:	ee611a23          	sh	t1,-268(sp)

0000000080008c10 <i_8657>:
    80008c10:	00413c23          	sd	tp,24(sp)

0000000080008c14 <i_8658>:
    80008c14:	f1810183          	lb	gp,-232(sp)

0000000080008c18 <i_8659>:
    80008c18:	02997233          	remu	tp,s2,s1

0000000080008c1c <i_8660>:
    80008c1c:	03220263          	beq	tp,s2,80008c40 <i_8669>

0000000080008c20 <i_8661>:
    80008c20:	0034949b          	slliw	s1,s1,0x3

0000000080008c24 <i_8662>:
    80008c24:	00320463          	beq	tp,gp,80008c2c <i_8664>

0000000080008c28 <i_8663>:
    80008c28:	f8714483          	lbu	s1,-121(sp)

0000000080008c2c <i_8664>:
    80008c2c:	02922fb3          	mulhsu	t6,tp,s1

0000000080008c30 <i_8665>:
    80008c30:	01700313          	li	t1,23

0000000080008c34 <i_8666>:
    80008c34:	006219b3          	sll	s3,tp,t1

0000000080008c38 <i_8667>:
    80008c38:	02635463          	ble	t1,t1,80008c60 <i_8677>

0000000080008c3c <i_8668>:
    80008c3c:	02833333          	mulhu	t1,t1,s0

0000000080008c40 <i_8669>:
    80008c40:	00000013          	nop

0000000080008c44 <i_8670>:
    80008c44:	f8813483          	ld	s1,-120(sp)

0000000080008c48 <i_8671>:
    80008c48:	0a310c03          	lb	s8,163(sp)

0000000080008c4c <i_8672>:
    80008c4c:	e7312023          	sw	s3,-416(sp)

0000000080008c50 <i_8673>:
    80008c50:	10613423          	sd	t1,264(sp)

0000000080008c54 <i_8674>:
    80008c54:	00000013          	nop

0000000080008c58 <i_8675>:
    80008c58:	00000013          	nop

0000000080008c5c <i_8676>:
    80008c5c:	00000013          	nop

0000000080008c60 <i_8677>:
    80008c60:	018f6533          	or	a0,t5,s8

0000000080008c64 <i_8678>:
    80008c64:	00e00613          	li	a2,14

0000000080008c68 <i_8679>:
    80008c68:	00c49b3b          	sllw	s6,s1,a2

0000000080008c6c <i_8680>:
    80008c6c:	77400193          	li	gp,1908

0000000080008c70 <i_8681>:
    80008c70:	77f00c93          	li	s9,1919

0000000080008c74 <i_8682>:
    80008c74:	00118193          	addi	gp,gp,1 # 298db001 <main-0x56724fff>
    80008c78:	fe3cdce3          	ble	gp,s9,80008c70 <i_8681>

0000000080008c7c <i_8683>:
    80008c7c:	010c0a63          	beq	s8,a6,80008c90 <i_8688>

0000000080008c80 <i_8684>:
    80008c80:	1a3b6813          	ori	a6,s6,419

0000000080008c84 <i_8685>:
    80008c84:	03657463          	bleu	s6,a0,80008cac <i_8695>

0000000080008c88 <i_8686>:
    80008c88:	02a4f7b3          	remu	a5,s1,a0

0000000080008c8c <i_8687>:
    80008c8c:	0ca12623          	sw	a0,204(sp)

0000000080008c90 <i_8688>:
    80008c90:	e4a11e23          	sh	a0,-420(sp)

0000000080008c94 <i_8689>:
    80008c94:	00c64263          	blt	a2,a2,80008c98 <i_8690>

0000000080008c98 <i_8690>:
    80008c98:	f8c16803          	lwu	a6,-116(sp)

0000000080008c9c <i_8691>:
    80008c9c:	f3416203          	lwu	tp,-204(sp)

0000000080008ca0 <i_8692>:
    80008ca0:	fc610623          	sb	t1,-52(sp)

0000000080008ca4 <i_8693>:
    80008ca4:	07c12e23          	sw	t3,124(sp)

0000000080008ca8 <i_8694>:
    80008ca8:	037525b3          	mulhsu	a1,a0,s7

0000000080008cac <i_8695>:
    80008cac:	13416203          	lwu	tp,308(sp)

0000000080008cb0 <i_8696>:
    80008cb0:	07e10783          	lb	a5,126(sp)

0000000080008cb4 <i_8697>:
    80008cb4:	fcf13423          	sd	a5,-56(sp)

0000000080008cb8 <i_8698>:
    80008cb8:	07c16c83          	lwu	s9,124(sp)

0000000080008cbc <i_8699>:
    80008cbc:	4046da1b          	sraiw	s4,a3,0x4

0000000080008cc0 <i_8700>:
    80008cc0:	00000013          	nop

0000000080008cc4 <i_8701>:
    80008cc4:	82e00613          	li	a2,-2002

0000000080008cc8 <i_8702>:
    80008cc8:	83f00913          	li	s2,-1985

0000000080008ccc <i_8703>:
    80008ccc:	02985263          	ble	s1,a6,80008cf0 <i_8712>

0000000080008cd0 <i_8704>:
    80008cd0:	01056fb3          	or	t6,a0,a6

0000000080008cd4 <i_8705>:
    80008cd4:	01986a63          	bltu	a6,s9,80008ce8 <i_8710>

0000000080008cd8 <i_8706>:
    80008cd8:	e3d14c03          	lbu	s8,-451(sp)

0000000080008cdc <i_8707>:
    80008cdc:	14f12623          	sw	a5,332(sp)

0000000080008ce0 <i_8708>:
    80008ce0:	00a60a63          	beq	a2,a0,80008cf4 <i_8713>

0000000080008ce4 <i_8709>:
    80008ce4:	e2013503          	ld	a0,-480(sp)

0000000080008ce8 <i_8710>:
    80008ce8:	a1252093          	slti	ra,a0,-1518

0000000080008cec <i_8711>:
    80008cec:	41550e33          	sub	t3,a0,s5

0000000080008cf0 <i_8712>:
    80008cf0:	1ad10083          	lb	ra,429(sp)

0000000080008cf4 <i_8713>:
    80008cf4:	f5b108a3          	sb	s11,-175(sp)

0000000080008cf8 <i_8714>:
    80008cf8:	0319ccb3          	div	s9,s3,a7

0000000080008cfc <i_8715>:
    80008cfc:	021354bb          	divuw	s1,t1,ra

0000000080008d00 <i_8716>:
    80008d00:	00160613          	addi	a2,a2,1
    80008d04:	fd2644e3          	blt	a2,s2,80008ccc <i_8703>

0000000080008d08 <i_8717>:
    80008d08:	18912623          	sw	s1,396(sp)

0000000080008d0c <i_8718>:
    80008d0c:	00cc9863          	bne	s9,a2,80008d1c <i_8722>

0000000080008d10 <i_8719>:
    80008d10:	ef815c03          	lhu	s8,-264(sp)

0000000080008d14 <i_8720>:
    80008d14:	f7812983          	lw	s3,-136(sp)

0000000080008d18 <i_8721>:
    80008d18:	009c1e63          	bne	s8,s1,80008d34 <i_8728>

0000000080008d1c <i_8722>:
    80008d1c:	35a56e13          	ori	t3,a0,858

0000000080008d20 <i_8723>:
    80008d20:	01ce5a63          	ble	t3,t3,80008d34 <i_8728>

0000000080008d24 <i_8724>:
    80008d24:	002c1193          	slli	gp,s8,0x2

0000000080008d28 <i_8725>:
    80008d28:	12f10623          	sb	a5,300(sp)

0000000080008d2c <i_8726>:
    80008d2c:	00813c03          	ld	s8,8(sp)

0000000080008d30 <i_8727>:
    80008d30:	01f00793          	li	a5,31

0000000080008d34 <i_8728>:
    80008d34:	00fc1e3b          	sllw	t3,s8,a5

0000000080008d38 <i_8729>:
    80008d38:	038e2c33          	mulhsu	s8,t3,s8

0000000080008d3c <i_8730>:
    80008d3c:	ff016a83          	lwu	s5,-16(sp)

0000000080008d40 <i_8731>:
    80008d40:	00fc0263          	beq	s8,a5,80008d44 <i_8732>

0000000080008d44 <i_8732>:
    80008d44:	01c79663          	bne	a5,t3,80008d50 <i_8735>

0000000080008d48 <i_8733>:
    80008d48:	19511523          	sh	s5,394(sp)

0000000080008d4c <i_8734>:
    80008d4c:	e1710ca3          	sb	s7,-487(sp)

0000000080008d50 <i_8735>:
    80008d50:	e6c16283          	lwu	t0,-404(sp)

0000000080008d54 <i_8736>:
    80008d54:	f8d11323          	sh	a3,-122(sp)

0000000080008d58 <i_8737>:
    80008d58:	01000293          	li	t0,16

0000000080008d5c <i_8738>:
    80008d5c:	405adbb3          	sra	s7,s5,t0

0000000080008d60 <i_8739>:
    80008d60:	0372c0b3          	div	ra,t0,s7

0000000080008d64 <i_8740>:
    80008d64:	0d816283          	lwu	t0,216(sp)

0000000080008d68 <i_8741>:
    80008d68:	0010c263          	blt	ra,ra,80008d6c <i_8742>

0000000080008d6c <i_8742>:
    80008d6c:	ea011983          	lh	s3,-352(sp)

0000000080008d70 <i_8743>:
    80008d70:	01508263          	beq	ra,s5,80008d74 <i_8744>

0000000080008d74 <i_8744>:
    80008d74:	15511f23          	sh	s5,350(sp)

0000000080008d78 <i_8745>:
    80008d78:	f4010a83          	lb	s5,-192(sp)

0000000080008d7c <i_8746>:
    80008d7c:	035ef7b3          	remu	a5,t4,s5

0000000080008d80 <i_8747>:
    80008d80:	16812023          	sw	s0,352(sp)

0000000080008d84 <i_8748>:
    80008d84:	00d74c63          	blt	a4,a3,80008d9c <i_8754>

0000000080008d88 <i_8749>:
    80008d88:	413306bb          	subw	a3,t1,s3

0000000080008d8c <i_8750>:
    80008d8c:	0130e463          	bltu	ra,s3,80008d94 <i_8752>

0000000080008d90 <i_8751>:
    80008d90:	0350d263          	ble	s5,ra,80008db4 <i_8760>

0000000080008d94 <i_8752>:
    80008d94:	0aa7f393          	andi	t2,a5,170

0000000080008d98 <i_8753>:
    80008d98:	0217d0bb          	divuw	ra,a5,ra

0000000080008d9c <i_8754>:
    80008d9c:	17816783          	lwu	a5,376(sp)

0000000080008da0 <i_8755>:
    80008da0:	1e816e03          	lwu	t3,488(sp)

0000000080008da4 <i_8756>:
    80008da4:	039cdcb3          	divu	s9,s9,s9

0000000080008da8 <i_8757>:
    80008da8:	027450bb          	divuw	ra,s0,t2

0000000080008dac <i_8758>:
    80008dac:	8b00a393          	slti	t2,ra,-1872

0000000080008db0 <i_8759>:
    80008db0:	e9811423          	sh	s8,-376(sp)

0000000080008db4 <i_8760>:
    80008db4:	00000013          	nop

0000000080008db8 <i_8761>:
    80008db8:	18c10383          	lb	t2,396(sp)

0000000080008dbc <i_8762>:
    80008dbc:	8a600c93          	li	s9,-1882

0000000080008dc0 <i_8763>:
    80008dc0:	8b500c13          	li	s8,-1867

0000000080008dc4 <i_8764>:
    80008dc4:	00c00493          	li	s1,12

0000000080008dc8 <i_8765>:
    80008dc8:	0090d0bb          	srlw	ra,ra,s1

0000000080008dcc <i_8766>:
    80008dcc:	0194da63          	ble	s9,s1,80008de0 <i_8771>

0000000080008dd0 <i_8767>:
    80008dd0:	00000013          	nop

0000000080008dd4 <i_8768>:
    80008dd4:	57b0f193          	andi	gp,ra,1403

0000000080008dd8 <i_8769>:
    80008dd8:	f5f10ca3          	sb	t6,-167(sp)

0000000080008ddc <i_8770>:
    80008ddc:	fd911123          	sh	s9,-62(sp)

0000000080008de0 <i_8771>:
    80008de0:	f550891b          	addiw	s2,ra,-171

0000000080008de4 <i_8772>:
    80008de4:	7cd08d1b          	addiw	s10,ra,1997

0000000080008de8 <i_8773>:
    80008de8:	001c8c93          	addi	s9,s9,1 # ffffffff9280f001 <_end+0xffffffff127febed>
    80008dec:	fd8c9ce3          	bne	s9,s8,80008dc4 <i_8764>

0000000080008df0 <i_8774>:
    80008df0:	00113423          	sd	ra,8(sp)

0000000080008df4 <i_8775>:
    80008df4:	fc615283          	lhu	t0,-58(sp)

0000000080008df8 <i_8776>:
    80008df8:	e4510aa3          	sb	t0,-427(sp)

0000000080008dfc <i_8777>:
    80008dfc:	021cebb3          	rem	s7,s9,ra

0000000080008e00 <i_8778>:
    80008e00:	05012c83          	lw	s9,80(sp)

0000000080008e04 <i_8779>:
    80008e04:	021d02bb          	mulw	t0,s10,ra

0000000080008e08 <i_8780>:
    80008e08:	4032551b          	sraiw	a0,tp,0x3

0000000080008e0c <i_8781>:
    80008e0c:	3db2e913          	ori	s2,t0,987

0000000080008e10 <i_8782>:
    80008e10:	0021929b          	slliw	t0,gp,0x2

0000000080008e14 <i_8783>:
    80008e14:	e8511a23          	sh	t0,-364(sp)

0000000080008e18 <i_8784>:
    80008e18:	12411283          	lh	t0,292(sp)

0000000080008e1c <i_8785>:
    80008e1c:	00200513          	li	a0,2

0000000080008e20 <i_8786>:
    80008e20:	00a892b3          	sll	t0,a7,a0

0000000080008e24 <i_8787>:
    80008e24:	00554c63          	blt	a0,t0,80008e3c <i_8793>

0000000080008e28 <i_8788>:
    80008e28:	00a2fa63          	bleu	a0,t0,80008e3c <i_8793>

0000000080008e2c <i_8789>:
    80008e2c:	0052ea63          	bltu	t0,t0,80008e40 <i_8794>

0000000080008e30 <i_8790>:
    80008e30:	1ae15283          	lhu	t0,430(sp)

0000000080008e34 <i_8791>:
    80008e34:	01ce6e33          	or	t3,t3,t3

0000000080008e38 <i_8792>:
    80008e38:	19c16903          	lwu	s2,412(sp)

0000000080008e3c <i_8793>:
    80008e3c:	01c94e33          	xor	t3,s2,t3

0000000080008e40 <i_8794>:
    80008e40:	0f811603          	lh	a2,248(sp)

0000000080008e44 <i_8795>:
    80008e44:	02416303          	lwu	t1,36(sp)

0000000080008e48 <i_8796>:
    80008e48:	ebc103a3          	sb	t3,-345(sp)

0000000080008e4c <i_8797>:
    80008e4c:	1c412903          	lw	s2,452(sp)

0000000080008e50 <i_8798>:
    80008e50:	1c813d83          	ld	s11,456(sp)

0000000080008e54 <i_8799>:
    80008e54:	f5e11903          	lh	s2,-162(sp)

0000000080008e58 <i_8800>:
    80008e58:	e6815483          	lhu	s1,-408(sp)

0000000080008e5c <i_8801>:
    80008e5c:	f5b11a23          	sh	s11,-172(sp)

0000000080008e60 <i_8802>:
    80008e60:	03812783          	lw	a5,56(sp)

0000000080008e64 <i_8803>:
    80008e64:	00000013          	nop

0000000080008e68 <i_8804>:
    80008e68:	00792fb3          	slt	t6,s2,t2

0000000080008e6c <i_8805>:
    80008e6c:	82900913          	li	s2,-2007

0000000080008e70 <i_8806>:
    80008e70:	83200e13          	li	t3,-1998

0000000080008e74 <i_8807>:
    80008e74:	ec713c23          	sd	t2,-296(sp)

0000000080008e78 <i_8808>:
    80008e78:	e6812683          	lw	a3,-408(sp)

0000000080008e7c <i_8809>:
    80008e7c:	81d00393          	li	t2,-2019

0000000080008e80 <i_8810>:
    80008e80:	82400493          	li	s1,-2012

0000000080008e84 <i_8811>:
    80008e84:	00138393          	addi	t2,t2,1 # 7a8ea001 <main-0x5715fff>
    80008e88:	fe93cee3          	blt	t2,s1,80008e84 <i_8811>

0000000080008e8c <i_8812>:
    80008e8c:	00000013          	nop

0000000080008e90 <i_8813>:
    80008e90:	1b412d83          	lw	s11,436(sp)

0000000080008e94 <i_8814>:
    80008e94:	263f57b7          	lui	a5,0x263f5

0000000080008e98 <i_8815>:
    80008e98:	f4f11123          	sh	a5,-190(sp)

0000000080008e9c <i_8816>:
    80008e9c:	0a7107a3          	sb	t2,175(sp)

0000000080008ea0 <i_8817>:
    80008ea0:	fb011983          	lh	s3,-80(sp)

0000000080008ea4 <i_8818>:
    80008ea4:	00000013          	nop

0000000080008ea8 <i_8819>:
    80008ea8:	00700d93          	li	s11,7

0000000080008eac <i_8820>:
    80008eac:	41bfd6b3          	sra	a3,t6,s11

0000000080008eb0 <i_8821>:
    80008eb0:	e9611b83          	lh	s7,-362(sp)

0000000080008eb4 <i_8822>:
    80008eb4:	032bcbbb          	divw	s7,s7,s2

0000000080008eb8 <i_8823>:
    80008eb8:	00190913          	addi	s2,s2,1
    80008ebc:	fb2e7ce3          	bleu	s2,t3,80008e74 <i_8807>

0000000080008ec0 <i_8824>:
    80008ec0:	0127f463          	bleu	s2,a5,80008ec8 <i_8826>

0000000080008ec4 <i_8825>:
    80008ec4:	03994cb3          	div	s9,s2,s9

0000000080008ec8 <i_8826>:
    80008ec8:	e8111623          	sh	ra,-372(sp)

0000000080008ecc <i_8827>:
    80008ecc:	fcc108a3          	sb	a2,-47(sp)

0000000080008ed0 <i_8828>:
    80008ed0:	15811083          	lh	ra,344(sp)

0000000080008ed4 <i_8829>:
    80008ed4:	0160e463          	bltu	ra,s6,80008edc <i_8831>

0000000080008ed8 <i_8830>:
    80008ed8:	ec1103a3          	sb	ra,-313(sp)

0000000080008edc <i_8831>:
    80008edc:	12113823          	sd	ra,304(sp)

0000000080008ee0 <i_8832>:
    80008ee0:	e6e15b03          	lhu	s6,-402(sp)

0000000080008ee4 <i_8833>:
    80008ee4:	001b4a63          	blt	s6,ra,80008ef8 <i_8838>

0000000080008ee8 <i_8834>:
    80008ee8:	401b0cb3          	sub	s9,s6,ra

0000000080008eec <i_8835>:
    80008eec:	e18ca093          	slti	ra,s9,-488

0000000080008ef0 <i_8836>:
    80008ef0:	036b6463          	bltu	s6,s6,80008f18 <i_8846>

0000000080008ef4 <i_8837>:
    80008ef4:	09c16c03          	lwu	s8,156(sp)

0000000080008ef8 <i_8838>:
    80008ef8:	ff813b83          	ld	s7,-8(sp)

0000000080008efc <i_8839>:
    80008efc:	00000013          	nop

0000000080008f00 <i_8840>:
    80008f00:	f1e11403          	lh	s0,-226(sp)

0000000080008f04 <i_8841>:
    80008f04:	188101a3          	sb	s0,387(sp)

0000000080008f08 <i_8842>:
    80008f08:	02b12023          	sw	a1,32(sp)

0000000080008f0c <i_8843>:
    80008f0c:	18514a03          	lbu	s4,389(sp)

0000000080008f10 <i_8844>:
    80008f10:	00000013          	nop

0000000080008f14 <i_8845>:
    80008f14:	00000013          	nop

0000000080008f18 <i_8846>:
    80008f18:	00000013          	nop

0000000080008f1c <i_8847>:
    80008f1c:	0c814a03          	lbu	s4,200(sp)

0000000080008f20 <i_8848>:
    80008f20:	79700b93          	li	s7,1943

0000000080008f24 <i_8849>:
    80008f24:	7a500613          	li	a2,1957

0000000080008f28 <i_8850>:
    80008f28:	035c5263          	ble	s5,s8,80008f4c <i_8858>

0000000080008f2c <i_8851>:
    80008f2c:	41aa0dbb          	subw	s11,s4,s10

0000000080008f30 <i_8852>:
    80008f30:	001b8b93          	addi	s7,s7,1
    80008f34:	fecbcae3          	blt	s7,a2,80008f28 <i_8850>

0000000080008f38 <i_8853>:
    80008f38:	03447463          	bleu	s4,s0,80008f60 <i_8863>

0000000080008f3c <i_8854>:
    80008f3c:	014c7263          	bleu	s4,s8,80008f40 <i_8855>

0000000080008f40 <i_8855>:
    80008f40:	0027979b          	slliw	a5,a5,0x2

0000000080008f44 <i_8856>:
    80008f44:	e2811723          	sh	s0,-466(sp)

0000000080008f48 <i_8857>:
    80008f48:	1d413c23          	sd	s4,472(sp)

0000000080008f4c <i_8858>:
    80008f4c:	017400b3          	add	ra,s0,s7

0000000080008f50 <i_8859>:
    80008f50:	00c00f93          	li	t6,12

0000000080008f54 <i_8860>:
    80008f54:	41fbd83b          	sraw	a6,s7,t6

0000000080008f58 <i_8861>:
    80008f58:	faa15803          	lhu	a6,-86(sp)

0000000080008f5c <i_8862>:
    80008f5c:	00600813          	li	a6,6

0000000080008f60 <i_8863>:
    80008f60:	010fd83b          	srlw	a6,t6,a6

0000000080008f64 <i_8864>:
    80008f64:	0ac11a83          	lh	s5,172(sp)

0000000080008f68 <i_8865>:
    80008f68:	19714d83          	lbu	s11,407(sp)

0000000080008f6c <i_8866>:
    80008f6c:	030ae063          	bltu	s5,a6,80008f8c <i_8874>

0000000080008f70 <i_8867>:
    80008f70:	10011583          	lh	a1,256(sp)

0000000080008f74 <i_8868>:
    80008f74:	09f10203          	lb	tp,159(sp)

0000000080008f78 <i_8869>:
    80008f78:	00d00b13          	li	s6,13

0000000080008f7c <i_8870>:
    80008f7c:	4168583b          	sraw	a6,a6,s6

0000000080008f80 <i_8871>:
    80008f80:	d611b693          	sltiu	a3,gp,-671

0000000080008f84 <i_8872>:
    80008f84:	db8b7813          	andi	a6,s6,-584

0000000080008f88 <i_8873>:
    80008f88:	0c412483          	lw	s1,196(sp)

0000000080008f8c <i_8874>:
    80008f8c:	0166e663          	bltu	a3,s6,80008f98 <i_8877>

0000000080008f90 <i_8875>:
    80008f90:	1b0107a3          	sb	a6,431(sp)

0000000080008f94 <i_8876>:
    80008f94:	f5010723          	sb	a6,-178(sp)

0000000080008f98 <i_8877>:
    80008f98:	01080833          	add	a6,a6,a6

0000000080008f9c <i_8878>:
    80008f9c:	01085e63          	ble	a6,a6,80008fb8 <i_8885>

0000000080008fa0 <i_8879>:
    80008fa0:	00281f13          	slli	t5,a6,0x2

0000000080008fa4 <i_8880>:
    80008fa4:	16615303          	lhu	t1,358(sp)

0000000080008fa8 <i_8881>:
    80008fa8:	030f7463          	bleu	a6,t5,80008fd0 <i_8891>

0000000080008fac <i_8882>:
    80008fac:	16a15483          	lhu	s1,362(sp)

0000000080008fb0 <i_8883>:
    80008fb0:	0f812183          	lw	gp,248(sp)

0000000080008fb4 <i_8884>:
    80008fb4:	0e610503          	lb	a0,230(sp)

0000000080008fb8 <i_8885>:
    80008fb8:	17a11603          	lh	a2,378(sp)

0000000080008fbc <i_8886>:
    80008fbc:	03061263          	bne	a2,a6,80008fe0 <i_8895>

0000000080008fc0 <i_8887>:
    80008fc0:	00a7f633          	and	a2,a5,a0

0000000080008fc4 <i_8888>:
    80008fc4:	2375079b          	addiw	a5,a0,567

0000000080008fc8 <i_8889>:
    80008fc8:	ea811783          	lh	a5,-344(sp)

0000000080008fcc <i_8890>:
    80008fcc:	18c12383          	lw	t2,396(sp)

0000000080008fd0 <i_8891>:
    80008fd0:	f5f13823          	sd	t6,-176(sp)

0000000080008fd4 <i_8892>:
    80008fd4:	00400f93          	li	t6,4

0000000080008fd8 <i_8893>:
    80008fd8:	01fd9cbb          	sllw	s9,s11,t6

0000000080008fdc <i_8894>:
    80008fdc:	00000013          	nop

0000000080008fe0 <i_8895>:
    80008fe0:	00000013          	nop

0000000080008fe4 <i_8896>:
    80008fe4:	ff114783          	lbu	a5,-15(sp)

0000000080008fe8 <i_8897>:
    80008fe8:	77500913          	li	s2,1909

0000000080008fec <i_8898>:
    80008fec:	77800d93          	li	s11,1912

0000000080008ff0 <i_8899>:
    80008ff0:	00600313          	li	t1,6

0000000080008ff4 <i_8900>:
    80008ff4:	4069d2bb          	sraw	t0,s3,t1

0000000080008ff8 <i_8901>:
    80008ff8:	00190913          	addi	s2,s2,1
    80008ffc:	ffb94ae3          	blt	s2,s11,80008ff0 <i_8899>

0000000080009000 <i_8902>:
    80009000:	0393d063          	ble	s9,t2,80009020 <i_8910>

0000000080009004 <i_8903>:
    80009004:	02b315b3          	mulh	a1,t1,a1

0000000080009008 <i_8904>:
    80009008:	17816803          	lwu	a6,376(sp)

000000008000900c <i_8905>:
    8000900c:	7d43b337          	lui	t1,0x7d43b

0000000080009010 <i_8906>:
    80009010:	18310c83          	lb	s9,387(sp)

0000000080009014 <i_8907>:
    80009014:	e4816583          	lwu	a1,-440(sp)

0000000080009018 <i_8908>:
    80009018:	00b97933          	and	s2,s2,a1

000000008000901c <i_8909>:
    8000901c:	f9416903          	lwu	s2,-108(sp)

0000000080009020 <i_8910>:
    80009020:	e9211923          	sh	s2,-366(sp)

0000000080009024 <i_8911>:
    80009024:	fd812583          	lw	a1,-40(sp)

0000000080009028 <i_8912>:
    80009028:	7af00693          	li	a3,1967

000000008000902c <i_8913>:
    8000902c:	7b800313          	li	t1,1976

0000000080009030 <i_8914>:
    80009030:	fd210fa3          	sb	s2,-33(sp)

0000000080009034 <i_8915>:
    80009034:	f5012b03          	lw	s6,-176(sp)

0000000080009038 <i_8916>:
    80009038:	1d9102a3          	sb	s9,453(sp)

000000008000903c <i_8917>:
    8000903c:	00d34a63          	blt	t1,a3,80009050 <i_8921>

0000000080009040 <i_8918>:
    80009040:	00168693          	addi	a3,a3,1 # ffffffffbc104001 <_end+0xffffffff3c0f3bed>
    80009044:	fe66e6e3          	bltu	a3,t1,80009030 <i_8914>

0000000080009048 <i_8919>:
    80009048:	016e8633          	add	a2,t4,s6

000000008000904c <i_8920>:
    8000904c:	fcb13c23          	sd	a1,-40(sp)

0000000080009050 <i_8921>:
    80009050:	ec813383          	ld	t2,-312(sp)

0000000080009054 <i_8922>:
    80009054:	04c10723          	sb	a2,78(sp)

0000000080009058 <i_8923>:
    80009058:	f4414683          	lbu	a3,-188(sp)

000000008000905c <i_8924>:
    8000905c:	f8a15c83          	lhu	s9,-118(sp)

0000000080009060 <i_8925>:
    80009060:	0036d49b          	srliw	s1,a3,0x3

0000000080009064 <i_8926>:
    80009064:	009cca63          	blt	s9,s1,80009078 <i_8931>

0000000080009068 <i_8927>:
    80009068:	00dc8c63          	beq	s9,a3,80009080 <i_8933>

000000008000906c <i_8928>:
    8000906c:	f0913423          	sd	s1,-248(sp)

0000000080009070 <i_8929>:
    80009070:	e4913823          	sd	s1,-432(sp)

0000000080009074 <i_8930>:
    80009074:	e1911e23          	sh	s9,-484(sp)

0000000080009078 <i_8931>:
    80009078:	e9c12d03          	lw	s10,-356(sp)

000000008000907c <i_8932>:
    8000907c:	e3d10683          	lb	a3,-451(sp)

0000000080009080 <i_8933>:
    80009080:	e9015683          	lhu	a3,-368(sp)

0000000080009084 <i_8934>:
    80009084:	02dd6463          	bltu	s10,a3,800090ac <i_8944>

0000000080009088 <i_8935>:
    80009088:	01c15e83          	lhu	t4,28(sp)

000000008000908c <i_8936>:
    8000908c:	01416c83          	lwu	s9,20(sp)

0000000080009090 <i_8937>:
    80009090:	039fc463          	blt	t6,s9,800090b8 <i_8947>

0000000080009094 <i_8938>:
    80009094:	009cf263          	bleu	s1,s9,80009098 <i_8939>

0000000080009098 <i_8939>:
    80009098:	f1812b03          	lw	s6,-232(sp)

000000008000909c <i_8940>:
    8000909c:	06268913          	addi	s2,a3,98

00000000800090a0 <i_8941>:
    800090a0:	ff416e83          	lwu	t4,-12(sp)

00000000800090a4 <i_8942>:
    800090a4:	00000013          	nop

00000000800090a8 <i_8943>:
    800090a8:	18310283          	lb	t0,387(sp)

00000000800090ac <i_8944>:
    800090ac:	00dcba33          	sltu	s4,s9,a3

00000000800090b0 <i_8945>:
    800090b0:	0b412623          	sw	s4,172(sp)

00000000800090b4 <i_8946>:
    800090b4:	15c15c03          	lhu	s8,348(sp)

00000000800090b8 <i_8947>:
    800090b8:	00000013          	nop

00000000800090bc <i_8948>:
    800090bc:	407503bb          	subw	t2,a0,t2

00000000800090c0 <i_8949>:
    800090c0:	8a300f13          	li	t5,-1885

00000000800090c4 <i_8950>:
    800090c4:	8b300193          	li	gp,-1869

00000000800090c8 <i_8951>:
    800090c8:	fa713c23          	sd	t2,-72(sp)

00000000800090cc <i_8952>:
    800090cc:	03813a03          	ld	s4,56(sp)

00000000800090d0 <i_8953>:
    800090d0:	036c033b          	mulw	t1,s8,s6

00000000800090d4 <i_8954>:
    800090d4:	001f0f13          	addi	t5,t5,1
    800090d8:	ffe1d8e3          	ble	t5,gp,800090c8 <i_8951>

00000000800090dc <i_8955>:
    800090dc:	ef212423          	sw	s2,-280(sp)

00000000800090e0 <i_8956>:
    800090e0:	0031d863          	ble	gp,gp,800090f0 <i_8960>

00000000800090e4 <i_8957>:
    800090e4:	e9e11e83          	lh	t4,-354(sp)

00000000800090e8 <i_8958>:
    800090e8:	0d013383          	ld	t2,208(sp)

00000000800090ec <i_8959>:
    800090ec:	00536333          	or	t1,t1,t0

00000000800090f0 <i_8960>:
    800090f0:	01d12a23          	sw	t4,20(sp)

00000000800090f4 <i_8961>:
    800090f4:	0172c2b3          	xor	t0,t0,s7

00000000800090f8 <i_8962>:
    800090f8:	03d38b33          	mul	s6,t2,t4

00000000800090fc <i_8963>:
    800090fc:	006b0863          	beq	s6,t1,8000910c <i_8967>

0000000080009100 <i_8964>:
    80009100:	002e9f93          	slli	t6,t4,0x2

0000000080009104 <i_8965>:
    80009104:	0b410383          	lb	t2,180(sp)

0000000080009108 <i_8966>:
    80009108:	01500613          	li	a2,21

000000008000910c <i_8967>:
    8000910c:	00c29a3b          	sllw	s4,t0,a2

0000000080009110 <i_8968>:
    80009110:	01db7a63          	bleu	t4,s6,80009124 <i_8973>

0000000080009114 <i_8969>:
    80009114:	026e7063          	bleu	t1,t3,80009134 <i_8977>

0000000080009118 <i_8970>:
    80009118:	0cd10f23          	sb	a3,222(sp)

000000008000911c <i_8971>:
    8000911c:	f2416b83          	lwu	s7,-220(sp)

0000000080009120 <i_8972>:
    80009120:	fc013203          	ld	tp,-64(sp)

0000000080009124 <i_8973>:
    80009124:	00291293          	slli	t0,s2,0x2

0000000080009128 <i_8974>:
    80009128:	09713823          	sd	s7,144(sp)

000000008000912c <i_8975>:
    8000912c:	03a14903          	lbu	s2,58(sp)

0000000080009130 <i_8976>:
    80009130:	f810a917          	auipc	s2,0xf810a

0000000080009134 <i_8977>:
    80009134:	e6513423          	sd	t0,-408(sp)

0000000080009138 <i_8978>:
    80009138:	025bbf33          	mulhu	t5,s7,t0

000000008000913c <i_8979>:
    8000913c:	79200993          	li	s3,1938

0000000080009140 <i_8980>:
    80009140:	79800b93          	li	s7,1944

0000000080009144 <i_8981>:
    80009144:	00423433          	sltu	s0,tp,tp

0000000080009148 <i_8982>:
    80009148:	00600693          	li	a3,6

000000008000914c <i_8983>:
    8000914c:	00d251b3          	srl	gp,tp,a3

0000000080009150 <i_8984>:
    80009150:	18813d03          	ld	s10,392(sp)

0000000080009154 <i_8985>:
    80009154:	0029db13          	srli	s6,s3,0x2

0000000080009158 <i_8986>:
    80009158:	1b714083          	lbu	ra,439(sp)

000000008000915c <i_8987>:
    8000915c:	025b6663          	bltu	s6,t0,80009188 <i_8997>

0000000080009160 <i_8988>:
    80009160:	6b6c8a93          	addi	s5,s9,1718

0000000080009164 <i_8989>:
    80009164:	00000013          	nop

0000000080009168 <i_8990>:
    80009168:	00198993          	addi	s3,s3,1
    8000916c:	fd79cce3          	blt	s3,s7,80009144 <i_8981>

0000000080009170 <i_8991>:
    80009170:	01628663          	beq	t0,s6,8000917c <i_8994>

0000000080009174 <i_8992>:
    80009174:	001b2b33          	slt	s6,s6,ra

0000000080009178 <i_8993>:
    80009178:	01500393          	li	t2,21

000000008000917c <i_8994>:
    8000917c:	0078d53b          	srlw	a0,a7,t2

0000000080009180 <i_8995>:
    80009180:	0012e263          	bltu	t0,ra,80009184 <i_8996>

0000000080009184 <i_8996>:
    80009184:	001b73b3          	and	t2,s6,ra

0000000080009188 <i_8997>:
    80009188:	017b7bb3          	and	s7,s6,s7

000000008000918c <i_8998>:
    8000918c:	08f14583          	lbu	a1,143(sp)

0000000080009190 <i_8999>:
    80009190:	00000013          	nop

0000000080009194 <i_9000>:
    80009194:	f0412c03          	lw	s8,-252(sp)

0000000080009198 <i_9001>:
    80009198:	7a900a93          	li	s5,1961

000000008000919c <i_9002>:
    8000919c:	7b700593          	li	a1,1975

00000000800091a0 <i_9003>:
    800091a0:	734f7c13          	andi	s8,t5,1844

00000000800091a4 <i_9004>:
    800091a4:	00000013          	nop

00000000800091a8 <i_9005>:
    800091a8:	89700e13          	li	t3,-1897

00000000800091ac <i_9006>:
    800091ac:	89d00f13          	li	t5,-1891

00000000800091b0 <i_9007>:
    800091b0:	f77f3c13          	sltiu	s8,t5,-137

00000000800091b4 <i_9008>:
    800091b4:	36cf4e93          	xori	t4,t5,876

00000000800091b8 <i_9009>:
    800091b8:	ffe13423          	sd	t5,-24(sp)

00000000800091bc <i_9010>:
    800091bc:	ee016e83          	lwu	t4,-288(sp)

00000000800091c0 <i_9011>:
    800091c0:	00000013          	nop

00000000800091c4 <i_9012>:
    800091c4:	00420233          	add	tp,tp,tp

00000000800091c8 <i_9013>:
    800091c8:	001e0e13          	addi	t3,t3,1
    800091cc:	ffcf52e3          	ble	t3,t5,800091b0 <i_9007>

00000000800091d0 <i_9014>:
    800091d0:	fdc14f03          	lbu	t5,-36(sp)

00000000800091d4 <i_9015>:
    800091d4:	001a8a93          	addi	s5,s5,1
    800091d8:	fcba94e3          	bne	s5,a1,800091a0 <i_9003>

00000000800091dc <i_9016>:
    800091dc:	01812823          	sw	s8,16(sp)

00000000800091e0 <i_9017>:
    800091e0:	ecc13823          	sd	a2,-304(sp)

00000000800091e4 <i_9018>:
    800091e4:	0d416d03          	lwu	s10,212(sp)

00000000800091e8 <i_9019>:
    800091e8:	02423c33          	mulhu	s8,tp,tp

00000000800091ec <i_9020>:
    800091ec:	018d7863          	bleu	s8,s10,800091fc <i_9024>

00000000800091f0 <i_9021>:
    800091f0:	03cae263          	bltu	s5,t3,80009214 <i_9030>

00000000800091f4 <i_9022>:
    800091f4:	01cc6863          	bltu	s8,t3,80009204 <i_9026>

00000000800091f8 <i_9023>:
    800091f8:	1d4e4993          	xori	s3,t3,468

00000000800091fc <i_9024>:
    800091fc:	07013e83          	ld	t4,112(sp)

0000000080009200 <i_9025>:
    80009200:	402ed293          	srai	t0,t4,0x2

0000000080009204 <i_9026>:
    80009204:	ee813983          	ld	s3,-280(sp)

0000000080009208 <i_9027>:
    80009208:	03cc5c33          	divu	s8,s8,t3

000000008000920c <i_9028>:
    8000920c:	e5c16f83          	lwu	t6,-420(sp)

0000000080009210 <i_9029>:
    80009210:	03dd8263          	beq	s11,t4,80009234 <i_9038>

0000000080009214 <i_9030>:
    80009214:	f2e15c03          	lhu	s8,-210(sp)

0000000080009218 <i_9031>:
    80009218:	0019d41b          	srliw	s0,s3,0x1

000000008000921c <i_9032>:
    8000921c:	e2b14383          	lbu	t2,-469(sp)

0000000080009220 <i_9033>:
    80009220:	ee813803          	ld	a6,-280(sp)

0000000080009224 <i_9034>:
    80009224:	fdd12a23          	sw	t4,-44(sp)

0000000080009228 <i_9035>:
    80009228:	09a11a23          	sh	s10,148(sp)

000000008000922c <i_9036>:
    8000922c:	fe016903          	lwu	s2,-32(sp)

0000000080009230 <i_9037>:
    80009230:	03aefc3b          	remuw	s8,t4,s10

0000000080009234 <i_9038>:
    80009234:	1e012403          	lw	s0,480(sp)

0000000080009238 <i_9039>:
    80009238:	13f109a3          	sb	t6,307(sp)

000000008000923c <i_9040>:
    8000923c:	f0c10a83          	lb	s5,-244(sp)

0000000080009240 <i_9041>:
    80009240:	1b546413          	ori	s0,s0,437

0000000080009244 <i_9042>:
    80009244:	401a5a1b          	sraiw	s4,s4,0x1

0000000080009248 <i_9043>:
    80009248:	8a800a93          	li	s5,-1880

000000008000924c <i_9044>:
    8000924c:	8b800e93          	li	t4,-1864

0000000080009250 <i_9045>:
    80009250:	00000013          	nop

0000000080009254 <i_9046>:
    80009254:	032af93b          	remuw	s2,s5,s2

0000000080009258 <i_9047>:
    80009258:	76e00413          	li	s0,1902

000000008000925c <i_9048>:
    8000925c:	77e00613          	li	a2,1918

0000000080009260 <i_9049>:
    80009260:	04212423          	sw	sp,72(sp)

0000000080009264 <i_9050>:
    80009264:	00000013          	nop

0000000080009268 <i_9051>:
    80009268:	0d014a03          	lbu	s4,208(sp)

000000008000926c <i_9052>:
    8000926c:	014904b3          	add	s1,s2,s4

0000000080009270 <i_9053>:
    80009270:	19212623          	sw	s2,396(sp)

0000000080009274 <i_9054>:
    80009274:	00140413          	addi	s0,s0,1
    80009278:	fec444e3          	blt	s0,a2,80009260 <i_9049>

000000008000927c <i_9055>:
    8000927c:	01458e33          	add	t3,a1,s4

0000000080009280 <i_9056>:
    80009280:	001a8a93          	addi	s5,s5,1
    80009284:	fdda96e3          	bne	s5,t4,80009250 <i_9045>

0000000080009288 <i_9057>:
    80009288:	f3210523          	sb	s2,-214(sp)

000000008000928c <i_9058>:
    8000928c:	404fd913          	srai	s2,t6,0x4

0000000080009290 <i_9059>:
    80009290:	012e1663          	bne	t3,s2,8000929c <i_9062>

0000000080009294 <i_9060>:
    80009294:	e6013f83          	ld	t6,-416(sp)

0000000080009298 <i_9061>:
    80009298:	04e10f83          	lb	t6,78(sp)

000000008000929c <i_9062>:
    8000929c:	01ffc263          	blt	t6,t6,800092a0 <i_9063>

00000000800092a0 <i_9063>:
    800092a0:	0b212c23          	sw	s2,184(sp)

00000000800092a4 <i_9064>:
    800092a4:	01c50a63          	beq	a0,t3,800092b8 <i_9069>

00000000800092a8 <i_9065>:
    800092a8:	fec16503          	lwu	a0,-20(sp)

00000000800092ac <i_9066>:
    800092ac:	664b851b          	addiw	a0,s7,1636

00000000800092b0 <i_9067>:
    800092b0:	00e00b93          	li	s7,14

00000000800092b4 <i_9068>:
    800092b4:	0178d533          	srl	a0,a7,s7

00000000800092b8 <i_9069>:
    800092b8:	00000013          	nop

00000000800092bc <i_9070>:
    800092bc:	10812683          	lw	a3,264(sp)

00000000800092c0 <i_9071>:
    800092c0:	86100413          	li	s0,-1951

00000000800092c4 <i_9072>:
    800092c4:	87200c93          	li	s9,-1934

00000000800092c8 <i_9073>:
    800092c8:	06d12a23          	sw	a3,116(sp)

00000000800092cc <i_9074>:
    800092cc:	09b10f03          	lb	t5,155(sp)

00000000800092d0 <i_9075>:
    800092d0:	019be263          	bltu	s7,s9,800092d4 <i_9076>

00000000800092d4 <i_9076>:
    800092d4:	fd611683          	lh	a3,-42(sp)

00000000800092d8 <i_9077>:
    800092d8:	13412f03          	lw	t5,308(sp)

00000000800092dc <i_9078>:
    800092dc:	03eaff3b          	remuw	t5,s5,t5

00000000800092e0 <i_9079>:
    800092e0:	00000013          	nop

00000000800092e4 <i_9080>:
    800092e4:	07c12483          	lw	s1,124(sp)

00000000800092e8 <i_9081>:
    800092e8:	fec16b03          	lwu	s6,-20(sp)

00000000800092ec <i_9082>:
    800092ec:	0364cf33          	div	t5,s1,s6

00000000800092f0 <i_9083>:
    800092f0:	03612023          	sw	s6,32(sp)

00000000800092f4 <i_9084>:
    800092f4:	02998f3b          	mulw	t5,s3,s1

00000000800092f8 <i_9085>:
    800092f8:	00200f13          	li	t5,2

00000000800092fc <i_9086>:
    800092fc:	01e79f33          	sll	t5,a5,t5

0000000080009300 <i_9087>:
    80009300:	00140413          	addi	s0,s0,1
    80009304:	fd9462e3          	bltu	s0,s9,800092c8 <i_9073>

0000000080009308 <i_9088>:
    80009308:	18911f23          	sh	s1,414(sp)

000000008000930c <i_9089>:
    8000930c:	f4910123          	sb	s1,-190(sp)

0000000080009310 <i_9090>:
    80009310:	0c813783          	ld	a5,200(sp)

0000000080009314 <i_9091>:
    80009314:	40f10f33          	sub	t5,sp,a5

0000000080009318 <i_9092>:
    80009318:	01e7c7b3          	xor	a5,a5,t5

000000008000931c <i_9093>:
    8000931c:	18710fa3          	sb	t2,415(sp)

0000000080009320 <i_9094>:
    80009320:	f3e13023          	sd	t5,-224(sp)

0000000080009324 <i_9095>:
    80009324:	00f00793          	li	a5,15

0000000080009328 <i_9096>:
    80009328:	00f7df33          	srl	t5,a5,a5

000000008000932c <i_9097>:
    8000932c:	005d4e33          	xor	t3,s10,t0

0000000080009330 <i_9098>:
    80009330:	e8c10d03          	lb	s10,-372(sp)

0000000080009334 <i_9099>:
    80009334:	01a7ea63          	bltu	a5,s10,80009348 <i_9104>

0000000080009338 <i_9100>:
    80009338:	01cf4263          	blt	t5,t3,8000933c <i_9101>

000000008000933c <i_9101>:
    8000933c:	03ad3db3          	mulhu	s11,s10,s10

0000000080009340 <i_9102>:
    80009340:	03cdce33          	div	t3,s11,t3

0000000080009344 <i_9103>:
    80009344:	f5b10623          	sb	s11,-180(sp)

0000000080009348 <i_9104>:
    80009348:	01ae43b3          	xor	t2,t3,s10

000000008000934c <i_9105>:
    8000934c:	007b87b3          	add	a5,s7,t2

0000000080009350 <i_9106>:
    80009350:	02a10d83          	lb	s11,42(sp)

0000000080009354 <i_9107>:
    80009354:	01500793          	li	a5,21

0000000080009358 <i_9108>:
    80009358:	40fddb3b          	sraw	s6,s11,a5

000000008000935c <i_9109>:
    8000935c:	03610d3b          	mulw	s10,sp,s6

0000000080009360 <i_9110>:
    80009360:	e2f10683          	lb	a3,-465(sp)

0000000080009364 <i_9111>:
    80009364:	0a412c03          	lw	s8,164(sp)

0000000080009368 <i_9112>:
    80009368:	03cfc263          	blt	t6,t3,8000938c <i_9121>

000000008000936c <i_9113>:
    8000936c:	03b6f463          	bleu	s11,a3,80009394 <i_9123>

0000000080009370 <i_9114>:
    80009370:	02bc75b3          	remu	a1,s8,a1

0000000080009374 <i_9115>:
    80009374:	00000013          	nop

0000000080009378 <i_9116>:
    80009378:	e7c12583          	lw	a1,-388(sp)

000000008000937c <i_9117>:
    8000937c:	ebf13023          	sd	t6,-352(sp)

0000000080009380 <i_9118>:
    80009380:	00000013          	nop

0000000080009384 <i_9119>:
    80009384:	edc15683          	lhu	a3,-292(sp)

0000000080009388 <i_9120>:
    80009388:	00000013          	nop

000000008000938c <i_9121>:
    8000938c:	00000013          	nop

0000000080009390 <i_9122>:
    80009390:	faf10f03          	lb	t5,-81(sp)

0000000080009394 <i_9123>:
    80009394:	1d2c8c93          	addi	s9,s9,466

0000000080009398 <i_9124>:
    80009398:	09911b23          	sh	s9,150(sp)

000000008000939c <i_9125>:
    8000939c:	8a000793          	li	a5,-1888

00000000800093a0 <i_9126>:
    800093a0:	8aa00f93          	li	t6,-1878

00000000800093a4 <i_9127>:
    800093a4:	00178793          	addi	a5,a5,1 # 263f5001 <main-0x59c0afff>
    800093a8:	fff7eee3          	bltu	a5,t6,800093a4 <i_9127>

00000000800093ac <i_9128>:
    800093ac:	11813423          	sd	s8,264(sp)

00000000800093b0 <i_9129>:
    800093b0:	f2410283          	lb	t0,-220(sp)

00000000800093b4 <i_9130>:
    800093b4:	0cb11623          	sh	a1,204(sp)

00000000800093b8 <i_9131>:
    800093b8:	f4611e03          	lh	t3,-186(sp)

00000000800093bc <i_9132>:
    800093bc:	001e5e93          	srli	t4,t3,0x1

00000000800093c0 <i_9133>:
    800093c0:	1b310623          	sb	s3,428(sp)

00000000800093c4 <i_9134>:
    800093c4:	fcd11c23          	sh	a3,-40(sp)

00000000800093c8 <i_9135>:
    800093c8:	e7c16e03          	lwu	t3,-388(sp)

00000000800093cc <i_9136>:
    800093cc:	ed813023          	sd	s8,-320(sp)

00000000800093d0 <i_9137>:
    800093d0:	02de76bb          	remuw	a3,t3,a3

00000000800093d4 <i_9138>:
    800093d4:	03dec1b3          	div	gp,t4,t4

00000000800093d8 <i_9139>:
    800093d8:	02dadab3          	divu	s5,s5,a3

00000000800093dc <i_9140>:
    800093dc:	016e0b33          	add	s6,t3,s6

00000000800093e0 <i_9141>:
    800093e0:	004adc1b          	srliw	s8,s5,0x4

00000000800093e4 <i_9142>:
    800093e4:	6b3b4693          	xori	a3,s6,1715

00000000800093e8 <i_9143>:
    800093e8:	0186d663          	ble	s8,a3,800093f4 <i_9146>

00000000800093ec <i_9144>:
    800093ec:	00dc46b3          	xor	a3,s8,a3

00000000800093f0 <i_9145>:
    800093f0:	9fd6e693          	ori	a3,a3,-1539

00000000800093f4 <i_9146>:
    800093f4:	00d6fc63          	bleu	a3,a3,8000940c <i_9152>

00000000800093f8 <i_9147>:
    800093f8:	0b110903          	lb	s2,177(sp)

00000000800093fc <i_9148>:
    800093fc:	f2510903          	lb	s2,-219(sp)

0000000080009400 <i_9149>:
    80009400:	00400393          	li	t2,4

0000000080009404 <i_9150>:
    80009404:	007797bb          	sllw	a5,a5,t2

0000000080009408 <i_9151>:
    80009408:	0381e4b3          	rem	s1,gp,s8

000000008000940c <i_9152>:
    8000940c:	04e13823          	sd	a4,80(sp)

0000000080009410 <i_9153>:
    80009410:	0d211a23          	sh	s2,212(sp)

0000000080009414 <i_9154>:
    80009414:	009c7863          	bleu	s1,s8,80009424 <i_9158>

0000000080009418 <i_9155>:
    80009418:	00788e63          	beq	a7,t2,80009434 <i_9162>

000000008000941c <i_9156>:
    8000941c:	fa713023          	sd	t2,-96(sp)

0000000080009420 <i_9157>:
    80009420:	410684b3          	sub	s1,a3,a6

0000000080009424 <i_9158>:
    80009424:	02d94cb3          	div	s9,s2,a3

0000000080009428 <i_9159>:
    80009428:	ef816e03          	lwu	t3,-264(sp)

000000008000942c <i_9160>:
    8000942c:	f7611e03          	lh	t3,-138(sp)

0000000080009430 <i_9161>:
    80009430:	e3d14903          	lbu	s2,-451(sp)

0000000080009434 <i_9162>:
    80009434:	05213823          	sd	s2,80(sp)

0000000080009438 <i_9163>:
    80009438:	019e1263          	bne	t3,s9,8000943c <i_9164>

000000008000943c <i_9164>:
    8000943c:	039c8cbb          	mulw	s9,s9,s9

0000000080009440 <i_9165>:
    80009440:	039cc463          	blt	s9,s9,80009468 <i_9175>

0000000080009444 <i_9166>:
    80009444:	e2f10303          	lb	t1,-465(sp)

0000000080009448 <i_9167>:
    80009448:	06412c83          	lw	s9,100(sp)

000000008000944c <i_9168>:
    8000944c:	03937cbb          	remuw	s9,t1,s9

0000000080009450 <i_9169>:
    80009450:	0d812783          	lw	a5,216(sp)

0000000080009454 <i_9170>:
    80009454:	d907839b          	addiw	t2,a5,-624

0000000080009458 <i_9171>:
    80009458:	02fcc463          	blt	s9,a5,80009480 <i_9181>

000000008000945c <i_9172>:
    8000945c:	eff12a23          	sw	t6,-268(sp)

0000000080009460 <i_9173>:
    80009460:	db95859b          	addiw	a1,a1,-583

0000000080009464 <i_9174>:
    80009464:	01830a63          	beq	t1,s8,80009478 <i_9179>

0000000080009468 <i_9175>:
    80009468:	008cdc63          	ble	s0,s9,80009480 <i_9181>

000000008000946c <i_9176>:
    8000946c:	e3c12903          	lw	s2,-452(sp)

0000000080009470 <i_9177>:
    80009470:	032c8cb3          	mul	s9,s9,s2

0000000080009474 <i_9178>:
    80009474:	08b10523          	sb	a1,138(sp)

0000000080009478 <i_9179>:
    80009478:	0193fc63          	bleu	s9,t2,80009490 <i_9185>

000000008000947c <i_9180>:
    8000947c:	02f20a3b          	mulw	s4,tp,a5

0000000080009480 <i_9181>:
    80009480:	fc713023          	sd	t2,-64(sp)

0000000080009484 <i_9182>:
    80009484:	09911b23          	sh	s9,150(sp)

0000000080009488 <i_9183>:
    80009488:	e8815683          	lhu	a3,-376(sp)

000000008000948c <i_9184>:
    8000948c:	0cc12f83          	lw	t6,204(sp)

0000000080009490 <i_9185>:
    80009490:	0bc16583          	lwu	a1,188(sp)

0000000080009494 <i_9186>:
    80009494:	00000013          	nop

0000000080009498 <i_9187>:
    80009498:	73b00c93          	li	s9,1851

000000008000949c <i_9188>:
    8000949c:	74000e93          	li	t4,1856

00000000800094a0 <i_9189>:
    800094a0:	00635663          	ble	t1,t1,800094ac <i_9192>

00000000800094a4 <i_9190>:
    800094a4:	f6a14083          	lbu	ra,-150(sp)

00000000800094a8 <i_9191>:
    800094a8:	02d3f663          	bleu	a3,t2,800094d4 <i_9201>

00000000800094ac <i_9192>:
    800094ac:	01b00193          	li	gp,27

00000000800094b0 <i_9193>:
    800094b0:	003cd4bb          	srlw	s1,s9,gp

00000000800094b4 <i_9194>:
    800094b4:	001c8c93          	addi	s9,s9,1
    800094b8:	ff9ef4e3          	bleu	s9,t4,800094a0 <i_9189>

00000000800094bc <i_9195>:
    800094bc:	01200793          	li	a5,18

00000000800094c0 <i_9196>:
    800094c0:	00f492bb          	sllw	t0,s1,a5

00000000800094c4 <i_9197>:
    800094c4:	00d64ab3          	xor	s5,a2,a3

00000000800094c8 <i_9198>:
    800094c8:	0020919b          	slliw	gp,ra,0x2

00000000800094cc <i_9199>:
    800094cc:	ec615483          	lhu	s1,-314(sp)

00000000800094d0 <i_9200>:
    800094d0:	fb510603          	lb	a2,-75(sp)

00000000800094d4 <i_9201>:
    800094d4:	00c1e263          	bltu	gp,a2,800094d8 <i_9202>

00000000800094d8 <i_9202>:
    800094d8:	0190d863          	ble	s9,ra,800094e8 <i_9206>

00000000800094dc <i_9203>:
    800094dc:	00c00d13          	li	s10,12

00000000800094e0 <i_9204>:
    800094e0:	01a0dfbb          	srlw	t6,ra,s10

00000000800094e4 <i_9205>:
    800094e4:	f3416083          	lwu	ra,-204(sp)

00000000800094e8 <i_9206>:
    800094e8:	e3c11e83          	lh	t4,-452(sp)

00000000800094ec <i_9207>:
    800094ec:	c71d3f93          	sltiu	t6,s10,-911

00000000800094f0 <i_9208>:
    800094f0:	dda8c817          	auipc	a6,0xdda8c

00000000800094f4 <i_9209>:
    800094f4:	f8c12e83          	lw	t4,-116(sp)

00000000800094f8 <i_9210>:
    800094f8:	0e013903          	ld	s2,224(sp)

00000000800094fc <i_9211>:
    800094fc:	012621b3          	slt	gp,a2,s2

0000000080009500 <i_9212>:
    80009500:	01310603          	lb	a2,19(sp)

0000000080009504 <i_9213>:
    80009504:	1a415d83          	lhu	s11,420(sp)

0000000080009508 <i_9214>:
    80009508:	f4013183          	ld	gp,-192(sp)

000000008000950c <i_9215>:
    8000950c:	06813903          	ld	s2,104(sp)

0000000080009510 <i_9216>:
    80009510:	01b97c63          	bleu	s11,s2,80009528 <i_9222>

0000000080009514 <i_9217>:
    80009514:	403cdc9b          	sraiw	s9,s9,0x3

0000000080009518 <i_9218>:
    80009518:	19910383          	lb	t2,409(sp)

000000008000951c <i_9219>:
    8000951c:	00ccd263          	ble	a2,s9,80009520 <i_9220>

0000000080009520 <i_9220>:
    80009520:	e6c11323          	sh	a2,-410(sp)

0000000080009524 <i_9221>:
    80009524:	18815b03          	lhu	s6,392(sp)

0000000080009528 <i_9222>:
    80009528:	08713823          	sd	t2,144(sp)

000000008000952c <i_9223>:
    8000952c:	e3410b83          	lb	s7,-460(sp)

0000000080009530 <i_9224>:
    80009530:	00000013          	nop

0000000080009534 <i_9225>:
    80009534:	f5213c23          	sd	s2,-168(sp)

0000000080009538 <i_9226>:
    80009538:	81900493          	li	s1,-2023

000000008000953c <i_9227>:
    8000953c:	82500693          	li	a3,-2011

0000000080009540 <i_9228>:
    80009540:	007683b3          	add	t2,a3,t2

0000000080009544 <i_9229>:
    80009544:	027fc3bb          	divw	t2,t6,t2

0000000080009548 <i_9230>:
    80009548:	fc414383          	lbu	t2,-60(sp)

000000008000954c <i_9231>:
    8000954c:	00168913          	addi	s2,a3,1

0000000080009550 <i_9232>:
    80009550:	00796463          	bltu	s2,t2,80009558 <i_9234>

0000000080009554 <i_9233>:
    80009554:	f7013f83          	ld	t6,-144(sp)

0000000080009558 <i_9234>:
    80009558:	00dfebb3          	or	s7,t6,a3

000000008000955c <i_9235>:
    8000955c:	167103a3          	sb	t2,359(sp)

0000000080009560 <i_9236>:
    80009560:	f6416303          	lwu	t1,-156(sp)

0000000080009564 <i_9237>:
    80009564:	0173d863          	ble	s7,t2,80009574 <i_9241>

0000000080009568 <i_9238>:
    80009568:	00495863          	ble	tp,s2,80009578 <i_9242>

000000008000956c <i_9239>:
    8000956c:	02e14383          	lbu	t2,46(sp)

0000000080009570 <i_9240>:
    80009570:	08510f23          	sb	t0,158(sp)

0000000080009574 <i_9241>:
    80009574:	0126e263          	bltu	a3,s2,80009578 <i_9242>

0000000080009578 <i_9242>:
    80009578:	1ac11303          	lh	t1,428(sp)

000000008000957c <i_9243>:
    8000957c:	00663233          	sltu	tp,a2,t1

0000000080009580 <i_9244>:
    80009580:	00148493          	addi	s1,s1,1
    80009584:	fa96dee3          	ble	s1,a3,80009540 <i_9228>

0000000080009588 <i_9245>:
    80009588:	026fc333          	div	t1,t6,t1

000000008000958c <i_9246>:
    8000958c:	cc093b93          	sltiu	s7,s2,-832

0000000080009590 <i_9247>:
    80009590:	03235933          	divu	s2,t1,s2

0000000080009594 <i_9248>:
    80009594:	e00de913          	ori	s2,s11,-512

0000000080009598 <i_9249>:
    80009598:	12e11683          	lh	a3,302(sp)

000000008000959c <i_9250>:
    8000959c:	be130313          	addi	t1,t1,-1055 # 7d43abe1 <main-0x2bc541f>

00000000800095a0 <i_9251>:
    800095a0:	0324ee3b          	remw	t3,s1,s2

00000000800095a4 <i_9252>:
    800095a4:	0b213423          	sd	s2,168(sp)

00000000800095a8 <i_9253>:
    800095a8:	ebc14683          	lbu	a3,-324(sp)

00000000800095ac <i_9254>:
    800095ac:	402e5a9b          	sraiw	s5,t3,0x2

00000000800095b0 <i_9255>:
    800095b0:	f7513c23          	sd	s5,-136(sp)

00000000800095b4 <i_9256>:
    800095b4:	03c94fbb          	divw	t6,s2,t3

00000000800095b8 <i_9257>:
    800095b8:	e9e11f83          	lh	t6,-354(sp)

00000000800095bc <i_9258>:
    800095bc:	00000013          	nop

00000000800095c0 <i_9259>:
    800095c0:	c92a0f13          	addi	t5,s4,-878 # fe722e22 <_end+0x7e712a0e>

00000000800095c4 <i_9260>:
    800095c4:	7ac00a13          	li	s4,1964

00000000800095c8 <i_9261>:
    800095c8:	7b100f93          	li	t6,1969

00000000800095cc <i_9262>:
    800095cc:	00637463          	bleu	t1,t1,800095d4 <i_9264>

00000000800095d0 <i_9263>:
    800095d0:	01c37863          	bleu	t3,t1,800095e0 <i_9267>

00000000800095d4 <i_9264>:
    800095d4:	03e14e33          	div	t3,sp,t5

00000000800095d8 <i_9265>:
    800095d8:	01ce3f33          	sltu	t5,t3,t3

00000000800095dc <i_9266>:
    800095dc:	03ef2e33          	mulhsu	t3,t5,t5

00000000800095e0 <i_9267>:
    800095e0:	f9410e03          	lb	t3,-108(sp)

00000000800095e4 <i_9268>:
    800095e4:	003f5663          	ble	gp,t5,800095f0 <i_9271>

00000000800095e8 <i_9269>:
    800095e8:	0b811f03          	lh	t5,184(sp)

00000000800095ec <i_9270>:
    800095ec:	1d011e23          	sh	a6,476(sp)

00000000800095f0 <i_9271>:
    800095f0:	e5e11e23          	sh	t5,-420(sp)

00000000800095f4 <i_9272>:
    800095f4:	01400813          	li	a6,20

00000000800095f8 <i_9273>:
    800095f8:	010e5f33          	srl	t5,t3,a6

00000000800095fc <i_9274>:
    800095fc:	001a0a13          	addi	s4,s4,1
    80009600:	fd4f96e3          	bne	t6,s4,800095cc <i_9262>

0000000080009604 <i_9275>:
    80009604:	01811e83          	lh	t4,24(sp)

0000000080009608 <i_9276>:
    80009608:	e5c13823          	sd	t3,-432(sp)

000000008000960c <i_9277>:
    8000960c:	03ce1263          	bne	t3,t3,80009630 <i_9286>

0000000080009610 <i_9278>:
    80009610:	00151513          	slli	a0,a0,0x1

0000000080009614 <i_9279>:
    80009614:	0e010a03          	lb	s4,224(sp)

0000000080009618 <i_9280>:
    80009618:	023e6eb3          	rem	t4,t3,gp

000000008000961c <i_9281>:
    8000961c:	03ce0e33          	mul	t3,t3,t3

0000000080009620 <i_9282>:
    80009620:	f14108a3          	sb	s4,-239(sp)

0000000080009624 <i_9283>:
    80009624:	03ce6463          	bltu	t3,t3,8000964c <i_9293>

0000000080009628 <i_9284>:
    80009628:	03457e33          	remu	t3,a0,s4

000000008000962c <i_9285>:
    8000962c:	00800513          	li	a0,8

0000000080009630 <i_9286>:
    80009630:	00a2de3b          	srlw	t3,t0,a0

0000000080009634 <i_9287>:
    80009634:	003c1c13          	slli	s8,s8,0x3

0000000080009638 <i_9288>:
    80009638:	01cdf663          	bleu	t3,s11,80009644 <i_9291>

000000008000963c <i_9289>:
    8000963c:	014e6e63          	bltu	t3,s4,80009658 <i_9296>

0000000080009640 <i_9290>:
    80009640:	01456e33          	or	t3,a0,s4

0000000080009644 <i_9291>:
    80009644:	e2010903          	lb	s2,-480(sp)

0000000080009648 <i_9292>:
    80009648:	5b4a4f13          	xori	t5,s4,1460

000000008000964c <i_9293>:
    8000964c:	11813f03          	ld	t5,280(sp)

0000000080009650 <i_9294>:
    80009650:	412302b3          	sub	t0,t1,s2

0000000080009654 <i_9295>:
    80009654:	005286b3          	add	a3,t0,t0

0000000080009658 <i_9296>:
    80009658:	ee192e93          	slti	t4,s2,-287

000000008000965c <i_9297>:
    8000965c:	00000013          	nop

0000000080009660 <i_9298>:
    80009660:	8a300513          	li	a0,-1885

0000000080009664 <i_9299>:
    80009664:	8ac00a13          	li	s4,-1876

0000000080009668 <i_9300>:
    80009668:	15213423          	sd	s2,328(sp)

000000008000966c <i_9301>:
    8000966c:	01a00913          	li	s2,26

0000000080009670 <i_9302>:
    80009670:	412ed2bb          	sraw	t0,t4,s2

0000000080009674 <i_9303>:
    80009674:	73200613          	li	a2,1842

0000000080009678 <i_9304>:
    80009678:	74200313          	li	t1,1858

000000008000967c <i_9305>:
    8000967c:	00160613          	addi	a2,a2,1
    80009680:	fe666ce3          	bltu	a2,t1,80009678 <i_9304>

0000000080009684 <i_9306>:
    80009684:	01d2aeb3          	slt	t4,t0,t4

0000000080009688 <i_9307>:
    80009688:	001e9f13          	slli	t5,t4,0x1

000000008000968c <i_9308>:
    8000968c:	00000013          	nop

0000000080009690 <i_9309>:
    80009690:	00150513          	addi	a0,a0,1
    80009694:	fcaa5ae3          	ble	a0,s4,80009668 <i_9300>

0000000080009698 <i_9310>:
    80009698:	00000013          	nop

000000008000969c <i_9311>:
    8000969c:	1e016e03          	lwu	t3,480(sp)

00000000800096a0 <i_9312>:
    800096a0:	40485a93          	srai	s5,a6,0x4

00000000800096a4 <i_9313>:
    800096a4:	00700e13          	li	t3,7

00000000800096a8 <i_9314>:
    800096a8:	41cf57bb          	sraw	a5,t5,t3

00000000800096ac <i_9315>:
    800096ac:	415a8ab3          	sub	s5,s5,s5

00000000800096b0 <i_9316>:
    800096b0:	015f4c63          	blt	t5,s5,800096c8 <i_9322>

00000000800096b4 <i_9317>:
    800096b4:	0dc11023          	sh	t3,192(sp)

00000000800096b8 <i_9318>:
    800096b8:	01cec233          	xor	tp,t4,t3

00000000800096bc <i_9319>:
    800096bc:	01900493          	li	s1,25

00000000800096c0 <i_9320>:
    800096c0:	40975abb          	sraw	s5,a4,s1

00000000800096c4 <i_9321>:
    800096c4:	4094863b          	subw	a2,s1,s1

00000000800096c8 <i_9322>:
    800096c8:	0b511123          	sh	s5,162(sp)

00000000800096cc <i_9323>:
    800096cc:	00b49663          	bne	s1,a1,800096d8 <i_9326>

00000000800096d0 <i_9324>:
    800096d0:	002ad79b          	srliw	a5,s5,0x2

00000000800096d4 <i_9325>:
    800096d4:	f5416583          	lwu	a1,-172(sp)

00000000800096d8 <i_9326>:
    800096d8:	18f10ba3          	sb	a5,407(sp)

00000000800096dc <i_9327>:
    800096dc:	00b7fa63          	bleu	a1,a5,800096f0 <i_9332>

00000000800096e0 <i_9328>:
    800096e0:	f2f10d23          	sb	a5,-198(sp)

00000000800096e4 <i_9329>:
    800096e4:	03f5bb33          	mulhu	s6,a1,t6

00000000800096e8 <i_9330>:
    800096e8:	00000013          	nop

00000000800096ec <i_9331>:
    800096ec:	f3211223          	sh	s2,-220(sp)

00000000800096f0 <i_9332>:
    800096f0:	13416383          	lwu	t2,308(sp)

00000000800096f4 <i_9333>:
    800096f4:	03ff9233          	mulh	tp,t6,t6

00000000800096f8 <i_9334>:
    800096f8:	79200693          	li	a3,1938

00000000800096fc <i_9335>:
    800096fc:	79c00793          	li	a5,1948

0000000080009700 <i_9336>:
    80009700:	16012e83          	lw	t4,352(sp)

0000000080009704 <i_9337>:
    80009704:	edd102a3          	sb	t4,-315(sp)

0000000080009708 <i_9338>:
    80009708:	7d900f93          	li	t6,2009

000000008000970c <i_9339>:
    8000970c:	7dd00513          	li	a0,2013

0000000080009710 <i_9340>:
    80009710:	00000013          	nop

0000000080009714 <i_9341>:
    80009714:	ef212623          	sw	s2,-276(sp)

0000000080009718 <i_9342>:
    80009718:	001f8f93          	addi	t6,t6,1 # 15c6ed <main-0x7fea3913>
    8000971c:	fff55ae3          	ble	t6,a0,80009710 <i_9340>

0000000080009720 <i_9343>:
    80009720:	45d6821b          	addiw	tp,a3,1117

0000000080009724 <i_9344>:
    80009724:	00168693          	addi	a3,a3,1
    80009728:	fcf69ce3          	bne	a3,a5,80009700 <i_9336>

000000008000972c <i_9345>:
    8000972c:	0b412783          	lw	a5,180(sp)

0000000080009730 <i_9346>:
    80009730:	15c16f83          	lwu	t6,348(sp)

0000000080009734 <i_9347>:
    80009734:	00813603          	ld	a2,8(sp)

0000000080009738 <i_9348>:
    80009738:	1c410e23          	sb	tp,476(sp)

000000008000973c <i_9349>:
    8000973c:	84500f93          	li	t6,-1979

0000000080009740 <i_9350>:
    80009740:	85800793          	li	a5,-1960

0000000080009744 <i_9351>:
    80009744:	00000013          	nop

0000000080009748 <i_9352>:
    80009748:	00325213          	srli	tp,tp,0x3

000000008000974c <i_9353>:
    8000974c:	12a11203          	lh	tp,298(sp)

0000000080009750 <i_9354>:
    80009750:	e9514c83          	lbu	s9,-363(sp)

0000000080009754 <i_9355>:
    80009754:	00ccf263          	bleu	a2,s9,80009758 <i_9356>

0000000080009758 <i_9356>:
    80009758:	06413823          	sd	tp,112(sp)

000000008000975c <i_9357>:
    8000975c:	f0615c83          	lhu	s9,-250(sp)

0000000080009760 <i_9358>:
    80009760:	019cea63          	bltu	s9,s9,80009774 <i_9362>

0000000080009764 <i_9359>:
    80009764:	001f8f93          	addi	t6,t6,1
    80009768:	fcffeee3          	bltu	t6,a5,80009744 <i_9351>

000000008000976c <i_9360>:
    8000976c:	01b00213          	li	tp,27

0000000080009770 <i_9361>:
    80009770:	404252bb          	sraw	t0,tp,tp

0000000080009774 <i_9362>:
    80009774:	03926233          	rem	tp,tp,s9

0000000080009778 <i_9363>:
    80009778:	13911d23          	sh	s9,314(sp)

000000008000977c <i_9364>:
    8000977c:	02526cbb          	remw	s9,tp,t0

0000000080009780 <i_9365>:
    80009780:	f2211923          	sh	sp,-206(sp)

0000000080009784 <i_9366>:
    80009784:	e4511523          	sh	t0,-438(sp)

0000000080009788 <i_9367>:
    80009788:	1e215283          	lhu	t0,482(sp)

000000008000978c <i_9368>:
    8000978c:	004cf263          	bleu	tp,s9,80009790 <i_9369>

0000000080009790 <i_9369>:
    80009790:	12813283          	ld	t0,296(sp)

0000000080009794 <i_9370>:
    80009794:	01913c23          	sd	s9,24(sp)

0000000080009798 <i_9371>:
    80009798:	08512a23          	sw	t0,148(sp)

000000008000979c <i_9372>:
    8000979c:	1ed5e593          	ori	a1,a1,493

00000000800097a0 <i_9373>:
    800097a0:	e232fa93          	andi	s5,t0,-477

00000000800097a4 <i_9374>:
    800097a4:	e4e11f83          	lh	t6,-434(sp)

00000000800097a8 <i_9375>:
    800097a8:	0d512623          	sw	s5,204(sp)

00000000800097ac <i_9376>:
    800097ac:	0192d863          	ble	s9,t0,800097bc <i_9380>

00000000800097b0 <i_9377>:
    800097b0:	ec012283          	lw	t0,-320(sp)

00000000800097b4 <i_9378>:
    800097b4:	01fafa63          	bleu	t6,s5,800097c8 <i_9383>

00000000800097b8 <i_9379>:
    800097b8:	5650809b          	addiw	ra,ra,1381

00000000800097bc <i_9380>:
    800097bc:	035aefb3          	rem	t6,s5,s5

00000000800097c0 <i_9381>:
    800097c0:	035fa633          	mulhsu	a2,t6,s5

00000000800097c4 <i_9382>:
    800097c4:	fa813a83          	ld	s5,-88(sp)

00000000800097c8 <i_9383>:
    800097c8:	02c08063          	beq	ra,a2,800097e8 <i_9391>

00000000800097cc <i_9384>:
    800097cc:	0af14c83          	lbu	s9,175(sp)

00000000800097d0 <i_9385>:
    800097d0:	0383f3b3          	remu	t2,t2,s8

00000000800097d4 <i_9386>:
    800097d4:	019cc633          	xor	a2,s9,s9

00000000800097d8 <i_9387>:
    800097d8:	aaec8d93          	addi	s11,s9,-1362

00000000800097dc <i_9388>:
    800097dc:	e5411283          	lh	t0,-428(sp)

00000000800097e0 <i_9389>:
    800097e0:	f2512a23          	sw	t0,-204(sp)

00000000800097e4 <i_9390>:
    800097e4:	ee513423          	sd	t0,-280(sp)

00000000800097e8 <i_9391>:
    800097e8:	030ad83b          	divuw	a6,s5,a6

00000000800097ec <i_9392>:
    800097ec:	00000013          	nop

00000000800097f0 <i_9393>:
    800097f0:	88500c13          	li	s8,-1915

00000000800097f4 <i_9394>:
    800097f4:	89900c93          	li	s9,-1895

00000000800097f8 <i_9395>:
    800097f8:	001c0c13          	addi	s8,s8,1 # ffffffffdd630001 <_end+0xffffffff5d61fbed>
    800097fc:	ff9c1ee3          	bne	s8,s9,800097f8 <i_9395>

0000000080009800 <i_9396>:
    80009800:	00110ea3          	sb	ra,29(sp)

0000000080009804 <i_9397>:
    80009804:	03a00793          	li	a5,58

0000000080009808 <i_9398>:
    80009808:	40f85833          	sra	a6,a6,a5

000000008000980c <i_9399>:
    8000980c:	fa210c03          	lb	s8,-94(sp)

0000000080009810 <i_9400>:
    80009810:	15012023          	sw	a6,320(sp)

0000000080009814 <i_9401>:
    80009814:	00331693          	slli	a3,t1,0x3

0000000080009818 <i_9402>:
    80009818:	f30104a3          	sb	a6,-215(sp)

000000008000981c <i_9403>:
    8000981c:	1ac16f83          	lwu	t6,428(sp)

0000000080009820 <i_9404>:
    80009820:	00f34663          	blt	t1,a5,8000982c <i_9407>

0000000080009824 <i_9405>:
    80009824:	03000313          	li	t1,48

0000000080009828 <i_9406>:
    80009828:	4067dab3          	sra	s5,a5,t1

000000008000982c <i_9407>:
    8000982c:	002f9093          	slli	ra,t6,0x2

0000000080009830 <i_9408>:
    80009830:	0df12023          	sw	t6,192(sp)

0000000080009834 <i_9409>:
    80009834:	00aea533          	slt	a0,t4,a0

0000000080009838 <i_9410>:
    80009838:	02b00993          	li	s3,43

000000008000983c <i_9411>:
    8000983c:	413559b3          	sra	s3,a0,s3

0000000080009840 <i_9412>:
    80009840:	034af463          	bleu	s4,s5,80009868 <i_9422>

0000000080009844 <i_9413>:
    80009844:	01034533          	xor	a0,t1,a6

0000000080009848 <i_9414>:
    80009848:	01f35663          	ble	t6,t1,80009854 <i_9417>

000000008000984c <i_9415>:
    8000984c:	1b811e03          	lh	t3,440(sp)

0000000080009850 <i_9416>:
    80009850:	f9c11783          	lh	a5,-100(sp)

0000000080009854 <i_9417>:
    80009854:	7665e193          	ori	gp,a1,1894

0000000080009858 <i_9418>:
    80009858:	0039d593          	srli	a1,s3,0x3

000000008000985c <i_9419>:
    8000985c:	0379f9bb          	remuw	s3,s3,s7

0000000080009860 <i_9420>:
    80009860:	04a14983          	lbu	s3,74(sp)

0000000080009864 <i_9421>:
    80009864:	f9215983          	lhu	s3,-110(sp)

0000000080009868 <i_9422>:
    80009868:	f9812203          	lw	tp,-104(sp)

000000008000986c <i_9423>:
    8000986c:	1e214983          	lbu	s3,482(sp)

0000000080009870 <i_9424>:
    80009870:	7d600b93          	li	s7,2006

0000000080009874 <i_9425>:
    80009874:	7de00b13          	li	s6,2014

0000000080009878 <i_9426>:
    80009878:	09613423          	sd	s6,136(sp)

000000008000987c <i_9427>:
    8000987c:	4040de13          	srai	t3,ra,0x4

0000000080009880 <i_9428>:
    80009880:	11210e83          	lb	t4,274(sp)

0000000080009884 <i_9429>:
    80009884:	0339d463          	ble	s3,s3,800098ac <i_9438>

0000000080009888 <i_9430>:
    80009888:	06016983          	lwu	s3,96(sp)

000000008000988c <i_9431>:
    8000988c:	013d7463          	bleu	s3,s10,80009894 <i_9433>

0000000080009890 <i_9432>:
    80009890:	1a815e83          	lhu	t4,424(sp)

0000000080009894 <i_9433>:
    80009894:	fe812e83          	lw	t4,-24(sp)

0000000080009898 <i_9434>:
    80009898:	401d5d1b          	sraiw	s10,s10,0x1

000000008000989c <i_9435>:
    8000989c:	001b8b93          	addi	s7,s7,1
    800098a0:	fd7b5ce3          	ble	s7,s6,80009878 <i_9426>

00000000800098a4 <i_9436>:
    800098a4:	03de9263          	bne	t4,t4,800098c8 <i_9445>

00000000800098a8 <i_9437>:
    800098a8:	00400593          	li	a1,4

00000000800098ac <i_9438>:
    800098ac:	00bd5ebb          	srlw	t4,s10,a1

00000000800098b0 <i_9439>:
    800098b0:	fd812983          	lw	s3,-40(sp)

00000000800098b4 <i_9440>:
    800098b4:	0135e663          	bltu	a1,s3,800098c0 <i_9443>

00000000800098b8 <i_9441>:
    800098b8:	01f9a9b3          	slt	s3,s3,t6

00000000800098bc <i_9442>:
    800098bc:	fda12023          	sw	s10,-64(sp)

00000000800098c0 <i_9443>:
    800098c0:	0135e863          	bltu	a1,s3,800098d0 <i_9447>

00000000800098c4 <i_9444>:
    800098c4:	ffa11723          	sh	s10,-18(sp)

00000000800098c8 <i_9445>:
    800098c8:	01a20663          	beq	tp,s10,800098d4 <i_9448>

00000000800098cc <i_9446>:
    800098cc:	0045d093          	srli	ra,a1,0x4

00000000800098d0 <i_9447>:
    800098d0:	c55cc217          	auipc	tp,0xc55cc

00000000800098d4 <i_9448>:
    800098d4:	f6114783          	lbu	a5,-159(sp)

00000000800098d8 <i_9449>:
    800098d8:	fd012d83          	lw	s11,-48(sp)

00000000800098dc <i_9450>:
    800098dc:	f8412223          	sw	tp,-124(sp)

00000000800098e0 <i_9451>:
    800098e0:	f4c16203          	lwu	tp,-180(sp)

00000000800098e4 <i_9452>:
    800098e4:	0039d213          	srli	tp,s3,0x3

00000000800098e8 <i_9453>:
    800098e8:	1c514b03          	lbu	s6,453(sp)

00000000800098ec <i_9454>:
    800098ec:	fe411a23          	sh	tp,-12(sp)

00000000800098f0 <i_9455>:
    800098f0:	001b2533          	slt	a0,s6,ra

00000000800098f4 <i_9456>:
    800098f4:	3da9f493          	andi	s1,s3,986

00000000800098f8 <i_9457>:
    800098f8:	f4f10a23          	sb	a5,-172(sp)

00000000800098fc <i_9458>:
    800098fc:	03b7f463          	bleu	s11,a5,80009924 <i_9468>

0000000080009900 <i_9459>:
    80009900:	00425863          	ble	tp,tp,80009910 <i_9463>

0000000080009904 <i_9460>:
    80009904:	0d211a83          	lh	s5,210(sp)

0000000080009908 <i_9461>:
    80009908:	02b00493          	li	s1,43

000000008000990c <i_9462>:
    8000990c:	40925533          	sra	a0,tp,s1

0000000080009910 <i_9463>:
    80009910:	403b5813          	srai	a6,s6,0x3

0000000080009914 <i_9464>:
    80009914:	05812803          	lw	a6,88(sp)

0000000080009918 <i_9465>:
    80009918:	e6411523          	sh	tp,-406(sp)

000000008000991c <i_9466>:
    8000991c:	035474bb          	remuw	s1,s0,s5

0000000080009920 <i_9467>:
    80009920:	00000013          	nop

0000000080009924 <i_9468>:
    80009924:	0297e7b3          	rem	a5,a5,s1

0000000080009928 <i_9469>:
    80009928:	fa010503          	lb	a0,-96(sp)

000000008000992c <i_9470>:
    8000992c:	76000213          	li	tp,1888

0000000080009930 <i_9471>:
    80009930:	76400413          	li	s0,1892

0000000080009934 <i_9472>:
    80009934:	05a14803          	lbu	a6,90(sp)

0000000080009938 <i_9473>:
    80009938:	14f4e7b7          	lui	a5,0x14f4e

000000008000993c <i_9474>:
    8000993c:	0c412503          	lw	a0,196(sp)

0000000080009940 <i_9475>:
    80009940:	07013283          	ld	t0,112(sp)

0000000080009944 <i_9476>:
    80009944:	00000013          	nop

0000000080009948 <i_9477>:
    80009948:	fb510923          	sb	s5,-78(sp)

000000008000994c <i_9478>:
    8000994c:	0251c263          	blt	gp,t0,80009970 <i_9486>

0000000080009950 <i_9479>:
    80009950:	00928833          	add	a6,t0,s1

0000000080009954 <i_9480>:
    80009954:	9e350313          	addi	t1,a0,-1565

0000000080009958 <i_9481>:
    80009958:	00100313          	li	t1,1

000000008000995c <i_9482>:
    8000995c:	006092b3          	sll	t0,ra,t1

0000000080009960 <i_9483>:
    80009960:	00120213          	addi	tp,tp,1 # 455d58d1 <main-0x3aa2a72f>
    80009964:	fc8248e3          	blt	tp,s0,80009934 <i_9472>

0000000080009968 <i_9484>:
    80009968:	f5811503          	lh	a0,-168(sp)

000000008000996c <i_9485>:
    8000996c:	13016803          	lwu	a6,304(sp)

0000000080009970 <i_9486>:
    80009970:	00a81c63          	bne	a6,a0,80009988 <i_9492>

0000000080009974 <i_9487>:
    80009974:	0cc16303          	lwu	t1,204(sp)

0000000080009978 <i_9488>:
    80009978:	02612833          	mulhsu	a6,sp,t1

000000008000997c <i_9489>:
    8000997c:	0303763b          	remuw	a2,t1,a6

0000000080009980 <i_9490>:
    80009980:	00200513          	li	a0,2

0000000080009984 <i_9491>:
    80009984:	00af1333          	sll	t1,t5,a0

0000000080009988 <i_9492>:
    80009988:	00000013          	nop

000000008000998c <i_9493>:
    8000998c:	00000013          	nop

0000000080009990 <i_9494>:
    80009990:	88f00913          	li	s2,-1905

0000000080009994 <i_9495>:
    80009994:	89600193          	li	gp,-1898

0000000080009998 <i_9496>:
    80009998:	00000013          	nop

000000008000999c <i_9497>:
    8000999c:	a89f5217          	auipc	tp,0xa89f5

00000000800099a0 <i_9498>:
    800099a0:	77f00c13          	li	s8,1919

00000000800099a4 <i_9499>:
    800099a4:	78b00f13          	li	t5,1931

00000000800099a8 <i_9500>:
    800099a8:	0fc16503          	lwu	a0,252(sp)

00000000800099ac <i_9501>:
    800099ac:	001c0c13          	addi	s8,s8,1
    800099b0:	ff8f7ce3          	bleu	s8,t5,800099a8 <i_9500>

00000000800099b4 <i_9502>:
    800099b4:	ee215c83          	lhu	s9,-286(sp)

00000000800099b8 <i_9503>:
    800099b8:	00190913          	addi	s2,s2,1 # 78113131 <main-0x7eececf>
    800099bc:	fd21dee3          	ble	s2,gp,80009998 <i_9496>

00000000800099c0 <i_9504>:
    800099c0:	fe813283          	ld	t0,-24(sp)

00000000800099c4 <i_9505>:
    800099c4:	41df02bb          	subw	t0,t5,t4

00000000800099c8 <i_9506>:
    800099c8:	85000993          	li	s3,-1968

00000000800099cc <i_9507>:
    800099cc:	85a00f13          	li	t5,-1958

00000000800099d0 <i_9508>:
    800099d0:	e5614a83          	lbu	s5,-426(sp)

00000000800099d4 <i_9509>:
    800099d4:	403cdc9b          	sraiw	s9,s9,0x3

00000000800099d8 <i_9510>:
    800099d8:	9152a293          	slti	t0,t0,-1771

00000000800099dc <i_9511>:
    800099dc:	f6410da3          	sb	tp,-133(sp)

00000000800099e0 <i_9512>:
    800099e0:	e7510ca3          	sb	s5,-391(sp)

00000000800099e4 <i_9513>:
    800099e4:	00000013          	nop

00000000800099e8 <i_9514>:
    800099e8:	005c7533          	and	a0,s8,t0

00000000800099ec <i_9515>:
    800099ec:	08010283          	lb	t0,128(sp)

00000000800099f0 <i_9516>:
    800099f0:	ef810203          	lb	tp,-264(sp)

00000000800099f4 <i_9517>:
    800099f4:	00000013          	nop

00000000800099f8 <i_9518>:
    800099f8:	02528933          	mul	s2,t0,t0

00000000800099fc <i_9519>:
    800099fc:	06412283          	lw	t0,100(sp)

0000000080009a00 <i_9520>:
    80009a00:	12b10383          	lb	t2,299(sp)

0000000080009a04 <i_9521>:
    80009a04:	00198993          	addi	s3,s3,1
    80009a08:	fde9c4e3          	blt	s3,t5,800099d0 <i_9508>

0000000080009a0c <i_9522>:
    80009a0c:	11213823          	sd	s2,272(sp)

0000000080009a10 <i_9523>:
    80009a10:	02516463          	bltu	sp,t0,80009a38 <i_9533>

0000000080009a14 <i_9524>:
    80009a14:	02595463          	ble	t0,s2,80009a3c <i_9534>

0000000080009a18 <i_9525>:
    80009a18:	4043d21b          	sraiw	tp,t2,0x4

0000000080009a1c <i_9526>:
    80009a1c:	f2411423          	sh	tp,-216(sp)

0000000080009a20 <i_9527>:
    80009a20:	0042d663          	ble	tp,t0,80009a2c <i_9530>

0000000080009a24 <i_9528>:
    80009a24:	0322e263          	bltu	t0,s2,80009a48 <i_9537>

0000000080009a28 <i_9529>:
    80009a28:	0273f3bb          	remuw	t2,t2,t2

0000000080009a2c <i_9530>:
    80009a2c:	f3d13023          	sd	t4,-224(sp)

0000000080009a30 <i_9531>:
    80009a30:	f0914403          	lbu	s0,-247(sp)

0000000080009a34 <i_9532>:
    80009a34:	00725663          	ble	t2,tp,80009a40 <i_9535>

0000000080009a38 <i_9533>:
    80009a38:	f2b10503          	lb	a0,-213(sp)

0000000080009a3c <i_9534>:
    80009a3c:	00a3c463          	blt	t2,a0,80009a44 <i_9536>

0000000080009a40 <i_9535>:
    80009a40:	12b10203          	lb	tp,299(sp)

0000000080009a44 <i_9536>:
    80009a44:	03355463          	ble	s3,a0,80009a6c <i_9546>

0000000080009a48 <i_9537>:
    80009a48:	90557393          	andi	t2,a0,-1787

0000000080009a4c <i_9538>:
    80009a4c:	02215183          	lhu	gp,34(sp)

0000000080009a50 <i_9539>:
    80009a50:	09411483          	lh	s1,148(sp)

0000000080009a54 <i_9540>:
    80009a54:	f4d11423          	sh	a3,-184(sp)

0000000080009a58 <i_9541>:
    80009a58:	03e11183          	lh	gp,62(sp)

0000000080009a5c <i_9542>:
    80009a5c:	4030d093          	srai	ra,ra,0x3

0000000080009a60 <i_9543>:
    80009a60:	40dd06bb          	subw	a3,s10,a3

0000000080009a64 <i_9544>:
    80009a64:	f6016683          	lwu	a3,-160(sp)

0000000080009a68 <i_9545>:
    80009a68:	0011c663          	blt	gp,ra,80009a74 <i_9548>

0000000080009a6c <i_9546>:
    80009a6c:	4010de9b          	sraiw	t4,ra,0x1

0000000080009a70 <i_9547>:
    80009a70:	00d0fa63          	bleu	a3,ra,80009a84 <i_9552>

0000000080009a74 <i_9548>:
    80009a74:	00412783          	lw	a5,4(sp)

0000000080009a78 <i_9549>:
    80009a78:	00f1e4b3          	or	s1,gp,a5

0000000080009a7c <i_9550>:
    80009a7c:	13011683          	lh	a3,304(sp)

0000000080009a80 <i_9551>:
    80009a80:	00968463          	beq	a3,s1,80009a88 <i_9553>

0000000080009a84 <i_9552>:
    80009a84:	00d4e6b3          	or	a3,s1,a3

0000000080009a88 <i_9553>:
    80009a88:	00d11723          	sh	a3,14(sp)

0000000080009a8c <i_9554>:
    80009a8c:	eb016483          	lwu	s1,-336(sp)

0000000080009a90 <i_9555>:
    80009a90:	fd912223          	sw	s9,-60(sp)

0000000080009a94 <i_9556>:
    80009a94:	c8a6bd13          	sltiu	s10,a3,-886

0000000080009a98 <i_9557>:
    80009a98:	7ed00913          	li	s2,2029

0000000080009a9c <i_9558>:
    80009a9c:	7fd00493          	li	s1,2045

0000000080009aa0 <i_9559>:
    80009aa0:	17510683          	lb	a3,373(sp)

0000000080009aa4 <i_9560>:
    80009aa4:	fed11323          	sh	a3,-26(sp)

0000000080009aa8 <i_9561>:
    80009aa8:	04816b83          	lwu	s7,72(sp)

0000000080009aac <i_9562>:
    80009aac:	00d91263          	bne	s2,a3,80009ab0 <i_9563>

0000000080009ab0 <i_9563>:
    80009ab0:	00000013          	nop

0000000080009ab4 <i_9564>:
    80009ab4:	00990d33          	add	s10,s2,s1

0000000080009ab8 <i_9565>:
    80009ab8:	03e10a83          	lb	s5,62(sp)

0000000080009abc <i_9566>:
    80009abc:	00928e33          	add	t3,t0,s1

0000000080009ac0 <i_9567>:
    80009ac0:	15611383          	lh	t2,342(sp)

0000000080009ac4 <i_9568>:
    80009ac4:	02de0263          	beq	t3,a3,80009ae8 <i_9576>

0000000080009ac8 <i_9569>:
    80009ac8:	0293c2bb          	divw	t0,t2,s1

0000000080009acc <i_9570>:
    80009acc:	00190913          	addi	s2,s2,1
    80009ad0:	fd24d8e3          	ble	s2,s1,80009aa0 <i_9559>

0000000080009ad4 <i_9571>:
    80009ad4:	001e119b          	slliw	gp,t3,0x1

0000000080009ad8 <i_9572>:
    80009ad8:	a79e2e13          	slti	t3,t3,-1415

0000000080009adc <i_9573>:
    80009adc:	02e2ee3b          	remw	t3,t0,a4

0000000080009ae0 <i_9574>:
    80009ae0:	f3812283          	lw	t0,-200(sp)

0000000080009ae4 <i_9575>:
    80009ae4:	fe513423          	sd	t0,-24(sp)

0000000080009ae8 <i_9576>:
    80009ae8:	005e02b3          	add	t0,t3,t0

0000000080009aec <i_9577>:
    80009aec:	02a11f03          	lh	t5,42(sp)

0000000080009af0 <i_9578>:
    80009af0:	e5710283          	lb	t0,-425(sp)

0000000080009af4 <i_9579>:
    80009af4:	0032c263          	blt	t0,gp,80009af8 <i_9580>

0000000080009af8 <i_9580>:
    80009af8:	1a912423          	sw	s1,424(sp)

0000000080009afc <i_9581>:
    80009afc:	03c28263          	beq	t0,t3,80009b20 <i_9590>

0000000080009b00 <i_9582>:
    80009b00:	03c0ce33          	div	t3,ra,t3

0000000080009b04 <i_9583>:
    80009b04:	f9c12203          	lw	tp,-100(sp)

0000000080009b08 <i_9584>:
    80009b08:	19013f83          	ld	t6,400(sp)

0000000080009b0c <i_9585>:
    80009b0c:	f2512823          	sw	t0,-208(sp)

0000000080009b10 <i_9586>:
    80009b10:	a9370617          	auipc	a2,0xa9370

0000000080009b14 <i_9587>:
    80009b14:	f1f12823          	sw	t6,-240(sp)

0000000080009b18 <i_9588>:
    80009b18:	003ddf9b          	srliw	t6,s11,0x3

0000000080009b1c <i_9589>:
    80009b1c:	136cea13          	ori	s4,s9,310

0000000080009b20 <i_9590>:
    80009b20:	021a6463          	bltu	s4,ra,80009b48 <i_9600>

0000000080009b24 <i_9591>:
    80009b24:	e1c16483          	lwu	s1,-484(sp)

0000000080009b28 <i_9592>:
    80009b28:	14013d03          	ld	s10,320(sp)

0000000080009b2c <i_9593>:
    80009b2c:	00614903          	lbu	s2,6(sp)

0000000080009b30 <i_9594>:
    80009b30:	11812483          	lw	s1,280(sp)

0000000080009b34 <i_9595>:
    80009b34:	fba13423          	sd	s10,-88(sp)

0000000080009b38 <i_9596>:
    80009b38:	0ab10d03          	lb	s10,171(sp)

0000000080009b3c <i_9597>:
    80009b3c:	07416d03          	lwu	s10,116(sp)

0000000080009b40 <i_9598>:
    80009b40:	009d7933          	and	s2,s10,s1

0000000080009b44 <i_9599>:
    80009b44:	01297863          	bleu	s2,s2,80009b54 <i_9603>

0000000080009b48 <i_9600>:
    80009b48:	fda13c23          	sd	s10,-40(sp)

0000000080009b4c <i_9601>:
    80009b4c:	12c16283          	lwu	t0,300(sp)

0000000080009b50 <i_9602>:
    80009b50:	0e611e03          	lh	t3,230(sp)

0000000080009b54 <i_9603>:
    80009b54:	ebc13423          	sd	t3,-344(sp)

0000000080009b58 <i_9604>:
    80009b58:	e7214283          	lbu	t0,-398(sp)

0000000080009b5c <i_9605>:
    80009b5c:	88600d13          	li	s10,-1914

0000000080009b60 <i_9606>:
    80009b60:	89200913          	li	s2,-1902

0000000080009b64 <i_9607>:
    80009b64:	f7011283          	lh	t0,-144(sp)

0000000080009b68 <i_9608>:
    80009b68:	025e19b3          	mulh	s3,t3,t0

0000000080009b6c <i_9609>:
    80009b6c:	eee10423          	sb	a4,-280(sp)

0000000080009b70 <i_9610>:
    80009b70:	03f95063          	ble	t6,s2,80009b90 <i_9617>

0000000080009b74 <i_9611>:
    80009b74:	00700193          	li	gp,7

0000000080009b78 <i_9612>:
    80009b78:	003191bb          	sllw	gp,gp,gp

0000000080009b7c <i_9613>:
    80009b7c:	00000013          	nop

0000000080009b80 <i_9614>:
    80009b80:	001d0d13          	addi	s10,s10,1
    80009b84:	ff2d10e3          	bne	s10,s2,80009b64 <i_9607>

0000000080009b88 <i_9615>:
    80009b88:	e3013c03          	ld	s8,-464(sp)

0000000080009b8c <i_9616>:
    80009b8c:	01429e63          	bne	t0,s4,80009ba8 <i_9623>

0000000080009b90 <i_9617>:
    80009b90:	0045959b          	slliw	a1,a1,0x4

0000000080009b94 <i_9618>:
    80009b94:	0122fa63          	bleu	s2,t0,80009ba8 <i_9623>

0000000080009b98 <i_9619>:
    80009b98:	013fe463          	bltu	t6,s3,80009ba0 <i_9621>

0000000080009b9c <i_9620>:
    80009b9c:	038f9463          	bne	t6,s8,80009bc4 <i_9630>

0000000080009ba0 <i_9621>:
    80009ba0:	027fc063          	blt	t6,t2,80009bc0 <i_9629>

0000000080009ba4 <i_9622>:
    80009ba4:	fa012203          	lw	tp,-96(sp)

0000000080009ba8 <i_9623>:
    80009ba8:	0131da63          	ble	s3,gp,80009bbc <i_9628>

0000000080009bac <i_9624>:
    80009bac:	033e31b3          	mulhu	gp,t3,s3

0000000080009bb0 <i_9625>:
    80009bb0:	1a610283          	lb	t0,422(sp)

0000000080009bb4 <i_9626>:
    80009bb4:	08811803          	lh	a6,136(sp)

0000000080009bb8 <i_9627>:
    80009bb8:	0322fdb3          	remu	s11,t0,s2

0000000080009bbc <i_9628>:
    80009bbc:	02b91463          	bne	s2,a1,80009be4 <i_9638>

0000000080009bc0 <i_9629>:
    80009bc0:	e3f14283          	lbu	t0,-449(sp)

0000000080009bc4 <i_9630>:
    80009bc4:	03a14283          	lbu	t0,58(sp)

0000000080009bc8 <i_9631>:
    80009bc8:	17813f83          	ld	t6,376(sp)

0000000080009bcc <i_9632>:
    80009bcc:	fca11a83          	lh	s5,-54(sp)

0000000080009bd0 <i_9633>:
    80009bd0:	015fd463          	ble	s5,t6,80009bd8 <i_9635>

0000000080009bd4 <i_9634>:
    80009bd4:	04c14283          	lbu	t0,76(sp)

0000000080009bd8 <i_9635>:
    80009bd8:	ebc16a83          	lwu	s5,-324(sp)

0000000080009bdc <i_9636>:
    80009bdc:	00000013          	nop

0000000080009be0 <i_9637>:
    80009be0:	01500b13          	li	s6,21

0000000080009be4 <i_9638>:
    80009be4:	016292b3          	sll	t0,t0,s6

0000000080009be8 <i_9639>:
    80009be8:	016b7b33          	and	s6,s6,s6

0000000080009bec <i_9640>:
    80009bec:	8c700d93          	li	s11,-1849

0000000080009bf0 <i_9641>:
    80009bf0:	8cb00d13          	li	s10,-1845

0000000080009bf4 <i_9642>:
    80009bf4:	e7414503          	lbu	a0,-396(sp)

0000000080009bf8 <i_9643>:
    80009bf8:	02000993          	li	s3,32

0000000080009bfc <i_9644>:
    80009bfc:	013d1b33          	sll	s6,s10,s3

0000000080009c00 <i_9645>:
    80009c00:	00a98533          	add	a0,s3,a0

0000000080009c04 <i_9646>:
    80009c04:	fdb10523          	sb	s11,-54(sp)

0000000080009c08 <i_9647>:
    80009c08:	402b5b1b          	sraiw	s6,s6,0x2

0000000080009c0c <i_9648>:
    80009c0c:	e4c15b83          	lhu	s7,-436(sp)

0000000080009c10 <i_9649>:
    80009c10:	11214283          	lbu	t0,274(sp)

0000000080009c14 <i_9650>:
    80009c14:	001d8d93          	addi	s11,s11,1
    80009c18:	fdbd7ee3          	bleu	s11,s10,80009bf4 <i_9642>

0000000080009c1c <i_9651>:
    80009c1c:	65d78193          	addi	gp,a5,1629 # 14f4e65d <main-0x6b0b19a3>

0000000080009c20 <i_9652>:
    80009c20:	e7d10083          	lb	ra,-387(sp)

0000000080009c24 <i_9653>:
    80009c24:	11816303          	lwu	t1,280(sp)

0000000080009c28 <i_9654>:
    80009c28:	00c00313          	li	t1,12

0000000080009c2c <i_9655>:
    80009c2c:	0061dbbb          	srlw	s7,gp,t1

0000000080009c30 <i_9656>:
    80009c30:	87200d93          	li	s11,-1934

0000000080009c34 <i_9657>:
    80009c34:	88200193          	li	gp,-1918

0000000080009c38 <i_9658>:
    80009c38:	10013283          	ld	t0,256(sp)

0000000080009c3c <i_9659>:
    80009c3c:	0252d2b3          	divu	t0,t0,t0

0000000080009c40 <i_9660>:
    80009c40:	1d010283          	lb	t0,464(sp)

0000000080009c44 <i_9661>:
    80009c44:	f9711a23          	sh	s7,-108(sp)

0000000080009c48 <i_9662>:
    80009c48:	fb710623          	sb	s7,-84(sp)

0000000080009c4c <i_9663>:
    80009c4c:	001d8d93          	addi	s11,s11,1
    80009c50:	ffb1f2e3          	bleu	s11,gp,80009c34 <i_9657>

0000000080009c54 <i_9664>:
    80009c54:	0fe2bb93          	sltiu	s7,t0,254

0000000080009c58 <i_9665>:
    80009c58:	017b8bb3          	add	s7,s7,s7

0000000080009c5c <i_9666>:
    80009c5c:	46aba093          	slti	ra,s7,1130

0000000080009c60 <i_9667>:
    80009c60:	fb211d83          	lh	s11,-78(sp)

0000000080009c64 <i_9668>:
    80009c64:	0052e863          	bltu	t0,t0,80009c74 <i_9672>

0000000080009c68 <i_9669>:
    80009c68:	02511923          	sh	t0,50(sp)

0000000080009c6c <i_9670>:
    80009c6c:	1b615283          	lhu	t0,438(sp)

0000000080009c70 <i_9671>:
    80009c70:	fa816583          	lwu	a1,-88(sp)

0000000080009c74 <i_9672>:
    80009c74:	00a00d93          	li	s11,10

0000000080009c78 <i_9673>:
    80009c78:	01b2de3b          	srlw	t3,t0,s11

0000000080009c7c <i_9674>:
    80009c7c:	81c00293          	li	t0,-2020

0000000080009c80 <i_9675>:
    80009c80:	82600a13          	li	s4,-2010

0000000080009c84 <i_9676>:
    80009c84:	03816c83          	lwu	s9,56(sp)

0000000080009c88 <i_9677>:
    80009c88:	03ccf1b3          	remu	gp,s9,t3

0000000080009c8c <i_9678>:
    80009c8c:	f5012c83          	lw	s9,-176(sp)

0000000080009c90 <i_9679>:
    80009c90:	03999663          	bne	s3,s9,80009cbc <i_9689>

0000000080009c94 <i_9680>:
    80009c94:	c95e6913          	ori	s2,t3,-875

0000000080009c98 <i_9681>:
    80009c98:	722caf13          	slti	t5,s9,1826

0000000080009c9c <i_9682>:
    80009c9c:	00e10803          	lb	a6,14(sp)

0000000080009ca0 <i_9683>:
    80009ca0:	00128293          	addi	t0,t0,1
    80009ca4:	fe5a50e3          	ble	t0,s4,80009c84 <i_9676>

0000000080009ca8 <i_9684>:
    80009ca8:	030f5063          	ble	a6,t5,80009cc8 <i_9692>

0000000080009cac <i_9685>:
    80009cac:	41e80833          	sub	a6,a6,t5

0000000080009cb0 <i_9686>:
    80009cb0:	11e12023          	sw	t5,256(sp)

0000000080009cb4 <i_9687>:
    80009cb4:	0ec16283          	lwu	t0,236(sp)

0000000080009cb8 <i_9688>:
    80009cb8:	edc14283          	lbu	t0,-292(sp)

0000000080009cbc <i_9689>:
    80009cbc:	a2d1ce37          	lui	t3,0xa2d1c

0000000080009cc0 <i_9690>:
    80009cc0:	05013823          	sd	a6,80(sp)

0000000080009cc4 <i_9691>:
    80009cc4:	04b14f03          	lbu	t5,75(sp)

0000000080009cc8 <i_9692>:
    80009cc8:	0252f2bb          	remuw	t0,t0,t0

0000000080009ccc <i_9693>:
    80009ccc:	00570263          	beq	a4,t0,80009cd0 <i_9694>

0000000080009cd0 <i_9694>:
    80009cd0:	003f539b          	srliw	t2,t5,0x3

0000000080009cd4 <i_9695>:
    80009cd4:	0052b2b3          	sltu	t0,t0,t0

0000000080009cd8 <i_9696>:
    80009cd8:	01dd8db3          	add	s11,s11,t4

0000000080009cdc <i_9697>:
    80009cdc:	0a812e83          	lw	t4,168(sp)

0000000080009ce0 <i_9698>:
    80009ce0:	402ede9b          	sraiw	t4,t4,0x2

0000000080009ce4 <i_9699>:
    80009ce4:	ff313823          	sd	s3,-16(sp)

0000000080009ce8 <i_9700>:
    80009ce8:	fc816183          	lwu	gp,-56(sp)

0000000080009cec <i_9701>:
    80009cec:	1a512c23          	sw	t0,440(sp)

0000000080009cf0 <i_9702>:
    80009cf0:	0c610ca3          	sb	t1,217(sp)

0000000080009cf4 <i_9703>:
    80009cf4:	03d15333          	divu	t1,sp,t4

0000000080009cf8 <i_9704>:
    80009cf8:	f27ebe93          	sltiu	t4,t4,-217

0000000080009cfc <i_9705>:
    80009cfc:	fcd10603          	lb	a2,-51(sp)

0000000080009d00 <i_9706>:
    80009d00:	01c00c93          	li	s9,28

0000000080009d04 <i_9707>:
    80009d04:	4192d2bb          	sraw	t0,t0,s9

0000000080009d08 <i_9708>:
    80009d08:	06b10f83          	lb	t6,107(sp)

0000000080009d0c <i_9709>:
    80009d0c:	ee511e23          	sh	t0,-260(sp)

0000000080009d10 <i_9710>:
    80009d10:	403c8ebb          	subw	t4,s9,gp

0000000080009d14 <i_9711>:
    80009d14:	02518463          	beq	gp,t0,80009d3c <i_9721>

0000000080009d18 <i_9712>:
    80009d18:	003a1d9b          	slliw	s11,s4,0x3

0000000080009d1c <i_9713>:
    80009d1c:	03bec263          	blt	t4,s11,80009d40 <i_9722>

0000000080009d20 <i_9714>:
    80009d20:	e8511923          	sh	t0,-366(sp)

0000000080009d24 <i_9715>:
    80009d24:	e2611023          	sh	t1,-480(sp)

0000000080009d28 <i_9716>:
    80009d28:	47f33a37          	lui	s4,0x47f33

0000000080009d2c <i_9717>:
    80009d2c:	00b3fa63          	bleu	a1,t2,80009d40 <i_9722>

0000000080009d30 <i_9718>:
    80009d30:	18312a23          	sw	gp,404(sp)

0000000080009d34 <i_9719>:
    80009d34:	0343f3bb          	remuw	t2,t2,s4

0000000080009d38 <i_9720>:
    80009d38:	0343e263          	bltu	t2,s4,80009d5c <i_9729>

0000000080009d3c <i_9721>:
    80009d3c:	0343fa33          	remu	s4,t2,s4

0000000080009d40 <i_9722>:
    80009d40:	18e10983          	lb	s3,398(sp)

0000000080009d44 <i_9723>:
    80009d44:	0343d463          	ble	s4,t2,80009d6c <i_9733>

0000000080009d48 <i_9724>:
    80009d48:	00439393          	slli	t2,t2,0x4

0000000080009d4c <i_9725>:
    80009d4c:	fa313c23          	sd	gp,-72(sp)

0000000080009d50 <i_9726>:
    80009d50:	0169da63          	ble	s6,s3,80009d64 <i_9731>

0000000080009d54 <i_9727>:
    80009d54:	e6c16503          	lwu	a0,-404(sp)

0000000080009d58 <i_9728>:
    80009d58:	1d013183          	ld	gp,464(sp)

0000000080009d5c <i_9729>:
    80009d5c:	1c214203          	lbu	tp,450(sp)

0000000080009d60 <i_9730>:
    80009d60:	15a15503          	lhu	a0,346(sp)

0000000080009d64 <i_9731>:
    80009d64:	0031d463          	ble	gp,gp,80009d6c <i_9733>

0000000080009d68 <i_9732>:
    80009d68:	01bdbdb3          	sltu	s11,s11,s11

0000000080009d6c <i_9733>:
    80009d6c:	14c10803          	lb	a6,332(sp)

0000000080009d70 <i_9734>:
    80009d70:	01ad3c33          	sltu	s8,s10,s10

0000000080009d74 <i_9735>:
    80009d74:	77100493          	li	s1,1905

0000000080009d78 <i_9736>:
    80009d78:	78400d13          	li	s10,1924

0000000080009d7c <i_9737>:
    80009d7c:	03ac5463          	ble	s10,s8,80009da4 <i_9746>

0000000080009d80 <i_9738>:
    80009d80:	0297e663          	bltu	a5,s1,80009dac <i_9748>

0000000080009d84 <i_9739>:
    80009d84:	1b012c23          	sw	a6,440(sp)

0000000080009d88 <i_9740>:
    80009d88:	fba10023          	sb	s10,-96(sp)

0000000080009d8c <i_9741>:
    80009d8c:	19b13c23          	sd	s11,408(sp)

0000000080009d90 <i_9742>:
    80009d90:	f4912623          	sw	s1,-180(sp)

0000000080009d94 <i_9743>:
    80009d94:	00148493          	addi	s1,s1,1
    80009d98:	ffa4e2e3          	bltu	s1,s10,80009d7c <i_9737>

0000000080009d9c <i_9744>:
    80009d9c:	02ec7d33          	remu	s10,s8,a4

0000000080009da0 <i_9745>:
    80009da0:	e4015483          	lhu	s1,-448(sp)

0000000080009da4 <i_9746>:
    80009da4:	00249493          	slli	s1,s1,0x2

0000000080009da8 <i_9747>:
    80009da8:	01600c93          	li	s9,22

0000000080009dac <i_9748>:
    80009dac:	4194dabb          	sraw	s5,s1,s9

0000000080009db0 <i_9749>:
    80009db0:	ece15483          	lhu	s1,-306(sp)

0000000080009db4 <i_9750>:
    80009db4:	e9812803          	lw	a6,-360(sp)

0000000080009db8 <i_9751>:
    80009db8:	00480e63          	beq	a6,tp,80009dd4 <i_9758>

0000000080009dbc <i_9752>:
    80009dbc:	01087c63          	bleu	a6,a6,80009dd4 <i_9758>

0000000080009dc0 <i_9753>:
    80009dc0:	05013023          	sd	a6,64(sp)

0000000080009dc4 <i_9754>:
    80009dc4:	f7813683          	ld	a3,-136(sp)

0000000080009dc8 <i_9755>:
    80009dc8:	11910aa3          	sb	s9,277(sp)

0000000080009dcc <i_9756>:
    80009dcc:	f3013483          	ld	s1,-208(sp)

0000000080009dd0 <i_9757>:
    80009dd0:	01200493          	li	s1,18

0000000080009dd4 <i_9758>:
    80009dd4:	4094d83b          	sraw	a6,s1,s1

0000000080009dd8 <i_9759>:
    80009dd8:	d64ba217          	auipc	tp,0xd64ba

0000000080009ddc <i_9760>:
    80009ddc:	06911123          	sh	s1,98(sp)

0000000080009de0 <i_9761>:
    80009de0:	f1110983          	lb	s3,-239(sp)

0000000080009de4 <i_9762>:
    80009de4:	0294c463          	blt	s1,s1,80009e0c <i_9772>

0000000080009de8 <i_9763>:
    80009de8:	00421263          	bne	tp,tp,80009dec <i_9764>

0000000080009dec <i_9764>:
    80009dec:	0a410123          	sb	tp,162(sp)

0000000080009df0 <i_9765>:
    80009df0:	03048063          	beq	s1,a6,80009e10 <i_9773>

0000000080009df4 <i_9766>:
    80009df4:	ed414203          	lbu	tp,-300(sp)

0000000080009df8 <i_9767>:
    80009df8:	ec816c03          	lwu	s8,-312(sp)

0000000080009dfc <i_9768>:
    80009dfc:	02d25063          	ble	a3,tp,80009e1c <i_9776>

0000000080009e00 <i_9769>:
    80009e00:	01b00593          	li	a1,27

0000000080009e04 <i_9770>:
    80009e04:	00b9d1b3          	srl	gp,s3,a1

0000000080009e08 <i_9771>:
    80009e08:	4049d19b          	sraiw	gp,s3,0x4

0000000080009e0c <i_9772>:
    80009e0c:	ed210683          	lb	a3,-302(sp)

0000000080009e10 <i_9773>:
    80009e10:	1c412983          	lw	s3,452(sp)

0000000080009e14 <i_9774>:
    80009e14:	f5d12423          	sw	t4,-184(sp)

0000000080009e18 <i_9775>:
    80009e18:	00299993          	slli	s3,s3,0x2

0000000080009e1c <i_9776>:
    80009e1c:	01318663          	beq	gp,s3,80009e28 <i_9779>

0000000080009e20 <i_9777>:
    80009e20:	0255d9b3          	divu	s3,a1,t0

0000000080009e24 <i_9778>:
    80009e24:	0339d9bb          	divuw	s3,s3,s3

0000000080009e28 <i_9779>:
    80009e28:	17016983          	lwu	s3,368(sp)

0000000080009e2c <i_9780>:
    80009e2c:	00000013          	nop

0000000080009e30 <i_9781>:
    80009e30:	8aa00593          	li	a1,-1878

0000000080009e34 <i_9782>:
    80009e34:	8be00293          	li	t0,-1858

0000000080009e38 <i_9783>:
    80009e38:	00000013          	nop

0000000080009e3c <i_9784>:
    80009e3c:	0231f1b3          	remu	gp,gp,gp

0000000080009e40 <i_9785>:
    80009e40:	03312a23          	sw	s3,52(sp)

0000000080009e44 <i_9786>:
    80009e44:	00319993          	slli	s3,gp,0x3

0000000080009e48 <i_9787>:
    80009e48:	403d5d13          	srai	s10,s10,0x3

0000000080009e4c <i_9788>:
    80009e4c:	11a11723          	sh	s10,270(sp)

0000000080009e50 <i_9789>:
    80009e50:	ef412e83          	lw	t4,-268(sp)

0000000080009e54 <i_9790>:
    80009e54:	01b18db3          	add	s11,gp,s11

0000000080009e58 <i_9791>:
    80009e58:	f0813d03          	ld	s10,-248(sp)

0000000080009e5c <i_9792>:
    80009e5c:	03defcb3          	remu	s9,t4,t4

0000000080009e60 <i_9793>:
    80009e60:	00158593          	addi	a1,a1,1
    80009e64:	fcb2dae3          	ble	a1,t0,80009e38 <i_9783>

0000000080009e68 <i_9794>:
    80009e68:	e3013d03          	ld	s10,-464(sp)

0000000080009e6c <i_9795>:
    80009e6c:	e9912a23          	sw	s9,-364(sp)

0000000080009e70 <i_9796>:
    80009e70:	a17d2d93          	slti	s11,s10,-1513

0000000080009e74 <i_9797>:
    80009e74:	09d12423          	sw	t4,136(sp)

0000000080009e78 <i_9798>:
    80009e78:	0017dd1b          	srliw	s10,a5,0x1

0000000080009e7c <i_9799>:
    80009e7c:	01ab5a63          	ble	s10,s6,80009e90 <i_9804>

0000000080009e80 <i_9800>:
    80009e80:	003d1a9b          	slliw	s5,s10,0x3

0000000080009e84 <i_9801>:
    80009e84:	01b00813          	li	a6,27

0000000080009e88 <i_9802>:
    80009e88:	410cd6bb          	sraw	a3,s9,a6

0000000080009e8c <i_9803>:
    80009e8c:	f7613823          	sd	s6,-144(sp)

0000000080009e90 <i_9804>:
    80009e90:	e0180913          	addi	s2,a6,-511 # 5da952f1 <main-0x2256ad0f>

0000000080009e94 <i_9805>:
    80009e94:	11012903          	lw	s2,272(sp)

0000000080009e98 <i_9806>:
    80009e98:	01916a63          	bltu	sp,s9,80009eac <i_9811>

0000000080009e9c <i_9807>:
    80009e9c:	12016503          	lwu	a0,288(sp)

0000000080009ea0 <i_9808>:
    80009ea0:	e6a10c23          	sb	a0,-392(sp)

0000000080009ea4 <i_9809>:
    80009ea4:	16013c83          	ld	s9,352(sp)

0000000080009ea8 <i_9810>:
    80009ea8:	09415c83          	lhu	s9,148(sp)

0000000080009eac <i_9811>:
    80009eac:	039cc463          	blt	s9,s9,80009ed4 <i_9821>

0000000080009eb0 <i_9812>:
    80009eb0:	01e00193          	li	gp,30

0000000080009eb4 <i_9813>:
    80009eb4:	00355eb3          	srl	t4,a0,gp

0000000080009eb8 <i_9814>:
    80009eb8:	039cd263          	ble	s9,s9,80009edc <i_9823>

0000000080009ebc <i_9815>:
    80009ebc:	fb411c83          	lh	s9,-76(sp)

0000000080009ec0 <i_9816>:
    80009ec0:	019efe63          	bleu	s9,t4,80009edc <i_9823>

0000000080009ec4 <i_9817>:
    80009ec4:	003ebcb3          	sltu	s9,t4,gp

0000000080009ec8 <i_9818>:
    80009ec8:	403c81bb          	subw	gp,s9,gp

0000000080009ecc <i_9819>:
    80009ecc:	13414303          	lbu	t1,308(sp)

0000000080009ed0 <i_9820>:
    80009ed0:	00637463          	bleu	t1,t1,80009ed8 <i_9822>

0000000080009ed4 <i_9821>:
    80009ed4:	fee15783          	lhu	a5,-18(sp)

0000000080009ed8 <i_9822>:
    80009ed8:	f4611123          	sh	t1,-190(sp)

0000000080009edc <i_9823>:
    80009edc:	19a14783          	lbu	a5,410(sp)

0000000080009ee0 <i_9824>:
    80009ee0:	02f307bb          	mulw	a5,t1,a5

0000000080009ee4 <i_9825>:
    80009ee4:	03b14083          	lbu	ra,59(sp)

0000000080009ee8 <i_9826>:
    80009ee8:	004fdf9b          	srliw	t6,t6,0x4

0000000080009eec <i_9827>:
    80009eec:	038f9463          	bne	t6,s8,80009f14 <i_9837>

0000000080009ef0 <i_9828>:
    80009ef0:	f3011603          	lh	a2,-208(sp)

0000000080009ef4 <i_9829>:
    80009ef4:	03ffefbb          	remw	t6,t6,t6

0000000080009ef8 <i_9830>:
    80009ef8:	06615203          	lhu	tp,102(sp)

0000000080009efc <i_9831>:
    80009efc:	41ff8fb3          	sub	t6,t6,t6

0000000080009f00 <i_9832>:
    80009f00:	eff11823          	sh	t6,-272(sp)

0000000080009f04 <i_9833>:
    80009f04:	eac13423          	sd	a2,-344(sp)

0000000080009f08 <i_9834>:
    80009f08:	ef613423          	sd	s6,-280(sp)

0000000080009f0c <i_9835>:
    80009f0c:	03dfcb33          	div	s6,t6,t4

0000000080009f10 <i_9836>:
    80009f10:	02600b93          	li	s7,38

0000000080009f14 <i_9837>:
    80009f14:	017bdb33          	srl	s6,s7,s7

0000000080009f18 <i_9838>:
    80009f18:	f1b14503          	lbu	a0,-229(sp)

0000000080009f1c <i_9839>:
    80009f1c:	80600d13          	li	s10,-2042

0000000080009f20 <i_9840>:
    80009f20:	81a00293          	li	t0,-2022

0000000080009f24 <i_9841>:
    80009f24:	12c54e93          	xori	t4,a0,300

0000000080009f28 <i_9842>:
    80009f28:	001d0d13          	addi	s10,s10,1
    80009f2c:	ffa2dce3          	ble	s10,t0,80009f24 <i_9841>

0000000080009f30 <i_9843>:
    80009f30:	03ae87bb          	mulw	a5,t4,s10

0000000080009f34 <i_9844>:
    80009f34:	ad5ebb93          	sltiu	s7,t4,-1323

0000000080009f38 <i_9845>:
    80009f38:	e58106a3          	sb	s8,-435(sp)

0000000080009f3c <i_9846>:
    80009f3c:	e2a13023          	sd	a0,-480(sp)

0000000080009f40 <i_9847>:
    80009f40:	00469c13          	slli	s8,a3,0x4

0000000080009f44 <i_9848>:
    80009f44:	1b911b23          	sh	s9,438(sp)

0000000080009f48 <i_9849>:
    80009f48:	1ca11d23          	sh	a0,474(sp)

0000000080009f4c <i_9850>:
    80009f4c:	01d7de63          	ble	t4,a5,80009f68 <i_9857>

0000000080009f50 <i_9851>:
    80009f50:	286bcb93          	xori	s7,s7,646

0000000080009f54 <i_9852>:
    80009f54:	eea14b03          	lbu	s6,-278(sp)

0000000080009f58 <i_9853>:
    80009f58:	7f293213          	sltiu	tp,s2,2034

0000000080009f5c <i_9854>:
    80009f5c:	f4e0a613          	slti	a2,ra,-178

0000000080009f60 <i_9855>:
    80009f60:	0339093b          	mulw	s2,s2,s3

0000000080009f64 <i_9856>:
    80009f64:	02466933          	rem	s2,a2,tp

0000000080009f68 <i_9857>:
    80009f68:	00000013          	nop

0000000080009f6c <i_9858>:
    80009f6c:	10c13c23          	sd	a2,280(sp)

0000000080009f70 <i_9859>:
    80009f70:	74700093          	li	ra,1863

0000000080009f74 <i_9860>:
    80009f74:	75300b93          	li	s7,1875

0000000080009f78 <i_9861>:
    80009f78:	ecc16203          	lwu	tp,-308(sp)

0000000080009f7c <i_9862>:
    80009f7c:	00108093          	addi	ra,ra,1
    80009f80:	ff70ece3          	bltu	ra,s7,80009f78 <i_9861>

0000000080009f84 <i_9863>:
    80009f84:	e9912223          	sw	s9,-380(sp)

0000000080009f88 <i_9864>:
    80009f88:	01297cb3          	and	s9,s2,s2

0000000080009f8c <i_9865>:
    80009f8c:	0fb10603          	lb	a2,251(sp)

0000000080009f90 <i_9866>:
    80009f90:	00c41a63          	bne	s0,a2,80009fa4 <i_9871>

0000000080009f94 <i_9867>:
    80009f94:	00000013          	nop

0000000080009f98 <i_9868>:
    80009f98:	0026151b          	slliw	a0,a2,0x2

0000000080009f9c <i_9869>:
    80009f9c:	00a93bb3          	sltu	s7,s2,a0

0000000080009fa0 <i_9870>:
    80009fa0:	fac13423          	sd	a2,-88(sp)

0000000080009fa4 <i_9871>:
    80009fa4:	f3213423          	sd	s2,-216(sp)

0000000080009fa8 <i_9872>:
    80009fa8:	004cd91b          	srliw	s2,s9,0x4

0000000080009fac <i_9873>:
    80009fac:	87400613          	li	a2,-1932

0000000080009fb0 <i_9874>:
    80009fb0:	88600c93          	li	s9,-1914

0000000080009fb4 <i_9875>:
    80009fb4:	03751663          	bne	a0,s7,80009fe0 <i_9885>

0000000080009fb8 <i_9876>:
    80009fb8:	bc86039b          	addiw	t2,a2,-1080

0000000080009fbc <i_9877>:
    80009fbc:	0049519b          	srliw	gp,s2,0x4

0000000080009fc0 <i_9878>:
    80009fc0:	40c60bbb          	subw	s7,a2,a2

0000000080009fc4 <i_9879>:
    80009fc4:	08412203          	lw	tp,132(sp)

0000000080009fc8 <i_9880>:
    80009fc8:	00160613          	addi	a2,a2,1 # 29379b11 <main-0x56c864ef>
    80009fcc:	feccf4e3          	bleu	a2,s9,80009fb4 <i_9875>

0000000080009fd0 <i_9881>:
    80009fd0:	f3813503          	ld	a0,-200(sp)

0000000080009fd4 <i_9882>:
    80009fd4:	12412503          	lw	a0,292(sp)

0000000080009fd8 <i_9883>:
    80009fd8:	00351913          	slli	s2,a0,0x3

0000000080009fdc <i_9884>:
    80009fdc:	f4a102a3          	sb	a0,-187(sp)

0000000080009fe0 <i_9885>:
    80009fe0:	e5913423          	sd	s9,-440(sp)

0000000080009fe4 <i_9886>:
    80009fe4:	08412503          	lw	a0,132(sp)

0000000080009fe8 <i_9887>:
    80009fe8:	00a9fc63          	bleu	a0,s3,8000a000 <i_9893>

0000000080009fec <i_9888>:
    80009fec:	02c54063          	blt	a0,a2,8000a00c <i_9896>

0000000080009ff0 <i_9889>:
    80009ff0:	17310583          	lb	a1,371(sp)

0000000080009ff4 <i_9890>:
    80009ff4:	03399063          	bne	s3,s3,8000a014 <i_9898>

0000000080009ff8 <i_9891>:
    80009ff8:	01700d93          	li	s11,23

0000000080009ffc <i_9892>:
    80009ffc:	01b55eb3          	srl	t4,a0,s11

000000008000a000 <i_9893>:
    8000a000:	01b37c33          	and	s8,t1,s11

000000008000a004 <i_9894>:
    8000a004:	00a5dc63          	ble	a0,a1,8000a01c <i_9900>

000000008000a008 <i_9895>:
    8000a008:	018d8db3          	add	s11,s11,s8

000000008000a00c <i_9896>:
    8000a00c:	e3c16303          	lwu	t1,-452(sp)

000000008000a010 <i_9897>:
    8000a010:	01dc4eb3          	xor	t4,s8,t4

000000008000a014 <i_9898>:
    8000a014:	c56efe93          	andi	t4,t4,-938

000000008000a018 <i_9899>:
    8000a018:	e9d13823          	sd	t4,-368(sp)

000000008000a01c <i_9900>:
    8000a01c:	026dd263          	ble	t1,s11,8000a040 <i_9909>

000000008000a020 <i_9901>:
    8000a020:	e4f10c03          	lb	s8,-433(sp)

000000008000a024 <i_9902>:
    8000a024:	d3adef93          	ori	t6,s11,-710

000000008000a028 <i_9903>:
    8000a028:	026ef463          	bleu	t1,t4,8000a050 <i_9913>

000000008000a02c <i_9904>:
    8000a02c:	01b94d33          	xor	s10,s2,s11

000000008000a030 <i_9905>:
    8000a030:	01dfde63          	ble	t4,t6,8000a04c <i_9912>

000000008000a034 <i_9906>:
    8000a034:	01631c63          	bne	t1,s6,8000a04c <i_9912>

000000008000a038 <i_9907>:
    8000a038:	e5614d03          	lbu	s10,-426(sp)

000000008000a03c <i_9908>:
    8000a03c:	10e14303          	lbu	t1,270(sp)

000000008000a040 <i_9909>:
    8000a040:	f3215b03          	lhu	s6,-206(sp)

000000008000a044 <i_9910>:
    8000a044:	00c67c33          	and	s8,a2,a2

000000008000a048 <i_9911>:
    8000a048:	ed813283          	ld	t0,-296(sp)

000000008000a04c <i_9912>:
    8000a04c:	1e013a83          	ld	s5,480(sp)

000000008000a050 <i_9913>:
    8000a050:	004b1293          	slli	t0,s6,0x4

000000008000a054 <i_9914>:
    8000a054:	00000013          	nop

000000008000a058 <i_9915>:
    8000a058:	7e600f93          	li	t6,2022

000000008000a05c <i_9916>:
    8000a05c:	7fa00613          	li	a2,2042

000000008000a060 <i_9917>:
    8000a060:	00eaec33          	or	s8,s5,a4

000000008000a064 <i_9918>:
    8000a064:	018c0663          	beq	s8,s8,8000a070 <i_9921>

000000008000a068 <i_9919>:
    8000a068:	005b62b3          	or	t0,s6,t0

000000008000a06c <i_9920>:
    8000a06c:	0152f463          	bleu	s5,t0,8000a074 <i_9922>

000000008000a070 <i_9921>:
    8000a070:	f1aab293          	sltiu	t0,s5,-230

000000008000a074 <i_9922>:
    8000a074:	e6813903          	ld	s2,-408(sp)

000000008000a078 <i_9923>:
    8000a078:	ed512023          	sw	s5,-320(sp)

000000008000a07c <i_9924>:
    8000a07c:	ed8100a3          	sb	s8,-319(sp)

000000008000a080 <i_9925>:
    8000a080:	0022d293          	srli	t0,t0,0x2

000000008000a084 <i_9926>:
    8000a084:	001f8f93          	addi	t6,t6,1
    8000a088:	fccf9ce3          	bne	t6,a2,8000a060 <i_9917>

000000008000a08c <i_9927>:
    8000a08c:	038aedbb          	remw	s11,s5,s8

000000008000a090 <i_9928>:
    8000a090:	fb811f23          	sh	s8,-66(sp)

000000008000a094 <i_9929>:
    8000a094:	001df863          	bleu	ra,s11,8000a0a4 <i_9933>

000000008000a098 <i_9930>:
    8000a098:	f58108a3          	sb	s8,-175(sp)

000000008000a09c <i_9931>:
    8000a09c:	032addb3          	divu	s11,s5,s2

000000008000a0a0 <i_9932>:
    8000a0a0:	01113023          	sd	a7,0(sp)

000000008000a0a4 <i_9933>:
    8000a0a4:	f7013083          	ld	ra,-144(sp)

000000008000a0a8 <i_9934>:
    8000a0a8:	0100f463          	bleu	a6,ra,8000a0b0 <i_9936>

000000008000a0ac <i_9935>:
    8000a0ac:	f8816803          	lwu	a6,-120(sp)

000000008000a0b0 <i_9936>:
    8000a0b0:	03d00813          	li	a6,61

000000008000a0b4 <i_9937>:
    8000a0b4:	010c5c33          	srl	s8,s8,a6

000000008000a0b8 <i_9938>:
    8000a0b8:	01084a63          	blt	a6,a6,8000a0cc <i_9943>

000000008000a0bc <i_9939>:
    8000a0bc:	01500f13          	li	t5,21

000000008000a0c0 <i_9940>:
    8000a0c0:	01ec583b          	srlw	a6,s8,t5

000000008000a0c4 <i_9941>:
    8000a0c4:	404c5c13          	srai	s8,s8,0x4

000000008000a0c8 <i_9942>:
    8000a0c8:	00a00413          	li	s0,10

000000008000a0cc <i_9943>:
    8000a0cc:	008c1c3b          	sllw	s8,s8,s0

000000008000a0d0 <i_9944>:
    8000a0d0:	0d813823          	sd	s8,208(sp)

000000008000a0d4 <i_9945>:
    8000a0d4:	00d00a13          	li	s4,13

000000008000a0d8 <i_9946>:
    8000a0d8:	414c5a3b          	sraw	s4,s8,s4

000000008000a0dc <i_9947>:
    8000a0dc:	0c015783          	lhu	a5,192(sp)

000000008000a0e0 <i_9948>:
    8000a0e0:	027c1463          	bne	s8,t2,8000a108 <i_9958>

000000008000a0e4 <i_9949>:
    8000a0e4:	0ac15a03          	lhu	s4,172(sp)

000000008000a0e8 <i_9950>:
    8000a0e8:	fda15b83          	lhu	s7,-38(sp)

000000008000a0ec <i_9951>:
    8000a0ec:	02f517b3          	mulh	a5,a0,a5

000000008000a0f0 <i_9952>:
    8000a0f0:	03f79233          	mulh	tp,a5,t6

000000008000a0f4 <i_9953>:
    8000a0f4:	034a6263          	bltu	s4,s4,8000a118 <i_9962>

000000008000a0f8 <i_9954>:
    8000a0f8:	f2811903          	lh	s2,-216(sp)

000000008000a0fc <i_9955>:
    8000a0fc:	00400c93          	li	s9,4

000000008000a100 <i_9956>:
    8000a100:	01961a3b          	sllw	s4,a2,s9

000000008000a104 <i_9957>:
    8000a104:	01a11983          	lh	s3,26(sp)

000000008000a108 <i_9958>:
    8000a108:	14013383          	ld	t2,320(sp)

000000008000a10c <i_9959>:
    8000a10c:	0199e863          	bltu	s3,s9,8000a11c <i_9963>

000000008000a110 <i_9960>:
    8000a110:	06215c03          	lhu	s8,98(sp)

000000008000a114 <i_9961>:
    8000a114:	f5411c83          	lh	s9,-172(sp)

000000008000a118 <i_9962>:
    8000a118:	0333c9b3          	div	s3,t2,s3

000000008000a11c <i_9963>:
    8000a11c:	02a00493          	li	s1,42

000000008000a120 <i_9964>:
    8000a120:	009c13b3          	sll	t2,s8,s1

000000008000a124 <i_9965>:
    8000a124:	414a0a3b          	subw	s4,s4,s4

000000008000a128 <i_9966>:
    8000a128:	fcc11823          	sh	a2,-48(sp)

000000008000a12c <i_9967>:
    8000a12c:	8c900c93          	li	s9,-1847

000000008000a130 <i_9968>:
    8000a130:	8d500993          	li	s3,-1835

000000008000a134 <i_9969>:
    8000a134:	001c8c93          	addi	s9,s9,1
    8000a138:	ff3ccee3          	blt	s9,s3,8000a134 <i_9969>

000000008000a13c <i_9970>:
    8000a13c:	ff312a23          	sw	s3,-12(sp)

000000008000a140 <i_9971>:
    8000a140:	8dbcef13          	ori	t5,s9,-1829

000000008000a144 <i_9972>:
    8000a144:	11410aa3          	sb	s4,277(sp)

000000008000a148 <i_9973>:
    8000a148:	034a49bb          	divw	s3,s4,s4

000000008000a14c <i_9974>:
    8000a14c:	e6812a03          	lw	s4,-408(sp)

000000008000a150 <i_9975>:
    8000a150:	e2c16d83          	lwu	s11,-468(sp)

000000008000a154 <i_9976>:
    8000a154:	014a1a63          	bne	s4,s4,8000a168 <i_9981>

000000008000a158 <i_9977>:
    8000a158:	e1a15f03          	lhu	t5,-486(sp)

000000008000a15c <i_9978>:
    8000a15c:	00000013          	nop

000000008000a160 <i_9979>:
    8000a160:	00000013          	nop

000000008000a164 <i_9980>:
    8000a164:	4f056617          	auipc	a2,0x4f056

000000008000a168 <i_9981>:
    8000a168:	00000013          	nop

000000008000a16c <i_9982>:
    8000a16c:	00000013          	nop

000000008000a170 <i_9983>:
    8000a170:	84000d93          	li	s11,-1984

000000008000a174 <i_9984>:
    8000a174:	84500d13          	li	s10,-1979

000000008000a178 <i_9985>:
    8000a178:	e1c14b83          	lbu	s7,-484(sp)

000000008000a17c <i_9986>:
    8000a17c:	f6c15e83          	lhu	t4,-148(sp)

000000008000a180 <i_9987>:
    8000a180:	7a200a13          	li	s4,1954

000000008000a184 <i_9988>:
    8000a184:	7ab00f93          	li	t6,1963

000000008000a188 <i_9989>:
    8000a188:	001a0a13          	addi	s4,s4,1 # 47f33001 <main-0x380ccfff>
    8000a18c:	ff4ffee3          	bleu	s4,t6,8000a188 <i_9989>

000000008000a190 <i_9990>:
    8000a190:	00000013          	nop

000000008000a194 <i_9991>:
    8000a194:	13210ea3          	sb	s2,317(sp)

000000008000a198 <i_9992>:
    8000a198:	01400613          	li	a2,20

000000008000a19c <i_9993>:
    8000a19c:	40c55bbb          	sraw	s7,a0,a2

000000008000a1a0 <i_9994>:
    8000a1a0:	001d8d93          	addi	s11,s11,1
    8000a1a4:	fdbd7ae3          	bleu	s11,s10,8000a178 <i_9985>

000000008000a1a8 <i_9995>:
    8000a1a8:	002e8eb3          	add	t4,t4,sp

000000008000a1ac <i_9996>:
    8000a1ac:	02cee463          	bltu	t4,a2,8000a1d4 <i_10006>

000000008000a1b0 <i_9997>:
    8000a1b0:	01d64863          	blt	a2,t4,8000a1c0 <i_10001>

000000008000a1b4 <i_9998>:
    8000a1b4:	eb6104a3          	sb	s6,-343(sp)

000000008000a1b8 <i_9999>:
    8000a1b8:	12c10ea3          	sb	a2,317(sp)

000000008000a1bc <i_10000>:
    8000a1bc:	00000013          	nop

000000008000a1c0 <i_10001>:
    8000a1c0:	1d910e83          	lb	t4,473(sp)

000000008000a1c4 <i_10002>:
    8000a1c4:	e4813483          	ld	s1,-440(sp)

000000008000a1c8 <i_10003>:
    8000a1c8:	cc1b3bb7          	lui	s7,0xcc1b3

000000008000a1cc <i_10004>:
    8000a1cc:	40b904bb          	subw	s1,s2,a1

000000008000a1d0 <i_10005>:
    8000a1d0:	fa813e83          	ld	t4,-88(sp)

000000008000a1d4 <i_10006>:
    8000a1d4:	02c12b83          	lw	s7,44(sp)

000000008000a1d8 <i_10007>:
    8000a1d8:	00ec7c33          	and	s8,s8,a4

000000008000a1dc <i_10008>:
    8000a1dc:	88a00193          	li	gp,-1910

000000008000a1e0 <i_10009>:
    8000a1e0:	89500613          	li	a2,-1899

000000008000a1e4 <i_10010>:
    8000a1e4:	009bee63          	bltu	s7,s1,8000a200 <i_10016>

000000008000a1e8 <i_10011>:
    8000a1e8:	00118193          	addi	gp,gp,1
    8000a1ec:	fec1ece3          	bltu	gp,a2,8000a1e4 <i_10010>

000000008000a1f0 <i_10012>:
    8000a1f0:	ed810ca3          	sb	s8,-295(sp)

000000008000a1f4 <i_10013>:
    8000a1f4:	e4f14f83          	lbu	t6,-433(sp)

000000008000a1f8 <i_10014>:
    8000a1f8:	018bd463          	ble	s8,s7,8000a200 <i_10016>

000000008000a1fc <i_10015>:
    8000a1fc:	10c16c03          	lwu	s8,268(sp)

000000008000a200 <i_10016>:
    8000a200:	0150b0b3          	sltu	ra,ra,s5

000000008000a204 <i_10017>:
    8000a204:	01c0fe33          	and	t3,ra,t3

000000008000a208 <i_10018>:
    8000a208:	eca15f03          	lhu	t5,-310(sp)

000000008000a20c <i_10019>:
    8000a20c:	f7f11a23          	sh	t6,-140(sp)

000000008000a210 <i_10020>:
    8000a210:	00f37863          	bleu	a5,t1,8000a220 <i_10024>

000000008000a214 <i_10021>:
    8000a214:	00ee7b33          	and	s6,t3,a4

000000008000a218 <i_10022>:
    8000a218:	006f0333          	add	t1,t5,t1

000000008000a21c <i_10023>:
    8000a21c:	fdc15383          	lhu	t2,-36(sp)

000000008000a220 <i_10024>:
    8000a220:	03eb5463          	ble	t5,s6,8000a248 <i_10034>

000000008000a224 <i_10025>:
    8000a224:	02638f3b          	mulw	t5,t2,t1

000000008000a228 <i_10026>:
    8000a228:	ec411383          	lh	t2,-316(sp)

000000008000a22c <i_10027>:
    8000a22c:	e7415383          	lhu	t2,-396(sp)

000000008000a230 <i_10028>:
    8000a230:	18712023          	sw	t2,384(sp)

000000008000a234 <i_10029>:
    8000a234:	026303bb          	mulw	t2,t1,t1

000000008000a238 <i_10030>:
    8000a238:	f4d14d83          	lbu	s11,-179(sp)

000000008000a23c <i_10031>:
    8000a23c:	0263e263          	bltu	t2,t1,8000a260 <i_10040>

000000008000a240 <i_10032>:
    8000a240:	01ef4bb3          	xor	s7,t5,t5

000000008000a244 <i_10033>:
    8000a244:	e3416303          	lwu	t1,-460(sp)

000000008000a248 <i_10034>:
    8000a248:	06812603          	lw	a2,104(sp)

000000008000a24c <i_10035>:
    8000a24c:	16714983          	lbu	s3,359(sp)

000000008000a250 <i_10036>:
    8000a250:	01c00813          	li	a6,28

000000008000a254 <i_10037>:
    8000a254:	01039d3b          	sllw	s10,t2,a6

000000008000a258 <i_10038>:
    8000a258:	026343b3          	div	t2,t1,t1

000000008000a25c <i_10039>:
    8000a25c:	0d015d03          	lhu	s10,208(sp)

000000008000a260 <i_10040>:
    8000a260:	00c30533          	add	a0,t1,a2

000000008000a264 <i_10041>:
    8000a264:	037604bb          	mulw	s1,a2,s7

000000008000a268 <i_10042>:
    8000a268:	87800f13          	li	t5,-1928

000000008000a26c <i_10043>:
    8000a26c:	88500813          	li	a6,-1915

000000008000a270 <i_10044>:
    8000a270:	18013e83          	ld	t4,384(sp)

000000008000a274 <i_10045>:
    8000a274:	00000013          	nop

000000008000a278 <i_10046>:
    8000a278:	76700313          	li	t1,1895

000000008000a27c <i_10047>:
    8000a27c:	77400a93          	li	s5,1908

000000008000a280 <i_10048>:
    8000a280:	694ecb93          	xori	s7,t4,1684

000000008000a284 <i_10049>:
    8000a284:	029ed863          	ble	s1,t4,8000a2b4 <i_10059>

000000008000a288 <i_10050>:
    8000a288:	e8912023          	sw	s1,-384(sp)

000000008000a28c <i_10051>:
    8000a28c:	017909b3          	add	s3,s2,s7

000000008000a290 <i_10052>:
    8000a290:	00130313          	addi	t1,t1,1
    8000a294:	ff5346e3          	blt	t1,s5,8000a280 <i_10048>

000000008000a298 <i_10053>:
    8000a298:	74ab7b13          	andi	s6,s6,1866

000000008000a29c <i_10054>:
    8000a29c:	001f0f13          	addi	t5,t5,1
    8000a2a0:	fde878e3          	bleu	t5,a6,8000a270 <i_10044>

000000008000a2a4 <i_10055>:
    8000a2a4:	861bbd13          	sltiu	s10,s7,-1951

000000008000a2a8 <i_10056>:
    8000a2a8:	1bc11283          	lh	t0,444(sp)

000000008000a2ac <i_10057>:
    8000a2ac:	0374c4bb          	divw	s1,s1,s7

000000008000a2b0 <i_10058>:
    8000a2b0:	00d00393          	li	t2,13

000000008000a2b4 <i_10059>:
    8000a2b4:	4079dd3b          	sraw	s10,s3,t2

000000008000a2b8 <i_10060>:
    8000a2b8:	11310da3          	sb	s3,283(sp)

000000008000a2bc <i_10061>:
    8000a2bc:	0273c9b3          	div	s3,t2,t2

000000008000a2c0 <i_10062>:
    8000a2c0:	f1a13423          	sd	s10,-248(sp)

000000008000a2c4 <i_10063>:
    8000a2c4:	01dd5a63          	ble	t4,s10,8000a2d8 <i_10068>

000000008000a2c8 <i_10064>:
    8000a2c8:	4029d69b          	sraiw	a3,s3,0x2

000000008000a2cc <i_10065>:
    8000a2cc:	08c12b83          	lw	s7,140(sp)

000000008000a2d0 <i_10066>:
    8000a2d0:	008b4bb3          	xor	s7,s6,s0

000000008000a2d4 <i_10067>:
    8000a2d4:	402e5e13          	srai	t3,t3,0x2

000000008000a2d8 <i_10068>:
    8000a2d8:	ff210803          	lb	a6,-14(sp)

000000008000a2dc <i_10069>:
    8000a2dc:	00000013          	nop

000000008000a2e0 <i_10070>:
    8000a2e0:	80800b13          	li	s6,-2040

000000008000a2e4 <i_10071>:
    8000a2e4:	80d00e93          	li	t4,-2035

000000008000a2e8 <i_10072>:
    8000a2e8:	036c7463          	bleu	s6,s8,8000a310 <i_10081>

000000008000a2ec <i_10073>:
    8000a2ec:	001b0b13          	addi	s6,s6,1
    8000a2f0:	ff6e9ce3          	bne	t4,s6,8000a2e8 <i_10072>

000000008000a2f4 <i_10074>:
    8000a2f4:	011ff663          	bleu	a7,t6,8000a300 <i_10077>

000000008000a2f8 <i_10075>:
    8000a2f8:	01900e13          	li	t3,25

000000008000a2fc <i_10076>:
    8000a2fc:	01cf5f33          	srl	t5,t5,t3

000000008000a300 <i_10077>:
    8000a300:	03e87bb3          	remu	s7,a6,t5

000000008000a304 <i_10078>:
    8000a304:	17c12383          	lw	t2,380(sp)

000000008000a308 <i_10079>:
    8000a308:	eb211b83          	lh	s7,-334(sp)

000000008000a30c <i_10080>:
    8000a30c:	0373e263          	bltu	t2,s7,8000a330 <i_10089>

000000008000a310 <i_10081>:
    8000a310:	c27b8a13          	addi	s4,s7,-985 # ffffffffcc1b2c27 <_end+0xffffffff4c1a2813>

000000008000a314 <i_10082>:
    8000a314:	ff810e23          	sb	s8,-4(sp)

000000008000a318 <i_10083>:
    8000a318:	03713c23          	sd	s7,56(sp)

000000008000a31c <i_10084>:
    8000a31c:	0f615b83          	lhu	s7,246(sp)

000000008000a320 <i_10085>:
    8000a320:	004bdb9b          	srliw	s7,s7,0x4

000000008000a324 <i_10086>:
    8000a324:	01a11f03          	lh	t5,26(sp)

000000008000a328 <i_10087>:
    8000a328:	03409463          	bne	ra,s4,8000a350 <i_10097>

000000008000a32c <i_10088>:
    8000a32c:	e9812083          	lw	ra,-360(sp)

000000008000a330 <i_10089>:
    8000a330:	f1013083          	ld	ra,-240(sp)

000000008000a334 <i_10090>:
    8000a334:	001f0e63          	beq	t5,ra,8000a350 <i_10097>

000000008000a338 <i_10091>:
    8000a338:	00800f13          	li	t5,8

000000008000a33c <i_10092>:
    8000a33c:	01efd0b3          	srl	ra,t6,t5

000000008000a340 <i_10093>:
    8000a340:	01e08663          	beq	ra,t5,8000a34c <i_10096>

000000008000a344 <i_10094>:
    8000a344:	ec113023          	sd	ra,-320(sp)

000000008000a348 <i_10095>:
    8000a348:	01e09a63          	bne	ra,t5,8000a35c <i_10100>

000000008000a34c <i_10096>:
    8000a34c:	03e0ff3b          	remuw	t5,ra,t5

000000008000a350 <i_10097>:
    8000a350:	0be12e23          	sw	t5,188(sp)

000000008000a354 <i_10098>:
    8000a354:	71bca593          	slti	a1,s9,1819

000000008000a358 <i_10099>:
    8000a358:	ede12023          	sw	t5,-320(sp)

000000008000a35c <i_10100>:
    8000a35c:	fb615b03          	lhu	s6,-74(sp)

000000008000a360 <i_10101>:
    8000a360:	01609e63          	bne	ra,s6,8000a37c <i_10108>

000000008000a364 <i_10102>:
    8000a364:	f4614b03          	lbu	s6,-186(sp)

000000008000a368 <i_10103>:
    8000a368:	ed016b03          	lwu	s6,-304(sp)

000000008000a36c <i_10104>:
    8000a36c:	00fb7b33          	and	s6,s6,a5

000000008000a370 <i_10105>:
    8000a370:	03fb0fbb          	mulw	t6,s6,t6

000000008000a374 <i_10106>:
    8000a374:	03691933          	mulh	s2,s2,s6

000000008000a378 <i_10107>:
    8000a378:	036b0263          	beq	s6,s6,8000a39c <i_10116>

000000008000a37c <i_10108>:
    8000a37c:	a3bb2593          	slti	a1,s6,-1477

000000008000a380 <i_10109>:
    8000a380:	ed613823          	sd	s6,-304(sp)

000000008000a384 <i_10110>:
    8000a384:	f0211083          	lh	ra,-254(sp)

000000008000a388 <i_10111>:
    8000a388:	01690833          	add	a6,s2,s6

000000008000a38c <i_10112>:
    8000a38c:	066104a3          	sb	t1,105(sp)

000000008000a390 <i_10113>:
    8000a390:	00600f93          	li	t6,6

000000008000a394 <i_10114>:
    8000a394:	41f5dfbb          	sraw	t6,a1,t6

000000008000a398 <i_10115>:
    8000a398:	0f611623          	sh	s6,236(sp)

000000008000a39c <i_10116>:
    8000a39c:	030b593b          	divuw	s2,s6,a6

000000008000a3a0 <i_10117>:
    8000a3a0:	06812a23          	sw	s0,116(sp)

000000008000a3a4 <i_10118>:
    8000a3a4:	01430e63          	beq	t1,s4,8000a3c0 <i_10125>

000000008000a3a8 <i_10119>:
    8000a3a8:	f0415303          	lhu	t1,-252(sp)

000000008000a3ac <i_10120>:
    8000a3ac:	026fc263          	blt	t6,t1,8000a3d0 <i_10129>

000000008000a3b0 <i_10121>:
    8000a3b0:	b8807b17          	auipc	s6,0xb8807

000000008000a3b4 <i_10122>:
    8000a3b4:	5f0fe293          	ori	t0,t6,1520

000000008000a3b8 <i_10123>:
    8000a3b8:	01ff8e63          	beq	t6,t6,8000a3d4 <i_10130>

000000008000a3bc <i_10124>:
    8000a3bc:	1e016283          	lwu	t0,480(sp)

000000008000a3c0 <i_10125>:
    8000a3c0:	003b1f1b          	slliw	t5,s6,0x3

000000008000a3c4 <i_10126>:
    8000a3c4:	005ff463          	bleu	t0,t6,8000a3cc <i_10128>

000000008000a3c8 <i_10127>:
    8000a3c8:	e7613023          	sd	s6,-416(sp)

000000008000a3cc <i_10128>:
    8000a3cc:	01ffec63          	bltu	t6,t6,8000a3e4 <i_10134>

000000008000a3d0 <i_10129>:
    8000a3d0:	03bfd063          	ble	s11,t6,8000a3f0 <i_10137>

000000008000a3d4 <i_10130>:
    8000a3d4:	00658a63          	beq	a1,t1,8000a3e8 <i_10135>

000000008000a3d8 <i_10131>:
    8000a3d8:	402c5613          	srai	a2,s8,0x2

000000008000a3dc <i_10132>:
    8000a3dc:	16f66f93          	ori	t6,a2,367

000000008000a3e0 <i_10133>:
    8000a3e0:	00500e93          	li	t4,5

000000008000a3e4 <i_10134>:
    8000a3e4:	01d7563b          	srlw	a2,a4,t4

000000008000a3e8 <i_10135>:
    8000a3e8:	d7b2f393          	andi	t2,t0,-645

000000008000a3ec <i_10136>:
    8000a3ec:	00500393          	li	t2,5

000000008000a3f0 <i_10137>:
    8000a3f0:	407adab3          	sra	s5,s5,t2

000000008000a3f4 <i_10138>:
    8000a3f4:	4023d39b          	sraiw	t2,t2,0x2

000000008000a3f8 <i_10139>:
    8000a3f8:	75800c93          	li	s9,1880

000000008000a3fc <i_10140>:
    8000a3fc:	75d00f93          	li	t6,1885

000000008000a400 <i_10141>:
    8000a400:	01fe9c63          	bne	t4,t6,8000a418 <i_10147>

000000008000a404 <i_10142>:
    8000a404:	1ac13423          	sd	a2,424(sp)

000000008000a408 <i_10143>:
    8000a408:	04214e83          	lbu	t4,66(sp)

000000008000a40c <i_10144>:
    8000a40c:	9e338393          	addi	t2,t2,-1565

000000008000a410 <i_10145>:
    8000a410:	e2713423          	sd	t2,-472(sp)

000000008000a414 <i_10146>:
    8000a414:	1c014f03          	lbu	t5,448(sp)

000000008000a418 <i_10147>:
    8000a418:	02b00f13          	li	t5,43

000000008000a41c <i_10148>:
    8000a41c:	01e999b3          	sll	s3,s3,t5

000000008000a420 <i_10149>:
    8000a420:	f5412383          	lw	t2,-172(sp)

000000008000a424 <i_10150>:
    8000a424:	03c16f03          	lwu	t5,60(sp)

000000008000a428 <i_10151>:
    8000a428:	001c8c93          	addi	s9,s9,1
    8000a42c:	fdfceae3          	bltu	s9,t6,8000a400 <i_10141>

000000008000a430 <i_10152>:
    8000a430:	413389b3          	sub	s3,t2,s3

000000008000a434 <i_10153>:
    8000a434:	06712e23          	sw	t2,124(sp)

000000008000a438 <i_10154>:
    8000a438:	fd411583          	lh	a1,-44(sp)

000000008000a43c <i_10155>:
    8000a43c:	fd312e23          	sw	s3,-36(sp)

000000008000a440 <i_10156>:
    8000a440:	02f5f263          	bleu	a5,a1,8000a464 <i_10165>

000000008000a444 <i_10157>:
    8000a444:	00499d13          	slli	s10,s3,0x4

000000008000a448 <i_10158>:
    8000a448:	02b989b3          	mul	s3,s3,a1

000000008000a44c <i_10159>:
    8000a44c:	fa710ba3          	sb	t2,-73(sp)

000000008000a450 <i_10160>:
    8000a450:	01900f13          	li	t5,25

000000008000a454 <i_10161>:
    8000a454:	41edddb3          	sra	s11,s11,t5

000000008000a458 <i_10162>:
    8000a458:	f5313823          	sd	s3,-176(sp)

000000008000a45c <i_10163>:
    8000a45c:	03eda9b3          	mulhsu	s3,s11,t5

000000008000a460 <i_10164>:
    8000a460:	00189d9b          	slliw	s11,a7,0x1

000000008000a464 <i_10165>:
    8000a464:	0b312023          	sw	s3,160(sp)

000000008000a468 <i_10166>:
    8000a468:	38f3a813          	slti	a6,t2,911

000000008000a46c <i_10167>:
    8000a46c:	f5412f83          	lw	t6,-172(sp)

000000008000a470 <i_10168>:
    8000a470:	75300a93          	li	s5,1875

000000008000a474 <i_10169>:
    8000a474:	75600993          	li	s3,1878

000000008000a478 <i_10170>:
    8000a478:	16710383          	lb	t2,359(sp)

000000008000a47c <i_10171>:
    8000a47c:	01fae2b3          	or	t0,s5,t6

000000008000a480 <i_10172>:
    8000a480:	00000013          	nop

000000008000a484 <i_10173>:
    8000a484:	79300813          	li	a6,1939

000000008000a488 <i_10174>:
    8000a488:	7a200393          	li	t2,1954

000000008000a48c <i_10175>:
    8000a48c:	0bf10f83          	lb	t6,191(sp)

000000008000a490 <i_10176>:
    8000a490:	10012783          	lw	a5,256(sp)

000000008000a494 <i_10177>:
    8000a494:	19012503          	lw	a0,400(sp)

000000008000a498 <i_10178>:
    8000a498:	f7813303          	ld	t1,-136(sp)

000000008000a49c <i_10179>:
    8000a49c:	0c812823          	sw	s0,208(sp)

000000008000a4a0 <i_10180>:
    8000a4a0:	00180813          	addi	a6,a6,1
    8000a4a4:	ff03f4e3          	bleu	a6,t2,8000a48c <i_10175>

000000008000a4a8 <i_10181>:
    8000a4a8:	00600393          	li	t2,6

000000008000a4ac <i_10182>:
    8000a4ac:	007396bb          	sllw	a3,t2,t2

000000008000a4b0 <i_10183>:
    8000a4b0:	0109de63          	ble	a6,s3,8000a4cc <i_10189>

000000008000a4b4 <i_10184>:
    8000a4b4:	001a8a93          	addi	s5,s5,1
    8000a4b8:	fd3a90e3          	bne	s5,s3,8000a478 <i_10170>

000000008000a4bc <i_10185>:
    8000a4bc:	031a96b3          	mulh	a3,s5,a7

000000008000a4c0 <i_10186>:
    8000a4c0:	00a12423          	sw	a0,8(sp)

000000008000a4c4 <i_10187>:
    8000a4c4:	fea10223          	sb	a0,-28(sp)

000000008000a4c8 <i_10188>:
    8000a4c8:	004a9d93          	slli	s11,s5,0x4

000000008000a4cc <i_10189>:
    8000a4cc:	00000013          	nop

000000008000a4d0 <i_10190>:
    8000a4d0:	02a44433          	div	s0,s0,a0

000000008000a4d4 <i_10191>:
    8000a4d4:	77400a93          	li	s5,1908

000000008000a4d8 <i_10192>:
    8000a4d8:	77600513          	li	a0,1910

000000008000a4dc <i_10193>:
    8000a4dc:	01b42433          	slt	s0,s0,s11

000000008000a4e0 <i_10194>:
    8000a4e0:	07813c83          	ld	s9,120(sp)

000000008000a4e4 <i_10195>:
    8000a4e4:	05912623          	sw	s9,76(sp)

000000008000a4e8 <i_10196>:
    8000a4e8:	43dc3413          	sltiu	s0,s8,1085

000000008000a4ec <i_10197>:
    8000a4ec:	fa012c03          	lw	s8,-96(sp)

000000008000a4f0 <i_10198>:
    8000a4f0:	e7911823          	sh	s9,-400(sp)

000000008000a4f4 <i_10199>:
    8000a4f4:	06810da3          	sb	s0,123(sp)

000000008000a4f8 <i_10200>:
    8000a4f8:	fbb10c03          	lb	s8,-69(sp)

000000008000a4fc <i_10201>:
    8000a4fc:	40840c33          	sub	s8,s0,s0

000000008000a500 <i_10202>:
    8000a500:	02844433          	div	s0,s0,s0

000000008000a504 <i_10203>:
    8000a504:	0b813823          	sd	s8,176(sp)

000000008000a508 <i_10204>:
    8000a508:	faa13c23          	sd	a0,-72(sp)

000000008000a50c <i_10205>:
    8000a50c:	0ec14403          	lbu	s0,236(sp)

000000008000a510 <i_10206>:
    8000a510:	01843cb3          	sltu	s9,s0,s8

000000008000a514 <i_10207>:
    8000a514:	001a8a93          	addi	s5,s5,1
    8000a518:	fd5552e3          	ble	s5,a0,8000a4dc <i_10193>

000000008000a51c <i_10208>:
    8000a51c:	19c12383          	lw	t2,412(sp)

000000008000a520 <i_10209>:
    8000a520:	00f00c13          	li	s8,15

000000008000a524 <i_10210>:
    8000a524:	418c5b3b          	sraw	s6,s8,s8

000000008000a528 <i_10211>:
    8000a528:	73500613          	li	a2,1845

000000008000a52c <i_10212>:
    8000a52c:	74800913          	li	s2,1864

000000008000a530 <i_10213>:
    8000a530:	06b14683          	lbu	a3,107(sp)

000000008000a534 <i_10214>:
    8000a534:	00768263          	beq	a3,t2,8000a538 <i_10215>

000000008000a538 <i_10215>:
    8000a538:	0168c533          	xor	a0,a7,s6

000000008000a53c <i_10216>:
    8000a53c:	0f012c03          	lw	s8,240(sp)

000000008000a540 <i_10217>:
    8000a540:	02d51263          	bne	a0,a3,8000a564 <i_10225>

000000008000a544 <i_10218>:
    8000a544:	f4412683          	lw	a3,-188(sp)

000000008000a548 <i_10219>:
    8000a548:	02d50663          	beq	a0,a3,8000a574 <i_10229>

000000008000a54c <i_10220>:
    8000a54c:	00160613          	addi	a2,a2,1 # cf060165 <_end+0x4f04fd51>
    8000a550:	fcc97ee3          	bleu	a2,s2,8000a52c <i_10212>

000000008000a554 <i_10221>:
    8000a554:	0266e463          	bltu	a3,t1,8000a57c <i_10231>

000000008000a558 <i_10222>:
    8000a558:	0a812683          	lw	a3,168(sp)

000000008000a55c <i_10223>:
    8000a55c:	0306ef3b          	remw	t5,a3,a6

000000008000a560 <i_10224>:
    8000a560:	e1e10f23          	sb	t5,-482(sp)

000000008000a564 <i_10225>:
    8000a564:	01c6c863          	blt	a3,t3,8000a574 <i_10229>

000000008000a568 <i_10226>:
    8000a568:	02e15f03          	lhu	t5,46(sp)

000000008000a56c <i_10227>:
    8000a56c:	36bf0413          	addi	s0,t5,875

000000008000a570 <i_10228>:
    8000a570:	e8813823          	sd	s0,-368(sp)

000000008000a574 <i_10229>:
    8000a574:	028476b3          	remu	a3,s0,s0

000000008000a578 <i_10230>:
    8000a578:	4785f1b7          	lui	gp,0x4785f

000000008000a57c <i_10231>:
    8000a57c:	13013e03          	ld	t3,304(sp)

000000008000a580 <i_10232>:
    8000a580:	00000013          	nop

000000008000a584 <i_10233>:
    8000a584:	72f00093          	li	ra,1839

000000008000a588 <i_10234>:
    8000a588:	73600793          	li	a5,1846

000000008000a58c <i_10235>:
    8000a58c:	04412223          	sw	tp,68(sp)

000000008000a590 <i_10236>:
    8000a590:	00d6eab3          	or	s5,a3,a3

000000008000a594 <i_10237>:
    8000a594:	ea111b23          	sh	ra,-330(sp)

000000008000a598 <i_10238>:
    8000a598:	02def433          	remu	s0,t4,a3

000000008000a59c <i_10239>:
    8000a59c:	408a86b3          	sub	a3,s5,s0

000000008000a5a0 <i_10240>:
    8000a5a0:	00000013          	nop

000000008000a5a4 <i_10241>:
    8000a5a4:	1ca10403          	lb	s0,458(sp)

000000008000a5a8 <i_10242>:
    8000a5a8:	15813c23          	sd	s8,344(sp)

000000008000a5ac <i_10243>:
    8000a5ac:	0ad11c23          	sh	a3,184(sp)

000000008000a5b0 <i_10244>:
    8000a5b0:	03a7dd3b          	divuw	s10,a5,s10

000000008000a5b4 <i_10245>:
    8000a5b4:	19a11c23          	sh	s10,408(sp)

000000008000a5b8 <i_10246>:
    8000a5b8:	00845463          	ble	s0,s0,8000a5c0 <i_10248>

000000008000a5bc <i_10247>:
    8000a5bc:	01ad3d33          	sltu	s10,s10,s10

000000008000a5c0 <i_10248>:
    8000a5c0:	18411b83          	lh	s7,388(sp)

000000008000a5c4 <i_10249>:
    8000a5c4:	00f44c63          	blt	s0,a5,8000a5dc <i_10254>

000000008000a5c8 <i_10250>:
    8000a5c8:	00108093          	addi	ra,ra,1
    8000a5cc:	fcf090e3          	bne	ra,a5,8000a58c <i_10235>

000000008000a5d0 <i_10251>:
    8000a5d0:	f0814d03          	lbu	s10,-248(sp)

000000008000a5d4 <i_10252>:
    8000a5d4:	e1a14403          	lbu	s0,-486(sp)

000000008000a5d8 <i_10253>:
    8000a5d8:	15f14d03          	lbu	s10,351(sp)

000000008000a5dc <i_10254>:
    8000a5dc:	18813823          	sd	s0,400(sp)

000000008000a5e0 <i_10255>:
    8000a5e0:	0370dc33          	divu	s8,ra,s7

000000008000a5e4 <i_10256>:
    8000a5e4:	ceb6d297          	auipc	t0,0xceb6d

000000008000a5e8 <i_10257>:
    8000a5e8:	7af00093          	li	ra,1967

000000008000a5ec <i_10258>:
    8000a5ec:	7b700613          	li	a2,1975

000000008000a5f0 <i_10259>:
    8000a5f0:	01d00293          	li	t0,29

000000008000a5f4 <i_10260>:
    8000a5f4:	4052dbbb          	sraw	s7,t0,t0

000000008000a5f8 <i_10261>:
    8000a5f8:	f1012383          	lw	t2,-240(sp)

000000008000a5fc <i_10262>:
    8000a5fc:	01800c93          	li	s9,24

000000008000a600 <i_10263>:
    8000a600:	0194523b          	srlw	tp,s0,s9

000000008000a604 <i_10264>:
    8000a604:	00108093          	addi	ra,ra,1
    8000a608:	fec0c4e3          	blt	ra,a2,8000a5f0 <i_10259>

000000008000a60c <i_10265>:
    8000a60c:	e5011403          	lh	s0,-432(sp)

000000008000a610 <i_10266>:
    8000a610:	18a14283          	lbu	t0,394(sp)

000000008000a614 <i_10267>:
    8000a614:	00112023          	sw	ra,0(sp)

000000008000a618 <i_10268>:
    8000a618:	06816783          	lwu	a5,104(sp)

000000008000a61c <i_10269>:
    8000a61c:	e3412223          	sw	s4,-476(sp)

000000008000a620 <i_10270>:
    8000a620:	fe711e23          	sh	t2,-4(sp)

000000008000a624 <i_10271>:
    8000a624:	697be593          	ori	a1,s7,1687

000000008000a628 <i_10272>:
    8000a628:	01a7e5b3          	or	a1,a5,s10

000000008000a62c <i_10273>:
    8000a62c:	03920063          	beq	tp,s9,8000a64c <i_10281>

000000008000a630 <i_10274>:
    8000a630:	02fc4333          	div	t1,s8,a5

000000008000a634 <i_10275>:
    8000a634:	f8a15f03          	lhu	t5,-118(sp)

000000008000a638 <i_10276>:
    8000a638:	01acd663          	ble	s10,s9,8000a644 <i_10279>

000000008000a63c <i_10277>:
    8000a63c:	14414e03          	lbu	t3,324(sp)

000000008000a640 <i_10278>:
    8000a640:	1b013b03          	ld	s6,432(sp)

000000008000a644 <i_10279>:
    8000a644:	039b5cbb          	divuw	s9,s6,s9

000000008000a648 <i_10280>:
    8000a648:	05911b23          	sh	s9,86(sp)

000000008000a64c <i_10281>:
    8000a64c:	00000013          	nop

000000008000a650 <i_10282>:
    8000a650:	039cccb3          	div	s9,s9,s9

000000008000a654 <i_10283>:
    8000a654:	80a00a13          	li	s4,-2038

000000008000a658 <i_10284>:
    8000a658:	81500393          	li	t2,-2027

000000008000a65c <i_10285>:
    8000a65c:	ff813c83          	ld	s9,-8(sp)

000000008000a660 <i_10286>:
    8000a660:	01911823          	sh	s9,16(sp)

000000008000a664 <i_10287>:
    8000a664:	001a0a13          	addi	s4,s4,1
    8000a668:	ff43dae3          	ble	s4,t2,8000a65c <i_10285>

000000008000a66c <i_10288>:
    8000a66c:	a300809b          	addiw	ra,ra,-1488

000000008000a670 <i_10289>:
    8000a670:	01700093          	li	ra,23

000000008000a674 <i_10290>:
    8000a674:	401cda33          	sra	s4,s9,ra

000000008000a678 <i_10291>:
    8000a678:	09013e83          	ld	t4,144(sp)

000000008000a67c <i_10292>:
    8000a67c:	02ec8cb3          	mul	s9,s9,a4

000000008000a680 <i_10293>:
    8000a680:	02b0c5b3          	div	a1,ra,a1

000000008000a684 <i_10294>:
    8000a684:	1d412e83          	lw	t4,468(sp)

000000008000a688 <i_10295>:
    8000a688:	15813c83          	ld	s9,344(sp)

000000008000a68c <i_10296>:
    8000a68c:	02fd9463          	bne	s11,a5,8000a6b4 <i_10306>

000000008000a690 <i_10297>:
    8000a690:	014cd263          	ble	s4,s9,8000a694 <i_10298>

000000008000a694 <i_10298>:
    8000a694:	e2ba2a13          	slti	s4,s4,-469

000000008000a698 <i_10299>:
    8000a698:	021eddbb          	divuw	s11,t4,ra

000000008000a69c <i_10300>:
    8000a69c:	f5015a03          	lhu	s4,-176(sp)

000000008000a6a0 <i_10301>:
    8000a6a0:	f1016a03          	lwu	s4,-240(sp)

000000008000a6a4 <i_10302>:
    8000a6a4:	01d00093          	li	ra,29

000000008000a6a8 <i_10303>:
    8000a6a8:	001a13bb          	sllw	t2,s4,ra

000000008000a6ac <i_10304>:
    8000a6ac:	002b1e93          	slli	t4,s6,0x2

000000008000a6b0 <i_10305>:
    8000a6b0:	0360fb3b          	remuw	s6,ra,s6

000000008000a6b4 <i_10306>:
    8000a6b4:	ebd6e693          	ori	a3,a3,-323

000000008000a6b8 <i_10307>:
    8000a6b8:	fc810d83          	lb	s11,-56(sp)

000000008000a6bc <i_10308>:
    8000a6bc:	72e00e13          	li	t3,1838

000000008000a6c0 <i_10309>:
    8000a6c0:	73a00293          	li	t0,1850

000000008000a6c4 <i_10310>:
    8000a6c4:	f6713423          	sd	t2,-152(sp)

000000008000a6c8 <i_10311>:
    8000a6c8:	007b6e63          	bltu	s6,t2,8000a6e4 <i_10318>

000000008000a6cc <i_10312>:
    8000a6cc:	18310c03          	lb	s8,387(sp)

000000008000a6d0 <i_10313>:
    8000a6d0:	9bfe3313          	sltiu	t1,t3,-1601

000000008000a6d4 <i_10314>:
    8000a6d4:	f4512e23          	sw	t0,-164(sp)

000000008000a6d8 <i_10315>:
    8000a6d8:	00000013          	nop

000000008000a6dc <i_10316>:
    8000a6dc:	0142d263          	ble	s4,t0,8000a6e0 <i_10317>

000000008000a6e0 <i_10317>:
    8000a6e0:	0383d663          	ble	s8,t2,8000a70c <i_10327>

000000008000a6e4 <i_10318>:
    8000a6e4:	ff813383          	ld	t2,-8(sp)

000000008000a6e8 <i_10319>:
    8000a6e8:	00000013          	nop

000000008000a6ec <i_10320>:
    8000a6ec:	001e0e13          	addi	t3,t3,1 # ffffffffa2d1c001 <_end+0xffffffff22d0bbed>
    8000a6f0:	fdc2dae3          	ble	t3,t0,8000a6c4 <i_10310>

000000008000a6f4 <i_10321>:
    8000a6f4:	038c1c33          	mulh	s8,s8,s8

000000008000a6f8 <i_10322>:
    8000a6f8:	e5d10483          	lb	s1,-419(sp)

000000008000a6fc <i_10323>:
    8000a6fc:	1a610303          	lb	t1,422(sp)

000000008000a700 <i_10324>:
    8000a700:	01c2a2b3          	slt	t0,t0,t3

000000008000a704 <i_10325>:
    8000a704:	023c01b3          	mul	gp,s8,gp

000000008000a708 <i_10326>:
    8000a708:	f0611923          	sh	t1,-238(sp)

000000008000a70c <i_10327>:
    8000a70c:	01810633          	add	a2,sp,s8

000000008000a710 <i_10328>:
    8000a710:	005c1463          	bne	s8,t0,8000a718 <i_10330>

000000008000a714 <i_10329>:
    8000a714:	14713823          	sd	t2,336(sp)

000000008000a718 <i_10330>:
    8000a718:	018cfcb3          	and	s9,s9,s8

000000008000a71c <i_10331>:
    8000a71c:	e2416903          	lwu	s2,-476(sp)

000000008000a720 <i_10332>:
    8000a720:	00000013          	nop

000000008000a724 <i_10333>:
    8000a724:	72e00d93          	li	s11,1838

000000008000a728 <i_10334>:
    8000a728:	74200393          	li	t2,1858

000000008000a72c <i_10335>:
    8000a72c:	fe911023          	sh	s1,-32(sp)

000000008000a730 <i_10336>:
    8000a730:	edc10903          	lb	s2,-292(sp)

000000008000a734 <i_10337>:
    8000a734:	004c5c9b          	srliw	s9,s8,0x4

000000008000a738 <i_10338>:
    8000a738:	012c8463          	beq	s9,s2,8000a740 <i_10340>

000000008000a73c <i_10339>:
    8000a73c:	032cc263          	blt	s9,s2,8000a760 <i_10347>

000000008000a740 <i_10340>:
    8000a740:	032de663          	bltu	s11,s2,8000a76c <i_10350>

000000008000a744 <i_10341>:
    8000a744:	f3b11623          	sh	s11,-212(sp)

000000008000a748 <i_10342>:
    8000a748:	032de463          	bltu	s11,s2,8000a770 <i_10351>

000000008000a74c <i_10343>:
    8000a74c:	001d8d93          	addi	s11,s11,1
    8000a750:	fc7d9ee3          	bne	s11,t2,8000a72c <i_10335>

000000008000a754 <i_10344>:
    8000a754:	f5013903          	ld	s2,-176(sp)

000000008000a758 <i_10345>:
    8000a758:	00291d93          	slli	s11,s2,0x2

000000008000a75c <i_10346>:
    8000a75c:	19011403          	lh	s0,400(sp)

000000008000a760 <i_10347>:
    8000a760:	e4c15d83          	lhu	s11,-436(sp)

000000008000a764 <i_10348>:
    8000a764:	ab1df913          	andi	s2,s11,-1359

000000008000a768 <i_10349>:
    8000a768:	0323a933          	mulhsu	s2,t2,s2

000000008000a76c <i_10350>:
    8000a76c:	ef416803          	lwu	a6,-268(sp)

000000008000a770 <i_10351>:
    8000a770:	40395a1b          	sraiw	s4,s2,0x3

000000008000a774 <i_10352>:
    8000a774:	003d1a13          	slli	s4,s10,0x3

000000008000a778 <i_10353>:
    8000a778:	7ab00d93          	li	s11,1963

000000008000a77c <i_10354>:
    8000a77c:	7b000d13          	li	s10,1968

000000008000a780 <i_10355>:
    8000a780:	012a4463          	blt	s4,s2,8000a788 <i_10357>

000000008000a784 <i_10356>:
    8000a784:	07210a03          	lb	s4,114(sp)

000000008000a788 <i_10357>:
    8000a788:	022a6663          	bltu	s4,sp,8000a7b4 <i_10367>

000000008000a78c <i_10358>:
    8000a78c:	f5010603          	lb	a2,-176(sp)

000000008000a790 <i_10359>:
    8000a790:	0a815a03          	lhu	s4,168(sp)

000000008000a794 <i_10360>:
    8000a794:	19011503          	lh	a0,400(sp)

000000008000a798 <i_10361>:
    8000a798:	01e66e63          	bltu	a2,t5,8000a7b4 <i_10367>

000000008000a79c <i_10362>:
    8000a79c:	001d8d93          	addi	s11,s11,1
    8000a7a0:	ffad90e3          	bne	s11,s10,8000a780 <i_10355>

000000008000a7a4 <i_10363>:
    8000a7a4:	11c11a03          	lh	s4,284(sp)

000000008000a7a8 <i_10364>:
    8000a7a8:	03412e23          	sw	s4,60(sp)

000000008000a7ac <i_10365>:
    8000a7ac:	034cf533          	remu	a0,s9,s4

000000008000a7b0 <i_10366>:
    8000a7b0:	e5910323          	sb	s9,-442(sp)

000000008000a7b4 <i_10367>:
    8000a7b4:	069936b7          	lui	a3,0x6993

000000008000a7b8 <i_10368>:
    8000a7b8:	002a1f93          	slli	t6,s4,0x2

000000008000a7bc <i_10369>:
    8000a7bc:	00af9c63          	bne	t6,a0,8000a7d4 <i_10375>

000000008000a7c0 <i_10370>:
    8000a7c0:	0316e463          	bltu	a3,a7,8000a7e8 <i_10380>

000000008000a7c4 <i_10371>:
    8000a7c4:	0030909b          	slliw	ra,ra,0x3

000000008000a7c8 <i_10372>:
    8000a7c8:	00868433          	add	s0,a3,s0

000000008000a7cc <i_10373>:
    8000a7cc:	008a7d33          	and	s10,s4,s0

000000008000a7d0 <i_10374>:
    8000a7d0:	13a12a23          	sw	s10,308(sp)

000000008000a7d4 <i_10375>:
    8000a7d4:	0149a4b3          	slt	s1,s3,s4

000000008000a7d8 <i_10376>:
    8000a7d8:	037d4d33          	div	s10,s10,s7

000000008000a7dc <i_10377>:
    8000a7dc:	01a40433          	add	s0,s0,s10

000000008000a7e0 <i_10378>:
    8000a7e0:	4024519b          	sraiw	gp,s0,0x2

000000008000a7e4 <i_10379>:
    8000a7e4:	f8312a23          	sw	gp,-108(sp)

000000008000a7e8 <i_10380>:
    8000a7e8:	00319c63          	bne	gp,gp,8000a800 <i_10386>

000000008000a7ec <i_10381>:
    8000a7ec:	03a0ef3b          	remw	t5,ra,s10

000000008000a7f0 <i_10382>:
    8000a7f0:	00300f93          	li	t6,3

000000008000a7f4 <i_10383>:
    8000a7f4:	01ff1d3b          	sllw	s10,t5,t6

000000008000a7f8 <i_10384>:
    8000a7f8:	00000013          	nop

000000008000a7fc <i_10385>:
    8000a7fc:	03125a3b          	divuw	s4,tp,a7

000000008000a800 <i_10386>:
    8000a800:	00000013          	nop

000000008000a804 <i_10387>:
    8000a804:	e8016f03          	lwu	t5,-384(sp)

000000008000a808 <i_10388>:
    8000a808:	77500213          	li	tp,1909

000000008000a80c <i_10389>:
    8000a80c:	77900413          	li	s0,1913

000000008000a810 <i_10390>:
    8000a810:	00120213          	addi	tp,tp,1 # 564c3dd9 <main-0x29b3c227>
    8000a814:	fe824ee3          	blt	tp,s0,8000a810 <i_10390>

000000008000a818 <i_10391>:
    8000a818:	00900093          	li	ra,9

000000008000a81c <i_10392>:
    8000a81c:	0012533b          	srlw	t1,tp,ra

000000008000a820 <i_10393>:
    8000a820:	014f8a63          	beq	t6,s4,8000a834 <i_10398>

000000008000a824 <i_10394>:
    8000a824:	40335a13          	srai	s4,t1,0x3

000000008000a828 <i_10395>:
    8000a828:	00646863          	bltu	s0,t1,8000a838 <i_10399>

000000008000a82c <i_10396>:
    8000a82c:	01f0c263          	blt	ra,t6,8000a830 <i_10397>

000000008000a830 <i_10397>:
    8000a830:	046109a3          	sb	t1,83(sp)

000000008000a834 <i_10398>:
    8000a834:	001f6c33          	or	s8,t5,ra

000000008000a838 <i_10399>:
    8000a838:	0060da63          	ble	t1,ra,8000a84c <i_10404>

000000008000a83c <i_10400>:
    8000a83c:	06613423          	sd	t1,104(sp)

000000008000a840 <i_10401>:
    8000a840:	13811483          	lh	s1,312(sp)

000000008000a844 <i_10402>:
    8000a844:	0340e063          	bltu	ra,s4,8000a864 <i_10410>

000000008000a848 <i_10403>:
    8000a848:	faa11b03          	lh	s6,-86(sp)

000000008000a84c <i_10404>:
    8000a84c:	009c4863          	blt	s8,s1,8000a85c <i_10408>

000000008000a850 <i_10405>:
    8000a850:	0360ab33          	mulhsu	s6,ra,s6

000000008000a854 <i_10406>:
    8000a854:	0c416c03          	lwu	s8,196(sp)

000000008000a858 <i_10407>:
    8000a858:	0b013b03          	ld	s6,176(sp)

000000008000a85c <i_10408>:
    8000a85c:	f0211f83          	lh	t6,-254(sp)

000000008000a860 <i_10409>:
    8000a860:	f8110f83          	lb	t6,-127(sp)

000000008000a864 <i_10410>:
    8000a864:	e4212e23          	sw	sp,-420(sp)

000000008000a868 <i_10411>:
    8000a868:	1f07b793          	sltiu	a5,a5,496

000000008000a86c <i_10412>:
    8000a86c:	fe914e03          	lbu	t3,-23(sp)

000000008000a870 <i_10413>:
    8000a870:	006f7e63          	bleu	t1,t5,8000a88c <i_10420>

000000008000a874 <i_10414>:
    8000a874:	0367f263          	bleu	s6,a5,8000a898 <i_10423>

000000008000a878 <i_10415>:
    8000a878:	026b37b3          	mulhu	a5,s6,t1

000000008000a87c <i_10416>:
    8000a87c:	00000013          	nop

000000008000a880 <i_10417>:
    8000a880:	02d317b3          	mulh	a5,t1,a3

000000008000a884 <i_10418>:
    8000a884:	01511e23          	sh	s5,28(sp)

000000008000a888 <i_10419>:
    8000a888:	00000013          	nop

000000008000a88c <i_10420>:
    8000a88c:	0b611d83          	lh	s11,182(sp)

000000008000a890 <i_10421>:
    8000a890:	00000013          	nop

000000008000a894 <i_10422>:
    8000a894:	e7613c23          	sd	s6,-392(sp)

000000008000a898 <i_10423>:
    8000a898:	03b7b1b3          	mulhu	gp,a5,s11

000000008000a89c <i_10424>:
    8000a89c:	f2816783          	lwu	a5,-216(sp)

000000008000a8a0 <i_10425>:
    8000a8a0:	74300313          	li	t1,1859

000000008000a8a4 <i_10426>:
    8000a8a4:	75100b13          	li	s6,1873

000000008000a8a8 <i_10427>:
    8000a8a8:	0261f663          	bleu	t1,gp,8000a8d4 <i_10437>

000000008000a8ac <i_10428>:
    8000a8ac:	01f00293          	li	t0,31

000000008000a8b0 <i_10429>:
    8000a8b0:	4057d2bb          	sraw	t0,a5,t0

000000008000a8b4 <i_10430>:
    8000a8b4:	00130313          	addi	t1,t1,1
    8000a8b8:	ff6368e3          	bltu	t1,s6,8000a8a8 <i_10427>

000000008000a8bc <i_10431>:
    8000a8bc:	01e00593          	li	a1,30

000000008000a8c0 <i_10432>:
    8000a8c0:	00bad53b          	srlw	a0,s5,a1

000000008000a8c4 <i_10433>:
    8000a8c4:	00000013          	nop

000000008000a8c8 <i_10434>:
    8000a8c8:	0bf12223          	sw	t6,164(sp)

000000008000a8cc <i_10435>:
    8000a8cc:	0c414e03          	lbu	t3,196(sp)

000000008000a8d0 <i_10436>:
    8000a8d0:	01648b33          	add	s6,s1,s6

000000008000a8d4 <i_10437>:
    8000a8d4:	c8512197          	auipc	gp,0xc8512

000000008000a8d8 <i_10438>:
    8000a8d8:	e9610523          	sb	s6,-374(sp)

000000008000a8dc <i_10439>:
    8000a8dc:	8a900d93          	li	s11,-1879

000000008000a8e0 <i_10440>:
    8000a8e0:	8b700f93          	li	t6,-1865

000000008000a8e4 <i_10441>:
    8000a8e4:	0b610ca3          	sb	s6,185(sp)

000000008000a8e8 <i_10442>:
    8000a8e8:	09a13823          	sd	s10,144(sp)

000000008000a8ec <i_10443>:
    8000a8ec:	00000013          	nop

000000008000a8f0 <i_10444>:
    8000a8f0:	00259313          	slli	t1,a1,0x2

000000008000a8f4 <i_10445>:
    8000a8f4:	f0c12d03          	lw	s10,-244(sp)

000000008000a8f8 <i_10446>:
    8000a8f8:	0bc15303          	lhu	t1,188(sp)

000000008000a8fc <i_10447>:
    8000a8fc:	001d8d93          	addi	s11,s11,1
    8000a900:	ffbff2e3          	bleu	s11,t6,8000a8e4 <i_10441>

000000008000a904 <i_10448>:
    8000a904:	03000293          	li	t0,48

000000008000a908 <i_10449>:
    8000a908:	0053db33          	srl	s6,t2,t0

000000008000a90c <i_10450>:
    8000a90c:	01a2fe33          	and	t3,t0,s10

000000008000a910 <i_10451>:
    8000a910:	1c210403          	lb	s0,450(sp)

000000008000a914 <i_10452>:
    8000a914:	15613823          	sd	s6,336(sp)

000000008000a918 <i_10453>:
    8000a918:	09412283          	lw	t0,148(sp)

000000008000a91c <i_10454>:
    8000a91c:	0052f2b3          	and	t0,t0,t0

000000008000a920 <i_10455>:
    8000a920:	03013a83          	ld	s5,48(sp)

000000008000a924 <i_10456>:
    8000a924:	02529463          	bne	t0,t0,8000a94c <i_10466>

000000008000a928 <i_10457>:
    8000a928:	025af3bb          	remuw	t2,s5,t0

000000008000a92c <i_10458>:
    8000a92c:	405382bb          	subw	t0,t2,t0

000000008000a930 <i_10459>:
    8000a930:	10c12403          	lw	s0,268(sp)

000000008000a934 <i_10460>:
    8000a934:	f2815803          	lhu	a6,-216(sp)

000000008000a938 <i_10461>:
    8000a938:	0083da63          	ble	s0,t2,8000a94c <i_10466>

000000008000a93c <i_10462>:
    8000a93c:	e9611423          	sh	s6,-376(sp)

000000008000a940 <i_10463>:
    8000a940:	03085f33          	divu	t5,a6,a6

000000008000a944 <i_10464>:
    8000a944:	e7c12183          	lw	gp,-388(sp)

000000008000a948 <i_10465>:
    8000a948:	1e513023          	sd	t0,480(sp)

000000008000a94c <i_10466>:
    8000a94c:	fd314803          	lbu	a6,-45(sp)

000000008000a950 <i_10467>:
    8000a950:	e8312e23          	sw	gp,-356(sp)

000000008000a954 <i_10468>:
    8000a954:	03d80ebb          	mulw	t4,a6,t4

000000008000a958 <i_10469>:
    8000a958:	0027de93          	srli	t4,a5,0x2

000000008000a95c <i_10470>:
    8000a95c:	e4c16783          	lwu	a5,-436(sp)

000000008000a960 <i_10471>:
    8000a960:	0b511423          	sh	s5,168(sp)

000000008000a964 <i_10472>:
    8000a964:	02fe8ebb          	mulw	t4,t4,a5

000000008000a968 <i_10473>:
    8000a968:	01700c93          	li	s9,23

000000008000a96c <i_10474>:
    8000a96c:	419cd7b3          	sra	a5,s9,s9

000000008000a970 <i_10475>:
    8000a970:	f3c16d03          	lwu	s10,-196(sp)

000000008000a974 <i_10476>:
    8000a974:	e1011e23          	sh	a6,-484(sp)

000000008000a978 <i_10477>:
    8000a978:	14414f83          	lbu	t6,324(sp)

000000008000a97c <i_10478>:
    8000a97c:	01af8d33          	add	s10,t6,s10

000000008000a980 <i_10479>:
    8000a980:	19a10ea3          	sb	s10,413(sp)

000000008000a984 <i_10480>:
    8000a984:	08310f83          	lb	t6,131(sp)

000000008000a988 <i_10481>:
    8000a988:	01416d03          	lwu	s10,20(sp)

000000008000a98c <i_10482>:
    8000a98c:	01ad7663          	bleu	s10,s10,8000a998 <i_10485>

000000008000a990 <i_10483>:
    8000a990:	09a11023          	sh	s10,128(sp)

000000008000a994 <i_10484>:
    8000a994:	01f11c23          	sh	t6,24(sp)

000000008000a998 <i_10485>:
    8000a998:	a0dfb093          	sltiu	ra,t6,-1523

000000008000a99c <i_10486>:
    8000a99c:	ffc16303          	lwu	t1,-4(sp)

000000008000a9a0 <i_10487>:
    8000a9a0:	4d030f1b          	addiw	t5,t1,1232

000000008000a9a4 <i_10488>:
    8000a9a4:	0064ca63          	blt	s1,t1,8000a9b8 <i_10493>

000000008000a9a8 <i_10489>:
    8000a9a8:	fd415083          	lhu	ra,-44(sp)

000000008000a9ac <i_10490>:
    8000a9ac:	814beab7          	lui	s5,0x814be

000000008000a9b0 <i_10491>:
    8000a9b0:	f6211083          	lh	ra,-158(sp)

000000008000a9b4 <i_10492>:
    8000a9b4:	e9e15d83          	lhu	s11,-354(sp)

000000008000a9b8 <i_10493>:
    8000a9b8:	13015283          	lhu	t0,304(sp)

000000008000a9bc <i_10494>:
    8000a9bc:	06816683          	lwu	a3,104(sp)

000000008000a9c0 <i_10495>:
    8000a9c0:	01bdd663          	ble	s11,s11,8000a9cc <i_10498>

000000008000a9c4 <i_10496>:
    8000a9c4:	f0012b03          	lw	s6,-256(sp)

000000008000a9c8 <i_10497>:
    8000a9c8:	03bac6b3          	div	a3,s5,s11

000000008000a9cc <i_10498>:
    8000a9cc:	00169e63          	bne	a3,ra,8000a9e8 <i_10505>

000000008000a9d0 <i_10499>:
    8000a9d0:	00d69a63          	bne	a3,a3,8000a9e4 <i_10504>

000000008000a9d4 <i_10500>:
    8000a9d4:	001dda63          	ble	ra,s11,8000a9e8 <i_10505>

000000008000a9d8 <i_10501>:
    8000a9d8:	02469463          	bne	a3,tp,8000aa00 <i_10511>

000000008000a9dc <i_10502>:
    8000a9dc:	e5813b03          	ld	s6,-424(sp)

000000008000a9e0 <i_10503>:
    8000a9e0:	03200b13          	li	s6,50

000000008000a9e4 <i_10504>:
    8000a9e4:	01651b33          	sll	s6,a0,s6

000000008000a9e8 <i_10505>:
    8000a9e8:	f9710083          	lb	ra,-105(sp)

000000008000a9ec <i_10506>:
    8000a9ec:	f6c16783          	lwu	a5,-148(sp)

000000008000a9f0 <i_10507>:
    8000a9f0:	0c113c23          	sd	ra,216(sp)

000000008000a9f4 <i_10508>:
    8000a9f4:	ee113c23          	sd	ra,-264(sp)

000000008000a9f8 <i_10509>:
    8000a9f8:	0386b1b3          	mulhu	gp,a3,s8

000000008000a9fc <i_10510>:
    8000a9fc:	10d11d23          	sh	a3,282(sp)

000000008000aa00 <i_10511>:
    8000aa00:	1b013183          	ld	gp,432(sp)

000000008000aa04 <i_10512>:
    8000aa04:	00000013          	nop

000000008000aa08 <i_10513>:
    8000aa08:	85200c13          	li	s8,-1966

000000008000aa0c <i_10514>:
    8000aa0c:	85f00093          	li	ra,-1953

000000008000aa10 <i_10515>:
    8000aa10:	13013783          	ld	a5,304(sp)

000000008000aa14 <i_10516>:
    8000aa14:	41b682b3          	sub	t0,a3,s11

000000008000aa18 <i_10517>:
    8000aa18:	ee411b03          	lh	s6,-284(sp)

000000008000aa1c <i_10518>:
    8000aa1c:	14d12223          	sw	a3,324(sp)

000000008000aa20 <i_10519>:
    8000aa20:	00000013          	nop

000000008000aa24 <i_10520>:
    8000aa24:	ed613023          	sd	s6,-320(sp)

000000008000aa28 <i_10521>:
    8000aa28:	0ad13023          	sd	a3,160(sp)

000000008000aa2c <i_10522>:
    8000aa2c:	00000013          	nop

000000008000aa30 <i_10523>:
    8000aa30:	08c16e83          	lwu	t4,140(sp)

000000008000aa34 <i_10524>:
    8000aa34:	001c0c13          	addi	s8,s8,1
    8000aa38:	fc1c6ce3          	bltu	s8,ra,8000aa10 <i_10515>

000000008000aa3c <i_10525>:
    8000aa3c:	18013903          	ld	s2,384(sp)

000000008000aa40 <i_10526>:
    8000aa40:	00d0fe63          	bleu	a3,ra,8000aa5c <i_10533>

000000008000aa44 <i_10527>:
    8000aa44:	018284b3          	add	s1,t0,s8

000000008000aa48 <i_10528>:
    8000aa48:	ebd14b03          	lbu	s6,-323(sp)

000000008000aa4c <i_10529>:
    8000aa4c:	007dbc33          	sltu	s8,s11,t2

000000008000aa50 <i_10530>:
    8000aa50:	03b2ed33          	rem	s10,t0,s11

000000008000aa54 <i_10531>:
    8000aa54:	11212c23          	sw	s2,280(sp)

000000008000aa58 <i_10532>:
    8000aa58:	9779899b          	addiw	s3,s3,-1673

000000008000aa5c <i_10533>:
    8000aa5c:	e6412c83          	lw	s9,-412(sp)

000000008000aa60 <i_10534>:
    8000aa60:	413c8b33          	sub	s6,s9,s3

000000008000aa64 <i_10535>:
    8000aa64:	016c84b3          	add	s1,s9,s6

000000008000aa68 <i_10536>:
    8000aa68:	096104a3          	sb	s6,137(sp)

000000008000aa6c <i_10537>:
    8000aa6c:	11211283          	lh	t0,274(sp)

000000008000aa70 <i_10538>:
    8000aa70:	413f8ab3          	sub	s5,t6,s3

000000008000aa74 <i_10539>:
    8000aa74:	8cd4cd13          	xori	s10,s1,-1843

000000008000aa78 <i_10540>:
    8000aa78:	016c8833          	add	a6,s9,s6

000000008000aa7c <i_10541>:
    8000aa7c:	01939e63          	bne	t2,s9,8000aa98 <i_10548>

000000008000aa80 <i_10542>:
    8000aa80:	34c83b13          	sltiu	s6,a6,844

000000008000aa84 <i_10543>:
    8000aa84:	f3d11d23          	sh	t4,-198(sp)

000000008000aa88 <i_10544>:
    8000aa88:	01580663          	beq	a6,s5,8000aa94 <i_10547>

000000008000aa8c <i_10545>:
    8000aa8c:	030b49b3          	div	s3,s6,a6

000000008000aa90 <i_10546>:
    8000aa90:	0aa15d83          	lhu	s11,170(sp)

000000008000aa94 <i_10547>:
    8000aa94:	02976063          	bltu	a4,s1,8000aab4 <i_10555>

000000008000aa98 <i_10548>:
    8000aa98:	00100b13          	li	s6,1

000000008000aa9c <i_10549>:
    8000aa9c:	416adb33          	sra	s6,s5,s6

000000008000aaa0 <i_10550>:
    8000aaa0:	00500c13          	li	s8,5

000000008000aaa4 <i_10551>:
    8000aaa4:	0189d63b          	srlw	a2,s3,s8

000000008000aaa8 <i_10552>:
    8000aaa8:	02e28463          	beq	t0,a4,8000aad0 <i_10562>

000000008000aaac <i_10553>:
    8000aaac:	f1710983          	lb	s3,-233(sp)

000000008000aab0 <i_10554>:
    8000aab0:	11c16c03          	lwu	s8,284(sp)

000000008000aab4 <i_10555>:
    8000aab4:	418c0c3b          	subw	s8,s8,s8

000000008000aab8 <i_10556>:
    8000aab8:	e9812223          	sw	s8,-380(sp)

000000008000aabc <i_10557>:
    8000aabc:	00d00b93          	li	s7,13

000000008000aac0 <i_10558>:
    8000aac0:	0179d23b          	srlw	tp,s3,s7

000000008000aac4 <i_10559>:
    8000aac4:	f2411483          	lh	s1,-220(sp)

000000008000aac8 <i_10560>:
    8000aac8:	01849663          	bne	s1,s8,8000aad4 <i_10563>

000000008000aacc <i_10561>:
    8000aacc:	03898c3b          	mulw	s8,s3,s8

000000008000aad0 <i_10562>:
    8000aad0:	35b17c93          	andi	s9,sp,859

000000008000aad4 <i_10563>:
    8000aad4:	e3012983          	lw	s3,-464(sp)

000000008000aad8 <i_10564>:
    8000aad8:	0394fc33          	remu	s8,s1,s9

000000008000aadc <i_10565>:
    8000aadc:	10f14c83          	lbu	s9,271(sp)

000000008000aae0 <i_10566>:
    8000aae0:	0164ca63          	blt	s1,s6,8000aaf4 <i_10571>

000000008000aae4 <i_10567>:
    8000aae4:	07010523          	sb	a6,106(sp)

000000008000aae8 <i_10568>:
    8000aae8:	6ecbcb17          	auipc	s6,0x6ecbc

000000008000aaec <i_10569>:
    8000aaec:	01400b13          	li	s6,20

000000008000aaf0 <i_10570>:
    8000aaf0:	016b5abb          	srlw	s5,s6,s6

000000008000aaf4 <i_10571>:
    8000aaf4:	03013083          	ld	ra,48(sp)

000000008000aaf8 <i_10572>:
    8000aaf8:	036c56b3          	divu	a3,s8,s6

000000008000aafc <i_10573>:
    8000aafc:	fa015d83          	lhu	s11,-96(sp)

000000008000ab00 <i_10574>:
    8000ab00:	0a615e83          	lhu	t4,166(sp)

000000008000ab04 <i_10575>:
    8000ab04:	1d812503          	lw	a0,472(sp)

000000008000ab08 <i_10576>:
    8000ab08:	ef416b03          	lwu	s6,-268(sp)

000000008000ab0c <i_10577>:
    8000ab0c:	07611b03          	lh	s6,118(sp)

000000008000ab10 <i_10578>:
    8000ab10:	fd612623          	sw	s6,-52(sp)

000000008000ab14 <i_10579>:
    8000ab14:	15011b03          	lh	s6,336(sp)

000000008000ab18 <i_10580>:
    8000ab18:	fa012583          	lw	a1,-96(sp)

000000008000ab1c <i_10581>:
    8000ab1c:	e6c11a03          	lh	s4,-404(sp)

000000008000ab20 <i_10582>:
    8000ab20:	06812e83          	lw	t4,104(sp)

000000008000ab24 <i_10583>:
    8000ab24:	e4813b83          	ld	s7,-440(sp)

000000008000ab28 <i_10584>:
    8000ab28:	eb611523          	sh	s6,-342(sp)

000000008000ab2c <i_10585>:
    8000ab2c:	003a5b13          	srli	s6,s4,0x3

000000008000ab30 <i_10586>:
    8000ab30:	016b5863          	ble	s6,s6,8000ab40 <i_10590>

000000008000ab34 <i_10587>:
    8000ab34:	10014b03          	lbu	s6,256(sp)

000000008000ab38 <i_10588>:
    8000ab38:	b9c4e493          	ori	s1,s1,-1124

000000008000ab3c <i_10589>:
    8000ab3c:	07d13423          	sd	t4,104(sp)

000000008000ab40 <i_10590>:
    8000ab40:	0174e663          	bltu	s1,s7,8000ab4c <i_10593>

000000008000ab44 <i_10591>:
    8000ab44:	edd11523          	sh	t4,-310(sp)

000000008000ab48 <i_10592>:
    8000ab48:	01f4e4b3          	or	s1,s1,t6

000000008000ab4c <i_10593>:
    8000ab4c:	0c912223          	sw	s1,196(sp)

000000008000ab50 <i_10594>:
    8000ab50:	fb012483          	lw	s1,-80(sp)

000000008000ab54 <i_10595>:
    8000ab54:	f3113823          	sd	a7,-208(sp)

000000008000ab58 <i_10596>:
    8000ab58:	0094a4b3          	slt	s1,s1,s1

000000008000ab5c <i_10597>:
    8000ab5c:	4624cf13          	xori	t5,s1,1122

000000008000ab60 <i_10598>:
    8000ab60:	0ea10083          	lb	ra,234(sp)

000000008000ab64 <i_10599>:
    8000ab64:	0090f5b3          	and	a1,ra,s1

000000008000ab68 <i_10600>:
    8000ab68:	029084b3          	mul	s1,ra,s1

000000008000ab6c <i_10601>:
    8000ab6c:	eba11e03          	lh	t3,-326(sp)

000000008000ab70 <i_10602>:
    8000ab70:	0020d093          	srli	ra,ra,0x2

000000008000ab74 <i_10603>:
    8000ab74:	0c011083          	lh	ra,192(sp)

000000008000ab78 <i_10604>:
    8000ab78:	ff215c83          	lhu	s9,-14(sp)

000000008000ab7c <i_10605>:
    8000ab7c:	00361613          	slli	a2,a2,0x3

000000008000ab80 <i_10606>:
    8000ab80:	f8c10123          	sb	a2,-126(sp)

000000008000ab84 <i_10607>:
    8000ab84:	00000013          	nop

000000008000ab88 <i_10608>:
    8000ab88:	7a900093          	li	ra,1961

000000008000ab8c <i_10609>:
    8000ab8c:	7b400613          	li	a2,1972

000000008000ab90 <i_10610>:
    8000ab90:	028ce463          	bltu	s9,s0,8000abb8 <i_10620>

000000008000ab94 <i_10611>:
    8000ab94:	02c65cb3          	divu	s9,a2,a2

000000008000ab98 <i_10612>:
    8000ab98:	1b314a83          	lbu	s5,435(sp)

000000008000ab9c <i_10613>:
    8000ab9c:	0b5109a3          	sb	s5,179(sp)

000000008000aba0 <i_10614>:
    8000aba0:	e9016683          	lwu	a3,-368(sp)

000000008000aba4 <i_10615>:
    8000aba4:	00cc8263          	beq	s9,a2,8000aba8 <i_10616>

000000008000aba8 <i_10616>:
    8000aba8:	40df8d3b          	subw	s10,t6,a3

000000008000abac <i_10617>:
    8000abac:	00a00e93          	li	t4,10

000000008000abb0 <i_10618>:
    8000abb0:	01dd19b3          	sll	s3,s10,t4

000000008000abb4 <i_10619>:
    8000abb4:	41d10bbb          	subw	s7,sp,t4

000000008000abb8 <i_10620>:
    8000abb8:	03a475bb          	remuw	a1,s0,s10

000000008000abbc <i_10621>:
    8000abbc:	f3314403          	lbu	s0,-205(sp)

000000008000abc0 <i_10622>:
    8000abc0:	f6815403          	lhu	s0,-152(sp)

000000008000abc4 <i_10623>:
    8000abc4:	00ccfe63          	bleu	a2,s9,8000abe0 <i_10629>

000000008000abc8 <i_10624>:
    8000abc8:	66a67413          	andi	s0,a2,1642

000000008000abcc <i_10625>:
    8000abcc:	00108093          	addi	ra,ra,1
    8000abd0:	fcc0e0e3          	bltu	ra,a2,8000ab90 <i_10610>

000000008000abd4 <i_10626>:
    8000abd4:	07410c83          	lb	s9,116(sp)

000000008000abd8 <i_10627>:
    8000abd8:	019cc863          	blt	s9,s9,8000abe8 <i_10631>

000000008000abdc <i_10628>:
    8000abdc:	f5015183          	lhu	gp,-176(sp)

000000008000abe0 <i_10629>:
    8000abe0:	16811e23          	sh	s0,380(sp)

000000008000abe4 <i_10630>:
    8000abe4:	01970c63          	beq	a4,s9,8000abfc <i_10636>

000000008000abe8 <i_10631>:
    8000abe8:	11813583          	ld	a1,280(sp)

000000008000abec <i_10632>:
    8000abec:	003d0e63          	beq	s10,gp,8000ac08 <i_10639>

000000008000abf0 <i_10633>:
    8000abf0:	415c8abb          	subw	s5,s9,s5

000000008000abf4 <i_10634>:
    8000abf4:	ea3103a3          	sb	gp,-345(sp)

000000008000abf8 <i_10635>:
    8000abf8:	021a8063          	beq	s5,ra,8000ac18 <i_10643>

000000008000abfc <i_10636>:
    8000abfc:	eb816903          	lwu	s2,-328(sp)

000000008000ac00 <i_10637>:
    8000ac00:	4191043b          	subw	s0,sp,s9

000000008000ac04 <i_10638>:
    8000ac04:	00844a63          	blt	s0,s0,8000ac18 <i_10643>

000000008000ac08 <i_10639>:
    8000ac08:	035ed263          	ble	s5,t4,8000ac2c <i_10648>

000000008000ac0c <i_10640>:
    8000ac0c:	c7347b13          	andi	s6,s0,-909

000000008000ac10 <i_10641>:
    8000ac10:	0f114183          	lbu	gp,241(sp)

000000008000ac14 <i_10642>:
    8000ac14:	eb510c83          	lb	s9,-331(sp)

000000008000ac18 <i_10643>:
    8000ac18:	ea910b03          	lb	s6,-343(sp)

000000008000ac1c <i_10644>:
    8000ac1c:	eb511c23          	sh	s5,-328(sp)

000000008000ac20 <i_10645>:
    8000ac20:	fa666b97          	auipc	s7,0xfa666

000000008000ac24 <i_10646>:
    8000ac24:	5e193913          	sltiu	s2,s2,1505

000000008000ac28 <i_10647>:
    8000ac28:	02e1ffbb          	remuw	t6,gp,a4

000000008000ac2c <i_10648>:
    8000ac2c:	f6816083          	lwu	ra,-152(sp)

000000008000ac30 <i_10649>:
    8000ac30:	f1f12e23          	sw	t6,-228(sp)

000000008000ac34 <i_10650>:
    8000ac34:	77f00c93          	li	s9,1919

000000008000ac38 <i_10651>:
    8000ac38:	78100f13          	li	t5,1921

000000008000ac3c <i_10652>:
    8000ac3c:	00900413          	li	s0,9

000000008000ac40 <i_10653>:
    8000ac40:	4084593b          	sraw	s2,s0,s0

000000008000ac44 <i_10654>:
    8000ac44:	0b610ea3          	sb	s6,189(sp)

000000008000ac48 <i_10655>:
    8000ac48:	10812f83          	lw	t6,264(sp)

000000008000ac4c <i_10656>:
    8000ac4c:	00441c63          	bne	s0,tp,8000ac64 <i_10662>

000000008000ac50 <i_10657>:
    8000ac50:	0b211503          	lh	a0,178(sp)

000000008000ac54 <i_10658>:
    8000ac54:	04314583          	lbu	a1,67(sp)

000000008000ac58 <i_10659>:
    8000ac58:	1ae15f83          	lhu	t6,430(sp)

000000008000ac5c <i_10660>:
    8000ac5c:	19813503          	ld	a0,408(sp)

000000008000ac60 <i_10661>:
    8000ac60:	00210483          	lb	s1,2(sp)

000000008000ac64 <i_10662>:
    8000ac64:	003ad19b          	srliw	gp,s5,0x3

000000008000ac68 <i_10663>:
    8000ac68:	f1016e83          	lwu	t4,-240(sp)

000000008000ac6c <i_10664>:
    8000ac6c:	003c9513          	slli	a0,s9,0x3

000000008000ac70 <i_10665>:
    8000ac70:	001c8c93          	addi	s9,s9,1
    8000ac74:	fdecc4e3          	blt	s9,t5,8000ac3c <i_10652>

000000008000ac78 <i_10666>:
    8000ac78:	00790863          	beq	s2,t2,8000ac88 <i_10670>

000000008000ac7c <i_10667>:
    8000ac7c:	0a014b03          	lbu	s6,160(sp)

000000008000ac80 <i_10668>:
    8000ac80:	fc812e23          	sw	s0,-36(sp)

000000008000ac84 <i_10669>:
    8000ac84:	03608c3b          	mulw	s8,ra,s6

000000008000ac88 <i_10670>:
    8000ac88:	01000293          	li	t0,16

000000008000ac8c <i_10671>:
    8000ac8c:	005597b3          	sll	a5,a1,t0

000000008000ac90 <i_10672>:
    8000ac90:	77a00913          	li	s2,1914

000000008000ac94 <i_10673>:
    8000ac94:	78d00f93          	li	t6,1933

000000008000ac98 <i_10674>:
    8000ac98:	1c611623          	sh	t1,460(sp)

000000008000ac9c <i_10675>:
    8000ac9c:	f8a12423          	sw	a0,-120(sp)

000000008000aca0 <i_10676>:
    8000aca0:	01a00d93          	li	s11,26

000000008000aca4 <i_10677>:
    8000aca4:	41b0d833          	sra	a6,ra,s11

000000008000aca8 <i_10678>:
    8000aca8:	162de513          	ori	a0,s11,354

000000008000acac <i_10679>:
    8000acac:	03080463          	beq	a6,a6,8000acd4 <i_10688>

000000008000acb0 <i_10680>:
    8000acb0:	02add263          	ble	a0,s11,8000acd4 <i_10688>

000000008000acb4 <i_10681>:
    8000acb4:	02a33f33          	mulhu	t5,t1,a0

000000008000acb8 <i_10682>:
    8000acb8:	00190913          	addi	s2,s2,1
    8000acbc:	fd2fdee3          	ble	s2,t6,8000ac98 <i_10674>

000000008000acc0 <i_10683>:
    8000acc0:	00013f03          	ld	t5,0(sp)

000000008000acc4 <i_10684>:
    8000acc4:	01ef5863          	ble	t5,t5,8000acd4 <i_10688>

000000008000acc8 <i_10685>:
    8000acc8:	0dc16583          	lwu	a1,220(sp)

000000008000accc <i_10686>:
    8000accc:	f2857d13          	andi	s10,a0,-216

000000008000acd0 <i_10687>:
    8000acd0:	00af7463          	bleu	a0,t5,8000acd8 <i_10689>

000000008000acd4 <i_10688>:
    8000acd4:	e9416683          	lwu	a3,-364(sp)

000000008000acd8 <i_10689>:
    8000acd8:	01a5ea63          	bltu	a1,s10,8000acec <i_10694>

000000008000acdc <i_10690>:
    8000acdc:	00587c63          	bleu	t0,a6,8000acf4 <i_10696>

000000008000ace0 <i_10691>:
    8000ace0:	07a13823          	sd	s10,112(sp)

000000008000ace4 <i_10692>:
    8000ace4:	1f657813          	andi	a6,a0,502

000000008000ace8 <i_10693>:
    8000ace8:	03dd5463          	ble	t4,s10,8000ad10 <i_10703>

000000008000acec <i_10694>:
    8000acec:	ed514283          	lbu	t0,-299(sp)

000000008000acf0 <i_10695>:
    8000acf0:	00000013          	nop

000000008000acf4 <i_10696>:
    8000acf4:	547ee513          	ori	a0,t4,1351

000000008000acf8 <i_10697>:
    8000acf8:	0305583b          	divuw	a6,a0,a6

000000008000acfc <i_10698>:
    8000acfc:	02411803          	lh	a6,36(sp)

000000008000ad00 <i_10699>:
    8000ad00:	ea013803          	ld	a6,-352(sp)

000000008000ad04 <i_10700>:
    8000ad04:	1a614c03          	lbu	s8,422(sp)

000000008000ad08 <i_10701>:
    8000ad08:	0302f2b3          	remu	t0,t0,a6

000000008000ad0c <i_10702>:
    8000ad0c:	18415c03          	lhu	s8,388(sp)

000000008000ad10 <i_10703>:
    8000ad10:	1b011723          	sh	a6,430(sp)

000000008000ad14 <i_10704>:
    8000ad14:	401c5a1b          	sraiw	s4,s8,0x1

000000008000ad18 <i_10705>:
    8000ad18:	80c00b13          	li	s6,-2036

000000008000ad1c <i_10706>:
    8000ad1c:	81a00e93          	li	t4,-2022

000000008000ad20 <i_10707>:
    8000ad20:	0032dc1b          	srliw	s8,t0,0x3

000000008000ad24 <i_10708>:
    8000ad24:	19812223          	sw	s8,388(sp)

000000008000ad28 <i_10709>:
    8000ad28:	001b0b13          	addi	s6,s6,1 # eecc6ae9 <_end+0x6ecb66d5>
    8000ad2c:	ffdb4ae3          	blt	s6,t4,8000ad20 <i_10707>

000000008000ad30 <i_10710>:
    8000ad30:	fe813c03          	ld	s8,-24(sp)

000000008000ad34 <i_10711>:
    8000ad34:	018a6fb3          	or	t6,s4,s8

000000008000ad38 <i_10712>:
    8000ad38:	002b1a1b          	slliw	s4,s6,0x2

000000008000ad3c <i_10713>:
    8000ad3c:	00000013          	nop

000000008000ad40 <i_10714>:
    8000ad40:	78200313          	li	t1,1922

000000008000ad44 <i_10715>:
    8000ad44:	78900b13          	li	s6,1929

000000008000ad48 <i_10716>:
    8000ad48:	15612423          	sw	s6,328(sp)

000000008000ad4c <i_10717>:
    8000ad4c:	1c615503          	lhu	a0,454(sp)

000000008000ad50 <i_10718>:
    8000ad50:	f1811983          	lh	s3,-232(sp)

000000008000ad54 <i_10719>:
    8000ad54:	12813983          	ld	s3,296(sp)

000000008000ad58 <i_10720>:
    8000ad58:	154100a3          	sb	s4,321(sp)

000000008000ad5c <i_10721>:
    8000ad5c:	00130313          	addi	t1,t1,1
    8000ad60:	ff6364e3          	bltu	t1,s6,8000ad48 <i_10716>

000000008000ad64 <i_10722>:
    8000ad64:	02630cb3          	mul	s9,t1,t1

000000008000ad68 <i_10723>:
    8000ad68:	00e11503          	lh	a0,14(sp)

000000008000ad6c <i_10724>:
    8000ad6c:	9a770337          	lui	t1,0x9a770

000000008000ad70 <i_10725>:
    8000ad70:	02631063          	bne	t1,t1,8000ad90 <i_10733>

000000008000ad74 <i_10726>:
    8000ad74:	eaa10923          	sb	a0,-334(sp)

000000008000ad78 <i_10727>:
    8000ad78:	aab54c93          	xori	s9,a0,-1365

000000008000ad7c <i_10728>:
    8000ad7c:	00a00513          	li	a0,10

000000008000ad80 <i_10729>:
    8000ad80:	00a354bb          	srlw	s1,t1,a0

000000008000ad84 <i_10730>:
    8000ad84:	01a00313          	li	t1,26

000000008000ad88 <i_10731>:
    8000ad88:	006c9cbb          	sllw	s9,s9,t1

000000008000ad8c <i_10732>:
    8000ad8c:	40eb0d3b          	subw	s10,s6,a4

000000008000ad90 <i_10733>:
    8000ad90:	029323b3          	mulhsu	t2,t1,s1

000000008000ad94 <i_10734>:
    8000ad94:	ed416d03          	lwu	s10,-300(sp)

000000008000ad98 <i_10735>:
    8000ad98:	00a30863          	beq	t1,a0,8000ada8 <i_10739>

000000008000ad9c <i_10736>:
    8000ad9c:	06912423          	sw	s1,104(sp)

000000008000ada0 <i_10737>:
    8000ada0:	01800f93          	li	t6,24

000000008000ada4 <i_10738>:
    8000ada4:	41f6d4bb          	sraw	s1,a3,t6

000000008000ada8 <i_10739>:
    8000ada8:	e5416403          	lwu	s0,-428(sp)

000000008000adac <i_10740>:
    8000adac:	09813783          	ld	a5,152(sp)

000000008000adb0 <i_10741>:
    8000adb0:	1c012f83          	lw	t6,448(sp)

000000008000adb4 <i_10742>:
    8000adb4:	fef12823          	sw	a5,-16(sp)

000000008000adb8 <i_10743>:
    8000adb8:	02f6fa33          	remu	s4,a3,a5

000000008000adbc <i_10744>:
    8000adbc:	f5c15683          	lhu	a3,-164(sp)

000000008000adc0 <i_10745>:
    8000adc0:	02510c83          	lb	s9,37(sp)

000000008000adc4 <i_10746>:
    8000adc4:	83d00793          	li	a5,-1987

000000008000adc8 <i_10747>:
    8000adc8:	84d00f93          	li	t6,-1971

000000008000adcc <i_10748>:
    8000adcc:	039cfcb3          	remu	s9,s9,s9

000000008000add0 <i_10749>:
    8000add0:	019cee63          	bltu	s9,s9,8000adec <i_10755>

000000008000add4 <i_10750>:
    8000add4:	0c013c83          	ld	s9,192(sp)

000000008000add8 <i_10751>:
    8000add8:	00178793          	addi	a5,a5,1
    8000addc:	fefff8e3          	bleu	a5,t6,8000adcc <i_10748>

000000008000ade0 <i_10752>:
    8000ade0:	40ac8cb3          	sub	s9,s9,a0

000000008000ade4 <i_10753>:
    8000ade4:	00112c33          	slt	s8,sp,ra

000000008000ade8 <i_10754>:
    8000ade8:	03866633          	rem	a2,a2,s8

000000008000adec <i_10755>:
    8000adec:	fa814603          	lbu	a2,-88(sp)

000000008000adf0 <i_10756>:
    8000adf0:	ef812c23          	sw	s8,-264(sp)

000000008000adf4 <i_10757>:
    8000adf4:	40455b1b          	sraiw	s6,a0,0x4

000000008000adf8 <i_10758>:
    8000adf8:	001d5d13          	srli	s10,s10,0x1

000000008000adfc <i_10759>:
    8000adfc:	90d3e393          	ori	t2,t2,-1779

000000008000ae00 <i_10760>:
    8000ae00:	eda10723          	sb	s10,-306(sp)

000000008000ae04 <i_10761>:
    8000ae04:	02478263          	beq	a5,tp,8000ae28 <i_10770>

000000008000ae08 <i_10762>:
    8000ae08:	00c102a3          	sb	a2,5(sp)

000000008000ae0c <i_10763>:
    8000ae0c:	1a016903          	lwu	s2,416(sp)

000000008000ae10 <i_10764>:
    8000ae10:	f2c106a3          	sb	a2,-211(sp)

000000008000ae14 <i_10765>:
    8000ae14:	01a3fe63          	bleu	s10,t2,8000ae30 <i_10772>

000000008000ae18 <i_10766>:
    8000ae18:	01638633          	add	a2,t2,s6

000000008000ae1c <i_10767>:
    8000ae1c:	f3013383          	ld	t2,-208(sp)

000000008000ae20 <i_10768>:
    8000ae20:	0273d463          	ble	t2,t2,8000ae48 <i_10778>

000000008000ae24 <i_10769>:
    8000ae24:	03360463          	beq	a2,s3,8000ae4c <i_10779>

000000008000ae28 <i_10770>:
    8000ae28:	1c910383          	lb	t2,457(sp)

000000008000ae2c <i_10771>:
    8000ae2c:	e9210e03          	lb	t3,-366(sp)

000000008000ae30 <i_10772>:
    8000ae30:	013df9b3          	and	s3,s11,s3

000000008000ae34 <i_10773>:
    8000ae34:	e3310a23          	sb	s3,-460(sp)

000000008000ae38 <i_10774>:
    8000ae38:	05313823          	sd	s3,80(sp)

000000008000ae3c <i_10775>:
    8000ae3c:	005e42b3          	xor	t0,t3,t0

000000008000ae40 <i_10776>:
    8000ae40:	01c29663          	bne	t0,t3,8000ae4c <i_10779>

000000008000ae44 <i_10777>:
    8000ae44:	02565463          	ble	t0,a2,8000ae6c <i_10787>

000000008000ae48 <i_10778>:
    8000ae48:	e6a14783          	lbu	a5,-406(sp)

000000008000ae4c <i_10779>:
    8000ae4c:	01399863          	bne	s3,s3,8000ae5c <i_10783>

000000008000ae50 <i_10780>:
    8000ae50:	fdd10983          	lb	s3,-35(sp)

000000008000ae54 <i_10781>:
    8000ae54:	0019d51b          	srliw	a0,s3,0x1

000000008000ae58 <i_10782>:
    8000ae58:	01000f13          	li	t5,16

000000008000ae5c <i_10783>:
    8000ae5c:	01e557bb          	srlw	a5,a0,t5

000000008000ae60 <i_10784>:
    8000ae60:	02a7e463          	bltu	a5,a0,8000ae88 <i_10794>

000000008000ae64 <i_10785>:
    8000ae64:	02af97b3          	mulh	a5,t6,a0

000000008000ae68 <i_10786>:
    8000ae68:	03e45f33          	divu	t5,s0,t5

000000008000ae6c <i_10787>:
    8000ae6c:	02af4c3b          	divw	s8,t5,a0

000000008000ae70 <i_10788>:
    8000ae70:	00df7263          	bleu	a3,t5,8000ae74 <i_10789>

000000008000ae74 <i_10789>:
    8000ae74:	00814503          	lbu	a0,8(sp)

000000008000ae78 <i_10790>:
    8000ae78:	12a13823          	sd	a0,304(sp)

000000008000ae7c <i_10791>:
    8000ae7c:	c1d38793          	addi	a5,t2,-995

000000008000ae80 <i_10792>:
    8000ae80:	14c12c03          	lw	s8,332(sp)

000000008000ae84 <i_10793>:
    8000ae84:	06614383          	lbu	t2,102(sp)

000000008000ae88 <i_10794>:
    8000ae88:	e7816783          	lwu	a5,-392(sp)

000000008000ae8c <i_10795>:
    8000ae8c:	1dc11b83          	lh	s7,476(sp)

000000008000ae90 <i_10796>:
    8000ae90:	03800993          	li	s3,56

000000008000ae94 <i_10797>:
    8000ae94:	01381833          	sll	a6,a6,s3

000000008000ae98 <i_10798>:
    8000ae98:	03dfffb3          	remu	t6,t6,t4

000000008000ae9c <i_10799>:
    8000ae9c:	cfaa2a13          	slti	s4,s4,-774

000000008000aea0 <i_10800>:
    8000aea0:	8a900e93          	li	t4,-1879

000000008000aea4 <i_10801>:
    8000aea4:	8b900493          	li	s1,-1863

000000008000aea8 <i_10802>:
    8000aea8:	f1410c03          	lb	s8,-236(sp)

000000008000aeac <i_10803>:
    8000aeac:	001e8e93          	addi	t4,t4,1 # 35643db5 <main-0x4a9bc24b>
    8000aeb0:	fe9ecce3          	blt	t4,s1,8000aea8 <i_10802>

000000008000aeb4 <i_10804>:
    8000aeb4:	f6812e83          	lw	t4,-152(sp)

000000008000aeb8 <i_10805>:
    8000aeb8:	013afa63          	bleu	s3,s5,8000aecc <i_10810>

000000008000aebc <i_10806>:
    8000aebc:	002c4eb3          	xor	t4,s8,sp

000000008000aec0 <i_10807>:
    8000aec0:	19a11083          	lh	ra,410(sp)

000000008000aec4 <i_10808>:
    8000aec4:	eac10423          	sb	a2,-344(sp)

000000008000aec8 <i_10809>:
    8000aec8:	001a0463          	beq	s4,ra,8000aed0 <i_10811>

000000008000aecc <i_10810>:
    8000aecc:	003b199b          	slliw	s3,s6,0x3

000000008000aed0 <i_10811>:
    8000aed0:	5a59c093          	xori	ra,s3,1445

000000008000aed4 <i_10812>:
    8000aed4:	06112a23          	sw	ra,116(sp)

000000008000aed8 <i_10813>:
    8000aed8:	fd413c23          	sd	s4,-40(sp)

000000008000aedc <i_10814>:
    8000aedc:	0f811f23          	sh	s8,254(sp)

000000008000aee0 <i_10815>:
    8000aee0:	a5a0f393          	andi	t2,ra,-1446

000000008000aee4 <i_10816>:
    8000aee4:	1e411303          	lh	t1,484(sp)

000000008000aee8 <i_10817>:
    8000aee8:	03e00a93          	li	s5,62

000000008000aeec <i_10818>:
    8000aeec:	015d5c33          	srl	s8,s10,s5

000000008000aef0 <i_10819>:
    8000aef0:	03def063          	bleu	t4,t4,8000af10 <i_10827>

000000008000aef4 <i_10820>:
    8000aef4:	1e415e83          	lhu	t4,484(sp)

000000008000aef8 <i_10821>:
    8000aef8:	f6411a83          	lh	s5,-156(sp)

000000008000aefc <i_10822>:
    8000aefc:	00000013          	nop

000000008000af00 <i_10823>:
    8000af00:	0261a1b3          	mulhsu	gp,gp,t1

000000008000af04 <i_10824>:
    8000af04:	01400f93          	li	t6,20

000000008000af08 <i_10825>:
    8000af08:	01f599bb          	sllw	s3,a1,t6

000000008000af0c <i_10826>:
    8000af0c:	02b1e5bb          	remw	a1,gp,a1

000000008000af10 <i_10827>:
    8000af10:	8147f593          	andi	a1,a5,-2028

000000008000af14 <i_10828>:
    8000af14:	01900993          	li	s3,25

000000008000af18 <i_10829>:
    8000af18:	413ed63b          	sraw	a2,t4,s3

000000008000af1c <i_10830>:
    8000af1c:	7ec00313          	li	t1,2028

000000008000af20 <i_10831>:
    8000af20:	7f100e93          	li	t4,2033

000000008000af24 <i_10832>:
    8000af24:	00479793          	slli	a5,a5,0x4

000000008000af28 <i_10833>:
    8000af28:	00a00093          	li	ra,10

000000008000af2c <i_10834>:
    8000af2c:	00165abb          	srlw	s5,a2,ra

000000008000af30 <i_10835>:
    8000af30:	00130313          	addi	t1,t1,1 # ffffffff9a770001 <_end+0xffffffff1a75fbed>
    8000af34:	fe6ed6e3          	ble	t1,t4,8000af20 <i_10831>

000000008000af38 <i_10836>:
    8000af38:	00b13423          	sd	a1,8(sp)

000000008000af3c <i_10837>:
    8000af3c:	02b0f463          	bleu	a1,ra,8000af64 <i_10847>

000000008000af40 <i_10838>:
    8000af40:	00fbd463          	ble	a5,s7,8000af48 <i_10840>

000000008000af44 <i_10839>:
    8000af44:	1a111323          	sh	ra,422(sp)

000000008000af48 <i_10840>:
    8000af48:	00cce463          	bltu	s9,a2,8000af50 <i_10842>

000000008000af4c <i_10841>:
    8000af4c:	00c1c663          	blt	gp,a2,8000af58 <i_10844>

000000008000af50 <i_10842>:
    8000af50:	035ac463          	blt	s5,s5,8000af78 <i_10852>

000000008000af54 <i_10843>:
    8000af54:	00a00a93          	li	s5,10

000000008000af58 <i_10844>:
    8000af58:	015597bb          	sllw	a5,a1,s5

000000008000af5c <i_10845>:
    8000af5c:	0356cabb          	divw	s5,a3,s5

000000008000af60 <i_10846>:
    8000af60:	d0d6f7b7          	lui	a5,0xd0d6f

000000008000af64 <i_10847>:
    8000af64:	1c110e23          	sb	ra,476(sp)

000000008000af68 <i_10848>:
    8000af68:	0a813603          	ld	a2,168(sp)

000000008000af6c <i_10849>:
    8000af6c:	001f9193          	slli	gp,t6,0x1

000000008000af70 <i_10850>:
    8000af70:	01f6fe63          	bleu	t6,a3,8000af8c <i_10857>

000000008000af74 <i_10851>:
    8000af74:	00c3ee63          	bltu	t2,a2,8000af90 <i_10858>

000000008000af78 <i_10852>:
    8000af78:	02a10a83          	lb	s5,42(sp)

000000008000af7c <i_10853>:
    8000af7c:	17511123          	sh	s5,354(sp)

000000008000af80 <i_10854>:
    8000af80:	015afab3          	and	s5,s5,s5

000000008000af84 <i_10855>:
    8000af84:	015aea63          	bltu	s5,s5,8000af98 <i_10860>

000000008000af88 <i_10856>:
    8000af88:	0231eabb          	remw	s5,gp,gp

000000008000af8c <i_10857>:
    8000af8c:	fe512a23          	sw	t0,-12(sp)

000000008000af90 <i_10858>:
    8000af90:	18611183          	lh	gp,390(sp)

000000008000af94 <i_10859>:
    8000af94:	4eb29297          	auipc	t0,0x4eb29

000000008000af98 <i_10860>:
    8000af98:	00f13023          	sd	a5,0(sp)

000000008000af9c <i_10861>:
    8000af9c:	f0513c23          	sd	t0,-232(sp)

000000008000afa0 <i_10862>:
    8000afa0:	0152eab3          	or	s5,t0,s5

000000008000afa4 <i_10863>:
    8000afa4:	05512a23          	sw	s5,84(sp)

000000008000afa8 <i_10864>:
    8000afa8:	014f8a63          	beq	t6,s4,8000afbc <i_10869>

000000008000afac <i_10865>:
    8000afac:	e5613c23          	sd	s6,-424(sp)

000000008000afb0 <i_10866>:
    8000afb0:	02528fb3          	mul	t6,t0,t0

000000008000afb4 <i_10867>:
    8000afb4:	03ff8263          	beq	t6,t6,8000afd8 <i_10876>

000000008000afb8 <i_10868>:
    8000afb8:	0259593b          	divuw	s2,s2,t0

000000008000afbc <i_10869>:
    8000afbc:	0c411423          	sh	tp,200(sp)

000000008000afc0 <i_10870>:
    8000afc0:	ef610603          	lb	a2,-266(sp)

000000008000afc4 <i_10871>:
    8000afc4:	49f6029b          	addiw	t0,a2,1183

000000008000afc8 <i_10872>:
    8000afc8:	fda15683          	lhu	a3,-38(sp)

000000008000afcc <i_10873>:
    8000afcc:	402b529b          	sraiw	t0,s6,0x2

000000008000afd0 <i_10874>:
    8000afd0:	0255d063          	ble	t0,a1,8000aff0 <i_10882>

000000008000afd4 <i_10875>:
    8000afd4:	005fb3b3          	sltu	t2,t6,t0

000000008000afd8 <i_10876>:
    8000afd8:	007282b3          	add	t0,t0,t2

000000008000afdc <i_10877>:
    8000afdc:	02d2c263          	blt	t0,a3,8000b000 <i_10886>

000000008000afe0 <i_10878>:
    8000afe0:	e7c12783          	lw	a5,-388(sp)

000000008000afe4 <i_10879>:
    8000afe4:	007fd863          	ble	t2,t6,8000aff4 <i_10883>

000000008000afe8 <i_10880>:
    8000afe8:	00618863          	beq	gp,t1,8000aff8 <i_10884>

000000008000afec <i_10881>:
    8000afec:	00000013          	nop

000000008000aff0 <i_10882>:
    8000aff0:	004ada93          	srli	s5,s5,0x4

000000008000aff4 <i_10883>:
    8000aff4:	00700e13          	li	t3,7

000000008000aff8 <i_10884>:
    8000aff8:	01c696b3          	sll	a3,a3,t3

000000008000affc <i_10885>:
    8000affc:	00000013          	nop

000000008000b000 <i_10886>:
    8000b000:	00000013          	nop

000000008000b004 <i_10887>:
    8000b004:	19813203          	ld	tp,408(sp)

000000008000b008 <i_10888>:
    8000b008:	79000b13          	li	s6,1936

000000008000b00c <i_10889>:
    8000b00c:	79d00513          	li	a0,1949

000000008000b010 <i_10890>:
    8000b010:	003f9093          	slli	ra,t6,0x3

000000008000b014 <i_10891>:
    8000b014:	f4f14303          	lbu	t1,-177(sp)

000000008000b018 <i_10892>:
    8000b018:	025ce463          	bltu	s9,t0,8000b040 <i_10901>

000000008000b01c <i_10893>:
    8000b01c:	00000013          	nop

000000008000b020 <i_10894>:
    8000b020:	04512823          	sw	t0,80(sp)

000000008000b024 <i_10895>:
    8000b024:	18d106a3          	sb	a3,397(sp)

000000008000b028 <i_10896>:
    8000b028:	02569eb3          	mulh	t4,a3,t0

000000008000b02c <i_10897>:
    8000b02c:	1b812183          	lw	gp,440(sp)

000000008000b030 <i_10898>:
    8000b030:	001b0b13          	addi	s6,s6,1
    8000b034:	fd657ee3          	bleu	s6,a0,8000b010 <i_10890>

000000008000b038 <i_10899>:
    8000b038:	97608513          	addi	a0,ra,-1674

000000008000b03c <i_10900>:
    8000b03c:	00568333          	add	t1,a3,t0

000000008000b040 <i_10901>:
    8000b040:	0dd7a493          	slti	s1,a5,221

000000008000b044 <i_10902>:
    8000b044:	02656abb          	remw	s5,a0,t1

000000008000b048 <i_10903>:
    8000b048:	0014cc63          	blt	s1,ra,8000b060 <i_10909>

000000008000b04c <i_10904>:
    8000b04c:	00d55e63          	ble	a3,a0,8000b068 <i_10911>

000000008000b050 <i_10905>:
    8000b050:	eec10d03          	lb	s10,-276(sp)

000000008000b054 <i_10906>:
    8000b054:	ee815283          	lhu	t0,-280(sp)

000000008000b058 <i_10907>:
    8000b058:	03a936b3          	mulhu	a3,s2,s10

000000008000b05c <i_10908>:
    8000b05c:	038d5c33          	divu	s8,s10,s8

000000008000b060 <i_10909>:
    8000b060:	00520233          	add	tp,tp,t0

000000008000b064 <i_10910>:
    8000b064:	1d015583          	lhu	a1,464(sp)

000000008000b068 <i_10911>:
    8000b068:	12513423          	sd	t0,296(sp)

000000008000b06c <i_10912>:
    8000b06c:	eee15183          	lhu	gp,-274(sp)

000000008000b070 <i_10913>:
    8000b070:	f0011483          	lh	s1,-256(sp)

000000008000b074 <i_10914>:
    8000b074:	02200d13          	li	s10,34

000000008000b078 <i_10915>:
    8000b078:	01a29233          	sll	tp,t0,s10

000000008000b07c <i_10916>:
    8000b07c:	74400293          	li	t0,1860

000000008000b080 <i_10917>:
    8000b080:	75400a13          	li	s4,1876

000000008000b084 <i_10918>:
    8000b084:	41a20d3b          	subw	s10,tp,s10

000000008000b088 <i_10919>:
    8000b088:	ed510d83          	lb	s11,-299(sp)

000000008000b08c <i_10920>:
    8000b08c:	8c600693          	li	a3,-1850

000000008000b090 <i_10921>:
    8000b090:	8d800613          	li	a2,-1832

000000008000b094 <i_10922>:
    8000b094:	1cc14783          	lbu	a5,460(sp)

000000008000b098 <i_10923>:
    8000b098:	00000013          	nop

000000008000b09c <i_10924>:
    8000b09c:	eac14d03          	lbu	s10,-340(sp)

000000008000b0a0 <i_10925>:
    8000b0a0:	029d5abb          	divuw	s5,s10,s1

000000008000b0a4 <i_10926>:
    8000b0a4:	00168693          	addi	a3,a3,1 # 6993001 <main-0x7966cfff>
    8000b0a8:	fed656e3          	ble	a3,a2,8000b094 <i_10922>

000000008000b0ac <i_10927>:
    8000b0ac:	0da11923          	sh	s10,210(sp)

000000008000b0b0 <i_10928>:
    8000b0b0:	f1710583          	lb	a1,-233(sp)

000000008000b0b4 <i_10929>:
    8000b0b4:	b2ba8d1b          	addiw	s10,s5,-1237

000000008000b0b8 <i_10930>:
    8000b0b8:	02a95533          	divu	a0,s2,a0

000000008000b0bc <i_10931>:
    8000b0bc:	19013b83          	ld	s7,400(sp)

000000008000b0c0 <i_10932>:
    8000b0c0:	0283843b          	mulw	s0,t2,s0

000000008000b0c4 <i_10933>:
    8000b0c4:	00128293          	addi	t0,t0,1 # ceb33f95 <_end+0x4eb23b81>
    8000b0c8:	fa5a5ee3          	ble	t0,s4,8000b084 <i_10918>

000000008000b0cc <i_10934>:
    8000b0cc:	1e013503          	ld	a0,480(sp)

000000008000b0d0 <i_10935>:
    8000b0d0:	f9816b83          	lwu	s7,-104(sp)

000000008000b0d4 <i_10936>:
    8000b0d4:	00a50c63          	beq	a0,a0,8000b0ec <i_10942>

000000008000b0d8 <i_10937>:
    8000b0d8:	f7411403          	lh	s0,-140(sp)

000000008000b0dc <i_10938>:
    8000b0dc:	1b414983          	lbu	s3,436(sp)

000000008000b0e0 <i_10939>:
    8000b0e0:	028479b3          	remu	s3,s0,s0

000000008000b0e4 <i_10940>:
    8000b0e4:	fe211a03          	lh	s4,-30(sp)

000000008000b0e8 <i_10941>:
    8000b0e8:	08711523          	sh	t2,138(sp)

000000008000b0ec <i_10942>:
    8000b0ec:	03451463          	bne	a0,s4,8000b114 <i_10952>

000000008000b0f0 <i_10943>:
    8000b0f0:	03345463          	ble	s3,s0,8000b118 <i_10953>

000000008000b0f4 <i_10944>:
    8000b0f4:	05013203          	ld	tp,80(sp)

000000008000b0f8 <i_10945>:
    8000b0f8:	41420a3b          	subw	s4,tp,s4

000000008000b0fc <i_10946>:
    8000b0fc:	001bcc63          	blt	s7,ra,8000b114 <i_10952>

000000008000b100 <i_10947>:
    8000b100:	003a521b          	srliw	tp,s4,0x3

000000008000b104 <i_10948>:
    8000b104:	00221e1b          	slliw	t3,tp,0x2

000000008000b108 <i_10949>:
    8000b108:	e8011f83          	lh	t6,-384(sp)

000000008000b10c <i_10950>:
    8000b10c:	1bc13823          	sd	t3,432(sp)

000000008000b110 <i_10951>:
    8000b110:	f0810a03          	lb	s4,-248(sp)

000000008000b114 <i_10952>:
    8000b114:	02c11a03          	lh	s4,44(sp)

000000008000b118 <i_10953>:
    8000b118:	01fa4a63          	blt	s4,t6,8000b12c <i_10958>

000000008000b11c <i_10954>:
    8000b11c:	01fa5263          	ble	t6,s4,8000b120 <i_10955>

000000008000b120 <i_10955>:
    8000b120:	11c11f23          	sh	t3,286(sp)

000000008000b124 <i_10956>:
    8000b124:	003b1e13          	slli	t3,s6,0x3

000000008000b128 <i_10957>:
    8000b128:	01810283          	lb	t0,24(sp)

000000008000b12c <i_10958>:
    8000b12c:	f3113c23          	sd	a7,-200(sp)

000000008000b130 <i_10959>:
    8000b130:	01ce4463          	blt	t3,t3,8000b138 <i_10961>

000000008000b134 <i_10960>:
    8000b134:	e9411023          	sh	s4,-384(sp)

000000008000b138 <i_10961>:
    8000b138:	0c811783          	lh	a5,200(sp)

000000008000b13c <i_10962>:
    8000b13c:	fc110a83          	lb	s5,-63(sp)

000000008000b140 <i_10963>:
    8000b140:	00ee0b9b          	addiw	s7,t3,14

000000008000b144 <i_10964>:
    8000b144:	00fe4263          	blt	t3,a5,8000b148 <i_10965>

000000008000b148 <i_10965>:
    8000b148:	01c7f663          	bleu	t3,a5,8000b154 <i_10968>

000000008000b14c <i_10966>:
    8000b14c:	00ba07b3          	add	a5,s4,a1

000000008000b150 <i_10967>:
    8000b150:	02578fbb          	mulw	t6,a5,t0

000000008000b154 <i_10968>:
    8000b154:	01523233          	sltu	tp,tp,s5

000000008000b158 <i_10969>:
    8000b158:	007bfe63          	bleu	t2,s7,8000b174 <i_10976>

000000008000b15c <i_10970>:
    8000b15c:	007b9263          	bne	s7,t2,8000b160 <i_10971>

000000008000b160 <i_10971>:
    8000b160:	006e0233          	add	tp,t3,t1

000000008000b164 <i_10972>:
    8000b164:	e0724b93          	xori	s7,tp,-505

000000008000b168 <i_10973>:
    8000b168:	1bc12903          	lw	s2,444(sp)

000000008000b16c <i_10974>:
    8000b16c:	05016303          	lwu	t1,80(sp)

000000008000b170 <i_10975>:
    8000b170:	03285f33          	divu	t5,a6,s2

000000008000b174 <i_10976>:
    8000b174:	f7712c23          	sw	s7,-136(sp)

000000008000b178 <i_10977>:
    8000b178:	e7410903          	lb	s2,-396(sp)

000000008000b17c <i_10978>:
    8000b17c:	017b8f33          	add	t5,s7,s7

000000008000b180 <i_10979>:
    8000b180:	001b939b          	slliw	t2,s7,0x1

000000008000b184 <i_10980>:
    8000b184:	07e11a03          	lh	s4,126(sp)

000000008000b188 <i_10981>:
    8000b188:	001b931b          	slliw	t1,s7,0x1

000000008000b18c <i_10982>:
    8000b18c:	e7611a03          	lh	s4,-394(sp)

000000008000b190 <i_10983>:
    8000b190:	03757463          	bleu	s7,a0,8000b1b8 <i_10993>

000000008000b194 <i_10984>:
    8000b194:	e7410aa3          	sb	s4,-395(sp)

000000008000b198 <i_10985>:
    8000b198:	eb411423          	sh	s4,-344(sp)

000000008000b19c <i_10986>:
    8000b19c:	0063ca33          	xor	s4,t2,t1

000000008000b1a0 <i_10987>:
    8000b1a0:	03795063          	ble	s7,s2,8000b1c0 <i_10995>

000000008000b1a4 <i_10988>:
    8000b1a4:	16611523          	sh	t1,362(sp)

000000008000b1a8 <i_10989>:
    8000b1a8:	09813d03          	ld	s10,152(sp)

000000008000b1ac <i_10990>:
    8000b1ac:	01ad0463          	beq	s10,s10,8000b1b4 <i_10992>

000000008000b1b0 <i_10991>:
    8000b1b0:	e9215683          	lhu	a3,-366(sp)

000000008000b1b4 <i_10992>:
    8000b1b4:	e1212e23          	sw	s2,-484(sp)

000000008000b1b8 <i_10993>:
    8000b1b8:	01495e63          	ble	s4,s2,8000b1d4 <i_11000>

000000008000b1bc <i_10994>:
    8000b1bc:	03500a13          	li	s4,53

000000008000b1c0 <i_10995>:
    8000b1c0:	01461933          	sll	s2,a2,s4

000000008000b1c4 <i_10996>:
    8000b1c4:	02d6e063          	bltu	a3,a3,8000b1e4 <i_11004>

000000008000b1c8 <i_10997>:
    8000b1c8:	0046d69b          	srliw	a3,a3,0x4

000000008000b1cc <i_10998>:
    8000b1cc:	01f00693          	li	a3,31

000000008000b1d0 <i_10999>:
    8000b1d0:	40da55bb          	sraw	a1,s4,a3

000000008000b1d4 <i_11000>:
    8000b1d4:	02bd7a33          	remu	s4,s10,a1

000000008000b1d8 <i_11001>:
    8000b1d8:	00d68a63          	beq	a3,a3,8000b1ec <i_11006>

000000008000b1dc <i_11002>:
    8000b1dc:	fe412583          	lw	a1,-28(sp)

000000008000b1e0 <i_11003>:
    8000b1e0:	00d6f463          	bleu	a3,a3,8000b1e8 <i_11005>

000000008000b1e4 <i_11004>:
    8000b1e4:	00d5e863          	bltu	a1,a3,8000b1f4 <i_11008>

000000008000b1e8 <i_11005>:
    8000b1e8:	03c5d933          	divu	s2,a1,t3

000000008000b1ec <i_11006>:
    8000b1ec:	03259263          	bne	a1,s2,8000b210 <i_11015>

000000008000b1f0 <i_11007>:
    8000b1f0:	0335f463          	bleu	s3,a1,8000b218 <i_11017>

000000008000b1f4 <i_11008>:
    8000b1f4:	ec416f83          	lwu	t6,-316(sp)

000000008000b1f8 <i_11009>:
    8000b1f8:	1bf10983          	lb	s3,447(sp)

000000008000b1fc <i_11010>:
    8000b1fc:	01a11283          	lh	t0,26(sp)

000000008000b200 <i_11011>:
    8000b200:	02f10ea3          	sb	a5,61(sp)

000000008000b204 <i_11012>:
    8000b204:	0e310d83          	lb	s11,227(sp)

000000008000b208 <i_11013>:
    8000b208:	0b013803          	ld	a6,176(sp)

000000008000b20c <i_11014>:
    8000b20c:	e5b11023          	sh	s11,-448(sp)

000000008000b210 <i_11015>:
    8000b210:	030dd2b3          	divu	t0,s11,a6

000000008000b214 <i_11016>:
    8000b214:	0f812423          	sw	s8,232(sp)

000000008000b218 <i_11017>:
    8000b218:	02585933          	divu	s2,a6,t0

000000008000b21c <i_11018>:
    8000b21c:	02300793          	li	a5,35

000000008000b220 <i_11019>:
    8000b220:	00f297b3          	sll	a5,t0,a5

000000008000b224 <i_11020>:
    8000b224:	86700513          	li	a0,-1945

000000008000b228 <i_11021>:
    8000b228:	86e00813          	li	a6,-1938

000000008000b22c <i_11022>:
    8000b22c:	19013783          	ld	a5,400(sp)

000000008000b230 <i_11023>:
    8000b230:	00000013          	nop

000000008000b234 <i_11024>:
    8000b234:	7be00f13          	li	t5,1982

000000008000b238 <i_11025>:
    8000b238:	7cf00f93          	li	t6,1999

000000008000b23c <i_11026>:
    8000b23c:	b4b1e937          	lui	s2,0xb4b1e

000000008000b240 <i_11027>:
    8000b240:	f2f11923          	sh	a5,-206(sp)

000000008000b244 <i_11028>:
    8000b244:	001f0f13          	addi	t5,t5,1
    8000b248:	ffff1ae3          	bne	t5,t6,8000b23c <i_11026>

000000008000b24c <i_11029>:
    8000b24c:	17210823          	sb	s2,368(sp)

000000008000b250 <i_11030>:
    8000b250:	0fb44f93          	xori	t6,s0,251

000000008000b254 <i_11031>:
    8000b254:	e5815983          	lhu	s3,-424(sp)

000000008000b258 <i_11032>:
    8000b258:	f7e11f83          	lh	t6,-130(sp)

000000008000b25c <i_11033>:
    8000b25c:	00150513          	addi	a0,a0,1
    8000b260:	fca854e3          	ble	a0,a6,8000b228 <i_11021>

000000008000b264 <i_11034>:
    8000b264:	1c411f83          	lh	t6,452(sp)

000000008000b268 <i_11035>:
    8000b268:	8c42e437          	lui	s0,0x8c42e

000000008000b26c <i_11036>:
    8000b26c:	012c6c33          	or	s8,s8,s2

000000008000b270 <i_11037>:
    8000b270:	01e13823          	sd	t5,16(sp)

000000008000b274 <i_11038>:
    8000b274:	01296a63          	bltu	s2,s2,8000b288 <i_11043>

000000008000b278 <i_11039>:
    8000b278:	15813483          	ld	s1,344(sp)

000000008000b27c <i_11040>:
    8000b27c:	f6110203          	lb	tp,-159(sp)

000000008000b280 <i_11041>:
    8000b280:	16e15903          	lhu	s2,366(sp)

000000008000b284 <i_11042>:
    8000b284:	03500c13          	li	s8,53

000000008000b288 <i_11043>:
    8000b288:	418256b3          	sra	a3,tp,s8

000000008000b28c <i_11044>:
    8000b28c:	40d906b3          	sub	a3,s2,a3

000000008000b290 <i_11045>:
    8000b290:	76000f13          	li	t5,1888

000000008000b294 <i_11046>:
    8000b294:	76600513          	li	a0,1894

000000008000b298 <i_11047>:
    8000b298:	ef611c83          	lh	s9,-266(sp)

000000008000b29c <i_11048>:
    8000b29c:	02510903          	lb	s2,37(sp)

000000008000b2a0 <i_11049>:
    8000b2a0:	001f0f13          	addi	t5,t5,1
    8000b2a4:	feaf4ae3          	blt	t5,a0,8000b298 <i_11047>

000000008000b2a8 <i_11050>:
    8000b2a8:	f6412903          	lw	s2,-156(sp)

000000008000b2ac <i_11051>:
    8000b2ac:	ef710a03          	lb	s4,-265(sp)

000000008000b2b0 <i_11052>:
    8000b2b0:	01491663          	bne	s2,s4,8000b2bc <i_11055>

000000008000b2b4 <i_11053>:
    8000b2b4:	034a6463          	bltu	s4,s4,8000b2dc <i_11063>

000000008000b2b8 <i_11054>:
    8000b2b8:	f2015c03          	lhu	s8,-224(sp)

000000008000b2bc <i_11055>:
    8000b2bc:	0329063b          	mulw	a2,s2,s2

000000008000b2c0 <i_11056>:
    8000b2c0:	f8c12e23          	sw	a2,-100(sp)

000000008000b2c4 <i_11057>:
    8000b2c4:	00297463          	bleu	sp,s2,8000b2cc <i_11059>

000000008000b2c8 <i_11058>:
    8000b2c8:	f6914903          	lbu	s2,-151(sp)

000000008000b2cc <i_11059>:
    8000b2cc:	ff213c23          	sd	s2,-8(sp)

000000008000b2d0 <i_11060>:
    8000b2d0:	03461e33          	mulh	t3,a2,s4

000000008000b2d4 <i_11061>:
    8000b2d4:	e8c11d03          	lh	s10,-372(sp)

000000008000b2d8 <i_11062>:
    8000b2d8:	01be0663          	beq	t3,s11,8000b2e4 <i_11065>

000000008000b2dc <i_11063>:
    8000b2dc:	01a945b3          	xor	a1,s2,s10

000000008000b2e0 <i_11064>:
    8000b2e0:	f2410d83          	lb	s11,-220(sp)

000000008000b2e4 <i_11065>:
    8000b2e4:	08811083          	lh	ra,136(sp)

000000008000b2e8 <i_11066>:
    8000b2e8:	001a4c63          	blt	s4,ra,8000b300 <i_11072>

000000008000b2ec <i_11067>:
    8000b2ec:	0bb14d83          	lbu	s11,187(sp)

000000008000b2f0 <i_11068>:
    8000b2f0:	0040f863          	bleu	tp,ra,8000b300 <i_11072>

000000008000b2f4 <i_11069>:
    8000b2f4:	18c16083          	lwu	ra,396(sp)

000000008000b2f8 <i_11070>:
    8000b2f8:	14112823          	sw	ra,336(sp)

000000008000b2fc <i_11071>:
    8000b2fc:	01b38263          	beq	t2,s11,8000b300 <i_11072>

000000008000b300 <i_11072>:
    8000b300:	f9b106a3          	sb	s11,-115(sp)

000000008000b304 <i_11073>:
    8000b304:	021aeabb          	remw	s5,s5,ra

000000008000b308 <i_11074>:
    8000b308:	035af463          	bleu	s5,s5,8000b330 <i_11084>

000000008000b30c <i_11075>:
    8000b30c:	1b012a83          	lw	s5,432(sp)

000000008000b310 <i_11076>:
    8000b310:	02400e13          	li	t3,36

000000008000b314 <i_11077>:
    8000b314:	01c09db3          	sll	s11,ra,t3

000000008000b318 <i_11078>:
    8000b318:	00300093          	li	ra,3

000000008000b31c <i_11079>:
    8000b31c:	0013d3bb          	srlw	t2,t2,ra

000000008000b320 <i_11080>:
    8000b320:	0040da93          	srli	s5,ra,0x4

000000008000b324 <i_11081>:
    8000b324:	fe310e03          	lb	t3,-29(sp)

000000008000b328 <i_11082>:
    8000b328:	18a11083          	lh	ra,394(sp)

000000008000b32c <i_11083>:
    8000b32c:	41ce03bb          	subw	t2,t3,t3

000000008000b330 <i_11084>:
    8000b330:	03cf4b3b          	divw	s6,t5,t3

000000008000b334 <i_11085>:
    8000b334:	1aa11923          	sh	a0,434(sp)

000000008000b338 <i_11086>:
    8000b338:	ee713023          	sd	t2,-288(sp)

000000008000b33c <i_11087>:
    8000b33c:	ee712a23          	sw	t2,-268(sp)

000000008000b340 <i_11088>:
    8000b340:	016b4a63          	blt	s6,s6,8000b354 <i_11093>

000000008000b344 <i_11089>:
    8000b344:	efde4313          	xori	t1,t3,-259

000000008000b348 <i_11090>:
    8000b348:	f2612c23          	sw	t1,-200(sp)

000000008000b34c <i_11091>:
    8000b34c:	f4816c83          	lwu	s9,-184(sp)

000000008000b350 <i_11092>:
    8000b350:	08812483          	lw	s1,136(sp)

000000008000b354 <i_11093>:
    8000b354:	f9612623          	sw	s6,-116(sp)

000000008000b358 <i_11094>:
    8000b358:	00948b33          	add	s6,s1,s1

000000008000b35c <i_11095>:
    8000b35c:	009c8a63          	beq	s9,s1,8000b370 <i_11100>

000000008000b360 <i_11096>:
    8000b360:	02810023          	sb	s0,32(sp)

000000008000b364 <i_11097>:
    8000b364:	dfab0a93          	addi	s5,s6,-518

000000008000b368 <i_11098>:
    8000b368:	007af3b3          	and	t2,s5,t2

000000008000b36c <i_11099>:
    8000b36c:	01348663          	beq	s1,s3,8000b378 <i_11102>

000000008000b370 <i_11100>:
    8000b370:	12e10da3          	sb	a4,315(sp)

000000008000b374 <i_11101>:
    8000b374:	01e14783          	lbu	a5,30(sp)

000000008000b378 <i_11102>:
    8000b378:	2167f793          	andi	a5,a5,534

000000008000b37c <i_11103>:
    8000b37c:	fc910a23          	sb	s1,-44(sp)

000000008000b380 <i_11104>:
    8000b380:	97944b17          	auipc	s6,0x97944

000000008000b384 <i_11105>:
    8000b384:	04614503          	lbu	a0,70(sp)

000000008000b388 <i_11106>:
    8000b388:	00f7d663          	ble	a5,a5,8000b394 <i_11109>

000000008000b38c <i_11107>:
    8000b38c:	ff612e23          	sw	s6,-4(sp)

000000008000b390 <i_11108>:
    8000b390:	ebc16383          	lwu	t2,-324(sp)

000000008000b394 <i_11109>:
    8000b394:	01e00913          	li	s2,30

000000008000b398 <i_11110>:
    8000b398:	412b5dbb          	sraw	s11,s6,s2

000000008000b39c <i_11111>:
    8000b39c:	02794463          	blt	s2,t2,8000b3c4 <i_11121>

000000008000b3a0 <i_11112>:
    8000b3a0:	e8013383          	ld	t2,-384(sp)

000000008000b3a4 <i_11113>:
    8000b3a4:	04314d83          	lbu	s11,67(sp)

000000008000b3a8 <i_11114>:
    8000b3a8:	f7b11423          	sh	s11,-152(sp)

000000008000b3ac <i_11115>:
    8000b3ac:	09812823          	sw	s8,144(sp)

000000008000b3b0 <i_11116>:
    8000b3b0:	007383b3          	add	t2,t2,t2

000000008000b3b4 <i_11117>:
    8000b3b4:	ec812d83          	lw	s11,-312(sp)

000000008000b3b8 <i_11118>:
    8000b3b8:	00746933          	or	s2,s0,t2

000000008000b3bc <i_11119>:
    8000b3bc:	0d816283          	lwu	t0,216(sp)

000000008000b3c0 <i_11120>:
    8000b3c0:	f7812803          	lw	a6,-136(sp)

000000008000b3c4 <i_11121>:
    8000b3c4:	fda10f83          	lb	t6,-38(sp)

000000008000b3c8 <i_11122>:
    8000b3c8:	07012023          	sw	a6,96(sp)

000000008000b3cc <i_11123>:
    8000b3cc:	02013903          	ld	s2,32(sp)

000000008000b3d0 <i_11124>:
    8000b3d0:	013f85b3          	add	a1,t6,s3

000000008000b3d4 <i_11125>:
    8000b3d4:	77600f93          	li	t6,1910

000000008000b3d8 <i_11126>:
    8000b3d8:	78200993          	li	s3,1922

000000008000b3dc <i_11127>:
    8000b3dc:	001f8f93          	addi	t6,t6,1
    8000b3e0:	ff3feee3          	bltu	t6,s3,8000b3dc <i_11127>

000000008000b3e4 <i_11128>:
    8000b3e4:	19f14503          	lbu	a0,415(sp)

000000008000b3e8 <i_11129>:
    8000b3e8:	15e13023          	sd	t5,320(sp)

000000008000b3ec <i_11130>:
    8000b3ec:	01f9cc63          	blt	s3,t6,8000b404 <i_11136>

000000008000b3f0 <i_11131>:
    8000b3f0:	09310423          	sb	s3,136(sp)

000000008000b3f4 <i_11132>:
    8000b3f4:	18b13823          	sd	a1,400(sp)

000000008000b3f8 <i_11133>:
    8000b3f8:	03f9c263          	blt	s3,t6,8000b41c <i_11142>

000000008000b3fc <i_11134>:
    8000b3fc:	03297933          	remu	s2,s2,s2

000000008000b400 <i_11135>:
    8000b400:	01398e63          	beq	s3,s3,8000b41c <i_11142>

000000008000b404 <i_11136>:
    8000b404:	ff013f83          	ld	t6,-16(sp)

000000008000b408 <i_11137>:
    8000b408:	0325adb3          	mulhsu	s11,a1,s2

000000008000b40c <i_11138>:
    8000b40c:	00b00f93          	li	t6,11

000000008000b410 <i_11139>:
    8000b410:	01f951b3          	srl	gp,s2,t6

000000008000b414 <i_11140>:
    8000b414:	02a54063          	blt	a0,a0,8000b434 <i_11148>

000000008000b418 <i_11141>:
    8000b418:	efe14503          	lbu	a0,-258(sp)

000000008000b41c <i_11142>:
    8000b41c:	11414283          	lbu	t0,276(sp)

000000008000b420 <i_11143>:
    8000b420:	e9f13023          	sd	t6,-384(sp)

000000008000b424 <i_11144>:
    8000b424:	0027d21b          	srliw	tp,a5,0x2

000000008000b428 <i_11145>:
    8000b428:	0235c0b3          	div	ra,a1,gp

000000008000b42c <i_11146>:
    8000b42c:	01e0af33          	slt	t5,ra,t5

000000008000b430 <i_11147>:
    8000b430:	404f0233          	sub	tp,t5,tp

000000008000b434 <i_11148>:
    8000b434:	00000013          	nop

000000008000b438 <i_11149>:
    8000b438:	00000013          	nop

000000008000b43c <i_11150>:
    8000b43c:	80200f93          	li	t6,-2046

000000008000b440 <i_11151>:
    8000b440:	81100193          	li	gp,-2031

000000008000b444 <i_11152>:
    8000b444:	16310123          	sb	gp,354(sp)

000000008000b448 <i_11153>:
    8000b448:	1a312623          	sw	gp,428(sp)

000000008000b44c <i_11154>:
    8000b44c:	4dcf2b13          	slti	s6,t5,1244

000000008000b450 <i_11155>:
    8000b450:	e7d14b03          	lbu	s6,-387(sp)

000000008000b454 <i_11156>:
    8000b454:	001f8f93          	addi	t6,t6,1
    8000b458:	fe3f96e3          	bne	t6,gp,8000b444 <i_11152>

000000008000b45c <i_11157>:
    8000b45c:	f7e12223          	sw	t5,-156(sp)

000000008000b460 <i_11158>:
    8000b460:	ed611f23          	sh	s6,-290(sp)

000000008000b464 <i_11159>:
    8000b464:	0216db33          	divu	s6,a3,ra

000000008000b468 <i_11160>:
    8000b468:	03eb0933          	mul	s2,s6,t5

000000008000b46c <i_11161>:
    8000b46c:	03218263          	beq	gp,s2,8000b490 <i_11170>

000000008000b470 <i_11162>:
    8000b470:	01b14803          	lbu	a6,27(sp)

000000008000b474 <i_11163>:
    8000b474:	02f00c93          	li	s9,47

000000008000b478 <i_11164>:
    8000b478:	0191df33          	srl	t5,gp,s9

000000008000b47c <i_11165>:
    8000b47c:	e3811c03          	lh	s8,-456(sp)

000000008000b480 <i_11166>:
    8000b480:	401b599b          	sraiw	s3,s6,0x1

000000008000b484 <i_11167>:
    8000b484:	e3013f03          	ld	t5,-464(sp)

000000008000b488 <i_11168>:
    8000b488:	11c10a83          	lb	s5,284(sp)

000000008000b48c <i_11169>:
    8000b48c:	fea11e03          	lh	t3,-22(sp)

000000008000b490 <i_11170>:
    8000b490:	01286a63          	bltu	a6,s2,8000b4a4 <i_11175>

000000008000b494 <i_11171>:
    8000b494:	03ce0cbb          	mulw	s9,t3,t3

000000008000b498 <i_11172>:
    8000b498:	e2c10e03          	lb	t3,-468(sp)

000000008000b49c <i_11173>:
    8000b49c:	cc51ce13          	xori	t3,gp,-827

000000008000b4a0 <i_11174>:
    8000b4a0:	16214183          	lbu	gp,354(sp)

000000008000b4a4 <i_11175>:
    8000b4a4:	f2215083          	lhu	ra,-222(sp)

000000008000b4a8 <i_11176>:
    8000b4a8:	0f811523          	sh	s8,234(sp)

000000008000b4ac <i_11177>:
    8000b4ac:	85c00813          	li	a6,-1956

000000008000b4b0 <i_11178>:
    8000b4b0:	86600993          	li	s3,-1946

000000008000b4b4 <i_11179>:
    8000b4b4:	00180813          	addi	a6,a6,1
    8000b4b8:	ff386ee3          	bltu	a6,s3,8000b4b4 <i_11179>

000000008000b4bc <i_11180>:
    8000b4bc:	01c09a63          	bne	ra,t3,8000b4d0 <i_11185>

000000008000b4c0 <i_11181>:
    8000b4c0:	e4c13c23          	sd	a2,-424(sp)

000000008000b4c4 <i_11182>:
    8000b4c4:	0040d813          	srli	a6,ra,0x4

000000008000b4c8 <i_11183>:
    8000b4c8:	03086063          	bltu	a6,a6,8000b4e8 <i_11191>

000000008000b4cc <i_11184>:
    8000b4cc:	0ab10183          	lb	gp,171(sp)

000000008000b4d0 <i_11185>:
    8000b4d0:	03ca4463          	blt	s4,t3,8000b4f8 <i_11195>

000000008000b4d4 <i_11186>:
    8000b4d4:	f4110c23          	sb	ra,-168(sp)

000000008000b4d8 <i_11187>:
    8000b4d8:	18311623          	sh	gp,396(sp)

000000008000b4dc <i_11188>:
    8000b4dc:	4016561b          	sraiw	a2,a2,0x1

000000008000b4e0 <i_11189>:
    8000b4e0:	003781b3          	add	gp,a5,gp

000000008000b4e4 <i_11190>:
    8000b4e4:	e4813f83          	ld	t6,-440(sp)

000000008000b4e8 <i_11191>:
    8000b4e8:	03813783          	ld	a5,56(sp)

000000008000b4ec <i_11192>:
    8000b4ec:	00c35a63          	ble	a2,t1,8000b500 <i_11197>

000000008000b4f0 <i_11193>:
    8000b4f0:	1a510383          	lb	t2,421(sp)

000000008000b4f4 <i_11194>:
    8000b4f4:	00cf9263          	bne	t6,a2,8000b4f8 <i_11195>

000000008000b4f8 <i_11195>:
    8000b4f8:	01f9c9b3          	xor	s3,s3,t6

000000008000b4fc <i_11196>:
    8000b4fc:	04815583          	lhu	a1,72(sp)

000000008000b500 <i_11197>:
    8000b500:	00c64863          	blt	a2,a2,8000b510 <i_11201>

000000008000b504 <i_11198>:
    8000b504:	023f51bb          	divuw	gp,t5,gp

000000008000b508 <i_11199>:
    8000b508:	f1813283          	ld	t0,-232(sp)

000000008000b50c <i_11200>:
    8000b50c:	0252d263          	ble	t0,t0,8000b530 <i_11209>

000000008000b510 <i_11201>:
    8000b510:	05114e03          	lbu	t3,81(sp)

000000008000b514 <i_11202>:
    8000b514:	03c7de3b          	divuw	t3,a5,t3

000000008000b518 <i_11203>:
    8000b518:	ff813683          	ld	a3,-8(sp)

000000008000b51c <i_11204>:
    8000b51c:	401e5e93          	srai	t4,t3,0x1

000000008000b520 <i_11205>:
    8000b520:	027e5e3b          	divuw	t3,t3,t2

000000008000b524 <i_11206>:
    8000b524:	ef812383          	lw	t2,-264(sp)

000000008000b528 <i_11207>:
    8000b528:	007ed663          	ble	t2,t4,8000b534 <i_11210>

000000008000b52c <i_11208>:
    8000b52c:	03d8f9b3          	remu	s3,a7,t4

000000008000b530 <i_11209>:
    8000b530:	01a9e1b3          	or	gp,s3,s10

000000008000b534 <i_11210>:
    8000b534:	01b00c93          	li	s9,27

000000008000b538 <i_11211>:
    8000b538:	4199deb3          	sra	t4,s3,s9

000000008000b53c <i_11212>:
    8000b53c:	f5d10e23          	sb	t4,-164(sp)

000000008000b540 <i_11213>:
    8000b540:	00013983          	ld	s3,0(sp)

000000008000b544 <i_11214>:
    8000b544:	19a10983          	lb	s3,410(sp)

000000008000b548 <i_11215>:
    8000b548:	83100093          	li	ra,-1999

000000008000b54c <i_11216>:
    8000b54c:	84100b13          	li	s6,-1983

000000008000b550 <i_11217>:
    8000b550:	00000013          	nop

000000008000b554 <i_11218>:
    8000b554:	00000013          	nop

000000008000b558 <i_11219>:
    8000b558:	05612023          	sw	s6,64(sp)

000000008000b55c <i_11220>:
    8000b55c:	03399c33          	mulh	s8,s3,s3

000000008000b560 <i_11221>:
    8000b560:	f9114d03          	lbu	s10,-111(sp)

000000008000b564 <i_11222>:
    8000b564:	033cd833          	divu	a6,s9,s3

000000008000b568 <i_11223>:
    8000b568:	00108093          	addi	ra,ra,1
    8000b56c:	fe1b52e3          	ble	ra,s6,8000b550 <i_11217>

000000008000b570 <i_11224>:
    8000b570:	ef312223          	sw	s3,-284(sp)

000000008000b574 <i_11225>:
    8000b574:	e7510d03          	lb	s10,-395(sp)

000000008000b578 <i_11226>:
    8000b578:	03ad7333          	remu	t1,s10,s10

000000008000b57c <i_11227>:
    8000b57c:	018dd263          	ble	s8,s11,8000b580 <i_11228>

000000008000b580 <i_11228>:
    8000b580:	11a11803          	lh	a6,282(sp)

000000008000b584 <i_11229>:
    8000b584:	fa812d03          	lw	s10,-88(sp)

000000008000b588 <i_11230>:
    8000b588:	08012303          	lw	t1,128(sp)

000000008000b58c <i_11231>:
    8000b58c:	00999c63          	bne	s3,s1,8000b5a4 <i_11237>

000000008000b590 <i_11232>:
    8000b590:	01aabab3          	sltu	s5,s5,s10

000000008000b594 <i_11233>:
    8000b594:	0365cdb3          	div	s11,a1,s6

000000008000b598 <i_11234>:
    8000b598:	03385463          	ble	s3,a6,8000b5c0 <i_11244>

000000008000b59c <i_11235>:
    8000b59c:	030d4463          	blt	s10,a6,8000b5c4 <i_11245>

000000008000b5a0 <i_11236>:
    8000b5a0:	41ac09bb          	subw	s3,s8,s10

000000008000b5a4 <i_11237>:
    8000b5a4:	1b311e23          	sh	s3,444(sp)

000000008000b5a8 <i_11238>:
    8000b5a8:	ec016803          	lwu	a6,-320(sp)

000000008000b5ac <i_11239>:
    8000b5ac:	40ed053b          	subw	a0,s10,a4

000000008000b5b0 <i_11240>:
    8000b5b0:	13211523          	sh	s2,298(sp)

000000008000b5b4 <i_11241>:
    8000b5b4:	02f14983          	lbu	s3,47(sp)

000000008000b5b8 <i_11242>:
    8000b5b8:	13c11483          	lh	s1,316(sp)

000000008000b5bc <i_11243>:
    8000b5bc:	0330d0b3          	divu	ra,ra,s3

000000008000b5c0 <i_11244>:
    8000b5c0:	01c00c13          	li	s8,28

000000008000b5c4 <i_11245>:
    8000b5c4:	418c53bb          	sraw	t2,s8,s8

000000008000b5c8 <i_11246>:
    8000b5c8:	df66061b          	addiw	a2,a2,-522

000000008000b5cc <i_11247>:
    8000b5cc:	00e38663          	beq	t2,a4,8000b5d8 <i_11250>

000000008000b5d0 <i_11248>:
    8000b5d0:	82546c93          	ori	s9,s0,-2011

000000008000b5d4 <i_11249>:
    8000b5d4:	16713823          	sd	t2,368(sp)

000000008000b5d8 <i_11250>:
    8000b5d8:	00000013          	nop

000000008000b5dc <i_11251>:
    8000b5dc:	0a813603          	ld	a2,168(sp)

000000008000b5e0 <i_11252>:
    8000b5e0:	8c200393          	li	t2,-1854

000000008000b5e4 <i_11253>:
    8000b5e4:	8ca00693          	li	a3,-1846

000000008000b5e8 <i_11254>:
    8000b5e8:	00000013          	nop

000000008000b5ec <i_11255>:
    8000b5ec:	00138393          	addi	t2,t2,1
    8000b5f0:	fe76dce3          	ble	t2,a3,8000b5e8 <i_11254>

000000008000b5f4 <i_11256>:
    8000b5f4:	11f13823          	sd	t6,272(sp)

000000008000b5f8 <i_11257>:
    8000b5f8:	0ef10803          	lb	a6,239(sp)

000000008000b5fc <i_11258>:
    8000b5fc:	e7813083          	ld	ra,-392(sp)

000000008000b600 <i_11259>:
    8000b600:	0360c9bb          	divw	s3,ra,s6

000000008000b604 <i_11260>:
    8000b604:	bb013237          	lui	tp,0xbb013

000000008000b608 <i_11261>:
    8000b608:	f1e10483          	lb	s1,-226(sp)

000000008000b60c <i_11262>:
    8000b60c:	01787663          	bleu	s7,a6,8000b618 <i_11265>

000000008000b610 <i_11263>:
    8000b610:	f8a14283          	lbu	t0,-118(sp)

000000008000b614 <i_11264>:
    8000b614:	ea214483          	lbu	s1,-350(sp)

000000008000b618 <i_11265>:
    8000b618:	00508833          	add	a6,ra,t0

000000008000b61c <i_11266>:
    8000b61c:	f8c16a83          	lwu	s5,-116(sp)

000000008000b620 <i_11267>:
    8000b620:	035d0263          	beq	s10,s5,8000b644 <i_11276>

000000008000b624 <i_11268>:
    8000b624:	e7c14803          	lbu	a6,-388(sp)

000000008000b628 <i_11269>:
    8000b628:	4029591b          	sraiw	s2,s2,0x2

000000008000b62c <i_11270>:
    8000b62c:	e7416a03          	lwu	s4,-396(sp)

000000008000b630 <i_11271>:
    8000b630:	035a9463          	bne	s5,s5,8000b658 <i_11281>

000000008000b634 <i_11272>:
    8000b634:	f2416b03          	lwu	s6,-220(sp)

000000008000b638 <i_11273>:
    8000b638:	0d213023          	sd	s2,192(sp)

000000008000b63c <i_11274>:
    8000b63c:	11213c23          	sd	s2,280(sp)

000000008000b640 <i_11275>:
    8000b640:	016ae833          	or	a6,s5,s6

000000008000b644 <i_11276>:
    8000b644:	ea016d03          	lwu	s10,-352(sp)

000000008000b648 <i_11277>:
    8000b648:	036d6b33          	rem	s6,s10,s6

000000008000b64c <i_11278>:
    8000b64c:	e5c16303          	lwu	t1,-420(sp)

000000008000b650 <i_11279>:
    8000b650:	1b411183          	lh	gp,436(sp)

000000008000b654 <i_11280>:
    8000b654:	ec436993          	ori	s3,t1,-316

000000008000b658 <i_11281>:
    8000b658:	02510523          	sb	t0,42(sp)

000000008000b65c <i_11282>:
    8000b65c:	033191b3          	mulh	gp,gp,s3

000000008000b660 <i_11283>:
    8000b660:	80800f13          	li	t5,-2040

000000008000b664 <i_11284>:
    8000b664:	81000293          	li	t0,-2032

000000008000b668 <i_11285>:
    8000b668:	fe416183          	lwu	gp,-28(sp)

000000008000b66c <i_11286>:
    8000b66c:	00000013          	nop

000000008000b670 <i_11287>:
    8000b670:	e45105a3          	sb	t0,-437(sp)

000000008000b674 <i_11288>:
    8000b674:	d131b193          	sltiu	gp,gp,-749

000000008000b678 <i_11289>:
    8000b678:	0c012903          	lw	s2,192(sp)

000000008000b67c <i_11290>:
    8000b67c:	003f4263          	blt	t5,gp,8000b680 <i_11291>

000000008000b680 <i_11291>:
    8000b680:	12f106a3          	sb	a5,301(sp)

000000008000b684 <i_11292>:
    8000b684:	02700193          	li	gp,39

000000008000b688 <i_11293>:
    8000b688:	003951b3          	srl	gp,s2,gp

000000008000b68c <i_11294>:
    8000b68c:	001f0f13          	addi	t5,t5,1
    8000b690:	fc5f6ce3          	bltu	t5,t0,8000b668 <i_11285>

000000008000b694 <i_11295>:
    8000b694:	124106a3          	sb	tp,301(sp)

000000008000b698 <i_11296>:
    8000b698:	6b494913          	xori	s2,s2,1716

000000008000b69c <i_11297>:
    8000b69c:	7a300193          	li	gp,1955

000000008000b6a0 <i_11298>:
    8000b6a0:	7b500993          	li	s3,1973

000000008000b6a4 <i_11299>:
    8000b6a4:	06c15e83          	lhu	t4,108(sp)

000000008000b6a8 <i_11300>:
    8000b6a8:	fcc16503          	lwu	a0,-52(sp)

000000008000b6ac <i_11301>:
    8000b6ac:	013e2933          	slt	s2,t3,s3

000000008000b6b0 <i_11302>:
    8000b6b0:	f1114083          	lbu	ra,-239(sp)

000000008000b6b4 <i_11303>:
    8000b6b4:	02600e13          	li	t3,38

000000008000b6b8 <i_11304>:
    8000b6b8:	01ce5e33          	srl	t3,t3,t3

000000008000b6bc <i_11305>:
    8000b6bc:	01dcbcb3          	sltu	s9,s9,t4

000000008000b6c0 <i_11306>:
    8000b6c0:	03cc9063          	bne	s9,t3,8000b6e0 <i_11313>

000000008000b6c4 <i_11307>:
    8000b6c4:	1c710483          	lb	s1,455(sp)

000000008000b6c8 <i_11308>:
    8000b6c8:	02ce6663          	bltu	t3,a2,8000b6f4 <i_11318>

000000008000b6cc <i_11309>:
    8000b6cc:	00118193          	addi	gp,gp,1 # 4851c8d5 <main-0x37ae372b>
    8000b6d0:	fd31cae3          	blt	gp,s3,8000b6a4 <i_11299>

000000008000b6d4 <i_11310>:
    8000b6d4:	0d613823          	sd	s6,208(sp)

000000008000b6d8 <i_11311>:
    8000b6d8:	e4d14483          	lbu	s1,-435(sp)

000000008000b6dc <i_11312>:
    8000b6dc:	03ce5eb3          	divu	t4,t3,t3

000000008000b6e0 <i_11313>:
    8000b6e0:	bbce3e13          	sltiu	t3,t3,-1092

000000008000b6e4 <i_11314>:
    8000b6e4:	0294f463          	bleu	s1,s1,8000b70c <i_11324>

000000008000b6e8 <i_11315>:
    8000b6e8:	0154dc63          	ble	s5,s1,8000b700 <i_11321>

000000008000b6ec <i_11316>:
    8000b6ec:	01a40e13          	addi	t3,s0,26 # ffffffff8c42e01a <_end+0xffffffff0c41dc06>

000000008000b6f0 <i_11317>:
    8000b6f0:	dd04eb93          	ori	s7,s1,-560

000000008000b6f4 <i_11318>:
    8000b6f4:	14013e03          	ld	t3,320(sp)

000000008000b6f8 <i_11319>:
    8000b6f8:	01ce1463          	bne	t3,t3,8000b700 <i_11321>

000000008000b6fc <i_11320>:
    8000b6fc:	01c48263          	beq	s1,t3,8000b700 <i_11321>

000000008000b700 <i_11321>:
    8000b700:	006a0ab3          	add	s5,s4,t1

000000008000b704 <i_11322>:
    8000b704:	015fba33          	sltu	s4,t6,s5

000000008000b708 <i_11323>:
    8000b708:	15f13823          	sd	t6,336(sp)

000000008000b70c <i_11324>:
    8000b70c:	e9410523          	sb	s4,-374(sp)

000000008000b710 <i_11325>:
    8000b710:	00400213          	li	tp,4

000000008000b714 <i_11326>:
    8000b714:	004bdbbb          	srlw	s7,s7,tp

000000008000b718 <i_11327>:
    8000b718:	fb713423          	sd	s7,-88(sp)

000000008000b71c <i_11328>:
    8000b71c:	08214683          	lbu	a3,130(sp)

000000008000b720 <i_11329>:
    8000b720:	01d69463          	bne	a3,t4,8000b728 <i_11331>

000000008000b724 <i_11330>:
    8000b724:	ef812c03          	lw	s8,-264(sp)

000000008000b728 <i_11331>:
    8000b728:	01ec6833          	or	a6,s8,t5

000000008000b72c <i_11332>:
    8000b72c:	00351f1b          	slliw	t5,a0,0x3

000000008000b730 <i_11333>:
    8000b730:	01868463          	beq	a3,s8,8000b738 <i_11335>

000000008000b734 <i_11334>:
    8000b734:	415c0abb          	subw	s5,s8,s5

000000008000b738 <i_11335>:
    8000b738:	08015683          	lhu	a3,128(sp)

000000008000b73c <i_11336>:
    8000b73c:	15613023          	sd	s6,320(sp)

000000008000b740 <i_11337>:
    8000b740:	87000d13          	li	s10,-1936

000000008000b744 <i_11338>:
    8000b744:	87300313          	li	t1,-1933

000000008000b748 <i_11339>:
    8000b748:	00209993          	slli	s3,ra,0x2

000000008000b74c <i_11340>:
    8000b74c:	0a96fb13          	andi	s6,a3,169

000000008000b750 <i_11341>:
    8000b750:	82000a93          	li	s5,-2016

000000008000b754 <i_11342>:
    8000b754:	82800093          	li	ra,-2008

000000008000b758 <i_11343>:
    8000b758:	017b0bb3          	add	s7,s6,s7

000000008000b75c <i_11344>:
    8000b75c:	00000013          	nop

000000008000b760 <i_11345>:
    8000b760:	f1012983          	lw	s3,-240(sp)

000000008000b764 <i_11346>:
    8000b764:	912dc693          	xori	a3,s11,-1774

000000008000b768 <i_11347>:
    8000b768:	00d10123          	sb	a3,2(sp)

000000008000b76c <i_11348>:
    8000b76c:	001a8a93          	addi	s5,s5,1 # ffffffff814be001 <_end+0xffffffff014adbed>
    8000b770:	ff50d4e3          	ble	s5,ra,8000b758 <i_11343>

000000008000b774 <i_11349>:
    8000b774:	00db7863          	bleu	a3,s6,8000b784 <i_11353>

000000008000b778 <i_11350>:
    8000b778:	0162ca33          	xor	s4,t0,s6

000000008000b77c <i_11351>:
    8000b77c:	003bb1b3          	sltu	gp,s7,gp

000000008000b780 <i_11352>:
    8000b780:	fcd13023          	sd	a3,-64(sp)

000000008000b784 <i_11353>:
    8000b784:	03419bb3          	mulh	s7,gp,s4

000000008000b788 <i_11354>:
    8000b788:	14e11a83          	lh	s5,334(sp)

000000008000b78c <i_11355>:
    8000b78c:	001d0d13          	addi	s10,s10,1
    8000b790:	fba35ce3          	ble	s10,t1,8000b748 <i_11339>

000000008000b794 <i_11356>:
    8000b794:	023a4463          	blt	s4,gp,8000b7bc <i_11366>

000000008000b798 <i_11357>:
    8000b798:	01000213          	li	tp,16

000000008000b79c <i_11358>:
    8000b79c:	004393bb          	sllw	t2,t2,tp

000000008000b7a0 <i_11359>:
    8000b7a0:	0151de63          	ble	s5,gp,8000b7bc <i_11366>

000000008000b7a4 <i_11360>:
    8000b7a4:	04816d03          	lwu	s10,72(sp)

000000008000b7a8 <i_11361>:
    8000b7a8:	00000013          	nop

000000008000b7ac <i_11362>:
    8000b7ac:	03deea33          	rem	s4,t4,t4

000000008000b7b0 <i_11363>:
    8000b7b0:	024c0c3b          	mulw	s8,s8,tp

000000008000b7b4 <i_11364>:
    8000b7b4:	02424633          	div	a2,tp,tp

000000008000b7b8 <i_11365>:
    8000b7b8:	e9513c23          	sd	s5,-360(sp)

000000008000b7bc <i_11366>:
    8000b7bc:	03daa233          	mulhsu	tp,s5,t4

000000008000b7c0 <i_11367>:
    8000b7c0:	21dacf13          	xori	t5,s5,541

000000008000b7c4 <i_11368>:
    8000b7c4:	88900a93          	li	s5,-1911

000000008000b7c8 <i_11369>:
    8000b7c8:	89d00e93          	li	t4,-1891

000000008000b7cc <i_11370>:
    8000b7cc:	035f50b3          	divu	ra,t5,s5

000000008000b7d0 <i_11371>:
    8000b7d0:	01e00f13          	li	t5,30

000000008000b7d4 <i_11372>:
    8000b7d4:	01e191bb          	sllw	gp,gp,t5

000000008000b7d8 <i_11373>:
    8000b7d8:	001a8a93          	addi	s5,s5,1
    8000b7dc:	ff5ed8e3          	ble	s5,t4,8000b7cc <i_11370>

000000008000b7e0 <i_11374>:
    8000b7e0:	18c16c03          	lwu	s8,396(sp)

000000008000b7e4 <i_11375>:
    8000b7e4:	11c16983          	lwu	s3,284(sp)

000000008000b7e8 <i_11376>:
    8000b7e8:	7c100f13          	li	t5,1985

000000008000b7ec <i_11377>:
    8000b7ec:	7cd00193          	li	gp,1997

000000008000b7f0 <i_11378>:
    8000b7f0:	09813823          	sd	s8,144(sp)

000000008000b7f4 <i_11379>:
    8000b7f4:	f2312023          	sw	gp,-224(sp)

000000008000b7f8 <i_11380>:
    8000b7f8:	03890433          	mul	s0,s2,s8

000000008000b7fc <i_11381>:
    8000b7fc:	001f0f13          	addi	t5,t5,1
    8000b800:	fe3f68e3          	bltu	t5,gp,8000b7f0 <i_11378>

000000008000b804 <i_11382>:
    8000b804:	096101a3          	sb	s6,131(sp)

000000008000b808 <i_11383>:
    8000b808:	023c6463          	bltu	s8,gp,8000b830 <i_11393>

000000008000b80c <i_11384>:
    8000b80c:	01399a63          	bne	s3,s3,8000b820 <i_11389>

000000008000b810 <i_11385>:
    8000b810:	454a6213          	ori	tp,s4,1108

000000008000b814 <i_11386>:
    8000b814:	02418063          	beq	gp,tp,8000b834 <i_11394>

000000008000b818 <i_11387>:
    8000b818:	09e102a3          	sb	t5,133(sp)

000000008000b81c <i_11388>:
    8000b81c:	f40841b7          	lui	gp,0xf4084

000000008000b820 <i_11389>:
    8000b820:	4c21819b          	addiw	gp,gp,1218

000000008000b824 <i_11390>:
    8000b824:	0e411b03          	lh	s6,228(sp)

000000008000b828 <i_11391>:
    8000b828:	e3268a13          	addi	s4,a3,-462

000000008000b82c <i_11392>:
    8000b82c:	f0a11503          	lh	a0,-246(sp)

000000008000b830 <i_11393>:
    8000b830:	003e961b          	slliw	a2,t4,0x3

000000008000b834 <i_11394>:
    8000b834:	1b812783          	lw	a5,440(sp)

000000008000b838 <i_11395>:
    8000b838:	01813183          	ld	gp,24(sp)

000000008000b83c <i_11396>:
    8000b83c:	4011dc93          	srai	s9,gp,0x1

000000008000b840 <i_11397>:
    8000b840:	03e15e83          	lhu	t4,62(sp)

000000008000b844 <i_11398>:
    8000b844:	1fd11023          	sh	t4,480(sp)

000000008000b848 <i_11399>:
    8000b848:	003cfc63          	bleu	gp,s9,8000b860 <i_11405>

000000008000b84c <i_11400>:
    8000b84c:	03de8063          	beq	t4,t4,8000b86c <i_11408>

000000008000b850 <i_11401>:
    8000b850:	01400e13          	li	t3,20

000000008000b854 <i_11402>:
    8000b854:	01c1963b          	sllw	a2,gp,t3

000000008000b858 <i_11403>:
    8000b858:	01ce0633          	add	a2,t3,t3

000000008000b85c <i_11404>:
    8000b85c:	01b6cfb3          	xor	t6,a3,s11

000000008000b860 <i_11405>:
    8000b860:	0dd105a3          	sb	t4,203(sp)

000000008000b864 <i_11406>:
    8000b864:	1db14503          	lbu	a0,475(sp)

000000008000b868 <i_11407>:
    8000b868:	029e1263          	bne	t3,s1,8000b88c <i_11416>

000000008000b86c <i_11408>:
    8000b86c:	01ce9c63          	bne	t4,t3,8000b884 <i_11414>

000000008000b870 <i_11409>:
    8000b870:	03dceb3b          	remw	s6,s9,t4

000000008000b874 <i_11410>:
    8000b874:	00000013          	nop

000000008000b878 <i_11411>:
    8000b878:	03d35bbb          	divuw	s7,t1,t4

000000008000b87c <i_11412>:
    8000b87c:	02337fbb          	remuw	t6,t1,gp

000000008000b880 <i_11413>:
    8000b880:	19163d13          	sltiu	s10,a2,401

000000008000b884 <i_11414>:
    8000b884:	00000013          	nop

000000008000b888 <i_11415>:
    8000b888:	03956d33          	rem	s10,a0,s9

000000008000b88c <i_11416>:
    8000b88c:	1ae10b83          	lb	s7,430(sp)

000000008000b890 <i_11417>:
    8000b890:	00251493          	slli	s1,a0,0x2

000000008000b894 <i_11418>:
    8000b894:	86500313          	li	t1,-1947

000000008000b898 <i_11419>:
    8000b898:	86900e93          	li	t4,-1943

000000008000b89c <i_11420>:
    8000b89c:	09c16c03          	lwu	s8,156(sp)

000000008000b8a0 <i_11421>:
    8000b8a0:	02d75063          	ble	a3,a4,8000b8c0 <i_11428>

000000008000b8a4 <i_11422>:
    8000b8a4:	f4a13c23          	sd	a0,-168(sp)

000000008000b8a8 <i_11423>:
    8000b8a8:	0394d263          	ble	s9,s1,8000b8cc <i_11431>

000000008000b8ac <i_11424>:
    8000b8ac:	00130313          	addi	t1,t1,1
    8000b8b0:	ffd366e3          	bltu	t1,t4,8000b89c <i_11420>

000000008000b8b4 <i_11425>:
    8000b8b4:	419c843b          	subw	s0,s9,s9

000000008000b8b8 <i_11426>:
    8000b8b8:	00f102a3          	sb	a5,5(sp)

000000008000b8bc <i_11427>:
    8000b8bc:	e7c12403          	lw	s0,-388(sp)

000000008000b8c0 <i_11428>:
    8000b8c0:	1b110403          	lb	s0,433(sp)

000000008000b8c4 <i_11429>:
    8000b8c4:	4027dd9b          	sraiw	s11,a5,0x2

000000008000b8c8 <i_11430>:
    8000b8c8:	02f4e433          	rem	s0,s1,a5

000000008000b8cc <i_11431>:
    8000b8cc:	4044dc1b          	sraiw	s8,s1,0x4

000000008000b8d0 <i_11432>:
    8000b8d0:	00000013          	nop

000000008000b8d4 <i_11433>:
    8000b8d4:	84600c93          	li	s9,-1978

000000008000b8d8 <i_11434>:
    8000b8d8:	85100793          	li	a5,-1967

000000008000b8dc <i_11435>:
    8000b8dc:	fe011483          	lh	s1,-32(sp)

000000008000b8e0 <i_11436>:
    8000b8e0:	e8c15a83          	lhu	s5,-372(sp)

000000008000b8e4 <i_11437>:
    8000b8e4:	e8514903          	lbu	s2,-379(sp)

000000008000b8e8 <i_11438>:
    8000b8e8:	001c8c93          	addi	s9,s9,1
    8000b8ec:	ff9798e3          	bne	a5,s9,8000b8dc <i_11435>

000000008000b8f0 <i_11439>:
    8000b8f0:	2007c817          	auipc	a6,0x2007c

000000008000b8f4 <i_11440>:
    8000b8f4:	02897833          	remu	a6,s2,s0

000000008000b8f8 <i_11441>:
    8000b8f8:	007969b3          	or	s3,s2,t2

000000008000b8fc <i_11442>:
    8000b8fc:	030843bb          	divw	t2,a6,a6

000000008000b900 <i_11443>:
    8000b900:	02a98063          	beq	s3,a0,8000b920 <i_11451>

000000008000b904 <i_11444>:
    8000b904:	033c99b3          	mulh	s3,s9,s3

000000008000b908 <i_11445>:
    8000b908:	03ef3f33          	mulhu	t5,t5,t5

000000008000b90c <i_11446>:
    8000b90c:	f5e14983          	lbu	s3,-162(sp)

000000008000b910 <i_11447>:
    8000b910:	013844b3          	xor	s1,a6,s3

000000008000b914 <i_11448>:
    8000b914:	0071af33          	slt	t5,gp,t2

000000008000b918 <i_11449>:
    8000b918:	0273f263          	bleu	t2,t2,8000b93c <i_11458>

000000008000b91c <i_11450>:
    8000b91c:	1a812483          	lw	s1,424(sp)

000000008000b920 <i_11451>:
    8000b920:	00000013          	nop

000000008000b924 <i_11452>:
    8000b924:	03ee99b3          	mulh	s3,t4,t5

000000008000b928 <i_11453>:
    8000b928:	e6211483          	lh	s1,-414(sp)

000000008000b92c <i_11454>:
    8000b92c:	00000013          	nop

000000008000b930 <i_11455>:
    8000b930:	f8913c23          	sd	s1,-104(sp)

000000008000b934 <i_11456>:
    8000b934:	03600f13          	li	t5,54

000000008000b938 <i_11457>:
    8000b938:	41e9d4b3          	sra	s1,s3,t5

000000008000b93c <i_11458>:
    8000b93c:	4013d393          	srai	t2,t2,0x1

000000008000b940 <i_11459>:
    8000b940:	03692f33          	mulhsu	t5,s2,s6

000000008000b944 <i_11460>:
    8000b944:	79200813          	li	a6,1938

000000008000b948 <i_11461>:
    8000b948:	79800e93          	li	t4,1944

000000008000b94c <i_11462>:
    8000b94c:	00180813          	addi	a6,a6,1 # a00878f1 <_end+0x200774dd>
    8000b950:	ffd84ee3          	blt	a6,t4,8000b94c <i_11462>

000000008000b954 <i_11463>:
    8000b954:	036f0b33          	mul	s6,t5,s6

000000008000b958 <i_11464>:
    8000b958:	03ef4263          	blt	t5,t5,8000b97c <i_11473>

000000008000b95c <i_11465>:
    8000b95c:	17816f03          	lwu	t5,376(sp)

000000008000b960 <i_11466>:
    8000b960:	03ef1063          	bne	t5,t5,8000b980 <i_11474>

000000008000b964 <i_11467>:
    8000b964:	1be13823          	sd	t5,432(sp)

000000008000b968 <i_11468>:
    8000b968:	e9816b03          	lwu	s6,-360(sp)

000000008000b96c <i_11469>:
    8000b96c:	036c8cb3          	mul	s9,s9,s6

000000008000b970 <i_11470>:
    8000b970:	0b514b83          	lbu	s7,181(sp)

000000008000b974 <i_11471>:
    8000b974:	ef213023          	sd	s2,-288(sp)

000000008000b978 <i_11472>:
    8000b978:	00000013          	nop

000000008000b97c <i_11473>:
    8000b97c:	01016b83          	lwu	s7,16(sp)

000000008000b980 <i_11474>:
    8000b980:	fc914a03          	lbu	s4,-55(sp)

000000008000b984 <i_11475>:
    8000b984:	f1016b83          	lwu	s7,-240(sp)

000000008000b988 <i_11476>:
    8000b988:	8c200e13          	li	t3,-1854

000000008000b98c <i_11477>:
    8000b98c:	8cb00a93          	li	s5,-1845

000000008000b990 <i_11478>:
    8000b990:	0304c263          	blt	s1,a6,8000b9b4 <i_11486>

000000008000b994 <i_11479>:
    8000b994:	001e0e13          	addi	t3,t3,1
    8000b998:	ff5e6ce3          	bltu	t3,s5,8000b990 <i_11478>

000000008000b99c <i_11480>:
    8000b99c:	afc64997          	auipc	s3,0xafc64

000000008000b9a0 <i_11481>:
    8000b9a0:	02ce2633          	mulhsu	a2,t3,a2

000000008000b9a4 <i_11482>:
    8000b9a4:	00400693          	li	a3,4

000000008000b9a8 <i_11483>:
    8000b9a8:	00df59bb          	srlw	s3,t5,a3

000000008000b9ac <i_11484>:
    8000b9ac:	04013e03          	ld	t3,64(sp)

000000008000b9b0 <i_11485>:
    8000b9b0:	017b4533          	xor	a0,s6,s7

000000008000b9b4 <i_11486>:
    8000b9b4:	13016a83          	lwu	s5,304(sp)

000000008000b9b8 <i_11487>:
    8000b9b8:	12211f03          	lh	t5,290(sp)

000000008000b9bc <i_11488>:
    8000b9bc:	ef713423          	sd	s7,-280(sp)

000000008000b9c0 <i_11489>:
    8000b9c0:	72d00c93          	li	s9,1837

000000008000b9c4 <i_11490>:
    8000b9c4:	74100b93          	li	s7,1857

000000008000b9c8 <i_11491>:
    8000b9c8:	00c9c633          	xor	a2,s3,a2

000000008000b9cc <i_11492>:
    8000b9cc:	03356633          	rem	a2,a0,s3

000000008000b9d0 <i_11493>:
    8000b9d0:	001c8c93          	addi	s9,s9,1
    8000b9d4:	ff9bdae3          	ble	s9,s7,8000b9c8 <i_11491>

000000008000b9d8 <i_11494>:
    8000b9d8:	e2813983          	ld	s3,-472(sp)

000000008000b9dc <i_11495>:
    8000b9dc:	41298933          	sub	s2,s3,s2

000000008000b9e0 <i_11496>:
    8000b9e0:	7c500513          	li	a0,1989

000000008000b9e4 <i_11497>:
    8000b9e4:	7ca00d13          	li	s10,1994

000000008000b9e8 <i_11498>:
    8000b9e8:	032d793b          	remuw	s2,s10,s2

000000008000b9ec <i_11499>:
    8000b9ec:	00000013          	nop

000000008000b9f0 <i_11500>:
    8000b9f0:	01a54e63          	blt	a0,s10,8000ba0c <i_11506>

000000008000b9f4 <i_11501>:
    8000b9f4:	00000013          	nop

000000008000b9f8 <i_11502>:
    8000b9f8:	10d13423          	sd	a3,264(sp)

000000008000b9fc <i_11503>:
    8000b9fc:	00150513          	addi	a0,a0,1
    8000ba00:	ffa544e3          	blt	a0,s10,8000b9e8 <i_11498>

000000008000ba04 <i_11504>:
    8000ba04:	0b814b83          	lbu	s7,184(sp)

000000008000ba08 <i_11505>:
    8000ba08:	0170da63          	ble	s7,ra,8000ba1c <i_11510>

000000008000ba0c <i_11506>:
    8000ba0c:	e6211d83          	lh	s11,-414(sp)

000000008000ba10 <i_11507>:
    8000ba10:	00a94263          	blt	s2,a0,8000ba14 <i_11508>

000000008000ba14 <i_11508>:
    8000ba14:	03bdd263          	ble	s11,s11,8000ba38 <i_11517>

000000008000ba18 <i_11509>:
    8000ba18:	0339b5b3          	mulhu	a1,s3,s3

000000008000ba1c <i_11510>:
    8000ba1c:	f7412783          	lw	a5,-140(sp)

000000008000ba20 <i_11511>:
    8000ba20:	eaa10983          	lb	s3,-342(sp)

000000008000ba24 <i_11512>:
    8000ba24:	416787bb          	subw	a5,a5,s6

000000008000ba28 <i_11513>:
    8000ba28:	f4f12a23          	sw	a5,-172(sp)

000000008000ba2c <i_11514>:
    8000ba2c:	05314d03          	lbu	s10,83(sp)

000000008000ba30 <i_11515>:
    8000ba30:	0037dd1b          	srliw	s10,a5,0x3

000000008000ba34 <i_11516>:
    8000ba34:	033790b3          	mulh	ra,a5,s3

000000008000ba38 <i_11517>:
    8000ba38:	9a30b793          	sltiu	a5,ra,-1629

000000008000ba3c <i_11518>:
    8000ba3c:	f1c11303          	lh	t1,-228(sp)

000000008000ba40 <i_11519>:
    8000ba40:	7c4b4797          	auipc	a5,0x7c4b4

000000008000ba44 <i_11520>:
    8000ba44:	0029999b          	slliw	s3,s3,0x2

000000008000ba48 <i_11521>:
    8000ba48:	00635a63          	ble	t1,t1,8000ba5c <i_11526>

000000008000ba4c <i_11522>:
    8000ba4c:	1cf11923          	sh	a5,466(sp)

000000008000ba50 <i_11523>:
    8000ba50:	01200f93          	li	t6,18

000000008000ba54 <i_11524>:
    8000ba54:	41f65b3b          	sraw	s6,a2,t6

000000008000ba58 <i_11525>:
    8000ba58:	00000013          	nop

000000008000ba5c <i_11526>:
    8000ba5c:	01ff8433          	add	s0,t6,t6

000000008000ba60 <i_11527>:
    8000ba60:	09314503          	lbu	a0,147(sp)

000000008000ba64 <i_11528>:
    8000ba64:	76900613          	li	a2,1897

000000008000ba68 <i_11529>:
    8000ba68:	77c00913          	li	s2,1916

000000008000ba6c <i_11530>:
    8000ba6c:	036b1063          	bne	s6,s6,8000ba8c <i_11537>

000000008000ba70 <i_11531>:
    8000ba70:	16b10aa3          	sb	a1,373(sp)

000000008000ba74 <i_11532>:
    8000ba74:	00160613          	addi	a2,a2,1
    8000ba78:	fec95ae3          	ble	a2,s2,8000ba6c <i_11530>

000000008000ba7c <i_11533>:
    8000ba7c:	e4c12223          	sw	a2,-444(sp)

000000008000ba80 <i_11534>:
    8000ba80:	0b610623          	sb	s6,172(sp)

000000008000ba84 <i_11535>:
    8000ba84:	01230a63          	beq	t1,s2,8000ba98 <i_11540>

000000008000ba88 <i_11536>:
    8000ba88:	02700b13          	li	s6,39

000000008000ba8c <i_11537>:
    8000ba8c:	016b5633          	srl	a2,s6,s6

000000008000ba90 <i_11538>:
    8000ba90:	01644663          	blt	s0,s6,8000ba9c <i_11541>

000000008000ba94 <i_11539>:
    8000ba94:	15710303          	lb	t1,343(sp)

000000008000ba98 <i_11540>:
    8000ba98:	ff112223          	sw	a7,-28(sp)

000000008000ba9c <i_11541>:
    8000ba9c:	00800793          	li	a5,8

000000008000baa0 <i_11542>:
    8000baa0:	00fb59bb          	srlw	s3,s6,a5

000000008000baa4 <i_11543>:
    8000baa4:	0f311f23          	sh	s3,254(sp)

000000008000baa8 <i_11544>:
    8000baa8:	04811983          	lh	s3,72(sp)

000000008000baac <i_11545>:
    8000baac:	e3612823          	sw	s6,-464(sp)

000000008000bab0 <i_11546>:
    8000bab0:	00ff1a63          	bne	t5,a5,8000bac4 <i_11551>

000000008000bab4 <i_11547>:
    8000bab4:	419f0b3b          	subw	s6,t5,s9

000000008000bab8 <i_11548>:
    8000bab8:	41e986bb          	subw	a3,s3,t5

000000008000babc <i_11549>:
    8000babc:	002b159b          	slliw	a1,s6,0x2

000000008000bac0 <i_11550>:
    8000bac0:	f3416683          	lwu	a3,-204(sp)

000000008000bac4 <i_11551>:
    8000bac4:	0d816383          	lwu	t2,216(sp)

000000008000bac8 <i_11552>:
    8000bac8:	07613423          	sd	s6,104(sp)

000000008000bacc <i_11553>:
    8000bacc:	403381bb          	subw	gp,t2,gp

000000008000bad0 <i_11554>:
    8000bad0:	003e4c63          	blt	t3,gp,8000bae8 <i_11560>

000000008000bad4 <i_11555>:
    8000bad4:	0163cb33          	xor	s6,t2,s6

000000008000bad8 <i_11556>:
    8000bad8:	0276c233          	div	tp,a3,t2

000000008000badc <i_11557>:
    8000badc:	f2413023          	sd	tp,-224(sp)

000000008000bae0 <i_11558>:
    8000bae0:	003b1b13          	slli	s6,s6,0x3

000000008000bae4 <i_11559>:
    8000bae4:	fd110903          	lb	s2,-47(sp)

000000008000bae8 <i_11560>:
    8000bae8:	0b610ea3          	sb	s6,189(sp)

000000008000baec <i_11561>:
    8000baec:	016b1263          	bne	s6,s6,8000baf0 <i_11562>

000000008000baf0 <i_11562>:
    8000baf0:	11211123          	sh	s2,258(sp)

000000008000baf4 <i_11563>:
    8000baf4:	03691933          	mulh	s2,s2,s6

000000008000baf8 <i_11564>:
    8000baf8:	036199b3          	mulh	s3,gp,s6

000000008000bafc <i_11565>:
    8000bafc:	f2012983          	lw	s3,-224(sp)

000000008000bb00 <i_11566>:
    8000bb00:	016cc663          	blt	s9,s6,8000bb0c <i_11569>

000000008000bb04 <i_11567>:
    8000bb04:	18611b03          	lh	s6,390(sp)

000000008000bb08 <i_11568>:
    8000bb08:	f2d14983          	lbu	s3,-211(sp)

000000008000bb0c <i_11569>:
    8000bb0c:	00000013          	nop

000000008000bb10 <i_11570>:
    8000bb10:	033919b3          	mulh	s3,s2,s3

000000008000bb14 <i_11571>:
    8000bb14:	85500413          	li	s0,-1963

000000008000bb18 <i_11572>:
    8000bb18:	86800293          	li	t0,-1944

000000008000bb1c <i_11573>:
    8000bb1c:	00000013          	nop

000000008000bb20 <i_11574>:
    8000bb20:	a7eccc93          	xori	s9,s9,-1410

000000008000bb24 <i_11575>:
    8000bb24:	7d600393          	li	t2,2006

000000008000bb28 <i_11576>:
    8000bb28:	7d800e13          	li	t3,2008

000000008000bb2c <i_11577>:
    8000bb2c:	00000013          	nop

000000008000bb30 <i_11578>:
    8000bb30:	00000013          	nop

000000008000bb34 <i_11579>:
    8000bb34:	00138393          	addi	t2,t2,1
    8000bb38:	ffc3eae3          	bltu	t2,t3,8000bb2c <i_11577>

000000008000bb3c <i_11580>:
    8000bb3c:	ff215203          	lhu	tp,-14(sp)

000000008000bb40 <i_11581>:
    8000bb40:	00140413          	addi	s0,s0,1
    8000bb44:	fc829ce3          	bne	t0,s0,8000bb1c <i_11573>

000000008000bb48 <i_11582>:
    8000bb48:	15813203          	ld	tp,344(sp)

000000008000bb4c <i_11583>:
    8000bb4c:	fb013203          	ld	tp,-80(sp)

000000008000bb50 <i_11584>:
    8000bb50:	0044f863          	bleu	tp,s1,8000bb60 <i_11588>

000000008000bb54 <i_11585>:
    8000bb54:	f0810e83          	lb	t4,-248(sp)

000000008000bb58 <i_11586>:
    8000bb58:	00ab6463          	bltu	s6,a0,8000bb60 <i_11588>

000000008000bb5c <i_11587>:
    8000bb5c:	e4420993          	addi	s3,tp,-444 # ffffffffbb012e44 <_end+0xffffffff3b002a30>

000000008000bb60 <i_11588>:
    8000bb60:	00735263          	ble	t2,t1,8000bb64 <i_11589>

000000008000bb64 <i_11589>:
    8000bb64:	01911c23          	sh	s9,24(sp)

000000008000bb68 <i_11590>:
    8000bb68:	71898e1b          	addiw	t3,s3,1816

000000008000bb6c <i_11591>:
    8000bb6c:	028ef063          	bleu	s0,t4,8000bb8c <i_11599>

000000008000bb70 <i_11592>:
    8000bb70:	e4615183          	lhu	gp,-442(sp)

000000008000bb74 <i_11593>:
    8000bb74:	00000013          	nop

000000008000bb78 <i_11594>:
    8000bb78:	ee013183          	ld	gp,-288(sp)

000000008000bb7c <i_11595>:
    8000bb7c:	f2c4839b          	addiw	t2,s1,-212

000000008000bb80 <i_11596>:
    8000bb80:	0b912a23          	sw	s9,180(sp)

000000008000bb84 <i_11597>:
    8000bb84:	f8011683          	lh	a3,-128(sp)

000000008000bb88 <i_11598>:
    8000bb88:	003cd093          	srli	ra,s9,0x3

000000008000bb8c <i_11599>:
    8000bb8c:	00998533          	add	a0,s3,s1

000000008000bb90 <i_11600>:
    8000bb90:	06913823          	sd	s1,112(sp)

000000008000bb94 <i_11601>:
    8000bb94:	76500c93          	li	s9,1893

000000008000bb98 <i_11602>:
    8000bb98:	77900493          	li	s1,1913

000000008000bb9c <i_11603>:
    8000bb9c:	02c089bb          	mulw	s3,ra,a2

000000008000bba0 <i_11604>:
    8000bba0:	402edf1b          	sraiw	t5,t4,0x2

000000008000bba4 <i_11605>:
    8000bba4:	f5c14f03          	lbu	t5,-164(sp)

000000008000bba8 <i_11606>:
    8000bba8:	851890b7          	lui	ra,0x85189

000000008000bbac <i_11607>:
    8000bbac:	001c8c93          	addi	s9,s9,1
    8000bbb0:	fe9cc6e3          	blt	s9,s1,8000bb9c <i_11603>

000000008000bbb4 <i_11608>:
    8000bbb4:	03e0c533          	div	a0,ra,t5

000000008000bbb8 <i_11609>:
    8000bbb8:	0340b933          	mulhu	s2,ra,s4

000000008000bbbc <i_11610>:
    8000bbbc:	0dd10403          	lb	s0,221(sp)

000000008000bbc0 <i_11611>:
    8000bbc0:	f0812a23          	sw	s0,-236(sp)

000000008000bbc4 <i_11612>:
    8000bbc4:	00147e63          	bleu	ra,s0,8000bbe0 <i_11619>

000000008000bbc8 <i_11613>:
    8000bbc8:	18a14983          	lbu	s3,394(sp)

000000008000bbcc <i_11614>:
    8000bbcc:	1a810403          	lb	s0,424(sp)

000000008000bbd0 <i_11615>:
    8000bbd0:	03394933          	div	s2,s2,s3

000000008000bbd4 <i_11616>:
    8000bbd4:	ed813983          	ld	s3,-296(sp)

000000008000bbd8 <i_11617>:
    8000bbd8:	00c16183          	lwu	gp,12(sp)

000000008000bbdc <i_11618>:
    8000bbdc:	03545463          	ble	s5,s0,8000bc04 <i_11628>

000000008000bbe0 <i_11619>:
    8000bbe0:	00395f93          	srli	t6,s2,0x3

000000008000bbe4 <i_11620>:
    8000bbe4:	ffe14a03          	lbu	s4,-2(sp)

000000008000bbe8 <i_11621>:
    8000bbe8:	033a0263          	beq	s4,s3,8000bc0c <i_11630>

000000008000bbec <i_11622>:
    8000bbec:	1d415603          	lhu	a2,468(sp)

000000008000bbf0 <i_11623>:
    8000bbf0:	15413023          	sd	s4,320(sp)

000000008000bbf4 <i_11624>:
    8000bbf4:	00b00413          	li	s0,11

000000008000bbf8 <i_11625>:
    8000bbf8:	00899cbb          	sllw	s9,s3,s0

000000008000bbfc <i_11626>:
    8000bbfc:	0e811f23          	sh	s0,254(sp)

000000008000bc00 <i_11627>:
    8000bc00:	00000013          	nop

000000008000bc04 <i_11628>:
    8000bc04:	e5c16403          	lwu	s0,-420(sp)

000000008000bc08 <i_11629>:
    8000bc08:	13313023          	sd	s3,288(sp)

000000008000bc0c <i_11630>:
    8000bc0c:	0c812a23          	sw	s0,212(sp)

000000008000bc10 <i_11631>:
    8000bc10:	85946393          	ori	t2,s0,-1959

000000008000bc14 <i_11632>:
    8000bc14:	7d900993          	li	s3,2009

000000008000bc18 <i_11633>:
    8000bc18:	7e600613          	li	a2,2022

000000008000bc1c <i_11634>:
    8000bc1c:	ef913023          	sd	s9,-288(sp)

000000008000bc20 <i_11635>:
    8000bc20:	00840833          	add	a6,s0,s0

000000008000bc24 <i_11636>:
    8000bc24:	00198993          	addi	s3,s3,1 # 2fc6f99d <main-0x50390663>
    8000bc28:	fec9eae3          	bltu	s3,a2,8000bc1c <i_11634>

000000008000bc2c <i_11637>:
    8000bc2c:	01c11c83          	lh	s9,28(sp)

000000008000bc30 <i_11638>:
    8000bc30:	fc914e83          	lbu	t4,-55(sp)

000000008000bc34 <i_11639>:
    8000bc34:	f2c12823          	sw	a2,-208(sp)

000000008000bc38 <i_11640>:
    8000bc38:	1d813803          	ld	a6,472(sp)

000000008000bc3c <i_11641>:
    8000bc3c:	010ee4b3          	or	s1,t4,a6

000000008000bc40 <i_11642>:
    8000bc40:	401ed39b          	sraiw	t2,t4,0x1

000000008000bc44 <i_11643>:
    8000bc44:	03d3a4b3          	mulhsu	s1,t2,t4

000000008000bc48 <i_11644>:
    8000bc48:	02b14503          	lbu	a0,43(sp)

000000008000bc4c <i_11645>:
    8000bc4c:	01900513          	li	a0,25

000000008000bc50 <i_11646>:
    8000bc50:	40a553b3          	sra	t2,a0,a0

000000008000bc54 <i_11647>:
    8000bc54:	06712423          	sw	t2,104(sp)

000000008000bc58 <i_11648>:
    8000bc58:	14015383          	lhu	t2,320(sp)

000000008000bc5c <i_11649>:
    8000bc5c:	f1e11c83          	lh	s9,-226(sp)

000000008000bc60 <i_11650>:
    8000bc60:	fdc11303          	lh	t1,-36(sp)

000000008000bc64 <i_11651>:
    8000bc64:	00770bb3          	add	s7,a4,t2

000000008000bc68 <i_11652>:
    8000bc68:	fd410183          	lb	gp,-44(sp)

000000008000bc6c <i_11653>:
    8000bc6c:	12013183          	ld	gp,288(sp)

000000008000bc70 <i_11654>:
    8000bc70:	07c15b03          	lhu	s6,124(sp)

000000008000bc74 <i_11655>:
    8000bc74:	edc11b03          	lh	s6,-292(sp)

000000008000bc78 <i_11656>:
    8000bc78:	0031ce63          	blt	gp,gp,8000bc94 <i_11663>

000000008000bc7c <i_11657>:
    8000bc7c:	003b5b13          	srli	s6,s6,0x3

000000008000bc80 <i_11658>:
    8000bc80:	41618b33          	sub	s6,gp,s6

000000008000bc84 <i_11659>:
    8000bc84:	00000013          	nop

000000008000bc88 <i_11660>:
    8000bc88:	eda11383          	lh	t2,-294(sp)

000000008000bc8c <i_11661>:
    8000bc8c:	003b5d9b          	srliw	s11,s6,0x3

000000008000bc90 <i_11662>:
    8000bc90:	00000013          	nop

000000008000bc94 <i_11663>:
    8000bc94:	00000013          	nop

000000008000bc98 <i_11664>:
    8000bc98:	0a012d03          	lw	s10,160(sp)

000000008000bc9c <i_11665>:
    8000bc9c:	84e00193          	li	gp,-1970

000000008000bca0 <i_11666>:
    8000bca0:	86100b93          	li	s7,-1951

000000008000bca4 <i_11667>:
    8000bca4:	037b4063          	blt	s6,s7,8000bcc4 <i_11674>

000000008000bca8 <i_11668>:
    8000bca8:	e2710d23          	sb	t2,-454(sp)

000000008000bcac <i_11669>:
    8000bcac:	036dd933          	divu	s2,s11,s6

000000008000bcb0 <i_11670>:
    8000bcb0:	07213423          	sd	s2,104(sp)

000000008000bcb4 <i_11671>:
    8000bcb4:	00118193          	addi	gp,gp,1 # fffffffff4084001 <_end+0xffffffff74073bed>
    8000bcb8:	ff71c6e3          	blt	gp,s7,8000bca4 <i_11667>

000000008000bcbc <i_11672>:
    8000bcbc:	00000013          	nop

000000008000bcc0 <i_11673>:
    8000bcc0:	032b5b33          	divu	s6,s6,s2

000000008000bcc4 <i_11674>:
    8000bcc4:	012b1663          	bne	s6,s2,8000bcd0 <i_11677>

000000008000bcc8 <i_11675>:
    8000bcc8:	18814b03          	lbu	s6,392(sp)

000000008000bccc <i_11676>:
    8000bccc:	016b7c63          	bleu	s6,s6,8000bce4 <i_11682>

000000008000bcd0 <i_11677>:
    8000bcd0:	00f00613          	li	a2,15

000000008000bcd4 <i_11678>:
    8000bcd4:	40cfdb33          	sra	s6,t6,a2

000000008000bcd8 <i_11679>:
    8000bcd8:	e1a11203          	lh	tp,-486(sp)

000000008000bcdc <i_11680>:
    8000bcdc:	eb710f83          	lb	t6,-329(sp)

000000008000bce0 <i_11681>:
    8000bce0:	e7813503          	ld	a0,-392(sp)

000000008000bce4 <i_11682>:
    8000bce4:	024fd463          	ble	tp,t6,8000bd0c <i_11692>

000000008000bce8 <i_11683>:
    8000bce8:	04311623          	sh	gp,76(sp)

000000008000bcec <i_11684>:
    8000bcec:	0db12623          	sw	s11,204(sp)

000000008000bcf0 <i_11685>:
    8000bcf0:	98bffd93          	andi	s11,t6,-1653

000000008000bcf4 <i_11686>:
    8000bcf4:	00afd263          	ble	a0,t6,8000bcf8 <i_11687>

000000008000bcf8 <i_11687>:
    8000bcf8:	03fd9263          	bne	s11,t6,8000bd1c <i_11696>

000000008000bcfc <i_11688>:
    8000bcfc:	11f10aa3          	sb	t6,277(sp)

000000008000bd00 <i_11689>:
    8000bd00:	1bd14783          	lbu	a5,445(sp)

000000008000bd04 <i_11690>:
    8000bd04:	01013183          	ld	gp,16(sp)

000000008000bd08 <i_11691>:
    8000bd08:	01b55663          	ble	s11,a0,8000bd14 <i_11694>

000000008000bd0c <i_11692>:
    8000bd0c:	15a15f83          	lhu	t6,346(sp)

000000008000bd10 <i_11693>:
    8000bd10:	ea016483          	lwu	s1,-352(sp)

000000008000bd14 <i_11694>:
    8000bd14:	f8311b23          	sh	gp,-106(sp)

000000008000bd18 <i_11695>:
    8000bd18:	02b1efbb          	remw	t6,gp,a1

000000008000bd1c <i_11696>:
    8000bd1c:	e6f11c23          	sh	a5,-392(sp)

000000008000bd20 <i_11697>:
    8000bd20:	ebf11a23          	sh	t6,-332(sp)

000000008000bd24 <i_11698>:
    8000bd24:	fcc12183          	lw	gp,-52(sp)

000000008000bd28 <i_11699>:
    8000bd28:	f4c16f03          	lwu	t5,-180(sp)

000000008000bd2c <i_11700>:
    8000bd2c:	4031d91b          	sraiw	s2,gp,0x3

000000008000bd30 <i_11701>:
    8000bd30:	fb016783          	lwu	a5,-80(sp)

000000008000bd34 <i_11702>:
    8000bd34:	02f7f933          	remu	s2,a5,a5

000000008000bd38 <i_11703>:
    8000bd38:	f8411783          	lh	a5,-124(sp)

000000008000bd3c <i_11704>:
    8000bd3c:	0237f063          	bleu	gp,a5,8000bd5c <i_11712>

000000008000bd40 <i_11705>:
    8000bd40:	0041e3b3          	or	t2,gp,tp

000000008000bd44 <i_11706>:
    8000bd44:	aa83ec93          	ori	s9,t2,-1368

000000008000bd48 <i_11707>:
    8000bd48:	02f3e263          	bltu	t2,a5,8000bd6c <i_11716>

000000008000bd4c <i_11708>:
    8000bd4c:	00796c63          	bltu	s2,t2,8000bd64 <i_11714>

000000008000bd50 <i_11709>:
    8000bd50:	6d394913          	xori	s2,s2,1747

000000008000bd54 <i_11710>:
    8000bd54:	00a7d663          	ble	a0,a5,8000bd60 <i_11713>

000000008000bd58 <i_11711>:
    8000bd58:	00790e63          	beq	s2,t2,8000bd74 <i_11718>

000000008000bd5c <i_11712>:
    8000bd5c:	e9016903          	lwu	s2,-368(sp)

000000008000bd60 <i_11713>:
    8000bd60:	013b4533          	xor	a0,s6,s3

000000008000bd64 <i_11714>:
    8000bd64:	e7211c23          	sh	s2,-392(sp)

000000008000bd68 <i_11715>:
    8000bd68:	03012903          	lw	s2,48(sp)

000000008000bd6c <i_11716>:
    8000bd6c:	00000013          	nop

000000008000bd70 <i_11717>:
    8000bd70:	f8816783          	lwu	a5,-120(sp)

000000008000bd74 <i_11718>:
    8000bd74:	00000013          	nop

000000008000bd78 <i_11719>:
    8000bd78:	00a00693          	li	a3,10

000000008000bd7c <i_11720>:
    8000bd7c:	00d7d1bb          	srlw	gp,a5,a3

000000008000bd80 <i_11721>:
    8000bd80:	74300b13          	li	s6,1859

000000008000bd84 <i_11722>:
    8000bd84:	74800d93          	li	s11,1864

000000008000bd88 <i_11723>:
    8000bd88:	00200513          	li	a0,2

000000008000bd8c <i_11724>:
    8000bd8c:	40a2d2bb          	sraw	t0,t0,a0

000000008000bd90 <i_11725>:
    8000bd90:	02d787bb          	mulw	a5,a5,a3

000000008000bd94 <i_11726>:
    8000bd94:	fe728e93          	addi	t4,t0,-25

000000008000bd98 <i_11727>:
    8000bd98:	4c2efe93          	andi	t4,t4,1218

000000008000bd9c <i_11728>:
    8000bd9c:	00000013          	nop

000000008000bda0 <i_11729>:
    8000bda0:	ff014e83          	lbu	t4,-16(sp)

000000008000bda4 <i_11730>:
    8000bda4:	07d12e23          	sw	t4,124(sp)

000000008000bda8 <i_11731>:
    8000bda8:	5a37a293          	slti	t0,a5,1443

000000008000bdac <i_11732>:
    8000bdac:	03d7dfb3          	divu	t6,a5,t4

000000008000bdb0 <i_11733>:
    8000bdb0:	001b0b13          	addi	s6,s6,1 # 1794f381 <main-0x686b0c7f>
    8000bdb4:	fdbb68e3          	bltu	s6,s11,8000bd84 <i_11722>

000000008000bdb8 <i_11734>:
    8000bdb8:	0017bcb3          	sltu	s9,a5,ra

000000008000bdbc <i_11735>:
    8000bdbc:	fe310283          	lb	t0,-29(sp)

000000008000bdc0 <i_11736>:
    8000bdc0:	f0416803          	lwu	a6,-252(sp)

000000008000bdc4 <i_11737>:
    8000bdc4:	0bf54fb7          	lui	t6,0xbf54

000000008000bdc8 <i_11738>:
    8000bdc8:	00289093          	slli	ra,a7,0x2

000000008000bdcc <i_11739>:
    8000bdcc:	03008cbb          	mulw	s9,ra,a6

000000008000bdd0 <i_11740>:
    8000bdd0:	fb514083          	lbu	ra,-75(sp)

000000008000bdd4 <i_11741>:
    8000bdd4:	f5e11d03          	lh	s10,-162(sp)

000000008000bdd8 <i_11742>:
    8000bdd8:	021280bb          	mulw	ra,t0,ra

000000008000bddc <i_11743>:
    8000bddc:	01ed0f33          	add	t5,s10,t5

000000008000bde0 <i_11744>:
    8000bde0:	eec15283          	lhu	t0,-276(sp)

000000008000bde4 <i_11745>:
    8000bde4:	021d0463          	beq	s10,ra,8000be0c <i_11755>

000000008000bde8 <i_11746>:
    8000bde8:	14510fa3          	sb	t0,351(sp)

000000008000bdec <i_11747>:
    8000bdec:	0012ec63          	bltu	t0,ra,8000be04 <i_11753>

000000008000bdf0 <i_11748>:
    8000bdf0:	0ba11423          	sh	s10,168(sp)

000000008000bdf4 <i_11749>:
    8000bdf4:	7510e093          	ori	ra,ra,1873

000000008000bdf8 <i_11750>:
    8000bdf8:	f3815083          	lhu	ra,-200(sp)

000000008000bdfc <i_11751>:
    8000bdfc:	1c113423          	sd	ra,456(sp)

000000008000be00 <i_11752>:
    8000be00:	0120e0b3          	or	ra,ra,s2

000000008000be04 <i_11753>:
    8000be04:	f2114b03          	lbu	s6,-223(sp)

000000008000be08 <i_11754>:
    8000be08:	f0112823          	sw	ra,-240(sp)

000000008000be0c <i_11755>:
    8000be0c:	c860a097          	auipc	ra,0xc860a

000000008000be10 <i_11756>:
    8000be10:	001b5e63          	ble	ra,s6,8000be2c <i_11763>

000000008000be14 <i_11757>:
    8000be14:	08815083          	lhu	ra,136(sp)

000000008000be18 <i_11758>:
    8000be18:	14113023          	sd	ra,320(sp)

000000008000be1c <i_11759>:
    8000be1c:	f8112023          	sw	ra,-128(sp)

000000008000be20 <i_11760>:
    8000be20:	00135663          	ble	ra,t1,8000be2c <i_11763>

000000008000be24 <i_11761>:
    8000be24:	15012023          	sw	a6,320(sp)

000000008000be28 <i_11762>:
    8000be28:	418207b3          	sub	a5,tp,s8

000000008000be2c <i_11763>:
    8000be2c:	021b1263          	bne	s6,ra,8000be50 <i_11772>

000000008000be30 <i_11764>:
    8000be30:	1cf12423          	sw	a5,456(sp)

000000008000be34 <i_11765>:
    8000be34:	f08b059b          	addiw	a1,s6,-248

000000008000be38 <i_11766>:
    8000be38:	fc112e23          	sw	ra,-36(sp)

000000008000be3c <i_11767>:
    8000be3c:	01609263          	bne	ra,s6,8000be40 <i_11768>

000000008000be40 <i_11768>:
    8000be40:	0010f263          	bleu	ra,ra,8000be44 <i_11769>

000000008000be44 <i_11769>:
    8000be44:	0135d863          	ble	s3,a1,8000be54 <i_11773>

000000008000be48 <i_11770>:
    8000be48:	e7813b03          	ld	s6,-392(sp)

000000008000be4c <i_11771>:
    8000be4c:	12a10083          	lb	ra,298(sp)

000000008000be50 <i_11772>:
    8000be50:	036b73bb          	remuw	t2,s6,s6

000000008000be54 <i_11773>:
    8000be54:	00000013          	nop

000000008000be58 <i_11774>:
    8000be58:	f1d14283          	lbu	t0,-227(sp)

000000008000be5c <i_11775>:
    8000be5c:	78500093          	li	ra,1925

000000008000be60 <i_11776>:
    8000be60:	79500593          	li	a1,1941

000000008000be64 <i_11777>:
    8000be64:	06f11723          	sh	a5,110(sp)

000000008000be68 <i_11778>:
    8000be68:	00500e93          	li	t4,5

000000008000be6c <i_11779>:
    8000be6c:	41db54b3          	sra	s1,s6,t4

000000008000be70 <i_11780>:
    8000be70:	00108093          	addi	ra,ra,1 # 48615e0d <main-0x379ea1f3>
    8000be74:	fe15f8e3          	bleu	ra,a1,8000be64 <i_11777>

000000008000be78 <i_11781>:
    8000be78:	02b4863b          	mulw	a2,s1,a1

000000008000be7c <i_11782>:
    8000be7c:	0350f5b3          	remu	a1,ra,s5

000000008000be80 <i_11783>:
    8000be80:	e2415483          	lhu	s1,-476(sp)

000000008000be84 <i_11784>:
    8000be84:	0f914603          	lbu	a2,249(sp)

000000008000be88 <i_11785>:
    8000be88:	00a82ab3          	slt	s5,a6,a0

000000008000be8c <i_11786>:
    8000be8c:	01d7c663          	blt	a5,t4,8000be98 <i_11789>

000000008000be90 <i_11787>:
    8000be90:	01567e33          	and	t3,a2,s5

000000008000be94 <i_11788>:
    8000be94:	00000013          	nop

000000008000be98 <i_11789>:
    8000be98:	02200a93          	li	s5,34

000000008000be9c <i_11790>:
    8000be9c:	415e51b3          	sra	gp,t3,s5

000000008000bea0 <i_11791>:
    8000bea0:	7a100793          	li	a5,1953

000000008000bea4 <i_11792>:
    8000bea4:	7aa00b93          	li	s7,1962

000000008000bea8 <i_11793>:
    8000bea8:	09414a83          	lbu	s5,148(sp)

000000008000beac <i_11794>:
    8000beac:	004f159b          	slliw	a1,t5,0x4

000000008000beb0 <i_11795>:
    8000beb0:	f4a5ea93          	ori	s5,a1,-182

000000008000beb4 <i_11796>:
    8000beb4:	00000013          	nop

000000008000beb8 <i_11797>:
    8000beb8:	035adebb          	divuw	t4,s5,s5

000000008000bebc <i_11798>:
    8000bebc:	00000013          	nop

000000008000bec0 <i_11799>:
    8000bec0:	035a9263          	bne	s5,s5,8000bee4 <i_11807>

000000008000bec4 <i_11800>:
    8000bec4:	f3512a23          	sw	s5,-204(sp)

000000008000bec8 <i_11801>:
    8000bec8:	10c15a83          	lhu	s5,268(sp)

000000008000becc <i_11802>:
    8000becc:	00178793          	addi	a5,a5,1 # fc4bfa41 <_end+0x7c4af62d>
    8000bed0:	fcfbdce3          	ble	a5,s7,8000bea8 <i_11793>

000000008000bed4 <i_11803>:
    8000bed4:	012ad663          	ble	s2,s5,8000bee0 <i_11806>

000000008000bed8 <i_11804>:
    8000bed8:	f0811f83          	lh	t6,-248(sp)

000000008000bedc <i_11805>:
    8000bedc:	f3112823          	sw	a7,-208(sp)

000000008000bee0 <i_11806>:
    8000bee0:	03fa8063          	beq	s5,t6,8000bf00 <i_11814>

000000008000bee4 <i_11807>:
    8000bee4:	1b412283          	lw	t0,436(sp)

000000008000bee8 <i_11808>:
    8000bee8:	0ac12f83          	lw	t6,172(sp)

000000008000beec <i_11809>:
    8000beec:	bf2fa293          	slti	t0,t6,-1038

000000008000bef0 <i_11810>:
    8000bef0:	bc728f93          	addi	t6,t0,-1081

000000008000bef4 <i_11811>:
    8000bef4:	0257efb3          	rem	t6,a5,t0

000000008000bef8 <i_11812>:
    8000bef8:	fc213823          	sd	sp,-48(sp)

000000008000befc <i_11813>:
    8000befc:	fbf13423          	sd	t6,-88(sp)

000000008000bf00 <i_11814>:
    8000bf00:	004f9293          	slli	t0,t6,0x4

000000008000bf04 <i_11815>:
    8000bf04:	01ffffb3          	and	t6,t6,t6

000000008000bf08 <i_11816>:
    8000bf08:	03ff9263          	bne	t6,t6,8000bf2c <i_11825>

000000008000bf0c <i_11817>:
    8000bf0c:	19412383          	lw	t2,404(sp)

000000008000bf10 <i_11818>:
    8000bf10:	10415383          	lhu	t2,260(sp)

000000008000bf14 <i_11819>:
    8000bf14:	528fac13          	slti	s8,t6,1320

000000008000bf18 <i_11820>:
    8000bf18:	00000013          	nop

000000008000bf1c <i_11821>:
    8000bf1c:	03fc2c33          	mulhsu	s8,s8,t6

000000008000bf20 <i_11822>:
    8000bf20:	07415c03          	lhu	s8,116(sp)

000000008000bf24 <i_11823>:
    8000bf24:	13f10aa3          	sb	t6,309(sp)

000000008000bf28 <i_11824>:
    8000bf28:	00000013          	nop

000000008000bf2c <i_11825>:
    8000bf2c:	0ff13023          	sd	t6,224(sp)

000000008000bf30 <i_11826>:
    8000bf30:	00000013          	nop

000000008000bf34 <i_11827>:
    8000bf34:	79a00f93          	li	t6,1946

000000008000bf38 <i_11828>:
    8000bf38:	7aa00593          	li	a1,1962

000000008000bf3c <i_11829>:
    8000bf3c:	015a8ab3          	add	s5,s5,s5

000000008000bf40 <i_11830>:
    8000bf40:	00000013          	nop

000000008000bf44 <i_11831>:
    8000bf44:	1a813503          	ld	a0,424(sp)

000000008000bf48 <i_11832>:
    8000bf48:	012ac463          	blt	s5,s2,8000bf50 <i_11834>

000000008000bf4c <i_11833>:
    8000bf4c:	12414c03          	lbu	s8,292(sp)

000000008000bf50 <i_11834>:
    8000bf50:	02b080b3          	mul	ra,ra,a1

000000008000bf54 <i_11835>:
    8000bf54:	ed815a83          	lhu	s5,-296(sp)

000000008000bf58 <i_11836>:
    8000bf58:	001f8f93          	addi	t6,t6,1 # bf54001 <main-0x740abfff>
    8000bf5c:	febfe0e3          	bltu	t6,a1,8000bf3c <i_11829>

000000008000bf60 <i_11837>:
    8000bf60:	003c151b          	slliw	a0,s8,0x3

000000008000bf64 <i_11838>:
    8000bf64:	0040d593          	srli	a1,ra,0x4

000000008000bf68 <i_11839>:
    8000bf68:	1b013583          	ld	a1,432(sp)

000000008000bf6c <i_11840>:
    8000bf6c:	f2813583          	ld	a1,-216(sp)

000000008000bf70 <i_11841>:
    8000bf70:	88300093          	li	ra,-1917

000000008000bf74 <i_11842>:
    8000bf74:	89700513          	li	a0,-1897

000000008000bf78 <i_11843>:
    8000bf78:	f6a12823          	sw	a0,-144(sp)

000000008000bf7c <i_11844>:
    8000bf7c:	02b50c3b          	mulw	s8,a0,a1

000000008000bf80 <i_11845>:
    8000bf80:	0385823b          	mulw	tp,a1,s8

000000008000bf84 <i_11846>:
    8000bf84:	01a00193          	li	gp,26

000000008000bf88 <i_11847>:
    8000bf88:	403551bb          	sraw	gp,a0,gp

000000008000bf8c <i_11848>:
    8000bf8c:	00000013          	nop

000000008000bf90 <i_11849>:
    8000bf90:	02a26333          	rem	t1,tp,a0

000000008000bf94 <i_11850>:
    8000bf94:	f97c0c9b          	addiw	s9,s8,-105

000000008000bf98 <i_11851>:
    8000bf98:	02136063          	bltu	t1,ra,8000bfb8 <i_11858>

000000008000bf9c <i_11852>:
    8000bf9c:	ed111123          	sh	a7,-318(sp)

000000008000bfa0 <i_11853>:
    8000bfa0:	00012303          	lw	t1,0(sp)

000000008000bfa4 <i_11854>:
    8000bfa4:	404cdc93          	srai	s9,s9,0x4

000000008000bfa8 <i_11855>:
    8000bfa8:	00108093          	addi	ra,ra,1
    8000bfac:	fca0e6e3          	bltu	ra,a0,8000bf78 <i_11843>

000000008000bfb0 <i_11856>:
    8000bfb0:	006cf863          	bleu	t1,s9,8000bfc0 <i_11860>

000000008000bfb4 <i_11857>:
    8000bfb4:	ec611e23          	sh	t1,-292(sp)

000000008000bfb8 <i_11858>:
    8000bfb8:	41530f3b          	subw	t5,t1,s5

000000008000bfbc <i_11859>:
    8000bfbc:	f9914983          	lbu	s3,-103(sp)

000000008000bfc0 <i_11860>:
    8000bfc0:	006349b3          	xor	s3,t1,t1

000000008000bfc4 <i_11861>:
    8000bfc4:	06c12a83          	lw	s5,108(sp)

000000008000bfc8 <i_11862>:
    8000bfc8:	01a5f463          	bleu	s10,a1,8000bfd0 <i_11864>

000000008000bfcc <i_11863>:
    8000bfcc:	e7c15603          	lhu	a2,-388(sp)

000000008000bfd0 <i_11864>:
    8000bfd0:	013bd663          	ble	s3,s7,8000bfdc <i_11867>

000000008000bfd4 <i_11865>:
    8000bfd4:	11011403          	lh	s0,272(sp)

000000008000bfd8 <i_11866>:
    8000bfd8:	0de13023          	sd	t5,192(sp)

000000008000bfdc <i_11867>:
    8000bfdc:	039cd1b3          	divu	gp,s9,s9

000000008000bfe0 <i_11868>:
    8000bfe0:	04615583          	lhu	a1,70(sp)

000000008000bfe4 <i_11869>:
    8000bfe4:	eec11783          	lh	a5,-276(sp)

000000008000bfe8 <i_11870>:
    8000bfe8:	033797b3          	mulh	a5,a5,s3

000000008000bfec <i_11871>:
    8000bfec:	1a210783          	lb	a5,418(sp)

000000008000bff0 <i_11872>:
    8000bff0:	e8412f83          	lw	t6,-380(sp)

000000008000bff4 <i_11873>:
    8000bff4:	0eb14b03          	lbu	s6,235(sp)

000000008000bff8 <i_11874>:
    8000bff8:	f9011783          	lh	a5,-112(sp)

000000008000bffc <i_11875>:
    8000bffc:	f96104a3          	sb	s6,-119(sp)

000000008000c000 <i_11876>:
    8000c000:	024d7063          	bleu	tp,s10,8000c020 <i_11884>

000000008000c004 <i_11877>:
    8000c004:	e8e15203          	lhu	tp,-370(sp)

000000008000c008 <i_11878>:
    8000c008:	18416503          	lwu	a0,388(sp)

000000008000c00c <i_11879>:
    8000c00c:	02622d33          	mulhsu	s10,tp,t1

000000008000c010 <i_11880>:
    8000c010:	02a7e7bb          	remw	a5,a5,a0

000000008000c014 <i_11881>:
    8000c014:	04f11923          	sh	a5,82(sp)

000000008000c018 <i_11882>:
    8000c018:	ebe11723          	sh	t5,-338(sp)

000000008000c01c <i_11883>:
    8000c01c:	ffa12c23          	sw	s10,-8(sp)

000000008000c020 <i_11884>:
    8000c020:	19c11d03          	lh	s10,412(sp)

000000008000c024 <i_11885>:
    8000c024:	01ad7d33          	and	s10,s10,s10

000000008000c028 <i_11886>:
    8000c028:	07810503          	lb	a0,120(sp)

000000008000c02c <i_11887>:
    8000c02c:	00200f93          	li	t6,2

000000008000c030 <i_11888>:
    8000c030:	41f5553b          	sraw	a0,a0,t6

000000008000c034 <i_11889>:
    8000c034:	01500213          	li	tp,21

000000008000c038 <i_11890>:
    8000c038:	0041d1bb          	srlw	gp,gp,tp

000000008000c03c <i_11891>:
    8000c03c:	0c314783          	lbu	a5,195(sp)

000000008000c040 <i_11892>:
    8000c040:	e7510183          	lb	gp,-395(sp)

000000008000c044 <i_11893>:
    8000c044:	0297ec33          	rem	s8,a5,s1

000000008000c048 <i_11894>:
    8000c048:	e3a11323          	sh	s10,-474(sp)

000000008000c04c <i_11895>:
    8000c04c:	04813e83          	ld	t4,72(sp)

000000008000c050 <i_11896>:
    8000c050:	77400d13          	li	s10,1908

000000008000c054 <i_11897>:
    8000c054:	77a00913          	li	s2,1914

000000008000c058 <i_11898>:
    8000c058:	fb013783          	ld	a5,-80(sp)

000000008000c05c <i_11899>:
    8000c05c:	00fef863          	bleu	a5,t4,8000c06c <i_11903>

000000008000c060 <i_11900>:
    8000c060:	03d46433          	rem	s0,s0,t4

000000008000c064 <i_11901>:
    8000c064:	95f47793          	andi	a5,s0,-1697

000000008000c068 <i_11902>:
    8000c068:	e7911c23          	sh	s9,-392(sp)

000000008000c06c <i_11903>:
    8000c06c:	00000013          	nop

000000008000c070 <i_11904>:
    8000c070:	f377821b          	addiw	tp,a5,-201

000000008000c074 <i_11905>:
    8000c074:	a4824c93          	xori	s9,tp,-1464

000000008000c078 <i_11906>:
    8000c078:	12812203          	lw	tp,296(sp)

000000008000c07c <i_11907>:
    8000c07c:	001d0d13          	addi	s10,s10,1
    8000c080:	fd2d6ce3          	bltu	s10,s2,8000c058 <i_11898>

000000008000c084 <i_11908>:
    8000c084:	96b94813          	xori	a6,s2,-1685

000000008000c088 <i_11909>:
    8000c088:	03bddcbb          	divuw	s9,s11,s11

000000008000c08c <i_11910>:
    8000c08c:	00387463          	bleu	gp,a6,8000c094 <i_11912>

000000008000c090 <i_11911>:
    8000c090:	010d8db3          	add	s11,s11,a6

000000008000c094 <i_11912>:
    8000c094:	01b86e63          	bltu	a6,s11,8000c0b0 <i_11919>

000000008000c098 <i_11913>:
    8000c098:	ed816c83          	lwu	s9,-296(sp)

000000008000c09c <i_11914>:
    8000c09c:	85edc813          	xori	a6,s11,-1954

000000008000c0a0 <i_11915>:
    8000c0a0:	ea016303          	lwu	t1,-352(sp)

000000008000c0a4 <i_11916>:
    8000c0a4:	01600813          	li	a6,22

000000008000c0a8 <i_11917>:
    8000c0a8:	01081eb3          	sll	t4,a6,a6

000000008000c0ac <i_11918>:
    8000c0ac:	0bd109a3          	sb	t4,179(sp)

000000008000c0b0 <i_11919>:
    8000c0b0:	18e10583          	lb	a1,398(sp)

000000008000c0b4 <i_11920>:
    8000c0b4:	ff412303          	lw	t1,-12(sp)

000000008000c0b8 <i_11921>:
    8000c0b8:	7bf00393          	li	t2,1983

000000008000c0bc <i_11922>:
    8000c0bc:	7c900d93          	li	s11,1993

000000008000c0c0 <i_11923>:
    8000c0c0:	00138393          	addi	t2,t2,1
    8000c0c4:	ffb3cee3          	blt	t2,s11,8000c0c0 <i_11923>

000000008000c0c8 <i_11924>:
    8000c0c8:	03de9263          	bne	t4,t4,8000c0ec <i_11933>

000000008000c0cc <i_11925>:
    8000c0cc:	026359b3          	divu	s3,t1,t1

000000008000c0d0 <i_11926>:
    8000c0d0:	e9813303          	ld	t1,-360(sp)

000000008000c0d4 <i_11927>:
    8000c0d4:	e2b12e23          	sw	a1,-452(sp)

000000008000c0d8 <i_11928>:
    8000c0d8:	03fec5b3          	div	a1,t4,t6

000000008000c0dc <i_11929>:
    8000c0dc:	f8c11a83          	lh	s5,-116(sp)

000000008000c0e0 <i_11930>:
    8000c0e0:	00000013          	nop

000000008000c0e4 <i_11931>:
    8000c0e4:	00000013          	nop

000000008000c0e8 <i_11932>:
    8000c0e8:	0b010fa3          	sb	a6,191(sp)

000000008000c0ec <i_11933>:
    8000c0ec:	13511b23          	sh	s5,310(sp)

000000008000c0f0 <i_11934>:
    8000c0f0:	f7f11923          	sh	t6,-142(sp)

000000008000c0f4 <i_11935>:
    8000c0f4:	8ba00f93          	li	t6,-1862

000000008000c0f8 <i_11936>:
    8000c0f8:	8c000693          	li	a3,-1856

000000008000c0fc <i_11937>:
    8000c0fc:	030e8ebb          	mulw	t4,t4,a6

000000008000c100 <i_11938>:
    8000c100:	e7816c03          	lwu	s8,-392(sp)

000000008000c104 <i_11939>:
    8000c104:	0f412303          	lw	t1,244(sp)

000000008000c108 <i_11940>:
    8000c108:	ff911223          	sh	s9,-28(sp)

000000008000c10c <i_11941>:
    8000c10c:	001f8f93          	addi	t6,t6,1
    8000c110:	fedfc6e3          	blt	t6,a3,8000c0fc <i_11937>

000000008000c114 <i_11942>:
    8000c114:	00000013          	nop

000000008000c118 <i_11943>:
    8000c118:	ea710303          	lb	t1,-345(sp)

000000008000c11c <i_11944>:
    8000c11c:	00231e1b          	slliw	t3,t1,0x2

000000008000c120 <i_11945>:
    8000c120:	0c813603          	ld	a2,200(sp)

000000008000c124 <i_11946>:
    8000c124:	ebf10303          	lb	t1,-321(sp)

000000008000c128 <i_11947>:
    8000c128:	00bf3633          	sltu	a2,t5,a1

000000008000c12c <i_11948>:
    8000c12c:	00c31463          	bne	t1,a2,8000c134 <i_11950>

000000008000c130 <i_11949>:
    8000c130:	01c61663          	bne	a2,t3,8000c13c <i_11952>

000000008000c134 <i_11950>:
    8000c134:	03f63c33          	mulhu	s8,a2,t6

000000008000c138 <i_11951>:
    8000c138:	038c05b3          	mul	a1,s8,s8

000000008000c13c <i_11952>:
    8000c13c:	00ce0c63          	beq	t3,a2,8000c154 <i_11958>

000000008000c140 <i_11953>:
    8000c140:	00200f13          	li	t5,2

000000008000c144 <i_11954>:
    8000c144:	01e4d4bb          	srlw	s1,s1,t5

000000008000c148 <i_11955>:
    8000c148:	03e11983          	lh	s3,62(sp)

000000008000c14c <i_11956>:
    8000c14c:	029314b3          	mulh	s1,t1,s1

000000008000c150 <i_11957>:
    8000c150:	fcc12583          	lw	a1,-52(sp)

000000008000c154 <i_11958>:
    8000c154:	ecb104a3          	sb	a1,-311(sp)

000000008000c158 <i_11959>:
    8000c158:	002c1f1b          	slliw	t5,s8,0x2

000000008000c15c <i_11960>:
    8000c15c:	01759c63          	bne	a1,s7,8000c174 <i_11966>

000000008000c160 <i_11961>:
    8000c160:	f5811f23          	sh	s8,-162(sp)

000000008000c164 <i_11962>:
    8000c164:	00399e1b          	slliw	t3,s3,0x3

000000008000c168 <i_11963>:
    8000c168:	f1813423          	sd	s8,-248(sp)

000000008000c16c <i_11964>:
    8000c16c:	00b5e263          	bltu	a1,a1,8000c170 <i_11965>

000000008000c170 <i_11965>:
    8000c170:	0065a833          	slt	a6,a1,t1

000000008000c174 <i_11966>:
    8000c174:	9b05b613          	sltiu	a2,a1,-1616

000000008000c178 <i_11967>:
    8000c178:	03010183          	lb	gp,48(sp)

000000008000c17c <i_11968>:
    8000c17c:	4042df13          	srai	t5,t0,0x4

000000008000c180 <i_11969>:
    8000c180:	00be4863          	blt	t3,a1,8000c190 <i_11973>

000000008000c184 <i_11970>:
    8000c184:	03881063          	bne	a6,s8,8000c1a4 <i_11978>

000000008000c188 <i_11971>:
    8000c188:	003eeeb3          	or	t4,t4,gp

000000008000c18c <i_11972>:
    8000c18c:	f8c15483          	lhu	s1,-116(sp)

000000008000c190 <i_11973>:
    8000c190:	19813083          	ld	ra,408(sp)

000000008000c194 <i_11974>:
    8000c194:	00000013          	nop

000000008000c198 <i_11975>:
    8000c198:	ff211a03          	lh	s4,-14(sp)

000000008000c19c <i_11976>:
    8000c19c:	0fc16383          	lwu	t2,252(sp)

000000008000c1a0 <i_11977>:
    8000c1a0:	003bd393          	srli	t2,s7,0x3

000000008000c1a4 <i_11978>:
    8000c1a4:	00000013          	nop

000000008000c1a8 <i_11979>:
    8000c1a8:	e9412483          	lw	s1,-364(sp)

000000008000c1ac <i_11980>:
    8000c1ac:	77e00a93          	li	s5,1918

000000008000c1b0 <i_11981>:
    8000c1b0:	78800593          	li	a1,1928

000000008000c1b4 <i_11982>:
    8000c1b4:	00000013          	nop

000000008000c1b8 <i_11983>:
    8000c1b8:	00000013          	nop

000000008000c1bc <i_11984>:
    8000c1bc:	80d00c13          	li	s8,-2035

000000008000c1c0 <i_11985>:
    8000c1c0:	81000393          	li	t2,-2032

000000008000c1c4 <i_11986>:
    8000c1c4:	0e713423          	sd	t2,232(sp)

000000008000c1c8 <i_11987>:
    8000c1c8:	001c0c13          	addi	s8,s8,1
    8000c1cc:	ff83dce3          	ble	s8,t2,8000c1c4 <i_11986>

000000008000c1d0 <i_11988>:
    8000c1d0:	0071ffb3          	and	t6,gp,t2

000000008000c1d4 <i_11989>:
    8000c1d4:	0031ea63          	bltu	gp,gp,8000c1e8 <i_11993>

000000008000c1d8 <i_11990>:
    8000c1d8:	001a8a93          	addi	s5,s5,1
    8000c1dc:	fcbacce3          	blt	s5,a1,8000c1b4 <i_11982>

000000008000c1e0 <i_11991>:
    8000c1e0:	0263c263          	blt	t2,t1,8000c204 <i_12000>

000000008000c1e4 <i_11992>:
    8000c1e4:	02d00293          	li	t0,45

000000008000c1e8 <i_11993>:
    8000c1e8:	4053d3b3          	sra	t2,t2,t0

000000008000c1ec <i_11994>:
    8000c1ec:	0383d933          	divu	s2,t2,s8

000000008000c1f0 <i_11995>:
    8000c1f0:	012ffa63          	bleu	s2,t6,8000c204 <i_12000>

000000008000c1f4 <i_11996>:
    8000c1f4:	910f8997          	auipc	s3,0x910f8

000000008000c1f8 <i_11997>:
    8000c1f8:	13514383          	lbu	t2,309(sp)

000000008000c1fc <i_11998>:
    8000c1fc:	0f310823          	sb	s3,240(sp)

000000008000c200 <i_11999>:
    8000c200:	fdf11d23          	sh	t6,-38(sp)

000000008000c204 <i_12000>:
    8000c204:	00000013          	nop

000000008000c208 <i_12001>:
    8000c208:	00000013          	nop

000000008000c20c <i_12002>:
    8000c20c:	00000013          	nop

000000008000c210 <i_12003>:
    8000c210:	00000013          	nop

000000008000c214 <i_12004>:
    8000c214:	00000013          	nop

000000008000c218 <i_12005>:
    8000c218:	00000013          	nop

000000008000c21c <i_12006>:
    8000c21c:	00000013          	nop

000000008000c220 <i_12007>:
    8000c220:	00000013          	nop

000000008000c224 <i_12008>:
    8000c224:	00000013          	nop

000000008000c228 <i_12009>:
    8000c228:	00000013          	nop
    8000c22c:	0040006f          	j	8000c230 <tohost_exit>

000000008000c230 <tohost_exit>:
    8000c230:	00100113          	li	sp,1
    8000c234:	01f11113          	slli	sp,sp,0x1f
    8000c238:	000101b7          	lui	gp,0x10
    8000c23c:	00310133          	add	sp,sp,gp
    8000c240:	00100713          	li	a4,1
    8000c244:	40e12023          	sw	a4,1024(sp)

000000008000c248 <loop>:
    8000c248:	0000006f          	j	8000c248 <loop>
	...

Disassembly of section .data:

0000000080010000 <data>:
    80010000:	e899                	bnez	s1,80010016 <data+0x16>
    80010002:	d59a                	sw	t1,232(sp)
    80010004:	725230f3          	csrrc	ra,0x725,tp
    80010008:	4b05                	li	s6,1
    8001000a:	f92e                	sd	a1,176(sp)
    8001000c:	b9e8                	fsd	fa0,240(a1)
    8001000e:	58c6                	lw	a7,112(sp)
    80010010:	b959                	j	8000fca6 <loop+0x3a5e>
    80010012:	0daa                	slli	s11,s11,0xa
    80010014:	663e                	ld	a2,456(sp)
    80010016:	d1703c3b          	0xd1703c3b
    8001001a:	731a                	ld	t1,416(sp)
    8001001c:	078d                	addi	a5,a5,3
    8001001e:	0b62                	slli	s6,s6,0x18
    80010020:	8370                	0x8370
    80010022:	eced                	bnez	s1,8001011c <data+0x11c>
    80010024:	4ba4                	lw	s1,80(a5)
    80010026:	d60a                	sw	sp,44(sp)
    80010028:	8288                	0x8288
    8001002a:	33f5                	addiw	t2,t2,-3
    8001002c:	3da5e617          	auipc	a2,0x3da5e
    80010030:	010ced77          	0x10ced77
    80010034:	87b4                	0x87b4
    80010036:	f0a4                	sd	s1,96(s1)
    80010038:	fac5                	bnez	a3,8000ffe8 <loop+0x3da0>
    8001003a:	9d85                	subw	a1,a1,s1
    8001003c:	2b95                	addiw	s7,s7,5
    8001003e:	fc66                	sd	s9,56(sp)
    80010040:	0fda                	slli	t6,t6,0x16
    80010042:	b6d39637          	lui	a2,0xb6d39
    80010046:	2ba6                	fld	fs7,72(sp)
    80010048:	cc24                	sw	s1,88(s0)
    8001004a:	f888                	sd	a0,48(s1)
    8001004c:	7759                	lui	a4,0xffff6
    8001004e:	b2fd                	j	8000fa3c <loop+0x37f4>
    80010050:	1e01                	addi	t3,t3,-32
    80010052:	f5058a9b          	addiw	s5,a1,-176
    80010056:	22eb70ef          	jal	ra,800c7284 <_end+0xb6e70>
    8001005a:	9692                	add	a3,a3,tp
    8001005c:	8b72943b          	0x8b72943b
    80010060:	ec4d                	bnez	s0,8001011a <data+0x11a>
    80010062:	3520                	fld	fs0,104(a0)
    80010064:	e796                	sd	t0,456(sp)
    80010066:	a91fa4cb          	fnmsub.s	fs1,ft11,fa7,fs5,rdn
    8001006a:	4378                	lw	a4,68(a4)
    8001006c:	5cac                	lw	a1,120(s1)
    8001006e:	0bf5                	addi	s7,s7,29
    80010070:	36ac                	fld	fa1,104(a3)
    80010072:	adc6                	fsd	fa7,216(sp)
    80010074:	e5f2151b          	0xe5f2151b
    80010078:	561f ef9a 60b3      	0x60b3ef9a561f
    8001007e:	e88a                	sd	sp,80(sp)
    80010080:	ab65fae7          	0xab65fae7
    80010084:	c9ea                	sw	s10,208(sp)
    80010086:	54b6                	lw	s1,108(sp)
    80010088:	ee0e                	sd	gp,280(sp)
    8001008a:	b24e                	fsd	fs3,288(sp)
    8001008c:	0018                	0x18
    8001008e:	05e9                	addi	a1,a1,26
    80010090:	0fc2                	slli	t6,t6,0x10
    80010092:	5d62                	lw	s10,56(sp)
    80010094:	bfe3ae2b          	0xbfe3ae2b
    80010098:	e208                	sd	a0,0(a2)
    8001009a:	2528                	fld	fa0,72(a0)
    8001009c:	5a4a                	lw	s4,176(sp)
    8001009e:	8537f2fb          	0x8537f2fb
    800100a2:	e5a9da8f          	0xe5a9da8f
    800100a6:	478c                	lw	a1,8(a5)
    800100a8:	05d1                	addi	a1,a1,20
    800100aa:	6b61                	lui	s6,0x18
    800100ac:	47f8                	lw	a4,76(a5)
    800100ae:	4385                	li	t2,1
    800100b0:	b071                	j	8000f93c <loop+0x36f4>
    800100b2:	f3f30513          	addi	a0,t1,-193
    800100b6:	5718                	lw	a4,40(a4)
    800100b8:	0246                	slli	tp,tp,0x11
    800100ba:	e006                	sd	ra,0(sp)
    800100bc:	51e6                	lw	gp,120(sp)
    800100be:	bea0                	fsd	fs0,120(a3)
    800100c0:	8ae5                	andi	a3,a3,25
    800100c2:	f6f4                	sd	a3,232(a3)
    800100c4:	28d2                	fld	fa7,272(sp)
    800100c6:	2f55                	addiw	t5,t5,21
    800100c8:	3672                	fld	fa2,312(sp)
    800100ca:	a304                	fsd	fs1,0(a4)
    800100cc:	ea4c                	sd	a1,144(a2)
    800100ce:	fc1e                	sd	t2,56(sp)
    800100d0:	7694                	ld	a3,40(a3)
    800100d2:	7a31                	lui	s4,0xfffec
    800100d4:	9552                	add	a0,a0,s4
    800100d6:	f649                	bnez	a2,80010060 <data+0x60>
    800100d8:	1a6d                	addi	s4,s4,-5
    800100da:	a6a893a7          	0xa6a893a7
    800100de:	1596                	slli	a1,a1,0x25
    800100e0:	c545                	beqz	a0,80010188 <data+0x188>
    800100e2:	5556ecd3          	0x5556ecd3
    800100e6:	3330                	fld	fa2,96(a4)
    800100e8:	1d62                	slli	s10,s10,0x38
    800100ea:	3048                	fld	fa0,160(s0)
    800100ec:	6518                	ld	a4,8(a0)
    800100ee:	0511e993          	ori	s3,gp,81
    800100f2:	7fc310cb          	fnmsub.q	ft1,ft6,ft8,fa5,rtz
    800100f6:	1df4                	addi	a3,sp,764
    800100f8:	16bd                	addi	a3,a3,-17
    800100fa:	3c20                	fld	fs0,120(s0)
    800100fc:	de56                	sw	s5,60(sp)
    800100fe:	c971                	beqz	a0,800101d2 <data+0x1d2>
    80010100:	ae49                	j	80010492 <_end+0x7e>
    80010102:	dd7d                	beqz	a0,80010100 <data+0x100>
    80010104:	64aa54eb          	0x64aa54eb
    80010108:	2535                	addiw	a0,a0,13
    8001010a:	8871                	andi	s0,s0,28
    8001010c:	59ca                	lw	s3,176(sp)
    8001010e:	59e4                	lw	s1,116(a1)
    80010110:	79dc                	ld	a5,176(a1)
    80010112:	f672                	sd	t3,296(sp)
    80010114:	d7e4                	sw	s1,108(a5)
    80010116:	6259                	lui	tp,0x16
    80010118:	42ed                	li	t0,27
    8001011a:	9492                	add	s1,s1,tp
    8001011c:	ca32                	sw	a2,20(sp)
    8001011e:	eb92                	sd	tp,464(sp)
    80010120:	9219                	srli	a2,a2,0x26
    80010122:	94f5                	srai	s1,s1,0x3d
    80010124:	b064                	fsd	fs1,224(s0)
    80010126:	8f48                	0x8f48
    80010128:	7354                	ld	a3,160(a4)
    8001012a:	bded                	j	80010024 <data+0x24>
    8001012c:	b9ec                	fsd	fa1,240(a1)
    8001012e:	042d                	addi	s0,s0,11
    80010130:	fcf4                	sd	a3,248(s1)
    80010132:	b785                	j	80010092 <data+0x92>
    80010134:	2e75                	addiw	t3,t3,29
    80010136:	3458                	fld	fa4,168(s0)
    80010138:	1788d993          	0x1788d993
    8001013c:	c975                	beqz	a0,80010230 <data+0x230>
    8001013e:	56b9                	li	a3,-18
    80010140:	3451                	addiw	s0,s0,-12
    80010142:	6292ccb3          	0x6292ccb3
    80010146:	7342                	ld	t1,48(sp)
    80010148:	09fd                	addi	s3,s3,31
    8001014a:	3e8a                	fld	ft9,160(sp)
    8001014c:	fe5a                	sd	s6,312(sp)
    8001014e:	3e1e                	fld	ft8,480(sp)
    80010150:	1669                	addi	a2,a2,-6
    80010152:	7fae                	ld	t6,232(sp)
    80010154:	a70c                	fsd	fa1,8(a4)
    80010156:	ff81                	bnez	a5,8001006e <data+0x6e>
    80010158:	e2c1                	bnez	a3,800101d8 <data+0x1d8>
    8001015a:	300134eb          	0x300134eb
    8001015e:	2486                	fld	fs1,64(sp)
    80010160:	34c4                	fld	fs1,168(s1)
    80010162:	1cc2                	slli	s9,s9,0x30
    80010164:	b8d9                	j	8000fa3a <loop+0x37f2>
    80010166:	7714                	ld	a3,40(a4)
    80010168:	112ab143          	fmadd.s	ft2,fs5,fs2,ft2,rup
    8001016c:	5870                	lw	a2,116(s0)
    8001016e:	4bc0                	lw	s0,20(a5)
    80010170:	2f641503          	lh	a0,758(s0)
    80010174:	7800                	ld	s0,48(s0)
    80010176:	f7fe                	sd	t6,488(sp)
    80010178:	8246                	mv	tp,a7
    8001017a:	13ba                	slli	t2,t2,0x2e
    8001017c:	a14a                	fsd	fs2,128(sp)
    8001017e:	1a5a                	slli	s4,s4,0x36
    80010180:	12df f019 4958      	0x4958f01912df
    80010186:	b2d6                	fsd	fs5,352(sp)
    80010188:	117a                	slli	sp,sp,0x3e
    8001018a:	24d2                	fld	fs1,272(sp)
    8001018c:	6678                	ld	a4,200(a2)
    8001018e:	7c39                	lui	s8,0xfffee
    80010190:	3020                	fld	fs0,96(s0)
    80010192:	2042                	fld	ft0,16(sp)
    80010194:	2e0a                	fld	ft8,128(sp)
    80010196:	8fd0                	0x8fd0
    80010198:	f799                	bnez	a5,800100a6 <data+0xa6>
    8001019a:	10c6                	slli	ra,ra,0x31
    8001019c:	8aa9                	andi	a3,a3,10
    8001019e:	09ee                	slli	s3,s3,0x1b
    800101a0:	7b29                	lui	s6,0xfffea
    800101a2:	c0ed                	beqz	s1,80010284 <data+0x284>
    800101a4:	178c                	addi	a1,sp,992
    800101a6:	8a2c                	0x8a2c
    800101a8:	1005                	c.nop	-31
    800101aa:	e630                	sd	a2,72(a2)
    800101ac:	83e56e2b          	0x83e56e2b
    800101b0:	4545be57          	0x4545be57
    800101b4:	caf4                	sw	a3,84(a3)
    800101b6:	5fb8                	lw	a4,120(a5)
    800101b8:	a380                	fsd	fs0,0(a5)
    800101ba:	2c34                	fld	fa3,88(s0)
    800101bc:	2b8d                	addiw	s7,s7,3
    800101be:	f67e                	sd	t6,296(sp)
    800101c0:	8555                	srai	a0,a0,0x15
    800101c2:	a33b42f3          	0xa33b42f3
    800101c6:	b198                	fsd	fa4,32(a1)
    800101c8:	924d                	srli	a2,a2,0x33
    800101ca:	30be40f3          	0x30be40f3
    800101ce:	3385                	addiw	t2,t2,-31
    800101d0:	1a96                	slli	s5,s5,0x25
    800101d2:	aac2950f          	0xaac2950f
    800101d6:	c69c1bd3          	0xc69c1bd3
    800101da:	c291                	beqz	a3,800101de <data+0x1de>
    800101dc:	5da5                	li	s11,-23
    800101de:	f78c                	sd	a1,40(a5)
    800101e0:	0a7d                	addi	s4,s4,31
    800101e2:	9d10                	0x9d10
    800101e4:	be21                	j	8000fcfc <loop+0x3ab4>
    800101e6:	2c41                	addiw	s8,s8,16
    800101e8:	799f ef44 bc06      	0xbc06ef44799f
    800101ee:	b46d                	j	8000fc98 <loop+0x3a50>
    800101f0:	3631                	addiw	a2,a2,-20
    800101f2:	0d5a                	slli	s10,s10,0x16
    800101f4:	7e99                	lui	t4,0xfffe6
    800101f6:	b472cbc3          	0xb472cbc3
    800101fa:	04b0                	addi	a2,sp,584
    800101fc:	fa75                	bnez	a2,800101f0 <data+0x1f0>
    800101fe:	a0f0                	fsd	fa2,192(s1)
    80010200:	5b3343e3          	blt	t1,s3,80010fa6 <_end+0xb92>
    80010204:	bb76                	fsd	ft9,432(sp)
    80010206:	b9dc                	fsd	fa5,176(a1)
    80010208:	5730                	lw	a2,104(a4)
    8001020a:	0175b1b7          	lui	gp,0x175b
    8001020e:	504c                	lw	a1,36(s0)
    80010210:	1e19                	addi	t3,t3,-26
    80010212:	6729                	lui	a4,0xa
    80010214:	314a                	fld	ft2,176(sp)
    80010216:	f57a51d3          	0xf57a51d3
    8001021a:	70e0                	ld	s0,224(s1)
    8001021c:	f78e                	sd	gp,488(sp)
    8001021e:	86b2                	mv	a3,a2
    80010220:	4f36                	lw	t5,76(sp)
    80010222:	bd4d                	j	800100d4 <data+0xd4>
    80010224:	ad637e83          	0xad637e83
    80010228:	48f1                	li	a7,28
    8001022a:	4742c05b          	0x4742c05b
    8001022e:	f864                	sd	s1,240(s0)
    80010230:	44e6                	lw	s1,88(sp)
    80010232:	2f2c                	fld	fa1,88(a4)
    80010234:	ae85                	j	800105a4 <_end+0x190>
    80010236:	6581                	0x6581
    80010238:	3205                	addiw	tp,tp,-31
    8001023a:	d22e                	sw	a1,36(sp)
    8001023c:	2afe                	fld	fs5,472(sp)
    8001023e:	44d4                	lw	a3,12(s1)
    80010240:	72270f2f          	0x72270f2f
    80010244:	44da                	lw	s1,148(sp)
    80010246:	0edf bb29 c136      	0xc136bb290edf
    8001024c:	6c02                	ld	s8,0(sp)
    8001024e:	bdcc                	fsd	fa1,184(a1)
    80010250:	e890                	sd	a2,16(s1)
    80010252:	72bd                	lui	t0,0xfffef
    80010254:	5b704c6b          	0x5b704c6b
    80010258:	2e4e                	fld	ft8,208(sp)
    8001025a:	23bd                	addiw	t2,t2,15
    8001025c:	42df8093          	addi	ra,t6,1069
    80010260:	b1457b2f          	0xb1457b2f
    80010264:	d9ca                	sw	s2,240(sp)
    80010266:	0b387efb          	0xb387efb
    8001026a:	6de1                	lui	s11,0x18
    8001026c:	1bd1222b          	0x1bd1222b
    80010270:	b241                	j	8000fbf0 <loop+0x39a8>
    80010272:	56fd                	li	a3,-1
    80010274:	84e8                	0x84e8
    80010276:	c28a                	sw	sp,68(sp)
    80010278:	1bca                	slli	s7,s7,0x32
    8001027a:	c9b0                	sw	a2,80(a1)
    8001027c:	8b430fc3          	fmadd.d	ft11,ft6,fs4,fa7,rne
    80010280:	e1a9                	bnez	a1,800102c2 <data+0x2c2>
    80010282:	ce9f 6757 2ad5      	0x2ad56757ce9f
    80010288:	9d78                	0x9d78
    8001028a:	fc8ab59b          	0xfc8ab59b
    8001028e:	461a                	lw	a2,132(sp)
    80010290:	89a0c107          	flq	ft2,-1894(ra)
    80010294:	0f6a                	slli	t5,t5,0x1a
    80010296:	7980                	ld	s0,48(a1)
    80010298:	59a4                	lw	s1,112(a1)
    8001029a:	09ad                	addi	s3,s3,11
    8001029c:	4c88f807          	0x4c88f807
    800102a0:	641c                	ld	a5,8(s0)
    800102a2:	4a8c                	lw	a1,16(a3)
    800102a4:	75fd                	lui	a1,0xfffff
    800102a6:	6eba                	ld	t4,392(sp)
    800102a8:	8d48                	0x8d48
    800102aa:	a61d2f47          	fmsub.q	ft10,fs10,ft1,fs4,rdn
    800102ae:	e00d                	bnez	s0,800102d0 <data+0x2d0>
    800102b0:	48082c07          	flw	fs8,1152(a6)
    800102b4:	1678ab47          	fmsub.q	fs6,fa7,ft7,ft2,rdn
    800102b8:	a0aa                	fsd	fa0,64(sp)
    800102ba:	2084                	fld	fs1,0(s1)
    800102bc:	8e2e                	mv	t3,a1
    800102be:	3806                	fld	fa6,96(sp)
    800102c0:	5b04                	lw	s1,48(a4)
    800102c2:	0126                	slli	sp,sp,0x9
    800102c4:	0ff2                	slli	t6,t6,0x1c
    800102c6:	e8b0109b          	0xe8b0109b
    800102ca:	19f6                	slli	s3,s3,0x3d
    800102cc:	cdb6873b          	0xcdb6873b
    800102d0:	63fd                	lui	t2,0x1f
    800102d2:	7c95                	lui	s9,0xfffe5
    800102d4:	72b6                	ld	t0,360(sp)
    800102d6:	c609                	beqz	a2,800102e0 <data+0x2e0>
    800102d8:	1354                	addi	a3,sp,420
    800102da:	7d8d                	lui	s11,0xfffe3
    800102dc:	d531                	beqz	a0,80010228 <data+0x228>
    800102de:	cf65                	beqz	a4,800103d6 <data+0x3d6>
    800102e0:	3179                	addiw	sp,sp,-2
    800102e2:	2cce                	fld	fs9,208(sp)
    800102e4:	479f f038 24c4      	0x24c4f038479f
    800102ea:	cf2df2f3          	csrrci	t0,0xcf2,27
    800102ee:	1b9fed43          	fmadd.d	fs10,ft11,fs9,ft3,unknown
    800102f2:	da31                	beqz	a2,80010246 <data+0x246>
    800102f4:	62ce                	ld	t0,208(sp)
    800102f6:	af12                	fsd	ft4,408(sp)
    800102f8:	735adf07          	0x735adf07
    800102fc:	79f2                	ld	s3,312(sp)
    800102fe:	4160                	lw	s0,68(a0)
    80010300:	ba69                	j	8000fc9a <loop+0x3a52>
    80010302:	4af6                	lw	s5,92(sp)
    80010304:	b409                	j	8000fd06 <loop+0x3abe>
    80010306:	883c                	0x883c
    80010308:	5aa4                	lw	s1,112(a3)
    8001030a:	35fd12f3          	csrrw	t0,0x35f,s10
    8001030e:	2555                	addiw	a0,a0,21
    80010310:	9bd9                	andi	a5,a5,-10
    80010312:	76e6                	ld	a3,120(sp)
    80010314:	473f2927          	fsw	fs3,1138(t5)
    80010318:	b361                	j	800100a0 <data+0xa0>
    8001031a:	e99c                	sd	a5,16(a1)
    8001031c:	edfe                	sd	t6,216(sp)
    8001031e:	9eae                	add	t4,t4,a1
    80010320:	945d                	srai	s0,s0,0x37
    80010322:	8ced                	and	s1,s1,a1
    80010324:	ab80                	fsd	fs0,16(a5)
    80010326:	23c63f2f          	amoxor.d.rl	t5,t3,(a2)
    8001032a:	2710                	fld	fa2,8(a4)
    8001032c:	9d9a6f2f          	0x9d9a6f2f
    80010330:	0da5                	addi	s11,s11,9
    80010332:	5f6f5557          	0x5f6f5557
    80010336:	0d21                	addi	s10,s10,8
    80010338:	8ee0ddbf 0ea4c6bb 	0xea4c6bb8ee0ddbf
    80010340:	6a86                	ld	s5,64(sp)
    80010342:	6e5dff03          	0x6e5dff03
    80010346:	0480                	addi	s0,sp,576
    80010348:	f81919fb          	0xf81919fb
    8001034c:	d8778a6b          	0xd8778a6b
    80010350:	ad31                	j	8001096c <_end+0x558>
    80010352:	750375db          	0x750375db
    80010356:	992faab7          	lui	s5,0x992fa
    8001035a:	83ae                	mv	t2,a1
    8001035c:	9f62                	add	t5,t5,s8
    8001035e:	77174ee7          	0x77174ee7
    80010362:	e19d                	bnez	a1,80010388 <data+0x388>
    80010364:	7ba2                	ld	s7,40(sp)
    80010366:	aa84                	fsd	fs1,16(a3)
    80010368:	22323a0f          	0x22323a0f
    8001036c:	0fd0                	addi	a2,sp,980
    8001036e:	06d6                	slli	a3,a3,0x15
    80010370:	3e81                	addiw	t4,t4,-32
    80010372:	083d                	addi	a6,a6,15
    80010374:	9f54                	0x9f54
    80010376:	b0c2                	fsd	fa6,96(sp)
    80010378:	2b76                	fld	fs6,344(sp)
    8001037a:	7590                	ld	a2,40(a1)
    8001037c:	9565b2af          	0x9565b2af
    80010380:	09c6                	slli	s3,s3,0x11
    80010382:	5c7eaf3b          	0x5c7eaf3b
    80010386:	6b79                	lui	s6,0x1e
    80010388:	8f75                	and	a4,a4,a3
    8001038a:	8010                	0x8010
    8001038c:	6cc0                	ld	s0,152(s1)
    8001038e:	a80e                	fsd	ft3,16(sp)
    80010390:	b78e                	fsd	ft3,488(sp)
    80010392:	4281                	li	t0,0
    80010394:	46ca                	lw	a3,144(sp)
    80010396:	5a509177          	0x5a509177
    8001039a:	7c9c                	ld	a5,56(s1)
    8001039c:	f7d4                	sd	a3,168(a5)
    8001039e:	391d                	addiw	s2,s2,-25
    800103a0:	6459                	lui	s0,0x16
    800103a2:	c869                	beqz	s0,80010474 <_end+0x60>
    800103a4:	3385                	addiw	t2,t2,-31
    800103a6:	8415                	srai	s0,s0,0x5
    800103a8:	4bd2                	lw	s7,20(sp)
    800103aa:	a0be                	fsd	fa5,64(sp)
    800103ac:	09682873          	csrrs	a6,0x96,a6
    800103b0:	a2b8de57          	0xa2b8de57
    800103b4:	1012                	c.slli	zero,0x24
    800103b6:	f66aa7e3          	0xf66aa7e3
    800103ba:	a3293853          	0xa3293853
    800103be:	549cafcf          	0x549cafcf
    800103c2:	f58c                	sd	a1,40(a1)
    800103c4:	76b54e93          	xori	t4,a0,1899
    800103c8:	a771                	j	80010b54 <_end+0x740>
    800103ca:	6e05                	lui	t3,0x1
    800103cc:	885c                	0x885c
    800103ce:	73e2                	ld	t2,56(sp)
    800103d0:	8cca                	mv	s9,s2
    800103d2:	815e                	mv	sp,s7
    800103d4:	6d7e3c4b          	0x6d7e3c4b
    800103d8:	c2d8                	sw	a4,4(a3)
    800103da:	9839                	andi	s0,s0,-18
    800103dc:	be9cc853          	0xbe9cc853
    800103e0:	7356                	ld	t1,368(sp)
    800103e2:	c2fe                	sw	t6,68(sp)
    800103e4:	9124                	0x9124
    800103e6:	768c                	ld	a1,40(a3)
    800103e8:	99c8                	0x99c8
    800103ea:	49ac                	lw	a1,80(a1)
    800103ec:	2b34                	fld	fa3,80(a4)
    800103ee:	a87d1d0b          	0xa87d1d0b
    800103f2:	197c                	addi	a5,sp,188
    800103f4:	fbae5f2f          	0xfbae5f2f
    800103f8:	c915                	beqz	a0,8001042c <_end+0x18>
    800103fa:	3f3e                	fld	ft10,488(sp)
    800103fc:	8a84                	0x8a84
    800103fe:	          	0x7967

Disassembly of section .tohost:

0000000080010400 <tohost>:
	...

0000000080010410 <fromhost>:
    80010410:	0000                	unimp
	...
