
output.riscv:     file format elf64-littleriscv


Disassembly of section .text:

0000000080000000 <main>:
    80000000:	40000137          	lui	sp,0x40000
    80000004:	00111113          	slli	sp,sp,0x1
    80000008:	000101b7          	lui	gp,0x10
    8000000c:	00310133          	add	sp,sp,gp
    80000010:	000032b7          	lui	t0,0x3
    80000014:	3002a073          	csrs	mstatus,t0
    80000018:	09f00293          	li	t0,159
    8000001c:	0032a073          	csrs	fcsr,t0
    80000020:	00813083          	ld	ra,8(sp) # 40000008 <main-0x3ffffff8>
    80000024:	01813183          	ld	gp,24(sp)
    80000028:	02013203          	ld	tp,32(sp)
    8000002c:	02813283          	ld	t0,40(sp)
    80000030:	03013303          	ld	t1,48(sp)
    80000034:	03813383          	ld	t2,56(sp)
    80000038:	04013403          	ld	s0,64(sp)
    8000003c:	04813483          	ld	s1,72(sp)
    80000040:	05013503          	ld	a0,80(sp)
    80000044:	05813583          	ld	a1,88(sp)
    80000048:	06013603          	ld	a2,96(sp)
    8000004c:	06813683          	ld	a3,104(sp)
    80000050:	07013703          	ld	a4,112(sp)
    80000054:	07813783          	ld	a5,120(sp)
    80000058:	08013803          	ld	a6,128(sp)
    8000005c:	08813883          	ld	a7,136(sp)
    80000060:	09013903          	ld	s2,144(sp)
    80000064:	09813983          	ld	s3,152(sp)
    80000068:	0a013a03          	ld	s4,160(sp)
    8000006c:	0a813a83          	ld	s5,168(sp)
    80000070:	0b013b03          	ld	s6,176(sp)
    80000074:	0b813b83          	ld	s7,184(sp)
    80000078:	0c013c03          	ld	s8,192(sp)
    8000007c:	0c813c83          	ld	s9,200(sp)
    80000080:	0d013d03          	ld	s10,208(sp)
    80000084:	0d813d83          	ld	s11,216(sp)
    80000088:	0e013e03          	ld	t3,224(sp)
    8000008c:	0e813e83          	ld	t4,232(sp)
    80000090:	0f013f03          	ld	t5,240(sp)
    80000094:	0f813f83          	ld	t6,248(sp)

0000000080000098 <i_0>:
    80000098:	01600093          	li	ra,22

000000008000009c <i_1>:
    8000009c:	001f5f3b          	srlw	t5,t5,ra

00000000800000a0 <i_2>:
    800000a0:	e7816703          	lwu	a4,-392(sp)

00000000800000a4 <i_3>:
    800000a4:	02816f03          	lwu	t5,40(sp)

00000000800000a8 <i_4>:
    800000a8:	01900a13          	li	s4,25

00000000800000ac <i_5>:
    800000ac:	41475bbb          	sraw	s7,a4,s4

00000000800000b0 <i_6>:
    800000b0:	00109293          	slli	t0,ra,0x1

00000000800000b4 <i_7>:
    800000b4:	0257073b          	mulw	a4,a4,t0

00000000800000b8 <i_8>:
    800000b8:	00e29263          	bne	t0,a4,800000bc <i_9>

00000000800000bc <i_9>:
    800000bc:	10e11503          	lh	a0,270(sp)

00000000800000c0 <i_10>:
    800000c0:	025aeab3          	rem	s5,s5,t0

00000000800000c4 <i_11>:
    800000c4:	00e97a63          	bleu	a4,s2,800000d8 <i_16>

00000000800000c8 <i_12>:
    800000c8:	1d815b83          	lhu	s7,472(sp)

00000000800000cc <i_13>:
    800000cc:	0372e263          	bltu	t0,s7,800000f0 <i_22>

00000000800000d0 <i_14>:
    800000d0:	68a2cb13          	xori	s6,t0,1674

00000000800000d4 <i_15>:
    800000d4:	1a412483          	lw	s1,420(sp)

00000000800000d8 <i_16>:
    800000d8:	eb413423          	sd	s4,-344(sp)

00000000800000dc <i_17>:
    800000dc:	f8816b83          	lwu	s7,-120(sp)

00000000800000e0 <i_18>:
    800000e0:	0ca13423          	sd	a0,200(sp)

00000000800000e4 <i_19>:
    800000e4:	01413023          	sd	s4,0(sp)

00000000800000e8 <i_20>:
    800000e8:	f0012f83          	lw	t6,-256(sp)

00000000800000ec <i_21>:
    800000ec:	1f6102a3          	sb	s6,485(sp)

00000000800000f0 <i_22>:
    800000f0:	f75103a3          	sb	s5,-153(sp)

00000000800000f4 <i_23>:
    800000f4:	03016b03          	lwu	s6,48(sp)

00000000800000f8 <i_24>:
    800000f8:	e2b42b13          	slti	s6,s0,-469

00000000800000fc <i_25>:
    800000fc:	036b00b3          	mul	ra,s6,s6

0000000080000100 <i_26>:
    80000100:	0210ab33          	mulhsu	s6,ra,ra

0000000080000104 <i_27>:
    80000104:	0160f263          	bleu	s6,ra,80000108 <i_28>

0000000080000108 <i_28>:
    80000108:	02112823          	sw	ra,48(sp)

000000008000010c <i_29>:
    8000010c:	10012083          	lw	ra,256(sp)

0000000080000110 <i_30>:
    80000110:	01000b13          	li	s6,16

0000000080000114 <i_31>:
    80000114:	016a9a3b          	sllw	s4,s5,s6

0000000080000118 <i_32>:
    80000118:	f1611523          	sh	s6,-246(sp)

000000008000011c <i_33>:
    8000011c:	08113c23          	sd	ra,152(sp)

0000000080000120 <i_34>:
    80000120:	036b3c33          	mulhu	s8,s6,s6

0000000080000124 <i_35>:
    80000124:	7b800913          	li	s2,1976

0000000080000128 <i_36>:
    80000128:	7c000313          	li	t1,1984

000000008000012c <i_37>:
    8000012c:	00137f33          	and	t5,t1,ra

0000000080000130 <i_38>:
    80000130:	04714b83          	lbu	s7,71(sp)

0000000080000134 <i_39>:
    80000134:	036b47bb          	divw	a5,s6,s6

0000000080000138 <i_40>:
    80000138:	eb811b03          	lh	s6,-328(sp)

000000008000013c <i_41>:
    8000013c:	0367fb33          	remu	s6,a5,s6

0000000080000140 <i_42>:
    80000140:	016bfb33          	and	s6,s7,s6

0000000080000144 <i_43>:
    80000144:	1a211503          	lh	a0,418(sp)

0000000080000148 <i_44>:
    80000148:	40255b1b          	sraiw	s6,a0,0x2

000000008000014c <i_45>:
    8000014c:	016f8b33          	add	s6,t6,s6

0000000080000150 <i_46>:
    80000150:	096100a3          	sb	s6,129(sp)

0000000080000154 <i_47>:
    80000154:	11613023          	sd	s6,256(sp)

0000000080000158 <i_48>:
    80000158:	eb6108a3          	sb	s6,-335(sp)

000000008000015c <i_49>:
    8000015c:	f1013b03          	ld	s6,-240(sp)

0000000080000160 <i_50>:
    80000160:	efd10e03          	lb	t3,-259(sp)

0000000080000164 <i_51>:
    80000164:	02813b03          	ld	s6,40(sp)

0000000080000168 <i_52>:
    80000168:	016be2b3          	or	t0,s7,s6

000000008000016c <i_53>:
    8000016c:	00190913          	addi	s2,s2,1
    80000170:	fb235ee3          	ble	s2,t1,8000012c <i_37>

0000000080000174 <i_54>:
    80000174:	16510b23          	sb	t0,374(sp)

0000000080000178 <i_55>:
    80000178:	fb610423          	sb	s6,-88(sp)

000000008000017c <i_56>:
    8000017c:	0162eb33          	or	s6,t0,s6

0000000080000180 <i_57>:
    80000180:	016d25b3          	slt	a1,s10,s6

0000000080000184 <i_58>:
    80000184:	f0513c23          	sd	t0,-232(sp)

0000000080000188 <i_59>:
    80000188:	0045961b          	slliw	a2,a1,0x4

000000008000018c <i_60>:
    8000018c:	fd613823          	sd	s6,-48(sp)

0000000080000190 <i_61>:
    80000190:	4d55f593          	andi	a1,a1,1237

0000000080000194 <i_62>:
    80000194:	4165843b          	subw	s0,a1,s6

0000000080000198 <i_63>:
    80000198:	f0c12d03          	lw	s10,-244(sp)

000000008000019c <i_64>:
    8000019c:	03ad45b3          	div	a1,s10,s10

00000000800001a0 <i_65>:
    800001a0:	09610983          	lb	s3,150(sp)

00000000800001a4 <i_66>:
    800001a4:	19311823          	sh	s3,400(sp)

00000000800001a8 <i_67>:
    800001a8:	efc15203          	lhu	tp,-260(sp)

00000000800001ac <i_68>:
    800001ac:	01a68a63          	beq	a3,s10,800001c0 <i_73>

00000000800001b0 <i_69>:
    800001b0:	fa412303          	lw	t1,-92(sp)

00000000800001b4 <i_70>:
    800001b4:	03326463          	bltu	tp,s3,800001dc <i_80>

00000000800001b8 <i_71>:
    800001b8:	02211983          	lh	s3,34(sp)

00000000800001bc <i_72>:
    800001bc:	f6611303          	lh	t1,-154(sp)

00000000800001c0 <i_73>:
    800001c0:	ec210203          	lb	tp,-318(sp)

00000000800001c4 <i_74>:
    800001c4:	f0016203          	lwu	tp,-256(sp)

00000000800001c8 <i_75>:
    800001c8:	001e941b          	slliw	s0,t4,0x1

00000000800001cc <i_76>:
    800001cc:	03def7b3          	remu	a5,t4,t4

00000000800001d0 <i_77>:
    800001d0:	10a11203          	lh	tp,266(sp)

00000000800001d4 <i_78>:
    800001d4:	90c24213          	xori	tp,tp,-1780

00000000800001d8 <i_79>:
    800001d8:	14411823          	sh	tp,336(sp)

00000000800001dc <i_80>:
    800001dc:	00000013          	nop

00000000800001e0 <i_81>:
    800001e0:	00000013          	nop

00000000800001e4 <i_82>:
    800001e4:	85700e93          	li	t4,-1961

00000000800001e8 <i_83>:
    800001e8:	86900993          	li	s3,-1943

00000000800001ec <i_84>:
    800001ec:	1cc14383          	lbu	t2,460(sp)

00000000800001f0 <i_85>:
    800001f0:	1c5d869b          	addiw	a3,s11,453

00000000800001f4 <i_86>:
    800001f4:	02f2623b          	remw	tp,tp,a5

00000000800001f8 <i_87>:
    800001f8:	01800093          	li	ra,24

00000000800001fc <i_88>:
    800001fc:	0013da3b          	srlw	s4,t2,ra

0000000080000200 <i_89>:
    80000200:	001e8e93          	addi	t4,t4,1
    80000204:	ff3e94e3          	bne	t4,s3,800001ec <i_84>

0000000080000208 <i_90>:
    80000208:	024106a3          	sb	tp,45(sp)

000000008000020c <i_91>:
    8000020c:	00178463          	beq	a5,ra,80000214 <i_93>

0000000080000210 <i_92>:
    80000210:	e6713423          	sd	t2,-408(sp)

0000000080000214 <i_93>:
    80000214:	e9414683          	lbu	a3,-364(sp)

0000000080000218 <i_94>:
    80000218:	f8ba7193          	andi	gp,s4,-117

000000008000021c <i_95>:
    8000021c:	ec8a6513          	ori	a0,s4,-312

0000000080000220 <i_96>:
    80000220:	eee10a03          	lb	s4,-274(sp)

0000000080000224 <i_97>:
    80000224:	19013e83          	ld	t4,400(sp)

0000000080000228 <i_98>:
    80000228:	fb012183          	lw	gp,-80(sp)

000000008000022c <i_99>:
    8000022c:	f7c14e83          	lbu	t4,-132(sp)

0000000080000230 <i_100>:
    80000230:	034bd063          	ble	s4,s7,80000250 <i_108>

0000000080000234 <i_101>:
    80000234:	003a1a13          	slli	s4,s4,0x3

0000000080000238 <i_102>:
    80000238:	07411c23          	sh	s4,120(sp)

000000008000023c <i_103>:
    8000023c:	01e5ef33          	or	t5,a1,t5

0000000080000240 <i_104>:
    80000240:	01df4463          	blt	t5,t4,80000248 <i_106>

0000000080000244 <i_105>:
    80000244:	c48f3f13          	sltiu	t5,t5,-952

0000000080000248 <i_106>:
    80000248:	18013f83          	ld	t6,384(sp)

000000008000024c <i_107>:
    8000024c:	f7d12c23          	sw	t4,-136(sp)

0000000080000250 <i_108>:
    80000250:	fc013f03          	ld	t5,-64(sp)

0000000080000254 <i_109>:
    80000254:	41ff0f3b          	subw	t5,t5,t6

0000000080000258 <i_110>:
    80000258:	8ca00213          	li	tp,-1846

000000008000025c <i_111>:
    8000025c:	8d500893          	li	a7,-1835

0000000080000260 <i_112>:
    80000260:	07f11c23          	sh	t6,120(sp)

0000000080000264 <i_113>:
    80000264:	00000013          	nop

0000000080000268 <i_114>:
    80000268:	0dd14f03          	lbu	t5,221(sp)

000000008000026c <i_115>:
    8000026c:	00000013          	nop

0000000080000270 <i_116>:
    80000270:	032f1263          	bne	t5,s2,80000294 <i_124>

0000000080000274 <i_117>:
    80000274:	f1e13823          	sd	t5,-240(sp)

0000000080000278 <i_118>:
    80000278:	03f0cfbb          	divw	t6,ra,t6

000000008000027c <i_119>:
    8000027c:	00120213          	addi	tp,tp,1 # 1 <main-0x7fffffff>
    80000280:	fe48f0e3          	bleu	tp,a7,80000260 <i_112>

0000000080000284 <i_120>:
    80000284:	fbe13c23          	sd	t5,-72(sp)

0000000080000288 <i_121>:
    80000288:	01efffb3          	and	t6,t6,t5

000000008000028c <i_122>:
    8000028c:	14614d03          	lbu	s10,326(sp)

0000000080000290 <i_123>:
    80000290:	f6011f03          	lh	t5,-160(sp)

0000000080000294 <i_124>:
    80000294:	003edd9b          	srliw	s11,t4,0x3

0000000080000298 <i_125>:
    80000298:	13d10623          	sb	t4,300(sp)

000000008000029c <i_126>:
    8000029c:	14c14e83          	lbu	t4,332(sp)

00000000800002a0 <i_127>:
    800002a0:	03eeea3b          	remw	s4,t4,t5

00000000800002a4 <i_128>:
    800002a4:	edb11c23          	sh	s11,-296(sp)

00000000800002a8 <i_129>:
    800002a8:	01ef1e63          	bne	t5,t5,800002c4 <i_136>

00000000800002ac <i_130>:
    800002ac:	eff14903          	lbu	s2,-257(sp)

00000000800002b0 <i_131>:
    800002b0:	e5e12423          	sw	t5,-440(sp)

00000000800002b4 <i_132>:
    800002b4:	00427463          	bleu	tp,tp,800002bc <i_134>

00000000800002b8 <i_133>:
    800002b8:	05a23f13          	sltiu	t5,tp,90

00000000800002bc <i_134>:
    800002bc:	01bf0663          	beq	t5,s11,800002c8 <i_137>

00000000800002c0 <i_135>:
    800002c0:	17813403          	ld	s0,376(sp)

00000000800002c4 <i_136>:
    800002c4:	e7e13c23          	sd	t5,-392(sp)

00000000800002c8 <i_137>:
    800002c8:	00291913          	slli	s2,s2,0x2

00000000800002cc <i_138>:
    800002cc:	0d210ba3          	sb	s2,215(sp)

00000000800002d0 <i_139>:
    800002d0:	00894933          	xor	s2,s2,s0

00000000800002d4 <i_140>:
    800002d4:	f9013403          	ld	s0,-112(sp)

00000000800002d8 <i_141>:
    800002d8:	008f5263          	ble	s0,t5,800002dc <i_142>

00000000800002dc <i_142>:
    800002dc:	fc810223          	sb	s0,-60(sp)

00000000800002e0 <i_143>:
    800002e0:	f9615403          	lhu	s0,-106(sp)

00000000800002e4 <i_144>:
    800002e4:	964f6313          	ori	t1,t5,-1692

00000000800002e8 <i_145>:
    800002e8:	c746e393          	ori	t2,a3,-908

00000000800002ec <i_146>:
    800002ec:	ec816203          	lwu	tp,-312(sp)

00000000800002f0 <i_147>:
    800002f0:	01239a63          	bne	t2,s2,80000304 <i_152>

00000000800002f4 <i_148>:
    800002f4:	07615a03          	lhu	s4,118(sp)

00000000800002f8 <i_149>:
    800002f8:	01437bb3          	and	s7,t1,s4

00000000800002fc <i_150>:
    800002fc:	1e415303          	lhu	t1,484(sp)

0000000080000300 <i_151>:
    80000300:	00000013          	nop

0000000080000304 <i_152>:
    80000304:	1c016b83          	lwu	s7,448(sp)

0000000080000308 <i_153>:
    80000308:	00000013          	nop

000000008000030c <i_154>:
    8000030c:	88900a93          	li	s5,-1911

0000000080000310 <i_155>:
    80000310:	89100393          	li	t2,-1903

0000000080000314 <i_156>:
    80000314:	01830d33          	add	s10,t1,s8

0000000080000318 <i_157>:
    80000318:	017d1a63          	bne	s10,s7,8000032c <i_161>

000000008000031c <i_158>:
    8000031c:	001a8a93          	addi	s5,s5,1
    80000320:	fe7acae3          	blt	s5,t2,80000314 <i_156>

0000000080000324 <i_159>:
    80000324:	03a32bb3          	mulhsu	s7,t1,s10

0000000080000328 <i_160>:
    80000328:	03878433          	mul	s0,a5,s8

000000008000032c <i_161>:
    8000032c:	e1a11c23          	sh	s10,-488(sp)

0000000080000330 <i_162>:
    80000330:	08612023          	sw	t1,128(sp)

0000000080000334 <i_163>:
    80000334:	fd711623          	sh	s7,-52(sp)

0000000080000338 <i_164>:
    80000338:	17c15583          	lhu	a1,380(sp)

000000008000033c <i_165>:
    8000033c:	09810583          	lb	a1,152(sp)

0000000080000340 <i_166>:
    80000340:	eda11b23          	sh	s10,-298(sp)

0000000080000344 <i_167>:
    80000344:	efc14083          	lbu	ra,-260(sp)

0000000080000348 <i_168>:
    80000348:	00bda5b3          	slt	a1,s11,a1

000000008000034c <i_169>:
    8000034c:	14b11e23          	sh	a1,348(sp)

0000000080000350 <i_170>:
    80000350:	0b813303          	ld	t1,184(sp)

0000000080000354 <i_171>:
    80000354:	006d3bb3          	sltu	s7,s10,t1

0000000080000358 <i_172>:
    80000358:	fbd10403          	lb	s0,-67(sp)

000000008000035c <i_173>:
    8000035c:	03400a13          	li	s4,52

0000000080000360 <i_174>:
    80000360:	014d9db3          	sll	s11,s11,s4

0000000080000364 <i_175>:
    80000364:	001a561b          	srliw	a2,s4,0x1

0000000080000368 <i_176>:
    80000368:	0cd108a3          	sb	a3,209(sp)

000000008000036c <i_177>:
    8000036c:	01734e63          	blt	t1,s7,80000388 <i_184>

0000000080000370 <i_178>:
    80000370:	0180ce63          	blt	ra,s8,8000038c <i_185>

0000000080000374 <i_179>:
    80000374:	01747663          	bleu	s7,s0,80000380 <i_182>

0000000080000378 <i_180>:
    80000378:	00108433          	add	s0,ra,ra

000000008000037c <i_181>:
    8000037c:	06610b23          	sb	t1,118(sp)

0000000080000380 <i_182>:
    80000380:	037e50b3          	divu	ra,t3,s7

0000000080000384 <i_183>:
    80000384:	004b9e63          	bne	s7,tp,800003a0 <i_190>

0000000080000388 <i_184>:
    80000388:	00000013          	nop

000000008000038c <i_185>:
    8000038c:	e6e10c03          	lb	s8,-402(sp)

0000000080000390 <i_186>:
    80000390:	f2e15403          	lhu	s0,-210(sp)

0000000080000394 <i_187>:
    80000394:	07411a83          	lh	s5,116(sp)

0000000080000398 <i_188>:
    80000398:	00000013          	nop

000000008000039c <i_189>:
    8000039c:	00000013          	nop

00000000800003a0 <i_190>:
    800003a0:	00000013          	nop

00000000800003a4 <i_191>:
    800003a4:	01148733          	add	a4,s1,a7

00000000800003a8 <i_192>:
    800003a8:	7b400b13          	li	s6,1972

00000000800003ac <i_193>:
    800003ac:	7ba00893          	li	a7,1978

00000000800003b0 <i_194>:
    800003b0:	ebc16403          	lwu	s0,-324(sp)

00000000800003b4 <i_195>:
    800003b4:	032a9933          	mulh	s2,s5,s2

00000000800003b8 <i_196>:
    800003b8:	f33100a3          	sb	s3,-223(sp)

00000000800003bc <i_197>:
    800003bc:	ea816b83          	lwu	s7,-344(sp)

00000000800003c0 <i_198>:
    800003c0:	0fb14403          	lbu	s0,251(sp)

00000000800003c4 <i_199>:
    800003c4:	0329543b          	divuw	s0,s2,s2

00000000800003c8 <i_200>:
    800003c8:	8d2b8b9b          	addiw	s7,s7,-1838

00000000800003cc <i_201>:
    800003cc:	f5012303          	lw	t1,-176(sp)

00000000800003d0 <i_202>:
    800003d0:	026b8bb3          	mul	s7,s7,t1

00000000800003d4 <i_203>:
    800003d4:	001b0b13          	addi	s6,s6,1
    800003d8:	fd1b1ce3          	bne	s6,a7,800003b0 <i_194>

00000000800003dc <i_204>:
    800003dc:	e7c16903          	lwu	s2,-388(sp)

00000000800003e0 <i_205>:
    800003e0:	15711223          	sh	s7,324(sp)

00000000800003e4 <i_206>:
    800003e4:	00000013          	nop

00000000800003e8 <i_207>:
    800003e8:	00000013          	nop

00000000800003ec <i_208>:
    800003ec:	7ef00f13          	li	t5,2031

00000000800003f0 <i_209>:
    800003f0:	7f900493          	li	s1,2041

00000000800003f4 <i_210>:
    800003f4:	0f914d83          	lbu	s11,249(sp)

00000000800003f8 <i_211>:
    800003f8:	001f0f13          	addi	t5,t5,1
    800003fc:	fe9f4ce3          	blt	t5,s1,800003f4 <i_210>

0000000080000400 <i_212>:
    80000400:	00cf0f33          	add	t5,t5,a2

0000000080000404 <i_213>:
    80000404:	009f6663          	bltu	t5,s1,80000410 <i_216>

0000000080000408 <i_214>:
    80000408:	e1810f03          	lb	t5,-488(sp)

000000008000040c <i_215>:
    8000040c:	11813783          	ld	a5,280(sp)

0000000080000410 <i_216>:
    80000410:	01000d93          	li	s11,16

0000000080000414 <i_217>:
    80000414:	41b4dd3b          	sraw	s10,s1,s11

0000000080000418 <i_218>:
    80000418:	00fd8263          	beq	s11,a5,8000041c <i_219>

000000008000041c <i_219>:
    8000041c:	18812783          	lw	a5,392(sp)

0000000080000420 <i_220>:
    80000420:	00300d93          	li	s11,3

0000000080000424 <i_221>:
    80000424:	41bdddbb          	sraw	s11,s11,s11

0000000080000428 <i_222>:
    80000428:	19412c83          	lw	s9,404(sp)

000000008000042c <i_223>:
    8000042c:	eea14f03          	lbu	t5,-278(sp)

0000000080000430 <i_224>:
    80000430:	e5e10da3          	sb	t5,-421(sp)

0000000080000434 <i_225>:
    80000434:	03bf14b3          	mulh	s1,t5,s11

0000000080000438 <i_226>:
    80000438:	00c64663          	blt	a2,a2,80000444 <i_229>

000000008000043c <i_227>:
    8000043c:	00cf7f33          	and	t5,t5,a2

0000000080000440 <i_228>:
    80000440:	019aff33          	and	t5,s5,s9

0000000080000444 <i_229>:
    80000444:	0354d063          	ble	s5,s1,80000464 <i_237>

0000000080000448 <i_230>:
    80000448:	8ddd6893          	ori	a7,s10,-1827

000000008000044c <i_231>:
    8000044c:	e9c13023          	sd	t3,-384(sp)

0000000080000450 <i_232>:
    80000450:	4018d993          	srai	s3,a7,0x1

0000000080000454 <i_233>:
    80000454:	0318cabb          	divw	s5,a7,a7

0000000080000458 <i_234>:
    80000458:	0a016603          	lwu	a2,160(sp)

000000008000045c <i_235>:
    8000045c:	00b00893          	li	a7,11

0000000080000460 <i_236>:
    80000460:	0118d8bb          	srlw	a7,a7,a7

0000000080000464 <i_237>:
    80000464:	0b611b23          	sh	s6,182(sp)

0000000080000468 <i_238>:
    80000468:	011a89b3          	add	s3,s5,a7

000000008000046c <i_239>:
    8000046c:	04e12623          	sw	a4,76(sp)

0000000080000470 <i_240>:
    80000470:	0a012883          	lw	a7,160(sp)

0000000080000474 <i_241>:
    80000474:	00c28263          	beq	t0,a2,80000478 <i_242>

0000000080000478 <i_242>:
    80000478:	19513023          	sd	s5,384(sp)

000000008000047c <i_243>:
    8000047c:	0a410383          	lb	t2,164(sp)

0000000080000480 <i_244>:
    80000480:	6b491db7          	lui	s11,0x6b491

0000000080000484 <i_245>:
    80000484:	f9815a83          	lhu	s5,-104(sp)

0000000080000488 <i_246>:
    80000488:	73100613          	li	a2,1841

000000008000048c <i_247>:
    8000048c:	73e00893          	li	a7,1854

0000000080000490 <i_248>:
    80000490:	09812a83          	lw	s5,152(sp)

0000000080000494 <i_249>:
    80000494:	03f14a83          	lbu	s5,63(sp)

0000000080000498 <i_250>:
    80000498:	ff510d23          	sb	s5,-6(sp)

000000008000049c <i_251>:
    8000049c:	035aaab3          	mulhsu	s5,s5,s5

00000000800004a0 <i_252>:
    800004a0:	001a9a9b          	slliw	s5,s5,0x1

00000000800004a4 <i_253>:
    800004a4:	028afe3b          	remuw	t3,s5,s0

00000000800004a8 <i_254>:
    800004a8:	0154ce63          	blt	s1,s5,800004c4 <i_260>

00000000800004ac <i_255>:
    800004ac:	00160613          	addi	a2,a2,1
    800004b0:	fec8d0e3          	ble	a2,a7,80000490 <i_248>

00000000800004b4 <i_256>:
    800004b4:	015a9663          	bne	s5,s5,800004c0 <i_259>

00000000800004b8 <i_257>:
    800004b8:	035e7463          	bleu	s5,t3,800004e0 <i_267>

00000000800004bc <i_258>:
    800004bc:	00000013          	nop

00000000800004c0 <i_259>:
    800004c0:	01510223          	sb	s5,4(sp)

00000000800004c4 <i_260>:
    800004c4:	07811a83          	lh	s5,120(sp)

00000000800004c8 <i_261>:
    800004c8:	f2c12823          	sw	a2,-208(sp)

00000000800004cc <i_262>:
    800004cc:	1c013a83          	ld	s5,448(sp)

00000000800004d0 <i_263>:
    800004d0:	583dfa93          	andi	s5,s11,1411

00000000800004d4 <i_264>:
    800004d4:	ff513423          	sd	s5,-24(sp)

00000000800004d8 <i_265>:
    800004d8:	00000013          	nop

00000000800004dc <i_266>:
    800004dc:	003631b3          	sltu	gp,a2,gp

00000000800004e0 <i_267>:
    800004e0:	17e15a83          	lhu	s5,382(sp)

00000000800004e4 <i_268>:
    800004e4:	00300193          	li	gp,3

00000000800004e8 <i_269>:
    800004e8:	003e51bb          	srlw	gp,t3,gp

00000000800004ec <i_270>:
    800004ec:	87b00613          	li	a2,-1925

00000000800004f0 <i_271>:
    800004f0:	88500e13          	li	t3,-1915

00000000800004f4 <i_272>:
    800004f4:	f5510323          	sb	s5,-186(sp)

00000000800004f8 <i_273>:
    800004f8:	fd511623          	sh	s5,-52(sp)

00000000800004fc <i_274>:
    800004fc:	02e0ffbb          	remuw	t6,ra,a4

0000000080000500 <i_275>:
    80000500:	16814f83          	lbu	t6,360(sp)

0000000080000504 <i_276>:
    80000504:	00500a93          	li	s5,5

0000000080000508 <i_277>:
    80000508:	01519fbb          	sllw	t6,gp,s5

000000008000050c <i_278>:
    8000050c:	00160613          	addi	a2,a2,1
    80000510:	fece50e3          	ble	a2,t3,800004f0 <i_271>

0000000080000514 <i_279>:
    80000514:	007ac463          	blt	s5,t2,8000051c <i_281>

0000000080000518 <i_280>:
    80000518:	496b2d13          	slti	s10,s6,1174

000000008000051c <i_281>:
    8000051c:	01f1fe63          	bleu	t6,gp,80000538 <i_288>

0000000080000520 <i_282>:
    80000520:	05110203          	lb	tp,81(sp)

0000000080000524 <i_283>:
    80000524:	02ead263          	ble	a4,s5,80000548 <i_292>

0000000080000528 <i_284>:
    80000528:	ea014f83          	lbu	t6,-352(sp)

000000008000052c <i_285>:
    8000052c:	0037109b          	slliw	ra,a4,0x3

0000000080000530 <i_286>:
    80000530:	00000013          	nop

0000000080000534 <i_287>:
    80000534:	1df12823          	sw	t6,464(sp)

0000000080000538 <i_288>:
    80000538:	f5510f23          	sb	s5,-162(sp)

000000008000053c <i_289>:
    8000053c:	03c1f7bb          	remuw	a5,gp,t3

0000000080000540 <i_290>:
    80000540:	f84ab193          	sltiu	gp,s5,-124

0000000080000544 <i_291>:
    80000544:	0031f1b3          	and	gp,gp,gp

0000000080000548 <i_292>:
    80000548:	e0110ca3          	sb	ra,-487(sp)

000000008000054c <i_293>:
    8000054c:	ed813503          	ld	a0,-296(sp)

0000000080000550 <i_294>:
    80000550:	81f00f13          	li	t5,-2017

0000000080000554 <i_295>:
    80000554:	82100d13          	li	s10,-2015

0000000080000558 <i_296>:
    80000558:	01a11983          	lh	s3,26(sp)

000000008000055c <i_297>:
    8000055c:	01a54263          	blt	a0,s10,80000560 <i_298>

0000000080000560 <i_298>:
    80000560:	00000013          	nop

0000000080000564 <i_299>:
    80000564:	03a1fab3          	remu	s5,gp,s10

0000000080000568 <i_300>:
    80000568:	001f0f13          	addi	t5,t5,1
    8000056c:	ffed76e3          	bleu	t5,s10,80000558 <i_296>

0000000080000570 <i_301>:
    80000570:	02e22533          	mulhsu	a0,tp,a4

0000000080000574 <i_302>:
    80000574:	00357a63          	bleu	gp,a0,80000588 <i_307>

0000000080000578 <i_303>:
    80000578:	01a0f663          	bleu	s10,ra,80000584 <i_306>

000000008000057c <i_304>:
    8000057c:	402fdf9b          	sraiw	t6,t6,0x2

0000000080000580 <i_305>:
    80000580:	0a412a03          	lw	s4,164(sp)

0000000080000584 <i_306>:
    80000584:	11f106a3          	sb	t6,269(sp)

0000000080000588 <i_307>:
    80000588:	02c16183          	lwu	gp,44(sp)

000000008000058c <i_308>:
    8000058c:	03ff91b3          	mulh	gp,t6,t6

0000000080000590 <i_309>:
    80000590:	e1c12f83          	lw	t6,-484(sp)

0000000080000594 <i_310>:
    80000594:	11f13823          	sd	t6,272(sp)

0000000080000598 <i_311>:
    80000598:	03418063          	beq	gp,s4,800005b8 <i_319>

000000008000059c <i_312>:
    8000059c:	03f5653b          	remw	a0,a0,t6

00000000800005a0 <i_313>:
    800005a0:	02157263          	bleu	ra,a0,800005c4 <i_322>

00000000800005a4 <i_314>:
    800005a4:	01fff663          	bleu	t6,t6,800005b0 <i_317>

00000000800005a8 <i_315>:
    800005a8:	03f547bb          	divw	a5,a0,t6

00000000800005ac <i_316>:
    800005ac:	ea811623          	sh	s0,-340(sp)

00000000800005b0 <i_317>:
    800005b0:	023a69bb          	remw	s3,s4,gp

00000000800005b4 <i_318>:
    800005b4:	0fafc417          	auipc	s0,0xfafc

00000000800005b8 <i_319>:
    800005b8:	04a12e23          	sw	a0,92(sp)

00000000800005bc <i_320>:
    800005bc:	00000013          	nop

00000000800005c0 <i_321>:
    800005c0:	4081843b          	subw	s0,gp,s0

00000000800005c4 <i_322>:
    800005c4:	ea710403          	lb	s0,-345(sp)

00000000800005c8 <i_323>:
    800005c8:	04813423          	sd	s0,72(sp)

00000000800005cc <i_324>:
    800005cc:	78100a13          	li	s4,1921

00000000800005d0 <i_325>:
    800005d0:	79400793          	li	a5,1940

00000000800005d4 <i_326>:
    800005d4:	0e310023          	sb	gp,224(sp)

00000000800005d8 <i_327>:
    800005d8:	001a0a13          	addi	s4,s4,1
    800005dc:	ff47dce3          	ble	s4,a5,800005d4 <i_326>

00000000800005e0 <i_328>:
    800005e0:	00f00d93          	li	s11,15

00000000800005e4 <i_329>:
    800005e4:	01b451b3          	srl	gp,s0,s11

00000000800005e8 <i_330>:
    800005e8:	00d00a13          	li	s4,13

00000000800005ec <i_331>:
    800005ec:	41445633          	sra	a2,s0,s4

00000000800005f0 <i_332>:
    800005f0:	00500e13          	li	t3,5

00000000800005f4 <i_333>:
    800005f4:	41c1d1b3          	sra	gp,gp,t3

00000000800005f8 <i_334>:
    800005f8:	c5947193          	andi	gp,s0,-935

00000000800005fc <i_335>:
    800005fc:	10011783          	lh	a5,256(sp)

0000000080000600 <i_336>:
    80000600:	1ca14e03          	lbu	t3,458(sp)

0000000080000604 <i_337>:
    80000604:	02fec1bb          	divw	gp,t4,a5

0000000080000608 <i_338>:
    80000608:	81bee093          	ori	ra,t4,-2021

000000008000060c <i_339>:
    8000060c:	0341aeb3          	mulhsu	t4,gp,s4

0000000080000610 <i_340>:
    80000610:	03e00e93          	li	t4,62

0000000080000614 <i_341>:
    80000614:	01ded1b3          	srl	gp,t4,t4

0000000080000618 <i_342>:
    80000618:	0270d063          	ble	t2,ra,80000638 <i_350>

000000008000061c <i_343>:
    8000061c:	12313423          	sd	gp,296(sp)

0000000080000620 <i_344>:
    80000620:	01600393          	li	t2,22

0000000080000624 <i_345>:
    80000624:	007ed3b3          	srl	t2,t4,t2

0000000080000628 <i_346>:
    80000628:	0071a8b3          	slt	a7,gp,t2

000000008000062c <i_347>:
    8000062c:	0c411183          	lh	gp,196(sp)

0000000080000630 <i_348>:
    80000630:	4023d413          	srai	s0,t2,0x2

0000000080000634 <i_349>:
    80000634:	11e11f83          	lh	t6,286(sp)

0000000080000638 <i_350>:
    80000638:	0071fa63          	bleu	t2,gp,8000064c <i_355>

000000008000063c <i_351>:
    8000063c:	03ff9263          	bne	t6,t6,80000660 <i_360>

0000000080000640 <i_352>:
    80000640:	0083ec63          	bltu	t2,s0,80000658 <i_358>

0000000080000644 <i_353>:
    80000644:	0ee10e03          	lb	t3,238(sp)

0000000080000648 <i_354>:
    80000648:	ed211183          	lh	gp,-302(sp)

000000008000064c <i_355>:
    8000064c:	ff812f83          	lw	t6,-8(sp)

0000000080000650 <i_356>:
    80000650:	00ce49b3          	xor	s3,t3,a2

0000000080000654 <i_357>:
    80000654:	01cfd663          	ble	t3,t6,80000660 <i_360>

0000000080000658 <i_358>:
    80000658:	03ce0b3b          	mulw	s6,t3,t3

000000008000065c <i_359>:
    8000065c:	01798c63          	beq	s3,s7,80000674 <i_365>

0000000080000660 <i_360>:
    80000660:	01ffce63          	blt	t6,t6,8000067c <i_367>

0000000080000664 <i_361>:
    80000664:	0339d063          	ble	s3,s3,80000684 <i_369>

0000000080000668 <i_362>:
    80000668:	02700993          	li	s3,39

000000008000066c <i_363>:
    8000066c:	0139d7b3          	srl	a5,s3,s3

0000000080000670 <i_364>:
    80000670:	00000013          	nop

0000000080000674 <i_365>:
    80000674:	e9016783          	lwu	a5,-368(sp)

0000000080000678 <i_366>:
    80000678:	e7312623          	sw	s3,-404(sp)

000000008000067c <i_367>:
    8000067c:	f5312c23          	sw	s3,-168(sp)

0000000080000680 <i_368>:
    80000680:	f8c11983          	lh	s3,-116(sp)

0000000080000684 <i_369>:
    80000684:	10a15a83          	lhu	s5,266(sp)

0000000080000688 <i_370>:
    80000688:	f1c16783          	lwu	a5,-228(sp)

000000008000068c <i_371>:
    8000068c:	73700213          	li	tp,1847

0000000080000690 <i_372>:
    80000690:	74400f93          	li	t6,1860

0000000080000694 <i_373>:
    80000694:	0a514903          	lbu	s2,165(sp)

0000000080000698 <i_374>:
    80000698:	ff816783          	lwu	a5,-8(sp)

000000008000069c <i_375>:
    8000069c:	0327883b          	mulw	a6,a5,s2

00000000800006a0 <i_376>:
    800006a0:	00000013          	nop

00000000800006a4 <i_377>:
    800006a4:	07c16783          	lwu	a5,124(sp)

00000000800006a8 <i_378>:
    800006a8:	00120213          	addi	tp,tp,1 # 1 <main-0x7fffffff>
    800006ac:	fff214e3          	bne	tp,t6,80000694 <i_373>

00000000800006b0 <i_379>:
    800006b0:	0d213823          	sd	s2,208(sp)

00000000800006b4 <i_380>:
    800006b4:	01578663          	beq	a5,s5,800006c0 <i_383>

00000000800006b8 <i_381>:
    800006b8:	f2f11023          	sh	a5,-224(sp)

00000000800006bc <i_382>:
    800006bc:	08f13823          	sd	a5,144(sp)

00000000800006c0 <i_383>:
    800006c0:	fcf11323          	sh	a5,-58(sp)

00000000800006c4 <i_384>:
    800006c4:	00000013          	nop

00000000800006c8 <i_385>:
    800006c8:	82e00913          	li	s2,-2002

00000000800006cc <i_386>:
    800006cc:	83a00793          	li	a5,-1990

00000000800006d0 <i_387>:
    800006d0:	0318d463          	ble	a7,a7,800006f8 <i_397>

00000000800006d4 <i_388>:
    800006d4:	e6c11c03          	lh	s8,-404(sp)

00000000800006d8 <i_389>:
    800006d8:	1a816f03          	lwu	t5,424(sp)

00000000800006dc <i_390>:
    800006dc:	ec611183          	lh	gp,-314(sp)

00000000800006e0 <i_391>:
    800006e0:	f4813303          	ld	t1,-184(sp)

00000000800006e4 <i_392>:
    800006e4:	00f00993          	li	s3,15

00000000800006e8 <i_393>:
    800006e8:	013dddbb          	srlw	s11,s11,s3

00000000800006ec <i_394>:
    800006ec:	05812203          	lw	tp,88(sp)

00000000800006f0 <i_395>:
    800006f0:	01b11023          	sh	s11,0(sp)

00000000800006f4 <i_396>:
    800006f4:	9ddb7d93          	andi	s11,s6,-1571

00000000800006f8 <i_397>:
    800006f8:	0012dc93          	srli	s9,t0,0x1

00000000800006fc <i_398>:
    800006fc:	00000013          	nop

0000000080000700 <i_399>:
    80000700:	15913423          	sd	s9,328(sp)

0000000080000704 <i_400>:
    80000704:	1d910e23          	sb	s9,476(sp)

0000000080000708 <i_401>:
    80000708:	00190913          	addi	s2,s2,1
    8000070c:	fcf962e3          	bltu	s2,a5,800006d0 <i_387>

0000000080000710 <i_402>:
    80000710:	01310423          	sb	s3,8(sp)

0000000080000714 <i_403>:
    80000714:	10310c83          	lb	s9,259(sp)

0000000080000718 <i_404>:
    80000718:	0dc16d83          	lwu	s11,220(sp)

000000008000071c <i_405>:
    8000071c:	03500713          	li	a4,53

0000000080000720 <i_406>:
    80000720:	40ecd1b3          	sra	gp,s9,a4

0000000080000724 <i_407>:
    80000724:	01b7d463          	ble	s11,a5,8000072c <i_409>

0000000080000728 <i_408>:
    80000728:	f4011d83          	lh	s11,-192(sp)

000000008000072c <i_409>:
    8000072c:	0167a7b3          	slt	a5,a5,s6

0000000080000730 <i_410>:
    80000730:	00f77863          	bleu	a5,a4,80000740 <i_414>

0000000080000734 <i_411>:
    80000734:	01bd9e63          	bne	s11,s11,80000750 <i_418>

0000000080000738 <i_412>:
    80000738:	19813703          	ld	a4,408(sp)

000000008000073c <i_413>:
    8000073c:	004c1c1b          	slliw	s8,s8,0x4

0000000080000740 <i_414>:
    80000740:	03bdd7bb          	divuw	a5,s11,s11

0000000080000744 <i_415>:
    80000744:	00159b1b          	slliw	s6,a1,0x1

0000000080000748 <i_416>:
    80000748:	09f14983          	lbu	s3,159(sp)

000000008000074c <i_417>:
    8000074c:	00eb27b3          	slt	a5,s6,a4

0000000080000750 <i_418>:
    80000750:	0379073b          	mulw	a4,s2,s7

0000000080000754 <i_419>:
    80000754:	00300193          	li	gp,3

0000000080000758 <i_420>:
    80000758:	0030d53b          	srlw	a0,ra,gp

000000008000075c <i_421>:
    8000075c:	89800913          	li	s2,-1896

0000000080000760 <i_422>:
    80000760:	8ac00993          	li	s3,-1876

0000000080000764 <i_423>:
    80000764:	01251863          	bne	a0,s2,80000774 <i_427>

0000000080000768 <i_424>:
    80000768:	12c16603          	lwu	a2,300(sp)

000000008000076c <i_425>:
    8000076c:	ec012703          	lw	a4,-320(sp)

0000000080000770 <i_426>:
    80000770:	0d215b03          	lhu	s6,210(sp)

0000000080000774 <i_427>:
    80000774:	00000013          	nop

0000000080000778 <i_428>:
    80000778:	0cc11323          	sh	a2,198(sp)

000000008000077c <i_429>:
    8000077c:	ee313823          	sd	gp,-272(sp)

0000000080000780 <i_430>:
    80000780:	01700513          	li	a0,23

0000000080000784 <i_431>:
    80000784:	40a65bbb          	sraw	s7,a2,a0

0000000080000788 <i_432>:
    80000788:	00550e63          	beq	a0,t0,800007a4 <i_438>

000000008000078c <i_433>:
    8000078c:	00190913          	addi	s2,s2,1
    80000790:	fd3968e3          	bltu	s2,s3,80000760 <i_422>

0000000080000794 <i_434>:
    80000794:	e2714a83          	lbu	s5,-473(sp)

0000000080000798 <i_435>:
    80000798:	036108a3          	sb	s6,49(sp)

000000008000079c <i_436>:
    8000079c:	18314703          	lbu	a4,387(sp)

00000000800007a0 <i_437>:
    800007a0:	025101a3          	sb	t0,35(sp)

00000000800007a4 <i_438>:
    800007a4:	01011503          	lh	a0,16(sp)

00000000800007a8 <i_439>:
    800007a8:	02a37533          	remu	a0,t1,a0

00000000800007ac <i_440>:
    800007ac:	75a00b13          	li	s6,1882

00000000800007b0 <i_441>:
    800007b0:	76d00293          	li	t0,1901

00000000800007b4 <i_442>:
    800007b4:	02a50833          	mul	a6,a0,a0

00000000800007b8 <i_443>:
    800007b8:	15013503          	ld	a0,336(sp)

00000000800007bc <i_444>:
    800007bc:	80d00b93          	li	s7,-2035

00000000800007c0 <i_445>:
    800007c0:	81d00313          	li	t1,-2019

00000000800007c4 <i_446>:
    800007c4:	17c14503          	lbu	a0,380(sp)

00000000800007c8 <i_447>:
    800007c8:	02a747b3          	div	a5,a4,a0

00000000800007cc <i_448>:
    800007cc:	02e54633          	div	a2,a0,a4

00000000800007d0 <i_449>:
    800007d0:	001b8b93          	addi	s7,s7,1
    800007d4:	ff7318e3          	bne	t1,s7,800007c4 <i_446>

00000000800007d8 <i_450>:
    800007d8:	02c71463          	bne	a4,a2,80000800 <i_459>

00000000800007dc <i_451>:
    800007dc:	001b0b13          	addi	s6,s6,1
    800007e0:	fc5b1ae3          	bne	s6,t0,800007b4 <i_442>

00000000800007e4 <i_452>:
    800007e4:	fb9ac513          	xori	a0,s5,-71

00000000800007e8 <i_453>:
    800007e8:	00af8fb3          	add	t6,t6,a0

00000000800007ec <i_454>:
    800007ec:	02d77263          	bleu	a3,a4,80000810 <i_463>

00000000800007f0 <i_455>:
    800007f0:	fbf14703          	lbu	a4,-65(sp)

00000000800007f4 <i_456>:
    800007f4:	03a9e9b3          	rem	s3,s3,s10

00000000800007f8 <i_457>:
    800007f8:	980fb713          	sltiu	a4,t6,-1664

00000000800007fc <i_458>:
    800007fc:	02e9b733          	mulhu	a4,s3,a4

0000000080000800 <i_459>:
    80000800:	02e7073b          	mulw	a4,a4,a4

0000000080000804 <i_460>:
    80000804:	09510083          	lb	ra,149(sp)

0000000080000808 <i_461>:
    80000808:	4037581b          	sraiw	a6,a4,0x3

000000008000080c <i_462>:
    8000080c:	fa414703          	lbu	a4,-92(sp)

0000000080000810 <i_463>:
    80000810:	0248423b          	divw	tp,a6,tp

0000000080000814 <i_464>:
    80000814:	18d10503          	lb	a0,397(sp)

0000000080000818 <i_465>:
    80000818:	00a50833          	add	a6,a0,a0

000000008000081c <i_466>:
    8000081c:	049105a3          	sb	s1,75(sp)

0000000080000820 <i_467>:
    80000820:	2b586513          	ori	a0,a6,693

0000000080000824 <i_468>:
    80000824:	11010123          	sb	a6,258(sp)

0000000080000828 <i_469>:
    80000828:	ea816603          	lwu	a2,-344(sp)

000000008000082c <i_470>:
    8000082c:	ef416503          	lwu	a0,-268(sp)

0000000080000830 <i_471>:
    80000830:	0aa13023          	sd	a0,160(sp)

0000000080000834 <i_472>:
    80000834:	1ae13423          	sd	a4,424(sp)

0000000080000838 <i_473>:
    80000838:	13015483          	lhu	s1,304(sp)

000000008000083c <i_474>:
    8000083c:	e9810283          	lb	t0,-360(sp)

0000000080000840 <i_475>:
    80000840:	010e7863          	bleu	a6,t3,80000850 <i_479>

0000000080000844 <i_476>:
    80000844:	01065c63          	ble	a6,a2,8000085c <i_482>

0000000080000848 <i_477>:
    80000848:	10014503          	lbu	a0,256(sp)

000000008000084c <i_478>:
    8000084c:	02948063          	beq	s1,s1,8000086c <i_486>

0000000080000850 <i_479>:
    80000850:	07012a23          	sw	a6,116(sp)

0000000080000854 <i_480>:
    80000854:	01000593          	li	a1,16

0000000080000858 <i_481>:
    80000858:	00be92b3          	sll	t0,t4,a1

000000008000085c <i_482>:
    8000085c:	ed810e83          	lb	t4,-296(sp)

0000000080000860 <i_483>:
    80000860:	00cef463          	bleu	a2,t4,80000868 <i_485>

0000000080000864 <i_484>:
    80000864:	03f53533          	mulhu	a0,a0,t6

0000000080000868 <i_485>:
    80000868:	09815e83          	lhu	t4,152(sp)

000000008000086c <i_486>:
    8000086c:	03ded463          	ble	t4,t4,80000894 <i_496>

0000000080000870 <i_487>:
    80000870:	00a5c263          	blt	a1,a0,80000874 <i_488>

0000000080000874 <i_488>:
    80000874:	02a50063          	beq	a0,a0,80000894 <i_496>

0000000080000878 <i_489>:
    80000878:	01da4663          	blt	s4,t4,80000884 <i_492>

000000008000087c <i_490>:
    8000087c:	02f14503          	lbu	a0,47(sp)

0000000080000880 <i_491>:
    80000880:	019eaeb3          	slt	t4,t4,s9

0000000080000884 <i_492>:
    80000884:	00a51c63          	bne	a0,a0,8000089c <i_498>

0000000080000888 <i_493>:
    80000888:	01da1663          	bne	s4,t4,80000894 <i_496>

000000008000088c <i_494>:
    8000088c:	00a13023          	sd	a0,0(sp)

0000000080000890 <i_495>:
    80000890:	13815503          	lhu	a0,312(sp)

0000000080000894 <i_496>:
    80000894:	f5e14503          	lbu	a0,-162(sp)

0000000080000898 <i_497>:
    80000898:	02a57ebb          	remuw	t4,a0,a0

000000008000089c <i_498>:
    8000089c:	00a47433          	and	s0,s0,a0

00000000800008a0 <i_499>:
    800008a0:	07c12823          	sw	t3,112(sp)

00000000800008a4 <i_500>:
    800008a4:	02a00e93          	li	t4,42

00000000800008a8 <i_501>:
    800008a8:	41d55eb3          	sra	t4,a0,t4

00000000800008ac <i_502>:
    800008ac:	00251e93          	slli	t4,a0,0x2

00000000800008b0 <i_503>:
    800008b0:	f2a11723          	sh	a0,-210(sp)

00000000800008b4 <i_504>:
    800008b4:	05615503          	lhu	a0,86(sp)

00000000800008b8 <i_505>:
    800008b8:	0c514403          	lbu	s0,197(sp)

00000000800008bc <i_506>:
    800008bc:	00441b9b          	slliw	s7,s0,0x4

00000000800008c0 <i_507>:
    800008c0:	01b00393          	li	t2,27

00000000800008c4 <i_508>:
    800008c4:	407edebb          	sraw	t4,t4,t2

00000000800008c8 <i_509>:
    800008c8:	00000013          	nop

00000000800008cc <i_510>:
    800008cc:	ff014a03          	lbu	s4,-16(sp)

00000000800008d0 <i_511>:
    800008d0:	80300e93          	li	t4,-2045

00000000800008d4 <i_512>:
    800008d4:	80e00413          	li	s0,-2034

00000000800008d8 <i_513>:
    800008d8:	001e8e93          	addi	t4,t4,1
    800008dc:	ffd45ee3          	ble	t4,s0,800008d8 <i_513>

00000000800008e0 <i_514>:
    800008e0:	fd412a23          	sw	s4,-44(sp)

00000000800008e4 <i_515>:
    800008e4:	00747e63          	bleu	t2,s0,80000900 <i_522>

00000000800008e8 <i_516>:
    800008e8:	01da7c63          	bleu	t4,s4,80000900 <i_522>

00000000800008ec <i_517>:
    800008ec:	ea711023          	sh	t2,-352(sp)

00000000800008f0 <i_518>:
    800008f0:	02744463          	blt	s0,t2,80000918 <i_528>

00000000800008f4 <i_519>:
    800008f4:	00739263          	bne	t2,t2,800008f8 <i_520>

00000000800008f8 <i_520>:
    800008f8:	8f040093          	addi	ra,s0,-1808 # 8fafbea4 <_end+0xfaeba90>

00000000800008fc <i_521>:
    800008fc:	007d8e63          	beq	s11,t2,80000918 <i_528>

0000000080000900 <i_522>:
    80000900:	0a812a23          	sw	s0,180(sp)

0000000080000904 <i_523>:
    80000904:	014fc463          	blt	t6,s4,8000090c <i_525>

0000000080000908 <i_524>:
    80000908:	4084043b          	subw	s0,s0,s0

000000008000090c <i_525>:
    8000090c:	034a1463          	bne	s4,s4,80000934 <i_535>

0000000080000910 <i_526>:
    80000910:	04812783          	lw	a5,72(sp)

0000000080000914 <i_527>:
    80000914:	05416a03          	lwu	s4,84(sp)

0000000080000918 <i_528>:
    80000918:	4043d393          	srai	t2,t2,0x4

000000008000091c <i_529>:
    8000091c:	0287e43b          	remw	s0,a5,s0

0000000080000920 <i_530>:
    80000920:	12c16403          	lwu	s0,300(sp)

0000000080000924 <i_531>:
    80000924:	001e4433          	xor	s0,t3,ra

0000000080000928 <i_532>:
    80000928:	4043d413          	srai	s0,t2,0x4

000000008000092c <i_533>:
    8000092c:	1c8103a3          	sb	s0,455(sp)

0000000080000930 <i_534>:
    80000930:	0b611803          	lh	a6,182(sp)

0000000080000934 <i_535>:
    80000934:	1cc15203          	lhu	tp,460(sp)

0000000080000938 <i_536>:
    80000938:	08013403          	ld	s0,128(sp)

000000008000093c <i_537>:
    8000093c:	81300813          	li	a6,-2029

0000000080000940 <i_538>:
    80000940:	82200a93          	li	s5,-2014

0000000080000944 <i_539>:
    80000944:	09d14e83          	lbu	t4,157(sp)

0000000080000948 <i_540>:
    80000948:	00180813          	addi	a6,a6,1
    8000094c:	ff0afce3          	bleu	a6,s5,80000944 <i_539>

0000000080000950 <i_541>:
    80000950:	f4e14203          	lbu	tp,-178(sp)

0000000080000954 <i_542>:
    80000954:	e8411e23          	sh	tp,-356(sp)

0000000080000958 <i_543>:
    80000958:	00000013          	nop

000000008000095c <i_544>:
    8000095c:	7c000e93          	li	t4,1984

0000000080000960 <i_545>:
    80000960:	7c400413          	li	s0,1988

0000000080000964 <i_546>:
    80000964:	f7611203          	lh	tp,-138(sp)

0000000080000968 <i_547>:
    80000968:	15e15383          	lhu	t2,350(sp)

000000008000096c <i_548>:
    8000096c:	10812203          	lw	tp,264(sp)

0000000080000970 <i_549>:
    80000970:	f9211983          	lh	s3,-110(sp)

0000000080000974 <i_550>:
    80000974:	2e520213          	addi	tp,tp,741 # 2e5 <main-0x7ffffd1b>

0000000080000978 <i_551>:
    80000978:	03214203          	lbu	tp,50(sp)

000000008000097c <i_552>:
    8000097c:	f2914503          	lbu	a0,-215(sp)

0000000080000980 <i_553>:
    80000980:	0f311923          	sh	s3,242(sp)

0000000080000984 <i_554>:
    80000984:	8bf00713          	li	a4,-1857

0000000080000988 <i_555>:
    80000988:	8c900213          	li	tp,-1847

000000008000098c <i_556>:
    8000098c:	a9d65d17          	auipc	s10,0xa9d65

0000000080000990 <i_557>:
    80000990:	084108a3          	sb	tp,145(sp)

0000000080000994 <i_558>:
    80000994:	00170713          	addi	a4,a4,1
    80000998:	fe476ae3          	bltu	a4,tp,8000098c <i_556>

000000008000099c <i_559>:
    8000099c:	03556463          	bltu	a0,s5,800009c4 <i_568>

00000000800009a0 <i_560>:
    800009a0:	00451f9b          	slliw	t6,a0,0x4

00000000800009a4 <i_561>:
    800009a4:	024f91b3          	mulh	gp,t6,tp

00000000800009a8 <i_562>:
    800009a8:	001e8e93          	addi	t4,t4,1
    800009ac:	fbd45ce3          	ble	t4,s0,80000964 <i_546>

00000000800009b0 <i_563>:
    800009b0:	13310e23          	sb	s3,316(sp)

00000000800009b4 <i_564>:
    800009b4:	00454a63          	blt	a0,tp,800009c8 <i_569>

00000000800009b8 <i_565>:
    800009b8:	00a12023          	sw	a0,0(sp)

00000000800009bc <i_566>:
    800009bc:	00309663          	bne	ra,gp,800009c8 <i_569>

00000000800009c0 <i_567>:
    800009c0:	03e56463          	bltu	a0,t5,800009e8 <i_577>

00000000800009c4 <i_568>:
    800009c4:	003b1463          	bne	s6,gp,800009cc <i_570>

00000000800009c8 <i_569>:
    800009c8:	004d1c63          	bne	s10,tp,800009e0 <i_575>

00000000800009cc <i_570>:
    800009cc:	f6411423          	sh	tp,-152(sp)

00000000800009d0 <i_571>:
    800009d0:	03f0f2bb          	remuw	t0,ra,t6

00000000800009d4 <i_572>:
    800009d4:	01f24c63          	blt	tp,t6,800009ec <i_578>

00000000800009d8 <i_573>:
    800009d8:	e5811203          	lh	tp,-424(sp)

00000000800009dc <i_574>:
    800009dc:	e5013203          	ld	tp,-432(sp)

00000000800009e0 <i_575>:
    800009e0:	01b2ec63          	bltu	t0,s11,800009f8 <i_581>

00000000800009e4 <i_576>:
    800009e4:	4012529b          	sraiw	t0,tp,0x1

00000000800009e8 <i_577>:
    800009e8:	e5813d83          	ld	s11,-424(sp)

00000000800009ec <i_578>:
    800009ec:	e3013203          	ld	tp,-464(sp)

00000000800009f0 <i_579>:
    800009f0:	005c7c63          	bleu	t0,s8,80000a08 <i_585>

00000000800009f4 <i_580>:
    800009f4:	11812483          	lw	s1,280(sp)

00000000800009f8 <i_581>:
    800009f8:	0294d933          	divu	s2,s1,s1

00000000800009fc <i_582>:
    800009fc:	01229c63          	bne	t0,s2,80000a14 <i_588>

0000000080000a00 <i_583>:
    80000a00:	f6513c23          	sd	t0,-136(sp)

0000000080000a04 <i_584>:
    80000a04:	14622213          	slti	tp,tp,326

0000000080000a08 <i_585>:
    80000a08:	03bdf063          	bleu	s11,s11,80000a28 <i_593>

0000000080000a0c <i_586>:
    80000a0c:	0126fe63          	bleu	s2,a3,80000a28 <i_593>

0000000080000a10 <i_587>:
    80000a10:	1df14903          	lbu	s2,479(sp)

0000000080000a14 <i_588>:
    80000a14:	5f972313          	slti	t1,a4,1529

0000000080000a18 <i_589>:
    80000a18:	fc011a83          	lh	s5,-64(sp)

0000000080000a1c <i_590>:
    80000a1c:	0b211c23          	sh	s2,184(sp)

0000000080000a20 <i_591>:
    80000a20:	00000013          	nop

0000000080000a24 <i_592>:
    80000a24:	4197033b          	subw	t1,a4,s9

0000000080000a28 <i_593>:
    80000a28:	4027531b          	sraiw	t1,a4,0x2

0000000080000a2c <i_594>:
    80000a2c:	02e10aa3          	sb	a4,53(sp)

0000000080000a30 <i_595>:
    80000a30:	76d00713          	li	a4,1901

0000000080000a34 <i_596>:
    80000a34:	77f00913          	li	s2,1919

0000000080000a38 <i_597>:
    80000a38:	33293093          	sltiu	ra,s2,818

0000000080000a3c <i_598>:
    80000a3c:	10012083          	lw	ra,256(sp)

0000000080000a40 <i_599>:
    80000a40:	fb410083          	lb	ra,-76(sp)

0000000080000a44 <i_600>:
    80000a44:	0035d313          	srli	t1,a1,0x3

0000000080000a48 <i_601>:
    80000a48:	fec16c83          	lwu	s9,-20(sp)

0000000080000a4c <i_602>:
    80000a4c:	e4113c23          	sd	ra,-424(sp)

0000000080000a50 <i_603>:
    80000a50:	00170713          	addi	a4,a4,1
    80000a54:	fee952e3          	ble	a4,s2,80000a38 <i_597>

0000000080000a58 <i_604>:
    80000a58:	03000313          	li	t1,48

0000000080000a5c <i_605>:
    80000a5c:	006c9f33          	sll	t5,s9,t1

0000000080000a60 <i_606>:
    80000a60:	e6210083          	lb	ra,-414(sp)

0000000080000a64 <i_607>:
    80000a64:	781f6593          	ori	a1,t5,1921

0000000080000a68 <i_608>:
    80000a68:	021f6063          	bltu	t5,ra,80000a88 <i_616>

0000000080000a6c <i_609>:
    80000a6c:	fac15083          	lhu	ra,-84(sp)

0000000080000a70 <i_610>:
    80000a70:	00000013          	nop

0000000080000a74 <i_611>:
    80000a74:	fe815c83          	lhu	s9,-24(sp)

0000000080000a78 <i_612>:
    80000a78:	00000013          	nop

0000000080000a7c <i_613>:
    80000a7c:	00000013          	nop

0000000080000a80 <i_614>:
    80000a80:	f9012703          	lw	a4,-112(sp)

0000000080000a84 <i_615>:
    80000a84:	e5812083          	lw	ra,-424(sp)

0000000080000a88 <i_616>:
    80000a88:	00000013          	nop

0000000080000a8c <i_617>:
    80000a8c:	fcc11c83          	lh	s9,-52(sp)

0000000080000a90 <i_618>:
    80000a90:	85400913          	li	s2,-1964

0000000080000a94 <i_619>:
    80000a94:	85600f13          	li	t5,-1962

0000000080000a98 <i_620>:
    80000a98:	02e109a3          	sb	a4,51(sp)

0000000080000a9c <i_621>:
    80000a9c:	ea816b03          	lwu	s6,-344(sp)

0000000080000aa0 <i_622>:
    80000aa0:	019a2a33          	slt	s4,s4,s9

0000000080000aa4 <i_623>:
    80000aa4:	0c415683          	lhu	a3,196(sp)

0000000080000aa8 <i_624>:
    80000aa8:	00000013          	nop

0000000080000aac <i_625>:
    80000aac:	00190913          	addi	s2,s2,1
    80000ab0:	ffe964e3          	bltu	s2,t5,80000a98 <i_620>

0000000080000ab4 <i_626>:
    80000ab4:	01936c33          	or	s8,t1,s9

0000000080000ab8 <i_627>:
    80000ab8:	01a00793          	li	a5,26

0000000080000abc <i_628>:
    80000abc:	00fc1c3b          	sllw	s8,s8,a5

0000000080000ac0 <i_629>:
    80000ac0:	00f8fa63          	bleu	a5,a7,80000ad4 <i_634>

0000000080000ac4 <i_630>:
    80000ac4:	01812703          	lw	a4,24(sp)

0000000080000ac8 <i_631>:
    80000ac8:	00d5ce63          	blt	a1,a3,80000ae4 <i_638>

0000000080000acc <i_632>:
    80000acc:	02f00213          	li	tp,47

0000000080000ad0 <i_633>:
    80000ad0:	004a17b3          	sll	a5,s4,tp

0000000080000ad4 <i_634>:
    80000ad4:	0397873b          	mulw	a4,a5,s9

0000000080000ad8 <i_635>:
    80000ad8:	02edb6b3          	mulhu	a3,s11,a4

0000000080000adc <i_636>:
    80000adc:	403ddd9b          	sraiw	s11,s11,0x3

0000000080000ae0 <i_637>:
    80000ae0:	01b79c63          	bne	a5,s11,80000af8 <i_643>

0000000080000ae4 <i_638>:
    80000ae4:	01a25263          	ble	s10,tp,80000ae8 <i_639>

0000000080000ae8 <i_639>:
    80000ae8:	11b10623          	sb	s11,268(sp)

0000000080000aec <i_640>:
    80000aec:	00fde263          	bltu	s11,a5,80000af0 <i_641>

0000000080000af0 <i_641>:
    80000af0:	f6c16d83          	lwu	s11,-148(sp)

0000000080000af4 <i_642>:
    80000af4:	01bde863          	bltu	s11,s11,80000b04 <i_646>

0000000080000af8 <i_643>:
    80000af8:	01020263          	beq	tp,a6,80000afc <i_644>

0000000080000afc <i_644>:
    80000afc:	1a813b03          	ld	s6,424(sp)

0000000080000b00 <i_645>:
    80000b00:	1bc12d83          	lw	s11,444(sp)

0000000080000b04 <i_646>:
    80000b04:	fb013203          	ld	tp,-80(sp)

0000000080000b08 <i_647>:
    80000b08:	016a0ab3          	add	s5,s4,s6

0000000080000b0c <i_648>:
    80000b0c:	13c16d83          	lwu	s11,316(sp)

0000000080000b10 <i_649>:
    80000b10:	03811903          	lh	s2,56(sp)

0000000080000b14 <i_650>:
    80000b14:	00b00d93          	li	s11,11

0000000080000b18 <i_651>:
    80000b18:	41ba553b          	sraw	a0,s4,s11

0000000080000b1c <i_652>:
    80000b1c:	ffe12623          	sw	t5,-20(sp)

0000000080000b20 <i_653>:
    80000b20:	00cd8a33          	add	s4,s11,a2

0000000080000b24 <i_654>:
    80000b24:	00400d93          	li	s11,4

0000000080000b28 <i_655>:
    80000b28:	01bf963b          	sllw	a2,t6,s11

0000000080000b2c <i_656>:
    80000b2c:	ebb13423          	sd	s11,-344(sp)

0000000080000b30 <i_657>:
    80000b30:	01fdd663          	ble	t6,s11,80000b3c <i_660>

0000000080000b34 <i_658>:
    80000b34:	014a6a63          	bltu	s4,s4,80000b48 <i_663>

0000000080000b38 <i_659>:
    80000b38:	01450c33          	add	s8,a0,s4

0000000080000b3c <i_660>:
    80000b3c:	f3013783          	ld	a5,-208(sp)

0000000080000b40 <i_661>:
    80000b40:	f7812a23          	sw	s8,-140(sp)

0000000080000b44 <i_662>:
    80000b44:	06012903          	lw	s2,96(sp)

0000000080000b48 <i_663>:
    80000b48:	022c67b3          	rem	a5,s8,sp

0000000080000b4c <i_664>:
    80000b4c:	f0a13c23          	sd	a0,-232(sp)

0000000080000b50 <i_665>:
    80000b50:	eb412e23          	sw	s4,-324(sp)

0000000080000b54 <i_666>:
    80000b54:	0386483b          	divw	a6,a2,s8

0000000080000b58 <i_667>:
    80000b58:	1fb12223          	sw	s11,484(sp)

0000000080000b5c <i_668>:
    80000b5c:	01b7c663          	blt	a5,s11,80000b68 <i_671>

0000000080000b60 <i_669>:
    80000b60:	1d411c23          	sh	s4,472(sp)

0000000080000b64 <i_670>:
    80000b64:	41050b33          	sub	s6,a0,a6

0000000080000b68 <i_671>:
    80000b68:	01080863          	beq	a6,a6,80000b78 <i_675>

0000000080000b6c <i_672>:
    80000b6c:	07014503          	lbu	a0,112(sp)

0000000080000b70 <i_673>:
    80000b70:	01da7263          	bleu	t4,s4,80000b74 <i_674>

0000000080000b74 <i_674>:
    80000b74:	e6215e83          	lhu	t4,-414(sp)

0000000080000b78 <i_675>:
    80000b78:	06c12903          	lw	s2,108(sp)

0000000080000b7c <i_676>:
    80000b7c:	0fe11e83          	lh	t4,254(sp)

0000000080000b80 <i_677>:
    80000b80:	012ee933          	or	s2,t4,s2

0000000080000b84 <i_678>:
    80000b84:	1b71819b          	addiw	gp,gp,439

0000000080000b88 <i_679>:
    80000b88:	9c94f817          	auipc	a6,0x9c94f

0000000080000b8c <i_680>:
    80000b8c:	fb012823          	sw	a6,-80(sp)

0000000080000b90 <i_681>:
    80000b90:	9251e193          	ori	gp,gp,-1755

0000000080000b94 <i_682>:
    80000b94:	e4312623          	sw	gp,-436(sp)

0000000080000b98 <i_683>:
    80000b98:	ec311423          	sh	gp,-312(sp)

0000000080000b9c <i_684>:
    80000b9c:	00e00a93          	li	s5,14

0000000080000ba0 <i_685>:
    80000ba0:	4151d1b3          	sra	gp,gp,s5

0000000080000ba4 <i_686>:
    80000ba4:	0010d19b          	srliw	gp,ra,0x1

0000000080000ba8 <i_687>:
    80000ba8:	47f1c613          	xori	a2,gp,1151

0000000080000bac <i_688>:
    80000bac:	13211483          	lh	s1,306(sp)

0000000080000bb0 <i_689>:
    80000bb0:	78400a93          	li	s5,1924

0000000080000bb4 <i_690>:
    80000bb4:	79000193          	li	gp,1936

0000000080000bb8 <i_691>:
    80000bb8:	f9b12023          	sw	s11,-128(sp)

0000000080000bbc <i_692>:
    80000bbc:	00800613          	li	a2,8

0000000080000bc0 <i_693>:
    80000bc0:	40c6563b          	sraw	a2,a2,a2

0000000080000bc4 <i_694>:
    80000bc4:	14f11423          	sh	a5,328(sp)

0000000080000bc8 <i_695>:
    80000bc8:	00c65463          	ble	a2,a2,80000bd0 <i_697>

0000000080000bcc <i_696>:
    80000bcc:	01a63f33          	sltu	t5,a2,s10

0000000080000bd0 <i_697>:
    80000bd0:	00df2633          	slt	a2,t5,a3

0000000080000bd4 <i_698>:
    80000bd4:	f2c13823          	sd	a2,-208(sp)

0000000080000bd8 <i_699>:
    80000bd8:	02013f03          	ld	t5,32(sp)

0000000080000bdc <i_700>:
    80000bdc:	4acc3e17          	auipc	t3,0x4acc3

0000000080000be0 <i_701>:
    80000be0:	001a8a93          	addi	s5,s5,1
    80000be4:	fc3acae3          	blt	s5,gp,80000bb8 <i_691>

0000000080000be8 <i_702>:
    80000be8:	402f5b93          	srai	s7,t5,0x2

0000000080000bec <i_703>:
    80000bec:	0de13023          	sd	t5,192(sp)

0000000080000bf0 <i_704>:
    80000bf0:	11e10683          	lb	a3,286(sp)

0000000080000bf4 <i_705>:
    80000bf4:	01b4feb3          	and	t4,s1,s11

0000000080000bf8 <i_706>:
    80000bf8:	eac11423          	sh	a2,-344(sp)

0000000080000bfc <i_707>:
    80000bfc:	f2013703          	ld	a4,-224(sp)

0000000080000c00 <i_708>:
    80000c00:	1a813583          	ld	a1,424(sp)

0000000080000c04 <i_709>:
    80000c04:	00c5de63          	ble	a2,a1,80000c20 <i_716>

0000000080000c08 <i_710>:
    80000c08:	ea9f6b93          	ori	s7,t5,-343

0000000080000c0c <i_711>:
    80000c0c:	f7510a03          	lb	s4,-139(sp)

0000000080000c10 <i_712>:
    80000c10:	03dbbbb3          	mulhu	s7,s7,t4

0000000080000c14 <i_713>:
    80000c14:	e0351ab7          	lui	s5,0xe0351

0000000080000c18 <i_714>:
    80000c18:	0ff14d83          	lbu	s11,255(sp)

0000000080000c1c <i_715>:
    80000c1c:	ef412783          	lw	a5,-268(sp)

0000000080000c20 <i_716>:
    80000c20:	14713023          	sd	t2,320(sp)

0000000080000c24 <i_717>:
    80000c24:	00000013          	nop

0000000080000c28 <i_718>:
    80000c28:	73000393          	li	t2,1840

0000000080000c2c <i_719>:
    80000c2c:	73900613          	li	a2,1849

0000000080000c30 <i_720>:
    80000c30:	0076ee63          	bltu	a3,t2,80000c4c <i_726>

0000000080000c34 <i_721>:
    80000c34:	e7714a83          	lbu	s5,-393(sp)

0000000080000c38 <i_722>:
    80000c38:	00138393          	addi	t2,t2,1
    80000c3c:	fec39ae3          	bne	t2,a2,80000c30 <i_720>

0000000080000c40 <i_723>:
    80000c40:	41a381bb          	subw	gp,t2,s10

0000000080000c44 <i_724>:
    80000c44:	014a0863          	beq	s4,s4,80000c54 <i_728>

0000000080000c48 <i_725>:
    80000c48:	017a1c63          	bne	s4,s7,80000c60 <i_731>

0000000080000c4c <i_726>:
    80000c4c:	eb813b83          	ld	s7,-328(sp)

0000000080000c50 <i_727>:
    80000c50:	003a5a1b          	srliw	s4,s4,0x3

0000000080000c54 <i_728>:
    80000c54:	03656533          	rem	a0,a0,s6

0000000080000c58 <i_729>:
    80000c58:	003a6263          	bltu	s4,gp,80000c5c <i_730>

0000000080000c5c <i_730>:
    80000c5c:	02f1deb3          	divu	t4,gp,a5

0000000080000c60 <i_731>:
    80000c60:	f7012183          	lw	gp,-144(sp)

0000000080000c64 <i_732>:
    80000c64:	f1816b03          	lwu	s6,-232(sp)

0000000080000c68 <i_733>:
    80000c68:	e9412b03          	lw	s6,-364(sp)

0000000080000c6c <i_734>:
    80000c6c:	001c5e93          	srli	t4,s8,0x1

0000000080000c70 <i_735>:
    80000c70:	01db0263          	beq	s6,t4,80000c74 <i_736>

0000000080000c74 <i_736>:
    80000c74:	016eee63          	bltu	t4,s6,80000c90 <i_743>

0000000080000c78 <i_737>:
    80000c78:	eb412a83          	lw	s5,-332(sp)

0000000080000c7c <i_738>:
    80000c7c:	1a313423          	sd	gp,424(sp)

0000000080000c80 <i_739>:
    80000c80:	18011b03          	lh	s6,384(sp)

0000000080000c84 <i_740>:
    80000c84:	036a9ab3          	mulh	s5,s5,s6

0000000080000c88 <i_741>:
    80000c88:	016b6263          	bltu	s6,s6,80000c8c <i_742>

0000000080000c8c <i_742>:
    80000c8c:	015aee63          	bltu	s5,s5,80000ca8 <i_749>

0000000080000c90 <i_743>:
    80000c90:	3a3ac593          	xori	a1,s5,931

0000000080000c94 <i_744>:
    80000c94:	03a00293          	li	t0,58

0000000080000c98 <i_745>:
    80000c98:	005adab3          	srl	s5,s5,t0

0000000080000c9c <i_746>:
    80000c9c:	0326f93b          	remuw	s2,a3,s2

0000000080000ca0 <i_747>:
    80000ca0:	e5513c23          	sd	s5,-424(sp)

0000000080000ca4 <i_748>:
    80000ca4:	032d6463          	bltu	s10,s2,80000ccc <i_758>

0000000080000ca8 <i_749>:
    80000ca8:	edb5cd93          	xori	s11,a1,-293

0000000080000cac <i_750>:
    80000cac:	ff610583          	lb	a1,-10(sp)

0000000080000cb0 <i_751>:
    80000cb0:	1cd14983          	lbu	s3,461(sp)

0000000080000cb4 <i_752>:
    80000cb4:	02d9be33          	mulhu	t3,s3,a3

0000000080000cb8 <i_753>:
    80000cb8:	07c16283          	lwu	t0,124(sp)

0000000080000cbc <i_754>:
    80000cbc:	7fce3f93          	sltiu	t6,t3,2044

0000000080000cc0 <i_755>:
    80000cc0:	105107a3          	sb	t0,271(sp)

0000000080000cc4 <i_756>:
    80000cc4:	1be15083          	lhu	ra,446(sp)

0000000080000cc8 <i_757>:
    80000cc8:	fd013e03          	ld	t3,-48(sp)

0000000080000ccc <i_758>:
    80000ccc:	f8111e23          	sh	ra,-100(sp)

0000000080000cd0 <i_759>:
    80000cd0:	e4211283          	lh	t0,-446(sp)

0000000080000cd4 <i_760>:
    80000cd4:	79800693          	li	a3,1944

0000000080000cd8 <i_761>:
    80000cd8:	79d00593          	li	a1,1949

0000000080000cdc <i_762>:
    80000cdc:	00000013          	nop

0000000080000ce0 <i_763>:
    80000ce0:	00168693          	addi	a3,a3,1
    80000ce4:	fed59ce3          	bne	a1,a3,80000cdc <i_762>

0000000080000ce8 <i_764>:
    80000ce8:	1d013f03          	ld	t5,464(sp)

0000000080000cec <i_765>:
    80000cec:	01ebf863          	bleu	t5,s7,80000cfc <i_769>

0000000080000cf0 <i_766>:
    80000cf0:	004f5f9b          	srliw	t6,t5,0x4

0000000080000cf4 <i_767>:
    80000cf4:	820f6a13          	ori	s4,t5,-2016

0000000080000cf8 <i_768>:
    80000cf8:	00000013          	nop

0000000080000cfc <i_769>:
    80000cfc:	e7b12423          	sw	s11,-408(sp)

0000000080000d00 <i_770>:
    80000d00:	0aa10d03          	lb	s10,170(sp)

0000000080000d04 <i_771>:
    80000d04:	8b800d93          	li	s11,-1864

0000000080000d08 <i_772>:
    80000d08:	8cb00f13          	li	t5,-1845

0000000080000d0c <i_773>:
    80000d0c:	00813183          	ld	gp,8(sp)

0000000080000d10 <i_774>:
    80000d10:	e6813d03          	ld	s10,-408(sp)

0000000080000d14 <i_775>:
    80000d14:	01ad0d33          	add	s10,s10,s10

0000000080000d18 <i_776>:
    80000d18:	001d8d93          	addi	s11,s11,1 # 6b491001 <main-0x14b6efff>
    80000d1c:	ffbf78e3          	bleu	s11,t5,80000d0c <i_773>

0000000080000d20 <i_777>:
    80000d20:	02313c23          	sd	gp,56(sp)

0000000080000d24 <i_778>:
    80000d24:	01bd4a63          	blt	s10,s11,80000d38 <i_783>

0000000080000d28 <i_779>:
    80000d28:	13a13823          	sd	s10,304(sp)

0000000080000d2c <i_780>:
    80000d2c:	01700813          	li	a6,23

0000000080000d30 <i_781>:
    80000d30:	010f1f33          	sll	t5,t5,a6

0000000080000d34 <i_782>:
    80000d34:	fa614d03          	lbu	s10,-90(sp)

0000000080000d38 <i_783>:
    80000d38:	f3e12623          	sw	t5,-212(sp)

0000000080000d3c <i_784>:
    80000d3c:	0019d993          	srli	s3,s3,0x1

0000000080000d40 <i_785>:
    80000d40:	01a1f8b3          	and	a7,gp,s10

0000000080000d44 <i_786>:
    80000d44:	00200d13          	li	s10,2

0000000080000d48 <i_787>:
    80000d48:	01a99d33          	sll	s10,s3,s10

0000000080000d4c <i_788>:
    80000d4c:	00213023          	sd	sp,0(sp)

0000000080000d50 <i_789>:
    80000d50:	03b00d13          	li	s10,59

0000000080000d54 <i_790>:
    80000d54:	41a9d9b3          	sra	s3,s3,s10

0000000080000d58 <i_791>:
    80000d58:	01700193          	li	gp,23

0000000080000d5c <i_792>:
    80000d5c:	003999bb          	sllw	s3,s3,gp

0000000080000d60 <i_793>:
    80000d60:	0139ff33          	and	t5,s3,s3

0000000080000d64 <i_794>:
    80000d64:	03e64263          	blt	a2,t5,80000d88 <i_803>

0000000080000d68 <i_795>:
    80000d68:	f1010b23          	sb	a6,-234(sp)

0000000080000d6c <i_796>:
    80000d6c:	1a415b03          	lhu	s6,420(sp)

0000000080000d70 <i_797>:
    80000d70:	00c00e93          	li	t4,12

0000000080000d74 <i_798>:
    80000d74:	01d55f33          	srl	t5,a0,t4

0000000080000d78 <i_799>:
    80000d78:	02016203          	lwu	tp,32(sp)

0000000080000d7c <i_800>:
    80000d7c:	036f7233          	remu	tp,t5,s6

0000000080000d80 <i_801>:
    80000d80:	fb811283          	lh	t0,-72(sp)

0000000080000d84 <i_802>:
    80000d84:	024d7d3b          	remuw	s10,s10,tp

0000000080000d88 <i_803>:
    80000d88:	00d00b93          	li	s7,13

0000000080000d8c <i_804>:
    80000d8c:	017d923b          	sllw	tp,s11,s7

0000000080000d90 <i_805>:
    80000d90:	03812d03          	lw	s10,56(sp)

0000000080000d94 <i_806>:
    80000d94:	0da12e23          	sw	s10,220(sp)

0000000080000d98 <i_807>:
    80000d98:	80520293          	addi	t0,tp,-2043 # fffffffffffff805 <_end+0xffffffff7ffef3f1>

0000000080000d9c <i_808>:
    80000d9c:	04413423          	sd	tp,72(sp)

0000000080000da0 <i_809>:
    80000da0:	f7015d03          	lhu	s10,-144(sp)

0000000080000da4 <i_810>:
    80000da4:	1da10f23          	sb	s10,478(sp)

0000000080000da8 <i_811>:
    80000da8:	02522233          	mulhsu	tp,tp,t0

0000000080000dac <i_812>:
    80000dac:	024242bb          	divw	t0,tp,tp

0000000080000db0 <i_813>:
    80000db0:	0367ed33          	rem	s10,a5,s6

0000000080000db4 <i_814>:
    80000db4:	004d5663          	ble	tp,s10,80000dc0 <i_817>

0000000080000db8 <i_815>:
    80000db8:	00525263          	ble	t0,tp,80000dbc <i_816>

0000000080000dbc <i_816>:
    80000dbc:	0bd10583          	lb	a1,189(sp)

0000000080000dc0 <i_817>:
    80000dc0:	025d7463          	bleu	t0,s10,80000de8 <i_827>

0000000080000dc4 <i_818>:
    80000dc4:	00013503          	ld	a0,0(sp)

0000000080000dc8 <i_819>:
    80000dc8:	40125593          	srai	a1,tp,0x1

0000000080000dcc <i_820>:
    80000dcc:	00ad1263          	bne	s10,a0,80000dd0 <i_821>

0000000080000dd0 <i_821>:
    80000dd0:	fcf10803          	lb	a6,-49(sp)

0000000080000dd4 <i_822>:
    80000dd4:	01000493          	li	s1,16

0000000080000dd8 <i_823>:
    80000dd8:	4098d63b          	sraw	a2,a7,s1

0000000080000ddc <i_824>:
    80000ddc:	e4513423          	sd	t0,-440(sp)

0000000080000de0 <i_825>:
    80000de0:	0a110323          	sb	ra,166(sp)

0000000080000de4 <i_826>:
    80000de4:	0e410aa3          	sb	tp,245(sp)

0000000080000de8 <i_827>:
    80000de8:	00482833          	slt	a6,a6,tp

0000000080000dec <i_828>:
    80000dec:	40cc8cbb          	subw	s9,s9,a2

0000000080000df0 <i_829>:
    80000df0:	c635d217          	auipc	tp,0xc635d

0000000080000df4 <i_830>:
    80000df4:	ef813c83          	ld	s9,-264(sp)

0000000080000df8 <i_831>:
    80000df8:	02426c33          	rem	s8,tp,tp

0000000080000dfc <i_832>:
    80000dfc:	e9615583          	lhu	a1,-362(sp)

0000000080000e00 <i_833>:
    80000e00:	01b00c13          	li	s8,27

0000000080000e04 <i_834>:
    80000e04:	418cda3b          	sraw	s4,s9,s8

0000000080000e08 <i_835>:
    80000e08:	10e15883          	lhu	a7,270(sp)

0000000080000e0c <i_836>:
    80000e0c:	e7913c23          	sd	s9,-392(sp)

0000000080000e10 <i_837>:
    80000e10:	11911223          	sh	s9,260(sp)

0000000080000e14 <i_838>:
    80000e14:	71901cb7          	lui	s9,0x71901

0000000080000e18 <i_839>:
    80000e18:	03419263          	bne	gp,s4,80000e3c <i_848>

0000000080000e1c <i_840>:
    80000e1c:	0118d863          	ble	a7,a7,80000e2c <i_844>

0000000080000e20 <i_841>:
    80000e20:	025cfdb3          	remu	s11,s9,t0

0000000080000e24 <i_842>:
    80000e24:	0a114383          	lbu	t2,161(sp)

0000000080000e28 <i_843>:
    80000e28:	09d14883          	lbu	a7,157(sp)

0000000080000e2c <i_844>:
    80000e2c:	e6810883          	lb	a7,-408(sp)

0000000080000e30 <i_845>:
    80000e30:	00738e63          	beq	t2,t2,80000e4c <i_852>

0000000080000e34 <i_846>:
    80000e34:	f7812983          	lw	s3,-136(sp)

0000000080000e38 <i_847>:
    80000e38:	0a713c23          	sd	t2,184(sp)

0000000080000e3c <i_848>:
    80000e3c:	d8b72997          	auipc	s3,0xd8b72

0000000080000e40 <i_849>:
    80000e40:	e3c16383          	lwu	t2,-452(sp)

0000000080000e44 <i_850>:
    80000e44:	fe813403          	ld	s0,-24(sp)

0000000080000e48 <i_851>:
    80000e48:	0333f9b3          	remu	s3,t2,s3

0000000080000e4c <i_852>:
    80000e4c:	01399863          	bne	s3,s3,80000e5c <i_856>

0000000080000e50 <i_853>:
    80000e50:	0c710ca3          	sb	t2,217(sp)

0000000080000e54 <i_854>:
    80000e54:	3993f393          	andi	t2,t2,921

0000000080000e58 <i_855>:
    80000e58:	02e3c633          	div	a2,t2,a4

0000000080000e5c <i_856>:
    80000e5c:	14811d23          	sh	s0,346(sp)

0000000080000e60 <i_857>:
    80000e60:	02239d33          	mulh	s10,t2,sp

0000000080000e64 <i_858>:
    80000e64:	00165863          	ble	ra,a2,80000e74 <i_862>

0000000080000e68 <i_859>:
    80000e68:	d2e7099b          	addiw	s3,a4,-722

0000000080000e6c <i_860>:
    80000e6c:	00744cb3          	xor	s9,s0,t2

0000000080000e70 <i_861>:
    80000e70:	0075a3b3          	slt	t2,a1,t2

0000000080000e74 <i_862>:
    80000e74:	0fd13823          	sd	t4,240(sp)

0000000080000e78 <i_863>:
    80000e78:	fb911a23          	sh	s9,-76(sp)

0000000080000e7c <i_864>:
    80000e7c:	00000013          	nop

0000000080000e80 <i_865>:
    80000e80:	00000013          	nop

0000000080000e84 <i_866>:
    80000e84:	7ea00593          	li	a1,2026

0000000080000e88 <i_867>:
    80000e88:	7f100c93          	li	s9,2033

0000000080000e8c <i_868>:
    80000e8c:	1e014d83          	lbu	s11,480(sp)

0000000080000e90 <i_869>:
    80000e90:	00000013          	nop

0000000080000e94 <i_870>:
    80000e94:	12e10ca3          	sb	a4,313(sp)

0000000080000e98 <i_871>:
    80000e98:	09314683          	lbu	a3,147(sp)

0000000080000e9c <i_872>:
    80000e9c:	00de0e33          	add	t3,t3,a3

0000000080000ea0 <i_873>:
    80000ea0:	00158593          	addi	a1,a1,1
    80000ea4:	febcf4e3          	bleu	a1,s9,80000e8c <i_868>

0000000080000ea8 <i_874>:
    80000ea8:	017dfe63          	bleu	s7,s11,80000ec4 <i_881>

0000000080000eac <i_875>:
    80000eac:	02fdf7b3          	remu	a5,s11,a5

0000000080000eb0 <i_876>:
    80000eb0:	e6010883          	lb	a7,-416(sp)

0000000080000eb4 <i_877>:
    80000eb4:	03bc80bb          	mulw	ra,s9,s11

0000000080000eb8 <i_878>:
    80000eb8:	19816783          	lwu	a5,408(sp)

0000000080000ebc <i_879>:
    80000ebc:	eb016083          	lwu	ra,-336(sp)

0000000080000ec0 <i_880>:
    80000ec0:	14814283          	lbu	t0,328(sp)

0000000080000ec4 <i_881>:
    80000ec4:	ec013e83          	ld	t4,-320(sp)

0000000080000ec8 <i_882>:
    80000ec8:	01d0f633          	and	a2,ra,t4

0000000080000ecc <i_883>:
    80000ecc:	40365d9b          	sraiw	s11,a2,0x3

0000000080000ed0 <i_884>:
    80000ed0:	fef10323          	sb	a5,-26(sp)

0000000080000ed4 <i_885>:
    80000ed4:	ec011e83          	lh	t4,-320(sp)

0000000080000ed8 <i_886>:
    80000ed8:	01b4adb3          	slt	s11,s1,s11

0000000080000edc <i_887>:
    80000edc:	03dea9b3          	mulhsu	s3,t4,t4

0000000080000ee0 <i_888>:
    80000ee0:	00dd899b          	addiw	s3,s11,13

0000000080000ee4 <i_889>:
    80000ee4:	1bc16203          	lwu	tp,444(sp)

0000000080000ee8 <i_890>:
    80000ee8:	18411523          	sh	tp,394(sp)

0000000080000eec <i_891>:
    80000eec:	03900e93          	li	t4,57

0000000080000ef0 <i_892>:
    80000ef0:	01d65533          	srl	a0,a2,t4

0000000080000ef4 <i_893>:
    80000ef4:	12a102a3          	sb	a0,293(sp)

0000000080000ef8 <i_894>:
    80000ef8:	f6220c13          	addi	s8,tp,-158 # 4635dd52 <main-0x39ca22ae>

0000000080000efc <i_895>:
    80000efc:	ed011203          	lh	tp,-304(sp)

0000000080000f00 <i_896>:
    80000f00:	0691e893          	ori	a7,gp,105

0000000080000f04 <i_897>:
    80000f04:	81200193          	li	gp,-2030

0000000080000f08 <i_898>:
    80000f08:	81f00993          	li	s3,-2017

0000000080000f0c <i_899>:
    80000f0c:	00118193          	addi	gp,gp,1 # 10001 <main-0x7ffeffff>
    80000f10:	ff31cee3          	blt	gp,s3,80000f0c <i_899>

0000000080000f14 <i_900>:
    80000f14:	0139ca63          	blt	s3,s3,80000f28 <i_905>

0000000080000f18 <i_901>:
    80000f18:	1c410fa3          	sb	tp,479(sp)

0000000080000f1c <i_902>:
    80000f1c:	fd013983          	ld	s3,-48(sp)

0000000080000f20 <i_903>:
    80000f20:	fc013983          	ld	s3,-64(sp)

0000000080000f24 <i_904>:
    80000f24:	faa13c23          	sd	a0,-72(sp)

0000000080000f28 <i_905>:
    80000f28:	f6d8a9b7          	lui	s3,0xf6d8a

0000000080000f2c <i_906>:
    80000f2c:	0279fdb3          	remu	s11,s3,t2

0000000080000f30 <i_907>:
    80000f30:	40245993          	srai	s3,s0,0x2

0000000080000f34 <i_908>:
    80000f34:	03b4ccb3          	div	s9,s1,s11

0000000080000f38 <i_909>:
    80000f38:	033a4a33          	div	s4,s4,s3

0000000080000f3c <i_910>:
    80000f3c:	07313823          	sd	s3,112(sp)

0000000080000f40 <i_911>:
    80000f40:	1b911d23          	sh	s9,442(sp)

0000000080000f44 <i_912>:
    80000f44:	0349c2bb          	divw	t0,s3,s4

0000000080000f48 <i_913>:
    80000f48:	2a79cf13          	xori	t5,s3,679

0000000080000f4c <i_914>:
    80000f4c:	033de063          	bltu	s11,s3,80000f6c <i_922>

0000000080000f50 <i_915>:
    80000f50:	03999463          	bne	s3,s9,80000f78 <i_925>

0000000080000f54 <i_916>:
    80000f54:	bb39b293          	sltiu	t0,s3,-1101

0000000080000f58 <i_917>:
    80000f58:	0349cfbb          	divw	t6,s3,s4

0000000080000f5c <i_918>:
    80000f5c:	4039db9b          	sraiw	s7,s3,0x3

0000000080000f60 <i_919>:
    80000f60:	00000013          	nop

0000000080000f64 <i_920>:
    80000f64:	00000013          	nop

0000000080000f68 <i_921>:
    80000f68:	9689e893          	ori	a7,s3,-1688

0000000080000f6c <i_922>:
    80000f6c:	001f5f13          	srli	t5,t5,0x1

0000000080000f70 <i_923>:
    80000f70:	01813e83          	ld	t4,24(sp)

0000000080000f74 <i_924>:
    80000f74:	f3013e83          	ld	t4,-208(sp)

0000000080000f78 <i_925>:
    80000f78:	1d016f03          	lwu	t5,464(sp)

0000000080000f7c <i_926>:
    80000f7c:	1d416383          	lwu	t2,468(sp)

0000000080000f80 <i_927>:
    80000f80:	84000413          	li	s0,-1984

0000000080000f84 <i_928>:
    80000f84:	84f00993          	li	s3,-1969

0000000080000f88 <i_929>:
    80000f88:	fa314c03          	lbu	s8,-93(sp)

0000000080000f8c <i_930>:
    80000f8c:	b969ee93          	ori	t4,s3,-1130

0000000080000f90 <i_931>:
    80000f90:	0d311823          	sh	s3,208(sp)

0000000080000f94 <i_932>:
    80000f94:	00140413          	addi	s0,s0,1
    80000f98:	ff3418e3          	bne	s0,s3,80000f88 <i_929>

0000000080000f9c <i_933>:
    80000f9c:	fce11223          	sh	a4,-60(sp)

0000000080000fa0 <i_934>:
    80000fa0:	f1c11123          	sh	t3,-254(sp)

0000000080000fa4 <i_935>:
    80000fa4:	f8311623          	sh	gp,-116(sp)

0000000080000fa8 <i_936>:
    80000fa8:	1b111a23          	sh	a7,436(sp)

0000000080000fac <i_937>:
    80000fac:	1d614383          	lbu	t2,470(sp)

0000000080000fb0 <i_938>:
    80000fb0:	e5712823          	sw	s7,-432(sp)

0000000080000fb4 <i_939>:
    80000fb4:	16812623          	sw	s0,364(sp)

0000000080000fb8 <i_940>:
    80000fb8:	038f68bb          	remw	a7,t5,s8

0000000080000fbc <i_941>:
    80000fbc:	15a15b83          	lhu	s7,346(sp)

0000000080000fc0 <i_942>:
    80000fc0:	004b9b93          	slli	s7,s7,0x4

0000000080000fc4 <i_943>:
    80000fc4:	0378bab3          	mulhu	s5,a7,s7

0000000080000fc8 <i_944>:
    80000fc8:	012a8a63          	beq	s5,s2,80000fdc <i_949>

0000000080000fcc <i_945>:
    80000fcc:	14410b83          	lb	s7,324(sp)

0000000080000fd0 <i_946>:
    80000fd0:	f2211583          	lh	a1,-222(sp)

0000000080000fd4 <i_947>:
    80000fd4:	015bdc63          	ble	s5,s7,80000fec <i_953>

0000000080000fd8 <i_948>:
    80000fd8:	e0b11d23          	sh	a1,-486(sp)

0000000080000fdc <i_949>:
    80000fdc:	03800f93          	li	t6,56

0000000080000fe0 <i_950>:
    80000fe0:	01fc1fb3          	sll	t6,s8,t6

0000000080000fe4 <i_951>:
    80000fe4:	fb7104a3          	sb	s7,-87(sp)

0000000080000fe8 <i_952>:
    80000fe8:	fc737fb7          	lui	t6,0xfc737

0000000080000fec <i_953>:
    80000fec:	02710a83          	lb	s5,39(sp)

0000000080000ff0 <i_954>:
    80000ff0:	ea412083          	lw	ra,-348(sp)

0000000080000ff4 <i_955>:
    80000ff4:	7a700b13          	li	s6,1959

0000000080000ff8 <i_956>:
    80000ff8:	7a900993          	li	s3,1961

0000000080000ffc <i_957>:
    80000ffc:	05712423          	sw	s7,72(sp)

0000000080001000 <i_958>:
    80001000:	00b97333          	and	t1,s2,a1

0000000080001004 <i_959>:
    80001004:	fd6101a3          	sb	s6,-61(sp)

0000000080001008 <i_960>:
    80001008:	01869863          	bne	a3,s8,80001018 <i_964>

000000008000100c <i_961>:
    8000100c:	16812e83          	lw	t4,360(sp)

0000000080001010 <i_962>:
    80001010:	0dd11e23          	sh	t4,220(sp)

0000000080001014 <i_963>:
    80001014:	02000093          	li	ra,32

0000000080001018 <i_964>:
    80001018:	001edc33          	srl	s8,t4,ra

000000008000101c <i_965>:
    8000101c:	f8613823          	sd	t1,-112(sp)

0000000080001020 <i_966>:
    80001020:	03dc4063          	blt	s8,t4,80001040 <i_973>

0000000080001024 <i_967>:
    80001024:	0260f063          	bleu	t1,ra,80001044 <i_974>

0000000080001028 <i_968>:
    80001028:	021760bb          	remw	ra,a4,ra

000000008000102c <i_969>:
    8000102c:	001b0b13          	addi	s6,s6,1
    80001030:	fd69d6e3          	ble	s6,s3,80000ffc <i_957>

0000000080001034 <i_970>:
    80001034:	11810b23          	sb	s8,278(sp)

0000000080001038 <i_971>:
    80001038:	06210303          	lb	t1,98(sp)

000000008000103c <i_972>:
    8000103c:	006c7833          	and	a6,s8,t1

0000000080001040 <i_973>:
    80001040:	19816c03          	lwu	s8,408(sp)

0000000080001044 <i_974>:
    80001044:	030c6c33          	rem	s8,s8,a6

0000000080001048 <i_975>:
    80001048:	404c5313          	srai	t1,s8,0x4

000000008000104c <i_976>:
    8000104c:	00c12083          	lw	ra,12(sp)

0000000080001050 <i_977>:
    80001050:	01036463          	bltu	t1,a6,80001058 <i_979>

0000000080001054 <i_978>:
    80001054:	e3416a83          	lwu	s5,-460(sp)

0000000080001058 <i_979>:
    80001058:	11014303          	lbu	t1,272(sp)

000000008000105c <i_980>:
    8000105c:	e3c12e03          	lw	t3,-452(sp)

0000000080001060 <i_981>:
    80001060:	e2f10803          	lb	a6,-465(sp)

0000000080001064 <i_982>:
    80001064:	86400093          	li	ra,-1948

0000000080001068 <i_983>:
    80001068:	87800b93          	li	s7,-1928

000000008000106c <i_984>:
    8000106c:	3ea32313          	slti	t1,t1,1002

0000000080001070 <i_985>:
    80001070:	02900a93          	li	s5,41

0000000080001074 <i_986>:
    80001074:	015e19b3          	sll	s3,t3,s5

0000000080001078 <i_987>:
    80001078:	86f00313          	li	t1,-1937

000000008000107c <i_988>:
    8000107c:	87400693          	li	a3,-1932

0000000080001080 <i_989>:
    80001080:	02731263          	bne	t1,t2,800010a4 <i_997>

0000000080001084 <i_990>:
    80001084:	4279eab7          	lui	s5,0x4279e

0000000080001088 <i_991>:
    80001088:	00000013          	nop

000000008000108c <i_992>:
    8000108c:	fa015883          	lhu	a7,-96(sp)

0000000080001090 <i_993>:
    80001090:	f8710e83          	lb	t4,-121(sp)

0000000080001094 <i_994>:
    80001094:	00130313          	addi	t1,t1,1
    80001098:	fed314e3          	bne	t1,a3,80001080 <i_989>

000000008000109c <i_995>:
    8000109c:	f6c12283          	lw	t0,-148(sp)

00000000800010a0 <i_996>:
    800010a0:	02c286b3          	mul	a3,t0,a2

00000000800010a4 <i_997>:
    800010a4:	03cdd063          	ble	t3,s11,800010c4 <i_1004>

00000000800010a8 <i_998>:
    800010a8:	ec011283          	lh	t0,-320(sp)

00000000800010ac <i_999>:
    800010ac:	00108093          	addi	ra,ra,1
    800010b0:	fb70eee3          	bltu	ra,s7,8000106c <i_984>

00000000800010b4 <i_1000>:
    800010b4:	1b610683          	lb	a3,438(sp)

00000000800010b8 <i_1001>:
    800010b8:	f4016a83          	lwu	s5,-192(sp)

00000000800010bc <i_1002>:
    800010bc:	11012a83          	lw	s5,272(sp)

00000000800010c0 <i_1003>:
    800010c0:	00331613          	slli	a2,t1,0x3

00000000800010c4 <i_1004>:
    800010c4:	00de0933          	add	s2,t3,a3

00000000800010c8 <i_1005>:
    800010c8:	012e4e33          	xor	t3,t3,s2

00000000800010cc <i_1006>:
    800010cc:	01c0c0b3          	xor	ra,ra,t3

00000000800010d0 <i_1007>:
    800010d0:	032d873b          	mulw	a4,s11,s2

00000000800010d4 <i_1008>:
    800010d4:	11816203          	lwu	tp,280(sp)

00000000800010d8 <i_1009>:
    800010d8:	18013803          	ld	a6,384(sp)

00000000800010dc <i_1010>:
    800010dc:	0210c463          	blt	ra,ra,80001104 <i_1020>

00000000800010e0 <i_1011>:
    800010e0:	03015803          	lhu	a6,48(sp)

00000000800010e4 <i_1012>:
    800010e4:	13514203          	lbu	tp,309(sp)

00000000800010e8 <i_1013>:
    800010e8:	03079063          	bne	a5,a6,80001108 <i_1021>

00000000800010ec <i_1014>:
    800010ec:	10413423          	sd	tp,264(sp)

00000000800010f0 <i_1015>:
    800010f0:	024d7d33          	remu	s10,s10,tp

00000000800010f4 <i_1016>:
    800010f4:	01ae2233          	slt	tp,t3,s10

00000000800010f8 <i_1017>:
    800010f8:	004d0d33          	add	s10,s10,tp

00000000800010fc <i_1018>:
    800010fc:	e9213823          	sd	s2,-368(sp)

0000000080001100 <i_1019>:
    80001100:	08a13c23          	sd	a0,152(sp)

0000000080001104 <i_1020>:
    80001104:	16510903          	lb	s2,357(sp)

0000000080001108 <i_1021>:
    80001108:	fa611323          	sh	t1,-90(sp)

000000008000110c <i_1022>:
    8000110c:	02636e3b          	remw	t3,t1,t1

0000000080001110 <i_1023>:
    80001110:	eb814303          	lbu	t1,-328(sp)

0000000080001114 <i_1024>:
    80001114:	006e6863          	bltu	t3,t1,80001124 <i_1028>

0000000080001118 <i_1025>:
    80001118:	e4214e03          	lbu	t3,-446(sp)

000000008000111c <i_1026>:
    8000111c:	01ce6863          	bltu	t3,t3,8000112c <i_1030>

0000000080001120 <i_1027>:
    80001120:	0321d1b3          	divu	gp,gp,s2

0000000080001124 <i_1028>:
    80001124:	41c68e3b          	subw	t3,a3,t3

0000000080001128 <i_1029>:
    80001128:	00300913          	li	s2,3

000000008000112c <i_1030>:
    8000112c:	01295c33          	srl	s8,s2,s2

0000000080001130 <i_1031>:
    80001130:	1dc11023          	sh	t3,448(sp)

0000000080001134 <i_1032>:
    80001134:	0023559b          	srliw	a1,t1,0x2

0000000080001138 <i_1033>:
    80001138:	10012203          	lw	tp,256(sp)

000000008000113c <i_1034>:
    8000113c:	02b65463          	ble	a1,a2,80001164 <i_1044>

0000000080001140 <i_1035>:
    80001140:	f5310f03          	lb	t5,-173(sp)

0000000080001144 <i_1036>:
    80001144:	e2c12583          	lw	a1,-468(sp)

0000000080001148 <i_1037>:
    80001148:	e4615583          	lhu	a1,-442(sp)

000000008000114c <i_1038>:
    8000114c:	efc12083          	lw	ra,-260(sp)

0000000080001150 <i_1039>:
    80001150:	e2e14583          	lbu	a1,-466(sp)

0000000080001154 <i_1040>:
    80001154:	41a586bb          	subw	a3,a1,s10

0000000080001158 <i_1041>:
    80001158:	19010f03          	lb	t5,400(sp)

000000008000115c <i_1042>:
    8000115c:	06813903          	ld	s2,104(sp)

0000000080001160 <i_1043>:
    80001160:	0327d463          	ble	s2,a5,80001188 <i_1053>

0000000080001164 <i_1044>:
    80001164:	01d88263          	beq	a7,t4,80001168 <i_1045>

0000000080001168 <i_1045>:
    80001168:	efa15583          	lhu	a1,-262(sp)

000000008000116c <i_1046>:
    8000116c:	f8213423          	sd	sp,-120(sp)

0000000080001170 <i_1047>:
    80001170:	01900e93          	li	t4,25

0000000080001174 <i_1048>:
    80001174:	01dd5ebb          	srlw	t4,s10,t4

0000000080001178 <i_1049>:
    80001178:	00fe8863          	beq	t4,a5,80001188 <i_1053>

000000008000117c <i_1050>:
    8000117c:	032ef733          	remu	a4,t4,s2

0000000080001180 <i_1051>:
    80001180:	0a815e83          	lhu	t4,168(sp)

0000000080001184 <i_1052>:
    80001184:	412e823b          	subw	tp,t4,s2

0000000080001188 <i_1053>:
    80001188:	0b2108a3          	sb	s2,177(sp)

000000008000118c <i_1054>:
    8000118c:	02011903          	lh	s2,32(sp)

0000000080001190 <i_1055>:
    80001190:	00175b13          	srli	s6,a4,0x1

0000000080001194 <i_1056>:
    80001194:	0e812183          	lw	gp,232(sp)

0000000080001198 <i_1057>:
    80001198:	01410903          	lb	s2,20(sp)

000000008000119c <i_1058>:
    8000119c:	016f4e63          	blt	t5,s6,800011b8 <i_1065>

00000000800011a0 <i_1059>:
    800011a0:	03697063          	bleu	s6,s2,800011c0 <i_1067>

00000000800011a4 <i_1060>:
    800011a4:	07410183          	lb	gp,116(sp)

00000000800011a8 <i_1061>:
    800011a8:	012edc63          	ble	s2,t4,800011c0 <i_1067>

00000000800011ac <i_1062>:
    800011ac:	e6310523          	sb	gp,-406(sp)

00000000800011b0 <i_1063>:
    800011b0:	00ee9e63          	bne	t4,a4,800011cc <i_1070>

00000000800011b4 <i_1064>:
    800011b4:	f0f11223          	sh	a5,-252(sp)

00000000800011b8 <i_1065>:
    800011b8:	467ee413          	ori	s0,t4,1127

00000000800011bc <i_1066>:
    800011bc:	4040d49b          	sraiw	s1,ra,0x4

00000000800011c0 <i_1067>:
    800011c0:	002e9913          	slli	s2,t4,0x2

00000000800011c4 <i_1068>:
    800011c4:	f18e8e9b          	addiw	t4,t4,-232

00000000800011c8 <i_1069>:
    800011c8:	0fc12e83          	lw	t4,252(sp)

00000000800011cc <i_1070>:
    800011cc:	ffd11223          	sh	t4,-28(sp)

00000000800011d0 <i_1071>:
    800011d0:	e3013383          	ld	t2,-464(sp)

00000000800011d4 <i_1072>:
    800011d4:	007bc863          	blt	s7,t2,800011e4 <i_1076>

00000000800011d8 <i_1073>:
    800011d8:	001ed39b          	srliw	t2,t4,0x1

00000000800011dc <i_1074>:
    800011dc:	01d0f263          	bleu	t4,ra,800011e0 <i_1075>

00000000800011e0 <i_1075>:
    800011e0:	1a614703          	lbu	a4,422(sp)

00000000800011e4 <i_1076>:
    800011e4:	e8214e03          	lbu	t3,-382(sp)

00000000800011e8 <i_1077>:
    800011e8:	f2215803          	lhu	a6,-222(sp)

00000000800011ec <i_1078>:
    800011ec:	b8396313          	ori	t1,s2,-1149

00000000800011f0 <i_1079>:
    800011f0:	f1411983          	lh	s3,-236(sp)

00000000800011f4 <i_1080>:
    800011f4:	1d311323          	sh	s3,454(sp)

00000000800011f8 <i_1081>:
    800011f8:	0010dd93          	srli	s11,ra,0x1

00000000800011fc <i_1082>:
    800011fc:	e4815d83          	lhu	s11,-440(sp)

0000000080001200 <i_1083>:
    80001200:	00500e93          	li	t4,5

0000000080001204 <i_1084>:
    80001204:	01dd99b3          	sll	s3,s11,t4

0000000080001208 <i_1085>:
    80001208:	50bdce93          	xori	t4,s11,1291

000000008000120c <i_1086>:
    8000120c:	e7b13423          	sd	s11,-408(sp)

0000000080001210 <i_1087>:
    80001210:	01ddbdb3          	sltu	s11,s11,t4

0000000080001214 <i_1088>:
    80001214:	e7411703          	lh	a4,-396(sp)

0000000080001218 <i_1089>:
    80001218:	01ddf863          	bleu	t4,s11,80001228 <i_1093>

000000008000121c <i_1090>:
    8000121c:	40475e9b          	sraiw	t4,a4,0x4

0000000080001220 <i_1091>:
    80001220:	01b71863          	bne	a4,s11,80001230 <i_1095>

0000000080001224 <i_1092>:
    80001224:	1685a913          	slti	s2,a1,360

0000000080001228 <i_1093>:
    80001228:	08c11503          	lh	a0,140(sp)

000000008000122c <i_1094>:
    8000122c:	00a55e63          	ble	a0,a0,80001248 <i_1101>

0000000080001230 <i_1095>:
    80001230:	f4314783          	lbu	a5,-189(sp)

0000000080001234 <i_1096>:
    80001234:	2e894413          	xori	s0,s2,744

0000000080001238 <i_1097>:
    80001238:	009f6a63          	bltu	t5,s1,8000124c <i_1102>

000000008000123c <i_1098>:
    8000123c:	008d8f33          	add	t5,s11,s0

0000000080001240 <i_1099>:
    80001240:	e6813f03          	ld	t5,-408(sp)

0000000080001244 <i_1100>:
    80001244:	f7812783          	lw	a5,-136(sp)

0000000080001248 <i_1101>:
    80001248:	19014403          	lbu	s0,400(sp)

000000008000124c <i_1102>:
    8000124c:	02842233          	mulhsu	tp,s0,s0

0000000080001250 <i_1103>:
    80001250:	0042f663          	bleu	tp,t0,8000125c <i_1106>

0000000080001254 <i_1104>:
    80001254:	00145413          	srli	s0,s0,0x1

0000000080001258 <i_1105>:
    80001258:	00444663          	blt	s0,tp,80001264 <i_1108>

000000008000125c <i_1106>:
    8000125c:	e5215f83          	lhu	t6,-430(sp)

0000000080001260 <i_1107>:
    80001260:	01d00e13          	li	t3,29

0000000080001264 <i_1108>:
    80001264:	41c2523b          	sraw	tp,tp,t3

0000000080001268 <i_1109>:
    80001268:	408f86b3          	sub	a3,t6,s0

000000008000126c <i_1110>:
    8000126c:	f7a13c23          	sd	s10,-136(sp)

0000000080001270 <i_1111>:
    80001270:	01500393          	li	t2,21

0000000080001274 <i_1112>:
    80001274:	00741433          	sll	s0,s0,t2

0000000080001278 <i_1113>:
    80001278:	54616e17          	auipc	t3,0x54616

000000008000127c <i_1114>:
    8000127c:	0f813d03          	ld	s10,248(sp)

0000000080001280 <i_1115>:
    80001280:	e4816c03          	lwu	s8,-440(sp)

0000000080001284 <i_1116>:
    80001284:	025c5463          	ble	t0,s8,800012ac <i_1126>

0000000080001288 <i_1117>:
    80001288:	e9811e23          	sh	s8,-356(sp)

000000008000128c <i_1118>:
    8000128c:	e5811323          	sh	s8,-442(sp)

0000000080001290 <i_1119>:
    80001290:	003c1e93          	slli	t4,s8,0x3

0000000080001294 <i_1120>:
    80001294:	021ef0bb          	remuw	ra,t4,ra

0000000080001298 <i_1121>:
    80001298:	1b411423          	sh	s4,424(sp)

000000008000129c <i_1122>:
    8000129c:	15812823          	sw	s8,336(sp)

00000000800012a0 <i_1123>:
    800012a0:	402ed91b          	sraiw	s2,t4,0x2

00000000800012a4 <i_1124>:
    800012a4:	f1c12a03          	lw	s4,-228(sp)

00000000800012a8 <i_1125>:
    800012a8:	01900e93          	li	t4,25

00000000800012ac <i_1126>:
    800012ac:	01de5cbb          	srlw	s9,t3,t4

00000000800012b0 <i_1127>:
    800012b0:	00000013          	nop

00000000800012b4 <i_1128>:
    800012b4:	03befdbb          	remuw	s11,t4,s11

00000000800012b8 <i_1129>:
    800012b8:	79a00e13          	li	t3,1946

00000000800012bc <i_1130>:
    800012bc:	7a600893          	li	a7,1958

00000000800012c0 <i_1131>:
    800012c0:	00f00e93          	li	t4,15

00000000800012c4 <i_1132>:
    800012c4:	01de9d3b          	sllw	s10,t4,t4

00000000800012c8 <i_1133>:
    800012c8:	01a8ea63          	bltu	a7,s10,800012dc <i_1138>

00000000800012cc <i_1134>:
    800012cc:	01ad9263          	bne	s11,s10,800012d0 <i_1135>

00000000800012d0 <i_1135>:
    800012d0:	01bd8a63          	beq	s11,s11,800012e4 <i_1140>

00000000800012d4 <i_1136>:
    800012d4:	029dc2bb          	divw	t0,s11,s1

00000000800012d8 <i_1137>:
    800012d8:	10c10503          	lb	a0,268(sp)

00000000800012dc <i_1138>:
    800012dc:	1a016d83          	lwu	s11,416(sp)

00000000800012e0 <i_1139>:
    800012e0:	0db11723          	sh	s11,206(sp)

00000000800012e4 <i_1140>:
    800012e4:	0272d063          	ble	t2,t0,80001304 <i_1147>

00000000800012e8 <i_1141>:
    800012e8:	f9611503          	lh	a0,-106(sp)

00000000800012ec <i_1142>:
    800012ec:	01500413          	li	s0,21

00000000800012f0 <i_1143>:
    800012f0:	008b923b          	sllw	tp,s7,s0

00000000800012f4 <i_1144>:
    800012f4:	001e0e13          	addi	t3,t3,1 # d4617279 <_end+0x54606e65>
    800012f8:	fdc8d4e3          	ble	t3,a7,800012c0 <i_1131>

00000000800012fc <i_1145>:
    800012fc:	06810723          	sb	s0,110(sp)

0000000080001300 <i_1146>:
    80001300:	70863413          	sltiu	s0,a2,1800

0000000080001304 <i_1147>:
    80001304:	00000013          	nop

0000000080001308 <i_1148>:
    80001308:	e4813f03          	ld	t5,-440(sp)

000000008000130c <i_1149>:
    8000130c:	74500d93          	li	s11,1861

0000000080001310 <i_1150>:
    80001310:	74a00613          	li	a2,1866

0000000080001314 <i_1151>:
    80001314:	fbc16f03          	lwu	t5,-68(sp)

0000000080001318 <i_1152>:
    80001318:	fc413823          	sd	tp,-48(sp)

000000008000131c <i_1153>:
    8000131c:	89a00093          	li	ra,-1894

0000000080001320 <i_1154>:
    80001320:	8ad00413          	li	s0,-1875

0000000080001324 <i_1155>:
    80001324:	00e00313          	li	t1,14

0000000080001328 <i_1156>:
    80001328:	40645f3b          	sraw	t5,s0,t1

000000008000132c <i_1157>:
    8000132c:	00108093          	addi	ra,ra,1
    80001330:	fe145ae3          	ble	ra,s0,80001324 <i_1155>

0000000080001334 <i_1158>:
    80001334:	001d8d93          	addi	s11,s11,1
    80001338:	fdb65ee3          	ble	s11,a2,80001314 <i_1151>

000000008000133c <i_1159>:
    8000133c:	f1210ba3          	sb	s2,-233(sp)

0000000080001340 <i_1160>:
    80001340:	03fd14b3          	mulh	s1,s10,t6

0000000080001344 <i_1161>:
    80001344:	f2013183          	ld	gp,-224(sp)

0000000080001348 <i_1162>:
    80001348:	403080bb          	subw	ra,ra,gp

000000008000134c <i_1163>:
    8000134c:	0211cfbb          	divw	t6,gp,ra

0000000080001350 <i_1164>:
    80001350:	003fda63          	ble	gp,t6,80001364 <i_1169>

0000000080001354 <i_1165>:
    80001354:	fb210a83          	lb	s5,-78(sp)

0000000080001358 <i_1166>:
    80001358:	18310423          	sb	gp,392(sp)

000000008000135c <i_1167>:
    8000135c:	00118fb3          	add	t6,gp,ra

0000000080001360 <i_1168>:
    80001360:	e7411d03          	lh	s10,-396(sp)

0000000080001364 <i_1169>:
    80001364:	0071fe63          	bleu	t2,gp,80001380 <i_1176>

0000000080001368 <i_1170>:
    80001368:	14814083          	lbu	ra,328(sp)

000000008000136c <i_1171>:
    8000136c:	025aaf33          	mulhsu	t5,s5,t0

0000000080001370 <i_1172>:
    80001370:	002ada93          	srli	s5,s5,0x2

0000000080001374 <i_1173>:
    80001374:	08c11203          	lh	tp,140(sp)

0000000080001378 <i_1174>:
    80001378:	01bacab3          	xor	s5,s5,s11

000000008000137c <i_1175>:
    8000137c:	015ac663          	blt	s5,s5,80001388 <i_1178>

0000000080001380 <i_1176>:
    80001380:	e7513423          	sd	s5,-408(sp)

0000000080001384 <i_1177>:
    80001384:	415a8633          	sub	a2,s5,s5

0000000080001388 <i_1178>:
    80001388:	035ac263          	blt	s5,s5,800013ac <i_1187>

000000008000138c <i_1179>:
    8000138c:	0247773b          	remuw	a4,a4,tp

0000000080001390 <i_1180>:
    80001390:	00700813          	li	a6,7

0000000080001394 <i_1181>:
    80001394:	010c5ab3          	srl	s5,s8,a6

0000000080001398 <i_1182>:
    80001398:	19c14d83          	lbu	s11,412(sp)

000000008000139c <i_1183>:
    8000139c:	03567263          	bleu	s5,a2,800013c0 <i_1192>

00000000800013a0 <i_1184>:
    800013a0:	00eae663          	bltu	s5,a4,800013ac <i_1187>

00000000800013a4 <i_1185>:
    800013a4:	13b106a3          	sb	s11,301(sp)

00000000800013a8 <i_1186>:
    800013a8:	024dc23b          	divw	tp,s11,tp

00000000800013ac <i_1187>:
    800013ac:	11c12c03          	lw	s8,284(sp)

00000000800013b0 <i_1188>:
    800013b0:	c0180613          	addi	a2,a6,-1023 # 1c94f789 <main-0x636b0877>

00000000800013b4 <i_1189>:
    800013b4:	02e50cb3          	mul	s9,a0,a4

00000000800013b8 <i_1190>:
    800013b8:	00b00713          	li	a4,11

00000000800013bc <i_1191>:
    800013bc:	00edd63b          	srlw	a2,s11,a4

00000000800013c0 <i_1192>:
    800013c0:	f6e10723          	sb	a4,-146(sp)

00000000800013c4 <i_1193>:
    800013c4:	010cf7b3          	and	a5,s9,a6

00000000800013c8 <i_1194>:
    800013c8:	f0e13423          	sd	a4,-248(sp)

00000000800013cc <i_1195>:
    800013cc:	0d8108a3          	sb	s8,209(sp)

00000000800013d0 <i_1196>:
    800013d0:	0397c263          	blt	a5,s9,800013f4 <i_1205>

00000000800013d4 <i_1197>:
    800013d4:	1ce13823          	sd	a4,464(sp)

00000000800013d8 <i_1198>:
    800013d8:	fb813383          	ld	t2,-72(sp)

00000000800013dc <i_1199>:
    800013dc:	0033dc9b          	srliw	s9,t2,0x3

00000000800013e0 <i_1200>:
    800013e0:	18e15383          	lhu	t2,398(sp)

00000000800013e4 <i_1201>:
    800013e4:	8b8ce613          	ori	a2,s9,-1864

00000000800013e8 <i_1202>:
    800013e8:	f1514603          	lbu	a2,-235(sp)

00000000800013ec <i_1203>:
    800013ec:	0046561b          	srliw	a2,a2,0x4

00000000800013f0 <i_1204>:
    800013f0:	13812383          	lw	t2,312(sp)

00000000800013f4 <i_1205>:
    800013f4:	007e3d33          	sltu	s10,t3,t2

00000000800013f8 <i_1206>:
    800013f8:	00c68633          	add	a2,a3,a2

00000000800013fc <i_1207>:
    800013fc:	7b600393          	li	t2,1974

0000000080001400 <i_1208>:
    80001400:	7c600e13          	li	t3,1990

0000000080001404 <i_1209>:
    80001404:	001d551b          	srliw	a0,s10,0x1

0000000080001408 <i_1210>:
    80001408:	00c5ce63          	blt	a1,a2,80001424 <i_1217>

000000008000140c <i_1211>:
    8000140c:	e2c12403          	lw	s0,-468(sp)

0000000080001410 <i_1212>:
    80001410:	16c15483          	lhu	s1,364(sp)

0000000080001414 <i_1213>:
    80001414:	17a15a83          	lhu	s5,378(sp)

0000000080001418 <i_1214>:
    80001418:	05011483          	lh	s1,80(sp)

000000008000141c <i_1215>:
    8000141c:	1a016a83          	lwu	s5,416(sp)

0000000080001420 <i_1216>:
    80001420:	017e0f33          	add	t5,t3,s7

0000000080001424 <i_1217>:
    80001424:	1c813483          	ld	s1,456(sp)

0000000080001428 <i_1218>:
    80001428:	0bc11323          	sh	t3,166(sp)

000000008000142c <i_1219>:
    8000142c:	035f7b33          	remu	s6,t5,s5

0000000080001430 <i_1220>:
    80001430:	00138393          	addi	t2,t2,1
    80001434:	fdc3e8e3          	bltu	t2,t3,80001404 <i_1209>

0000000080001438 <i_1221>:
    80001438:	01aa9863          	bne	s5,s10,80001448 <i_1225>

000000008000143c <i_1222>:
    8000143c:	0b812b03          	lw	s6,184(sp)

0000000080001440 <i_1223>:
    80001440:	02a55933          	divu	s2,a0,a0

0000000080001444 <i_1224>:
    80001444:	15011803          	lh	a6,336(sp)

0000000080001448 <i_1225>:
    80001448:	40495f1b          	sraiw	t5,s2,0x4

000000008000144c <i_1226>:
    8000144c:	15c16b03          	lwu	s6,348(sp)

0000000080001450 <i_1227>:
    80001450:	0a416703          	lwu	a4,164(sp)

0000000080001454 <i_1228>:
    80001454:	0fa14803          	lbu	a6,250(sp)

0000000080001458 <i_1229>:
    80001458:	00000013          	nop

000000008000145c <i_1230>:
    8000145c:	00000013          	nop

0000000080001460 <i_1231>:
    80001460:	7d000d13          	li	s10,2000

0000000080001464 <i_1232>:
    80001464:	7e400813          	li	a6,2020

0000000080001468 <i_1233>:
    80001468:	00000013          	nop

000000008000146c <i_1234>:
    8000146c:	001d0d13          	addi	s10,s10,1 # 29d6598d <main-0x5629a673>
    80001470:	ffa85ce3          	ble	s10,a6,80001468 <i_1233>

0000000080001474 <i_1235>:
    80001474:	f9e13423          	sd	t5,-120(sp)

0000000080001478 <i_1236>:
    80001478:	01ad23b3          	slt	t2,s10,s10

000000008000147c <i_1237>:
    8000147c:	325bbd13          	sltiu	s10,s7,805

0000000080001480 <i_1238>:
    80001480:	18c14d03          	lbu	s10,396(sp)

0000000080001484 <i_1239>:
    80001484:	f6c12d83          	lw	s11,-148(sp)

0000000080001488 <i_1240>:
    80001488:	16c12e83          	lw	t4,364(sp)

000000008000148c <i_1241>:
    8000148c:	05c11383          	lh	t2,92(sp)

0000000080001490 <i_1242>:
    80001490:	027d8263          	beq	s11,t2,800014b4 <i_1251>

0000000080001494 <i_1243>:
    80001494:	03bee063          	bltu	t4,s11,800014b4 <i_1251>

0000000080001498 <i_1244>:
    80001498:	18812283          	lw	t0,392(sp)

000000008000149c <i_1245>:
    8000149c:	16012c03          	lw	s8,352(sp)

00000000800014a0 <i_1246>:
    800014a0:	01dc1a63          	bne	s8,t4,800014b4 <i_1251>

00000000800014a4 <i_1247>:
    800014a4:	1bb11423          	sh	s11,424(sp)

00000000800014a8 <i_1248>:
    800014a8:	03ddf463          	bleu	t4,s11,800014d0 <i_1258>

00000000800014ac <i_1249>:
    800014ac:	007fee63          	bltu	t6,t2,800014c8 <i_1256>

00000000800014b0 <i_1250>:
    800014b0:	0333c633          	div	a2,t2,s3

00000000800014b4 <i_1251>:
    800014b4:	777b8b93          	addi	s7,s7,1911

00000000800014b8 <i_1252>:
    800014b8:	747483b7          	lui	t2,0x74748

00000000800014bc <i_1253>:
    800014bc:	01600893          	li	a7,22

00000000800014c0 <i_1254>:
    800014c0:	011b93b3          	sll	t2,s7,a7

00000000800014c4 <i_1255>:
    800014c4:	00500393          	li	t2,5

00000000800014c8 <i_1256>:
    800014c8:	407bdc3b          	sraw	s8,s7,t2

00000000800014cc <i_1257>:
    800014cc:	003bea63          	bltu	s7,gp,800014e0 <i_1262>

00000000800014d0 <i_1258>:
    800014d0:	13813c23          	sd	s8,312(sp)

00000000800014d4 <i_1259>:
    800014d4:	01739463          	bne	t2,s7,800014dc <i_1261>

00000000800014d8 <i_1260>:
    800014d8:	f2c14683          	lbu	a3,-212(sp)

00000000800014dc <i_1261>:
    800014dc:	04c11623          	sh	a2,76(sp)

00000000800014e0 <i_1262>:
    800014e0:	e5711e23          	sh	s7,-420(sp)

00000000800014e4 <i_1263>:
    800014e4:	027bfc3b          	remuw	s8,s7,t2

00000000800014e8 <i_1264>:
    800014e8:	09112a23          	sw	a7,148(sp)

00000000800014ec <i_1265>:
    800014ec:	007bf663          	bleu	t2,s7,800014f8 <i_1268>

00000000800014f0 <i_1266>:
    800014f0:	0078e463          	bltu	a7,t2,800014f8 <i_1268>

00000000800014f4 <i_1267>:
    800014f4:	00d3cc63          	blt	t2,a3,8000150c <i_1273>

00000000800014f8 <i_1268>:
    800014f8:	0186b6b3          	sltu	a3,a3,s8

00000000800014fc <i_1269>:
    800014fc:	e2812c03          	lw	s8,-472(sp)

0000000080001500 <i_1270>:
    80001500:	1b813023          	sd	s8,416(sp)

0000000080001504 <i_1271>:
    80001504:	15013703          	ld	a4,336(sp)

0000000080001508 <i_1272>:
    80001508:	00dec663          	blt	t4,a3,80001514 <i_1275>

000000008000150c <i_1273>:
    8000150c:	03873cb3          	mulhu	s9,a4,s8

0000000080001510 <i_1274>:
    80001510:	15714e83          	lbu	t4,343(sp)

0000000080001514 <i_1275>:
    80001514:	00e0fe63          	bleu	a4,ra,80001530 <i_1282>

0000000080001518 <i_1276>:
    80001518:	039ccebb          	divw	t4,s9,s9

000000008000151c <i_1277>:
    8000151c:	03974063          	blt	a4,s9,8000153c <i_1285>

0000000080001520 <i_1278>:
    80001520:	e5813283          	ld	t0,-424(sp)

0000000080001524 <i_1279>:
    80001524:	14614683          	lbu	a3,326(sp)

0000000080001528 <i_1280>:
    80001528:	e8910583          	lb	a1,-375(sp)

000000008000152c <i_1281>:
    8000152c:	06013c03          	ld	s8,96(sp)

0000000080001530 <i_1282>:
    80001530:	17b10683          	lb	a3,379(sp)

0000000080001534 <i_1283>:
    80001534:	02eb0f3b          	mulw	t5,s6,a4

0000000080001538 <i_1284>:
    80001538:	05810023          	sb	s8,64(sp)

000000008000153c <i_1285>:
    8000153c:	c0aa5697          	auipc	a3,0xc0aa5

0000000080001540 <i_1286>:
    80001540:	00d11f23          	sh	a3,30(sp)

0000000080001544 <i_1287>:
    80001544:	1be11703          	lh	a4,446(sp)

0000000080001548 <i_1288>:
    80001548:	1b816a03          	lwu	s4,440(sp)

000000008000154c <i_1289>:
    8000154c:	f5568c13          	addi	s8,a3,-171 # 40aa6491 <main-0x3f559b6f>

0000000080001550 <i_1290>:
    80001550:	01900c13          	li	s8,25

0000000080001554 <i_1291>:
    80001554:	018999bb          	sllw	s3,s3,s8

0000000080001558 <i_1292>:
    80001558:	02012783          	lw	a5,32(sp)

000000008000155c <i_1293>:
    8000155c:	14d12c23          	sw	a3,344(sp)

0000000080001560 <i_1294>:
    80001560:	01300693          	li	a3,19

0000000080001564 <i_1295>:
    80001564:	40ded6bb          	sraw	a3,t4,a3

0000000080001568 <i_1296>:
    80001568:	00f3ea63          	bltu	t2,a5,8000157c <i_1301>

000000008000156c <i_1297>:
    8000156c:	00e74c63          	blt	a4,a4,80001584 <i_1303>

0000000080001570 <i_1298>:
    80001570:	07812683          	lw	a3,120(sp)

0000000080001574 <i_1299>:
    80001574:	01e6cbb3          	xor	s7,a3,t5

0000000080001578 <i_1300>:
    80001578:	0187ee63          	bltu	a5,s8,80001594 <i_1307>

000000008000157c <i_1301>:
    8000157c:	0ee13423          	sd	a4,232(sp)

0000000080001580 <i_1302>:
    80001580:	7fb8b713          	sltiu	a4,a7,2043

0000000080001584 <i_1303>:
    80001584:	09810ea3          	sb	s8,157(sp)

0000000080001588 <i_1304>:
    80001588:	02dc4f3b          	divw	t5,s8,a3

000000008000158c <i_1305>:
    8000158c:	01600f13          	li	t5,22

0000000080001590 <i_1306>:
    80001590:	41e55633          	sra	a2,a0,t5

0000000080001594 <i_1307>:
    80001594:	e7416683          	lwu	a3,-396(sp)

0000000080001598 <i_1308>:
    80001598:	fed14503          	lbu	a0,-19(sp)

000000008000159c <i_1309>:
    8000159c:	14416783          	lwu	a5,324(sp)

00000000800015a0 <i_1310>:
    800015a0:	eac16703          	lwu	a4,-340(sp)

00000000800015a4 <i_1311>:
    800015a4:	03557463          	bleu	s5,a0,800015cc <i_1321>

00000000800015a8 <i_1312>:
    800015a8:	f8813f03          	ld	t5,-120(sp)

00000000800015ac <i_1313>:
    800015ac:	00f7d263          	ble	a5,a5,800015b0 <i_1314>

00000000800015b0 <i_1314>:
    800015b0:	8cd53f13          	sltiu	t5,a0,-1843

00000000800015b4 <i_1315>:
    800015b4:	02842433          	mulhsu	s0,s0,s0

00000000800015b8 <i_1316>:
    800015b8:	fdf7bf13          	sltiu	t5,a5,-33

00000000800015bc <i_1317>:
    800015bc:	00f7c863          	blt	a5,a5,800015cc <i_1321>

00000000800015c0 <i_1318>:
    800015c0:	008e6c63          	bltu	t3,s0,800015d8 <i_1324>

00000000800015c4 <i_1319>:
    800015c4:	00000013          	nop

00000000800015c8 <i_1320>:
    800015c8:	fe611b83          	lh	s7,-26(sp)

00000000800015cc <i_1321>:
    800015cc:	f7815b03          	lhu	s6,-136(sp)

00000000800015d0 <i_1322>:
    800015d0:	02811f83          	lh	t6,40(sp)

00000000800015d4 <i_1323>:
    800015d4:	00000013          	nop

00000000800015d8 <i_1324>:
    800015d8:	320b7d93          	andi	s11,s6,800

00000000800015dc <i_1325>:
    800015dc:	00000013          	nop

00000000800015e0 <i_1326>:
    800015e0:	7a900f13          	li	t5,1961

00000000800015e4 <i_1327>:
    800015e4:	7bb00813          	li	a6,1979

00000000800015e8 <i_1328>:
    800015e8:	402ddd9b          	sraiw	s11,s11,0x2

00000000800015ec <i_1329>:
    800015ec:	01ff8263          	beq	t6,t6,800015f0 <i_1330>

00000000800015f0 <i_1330>:
    800015f0:	e8c12823          	sw	a2,-368(sp)

00000000800015f4 <i_1331>:
    800015f4:	03b6c6bb          	divw	a3,a3,s11

00000000800015f8 <i_1332>:
    800015f8:	00000013          	nop

00000000800015fc <i_1333>:
    800015fc:	001f0f13          	addi	t5,t5,1
    80001600:	ff0f14e3          	bne	t5,a6,800015e8 <i_1328>

0000000080001604 <i_1334>:
    80001604:	00dff7b3          	and	a5,t6,a3

0000000080001608 <i_1335>:
    80001608:	401ddb1b          	sraiw	s6,s11,0x1

000000008000160c <i_1336>:
    8000160c:	fb813683          	ld	a3,-72(sp)

0000000080001610 <i_1337>:
    80001610:	01d68e63          	beq	a3,t4,8000162c <i_1344>

0000000080001614 <i_1338>:
    80001614:	01b7dc63          	ble	s11,a5,8000162c <i_1344>

0000000080001618 <i_1339>:
    80001618:	03de6463          	bltu	t3,t4,80001640 <i_1349>

000000008000161c <i_1340>:
    8000161c:	248a4a13          	xori	s4,s4,584

0000000080001620 <i_1341>:
    80001620:	03ce2e33          	mulhsu	t3,t3,t3

0000000080001624 <i_1342>:
    80001624:	07e11e03          	lh	t3,126(sp)

0000000080001628 <i_1343>:
    80001628:	ecb14b03          	lbu	s6,-309(sp)

000000008000162c <i_1344>:
    8000162c:	016b5263          	ble	s6,s6,80001630 <i_1345>

0000000080001630 <i_1345>:
    80001630:	02c20233          	mul	tp,tp,a2

0000000080001634 <i_1346>:
    80001634:	03641433          	mulh	s0,s0,s6

0000000080001638 <i_1347>:
    80001638:	03660ab3          	mul	s5,a2,s6

000000008000163c <i_1348>:
    8000163c:	0cc16403          	lwu	s0,204(sp)

0000000080001640 <i_1349>:
    80001640:	ef510ca3          	sb	s5,-263(sp)

0000000080001644 <i_1350>:
    80001644:	00000013          	nop

0000000080001648 <i_1351>:
    80001648:	87f00b13          	li	s6,-1921

000000008000164c <i_1352>:
    8000164c:	88700613          	li	a2,-1913

0000000080001650 <i_1353>:
    80001650:	015ac663          	blt	s5,s5,8000165c <i_1356>

0000000080001654 <i_1354>:
    80001654:	028a0f33          	mul	t5,s4,s0

0000000080001658 <i_1355>:
    80001658:	18a10723          	sb	a0,398(sp)

000000008000165c <i_1356>:
    8000165c:	f3016383          	lwu	t2,-208(sp)

0000000080001660 <i_1357>:
    80001660:	00000013          	nop

0000000080001664 <i_1358>:
    80001664:	001b0b13          	addi	s6,s6,1
    80001668:	ff6654e3          	ble	s6,a2,80001650 <i_1353>

000000008000166c <i_1359>:
    8000166c:	0e711e23          	sh	t2,252(sp)

0000000080001670 <i_1360>:
    80001670:	1d012f03          	lw	t5,464(sp)

0000000080001674 <i_1361>:
    80001674:	03e4c233          	div	tp,s1,t5

0000000080001678 <i_1362>:
    80001678:	b4f42093          	slti	ra,s0,-1201

000000008000167c <i_1363>:
    8000167c:	ee813a83          	ld	s5,-280(sp)

0000000080001680 <i_1364>:
    80001680:	06612a23          	sw	t1,116(sp)

0000000080001684 <i_1365>:
    80001684:	0212573b          	divuw	a4,tp,ra

0000000080001688 <i_1366>:
    80001688:	7cd00213          	li	tp,1997

000000008000168c <i_1367>:
    8000168c:	7d700b13          	li	s6,2007

0000000080001690 <i_1368>:
    80001690:	f6112c23          	sw	ra,-136(sp)

0000000080001694 <i_1369>:
    80001694:	0fc15083          	lhu	ra,252(sp)

0000000080001698 <i_1370>:
    80001698:	f8016083          	lwu	ra,-128(sp)

000000008000169c <i_1371>:
    8000169c:	00000013          	nop

00000000800016a0 <i_1372>:
    800016a0:	033989b3          	mul	s3,s3,s3

00000000800016a4 <i_1373>:
    800016a4:	08110523          	sb	ra,138(sp)

00000000800016a8 <i_1374>:
    800016a8:	00186263          	bltu	a6,ra,800016ac <i_1375>

00000000800016ac <i_1375>:
    800016ac:	0010d263          	ble	ra,ra,800016b0 <i_1376>

00000000800016b0 <i_1376>:
    800016b0:	0027529b          	srliw	t0,a4,0x2

00000000800016b4 <i_1377>:
    800016b4:	e2c16083          	lwu	ra,-468(sp)

00000000800016b8 <i_1378>:
    800016b8:	00120213          	addi	tp,tp,1 # 1 <main-0x7fffffff>
    800016bc:	fc4b5ae3          	ble	tp,s6,80001690 <i_1368>

00000000800016c0 <i_1379>:
    800016c0:	03380063          	beq	a6,s3,800016e0 <i_1387>

00000000800016c4 <i_1380>:
    800016c4:	eec12703          	lw	a4,-276(sp)

00000000800016c8 <i_1381>:
    800016c8:	fec15983          	lhu	s3,-20(sp)

00000000800016cc <i_1382>:
    800016cc:	e6c11983          	lh	s3,-404(sp)

00000000800016d0 <i_1383>:
    800016d0:	e6813983          	ld	s3,-408(sp)

00000000800016d4 <i_1384>:
    800016d4:	00010a83          	lb	s5,0(sp)

00000000800016d8 <i_1385>:
    800016d8:	02e10abb          	mulw	s5,sp,a4

00000000800016dc <i_1386>:
    800016dc:	0c411983          	lh	s3,196(sp)

00000000800016e0 <i_1387>:
    800016e0:	01370d33          	add	s10,a4,s3

00000000800016e4 <i_1388>:
    800016e4:	3d078997          	auipc	s3,0x3d078

00000000800016e8 <i_1389>:
    800016e8:	84300713          	li	a4,-1981

00000000800016ec <i_1390>:
    800016ec:	84700813          	li	a6,-1977

00000000800016f0 <i_1391>:
    800016f0:	fcd10783          	lb	a5,-51(sp)

00000000800016f4 <i_1392>:
    800016f4:	d1798793          	addi	a5,s3,-745 # bd0793fb <_end+0x3d068fe7>

00000000800016f8 <i_1393>:
    800016f8:	4027d193          	srai	gp,a5,0x2

00000000800016fc <i_1394>:
    800016fc:	00000013          	nop

0000000080001700 <i_1395>:
    80001700:	02a28ab3          	mul	s5,t0,a0

0000000080001704 <i_1396>:
    80001704:	001a999b          	slliw	s3,s5,0x1

0000000080001708 <i_1397>:
    80001708:	02fedd33          	divu	s10,t4,a5

000000008000170c <i_1398>:
    8000170c:	ff815d03          	lhu	s10,-8(sp)

0000000080001710 <i_1399>:
    80001710:	c226ec13          	ori	s8,a3,-990

0000000080001714 <i_1400>:
    80001714:	04812e83          	lw	t4,72(sp)

0000000080001718 <i_1401>:
    80001718:	04913c23          	sd	s1,88(sp)

000000008000171c <i_1402>:
    8000171c:	00170713          	addi	a4,a4,1
    80001720:	fd0748e3          	blt	a4,a6,800016f0 <i_1391>

0000000080001724 <i_1403>:
    80001724:	01829863          	bne	t0,s8,80001734 <i_1407>

0000000080001728 <i_1404>:
    80001728:	038853bb          	divuw	t2,a6,s8

000000008000172c <i_1405>:
    8000172c:	038ecebb          	divw	t4,t4,s8

0000000080001730 <i_1406>:
    80001730:	0189e663          	bltu	s3,s8,8000173c <i_1409>

0000000080001734 <i_1407>:
    80001734:	00687d33          	and	s10,a6,t1

0000000080001738 <i_1408>:
    80001738:	00738e63          	beq	t2,t2,80001754 <i_1415>

000000008000173c <i_1409>:
    8000173c:	e9b14d83          	lbu	s11,-357(sp)

0000000080001740 <i_1410>:
    80001740:	eca11923          	sh	a0,-302(sp)

0000000080001744 <i_1411>:
    80001744:	03bd7263          	bleu	s11,s10,80001768 <i_1420>

0000000080001748 <i_1412>:
    80001748:	ef811d03          	lh	s10,-264(sp)

000000008000174c <i_1413>:
    8000174c:	1da13423          	sd	s10,456(sp)

0000000080001750 <i_1414>:
    80001750:	0b416d03          	lwu	s10,180(sp)

0000000080001754 <i_1415>:
    80001754:	e3b12223          	sw	s11,-476(sp)

0000000080001758 <i_1416>:
    80001758:	0bb11a23          	sh	s11,180(sp)

000000008000175c <i_1417>:
    8000175c:	00000013          	nop

0000000080001760 <i_1418>:
    80001760:	0ca10a83          	lb	s5,202(sp)

0000000080001764 <i_1419>:
    80001764:	401e5a93          	srai	s5,t3,0x1

0000000080001768 <i_1420>:
    80001768:	03cb2b33          	mulhsu	s6,s6,t3

000000008000176c <i_1421>:
    8000176c:	00000013          	nop

0000000080001770 <i_1422>:
    80001770:	87600e13          	li	t3,-1930

0000000080001774 <i_1423>:
    80001774:	88900d93          	li	s11,-1911

0000000080001778 <i_1424>:
    80001778:	0f610683          	lb	a3,246(sp)

000000008000177c <i_1425>:
    8000177c:	90cd079b          	addiw	a5,s10,-1780

0000000080001780 <i_1426>:
    80001780:	86b00313          	li	t1,-1941

0000000080001784 <i_1427>:
    80001784:	87b00d13          	li	s10,-1925

0000000080001788 <i_1428>:
    80001788:	00130313          	addi	t1,t1,1
    8000178c:	ffa31ee3          	bne	t1,s10,80001788 <i_1428>

0000000080001790 <i_1429>:
    80001790:	14f10723          	sb	a5,334(sp)

0000000080001794 <i_1430>:
    80001794:	00000013          	nop

0000000080001798 <i_1431>:
    80001798:	001e0e13          	addi	t3,t3,1
    8000179c:	fdcddee3          	ble	t3,s11,80001778 <i_1424>

00000000800017a0 <i_1432>:
    800017a0:	ec710283          	lb	t0,-313(sp)

00000000800017a4 <i_1433>:
    800017a4:	e6d13023          	sd	a3,-416(sp)

00000000800017a8 <i_1434>:
    800017a8:	ffa12e23          	sw	s10,-4(sp)

00000000800017ac <i_1435>:
    800017ac:	03300813          	li	a6,51

00000000800017b0 <i_1436>:
    800017b0:	01009e33          	sll	t3,ra,a6

00000000800017b4 <i_1437>:
    800017b4:	24f9b697          	auipc	a3,0x24f9b

00000000800017b8 <i_1438>:
    800017b8:	e2811b03          	lh	s6,-472(sp)

00000000800017bc <i_1439>:
    800017bc:	e6813c03          	ld	s8,-408(sp)

00000000800017c0 <i_1440>:
    800017c0:	907c2b13          	slti	s6,s8,-1785

00000000800017c4 <i_1441>:
    800017c4:	02d484b3          	mul	s1,s1,a3

00000000800017c8 <i_1442>:
    800017c8:	0291cb3b          	divw	s6,gp,s1

00000000800017cc <i_1443>:
    800017cc:	f7011723          	sh	a6,-146(sp)

00000000800017d0 <i_1444>:
    800017d0:	86f00993          	li	s3,-1937

00000000800017d4 <i_1445>:
    800017d4:	87700813          	li	a6,-1929

00000000800017d8 <i_1446>:
    800017d8:	82048e1b          	addiw	t3,s1,-2016

00000000800017dc <i_1447>:
    800017dc:	00198993          	addi	s3,s3,1
    800017e0:	ff385ce3          	ble	s3,a6,800017d8 <i_1446>

00000000800017e4 <i_1448>:
    800017e4:	ea613023          	sd	t1,-352(sp)

00000000800017e8 <i_1449>:
    800017e8:	18615a83          	lhu	s5,390(sp)

00000000800017ec <i_1450>:
    800017ec:	e4911223          	sh	s1,-444(sp)

00000000800017f0 <i_1451>:
    800017f0:	73b00e13          	li	t3,1851

00000000800017f4 <i_1452>:
    800017f4:	74600913          	li	s2,1862

00000000800017f8 <i_1453>:
    800017f8:	10d14a03          	lbu	s4,269(sp)

00000000800017fc <i_1454>:
    800017fc:	1da14803          	lbu	a6,474(sp)

0000000080001800 <i_1455>:
    80001800:	001e0e13          	addi	t3,t3,1
    80001804:	ff2e6ae3          	bltu	t3,s2,800017f8 <i_1453>

0000000080001808 <i_1456>:
    80001808:	01e13c23          	sd	t5,24(sp)

000000008000180c <i_1457>:
    8000180c:	030874bb          	remuw	s1,a6,a6

0000000080001810 <i_1458>:
    80001810:	17ee4413          	xori	s0,t3,382

0000000080001814 <i_1459>:
    80001814:	402e5913          	srai	s2,t3,0x2

0000000080001818 <i_1460>:
    80001818:	ea016f83          	lwu	t6,-352(sp)

000000008000181c <i_1461>:
    8000181c:	40768833          	sub	a6,a3,t2

0000000080001820 <i_1462>:
    80001820:	19813e03          	ld	t3,408(sp)

0000000080001824 <i_1463>:
    80001824:	03981063          	bne	a6,s9,80001844 <i_1471>

0000000080001828 <i_1464>:
    80001828:	03086263          	bltu	a6,a6,8000184c <i_1473>

000000008000182c <i_1465>:
    8000182c:	11b13023          	sd	s11,256(sp)

0000000080001830 <i_1466>:
    80001830:	f9613823          	sd	s6,-112(sp)

0000000080001834 <i_1467>:
    80001834:	01b84c33          	xor	s8,a6,s11

0000000080001838 <i_1468>:
    80001838:	f3a14183          	lbu	gp,-198(sp)

000000008000183c <i_1469>:
    8000183c:	13816283          	lwu	t0,312(sp)

0000000080001840 <i_1470>:
    80001840:	0dc11e23          	sh	t3,220(sp)

0000000080001844 <i_1471>:
    80001844:	1da15583          	lhu	a1,474(sp)

0000000080001848 <i_1472>:
    80001848:	19f12823          	sw	t6,400(sp)

000000008000184c <i_1473>:
    8000184c:	03cf1733          	mulh	a4,t5,t3

0000000080001850 <i_1474>:
    80001850:	01cb0f33          	add	t5,s6,t3

0000000080001854 <i_1475>:
    80001854:	fe812623          	sw	s0,-20(sp)

0000000080001858 <i_1476>:
    80001858:	fd813283          	ld	t0,-40(sp)

000000008000185c <i_1477>:
    8000185c:	eab10923          	sb	a1,-334(sp)

0000000080001860 <i_1478>:
    80001860:	fbc16e03          	lwu	t3,-68(sp)

0000000080001864 <i_1479>:
    80001864:	11c12c23          	sw	t3,280(sp)

0000000080001868 <i_1480>:
    80001868:	12013e83          	ld	t4,288(sp)

000000008000186c <i_1481>:
    8000186c:	eee11623          	sh	a4,-276(sp)

0000000080001870 <i_1482>:
    80001870:	01ce8233          	add	tp,t4,t3

0000000080001874 <i_1483>:
    80001874:	00000013          	nop

0000000080001878 <i_1484>:
    80001878:	81200e13          	li	t3,-2030

000000008000187c <i_1485>:
    8000187c:	81c00713          	li	a4,-2020

0000000080001880 <i_1486>:
    80001880:	00423233          	sltu	tp,tp,tp

0000000080001884 <i_1487>:
    80001884:	02432333          	mulhsu	t1,t1,tp

0000000080001888 <i_1488>:
    80001888:	c794b213          	sltiu	tp,s1,-903

000000008000188c <i_1489>:
    8000188c:	02411423          	sh	tp,40(sp)

0000000080001890 <i_1490>:
    80001890:	04e11e23          	sh	a4,92(sp)

0000000080001894 <i_1491>:
    80001894:	02426463          	bltu	tp,tp,800018bc <i_1500>

0000000080001898 <i_1492>:
    80001898:	02470233          	mul	tp,a4,tp

000000008000189c <i_1493>:
    8000189c:	00e50e63          	beq	a0,a4,800018b8 <i_1499>

00000000800018a0 <i_1494>:
    800018a0:	001e0e13          	addi	t3,t3,1
    800018a4:	fcee6ee3          	bltu	t3,a4,80001880 <i_1486>

00000000800018a8 <i_1495>:
    800018a8:	00427a63          	bleu	tp,tp,800018bc <i_1500>

00000000800018ac <i_1496>:
    800018ac:	e2613023          	sd	t1,-480(sp)

00000000800018b0 <i_1497>:
    800018b0:	e1c12803          	lw	a6,-484(sp)

00000000800018b4 <i_1498>:
    800018b4:	004247b3          	xor	a5,tp,tp

00000000800018b8 <i_1499>:
    800018b8:	09a15b03          	lhu	s6,154(sp)

00000000800018bc <i_1500>:
    800018bc:	026368b3          	rem	a7,t1,t1

00000000800018c0 <i_1501>:
    800018c0:	00434663          	blt	t1,tp,800018cc <i_1504>

00000000800018c4 <i_1502>:
    800018c4:	08e105a3          	sb	a4,139(sp)

00000000800018c8 <i_1503>:
    800018c8:	00300313          	li	t1,3

00000000800018cc <i_1504>:
    800018cc:	00675f3b          	srlw	t5,a4,t1

00000000800018d0 <i_1505>:
    800018d0:	e6611623          	sh	t1,-404(sp)

00000000800018d4 <i_1506>:
    800018d4:	01600d13          	li	s10,22

00000000800018d8 <i_1507>:
    800018d8:	01a3133b          	sllw	t1,t1,s10

00000000800018dc <i_1508>:
    800018dc:	f7112623          	sw	a7,-148(sp)

00000000800018e0 <i_1509>:
    800018e0:	004a5513          	srli	a0,s4,0x4

00000000800018e4 <i_1510>:
    800018e4:	0ad10783          	lb	a5,173(sp)

00000000800018e8 <i_1511>:
    800018e8:	00000013          	nop

00000000800018ec <i_1512>:
    800018ec:	7d900493          	li	s1,2009

00000000800018f0 <i_1513>:
    800018f0:	7dc00713          	li	a4,2012

00000000800018f4 <i_1514>:
    800018f4:	00148493          	addi	s1,s1,1
    800018f8:	fee4eee3          	bltu	s1,a4,800018f4 <i_1514>

00000000800018fc <i_1515>:
    800018fc:	fce15703          	lhu	a4,-50(sp)

0000000080001900 <i_1516>:
    80001900:	fc012183          	lw	gp,-64(sp)

0000000080001904 <i_1517>:
    80001904:	03170463          	beq	a4,a7,8000192c <i_1527>

0000000080001908 <i_1518>:
    80001908:	0e1d1097          	auipc	ra,0xe1d1

000000008000190c <i_1519>:
    8000190c:	0073cc33          	xor	s8,t2,t2

0000000080001910 <i_1520>:
    80001910:	f6611c83          	lh	s9,-154(sp)

0000000080001914 <i_1521>:
    80001914:	f4e11a83          	lh	s5,-178(sp)

0000000080001918 <i_1522>:
    80001918:	02434abb          	divw	s5,t1,tp

000000008000191c <i_1523>:
    8000191c:	0fc11c03          	lh	s8,252(sp)

0000000080001920 <i_1524>:
    80001920:	18112223          	sw	ra,388(sp)

0000000080001924 <i_1525>:
    80001924:	13112e23          	sw	a7,316(sp)

0000000080001928 <i_1526>:
    80001928:	00ec6cb3          	or	s9,s8,a4

000000008000192c <i_1527>:
    8000192c:	f6514603          	lbu	a2,-155(sp)

0000000080001930 <i_1528>:
    80001930:	fda10423          	sb	s10,-56(sp)

0000000080001934 <i_1529>:
    80001934:	001c1613          	slli	a2,s8,0x1

0000000080001938 <i_1530>:
    80001938:	001cda1b          	srliw	s4,s9,0x1

000000008000193c <i_1531>:
    8000193c:	e6413823          	sd	tp,-400(sp)

0000000080001940 <i_1532>:
    80001940:	f5c16283          	lwu	t0,-164(sp)

0000000080001944 <i_1533>:
    80001944:	18215e03          	lhu	t3,386(sp)

0000000080001948 <i_1534>:
    80001948:	40c8083b          	subw	a6,a6,a2

000000008000194c <i_1535>:
    8000194c:	11014a03          	lbu	s4,272(sp)

0000000080001950 <i_1536>:
    80001950:	ebe10fa3          	sb	t5,-321(sp)

0000000080001954 <i_1537>:
    80001954:	01c15603          	lhu	a2,28(sp)

0000000080001958 <i_1538>:
    80001958:	00412703          	lw	a4,4(sp)

000000008000195c <i_1539>:
    8000195c:	e6a14a03          	lbu	s4,-406(sp)

0000000080001960 <i_1540>:
    80001960:	e8013903          	ld	s2,-384(sp)

0000000080001964 <i_1541>:
    80001964:	03d00193          	li	gp,61

0000000080001968 <i_1542>:
    80001968:	00391a33          	sll	s4,s2,gp

000000008000196c <i_1543>:
    8000196c:	412b823b          	subw	tp,s7,s2

0000000080001970 <i_1544>:
    80001970:	fc016903          	lwu	s2,-64(sp)

0000000080001974 <i_1545>:
    80001974:	1a311a23          	sh	gp,436(sp)

0000000080001978 <i_1546>:
    80001978:	00395463          	ble	gp,s2,80001980 <i_1548>

000000008000197c <i_1547>:
    8000197c:	024261b3          	rem	gp,tp,tp

0000000080001980 <i_1548>:
    80001980:	0241e1b3          	rem	gp,gp,tp

0000000080001984 <i_1549>:
    80001984:	004d8bb3          	add	s7,s11,tp

0000000080001988 <i_1550>:
    80001988:	0381fc3b          	remuw	s8,gp,s8

000000008000198c <i_1551>:
    8000198c:	03721263          	bne	tp,s7,800019b0 <i_1560>

0000000080001990 <i_1552>:
    80001990:	ef016e03          	lwu	t3,-272(sp)

0000000080001994 <i_1553>:
    80001994:	e9c12a23          	sw	t3,-364(sp)

0000000080001998 <i_1554>:
    80001998:	01c21c63          	bne	tp,t3,800019b0 <i_1560>

000000008000199c <i_1555>:
    8000199c:	03c276b3          	remu	a3,tp,t3

00000000800019a0 <i_1556>:
    800019a0:	05120b1b          	addiw	s6,tp,81

00000000800019a4 <i_1557>:
    800019a4:	02db7263          	bleu	a3,s6,800019c8 <i_1566>

00000000800019a8 <i_1558>:
    800019a8:	f9b10383          	lb	t2,-101(sp)

00000000800019ac <i_1559>:
    800019ac:	12311f23          	sh	gp,318(sp)

00000000800019b0 <i_1560>:
    800019b0:	02713823          	sd	t2,48(sp)

00000000800019b4 <i_1561>:
    800019b4:	f3c13023          	sd	t3,-224(sp)

00000000800019b8 <i_1562>:
    800019b8:	0286e433          	rem	s0,a3,s0

00000000800019bc <i_1563>:
    800019bc:	15815283          	lhu	t0,344(sp)

00000000800019c0 <i_1564>:
    800019c0:	ef26879b          	addiw	a5,a3,-270

00000000800019c4 <i_1565>:
    800019c4:	0161ebb3          	or	s7,gp,s6

00000000800019c8 <i_1566>:
    800019c8:	40322b13          	slti	s6,tp,1027

00000000800019cc <i_1567>:
    800019cc:	00fb4a63          	blt	s6,a5,800019e0 <i_1572>

00000000800019d0 <i_1568>:
    800019d0:	03ebe063          	bltu	s7,t5,800019f0 <i_1576>

00000000800019d4 <i_1569>:
    800019d4:	01c39863          	bne	t2,t3,800019e4 <i_1573>

00000000800019d8 <i_1570>:
    800019d8:	13015e83          	lhu	t4,304(sp)

00000000800019dc <i_1571>:
    800019dc:	fe012683          	lw	a3,-32(sp)

00000000800019e0 <i_1572>:
    800019e0:	02595933          	divu	s2,s2,t0

00000000800019e4 <i_1573>:
    800019e4:	03a2f933          	remu	s2,t0,s10

00000000800019e8 <i_1574>:
    800019e8:	48d9c297          	auipc	t0,0x48d9c

00000000800019ec <i_1575>:
    800019ec:	e9d13823          	sd	t4,-368(sp)

00000000800019f0 <i_1576>:
    800019f0:	00700713          	li	a4,7

00000000800019f4 <i_1577>:
    800019f4:	00ed1d3b          	sllw	s10,s10,a4

00000000800019f8 <i_1578>:
    800019f8:	fe776793          	ori	a5,a4,-25

00000000800019fc <i_1579>:
    800019fc:	efc10703          	lb	a4,-260(sp)

0000000080001a00 <i_1580>:
    80001a00:	eb416503          	lwu	a0,-332(sp)

0000000080001a04 <i_1581>:
    80001a04:	03aa473b          	divw	a4,s4,s10

0000000080001a08 <i_1582>:
    80001a08:	15e11983          	lh	s3,350(sp)

0000000080001a0c <i_1583>:
    80001a0c:	07c15783          	lhu	a5,124(sp)

0000000080001a10 <i_1584>:
    80001a10:	7d200c13          	li	s8,2002

0000000080001a14 <i_1585>:
    80001a14:	7da00713          	li	a4,2010

0000000080001a18 <i_1586>:
    80001a18:	013d6d33          	or	s10,s10,s3

0000000080001a1c <i_1587>:
    80001a1c:	2cf5ed13          	ori	s10,a1,719

0000000080001a20 <i_1588>:
    80001a20:	1c013383          	ld	t2,448(sp)

0000000080001a24 <i_1589>:
    80001a24:	02e00e93          	li	t4,46

0000000080001a28 <i_1590>:
    80001a28:	01d3d633          	srl	a2,t2,t4

0000000080001a2c <i_1591>:
    80001a2c:	001c0c13          	addi	s8,s8,1
    80001a30:	feec14e3          	bne	s8,a4,80001a18 <i_1586>

0000000080001a34 <i_1592>:
    80001a34:	00e3f4b3          	and	s1,t2,a4

0000000080001a38 <i_1593>:
    80001a38:	edb13023          	sd	s11,-320(sp)

0000000080001a3c <i_1594>:
    80001a3c:	00f3e863          	bltu	t2,a5,80001a4c <i_1598>

0000000080001a40 <i_1595>:
    80001a40:	00766ab3          	or	s5,a2,t2

0000000080001a44 <i_1596>:
    80001a44:	02fdce3b          	divw	t3,s11,a5

0000000080001a48 <i_1597>:
    80001a48:	04712223          	sw	t2,68(sp)

0000000080001a4c <i_1598>:
    80001a4c:	fea15203          	lhu	tp,-22(sp)

0000000080001a50 <i_1599>:
    80001a50:	01b00d93          	li	s11,27

0000000080001a54 <i_1600>:
    80001a54:	01b79d3b          	sllw	s10,a5,s11

0000000080001a58 <i_1601>:
    80001a58:	0dc16383          	lwu	t2,220(sp)

0000000080001a5c <i_1602>:
    80001a5c:	18713423          	sd	t2,392(sp)

0000000080001a60 <i_1603>:
    80001a60:	16211783          	lh	a5,354(sp)

0000000080001a64 <i_1604>:
    80001a64:	01b7ce63          	blt	a5,s11,80001a80 <i_1611>

0000000080001a68 <i_1605>:
    80001a68:	e7413423          	sd	s4,-408(sp)

0000000080001a6c <i_1606>:
    80001a6c:	03ee4263          	blt	t3,t5,80001a90 <i_1615>

0000000080001a70 <i_1607>:
    80001a70:	4027d813          	srai	a6,a5,0x2

0000000080001a74 <i_1608>:
    80001a74:	41738833          	sub	a6,t2,s7

0000000080001a78 <i_1609>:
    80001a78:	11812f03          	lw	t5,280(sp)

0000000080001a7c <i_1610>:
    80001a7c:	03f00b93          	li	s7,63

0000000080001a80 <i_1611>:
    80001a80:	4179dbb3          	sra	s7,s3,s7

0000000080001a84 <i_1612>:
    80001a84:	001b9e13          	slli	t3,s7,0x1

0000000080001a88 <i_1613>:
    80001a88:	403e5f13          	srai	t5,t3,0x3

0000000080001a8c <i_1614>:
    80001a8c:	017e1c63          	bne	t3,s7,80001aa4 <i_1620>

0000000080001a90 <i_1615>:
    80001a90:	0aa14203          	lbu	tp,170(sp)

0000000080001a94 <i_1616>:
    80001a94:	18411623          	sh	tp,396(sp)

0000000080001a98 <i_1617>:
    80001a98:	0f016303          	lwu	t1,240(sp)

0000000080001a9c <i_1618>:
    80001a9c:	03e38bbb          	mulw	s7,t2,t5

0000000080001aa0 <i_1619>:
    80001aa0:	00000013          	nop

0000000080001aa4 <i_1620>:
    80001aa4:	ee910d03          	lb	s10,-279(sp)

0000000080001aa8 <i_1621>:
    80001aa8:	02af6eb3          	rem	t4,t5,a0

0000000080001aac <i_1622>:
    80001aac:	74100293          	li	t0,1857

0000000080001ab0 <i_1623>:
    80001ab0:	74f00793          	li	a5,1871

0000000080001ab4 <i_1624>:
    80001ab4:	11d14983          	lbu	s3,285(sp)

0000000080001ab8 <i_1625>:
    80001ab8:	00128293          	addi	t0,t0,1 # c8d9d9e9 <_end+0x48d8d5d5>
    80001abc:	fe57dce3          	ble	t0,a5,80001ab4 <i_1624>

0000000080001ac0 <i_1626>:
    80001ac0:	00000013          	nop

0000000080001ac4 <i_1627>:
    80001ac4:	1a816783          	lwu	a5,424(sp)

0000000080001ac8 <i_1628>:
    80001ac8:	fbe12623          	sw	t5,-84(sp)

0000000080001acc <i_1629>:
    80001acc:	7bcd0b9b          	addiw	s7,s10,1980

0000000080001ad0 <i_1630>:
    80001ad0:	005e9263          	bne	t4,t0,80001ad4 <i_1631>

0000000080001ad4 <i_1631>:
    80001ad4:	0046d693          	srli	a3,a3,0x4

0000000080001ad8 <i_1632>:
    80001ad8:	f73100a3          	sb	s3,-159(sp)

0000000080001adc <i_1633>:
    80001adc:	79c00d93          	li	s11,1948

0000000080001ae0 <i_1634>:
    80001ae0:	7ab00e93          	li	t4,1963

0000000080001ae4 <i_1635>:
    80001ae4:	ec812703          	lw	a4,-312(sp)

0000000080001ae8 <i_1636>:
    80001ae8:	013f8663          	beq	t6,s3,80001af4 <i_1639>

0000000080001aec <i_1637>:
    80001aec:	f3d10ea3          	sb	t4,-195(sp)

0000000080001af0 <i_1638>:
    80001af0:	06c16f03          	lwu	t5,108(sp)

0000000080001af4 <i_1639>:
    80001af4:	013709b3          	add	s3,a4,s3

0000000080001af8 <i_1640>:
    80001af8:	401b5f13          	srai	t5,s6,0x1

0000000080001afc <i_1641>:
    80001afc:	0139e333          	or	t1,s3,s3

0000000080001b00 <i_1642>:
    80001b00:	00000013          	nop

0000000080001b04 <i_1643>:
    80001b04:	e3411c23          	sh	s4,-456(sp)

0000000080001b08 <i_1644>:
    80001b08:	fd310723          	sb	s3,-50(sp)

0000000080001b0c <i_1645>:
    80001b0c:	001d8d93          	addi	s11,s11,1
    80001b10:	fdddcae3          	blt	s11,t4,80001ae4 <i_1635>

0000000080001b14 <i_1646>:
    80001b14:	00e62833          	slt	a6,a2,a4

0000000080001b18 <i_1647>:
    80001b18:	17a13823          	sd	s10,368(sp)

0000000080001b1c <i_1648>:
    80001b1c:	00611123          	sh	t1,2(sp)

0000000080001b20 <i_1649>:
    80001b20:	03085833          	divu	a6,a6,a6

0000000080001b24 <i_1650>:
    80001b24:	e9615583          	lhu	a1,-362(sp)

0000000080001b28 <i_1651>:
    80001b28:	00000013          	nop

0000000080001b2c <i_1652>:
    80001b2c:	7e200213          	li	tp,2018

0000000080001b30 <i_1653>:
    80001b30:	7e400313          	li	t1,2020

0000000080001b34 <i_1654>:
    80001b34:	1cb14e03          	lbu	t3,459(sp)

0000000080001b38 <i_1655>:
    80001b38:	e5012223          	sw	a6,-444(sp)

0000000080001b3c <i_1656>:
    80001b3c:	00b34a63          	blt	t1,a1,80001b50 <i_1661>

0000000080001b40 <i_1657>:
    80001b40:	f5c11723          	sh	t3,-178(sp)

0000000080001b44 <i_1658>:
    80001b44:	01c1fdb3          	and	s11,gp,t3

0000000080001b48 <i_1659>:
    80001b48:	00000013          	nop

0000000080001b4c <i_1660>:
    80001b4c:	00b5feb3          	and	t4,a1,a1

0000000080001b50 <i_1661>:
    80001b50:	00000013          	nop

0000000080001b54 <i_1662>:
    80001b54:	001d9e93          	slli	t4,s11,0x1

0000000080001b58 <i_1663>:
    80001b58:	79600993          	li	s3,1942

0000000080001b5c <i_1664>:
    80001b5c:	79c00593          	li	a1,1948

0000000080001b60 <i_1665>:
    80001b60:	00000013          	nop

0000000080001b64 <i_1666>:
    80001b64:	00198993          	addi	s3,s3,1
    80001b68:	ff35dce3          	ble	s3,a1,80001b60 <i_1665>

0000000080001b6c <i_1667>:
    80001b6c:	03b5d063          	ble	s11,a1,80001b8c <i_1674>

0000000080001b70 <i_1668>:
    80001b70:	ffcded93          	ori	s11,s11,-4

0000000080001b74 <i_1669>:
    80001b74:	f1614583          	lbu	a1,-234(sp)

0000000080001b78 <i_1670>:
    80001b78:	00120213          	addi	tp,tp,1 # 1 <main-0x7fffffff>
    80001b7c:	fa626ce3          	bltu	tp,t1,80001b34 <i_1654>

0000000080001b80 <i_1671>:
    80001b80:	14e11583          	lh	a1,334(sp)

0000000080001b84 <i_1672>:
    80001b84:	41b5863b          	subw	a2,a1,s11

0000000080001b88 <i_1673>:
    80001b88:	f4b13823          	sd	a1,-176(sp)

0000000080001b8c <i_1674>:
    80001b8c:	1b210623          	sb	s2,428(sp)

0000000080001b90 <i_1675>:
    80001b90:	00300293          	li	t0,3

0000000080001b94 <i_1676>:
    80001b94:	00565fb3          	srl	t6,a2,t0

0000000080001b98 <i_1677>:
    80001b98:	11f10aa3          	sb	t6,277(sp)

0000000080001b9c <i_1678>:
    80001b9c:	03bdd1b3          	divu	gp,s11,s11

0000000080001ba0 <i_1679>:
    80001ba0:	02529463          	bne	t0,t0,80001bc8 <i_1689>

0000000080001ba4 <i_1680>:
    80001ba4:	01f78463          	beq	a5,t6,80001bac <i_1682>

0000000080001ba8 <i_1681>:
    80001ba8:	00c59663          	bne	a1,a2,80001bb4 <i_1684>

0000000080001bac <i_1682>:
    80001bac:	03b2e063          	bltu	t0,s11,80001bcc <i_1690>

0000000080001bb0 <i_1683>:
    80001bb0:	00c28fb3          	add	t6,t0,a2

0000000080001bb4 <i_1684>:
    80001bb4:	03d18463          	beq	gp,t4,80001bdc <i_1694>

0000000080001bb8 <i_1685>:
    80001bb8:	00ddea63          	bltu	s11,a3,80001bcc <i_1690>

0000000080001bbc <i_1686>:
    80001bbc:	01bdea63          	bltu	s11,s11,80001bd0 <i_1691>

0000000080001bc0 <i_1687>:
    80001bc0:	0d012583          	lw	a1,208(sp)

0000000080001bc4 <i_1688>:
    80001bc4:	16c11823          	sh	a2,368(sp)

0000000080001bc8 <i_1689>:
    80001bc8:	00ceeeb3          	or	t4,t4,a2

0000000080001bcc <i_1690>:
    80001bcc:	02c5f463          	bleu	a2,a1,80001bf4 <i_1700>

0000000080001bd0 <i_1691>:
    80001bd0:	00500393          	li	t2,5

0000000080001bd4 <i_1692>:
    80001bd4:	00769b3b          	sllw	s6,a3,t2

0000000080001bd8 <i_1693>:
    80001bd8:	02bdd063          	ble	a1,s11,80001bf8 <i_1701>

0000000080001bdc <i_1694>:
    80001bdc:	04114683          	lbu	a3,65(sp)

0000000080001be0 <i_1695>:
    80001be0:	e6016583          	lwu	a1,-416(sp)

0000000080001be4 <i_1696>:
    80001be4:	03714503          	lbu	a0,55(sp)

0000000080001be8 <i_1697>:
    80001be8:	40455d9b          	sraiw	s11,a0,0x4

0000000080001bec <i_1698>:
    80001bec:	40d58a33          	sub	s4,a1,a3

0000000080001bf0 <i_1699>:
    80001bf0:	f8d11723          	sh	a3,-114(sp)

0000000080001bf4 <i_1700>:
    80001bf4:	a3aabd17          	auipc	s10,0xa3aab

0000000080001bf8 <i_1701>:
    80001bf8:	01e00d93          	li	s11,30

0000000080001bfc <i_1702>:
    80001bfc:	01b510b3          	sll	ra,a0,s11

0000000080001c00 <i_1703>:
    80001c00:	0fc12503          	lw	a0,252(sp)

0000000080001c04 <i_1704>:
    80001c04:	f2e15083          	lhu	ra,-210(sp)

0000000080001c08 <i_1705>:
    80001c08:	0270d063          	ble	t2,ra,80001c28 <i_1713>

0000000080001c0c <i_1706>:
    80001c0c:	00e0c863          	blt	ra,a4,80001c1c <i_1710>

0000000080001c10 <i_1707>:
    80001c10:	11c12a03          	lw	s4,284(sp)

0000000080001c14 <i_1708>:
    80001c14:	e4711623          	sh	t2,-436(sp)

0000000080001c18 <i_1709>:
    80001c18:	014a7263          	bleu	s4,s4,80001c1c <i_1710>

0000000080001c1c <i_1710>:
    80001c1c:	00c57633          	and	a2,a0,a2

0000000080001c20 <i_1711>:
    80001c20:	1b914503          	lbu	a0,441(sp)

0000000080001c24 <i_1712>:
    80001c24:	40365d93          	srai	s11,a2,0x3

0000000080001c28 <i_1713>:
    80001c28:	1a910d83          	lb	s11,425(sp)

0000000080001c2c <i_1714>:
    80001c2c:	0b412623          	sw	s4,172(sp)

0000000080001c30 <i_1715>:
    80001c30:	13011a03          	lh	s4,304(sp)

0000000080001c34 <i_1716>:
    80001c34:	01b50db3          	add	s11,a0,s11

0000000080001c38 <i_1717>:
    80001c38:	fd412a23          	sw	s4,-44(sp)

0000000080001c3c <i_1718>:
    80001c3c:	10d14c83          	lbu	s9,269(sp)

0000000080001c40 <i_1719>:
    80001c40:	00ba06b3          	add	a3,s4,a1

0000000080001c44 <i_1720>:
    80001c44:	02c00e93          	li	t4,44

0000000080001c48 <i_1721>:
    80001c48:	41d6d933          	sra	s2,a3,t4

0000000080001c4c <i_1722>:
    80001c4c:	8b900593          	li	a1,-1863

0000000080001c50 <i_1723>:
    80001c50:	8c300313          	li	t1,-1853

0000000080001c54 <i_1724>:
    80001c54:	e86f1d37          	lui	s10,0xe86f1

0000000080001c58 <i_1725>:
    80001c58:	00158593          	addi	a1,a1,1
    80001c5c:	feb37ce3          	bleu	a1,t1,80001c54 <i_1724>

0000000080001c60 <i_1726>:
    80001c60:	00395c1b          	srliw	s8,s2,0x3

0000000080001c64 <i_1727>:
    80001c64:	ebc16283          	lwu	t0,-324(sp)

0000000080001c68 <i_1728>:
    80001c68:	16111223          	sh	ra,356(sp)

0000000080001c6c <i_1729>:
    80001c6c:	eb013e83          	ld	t4,-336(sp)

0000000080001c70 <i_1730>:
    80001c70:	f6d13c23          	sd	a3,-136(sp)

0000000080001c74 <i_1731>:
    80001c74:	03d35263          	ble	t4,t1,80001c98 <i_1740>

0000000080001c78 <i_1732>:
    80001c78:	00697c33          	and	s8,s2,t1

0000000080001c7c <i_1733>:
    80001c7c:	00dd6863          	bltu	s10,a3,80001c8c <i_1737>

0000000080001c80 <i_1734>:
    80001c80:	06013383          	ld	t2,96(sp)

0000000080001c84 <i_1735>:
    80001c84:	027e5463          	ble	t2,t3,80001cac <i_1745>

0000000080001c88 <i_1736>:
    80001c88:	e7913423          	sd	s9,-408(sp)

0000000080001c8c <i_1737>:
    80001c8c:	f27108a3          	sb	t2,-207(sp)

0000000080001c90 <i_1738>:
    80001c90:	01e00e93          	li	t4,30

0000000080001c94 <i_1739>:
    80001c94:	01dd1633          	sll	a2,s10,t4

0000000080001c98 <i_1740>:
    80001c98:	0067ec63          	bltu	a5,t1,80001cb0 <i_1746>

0000000080001c9c <i_1741>:
    80001c9c:	f5c12683          	lw	a3,-164(sp)

0000000080001ca0 <i_1742>:
    80001ca0:	01330263          	beq	t1,s3,80001ca4 <i_1743>

0000000080001ca4 <i_1743>:
    80001ca4:	4dac031b          	addiw	t1,s8,1242

0000000080001ca8 <i_1744>:
    80001ca8:	02d65263          	ble	a3,a2,80001ccc <i_1753>

0000000080001cac <i_1745>:
    80001cac:	03044833          	div	a6,s0,a6

0000000080001cb0 <i_1746>:
    80001cb0:	e0c12e23          	sw	a2,-484(sp)

0000000080001cb4 <i_1747>:
    80001cb4:	e4010e03          	lb	t3,-448(sp)

0000000080001cb8 <i_1748>:
    80001cb8:	ca582813          	slti	a6,a6,-859

0000000080001cbc <i_1749>:
    80001cbc:	02d36063          	bltu	t1,a3,80001cdc <i_1757>

0000000080001cc0 <i_1750>:
    80001cc0:	01c81863          	bne	a6,t3,80001cd0 <i_1754>

0000000080001cc4 <i_1751>:
    80001cc4:	ed412b03          	lw	s6,-300(sp)

0000000080001cc8 <i_1752>:
    80001cc8:	0f013423          	sd	a6,232(sp)

0000000080001ccc <i_1753>:
    80001ccc:	01300813          	li	a6,19

0000000080001cd0 <i_1754>:
    80001cd0:	010b183b          	sllw	a6,s6,a6

0000000080001cd4 <i_1755>:
    80001cd4:	f7016a83          	lwu	s5,-144(sp)

0000000080001cd8 <i_1756>:
    80001cd8:	035af263          	bleu	s5,s5,80001cfc <i_1765>

0000000080001cdc <i_1757>:
    80001cdc:	00000013          	nop

0000000080001ce0 <i_1758>:
    80001ce0:	00000013          	nop

0000000080001ce4 <i_1759>:
    80001ce4:	f1613023          	sd	s6,-256(sp)

0000000080001ce8 <i_1760>:
    80001ce8:	00000013          	nop

0000000080001cec <i_1761>:
    80001cec:	09612823          	sw	s6,144(sp)

0000000080001cf0 <i_1762>:
    80001cf0:	78780f1b          	addiw	t5,a6,1927

0000000080001cf4 <i_1763>:
    80001cf4:	0159f0b3          	and	ra,s3,s5

0000000080001cf8 <i_1764>:
    80001cf8:	10113023          	sd	ra,256(sp)

0000000080001cfc <i_1765>:
    80001cfc:	00000013          	nop

0000000080001d00 <i_1766>:
    80001d00:	01015a03          	lhu	s4,16(sp)

0000000080001d04 <i_1767>:
    80001d04:	7b700993          	li	s3,1975

0000000080001d08 <i_1768>:
    80001d08:	7bc00813          	li	a6,1980

0000000080001d0c <i_1769>:
    80001d0c:	01800b13          	li	s6,24

0000000080001d10 <i_1770>:
    80001d10:	016dd8bb          	srlw	a7,s11,s6

0000000080001d14 <i_1771>:
    80001d14:	00198993          	addi	s3,s3,1
    80001d18:	ff09eae3          	bltu	s3,a6,80001d0c <i_1769>

0000000080001d1c <i_1772>:
    80001d1c:	00100b13          	li	s6,1

0000000080001d20 <i_1773>:
    80001d20:	016b5833          	srl	a6,s6,s6

0000000080001d24 <i_1774>:
    80001d24:	e8013883          	ld	a7,-384(sp)

0000000080001d28 <i_1775>:
    80001d28:	ec215b03          	lhu	s6,-318(sp)

0000000080001d2c <i_1776>:
    80001d2c:	03a8c83b          	divw	a6,a7,s10

0000000080001d30 <i_1777>:
    80001d30:	016b4663          	blt	s6,s6,80001d3c <i_1780>

0000000080001d34 <i_1778>:
    80001d34:	fdc11323          	sh	t3,-58(sp)

0000000080001d38 <i_1779>:
    80001d38:	40195a9b          	sraiw	s5,s2,0x1

0000000080001d3c <i_1780>:
    80001d3c:	03083933          	mulhu	s2,a6,a6

0000000080001d40 <i_1781>:
    80001d40:	f1013903          	ld	s2,-240(sp)

0000000080001d44 <i_1782>:
    80001d44:	ef511a23          	sh	s5,-268(sp)

0000000080001d48 <i_1783>:
    80001d48:	fb013023          	sd	a6,-96(sp)

0000000080001d4c <i_1784>:
    80001d4c:	13f14903          	lbu	s2,319(sp)

0000000080001d50 <i_1785>:
    80001d50:	012aca63          	blt	s5,s2,80001d64 <i_1790>

0000000080001d54 <i_1786>:
    80001d54:	bf045817          	auipc	a6,0xbf045

0000000080001d58 <i_1787>:
    80001d58:	03037463          	bleu	a6,t1,80001d80 <i_1797>

0000000080001d5c <i_1788>:
    80001d5c:	14412b03          	lw	s6,324(sp)

0000000080001d60 <i_1789>:
    80001d60:	01600313          	li	t1,22

0000000080001d64 <i_1790>:
    80001d64:	006f5c33          	srl	s8,t5,t1

0000000080001d68 <i_1791>:
    80001d68:	bed2cb17          	auipc	s6,0xbed2c

0000000080001d6c <i_1792>:
    80001d6c:	00791a63          	bne	s2,t2,80001d80 <i_1797>

0000000080001d70 <i_1793>:
    80001d70:	4029581b          	sraiw	a6,s2,0x2

0000000080001d74 <i_1794>:
    80001d74:	ed511723          	sh	s5,-306(sp)

0000000080001d78 <i_1795>:
    80001d78:	05f10523          	sb	t6,74(sp)

0000000080001d7c <i_1796>:
    80001d7c:	e3612e23          	sw	s6,-452(sp)

0000000080001d80 <i_1797>:
    80001d80:	eb016803          	lwu	a6,-336(sp)

0000000080001d84 <i_1798>:
    80001d84:	00e00c93          	li	s9,14

0000000080001d88 <i_1799>:
    80001d88:	019b1cbb          	sllw	s9,s6,s9

0000000080001d8c <i_1800>:
    80001d8c:	77600c13          	li	s8,1910

0000000080001d90 <i_1801>:
    80001d90:	78700a93          	li	s5,1927

0000000080001d94 <i_1802>:
    80001d94:	1c812583          	lw	a1,456(sp)

0000000080001d98 <i_1803>:
    80001d98:	001c0c13          	addi	s8,s8,1
    80001d9c:	ff5c6ce3          	bltu	s8,s5,80001d94 <i_1802>

0000000080001da0 <i_1804>:
    80001da0:	f8b12e23          	sw	a1,-100(sp)

0000000080001da4 <i_1805>:
    80001da4:	19911523          	sh	s9,394(sp)

0000000080001da8 <i_1806>:
    80001da8:	84fccc93          	xori	s9,s9,-1969

0000000080001dac <i_1807>:
    80001dac:	0d110623          	sb	a7,204(sp)

0000000080001db0 <i_1808>:
    80001db0:	fff10983          	lb	s3,-1(sp)

0000000080001db4 <i_1809>:
    80001db4:	ed016c83          	lwu	s9,-304(sp)

0000000080001db8 <i_1810>:
    80001db8:	8865b993          	sltiu	s3,a1,-1914

0000000080001dbc <i_1811>:
    80001dbc:	419c843b          	subw	s0,s9,s9

0000000080001dc0 <i_1812>:
    80001dc0:	12b12623          	sw	a1,300(sp)

0000000080001dc4 <i_1813>:
    80001dc4:	0045d593          	srli	a1,a1,0x4

0000000080001dc8 <i_1814>:
    80001dc8:	09e14683          	lbu	a3,158(sp)

0000000080001dcc <i_1815>:
    80001dcc:	ecb13423          	sd	a1,-312(sp)

0000000080001dd0 <i_1816>:
    80001dd0:	4036d593          	srai	a1,a3,0x3

0000000080001dd4 <i_1817>:
    80001dd4:	ea611f03          	lh	t5,-346(sp)

0000000080001dd8 <i_1818>:
    80001dd8:	1a014903          	lbu	s2,416(sp)

0000000080001ddc <i_1819>:
    80001ddc:	00000013          	nop

0000000080001de0 <i_1820>:
    80001de0:	02b5c1bb          	divw	gp,a1,a1

0000000080001de4 <i_1821>:
    80001de4:	77c00813          	li	a6,1916

0000000080001de8 <i_1822>:
    80001de8:	78a00f93          	li	t6,1930

0000000080001dec <i_1823>:
    80001dec:	003fa5b3          	slt	a1,t6,gp

0000000080001df0 <i_1824>:
    80001df0:	02afbb93          	sltiu	s7,t6,42

0000000080001df4 <i_1825>:
    80001df4:	f5012583          	lw	a1,-176(sp)

0000000080001df8 <i_1826>:
    80001df8:	356b8a93          	addi	s5,s7,854

0000000080001dfc <i_1827>:
    80001dfc:	02cc763b          	remuw	a2,s8,a2

0000000080001e00 <i_1828>:
    80001e00:	02e00c13          	li	s8,46

0000000080001e04 <i_1829>:
    80001e04:	018adc33          	srl	s8,s5,s8

0000000080001e08 <i_1830>:
    80001e08:	eb812a23          	sw	s8,-332(sp)

0000000080001e0c <i_1831>:
    80001e0c:	1a416603          	lwu	a2,420(sp)

0000000080001e10 <i_1832>:
    80001e10:	f6615683          	lhu	a3,-154(sp)

0000000080001e14 <i_1833>:
    80001e14:	00669a63          	bne	a3,t1,80001e28 <i_1837>

0000000080001e18 <i_1834>:
    80001e18:	00180813          	addi	a6,a6,1 # 3f046d55 <main-0x40fb92ab>
    80001e1c:	fdf848e3          	blt	a6,t6,80001dec <i_1823>

0000000080001e20 <i_1835>:
    80001e20:	01864c63          	blt	a2,s8,80001e38 <i_1841>

0000000080001e24 <i_1836>:
    80001e24:	08811683          	lh	a3,136(sp)

0000000080001e28 <i_1837>:
    80001e28:	f9d14603          	lbu	a2,-99(sp)

0000000080001e2c <i_1838>:
    80001e2c:	02c61c33          	mulh	s8,a2,a2

0000000080001e30 <i_1839>:
    80001e30:	02d52533          	mulhsu	a0,a0,a3

0000000080001e34 <i_1840>:
    80001e34:	f8c12823          	sw	a2,-112(sp)

0000000080001e38 <i_1841>:
    80001e38:	02cc1fb3          	mulh	t6,s8,a2

0000000080001e3c <i_1842>:
    80001e3c:	11210683          	lb	a3,274(sp)

0000000080001e40 <i_1843>:
    80001e40:	12c14383          	lbu	t2,300(sp)

0000000080001e44 <i_1844>:
    80001e44:	00769463          	bne	a3,t2,80001e4c <i_1846>

0000000080001e48 <i_1845>:
    80001e48:	fbf12623          	sw	t6,-84(sp)

0000000080001e4c <i_1846>:
    80001e4c:	00a00e13          	li	t3,10

0000000080001e50 <i_1847>:
    80001e50:	01c65c3b          	srlw	s8,a2,t3

0000000080001e54 <i_1848>:
    80001e54:	01fe04b3          	add	s1,t3,t6

0000000080001e58 <i_1849>:
    80001e58:	003c1d1b          	slliw	s10,s8,0x3

0000000080001e5c <i_1850>:
    80001e5c:	73712713          	slti	a4,sp,1847

0000000080001e60 <i_1851>:
    80001e60:	04b10c03          	lb	s8,75(sp)

0000000080001e64 <i_1852>:
    80001e64:	01fd7663          	bleu	t6,s10,80001e70 <i_1855>

0000000080001e68 <i_1853>:
    80001e68:	01a94663          	blt	s2,s10,80001e74 <i_1856>

0000000080001e6c <i_1854>:
    80001e6c:	fa813803          	ld	a6,-88(sp)

0000000080001e70 <i_1855>:
    80001e70:	01ac6d33          	or	s10,s8,s10

0000000080001e74 <i_1856>:
    80001e74:	01ac0863          	beq	s8,s10,80001e84 <i_1860>

0000000080001e78 <i_1857>:
    80001e78:	01ad7d33          	and	s10,s10,s10

0000000080001e7c <i_1858>:
    80001e7c:	037bdbb3          	divu	s7,s7,s7

0000000080001e80 <i_1859>:
    80001e80:	16810d23          	sb	s0,378(sp)

0000000080001e84 <i_1860>:
    80001e84:	00200c13          	li	s8,2

0000000080001e88 <i_1861>:
    80001e88:	018bdbbb          	srlw	s7,s7,s8

0000000080001e8c <i_1862>:
    80001e8c:	15615403          	lhu	s0,342(sp)

0000000080001e90 <i_1863>:
    80001e90:	00500e93          	li	t4,5

0000000080001e94 <i_1864>:
    80001e94:	01dbdbbb          	srlw	s7,s7,t4

0000000080001e98 <i_1865>:
    80001e98:	64e80b9b          	addiw	s7,a6,1614

0000000080001e9c <i_1866>:
    80001e9c:	00000013          	nop

0000000080001ea0 <i_1867>:
    80001ea0:	81e00393          	li	t2,-2018

0000000080001ea4 <i_1868>:
    80001ea4:	82600813          	li	a6,-2010

0000000080001ea8 <i_1869>:
    80001ea8:	00221493          	slli	s1,tp,0x2

0000000080001eac <i_1870>:
    80001eac:	e0410d23          	sb	tp,-486(sp)

0000000080001eb0 <i_1871>:
    80001eb0:	00138393          	addi	t2,t2,1 # 74748001 <main-0xb8b7fff>
    80001eb4:	fe787ae3          	bleu	t2,a6,80001ea8 <i_1869>

0000000080001eb8 <i_1872>:
    80001eb8:	0044fe63          	bleu	tp,s1,80001ed4 <i_1879>

0000000080001ebc <i_1873>:
    80001ebc:	ed611d83          	lh	s11,-298(sp)

0000000080001ec0 <i_1874>:
    80001ec0:	024d843b          	mulw	s0,s11,tp

0000000080001ec4 <i_1875>:
    80001ec4:	03bd9263          	bne	s11,s11,80001ee8 <i_1884>

0000000080001ec8 <i_1876>:
    80001ec8:	e4012383          	lw	t2,-448(sp)

0000000080001ecc <i_1877>:
    80001ecc:	09012623          	sw	a6,140(sp)

0000000080001ed0 <i_1878>:
    80001ed0:	78383413          	sltiu	s0,a6,1923

0000000080001ed4 <i_1879>:
    80001ed4:	e4811b23          	sh	s0,-426(sp)

0000000080001ed8 <i_1880>:
    80001ed8:	401d5d1b          	sraiw	s10,s10,0x1

0000000080001edc <i_1881>:
    80001edc:	fb610483          	lb	s1,-74(sp)

0000000080001ee0 <i_1882>:
    80001ee0:	e7114c83          	lbu	s9,-399(sp)

0000000080001ee4 <i_1883>:
    80001ee4:	f6d12623          	sw	a3,-148(sp)

0000000080001ee8 <i_1884>:
    80001ee8:	01938463          	beq	t2,s9,80001ef0 <i_1886>

0000000080001eec <i_1885>:
    80001eec:	2884fd13          	andi	s10,s1,648

0000000080001ef0 <i_1886>:
    80001ef0:	0044939b          	slliw	t2,s1,0x4

0000000080001ef4 <i_1887>:
    80001ef4:	24e08437          	lui	s0,0x24e08

0000000080001ef8 <i_1888>:
    80001ef8:	078c8a13          	addi	s4,s9,120 # 71901078 <main-0xe6fef88>

0000000080001efc <i_1889>:
    80001efc:	04911b23          	sh	s1,86(sp)

0000000080001f00 <i_1890>:
    80001f00:	79500493          	li	s1,1941

0000000080001f04 <i_1891>:
    80001f04:	7a900793          	li	a5,1961

0000000080001f08 <i_1892>:
    80001f08:	08910a23          	sb	s1,148(sp)

0000000080001f0c <i_1893>:
    80001f0c:	0294de33          	divu	t3,s1,s1

0000000080001f10 <i_1894>:
    80001f10:	00148493          	addi	s1,s1,1
    80001f14:	fef4cae3          	blt	s1,a5,80001f08 <i_1892>

0000000080001f18 <i_1895>:
    80001f18:	e3016483          	lwu	s1,-464(sp)

0000000080001f1c <i_1896>:
    80001f1c:	10611483          	lh	s1,262(sp)

0000000080001f20 <i_1897>:
    80001f20:	01ce4663          	blt	t3,t3,80001f2c <i_1900>

0000000080001f24 <i_1898>:
    80001f24:	f1815f03          	lhu	t5,-232(sp)

0000000080001f28 <i_1899>:
    80001f28:	03cce433          	rem	s0,s9,t3

0000000080001f2c <i_1900>:
    80001f2c:	025f1063          	bne	t5,t0,80001f4c <i_1908>

0000000080001f30 <i_1901>:
    80001f30:	02013e03          	ld	t3,32(sp)

0000000080001f34 <i_1902>:
    80001f34:	06a11f03          	lh	t5,106(sp)

0000000080001f38 <i_1903>:
    80001f38:	008f1a63          	bne	t5,s0,80001f4c <i_1908>

0000000080001f3c <i_1904>:
    80001f3c:	03ef7433          	remu	s0,t5,t5

0000000080001f40 <i_1905>:
    80001f40:	01ef4a63          	blt	t5,t5,80001f54 <i_1910>

0000000080001f44 <i_1906>:
    80001f44:	f8810783          	lb	a5,-120(sp)

0000000080001f48 <i_1907>:
    80001f48:	010d5463          	ble	a6,s10,80001f50 <i_1909>

0000000080001f4c <i_1908>:
    80001f4c:	f5012803          	lw	a6,-176(sp)

0000000080001f50 <i_1909>:
    80001f50:	06f12023          	sw	a5,96(sp)

0000000080001f54 <i_1910>:
    80001f54:	02873d33          	mulhu	s10,a4,s0

0000000080001f58 <i_1911>:
    80001f58:	0fa11d03          	lh	s10,250(sp)

0000000080001f5c <i_1912>:
    80001f5c:	00441613          	slli	a2,s0,0x4

0000000080001f60 <i_1913>:
    80001f60:	01063633          	sltu	a2,a2,a6

0000000080001f64 <i_1914>:
    80001f64:	02fd5dbb          	divuw	s11,s10,a5

0000000080001f68 <i_1915>:
    80001f68:	01eb1e63          	bne	s6,t5,80001f84 <i_1922>

0000000080001f6c <i_1916>:
    80001f6c:	001f1f93          	slli	t6,t5,0x1

0000000080001f70 <i_1917>:
    80001f70:	00000013          	nop

0000000080001f74 <i_1918>:
    80001f74:	08c12f83          	lw	t6,140(sp)

0000000080001f78 <i_1919>:
    80001f78:	15813f83          	ld	t6,344(sp)

0000000080001f7c <i_1920>:
    80001f7c:	da1b2e13          	slti	t3,s6,-607

0000000080001f80 <i_1921>:
    80001f80:	008b61b3          	or	gp,s6,s0

0000000080001f84 <i_1922>:
    80001f84:	016e73b3          	and	t2,t3,s6

0000000080001f88 <i_1923>:
    80001f88:	ee311a23          	sh	gp,-268(sp)

0000000080001f8c <i_1924>:
    80001f8c:	7a000413          	li	s0,1952

0000000080001f90 <i_1925>:
    80001f90:	7ab00b13          	li	s6,1963

0000000080001f94 <i_1926>:
    80001f94:	07612e23          	sw	s6,124(sp)

0000000080001f98 <i_1927>:
    80001f98:	fc110203          	lb	tp,-63(sp)

0000000080001f9c <i_1928>:
    80001f9c:	00600213          	li	tp,6

0000000080001fa0 <i_1929>:
    80001fa0:	404fdd3b          	sraw	s10,t6,tp

0000000080001fa4 <i_1930>:
    80001fa4:	03ad0663          	beq	s10,s10,80001fd0 <i_1940>

0000000080001fa8 <i_1931>:
    80001fa8:	e7710d03          	lb	s10,-393(sp)

0000000080001fac <i_1932>:
    80001fac:	404d5d1b          	sraiw	s10,s10,0x4

0000000080001fb0 <i_1933>:
    80001fb0:	00140413          	addi	s0,s0,1 # 24e08001 <main-0x5b1f7fff>
    80001fb4:	ff6440e3          	blt	s0,s6,80001f94 <i_1926>

0000000080001fb8 <i_1934>:
    80001fb8:	f1a12a23          	sw	s10,-236(sp)

0000000080001fbc <i_1935>:
    80001fbc:	12813803          	ld	a6,296(sp)

0000000080001fc0 <i_1936>:
    80001fc0:	e2412683          	lw	a3,-476(sp)

0000000080001fc4 <i_1937>:
    80001fc4:	3e3e8a13          	addi	s4,t4,995

0000000080001fc8 <i_1938>:
    80001fc8:	30aa6313          	ori	t1,s4,778

0000000080001fcc <i_1939>:
    80001fcc:	1e612023          	sw	t1,480(sp)

0000000080001fd0 <i_1940>:
    80001fd0:	00d00313          	li	t1,13

0000000080001fd4 <i_1941>:
    80001fd4:	006e9333          	sll	t1,t4,t1

0000000080001fd8 <i_1942>:
    80001fd8:	73f00193          	li	gp,1855

0000000080001fdc <i_1943>:
    80001fdc:	74200413          	li	s0,1858

0000000080001fe0 <i_1944>:
    80001fe0:	00000013          	nop

0000000080001fe4 <i_1945>:
    80001fe4:	026a4db3          	div	s11,s4,t1

0000000080001fe8 <i_1946>:
    80001fe8:	73300b93          	li	s7,1843

0000000080001fec <i_1947>:
    80001fec:	74600a13          	li	s4,1862

0000000080001ff0 <i_1948>:
    80001ff0:	026b8333          	mul	t1,s7,t1

0000000080001ff4 <i_1949>:
    80001ff4:	001b8b93          	addi	s7,s7,1
    80001ff8:	ff4b9ce3          	bne	s7,s4,80001ff0 <i_1948>

0000000080001ffc <i_1950>:
    80001ffc:	fdd14b03          	lbu	s6,-35(sp)

0000000080002000 <i_1951>:
    80002000:	00118193          	addi	gp,gp,1
    80002004:	fc345ee3          	ble	gp,s0,80001fe0 <i_1944>

0000000080002008 <i_1952>:
    80002008:	12612c23          	sw	t1,312(sp)

000000008000200c <i_1953>:
    8000200c:	002b5d9b          	srliw	s11,s6,0x2

0000000080002010 <i_1954>:
    80002010:	034de263          	bltu	s11,s4,80002034 <i_1963>

0000000080002014 <i_1955>:
    80002014:	004b9b1b          	slliw	s6,s7,0x4

0000000080002018 <i_1956>:
    80002018:	11610a03          	lb	s4,278(sp)

000000008000201c <i_1957>:
    8000201c:	e43b0d9b          	addiw	s11,s6,-445

0000000080002020 <i_1958>:
    80002020:	10416a03          	lwu	s4,260(sp)

0000000080002024 <i_1959>:
    80002024:	034a5a3b          	divuw	s4,s4,s4

0000000080002028 <i_1960>:
    80002028:	f8810583          	lb	a1,-120(sp)

000000008000202c <i_1961>:
    8000202c:	0f412c23          	sw	s4,248(sp)

0000000080002030 <i_1962>:
    80002030:	ef412e23          	sw	s4,-260(sp)

0000000080002034 <i_1963>:
    80002034:	ee215583          	lhu	a1,-286(sp)

0000000080002038 <i_1964>:
    80002038:	fb411323          	sh	s4,-90(sp)

000000008000203c <i_1965>:
    8000203c:	03480a33          	mul	s4,a6,s4

0000000080002040 <i_1966>:
    80002040:	f6412803          	lw	a6,-156(sp)

0000000080002044 <i_1967>:
    80002044:	0105f663          	bleu	a6,a1,80002050 <i_1970>

0000000080002048 <i_1968>:
    80002048:	be383813          	sltiu	a6,a6,-1053

000000008000204c <i_1969>:
    8000204c:	002a5a1b          	srliw	s4,s4,0x2

0000000080002050 <i_1970>:
    80002050:	fb412d83          	lw	s11,-76(sp)

0000000080002054 <i_1971>:
    80002054:	03c82e33          	mulhsu	t3,a6,t3

0000000080002058 <i_1972>:
    80002058:	01a00513          	li	a0,26

000000008000205c <i_1973>:
    8000205c:	00a857bb          	srlw	a5,a6,a0

0000000080002060 <i_1974>:
    80002060:	fb011e03          	lh	t3,-80(sp)

0000000080002064 <i_1975>:
    80002064:	37f1e793          	ori	a5,gp,895

0000000080002068 <i_1976>:
    80002068:	e6f11f23          	sh	a5,-386(sp)

000000008000206c <i_1977>:
    8000206c:	0147fa33          	and	s4,a5,s4

0000000080002070 <i_1978>:
    80002070:	e8811883          	lh	a7,-376(sp)

0000000080002074 <i_1979>:
    80002074:	0118ec63          	bltu	a7,a7,8000208c <i_1985>

0000000080002078 <i_1980>:
    80002078:	8831f797          	auipc	a5,0x8831f

000000008000207c <i_1981>:
    8000207c:	18810f03          	lb	t5,392(sp)

0000000080002080 <i_1982>:
    80002080:	fe914a03          	lbu	s4,-23(sp)

0000000080002084 <i_1983>:
    80002084:	6f68b093          	sltiu	ra,a7,1782

0000000080002088 <i_1984>:
    80002088:	00c50533          	add	a0,a0,a2

000000008000208c <i_1985>:
    8000208c:	fb016883          	lwu	a7,-80(sp)

0000000080002090 <i_1986>:
    80002090:	40355513          	srai	a0,a0,0x3

0000000080002094 <i_1987>:
    80002094:	00a57433          	and	s0,a0,a0

0000000080002098 <i_1988>:
    80002098:	01d41c63          	bne	s0,t4,800020b0 <i_1994>

000000008000209c <i_1989>:
    8000209c:	00300e93          	li	t4,3

00000000800020a0 <i_1990>:
    800020a0:	01d19ebb          	sllw	t4,gp,t4

00000000800020a4 <i_1991>:
    800020a4:	01200c13          	li	s8,18

00000000800020a8 <i_1992>:
    800020a8:	01855ebb          	srlw	t4,a0,s8

00000000800020ac <i_1993>:
    800020ac:	00a50e63          	beq	a0,a0,800020c8 <i_2000>

00000000800020b0 <i_1994>:
    800020b0:	01dc7a63          	bleu	t4,s8,800020c4 <i_1999>

00000000800020b4 <i_1995>:
    800020b4:	06614e83          	lbu	t4,102(sp)

00000000800020b8 <i_1996>:
    800020b8:	00ac5a63          	ble	a0,s8,800020cc <i_2001>

00000000800020bc <i_1997>:
    800020bc:	fbd11323          	sh	t4,-90(sp)

00000000800020c0 <i_1998>:
    800020c0:	fd016503          	lwu	a0,-48(sp)

00000000800020c4 <i_1999>:
    800020c4:	f9416c83          	lwu	s9,-108(sp)

00000000800020c8 <i_2000>:
    800020c8:	04812c03          	lw	s8,72(sp)

00000000800020cc <i_2001>:
    800020cc:	00a55463          	ble	a0,a0,800020d4 <i_2003>

00000000800020d0 <i_2002>:
    800020d0:	0381b1b3          	mulhu	gp,gp,s8

00000000800020d4 <i_2003>:
    800020d4:	003cdc9b          	srliw	s9,s9,0x3

00000000800020d8 <i_2004>:
    800020d8:	fa016183          	lwu	gp,-96(sp)

00000000800020dc <i_2005>:
    800020dc:	02c1c3bb          	divw	t2,gp,a2

00000000800020e0 <i_2006>:
    800020e0:	02fc9463          	bne	s9,a5,80002108 <i_2016>

00000000800020e4 <i_2007>:
    800020e4:	0231f263          	bleu	gp,gp,80002108 <i_2016>

00000000800020e8 <i_2008>:
    800020e8:	0233a1b3          	mulhsu	gp,t2,gp

00000000800020ec <i_2009>:
    800020ec:	027181bb          	mulw	gp,gp,t2

00000000800020f0 <i_2010>:
    800020f0:	0271c263          	blt	gp,t2,80002114 <i_2019>

00000000800020f4 <i_2011>:
    800020f4:	40b38fbb          	subw	t6,t2,a1

00000000800020f8 <i_2012>:
    800020f8:	00319a63          	bne	gp,gp,8000210c <i_2017>

00000000800020fc <i_2013>:
    800020fc:	18016683          	lwu	a3,384(sp)

0000000080002100 <i_2014>:
    80002100:	02719463          	bne	gp,t2,80002128 <i_2024>

0000000080002104 <i_2015>:
    80002104:	e4412903          	lw	s2,-444(sp)

0000000080002108 <i_2016>:
    80002108:	12114383          	lbu	t2,289(sp)

000000008000210c <i_2017>:
    8000210c:	11813b03          	ld	s6,280(sp)

0000000080002110 <i_2018>:
    80002110:	40195c9b          	sraiw	s9,s2,0x1

0000000080002114 <i_2019>:
    80002114:	003c9e93          	slli	t4,s9,0x3

0000000080002118 <i_2020>:
    80002118:	00000013          	nop

000000008000211c <i_2021>:
    8000211c:	e7c12883          	lw	a7,-388(sp)

0000000080002120 <i_2022>:
    80002120:	03913823          	sd	s9,48(sp)

0000000080002124 <i_2023>:
    80002124:	00000013          	nop

0000000080002128 <i_2024>:
    80002128:	038eccb3          	div	s9,t4,s8

000000008000212c <i_2025>:
    8000212c:	e3113423          	sd	a7,-472(sp)

0000000080002130 <i_2026>:
    80002130:	88200c13          	li	s8,-1918

0000000080002134 <i_2027>:
    80002134:	88400693          	li	a3,-1916

0000000080002138 <i_2028>:
    80002138:	edd10ca3          	sb	t4,-295(sp)

000000008000213c <i_2029>:
    8000213c:	111108a3          	sb	a7,273(sp)

0000000080002140 <i_2030>:
    80002140:	00d8fc63          	bleu	a3,a7,80002158 <i_2035>

0000000080002144 <i_2031>:
    80002144:	001c0c13          	addi	s8,s8,1
    80002148:	fedc48e3          	blt	s8,a3,80002138 <i_2028>

000000008000214c <i_2032>:
    8000214c:	1d912023          	sw	s9,448(sp)

0000000080002150 <i_2033>:
    80002150:	03d8ccb3          	div	s9,a7,t4

0000000080002154 <i_2034>:
    80002154:	01d4ce63          	blt	s1,t4,80002170 <i_2041>

0000000080002158 <i_2035>:
    80002158:	03dedebb          	divuw	t4,t4,t4

000000008000215c <i_2036>:
    8000215c:	f4f10603          	lb	a2,-177(sp)

0000000080002160 <i_2037>:
    80002160:	0315ed33          	rem	s10,a1,a7

0000000080002164 <i_2038>:
    80002164:	e4e14503          	lbu	a0,-434(sp)

0000000080002168 <i_2039>:
    80002168:	00000013          	nop

000000008000216c <i_2040>:
    8000216c:	fb816483          	lwu	s1,-72(sp)

0000000080002170 <i_2041>:
    80002170:	863bd3b7          	lui	t2,0x863bd

0000000080002174 <i_2042>:
    80002174:	0334d3b3          	divu	t2,s1,s3

0000000080002178 <i_2043>:
    80002178:	88200993          	li	s3,-1918

000000008000217c <i_2044>:
    8000217c:	89100893          	li	a7,-1903

0000000080002180 <i_2045>:
    80002180:	e9813603          	ld	a2,-360(sp)

0000000080002184 <i_2046>:
    80002184:	10710623          	sb	t2,268(sp)

0000000080002188 <i_2047>:
    80002188:	00198993          	addi	s3,s3,1
    8000218c:	ff19eae3          	bltu	s3,a7,80002180 <i_2045>

0000000080002190 <i_2048>:
    80002190:	0f510603          	lb	a2,245(sp)

0000000080002194 <i_2049>:
    80002194:	84488f17          	auipc	t5,0x84488

0000000080002198 <i_2050>:
    80002198:	e3e13423          	sd	t5,-472(sp)

000000008000219c <i_2051>:
    8000219c:	00cf7c63          	bleu	a2,t5,800021b4 <i_2057>

00000000800021a0 <i_2052>:
    800021a0:	08412383          	lw	t2,132(sp)

00000000800021a4 <i_2053>:
    800021a4:	c4c80413          	addi	s0,a6,-948

00000000800021a8 <i_2054>:
    800021a8:	1a911823          	sh	s1,432(sp)

00000000800021ac <i_2055>:
    800021ac:	00000013          	nop

00000000800021b0 <i_2056>:
    800021b0:	00810923          	sb	s0,18(sp)

00000000800021b4 <i_2057>:
    800021b4:	01d14a83          	lbu	s5,29(sp)

00000000800021b8 <i_2058>:
    800021b8:	00000013          	nop

00000000800021bc <i_2059>:
    800021bc:	83a00613          	li	a2,-1990

00000000800021c0 <i_2060>:
    800021c0:	84c00813          	li	a6,-1972

00000000800021c4 <i_2061>:
    800021c4:	f0615703          	lhu	a4,-250(sp)

00000000800021c8 <i_2062>:
    800021c8:	00451793          	slli	a5,a0,0x4

00000000800021cc <i_2063>:
    800021cc:	00160613          	addi	a2,a2,1
    800021d0:	ff066ae3          	bltu	a2,a6,800021c4 <i_2061>

00000000800021d4 <i_2064>:
    800021d4:	f6f11623          	sh	a5,-148(sp)

00000000800021d8 <i_2065>:
    800021d8:	0094ce63          	blt	s1,s1,800021f4 <i_2072>

00000000800021dc <i_2066>:
    800021dc:	12812583          	lw	a1,296(sp)

00000000800021e0 <i_2067>:
    800021e0:	00259493          	slli	s1,a1,0x2

00000000800021e4 <i_2068>:
    800021e4:	feb10ca3          	sb	a1,-7(sp)

00000000800021e8 <i_2069>:
    800021e8:	00615b03          	lhu	s6,6(sp)

00000000800021ec <i_2070>:
    800021ec:	009b4863          	blt	s6,s1,800021fc <i_2074>

00000000800021f0 <i_2071>:
    800021f0:	02b7c43b          	divw	s0,a5,a1

00000000800021f4 <i_2072>:
    800021f4:	00349413          	slli	s0,s1,0x3

00000000800021f8 <i_2073>:
    800021f8:	03c4c4bb          	divw	s1,s1,t3

00000000800021fc <i_2074>:
    800021fc:	00847863          	bleu	s0,s0,8000220c <i_2078>

0000000080002200 <i_2075>:
    80002200:	0014141b          	slliw	s0,s0,0x1

0000000080002204 <i_2076>:
    80002204:	1a214703          	lbu	a4,418(sp)

0000000080002208 <i_2077>:
    80002208:	1d610b03          	lb	s6,470(sp)

000000008000220c <i_2078>:
    8000220c:	08811883          	lh	a7,136(sp)

0000000080002210 <i_2079>:
    80002210:	f2e12c23          	sw	a4,-200(sp)

0000000080002214 <i_2080>:
    80002214:	0098de63          	ble	s1,a7,80002230 <i_2087>

0000000080002218 <i_2081>:
    80002218:	e6e10e23          	sb	a4,-388(sp)

000000008000221c <i_2082>:
    8000221c:	01129463          	bne	t0,a7,80002224 <i_2084>

0000000080002220 <i_2083>:
    80002220:	0167fa63          	bleu	s6,a5,80002234 <i_2088>

0000000080002224 <i_2084>:
    80002224:	611f2097          	auipc	ra,0x611f2

0000000080002228 <i_2085>:
    80002228:	e8815703          	lhu	a4,-376(sp)

000000008000222c <i_2086>:
    8000222c:	6084031b          	addiw	t1,s0,1544

0000000080002230 <i_2087>:
    80002230:	03141463          	bne	s0,a7,80002258 <i_2097>

0000000080002234 <i_2088>:
    80002234:	004a1a13          	slli	s4,s4,0x4

0000000080002238 <i_2089>:
    80002238:	02840463          	beq	s0,s0,80002260 <i_2099>

000000008000223c <i_2090>:
    8000223c:	e5e14883          	lbu	a7,-418(sp)

0000000080002240 <i_2091>:
    80002240:	fd1104a3          	sb	a7,-55(sp)

0000000080002244 <i_2092>:
    80002244:	1d111f23          	sh	a7,478(sp)

0000000080002248 <i_2093>:
    80002248:	e7013883          	ld	a7,-400(sp)

000000008000224c <i_2094>:
    8000224c:	14214a03          	lbu	s4,322(sp)

0000000080002250 <i_2095>:
    80002250:	031eea3b          	remw	s4,t4,a7

0000000080002254 <i_2096>:
    80002254:	e3016a03          	lwu	s4,-464(sp)

0000000080002258 <i_2097>:
    80002258:	11413423          	sd	s4,264(sp)

000000008000225c <i_2098>:
    8000225c:	15ca4593          	xori	a1,s4,348

0000000080002260 <i_2099>:
    80002260:	00486233          	or	tp,a6,tp

0000000080002264 <i_2100>:
    80002264:	f8416a03          	lwu	s4,-124(sp)

0000000080002268 <i_2101>:
    80002268:	89500e93          	li	t4,-1899

000000008000226c <i_2102>:
    8000226c:	8a100893          	li	a7,-1887

0000000080002270 <i_2103>:
    80002270:	e5f10183          	lb	gp,-417(sp)

0000000080002274 <i_2104>:
    80002274:	e8b12823          	sw	a1,-368(sp)

0000000080002278 <i_2105>:
    80002278:	0235d1bb          	divuw	gp,a1,gp

000000008000227c <i_2106>:
    8000227c:	03c16b03          	lwu	s6,60(sp)

0000000080002280 <i_2107>:
    80002280:	0021d593          	srli	a1,gp,0x2

0000000080002284 <i_2108>:
    80002284:	eeb11223          	sh	a1,-284(sp)

0000000080002288 <i_2109>:
    80002288:	03100593          	li	a1,49

000000008000228c <i_2110>:
    8000228c:	00bf1bb3          	sll	s7,t5,a1

0000000080002290 <i_2111>:
    80002290:	001e8e93          	addi	t4,t4,1
    80002294:	fd1e9ee3          	bne	t4,a7,80002270 <i_2103>

0000000080002298 <i_2112>:
    80002298:	0f711523          	sh	s7,234(sp)

000000008000229c <i_2113>:
    8000229c:	037beab3          	rem	s5,s7,s7

00000000800022a0 <i_2114>:
    800022a0:	401bdb93          	srai	s7,s7,0x1

00000000800022a4 <i_2115>:
    800022a4:	12016d03          	lwu	s10,288(sp)

00000000800022a8 <i_2116>:
    800022a8:	00000013          	nop

00000000800022ac <i_2117>:
    800022ac:	78f00593          	li	a1,1935

00000000800022b0 <i_2118>:
    800022b0:	79600613          	li	a2,1942

00000000800022b4 <i_2119>:
    800022b4:	01abce63          	blt	s7,s10,800022d0 <i_2126>

00000000800022b8 <i_2120>:
    800022b8:	f1a11a23          	sh	s10,-236(sp)

00000000800022bc <i_2121>:
    800022bc:	10c10823          	sb	a2,272(sp)

00000000800022c0 <i_2122>:
    800022c0:	19412d03          	lw	s10,404(sp)

00000000800022c4 <i_2123>:
    800022c4:	1cc15803          	lhu	a6,460(sp)

00000000800022c8 <i_2124>:
    800022c8:	00416083          	lwu	ra,4(sp)

00000000800022cc <i_2125>:
    800022cc:	0030d393          	srli	t2,ra,0x3

00000000800022d0 <i_2126>:
    800022d0:	03ac4d3b          	divw	s10,s8,s10

00000000800022d4 <i_2127>:
    800022d4:	00000013          	nop

00000000800022d8 <i_2128>:
    800022d8:	401d5d1b          	sraiw	s10,s10,0x1

00000000800022dc <i_2129>:
    800022dc:	01ad5663          	ble	s10,s10,800022e8 <i_2132>

00000000800022e0 <i_2130>:
    800022e0:	03ad00bb          	mulw	ra,s10,s10

00000000800022e4 <i_2131>:
    800022e4:	16c13423          	sd	a2,360(sp)

00000000800022e8 <i_2132>:
    800022e8:	021d1463          	bne	s10,ra,80002310 <i_2141>

00000000800022ec <i_2133>:
    800022ec:	00000013          	nop

00000000800022f0 <i_2134>:
    800022f0:	00158593          	addi	a1,a1,1
    800022f4:	fcc5c0e3          	blt	a1,a2,800022b4 <i_2119>

00000000800022f8 <i_2135>:
    800022f8:	18e14b03          	lbu	s6,398(sp)

00000000800022fc <i_2136>:
    800022fc:	030b77bb          	remuw	a5,s6,a6

0000000080002300 <i_2137>:
    80002300:	021b6d3b          	remw	s10,s6,ra

0000000080002304 <i_2138>:
    80002304:	0e410903          	lb	s2,228(sp)

0000000080002308 <i_2139>:
    80002308:	03a61263          	bne	a2,s10,8000232c <i_2148>

000000008000230c <i_2140>:
    8000230c:	001d1663          	bne	s10,ra,80002318 <i_2143>

0000000080002310 <i_2141>:
    80002310:	012af263          	bleu	s2,s5,80002314 <i_2142>

0000000080002314 <i_2142>:
    80002314:	e6816603          	lwu	a2,-408(sp)

0000000080002318 <i_2143>:
    80002318:	02f12023          	sw	a5,32(sp)

000000008000231c <i_2144>:
    8000231c:	02f08cb3          	mul	s9,ra,a5

0000000080002320 <i_2145>:
    80002320:	02f7cab3          	div	s5,a5,a5

0000000080002324 <i_2146>:
    80002324:	019aefb3          	or	t6,s5,s9

0000000080002328 <i_2147>:
    80002328:	8a79879b          	addiw	a5,s3,-1881

000000008000232c <i_2148>:
    8000232c:	002adc93          	srli	s9,s5,0x2

0000000080002330 <i_2149>:
    80002330:	01915463          	ble	s9,sp,80002338 <i_2151>

0000000080002334 <i_2150>:
    80002334:	015aa333          	slt	t1,s5,s5

0000000080002338 <i_2151>:
    80002338:	035f9b33          	mulh	s6,t6,s5

000000008000233c <i_2152>:
    8000233c:	05511923          	sh	s5,82(sp)

0000000080002340 <i_2153>:
    80002340:	01b00b13          	li	s6,27

0000000080002344 <i_2154>:
    80002344:	416cdbbb          	sraw	s7,s9,s6

0000000080002348 <i_2155>:
    80002348:	003e5e1b          	srliw	t3,t3,0x3

000000008000234c <i_2156>:
    8000234c:	00279863          	bne	a5,sp,8000235c <i_2160>

0000000080002350 <i_2157>:
    80002350:	404ad81b          	sraiw	a6,s5,0x4

0000000080002354 <i_2158>:
    80002354:	e6ae0813          	addi	a6,t3,-406

0000000080002358 <i_2159>:
    80002358:	e9912823          	sw	s9,-368(sp)

000000008000235c <i_2160>:
    8000235c:	16814683          	lbu	a3,360(sp)

0000000080002360 <i_2161>:
    80002360:	edc10b83          	lb	s7,-292(sp)

0000000080002364 <i_2162>:
    80002364:	8d300e13          	li	t3,-1837

0000000080002368 <i_2163>:
    80002368:	8e100813          	li	a6,-1823

000000008000236c <i_2164>:
    8000236c:	03c10da3          	sb	t3,59(sp)

0000000080002370 <i_2165>:
    80002370:	e4e5cb13          	xori	s6,a1,-434

0000000080002374 <i_2166>:
    80002374:	001e0e13          	addi	t3,t3,1
    80002378:	ff0e6ae3          	bltu	t3,a6,8000236c <i_2164>

000000008000237c <i_2167>:
    8000237c:	0e210583          	lb	a1,226(sp)

0000000080002380 <i_2168>:
    80002380:	11713c23          	sd	s7,280(sp)

0000000080002384 <i_2169>:
    80002384:	ef210b03          	lb	s6,-270(sp)

0000000080002388 <i_2170>:
    80002388:	00abcb33          	xor	s6,s7,a0

000000008000238c <i_2171>:
    8000238c:	01613023          	sd	s6,0(sp)

0000000080002390 <i_2172>:
    80002390:	f2212223          	sw	sp,-220(sp)

0000000080002394 <i_2173>:
    80002394:	016b2e33          	slt	t3,s6,s6

0000000080002398 <i_2174>:
    80002398:	fd814b03          	lbu	s6,-40(sp)

000000008000239c <i_2175>:
    8000239c:	f2016e83          	lwu	t4,-224(sp)

00000000800023a0 <i_2176>:
    800023a0:	f4c11b03          	lh	s6,-180(sp)

00000000800023a4 <i_2177>:
    800023a4:	05016683          	lwu	a3,80(sp)

00000000800023a8 <i_2178>:
    800023a8:	09612e23          	sw	s6,156(sp)

00000000800023ac <i_2179>:
    800023ac:	00910f03          	lb	t5,9(sp)

00000000800023b0 <i_2180>:
    800023b0:	01db0933          	add	s2,s6,t4

00000000800023b4 <i_2181>:
    800023b4:	0366af33          	mulhsu	t5,a3,s6

00000000800023b8 <i_2182>:
    800023b8:	028b5263          	ble	s0,s6,800023dc <i_2191>

00000000800023bc <i_2183>:
    800023bc:	00d10663          	beq	sp,a3,800023c8 <i_2186>

00000000800023c0 <i_2184>:
    800023c0:	002b4863          	blt	s6,sp,800023d0 <i_2188>

00000000800023c4 <i_2185>:
    800023c4:	06415d03          	lhu	s10,100(sp)

00000000800023c8 <i_2186>:
    800023c8:	03a902b3          	mul	t0,s2,s10

00000000800023cc <i_2187>:
    800023cc:	6fdb4913          	xori	s2,s6,1789

00000000800023d0 <i_2188>:
    800023d0:	01a644b3          	xor	s1,a2,s10

00000000800023d4 <i_2189>:
    800023d4:	00349e1b          	slliw	t3,s1,0x3

00000000800023d8 <i_2190>:
    800023d8:	029b7cbb          	remuw	s9,s6,s1

00000000800023dc <i_2191>:
    800023dc:	00000013          	nop

00000000800023e0 <i_2192>:
    800023e0:	fdc15f83          	lhu	t6,-36(sp)

00000000800023e4 <i_2193>:
    800023e4:	76000613          	li	a2,1888

00000000800023e8 <i_2194>:
    800023e8:	76600d13          	li	s10,1894

00000000800023ec <i_2195>:
    800023ec:	04c10423          	sb	a2,72(sp)

00000000800023f0 <i_2196>:
    800023f0:	00160613          	addi	a2,a2,1
    800023f4:	fecd7ce3          	bleu	a2,s10,800023ec <i_2195>

00000000800023f8 <i_2197>:
    800023f8:	01411f03          	lh	t5,20(sp)

00000000800023fc <i_2198>:
    800023fc:	0296e463          	bltu	a3,s1,80002424 <i_2208>

0000000080002400 <i_2199>:
    80002400:	f7613823          	sd	s6,-144(sp)

0000000080002404 <i_2200>:
    80002404:	0396a233          	mulhsu	tp,a3,s9

0000000080002408 <i_2201>:
    80002408:	0294c4b3          	div	s1,s1,s1

000000008000240c <i_2202>:
    8000240c:	e5110f03          	lb	t5,-431(sp)

0000000080002410 <i_2203>:
    80002410:	0090cc63          	blt	ra,s1,80002428 <i_2209>

0000000080002414 <i_2204>:
    80002414:	00994c63          	blt	s2,s1,8000242c <i_2210>

0000000080002418 <i_2205>:
    80002418:	0a012203          	lw	tp,160(sp)

000000008000241c <i_2206>:
    8000241c:	01e4ee63          	bltu	s1,t5,80002438 <i_2213>

0000000080002420 <i_2207>:
    80002420:	ee615483          	lhu	s1,-282(sp)

0000000080002424 <i_2208>:
    80002424:	03e21263          	bne	tp,t5,80002448 <i_2217>

0000000080002428 <i_2209>:
    80002428:	ff412983          	lw	s3,-12(sp)

000000008000242c <i_2210>:
    8000242c:	0014d893          	srli	a7,s1,0x1

0000000080002430 <i_2211>:
    80002430:	0318d063          	ble	a7,a7,80002450 <i_2219>

0000000080002434 <i_2212>:
    80002434:	009f0663          	beq	t5,s1,80002440 <i_2215>

0000000080002438 <i_2213>:
    80002438:	15313823          	sd	s3,336(sp)

000000008000243c <i_2214>:
    8000243c:	19013c03          	ld	s8,400(sp)

0000000080002440 <i_2215>:
    80002440:	0a911a23          	sh	s1,180(sp)

0000000080002444 <i_2216>:
    80002444:	e2630c9b          	addiw	s9,t1,-474

0000000080002448 <i_2217>:
    80002448:	013cda63          	ble	s3,s9,8000245c <i_2222>

000000008000244c <i_2218>:
    8000244c:	f1310ba3          	sb	s3,-233(sp)

0000000080002450 <i_2219>:
    80002450:	1c713c23          	sd	t2,472(sp)

0000000080002454 <i_2220>:
    80002454:	00411f23          	sh	tp,30(sp)

0000000080002458 <i_2221>:
    80002458:	0f012603          	lw	a2,240(sp)

000000008000245c <i_2222>:
    8000245c:	ec411603          	lh	a2,-316(sp)

0000000080002460 <i_2223>:
    80002460:	01760e63          	beq	a2,s7,8000247c <i_2230>

0000000080002464 <i_2224>:
    80002464:	f0815a03          	lhu	s4,-248(sp)

0000000080002468 <i_2225>:
    80002468:	f0314203          	lbu	tp,-253(sp)

000000008000246c <i_2226>:
    8000246c:	4044063b          	subw	a2,s0,tp

0000000080002470 <i_2227>:
    80002470:	494a021b          	addiw	tp,s4,1172

0000000080002474 <i_2228>:
    80002474:	004a0663          	beq	s4,tp,80002480 <i_2231>

0000000080002478 <i_2229>:
    80002478:	01d00e13          	li	t3,29

000000008000247c <i_2230>:
    8000247c:	01c2533b          	srlw	t1,tp,t3

0000000080002480 <i_2231>:
    80002480:	1a411983          	lh	s3,420(sp)

0000000080002484 <i_2232>:
    80002484:	f2611123          	sh	t1,-222(sp)

0000000080002488 <i_2233>:
    80002488:	e5312623          	sw	s3,-436(sp)

000000008000248c <i_2234>:
    8000248c:	00000013          	nop

0000000080002490 <i_2235>:
    80002490:	13013a03          	ld	s4,304(sp)

0000000080002494 <i_2236>:
    80002494:	7df00193          	li	gp,2015

0000000080002498 <i_2237>:
    80002498:	7ee00613          	li	a2,2030

000000008000249c <i_2238>:
    8000249c:	00118193          	addi	gp,gp,1
    800024a0:	fe367ee3          	bleu	gp,a2,8000249c <i_2238>

00000000800024a4 <i_2239>:
    800024a4:	02c27533          	remu	a0,tp,a2

00000000800024a8 <i_2240>:
    800024a8:	01350863          	beq	a0,s3,800024b8 <i_2244>

00000000800024ac <i_2241>:
    800024ac:	fca10e03          	lb	t3,-54(sp)

00000000800024b0 <i_2242>:
    800024b0:	03710f23          	sb	s7,62(sp)

00000000800024b4 <i_2243>:
    800024b4:	02ae8ebb          	mulw	t4,t4,a0

00000000800024b8 <i_2244>:
    800024b8:	00100a13          	li	s4,1

00000000800024bc <i_2245>:
    800024bc:	414edbbb          	sraw	s7,t4,s4

00000000800024c0 <i_2246>:
    800024c0:	7b700613          	li	a2,1975

00000000800024c4 <i_2247>:
    800024c4:	7b900193          	li	gp,1977

00000000800024c8 <i_2248>:
    800024c8:	fc414703          	lbu	a4,-60(sp)

00000000800024cc <i_2249>:
    800024cc:	037f3eb3          	mulhu	t4,t5,s7

00000000800024d0 <i_2250>:
    800024d0:	01dbce63          	blt	s7,t4,800024ec <i_2256>

00000000800024d4 <i_2251>:
    800024d4:	02eb9f33          	mulh	t5,s7,a4

00000000800024d8 <i_2252>:
    800024d8:	00160613          	addi	a2,a2,1
    800024dc:	fe3616e3          	bne	a2,gp,800024c8 <i_2248>

00000000800024e0 <i_2253>:
    800024e0:	d101b193          	sltiu	gp,gp,-752

00000000800024e4 <i_2254>:
    800024e4:	01dec263          	blt	t4,t4,800024e8 <i_2255>

00000000800024e8 <i_2255>:
    800024e8:	06a10f03          	lb	t5,106(sp)

00000000800024ec <i_2256>:
    800024ec:	f2013e83          	ld	t4,-224(sp)

00000000800024f0 <i_2257>:
    800024f0:	03de8db3          	mul	s11,t4,t4

00000000800024f4 <i_2258>:
    800024f4:	004ede93          	srli	t4,t4,0x4

00000000800024f8 <i_2259>:
    800024f8:	05c14e83          	lbu	t4,92(sp)

00000000800024fc <i_2260>:
    800024fc:	4017d793          	srai	a5,a5,0x1

0000000080002500 <i_2261>:
    80002500:	f0f11523          	sh	a5,-246(sp)

0000000080002504 <i_2262>:
    80002504:	016787b3          	add	a5,a5,s6

0000000080002508 <i_2263>:
    80002508:	07615803          	lhu	a6,118(sp)

000000008000250c <i_2264>:
    8000250c:	02f7c263          	blt	a5,a5,80002530 <i_2273>

0000000080002510 <i_2265>:
    80002510:	03defeb3          	remu	t4,t4,t4

0000000080002514 <i_2266>:
    80002514:	02814e83          	lbu	t4,40(sp)

0000000080002518 <i_2267>:
    80002518:	1b812e83          	lw	t4,440(sp)

000000008000251c <i_2268>:
    8000251c:	0a410b03          	lb	s6,164(sp)

0000000080002520 <i_2269>:
    80002520:	18310d03          	lb	s10,387(sp)

0000000080002524 <i_2270>:
    80002524:	036eb333          	mulhu	t1,t4,s6

0000000080002528 <i_2271>:
    80002528:	1c014b03          	lbu	s6,448(sp)

000000008000252c <i_2272>:
    8000252c:	001b5e9b          	srliw	t4,s6,0x1

0000000080002530 <i_2273>:
    80002530:	026e8333          	mul	t1,t4,t1

0000000080002534 <i_2274>:
    80002534:	0aa11383          	lh	t2,170(sp)

0000000080002538 <i_2275>:
    80002538:	e8610303          	lb	t1,-378(sp)

000000008000253c <i_2276>:
    8000253c:	08612623          	sw	t1,140(sp)

0000000080002540 <i_2277>:
    80002540:	e3611303          	lh	t1,-458(sp)

0000000080002544 <i_2278>:
    80002544:	efd11723          	sh	t4,-274(sp)

0000000080002548 <i_2279>:
    80002548:	30d3c313          	xori	t1,t2,781

000000008000254c <i_2280>:
    8000254c:	0265ff33          	remu	t5,a1,t1

0000000080002550 <i_2281>:
    80002550:	f2b10383          	lb	t2,-213(sp)

0000000080002554 <i_2282>:
    80002554:	00736c63          	bltu	t1,t2,8000256c <i_2288>

0000000080002558 <i_2283>:
    80002558:	007f0a63          	beq	t5,t2,8000256c <i_2288>

000000008000255c <i_2284>:
    8000255c:	026f5263          	ble	t1,t5,80002580 <i_2293>

0000000080002560 <i_2285>:
    80002560:	0073e463          	bltu	t2,t2,80002568 <i_2287>

0000000080002564 <i_2286>:
    80002564:	0173d863          	ble	s7,t2,80002574 <i_2290>

0000000080002568 <i_2287>:
    80002568:	02631263          	bne	t1,t1,8000258c <i_2296>

000000008000256c <i_2288>:
    8000256c:	f8013403          	ld	s0,-128(sp)

0000000080002570 <i_2289>:
    80002570:	15813303          	ld	t1,344(sp)

0000000080002574 <i_2290>:
    80002574:	0a615903          	lhu	s2,166(sp)

0000000080002578 <i_2291>:
    80002578:	01e00413          	li	s0,30

000000008000257c <i_2292>:
    8000257c:	0089133b          	sllw	t1,s2,s0

0000000080002580 <i_2293>:
    80002580:	e6412203          	lw	tp,-412(sp)

0000000080002584 <i_2294>:
    80002584:	09727393          	andi	t2,tp,151

0000000080002588 <i_2295>:
    80002588:	fa7108a3          	sb	t2,-79(sp)

000000008000258c <i_2296>:
    8000258c:	00000013          	nop

0000000080002590 <i_2297>:
    80002590:	1b414503          	lbu	a0,436(sp)

0000000080002594 <i_2298>:
    80002594:	80a00913          	li	s2,-2038

0000000080002598 <i_2299>:
    80002598:	81800393          	li	t2,-2024

000000008000259c <i_2300>:
    8000259c:	faa10523          	sb	a0,-86(sp)

00000000800025a0 <i_2301>:
    800025a0:	f2110723          	sb	ra,-210(sp)

00000000800025a4 <i_2302>:
    800025a4:	19310503          	lb	a0,403(sp)

00000000800025a8 <i_2303>:
    800025a8:	00000013          	nop

00000000800025ac <i_2304>:
    800025ac:	02739463          	bne	t2,t2,800025d4 <i_2313>

00000000800025b0 <i_2305>:
    800025b0:	e2c10983          	lb	s3,-468(sp)

00000000800025b4 <i_2306>:
    800025b4:	00000013          	nop

00000000800025b8 <i_2307>:
    800025b8:	401e5e1b          	sraiw	t3,t3,0x1

00000000800025bc <i_2308>:
    800025bc:	16113023          	sd	ra,352(sp)

00000000800025c0 <i_2309>:
    800025c0:	f8412e03          	lw	t3,-124(sp)

00000000800025c4 <i_2310>:
    800025c4:	00190913          	addi	s2,s2,1
    800025c8:	fc794ae3          	blt	s2,t2,8000259c <i_2300>

00000000800025cc <i_2311>:
    800025cc:	4e65f893          	andi	a7,a1,1254

00000000800025d0 <i_2312>:
    800025d0:	01b573b3          	and	t2,a0,s11

00000000800025d4 <i_2313>:
    800025d4:	030538b3          	mulhu	a7,a0,a6

00000000800025d8 <i_2314>:
    800025d8:	0333f463          	bleu	s3,t2,80002600 <i_2324>

00000000800025dc <i_2315>:
    800025dc:	e9c10ba3          	sb	t3,-361(sp)

00000000800025e0 <i_2316>:
    800025e0:	ee412383          	lw	t2,-284(sp)

00000000800025e4 <i_2317>:
    800025e4:	0110c663          	blt	ra,a7,800025f0 <i_2320>

00000000800025e8 <i_2318>:
    800025e8:	fc114883          	lbu	a7,-63(sp)

00000000800025ec <i_2319>:
    800025ec:	1ac12e03          	lw	t3,428(sp)

00000000800025f0 <i_2320>:
    800025f0:	e5c12423          	sw	t3,-440(sp)

00000000800025f4 <i_2321>:
    800025f4:	ea711023          	sh	t2,-352(sp)

00000000800025f8 <i_2322>:
    800025f8:	00000013          	nop

00000000800025fc <i_2323>:
    800025fc:	d6b7f997          	auipc	s3,0xd6b7f

0000000080002600 <i_2324>:
    80002600:	18214483          	lbu	s1,386(sp)

0000000080002604 <i_2325>:
    80002604:	19514383          	lbu	t2,405(sp)

0000000080002608 <i_2326>:
    80002608:	7de00893          	li	a7,2014

000000008000260c <i_2327>:
    8000260c:	7e100513          	li	a0,2017

0000000080002610 <i_2328>:
    80002610:	03a38d3b          	mulw	s10,t2,s10

0000000080002614 <i_2329>:
    80002614:	027c66bb          	remw	a3,s8,t2

0000000080002618 <i_2330>:
    80002618:	027f74b3          	remu	s1,t5,t2

000000008000261c <i_2331>:
    8000261c:	029bf9b3          	remu	s3,s7,s1

0000000080002620 <i_2332>:
    80002620:	00000013          	nop

0000000080002624 <i_2333>:
    80002624:	77400f93          	li	t6,1908

0000000080002628 <i_2334>:
    80002628:	78100213          	li	tp,1921

000000008000262c <i_2335>:
    8000262c:	00000013          	nop

0000000080002630 <i_2336>:
    80002630:	001f8f93          	addi	t6,t6,1 # fffffffffc737001 <_end+0xffffffff7c726bed>
    80002634:	fe4fece3          	bltu	t6,tp,8000262c <i_2335>

0000000080002638 <i_2337>:
    80002638:	00000013          	nop

000000008000263c <i_2338>:
    8000263c:	ea416383          	lwu	t2,-348(sp)

0000000080002640 <i_2339>:
    80002640:	ffd13823          	sd	t4,-16(sp)

0000000080002644 <i_2340>:
    80002644:	00188893          	addi	a7,a7,1
    80002648:	fca8e4e3          	bltu	a7,a0,80002610 <i_2328>

000000008000264c <i_2341>:
    8000264c:	00725863          	ble	t2,tp,8000265c <i_2345>

0000000080002650 <i_2342>:
    80002650:	0c011b03          	lh	s6,192(sp)

0000000080002654 <i_2343>:
    80002654:	03fb7f33          	remu	t5,s6,t6

0000000080002658 <i_2344>:
    80002658:	036b6f3b          	remw	t5,s6,s6

000000008000265c <i_2345>:
    8000265c:	00db0d33          	add	s10,s6,a3

0000000080002660 <i_2346>:
    80002660:	001b199b          	slliw	s3,s6,0x1

0000000080002664 <i_2347>:
    80002664:	00000013          	nop

0000000080002668 <i_2348>:
    80002668:	7cd00b13          	li	s6,1997

000000008000266c <i_2349>:
    8000266c:	7d100d13          	li	s10,2001

0000000080002670 <i_2350>:
    80002670:	1b015583          	lhu	a1,432(sp)

0000000080002674 <i_2351>:
    80002674:	00ad1463          	bne	s10,a0,8000267c <i_2353>

0000000080002678 <i_2352>:
    80002678:	003d5a13          	srli	s4,s10,0x3

000000008000267c <i_2353>:
    8000267c:	404b5293          	srai	t0,s6,0x4

0000000080002680 <i_2354>:
    80002680:	1e712023          	sw	t2,480(sp)

0000000080002684 <i_2355>:
    80002684:	01ab4463          	blt	s6,s10,8000268c <i_2357>

0000000080002688 <i_2356>:
    80002688:	29aaa413          	slti	s0,s5,666

000000008000268c <i_2357>:
    8000268c:	00000013          	nop

0000000080002690 <i_2358>:
    80002690:	00586663          	bltu	a6,t0,8000269c <i_2361>

0000000080002694 <i_2359>:
    80002694:	71c47993          	andi	s3,s0,1820

0000000080002698 <i_2360>:
    80002698:	03eb49bb          	divw	s3,s6,t5

000000008000269c <i_2361>:
    8000269c:	005a9e63          	bne	s5,t0,800026b8 <i_2367>

00000000800026a0 <i_2362>:
    800026a0:	0c210983          	lb	s3,194(sp)

00000000800026a4 <i_2363>:
    800026a4:	00000013          	nop

00000000800026a8 <i_2364>:
    800026a8:	001b0b13          	addi	s6,s6,1 # 3ed2dd69 <main-0x412d2297>
    800026ac:	fdab42e3          	blt	s6,s10,80002670 <i_2350>

00000000800026b0 <i_2365>:
    800026b0:	01a29c63          	bne	t0,s10,800026c8 <i_2371>

00000000800026b4 <i_2366>:
    800026b4:	01e8fc63          	bleu	t5,a7,800026cc <i_2372>

00000000800026b8 <i_2367>:
    800026b8:	03458263          	beq	a1,s4,800026dc <i_2376>

00000000800026bc <i_2368>:
    800026bc:	010f1263          	bne	t5,a6,800026c0 <i_2369>

00000000800026c0 <i_2369>:
    800026c0:	00b84463          	blt	a6,a1,800026c8 <i_2371>

00000000800026c4 <i_2370>:
    800026c4:	f41a6e93          	ori	t4,s4,-191

00000000800026c8 <i_2371>:
    800026c8:	12b13023          	sd	a1,288(sp)

00000000800026cc <i_2372>:
    800026cc:	ece10983          	lb	s3,-306(sp)

00000000800026d0 <i_2373>:
    800026d0:	f7410583          	lb	a1,-140(sp)

00000000800026d4 <i_2374>:
    800026d4:	ff312023          	sw	s3,-32(sp)

00000000800026d8 <i_2375>:
    800026d8:	e1d8c893          	xori	a7,a7,-483

00000000800026dc <i_2376>:
    800026dc:	7388f893          	andi	a7,a7,1848

00000000800026e0 <i_2377>:
    800026e0:	16c15083          	lhu	ra,364(sp)

00000000800026e4 <i_2378>:
    800026e4:	17d10823          	sb	t4,368(sp)

00000000800026e8 <i_2379>:
    800026e8:	00befa63          	bleu	a1,t4,800026fc <i_2384>

00000000800026ec <i_2380>:
    800026ec:	03d0f4bb          	remuw	s1,ra,t4

00000000800026f0 <i_2381>:
    800026f0:	001e8463          	beq	t4,ra,800026f8 <i_2383>

00000000800026f4 <i_2382>:
    800026f4:	00c12a03          	lw	s4,12(sp)

00000000800026f8 <i_2383>:
    800026f8:	00e00a93          	li	s5,14

00000000800026fc <i_2384>:
    800026fc:	015a5ebb          	srlw	t4,s4,s5

0000000080002700 <i_2385>:
    80002700:	414401b3          	sub	gp,s0,s4

0000000080002704 <i_2386>:
    80002704:	f95105a3          	sb	s5,-117(sp)

0000000080002708 <i_2387>:
    80002708:	e4310a83          	lb	s5,-445(sp)

000000008000270c <i_2388>:
    8000270c:	009a87b3          	add	a5,s5,s1

0000000080002710 <i_2389>:
    80002710:	fde11f03          	lh	t5,-34(sp)

0000000080002714 <i_2390>:
    80002714:	023baf33          	mulhsu	t5,s7,gp

0000000080002718 <i_2391>:
    80002718:	03ead463          	ble	t5,s5,80002740 <i_2401>

000000008000271c <i_2392>:
    8000271c:	03013503          	ld	a0,48(sp)

0000000080002720 <i_2393>:
    80002720:	04410c83          	lb	s9,68(sp)

0000000080002724 <i_2394>:
    80002724:	fc813a83          	ld	s5,-56(sp)

0000000080002728 <i_2395>:
    80002728:	02ae9263          	bne	t4,a0,8000274c <i_2404>

000000008000272c <i_2396>:
    8000272c:	f7410a23          	sb	s4,-140(sp)

0000000080002730 <i_2397>:
    80002730:	029503bb          	mulw	t2,a0,s1

0000000080002734 <i_2398>:
    80002734:	03422d33          	mulhsu	s10,tp,s4

0000000080002738 <i_2399>:
    80002738:	00798533          	add	a0,s3,t2

000000008000273c <i_2400>:
    8000273c:	021d7d33          	remu	s10,s10,ra

0000000080002740 <i_2401>:
    80002740:	ff815083          	lhu	ra,-8(sp)

0000000080002744 <i_2402>:
    80002744:	f8b10303          	lb	t1,-117(sp)

0000000080002748 <i_2403>:
    80002748:	01a09463          	bne	ra,s10,80002750 <i_2405>

000000008000274c <i_2404>:
    8000274c:	f6a11983          	lh	s3,-150(sp)

0000000080002750 <i_2405>:
    80002750:	006d1c63          	bne	s10,t1,80002768 <i_2411>

0000000080002754 <i_2406>:
    80002754:	f3013583          	ld	a1,-208(sp)

0000000080002758 <i_2407>:
    80002758:	0079dc63          	ble	t2,s3,80002770 <i_2413>

000000008000275c <i_2408>:
    8000275c:	a5a85537          	lui	a0,0xa5a85

0000000080002760 <i_2409>:
    80002760:	02b690b3          	mulh	ra,a3,a1

0000000080002764 <i_2410>:
    80002764:	e9714b83          	lbu	s7,-361(sp)

0000000080002768 <i_2411>:
    80002768:	01a67463          	bleu	s10,a2,80002770 <i_2413>

000000008000276c <i_2412>:
    8000276c:	027bd33b          	divuw	t1,s7,t2

0000000080002770 <i_2413>:
    80002770:	12a11423          	sh	a0,296(sp)

0000000080002774 <i_2414>:
    80002774:	0c813d03          	ld	s10,200(sp)

0000000080002778 <i_2415>:
    80002778:	e5013b83          	ld	s7,-432(sp)

000000008000277c <i_2416>:
    8000277c:	17014b83          	lbu	s7,368(sp)

0000000080002780 <i_2417>:
    80002780:	1d815703          	lhu	a4,472(sp)

0000000080002784 <i_2418>:
    80002784:	03781233          	mulh	tp,a6,s7

0000000080002788 <i_2419>:
    80002788:	f2510703          	lb	a4,-219(sp)

000000008000278c <i_2420>:
    8000278c:	40d70f33          	sub	t5,a4,a3

0000000080002790 <i_2421>:
    80002790:	05314183          	lbu	gp,83(sp)

0000000080002794 <i_2422>:
    80002794:	86800b93          	li	s7,-1944

0000000080002798 <i_2423>:
    80002798:	87a00813          	li	a6,-1926

000000008000279c <i_2424>:
    8000279c:	e5012023          	sw	a6,-448(sp)

00000000800027a0 <i_2425>:
    800027a0:	05014683          	lbu	a3,80(sp)

00000000800027a4 <i_2426>:
    800027a4:	00000013          	nop

00000000800027a8 <i_2427>:
    800027a8:	023f4463          	blt	t5,gp,800027d0 <i_2436>

00000000800027ac <i_2428>:
    800027ac:	001b8b93          	addi	s7,s7,1
    800027b0:	ff0be6e3          	bltu	s7,a6,8000279c <i_2424>

00000000800027b4 <i_2429>:
    800027b4:	fa813c03          	ld	s8,-88(sp)

00000000800027b8 <i_2430>:
    800027b8:	f1813823          	sd	s8,-240(sp)

00000000800027bc <i_2431>:
    800027bc:	ef012f03          	lw	t5,-272(sp)

00000000800027c0 <i_2432>:
    800027c0:	00d6d663          	ble	a3,a3,800027cc <i_2435>

00000000800027c4 <i_2433>:
    800027c4:	19812a23          	sw	s8,404(sp)

00000000800027c8 <i_2434>:
    800027c8:	03e2f6b3          	remu	a3,t0,t5

00000000800027cc <i_2435>:
    800027cc:	07c12d83          	lw	s11,124(sp)

00000000800027d0 <i_2436>:
    800027d0:	10e15e03          	lhu	t3,270(sp)

00000000800027d4 <i_2437>:
    800027d4:	01600593          	li	a1,22

00000000800027d8 <i_2438>:
    800027d8:	40be5f33          	sra	t5,t3,a1

00000000800027dc <i_2439>:
    800027dc:	00bf6263          	bltu	t5,a1,800027e0 <i_2440>

00000000800027e0 <i_2440>:
    800027e0:	03ec5463          	ble	t5,s8,80002808 <i_2450>

00000000800027e4 <i_2441>:
    800027e4:	19610d83          	lb	s11,406(sp)

00000000800027e8 <i_2442>:
    800027e8:	01e80e63          	beq	a6,t5,80002804 <i_2449>

00000000800027ec <i_2443>:
    800027ec:	00b68bb3          	add	s7,a3,a1

00000000800027f0 <i_2444>:
    800027f0:	0db11b23          	sh	s11,214(sp)

00000000800027f4 <i_2445>:
    800027f4:	01c6dc63          	ble	t3,a3,8000280c <i_2451>

00000000800027f8 <i_2446>:
    800027f8:	fff13423          	sd	t6,-24(sp)

00000000800027fc <i_2447>:
    800027fc:	0286c433          	div	s0,a3,s0

0000000080002800 <i_2448>:
    80002800:	003b9693          	slli	a3,s7,0x3

0000000080002804 <i_2449>:
    80002804:	00500b93          	li	s7,5

0000000080002808 <i_2450>:
    80002808:	0176d6bb          	srlw	a3,a3,s7

000000008000280c <i_2451>:
    8000280c:	f2615b83          	lhu	s7,-218(sp)

0000000080002810 <i_2452>:
    80002810:	017b9663          	bne	s7,s7,8000281c <i_2455>

0000000080002814 <i_2453>:
    80002814:	edc12b03          	lw	s6,-292(sp)

0000000080002818 <i_2454>:
    80002818:	f6810783          	lb	a5,-152(sp)

000000008000281c <i_2455>:
    8000281c:	fb612423          	sw	s6,-88(sp)

0000000080002820 <i_2456>:
    80002820:	00000013          	nop

0000000080002824 <i_2457>:
    80002824:	7dc00693          	li	a3,2012

0000000080002828 <i_2458>:
    80002828:	7e000213          	li	tp,2016

000000008000282c <i_2459>:
    8000282c:	00d20b33          	add	s6,tp,a3

0000000080002830 <i_2460>:
    80002830:	0fc15403          	lhu	s0,252(sp)

0000000080002834 <i_2461>:
    80002834:	e2810ba3          	sb	s0,-457(sp)

0000000080002838 <i_2462>:
    80002838:	10d13023          	sd	a3,256(sp)

000000008000283c <i_2463>:
    8000283c:	4022843b          	subw	s0,t0,sp

0000000080002840 <i_2464>:
    80002840:	00445313          	srli	t1,s0,0x4

0000000080002844 <i_2465>:
    80002844:	907b7793          	andi	a5,s6,-1785

0000000080002848 <i_2466>:
    80002848:	eb612c23          	sw	s6,-328(sp)

000000008000284c <i_2467>:
    8000284c:	05813483          	ld	s1,88(sp)

0000000080002850 <i_2468>:
    80002850:	003b5d93          	srli	s11,s6,0x3

0000000080002854 <i_2469>:
    80002854:	05611483          	lh	s1,86(sp)

0000000080002858 <i_2470>:
    80002858:	0291fe33          	remu	t3,gp,s1

000000008000285c <i_2471>:
    8000285c:	00168693          	addi	a3,a3,1 # a4f9c7b5 <_end+0x24f8c3a1>
    80002860:	fc46e6e3          	bltu	a3,tp,8000282c <i_2459>

0000000080002864 <i_2472>:
    80002864:	036b74bb          	remuw	s1,s6,s6

0000000080002868 <i_2473>:
    80002868:	e1d14483          	lbu	s1,-483(sp)

000000008000286c <i_2474>:
    8000286c:	00fad863          	ble	a5,s5,8000287c <i_2478>

0000000080002870 <i_2475>:
    80002870:	03b00793          	li	a5,59

0000000080002874 <i_2476>:
    80002874:	00fe5ab3          	srl	s5,t3,a5

0000000080002878 <i_2477>:
    80002878:	03c7b733          	mulhu	a4,a5,t3

000000008000287c <i_2478>:
    8000287c:	0f415703          	lhu	a4,244(sp)

0000000080002880 <i_2479>:
    80002880:	1b210e83          	lb	t4,434(sp)

0000000080002884 <i_2480>:
    80002884:	e6e13c23          	sd	a4,-392(sp)

0000000080002888 <i_2481>:
    80002888:	0fc11623          	sh	t3,236(sp)

000000008000288c <i_2482>:
    8000288c:	004e151b          	slliw	a0,t3,0x4

0000000080002890 <i_2483>:
    80002890:	00aaee63          	bltu	s5,a0,800028ac <i_2490>

0000000080002894 <i_2484>:
    80002894:	0045591b          	srliw	s2,a0,0x4

0000000080002898 <i_2485>:
    80002898:	015c0fb3          	add	t6,s8,s5

000000008000289c <i_2486>:
    8000289c:	00000013          	nop

00000000800028a0 <i_2487>:
    800028a0:	012be733          	or	a4,s7,s2

00000000800028a4 <i_2488>:
    800028a4:	00000013          	nop

00000000800028a8 <i_2489>:
    800028a8:	e5c16b83          	lwu	s7,-420(sp)

00000000800028ac <i_2490>:
    800028ac:	00000013          	nop

00000000800028b0 <i_2491>:
    800028b0:	0d215d03          	lhu	s10,210(sp)

00000000800028b4 <i_2492>:
    800028b4:	84e00a93          	li	s5,-1970

00000000800028b8 <i_2493>:
    800028b8:	85c00e93          	li	t4,-1956

00000000800028bc <i_2494>:
    800028bc:	02eb8733          	mul	a4,s7,a4

00000000800028c0 <i_2495>:
    800028c0:	03faa9b3          	mulhsu	s3,s5,t6

00000000800028c4 <i_2496>:
    800028c4:	001a8a93          	addi	s5,s5,1 # 4279e001 <main-0x3d861fff>
    800028c8:	ffdaeae3          	bltu	s5,t4,800028bc <i_2494>

00000000800028cc <i_2497>:
    800028cc:	00000013          	nop

00000000800028d0 <i_2498>:
    800028d0:	e4215c03          	lhu	s8,-446(sp)

00000000800028d4 <i_2499>:
    800028d4:	89400693          	li	a3,-1900

00000000800028d8 <i_2500>:
    800028d8:	8a400a93          	li	s5,-1884

00000000800028dc <i_2501>:
    800028dc:	03bc5063          	ble	s11,s8,800028fc <i_2508>

00000000800028e0 <i_2502>:
    800028e0:	0136e8b3          	or	a7,a3,s3

00000000800028e4 <i_2503>:
    800028e4:	00168693          	addi	a3,a3,1
    800028e8:	fedadae3          	ble	a3,s5,800028dc <i_2501>

00000000800028ec <i_2504>:
    800028ec:	0336c533          	div	a0,a3,s3

00000000800028f0 <i_2505>:
    800028f0:	08d14983          	lbu	s3,141(sp)

00000000800028f4 <i_2506>:
    800028f4:	00000013          	nop

00000000800028f8 <i_2507>:
    800028f8:	00000013          	nop

00000000800028fc <i_2508>:
    800028fc:	e7215b03          	lhu	s6,-398(sp)

0000000080002900 <i_2509>:
    80002900:	ed013203          	ld	tp,-304(sp)

0000000080002904 <i_2510>:
    80002904:	79c00993          	li	s3,1948

0000000080002908 <i_2511>:
    80002908:	7a400693          	li	a3,1956

000000008000290c <i_2512>:
    8000290c:	0031e1b3          	or	gp,gp,gp

0000000080002910 <i_2513>:
    80002910:	0241d633          	divu	a2,gp,tp

0000000080002914 <i_2514>:
    80002914:	00000013          	nop

0000000080002918 <i_2515>:
    80002918:	02478cb3          	mul	s9,a5,tp

000000008000291c <i_2516>:
    8000291c:	e4a13c23          	sd	a0,-424(sp)

0000000080002920 <i_2517>:
    80002920:	03400e93          	li	t4,52

0000000080002924 <i_2518>:
    80002924:	01dcda33          	srl	s4,s9,t4

0000000080002928 <i_2519>:
    80002928:	fb412023          	sw	s4,-96(sp)

000000008000292c <i_2520>:
    8000292c:	00198993          	addi	s3,s3,1 # 56b815fd <main-0x2947ea03>
    80002930:	fcd9cee3          	blt	s3,a3,8000290c <i_2512>

0000000080002934 <i_2521>:
    80002934:	1eb98593          	addi	a1,s3,491

0000000080002938 <i_2522>:
    80002938:	00ace863          	bltu	s9,a0,80002948 <i_2526>

000000008000293c <i_2523>:
    8000293c:	01960863          	beq	a2,s9,8000294c <i_2527>

0000000080002940 <i_2524>:
    80002940:	03d6c463          	blt	a3,t4,80002968 <i_2534>

0000000080002944 <i_2525>:
    80002944:	11013f83          	ld	t6,272(sp)

0000000080002948 <i_2526>:
    80002948:	03016383          	lwu	t2,48(sp)

000000008000294c <i_2527>:
    8000294c:	45f6e693          	ori	a3,a3,1119

0000000080002950 <i_2528>:
    80002950:	ea711123          	sh	t2,-350(sp)

0000000080002954 <i_2529>:
    80002954:	01f3e863          	bltu	t2,t6,80002964 <i_2533>

0000000080002958 <i_2530>:
    80002958:	06013383          	ld	t2,96(sp)

000000008000295c <i_2531>:
    8000295c:	14410303          	lb	t1,324(sp)

0000000080002960 <i_2532>:
    80002960:	0013df93          	srli	t6,t2,0x1

0000000080002964 <i_2533>:
    80002964:	1e412303          	lw	t1,484(sp)

0000000080002968 <i_2534>:
    80002968:	ec416783          	lwu	a5,-316(sp)

000000008000296c <i_2535>:
    8000296c:	03faa5b3          	mulhsu	a1,s5,t6

0000000080002970 <i_2536>:
    80002970:	00d00893          	li	a7,13

0000000080002974 <i_2537>:
    80002974:	4113573b          	sraw	a4,t1,a7

0000000080002978 <i_2538>:
    80002978:	40ea8abb          	subw	s5,s5,a4

000000008000297c <i_2539>:
    8000297c:	05345617          	auipc	a2,0x5345

0000000080002980 <i_2540>:
    80002980:	02c74ab3          	div	s5,a4,a2

0000000080002984 <i_2541>:
    80002984:	f0310703          	lb	a4,-253(sp)

0000000080002988 <i_2542>:
    80002988:	00c71c63          	bne	a4,a2,800029a0 <i_2548>

000000008000298c <i_2543>:
    8000298c:	00200613          	li	a2,2

0000000080002990 <i_2544>:
    80002990:	40c65bbb          	sraw	s7,a2,a2

0000000080002994 <i_2545>:
    80002994:	01970cb3          	add	s9,a4,s9

0000000080002998 <i_2546>:
    80002998:	f5813283          	ld	t0,-168(sp)

000000008000299c <i_2547>:
    8000299c:	f0110b83          	lb	s7,-255(sp)

00000000800029a0 <i_2548>:
    800029a0:	cf93b717          	auipc	a4,0xcf93b

00000000800029a4 <i_2549>:
    800029a4:	f2d10ba3          	sb	a3,-201(sp)

00000000800029a8 <i_2550>:
    800029a8:	89900213          	li	tp,-1895

00000000800029ac <i_2551>:
    800029ac:	89c00a93          	li	s5,-1892

00000000800029b0 <i_2552>:
    800029b0:	1a013c83          	ld	s9,416(sp)

00000000800029b4 <i_2553>:
    800029b4:	00000013          	nop

00000000800029b8 <i_2554>:
    800029b8:	037ba333          	mulhsu	t1,s7,s7

00000000800029bc <i_2555>:
    800029bc:	02700b13          	li	s6,39

00000000800029c0 <i_2556>:
    800029c0:	016ad733          	srl	a4,s5,s6

00000000800029c4 <i_2557>:
    800029c4:	ee816183          	lwu	gp,-280(sp)

00000000800029c8 <i_2558>:
    800029c8:	eb814c83          	lbu	s9,-328(sp)

00000000800029cc <i_2559>:
    800029cc:	f6d10da3          	sb	a3,-133(sp)

00000000800029d0 <i_2560>:
    800029d0:	1d810703          	lb	a4,472(sp)

00000000800029d4 <i_2561>:
    800029d4:	00120213          	addi	tp,tp,1 # 1 <main-0x7fffffff>
    800029d8:	fc4adce3          	ble	tp,s5,800029b0 <i_2552>

00000000800029dc <i_2562>:
    800029dc:	f6311d23          	sh	gp,-134(sp)

00000000800029e0 <i_2563>:
    800029e0:	00389863          	bne	a7,gp,800029f0 <i_2567>

00000000800029e4 <i_2564>:
    800029e4:	0031c863          	blt	gp,gp,800029f4 <i_2568>

00000000800029e8 <i_2565>:
    800029e8:	0014de93          	srli	t4,s1,0x1

00000000800029ec <i_2566>:
    800029ec:	00dccc63          	blt	s9,a3,80002a04 <i_2572>

00000000800029f0 <i_2567>:
    800029f0:	ece108a3          	sb	a4,-303(sp)

00000000800029f4 <i_2568>:
    800029f4:	05816e83          	lwu	t4,88(sp)

00000000800029f8 <i_2569>:
    800029f8:	09f13c23          	sd	t6,152(sp)

00000000800029fc <i_2570>:
    800029fc:	03940463          	beq	s0,s9,80002a24 <i_2580>

0000000080002a00 <i_2571>:
    80002a00:	12c10c83          	lb	s9,300(sp)

0000000080002a04 <i_2572>:
    80002a04:	02c63fb3          	mulhu	t6,a2,a2

0000000080002a08 <i_2573>:
    80002a08:	00000013          	nop

0000000080002a0c <i_2574>:
    80002a0c:	e2610f83          	lb	t6,-474(sp)

0000000080002a10 <i_2575>:
    80002a10:	002c9f93          	slli	t6,s9,0x2

0000000080002a14 <i_2576>:
    80002a14:	403d5f93          	srai	t6,s10,0x3

0000000080002a18 <i_2577>:
    80002a18:	00000013          	nop

0000000080002a1c <i_2578>:
    80002a1c:	f3610483          	lb	s1,-202(sp)

0000000080002a20 <i_2579>:
    80002a20:	0df104a3          	sb	t6,201(sp)

0000000080002a24 <i_2580>:
    80002a24:	19912a23          	sw	s9,404(sp)

0000000080002a28 <i_2581>:
    80002a28:	e6911d23          	sh	s1,-390(sp)

0000000080002a2c <i_2582>:
    80002a2c:	73500c93          	li	s9,1845

0000000080002a30 <i_2583>:
    80002a30:	74600613          	li	a2,1862

0000000080002a34 <i_2584>:
    80002a34:	eec15403          	lhu	s0,-276(sp)

0000000080002a38 <i_2585>:
    80002a38:	e3612623          	sw	s6,-468(sp)

0000000080002a3c <i_2586>:
    80002a3c:	02845063          	ble	s0,s0,80002a5c <i_2593>

0000000080002a40 <i_2587>:
    80002a40:	00840433          	add	s0,s0,s0

0000000080002a44 <i_2588>:
    80002a44:	00846433          	or	s0,s0,s0

0000000080002a48 <i_2589>:
    80002a48:	001c8c93          	addi	s9,s9,1
    80002a4c:	fecce4e3          	bltu	s9,a2,80002a34 <i_2584>

0000000080002a50 <i_2590>:
    80002a50:	fb611403          	lh	s0,-74(sp)

0000000080002a54 <i_2591>:
    80002a54:	408a87b3          	sub	a5,s5,s0

0000000080002a58 <i_2592>:
    80002a58:	02f46ab3          	rem	s5,s0,a5

0000000080002a5c <i_2593>:
    80002a5c:	0a013f03          	ld	t5,160(sp)

0000000080002a60 <i_2594>:
    80002a60:	02416783          	lwu	a5,36(sp)

0000000080002a64 <i_2595>:
    80002a64:	13013403          	ld	s0,304(sp)

0000000080002a68 <i_2596>:
    80002a68:	02f16ab3          	rem	s5,sp,a5

0000000080002a6c <i_2597>:
    80002a6c:	00e11e23          	sh	a4,28(sp)

0000000080002a70 <i_2598>:
    80002a70:	10812823          	sw	s0,272(sp)

0000000080002a74 <i_2599>:
    80002a74:	002ace63          	blt	s5,sp,80002a90 <i_2606>

0000000080002a78 <i_2600>:
    80002a78:	fca10703          	lb	a4,-54(sp)

0000000080002a7c <i_2601>:
    80002a7c:	00e41463          	bne	s0,a4,80002a84 <i_2603>

0000000080002a80 <i_2602>:
    80002a80:	fd110483          	lb	s1,-47(sp)

0000000080002a84 <i_2603>:
    80002a84:	00941c63          	bne	s0,s1,80002a9c <i_2609>

0000000080002a88 <i_2604>:
    80002a88:	fbc16483          	lwu	s1,-68(sp)

0000000080002a8c <i_2605>:
    80002a8c:	f5813d03          	ld	s10,-168(sp)

0000000080002a90 <i_2606>:
    80002a90:	e5813483          	ld	s1,-424(sp)

0000000080002a94 <i_2607>:
    80002a94:	0154dc63          	ble	s5,s1,80002aac <i_2613>

0000000080002a98 <i_2608>:
    80002a98:	02e12623          	sw	a4,44(sp)

0000000080002a9c <i_2609>:
    80002a9c:	e9416703          	lwu	a4,-364(sp)

0000000080002aa0 <i_2610>:
    80002aa0:	1a9104a3          	sb	s1,425(sp)

0000000080002aa4 <i_2611>:
    80002aa4:	50a4809b          	addiw	ra,s1,1290

0000000080002aa8 <i_2612>:
    80002aa8:	01a80533          	add	a0,a6,s10

0000000080002aac <i_2613>:
    80002aac:	e3e11b83          	lh	s7,-450(sp)

0000000080002ab0 <i_2614>:
    80002ab0:	07910403          	lb	s0,121(sp)

0000000080002ab4 <i_2615>:
    80002ab4:	73600d93          	li	s11,1846

0000000080002ab8 <i_2616>:
    80002ab8:	74900c93          	li	s9,1865

0000000080002abc <i_2617>:
    80002abc:	00c12503          	lw	a0,12(sp)

0000000080002ac0 <i_2618>:
    80002ac0:	eda100a3          	sb	s10,-319(sp)

0000000080002ac4 <i_2619>:
    80002ac4:	88100f13          	li	t5,-1919

0000000080002ac8 <i_2620>:
    80002ac8:	89300913          	li	s2,-1901

0000000080002acc <i_2621>:
    80002acc:	001f0f13          	addi	t5,t5,1 # 448a195 <main-0x7bb75e6b>
    80002ad0:	ff2f1ee3          	bne	t5,s2,80002acc <i_2621>

0000000080002ad4 <i_2622>:
    80002ad4:	f1911323          	sh	s9,-250(sp)

0000000080002ad8 <i_2623>:
    80002ad8:	e9c12023          	sw	t3,-384(sp)

0000000080002adc <i_2624>:
    80002adc:	fb611e83          	lh	t4,-74(sp)

0000000080002ae0 <i_2625>:
    80002ae0:	ed412903          	lw	s2,-300(sp)

0000000080002ae4 <i_2626>:
    80002ae4:	0ea12a23          	sw	a0,244(sp)

0000000080002ae8 <i_2627>:
    80002ae8:	ecc11e83          	lh	t4,-308(sp)

0000000080002aec <i_2628>:
    80002aec:	fdd104a3          	sb	t4,-55(sp)

0000000080002af0 <i_2629>:
    80002af0:	001d8d93          	addi	s11,s11,1
    80002af4:	fd9dc4e3          	blt	s11,s9,80002abc <i_2617>

0000000080002af8 <i_2630>:
    80002af8:	01d9ea63          	bltu	s3,t4,80002b0c <i_2635>

0000000080002afc <i_2631>:
    80002afc:	033949b3          	div	s3,s2,s3

0000000080002b00 <i_2632>:
    80002b00:	e5211d23          	sh	s2,-422(sp)

0000000080002b04 <i_2633>:
    80002b04:	0329c9bb          	divw	s3,s3,s2

0000000080002b08 <i_2634>:
    80002b08:	01dc9463          	bne	s9,t4,80002b10 <i_2636>

0000000080002b0c <i_2635>:
    80002b0c:	0f211d23          	sh	s2,250(sp)

0000000080002b10 <i_2636>:
    80002b10:	0328aeb3          	mulhsu	t4,a7,s2

0000000080002b14 <i_2637>:
    80002b14:	013902b3          	add	t0,s2,s3

0000000080002b18 <i_2638>:
    80002b18:	02a00393          	li	t2,42

0000000080002b1c <i_2639>:
    80002b1c:	40795f33          	sra	t5,s2,t2

0000000080002b20 <i_2640>:
    80002b20:	f7c11683          	lh	a3,-132(sp)

0000000080002b24 <i_2641>:
    80002b24:	0072c863          	blt	t0,t2,80002b34 <i_2645>

0000000080002b28 <i_2642>:
    80002b28:	13114b03          	lbu	s6,305(sp)

0000000080002b2c <i_2643>:
    80002b2c:	016383b3          	add	t2,t2,s6

0000000080002b30 <i_2644>:
    80002b30:	00119e9b          	slliw	t4,gp,0x1

0000000080002b34 <i_2645>:
    80002b34:	04c10e83          	lb	t4,76(sp)

0000000080002b38 <i_2646>:
    80002b38:	00000013          	nop

0000000080002b3c <i_2647>:
    80002b3c:	89500893          	li	a7,-1899

0000000080002b40 <i_2648>:
    80002b40:	89c00193          	li	gp,-1892

0000000080002b44 <i_2649>:
    80002b44:	03200813          	li	a6,50

0000000080002b48 <i_2650>:
    80002b48:	01085fb3          	srl	t6,a6,a6

0000000080002b4c <i_2651>:
    80002b4c:	e7416c83          	lwu	s9,-396(sp)

0000000080002b50 <i_2652>:
    80002b50:	039f9463          	bne	t6,s9,80002b78 <i_2661>

0000000080002b54 <i_2653>:
    80002b54:	12013983          	ld	s3,288(sp)

0000000080002b58 <i_2654>:
    80002b58:	14314f83          	lbu	t6,323(sp)

0000000080002b5c <i_2655>:
    80002b5c:	f2812f83          	lw	t6,-216(sp)

0000000080002b60 <i_2656>:
    80002b60:	00188893          	addi	a7,a7,1
    80002b64:	fe38c0e3          	blt	a7,gp,80002b44 <i_2649>

0000000080002b68 <i_2657>:
    80002b68:	f2815f83          	lhu	t6,-216(sp)

0000000080002b6c <i_2658>:
    80002b6c:	17f12c23          	sw	t6,376(sp)

0000000080002b70 <i_2659>:
    80002b70:	e7f10ba3          	sb	t6,-393(sp)

0000000080002b74 <i_2660>:
    80002b74:	01f2cbb3          	xor	s7,t0,t6

0000000080002b78 <i_2661>:
    80002b78:	e5013603          	ld	a2,-432(sp)

0000000080002b7c <i_2662>:
    80002b7c:	fac11323          	sh	a2,-90(sp)

0000000080002b80 <i_2663>:
    80002b80:	e4c12d03          	lw	s10,-436(sp)

0000000080002b84 <i_2664>:
    80002b84:	013f8c63          	beq	t6,s3,80002b9c <i_2670>

0000000080002b88 <i_2665>:
    80002b88:	002d531b          	srliw	t1,s10,0x2

0000000080002b8c <i_2666>:
    80002b8c:	e5e14683          	lbu	a3,-418(sp)

0000000080002b90 <i_2667>:
    80002b90:	0336d633          	divu	a2,a3,s3

0000000080002b94 <i_2668>:
    80002b94:	01f37663          	bleu	t6,t1,80002ba0 <i_2671>

0000000080002b98 <i_2669>:
    80002b98:	02c12f83          	lw	t6,44(sp)

0000000080002b9c <i_2670>:
    80002b9c:	0066ca63          	blt	a3,t1,80002bb0 <i_2675>

0000000080002ba0 <i_2671>:
    80002ba0:	e9011083          	lh	ra,-368(sp)

0000000080002ba4 <i_2672>:
    80002ba4:	fb012683          	lw	a3,-80(sp)

0000000080002ba8 <i_2673>:
    80002ba8:	001888b3          	add	a7,a7,ra

0000000080002bac <i_2674>:
    80002bac:	2f7fbd13          	sltiu	s10,t6,759

0000000080002bb0 <i_2675>:
    80002bb0:	00100613          	li	a2,1

0000000080002bb4 <i_2676>:
    80002bb4:	40c5d33b          	sraw	t1,a1,a2

0000000080002bb8 <i_2677>:
    80002bb8:	0260b7b3          	mulhu	a5,ra,t1

0000000080002bbc <i_2678>:
    80002bbc:	15410b03          	lb	s6,340(sp)

0000000080002bc0 <i_2679>:
    80002bc0:	02df8263          	beq	t6,a3,80002be4 <i_2688>

0000000080002bc4 <i_2680>:
    80002bc4:	f1611683          	lh	a3,-234(sp)

0000000080002bc8 <i_2681>:
    80002bc8:	1b710f83          	lb	t6,439(sp)

0000000080002bcc <i_2682>:
    80002bcc:	e7416083          	lwu	ra,-396(sp)

0000000080002bd0 <i_2683>:
    80002bd0:	18811683          	lh	a3,392(sp)

0000000080002bd4 <i_2684>:
    80002bd4:	e5913423          	sd	s9,-440(sp)

0000000080002bd8 <i_2685>:
    80002bd8:	1d012083          	lw	ra,464(sp)

0000000080002bdc <i_2686>:
    80002bdc:	0a211f83          	lh	t6,162(sp)

0000000080002be0 <i_2687>:
    80002be0:	02d0fc33          	remu	s8,ra,a3

0000000080002be4 <i_2688>:
    80002be4:	ec816b03          	lwu	s6,-312(sp)

0000000080002be8 <i_2689>:
    80002be8:	09813823          	sd	s8,144(sp)

0000000080002bec <i_2690>:
    80002bec:	403a6b37          	lui	s6,0x403a6

0000000080002bf0 <i_2691>:
    80002bf0:	003b1f93          	slli	t6,s6,0x3

0000000080002bf4 <i_2692>:
    80002bf4:	0ff13823          	sd	t6,240(sp)

0000000080002bf8 <i_2693>:
    80002bf8:	03fb0233          	mul	tp,s6,t6

0000000080002bfc <i_2694>:
    80002bfc:	00c00213          	li	tp,12

0000000080002c00 <i_2695>:
    80002c00:	40425b3b          	sraw	s6,tp,tp

0000000080002c04 <i_2696>:
    80002c04:	03ffe233          	rem	tp,t6,t6

0000000080002c08 <i_2697>:
    80002c08:	00437c63          	bleu	tp,t1,80002c20 <i_2703>

0000000080002c0c <i_2698>:
    80002c0c:	027fd3bb          	divuw	t2,t6,t2

0000000080002c10 <i_2699>:
    80002c10:	02777d3b          	remuw	s10,a4,t2

0000000080002c14 <i_2700>:
    80002c14:	16813703          	ld	a4,360(sp)

0000000080002c18 <i_2701>:
    80002c18:	e7613423          	sd	s6,-408(sp)

0000000080002c1c <i_2702>:
    80002c1c:	00000013          	nop

0000000080002c20 <i_2703>:
    80002c20:	0d611703          	lh	a4,214(sp)

0000000080002c24 <i_2704>:
    80002c24:	0a215703          	lhu	a4,162(sp)

0000000080002c28 <i_2705>:
    80002c28:	7b200b13          	li	s6,1970

0000000080002c2c <i_2706>:
    80002c2c:	7b800393          	li	t2,1976

0000000080002c30 <i_2707>:
    80002c30:	0012521b          	srliw	tp,tp,0x1

0000000080002c34 <i_2708>:
    80002c34:	fc412683          	lw	a3,-60(sp)

0000000080002c38 <i_2709>:
    80002c38:	fad10303          	lb	t1,-83(sp)

0000000080002c3c <i_2710>:
    80002c3c:	ead10303          	lb	t1,-339(sp)

0000000080002c40 <i_2711>:
    80002c40:	02e878bb          	remuw	a7,a6,a4

0000000080002c44 <i_2712>:
    80002c44:	001b0b13          	addi	s6,s6,1 # 403a6001 <main-0x3fc59fff>
    80002c48:	ff63d4e3          	ble	s6,t2,80002c30 <i_2707>

0000000080002c4c <i_2713>:
    80002c4c:	02400813          	li	a6,36

0000000080002c50 <i_2714>:
    80002c50:	01051333          	sll	t1,a0,a6

0000000080002c54 <i_2715>:
    80002c54:	0f015383          	lhu	t2,240(sp)

0000000080002c58 <i_2716>:
    80002c58:	02e89063          	bne	a7,a4,80002c78 <i_2724>

0000000080002c5c <i_2717>:
    80002c5c:	00000013          	nop

0000000080002c60 <i_2718>:
    80002c60:	00674733          	xor	a4,a4,t1

0000000080002c64 <i_2719>:
    80002c64:	ed214703          	lbu	a4,-302(sp)

0000000080002c68 <i_2720>:
    80002c68:	02e76633          	rem	a2,a4,a4

0000000080002c6c <i_2721>:
    80002c6c:	08614f03          	lbu	t5,134(sp)

0000000080002c70 <i_2722>:
    80002c70:	900a009b          	addiw	ra,s4,-1792

0000000080002c74 <i_2723>:
    80002c74:	f3415683          	lhu	a3,-204(sp)

0000000080002c78 <i_2724>:
    80002c78:	e6414703          	lbu	a4,-412(sp)

0000000080002c7c <i_2725>:
    80002c7c:	00000013          	nop

0000000080002c80 <i_2726>:
    80002c80:	79400993          	li	s3,1940

0000000080002c84 <i_2727>:
    80002c84:	7a100313          	li	t1,1953

0000000080002c88 <i_2728>:
    80002c88:	f1211883          	lh	a7,-238(sp)

0000000080002c8c <i_2729>:
    80002c8c:	037fe463          	bltu	t6,s7,80002cb4 <i_2738>

0000000080002c90 <i_2730>:
    80002c90:	00198993          	addi	s3,s3,1
    80002c94:	fe69cae3          	blt	s3,t1,80002c88 <i_2728>

0000000080002c98 <i_2731>:
    80002c98:	f9016203          	lwu	tp,-112(sp)

0000000080002c9c <i_2732>:
    80002c9c:	02e8d73b          	divuw	a4,a7,a4

0000000080002ca0 <i_2733>:
    80002ca0:	0a412c83          	lw	s9,164(sp)

0000000080002ca4 <i_2734>:
    80002ca4:	f2e11123          	sh	a4,-222(sp)

0000000080002ca8 <i_2735>:
    80002ca8:	18a10703          	lb	a4,394(sp)

0000000080002cac <i_2736>:
    80002cac:	0f816303          	lwu	t1,248(sp)

0000000080002cb0 <i_2737>:
    80002cb0:	00385a1b          	srliw	s4,a6,0x3

0000000080002cb4 <i_2738>:
    80002cb4:	11016883          	lwu	a7,272(sp)

0000000080002cb8 <i_2739>:
    80002cb8:	f5e15803          	lhu	a6,-162(sp)

0000000080002cbc <i_2740>:
    80002cbc:	00000013          	nop

0000000080002cc0 <i_2741>:
    80002cc0:	02981cb3          	mulh	s9,a6,s1

0000000080002cc4 <i_2742>:
    80002cc4:	79400493          	li	s1,1940

0000000080002cc8 <i_2743>:
    80002cc8:	79b00293          	li	t0,1947

0000000080002ccc <i_2744>:
    80002ccc:	13411203          	lh	tp,308(sp)

0000000080002cd0 <i_2745>:
    80002cd0:	f7d14e03          	lbu	t3,-131(sp)

0000000080002cd4 <i_2746>:
    80002cd4:	5f68a817          	auipc	a6,0x5f68a

0000000080002cd8 <i_2747>:
    80002cd8:	01081a63          	bne	a6,a6,80002cec <i_2752>

0000000080002cdc <i_2748>:
    80002cdc:	40ae083b          	subw	a6,t3,a0

0000000080002ce0 <i_2749>:
    80002ce0:	f13e3d13          	sltiu	s10,t3,-237

0000000080002ce4 <i_2750>:
    80002ce4:	031838b3          	mulhu	a7,a6,a7

0000000080002ce8 <i_2751>:
    80002ce8:	027e13b3          	mulh	t2,t3,t2

0000000080002cec <i_2752>:
    80002cec:	010d2c33          	slt	s8,s10,a6

0000000080002cf0 <i_2753>:
    80002cf0:	ff012623          	sw	a6,-20(sp)

0000000080002cf4 <i_2754>:
    80002cf4:	02d00513          	li	a0,45

0000000080002cf8 <i_2755>:
    80002cf8:	00a3dd33          	srl	s10,t2,a0

0000000080002cfc <i_2756>:
    80002cfc:	00148493          	addi	s1,s1,1
    80002d00:	fc92f6e3          	bleu	s1,t0,80002ccc <i_2744>

0000000080002d04 <i_2757>:
    80002d04:	01ad1e63          	bne	s10,s10,80002d20 <i_2764>

0000000080002d08 <i_2758>:
    80002d08:	f4a11a23          	sh	a0,-172(sp)

0000000080002d0c <i_2759>:
    80002d0c:	41ad0bb3          	sub	s7,s10,s10

0000000080002d10 <i_2760>:
    80002d10:	1b016c03          	lwu	s8,432(sp)

0000000080002d14 <i_2761>:
    80002d14:	037a8d3b          	mulw	s10,s5,s7

0000000080002d18 <i_2762>:
    80002d18:	00100a93          	li	s5,1

0000000080002d1c <i_2763>:
    80002d1c:	01555d33          	srl	s10,a0,s5

0000000080002d20 <i_2764>:
    80002d20:	006d7ab3          	and	s5,s10,t1

0000000080002d24 <i_2765>:
    80002d24:	fe214783          	lbu	a5,-30(sp)

0000000080002d28 <i_2766>:
    80002d28:	01aac733          	xor	a4,s5,s10

0000000080002d2c <i_2767>:
    80002d2c:	0147e8b3          	or	a7,a5,s4

0000000080002d30 <i_2768>:
    80002d30:	09511123          	sh	s5,130(sp)

0000000080002d34 <i_2769>:
    80002d34:	87c00a93          	li	s5,-1924

0000000080002d38 <i_2770>:
    80002d38:	88300a13          	li	s4,-1917

0000000080002d3c <i_2771>:
    80002d3c:	411208bb          	subw	a7,tp,a7

0000000080002d40 <i_2772>:
    80002d40:	e6e11f83          	lh	t6,-402(sp)

0000000080002d44 <i_2773>:
    80002d44:	00000013          	nop

0000000080002d48 <i_2774>:
    80002d48:	79400893          	li	a7,1940

0000000080002d4c <i_2775>:
    80002d4c:	7a800213          	li	tp,1960

0000000080002d50 <i_2776>:
    80002d50:	00000013          	nop

0000000080002d54 <i_2777>:
    80002d54:	0ac12e23          	sw	a2,188(sp)

0000000080002d58 <i_2778>:
    80002d58:	02527eb3          	remu	t4,tp,t0

0000000080002d5c <i_2779>:
    80002d5c:	e6012283          	lw	t0,-416(sp)

0000000080002d60 <i_2780>:
    80002d60:	00188893          	addi	a7,a7,1
    80002d64:	fe48c6e3          	blt	a7,tp,80002d50 <i_2776>

0000000080002d68 <i_2781>:
    80002d68:	ea411183          	lh	gp,-348(sp)

0000000080002d6c <i_2782>:
    80002d6c:	af283937          	lui	s2,0xaf283

0000000080002d70 <i_2783>:
    80002d70:	4121823b          	subw	tp,gp,s2

0000000080002d74 <i_2784>:
    80002d74:	001a8a93          	addi	s5,s5,1
    80002d78:	fd4ae2e3          	bltu	s5,s4,80002d3c <i_2771>

0000000080002d7c <i_2785>:
    80002d7c:	00400813          	li	a6,4

0000000080002d80 <i_2786>:
    80002d80:	010d92bb          	sllw	t0,s11,a6

0000000080002d84 <i_2787>:
    80002d84:	70126f13          	ori	t5,tp,1793

0000000080002d88 <i_2788>:
    80002d88:	01700313          	li	t1,23

0000000080002d8c <i_2789>:
    80002d8c:	00629333          	sll	t1,t0,t1

0000000080002d90 <i_2790>:
    80002d90:	030f1333          	mulh	t1,t5,a6

0000000080002d94 <i_2791>:
    80002d94:	01634f33          	xor	t5,t1,s6

0000000080002d98 <i_2792>:
    80002d98:	017f7e63          	bleu	s7,t5,80002db4 <i_2799>

0000000080002d9c <i_2793>:
    80002d9c:	3fef3593          	sltiu	a1,t5,1022

0000000080002da0 <i_2794>:
    80002da0:	01058463          	beq	a1,a6,80002da8 <i_2796>

0000000080002da4 <i_2795>:
    80002da4:	01085863          	ble	a6,a6,80002db4 <i_2799>

0000000080002da8 <i_2796>:
    80002da8:	03b00713          	li	a4,59

0000000080002dac <i_2797>:
    80002dac:	00e81633          	sll	a2,a6,a4

0000000080002db0 <i_2798>:
    80002db0:	00cdfcb3          	and	s9,s11,a2

0000000080002db4 <i_2799>:
    80002db4:	f9f14083          	lbu	ra,-97(sp)

0000000080002db8 <i_2800>:
    80002db8:	00275c63          	ble	sp,a4,80002dd0 <i_2806>

0000000080002dbc <i_2801>:
    80002dbc:	038f0f33          	mul	t5,t5,s8

0000000080002dc0 <i_2802>:
    80002dc0:	021cd463          	ble	ra,s9,80002de8 <i_2812>

0000000080002dc4 <i_2803>:
    80002dc4:	633d4913          	xori	s2,s10,1587

0000000080002dc8 <i_2804>:
    80002dc8:	4038509b          	sraiw	ra,a6,0x3

0000000080002dcc <i_2805>:
    80002dcc:	fcb12e23          	sw	a1,-36(sp)

0000000080002dd0 <i_2806>:
    80002dd0:	01e66863          	bltu	a2,t5,80002de0 <i_2810>

0000000080002dd4 <i_2807>:
    80002dd4:	f0c13823          	sd	a2,-240(sp)

0000000080002dd8 <i_2808>:
    80002dd8:	021658bb          	divuw	a7,a2,ra

0000000080002ddc <i_2809>:
    80002ddc:	1cf14e83          	lbu	t4,463(sp)

0000000080002de0 <i_2810>:
    80002de0:	019ed263          	ble	s9,t4,80002de4 <i_2811>

0000000080002de4 <i_2811>:
    80002de4:	f9816e83          	lwu	t4,-104(sp)

0000000080002de8 <i_2812>:
    80002de8:	03deeeb3          	rem	t4,t4,t4

0000000080002dec <i_2813>:
    80002dec:	62fe859b          	addiw	a1,t4,1583

0000000080002df0 <i_2814>:
    80002df0:	02b58063          	beq	a1,a1,80002e10 <i_2822>

0000000080002df4 <i_2815>:
    80002df4:	40be8ebb          	subw	t4,t4,a1

0000000080002df8 <i_2816>:
    80002df8:	13813583          	ld	a1,312(sp)

0000000080002dfc <i_2817>:
    80002dfc:	00b97933          	and	s2,s2,a1

0000000080002e00 <i_2818>:
    80002e00:	edc16983          	lwu	s3,-292(sp)

0000000080002e04 <i_2819>:
    80002e04:	fe214583          	lbu	a1,-30(sp)

0000000080002e08 <i_2820>:
    80002e08:	75af899b          	addiw	s3,t6,1882

0000000080002e0c <i_2821>:
    80002e0c:	02b9f93b          	remuw	s2,s3,a1

0000000080002e10 <i_2822>:
    80002e10:	ff310923          	sb	s3,-14(sp)

0000000080002e14 <i_2823>:
    80002e14:	03218b3b          	mulw	s6,gp,s2

0000000080002e18 <i_2824>:
    80002e18:	88300313          	li	t1,-1917

0000000080002e1c <i_2825>:
    80002e1c:	89200f93          	li	t6,-1902

0000000080002e20 <i_2826>:
    80002e20:	f5013703          	ld	a4,-176(sp)

0000000080002e24 <i_2827>:
    80002e24:	f5810903          	lb	s2,-168(sp)

0000000080002e28 <i_2828>:
    80002e28:	401b5713          	srai	a4,s6,0x1

0000000080002e2c <i_2829>:
    80002e2c:	03a15983          	lhu	s3,58(sp)

0000000080002e30 <i_2830>:
    80002e30:	0279673b          	remw	a4,s2,t2

0000000080002e34 <i_2831>:
    80002e34:	eee15c83          	lhu	s9,-274(sp)

0000000080002e38 <i_2832>:
    80002e38:	efe9a993          	slti	s3,s3,-258

0000000080002e3c <i_2833>:
    80002e3c:	00000013          	nop

0000000080002e40 <i_2834>:
    80002e40:	00f937b3          	sltu	a5,s2,a5

0000000080002e44 <i_2835>:
    80002e44:	02e9e93b          	remw	s2,s3,a4

0000000080002e48 <i_2836>:
    80002e48:	1a012983          	lw	s3,416(sp)

0000000080002e4c <i_2837>:
    80002e4c:	00130313          	addi	t1,t1,1
    80002e50:	fdf368e3          	bltu	t1,t6,80002e20 <i_2826>

0000000080002e54 <i_2838>:
    80002e54:	a0c78813          	addi	a6,a5,-1524 # 8320a84 <main-0x77cdf57c>

0000000080002e58 <i_2839>:
    80002e58:	0018599b          	srliw	s3,a6,0x1

0000000080002e5c <i_2840>:
    80002e5c:	fe210023          	sb	sp,-32(sp)

0000000080002e60 <i_2841>:
    80002e60:	1b012823          	sw	a6,432(sp)

0000000080002e64 <i_2842>:
    80002e64:	5f97c837          	lui	a6,0x5f97c

0000000080002e68 <i_2843>:
    80002e68:	01380633          	add	a2,a6,s3

0000000080002e6c <i_2844>:
    80002e6c:	05012c23          	sw	a6,88(sp)

0000000080002e70 <i_2845>:
    80002e70:	010a1a63          	bne	s4,a6,80002e84 <i_2850>

0000000080002e74 <i_2846>:
    80002e74:	e1811903          	lh	s2,-488(sp)

0000000080002e78 <i_2847>:
    80002e78:	ea815883          	lhu	a7,-344(sp)

0000000080002e7c <i_2848>:
    80002e7c:	ec016083          	lwu	ra,-320(sp)

0000000080002e80 <i_2849>:
    80002e80:	e5210da3          	sb	s2,-421(sp)

0000000080002e84 <i_2850>:
    80002e84:	e8210803          	lb	a6,-382(sp)

0000000080002e88 <i_2851>:
    80002e88:	eb012c23          	sw	a6,-328(sp)

0000000080002e8c <i_2852>:
    80002e8c:	e7d11a23          	sh	t4,-396(sp)

0000000080002e90 <i_2853>:
    80002e90:	85900613          	li	a2,-1959

0000000080002e94 <i_2854>:
    80002e94:	86b00e93          	li	t4,-1941

0000000080002e98 <i_2855>:
    80002e98:	00000013          	nop

0000000080002e9c <i_2856>:
    80002e9c:	00000013          	nop

0000000080002ea0 <i_2857>:
    80002ea0:	00000013          	nop

0000000080002ea4 <i_2858>:
    80002ea4:	01dd8db3          	add	s11,s11,t4

0000000080002ea8 <i_2859>:
    80002ea8:	0322c063          	blt	t0,s2,80002ec8 <i_2866>

0000000080002eac <i_2860>:
    80002eac:	00160613          	addi	a2,a2,1 # 8534797d <_end+0x5337569>
    80002eb0:	ffd664e3          	bltu	a2,t4,80002e98 <i_2855>

0000000080002eb4 <i_2861>:
    80002eb4:	00487a63          	bleu	tp,a6,80002ec8 <i_2866>

0000000080002eb8 <i_2862>:
    80002eb8:	f7211323          	sh	s2,-154(sp)

0000000080002ebc <i_2863>:
    80002ebc:	fb011623          	sh	a6,-84(sp)

0000000080002ec0 <i_2864>:
    80002ec0:	00489593          	slli	a1,a7,0x4

0000000080002ec4 <i_2865>:
    80002ec4:	033ddcb3          	divu	s9,s11,s3

0000000080002ec8 <i_2866>:
    80002ec8:	f61101a3          	sb	ra,-157(sp)

0000000080002ecc <i_2867>:
    80002ecc:	01700993          	li	s3,23

0000000080002ed0 <i_2868>:
    80002ed0:	013eda3b          	srlw	s4,t4,s3

0000000080002ed4 <i_2869>:
    80002ed4:	01200a93          	li	s5,18

0000000080002ed8 <i_2870>:
    80002ed8:	015995b3          	sll	a1,s3,s5

0000000080002edc <i_2871>:
    80002edc:	0c210083          	lb	ra,194(sp)

0000000080002ee0 <i_2872>:
    80002ee0:	0220c463          	blt	ra,sp,80002f08 <i_2882>

0000000080002ee4 <i_2873>:
    80002ee4:	01340263          	beq	s0,s3,80002ee8 <i_2874>

0000000080002ee8 <i_2874>:
    80002ee8:	1b412223          	sw	s4,420(sp)

0000000080002eec <i_2875>:
    80002eec:	1e010f03          	lb	t5,480(sp)

0000000080002ef0 <i_2876>:
    80002ef0:	04e11303          	lh	t1,78(sp)

0000000080002ef4 <i_2877>:
    80002ef4:	0215f263          	bleu	ra,a1,80002f18 <i_2886>

0000000080002ef8 <i_2878>:
    80002ef8:	026f40bb          	divw	ra,t5,t1

0000000080002efc <i_2879>:
    80002efc:	01e34e63          	blt	t1,t5,80002f18 <i_2886>

0000000080002f00 <i_2880>:
    80002f00:	03ff6063          	bltu	t5,t6,80002f20 <i_2888>

0000000080002f04 <i_2881>:
    80002f04:	001340b3          	xor	ra,t1,ra

0000000080002f08 <i_2882>:
    80002f08:	19013f83          	ld	t6,400(sp)

0000000080002f0c <i_2883>:
    80002f0c:	01ef4463          	blt	t5,t5,80002f14 <i_2885>

0000000080002f10 <i_2884>:
    80002f10:	01ef9663          	bne	t6,t5,80002f1c <i_2887>

0000000080002f14 <i_2885>:
    80002f14:	e8613c23          	sd	t1,-360(sp)

0000000080002f18 <i_2886>:
    80002f18:	00000013          	nop

0000000080002f1c <i_2887>:
    80002f1c:	035f6f3b          	remw	t5,t5,s5

0000000080002f20 <i_2888>:
    80002f20:	e3e13823          	sd	t5,-464(sp)

0000000080002f24 <i_2889>:
    80002f24:	02c16383          	lwu	t2,44(sp)

0000000080002f28 <i_2890>:
    80002f28:	8ae00093          	li	ra,-1874

0000000080002f2c <i_2891>:
    80002f2c:	8c000e13          	li	t3,-1856

0000000080002f30 <i_2892>:
    80002f30:	01ee7c63          	bleu	t5,t3,80002f48 <i_2897>

0000000080002f34 <i_2893>:
    80002f34:	00108093          	addi	ra,ra,1 # e11f4225 <_end+0x611e3e11>
    80002f38:	fe1e5ce3          	ble	ra,t3,80002f30 <i_2892>

0000000080002f3c <i_2894>:
    80002f3c:	5fb0beb7          	lui	t4,0x5fb0b

0000000080002f40 <i_2895>:
    80002f40:	fc615a83          	lhu	s5,-58(sp)

0000000080002f44 <i_2896>:
    80002f44:	0f714c83          	lbu	s9,247(sp)

0000000080002f48 <i_2897>:
    80002f48:	03d53b33          	mulhu	s6,a0,t4

0000000080002f4c <i_2898>:
    80002f4c:	648eb613          	sltiu	a2,t4,1608

0000000080002f50 <i_2899>:
    80002f50:	03813283          	ld	t0,56(sp)

0000000080002f54 <i_2900>:
    80002f54:	e3d14b03          	lbu	s6,-451(sp)

0000000080002f58 <i_2901>:
    80002f58:	e6412903          	lw	s2,-412(sp)

0000000080002f5c <i_2902>:
    80002f5c:	f5812583          	lw	a1,-168(sp)

0000000080002f60 <i_2903>:
    80002f60:	eb910d23          	sb	s9,-326(sp)

0000000080002f64 <i_2904>:
    80002f64:	0035d493          	srli	s1,a1,0x3

0000000080002f68 <i_2905>:
    80002f68:	e8c12823          	sw	a2,-368(sp)

0000000080002f6c <i_2906>:
    80002f6c:	017b6663          	bltu	s6,s7,80002f78 <i_2909>

0000000080002f70 <i_2907>:
    80002f70:	f9b13c23          	sd	s11,-104(sp)

0000000080002f74 <i_2908>:
    80002f74:	4036529b          	sraiw	t0,a2,0x3

0000000080002f78 <i_2909>:
    80002f78:	d4ae0b97          	auipc	s7,0xd4ae0

0000000080002f7c <i_2910>:
    80002f7c:	fb012b83          	lw	s7,-80(sp)

0000000080002f80 <i_2911>:
    80002f80:	07816503          	lwu	a0,120(sp)

0000000080002f84 <i_2912>:
    80002f84:	09913c23          	sd	s9,152(sp)

0000000080002f88 <i_2913>:
    80002f88:	eb014b83          	lbu	s7,-336(sp)

0000000080002f8c <i_2914>:
    80002f8c:	00954463          	blt	a0,s1,80002f94 <i_2916>

0000000080002f90 <i_2915>:
    80002f90:	037b9bb3          	mulh	s7,s7,s7

0000000080002f94 <i_2916>:
    80002f94:	017b9a63          	bne	s7,s7,80002fa8 <i_2921>

0000000080002f98 <i_2917>:
    80002f98:	02d00b93          	li	s7,45

0000000080002f9c <i_2918>:
    80002f9c:	417bdbb3          	sra	s7,s7,s7

0000000080002fa0 <i_2919>:
    80002fa0:	01000e13          	li	t3,16

0000000080002fa4 <i_2920>:
    80002fa4:	01c9d9b3          	srl	s3,s3,t3

0000000080002fa8 <i_2921>:
    80002fa8:	0049dc93          	srli	s9,s3,0x4

0000000080002fac <i_2922>:
    80002fac:	14615e83          	lhu	t4,326(sp)

0000000080002fb0 <i_2923>:
    80002fb0:	02bebbb3          	mulhu	s7,t4,a1

0000000080002fb4 <i_2924>:
    80002fb4:	f1c12e83          	lw	t4,-228(sp)

0000000080002fb8 <i_2925>:
    80002fb8:	79c00513          	li	a0,1948

0000000080002fbc <i_2926>:
    80002fbc:	7a500613          	li	a2,1957

0000000080002fc0 <i_2927>:
    80002fc0:	f1812983          	lw	s3,-232(sp)

0000000080002fc4 <i_2928>:
    80002fc4:	03799063          	bne	s3,s7,80002fe4 <i_2935>

0000000080002fc8 <i_2929>:
    80002fc8:	00e00693          	li	a3,14

0000000080002fcc <i_2930>:
    80002fcc:	00dbd5bb          	srlw	a1,s7,a3

0000000080002fd0 <i_2931>:
    80002fd0:	e5411203          	lh	tp,-428(sp)

0000000080002fd4 <i_2932>:
    80002fd4:	00150513          	addi	a0,a0,1 # ffffffffa5a85001 <_end+0xffffffff25a74bed>
    80002fd8:	fec564e3          	bltu	a0,a2,80002fc0 <i_2927>

0000000080002fdc <i_2933>:
    80002fdc:	02b7e5bb          	remw	a1,a5,a1

0000000080002fe0 <i_2934>:
    80002fe0:	03a7b7b3          	mulhu	a5,a5,s10

0000000080002fe4 <i_2935>:
    80002fe4:	15416783          	lwu	a5,340(sp)

0000000080002fe8 <i_2936>:
    80002fe8:	00359793          	slli	a5,a1,0x3

0000000080002fec <i_2937>:
    80002fec:	04013203          	ld	tp,64(sp)

0000000080002ff0 <i_2938>:
    80002ff0:	02f7e463          	bltu	a5,a5,80003018 <i_2948>

0000000080002ff4 <i_2939>:
    80002ff4:	0382663b          	remw	a2,tp,s8

0000000080002ff8 <i_2940>:
    80002ff8:	19013603          	ld	a2,400(sp)

0000000080002ffc <i_2941>:
    80002ffc:	09d12e23          	sw	t4,156(sp)

0000000080003000 <i_2942>:
    80003000:	c1bb7b13          	andi	s6,s6,-997

0000000080003004 <i_2943>:
    80003004:	13c16483          	lwu	s1,316(sp)

0000000080003008 <i_2944>:
    80003008:	0eb109a3          	sb	a1,243(sp)

000000008000300c <i_2945>:
    8000300c:	16611903          	lh	s2,358(sp)

0000000080003010 <i_2946>:
    80003010:	f4d10903          	lb	s2,-179(sp)

0000000080003014 <i_2947>:
    80003014:	00813903          	ld	s2,8(sp)

0000000080003018 <i_2948>:
    80003018:	05211f23          	sh	s2,94(sp)

000000008000301c <i_2949>:
    8000301c:	01294863          	blt	s2,s2,8000302c <i_2953>

0000000080003020 <i_2950>:
    80003020:	01297863          	bleu	s2,s2,80003030 <i_2954>

0000000080003024 <i_2951>:
    80003024:	03b90463          	beq	s2,s11,8000304c <i_2961>

0000000080003028 <i_2952>:
    80003028:	17412583          	lw	a1,372(sp)

000000008000302c <i_2953>:
    8000302c:	00395c63          	ble	gp,s2,80003044 <i_2959>

0000000080003030 <i_2954>:
    80003030:	03600913          	li	s2,54

0000000080003034 <i_2955>:
    80003034:	01259933          	sll	s2,a1,s2

0000000080003038 <i_2956>:
    80003038:	18813c03          	ld	s8,392(sp)

000000008000303c <i_2957>:
    8000303c:	a3dc2913          	slti	s2,s8,-1475

0000000080003040 <i_2958>:
    80003040:	032c1063          	bne	s8,s2,80003060 <i_2966>

0000000080003044 <i_2959>:
    80003044:	e8313423          	sd	gp,-376(sp)

0000000080003048 <i_2960>:
    80003048:	0031919b          	slliw	gp,gp,0x3

000000008000304c <i_2961>:
    8000304c:	1d012203          	lw	tp,464(sp)

0000000080003050 <i_2962>:
    80003050:	0231d1b3          	divu	gp,gp,gp

0000000080003054 <i_2963>:
    80003054:	01e18f33          	add	t5,gp,t5

0000000080003058 <i_2964>:
    80003058:	01e7e1b3          	or	gp,a5,t5

000000008000305c <i_2965>:
    8000305c:	13c12e23          	sw	t3,316(sp)

0000000080003060 <i_2966>:
    80003060:	b8d1a293          	slti	t0,gp,-1139

0000000080003064 <i_2967>:
    80003064:	40528e3b          	subw	t3,t0,t0

0000000080003068 <i_2968>:
    80003068:	00000013          	nop

000000008000306c <i_2969>:
    8000306c:	8bf00193          	li	gp,-1857

0000000080003070 <i_2970>:
    80003070:	8cc00f13          	li	t5,-1844

0000000080003074 <i_2971>:
    80003074:	4037d79b          	sraiw	a5,a5,0x3

0000000080003078 <i_2972>:
    80003078:	1c814283          	lbu	t0,456(sp)

000000008000307c <i_2973>:
    8000307c:	ff016c03          	lwu	s8,-16(sp)

0000000080003080 <i_2974>:
    80003080:	0147fe33          	and	t3,a5,s4

0000000080003084 <i_2975>:
    80003084:	018786b3          	add	a3,a5,s8

0000000080003088 <i_2976>:
    80003088:	00d7ae33          	slt	t3,a5,a3

000000008000308c <i_2977>:
    8000308c:	02816e83          	lwu	t4,40(sp)

0000000080003090 <i_2978>:
    80003090:	00f6b7b3          	sltu	a5,a3,a5

0000000080003094 <i_2979>:
    80003094:	02fe9eb3          	mulh	t4,t4,a5

0000000080003098 <i_2980>:
    80003098:	03deb2b3          	mulhu	t0,t4,t4

000000008000309c <i_2981>:
    8000309c:	e4815e83          	lhu	t4,-440(sp)

00000000800030a0 <i_2982>:
    800030a0:	e2a14783          	lbu	a5,-470(sp)

00000000800030a4 <i_2983>:
    800030a4:	fbc15e83          	lhu	t4,-68(sp)

00000000800030a8 <i_2984>:
    800030a8:	ec812383          	lw	t2,-312(sp)

00000000800030ac <i_2985>:
    800030ac:	01615e83          	lhu	t4,22(sp)

00000000800030b0 <i_2986>:
    800030b0:	03dee263          	bltu	t4,t4,800030d4 <i_2994>

00000000800030b4 <i_2987>:
    800030b4:	00118193          	addi	gp,gp,1
    800030b8:	fbe1eee3          	bltu	gp,t5,80003074 <i_2971>

00000000800030bc <i_2988>:
    800030bc:	08510303          	lb	t1,133(sp)

00000000800030c0 <i_2989>:
    800030c0:	00900713          	li	a4,9

00000000800030c4 <i_2990>:
    800030c4:	40eed93b          	sraw	s2,t4,a4

00000000800030c8 <i_2991>:
    800030c8:	15bf7193          	andi	gp,t5,347

00000000800030cc <i_2992>:
    800030cc:	00a00193          	li	gp,10

00000000800030d0 <i_2993>:
    800030d0:	00355ebb          	srlw	t4,a0,gp

00000000800030d4 <i_2994>:
    800030d4:	cea70713          	addi	a4,a4,-790 # 4f93d68a <main-0x306c2976>

00000000800030d8 <i_2995>:
    800030d8:	00000013          	nop

00000000800030dc <i_2996>:
    800030dc:	84700f13          	li	t5,-1977

00000000800030e0 <i_2997>:
    800030e0:	84c00813          	li	a6,-1972

00000000800030e4 <i_2998>:
    800030e4:	f3010ea3          	sb	a6,-195(sp)

00000000800030e8 <i_2999>:
    800030e8:	001f0f13          	addi	t5,t5,1
    800030ec:	ff0f1ce3          	bne	t5,a6,800030e4 <i_2998>

00000000800030f0 <i_3000>:
    800030f0:	03774263          	blt	a4,s7,80003114 <i_3009>

00000000800030f4 <i_3001>:
    800030f4:	00700e93          	li	t4,7

00000000800030f8 <i_3002>:
    800030f8:	41dedb33          	sra	s6,t4,t4

00000000800030fc <i_3003>:
    800030fc:	398cab93          	slti	s7,s9,920

0000000080003100 <i_3004>:
    80003100:	1c011783          	lh	a5,448(sp)

0000000080003104 <i_3005>:
    80003104:	002b1b13          	slli	s6,s6,0x2

0000000080003108 <i_3006>:
    80003108:	10811b83          	lh	s7,264(sp)

000000008000310c <i_3007>:
    8000310c:	0fd10123          	sb	t4,226(sp)

0000000080003110 <i_3008>:
    80003110:	fa211183          	lh	gp,-94(sp)

0000000080003114 <i_3009>:
    80003114:	0165adb3          	slt	s11,a1,s6

0000000080003118 <i_3010>:
    80003118:	03dbd263          	ble	t4,s7,8000313c <i_3019>

000000008000311c <i_3011>:
    8000311c:	fdc11583          	lh	a1,-36(sp)

0000000080003120 <i_3012>:
    80003120:	1cb103a3          	sb	a1,455(sp)

0000000080003124 <i_3013>:
    80003124:	05b13423          	sd	s11,72(sp)

0000000080003128 <i_3014>:
    80003128:	1e314603          	lbu	a2,483(sp)

000000008000312c <i_3015>:
    8000312c:	0231f533          	remu	a0,gp,gp

0000000080003130 <i_3016>:
    80003130:	f7014603          	lbu	a2,-144(sp)

0000000080003134 <i_3017>:
    80003134:	00000013          	nop

0000000080003138 <i_3018>:
    80003138:	10615603          	lhu	a2,262(sp)

000000008000313c <i_3019>:
    8000313c:	e3610fa3          	sb	s6,-449(sp)

0000000080003140 <i_3020>:
    80003140:	038c7cbb          	remuw	s9,s8,s8

0000000080003144 <i_3021>:
    80003144:	78d00493          	li	s1,1933

0000000080003148 <i_3022>:
    80003148:	7a000c13          	li	s8,1952

000000008000314c <i_3023>:
    8000314c:	01d00793          	li	a5,29

0000000080003150 <i_3024>:
    80003150:	40f5553b          	sraw	a0,a0,a5

0000000080003154 <i_3025>:
    80003154:	f9d67213          	andi	tp,a2,-99

0000000080003158 <i_3026>:
    80003158:	f0816903          	lwu	s2,-248(sp)

000000008000315c <i_3027>:
    8000315c:	017c7e63          	bleu	s7,s8,80003178 <i_3033>

0000000080003160 <i_3028>:
    80003160:	f8410023          	sb	tp,-128(sp)

0000000080003164 <i_3029>:
    80003164:	035cce13          	xori	t3,s9,53

0000000080003168 <i_3030>:
    80003168:	00148493          	addi	s1,s1,1
    8000316c:	fe9c70e3          	bleu	s1,s8,8000314c <i_3023>

0000000080003170 <i_3031>:
    80003170:	00ae0cb3          	add	s9,t3,a0

0000000080003174 <i_3032>:
    80003174:	03ce7063          	bleu	t3,t3,80003194 <i_3040>

0000000080003178 <i_3033>:
    80003178:	f4413823          	sd	tp,-176(sp)

000000008000317c <i_3034>:
    8000317c:	9b0c8493          	addi	s1,s9,-1616

0000000080003180 <i_3035>:
    80003180:	0294de3b          	divuw	t3,s1,s1

0000000080003184 <i_3036>:
    80003184:	009e3cb3          	sltu	s9,t3,s1

0000000080003188 <i_3037>:
    80003188:	01ccf263          	bleu	t3,s9,8000318c <i_3038>

000000008000318c <i_3038>:
    8000318c:	17f13823          	sd	t6,368(sp)

0000000080003190 <i_3039>:
    80003190:	fae15b83          	lhu	s7,-82(sp)

0000000080003194 <i_3040>:
    80003194:	01c16903          	lwu	s2,28(sp)

0000000080003198 <i_3041>:
    80003198:	00000013          	nop

000000008000319c <i_3042>:
    8000319c:	7ed00e93          	li	t4,2029

00000000800031a0 <i_3043>:
    800031a0:	7f300293          	li	t0,2035

00000000800031a4 <i_3044>:
    800031a4:	1d7105a3          	sb	s7,459(sp)

00000000800031a8 <i_3045>:
    800031a8:	00000013          	nop

00000000800031ac <i_3046>:
    800031ac:	8ab00593          	li	a1,-1877

00000000800031b0 <i_3047>:
    800031b0:	8bc00c93          	li	s9,-1860

00000000800031b4 <i_3048>:
    800031b4:	2ac92913          	slti	s2,s2,684

00000000800031b8 <i_3049>:
    800031b8:	00000013          	nop

00000000800031bc <i_3050>:
    800031bc:	f5713c23          	sd	s7,-168(sp)

00000000800031c0 <i_3051>:
    800031c0:	00158593          	addi	a1,a1,1
    800031c4:	ff95c8e3          	blt	a1,s9,800031b4 <i_3048>

00000000800031c8 <i_3052>:
    800031c8:	0395c463          	blt	a1,s9,800031f0 <i_3061>

00000000800031cc <i_3053>:
    800031cc:	02e58433          	mul	s0,a1,a4

00000000800031d0 <i_3054>:
    800031d0:	001e8e93          	addi	t4,t4,1 # 5fb0b001 <main-0x204f4fff>
    800031d4:	fdd2f8e3          	bleu	t4,t0,800031a4 <i_3044>

00000000800031d8 <i_3055>:
    800031d8:	00bbdc63          	ble	a1,s7,800031f0 <i_3061>

00000000800031dc <i_3056>:
    800031dc:	1ab13023          	sd	a1,416(sp)

00000000800031e0 <i_3057>:
    800031e0:	012bb3b3          	sltu	t2,s7,s2

00000000800031e4 <i_3058>:
    800031e4:	e88102a3          	sb	s0,-379(sp)

00000000800031e8 <i_3059>:
    800031e8:	228c2b93          	slti	s7,s8,552

00000000800031ec <i_3060>:
    800031ec:	002bde93          	srli	t4,s7,0x2

00000000800031f0 <i_3061>:
    800031f0:	00700693          	li	a3,7

00000000800031f4 <i_3062>:
    800031f4:	40df5f3b          	sraw	t5,t5,a3

00000000800031f8 <i_3063>:
    800031f8:	eb613823          	sd	s6,-336(sp)

00000000800031fc <i_3064>:
    800031fc:	3caf2393          	slti	t2,t5,970

0000000080003200 <i_3065>:
    80003200:	ff214883          	lbu	a7,-14(sp)

0000000080003204 <i_3066>:
    80003204:	027f0263          	beq	t5,t2,80003228 <i_3075>

0000000080003208 <i_3067>:
    80003208:	13011e83          	lh	t4,304(sp)

000000008000320c <i_3068>:
    8000320c:	4516e893          	ori	a7,a3,1105

0000000080003210 <i_3069>:
    80003210:	029ee063          	bltu	t4,s1,80003230 <i_3077>

0000000080003214 <i_3070>:
    80003214:	bb69deb7          	lui	t4,0xbb69d

0000000080003218 <i_3071>:
    80003218:	ffd11523          	sh	t4,-22(sp)

000000008000321c <i_3072>:
    8000321c:	004ed49b          	srliw	s1,t4,0x4

0000000080003220 <i_3073>:
    80003220:	03f3f3b3          	remu	t2,t2,t6

0000000080003224 <i_3074>:
    80003224:	0094cc63          	blt	s1,s1,8000323c <i_3080>

0000000080003228 <i_3075>:
    80003228:	f1013c03          	ld	s8,-240(sp)

000000008000322c <i_3076>:
    8000322c:	036c1633          	mulh	a2,s8,s6

0000000080003230 <i_3077>:
    80003230:	029f0263          	beq	t5,s1,80003254 <i_3086>

0000000080003234 <i_3078>:
    80003234:	01d8dc63          	ble	t4,a7,8000324c <i_3084>

0000000080003238 <i_3079>:
    80003238:	02763f33          	mulhu	t5,a2,t2

000000008000323c <i_3080>:
    8000323c:	00700c13          	li	s8,7

0000000080003240 <i_3081>:
    80003240:	0188d83b          	srlw	a6,a7,s8

0000000080003244 <i_3082>:
    80003244:	e7013883          	ld	a7,-400(sp)

0000000080003248 <i_3083>:
    80003248:	01186e63          	bltu	a6,a7,80003264 <i_3090>

000000008000324c <i_3084>:
    8000324c:	eb412183          	lw	gp,-332(sp)

0000000080003250 <i_3085>:
    80003250:	0024da93          	srli	s5,s1,0x2

0000000080003254 <i_3086>:
    80003254:	1de15a83          	lhu	s5,478(sp)

0000000080003258 <i_3087>:
    80003258:	1ad14a83          	lbu	s5,429(sp)

000000008000325c <i_3088>:
    8000325c:	01812a83          	lw	s5,24(sp)

0000000080003260 <i_3089>:
    80003260:	015afc63          	bleu	s5,s5,80003278 <i_3095>

0000000080003264 <i_3090>:
    80003264:	02800c93          	li	s9,40

0000000080003268 <i_3091>:
    80003268:	019b9ab3          	sll	s5,s7,s9

000000008000326c <i_3092>:
    8000326c:	033595b3          	mulh	a1,a1,s3

0000000080003270 <i_3093>:
    80003270:	026ce263          	bltu	s9,t1,80003294 <i_3102>

0000000080003274 <i_3094>:
    80003274:	0391e2b3          	rem	t0,gp,s9

0000000080003278 <i_3095>:
    80003278:	0de11a03          	lh	s4,222(sp)

000000008000327c <i_3096>:
    8000327c:	008a4a63          	blt	s4,s0,80003290 <i_3101>

0000000080003280 <i_3097>:
    80003280:	016a0863          	beq	s4,s6,80003290 <i_3101>

0000000080003284 <i_3098>:
    80003284:	0351c463          	blt	gp,s5,800032ac <i_3108>

0000000080003288 <i_3099>:
    80003288:	005bc1b3          	xor	gp,s7,t0

000000008000328c <i_3100>:
    8000328c:	02e10923          	sb	a4,50(sp)

0000000080003290 <i_3101>:
    80003290:	023a8463          	beq	s5,gp,800032b8 <i_3111>

0000000080003294 <i_3102>:
    80003294:	115105a3          	sb	s5,267(sp)

0000000080003298 <i_3103>:
    80003298:	46bceb13          	ori	s6,s9,1131

000000008000329c <i_3104>:
    8000329c:	05513023          	sd	s5,64(sp)

00000000800032a0 <i_3105>:
    800032a0:	03b10423          	sb	s11,40(sp)

00000000800032a4 <i_3106>:
    800032a4:	01300a93          	li	s5,19

00000000800032a8 <i_3107>:
    800032a8:	0151dabb          	srlw	s5,gp,s5

00000000800032ac <i_3108>:
    800032ac:	03124063          	blt	tp,a7,800032cc <i_3116>

00000000800032b0 <i_3109>:
    800032b0:	00e00193          	li	gp,14

00000000800032b4 <i_3110>:
    800032b4:	4031d83b          	sraw	a6,gp,gp

00000000800032b8 <i_3111>:
    800032b8:	f4013b03          	ld	s6,-192(sp)

00000000800032bc <i_3112>:
    800032bc:	00c15a03          	lhu	s4,12(sp)

00000000800032c0 <i_3113>:
    800032c0:	e5110b23          	sb	a7,-426(sp)

00000000800032c4 <i_3114>:
    800032c4:	0143d463          	ble	s4,t2,800032cc <i_3116>

00000000800032c8 <i_3115>:
    800032c8:	ef013383          	ld	t2,-272(sp)

00000000800032cc <i_3116>:
    800032cc:	f30102a3          	sb	a6,-219(sp)

00000000800032d0 <i_3117>:
    800032d0:	003a4e63          	blt	s4,gp,800032ec <i_3124>

00000000800032d4 <i_3118>:
    800032d4:	09012403          	lw	s0,144(sp)

00000000800032d8 <i_3119>:
    800032d8:	0083d863          	ble	s0,t2,800032e8 <i_3123>

00000000800032dc <i_3120>:
    800032dc:	00d43fb3          	sltu	t6,s0,a3

00000000800032e0 <i_3121>:
    800032e0:	01f41863          	bne	s0,t6,800032f0 <i_3125>

00000000800032e4 <i_3122>:
    800032e4:	f2813423          	sd	s0,-216(sp)

00000000800032e8 <i_3123>:
    800032e8:	faa10403          	lb	s0,-86(sp)

00000000800032ec <i_3124>:
    800032ec:	eaa15f83          	lhu	t6,-342(sp)

00000000800032f0 <i_3125>:
    800032f0:	02844063          	blt	s0,s0,80003310 <i_3133>

00000000800032f4 <i_3126>:
    800032f4:	ee511b23          	sh	t0,-266(sp)

00000000800032f8 <i_3127>:
    800032f8:	014f8a33          	add	s4,t6,s4

00000000800032fc <i_3128>:
    800032fc:	03811583          	lh	a1,56(sp)

0000000080003300 <i_3129>:
    80003300:	4032d293          	srai	t0,t0,0x3

0000000080003304 <i_3130>:
    80003304:	00a00513          	li	a0,10

0000000080003308 <i_3131>:
    80003308:	00afdfbb          	srlw	t6,t6,a0

000000008000330c <i_3132>:
    8000330c:	0e012283          	lw	t0,224(sp)

0000000080003310 <i_3133>:
    80003310:	00653333          	sltu	t1,a0,t1

0000000080003314 <i_3134>:
    80003314:	1ca100a3          	sb	a0,449(sp)

0000000080003318 <i_3135>:
    80003318:	02a31463          	bne	t1,a0,80003340 <i_3145>

000000008000331c <i_3136>:
    8000331c:	0281f43b          	remuw	s0,gp,s0

0000000080003320 <i_3137>:
    80003320:	e3016f83          	lwu	t6,-464(sp)

0000000080003324 <i_3138>:
    80003324:	03f2c263          	blt	t0,t6,80003348 <i_3147>

0000000080003328 <i_3139>:
    80003328:	01b00693          	li	a3,27

000000008000332c <i_3140>:
    8000332c:	00d412b3          	sll	t0,s0,a3

0000000080003330 <i_3141>:
    80003330:	e9e15203          	lhu	tp,-354(sp)

0000000080003334 <i_3142>:
    80003334:	fba11403          	lh	s0,-70(sp)

0000000080003338 <i_3143>:
    80003338:	00469e63          	bne	a3,tp,80003354 <i_3150>

000000008000333c <i_3144>:
    8000333c:	05816303          	lwu	t1,88(sp)

0000000080003340 <i_3145>:
    80003340:	006326b3          	slt	a3,t1,t1

0000000080003344 <i_3146>:
    80003344:	00640463          	beq	s0,t1,8000334c <i_3148>

0000000080003348 <i_3147>:
    80003348:	10816403          	lwu	s0,264(sp)

000000008000334c <i_3148>:
    8000334c:	01a41663          	bne	s0,s10,80003358 <i_3151>

0000000080003350 <i_3149>:
    80003350:	409684bb          	subw	s1,a3,s1

0000000080003354 <i_3150>:
    80003354:	10415403          	lhu	s0,260(sp)

0000000080003358 <i_3151>:
    80003358:	00830633          	add	a2,t1,s0

000000008000335c <i_3152>:
    8000335c:	00600493          	li	s1,6

0000000080003360 <i_3153>:
    80003360:	00969533          	sll	a0,a3,s1

0000000080003364 <i_3154>:
    80003364:	ec813d03          	ld	s10,-312(sp)

0000000080003368 <i_3155>:
    80003368:	f6812623          	sw	s0,-148(sp)

000000008000336c <i_3156>:
    8000336c:	0d411483          	lh	s1,212(sp)

0000000080003370 <i_3157>:
    80003370:	03412423          	sw	s4,40(sp)

0000000080003374 <i_3158>:
    80003374:	eda10723          	sb	s10,-306(sp)

0000000080003378 <i_3159>:
    80003378:	00000013          	nop

000000008000337c <i_3160>:
    8000337c:	79d00993          	li	s3,1949

0000000080003380 <i_3161>:
    80003380:	7b100293          	li	t0,1969

0000000080003384 <i_3162>:
    80003384:	a7754f93          	xori	t6,a0,-1417

0000000080003388 <i_3163>:
    80003388:	0d312e23          	sw	s3,220(sp)

000000008000338c <i_3164>:
    8000338c:	72e00693          	li	a3,1838

0000000080003390 <i_3165>:
    80003390:	73b00493          	li	s1,1851

0000000080003394 <i_3166>:
    80003394:	15312223          	sw	s3,324(sp)

0000000080003398 <i_3167>:
    80003398:	00245393          	srli	t2,s0,0x2

000000008000339c <i_3168>:
    8000339c:	03b9d1b3          	divu	gp,s3,s11

00000000800033a0 <i_3169>:
    800033a0:	00168693          	addi	a3,a3,1
    800033a4:	fed4f8e3          	bleu	a3,s1,80003394 <i_3166>

00000000800033a8 <i_3170>:
    800033a8:	00011383          	lh	t2,0(sp)

00000000800033ac <i_3171>:
    800033ac:	05c10723          	sb	t3,78(sp)

00000000800033b0 <i_3172>:
    800033b0:	bed3e813          	ori	a6,t2,-1043

00000000800033b4 <i_3173>:
    800033b4:	18812e03          	lw	t3,392(sp)

00000000800033b8 <i_3174>:
    800033b8:	ec214e03          	lbu	t3,-318(sp)

00000000800033bc <i_3175>:
    800033bc:	00fe5c63          	ble	a5,t3,800033d4 <i_3180>

00000000800033c0 <i_3176>:
    800033c0:	00198993          	addi	s3,s3,1
    800033c4:	fc5990e3          	bne	s3,t0,80003384 <i_3162>

00000000800033c8 <i_3177>:
    800033c8:	fd611b03          	lh	s6,-42(sp)

00000000800033cc <i_3178>:
    800033cc:	001fdf93          	srli	t6,t6,0x1

00000000800033d0 <i_3179>:
    800033d0:	1ab14783          	lbu	a5,427(sp)

00000000800033d4 <i_3180>:
    800033d4:	0318683b          	remw	a6,a6,a7

00000000800033d8 <i_3181>:
    800033d8:	f9c12623          	sw	t3,-116(sp)

00000000800033dc <i_3182>:
    800033dc:	e9914883          	lbu	a7,-359(sp)

00000000800033e0 <i_3183>:
    800033e0:	00b00893          	li	a7,11

00000000800033e4 <i_3184>:
    800033e4:	411f5f33          	sra	t5,t5,a7

00000000800033e8 <i_3185>:
    800033e8:	f4c12a03          	lw	s4,-180(sp)

00000000800033ec <i_3186>:
    800033ec:	0147ca63          	blt	a5,s4,80003400 <i_3191>

00000000800033f0 <i_3187>:
    800033f0:	01ea0f33          	add	t5,s4,t5

00000000800033f4 <i_3188>:
    800033f4:	eb714d03          	lbu	s10,-329(sp)

00000000800033f8 <i_3189>:
    800033f8:	02800f13          	li	t5,40

00000000800033fc <i_3190>:
    800033fc:	01e5d5b3          	srl	a1,a1,t5

0000000080003400 <i_3191>:
    80003400:	ffe10223          	sb	t5,-28(sp)

0000000080003404 <i_3192>:
    80003404:	01f0a0b3          	slt	ra,ra,t6

0000000080003408 <i_3193>:
    80003408:	f4c15f83          	lhu	t6,-180(sp)

000000008000340c <i_3194>:
    8000340c:	00279793          	slli	a5,a5,0x2

0000000080003410 <i_3195>:
    80003410:	ebf11623          	sh	t6,-340(sp)

0000000080003414 <i_3196>:
    80003414:	f51107a3          	sb	a7,-177(sp)

0000000080003418 <i_3197>:
    80003418:	05615603          	lhu	a2,86(sp)

000000008000341c <i_3198>:
    8000341c:	01a79463          	bne	a5,s10,80003424 <i_3200>

0000000080003420 <i_3199>:
    80003420:	f6c13023          	sd	a2,-160(sp)

0000000080003424 <i_3200>:
    80003424:	fa610a03          	lb	s4,-90(sp)

0000000080003428 <i_3201>:
    80003428:	012f4a63          	blt	t5,s2,8000343c <i_3206>

000000008000342c <i_3202>:
    8000342c:	0115c263          	blt	a1,a7,80003430 <i_3203>

0000000080003430 <i_3203>:
    80003430:	16f13423          	sd	a5,360(sp)

0000000080003434 <i_3204>:
    80003434:	0df10703          	lb	a4,223(sp)

0000000080003438 <i_3205>:
    80003438:	021a33b3          	mulhu	t2,s4,ra

000000008000343c <i_3206>:
    8000343c:	00459a13          	slli	s4,a1,0x4

0000000080003440 <i_3207>:
    80003440:	f2112c23          	sw	ra,-200(sp)

0000000080003444 <i_3208>:
    80003444:	00ba4663          	blt	s4,a1,80003450 <i_3211>

0000000080003448 <i_3209>:
    80003448:	01a09663          	bne	ra,s10,80003454 <i_3212>

000000008000344c <i_3210>:
    8000344c:	0f414983          	lbu	s3,244(sp)

0000000080003450 <i_3211>:
    80003450:	08813403          	ld	s0,136(sp)

0000000080003454 <i_3212>:
    80003454:	f7012783          	lw	a5,-144(sp)

0000000080003458 <i_3213>:
    80003458:	f8016183          	lwu	gp,-128(sp)

000000008000345c <i_3214>:
    8000345c:	f1215783          	lhu	a5,-238(sp)

0000000080003460 <i_3215>:
    80003460:	03f94463          	blt	s2,t6,80003488 <i_3225>

0000000080003464 <i_3216>:
    80003464:	ffd10503          	lb	a0,-3(sp)

0000000080003468 <i_3217>:
    80003468:	027ae6bb          	remw	a3,s5,t2

000000008000346c <i_3218>:
    8000346c:	16c10883          	lb	a7,364(sp)

0000000080003470 <i_3219>:
    80003470:	e9112023          	sw	a7,-384(sp)

0000000080003474 <i_3220>:
    80003474:	00d6ee63          	bltu	a3,a3,80003490 <i_3227>

0000000080003478 <i_3221>:
    80003478:	e8a11223          	sh	a0,-380(sp)

000000008000347c <i_3222>:
    8000347c:	ea714a83          	lbu	s5,-345(sp)

0000000080003480 <i_3223>:
    80003480:	0118fa63          	bleu	a7,a7,80003494 <i_3228>

0000000080003484 <i_3224>:
    80003484:	02d68263          	beq	a3,a3,800034a8 <i_3233>

0000000080003488 <i_3225>:
    80003488:	e8012803          	lw	a6,-384(sp)

000000008000348c <i_3226>:
    8000348c:	01ff8fb3          	add	t6,t6,t6

0000000080003490 <i_3227>:
    80003490:	00a44c63          	blt	s0,a0,800034a8 <i_3233>

0000000080003494 <i_3228>:
    80003494:	f1111123          	sh	a7,-254(sp)

0000000080003498 <i_3229>:
    80003498:	8fd6851b          	addiw	a0,a3,-1795

000000008000349c <i_3230>:
    8000349c:	03f6c6bb          	divw	a3,a3,t6

00000000800034a0 <i_3231>:
    800034a0:	01080a63          	beq	a6,a6,800034b4 <i_3236>

00000000800034a4 <i_3232>:
    800034a4:	04215803          	lhu	a6,66(sp)

00000000800034a8 <i_3233>:
    800034a8:	03aff263          	bleu	s10,t6,800034cc <i_3242>

00000000800034ac <i_3234>:
    800034ac:	14c15483          	lhu	s1,332(sp)

00000000800034b0 <i_3235>:
    800034b0:	f4b10383          	lb	t2,-181(sp)

00000000800034b4 <i_3236>:
    800034b4:	e3838d13          	addi	s10,t2,-456 # ffffffff863bce38 <_end+0xffffffff063aca24>

00000000800034b8 <i_3237>:
    800034b8:	04913023          	sd	s1,64(sp)

00000000800034bc <i_3238>:
    800034bc:	40940a33          	sub	s4,s0,s1

00000000800034c0 <i_3239>:
    800034c0:	03410e23          	sb	s4,60(sp)

00000000800034c4 <i_3240>:
    800034c4:	01ad1263          	bne	s10,s10,800034c8 <i_3241>

00000000800034c8 <i_3241>:
    800034c8:	01ad0e63          	beq	s10,s10,800034e4 <i_3248>

00000000800034cc <i_3242>:
    800034cc:	5e583237          	lui	tp,0x5e583

00000000800034d0 <i_3243>:
    800034d0:	e7113823          	sd	a7,-400(sp)

00000000800034d4 <i_3244>:
    800034d4:	f2b10803          	lb	a6,-213(sp)

00000000800034d8 <i_3245>:
    800034d8:	12e15a03          	lhu	s4,302(sp)

00000000800034dc <i_3246>:
    800034dc:	fc514a03          	lbu	s4,-59(sp)

00000000800034e0 <i_3247>:
    800034e0:	01610483          	lb	s1,22(sp)

00000000800034e4 <i_3248>:
    800034e4:	03e14c83          	lbu	s9,62(sp)

00000000800034e8 <i_3249>:
    800034e8:	02924a3b          	divw	s4,tp,s1

00000000800034ec <i_3250>:
    800034ec:	02721063          	bne	tp,t2,8000350c <i_3258>

00000000800034f0 <i_3251>:
    800034f0:	0024d49b          	srliw	s1,s1,0x2

00000000800034f4 <i_3252>:
    800034f4:	fba10d23          	sb	s10,-70(sp)

00000000800034f8 <i_3253>:
    800034f8:	009ca4b3          	slt	s1,s9,s1

00000000800034fc <i_3254>:
    800034fc:	00149213          	slli	tp,s1,0x1

0000000080003500 <i_3255>:
    80003500:	05911e23          	sh	s9,92(sp)

0000000080003504 <i_3256>:
    80003504:	f0015a03          	lhu	s4,-256(sp)

0000000080003508 <i_3257>:
    80003508:	03948a3b          	mulw	s4,s1,s9

000000008000350c <i_3258>:
    8000350c:	fac10283          	lb	t0,-84(sp)

0000000080003510 <i_3259>:
    80003510:	0de10f23          	sb	t5,222(sp)

0000000080003514 <i_3260>:
    80003514:	e3510383          	lb	t2,-459(sp)

0000000080003518 <i_3261>:
    80003518:	00927a63          	bleu	s1,tp,8000352c <i_3266>

000000008000351c <i_3262>:
    8000351c:	0193ce63          	blt	t2,s9,80003538 <i_3269>

0000000080003520 <i_3263>:
    80003520:	00d48663          	beq	s1,a3,8000352c <i_3266>

0000000080003524 <i_3264>:
    80003524:	034a5abb          	divuw	s5,s4,s4

0000000080003528 <i_3265>:
    80003528:	f4a13c23          	sd	a0,-168(sp)

000000008000352c <i_3266>:
    8000352c:	05813b83          	ld	s7,88(sp)

0000000080003530 <i_3267>:
    80003530:	008cdc63          	ble	s0,s9,80003548 <i_3273>

0000000080003534 <i_3268>:
    80003534:	01b00d93          	li	s11,27

0000000080003538 <i_3269>:
    80003538:	01ba9abb          	sllw	s5,s5,s11

000000008000353c <i_3270>:
    8000353c:	015b8633          	add	a2,s7,s5

0000000080003540 <i_3271>:
    80003540:	01900d93          	li	s11,25

0000000080003544 <i_3272>:
    80003544:	01b4543b          	srlw	s0,s0,s11

0000000080003548 <i_3273>:
    80003548:	00cd8863          	beq	s11,a2,80003558 <i_3277>

000000008000354c <i_3274>:
    8000354c:	0026179b          	slliw	a5,a2,0x2

0000000080003550 <i_3275>:
    80003550:	00600e93          	li	t4,6

0000000080003554 <i_3276>:
    80003554:	01d65ebb          	srlw	t4,a2,t4

0000000080003558 <i_3277>:
    80003558:	13813703          	ld	a4,312(sp)

000000008000355c <i_3278>:
    8000355c:	00261313          	slli	t1,a2,0x2

0000000080003560 <i_3279>:
    80003560:	09a10d83          	lb	s11,154(sp)

0000000080003564 <i_3280>:
    80003564:	eda15583          	lhu	a1,-294(sp)

0000000080003568 <i_3281>:
    80003568:	f6b11a23          	sh	a1,-140(sp)

000000008000356c <i_3282>:
    8000356c:	e005b713          	sltiu	a4,a1,-512

0000000080003570 <i_3283>:
    80003570:	12611723          	sh	t1,302(sp)

0000000080003574 <i_3284>:
    80003574:	74d00c13          	li	s8,1869

0000000080003578 <i_3285>:
    80003578:	75d00193          	li	gp,1885

000000008000357c <i_3286>:
    8000357c:	fe610603          	lb	a2,-26(sp)

0000000080003580 <i_3287>:
    80003580:	02c71463          	bne	a4,a2,800035a8 <i_3296>

0000000080003584 <i_3288>:
    80003584:	00000013          	nop

0000000080003588 <i_3289>:
    80003588:	e4d109a3          	sb	a3,-429(sp)

000000008000358c <i_3290>:
    8000358c:	4036571b          	sraiw	a4,a2,0x3

0000000080003590 <i_3291>:
    80003590:	1c613823          	sd	t1,464(sp)

0000000080003594 <i_3292>:
    80003594:	001c0c13          	addi	s8,s8,1
    80003598:	fe3c42e3          	blt	s8,gp,8000357c <i_3286>

000000008000359c <i_3293>:
    8000359c:	09b12823          	sw	s11,144(sp)

00000000800035a0 <i_3294>:
    800035a0:	00a32c33          	slt	s8,t1,a0

00000000800035a4 <i_3295>:
    800035a4:	16c15a83          	lhu	s5,364(sp)

00000000800035a8 <i_3296>:
    800035a8:	03000613          	li	a2,48

00000000800035ac <i_3297>:
    800035ac:	40cdd633          	sra	a2,s11,a2

00000000800035b0 <i_3298>:
    800035b0:	f5016a83          	lwu	s5,-176(sp)

00000000800035b4 <i_3299>:
    800035b4:	e8c13c23          	sd	a2,-360(sp)

00000000800035b8 <i_3300>:
    800035b8:	f6510603          	lb	a2,-155(sp)

00000000800035bc <i_3301>:
    800035bc:	fcc13c23          	sd	a2,-40(sp)

00000000800035c0 <i_3302>:
    800035c0:	00e34db3          	xor	s11,t1,a4

00000000800035c4 <i_3303>:
    800035c4:	7b900613          	li	a2,1977

00000000800035c8 <i_3304>:
    800035c8:	7c900313          	li	t1,1993

00000000800035cc <i_3305>:
    800035cc:	00ed9e63          	bne	s11,a4,800035e8 <i_3312>

00000000800035d0 <i_3306>:
    800035d0:	01830263          	beq	t1,s8,800035d4 <i_3307>

00000000800035d4 <i_3307>:
    800035d4:	16010c03          	lb	s8,352(sp)

00000000800035d8 <i_3308>:
    800035d8:	418c0db3          	sub	s11,s8,s8

00000000800035dc <i_3309>:
    800035dc:	e2b14483          	lbu	s1,-469(sp)

00000000800035e0 <i_3310>:
    800035e0:	f9910e03          	lb	t3,-103(sp)

00000000800035e4 <i_3311>:
    800035e4:	10611c23          	sh	t1,280(sp)

00000000800035e8 <i_3312>:
    800035e8:	00f00c13          	li	s8,15

00000000800035ec <i_3313>:
    800035ec:	41835a3b          	sraw	s4,t1,s8

00000000800035f0 <i_3314>:
    800035f0:	f1811023          	sh	s8,-256(sp)

00000000800035f4 <i_3315>:
    800035f4:	f5413c23          	sd	s4,-168(sp)

00000000800035f8 <i_3316>:
    800035f8:	fc214203          	lbu	tp,-62(sp)

00000000800035fc <i_3317>:
    800035fc:	1be14c03          	lbu	s8,446(sp)

0000000080003600 <i_3318>:
    80003600:	00000013          	nop

0000000080003604 <i_3319>:
    80003604:	b39c3693          	sltiu	a3,s8,-1223

0000000080003608 <i_3320>:
    80003608:	00160613          	addi	a2,a2,1
    8000360c:	fcc370e3          	bleu	a2,t1,800035cc <i_3305>

0000000080003610 <i_3321>:
    80003610:	0016d213          	srli	tp,a3,0x1

0000000080003614 <i_3322>:
    80003614:	03c6f463          	bleu	t3,a3,8000363c <i_3332>

0000000080003618 <i_3323>:
    80003618:	17a12623          	sw	s10,364(sp)

000000008000361c <i_3324>:
    8000361c:	4396899b          	addiw	s3,a3,1081

0000000080003620 <i_3325>:
    80003620:	e6c12d03          	lw	s10,-404(sp)

0000000080003624 <i_3326>:
    80003624:	00000013          	nop

0000000080003628 <i_3327>:
    80003628:	00000013          	nop

000000008000362c <i_3328>:
    8000362c:	06e11783          	lh	a5,110(sp)

0000000080003630 <i_3329>:
    80003630:	13310123          	sb	s3,290(sp)

0000000080003634 <i_3330>:
    80003634:	e339829b          	addiw	t0,s3,-461

0000000080003638 <i_3331>:
    80003638:	07412183          	lw	gp,116(sp)

000000008000363c <i_3332>:
    8000363c:	e7016203          	lwu	tp,-400(sp)

0000000080003640 <i_3333>:
    80003640:	e6510323          	sb	t0,-410(sp)

0000000080003644 <i_3334>:
    80003644:	78900493          	li	s1,1929

0000000080003648 <i_3335>:
    80003648:	79100693          	li	a3,1937

000000008000364c <i_3336>:
    8000364c:	7472ad93          	slti	s11,t0,1863

0000000080003650 <i_3337>:
    80003650:	00148493          	addi	s1,s1,1
    80003654:	fed4cce3          	blt	s1,a3,8000364c <i_3336>

0000000080003658 <i_3338>:
    80003658:	e3412a23          	sw	s4,-460(sp)

000000008000365c <i_3339>:
    8000365c:	fec12283          	lw	t0,-20(sp)

0000000080003660 <i_3340>:
    80003660:	e2815983          	lhu	s3,-472(sp)

0000000080003664 <i_3341>:
    80003664:	01200e13          	li	t3,18

0000000080003668 <i_3342>:
    80003668:	41ca5a3b          	sraw	s4,s4,t3

000000008000366c <i_3343>:
    8000366c:	0c813b03          	ld	s6,200(sp)

0000000080003670 <i_3344>:
    80003670:	014b0663          	beq	s6,s4,8000367c <i_3347>

0000000080003674 <i_3345>:
    80003674:	0d4100a3          	sb	s4,193(sp)

0000000080003678 <i_3346>:
    80003678:	023e6abb          	remw	s5,t3,gp

000000008000367c <i_3347>:
    8000367c:	17110783          	lb	a5,369(sp)

0000000080003680 <i_3348>:
    80003680:	16811c83          	lh	s9,360(sp)

0000000080003684 <i_3349>:
    80003684:	f2013c83          	ld	s9,-224(sp)

0000000080003688 <i_3350>:
    80003688:	4ae78a13          	addi	s4,a5,1198

000000008000368c <i_3351>:
    8000368c:	abf59717          	auipc	a4,0xabf59

0000000080003690 <i_3352>:
    80003690:	139109a3          	sb	s9,307(sp)

0000000080003694 <i_3353>:
    80003694:	0342dcb3          	divu	s9,t0,s4

0000000080003698 <i_3354>:
    80003698:	034a5063          	ble	s4,s4,800036b8 <i_3362>

000000008000369c <i_3355>:
    8000369c:	e7013a03          	ld	s4,-400(sp)

00000000800036a0 <i_3356>:
    800036a0:	bf376e93          	ori	t4,a4,-1037

00000000800036a4 <i_3357>:
    800036a4:	01000613          	li	a2,16

00000000800036a8 <i_3358>:
    800036a8:	00ced733          	srl	a4,t4,a2

00000000800036ac <i_3359>:
    800036ac:	034a0063          	beq	s4,s4,800036cc <i_3367>

00000000800036b0 <i_3360>:
    800036b0:	01da7663          	bleu	t4,s4,800036bc <i_3363>

00000000800036b4 <i_3361>:
    800036b4:	05412823          	sw	s4,80(sp)

00000000800036b8 <i_3362>:
    800036b8:	1de10403          	lb	s0,478(sp)

00000000800036bc <i_3363>:
    800036bc:	00c6e863          	bltu	a3,a2,800036cc <i_3367>

00000000800036c0 <i_3364>:
    800036c0:	fac12a23          	sw	a2,-76(sp)

00000000800036c4 <i_3365>:
    800036c4:	03013e83          	ld	t4,48(sp)

00000000800036c8 <i_3366>:
    800036c8:	0ac12603          	lw	a2,172(sp)

00000000800036cc <i_3367>:
    800036cc:	00b0f463          	bleu	a1,ra,800036d4 <i_3369>

00000000800036d0 <i_3368>:
    800036d0:	00864a63          	blt	a2,s0,800036e4 <i_3373>

00000000800036d4 <i_3369>:
    800036d4:	0aa15603          	lhu	a2,170(sp)

00000000800036d8 <i_3370>:
    800036d8:	02ca5063          	ble	a2,s4,800036f8 <i_3378>

00000000800036dc <i_3371>:
    800036dc:	00000013          	nop

00000000800036e0 <i_3372>:
    800036e0:	14013a03          	ld	s4,320(sp)

00000000800036e4 <i_3373>:
    800036e4:	f5013a03          	ld	s4,-176(sp)

00000000800036e8 <i_3374>:
    800036e8:	00840a33          	add	s4,s0,s0

00000000800036ec <i_3375>:
    800036ec:	ed611583          	lh	a1,-298(sp)

00000000800036f0 <i_3376>:
    800036f0:	b40cac93          	slti	s9,s9,-1216

00000000800036f4 <i_3377>:
    800036f4:	fb112823          	sw	a7,-80(sp)

00000000800036f8 <i_3378>:
    800036f8:	fbe15983          	lhu	s3,-66(sp)

00000000800036fc <i_3379>:
    800036fc:	00300f13          	li	t5,3

0000000080003700 <i_3380>:
    80003700:	01eedcbb          	srlw	s9,t4,t5

0000000080003704 <i_3381>:
    80003704:	8b300413          	li	s0,-1869

0000000080003708 <i_3382>:
    80003708:	8bc00893          	li	a7,-1860

000000008000370c <i_3383>:
    8000370c:	00140413          	addi	s0,s0,1
    80003710:	fe88dce3          	ble	s0,a7,80003708 <i_3382>

0000000080003714 <i_3384>:
    80003714:	039c8cb3          	mul	s9,s9,s9

0000000080003718 <i_3385>:
    80003718:	11e13823          	sd	t5,272(sp)

000000008000371c <i_3386>:
    8000371c:	033f0263          	beq	t5,s3,80003740 <i_3395>

0000000080003720 <i_3387>:
    80003720:	fd710483          	lb	s1,-41(sp)

0000000080003724 <i_3388>:
    80003724:	03ecc463          	blt	s9,t5,8000374c <i_3398>

0000000080003728 <i_3389>:
    80003728:	001f5693          	srli	a3,t5,0x1

000000008000372c <i_3390>:
    8000372c:	13611b03          	lh	s6,310(sp)

0000000080003730 <i_3391>:
    80003730:	02900613          	li	a2,41

0000000080003734 <i_3392>:
    80003734:	40c6dcb3          	sra	s9,a3,a2

0000000080003738 <i_3393>:
    80003738:	fcc10c83          	lb	s9,-52(sp)

000000008000373c <i_3394>:
    8000373c:	16a15683          	lhu	a3,362(sp)

0000000080003740 <i_3395>:
    80003740:	27866993          	ori	s3,a2,632

0000000080003744 <i_3396>:
    80003744:	1c016603          	lwu	a2,448(sp)

0000000080003748 <i_3397>:
    80003748:	e6012d03          	lw	s10,-416(sp)

000000008000374c <i_3398>:
    8000374c:	01998263          	beq	s3,s9,80003750 <i_3399>

0000000080003750 <i_3399>:
    80003750:	01998663          	beq	s3,s9,8000375c <i_3402>

0000000080003754 <i_3400>:
    80003754:	14813983          	ld	s3,328(sp)

0000000080003758 <i_3401>:
    80003758:	00700a93          	li	s5,7

000000008000375c <i_3402>:
    8000375c:	415cdcb3          	sra	s9,s9,s5

0000000080003760 <i_3403>:
    80003760:	03c12b83          	lw	s7,60(sp)

0000000080003764 <i_3404>:
    80003764:	f5410c83          	lb	s9,-172(sp)

0000000080003768 <i_3405>:
    80003768:	03bbd263          	ble	s11,s7,8000378c <i_3414>

000000008000376c <i_3406>:
    8000376c:	004b9b9b          	slliw	s7,s7,0x4

0000000080003770 <i_3407>:
    80003770:	f3615603          	lhu	a2,-202(sp)

0000000080003774 <i_3408>:
    80003774:	52265b97          	auipc	s7,0x52265

0000000080003778 <i_3409>:
    80003778:	00013183          	ld	gp,0(sp)

000000008000377c <i_3410>:
    8000377c:	01900193          	li	gp,25

0000000080003780 <i_3411>:
    80003780:	403bdcb3          	sra	s9,s7,gp

0000000080003784 <i_3412>:
    80003784:	5b62f193          	andi	gp,t0,1462

0000000080003788 <i_3413>:
    80003788:	03bf52bb          	divuw	t0,t5,s11

000000008000378c <i_3414>:
    8000378c:	005282b3          	add	t0,t0,t0

0000000080003790 <i_3415>:
    80003790:	0252e263          	bltu	t0,t0,800037b4 <i_3424>

0000000080003794 <i_3416>:
    80003794:	0052c263          	blt	t0,t0,80003798 <i_3417>

0000000080003798 <i_3417>:
    80003798:	e2513823          	sd	t0,-464(sp)

000000008000379c <i_3418>:
    8000379c:	405e0e33          	sub	t3,t3,t0

00000000800037a0 <i_3419>:
    800037a0:	02546abb          	remw	s5,s0,t0

00000000800037a4 <i_3420>:
    800037a4:	f5816683          	lwu	a3,-168(sp)

00000000800037a8 <i_3421>:
    800037a8:	1ad13023          	sd	a3,416(sp)

00000000800037ac <i_3422>:
    800037ac:	029ef463          	bleu	s1,t4,800037d4 <i_3432>

00000000800037b0 <i_3423>:
    800037b0:	013bd663          	ble	s3,s7,800037bc <i_3426>

00000000800037b4 <i_3424>:
    800037b4:	1d416a83          	lwu	s5,468(sp)

00000000800037b8 <i_3425>:
    800037b8:	f3012e03          	lw	t3,-208(sp)

00000000800037bc <i_3426>:
    800037bc:	01500d93          	li	s11,21

00000000800037c0 <i_3427>:
    800037c0:	01b5dc3b          	srlw	s8,a1,s11

00000000800037c4 <i_3428>:
    800037c4:	03cde2bb          	remw	t0,s11,t3

00000000800037c8 <i_3429>:
    800037c8:	01700493          	li	s1,23

00000000800037cc <i_3430>:
    800037cc:	00929db3          	sll	s11,t0,s1

00000000800037d0 <i_3431>:
    800037d0:	00000013          	nop

00000000800037d4 <i_3432>:
    800037d4:	01b10283          	lb	t0,27(sp)

00000000800037d8 <i_3433>:
    800037d8:	fc110023          	sb	ra,-64(sp)

00000000800037dc <i_3434>:
    800037dc:	76e00993          	li	s3,1902

00000000800037e0 <i_3435>:
    800037e0:	77c00713          	li	a4,1916

00000000800037e4 <i_3436>:
    800037e4:	1d212c23          	sw	s2,472(sp)

00000000800037e8 <i_3437>:
    800037e8:	01310483          	lb	s1,19(sp)

00000000800037ec <i_3438>:
    800037ec:	0294e063          	bltu	s1,s1,8000380c <i_3445>

00000000800037f0 <i_3439>:
    800037f0:	13410483          	lb	s1,308(sp)

00000000800037f4 <i_3440>:
    800037f4:	0050c4b3          	xor	s1,ra,t0

00000000800037f8 <i_3441>:
    800037f8:	0eb14903          	lbu	s2,235(sp)

00000000800037fc <i_3442>:
    800037fc:	00198993          	addi	s3,s3,1
    80003800:	fee9e2e3          	bltu	s3,a4,800037e4 <i_3436>

0000000080003804 <i_3443>:
    80003804:	0324e533          	rem	a0,s1,s2

0000000080003808 <i_3444>:
    80003808:	00000013          	nop

000000008000380c <i_3445>:
    8000380c:	40550333          	sub	t1,a0,t0

0000000080003810 <i_3446>:
    80003810:	00000013          	nop

0000000080003814 <i_3447>:
    80003814:	7b700c93          	li	s9,1975

0000000080003818 <i_3448>:
    80003818:	7c500c13          	li	s8,1989

000000008000381c <i_3449>:
    8000381c:	028124b7          	lui	s1,0x2812

0000000080003820 <i_3450>:
    80003820:	00813503          	ld	a0,8(sp)

0000000080003824 <i_3451>:
    80003824:	02a47433          	remu	s0,s0,a0

0000000080003828 <i_3452>:
    80003828:	02957bb3          	remu	s7,a0,s1

000000008000382c <i_3453>:
    8000382c:	02634263          	blt	t1,t1,80003850 <i_3461>

0000000080003830 <i_3454>:
    80003830:	e6e15403          	lhu	s0,-402(sp)

0000000080003834 <i_3455>:
    80003834:	10016303          	lwu	t1,256(sp)

0000000080003838 <i_3456>:
    80003838:	00000013          	nop

000000008000383c <i_3457>:
    8000383c:	1c611223          	sh	t1,452(sp)

0000000080003840 <i_3458>:
    80003840:	001c8c93          	addi	s9,s9,1
    80003844:	fd9c5ce3          	ble	s9,s8,8000381c <i_3449>

0000000080003848 <i_3459>:
    80003848:	0d0af337          	lui	t1,0xd0af

000000008000384c <i_3460>:
    8000384c:	037bd463          	ble	s7,s7,80003874 <i_3470>

0000000080003850 <i_3461>:
    80003850:	03f33333          	mulhu	t1,t1,t6

0000000080003854 <i_3462>:
    80003854:	0c811303          	lh	t1,200(sp)

0000000080003858 <i_3463>:
    80003858:	4015551b          	sraiw	a0,a0,0x1

000000008000385c <i_3464>:
    8000385c:	f7a11483          	lh	s1,-134(sp)

0000000080003860 <i_3465>:
    80003860:	00a31e63          	bne	t1,a0,8000387c <i_3472>

0000000080003864 <i_3466>:
    80003864:	00930fb3          	add	t6,t1,s1

0000000080003868 <i_3467>:
    80003868:	026d7463          	bleu	t1,s10,80003890 <i_3477>

000000008000386c <i_3468>:
    8000386c:	6af4ea93          	ori	s5,s1,1711

0000000080003870 <i_3469>:
    80003870:	f9814883          	lbu	a7,-104(sp)

0000000080003874 <i_3470>:
    80003874:	fd113023          	sd	a7,-64(sp)

0000000080003878 <i_3471>:
    80003878:	ecc16683          	lwu	a3,-308(sp)

000000008000387c <i_3472>:
    8000387c:	f0e13823          	sd	a4,-240(sp)

0000000080003880 <i_3473>:
    80003880:	e9110383          	lb	t2,-367(sp)

0000000080003884 <i_3474>:
    80003884:	03f39463          	bne	t2,t6,800038ac <i_3484>

0000000080003888 <i_3475>:
    80003888:	08611223          	sh	t1,132(sp)

000000008000388c <i_3476>:
    8000388c:	1c913823          	sd	s1,464(sp)

0000000080003890 <i_3477>:
    80003890:	00dfcfb3          	xor	t6,t6,a3

0000000080003894 <i_3478>:
    80003894:	01f6cc63          	blt	a3,t6,800038ac <i_3484>

0000000080003898 <i_3479>:
    80003898:	f1412c03          	lw	s8,-236(sp)

000000008000389c <i_3480>:
    8000389c:	16211b03          	lh	s6,354(sp)

00000000800038a0 <i_3481>:
    800038a0:	03f6aeb3          	mulhsu	t4,a3,t6

00000000800038a4 <i_3482>:
    800038a4:	00a6ee63          	bltu	a3,a0,800038c0 <i_3489>

00000000800038a8 <i_3483>:
    800038a8:	e2d11e23          	sh	a3,-452(sp)

00000000800038ac <i_3484>:
    800038ac:	17215b03          	lhu	s6,370(sp)

00000000800038b0 <i_3485>:
    800038b0:	0ed100a3          	sb	a3,225(sp)

00000000800038b4 <i_3486>:
    800038b4:	1d215b83          	lhu	s7,466(sp)

00000000800038b8 <i_3487>:
    800038b8:	00138c63          	beq	t2,ra,800038d0 <i_3493>

00000000800038bc <i_3488>:
    800038bc:	00bffcb3          	and	s9,t6,a1

00000000800038c0 <i_3489>:
    800038c0:	03fcc463          	blt	s9,t6,800038e8 <i_3499>

00000000800038c4 <i_3490>:
    800038c4:	002b9f9b          	slliw	t6,s7,0x2

00000000800038c8 <i_3491>:
    800038c8:	0f013883          	ld	a7,240(sp)

00000000800038cc <i_3492>:
    800038cc:	03fbc463          	blt	s7,t6,800038f4 <i_3502>

00000000800038d0 <i_3493>:
    800038d0:	08013703          	ld	a4,128(sp)

00000000800038d4 <i_3494>:
    800038d4:	09f12223          	sw	t6,132(sp)

00000000800038d8 <i_3495>:
    800038d8:	01200393          	li	t2,18

00000000800038dc <i_3496>:
    800038dc:	0072d2b3          	srl	t0,t0,t2

00000000800038e0 <i_3497>:
    800038e0:	e3012283          	lw	t0,-464(sp)

00000000800038e4 <i_3498>:
    800038e4:	eb215783          	lhu	a5,-334(sp)

00000000800038e8 <i_3499>:
    800038e8:	e5f2b293          	sltiu	t0,t0,-417

00000000800038ec <i_3500>:
    800038ec:	00329c63          	bne	t0,gp,80003904 <i_3506>

00000000800038f0 <i_3501>:
    800038f0:	00728e63          	beq	t0,t2,8000390c <i_3508>

00000000800038f4 <i_3502>:
    800038f4:	09811d03          	lh	s10,152(sp)

00000000800038f8 <i_3503>:
    800038f8:	4052853b          	subw	a0,t0,t0

00000000800038fc <i_3504>:
    800038fc:	0ea10d03          	lb	s10,234(sp)

0000000080003900 <i_3505>:
    80003900:	01a0ebb3          	or	s7,ra,s10

0000000080003904 <i_3506>:
    80003904:	01a13023          	sd	s10,0(sp)

0000000080003908 <i_3507>:
    80003908:	f1514403          	lbu	s0,-235(sp)

000000008000390c <i_3508>:
    8000390c:	eb615403          	lhu	s0,-330(sp)

0000000080003910 <i_3509>:
    80003910:	01afec33          	or	s8,t6,s10

0000000080003914 <i_3510>:
    80003914:	7ec00093          	li	ra,2028

0000000080003918 <i_3511>:
    80003918:	7f800f93          	li	t6,2040

000000008000391c <i_3512>:
    8000391c:	04816803          	lwu	a6,72(sp)

0000000080003920 <i_3513>:
    80003920:	01ad6db3          	or	s11,s10,s10

0000000080003924 <i_3514>:
    80003924:	f9012d03          	lw	s10,-112(sp)

0000000080003928 <i_3515>:
    80003928:	00000013          	nop

000000008000392c <i_3516>:
    8000392c:	00108093          	addi	ra,ra,1
    80003930:	fe1fd6e3          	ble	ra,t6,8000391c <i_3512>

0000000080003934 <i_3517>:
    80003934:	1d811183          	lh	gp,472(sp)

0000000080003938 <i_3518>:
    80003938:	01ad0263          	beq	s10,s10,8000393c <i_3519>

000000008000393c <i_3519>:
    8000393c:	4038551b          	sraiw	a0,a6,0x3

0000000080003940 <i_3520>:
    80003940:	fbc12703          	lw	a4,-68(sp)

0000000080003944 <i_3521>:
    80003944:	02e1f3b3          	remu	t2,gp,a4

0000000080003948 <i_3522>:
    80003948:	e4b10b83          	lb	s7,-437(sp)

000000008000394c <i_3523>:
    8000394c:	1a812503          	lw	a0,424(sp)

0000000080003950 <i_3524>:
    80003950:	02ebc063          	blt	s7,a4,80003970 <i_3532>

0000000080003954 <i_3525>:
    80003954:	13812c23          	sw	s8,312(sp)

0000000080003958 <i_3526>:
    80003958:	e3713423          	sd	s7,-472(sp)

000000008000395c <i_3527>:
    8000395c:	02a70463          	beq	a4,a0,80003984 <i_3537>

0000000080003960 <i_3528>:
    80003960:	e3416803          	lwu	a6,-460(sp)

0000000080003964 <i_3529>:
    80003964:	15010c23          	sb	a6,344(sp)

0000000080003968 <i_3530>:
    80003968:	13013c23          	sd	a6,312(sp)

000000008000396c <i_3531>:
    8000396c:	5b7a2837          	lui	a6,0x5b7a2

0000000080003970 <i_3532>:
    80003970:	01034863          	blt	t1,a6,80003980 <i_3536>

0000000080003974 <i_3533>:
    80003974:	e8713023          	sd	t2,-384(sp)

0000000080003978 <i_3534>:
    80003978:	025137b3          	mulhu	a5,sp,t0

000000008000397c <i_3535>:
    8000397c:	01077263          	bleu	a6,a4,80003980 <i_3536>

0000000080003980 <i_3536>:
    80003980:	0107da63          	ble	a6,a5,80003994 <i_3541>

0000000080003984 <i_3537>:
    80003984:	02b7f063          	bleu	a1,a5,800039a4 <i_3545>

0000000080003988 <i_3538>:
    80003988:	f2816b83          	lwu	s7,-216(sp)

000000008000398c <i_3539>:
    8000398c:	ee810883          	lb	a7,-280(sp)

0000000080003990 <i_3540>:
    80003990:	1be13c23          	sd	t5,440(sp)

0000000080003994 <i_3541>:
    80003994:	0fc12b83          	lw	s7,252(sp)

0000000080003998 <i_3542>:
    80003998:	ee813503          	ld	a0,-280(sp)

000000008000399c <i_3543>:
    8000399c:	0112f2b3          	and	t0,t0,a7

00000000800039a0 <i_3544>:
    800039a0:	0387d8bb          	divuw	a7,a5,s8

00000000800039a4 <i_3545>:
    800039a4:	e9111b23          	sh	a7,-362(sp)

00000000800039a8 <i_3546>:
    800039a8:	01a00c13          	li	s8,26

00000000800039ac <i_3547>:
    800039ac:	4187d83b          	sraw	a6,a5,s8

00000000800039b0 <i_3548>:
    800039b0:	018c5863          	ble	s8,s8,800039c0 <i_3552>

00000000800039b4 <i_3549>:
    800039b4:	13112223          	sw	a7,292(sp)

00000000800039b8 <i_3550>:
    800039b8:	f9012e23          	sw	a6,-100(sp)

00000000800039bc <i_3551>:
    800039bc:	01820463          	beq	tp,s8,800039c4 <i_3553>

00000000800039c0 <i_3552>:
    800039c0:	e3815803          	lhu	a6,-456(sp)

00000000800039c4 <i_3553>:
    800039c4:	01813423          	sd	s8,8(sp)

00000000800039c8 <i_3554>:
    800039c8:	0ec11803          	lh	a6,236(sp)

00000000800039cc <i_3555>:
    800039cc:	011c1e63          	bne	s8,a7,800039e8 <i_3562>

00000000800039d0 <i_3556>:
    800039d0:	fb111423          	sh	a7,-88(sp)

00000000800039d4 <i_3557>:
    800039d4:	0318cc3b          	divw	s8,a7,a7

00000000800039d8 <i_3558>:
    800039d8:	0d012623          	sw	a6,204(sp)

00000000800039dc <i_3559>:
    800039dc:	fa311e23          	sh	gp,-68(sp)

00000000800039e0 <i_3560>:
    800039e0:	ec04a393          	slti	t2,s1,-320

00000000800039e4 <i_3561>:
    800039e4:	0fc11483          	lh	s1,252(sp)

00000000800039e8 <i_3562>:
    800039e8:	ef114703          	lbu	a4,-271(sp)

00000000800039ec <i_3563>:
    800039ec:	09813503          	ld	a0,152(sp)

00000000800039f0 <i_3564>:
    800039f0:	02e3f3b3          	remu	t2,t2,a4

00000000800039f4 <i_3565>:
    800039f4:	04712223          	sw	t2,68(sp)

00000000800039f8 <i_3566>:
    800039f8:	a574af13          	slti	t5,s1,-1449

00000000800039fc <i_3567>:
    800039fc:	f0013a83          	ld	s5,-256(sp)

0000000080003a00 <i_3568>:
    80003a00:	13910d03          	lb	s10,313(sp)

0000000080003a04 <i_3569>:
    80003a04:	012d0663          	beq	s10,s2,80003a10 <i_3572>

0000000080003a08 <i_3570>:
    80003a08:	010d5a63          	ble	a6,s10,80003a1c <i_3575>

0000000080003a0c <i_3571>:
    80003a0c:	015d4863          	blt	s10,s5,80003a1c <i_3575>

0000000080003a10 <i_3572>:
    80003a10:	e6610483          	lb	s1,-410(sp)

0000000080003a14 <i_3573>:
    80003a14:	00000013          	nop

0000000080003a18 <i_3574>:
    80003a18:	00000013          	nop

0000000080003a1c <i_3575>:
    80003a1c:	05513823          	sd	s5,80(sp)

0000000080003a20 <i_3576>:
    80003a20:	f6910e23          	sb	s1,-132(sp)

0000000080003a24 <i_3577>:
    80003a24:	7bb00d13          	li	s10,1979

0000000080003a28 <i_3578>:
    80003a28:	7c900a93          	li	s5,1993

0000000080003a2c <i_3579>:
    80003a2c:	e5a11123          	sh	s10,-446(sp)

0000000080003a30 <i_3580>:
    80003a30:	14013603          	ld	a2,320(sp)

0000000080003a34 <i_3581>:
    80003a34:	e3510ca3          	sb	s5,-455(sp)

0000000080003a38 <i_3582>:
    80003a38:	039ac263          	blt	s5,s9,80003a5c <i_3590>

0000000080003a3c <i_3583>:
    80003a3c:	9beace13          	xori	t3,s5,-1602

0000000080003a40 <i_3584>:
    80003a40:	001d0d13          	addi	s10,s10,1 # ffffffffe86f1001 <_end+0xffffffff686e0bed>
    80003a44:	ff5d44e3          	blt	s10,s5,80003a2c <i_3579>

0000000080003a48 <i_3585>:
    80003a48:	003ad99b          	srliw	s3,s5,0x3

0000000080003a4c <i_3586>:
    80003a4c:	18912623          	sw	s1,396(sp)

0000000080003a50 <i_3587>:
    80003a50:	035d7063          	bleu	s5,s10,80003a70 <i_3595>

0000000080003a54 <i_3588>:
    80003a54:	01ed6c63          	bltu	s10,t5,80003a6c <i_3594>

0000000080003a58 <i_3589>:
    80003a58:	1d815a83          	lhu	s5,472(sp)

0000000080003a5c <i_3590>:
    80003a5c:	403ada93          	srai	s5,s5,0x3

0000000080003a60 <i_3591>:
    80003a60:	f6910703          	lb	a4,-151(sp)

0000000080003a64 <i_3592>:
    80003a64:	01a00513          	li	a0,26

0000000080003a68 <i_3593>:
    80003a68:	00a59abb          	sllw	s5,a1,a0

0000000080003a6c <i_3594>:
    80003a6c:	13c10a83          	lb	s5,316(sp)

0000000080003a70 <i_3595>:
    80003a70:	02aa0a33          	mul	s4,s4,a0

0000000080003a74 <i_3596>:
    80003a74:	ea3a0c9b          	addiw	s9,s4,-349

0000000080003a78 <i_3597>:
    80003a78:	00ccb513          	sltiu	a0,s9,12

0000000080003a7c <i_3598>:
    80003a7c:	18012503          	lw	a0,384(sp)

0000000080003a80 <i_3599>:
    80003a80:	002cd51b          	srliw	a0,s9,0x2

0000000080003a84 <i_3600>:
    80003a84:	0fa10783          	lb	a5,250(sp)

0000000080003a88 <i_3601>:
    80003a88:	15812203          	lw	tp,344(sp)

0000000080003a8c <i_3602>:
    80003a8c:	ffc12b03          	lw	s6,-4(sp)

0000000080003a90 <i_3603>:
    80003a90:	05412903          	lw	s2,84(sp)

0000000080003a94 <i_3604>:
    80003a94:	03656463          	bltu	a0,s6,80003abc <i_3614>

0000000080003a98 <i_3605>:
    80003a98:	09c12c83          	lw	s9,156(sp)

0000000080003a9c <i_3606>:
    80003a9c:	07016503          	lwu	a0,112(sp)

0000000080003aa0 <i_3607>:
    80003aa0:	f3913023          	sd	s9,-224(sp)

0000000080003aa4 <i_3608>:
    80003aa4:	03224b3b          	divw	s6,tp,s2

0000000080003aa8 <i_3609>:
    80003aa8:	02e00b13          	li	s6,46

0000000080003aac <i_3610>:
    80003aac:	416955b3          	sra	a1,s2,s6

0000000080003ab0 <i_3611>:
    80003ab0:	00c44233          	xor	tp,s0,a2

0000000080003ab4 <i_3612>:
    80003ab4:	1cb12623          	sw	a1,460(sp)

0000000080003ab8 <i_3613>:
    80003ab8:	016b4633          	xor	a2,s6,s6

0000000080003abc <i_3614>:
    80003abc:	0e013703          	ld	a4,224(sp)

0000000080003ac0 <i_3615>:
    80003ac0:	00427e63          	bleu	tp,tp,80003adc <i_3622>

0000000080003ac4 <i_3616>:
    80003ac4:	02c74063          	blt	a4,a2,80003ae4 <i_3624>

0000000080003ac8 <i_3617>:
    80003ac8:	f7811303          	lh	t1,-136(sp)

0000000080003acc <i_3618>:
    80003acc:	01100213          	li	tp,17

0000000080003ad0 <i_3619>:
    80003ad0:	4043563b          	sraw	a2,t1,tp

0000000080003ad4 <i_3620>:
    80003ad4:	eb314803          	lbu	a6,-333(sp)

0000000080003ad8 <i_3621>:
    80003ad8:	a9660613          	addi	a2,a2,-1386

0000000080003adc <i_3622>:
    80003adc:	00c00d93          	li	s11,12

0000000080003ae0 <i_3623>:
    80003ae0:	01b357bb          	srlw	a5,t1,s11

0000000080003ae4 <i_3624>:
    80003ae4:	3db3029b          	addiw	t0,t1,987

0000000080003ae8 <i_3625>:
    80003ae8:	e2410323          	sb	tp,-474(sp)

0000000080003aec <i_3626>:
    80003aec:	89c00713          	li	a4,-1892

0000000080003af0 <i_3627>:
    80003af0:	8a600613          	li	a2,-1882

0000000080003af4 <i_3628>:
    80003af4:	e2c10b23          	sb	a2,-458(sp)

0000000080003af8 <i_3629>:
    80003af8:	00170713          	addi	a4,a4,1 # 2bf5c68d <main-0x540a3973>
    80003afc:	fec74ce3          	blt	a4,a2,80003af4 <i_3628>

0000000080003b00 <i_3630>:
    80003b00:	f3c12303          	lw	t1,-196(sp)

0000000080003b04 <i_3631>:
    80003b04:	fc211a83          	lh	s5,-62(sp)

0000000080003b08 <i_3632>:
    80003b08:	00681e63          	bne	a6,t1,80003b24 <i_3639>

0000000080003b0c <i_3633>:
    80003b0c:	010df463          	bleu	a6,s11,80003b14 <i_3635>

0000000080003b10 <i_3634>:
    80003b10:	00713023          	sd	t2,0(sp)

0000000080003b14 <i_3635>:
    80003b14:	01b86c63          	bltu	a6,s11,80003b2c <i_3641>

0000000080003b18 <i_3636>:
    80003b18:	03b84463          	blt	a6,s11,80003b40 <i_3646>

0000000080003b1c <i_3637>:
    80003b1c:	e9016603          	lwu	a2,-368(sp)

0000000080003b20 <i_3638>:
    80003b20:	0db11323          	sh	s11,198(sp)

0000000080003b24 <i_3639>:
    80003b24:	00381593          	slli	a1,a6,0x3

0000000080003b28 <i_3640>:
    80003b28:	19010023          	sb	a6,384(sp)

0000000080003b2c <i_3641>:
    80003b2c:	025db6b3          	mulhu	a3,s11,t0

0000000080003b30 <i_3642>:
    80003b30:	fac15603          	lhu	a2,-84(sp)

0000000080003b34 <i_3643>:
    80003b34:	c9d2ad93          	slti	s11,t0,-867

0000000080003b38 <i_3644>:
    80003b38:	08c11023          	sh	a2,128(sp)

0000000080003b3c <i_3645>:
    80003b3c:	0016dd1b          	srliw	s10,a3,0x1

0000000080003b40 <i_3646>:
    80003b40:	02cd8cb3          	mul	s9,s11,a2

0000000080003b44 <i_3647>:
    80003b44:	f7a12223          	sw	s10,-156(sp)

0000000080003b48 <i_3648>:
    80003b48:	00ddec63          	bltu	s11,a3,80003b60 <i_3654>

0000000080003b4c <i_3649>:
    80003b4c:	ff812583          	lw	a1,-8(sp)

0000000080003b50 <i_3650>:
    80003b50:	06811583          	lh	a1,104(sp)

0000000080003b54 <i_3651>:
    80003b54:	f7410ca3          	sb	s4,-135(sp)

0000000080003b58 <i_3652>:
    80003b58:	03a85cbb          	divuw	s9,a6,s10

0000000080003b5c <i_3653>:
    80003b5c:	0ca11903          	lh	s2,202(sp)

0000000080003b60 <i_3654>:
    80003b60:	00000013          	nop

0000000080003b64 <i_3655>:
    80003b64:	e7a102a3          	sb	s10,-411(sp)

0000000080003b68 <i_3656>:
    80003b68:	7cd00d13          	li	s10,1997

0000000080003b6c <i_3657>:
    80003b6c:	7de00413          	li	s0,2014

0000000080003b70 <i_3658>:
    80003b70:	e7510903          	lb	s2,-395(sp)

0000000080003b74 <i_3659>:
    80003b74:	2ffba497          	auipc	s1,0x2ffba

0000000080003b78 <i_3660>:
    80003b78:	73e00693          	li	a3,1854

0000000080003b7c <i_3661>:
    80003b7c:	75200393          	li	t2,1874

0000000080003b80 <i_3662>:
    80003b80:	15210f23          	sb	s2,350(sp)

0000000080003b84 <i_3663>:
    80003b84:	00168693          	addi	a3,a3,1
    80003b88:	fe76cce3          	blt	a3,t2,80003b80 <i_3662>

0000000080003b8c <i_3664>:
    80003b8c:	01416683          	lwu	a3,20(sp)

0000000080003b90 <i_3665>:
    80003b90:	0296b933          	mulhu	s2,a3,s1

0000000080003b94 <i_3666>:
    80003b94:	1db104a3          	sb	s11,457(sp)

0000000080003b98 <i_3667>:
    80003b98:	e1a10883          	lb	a7,-486(sp)

0000000080003b9c <i_3668>:
    80003b9c:	ed016b83          	lwu	s7,-304(sp)

0000000080003ba0 <i_3669>:
    80003ba0:	001d0d13          	addi	s10,s10,1
    80003ba4:	fda456e3          	ble	s10,s0,80003b70 <i_3658>

0000000080003ba8 <i_3670>:
    80003ba8:	18e14d03          	lbu	s10,398(sp)

0000000080003bac <i_3671>:
    80003bac:	004ada9b          	srliw	s5,s5,0x4

0000000080003bb0 <i_3672>:
    80003bb0:	035bc063          	blt	s7,s5,80003bd0 <i_3680>

0000000080003bb4 <i_3673>:
    80003bb4:	fd611a83          	lh	s5,-42(sp)

0000000080003bb8 <i_3674>:
    80003bb8:	05813583          	ld	a1,88(sp)

0000000080003bbc <i_3675>:
    80003bbc:	f3e15c03          	lhu	s8,-194(sp)

0000000080003bc0 <i_3676>:
    80003bc0:	02bc2eb3          	mulhsu	t4,s8,a1

0000000080003bc4 <i_3677>:
    80003bc4:	eba11183          	lh	gp,-326(sp)

0000000080003bc8 <i_3678>:
    80003bc8:	00000013          	nop

0000000080003bcc <i_3679>:
    80003bcc:	eba14283          	lbu	t0,-326(sp)

0000000080003bd0 <i_3680>:
    80003bd0:	023843bb          	divw	t2,a6,gp

0000000080003bd4 <i_3681>:
    80003bd4:	03868c3b          	mulw	s8,a3,s8

0000000080003bd8 <i_3682>:
    80003bd8:	78200693          	li	a3,1922

0000000080003bdc <i_3683>:
    80003bdc:	78500193          	li	gp,1925

0000000080003be0 <i_3684>:
    80003be0:	10510da3          	sb	t0,283(sp)

0000000080003be4 <i_3685>:
    80003be4:	01528b33          	add	s6,t0,s5

0000000080003be8 <i_3686>:
    80003be8:	5731d937          	lui	s2,0x5731d

0000000080003bec <i_3687>:
    80003bec:	e8414b03          	lbu	s6,-380(sp)

0000000080003bf0 <i_3688>:
    80003bf0:	14b13823          	sd	a1,336(sp)

0000000080003bf4 <i_3689>:
    80003bf4:	016c1263          	bne	s8,s6,80003bf8 <i_3690>

0000000080003bf8 <i_3690>:
    80003bf8:	00000013          	nop

0000000080003bfc <i_3691>:
    80003bfc:	00b00d13          	li	s10,11

0000000080003c00 <i_3692>:
    80003c00:	41a8dd33          	sra	s10,a7,s10

0000000080003c04 <i_3693>:
    80003c04:	13013b83          	ld	s7,304(sp)

0000000080003c08 <i_3694>:
    80003c08:	001b9d13          	slli	s10,s7,0x1

0000000080003c0c <i_3695>:
    80003c0c:	15611903          	lh	s2,342(sp)

0000000080003c10 <i_3696>:
    80003c10:	0029191b          	slliw	s2,s2,0x2

0000000080003c14 <i_3697>:
    80003c14:	00168693          	addi	a3,a3,1
    80003c18:	fc36e4e3          	bltu	a3,gp,80003be0 <i_3684>

0000000080003c1c <i_3698>:
    80003c1c:	f5415183          	lhu	gp,-172(sp)

0000000080003c20 <i_3699>:
    80003c20:	10813b83          	ld	s7,264(sp)

0000000080003c24 <i_3700>:
    80003c24:	03234463          	blt	t1,s2,80003c4c <i_3710>

0000000080003c28 <i_3701>:
    80003c28:	b9193313          	sltiu	t1,s2,-1135

0000000080003c2c <i_3702>:
    80003c2c:	0037ce63          	blt	a5,gp,80003c48 <i_3709>

0000000080003c30 <i_3703>:
    80003c30:	f8c13423          	sd	a2,-120(sp)

0000000080003c34 <i_3704>:
    80003c34:	f2612423          	sw	t1,-216(sp)

0000000080003c38 <i_3705>:
    80003c38:	ea612023          	sw	t1,-352(sp)

0000000080003c3c <i_3706>:
    80003c3c:	04eb8b9b          	addiw	s7,s7,78

0000000080003c40 <i_3707>:
    80003c40:	11813c03          	ld	s8,280(sp)

0000000080003c44 <i_3708>:
    80003c44:	003b8c33          	add	s8,s7,gp

0000000080003c48 <i_3709>:
    80003c48:	f2012b83          	lw	s7,-224(sp)

0000000080003c4c <i_3710>:
    80003c4c:	0ba15583          	lhu	a1,186(sp)

0000000080003c50 <i_3711>:
    80003c50:	00000013          	nop

0000000080003c54 <i_3712>:
    80003c54:	7ad00913          	li	s2,1965

0000000080003c58 <i_3713>:
    80003c58:	7bc00193          	li	gp,1980

0000000080003c5c <i_3714>:
    80003c5c:	0025db9b          	srliw	s7,a1,0x2

0000000080003c60 <i_3715>:
    80003c60:	03d5f463          	bleu	t4,a1,80003c88 <i_3724>

0000000080003c64 <i_3716>:
    80003c64:	00318c63          	beq	gp,gp,80003c7c <i_3721>

0000000080003c68 <i_3717>:
    80003c68:	023b9063          	bne	s7,gp,80003c88 <i_3724>

0000000080003c6c <i_3718>:
    80003c6c:	00190913          	addi	s2,s2,1 # 5731d001 <main-0x28ce2fff>
    80003c70:	fe3916e3          	bne	s2,gp,80003c5c <i_3714>

0000000080003c74 <i_3719>:
    80003c74:	f18103a3          	sb	s8,-249(sp)

0000000080003c78 <i_3720>:
    80003c78:	01759a63          	bne	a1,s7,80003c8c <i_3725>

0000000080003c7c <i_3721>:
    80003c7c:	0a312823          	sw	gp,176(sp)

0000000080003c80 <i_3722>:
    80003c80:	1a414f83          	lbu	t6,420(sp)

0000000080003c84 <i_3723>:
    80003c84:	404fd513          	srai	a0,t6,0x4

0000000080003c88 <i_3724>:
    80003c88:	1b710723          	sb	s7,430(sp)

0000000080003c8c <i_3725>:
    80003c8c:	e8416f83          	lwu	t6,-380(sp)

0000000080003c90 <i_3726>:
    80003c90:	03f525b3          	mulhsu	a1,a0,t6

0000000080003c94 <i_3727>:
    80003c94:	ff015483          	lhu	s1,-16(sp)

0000000080003c98 <i_3728>:
    80003c98:	00948e63          	beq	s1,s1,80003cb4 <i_3735>

0000000080003c9c <i_3729>:
    80003c9c:	0294d063          	ble	s1,s1,80003cbc <i_3737>

0000000080003ca0 <i_3730>:
    80003ca0:	028f9433          	mulh	s0,t6,s0

0000000080003ca4 <i_3731>:
    80003ca4:	fe910423          	sb	s1,-24(sp)

0000000080003ca8 <i_3732>:
    80003ca8:	1d411403          	lh	s0,468(sp)

0000000080003cac <i_3733>:
    80003cac:	00848bb3          	add	s7,s1,s0

0000000080003cb0 <i_3734>:
    80003cb0:	037bf4b3          	remu	s1,s7,s7

0000000080003cb4 <i_3735>:
    80003cb4:	0294c23b          	divw	tp,s1,s1

0000000080003cb8 <i_3736>:
    80003cb8:	00121493          	slli	s1,tp,0x1

0000000080003cbc <i_3737>:
    80003cbc:	0044da63          	ble	tp,s1,80003cd0 <i_3742>

0000000080003cc0 <i_3738>:
    80003cc0:	07812483          	lw	s1,120(sp)

0000000080003cc4 <i_3739>:
    80003cc4:	f8913823          	sd	s1,-112(sp)

0000000080003cc8 <i_3740>:
    80003cc8:	eb813983          	ld	s3,-328(sp)

0000000080003ccc <i_3741>:
    80003ccc:	0249e4bb          	remw	s1,s3,tp

0000000080003cd0 <i_3742>:
    80003cd0:	fd311b23          	sh	s3,-42(sp)

0000000080003cd4 <i_3743>:
    80003cd4:	021784b3          	mul	s1,a5,ra

0000000080003cd8 <i_3744>:
    80003cd8:	ea413023          	sd	tp,-352(sp)

0000000080003cdc <i_3745>:
    80003cdc:	00300c93          	li	s9,3

0000000080003ce0 <i_3746>:
    80003ce0:	0194dcbb          	srlw	s9,s1,s9

0000000080003ce4 <i_3747>:
    80003ce4:	403cd093          	srai	ra,s9,0x3

0000000080003ce8 <i_3748>:
    80003ce8:	039cb0b3          	mulhu	ra,s9,s9

0000000080003cec <i_3749>:
    80003cec:	039c8bbb          	mulw	s7,s9,s9

0000000080003cf0 <i_3750>:
    80003cf0:	20ccad93          	slti	s11,s9,524

0000000080003cf4 <i_3751>:
    80003cf4:	e8610c83          	lb	s9,-378(sp)

0000000080003cf8 <i_3752>:
    80003cf8:	019bca63          	blt	s7,s9,80003d0c <i_3757>

0000000080003cfc <i_3753>:
    80003cfc:	01100993          	li	s3,17

0000000080003d00 <i_3754>:
    80003d00:	0139d9b3          	srl	s3,s3,s3

0000000080003d04 <i_3755>:
    80003d04:	4022d29b          	sraiw	t0,t0,0x2

0000000080003d08 <i_3756>:
    80003d08:	f8a11283          	lh	t0,-118(sp)

0000000080003d0c <i_3757>:
    80003d0c:	c412f293          	andi	t0,t0,-959

0000000080003d10 <i_3758>:
    80003d10:	02813a83          	ld	s5,40(sp)

0000000080003d14 <i_3759>:
    80003d14:	035ae2bb          	remw	t0,s5,s5

0000000080003d18 <i_3760>:
    80003d18:	00c00893          	li	a7,12

0000000080003d1c <i_3761>:
    80003d1c:	4112d2bb          	sraw	t0,t0,a7

0000000080003d20 <i_3762>:
    80003d20:	82f28793          	addi	a5,t0,-2001

0000000080003d24 <i_3763>:
    80003d24:	fd014a83          	lbu	s5,-48(sp)

0000000080003d28 <i_3764>:
    80003d28:	00279a93          	slli	s5,a5,0x2

0000000080003d2c <i_3765>:
    80003d2c:	fb816a83          	lwu	s5,-72(sp)

0000000080003d30 <i_3766>:
    80003d30:	e3016a83          	lwu	s5,-464(sp)

0000000080003d34 <i_3767>:
    80003d34:	00faea63          	bltu	s5,a5,80003d48 <i_3772>

0000000080003d38 <i_3768>:
    80003d38:	e7014f83          	lbu	t6,-400(sp)

0000000080003d3c <i_3769>:
    80003d3c:	f0f13023          	sd	a5,-256(sp)

0000000080003d40 <i_3770>:
    80003d40:	f3dc4813          	xori	a6,s8,-195

0000000080003d44 <i_3771>:
    80003d44:	0107d663          	ble	a6,a5,80003d50 <i_3774>

0000000080003d48 <i_3772>:
    80003d48:	03812e83          	lw	t4,56(sp)

0000000080003d4c <i_3773>:
    80003d4c:	03bfe83b          	remw	a6,t6,s11

0000000080003d50 <i_3774>:
    80003d50:	1a416a83          	lwu	s5,420(sp)

0000000080003d54 <i_3775>:
    80003d54:	efb14483          	lbu	s1,-261(sp)

0000000080003d58 <i_3776>:
    80003d58:	01fb4b33          	xor	s6,s6,t6

0000000080003d5c <i_3777>:
    80003d5c:	7c900d93          	li	s11,1993

0000000080003d60 <i_3778>:
    80003d60:	7cf00f93          	li	t6,1999

0000000080003d64 <i_3779>:
    80003d64:	001d8d93          	addi	s11,s11,1
    80003d68:	ffbf9ee3          	bne	t6,s11,80003d64 <i_3779>

0000000080003d6c <i_3780>:
    80003d6c:	f3011e23          	sh	a6,-196(sp)

0000000080003d70 <i_3781>:
    80003d70:	1e758593          	addi	a1,a1,487

0000000080003d74 <i_3782>:
    80003d74:	fb411d23          	sh	s4,-70(sp)

0000000080003d78 <i_3783>:
    80003d78:	f7e11483          	lh	s1,-130(sp)

0000000080003d7c <i_3784>:
    80003d7c:	00000013          	nop

0000000080003d80 <i_3785>:
    80003d80:	73500b93          	li	s7,1845

0000000080003d84 <i_3786>:
    80003d84:	74000593          	li	a1,1856

0000000080003d88 <i_3787>:
    80003d88:	ec910303          	lb	t1,-311(sp)

0000000080003d8c <i_3788>:
    80003d8c:	e34d5217          	auipc	tp,0xe34d5

0000000080003d90 <i_3789>:
    80003d90:	86200a13          	li	s4,-1950

0000000080003d94 <i_3790>:
    80003d94:	87400493          	li	s1,-1932

0000000080003d98 <i_3791>:
    80003d98:	f0210203          	lb	tp,-254(sp)

0000000080003d9c <i_3792>:
    80003d9c:	001a0a13          	addi	s4,s4,1
    80003da0:	ff449ce3          	bne	s1,s4,80003d98 <i_3791>

0000000080003da4 <i_3793>:
    80003da4:	1b813823          	sd	s8,432(sp)

0000000080003da8 <i_3794>:
    80003da8:	16912623          	sw	s1,364(sp)

0000000080003dac <i_3795>:
    80003dac:	00000013          	nop

0000000080003db0 <i_3796>:
    80003db0:	001b8b93          	addi	s7,s7,1 # d2268775 <_end+0x52258361>
    80003db4:	fcbbeae3          	bltu	s7,a1,80003d88 <i_3787>

0000000080003db8 <i_3797>:
    80003db8:	01f14c83          	lbu	s9,31(sp)

0000000080003dbc <i_3798>:
    80003dbc:	03000713          	li	a4,48

0000000080003dc0 <i_3799>:
    80003dc0:	40e35b33          	sra	s6,t1,a4

0000000080003dc4 <i_3800>:
    80003dc4:	ed011203          	lh	tp,-304(sp)

0000000080003dc8 <i_3801>:
    80003dc8:	0303553b          	divuw	a0,t1,a6

0000000080003dcc <i_3802>:
    80003dcc:	0ec16703          	lwu	a4,236(sp)

0000000080003dd0 <i_3803>:
    80003dd0:	f4e12a23          	sw	a4,-172(sp)

0000000080003dd4 <i_3804>:
    80003dd4:	02900e93          	li	t4,41

0000000080003dd8 <i_3805>:
    80003dd8:	41dd50b3          	sra	ra,s10,t4

0000000080003ddc <i_3806>:
    80003ddc:	00177463          	bleu	ra,a4,80003de4 <i_3808>

0000000080003de0 <i_3807>:
    80003de0:	e4a11123          	sh	a0,-446(sp)

0000000080003de4 <i_3808>:
    80003de4:	0ea12623          	sw	a0,236(sp)

0000000080003de8 <i_3809>:
    80003de8:	02e0c063          	blt	ra,a4,80003e08 <i_3817>

0000000080003dec <i_3810>:
    80003dec:	f9611d83          	lh	s11,-106(sp)

0000000080003df0 <i_3811>:
    80003df0:	e7b11c23          	sh	s11,-392(sp)

0000000080003df4 <i_3812>:
    80003df4:	f8813083          	ld	ra,-120(sp)

0000000080003df8 <i_3813>:
    80003df8:	f3011903          	lh	s2,-208(sp)

0000000080003dfc <i_3814>:
    80003dfc:	03def0bb          	remuw	ra,t4,t4

0000000080003e00 <i_3815>:
    80003e00:	ea111023          	sh	ra,-352(sp)

0000000080003e04 <i_3816>:
    80003e04:	084a2913          	slti	s2,s4,132

0000000080003e08 <i_3817>:
    80003e08:	01b57a63          	bleu	s11,a0,80003e1c <i_3822>

0000000080003e0c <i_3818>:
    80003e0c:	003e9713          	slli	a4,t4,0x3

0000000080003e10 <i_3819>:
    80003e10:	f7416d83          	lwu	s11,-140(sp)

0000000080003e14 <i_3820>:
    80003e14:	8a99e197          	auipc	gp,0x8a99e

0000000080003e18 <i_3821>:
    80003e18:	0011fb33          	and	s6,gp,ra

0000000080003e1c <i_3822>:
    80003e1c:	01b71863          	bne	a4,s11,80003e2c <i_3826>

0000000080003e20 <i_3823>:
    80003e20:	1b214d83          	lbu	s11,434(sp)

0000000080003e24 <i_3824>:
    80003e24:	64418197          	auipc	gp,0x64418

0000000080003e28 <i_3825>:
    80003e28:	01bd5663          	ble	s11,s10,80003e34 <i_3828>

0000000080003e2c <i_3826>:
    80003e2c:	e6013083          	ld	ra,-416(sp)

0000000080003e30 <i_3827>:
    80003e30:	acdabdb7          	lui	s11,0xacdab

0000000080003e34 <i_3828>:
    80003e34:	004d9213          	slli	tp,s11,0x4

0000000080003e38 <i_3829>:
    80003e38:	05416c83          	lwu	s9,84(sp)

0000000080003e3c <i_3830>:
    80003e3c:	00b00513          	li	a0,11

0000000080003e40 <i_3831>:
    80003e40:	40acd233          	sra	tp,s9,a0

0000000080003e44 <i_3832>:
    80003e44:	02a10823          	sb	a0,48(sp)

0000000080003e48 <i_3833>:
    80003e48:	0d210e03          	lb	t3,210(sp)

0000000080003e4c <i_3834>:
    80003e4c:	fa510803          	lb	a6,-91(sp)

0000000080003e50 <i_3835>:
    80003e50:	03b85063          	ble	s11,a6,80003e70 <i_3843>

0000000080003e54 <i_3836>:
    80003e54:	030dddbb          	divuw	s11,s11,a6

0000000080003e58 <i_3837>:
    80003e58:	0b813d83          	ld	s11,184(sp)

0000000080003e5c <i_3838>:
    80003e5c:	03084063          	blt	a6,a6,80003e7c <i_3846>

0000000080003e60 <i_3839>:
    80003e60:	f3013803          	ld	a6,-208(sp)

0000000080003e64 <i_3840>:
    80003e64:	010de263          	bltu	s11,a6,80003e68 <i_3841>

0000000080003e68 <i_3841>:
    80003e68:	01bdd263          	ble	s11,s11,80003e6c <i_3842>

0000000080003e6c <i_3842>:
    80003e6c:	10813583          	ld	a1,264(sp)

0000000080003e70 <i_3843>:
    80003e70:	00013e03          	ld	t3,0(sp)

0000000080003e74 <i_3844>:
    80003e74:	03011823          	sh	a6,48(sp)

0000000080003e78 <i_3845>:
    80003e78:	e2812503          	lw	a0,-472(sp)

0000000080003e7c <i_3846>:
    80003e7c:	fdb11c23          	sh	s11,-40(sp)

0000000080003e80 <i_3847>:
    80003e80:	eaa15d03          	lhu	s10,-342(sp)

0000000080003e84 <i_3848>:
    80003e84:	1da10a23          	sb	s10,468(sp)

0000000080003e88 <i_3849>:
    80003e88:	0b415483          	lhu	s1,180(sp)

0000000080003e8c <i_3850>:
    80003e8c:	0094fc63          	bleu	s1,s1,80003ea4 <i_3856>

0000000080003e90 <i_3851>:
    80003e90:	00939e63          	bne	t2,s1,80003eac <i_3858>

0000000080003e94 <i_3852>:
    80003e94:	01300893          	li	a7,19

0000000080003e98 <i_3853>:
    80003e98:	0119d9bb          	srlw	s3,s3,a7

0000000080003e9c <i_3854>:
    80003e9c:	17412b03          	lw	s6,372(sp)

0000000080003ea0 <i_3855>:
    80003ea0:	411d00bb          	subw	ra,s10,a7

0000000080003ea4 <i_3856>:
    80003ea4:	00000013          	nop

0000000080003ea8 <i_3857>:
    80003ea8:	19c16e83          	lwu	t4,412(sp)

0000000080003eac <i_3858>:
    80003eac:	f7a13023          	sd	s10,-160(sp)

0000000080003eb0 <i_3859>:
    80003eb0:	19a15e83          	lhu	t4,410(sp)

0000000080003eb4 <i_3860>:
    80003eb4:	83600893          	li	a7,-1994

0000000080003eb8 <i_3861>:
    80003eb8:	83a00693          	li	a3,-1990

0000000080003ebc <i_3862>:
    80003ebc:	4b88c713          	xori	a4,a7,1208

0000000080003ec0 <i_3863>:
    80003ec0:	17d13823          	sd	t4,368(sp)

0000000080003ec4 <i_3864>:
    80003ec4:	84600993          	li	s3,-1978

0000000080003ec8 <i_3865>:
    80003ec8:	85800d13          	li	s10,-1960

0000000080003ecc <i_3866>:
    80003ecc:	01200b93          	li	s7,18

0000000080003ed0 <i_3867>:
    80003ed0:	01771ebb          	sllw	t4,a4,s7

0000000080003ed4 <i_3868>:
    80003ed4:	00198993          	addi	s3,s3,1
    80003ed8:	ff3d5ae3          	ble	s3,s10,80003ecc <i_3866>

0000000080003edc <i_3869>:
    80003edc:	037eb733          	mulhu	a4,t4,s7

0000000080003ee0 <i_3870>:
    80003ee0:	0378583b          	divuw	a6,a6,s7

0000000080003ee4 <i_3871>:
    80003ee4:	01c00b93          	li	s7,28

0000000080003ee8 <i_3872>:
    80003ee8:	017bd5b3          	srl	a1,s7,s7

0000000080003eec <i_3873>:
    80003eec:	fc412283          	lw	t0,-60(sp)

0000000080003ef0 <i_3874>:
    80003ef0:	0038561b          	srliw	a2,a6,0x3

0000000080003ef4 <i_3875>:
    80003ef4:	00000013          	nop

0000000080003ef8 <i_3876>:
    80003ef8:	00188893          	addi	a7,a7,1
    80003efc:	fcd890e3          	bne	a7,a3,80003ebc <i_3862>

0000000080003f00 <i_3877>:
    80003f00:	00c2c863          	blt	t0,a2,80003f10 <i_3881>

0000000080003f04 <i_3878>:
    80003f04:	c8666293          	ori	t0,a2,-890

0000000080003f08 <i_3879>:
    80003f08:	11615283          	lhu	t0,278(sp)

0000000080003f0c <i_3880>:
    80003f0c:	00528a63          	beq	t0,t0,80003f20 <i_3885>

0000000080003f10 <i_3881>:
    80003f10:	1e014b83          	lbu	s7,480(sp)

0000000080003f14 <i_3882>:
    80003f14:	02c11903          	lh	s2,44(sp)

0000000080003f18 <i_3883>:
    80003f18:	fa816303          	lwu	t1,-88(sp)

0000000080003f1c <i_3884>:
    80003f1c:	025362bb          	remw	t0,t1,t0

0000000080003f20 <i_3885>:
    80003f20:	0063f663          	bleu	t1,t2,80003f2c <i_3888>

0000000080003f24 <i_3886>:
    80003f24:	40435e1b          	sraiw	t3,t1,0x4

0000000080003f28 <i_3887>:
    80003f28:	e7c13423          	sd	t3,-408(sp)

0000000080003f2c <i_3888>:
    80003f2c:	13f14403          	lbu	s0,319(sp)

0000000080003f30 <i_3889>:
    80003f30:	fdd14403          	lbu	s0,-35(sp)

0000000080003f34 <i_3890>:
    80003f34:	f6011d83          	lh	s11,-160(sp)

0000000080003f38 <i_3891>:
    80003f38:	e7c12c23          	sw	t3,-392(sp)

0000000080003f3c <i_3892>:
    80003f3c:	e3a15b83          	lhu	s7,-454(sp)

0000000080003f40 <i_3893>:
    80003f40:	03b108a3          	sb	s11,49(sp)

0000000080003f44 <i_3894>:
    80003f44:	028bfebb          	remuw	t4,s7,s0

0000000080003f48 <i_3895>:
    80003f48:	72d00c93          	li	s9,1837

0000000080003f4c <i_3896>:
    80003f4c:	73c00413          	li	s0,1852

0000000080003f50 <i_3897>:
    80003f50:	001c8c93          	addi	s9,s9,1
    80003f54:	fe8ccee3          	blt	s9,s0,80003f50 <i_3897>

0000000080003f58 <i_3898>:
    80003f58:	11411183          	lh	gp,276(sp)

0000000080003f5c <i_3899>:
    80003f5c:	03b82c33          	mulhsu	s8,a6,s11

0000000080003f60 <i_3900>:
    80003f60:	03978263          	beq	a5,s9,80003f84 <i_3909>

0000000080003f64 <i_3901>:
    80003f64:	15016c03          	lwu	s8,336(sp)

0000000080003f68 <i_3902>:
    80003f68:	f4110e03          	lb	t3,-191(sp)

0000000080003f6c <i_3903>:
    80003f6c:	01e00c93          	li	s9,30

0000000080003f70 <i_3904>:
    80003f70:	019e1cb3          	sll	s9,t3,s9

0000000080003f74 <i_3905>:
    80003f74:	039f8063          	beq	t6,s9,80003f94 <i_3913>

0000000080003f78 <i_3906>:
    80003f78:	039ee263          	bltu	t4,s9,80003f9c <i_3915>

0000000080003f7c <i_3907>:
    80003f7c:	01ce6a63          	bltu	t3,t3,80003f90 <i_3912>

0000000080003f80 <i_3908>:
    80003f80:	038cfc3b          	remuw	s8,s9,s8

0000000080003f84 <i_3909>:
    80003f84:	039cb3b3          	mulhu	t2,s9,s9

0000000080003f88 <i_3910>:
    80003f88:	001c1e9b          	slliw	t4,s8,0x1

0000000080003f8c <i_3911>:
    80003f8c:	fa816783          	lwu	a5,-88(sp)

0000000080003f90 <i_3912>:
    80003f90:	003c599b          	srliw	s3,s8,0x3

0000000080003f94 <i_3913>:
    80003f94:	0189ee33          	or	t3,s3,s8

0000000080003f98 <i_3914>:
    80003f98:	033c4063          	blt	s8,s3,80003fb8 <i_3922>

0000000080003f9c <i_3915>:
    80003f9c:	01c9de63          	ble	t3,s3,80003fb8 <i_3922>

0000000080003fa0 <i_3916>:
    80003fa0:	403cd793          	srai	a5,s9,0x3

0000000080003fa4 <i_3917>:
    80003fa4:	006c8863          	beq	s9,t1,80003fb4 <i_3921>

0000000080003fa8 <i_3918>:
    80003fa8:	027cd063          	ble	t2,s9,80003fc8 <i_3926>

0000000080003fac <i_3919>:
    80003fac:	ef811c83          	lh	s9,-264(sp)

0000000080003fb0 <i_3920>:
    80003fb0:	013c6463          	bltu	s8,s3,80003fb8 <i_3922>

0000000080003fb4 <i_3921>:
    80003fb4:	019c8263          	beq	s9,s9,80003fb8 <i_3922>

0000000080003fb8 <i_3922>:
    80003fb8:	4037db1b          	sraiw	s6,a5,0x3

0000000080003fbc <i_3923>:
    80003fbc:	e5913423          	sd	s9,-440(sp)

0000000080003fc0 <i_3924>:
    80003fc0:	fd310da3          	sb	s3,-37(sp)

0000000080003fc4 <i_3925>:
    80003fc4:	e9013c83          	ld	s9,-368(sp)

0000000080003fc8 <i_3926>:
    80003fc8:	00000013          	nop

0000000080003fcc <i_3927>:
    80003fcc:	023181b3          	mul	gp,gp,gp

0000000080003fd0 <i_3928>:
    80003fd0:	83a00993          	li	s3,-1990

0000000080003fd4 <i_3929>:
    80003fd4:	84b00913          	li	s2,-1973

0000000080003fd8 <i_3930>:
    80003fd8:	e1b14b03          	lbu	s6,-485(sp)

0000000080003fdc <i_3931>:
    80003fdc:	09012383          	lw	t2,144(sp)

0000000080003fe0 <i_3932>:
    80003fe0:	00d18463          	beq	gp,a3,80003fe8 <i_3934>

0000000080003fe4 <i_3933>:
    80003fe4:	0f911923          	sh	s9,242(sp)

0000000080003fe8 <i_3934>:
    80003fe8:	013b7a63          	bleu	s3,s6,80003ffc <i_3939>

0000000080003fec <i_3935>:
    80003fec:	032981b3          	mul	gp,s3,s2

0000000080003ff0 <i_3936>:
    80003ff0:	00000013          	nop

0000000080003ff4 <i_3937>:
    80003ff4:	007224b3          	slt	s1,tp,t2

0000000080003ff8 <i_3938>:
    80003ff8:	00139c93          	slli	s9,t2,0x1

0000000080003ffc <i_3939>:
    80003ffc:	0049549b          	srliw	s1,s2,0x4

0000000080004000 <i_3940>:
    80004000:	1a311b23          	sh	gp,438(sp)

0000000080004004 <i_3941>:
    80004004:	1d9105a3          	sb	s9,459(sp)

0000000080004008 <i_3942>:
    80004008:	00198993          	addi	s3,s3,1
    8000400c:	fd29c6e3          	blt	s3,s2,80003fd8 <i_3930>

0000000080004010 <i_3943>:
    80004010:	039c91b3          	mulh	gp,s9,s9

0000000080004014 <i_3944>:
    80004014:	01f00193          	li	gp,31

0000000080004018 <i_3945>:
    80004018:	003cdebb          	srlw	t4,s9,gp

000000008000401c <i_3946>:
    8000401c:	e2812a83          	lw	s5,-472(sp)

0000000080004020 <i_3947>:
    80004020:	06416303          	lwu	t1,100(sp)

0000000080004024 <i_3948>:
    80004024:	08e15a83          	lhu	s5,142(sp)

0000000080004028 <i_3949>:
    80004028:	01dcc333          	xor	t1,s9,t4

000000008000402c <i_3950>:
    8000402c:	e1510d23          	sb	s5,-486(sp)

0000000080004030 <i_3951>:
    80004030:	e9510383          	lb	t2,-363(sp)

0000000080004034 <i_3952>:
    80004034:	007c89b3          	add	s3,s9,t2

0000000080004038 <i_3953>:
    80004038:	027ccebb          	divw	t4,s9,t2

000000008000403c <i_3954>:
    8000403c:	5ef52e97          	auipc	t4,0x5ef52

0000000080004040 <i_3955>:
    80004040:	02012c83          	lw	s9,32(sp)

0000000080004044 <i_3956>:
    80004044:	00634663          	blt	t1,t1,80004050 <i_3959>

0000000080004048 <i_3957>:
    80004048:	03d4cfbb          	divw	t6,s1,t4

000000008000404c <i_3958>:
    8000404c:	11d13023          	sd	t4,256(sp)

0000000080004050 <i_3959>:
    80004050:	03df90b3          	mulh	ra,t6,t4

0000000080004054 <i_3960>:
    80004054:	0b717e97          	auipc	t4,0xb717

0000000080004058 <i_3961>:
    80004058:	7d400193          	li	gp,2004

000000008000405c <i_3962>:
    8000405c:	7e500213          	li	tp,2021

0000000080004060 <i_3963>:
    80004060:	00118193          	addi	gp,gp,1 # e441be25 <_end+0x6440ba11>
    80004064:	fe419ee3          	bne	gp,tp,80004060 <i_3963>

0000000080004068 <i_3964>:
    80004068:	00418c33          	add	s8,gp,tp

000000008000406c <i_3965>:
    8000406c:	404ed393          	srai	t2,t4,0x4

0000000080004070 <i_3966>:
    80004070:	4023d19b          	sraiw	gp,t2,0x2

0000000080004074 <i_3967>:
    80004074:	01800913          	li	s2,24

0000000080004078 <i_3968>:
    80004078:	0123d1bb          	srlw	gp,t2,s2

000000008000407c <i_3969>:
    8000407c:	0121fc63          	bleu	s2,gp,80004094 <i_3975>

0000000080004080 <i_3970>:
    80004080:	1a711023          	sh	t2,416(sp)

0000000080004084 <i_3971>:
    80004084:	03839463          	bne	t2,s8,800040ac <i_3981>

0000000080004088 <i_3972>:
    80004088:	fc712823          	sw	t2,-48(sp)

000000008000408c <i_3973>:
    8000408c:	f3813c03          	ld	s8,-200(sp)

0000000080004090 <i_3974>:
    80004090:	04411d03          	lh	s10,68(sp)

0000000080004094 <i_3975>:
    80004094:	e5812023          	sw	s8,-448(sp)

0000000080004098 <i_3976>:
    80004098:	402d519b          	sraiw	gp,s10,0x2

000000008000409c <i_3977>:
    8000409c:	00a00813          	li	a6,10

00000000800040a0 <i_3978>:
    800040a0:	410954bb          	sraw	s1,s2,a6

00000000800040a4 <i_3979>:
    800040a4:	00149313          	slli	t1,s1,0x1

00000000800040a8 <i_3980>:
    800040a8:	e78109a3          	sb	s8,-397(sp)

00000000800040ac <i_3981>:
    800040ac:	ff615903          	lhu	s2,-10(sp)

00000000800040b0 <i_3982>:
    800040b0:	f5013803          	ld	a6,-176(sp)

00000000800040b4 <i_3983>:
    800040b4:	01884933          	xor	s2,a6,s8

00000000800040b8 <i_3984>:
    800040b8:	30c6b2b7          	lui	t0,0x30c6b

00000000800040bc <i_3985>:
    800040bc:	003dd91b          	srliw	s2,s11,0x3

00000000800040c0 <i_3986>:
    800040c0:	ee813803          	ld	a6,-280(sp)

00000000800040c4 <i_3987>:
    800040c4:	01284263          	blt	a6,s2,800040c8 <i_3988>

00000000800040c8 <i_3988>:
    800040c8:	02512e23          	sw	t0,60(sp)

00000000800040cc <i_3989>:
    800040cc:	0358743b          	remuw	s0,a6,s5

00000000800040d0 <i_3990>:
    800040d0:	13210f23          	sb	s2,318(sp)

00000000800040d4 <i_3991>:
    800040d4:	8b400513          	li	a0,-1868

00000000800040d8 <i_3992>:
    800040d8:	8b800a93          	li	s5,-1864

00000000800040dc <i_3993>:
    800040dc:	19c16403          	lwu	s0,412(sp)

00000000800040e0 <i_3994>:
    800040e0:	07c16903          	lwu	s2,124(sp)

00000000800040e4 <i_3995>:
    800040e4:	e4815283          	lhu	t0,-440(sp)

00000000800040e8 <i_3996>:
    800040e8:	19213c23          	sd	s2,408(sp)

00000000800040ec <i_3997>:
    800040ec:	fcc11283          	lh	t0,-52(sp)

00000000800040f0 <i_3998>:
    800040f0:	ed415903          	lhu	s2,-300(sp)

00000000800040f4 <i_3999>:
    800040f4:	e4416283          	lwu	t0,-444(sp)

00000000800040f8 <i_4000>:
    800040f8:	f5212c23          	sw	s2,-168(sp)

00000000800040fc <i_4001>:
    800040fc:	14810903          	lb	s2,328(sp)

0000000080004100 <i_4002>:
    80004100:	84600193          	li	gp,-1978

0000000080004104 <i_4003>:
    80004104:	84c00a13          	li	s4,-1972

0000000080004108 <i_4004>:
    80004108:	12e10903          	lb	s2,302(sp)

000000008000410c <i_4005>:
    8000410c:	00118193          	addi	gp,gp,1
    80004110:	ff41ece3          	bltu	gp,s4,80004108 <i_4004>

0000000080004114 <i_4006>:
    80004114:	025fdc3b          	divuw	s8,t6,t0

0000000080004118 <i_4007>:
    80004118:	003c21b3          	slt	gp,s8,gp

000000008000411c <i_4008>:
    8000411c:	034a0463          	beq	s4,s4,80004144 <i_4017>

0000000080004120 <i_4009>:
    80004120:	00150513          	addi	a0,a0,1
    80004124:	fb556ce3          	bltu	a0,s5,800040dc <i_3993>

0000000080004128 <i_4010>:
    80004128:	012c4463          	blt	s8,s2,80004130 <i_4012>

000000008000412c <i_4011>:
    8000412c:	00591a63          	bne	s2,t0,80004140 <i_4016>

0000000080004130 <i_4012>:
    80004130:	04c11283          	lh	t0,76(sp)

0000000080004134 <i_4013>:
    80004134:	034a5063          	ble	s4,s4,80004154 <i_4021>

0000000080004138 <i_4014>:
    80004138:	19013d83          	ld	s11,400(sp)

000000008000413c <i_4015>:
    8000413c:	403c529b          	sraiw	t0,s8,0x3

0000000080004140 <i_4016>:
    80004140:	01c00d93          	li	s11,28

0000000080004144 <i_4017>:
    80004144:	01bdd8bb          	srlw	a7,s11,s11

0000000080004148 <i_4018>:
    80004148:	03113cb3          	mulhu	s9,sp,a7

000000008000414c <i_4019>:
    8000414c:	02812883          	lw	a7,40(sp)

0000000080004150 <i_4020>:
    80004150:	039cfd3b          	remuw	s10,s9,s9

0000000080004154 <i_4021>:
    80004154:	03abcbbb          	divw	s7,s7,s10

0000000080004158 <i_4022>:
    80004158:	f8813b83          	ld	s7,-120(sp)

000000008000415c <i_4023>:
    8000415c:	11eba893          	slti	a7,s7,286

0000000080004160 <i_4024>:
    80004160:	01ad7c63          	bleu	s10,s10,80004178 <i_4030>

0000000080004164 <i_4025>:
    80004164:	037bb7b3          	mulhu	a5,s7,s7

0000000080004168 <i_4026>:
    80004168:	017d5e63          	ble	s7,s10,80004184 <i_4033>

000000008000416c <i_4027>:
    8000416c:	00fd0863          	beq	s10,a5,8000417c <i_4031>

0000000080004170 <i_4028>:
    80004170:	3abd2513          	slti	a0,s10,939

0000000080004174 <i_4029>:
    80004174:	017b8fb3          	add	t6,s7,s7

0000000080004178 <i_4030>:
    80004178:	03abe5bb          	remw	a1,s7,s10

000000008000417c <i_4031>:
    8000417c:	40bf8d3b          	subw	s10,t6,a1

0000000080004180 <i_4032>:
    80004180:	01adcd33          	xor	s10,s11,s10

0000000080004184 <i_4033>:
    80004184:	fba11423          	sh	s10,-88(sp)

0000000080004188 <i_4034>:
    80004188:	11a12c23          	sw	s10,280(sp)

000000008000418c <i_4035>:
    8000418c:	02bd0463          	beq	s10,a1,800041b4 <i_4045>

0000000080004190 <i_4036>:
    80004190:	03fd0263          	beq	s10,t6,800041b4 <i_4045>

0000000080004194 <i_4037>:
    80004194:	eba13c23          	sd	s10,-328(sp)

0000000080004198 <i_4038>:
    80004198:	00000013          	nop

000000008000419c <i_4039>:
    8000419c:	02aa86bb          	mulw	a3,s5,a0

00000000800041a0 <i_4040>:
    800041a0:	01010503          	lb	a0,16(sp)

00000000800041a4 <i_4041>:
    800041a4:	00000013          	nop

00000000800041a8 <i_4042>:
    800041a8:	04813503          	ld	a0,72(sp)

00000000800041ac <i_4043>:
    800041ac:	02a6c53b          	divw	a0,a3,a0

00000000800041b0 <i_4044>:
    800041b0:	02d8e8b3          	rem	a7,a7,a3

00000000800041b4 <i_4045>:
    800041b4:	ff111f23          	sh	a7,-2(sp)

00000000800041b8 <i_4046>:
    800041b8:	403e5313          	srai	t1,t3,0x3

00000000800041bc <i_4047>:
    800041bc:	73000793          	li	a5,1840

00000000800041c0 <i_4048>:
    800041c0:	73400b13          	li	s6,1844

00000000800041c4 <i_4049>:
    800041c4:	e2813e83          	ld	t4,-472(sp)

00000000800041c8 <i_4050>:
    800041c8:	f8d12623          	sw	a3,-116(sp)

00000000800041cc <i_4051>:
    800041cc:	03d6853b          	mulw	a0,a3,t4

00000000800041d0 <i_4052>:
    800041d0:	03d35263          	ble	t4,t1,800041f4 <i_4060>

00000000800041d4 <i_4053>:
    800041d4:	f4416683          	lwu	a3,-188(sp)

00000000800041d8 <i_4054>:
    800041d8:	002ed693          	srli	a3,t4,0x2

00000000800041dc <i_4055>:
    800041dc:	00178793          	addi	a5,a5,1
    800041e0:	fefb52e3          	ble	a5,s6,800041c4 <i_4049>

00000000800041e4 <i_4056>:
    800041e4:	006e8e63          	beq	t4,t1,80004200 <i_4063>

00000000800041e8 <i_4057>:
    800041e8:	11c16c83          	lwu	s9,284(sp)

00000000800041ec <i_4058>:
    800041ec:	01913023          	sd	s9,0(sp)

00000000800041f0 <i_4059>:
    800041f0:	ed815f03          	lhu	t5,-296(sp)

00000000800041f4 <i_4060>:
    800041f4:	01e34863          	blt	t1,t5,80004204 <i_4064>

00000000800041f8 <i_4061>:
    800041f8:	01dca933          	slt	s2,s9,t4

00000000800041fc <i_4062>:
    800041fc:	4032dd13          	srai	s10,t0,0x3

0000000080004200 <i_4063>:
    80004200:	f7d10983          	lb	s3,-131(sp)

0000000080004204 <i_4064>:
    80004204:	02812d03          	lw	s10,40(sp)

0000000080004208 <i_4065>:
    80004208:	ff215d03          	lhu	s10,-14(sp)

000000008000420c <i_4066>:
    8000420c:	95510d1b          	addiw	s10,sp,-1707

0000000080004210 <i_4067>:
    80004210:	15313c23          	sd	s3,344(sp)

0000000080004214 <i_4068>:
    80004214:	01b96e63          	bltu	s2,s11,80004230 <i_4075>

0000000080004218 <i_4069>:
    80004218:	02190263          	beq	s2,ra,8000423c <i_4078>

000000008000421c <i_4070>:
    8000421c:	14a10403          	lb	s0,330(sp)

0000000080004220 <i_4071>:
    80004220:	01297a63          	bleu	s2,s2,80004234 <i_4076>

0000000080004224 <i_4072>:
    80004224:	013f3eb3          	sltu	t4,t5,s3

0000000080004228 <i_4073>:
    80004228:	05416403          	lwu	s0,84(sp)

000000008000422c <i_4074>:
    8000422c:	e8012703          	lw	a4,-384(sp)

0000000080004230 <i_4075>:
    80004230:	013ec663          	blt	t4,s3,8000423c <i_4078>

0000000080004234 <i_4076>:
    80004234:	8842fe93          	andi	t4,t0,-1916

0000000080004238 <i_4077>:
    80004238:	e2a15e83          	lhu	t4,-470(sp)

000000008000423c <i_4078>:
    8000423c:	01d74c63          	blt	a4,t4,80004254 <i_4084>

0000000080004240 <i_4079>:
    80004240:	00e41263          	bne	s0,a4,80004244 <i_4080>

0000000080004244 <i_4080>:
    80004244:	02870eb3          	mul	t4,a4,s0

0000000080004248 <i_4081>:
    80004248:	10e13423          	sd	a4,264(sp)

000000008000424c <i_4082>:
    8000424c:	fa813423          	sd	s0,-88(sp)

0000000080004250 <i_4083>:
    80004250:	03d76263          	bltu	a4,t4,80004274 <i_4092>

0000000080004254 <i_4084>:
    80004254:	00e00413          	li	s0,14

0000000080004258 <i_4085>:
    80004258:	008d1d3b          	sllw	s10,s10,s0

000000008000425c <i_4086>:
    8000425c:	002ed49b          	srliw	s1,t4,0x2

0000000080004260 <i_4087>:
    80004260:	004d5d13          	srli	s10,s10,0x4

0000000080004264 <i_4088>:
    80004264:	01ad0f33          	add	t5,s10,s10

0000000080004268 <i_4089>:
    80004268:	03ef5063          	ble	t5,t5,80004288 <i_4097>

000000008000426c <i_4090>:
    8000426c:	004d1d1b          	slliw	s10,s10,0x4

0000000080004270 <i_4091>:
    80004270:	03a106a3          	sb	s10,45(sp)

0000000080004274 <i_4092>:
    80004274:	03435d3b          	divuw	s10,t1,s4

0000000080004278 <i_4093>:
    80004278:	403d7f13          	andi	t5,s10,1027

000000008000427c <i_4094>:
    8000427c:	d23f6813          	ori	a6,t5,-733

0000000080004280 <i_4095>:
    80004280:	010f4333          	xor	t1,t5,a6

0000000080004284 <i_4096>:
    80004284:	01ad1863          	bne	s10,s10,80004294 <i_4100>

0000000080004288 <i_4097>:
    80004288:	0f410d03          	lb	s10,244(sp)

000000008000428c <i_4098>:
    8000428c:	41ad0d33          	sub	s10,s10,s10

0000000080004290 <i_4099>:
    80004290:	0e48b8b7          	lui	a7,0xe48b

0000000080004294 <i_4100>:
    80004294:	01a1ceb3          	xor	t4,gp,s10

0000000080004298 <i_4101>:
    80004298:	fbe11c83          	lh	s9,-66(sp)

000000008000429c <i_4102>:
    8000429c:	0a015d83          	lhu	s11,160(sp)

00000000800042a0 <i_4103>:
    800042a0:	fb813d03          	ld	s10,-72(sp)

00000000800042a4 <i_4104>:
    800042a4:	18016503          	lwu	a0,384(sp)

00000000800042a8 <i_4105>:
    800042a8:	03ad1063          	bne	s10,s10,800042c8 <i_4113>

00000000800042ac <i_4106>:
    800042ac:	e0a12e23          	sw	a0,-484(sp)

00000000800042b0 <i_4107>:
    800042b0:	004d591b          	srliw	s2,s10,0x4

00000000800042b4 <i_4108>:
    800042b4:	25be7b13          	andi	s6,t3,603

00000000800042b8 <i_4109>:
    800042b8:	08211303          	lh	t1,130(sp)

00000000800042bc <i_4110>:
    800042bc:	0b016e03          	lwu	t3,176(sp)

00000000800042c0 <i_4111>:
    800042c0:	00000013          	nop

00000000800042c4 <i_4112>:
    800042c4:	00000013          	nop

00000000800042c8 <i_4113>:
    800042c8:	12013903          	ld	s2,288(sp)

00000000800042cc <i_4114>:
    800042cc:	01297933          	and	s2,s2,s2

00000000800042d0 <i_4115>:
    800042d0:	7b800c13          	li	s8,1976

00000000800042d4 <i_4116>:
    800042d4:	7c100d13          	li	s10,1985

00000000800042d8 <i_4117>:
    800042d8:	03d1c1b3          	div	gp,gp,t4

00000000800042dc <i_4118>:
    800042dc:	03813023          	sd	s8,32(sp)

00000000800042e0 <i_4119>:
    800042e0:	14413423          	sd	tp,328(sp)

00000000800042e4 <i_4120>:
    800042e4:	19212a23          	sw	s2,404(sp)

00000000800042e8 <i_4121>:
    800042e8:	03230bb3          	mul	s7,t1,s2

00000000800042ec <i_4122>:
    800042ec:	001c0c13          	addi	s8,s8,1
    800042f0:	ffac14e3          	bne	s8,s10,800042d8 <i_4117>

00000000800042f4 <i_4123>:
    800042f4:	00000013          	nop

00000000800042f8 <i_4124>:
    800042f8:	05c10283          	lb	t0,92(sp)

00000000800042fc <i_4125>:
    800042fc:	73600393          	li	t2,1846

0000000080004300 <i_4126>:
    80004300:	74200893          	li	a7,1858

0000000080004304 <i_4127>:
    80004304:	e4813c83          	ld	s9,-440(sp)

0000000080004308 <i_4128>:
    80004308:	00b38c33          	add	s8,t2,a1

000000008000430c <i_4129>:
    8000430c:	0173f533          	and	a0,t2,s7

0000000080004310 <i_4130>:
    80004310:	00000013          	nop

0000000080004314 <i_4131>:
    80004314:	f5c10a23          	sb	t3,-172(sp)

0000000080004318 <i_4132>:
    80004318:	0e710783          	lb	a5,231(sp)

000000008000431c <i_4133>:
    8000431c:	002b9a13          	slli	s4,s7,0x2

0000000080004320 <i_4134>:
    80004320:	01d00e13          	li	t3,29

0000000080004324 <i_4135>:
    80004324:	41ce5e33          	sra	t3,t3,t3

0000000080004328 <i_4136>:
    80004328:	13813a03          	ld	s4,312(sp)

000000008000432c <i_4137>:
    8000432c:	f1012803          	lw	a6,-240(sp)

0000000080004330 <i_4138>:
    80004330:	00138393          	addi	t2,t2,1
    80004334:	fc78d8e3          	ble	t2,a7,80004304 <i_4127>

0000000080004338 <i_4139>:
    80004338:	40285d1b          	sraiw	s10,a6,0x2

000000008000433c <i_4140>:
    8000433c:	03615783          	lhu	a5,54(sp)

0000000080004340 <i_4141>:
    80004340:	e3a10c23          	sb	s10,-456(sp)

0000000080004344 <i_4142>:
    80004344:	02fe1463          	bne	t3,a5,8000436c <i_4152>

0000000080004348 <i_4143>:
    80004348:	02810b83          	lb	s7,40(sp)

000000008000434c <i_4144>:
    8000434c:	0335c83b          	divw	a6,a1,s3

0000000080004350 <i_4145>:
    80004350:	00000013          	nop

0000000080004354 <i_4146>:
    80004354:	f9711123          	sh	s7,-126(sp)

0000000080004358 <i_4147>:
    80004358:	010865b3          	or	a1,a6,a6

000000008000435c <i_4148>:
    8000435c:	ea513823          	sd	t0,-336(sp)

0000000080004360 <i_4149>:
    80004360:	0252b833          	mulhu	a6,t0,t0

0000000080004364 <i_4150>:
    80004364:	e5810fa3          	sb	s8,-417(sp)

0000000080004368 <i_4151>:
    80004368:	11412c83          	lw	s9,276(sp)

000000008000436c <i_4152>:
    8000436c:	00000013          	nop

0000000080004370 <i_4153>:
    80004370:	0372d83b          	divuw	a6,t0,s7

0000000080004374 <i_4154>:
    80004374:	87800293          	li	t0,-1928

0000000080004378 <i_4155>:
    80004378:	87c00b93          	li	s7,-1924

000000008000437c <i_4156>:
    8000437c:	ed012c03          	lw	s8,-304(sp)

0000000080004380 <i_4157>:
    80004380:	00000013          	nop

0000000080004384 <i_4158>:
    80004384:	80d00413          	li	s0,-2035

0000000080004388 <i_4159>:
    80004388:	81300793          	li	a5,-2029

000000008000438c <i_4160>:
    8000438c:	09016803          	lwu	a6,144(sp)

0000000080004390 <i_4161>:
    80004390:	00000013          	nop

0000000080004394 <i_4162>:
    80004394:	00140413          	addi	s0,s0,1
    80004398:	fe87fae3          	bleu	s0,a5,8000438c <i_4160>

000000008000439c <i_4163>:
    8000439c:	ee011c03          	lh	s8,-288(sp)

00000000800043a0 <i_4164>:
    800043a0:	f1013823          	sd	a6,-240(sp)

00000000800043a4 <i_4165>:
    800043a4:	00128293          	addi	t0,t0,1 # 30c6b001 <main-0x4f394fff>
    800043a8:	fd729ae3          	bne	t0,s7,8000437c <i_4156>

00000000800043ac <i_4166>:
    800043ac:	e7011223          	sh	a6,-412(sp)

00000000800043b0 <i_4167>:
    800043b0:	01080433          	add	s0,a6,a6

00000000800043b4 <i_4168>:
    800043b4:	f7811323          	sh	s8,-154(sp)

00000000800043b8 <i_4169>:
    800043b8:	02f7ac33          	mulhsu	s8,a5,a5

00000000800043bc <i_4170>:
    800043bc:	0ef11823          	sh	a5,240(sp)

00000000800043c0 <i_4171>:
    800043c0:	fc012503          	lw	a0,-64(sp)

00000000800043c4 <i_4172>:
    800043c4:	0035179b          	slliw	a5,a0,0x3

00000000800043c8 <i_4173>:
    800043c8:	e9412883          	lw	a7,-364(sp)

00000000800043cc <i_4174>:
    800043cc:	ff816583          	lwu	a1,-8(sp)

00000000800043d0 <i_4175>:
    800043d0:	e5412c23          	sw	s4,-424(sp)

00000000800043d4 <i_4176>:
    800043d4:	038a1063          	bne	s4,s8,800043f4 <i_4184>

00000000800043d8 <i_4177>:
    800043d8:	efb10b03          	lb	s6,-261(sp)

00000000800043dc <i_4178>:
    800043dc:	01e46e63          	bltu	s0,t5,800043f8 <i_4185>

00000000800043e0 <i_4179>:
    800043e0:	e6a13823          	sd	a0,-400(sp)

00000000800043e4 <i_4180>:
    800043e4:	00500593          	li	a1,5

00000000800043e8 <i_4181>:
    800043e8:	00ba5f3b          	srlw	t5,s4,a1

00000000800043ec <i_4182>:
    800043ec:	00800a13          	li	s4,8

00000000800043f0 <i_4183>:
    800043f0:	0142153b          	sllw	a0,tp,s4

00000000800043f4 <i_4184>:
    800043f4:	001f5f13          	srli	t5,t5,0x1

00000000800043f8 <i_4185>:
    800043f8:	02a11e23          	sh	a0,60(sp)

00000000800043fc <i_4186>:
    800043fc:	01ef0533          	add	a0,t5,t5

0000000080004400 <i_4187>:
    80004400:	01ff2633          	slt	a2,t5,t6

0000000080004404 <i_4188>:
    80004404:	03400d93          	li	s11,52

0000000080004408 <i_4189>:
    80004408:	41bf5bb3          	sra	s7,t5,s11

000000008000440c <i_4190>:
    8000440c:	014de863          	bltu	s11,s4,8000441c <i_4194>

0000000080004410 <i_4191>:
    80004410:	0b813703          	ld	a4,184(sp)

0000000080004414 <i_4192>:
    80004414:	f8110203          	lb	tp,-127(sp)

0000000080004418 <i_4193>:
    80004418:	00470a63          	beq	a4,tp,8000442c <i_4198>

000000008000441c <i_4194>:
    8000441c:	01767263          	bleu	s7,a2,80004420 <i_4195>

0000000080004420 <i_4195>:
    80004420:	0036191b          	slliw	s2,a2,0x3

0000000080004424 <i_4196>:
    80004424:	fd412903          	lw	s2,-44(sp)

0000000080004428 <i_4197>:
    80004428:	ff414b83          	lbu	s7,-12(sp)

000000008000442c <i_4198>:
    8000442c:	032be463          	bltu	s7,s2,80004454 <i_4208>

0000000080004430 <i_4199>:
    80004430:	0029569b          	srliw	a3,s2,0x2

0000000080004434 <i_4200>:
    80004434:	a2b6c913          	xori	s2,a3,-1493

0000000080004438 <i_4201>:
    80004438:	02a4443b          	divw	s0,s0,a0

000000008000443c <i_4202>:
    8000443c:	03244263          	blt	s0,s2,80004460 <i_4211>

0000000080004440 <i_4203>:
    80004440:	13712a23          	sw	s7,308(sp)

0000000080004444 <i_4204>:
    80004444:	1c812203          	lw	tp,456(sp)

0000000080004448 <i_4205>:
    80004448:	00821e63          	bne	tp,s0,80004464 <i_4212>

000000008000444c <i_4206>:
    8000444c:	0076b7b3          	sltu	a5,a3,t2

0000000080004450 <i_4207>:
    80004450:	057104a3          	sb	s7,73(sp)

0000000080004454 <i_4208>:
    80004454:	00d24a63          	blt	tp,a3,80004468 <i_4213>

0000000080004458 <i_4209>:
    80004458:	07213023          	sd	s2,96(sp)

000000008000445c <i_4210>:
    8000445c:	032be7bb          	remw	a5,s7,s2

0000000080004460 <i_4211>:
    80004460:	f6014583          	lbu	a1,-160(sp)

0000000080004464 <i_4212>:
    80004464:	00000013          	nop

0000000080004468 <i_4213>:
    80004468:	01e00513          	li	a0,30

000000008000446c <i_4214>:
    8000446c:	00a21bbb          	sllw	s7,tp,a0

0000000080004470 <i_4215>:
    80004470:	79b00593          	li	a1,1947

0000000080004474 <i_4216>:
    80004474:	7a200793          	li	a5,1954

0000000080004478 <i_4217>:
    80004478:	00a79463          	bne	a5,a0,80004480 <i_4219>

000000008000447c <i_4218>:
    8000447c:	c1123693          	sltiu	a3,tp,-1007

0000000080004480 <i_4219>:
    80004480:	12f10803          	lb	a6,303(sp)

0000000080004484 <i_4220>:
    80004484:	e9211403          	lh	s0,-366(sp)

0000000080004488 <i_4221>:
    80004488:	00158593          	addi	a1,a1,1
    8000448c:	fef5c6e3          	blt	a1,a5,80004478 <i_4217>

0000000080004490 <i_4222>:
    80004490:	02aa7b3b          	remuw	s6,s4,a0

0000000080004494 <i_4223>:
    80004494:	03812683          	lw	a3,56(sp)

0000000080004498 <i_4224>:
    80004498:	f4811803          	lh	a6,-184(sp)

000000008000449c <i_4225>:
    8000449c:	18411483          	lh	s1,388(sp)

00000000800044a0 <i_4226>:
    800044a0:	1a714503          	lbu	a0,423(sp)

00000000800044a4 <i_4227>:
    800044a4:	f6411203          	lh	tp,-156(sp)

00000000800044a8 <i_4228>:
    800044a8:	ac91839b          	addiw	t2,gp,-1335

00000000800044ac <i_4229>:
    800044ac:	00000013          	nop

00000000800044b0 <i_4230>:
    800044b0:	8b900713          	li	a4,-1863

00000000800044b4 <i_4231>:
    800044b4:	8bc00193          	li	gp,-1860

00000000800044b8 <i_4232>:
    800044b8:	04410a03          	lb	s4,68(sp)

00000000800044bc <i_4233>:
    800044bc:	f3013d83          	ld	s11,-208(sp)

00000000800044c0 <i_4234>:
    800044c0:	7a000e93          	li	t4,1952

00000000800044c4 <i_4235>:
    800044c4:	7b300213          	li	tp,1971

00000000800044c8 <i_4236>:
    800044c8:	034244bb          	divw	s1,tp,s4

00000000800044cc <i_4237>:
    800044cc:	fa416a03          	lwu	s4,-92(sp)

00000000800044d0 <i_4238>:
    800044d0:	174102a3          	sb	s4,357(sp)

00000000800044d4 <i_4239>:
    800044d4:	01700293          	li	t0,23

00000000800044d8 <i_4240>:
    800044d8:	405a5dbb          	sraw	s11,s4,t0

00000000800044dc <i_4241>:
    800044dc:	001e8e93          	addi	t4,t4,1 # 8b71b055 <_end+0xb70ac41>
    800044e0:	ffd274e3          	bleu	t4,tp,800044c8 <i_4236>

00000000800044e4 <i_4242>:
    800044e4:	03428663          	beq	t0,s4,80004510 <i_4252>

00000000800044e8 <i_4243>:
    800044e8:	00170713          	addi	a4,a4,1
    800044ec:	fce196e3          	bne	gp,a4,800044b8 <i_4232>

00000000800044f0 <i_4244>:
    800044f0:	f5e4cf93          	xori	t6,s1,-162

00000000800044f4 <i_4245>:
    800044f4:	01ff8c33          	add	s8,t6,t6

00000000800044f8 <i_4246>:
    800044f8:	032e4e33          	div	t3,t3,s2

00000000800044fc <i_4247>:
    800044fc:	ede11903          	lh	s2,-290(sp)

0000000080004500 <i_4248>:
    80004500:	e3815303          	lhu	t1,-456(sp)

0000000080004504 <i_4249>:
    80004504:	026377bb          	remuw	a5,t1,t1

0000000080004508 <i_4250>:
    80004508:	f1812e83          	lw	t4,-232(sp)

000000008000450c <i_4251>:
    8000450c:	032eccbb          	divw	s9,t4,s2

0000000080004510 <i_4252>:
    80004510:	02510403          	lb	s0,37(sp)

0000000080004514 <i_4253>:
    80004514:	03a10423          	sb	s10,40(sp)

0000000080004518 <i_4254>:
    80004518:	86b00c13          	li	s8,-1941

000000008000451c <i_4255>:
    8000451c:	87e00913          	li	s2,-1922

0000000080004520 <i_4256>:
    80004520:	00a2ec63          	bltu	t0,a0,80004538 <i_4261>

0000000080004524 <i_4257>:
    80004524:	01234a63          	blt	t1,s2,80004538 <i_4261>

0000000080004528 <i_4258>:
    80004528:	001c0c13          	addi	s8,s8,1
    8000452c:	ff2c4ae3          	blt	s8,s2,80004520 <i_4256>

0000000080004530 <i_4259>:
    80004530:	336c3c13          	sltiu	s8,s8,822

0000000080004534 <i_4260>:
    80004534:	01d26263          	bltu	tp,t4,80004538 <i_4261>

0000000080004538 <i_4261>:
    80004538:	02861433          	mulh	s0,a2,s0

000000008000453c <i_4262>:
    8000453c:	f8013f03          	ld	t5,-128(sp)

0000000080004540 <i_4263>:
    80004540:	0c011403          	lh	s0,192(sp)

0000000080004544 <i_4264>:
    80004544:	071105a3          	sb	a7,107(sp)

0000000080004548 <i_4265>:
    80004548:	01ef0463          	beq	t5,t5,80004550 <i_4267>

000000008000454c <i_4266>:
    8000454c:	e9013703          	ld	a4,-368(sp)

0000000080004550 <i_4267>:
    80004550:	ee912a23          	sw	s1,-268(sp)

0000000080004554 <i_4268>:
    80004554:	03ef7263          	bleu	t5,t5,80004578 <i_4277>

0000000080004558 <i_4269>:
    80004558:	001f171b          	slliw	a4,t5,0x1

000000008000455c <i_4270>:
    8000455c:	1d412f03          	lw	t5,468(sp)

0000000080004560 <i_4271>:
    80004560:	e9f10ea3          	sb	t6,-355(sp)

0000000080004564 <i_4272>:
    80004564:	02ef6263          	bltu	t5,a4,80004588 <i_4281>

0000000080004568 <i_4273>:
    80004568:	03ec7f33          	remu	t5,s8,t5

000000008000456c <i_4274>:
    8000456c:	10c15f03          	lhu	t5,268(sp)

0000000080004570 <i_4275>:
    80004570:	08714f03          	lbu	t5,135(sp)

0000000080004574 <i_4276>:
    80004574:	07c12703          	lw	a4,124(sp)

0000000080004578 <i_4277>:
    80004578:	001f0b33          	add	s6,t5,ra

000000008000457c <i_4278>:
    8000457c:	00000013          	nop

0000000080004580 <i_4279>:
    80004580:	01ec7633          	and	a2,s8,t5

0000000080004584 <i_4280>:
    80004584:	02200213          	li	tp,34

0000000080004588 <i_4281>:
    80004588:	004b5633          	srl	a2,s6,tp

000000008000458c <i_4282>:
    8000458c:	1b012c83          	lw	s9,432(sp)

0000000080004590 <i_4283>:
    80004590:	76100c13          	li	s8,1889

0000000080004594 <i_4284>:
    80004594:	77000413          	li	s0,1904

0000000080004598 <i_4285>:
    80004598:	f7412f03          	lw	t5,-140(sp)

000000008000459c <i_4286>:
    8000459c:	001c0c13          	addi	s8,s8,1
    800045a0:	fe8c6ce3          	bltu	s8,s0,80004598 <i_4285>

00000000800045a4 <i_4287>:
    800045a4:	0be14b83          	lbu	s7,190(sp)

00000000800045a8 <i_4288>:
    800045a8:	03215383          	lhu	t2,50(sp)

00000000800045ac <i_4289>:
    800045ac:	01721e63          	bne	tp,s7,800045c8 <i_4296>

00000000800045b0 <i_4290>:
    800045b0:	00b3cbb3          	xor	s7,t2,a1

00000000800045b4 <i_4291>:
    800045b4:	03016b83          	lwu	s7,48(sp)

00000000800045b8 <i_4292>:
    800045b8:	40225c93          	srai	s9,tp,0x2

00000000800045bc <i_4293>:
    800045bc:	00000013          	nop

00000000800045c0 <i_4294>:
    800045c0:	00000013          	nop

00000000800045c4 <i_4295>:
    800045c4:	004a9c93          	slli	s9,s5,0x4

00000000800045c8 <i_4296>:
    800045c8:	04410223          	sb	tp,68(sp)

00000000800045cc <i_4297>:
    800045cc:	00000013          	nop

00000000800045d0 <i_4298>:
    800045d0:	8cd00a93          	li	s5,-1843

00000000800045d4 <i_4299>:
    800045d4:	8d700213          	li	tp,-1833

00000000800045d8 <i_4300>:
    800045d8:	eb811303          	lh	t1,-328(sp)

00000000800045dc <i_4301>:
    800045dc:	e9c16303          	lwu	t1,-356(sp)

00000000800045e0 <i_4302>:
    800045e0:	77e00893          	li	a7,1918

00000000800045e4 <i_4303>:
    800045e4:	78800593          	li	a1,1928

00000000800045e8 <i_4304>:
    800045e8:	4b58a313          	slti	t1,a7,1205

00000000800045ec <i_4305>:
    800045ec:	00188893          	addi	a7,a7,1 # e48b001 <main-0x71b74fff>
    800045f0:	feb89ce3          	bne	a7,a1,800045e8 <i_4304>

00000000800045f4 <i_4306>:
    800045f4:	eb5102a3          	sb	s5,-347(sp)

00000000800045f8 <i_4307>:
    800045f8:	0ec16683          	lwu	a3,236(sp)

00000000800045fc <i_4308>:
    800045fc:	e6a15c83          	lhu	s9,-406(sp)

0000000080004600 <i_4309>:
    80004600:	00f6b7b3          	sltu	a5,a3,a5

0000000080004604 <i_4310>:
    80004604:	001a8a93          	addi	s5,s5,1
    80004608:	fc4ac8e3          	blt	s5,tp,800045d8 <i_4300>

000000008000460c <i_4311>:
    8000460c:	16a11303          	lh	t1,362(sp)

0000000080004610 <i_4312>:
    80004610:	e0f10f23          	sb	a5,-482(sp)

0000000080004614 <i_4313>:
    80004614:	02f787b3          	mul	a5,a5,a5

0000000080004618 <i_4314>:
    80004618:	02f7c7b3          	div	a5,a5,a5

000000008000461c <i_4315>:
    8000461c:	bc754513          	xori	a0,a0,-1081

0000000080004620 <i_4316>:
    80004620:	00000013          	nop

0000000080004624 <i_4317>:
    80004624:	30754513          	xori	a0,a0,775

0000000080004628 <i_4318>:
    80004628:	76700793          	li	a5,1895

000000008000462c <i_4319>:
    8000462c:	77600913          	li	s2,1910

0000000080004630 <i_4320>:
    80004630:	efe101a3          	sb	t5,-285(sp)

0000000080004634 <i_4321>:
    80004634:	00a54533          	xor	a0,a0,a0

0000000080004638 <i_4322>:
    80004638:	015543b3          	xor	t2,a0,s5

000000008000463c <i_4323>:
    8000463c:	fcc12a03          	lw	s4,-52(sp)

0000000080004640 <i_4324>:
    80004640:	eca12c23          	sw	a0,-296(sp)

0000000080004644 <i_4325>:
    80004644:	1b213823          	sd	s2,432(sp)

0000000080004648 <i_4326>:
    80004648:	027a5263          	ble	t2,s4,8000466c <i_4334>

000000008000464c <i_4327>:
    8000464c:	027a3a33          	mulhu	s4,s4,t2

0000000080004650 <i_4328>:
    80004650:	e3411c23          	sh	s4,-456(sp)

0000000080004654 <i_4329>:
    80004654:	01f00393          	li	t2,31

0000000080004658 <i_4330>:
    80004658:	407a56bb          	sraw	a3,s4,t2

000000008000465c <i_4331>:
    8000465c:	00178793          	addi	a5,a5,1
    80004660:	fd27e8e3          	bltu	a5,s2,80004630 <i_4320>

0000000080004664 <i_4332>:
    80004664:	19c14a03          	lbu	s4,412(sp)

0000000080004668 <i_4333>:
    80004668:	01442733          	slt	a4,s0,s4

000000008000466c <i_4334>:
    8000466c:	01436c63          	bltu	t1,s4,80004684 <i_4340>

0000000080004670 <i_4335>:
    80004670:	00ed0a63          	beq	s10,a4,80004684 <i_4340>

0000000080004674 <i_4336>:
    80004674:	01900593          	li	a1,25

0000000080004678 <i_4337>:
    80004678:	00ba13bb          	sllw	t2,s4,a1

000000008000467c <i_4338>:
    8000467c:	03576263          	bltu	a4,s5,800046a0 <i_4347>

0000000080004680 <i_4339>:
    80004680:	10b10623          	sb	a1,268(sp)

0000000080004684 <i_4340>:
    80004684:	02e6c263          	blt	a3,a4,800046a8 <i_4349>

0000000080004688 <i_4341>:
    80004688:	02300513          	li	a0,35

000000008000468c <i_4342>:
    8000468c:	40a5dbb3          	sra	s7,a1,a0

0000000080004690 <i_4343>:
    80004690:	01777733          	and	a4,a4,s7

0000000080004694 <i_4344>:
    80004694:	26a86a13          	ori	s4,a6,618

0000000080004698 <i_4345>:
    80004698:	00000013          	nop

000000008000469c <i_4346>:
    8000469c:	00000013          	nop

00000000800046a0 <i_4347>:
    800046a0:	ec013203          	ld	tp,-320(sp)

00000000800046a4 <i_4348>:
    800046a4:	01600713          	li	a4,22

00000000800046a8 <i_4349>:
    800046a8:	00ee5533          	srl	a0,t3,a4

00000000800046ac <i_4350>:
    800046ac:	16e12c23          	sw	a4,376(sp)

00000000800046b0 <i_4351>:
    800046b0:	89100e13          	li	t3,-1903

00000000800046b4 <i_4352>:
    800046b4:	89900693          	li	a3,-1895

00000000800046b8 <i_4353>:
    800046b8:	e3813703          	ld	a4,-456(sp)

00000000800046bc <i_4354>:
    800046bc:	00000013          	nop

00000000800046c0 <i_4355>:
    800046c0:	001e0e13          	addi	t3,t3,1
    800046c4:	fede6ae3          	bltu	t3,a3,800046b8 <i_4353>

00000000800046c8 <i_4356>:
    800046c8:	f2e12e23          	sw	a4,-196(sp)

00000000800046cc <i_4357>:
    800046cc:	14016383          	lwu	t2,320(sp)

00000000800046d0 <i_4358>:
    800046d0:	4037571b          	sraiw	a4,a4,0x3

00000000800046d4 <i_4359>:
    800046d4:	f2e102a3          	sb	a4,-219(sp)

00000000800046d8 <i_4360>:
    800046d8:	00015883          	lhu	a7,0(sp)

00000000800046dc <i_4361>:
    800046dc:	00300e93          	li	t4,3

00000000800046e0 <i_4362>:
    800046e0:	41d75733          	sra	a4,a4,t4

00000000800046e4 <i_4363>:
    800046e4:	f9016703          	lwu	a4,-112(sp)

00000000800046e8 <i_4364>:
    800046e8:	0bd11e23          	sh	t4,188(sp)

00000000800046ec <i_4365>:
    800046ec:	f9013703          	ld	a4,-112(sp)

00000000800046f0 <i_4366>:
    800046f0:	15610d03          	lb	s10,342(sp)

00000000800046f4 <i_4367>:
    800046f4:	e2e10623          	sb	a4,-468(sp)

00000000800046f8 <i_4368>:
    800046f8:	f0e11b03          	lh	s6,-242(sp)

00000000800046fc <i_4369>:
    800046fc:	00e70bb3          	add	s7,a4,a4

0000000080004700 <i_4370>:
    80004700:	01dabfb3          	sltu	t6,s5,t4

0000000080004704 <i_4371>:
    80004704:	08215883          	lhu	a7,130(sp)

0000000080004708 <i_4372>:
    80004708:	fe314303          	lbu	t1,-29(sp)

000000008000470c <i_4373>:
    8000470c:	fc813e83          	ld	t4,-56(sp)

0000000080004710 <i_4374>:
    80004710:	7a300a93          	li	s5,1955

0000000080004714 <i_4375>:
    80004714:	7aa00693          	li	a3,1962

0000000080004718 <i_4376>:
    80004718:	fe014303          	lbu	t1,-32(sp)

000000008000471c <i_4377>:
    8000471c:	0ac12b03          	lw	s6,172(sp)

0000000080004720 <i_4378>:
    80004720:	036eadb3          	mulhsu	s11,t4,s6

0000000080004724 <i_4379>:
    80004724:	026ec063          	blt	t4,t1,80004744 <i_4386>

0000000080004728 <i_4380>:
    80004728:	fed11c23          	sh	a3,-8(sp)

000000008000472c <i_4381>:
    8000472c:	001a8a93          	addi	s5,s5,1
    80004730:	ff56d4e3          	ble	s5,a3,80004718 <i_4376>

0000000080004734 <i_4382>:
    80004734:	9b9e8b1b          	addiw	s6,t4,-1607

0000000080004738 <i_4383>:
    80004738:	037e843b          	mulw	s0,t4,s7

000000008000473c <i_4384>:
    8000473c:	fe511023          	sh	t0,-32(sp)

0000000080004740 <i_4385>:
    80004740:	01012b83          	lw	s7,16(sp)

0000000080004744 <i_4386>:
    80004744:	017d9a63          	bne	s11,s7,80004758 <i_4391>

0000000080004748 <i_4387>:
    80004748:	17611b83          	lh	s7,374(sp)

000000008000474c <i_4388>:
    8000474c:	02cdf463          	bleu	a2,s11,80004774 <i_4398>

0000000080004750 <i_4389>:
    80004750:	f3713023          	sd	s7,-224(sp)

0000000080004754 <i_4390>:
    80004754:	01bdda63          	ble	s11,s11,80004768 <i_4395>

0000000080004758 <i_4391>:
    80004758:	010dd463          	ble	a6,s11,80004760 <i_4393>

000000008000475c <i_4392>:
    8000475c:	15713423          	sd	s7,328(sp)

0000000080004760 <i_4393>:
    80004760:	19d13c23          	sd	t4,408(sp)

0000000080004764 <i_4394>:
    80004764:	02cda633          	mulhsu	a2,s11,a2

0000000080004768 <i_4395>:
    80004768:	ec8101a3          	sb	s0,-317(sp)

000000008000476c <i_4396>:
    8000476c:	ee812423          	sw	s0,-280(sp)

0000000080004770 <i_4397>:
    80004770:	00400613          	li	a2,4

0000000080004774 <i_4398>:
    80004774:	40ced9b3          	sra	s3,t4,a2

0000000080004778 <i_4399>:
    80004778:	f05ba613          	slti	a2,s7,-251

000000008000477c <i_4400>:
    8000477c:	83b00413          	li	s0,-1989

0000000080004780 <i_4401>:
    80004780:	84300e93          	li	t4,-1981

0000000080004784 <i_4402>:
    80004784:	1ac16d83          	lwu	s11,428(sp)

0000000080004788 <i_4403>:
    80004788:	03100613          	li	a2,49

000000008000478c <i_4404>:
    8000478c:	00c0d0b3          	srl	ra,ra,a2

0000000080004790 <i_4405>:
    80004790:	00167463          	bleu	ra,a2,80004798 <i_4407>

0000000080004794 <i_4406>:
    80004794:	04411083          	lh	ra,68(sp)

0000000080004798 <i_4407>:
    80004798:	0170bc33          	sltu	s8,ra,s7

000000008000479c <i_4408>:
    8000479c:	02000093          	li	ra,32

00000000800047a0 <i_4409>:
    800047a0:	401dd5b3          	sra	a1,s11,ra

00000000800047a4 <i_4410>:
    800047a4:	00140413          	addi	s0,s0,1
    800047a8:	fdd41ee3          	bne	s0,t4,80004784 <i_4402>

00000000800047ac <i_4411>:
    800047ac:	018c1863          	bne	s8,s8,800047bc <i_4415>

00000000800047b0 <i_4412>:
    800047b0:	021c5463          	ble	ra,s8,800047d8 <i_4422>

00000000800047b4 <i_4413>:
    800047b4:	f7d14383          	lbu	t2,-131(sp)

00000000800047b8 <i_4414>:
    800047b8:	13a14503          	lbu	a0,314(sp)

00000000800047bc <i_4415>:
    800047bc:	00000013          	nop

00000000800047c0 <i_4416>:
    800047c0:	00a3edb3          	or	s11,t2,a0

00000000800047c4 <i_4417>:
    800047c4:	fc713023          	sd	t2,-64(sp)

00000000800047c8 <i_4418>:
    800047c8:	00000013          	nop

00000000800047cc <i_4419>:
    800047cc:	03700e13          	li	t3,55

00000000800047d0 <i_4420>:
    800047d0:	01cdd3b3          	srl	t2,s11,t3

00000000800047d4 <i_4421>:
    800047d4:	f4712423          	sw	t2,-184(sp)

00000000800047d8 <i_4422>:
    800047d8:	027e33b3          	mulhu	t2,t3,t2

00000000800047dc <i_4423>:
    800047dc:	02b00693          	li	a3,43

00000000800047e0 <i_4424>:
    800047e0:	40d55eb3          	sra	t4,a0,a3

00000000800047e4 <i_4425>:
    800047e4:	72b00c93          	li	s9,1835

00000000800047e8 <i_4426>:
    800047e8:	72e00c13          	li	s8,1838

00000000800047ec <i_4427>:
    800047ec:	001c8c93          	addi	s9,s9,1
    800047f0:	ff8ccce3          	blt	s9,s8,800047e8 <i_4426>

00000000800047f4 <i_4428>:
    800047f4:	01cedc63          	ble	t3,t4,8000480c <i_4434>

00000000800047f8 <i_4429>:
    800047f8:	e1f14683          	lbu	a3,-481(sp)

00000000800047fc <i_4430>:
    800047fc:	18410303          	lb	t1,388(sp)

0000000080004800 <i_4431>:
    80004800:	0046939b          	slliw	t2,a3,0x4

0000000080004804 <i_4432>:
    80004804:	027f7cb3          	remu	s9,t5,t2

0000000080004808 <i_4433>:
    80004808:	ff610183          	lb	gp,-10(sp)

000000008000480c <i_4434>:
    8000480c:	0273c43b          	divw	s0,t2,t2

0000000080004810 <i_4435>:
    80004810:	00840263          	beq	s0,s0,80004814 <i_4436>

0000000080004814 <i_4436>:
    80004814:	11013303          	ld	t1,272(sp)

0000000080004818 <i_4437>:
    80004818:	0231f263          	bleu	gp,gp,8000483c <i_4446>

000000008000481c <i_4438>:
    8000481c:	00644663          	blt	s0,t1,80004828 <i_4441>

0000000080004820 <i_4439>:
    80004820:	02646463          	bltu	s0,t1,80004848 <i_4449>

0000000080004824 <i_4440>:
    80004824:	15b10423          	sb	s11,328(sp)

0000000080004828 <i_4441>:
    80004828:	00469e13          	slli	t3,a3,0x4

000000008000482c <i_4442>:
    8000482c:	eaa11683          	lh	a3,-342(sp)

0000000080004830 <i_4443>:
    80004830:	10013483          	ld	s1,256(sp)

0000000080004834 <i_4444>:
    80004834:	0066c663          	blt	a3,t1,80004840 <i_4447>

0000000080004838 <i_4445>:
    80004838:	10f10d83          	lb	s11,271(sp)

000000008000483c <i_4446>:
    8000483c:	00d4ce63          	blt	s1,a3,80004858 <i_4453>

0000000080004840 <i_4447>:
    80004840:	029ff6b3          	remu	a3,t6,s1

0000000080004844 <i_4448>:
    80004844:	01600e93          	li	t4,22

0000000080004848 <i_4449>:
    80004848:	01ddd6bb          	srlw	a3,s11,t4

000000008000484c <i_4450>:
    8000484c:	0294f263          	bleu	s1,s1,80004870 <i_4459>

0000000080004850 <i_4451>:
    80004850:	03a15c03          	lhu	s8,58(sp)

0000000080004854 <i_4452>:
    80004854:	e7812423          	sw	s8,-408(sp)

0000000080004858 <i_4453>:
    80004858:	00f00d93          	li	s11,15

000000008000485c <i_4454>:
    8000485c:	41bbd9b3          	sra	s3,s7,s11

0000000080004860 <i_4455>:
    80004860:	02db7463          	bleu	a3,s6,80004888 <i_4465>

0000000080004864 <i_4456>:
    80004864:	013dd263          	ble	s3,s11,80004868 <i_4457>

0000000080004868 <i_4457>:
    80004868:	1db11523          	sh	s11,458(sp)

000000008000486c <i_4458>:
    8000486c:	14813c83          	ld	s9,328(sp)

0000000080004870 <i_4459>:
    80004870:	0c211703          	lh	a4,194(sp)

0000000080004874 <i_4460>:
    80004874:	15414a03          	lbu	s4,340(sp)

0000000080004878 <i_4461>:
    80004878:	011dce63          	blt	s11,a7,80004894 <i_4468>

000000008000487c <i_4462>:
    8000487c:	f3013a03          	ld	s4,-208(sp)

0000000080004880 <i_4463>:
    80004880:	fb410ca3          	sb	s4,-71(sp)

0000000080004884 <i_4464>:
    80004884:	00200713          	li	a4,2

0000000080004888 <i_4465>:
    80004888:	00ea5c33          	srl	s8,s4,a4

000000008000488c <i_4466>:
    8000488c:	00012183          	lw	gp,0(sp)

0000000080004890 <i_4467>:
    80004890:	04312423          	sw	gp,72(sp)

0000000080004894 <i_4468>:
    80004894:	00b00713          	li	a4,11

0000000080004898 <i_4469>:
    80004898:	40e9d53b          	sraw	a0,s3,a4

000000008000489c <i_4470>:
    8000489c:	83000a13          	li	s4,-2000

00000000800048a0 <i_4471>:
    800048a0:	83d00993          	li	s3,-1987

00000000800048a4 <i_4472>:
    800048a4:	d1173c17          	auipc	s8,0xd1173

00000000800048a8 <i_4473>:
    800048a8:	02acee3b          	remw	t3,s9,a0

00000000800048ac <i_4474>:
    800048ac:	00000013          	nop

00000000800048b0 <i_4475>:
    800048b0:	0181ee63          	bltu	gp,s8,800048cc <i_4481>

00000000800048b4 <i_4476>:
    800048b4:	00c00313          	li	t1,12

00000000800048b8 <i_4477>:
    800048b8:	006e173b          	sllw	a4,t3,t1

00000000800048bc <i_4478>:
    800048bc:	001a0a13          	addi	s4,s4,1
    800048c0:	ff3a42e3          	blt	s4,s3,800048a4 <i_4472>

00000000800048c4 <i_4479>:
    800048c4:	00671663          	bne	a4,t1,800048d0 <i_4482>

00000000800048c8 <i_4480>:
    800048c8:	02334bb3          	div	s7,t1,gp

00000000800048cc <i_4481>:
    800048cc:	01c56a63          	bltu	a0,t3,800048e0 <i_4486>

00000000800048d0 <i_4482>:
    800048d0:	00300b13          	li	s6,3

00000000800048d4 <i_4483>:
    800048d4:	416754bb          	sraw	s1,a4,s6

00000000800048d8 <i_4484>:
    800048d8:	e8612623          	sw	t1,-372(sp)

00000000800048dc <i_4485>:
    800048dc:	08013303          	ld	t1,128(sp)

00000000800048e0 <i_4486>:
    800048e0:	ef514b03          	lbu	s6,-267(sp)

00000000800048e4 <i_4487>:
    800048e4:	0f816303          	lwu	t1,248(sp)

00000000800048e8 <i_4488>:
    800048e8:	01011a03          	lh	s4,16(sp)

00000000800048ec <i_4489>:
    800048ec:	0ae11303          	lh	t1,174(sp)

00000000800048f0 <i_4490>:
    800048f0:	ea912a23          	sw	s1,-332(sp)

00000000800048f4 <i_4491>:
    800048f4:	0294c333          	div	t1,s1,s1

00000000800048f8 <i_4492>:
    800048f8:	12013803          	ld	a6,288(sp)

00000000800048fc <i_4493>:
    800048fc:	01417863          	bleu	s4,sp,8000490c <i_4497>

0000000080004900 <i_4494>:
    80004900:	415a8abb          	subw	s5,s5,s5

0000000080004904 <i_4495>:
    80004904:	01584e63          	blt	a6,s5,80004920 <i_4502>

0000000080004908 <i_4496>:
    80004908:	40930fbb          	subw	t6,t1,s1

000000008000490c <i_4497>:
    8000490c:	03684bbb          	divw	s7,a6,s6

0000000080004910 <i_4498>:
    80004910:	010a9863          	bne	s5,a6,80004920 <i_4502>

0000000080004914 <i_4499>:
    80004914:	11012223          	sw	a6,260(sp)

0000000080004918 <i_4500>:
    80004918:	e9c12803          	lw	a6,-356(sp)

000000008000491c <i_4501>:
    8000491c:	037b9263          	bne	s7,s7,80004940 <i_4510>

0000000080004920 <i_4502>:
    80004920:	0b215803          	lhu	a6,178(sp)

0000000080004924 <i_4503>:
    80004924:	0f813683          	ld	a3,248(sp)

0000000080004928 <i_4504>:
    80004928:	eb5108a3          	sb	s5,-335(sp)

000000008000492c <i_4505>:
    8000492c:	40235393          	srai	t2,t1,0x2

0000000080004930 <i_4506>:
    80004930:	ef215083          	lhu	ra,-270(sp)

0000000080004934 <i_4507>:
    80004934:	ef413c23          	sd	s4,-264(sp)

0000000080004938 <i_4508>:
    80004938:	fd010ca3          	sb	a6,-39(sp)

000000008000493c <i_4509>:
    8000493c:	0343c53b          	divw	a0,t2,s4

0000000080004940 <i_4510>:
    80004940:	fe910c23          	sb	s1,-8(sp)

0000000080004944 <i_4511>:
    80004944:	007f7cb3          	and	s9,t5,t2

0000000080004948 <i_4512>:
    80004948:	f7910123          	sb	s9,-158(sp)

000000008000494c <i_4513>:
    8000494c:	13412e23          	sw	s4,316(sp)

0000000080004950 <i_4514>:
    80004950:	021bacb3          	mulhsu	s9,s7,ra

0000000080004954 <i_4515>:
    80004954:	01385263          	ble	s3,a6,80004958 <i_4516>

0000000080004958 <i_4516>:
    80004958:	00800a93          	li	s5,8

000000008000495c <i_4517>:
    8000495c:	4150d6bb          	sraw	a3,ra,s5

0000000080004960 <i_4518>:
    80004960:	1c411183          	lh	gp,452(sp)

0000000080004964 <i_4519>:
    80004964:	01587a63          	bleu	s5,a6,80004978 <i_4524>

0000000080004968 <i_4520>:
    80004968:	035ac263          	blt	s5,s5,8000498c <i_4529>

000000008000496c <i_4521>:
    8000496c:	fa310923          	sb	gp,-78(sp)

0000000080004970 <i_4522>:
    80004970:	1a313c23          	sd	gp,440(sp)

0000000080004974 <i_4523>:
    80004974:	01519463          	bne	gp,s5,8000497c <i_4525>

0000000080004978 <i_4524>:
    80004978:	b004cc93          	xori	s9,s1,-1280

000000008000497c <i_4525>:
    8000497c:	ef314f03          	lbu	t5,-269(sp)

0000000080004980 <i_4526>:
    80004980:	012f7c63          	bleu	s2,t5,80004998 <i_4532>

0000000080004984 <i_4527>:
    80004984:	0d011f03          	lh	t5,208(sp)

0000000080004988 <i_4528>:
    80004988:	015f7833          	and	a6,t5,s5

000000008000498c <i_4529>:
    8000498c:	03df4abb          	divw	s5,t5,t4

0000000080004990 <i_4530>:
    80004990:	41e60633          	sub	a2,a2,t5

0000000080004994 <i_4531>:
    80004994:	02f3d7b3          	divu	a5,t2,a5

0000000080004998 <i_4532>:
    80004998:	f47102a3          	sb	t2,-187(sp)

000000008000499c <i_4533>:
    8000499c:	edf10e03          	lb	t3,-289(sp)

00000000800049a0 <i_4534>:
    800049a0:	73000f13          	li	t5,1840

00000000800049a4 <i_4535>:
    800049a4:	74100393          	li	t2,1857

00000000800049a8 <i_4536>:
    800049a8:	02f3e233          	rem	tp,t2,a5

00000000800049ac <i_4537>:
    800049ac:	03e7e53b          	remw	a0,a5,t5

00000000800049b0 <i_4538>:
    800049b0:	1be11f23          	sh	t5,446(sp)

00000000800049b4 <i_4539>:
    800049b4:	f2c12883          	lw	a7,-212(sp)

00000000800049b8 <i_4540>:
    800049b8:	00000013          	nop

00000000800049bc <i_4541>:
    800049bc:	e5112223          	sw	a7,-444(sp)

00000000800049c0 <i_4542>:
    800049c0:	00100813          	li	a6,1

00000000800049c4 <i_4543>:
    800049c4:	010652bb          	srlw	t0,a2,a6

00000000800049c8 <i_4544>:
    800049c8:	bdc13613          	sltiu	a2,sp,-1060

00000000800049cc <i_4545>:
    800049cc:	03ec6663          	bltu	s8,t5,800049f8 <i_4555>

00000000800049d0 <i_4546>:
    800049d0:	0028e8b3          	or	a7,a7,sp

00000000800049d4 <i_4547>:
    800049d4:	05f14903          	lbu	s2,95(sp)

00000000800049d8 <i_4548>:
    800049d8:	f7112c23          	sw	a7,-136(sp)

00000000800049dc <i_4549>:
    800049dc:	001f0f13          	addi	t5,t5,1
    800049e0:	fde394e3          	bne	t2,t5,800049a8 <i_4536>

00000000800049e4 <i_4550>:
    800049e4:	e3714583          	lbu	a1,-457(sp)

00000000800049e8 <i_4551>:
    800049e8:	01388e63          	beq	a7,s3,80004a04 <i_4558>

00000000800049ec <i_4552>:
    800049ec:	0255e2bb          	remw	t0,a1,t0

00000000800049f0 <i_4553>:
    800049f0:	0325c263          	blt	a1,s2,80004a14 <i_4562>

00000000800049f4 <i_4554>:
    800049f4:	0b615583          	lhu	a1,182(sp)

00000000800049f8 <i_4555>:
    800049f8:	00251193          	slli	gp,a0,0x2

00000000800049fc <i_4556>:
    800049fc:	40245513          	srai	a0,s0,0x2

0000000080004a00 <i_4557>:
    80004a00:	19813183          	ld	gp,408(sp)

0000000080004a04 <i_4558>:
    80004a04:	0085a1b3          	slt	gp,a1,s0

0000000080004a08 <i_4559>:
    80004a08:	19013183          	ld	gp,400(sp)

0000000080004a0c <i_4560>:
    80004a0c:	00318a63          	beq	gp,gp,80004a20 <i_4565>

0000000080004a10 <i_4561>:
    80004a10:	00b1b5b3          	sltu	a1,gp,a1

0000000080004a14 <i_4562>:
    80004a14:	38d5b593          	sltiu	a1,a1,909

0000000080004a18 <i_4563>:
    80004a18:	fab10123          	sb	a1,-94(sp)

0000000080004a1c <i_4564>:
    80004a1c:	033ebeb3          	mulhu	t4,t4,s3

0000000080004a20 <i_4565>:
    80004a20:	0031f863          	bleu	gp,gp,80004a30 <i_4569>

0000000080004a24 <i_4566>:
    80004a24:	00d1ca63          	blt	gp,a3,80004a38 <i_4571>

0000000080004a28 <i_4567>:
    80004a28:	00bc9a63          	bne	s9,a1,80004a3c <i_4572>

0000000080004a2c <i_4568>:
    80004a2c:	e7d11623          	sh	t4,-404(sp)

0000000080004a30 <i_4569>:
    80004a30:	0a416c83          	lwu	s9,164(sp)

0000000080004a34 <i_4570>:
    80004a34:	01d66533          	or	a0,a2,t4

0000000080004a38 <i_4571>:
    80004a38:	01ded463          	ble	t4,t4,80004a40 <i_4573>

0000000080004a3c <i_4572>:
    80004a3c:	02ad1eb3          	mulh	t4,s10,a0

0000000080004a40 <i_4573>:
    80004a40:	03d50ebb          	mulw	t4,a0,t4

0000000080004a44 <i_4574>:
    80004a44:	e125061b          	addiw	a2,a0,-494

0000000080004a48 <i_4575>:
    80004a48:	00c60263          	beq	a2,a2,80004a4c <i_4576>

0000000080004a4c <i_4576>:
    80004a4c:	f1c12803          	lw	a6,-228(sp)

0000000080004a50 <i_4577>:
    80004a50:	03de9063          	bne	t4,t4,80004a70 <i_4585>

0000000080004a54 <i_4578>:
    80004a54:	ed011b23          	sh	a6,-298(sp)

0000000080004a58 <i_4579>:
    80004a58:	03018463          	beq	gp,a6,80004a80 <i_4589>

0000000080004a5c <i_4580>:
    80004a5c:	03dee933          	rem	s2,t4,t4

0000000080004a60 <i_4581>:
    80004a60:	00200a13          	li	s4,2

0000000080004a64 <i_4582>:
    80004a64:	014edebb          	srlw	t4,t4,s4

0000000080004a68 <i_4583>:
    80004a68:	02e967b3          	rem	a5,s2,a4

0000000080004a6c <i_4584>:
    80004a6c:	03812803          	lw	a6,56(sp)

0000000080004a70 <i_4585>:
    80004a70:	02feee33          	rem	t3,t4,a5

0000000080004a74 <i_4586>:
    80004a74:	ed811b03          	lh	s6,-296(sp)

0000000080004a78 <i_4587>:
    80004a78:	d7fb3e93          	sltiu	t4,s6,-641

0000000080004a7c <i_4588>:
    80004a7c:	42cb6e93          	ori	t4,s6,1068

0000000080004a80 <i_4589>:
    80004a80:	f9d11a23          	sh	t4,-108(sp)

0000000080004a84 <i_4590>:
    80004a84:	e9d13823          	sd	t4,-368(sp)

0000000080004a88 <i_4591>:
    80004a88:	efa4ae37          	lui	t3,0xefa4a

0000000080004a8c <i_4592>:
    80004a8c:	f3c13c23          	sd	t3,-200(sp)

0000000080004a90 <i_4593>:
    80004a90:	73700d93          	li	s11,1847

0000000080004a94 <i_4594>:
    80004a94:	74500e93          	li	t4,1861

0000000080004a98 <i_4595>:
    80004a98:	001ed913          	srli	s2,t4,0x1

0000000080004a9c <i_4596>:
    80004a9c:	002e8463          	beq	t4,sp,80004aa4 <i_4598>

0000000080004aa0 <i_4597>:
    80004aa0:	a6aec913          	xori	s2,t4,-1430

0000000080004aa4 <i_4598>:
    80004aa4:	036fc663          	blt	t6,s6,80004ad0 <i_4608>

0000000080004aa8 <i_4599>:
    80004aa8:	f0416f03          	lwu	t5,-252(sp)

0000000080004aac <i_4600>:
    80004aac:	001d8d93          	addi	s11,s11,1 # ffffffffacdab001 <_end+0xffffffff2cd9abed>
    80004ab0:	ffddc4e3          	blt	s11,t4,80004a98 <i_4595>

0000000080004ab4 <i_4601>:
    80004ab4:	0fe11223          	sh	t5,228(sp)

0000000080004ab8 <i_4602>:
    80004ab8:	0010af33          	slt	t5,ra,ra

0000000080004abc <i_4603>:
    80004abc:	001f5093          	srli	ra,t5,0x1

0000000080004ac0 <i_4604>:
    80004ac0:	01ff6ab3          	or	s5,t5,t6

0000000080004ac4 <i_4605>:
    80004ac4:	01300f93          	li	t6,19

0000000080004ac8 <i_4606>:
    80004ac8:	41ffd43b          	sraw	s0,t6,t6

0000000080004acc <i_4607>:
    80004acc:	0bf10a23          	sb	t6,180(sp)

0000000080004ad0 <i_4608>:
    80004ad0:	008c3d33          	sltu	s10,s8,s0

0000000080004ad4 <i_4609>:
    80004ad4:	e1e15183          	lhu	gp,-482(sp)

0000000080004ad8 <i_4610>:
    80004ad8:	001d5d93          	srli	s11,s10,0x1

0000000080004adc <i_4611>:
    80004adc:	01b1c463          	blt	gp,s11,80004ae4 <i_4613>

0000000080004ae0 <i_4612>:
    80004ae0:	01a18eb3          	add	t4,gp,s10

0000000080004ae4 <i_4613>:
    80004ae4:	e5b10b23          	sb	s11,-426(sp)

0000000080004ae8 <i_4614>:
    80004ae8:	03dd6463          	bltu	s10,t4,80004b10 <i_4624>

0000000080004aec <i_4615>:
    80004aec:	03adda33          	divu	s4,s11,s10

0000000080004af0 <i_4616>:
    80004af0:	e5c11d03          	lh	s10,-420(sp)

0000000080004af4 <i_4617>:
    80004af4:	01afda63          	ble	s10,t6,80004b08 <i_4622>

0000000080004af8 <i_4618>:
    80004af8:	03ad7fbb          	remuw	t6,s10,s10

0000000080004afc <i_4619>:
    80004afc:	08c12d03          	lw	s10,140(sp)

0000000080004b00 <i_4620>:
    80004b00:	01fbffb3          	and	t6,s7,t6

0000000080004b04 <i_4621>:
    80004b04:	11710423          	sb	s7,264(sp)

0000000080004b08 <i_4622>:
    80004b08:	0cb14b03          	lbu	s6,203(sp)

0000000080004b0c <i_4623>:
    80004b0c:	e2c15b83          	lhu	s7,-468(sp)

0000000080004b10 <i_4624>:
    80004b10:	03ebcf3b          	divw	t5,s7,t5

0000000080004b14 <i_4625>:
    80004b14:	41eb8fbb          	subw	t6,s7,t5

0000000080004b18 <i_4626>:
    80004b18:	729d1c37          	lui	s8,0x729d1

0000000080004b1c <i_4627>:
    80004b1c:	f1812f83          	lw	t6,-232(sp)

0000000080004b20 <i_4628>:
    80004b20:	f5e100a3          	sb	t5,-191(sp)

0000000080004b24 <i_4629>:
    80004b24:	002c5c13          	srli	s8,s8,0x2

0000000080004b28 <i_4630>:
    80004b28:	85400f13          	li	t5,-1964

0000000080004b2c <i_4631>:
    80004b2c:	85c00f93          	li	t6,-1956

0000000080004b30 <i_4632>:
    80004b30:	7710fc13          	andi	s8,ra,1905

0000000080004b34 <i_4633>:
    80004b34:	01813423          	sd	s8,8(sp)

0000000080004b38 <i_4634>:
    80004b38:	018d0a63          	beq	s10,s8,80004b4c <i_4639>

0000000080004b3c <i_4635>:
    80004b3c:	0d416c03          	lwu	s8,212(sp)

0000000080004b40 <i_4636>:
    80004b40:	018f6863          	bltu	t5,s8,80004b50 <i_4640>

0000000080004b44 <i_4637>:
    80004b44:	01310c03          	lb	s8,19(sp)

0000000080004b48 <i_4638>:
    80004b48:	eb910723          	sb	s9,-338(sp)

0000000080004b4c <i_4639>:
    80004b4c:	01800293          	li	t0,24

0000000080004b50 <i_4640>:
    80004b50:	005c11bb          	sllw	gp,s8,t0

0000000080004b54 <i_4641>:
    80004b54:	e9815983          	lhu	s3,-360(sp)

0000000080004b58 <i_4642>:
    80004b58:	018f8a33          	add	s4,t6,s8

0000000080004b5c <i_4643>:
    80004b5c:	17fa0193          	addi	gp,s4,383

0000000080004b60 <i_4644>:
    80004b60:	f4312823          	sw	gp,-176(sp)

0000000080004b64 <i_4645>:
    80004b64:	0141ba33          	sltu	s4,gp,s4

0000000080004b68 <i_4646>:
    80004b68:	444a3193          	sltiu	gp,s4,1092

0000000080004b6c <i_4647>:
    80004b6c:	001f0f13          	addi	t5,t5,1
    80004b70:	fdeff0e3          	bleu	t5,t6,80004b30 <i_4632>

0000000080004b74 <i_4648>:
    80004b74:	0a814f03          	lbu	t5,168(sp)

0000000080004b78 <i_4649>:
    80004b78:	003a5a13          	srli	s4,s4,0x3

0000000080004b7c <i_4650>:
    80004b7c:	13c16283          	lwu	t0,316(sp)

0000000080004b80 <i_4651>:
    80004b80:	003f0a63          	beq	t5,gp,80004b94 <i_4656>

0000000080004b84 <i_4652>:
    80004b84:	0342cf3b          	divw	t5,t0,s4

0000000080004b88 <i_4653>:
    80004b88:	005a1463          	bne	s4,t0,80004b90 <i_4655>

0000000080004b8c <i_4654>:
    80004b8c:	034a0463          	beq	s4,s4,80004bb4 <i_4664>

0000000080004b90 <i_4655>:
    80004b90:	00615a03          	lhu	s4,6(sp)

0000000080004b94 <i_4656>:
    80004b94:	e1b28a13          	addi	s4,t0,-485

0000000080004b98 <i_4657>:
    80004b98:	01ef6e63          	bltu	t5,t5,80004bb4 <i_4664>

0000000080004b9c <i_4658>:
    80004b9c:	1d815283          	lhu	t0,472(sp)

0000000080004ba0 <i_4659>:
    80004ba0:	12810a03          	lb	s4,296(sp)

0000000080004ba4 <i_4660>:
    80004ba4:	f9c12403          	lw	s0,-100(sp)

0000000080004ba8 <i_4661>:
    80004ba8:	01e2f663          	bleu	t5,t0,80004bb4 <i_4664>

0000000080004bac <i_4662>:
    80004bac:	0257c2b3          	div	t0,a5,t0

0000000080004bb0 <i_4663>:
    80004bb0:	4032da1b          	sraiw	s4,t0,0x3

0000000080004bb4 <i_4664>:
    80004bb4:	0142f263          	bleu	s4,t0,80004bb8 <i_4665>

0000000080004bb8 <i_4665>:
    80004bb8:	0024559b          	srliw	a1,s0,0x2

0000000080004bbc <i_4666>:
    80004bbc:	00000013          	nop

0000000080004bc0 <i_4667>:
    80004bc0:	ea814603          	lbu	a2,-344(sp)

0000000080004bc4 <i_4668>:
    80004bc4:	75200593          	li	a1,1874

0000000080004bc8 <i_4669>:
    80004bc8:	75a00913          	li	s2,1882

0000000080004bcc <i_4670>:
    80004bcc:	01600613          	li	a2,22

0000000080004bd0 <i_4671>:
    80004bd0:	00c91a3b          	sllw	s4,s2,a2

0000000080004bd4 <i_4672>:
    80004bd4:	03300693          	li	a3,51

0000000080004bd8 <i_4673>:
    80004bd8:	40da5a33          	sra	s4,s4,a3

0000000080004bdc <i_4674>:
    80004bdc:	0cc13823          	sd	a2,208(sp)

0000000080004be0 <i_4675>:
    80004be0:	06812a03          	lw	s4,104(sp)

0000000080004be4 <i_4676>:
    80004be4:	02d6d0b3          	divu	ra,a3,a3

0000000080004be8 <i_4677>:
    80004be8:	15215683          	lhu	a3,338(sp)

0000000080004bec <i_4678>:
    80004bec:	f7812c83          	lw	s9,-136(sp)

0000000080004bf0 <i_4679>:
    80004bf0:	00d00213          	li	tp,13

0000000080004bf4 <i_4680>:
    80004bf4:	4040d733          	sra	a4,ra,tp

0000000080004bf8 <i_4681>:
    80004bf8:	00335093          	srli	ra,t1,0x3

0000000080004bfc <i_4682>:
    80004bfc:	029734b3          	mulhu	s1,a4,s1

0000000080004c00 <i_4683>:
    80004c00:	40275d13          	srai	s10,a4,0x2

0000000080004c04 <i_4684>:
    80004c04:	1d54809b          	addiw	ra,s1,469

0000000080004c08 <i_4685>:
    80004c08:	00158593          	addi	a1,a1,1
    80004c0c:	fd25c0e3          	blt	a1,s2,80004bcc <i_4670>

0000000080004c10 <i_4686>:
    80004c10:	e2411f23          	sh	tp,-450(sp)

0000000080004c14 <i_4687>:
    80004c14:	e5114d03          	lbu	s10,-431(sp)

0000000080004c18 <i_4688>:
    80004c18:	14711323          	sh	t2,326(sp)

0000000080004c1c <i_4689>:
    80004c1c:	10e11a23          	sh	a4,276(sp)

0000000080004c20 <i_4690>:
    80004c20:	12411b23          	sh	tp,310(sp)

0000000080004c24 <i_4691>:
    80004c24:	00d70a63          	beq	a4,a3,80004c38 <i_4696>

0000000080004c28 <i_4692>:
    80004c28:	01ad7c63          	bleu	s10,s10,80004c40 <i_4698>

0000000080004c2c <i_4693>:
    80004c2c:	0da12c23          	sw	s10,216(sp)

0000000080004c30 <i_4694>:
    80004c30:	009730b3          	sltu	ra,a4,s1

0000000080004c34 <i_4695>:
    80004c34:	eb912023          	sw	s9,-352(sp)

0000000080004c38 <i_4696>:
    80004c38:	10f14403          	lbu	s0,271(sp)

0000000080004c3c <i_4697>:
    80004c3c:	0246e6b3          	rem	a3,a3,tp

0000000080004c40 <i_4698>:
    80004c40:	00000013          	nop

0000000080004c44 <i_4699>:
    80004c44:	01f00413          	li	s0,31

0000000080004c48 <i_4700>:
    80004c48:	008d153b          	sllw	a0,s10,s0

0000000080004c4c <i_4701>:
    80004c4c:	74900c93          	li	s9,1865

0000000080004c50 <i_4702>:
    80004c50:	74f00713          	li	a4,1871

0000000080004c54 <i_4703>:
    80004c54:	0ee11323          	sh	a4,230(sp)

0000000080004c58 <i_4704>:
    80004c58:	e0924213          	xori	tp,tp,-503

0000000080004c5c <i_4705>:
    80004c5c:	00000013          	nop

0000000080004c60 <i_4706>:
    80004c60:	00d54463          	blt	a0,a3,80004c68 <i_4708>

0000000080004c64 <i_4707>:
    80004c64:	0ae10903          	lb	s2,174(sp)

0000000080004c68 <i_4708>:
    80004c68:	00886533          	or	a0,a6,s0

0000000080004c6c <i_4709>:
    80004c6c:	fc016683          	lwu	a3,-64(sp)

0000000080004c70 <i_4710>:
    80004c70:	001c8c93          	addi	s9,s9,1
    80004c74:	fd975ee3          	ble	s9,a4,80004c50 <i_4702>

0000000080004c78 <i_4711>:
    80004c78:	00000013          	nop

0000000080004c7c <i_4712>:
    80004c7c:	0e412303          	lw	t1,228(sp)

0000000080004c80 <i_4713>:
    80004c80:	01b77463          	bleu	s11,a4,80004c88 <i_4715>

0000000080004c84 <i_4714>:
    80004c84:	e3710203          	lb	tp,-457(sp)

0000000080004c88 <i_4715>:
    80004c88:	f6012f83          	lw	t6,-160(sp)

0000000080004c8c <i_4716>:
    80004c8c:	0265e063          	bltu	a1,t1,80004cac <i_4724>

0000000080004c90 <i_4717>:
    80004c90:	02610f23          	sb	t1,62(sp)

0000000080004c94 <i_4718>:
    80004c94:	023d6dbb          	remw	s11,s10,gp

0000000080004c98 <i_4719>:
    80004c98:	009b5663          	ble	s1,s6,80004ca4 <i_4722>

0000000080004c9c <i_4720>:
    80004c9c:	415d8abb          	subw	s5,s11,s5

0000000080004ca0 <i_4721>:
    80004ca0:	01adde63          	ble	s10,s11,80004cbc <i_4728>

0000000080004ca4 <i_4722>:
    80004ca4:	11510ca3          	sb	s5,281(sp)

0000000080004ca8 <i_4723>:
    80004ca8:	035fbfb3          	mulhu	t6,t6,s5

0000000080004cac <i_4724>:
    80004cac:	03bd6c33          	rem	s8,s10,s11

0000000080004cb0 <i_4725>:
    80004cb0:	12c16f03          	lwu	t5,300(sp)

0000000080004cb4 <i_4726>:
    80004cb4:	034d5c3b          	divuw	s8,s10,s4

0000000080004cb8 <i_4727>:
    80004cb8:	02600d13          	li	s10,38

0000000080004cbc <i_4728>:
    80004cbc:	01af9ab3          	sll	s5,t6,s10

0000000080004cc0 <i_4729>:
    80004cc0:	404c5d13          	srai	s10,s8,0x4

0000000080004cc4 <i_4730>:
    80004cc4:	8c000a13          	li	s4,-1856

0000000080004cc8 <i_4731>:
    80004cc8:	8c200f93          	li	t6,-1854

0000000080004ccc <i_4732>:
    80004ccc:	f3812a83          	lw	s5,-200(sp)

0000000080004cd0 <i_4733>:
    80004cd0:	ebe15a83          	lhu	s5,-322(sp)

0000000080004cd4 <i_4734>:
    80004cd4:	01fd8263          	beq	s11,t6,80004cd8 <i_4735>

0000000080004cd8 <i_4735>:
    80004cd8:	f1510183          	lb	gp,-235(sp)

0000000080004cdc <i_4736>:
    80004cdc:	03a0eabb          	remw	s5,ra,s10

0000000080004ce0 <i_4737>:
    80004ce0:	001a0a13          	addi	s4,s4,1
    80004ce4:	fffa14e3          	bne	s4,t6,80004ccc <i_4732>

0000000080004ce8 <i_4738>:
    80004ce8:	015f8ab3          	add	s5,t6,s5

0000000080004cec <i_4739>:
    80004cec:	0b013283          	ld	t0,176(sp)

0000000080004cf0 <i_4740>:
    80004cf0:	04314f03          	lbu	t5,67(sp)

0000000080004cf4 <i_4741>:
    80004cf4:	034d0e33          	mul	t3,s10,s4

0000000080004cf8 <i_4742>:
    80004cf8:	e0b10e23          	sb	a1,-484(sp)

0000000080004cfc <i_4743>:
    80004cfc:	eb016d03          	lwu	s10,-336(sp)

0000000080004d00 <i_4744>:
    80004d00:	77d00693          	li	a3,1917

0000000080004d04 <i_4745>:
    80004d04:	78900f13          	li	t5,1929

0000000080004d08 <i_4746>:
    80004d08:	1c310d03          	lb	s10,451(sp)

0000000080004d0c <i_4747>:
    80004d0c:	05a13c23          	sd	s10,88(sp)

0000000080004d10 <i_4748>:
    80004d10:	8d600313          	li	t1,-1834

0000000080004d14 <i_4749>:
    80004d14:	8de00193          	li	gp,-1826

0000000080004d18 <i_4750>:
    80004d18:	f6013583          	ld	a1,-160(sp)

0000000080004d1c <i_4751>:
    80004d1c:	efe12023          	sw	t5,-288(sp)

0000000080004d20 <i_4752>:
    80004d20:	b53d3213          	sltiu	tp,s10,-1197

0000000080004d24 <i_4753>:
    80004d24:	34227213          	andi	tp,tp,834

0000000080004d28 <i_4754>:
    80004d28:	fbc14083          	lbu	ra,-68(sp)

0000000080004d2c <i_4755>:
    80004d2c:	e3611c03          	lh	s8,-458(sp)

0000000080004d30 <i_4756>:
    80004d30:	1e816b03          	lwu	s6,488(sp)

0000000080004d34 <i_4757>:
    80004d34:	00130313          	addi	t1,t1,1 # d0af001 <main-0x72f50fff>
    80004d38:	fe3360e3          	bltu	t1,gp,80004d18 <i_4750>

0000000080004d3c <i_4758>:
    80004d3c:	537c2313          	slti	t1,s8,1335

0000000080004d40 <i_4759>:
    80004d40:	00000013          	nop

0000000080004d44 <i_4760>:
    80004d44:	03200613          	li	a2,50

0000000080004d48 <i_4761>:
    80004d48:	40cd51b3          	sra	gp,s10,a2

0000000080004d4c <i_4762>:
    80004d4c:	00168693          	addi	a3,a3,1
    80004d50:	fadf7ce3          	bleu	a3,t5,80004d08 <i_4746>

0000000080004d54 <i_4763>:
    80004d54:	40125b1b          	sraiw	s6,tp,0x1

0000000080004d58 <i_4764>:
    80004d58:	02bb1633          	mulh	a2,s6,a1

0000000080004d5c <i_4765>:
    80004d5c:	0da10183          	lb	gp,218(sp)

0000000080004d60 <i_4766>:
    80004d60:	fd411b83          	lh	s7,-44(sp)

0000000080004d64 <i_4767>:
    80004d64:	87a63b93          	sltiu	s7,a2,-1926

0000000080004d68 <i_4768>:
    80004d68:	686db337          	lui	t1,0x686db

0000000080004d6c <i_4769>:
    80004d6c:	006e9863          	bne	t4,t1,80004d7c <i_4773>

0000000080004d70 <i_4770>:
    80004d70:	0ecb5b17          	auipc	s6,0xecb5

0000000080004d74 <i_4771>:
    80004d74:	0031eeb3          	or	t4,gp,gp

0000000080004d78 <i_4772>:
    80004d78:	f8313423          	sd	gp,-120(sp)

0000000080004d7c <i_4773>:
    80004d7c:	025d64b3          	rem	s1,s10,t0

0000000080004d80 <i_4774>:
    80004d80:	0d211d03          	lh	s10,210(sp)

0000000080004d84 <i_4775>:
    80004d84:	15a15803          	lhu	a6,346(sp)

0000000080004d88 <i_4776>:
    80004d88:	fcc13423          	sd	a2,-56(sp)

0000000080004d8c <i_4777>:
    80004d8c:	08e14b03          	lbu	s6,142(sp)

0000000080004d90 <i_4778>:
    80004d90:	fb812423          	sw	s8,-88(sp)

0000000080004d94 <i_4779>:
    80004d94:	12012583          	lw	a1,288(sp)

0000000080004d98 <i_4780>:
    80004d98:	fec11323          	sh	a2,-26(sp)

0000000080004d9c <i_4781>:
    80004d9c:	fa111523          	sh	ra,-86(sp)

0000000080004da0 <i_4782>:
    80004da0:	037b7a33          	remu	s4,s6,s7

0000000080004da4 <i_4783>:
    80004da4:	01dde463          	bltu	s11,t4,80004dac <i_4785>

0000000080004da8 <i_4784>:
    80004da8:	ffd100a3          	sb	t4,-31(sp)

0000000080004dac <i_4785>:
    80004dac:	ecb11d23          	sh	a1,-294(sp)

0000000080004db0 <i_4786>:
    80004db0:	00000013          	nop

0000000080004db4 <i_4787>:
    80004db4:	75200393          	li	t2,1874

0000000080004db8 <i_4788>:
    80004db8:	75400593          	li	a1,1876

0000000080004dbc <i_4789>:
    80004dbc:	11813183          	ld	gp,280(sp)

0000000080004dc0 <i_4790>:
    80004dc0:	404bd213          	srai	tp,s7,0x4

0000000080004dc4 <i_4791>:
    80004dc4:	00138393          	addi	t2,t2,1
    80004dc8:	feb39ae3          	bne	t2,a1,80004dbc <i_4789>

0000000080004dcc <i_4792>:
    80004dcc:	024a8463          	beq	s5,tp,80004df4 <i_4802>

0000000080004dd0 <i_4793>:
    80004dd0:	00411923          	sh	tp,18(sp)

0000000080004dd4 <i_4794>:
    80004dd4:	01d2e263          	bltu	t0,t4,80004dd8 <i_4795>

0000000080004dd8 <i_4795>:
    80004dd8:	d7366613          	ori	a2,a2,-653

0000000080004ddc <i_4796>:
    80004ddc:	f3414f03          	lbu	t5,-204(sp)

0000000080004de0 <i_4797>:
    80004de0:	18c12f83          	lw	t6,396(sp)

0000000080004de4 <i_4798>:
    80004de4:	03eb0263          	beq	s6,t5,80004e08 <i_4807>

0000000080004de8 <i_4799>:
    80004de8:	029583b3          	mul	t2,a1,s1

0000000080004dec <i_4800>:
    80004dec:	03fa8dbb          	mulw	s11,s5,t6

0000000080004df0 <i_4801>:
    80004df0:	03859263          	bne	a1,s8,80004e14 <i_4810>

0000000080004df4 <i_4802>:
    80004df4:	00000013          	nop

0000000080004df8 <i_4803>:
    80004df8:	16913823          	sd	s1,368(sp)

0000000080004dfc <i_4804>:
    80004dfc:	fb510d83          	lb	s11,-75(sp)

0000000080004e00 <i_4805>:
    80004e00:	03f50533          	mul	a0,a0,t6

0000000080004e04 <i_4806>:
    80004e04:	10611303          	lh	t1,262(sp)

0000000080004e08 <i_4807>:
    80004e08:	02631333          	mulh	t1,t1,t1

0000000080004e0c <i_4808>:
    80004e0c:	00000013          	nop

0000000080004e10 <i_4809>:
    80004e10:	0fc14583          	lbu	a1,252(sp)

0000000080004e14 <i_4810>:
    80004e14:	eb510a03          	lb	s4,-331(sp)

0000000080004e18 <i_4811>:
    80004e18:	fa013503          	ld	a0,-96(sp)

0000000080004e1c <i_4812>:
    80004e1c:	83000f93          	li	t6,-2000

0000000080004e20 <i_4813>:
    80004e20:	83b00493          	li	s1,-1989

0000000080004e24 <i_4814>:
    80004e24:	00a80833          	add	a6,a6,a0

0000000080004e28 <i_4815>:
    80004e28:	15b13423          	sd	s11,328(sp)

0000000080004e2c <i_4816>:
    80004e2c:	00000013          	nop

0000000080004e30 <i_4817>:
    80004e30:	f6b10403          	lb	s0,-149(sp)

0000000080004e34 <i_4818>:
    80004e34:	001f8f93          	addi	t6,t6,1
    80004e38:	fe9fe6e3          	bltu	t6,s1,80004e24 <i_4814>

0000000080004e3c <i_4819>:
    80004e3c:	01754c63          	blt	a0,s7,80004e54 <i_4825>

0000000080004e40 <i_4820>:
    80004e40:	f9314203          	lbu	tp,-109(sp)

0000000080004e44 <i_4821>:
    80004e44:	10814c83          	lbu	s9,264(sp)

0000000080004e48 <i_4822>:
    80004e48:	028ce063          	bltu	s9,s0,80004e68 <i_4830>

0000000080004e4c <i_4823>:
    80004e4c:	40185813          	srai	a6,a6,0x1

0000000080004e50 <i_4824>:
    80004e50:	01300a13          	li	s4,19

0000000080004e54 <i_4825>:
    80004e54:	014a16bb          	sllw	a3,s4,s4

0000000080004e58 <i_4826>:
    80004e58:	f0416503          	lwu	a0,-252(sp)

0000000080004e5c <i_4827>:
    80004e5c:	02438bb3          	mul	s7,t2,tp

0000000080004e60 <i_4828>:
    80004e60:	02012503          	lw	a0,32(sp)

0000000080004e64 <i_4829>:
    80004e64:	0f611183          	lh	gp,246(sp)

0000000080004e68 <i_4830>:
    80004e68:	f2416203          	lwu	tp,-220(sp)

0000000080004e6c <i_4831>:
    80004e6c:	0041ee63          	bltu	gp,tp,80004e88 <i_4838>

0000000080004e70 <i_4832>:
    80004e70:	0a411183          	lh	gp,164(sp)

0000000080004e74 <i_4833>:
    80004e74:	03e00193          	li	gp,62

0000000080004e78 <i_4834>:
    80004e78:	00319233          	sll	tp,gp,gp

0000000080004e7c <i_4835>:
    80004e7c:	0c416483          	lwu	s1,196(sp)

0000000080004e80 <i_4836>:
    80004e80:	00913823          	sd	s1,16(sp)

0000000080004e84 <i_4837>:
    80004e84:	fad14b03          	lbu	s6,-83(sp)

0000000080004e88 <i_4838>:
    80004e88:	0c74a493          	slti	s1,s1,199

0000000080004e8c <i_4839>:
    80004e8c:	009b0ab3          	add	s5,s6,s1

0000000080004e90 <i_4840>:
    80004e90:	016b0a63          	beq	s6,s6,80004ea4 <i_4845>

0000000080004e94 <i_4841>:
    80004e94:	025772bb          	remuw	t0,a4,t0

0000000080004e98 <i_4842>:
    80004e98:	036b5263          	ble	s6,s6,80004ebc <i_4851>

0000000080004e9c <i_4843>:
    80004e9c:	e7911623          	sh	s9,-404(sp)

0000000080004ea0 <i_4844>:
    80004ea0:	00000013          	nop

0000000080004ea4 <i_4845>:
    80004ea4:	03cfc4bb          	divw	s1,t6,t3

0000000080004ea8 <i_4846>:
    80004ea8:	eca11d23          	sh	a0,-294(sp)

0000000080004eac <i_4847>:
    80004eac:	00952433          	slt	s0,a0,s1

0000000080004eb0 <i_4848>:
    80004eb0:	00000013          	nop

0000000080004eb4 <i_4849>:
    80004eb4:	e4610483          	lb	s1,-442(sp)

0000000080004eb8 <i_4850>:
    80004eb8:	40355213          	srai	tp,a0,0x3

0000000080004ebc <i_4851>:
    80004ebc:	00000013          	nop

0000000080004ec0 <i_4852>:
    80004ec0:	416b0b3b          	subw	s6,s6,s6

0000000080004ec4 <i_4853>:
    80004ec4:	77300513          	li	a0,1907

0000000080004ec8 <i_4854>:
    80004ec8:	77500f93          	li	t6,1909

0000000080004ecc <i_4855>:
    80004ecc:	f3510903          	lb	s2,-203(sp)

0000000080004ed0 <i_4856>:
    80004ed0:	18016b03          	lwu	s6,384(sp)

0000000080004ed4 <i_4857>:
    80004ed4:	02494db3          	div	s11,s2,tp

0000000080004ed8 <i_4858>:
    80004ed8:	fb312423          	sw	s3,-88(sp)

0000000080004edc <i_4859>:
    80004edc:	04712c23          	sw	t2,88(sp)

0000000080004ee0 <i_4860>:
    80004ee0:	e3813983          	ld	s3,-456(sp)

0000000080004ee4 <i_4861>:
    80004ee4:	00150513          	addi	a0,a0,1
    80004ee8:	feaff2e3          	bleu	a0,t6,80004ecc <i_4855>

0000000080004eec <i_4862>:
    80004eec:	ef815c03          	lhu	s8,-264(sp)

0000000080004ef0 <i_4863>:
    80004ef0:	27c7cd93          	xori	s11,a5,636

0000000080004ef4 <i_4864>:
    80004ef4:	0139c863          	blt	s3,s3,80004f04 <i_4868>

0000000080004ef8 <i_4865>:
    80004ef8:	00a00993          	li	s3,10

0000000080004efc <i_4866>:
    80004efc:	013adab3          	srl	s5,s5,s3

0000000080004f00 <i_4867>:
    80004f00:	f7015a83          	lhu	s5,-144(sp)

0000000080004f04 <i_4868>:
    80004f04:	00600f13          	li	t5,6

0000000080004f08 <i_4869>:
    80004f08:	01e6dc33          	srl	s8,a3,t5

0000000080004f0c <i_4870>:
    80004f0c:	0ec15f83          	lhu	t6,236(sp)

0000000080004f10 <i_4871>:
    80004f10:	03edc533          	div	a0,s11,t5

0000000080004f14 <i_4872>:
    80004f14:	fce15d83          	lhu	s11,-50(sp)

0000000080004f18 <i_4873>:
    80004f18:	03bdfdbb          	remuw	s11,s11,s11

0000000080004f1c <i_4874>:
    80004f1c:	03bfcabb          	divw	s5,t6,s11

0000000080004f20 <i_4875>:
    80004f20:	0c8f051b          	addiw	a0,t5,200

0000000080004f24 <i_4876>:
    80004f24:	01522fb3          	slt	t6,tp,s5

0000000080004f28 <i_4877>:
    80004f28:	02c16a83          	lwu	s5,44(sp)

0000000080004f2c <i_4878>:
    80004f2c:	02e6b6b3          	mulhu	a3,a3,a4

0000000080004f30 <i_4879>:
    80004f30:	0039d41b          	srliw	s0,s3,0x3

0000000080004f34 <i_4880>:
    80004f34:	8be00713          	li	a4,-1858

0000000080004f38 <i_4881>:
    80004f38:	8ce00d13          	li	s10,-1842

0000000080004f3c <i_4882>:
    80004f3c:	0159c263          	blt	s3,s5,80004f40 <i_4883>

0000000080004f40 <i_4883>:
    80004f40:	16c16983          	lwu	s3,364(sp)

0000000080004f44 <i_4884>:
    80004f44:	fda11783          	lh	a5,-38(sp)

0000000080004f48 <i_4885>:
    80004f48:	10f11b23          	sh	a5,278(sp)

0000000080004f4c <i_4886>:
    80004f4c:	00000013          	nop

0000000080004f50 <i_4887>:
    80004f50:	00f7e2b3          	or	t0,a5,a5

0000000080004f54 <i_4888>:
    80004f54:	ee415783          	lhu	a5,-284(sp)

0000000080004f58 <i_4889>:
    80004f58:	02f7e7bb          	remw	a5,a5,a5

0000000080004f5c <i_4890>:
    80004f5c:	0257e663          	bltu	a5,t0,80004f88 <i_4900>

0000000080004f60 <i_4891>:
    80004f60:	00170713          	addi	a4,a4,1
    80004f64:	fced5ce3          	ble	a4,s10,80004f3c <i_4882>

0000000080004f68 <i_4892>:
    80004f68:	02f2b7b3          	mulhu	a5,t0,a5

0000000080004f6c <i_4893>:
    80004f6c:	1b411783          	lh	a5,436(sp)

0000000080004f70 <i_4894>:
    80004f70:	17a14283          	lbu	t0,378(sp)

0000000080004f74 <i_4895>:
    80004f74:	04412283          	lw	t0,68(sp)

0000000080004f78 <i_4896>:
    80004f78:	00f28c63          	beq	t0,a5,80004f90 <i_4902>

0000000080004f7c <i_4897>:
    80004f7c:	14812203          	lw	tp,328(sp)

0000000080004f80 <i_4898>:
    80004f80:	005284b3          	add	s1,t0,t0

0000000080004f84 <i_4899>:
    80004f84:	02016a83          	lwu	s5,32(sp)

0000000080004f88 <i_4900>:
    80004f88:	04910383          	lb	t2,73(sp)

0000000080004f8c <i_4901>:
    80004f8c:	8aa28b13          	addi	s6,t0,-1878

0000000080004f90 <i_4902>:
    80004f90:	ed5e1937          	lui	s2,0xed5e1

0000000080004f94 <i_4903>:
    80004f94:	46e90293          	addi	t0,s2,1134 # ffffffffed5e146e <_end+0xffffffff6d5d105a>

0000000080004f98 <i_4904>:
    80004f98:	0f812f03          	lw	t5,248(sp)

0000000080004f9c <i_4905>:
    80004f9c:	031b1733          	mulh	a4,s6,a7

0000000080004fa0 <i_4906>:
    80004fa0:	00000013          	nop

0000000080004fa4 <i_4907>:
    80004fa4:	00000013          	nop

0000000080004fa8 <i_4908>:
    80004fa8:	7c700913          	li	s2,1991

0000000080004fac <i_4909>:
    80004fac:	7d600293          	li	t0,2006

0000000080004fb0 <i_4910>:
    80004fb0:	03e6e063          	bltu	a3,t5,80004fd0 <i_4918>

0000000080004fb4 <i_4911>:
    80004fb4:	00590263          	beq	s2,t0,80004fb8 <i_4912>

0000000080004fb8 <i_4912>:
    80004fb8:	00e90bb3          	add	s7,s2,a4

0000000080004fbc <i_4913>:
    80004fbc:	10f14a03          	lbu	s4,271(sp)

0000000080004fc0 <i_4914>:
    80004fc0:	01c00b93          	li	s7,28

0000000080004fc4 <i_4915>:
    80004fc4:	017b9733          	sll	a4,s7,s7

0000000080004fc8 <i_4916>:
    80004fc8:	fdd10183          	lb	gp,-35(sp)

0000000080004fcc <i_4917>:
    80004fcc:	00000013          	nop

0000000080004fd0 <i_4918>:
    80004fd0:	03d12023          	sw	t4,32(sp)

0000000080004fd4 <i_4919>:
    80004fd4:	0d813d03          	ld	s10,216(sp)

0000000080004fd8 <i_4920>:
    80004fd8:	03ad3c33          	mulhu	s8,s10,s10

0000000080004fdc <i_4921>:
    80004fdc:	ed814d03          	lbu	s10,-296(sp)

0000000080004fe0 <i_4922>:
    80004fe0:	038c2d33          	mulhsu	s10,s8,s8

0000000080004fe4 <i_4923>:
    80004fe4:	013fffb3          	and	t6,t6,s3

0000000080004fe8 <i_4924>:
    80004fe8:	01ad1a63          	bne	s10,s10,80004ffc <i_4928>

0000000080004fec <i_4925>:
    80004fec:	00190913          	addi	s2,s2,1
    80004ff0:	fd22f0e3          	bleu	s2,t0,80004fb0 <i_4910>

0000000080004ff4 <i_4926>:
    80004ff4:	00000013          	nop

0000000080004ff8 <i_4927>:
    80004ff8:	fbd10783          	lb	a5,-67(sp)

0000000080004ffc <i_4928>:
    80004ffc:	02fc6633          	rem	a2,s8,a5

0000000080005000 <i_4929>:
    80005000:	16c11823          	sh	a2,368(sp)

0000000080005004 <i_4930>:
    80005004:	75700c13          	li	s8,1879

0000000080005008 <i_4931>:
    80005008:	75d00a93          	li	s5,1885

000000008000500c <i_4932>:
    8000500c:	035104a3          	sb	s5,41(sp)

0000000080005010 <i_4933>:
    80005010:	00f7a7b3          	slt	a5,a5,a5

0000000080005014 <i_4934>:
    80005014:	f8f10fa3          	sb	a5,-97(sp)

0000000080005018 <i_4935>:
    80005018:	08c13023          	sd	a2,128(sp)

000000008000501c <i_4936>:
    8000501c:	00c60633          	add	a2,a2,a2

0000000080005020 <i_4937>:
    80005020:	00c66e63          	bltu	a2,a2,8000503c <i_4944>

0000000080005024 <i_4938>:
    80005024:	02c64d3b          	divw	s10,a2,a2

0000000080005028 <i_4939>:
    80005028:	027793b3          	mulh	t2,a5,t2

000000008000502c <i_4940>:
    8000502c:	00c66463          	bltu	a2,a2,80005034 <i_4942>

0000000080005030 <i_4941>:
    80005030:	03a3b7b3          	mulhu	a5,t2,s10

0000000080005034 <i_4942>:
    80005034:	4043d393          	srai	t2,t2,0x4

0000000080005038 <i_4943>:
    80005038:	01ad0d33          	add	s10,s10,s10

000000008000503c <i_4944>:
    8000503c:	03bd0db3          	mul	s11,s10,s11

0000000080005040 <i_4945>:
    80005040:	e4013d03          	ld	s10,-448(sp)

0000000080005044 <i_4946>:
    80005044:	16211d03          	lh	s10,354(sp)

0000000080005048 <i_4947>:
    80005048:	001c0c13          	addi	s8,s8,1 # 729d1001 <main-0xd62efff>
    8000504c:	fd5c40e3          	blt	s8,s5,8000500c <i_4932>

0000000080005050 <i_4948>:
    80005050:	04816403          	lwu	s0,72(sp)

0000000080005054 <i_4949>:
    80005054:	03a47463          	bleu	s10,s0,8000507c <i_4959>

0000000080005058 <i_4950>:
    80005058:	00a00f13          	li	t5,10

000000008000505c <i_4951>:
    8000505c:	01e41f3b          	sllw	t5,s0,t5

0000000080005060 <i_4952>:
    80005060:	ff611d03          	lh	s10,-10(sp)

0000000080005064 <i_4953>:
    80005064:	0bed0d13          	addi	s10,s10,190

0000000080005068 <i_4954>:
    80005068:	004f5d1b          	srliw	s10,t5,0x4

000000008000506c <i_4955>:
    8000506c:	abdd0d1b          	addiw	s10,s10,-1347

0000000080005070 <i_4956>:
    80005070:	034e0233          	mul	tp,t3,s4

0000000080005074 <i_4957>:
    80005074:	00411c23          	sh	tp,24(sp)

0000000080005078 <i_4958>:
    80005078:	01ed4863          	blt	s10,t5,80005088 <i_4962>

000000008000507c <i_4959>:
    8000507c:	01ef7e63          	bleu	t5,t5,80005098 <i_4966>

0000000080005080 <i_4960>:
    80005080:	11610d03          	lb	s10,278(sp)

0000000080005084 <i_4961>:
    80005084:	00000013          	nop

0000000080005088 <i_4962>:
    80005088:	f1e10aa3          	sb	t5,-235(sp)

000000008000508c <i_4963>:
    8000508c:	d061a597          	auipc	a1,0xd061a

0000000080005090 <i_4964>:
    80005090:	00b7e7b3          	or	a5,a5,a1

0000000080005094 <i_4965>:
    80005094:	19a11803          	lh	a6,410(sp)

0000000080005098 <i_4966>:
    80005098:	11211723          	sh	s2,270(sp)

000000008000509c <i_4967>:
    8000509c:	eaa11483          	lh	s1,-342(sp)

00000000800050a0 <i_4968>:
    800050a0:	73400213          	li	tp,1844

00000000800050a4 <i_4969>:
    800050a4:	74800f13          	li	t5,1864

00000000800050a8 <i_4970>:
    800050a8:	e7416783          	lwu	a5,-396(sp)

00000000800050ac <i_4971>:
    800050ac:	00120213          	addi	tp,tp,1 # 634d8d8d <main-0x1cb27273>
    800050b0:	ffe24ce3          	blt	tp,t5,800050a8 <i_4970>

00000000800050b4 <i_4972>:
    800050b4:	eeb11a23          	sh	a1,-268(sp)

00000000800050b8 <i_4973>:
    800050b8:	0097c463          	blt	a5,s1,800050c0 <i_4975>

00000000800050bc <i_4974>:
    800050bc:	0025d793          	srli	a5,a1,0x2

00000000800050c0 <i_4975>:
    800050c0:	e2f11c23          	sh	a5,-456(sp)

00000000800050c4 <i_4976>:
    800050c4:	ea111723          	sh	ra,-338(sp)

00000000800050c8 <i_4977>:
    800050c8:	f7815583          	lhu	a1,-136(sp)

00000000800050cc <i_4978>:
    800050cc:	eeb12c23          	sw	a1,-264(sp)

00000000800050d0 <i_4979>:
    800050d0:	fe810b83          	lb	s7,-24(sp)

00000000800050d4 <i_4980>:
    800050d4:	00bb9c63          	bne	s7,a1,800050ec <i_4986>

00000000800050d8 <i_4981>:
    800050d8:	f2412b83          	lw	s7,-220(sp)

00000000800050dc <i_4982>:
    800050dc:	017ba5b3          	slt	a1,s7,s7

00000000800050e0 <i_4983>:
    800050e0:	f7711023          	sh	s7,-160(sp)

00000000800050e4 <i_4984>:
    800050e4:	0354bbb3          	mulhu	s7,s1,s5

00000000800050e8 <i_4985>:
    800050e8:	13a15a83          	lhu	s5,314(sp)

00000000800050ec <i_4986>:
    800050ec:	e2c12f83          	lw	t6,-468(sp)

00000000800050f0 <i_4987>:
    800050f0:	ef510ba3          	sb	s5,-265(sp)

00000000800050f4 <i_4988>:
    800050f4:	78000593          	li	a1,1920

00000000800050f8 <i_4989>:
    800050f8:	78400493          	li	s1,1924

00000000800050fc <i_4990>:
    800050fc:	00000013          	nop

0000000080005100 <i_4991>:
    80005100:	00000013          	nop

0000000080005104 <i_4992>:
    80005104:	7db00a93          	li	s5,2011

0000000080005108 <i_4993>:
    80005108:	7eb00b93          	li	s7,2027

000000008000510c <i_4994>:
    8000510c:	405f8fbb          	subw	t6,t6,t0

0000000080005110 <i_4995>:
    80005110:	001a8a93          	addi	s5,s5,1
    80005114:	ff5bfce3          	bleu	s5,s7,8000510c <i_4994>

0000000080005118 <i_4996>:
    80005118:	00000013          	nop

000000008000511c <i_4997>:
    8000511c:	08411603          	lh	a2,132(sp)

0000000080005120 <i_4998>:
    80005120:	00600c13          	li	s8,6

0000000080005124 <i_4999>:
    80005124:	4180d0bb          	sraw	ra,ra,s8

0000000080005128 <i_5000>:
    80005128:	ea816c03          	lwu	s8,-344(sp)

000000008000512c <i_5001>:
    8000512c:	037dff33          	remu	t5,s11,s7

0000000080005130 <i_5002>:
    80005130:	00158593          	addi	a1,a1,1 # 5061f08d <main-0x2f9e0f73>
    80005134:	fc95e4e3          	bltu	a1,s1,800050fc <i_4990>

0000000080005138 <i_5003>:
    80005138:	0384cab3          	div	s5,s1,s8

000000008000513c <i_5004>:
    8000513c:	1de11d03          	lh	s10,478(sp)

0000000080005140 <i_5005>:
    80005140:	1e110403          	lb	s0,481(sp)

0000000080005144 <i_5006>:
    80005144:	0185da63          	ble	s8,a1,80005158 <i_5011>

0000000080005148 <i_5007>:
    80005148:	03895c3b          	divuw	s8,s2,s8

000000008000514c <i_5008>:
    8000514c:	e6812823          	sw	s0,-400(sp)

0000000080005150 <i_5009>:
    80005150:	01666463          	bltu	a2,s6,80005158 <i_5011>

0000000080005154 <i_5010>:
    80005154:	01213023          	sd	s2,0(sp)

0000000080005158 <i_5011>:
    80005158:	19114903          	lbu	s2,401(sp)

000000008000515c <i_5012>:
    8000515c:	17813183          	ld	gp,376(sp)

0000000080005160 <i_5013>:
    80005160:	00241263          	bne	s0,sp,80005164 <i_5014>

0000000080005164 <i_5014>:
    80005164:	eb014403          	lbu	s0,-336(sp)

0000000080005168 <i_5015>:
    80005168:	00385463          	ble	gp,a6,80005170 <i_5017>

000000008000516c <i_5016>:
    8000516c:	fa311f23          	sh	gp,-66(sp)

0000000080005170 <i_5017>:
    80005170:	db592913          	slti	s2,s2,-587

0000000080005174 <i_5018>:
    80005174:	01841e63          	bne	s0,s8,80005190 <i_5025>

0000000080005178 <i_5019>:
    80005178:	f7615903          	lhu	s2,-138(sp)

000000008000517c <i_5020>:
    8000517c:	03543ab3          	mulhu	s5,s0,s5

0000000080005180 <i_5021>:
    80005180:	003a1863          	bne	s4,gp,80005190 <i_5025>

0000000080005184 <i_5022>:
    80005184:	8baafa97          	auipc	s5,0x8baaf

0000000080005188 <i_5023>:
    80005188:	f4f14683          	lbu	a3,-177(sp)

000000008000518c <i_5024>:
    8000518c:	02d1f063          	bleu	a3,gp,800051ac <i_5032>

0000000080005190 <i_5025>:
    80005190:	f2d13c23          	sd	a3,-200(sp)

0000000080005194 <i_5026>:
    80005194:	05410023          	sb	s4,64(sp)

0000000080005198 <i_5027>:
    80005198:	e4812d83          	lw	s11,-440(sp)

000000008000519c <i_5028>:
    8000519c:	12312a23          	sw	gp,308(sp)

00000000800051a0 <i_5029>:
    800051a0:	0296ff3b          	remuw	t5,a3,s1

00000000800051a4 <i_5030>:
    800051a4:	003a8863          	beq	s5,gp,800051b4 <i_5034>

00000000800051a8 <i_5031>:
    800051a8:	06d13423          	sd	a3,104(sp)

00000000800051ac <i_5032>:
    800051ac:	0156fc63          	bleu	s5,a3,800051c4 <i_5038>

00000000800051b0 <i_5033>:
    800051b0:	0261adb3          	mulhsu	s11,gp,t1

00000000800051b4 <i_5034>:
    800051b4:	fe313c23          	sd	gp,-8(sp)

00000000800051b8 <i_5035>:
    800051b8:	12310523          	sb	gp,298(sp)

00000000800051bc <i_5036>:
    800051bc:	1a614683          	lbu	a3,422(sp)

00000000800051c0 <i_5037>:
    800051c0:	fe612a23          	sw	t1,-12(sp)

00000000800051c4 <i_5038>:
    800051c4:	00a6cfb3          	xor	t6,a3,a0

00000000800051c8 <i_5039>:
    800051c8:	01faca63          	blt	s5,t6,800051dc <i_5044>

00000000800051cc <i_5040>:
    800051cc:	19e11323          	sh	t5,390(sp)

00000000800051d0 <i_5041>:
    800051d0:	f3712623          	sw	s7,-212(sp)

00000000800051d4 <i_5042>:
    800051d4:	00de6263          	bltu	t3,a3,800051d8 <i_5043>

00000000800051d8 <i_5043>:
    800051d8:	e46be693          	ori	a3,s7,-442

00000000800051dc <i_5044>:
    800051dc:	093102a3          	sb	s3,133(sp)

00000000800051e0 <i_5045>:
    800051e0:	07013383          	ld	t2,112(sp)

00000000800051e4 <i_5046>:
    800051e4:	00d3ec63          	bltu	t2,a3,800051fc <i_5052>

00000000800051e8 <i_5047>:
    800051e8:	e3314203          	lbu	tp,-461(sp)

00000000800051ec <i_5048>:
    800051ec:	0243ed33          	rem	s10,t2,tp

00000000800051f0 <i_5049>:
    800051f0:	0a811683          	lh	a3,168(sp)

00000000800051f4 <i_5050>:
    800051f4:	0a713423          	sd	t2,168(sp)

00000000800051f8 <i_5051>:
    800051f8:	4023d393          	srai	t2,t2,0x2

00000000800051fc <i_5052>:
    800051fc:	b3233313          	sltiu	t1,t1,-1230

0000000080005200 <i_5053>:
    80005200:	586634b7          	lui	s1,0x58663

0000000080005204 <i_5054>:
    80005204:	41a7033b          	subw	t1,a4,s10

0000000080005208 <i_5055>:
    80005208:	89f00393          	li	t2,-1889

000000008000520c <i_5056>:
    8000520c:	8b200a13          	li	s4,-1870

0000000080005210 <i_5057>:
    80005210:	00500313          	li	t1,5

0000000080005214 <i_5058>:
    80005214:	40635533          	sra	a0,t1,t1

0000000080005218 <i_5059>:
    80005218:	08810423          	sb	s0,136(sp)

000000008000521c <i_5060>:
    8000521c:	00652cb3          	slt	s9,a0,t1

0000000080005220 <i_5061>:
    80005220:	ee611423          	sh	t1,-280(sp)

0000000080005224 <i_5062>:
    80005224:	00138393          	addi	t2,t2,1
    80005228:	ff43e4e3          	bltu	t2,s4,80005210 <i_5057>

000000008000522c <i_5063>:
    8000522c:	e6010203          	lb	tp,-416(sp)

0000000080005230 <i_5064>:
    80005230:	eca13c23          	sd	a0,-296(sp)

0000000080005234 <i_5065>:
    80005234:	efa10b83          	lb	s7,-262(sp)

0000000080005238 <i_5066>:
    80005238:	fb011503          	lh	a0,-80(sp)

000000008000523c <i_5067>:
    8000523c:	00309093          	slli	ra,ra,0x3

0000000080005240 <i_5068>:
    80005240:	ed813683          	ld	a3,-296(sp)

0000000080005244 <i_5069>:
    80005244:	f3a11083          	lh	ra,-198(sp)

0000000080005248 <i_5070>:
    80005248:	00500293          	li	t0,5

000000008000524c <i_5071>:
    8000524c:	005690bb          	sllw	ra,a3,t0

0000000080005250 <i_5072>:
    80005250:	f3a15283          	lhu	t0,-198(sp)

0000000080005254 <i_5073>:
    80005254:	01b0a0b3          	slt	ra,ra,s11

0000000080005258 <i_5074>:
    80005258:	00985e63          	ble	s1,a6,80005274 <i_5081>

000000008000525c <i_5075>:
    8000525c:	ec111623          	sh	ra,-308(sp)

0000000080005260 <i_5076>:
    80005260:	02109263          	bne	ra,ra,80005284 <i_5085>

0000000080005264 <i_5077>:
    80005264:	00d6ec63          	bltu	a3,a3,8000527c <i_5083>

0000000080005268 <i_5078>:
    80005268:	025286bb          	mulw	a3,t0,t0

000000008000526c <i_5079>:
    8000526c:	0bf10683          	lb	a3,191(sp)

0000000080005270 <i_5080>:
    80005270:	00d68263          	beq	a3,a3,80005274 <i_5081>

0000000080005274 <i_5081>:
    80005274:	e2214383          	lbu	t2,-478(sp)

0000000080005278 <i_5082>:
    80005278:	12712e23          	sw	t2,316(sp)

000000008000527c <i_5083>:
    8000527c:	0052de63          	ble	t0,t0,80005298 <i_5090>

0000000080005280 <i_5084>:
    80005280:	e4e11383          	lh	t2,-434(sp)

0000000080005284 <i_5085>:
    80005284:	0a414883          	lbu	a7,164(sp)

0000000080005288 <i_5086>:
    80005288:	0048959b          	slliw	a1,a7,0x4

000000008000528c <i_5087>:
    8000528c:	12012a03          	lw	s4,288(sp)

0000000080005290 <i_5088>:
    80005290:	00b5c6b3          	xor	a3,a1,a1

0000000080005294 <i_5089>:
    80005294:	e9015a03          	lhu	s4,-368(sp)

0000000080005298 <i_5090>:
    80005298:	02d58063          	beq	a1,a3,800052b8 <i_5098>

000000008000529c <i_5091>:
    8000529c:	00d8de63          	ble	a3,a7,800052b8 <i_5098>

00000000800052a0 <i_5092>:
    800052a0:	41d5873b          	subw	a4,a1,t4

00000000800052a4 <i_5093>:
    800052a4:	011cf733          	and	a4,s9,a7

00000000800052a8 <i_5094>:
    800052a8:	005f7e63          	bleu	t0,t5,800052c4 <i_5101>

00000000800052ac <i_5095>:
    800052ac:	02e2e2bb          	remw	t0,t0,a4

00000000800052b0 <i_5096>:
    800052b0:	00714183          	lbu	gp,7(sp)

00000000800052b4 <i_5097>:
    800052b4:	07714283          	lbu	t0,119(sp)

00000000800052b8 <i_5098>:
    800052b8:	02e71463          	bne	a4,a4,800052e0 <i_5108>

00000000800052bc <i_5099>:
    800052bc:	4047571b          	sraiw	a4,a4,0x4

00000000800052c0 <i_5100>:
    800052c0:	fcc11d83          	lh	s11,-52(sp)

00000000800052c4 <i_5101>:
    800052c4:	01016703          	lwu	a4,16(sp)

00000000800052c8 <i_5102>:
    800052c8:	ee812983          	lw	s3,-280(sp)

00000000800052cc <i_5103>:
    800052cc:	fce12023          	sw	a4,-64(sp)

00000000800052d0 <i_5104>:
    800052d0:	02ea1b33          	mulh	s6,s4,a4

00000000800052d4 <i_5105>:
    800052d4:	02e74733          	div	a4,a4,a4

00000000800052d8 <i_5106>:
    800052d8:	e4814703          	lbu	a4,-440(sp)

00000000800052dc <i_5107>:
    800052dc:	03398263          	beq	s3,s3,80005300 <i_5116>

00000000800052e0 <i_5108>:
    800052e0:	00ecd463          	ble	a4,s9,800052e8 <i_5110>

00000000800052e4 <i_5109>:
    800052e4:	0b416603          	lwu	a2,180(sp)

00000000800052e8 <i_5110>:
    800052e8:	00f00193          	li	gp,15

00000000800052ec <i_5111>:
    800052ec:	0039dabb          	srlw	s5,s3,gp

00000000800052f0 <i_5112>:
    800052f0:	04f14183          	lbu	gp,79(sp)

00000000800052f4 <i_5113>:
    800052f4:	02e9c6b3          	div	a3,s3,a4

00000000800052f8 <i_5114>:
    800052f8:	00311a63          	bne	sp,gp,8000530c <i_5119>

00000000800052fc <i_5115>:
    800052fc:	69fa8193          	addi	gp,s5,1695 # bab4823 <main-0x7454b7dd>

0000000080005300 <i_5116>:
    80005300:	f1812283          	lw	t0,-232(sp)

0000000080005304 <i_5117>:
    80005304:	f0d11123          	sh	a3,-254(sp)

0000000080005308 <i_5118>:
    80005308:	f7416183          	lwu	gp,-140(sp)

000000008000530c <i_5119>:
    8000530c:	002ad69b          	srliw	a3,s5,0x2

0000000080005310 <i_5120>:
    80005310:	fba105a3          	sb	s10,-85(sp)

0000000080005314 <i_5121>:
    80005314:	00000013          	nop

0000000080005318 <i_5122>:
    80005318:	81600d13          	li	s10,-2026

000000008000531c <i_5123>:
    8000531c:	81b00693          	li	a3,-2021

0000000080005320 <i_5124>:
    80005320:	003d5c13          	srli	s8,s10,0x3

0000000080005324 <i_5125>:
    80005324:	f6814383          	lbu	t2,-152(sp)

0000000080005328 <i_5126>:
    80005328:	01813b03          	ld	s6,24(sp)

000000008000532c <i_5127>:
    8000532c:	02d76abb          	remw	s5,a4,a3

0000000080005330 <i_5128>:
    80005330:	14711023          	sh	t2,320(sp)

0000000080005334 <i_5129>:
    80005334:	e2cd2213          	slti	tp,s10,-468

0000000080005338 <i_5130>:
    80005338:	005ad263          	ble	t0,s5,8000533c <i_5131>

000000008000533c <i_5131>:
    8000533c:	02d51463          	bne	a0,a3,80005364 <i_5140>

0000000080005340 <i_5132>:
    80005340:	ee5103a3          	sb	t0,-281(sp)

0000000080005344 <i_5133>:
    80005344:	03a39663          	bne	t2,s10,80005370 <i_5143>

0000000080005348 <i_5134>:
    80005348:	6aec2b13          	slti	s6,s8,1710

000000008000534c <i_5135>:
    8000534c:	0363c063          	blt	t2,s6,8000536c <i_5142>

0000000080005350 <i_5136>:
    80005350:	001d0d13          	addi	s10,s10,1
    80005354:	fda6d6e3          	ble	s10,a3,80005320 <i_5124>

0000000080005358 <i_5137>:
    80005358:	00812203          	lw	tp,8(sp)

000000008000535c <i_5138>:
    8000535c:	027b5463          	ble	t2,s6,80005384 <i_5148>

0000000080005360 <i_5139>:
    80005360:	bc6b021b          	addiw	tp,s6,-1082

0000000080005364 <i_5140>:
    80005364:	fc411823          	sh	tp,-48(sp)

0000000080005368 <i_5141>:
    80005368:	eb012603          	lw	a2,-336(sp)

000000008000536c <i_5142>:
    8000536c:	fa411e23          	sh	tp,-68(sp)

0000000080005370 <i_5143>:
    80005370:	0278ef33          	rem	t5,a7,t2

0000000080005374 <i_5144>:
    80005374:	00b00613          	li	a2,11

0000000080005378 <i_5145>:
    80005378:	00cd563b          	srlw	a2,s10,a2

000000008000537c <i_5146>:
    8000537c:	01400593          	li	a1,20

0000000080005380 <i_5147>:
    80005380:	00b3d43b          	srlw	s0,t2,a1

0000000080005384 <i_5148>:
    80005384:	11810e23          	sb	s8,284(sp)

0000000080005388 <i_5149>:
    80005388:	0027d313          	srli	t1,a5,0x2

000000008000538c <i_5150>:
    8000538c:	76700893          	li	a7,1895

0000000080005390 <i_5151>:
    80005390:	77a00793          	li	a5,1914

0000000080005394 <i_5152>:
    80005394:	16e15c03          	lhu	s8,366(sp)

0000000080005398 <i_5153>:
    80005398:	14b10aa3          	sb	a1,341(sp)

000000008000539c <i_5154>:
    8000539c:	02b31063          	bne	t1,a1,800053bc <i_5161>

00000000800053a0 <i_5155>:
    800053a0:	00188893          	addi	a7,a7,1
    800053a4:	ff17f8e3          	bleu	a7,a5,80005394 <i_5152>

00000000800053a8 <i_5156>:
    800053a8:	8657bc93          	sltiu	s9,a5,-1947

00000000800053ac <i_5157>:
    800053ac:	e7910b23          	sb	s9,-394(sp)

00000000800053b0 <i_5158>:
    800053b0:	f4a10903          	lb	s2,-182(sp)

00000000800053b4 <i_5159>:
    800053b4:	16815503          	lhu	a0,360(sp)

00000000800053b8 <i_5160>:
    800053b8:	00000013          	nop

00000000800053bc <i_5161>:
    800053bc:	04b10c83          	lb	s9,75(sp)

00000000800053c0 <i_5162>:
    800053c0:	0da15903          	lhu	s2,218(sp)

00000000800053c4 <i_5163>:
    800053c4:	77c00793          	li	a5,1916

00000000800053c8 <i_5164>:
    800053c8:	78000593          	li	a1,1920

00000000800053cc <i_5165>:
    800053cc:	03600c13          	li	s8,54

00000000800053d0 <i_5166>:
    800053d0:	418c5533          	sra	a0,s8,s8

00000000800053d4 <i_5167>:
    800053d4:	00178793          	addi	a5,a5,1
    800053d8:	feb7eae3          	bltu	a5,a1,800053cc <i_5165>

00000000800053dc <i_5168>:
    800053dc:	e9212023          	sw	s2,-384(sp)

00000000800053e0 <i_5169>:
    800053e0:	fd211623          	sh	s2,-52(sp)

00000000800053e4 <i_5170>:
    800053e4:	1b813c03          	ld	s8,440(sp)

00000000800053e8 <i_5171>:
    800053e8:	8ca00913          	li	s2,-1846

00000000800053ec <i_5172>:
    800053ec:	8d500513          	li	a0,-1835

00000000800053f0 <i_5173>:
    800053f0:	b623849b          	addiw	s1,t2,-1182

00000000800053f4 <i_5174>:
    800053f4:	0384883b          	mulw	a6,s1,s8

00000000800053f8 <i_5175>:
    800053f8:	01314983          	lbu	s3,19(sp)

00000000800053fc <i_5176>:
    800053fc:	02913423          	sd	s1,40(sp)

0000000080005400 <i_5177>:
    80005400:	018d4463          	blt	s10,s8,80005408 <i_5179>

0000000080005404 <i_5178>:
    80005404:	018df263          	bleu	s8,s11,80005408 <i_5179>

0000000080005408 <i_5179>:
    80005408:	40798a93          	addi	s5,s3,1031

000000008000540c <i_5180>:
    8000540c:	00000013          	nop

0000000080005410 <i_5181>:
    80005410:	05013583          	ld	a1,80(sp)

0000000080005414 <i_5182>:
    80005414:	e6a14183          	lbu	gp,-406(sp)

0000000080005418 <i_5183>:
    80005418:	00190913          	addi	s2,s2,1
    8000541c:	fd257ae3          	bleu	s2,a0,800053f0 <i_5173>

0000000080005420 <i_5184>:
    80005420:	fb511d23          	sh	s5,-70(sp)

0000000080005424 <i_5185>:
    80005424:	f1360613          	addi	a2,a2,-237

0000000080005428 <i_5186>:
    80005428:	88900713          	li	a4,-1911

000000008000542c <i_5187>:
    8000542c:	89b00493          	li	s1,-1893

0000000080005430 <i_5188>:
    80005430:	00a85863          	ble	a0,a6,80005440 <i_5192>

0000000080005434 <i_5189>:
    80005434:	1ca15803          	lhu	a6,458(sp)

0000000080005438 <i_5190>:
    80005438:	0e816a03          	lwu	s4,232(sp)

000000008000543c <i_5191>:
    8000543c:	e4416b03          	lwu	s6,-444(sp)

0000000080005440 <i_5192>:
    80005440:	09110603          	lb	a2,145(sp)

0000000080005444 <i_5193>:
    80005444:	1e412203          	lw	tp,484(sp)

0000000080005448 <i_5194>:
    80005448:	00a00b13          	li	s6,10

000000008000544c <i_5195>:
    8000544c:	016b5fb3          	srl	t6,s6,s6

0000000080005450 <i_5196>:
    80005450:	fac15583          	lhu	a1,-84(sp)

0000000080005454 <i_5197>:
    80005454:	00170713          	addi	a4,a4,1
    80005458:	fc974ce3          	blt	a4,s1,80005430 <i_5188>

000000008000545c <i_5198>:
    8000545c:	03f5e063          	bltu	a1,t6,8000547c <i_5206>

0000000080005460 <i_5199>:
    80005460:	0341aa33          	mulhsu	s4,gp,s4

0000000080005464 <i_5200>:
    80005464:	02c221b7          	lui	gp,0x2c22

0000000080005468 <i_5201>:
    80005468:	0131c463          	blt	gp,s3,80005470 <i_5203>

000000008000546c <i_5202>:
    8000546c:	03413423          	sd	s4,40(sp)

0000000080005470 <i_5203>:
    80005470:	01ffcc63          	blt	t6,t6,80005488 <i_5209>

0000000080005474 <i_5204>:
    80005474:	e2211e03          	lh	t3,-478(sp)

0000000080005478 <i_5205>:
    80005478:	00000013          	nop

000000008000547c <i_5206>:
    8000547c:	0234443b          	divw	s0,s0,gp

0000000080005480 <i_5207>:
    80005480:	f8811323          	sh	s0,-122(sp)

0000000080005484 <i_5208>:
    80005484:	ead14283          	lbu	t0,-339(sp)

0000000080005488 <i_5209>:
    80005488:	00000013          	nop

000000008000548c <i_5210>:
    8000548c:	2f820197          	auipc	gp,0x2f820

0000000080005490 <i_5211>:
    80005490:	82e00593          	li	a1,-2002

0000000080005494 <i_5212>:
    80005494:	83000c93          	li	s9,-2000

0000000080005498 <i_5213>:
    80005498:	12812823          	sw	s0,304(sp)

000000008000549c <i_5214>:
    8000549c:	00830333          	add	t1,t1,s0

00000000800054a0 <i_5215>:
    800054a0:	0262f463          	bleu	t1,t0,800054c8 <i_5224>

00000000800054a4 <i_5216>:
    800054a4:	01300293          	li	t0,19

00000000800054a8 <i_5217>:
    800054a8:	00525333          	srl	t1,tp,t0

00000000800054ac <i_5218>:
    800054ac:	00332333          	slt	t1,t1,gp

00000000800054b0 <i_5219>:
    800054b0:	00158593          	addi	a1,a1,1
    800054b4:	febcd2e3          	ble	a1,s9,80005498 <i_5213>

00000000800054b8 <i_5220>:
    800054b8:	00530a63          	beq	t1,t0,800054cc <i_5225>

00000000800054bc <i_5221>:
    800054bc:	0b110d03          	lb	s10,177(sp)

00000000800054c0 <i_5222>:
    800054c0:	03a28063          	beq	t0,s10,800054e0 <i_5230>

00000000800054c4 <i_5223>:
    800054c4:	40530c33          	sub	s8,t1,t0

00000000800054c8 <i_5224>:
    800054c8:	1b211c03          	lh	s8,434(sp)

00000000800054cc <i_5225>:
    800054cc:	005c4e63          	blt	s8,t0,800054e8 <i_5232>

00000000800054d0 <i_5226>:
    800054d0:	cba32c93          	slti	s9,t1,-838

00000000800054d4 <i_5227>:
    800054d4:	fd813823          	sd	s8,-48(sp)

00000000800054d8 <i_5228>:
    800054d8:	f1813b83          	ld	s7,-232(sp)

00000000800054dc <i_5229>:
    800054dc:	8bbe5c17          	auipc	s8,0x8bbe5

00000000800054e0 <i_5230>:
    800054e0:	007b4663          	blt	s6,t2,800054ec <i_5233>

00000000800054e4 <i_5231>:
    800054e4:	0170b233          	sltu	tp,ra,s7

00000000800054e8 <i_5232>:
    800054e8:	018c4663          	blt	s8,s8,800054f4 <i_5235>

00000000800054ec <i_5233>:
    800054ec:	004c7a63          	bleu	tp,s8,80005500 <i_5238>

00000000800054f0 <i_5234>:
    800054f0:	024c5063          	ble	tp,s8,80005510 <i_5242>

00000000800054f4 <i_5235>:
    800054f4:	ed010583          	lb	a1,-304(sp)

00000000800054f8 <i_5236>:
    800054f8:	0245c23b          	divw	tp,a1,tp

00000000800054fc <i_5237>:
    800054fc:	fe812583          	lw	a1,-24(sp)

0000000080005500 <i_5238>:
    80005500:	ea011183          	lh	gp,-352(sp)

0000000080005504 <i_5239>:
    80005504:	024b5463          	ble	tp,s6,8000552c <i_5249>

0000000080005508 <i_5240>:
    80005508:	ef410203          	lb	tp,-268(sp)

000000008000550c <i_5241>:
    8000550c:	e3811203          	lh	tp,-456(sp)

0000000080005510 <i_5242>:
    80005510:	13013b83          	ld	s7,304(sp)

0000000080005514 <i_5243>:
    80005514:	00730533          	add	a0,t1,t2

0000000080005518 <i_5244>:
    80005518:	0f816203          	lwu	tp,248(sp)

000000008000551c <i_5245>:
    8000551c:	09710ea3          	sb	s7,157(sp)

0000000080005520 <i_5246>:
    80005520:	94454e13          	xori	t3,a0,-1724

0000000080005524 <i_5247>:
    80005524:	f9614883          	lbu	a7,-106(sp)

0000000080005528 <i_5248>:
    80005528:	1a312823          	sw	gp,432(sp)

000000008000552c <i_5249>:
    8000552c:	00000013          	nop

0000000080005530 <i_5250>:
    80005530:	03296d3b          	remw	s10,s2,s2

0000000080005534 <i_5251>:
    80005534:	75a00193          	li	gp,1882

0000000080005538 <i_5252>:
    80005538:	76700913          	li	s2,1895

000000008000553c <i_5253>:
    8000553c:	0f615e03          	lhu	t3,246(sp)

0000000080005540 <i_5254>:
    80005540:	f3b101a3          	sb	s11,-221(sp)

0000000080005544 <i_5255>:
    80005544:	7f400d93          	li	s11,2036

0000000080005548 <i_5256>:
    80005548:	7f900093          	li	ra,2041

000000008000554c <i_5257>:
    8000554c:	001d8d93          	addi	s11,s11,1
    80005550:	ffb0dee3          	ble	s11,ra,8000554c <i_5257>

0000000080005554 <i_5258>:
    80005554:	00389513          	slli	a0,a7,0x3

0000000080005558 <i_5259>:
    80005558:	1ca11523          	sh	a0,458(sp)

000000008000555c <i_5260>:
    8000555c:	00118193          	addi	gp,gp,1 # af82548d <_end+0x2f815079>
    80005560:	fd21eee3          	bltu	gp,s2,8000553c <i_5253>

0000000080005564 <i_5261>:
    80005564:	09812283          	lw	t0,152(sp)

0000000080005568 <i_5262>:
    80005568:	01d00193          	li	gp,29

000000008000556c <i_5263>:
    8000556c:	003912b3          	sll	t0,s2,gp

0000000080005570 <i_5264>:
    80005570:	ec513423          	sd	t0,-312(sp)

0000000080005574 <i_5265>:
    80005574:	008dde63          	ble	s0,s11,80005590 <i_5272>

0000000080005578 <i_5266>:
    80005578:	f3a13023          	sd	s10,-224(sp)

000000008000557c <i_5267>:
    8000557c:	003de663          	bltu	s11,gp,80005588 <i_5270>

0000000080005580 <i_5268>:
    80005580:	e6c16203          	lwu	tp,-404(sp)

0000000080005584 <i_5269>:
    80005584:	ea113c23          	sd	ra,-328(sp)

0000000080005588 <i_5270>:
    80005588:	f1816183          	lwu	gp,-232(sp)

000000008000558c <i_5271>:
    8000558c:	04814183          	lbu	gp,72(sp)

0000000080005590 <i_5272>:
    80005590:	fd813183          	ld	gp,-40(sp)

0000000080005594 <i_5273>:
    80005594:	3a0ab313          	sltiu	t1,s5,928

0000000080005598 <i_5274>:
    80005598:	81400d93          	li	s11,-2028

000000008000559c <i_5275>:
    8000559c:	82400d13          	li	s10,-2012

00000000800055a0 <i_5276>:
    800055a0:	01b8b333          	sltu	t1,a7,s11

00000000800055a4 <i_5277>:
    800055a4:	00000013          	nop

00000000800055a8 <i_5278>:
    800055a8:	12813683          	ld	a3,296(sp)

00000000800055ac <i_5279>:
    800055ac:	006d88b3          	add	a7,s11,t1

00000000800055b0 <i_5280>:
    800055b0:	00600693          	li	a3,6

00000000800055b4 <i_5281>:
    800055b4:	00dd52bb          	srlw	t0,s10,a3

00000000800055b8 <i_5282>:
    800055b8:	02df5063          	ble	a3,t5,800055d8 <i_5289>

00000000800055bc <i_5283>:
    800055bc:	476201b7          	lui	gp,0x47620

00000000800055c0 <i_5284>:
    800055c0:	001d8d93          	addi	s11,s11,1
    800055c4:	fdadeee3          	bltu	s11,s10,800055a0 <i_5276>

00000000800055c8 <i_5285>:
    800055c8:	00000013          	nop

00000000800055cc <i_5286>:
    800055cc:	01a2b7b3          	sltu	a5,t0,s10

00000000800055d0 <i_5287>:
    800055d0:	16f12423          	sw	a5,360(sp)

00000000800055d4 <i_5288>:
    800055d4:	77c73713          	sltiu	a4,a4,1916

00000000800055d8 <i_5289>:
    800055d8:	00000013          	nop

00000000800055dc <i_5290>:
    800055dc:	40f707bb          	subw	a5,a4,a5

00000000800055e0 <i_5291>:
    800055e0:	88300893          	li	a7,-1917

00000000800055e4 <i_5292>:
    800055e4:	88a00b13          	li	s6,-1910

00000000800055e8 <i_5293>:
    800055e8:	19a15283          	lhu	t0,410(sp)

00000000800055ec <i_5294>:
    800055ec:	00491f9b          	slliw	t6,s2,0x4

00000000800055f0 <i_5295>:
    800055f0:	00e00e13          	li	t3,14

00000000800055f4 <i_5296>:
    800055f4:	01c79ebb          	sllw	t4,a5,t3

00000000800055f8 <i_5297>:
    800055f8:	03de1063          	bne	t3,t4,80005618 <i_5304>

00000000800055fc <i_5298>:
    800055fc:	01b00e13          	li	t3,27

0000000080005600 <i_5299>:
    80005600:	01c31ebb          	sllw	t4,t1,t3

0000000080005604 <i_5300>:
    80005604:	00188893          	addi	a7,a7,1
    80005608:	ff68e0e3          	bltu	a7,s6,800055e8 <i_5293>

000000008000560c <i_5301>:
    8000560c:	05610f03          	lb	t5,86(sp)

0000000080005610 <i_5302>:
    80005610:	03dfcfb3          	div	t6,t6,t4

0000000080005614 <i_5303>:
    80005614:	009feeb3          	or	t4,t6,s1

0000000080005618 <i_5304>:
    80005618:	07d12623          	sw	t4,108(sp)

000000008000561c <i_5305>:
    8000561c:	01fe7833          	and	a6,t3,t6

0000000080005620 <i_5306>:
    80005620:	e1a11403          	lh	s0,-486(sp)

0000000080005624 <i_5307>:
    80005624:	fdf100a3          	sb	t6,-63(sp)

0000000080005628 <i_5308>:
    80005628:	e2811523          	sh	s0,-470(sp)

000000008000562c <i_5309>:
    8000562c:	01cfc663          	blt	t6,t3,80005638 <i_5312>

0000000080005630 <i_5310>:
    80005630:	01eed463          	ble	t5,t4,80005638 <i_5312>

0000000080005634 <i_5311>:
    80005634:	03cfd2bb          	divuw	t0,t6,t3

0000000080005638 <i_5312>:
    80005638:	08416283          	lwu	t0,132(sp)

000000008000563c <i_5313>:
    8000563c:	e6a13823          	sd	a0,-400(sp)

0000000080005640 <i_5314>:
    80005640:	e9412503          	lw	a0,-364(sp)

0000000080005644 <i_5315>:
    80005644:	00e2a733          	slt	a4,t0,a4

0000000080005648 <i_5316>:
    80005648:	07510783          	lb	a5,117(sp)

000000008000564c <i_5317>:
    8000564c:	025e5263          	ble	t0,t3,80005670 <i_5326>

0000000080005650 <i_5318>:
    80005650:	f7828b93          	addi	s7,t0,-136

0000000080005654 <i_5319>:
    80005654:	122142b7          	lui	t0,0x12214

0000000080005658 <i_5320>:
    80005658:	03b29063          	bne	t0,s11,80005678 <i_5328>

000000008000565c <i_5321>:
    8000565c:	f5013c23          	sd	a6,-168(sp)

0000000080005660 <i_5322>:
    80005660:	0d712a23          	sw	s7,212(sp)

0000000080005664 <i_5323>:
    80005664:	03f2c2bb          	divw	t0,t0,t6

0000000080005668 <i_5324>:
    80005668:	1e013f83          	ld	t6,480(sp)

000000008000566c <i_5325>:
    8000566c:	025be463          	bltu	s7,t0,80005694 <i_5335>

0000000080005670 <i_5326>:
    80005670:	03f00593          	li	a1,63

0000000080005674 <i_5327>:
    80005674:	40bfd233          	sra	tp,t6,a1

0000000080005678 <i_5328>:
    80005678:	024bf5b3          	remu	a1,s7,tp

000000008000567c <i_5329>:
    8000567c:	00424463          	blt	tp,tp,80005684 <i_5331>

0000000080005680 <i_5330>:
    80005680:	07615583          	lhu	a1,118(sp)

0000000080005684 <i_5331>:
    80005684:	9017831b          	addiw	t1,a5,-1791

0000000080005688 <i_5332>:
    80005688:	006fc663          	blt	t6,t1,80005694 <i_5335>

000000008000568c <i_5333>:
    8000568c:	00f36e63          	bltu	t1,a5,800056a8 <i_5340>

0000000080005690 <i_5334>:
    80005690:	01310633          	add	a2,sp,s3

0000000080005694 <i_5335>:
    80005694:	f9a11803          	lh	a6,-102(sp)

0000000080005698 <i_5336>:
    80005698:	0262f333          	remu	t1,t0,t1

000000008000569c <i_5337>:
    8000569c:	02b27333          	remu	t1,tp,a1

00000000800056a0 <i_5338>:
    800056a0:	01a58663          	beq	a1,s10,800056ac <i_5341>

00000000800056a4 <i_5339>:
    800056a4:	02f92233          	mulhsu	tp,s2,a5

00000000800056a8 <i_5340>:
    800056a8:	0df10fa3          	sb	t6,223(sp)

00000000800056ac <i_5341>:
    800056ac:	00000013          	nop

00000000800056b0 <i_5342>:
    800056b0:	00c15f03          	lhu	t5,12(sp)

00000000800056b4 <i_5343>:
    800056b4:	87500893          	li	a7,-1931

00000000800056b8 <i_5344>:
    800056b8:	88000913          	li	s2,-1920

00000000800056bc <i_5345>:
    800056bc:	00000013          	nop

00000000800056c0 <i_5346>:
    800056c0:	ec813d03          	ld	s10,-312(sp)

00000000800056c4 <i_5347>:
    800056c4:	88b00f93          	li	t6,-1909

00000000800056c8 <i_5348>:
    800056c8:	89f00513          	li	a0,-1889

00000000800056cc <i_5349>:
    800056cc:	00000013          	nop

00000000800056d0 <i_5350>:
    800056d0:	00000013          	nop

00000000800056d4 <i_5351>:
    800056d4:	00000013          	nop

00000000800056d8 <i_5352>:
    800056d8:	001f8f93          	addi	t6,t6,1
    800056dc:	feaf98e3          	bne	t6,a0,800056cc <i_5349>

00000000800056e0 <i_5353>:
    800056e0:	ec016c83          	lwu	s9,-320(sp)

00000000800056e4 <i_5354>:
    800056e4:	00f00593          	li	a1,15

00000000800056e8 <i_5355>:
    800056e8:	40b75bbb          	sraw	s7,a4,a1

00000000800056ec <i_5356>:
    800056ec:	00188893          	addi	a7,a7,1
    800056f0:	fd28e6e3          	bltu	a7,s2,800056bc <i_5345>

00000000800056f4 <i_5357>:
    800056f4:	019c8c63          	beq	s9,s9,8000570c <i_5363>

00000000800056f8 <i_5358>:
    800056f8:	06893593          	sltiu	a1,s2,104

00000000800056fc <i_5359>:
    800056fc:	0c412c83          	lw	s9,196(sp)

0000000080005700 <i_5360>:
    80005700:	16c12e23          	sw	a2,380(sp)

0000000080005704 <i_5361>:
    80005704:	ff910523          	sb	s9,-22(sp)

0000000080005708 <i_5362>:
    80005708:	01f00e93          	li	t4,31

000000008000570c <i_5363>:
    8000570c:	41d6593b          	sraw	s2,a2,t4

0000000080005710 <i_5364>:
    80005710:	e7910c83          	lb	s9,-391(sp)

0000000080005714 <i_5365>:
    80005714:	8a800893          	li	a7,-1880

0000000080005718 <i_5366>:
    80005718:	8b700613          	li	a2,-1865

000000008000571c <i_5367>:
    8000571c:	03911b23          	sh	s9,54(sp)

0000000080005720 <i_5368>:
    80005720:	03012f03          	lw	t5,48(sp)

0000000080005724 <i_5369>:
    80005724:	02100f13          	li	t5,33

0000000080005728 <i_5370>:
    80005728:	41ecdcb3          	sra	s9,s9,t5

000000008000572c <i_5371>:
    8000572c:	f79107a3          	sb	s9,-145(sp)

0000000080005730 <i_5372>:
    80005730:	06c14303          	lbu	t1,108(sp)

0000000080005734 <i_5373>:
    80005734:	039cc263          	blt	s9,s9,80005758 <i_5381>

0000000080005738 <i_5374>:
    80005738:	00000013          	nop

000000008000573c <i_5375>:
    8000573c:	00188893          	addi	a7,a7,1
    80005740:	fcc8eee3          	bltu	a7,a2,8000571c <i_5367>

0000000080005744 <i_5376>:
    80005744:	01e57533          	and	a0,a0,t5

0000000080005748 <i_5377>:
    80005748:	02a18263          	beq	gp,a0,8000576c <i_5386>

000000008000574c <i_5378>:
    8000574c:	e2011303          	lh	t1,-480(sp)

0000000080005750 <i_5379>:
    80005750:	03ed2333          	mulhsu	t1,s10,t5

0000000080005754 <i_5380>:
    80005754:	015cca63          	blt	s9,s5,80005768 <i_5385>

0000000080005758 <i_5381>:
    80005758:	07e103a3          	sb	t5,103(sp)

000000008000575c <i_5382>:
    8000575c:	006368b3          	or	a7,t1,t1

0000000080005760 <i_5383>:
    80005760:	d775c317          	auipc	t1,0xd775c

0000000080005764 <i_5384>:
    80005764:	02636463          	bltu	t1,t1,8000578c <i_5394>

0000000080005768 <i_5385>:
    80005768:	aaf8849b          	addiw	s1,a7,-1361

000000008000576c <i_5386>:
    8000576c:	f0613823          	sd	t1,-240(sp)

0000000080005770 <i_5387>:
    80005770:	1cc11303          	lh	t1,460(sp)

0000000080005774 <i_5388>:
    80005774:	e0911e23          	sh	s1,-484(sp)

0000000080005778 <i_5389>:
    80005778:	02d4c33b          	divw	t1,s1,a3

000000008000577c <i_5390>:
    8000577c:	ec911723          	sh	s1,-306(sp)

0000000080005780 <i_5391>:
    80005780:	03937c3b          	remuw	s8,t1,s9

0000000080005784 <i_5392>:
    80005784:	ea411403          	lh	s0,-348(sp)

0000000080005788 <i_5393>:
    80005788:	e8911523          	sh	s1,-374(sp)

000000008000578c <i_5394>:
    8000578c:	fa813503          	ld	a0,-88(sp)

0000000080005790 <i_5395>:
    80005790:	00600493          	li	s1,6

0000000080005794 <i_5396>:
    80005794:	00925333          	srl	t1,tp,s1

0000000080005798 <i_5397>:
    80005798:	7b300c13          	li	s8,1971

000000008000579c <i_5398>:
    8000579c:	7be00213          	li	tp,1982

00000000800057a0 <i_5399>:
    800057a0:	1a810323          	sb	s0,422(sp)

00000000800057a4 <i_5400>:
    800057a4:	fe012a03          	lw	s4,-32(sp)

00000000800057a8 <i_5401>:
    800057a8:	cf9c3c93          	sltiu	s9,s8,-775

00000000800057ac <i_5402>:
    800057ac:	00000013          	nop

00000000800057b0 <i_5403>:
    800057b0:	00000013          	nop

00000000800057b4 <i_5404>:
    800057b4:	0184ea33          	or	s4,s1,s8

00000000800057b8 <i_5405>:
    800057b8:	0a415783          	lhu	a5,164(sp)

00000000800057bc <i_5406>:
    800057bc:	00847863          	bleu	s0,s0,800057cc <i_5410>

00000000800057c0 <i_5407>:
    800057c0:	12f14c83          	lbu	s9,303(sp)

00000000800057c4 <i_5408>:
    800057c4:	418c0533          	sub	a0,s8,s8

00000000800057c8 <i_5409>:
    800057c8:	eef14883          	lbu	a7,-273(sp)

00000000800057cc <i_5410>:
    800057cc:	fac12703          	lw	a4,-84(sp)

00000000800057d0 <i_5411>:
    800057d0:	02e1c1bb          	divw	gp,gp,a4

00000000800057d4 <i_5412>:
    800057d4:	001c0c13          	addi	s8,s8,1 # bbea4dd <main-0x74415b23>
    800057d8:	fc4c12e3          	bne	s8,tp,8000579c <i_5398>

00000000800057dc <i_5413>:
    800057dc:	03113c23          	sd	a7,56(sp)

00000000800057e0 <i_5414>:
    800057e0:	f4f13423          	sd	a5,-184(sp)

00000000800057e4 <i_5415>:
    800057e4:	0b410b23          	sb	s4,182(sp)

00000000800057e8 <i_5416>:
    800057e8:	11813a03          	ld	s4,280(sp)

00000000800057ec <i_5417>:
    800057ec:	00c00093          	li	ra,12

00000000800057f0 <i_5418>:
    800057f0:	401cd8bb          	sraw	a7,s9,ra

00000000800057f4 <i_5419>:
    800057f4:	00000013          	nop

00000000800057f8 <i_5420>:
    800057f8:	e8a108a3          	sb	a0,-367(sp)

00000000800057fc <i_5421>:
    800057fc:	80500513          	li	a0,-2043

0000000080005800 <i_5422>:
    80005800:	80700193          	li	gp,-2041

0000000080005804 <i_5423>:
    80005804:	01100393          	li	t2,17

0000000080005808 <i_5424>:
    80005808:	00771a3b          	sllw	s4,a4,t2

000000008000580c <i_5425>:
    8000580c:	f2e15903          	lhu	s2,-210(sp)

0000000080005810 <i_5426>:
    80005810:	f7013e83          	ld	t4,-144(sp)

0000000080005814 <i_5427>:
    80005814:	8b600893          	li	a7,-1866

0000000080005818 <i_5428>:
    80005818:	8c800393          	li	t2,-1848

000000008000581c <i_5429>:
    8000581c:	15615a03          	lhu	s4,342(sp)

0000000080005820 <i_5430>:
    80005820:	0341a0b3          	mulhsu	ra,gp,s4

0000000080005824 <i_5431>:
    80005824:	00000013          	nop

0000000080005828 <i_5432>:
    80005828:	03da6733          	rem	a4,s4,t4

000000008000582c <i_5433>:
    8000582c:	02efe663          	bltu	t6,a4,80005858 <i_5442>

0000000080005830 <i_5434>:
    80005830:	00411293          	slli	t0,sp,0x4

0000000080005834 <i_5435>:
    80005834:	00000013          	nop

0000000080005838 <i_5436>:
    80005838:	00188893          	addi	a7,a7,1
    8000583c:	fe78c0e3          	blt	a7,t2,8000581c <i_5429>

0000000080005840 <i_5437>:
    80005840:	025fe6bb          	remw	a3,t6,t0

0000000080005844 <i_5438>:
    80005844:	01914203          	lbu	tp,25(sp)

0000000080005848 <i_5439>:
    80005848:	00150513          	addi	a0,a0,1
    8000584c:	fa351ce3          	bne	a0,gp,80005804 <i_5423>

0000000080005850 <i_5440>:
    80005850:	01600693          	li	a3,22

0000000080005854 <i_5441>:
    80005854:	00d0d0bb          	srlw	ra,ra,a3

0000000080005858 <i_5442>:
    80005858:	00c10083          	lb	ra,12(sp)

000000008000585c <i_5443>:
    8000585c:	ea014683          	lbu	a3,-352(sp)

0000000080005860 <i_5444>:
    80005860:	12d11e23          	sh	a3,316(sp)

0000000080005864 <i_5445>:
    80005864:	0231f1bb          	remuw	gp,gp,gp

0000000080005868 <i_5446>:
    80005868:	03ffcfbb          	divw	t6,t6,t6

000000008000586c <i_5447>:
    8000586c:	10816383          	lwu	t2,264(sp)

0000000080005870 <i_5448>:
    80005870:	03b51463          	bne	a0,s11,80005898 <i_5458>

0000000080005874 <i_5449>:
    80005874:	07f11c23          	sh	t6,120(sp)

0000000080005878 <i_5450>:
    80005878:	f4d11223          	sh	a3,-188(sp)

000000008000587c <i_5451>:
    8000587c:	0290f4bb          	remuw	s1,ra,s1

0000000080005880 <i_5452>:
    80005880:	02a14f83          	lbu	t6,42(sp)

0000000080005884 <i_5453>:
    80005884:	03411f83          	lh	t6,52(sp)

0000000080005888 <i_5454>:
    80005888:	02efcfbb          	divw	t6,t6,a4

000000008000588c <i_5455>:
    8000588c:	01ff9a63          	bne	t6,t6,800058a0 <i_5460>

0000000080005890 <i_5456>:
    80005890:	0c811483          	lh	s1,200(sp)

0000000080005894 <i_5457>:
    80005894:	009fec63          	bltu	t6,s1,800058ac <i_5463>

0000000080005898 <i_5458>:
    80005898:	01ffda63          	ble	t6,t6,800058ac <i_5463>

000000008000589c <i_5459>:
    8000589c:	009fd663          	ble	s1,t6,800058a8 <i_5462>

00000000800058a0 <i_5460>:
    800058a0:	ee013d03          	ld	s10,-288(sp)

00000000800058a4 <i_5461>:
    800058a4:	01afbfb3          	sltu	t6,t6,s10

00000000800058a8 <i_5462>:
    800058a8:	01ad7863          	bleu	s10,s10,800058b8 <i_5466>

00000000800058ac <i_5463>:
    800058ac:	eae11d03          	lh	s10,-338(sp)

00000000800058b0 <i_5464>:
    800058b0:	fd012d03          	lw	s10,-48(sp)

00000000800058b4 <i_5465>:
    800058b4:	01afcd33          	xor	s10,t6,s10

00000000800058b8 <i_5466>:
    800058b8:	fda12223          	sw	s10,-60(sp)

00000000800058bc <i_5467>:
    800058bc:	e3016f03          	lwu	t5,-464(sp)

00000000800058c0 <i_5468>:
    800058c0:	09e11283          	lh	t0,158(sp)

00000000800058c4 <i_5469>:
    800058c4:	6b92fd13          	andi	s10,t0,1721

00000000800058c8 <i_5470>:
    800058c8:	41ad08bb          	subw	a7,s10,s10

00000000800058cc <i_5471>:
    800058cc:	0035121b          	slliw	tp,a0,0x3

00000000800058d0 <i_5472>:
    800058d0:	019d0663          	beq	s10,s9,800058dc <i_5475>

00000000800058d4 <i_5473>:
    800058d4:	e4a12623          	sw	a0,-436(sp)

00000000800058d8 <i_5474>:
    800058d8:	004d5863          	ble	tp,s10,800058e8 <i_5478>

00000000800058dc <i_5475>:
    800058dc:	66b530b7          	lui	ra,0x66b53

00000000800058e0 <i_5476>:
    800058e0:	0010d263          	ble	ra,ra,800058e4 <i_5477>

00000000800058e4 <i_5477>:
    800058e4:	11c10203          	lb	tp,284(sp)

00000000800058e8 <i_5478>:
    800058e8:	404200bb          	subw	ra,tp,tp

00000000800058ec <i_5479>:
    800058ec:	03f00693          	li	a3,63

00000000800058f0 <i_5480>:
    800058f0:	00d251b3          	srl	gp,tp,a3

00000000800058f4 <i_5481>:
    800058f4:	163105a3          	sb	gp,363(sp)

00000000800058f8 <i_5482>:
    800058f8:	03519f33          	mulh	t5,gp,s5

00000000800058fc <i_5483>:
    800058fc:	02323933          	mulhu	s2,tp,gp

0000000080005900 <i_5484>:
    80005900:	00500213          	li	tp,5

0000000080005904 <i_5485>:
    80005904:	0042123b          	sllw	tp,tp,tp

0000000080005908 <i_5486>:
    80005908:	02490533          	mul	a0,s2,tp

000000008000590c <i_5487>:
    8000590c:	ea812983          	lw	s3,-344(sp)

0000000080005910 <i_5488>:
    80005910:	f7813903          	ld	s2,-136(sp)

0000000080005914 <i_5489>:
    80005914:	00415d03          	lhu	s10,4(sp)

0000000080005918 <i_5490>:
    80005918:	013d6e63          	bltu	s10,s3,80005934 <i_5497>

000000008000591c <i_5491>:
    8000591c:	e3812483          	lw	s1,-456(sp)

0000000080005920 <i_5492>:
    80005920:	9c7a33b7          	lui	t2,0x9c7a3

0000000080005924 <i_5493>:
    80005924:	03ad60b3          	rem	ra,s10,s10

0000000080005928 <i_5494>:
    80005928:	0074e4b3          	or	s1,s1,t2

000000008000592c <i_5495>:
    8000592c:	00000013          	nop

0000000080005930 <i_5496>:
    80005930:	ee713423          	sd	t2,-280(sp)

0000000080005934 <i_5497>:
    80005934:	00000013          	nop

0000000080005938 <i_5498>:
    80005938:	00000013          	nop

000000008000593c <i_5499>:
    8000593c:	7e000393          	li	t2,2016

0000000080005940 <i_5500>:
    80005940:	7f000d13          	li	s10,2032

0000000080005944 <i_5501>:
    80005944:	00000013          	nop

0000000080005948 <i_5502>:
    80005948:	00000013          	nop

000000008000594c <i_5503>:
    8000594c:	e7411683          	lh	a3,-396(sp)

0000000080005950 <i_5504>:
    80005950:	00138393          	addi	t2,t2,1 # ffffffff9c7a3001 <_end+0xffffffff1c792bed>
    80005954:	fe7d58e3          	ble	t2,s10,80005944 <i_5501>

0000000080005958 <i_5505>:
    80005958:	eb314383          	lbu	t2,-333(sp)

000000008000595c <i_5506>:
    8000595c:	02749463          	bne	s1,t2,80005984 <i_5516>

0000000080005960 <i_5507>:
    80005960:	0096d263          	ble	s1,a3,80005964 <i_5508>

0000000080005964 <i_5508>:
    80005964:	009d7a63          	bleu	s1,s10,80005978 <i_5513>

0000000080005968 <i_5509>:
    80005968:	f4112a23          	sw	ra,-172(sp)

000000008000596c <i_5510>:
    8000596c:	1a514903          	lbu	s2,421(sp)

0000000080005970 <i_5511>:
    80005970:	027d2833          	mulhsu	a6,s10,t2

0000000080005974 <i_5512>:
    80005974:	02e4d0bb          	divuw	ra,s1,a4

0000000080005978 <i_5513>:
    80005978:	013ffa33          	and	s4,t6,s3

000000008000597c <i_5514>:
    8000597c:	f1114603          	lbu	a2,-239(sp)

0000000080005980 <i_5515>:
    80005980:	05812f83          	lw	t6,88(sp)

0000000080005984 <i_5516>:
    80005984:	01460633          	add	a2,a2,s4

0000000080005988 <i_5517>:
    80005988:	802bcc93          	xori	s9,s7,-2046

000000008000598c <i_5518>:
    8000598c:	81000713          	li	a4,-2032

0000000080005990 <i_5519>:
    80005990:	81d00d13          	li	s10,-2019

0000000080005994 <i_5520>:
    80005994:	00170713          	addi	a4,a4,1
    80005998:	ffa76ee3          	bltu	a4,s10,80005994 <i_5520>

000000008000599c <i_5521>:
    8000599c:	03f3acb3          	mulhsu	s9,t2,t6

00000000800059a0 <i_5522>:
    800059a0:	f3013283          	ld	t0,-208(sp)

00000000800059a4 <i_5523>:
    800059a4:	034e4633          	div	a2,t3,s4

00000000800059a8 <i_5524>:
    800059a8:	d4b58a1b          	addiw	s4,a1,-693

00000000800059ac <i_5525>:
    800059ac:	00c55463          	ble	a2,a0,800059b4 <i_5527>

00000000800059b0 <i_5526>:
    800059b0:	00265c13          	srli	s8,a2,0x2

00000000800059b4 <i_5527>:
    800059b4:	02c65063          	ble	a2,a2,800059d4 <i_5535>

00000000800059b8 <i_5528>:
    800059b8:	1a013b83          	ld	s7,416(sp)

00000000800059bc <i_5529>:
    800059bc:	1d7108a3          	sb	s7,465(sp)

00000000800059c0 <i_5530>:
    800059c0:	03785eb3          	divu	t4,a6,s7

00000000800059c4 <i_5531>:
    800059c4:	0142de63          	ble	s4,t0,800059e0 <i_5538>

00000000800059c8 <i_5532>:
    800059c8:	00efafb3          	slt	t6,t6,a4

00000000800059cc <i_5533>:
    800059cc:	0f013283          	ld	t0,240(sp)

00000000800059d0 <i_5534>:
    800059d0:	17f12823          	sw	t6,368(sp)

00000000800059d4 <i_5535>:
    800059d4:	eae15603          	lhu	a2,-338(sp)

00000000800059d8 <i_5536>:
    800059d8:	005fdc63          	ble	t0,t6,800059f0 <i_5542>

00000000800059dc <i_5537>:
    800059dc:	10016903          	lwu	s2,256(sp)

00000000800059e0 <i_5538>:
    800059e0:	f2c104a3          	sb	a2,-215(sp)

00000000800059e4 <i_5539>:
    800059e4:	0122b7b3          	sltu	a5,t0,s2

00000000800059e8 <i_5540>:
    800059e8:	00c64463          	blt	a2,a2,800059f0 <i_5542>

00000000800059ec <i_5541>:
    800059ec:	e6c12823          	sw	a2,-400(sp)

00000000800059f0 <i_5542>:
    800059f0:	e5615603          	lhu	a2,-426(sp)

00000000800059f4 <i_5543>:
    800059f4:	00600213          	li	tp,6

00000000800059f8 <i_5544>:
    800059f8:	404ed93b          	sraw	s2,t4,tp

00000000800059fc <i_5545>:
    800059fc:	f2011283          	lh	t0,-224(sp)

0000000080005a00 <i_5546>:
    80005a00:	03f91063          	bne	s2,t6,80005a20 <i_5554>

0000000080005a04 <i_5547>:
    80005a04:	0e512a23          	sw	t0,244(sp)

0000000080005a08 <i_5548>:
    80005a08:	f6c10e03          	lb	t3,-148(sp)

0000000080005a0c <i_5549>:
    80005a0c:	00700d93          	li	s11,7

0000000080005a10 <i_5550>:
    80005a10:	01b95633          	srl	a2,s2,s11

0000000080005a14 <i_5551>:
    80005a14:	19011703          	lh	a4,400(sp)

0000000080005a18 <i_5552>:
    80005a18:	07977393          	andi	t2,a4,121

0000000080005a1c <i_5553>:
    80005a1c:	0a012703          	lw	a4,160(sp)

0000000080005a20 <i_5554>:
    80005a20:	00987193          	andi	gp,a6,9

0000000080005a24 <i_5555>:
    80005a24:	01be33b3          	sltu	t2,t3,s11

0000000080005a28 <i_5556>:
    80005a28:	76a00813          	li	a6,1898

0000000080005a2c <i_5557>:
    80005a2c:	77700993          	li	s3,1911

0000000080005a30 <i_5558>:
    80005a30:	f9016403          	lwu	s0,-112(sp)

0000000080005a34 <i_5559>:
    80005a34:	0103eab3          	or	s5,t2,a6

0000000080005a38 <i_5560>:
    80005a38:	e3513423          	sd	s5,-472(sp)

0000000080005a3c <i_5561>:
    80005a3c:	01ffa3b3          	slt	t2,t6,t6

0000000080005a40 <i_5562>:
    80005a40:	78800f93          	li	t6,1928

0000000080005a44 <i_5563>:
    80005a44:	79400413          	li	s0,1940

0000000080005a48 <i_5564>:
    80005a48:	11012583          	lw	a1,272(sp)

0000000080005a4c <i_5565>:
    80005a4c:	00b3f263          	bleu	a1,t2,80005a50 <i_5566>

0000000080005a50 <i_5566>:
    80005a50:	ede15a83          	lhu	s5,-290(sp)

0000000080005a54 <i_5567>:
    80005a54:	f0594913          	xori	s2,s2,-251

0000000080005a58 <i_5568>:
    80005a58:	001f8f93          	addi	t6,t6,1
    80005a5c:	fff456e3          	ble	t6,s0,80005a48 <i_5564>

0000000080005a60 <i_5569>:
    80005a60:	02797263          	bleu	t2,s2,80005a84 <i_5577>

0000000080005a64 <i_5570>:
    80005a64:	00180813          	addi	a6,a6,1 # 5b7a2001 <main-0x2485dfff>
    80005a68:	fd3814e3          	bne	a6,s3,80005a30 <i_5558>

0000000080005a6c <i_5571>:
    80005a6c:	01294933          	xor	s2,s2,s2

0000000080005a70 <i_5572>:
    80005a70:	f3210223          	sb	s2,-220(sp)

0000000080005a74 <i_5573>:
    80005a74:	01251463          	bne	a0,s2,80005a7c <i_5575>

0000000080005a78 <i_5574>:
    80005a78:	00b92913          	slti	s2,s2,11

0000000080005a7c <i_5575>:
    80005a7c:	09415503          	lhu	a0,148(sp)

0000000080005a80 <i_5576>:
    80005a80:	0de10383          	lb	t2,222(sp)

0000000080005a84 <i_5577>:
    80005a84:	e5212423          	sw	s2,-440(sp)

0000000080005a88 <i_5578>:
    80005a88:	62393913          	sltiu	s2,s2,1571

0000000080005a8c <i_5579>:
    80005a8c:	4125893b          	subw	s2,a1,s2

0000000080005a90 <i_5580>:
    80005a90:	5d15c417          	auipc	s0,0x5d15c

0000000080005a94 <i_5581>:
    80005a94:	03259463          	bne	a1,s2,80005abc <i_5591>

0000000080005a98 <i_5582>:
    80005a98:	ea713023          	sd	t2,-352(sp)

0000000080005a9c <i_5583>:
    80005a9c:	0073fc63          	bleu	t2,t2,80005ab4 <i_5589>

0000000080005aa0 <i_5584>:
    80005aa0:	e3610903          	lb	s2,-458(sp)

0000000080005aa4 <i_5585>:
    80005aa4:	0373f3bb          	remuw	t2,t2,s7

0000000080005aa8 <i_5586>:
    80005aa8:	e6011d03          	lh	s10,-416(sp)

0000000080005aac <i_5587>:
    80005aac:	f8813503          	ld	a0,-120(sp)

0000000080005ab0 <i_5588>:
    80005ab0:	feb10903          	lb	s2,-21(sp)

0000000080005ab4 <i_5589>:
    80005ab4:	ffa13c23          	sd	s10,-8(sp)

0000000080005ab8 <i_5590>:
    80005ab8:	03a57263          	bleu	s10,a0,80005adc <i_5599>

0000000080005abc <i_5591>:
    80005abc:	00a95c63          	ble	a0,s2,80005ad4 <i_5597>

0000000080005ac0 <i_5592>:
    80005ac0:	15310d83          	lb	s11,339(sp)

0000000080005ac4 <i_5593>:
    80005ac4:	35658897          	auipc	a7,0x35658

0000000080005ac8 <i_5594>:
    80005ac8:	15b10aa3          	sb	s11,341(sp)

0000000080005acc <i_5595>:
    80005acc:	eb814903          	lbu	s2,-328(sp)

0000000080005ad0 <i_5596>:
    80005ad0:	00a11883          	lh	a7,10(sp)

0000000080005ad4 <i_5597>:
    80005ad4:	7e0adb97          	auipc	s7,0x7e0ad

0000000080005ad8 <i_5598>:
    80005ad8:	011dfe63          	bleu	a7,s11,80005af4 <i_5605>

0000000080005adc <i_5599>:
    80005adc:	03314d83          	lbu	s11,51(sp)

0000000080005ae0 <i_5600>:
    80005ae0:	efb11b23          	sh	s11,-266(sp)

0000000080005ae4 <i_5601>:
    80005ae4:	032be263          	bltu	s7,s2,80005b08 <i_5610>

0000000080005ae8 <i_5602>:
    80005ae8:	0178f663          	bleu	s7,a7,80005af4 <i_5605>

0000000080005aec <i_5603>:
    80005aec:	ec013b83          	ld	s7,-320(sp)

0000000080005af0 <i_5604>:
    80005af0:	02691463          	bne	s2,t1,80005b18 <i_5614>

0000000080005af4 <i_5605>:
    80005af4:	fb811d03          	lh	s10,-72(sp)

0000000080005af8 <i_5606>:
    80005af8:	03200e93          	li	t4,50

0000000080005afc <i_5607>:
    80005afc:	41dbdc33          	sra	s8,s7,t4

0000000080005b00 <i_5608>:
    80005b00:	027be933          	rem	s2,s7,t2

0000000080005b04 <i_5609>:
    80005b04:	038bfbb3          	remu	s7,s7,s8

0000000080005b08 <i_5610>:
    80005b08:	018c7c33          	and	s8,s8,s8

0000000080005b0c <i_5611>:
    80005b0c:	033c4eb3          	div	t4,s8,s3

0000000080005b10 <i_5612>:
    80005b10:	e3d10e23          	sb	t4,-452(sp)

0000000080005b14 <i_5613>:
    80005b14:	17810ea3          	sb	s8,381(sp)

0000000080005b18 <i_5614>:
    80005b18:	02e00f93          	li	t6,46

0000000080005b1c <i_5615>:
    80005b1c:	01fc5c33          	srl	s8,s8,t6

0000000080005b20 <i_5616>:
    80005b20:	001c5c13          	srli	s8,s8,0x1

0000000080005b24 <i_5617>:
    80005b24:	cf4c3413          	sltiu	s0,s8,-780

0000000080005b28 <i_5618>:
    80005b28:	00000013          	nop

0000000080005b2c <i_5619>:
    80005b2c:	84800993          	li	s3,-1976

0000000080005b30 <i_5620>:
    80005b30:	84b00c13          	li	s8,-1973

0000000080005b34 <i_5621>:
    80005b34:	00198993          	addi	s3,s3,1
    80005b38:	ff89cee3          	blt	s3,s8,80005b34 <i_5621>

0000000080005b3c <i_5622>:
    80005b3c:	03fc1063          	bne	s8,t6,80005b5c <i_5630>

0000000080005b40 <i_5623>:
    80005b40:	8afc0c1b          	addiw	s8,s8,-1873

0000000080005b44 <i_5624>:
    80005b44:	008c4c63          	blt	s8,s0,80005b5c <i_5630>

0000000080005b48 <i_5625>:
    80005b48:	01846e63          	bltu	s0,s8,80005b64 <i_5632>

0000000080005b4c <i_5626>:
    80005b4c:	03836333          	rem	t1,t1,s8

0000000080005b50 <i_5627>:
    80005b50:	e4813c23          	sd	s0,-424(sp)

0000000080005b54 <i_5628>:
    80005b54:	02813503          	ld	a0,40(sp)

0000000080005b58 <i_5629>:
    80005b58:	00a54863          	blt	a0,a0,80005b68 <i_5633>

0000000080005b5c <i_5630>:
    80005b5c:	00a79a63          	bne	a5,a0,80005b70 <i_5635>

0000000080005b60 <i_5631>:
    80005b60:	e1b10703          	lb	a4,-485(sp)

0000000080005b64 <i_5632>:
    80005b64:	03850463          	beq	a0,s8,80005b8c <i_5642>

0000000080005b68 <i_5633>:
    80005b68:	00131c13          	slli	s8,t1,0x1

0000000080005b6c <i_5634>:
    80005b6c:	03835263          	ble	s8,t1,80005b90 <i_5643>

0000000080005b70 <i_5635>:
    80005b70:	03831263          	bne	t1,s8,80005b94 <i_5644>

0000000080005b74 <i_5636>:
    80005b74:	92418437          	lui	s0,0x92418

0000000080005b78 <i_5637>:
    80005b78:	eb016503          	lwu	a0,-336(sp)

0000000080005b7c <i_5638>:
    80005b7c:	02d50533          	mul	a0,a0,a3

0000000080005b80 <i_5639>:
    80005b80:	01c00513          	li	a0,28

0000000080005b84 <i_5640>:
    80005b84:	00ac5a33          	srl	s4,s8,a0

0000000080005b88 <i_5641>:
    80005b88:	19011f83          	lh	t6,400(sp)

0000000080005b8c <i_5642>:
    80005b8c:	00000013          	nop

0000000080005b90 <i_5643>:
    80005b90:	00000013          	nop

0000000080005b94 <i_5644>:
    80005b94:	00000013          	nop

0000000080005b98 <i_5645>:
    80005b98:	018d8fb3          	add	t6,s11,s8

0000000080005b9c <i_5646>:
    80005b9c:	84700713          	li	a4,-1977

0000000080005ba0 <i_5647>:
    80005ba0:	85000c13          	li	s8,-1968

0000000080005ba4 <i_5648>:
    80005ba4:	03095fb3          	divu	t6,s2,a6

0000000080005ba8 <i_5649>:
    80005ba8:	00000013          	nop

0000000080005bac <i_5650>:
    80005bac:	005ff463          	bleu	t0,t6,80005bb4 <i_5652>

0000000080005bb0 <i_5651>:
    80005bb0:	cfd45d37          	lui	s10,0xcfd45

0000000080005bb4 <i_5652>:
    80005bb4:	01fd5263          	ble	t6,s10,80005bb8 <i_5653>

0000000080005bb8 <i_5653>:
    80005bb8:	00f787b3          	add	a5,a5,a5

0000000080005bbc <i_5654>:
    80005bbc:	05016783          	lwu	a5,80(sp)

0000000080005bc0 <i_5655>:
    80005bc0:	00170713          	addi	a4,a4,1
    80005bc4:	ff8740e3          	blt	a4,s8,80005ba4 <i_5648>

0000000080005bc8 <i_5656>:
    80005bc8:	01aa6663          	bltu	s4,s10,80005bd4 <i_5659>

0000000080005bcc <i_5657>:
    80005bcc:	07f14c83          	lbu	s9,127(sp)

0000000080005bd0 <i_5658>:
    80005bd0:	11813d03          	ld	s10,280(sp)

0000000080005bd4 <i_5659>:
    80005bd4:	01afe533          	or	a0,t6,s10

0000000080005bd8 <i_5660>:
    80005bd8:	02ad7063          	bleu	a0,s10,80005bf8 <i_5668>

0000000080005bdc <i_5661>:
    80005bdc:	efa15303          	lhu	t1,-262(sp)

0000000080005be0 <i_5662>:
    80005be0:	f7c11023          	sh	t3,-160(sp)

0000000080005be4 <i_5663>:
    80005be4:	03cd4d3b          	divw	s10,s10,t3

0000000080005be8 <i_5664>:
    80005be8:	efc16303          	lwu	t1,-260(sp)

0000000080005bec <i_5665>:
    80005bec:	40155f9b          	sraiw	t6,a0,0x1

0000000080005bf0 <i_5666>:
    80005bf0:	03cfe23b          	remw	tp,t6,t3

0000000080005bf4 <i_5667>:
    80005bf4:	0ba13823          	sd	s10,176(sp)

0000000080005bf8 <i_5668>:
    80005bf8:	00000013          	nop

0000000080005bfc <i_5669>:
    80005bfc:	024fc43b          	divw	s0,t6,tp

0000000080005c00 <i_5670>:
    80005c00:	7d100693          	li	a3,2001

0000000080005c04 <i_5671>:
    80005c04:	7e100e13          	li	t3,2017

0000000080005c08 <i_5672>:
    80005c08:	0022521b          	srliw	tp,tp,0x2

0000000080005c0c <i_5673>:
    80005c0c:	eac16903          	lwu	s2,-340(sp)

0000000080005c10 <i_5674>:
    80005c10:	88a00b13          	li	s6,-1910

0000000080005c14 <i_5675>:
    80005c14:	89a00f13          	li	t5,-1894

0000000080005c18 <i_5676>:
    80005c18:	fe614403          	lbu	s0,-26(sp)

0000000080005c1c <i_5677>:
    80005c1c:	03d47233          	remu	tp,s0,t4

0000000080005c20 <i_5678>:
    80005c20:	001b0b13          	addi	s6,s6,1 # 8ecb9d71 <_end+0xeca995d>
    80005c24:	ff6f5ae3          	ble	s6,t5,80005c18 <i_5676>

0000000080005c28 <i_5679>:
    80005c28:	01ef7f33          	and	t5,t5,t5

0000000080005c2c <i_5680>:
    80005c2c:	00168693          	addi	a3,a3,1
    80005c30:	fcde7ce3          	bleu	a3,t3,80005c08 <i_5672>

0000000080005c34 <i_5681>:
    80005c34:	e9f11e23          	sh	t6,-356(sp)

0000000080005c38 <i_5682>:
    80005c38:	ece11903          	lh	s2,-306(sp)

0000000080005c3c <i_5683>:
    80005c3c:	0c4100a3          	sb	tp,193(sp)

0000000080005c40 <i_5684>:
    80005c40:	fe611303          	lh	t1,-26(sp)

0000000080005c44 <i_5685>:
    80005c44:	00691c63          	bne	s2,t1,80005c5c <i_5691>

0000000080005c48 <i_5686>:
    80005c48:	ee623093          	sltiu	ra,tp,-282

0000000080005c4c <i_5687>:
    80005c4c:	fd211203          	lh	tp,-46(sp)

0000000080005c50 <i_5688>:
    80005c50:	021220b3          	mulhsu	ra,tp,ra

0000000080005c54 <i_5689>:
    80005c54:	07d14f03          	lbu	t5,125(sp)

0000000080005c58 <i_5690>:
    80005c58:	ee412423          	sw	tp,-280(sp)

0000000080005c5c <i_5691>:
    80005c5c:	06012283          	lw	t0,96(sp)

0000000080005c60 <i_5692>:
    80005c60:	f3813703          	ld	a4,-200(sp)

0000000080005c64 <i_5693>:
    80005c64:	b2f65297          	auipc	t0,0xb2f65

0000000080005c68 <i_5694>:
    80005c68:	025f6f3b          	remw	t5,t5,t0

0000000080005c6c <i_5695>:
    80005c6c:	e9416283          	lwu	t0,-364(sp)

0000000080005c70 <i_5696>:
    80005c70:	10310703          	lb	a4,259(sp)

0000000080005c74 <i_5697>:
    80005c74:	f3812b03          	lw	s6,-200(sp)

0000000080005c78 <i_5698>:
    80005c78:	405b02bb          	subw	t0,s6,t0

0000000080005c7c <i_5699>:
    80005c7c:	fa016b03          	lwu	s6,-96(sp)

0000000080005c80 <i_5700>:
    80005c80:	00000013          	nop

0000000080005c84 <i_5701>:
    80005c84:	01f2a833          	slt	a6,t0,t6

0000000080005c88 <i_5702>:
    80005c88:	8a000b13          	li	s6,-1888

0000000080005c8c <i_5703>:
    80005c8c:	8ab00293          	li	t0,-1877

0000000080005c90 <i_5704>:
    80005c90:	16513823          	sd	t0,368(sp)

0000000080005c94 <i_5705>:
    80005c94:	07613023          	sd	s6,96(sp)

0000000080005c98 <i_5706>:
    80005c98:	92ed4693          	xori	a3,s10,-1746

0000000080005c9c <i_5707>:
    80005c9c:	0df10803          	lb	a6,223(sp)

0000000080005ca0 <i_5708>:
    80005ca0:	02d00493          	li	s1,45

0000000080005ca4 <i_5709>:
    80005ca4:	009e1e33          	sll	t3,t3,s1

0000000080005ca8 <i_5710>:
    80005ca8:	010b1863          	bne	s6,a6,80005cb8 <i_5714>

0000000080005cac <i_5711>:
    80005cac:	5952bc13          	sltiu	s8,t0,1429

0000000080005cb0 <i_5712>:
    80005cb0:	016b5463          	ble	s6,s6,80005cb8 <i_5714>

0000000080005cb4 <i_5713>:
    80005cb4:	0b710603          	lb	a2,183(sp)

0000000080005cb8 <i_5714>:
    80005cb8:	00000013          	nop

0000000080005cbc <i_5715>:
    80005cbc:	0f816c03          	lwu	s8,248(sp)

0000000080005cc0 <i_5716>:
    80005cc0:	ef813023          	sd	s8,-288(sp)

0000000080005cc4 <i_5717>:
    80005cc4:	004c189b          	slliw	a7,s8,0x4

0000000080005cc8 <i_5718>:
    80005cc8:	0188ec63          	bltu	a7,s8,80005ce0 <i_5723>

0000000080005ccc <i_5719>:
    80005ccc:	001b0b13          	addi	s6,s6,1
    80005cd0:	fd62d0e3          	ble	s6,t0,80005c90 <i_5704>

0000000080005cd4 <i_5720>:
    80005cd4:	00000013          	nop

0000000080005cd8 <i_5721>:
    80005cd8:	03812223          	sw	s8,36(sp)

0000000080005cdc <i_5722>:
    80005cdc:	0e016883          	lwu	a7,224(sp)

0000000080005ce0 <i_5723>:
    80005ce0:	fd811e23          	sh	s8,-36(sp)

0000000080005ce4 <i_5724>:
    80005ce4:	003c159b          	slliw	a1,s8,0x3

0000000080005ce8 <i_5725>:
    80005ce8:	76200c13          	li	s8,1890

0000000080005cec <i_5726>:
    80005cec:	77200193          	li	gp,1906

0000000080005cf0 <i_5727>:
    80005cf0:	038c4463          	blt	s8,s8,80005d18 <i_5736>

0000000080005cf4 <i_5728>:
    80005cf4:	039c6cbb          	remw	s9,s8,s9

0000000080005cf8 <i_5729>:
    80005cf8:	03d00d13          	li	s10,61

0000000080005cfc <i_5730>:
    80005cfc:	01aa92b3          	sll	t0,s5,s10

0000000080005d00 <i_5731>:
    80005d00:	001c0c13          	addi	s8,s8,1
    80005d04:	ff81d6e3          	ble	s8,gp,80005cf0 <i_5727>

0000000080005d08 <i_5732>:
    80005d08:	00400a93          	li	s5,4

0000000080005d0c <i_5733>:
    80005d0c:	01529abb          	sllw	s5,t0,s5

0000000080005d10 <i_5734>:
    80005d10:	efc14683          	lbu	a3,-260(sp)

0000000080005d14 <i_5735>:
    80005d14:	00b00993          	li	s3,11

0000000080005d18 <i_5736>:
    80005d18:	4137573b          	sraw	a4,a4,s3

0000000080005d1c <i_5737>:
    80005d1c:	0133fc63          	bleu	s3,t2,80005d34 <i_5743>

0000000080005d20 <i_5738>:
    80005d20:	e9810a03          	lb	s4,-360(sp)

0000000080005d24 <i_5739>:
    80005d24:	0339ceb3          	div	t4,s3,s3

0000000080005d28 <i_5740>:
    80005d28:	03da6ebb          	remw	t4,s4,t4

0000000080005d2c <i_5741>:
    80005d2c:	ed310da3          	sb	s3,-293(sp)

0000000080005d30 <i_5742>:
    80005d30:	034eca3b          	divw	s4,t4,s4

0000000080005d34 <i_5743>:
    80005d34:	00000013          	nop

0000000080005d38 <i_5744>:
    80005d38:	06b10f83          	lb	t6,107(sp)

0000000080005d3c <i_5745>:
    80005d3c:	87200093          	li	ra,-1934

0000000080005d40 <i_5746>:
    80005d40:	87600993          	li	s3,-1930

0000000080005d44 <i_5747>:
    80005d44:	002eda13          	srli	s4,t4,0x2

0000000080005d48 <i_5748>:
    80005d48:	033c8633          	mul	a2,s9,s3

0000000080005d4c <i_5749>:
    80005d4c:	04416e83          	lwu	t4,68(sp)

0000000080005d50 <i_5750>:
    80005d50:	04011f83          	lh	t6,64(sp)

0000000080005d54 <i_5751>:
    80005d54:	01b00e13          	li	t3,27

0000000080005d58 <i_5752>:
    80005d58:	01ca1a3b          	sllw	s4,s4,t3

0000000080005d5c <i_5753>:
    80005d5c:	01300a13          	li	s4,19

0000000080005d60 <i_5754>:
    80005d60:	414a5a33          	sra	s4,s4,s4

0000000080005d64 <i_5755>:
    80005d64:	0d410a23          	sb	s4,212(sp)

0000000080005d68 <i_5756>:
    80005d68:	00900a13          	li	s4,9

0000000080005d6c <i_5757>:
    80005d6c:	0147da33          	srl	s4,a5,s4

0000000080005d70 <i_5758>:
    80005d70:	00108093          	addi	ra,ra,1 # 66b53001 <main-0x194acfff>
    80005d74:	fd3098e3          	bne	ra,s3,80005d44 <i_5747>

0000000080005d78 <i_5759>:
    80005d78:	fd015d03          	lhu	s10,-48(sp)

0000000080005d7c <i_5760>:
    80005d7c:	014a6863          	bltu	s4,s4,80005d8c <i_5764>

0000000080005d80 <i_5761>:
    80005d80:	003dd993          	srli	s3,s11,0x3

0000000080005d84 <i_5762>:
    80005d84:	f2e11883          	lh	a7,-210(sp)

0000000080005d88 <i_5763>:
    80005d88:	eb312823          	sw	s3,-336(sp)

0000000080005d8c <i_5764>:
    80005d8c:	eac15603          	lhu	a2,-340(sp)

0000000080005d90 <i_5765>:
    80005d90:	001a531b          	srliw	t1,s4,0x1

0000000080005d94 <i_5766>:
    80005d94:	18014a03          	lbu	s4,384(sp)

0000000080005d98 <i_5767>:
    80005d98:	03f00213          	li	tp,63

0000000080005d9c <i_5768>:
    80005d9c:	404d5d33          	sra	s10,s10,tp

0000000080005da0 <i_5769>:
    80005da0:	024e7233          	remu	tp,t3,tp

0000000080005da4 <i_5770>:
    80005da4:	e44105a3          	sb	tp,-437(sp)

0000000080005da8 <i_5771>:
    80005da8:	11c13023          	sd	t3,256(sp)

0000000080005dac <i_5772>:
    80005dac:	09410123          	sb	s4,130(sp)

0000000080005db0 <i_5773>:
    80005db0:	03c21233          	mulh	tp,tp,t3

0000000080005db4 <i_5774>:
    80005db4:	004e4263          	blt	t3,tp,80005db8 <i_5775>

0000000080005db8 <i_5775>:
    80005db8:	01c20a63          	beq	tp,t3,80005dcc <i_5780>

0000000080005dbc <i_5776>:
    80005dbc:	00600613          	li	a2,6

0000000080005dc0 <i_5777>:
    80005dc0:	00c218bb          	sllw	a7,tp,a2

0000000080005dc4 <i_5778>:
    80005dc4:	08413c23          	sd	tp,152(sp)

0000000080005dc8 <i_5779>:
    80005dc8:	011279b3          	and	s3,tp,a7

0000000080005dcc <i_5780>:
    80005dcc:	ed111a23          	sh	a7,-300(sp)

0000000080005dd0 <i_5781>:
    80005dd0:	03c67263          	bleu	t3,a2,80005df4 <i_5790>

0000000080005dd4 <i_5782>:
    80005dd4:	02c11983          	lh	s3,44(sp)

0000000080005dd8 <i_5783>:
    80005dd8:	02d206b3          	mul	a3,tp,a3

0000000080005ddc <i_5784>:
    80005ddc:	0139cd33          	xor	s10,s3,s3

0000000080005de0 <i_5785>:
    80005de0:	01798bb3          	add	s7,s3,s7

0000000080005de4 <i_5786>:
    80005de4:	13c102a3          	sb	t3,293(sp)

0000000080005de8 <i_5787>:
    80005de8:	0c412883          	lw	a7,196(sp)

0000000080005dec <i_5788>:
    80005dec:	01c0dc63          	ble	t3,ra,80005e04 <i_5794>

0000000080005df0 <i_5789>:
    80005df0:	01410483          	lb	s1,20(sp)

0000000080005df4 <i_5790>:
    80005df4:	f2314303          	lbu	t1,-221(sp)

0000000080005df8 <i_5791>:
    80005df8:	0c013503          	ld	a0,192(sp)

0000000080005dfc <i_5792>:
    80005dfc:	01a99863          	bne	s3,s10,80005e0c <i_5796>

0000000080005e00 <i_5793>:
    80005e00:	7d57b697          	auipc	a3,0x7d57b

0000000080005e04 <i_5794>:
    80005e04:	fd416203          	lwu	tp,-44(sp)

0000000080005e08 <i_5795>:
    80005e08:	1e110483          	lb	s1,481(sp)

0000000080005e0c <i_5796>:
    80005e0c:	fc413c23          	sd	tp,-40(sp)

0000000080005e10 <i_5797>:
    80005e10:	01d9f663          	bleu	t4,s3,80005e1c <i_5800>

0000000080005e14 <i_5798>:
    80005e14:	039bd463          	ble	s9,s7,80005e3c <i_5808>

0000000080005e18 <i_5799>:
    80005e18:	02a56bbb          	remw	s7,a0,a0

0000000080005e1c <i_5800>:
    80005e1c:	eed13823          	sd	a3,-272(sp)

0000000080005e20 <i_5801>:
    80005e20:	14d12c23          	sw	a3,344(sp)

0000000080005e24 <i_5802>:
    80005e24:	e4a11b83          	lh	s7,-438(sp)

0000000080005e28 <i_5803>:
    80005e28:	e8c11b83          	lh	s7,-372(sp)

0000000080005e2c <i_5804>:
    80005e2c:	0ed11523          	sh	a3,234(sp)

0000000080005e30 <i_5805>:
    80005e30:	01d00c13          	li	s8,29

0000000080005e34 <i_5806>:
    80005e34:	41875bb3          	sra	s7,a4,s8

0000000080005e38 <i_5807>:
    80005e38:	4251a313          	slti	t1,gp,1061

0000000080005e3c <i_5808>:
    80005e3c:	00000013          	nop

0000000080005e40 <i_5809>:
    80005e40:	00431b13          	slli	s6,t1,0x4

0000000080005e44 <i_5810>:
    80005e44:	75900f13          	li	t5,1881

0000000080005e48 <i_5811>:
    80005e48:	76900693          	li	a3,1897

0000000080005e4c <i_5812>:
    80005e4c:	00abe333          	or	t1,s7,a0

0000000080005e50 <i_5813>:
    80005e50:	e2914303          	lbu	t1,-471(sp)

0000000080005e54 <i_5814>:
    80005e54:	001f0f13          	addi	t5,t5,1
    80005e58:	fedf6ae3          	bltu	t5,a3,80005e4c <i_5812>

0000000080005e5c <i_5815>:
    80005e5c:	02c15f03          	lhu	t5,44(sp)

0000000080005e60 <i_5816>:
    80005e60:	01eb9463          	bne	s7,t5,80005e68 <i_5818>

0000000080005e64 <i_5817>:
    80005e64:	01eb7e63          	bleu	t5,s6,80005e80 <i_5824>

0000000080005e68 <i_5818>:
    80005e68:	01ec5663          	ble	t5,s8,80005e74 <i_5821>

0000000080005e6c <i_5819>:
    80005e6c:	038c29b3          	mulhsu	s3,s8,s8

0000000080005e70 <i_5820>:
    80005e70:	004c1c1b          	slliw	s8,s8,0x4

0000000080005e74 <i_5821>:
    80005e74:	01b9ee63          	bltu	s3,s11,80005e90 <i_5828>

0000000080005e78 <i_5822>:
    80005e78:	13411983          	lh	s3,308(sp)

0000000080005e7c <i_5823>:
    80005e7c:	1b813423          	sd	s8,424(sp)

0000000080005e80 <i_5824>:
    80005e80:	e3311e23          	sh	s3,-452(sp)

0000000080005e84 <i_5825>:
    80005e84:	f3a11783          	lh	a5,-198(sp)

0000000080005e88 <i_5826>:
    80005e88:	00fcf1b3          	and	gp,s9,a5

0000000080005e8c <i_5827>:
    80005e8c:	fc110c83          	lb	s9,-63(sp)

0000000080005e90 <i_5828>:
    80005e90:	f5412783          	lw	a5,-172(sp)

0000000080005e94 <i_5829>:
    80005e94:	03800793          	li	a5,56

0000000080005e98 <i_5830>:
    80005e98:	00f7d7b3          	srl	a5,a5,a5

0000000080005e9c <i_5831>:
    80005e9c:	4d7b90b7          	lui	ra,0x4d7b9

0000000080005ea0 <i_5832>:
    80005ea0:	e9c13823          	sd	t3,-368(sp)

0000000080005ea4 <i_5833>:
    80005ea4:	16110623          	sb	ra,364(sp)

0000000080005ea8 <i_5834>:
    80005ea8:	00f7e533          	or	a0,a5,a5

0000000080005eac <i_5835>:
    80005eac:	019caa33          	slt	s4,s9,s9

0000000080005eb0 <i_5836>:
    80005eb0:	e7416603          	lwu	a2,-396(sp)

0000000080005eb4 <i_5837>:
    80005eb4:	0f012183          	lw	gp,240(sp)

0000000080005eb8 <i_5838>:
    80005eb8:	00119613          	slli	a2,gp,0x1

0000000080005ebc <i_5839>:
    80005ebc:	fe016903          	lwu	s2,-32(sp)

0000000080005ec0 <i_5840>:
    80005ec0:	80500c93          	li	s9,-2043

0000000080005ec4 <i_5841>:
    80005ec4:	81300193          	li	gp,-2029

0000000080005ec8 <i_5842>:
    80005ec8:	fe314903          	lbu	s2,-29(sp)

0000000080005ecc <i_5843>:
    80005ecc:	00000013          	nop

0000000080005ed0 <i_5844>:
    80005ed0:	73100c13          	li	s8,1841

0000000080005ed4 <i_5845>:
    80005ed4:	73800213          	li	tp,1848

0000000080005ed8 <i_5846>:
    80005ed8:	18c11603          	lh	a2,396(sp)

0000000080005edc <i_5847>:
    80005edc:	00000013          	nop

0000000080005ee0 <i_5848>:
    80005ee0:	02cc093b          	mulw	s2,s8,a2

0000000080005ee4 <i_5849>:
    80005ee4:	001c0c13          	addi	s8,s8,1
    80005ee8:	fe4c48e3          	blt	s8,tp,80005ed8 <i_5846>

0000000080005eec <i_5850>:
    80005eec:	1c412303          	lw	t1,452(sp)

0000000080005ef0 <i_5851>:
    80005ef0:	00000013          	nop

0000000080005ef4 <i_5852>:
    80005ef4:	fe016f83          	lwu	t6,-32(sp)

0000000080005ef8 <i_5853>:
    80005ef8:	03958f3b          	mulw	t5,a1,s9

0000000080005efc <i_5854>:
    80005efc:	025fe2bb          	remw	t0,t6,t0

0000000080005f00 <i_5855>:
    80005f00:	edc16583          	lwu	a1,-292(sp)

0000000080005f04 <i_5856>:
    80005f04:	02659263          	bne	a1,t1,80005f28 <i_5864>

0000000080005f08 <i_5857>:
    80005f08:	001c8c93          	addi	s9,s9,1
    80005f0c:	fb91dee3          	ble	s9,gp,80005ec8 <i_5842>

0000000080005f10 <i_5858>:
    80005f10:	3ef35d37          	lui	s10,0x3ef35

0000000080005f14 <i_5859>:
    80005f14:	02bfe4bb          	remw	s1,t6,a1

0000000080005f18 <i_5860>:
    80005f18:	00bc8533          	add	a0,s9,a1

0000000080005f1c <i_5861>:
    80005f1c:	00000013          	nop

0000000080005f20 <i_5862>:
    80005f20:	00000013          	nop

0000000080005f24 <i_5863>:
    80005f24:	40175713          	srai	a4,a4,0x1

0000000080005f28 <i_5864>:
    80005f28:	30573713          	sltiu	a4,a4,773

0000000080005f2c <i_5865>:
    80005f2c:	00371f13          	slli	t5,a4,0x3

0000000080005f30 <i_5866>:
    80005f30:	74e00313          	li	t1,1870

0000000080005f34 <i_5867>:
    80005f34:	76100693          	li	a3,1889

0000000080005f38 <i_5868>:
    80005f38:	e7c12703          	lw	a4,-388(sp)

0000000080005f3c <i_5869>:
    80005f3c:	18314703          	lbu	a4,387(sp)

0000000080005f40 <i_5870>:
    80005f40:	7b200913          	li	s2,1970

0000000080005f44 <i_5871>:
    80005f44:	7bd00593          	li	a1,1981

0000000080005f48 <i_5872>:
    80005f48:	026702bb          	mulw	t0,a4,t1

0000000080005f4c <i_5873>:
    80005f4c:	13812983          	lw	s3,312(sp)

0000000080005f50 <i_5874>:
    80005f50:	00190913          	addi	s2,s2,1
    80005f54:	ff25fae3          	bleu	s2,a1,80005f48 <i_5872>

0000000080005f58 <i_5875>:
    80005f58:	033c5263          	ble	s3,s8,80005f7c <i_5883>

0000000080005f5c <i_5876>:
    80005f5c:	005fac33          	slt	s8,t6,t0

0000000080005f60 <i_5877>:
    80005f60:	00000013          	nop

0000000080005f64 <i_5878>:
    80005f64:	018532b3          	sltu	t0,a0,s8

0000000080005f68 <i_5879>:
    80005f68:	00130313          	addi	t1,t1,1 # 57761761 <main-0x2889e89f>
    80005f6c:	fcd316e3          	bne	t1,a3,80005f38 <i_5868>

0000000080005f70 <i_5880>:
    80005f70:	13811e23          	sh	s8,316(sp)

0000000080005f74 <i_5881>:
    80005f74:	16013983          	ld	s3,352(sp)

0000000080005f78 <i_5882>:
    80005f78:	003703b3          	add	t2,a4,gp

0000000080005f7c <i_5883>:
    80005f7c:	02e28463          	beq	t0,a4,80005fa4 <i_5893>

0000000080005f80 <i_5884>:
    80005f80:	17c12983          	lw	s3,380(sp)

0000000080005f84 <i_5885>:
    80005f84:	ef015403          	lhu	s0,-272(sp)

0000000080005f88 <i_5886>:
    80005f88:	18e105a3          	sb	a4,395(sp)

0000000080005f8c <i_5887>:
    80005f8c:	03372633          	mulhsu	a2,a4,s3

0000000080005f90 <i_5888>:
    80005f90:	0af10523          	sb	a5,170(sp)

0000000080005f94 <i_5889>:
    80005f94:	01376263          	bltu	a4,s3,80005f98 <i_5890>

0000000080005f98 <i_5890>:
    80005f98:	e3a14303          	lbu	t1,-454(sp)

0000000080005f9c <i_5891>:
    80005f9c:	18510483          	lb	s1,389(sp)

0000000080005fa0 <i_5892>:
    80005fa0:	ea016c83          	lwu	s9,-352(sp)

0000000080005fa4 <i_5893>:
    80005fa4:	10012583          	lw	a1,256(sp)

0000000080005fa8 <i_5894>:
    80005fa8:	01d48e63          	beq	s1,t4,80005fc4 <i_5901>

0000000080005fac <i_5895>:
    80005fac:	03e00613          	li	a2,62

0000000080005fb0 <i_5896>:
    80005fb0:	40ccd0b3          	sra	ra,s9,a2

0000000080005fb4 <i_5897>:
    80005fb4:	c4f60f1b          	addiw	t5,a2,-945

0000000080005fb8 <i_5898>:
    80005fb8:	1e211583          	lh	a1,482(sp)

0000000080005fbc <i_5899>:
    80005fbc:	00000013          	nop

0000000080005fc0 <i_5900>:
    80005fc0:	02b10223          	sb	a1,36(sp)

0000000080005fc4 <i_5901>:
    80005fc4:	18611583          	lh	a1,390(sp)

0000000080005fc8 <i_5902>:
    80005fc8:	06013f03          	ld	t5,96(sp)

0000000080005fcc <i_5903>:
    80005fcc:	7c600493          	li	s1,1990

0000000080005fd0 <i_5904>:
    80005fd0:	7d100c93          	li	s9,2001

0000000080005fd4 <i_5905>:
    80005fd4:	01700813          	li	a6,23

0000000080005fd8 <i_5906>:
    80005fd8:	010f1f3b          	sllw	t5,t5,a6

0000000080005fdc <i_5907>:
    80005fdc:	03e2e063          	bltu	t0,t5,80005ffc <i_5914>

0000000080005fe0 <i_5908>:
    80005fe0:	00148493          	addi	s1,s1,1 # 58663001 <main-0x2799cfff>
    80005fe4:	ff94e8e3          	bltu	s1,s9,80005fd4 <i_5905>

0000000080005fe8 <i_5909>:
    80005fe8:	02bf23b3          	mulhsu	t2,t5,a1

0000000080005fec <i_5910>:
    80005fec:	02bf4263          	blt	t5,a1,80006010 <i_5919>

0000000080005ff0 <i_5911>:
    80005ff0:	c310f593          	andi	a1,ra,-975

0000000080005ff4 <i_5912>:
    80005ff4:	0e013b03          	ld	s6,224(sp)

0000000080005ff8 <i_5913>:
    80005ff8:	02255533          	divu	a0,a0,sp

0000000080005ffc <i_5914>:
    80005ffc:	f5610523          	sb	s6,-182(sp)

0000000080006000 <i_5915>:
    80006000:	00000013          	nop

0000000080006004 <i_5916>:
    80006004:	08710fa3          	sb	t2,159(sp)

0000000080006008 <i_5917>:
    80006008:	030d2433          	mulhsu	s0,s10,a6

000000008000600c <i_5918>:
    8000600c:	00000013          	nop

0000000080006010 <i_5919>:
    80006010:	e6e12023          	sw	a4,-416(sp)

0000000080006014 <i_5920>:
    80006014:	0015939b          	slliw	t2,a1,0x1

0000000080006018 <i_5921>:
    80006018:	7d100213          	li	tp,2001

000000008000601c <i_5922>:
    8000601c:	7d800713          	li	a4,2008

0000000080006020 <i_5923>:
    80006020:	eb211283          	lh	t0,-334(sp)

0000000080006024 <i_5924>:
    80006024:	00120213          	addi	tp,tp,1 # 1 <main-0x7fffffff>
    80006028:	fee21ce3          	bne	tp,a4,80006020 <i_5923>

000000008000602c <i_5925>:
    8000602c:	00400d93          	li	s11,4

0000000080006030 <i_5926>:
    80006030:	41b85b3b          	sraw	s6,a6,s11

0000000080006034 <i_5927>:
    80006034:	02bf5263          	ble	a1,t5,80006058 <i_5936>

0000000080006038 <i_5928>:
    80006038:	00458c63          	beq	a1,tp,80006050 <i_5934>

000000008000603c <i_5929>:
    8000603c:	01b5bbb3          	sltu	s7,a1,s11

0000000080006040 <i_5930>:
    80006040:	efa14b03          	lbu	s6,-262(sp)

0000000080006044 <i_5931>:
    80006044:	26eb7c13          	andi	s8,s6,622

0000000080006048 <i_5932>:
    80006048:	fe013f03          	ld	t5,-32(sp)

000000008000604c <i_5933>:
    8000604c:	01eb4f33          	xor	t5,s6,t5

0000000080006050 <i_5934>:
    80006050:	0024d49b          	srliw	s1,s1,0x2

0000000080006054 <i_5935>:
    80006054:	ff8109a3          	sb	s8,-13(sp)

0000000080006058 <i_5936>:
    80006058:	1ae10e83          	lb	t4,430(sp)

000000008000605c <i_5937>:
    8000605c:	005b1c63          	bne	s6,t0,80006074 <i_5943>

0000000080006060 <i_5938>:
    80006060:	0c412703          	lw	a4,196(sp)

0000000080006064 <i_5939>:
    80006064:	036ebb33          	mulhu	s6,t4,s6

0000000080006068 <i_5940>:
    80006068:	08711123          	sh	t2,130(sp)

000000008000606c <i_5941>:
    8000606c:	03211f83          	lh	t6,50(sp)

0000000080006070 <i_5942>:
    80006070:	1ab10f83          	lb	t6,427(sp)

0000000080006074 <i_5943>:
    80006074:	033fde3b          	divuw	t3,t6,s3

0000000080006078 <i_5944>:
    80006078:	15c11723          	sh	t3,334(sp)

000000008000607c <i_5945>:
    8000607c:	8cb00693          	li	a3,-1845

0000000080006080 <i_5946>:
    80006080:	8d400993          	li	s3,-1836

0000000080006084 <i_5947>:
    80006084:	02d37333          	remu	t1,t1,a3

0000000080006088 <i_5948>:
    80006088:	001e1e1b          	slliw	t3,t3,0x1

000000008000608c <i_5949>:
    8000608c:	75a00c13          	li	s8,1882

0000000080006090 <i_5950>:
    80006090:	76900293          	li	t0,1897

0000000080006094 <i_5951>:
    80006094:	e8615703          	lhu	a4,-378(sp)

0000000080006098 <i_5952>:
    80006098:	001c0c13          	addi	s8,s8,1
    8000609c:	ff829ce3          	bne	t0,s8,80006094 <i_5951>

00000000800060a0 <i_5953>:
    800060a0:	006e4e63          	blt	t3,t1,800060bc <i_5959>

00000000800060a4 <i_5954>:
    800060a4:	41ce02bb          	subw	t0,t3,t3

00000000800060a8 <i_5955>:
    800060a8:	00168693          	addi	a3,a3,1 # fd580e01 <_end+0x7d5709ed>
    800060ac:	fd36ece3          	bltu	a3,s3,80006084 <i_5947>

00000000800060b0 <i_5956>:
    800060b0:	eae11223          	sh	a4,-348(sp)

00000000800060b4 <i_5957>:
    800060b4:	02e00813          	li	a6,46

00000000800060b8 <i_5958>:
    800060b8:	410e5bb3          	sra	s7,t3,a6

00000000800060bc <i_5959>:
    800060bc:	0102ee33          	or	t3,t0,a6

00000000800060c0 <i_5960>:
    800060c0:	01c37e63          	bleu	t3,t1,800060dc <i_5967>

00000000800060c4 <i_5961>:
    800060c4:	f5016703          	lwu	a4,-176(sp)

00000000800060c8 <i_5962>:
    800060c8:	017bc463          	blt	s7,s7,800060d0 <i_5964>

00000000800060cc <i_5963>:
    800060cc:	03cf7ab3          	remu	s5,t5,t3

00000000800060d0 <i_5964>:
    800060d0:	40630533          	sub	a0,t1,t1

00000000800060d4 <i_5965>:
    800060d4:	14e13423          	sd	a4,328(sp)

00000000800060d8 <i_5966>:
    800060d8:	01e2bdb3          	sltu	s11,t0,t5

00000000800060dc <i_5967>:
    800060dc:	0d610723          	sb	s6,206(sp)

00000000800060e0 <i_5968>:
    800060e0:	1db11b23          	sh	s11,470(sp)

00000000800060e4 <i_5969>:
    800060e4:	00000013          	nop

00000000800060e8 <i_5970>:
    800060e8:	f6114c83          	lbu	s9,-159(sp)

00000000800060ec <i_5971>:
    800060ec:	84f00d93          	li	s11,-1969

00000000800060f0 <i_5972>:
    800060f0:	86200e13          	li	t3,-1950

00000000800060f4 <i_5973>:
    800060f4:	07713823          	sd	s7,112(sp)

00000000800060f8 <i_5974>:
    800060f8:	001e1b9b          	slliw	s7,t3,0x1

00000000800060fc <i_5975>:
    800060fc:	f7913423          	sd	s9,-152(sp)

0000000080006100 <i_5976>:
    80006100:	c3ecb593          	sltiu	a1,s9,-962

0000000080006104 <i_5977>:
    80006104:	d7be049b          	addiw	s1,t3,-645

0000000080006108 <i_5978>:
    80006108:	037bacb3          	mulhsu	s9,s7,s7

000000008000610c <i_5979>:
    8000610c:	001d8d93          	addi	s11,s11,1
    80006110:	ffbe52e3          	ble	s11,t3,800060f4 <i_5973>

0000000080006114 <i_5980>:
    80006114:	0292f263          	bleu	s1,t0,80006138 <i_5989>

0000000080006118 <i_5981>:
    80006118:	5812c293          	xori	t0,t0,1409

000000008000611c <i_5982>:
    8000611c:	00f00a93          	li	s5,15

0000000080006120 <i_5983>:
    80006120:	4152d8bb          	sraw	a7,t0,s5

0000000080006124 <i_5984>:
    80006124:	0054d263          	ble	t0,s1,80006128 <i_5985>

0000000080006128 <i_5985>:
    80006128:	00548333          	add	t1,s1,t0

000000008000612c <i_5986>:
    8000612c:	40530ab3          	sub	s5,t1,t0

0000000080006130 <i_5987>:
    80006130:	e6012283          	lw	t0,-416(sp)

0000000080006134 <i_5988>:
    80006134:	006a9463          	bne	s5,t1,8000613c <i_5990>

0000000080006138 <i_5989>:
    80006138:	015af633          	and	a2,s5,s5

000000008000613c <i_5990>:
    8000613c:	00431913          	slli	s2,t1,0x4

0000000080006140 <i_5991>:
    80006140:	00995263          	ble	s1,s2,80006144 <i_5992>

0000000080006144 <i_5992>:
    80006144:	0068de63          	ble	t1,a7,80006160 <i_5999>

0000000080006148 <i_5993>:
    80006148:	04b14e83          	lbu	t4,75(sp)

000000008000614c <i_5994>:
    8000614c:	f7e15303          	lhu	t1,-130(sp)

0000000080006150 <i_5995>:
    80006150:	ef412b03          	lw	s6,-268(sp)

0000000080006154 <i_5996>:
    80006154:	00500a13          	li	s4,5

0000000080006158 <i_5997>:
    80006158:	014310bb          	sllw	ra,t1,s4

000000008000615c <i_5998>:
    8000615c:	f0b12823          	sw	a1,-240(sp)

0000000080006160 <i_5999>:
    80006160:	02900513          	li	a0,41

0000000080006164 <i_6000>:
    80006164:	00aed533          	srl	a0,t4,a0

0000000080006168 <i_6001>:
    80006168:	76b00493          	li	s1,1899

000000008000616c <i_6002>:
    8000616c:	77a00893          	li	a7,1914

0000000080006170 <i_6003>:
    80006170:	0018f263          	bleu	ra,a7,80006174 <i_6004>

0000000080006174 <i_6004>:
    80006174:	02be8463          	beq	t4,a1,8000619c <i_6013>

0000000080006178 <i_6005>:
    80006178:	419985bb          	subw	a1,s3,s9

000000008000617c <i_6006>:
    8000617c:	00148493          	addi	s1,s1,1
    80006180:	fe98d8e3          	ble	s1,a7,80006170 <i_6003>

0000000080006184 <i_6007>:
    80006184:	011fee63          	bltu	t6,a7,800061a0 <i_6014>

0000000080006188 <i_6008>:
    80006188:	ec313423          	sd	gp,-312(sp)

000000008000618c <i_6009>:
    8000618c:	0f812503          	lw	a0,248(sp)

0000000080006190 <i_6010>:
    80006190:	f4013783          	ld	a5,-192(sp)

0000000080006194 <i_6011>:
    80006194:	00000013          	nop

0000000080006198 <i_6012>:
    80006198:	1cb10c23          	sb	a1,472(sp)

000000008000619c <i_6013>:
    8000619c:	0045951b          	slliw	a0,a1,0x4

00000000800061a0 <i_6014>:
    800061a0:	eb416683          	lwu	a3,-332(sp)

00000000800061a4 <i_6015>:
    800061a4:	00000013          	nop

00000000800061a8 <i_6016>:
    800061a8:	81c00793          	li	a5,-2020

00000000800061ac <i_6017>:
    800061ac:	82600a13          	li	s4,-2010

00000000800061b0 <i_6018>:
    800061b0:	0148be33          	sltu	t3,a7,s4

00000000800061b4 <i_6019>:
    800061b4:	00aa7263          	bleu	a0,s4,800061b8 <i_6020>

00000000800061b8 <i_6020>:
    800061b8:	ef314e03          	lbu	t3,-269(sp)

00000000800061bc <i_6021>:
    800061bc:	01412683          	lw	a3,20(sp)

00000000800061c0 <i_6022>:
    800061c0:	00000013          	nop

00000000800061c4 <i_6023>:
    800061c4:	e9013883          	ld	a7,-368(sp)

00000000800061c8 <i_6024>:
    800061c8:	00178793          	addi	a5,a5,1
    800061cc:	ff4792e3          	bne	a5,s4,800061b0 <i_6018>

00000000800061d0 <i_6025>:
    800061d0:	01c0ee63          	bltu	ra,t3,800061ec <i_6032>

00000000800061d4 <i_6026>:
    800061d4:	f8d10923          	sb	a3,-110(sp)

00000000800061d8 <i_6027>:
    800061d8:	15013d83          	ld	s11,336(sp)

00000000800061dc <i_6028>:
    800061dc:	ebb13423          	sd	s11,-344(sp)

00000000800061e0 <i_6029>:
    800061e0:	03cdd063          	ble	t3,s11,80006200 <i_6037>

00000000800061e4 <i_6030>:
    800061e4:	b263c393          	xori	t2,t2,-1242

00000000800061e8 <i_6031>:
    800061e8:	017389b3          	add	s3,t2,s7

00000000800061ec <i_6032>:
    800061ec:	f6410fa3          	sb	tp,-129(sp)

00000000800061f0 <i_6033>:
    800061f0:	00900b13          	li	s6,9

00000000800061f4 <i_6034>:
    800061f4:	016e1dbb          	sllw	s11,t3,s6

00000000800061f8 <i_6035>:
    800061f8:	0247e3b3          	rem	t2,a5,tp

00000000800061fc <i_6036>:
    800061fc:	ff612a23          	sw	s6,-12(sp)

0000000080006200 <i_6037>:
    80006200:	1d611a23          	sh	s6,468(sp)

0000000080006204 <i_6038>:
    80006204:	036bdbb3          	divu	s7,s7,s6

0000000080006208 <i_6039>:
    80006208:	76b00213          	li	tp,1899

000000008000620c <i_6040>:
    8000620c:	77100e13          	li	t3,1905

0000000080006210 <i_6041>:
    80006210:	401d5693          	srai	a3,s10,0x1

0000000080006214 <i_6042>:
    80006214:	00800b93          	li	s7,8

0000000080006218 <i_6043>:
    80006218:	017f95bb          	sllw	a1,t6,s7

000000008000621c <i_6044>:
    8000621c:	7cb00b13          	li	s6,1995

0000000080006220 <i_6045>:
    80006220:	7d900d13          	li	s10,2009

0000000080006224 <i_6046>:
    80006224:	001b0b13          	addi	s6,s6,1
    80006228:	ff6d7ce3          	bleu	s6,s10,80006220 <i_6045>

000000008000622c <i_6047>:
    8000622c:	033c9cb3          	mulh	s9,s9,s3

0000000080006230 <i_6048>:
    80006230:	00120213          	addi	tp,tp,1 # 1 <main-0x7fffffff>
    80006234:	fc4e5ee3          	ble	tp,t3,80006210 <i_6041>

0000000080006238 <i_6049>:
    80006238:	003c1693          	slli	a3,s8,0x3

000000008000623c <i_6050>:
    8000623c:	08813403          	ld	s0,136(sp)

0000000080006240 <i_6051>:
    80006240:	efa12a23          	sw	s10,-268(sp)

0000000080006244 <i_6052>:
    80006244:	00000013          	nop

0000000080006248 <i_6053>:
    80006248:	10e10403          	lb	s0,270(sp)

000000008000624c <i_6054>:
    8000624c:	8cb00b13          	li	s6,-1845

0000000080006250 <i_6055>:
    80006250:	8db00c93          	li	s9,-1829

0000000080006254 <i_6056>:
    80006254:	f8d11023          	sh	a3,-128(sp)

0000000080006258 <i_6057>:
    80006258:	e2c16083          	lwu	ra,-468(sp)

000000008000625c <i_6058>:
    8000625c:	00309893          	slli	a7,ra,0x3

0000000080006260 <i_6059>:
    80006260:	001b0b13          	addi	s6,s6,1
    80006264:	ff6cf8e3          	bleu	s6,s9,80006254 <i_6056>

0000000080006268 <i_6060>:
    80006268:	15c16403          	lwu	s0,348(sp)

000000008000626c <i_6061>:
    8000626c:	ea111923          	sh	ra,-334(sp)

0000000080006270 <i_6062>:
    80006270:	fa810523          	sb	s0,-86(sp)

0000000080006274 <i_6063>:
    80006274:	e6b10083          	lb	ra,-405(sp)

0000000080006278 <i_6064>:
    80006278:	408e06b3          	sub	a3,t3,s0

000000008000627c <i_6065>:
    8000627c:	10113c23          	sd	ra,280(sp)

0000000080006280 <i_6066>:
    80006280:	00d69263          	bne	a3,a3,80006284 <i_6067>

0000000080006284 <i_6067>:
    80006284:	0a143893          	sltiu	a7,s0,161

0000000080006288 <i_6068>:
    80006288:	4010df1b          	sraiw	t5,ra,0x1

000000008000628c <i_6069>:
    8000628c:	f5514c83          	lbu	s9,-171(sp)

0000000080006290 <i_6070>:
    80006290:	02888263          	beq	a7,s0,800062b4 <i_6079>

0000000080006294 <i_6071>:
    80006294:	fc615f03          	lhu	t5,-58(sp)

0000000080006298 <i_6072>:
    80006298:	05813c03          	ld	s8,88(sp)

000000008000629c <i_6073>:
    8000629c:	e2a14803          	lbu	a6,-470(sp)

00000000800062a0 <i_6074>:
    800062a0:	473c4c13          	xori	s8,s8,1139

00000000800062a4 <i_6075>:
    800062a4:	12013c83          	ld	s9,288(sp)

00000000800062a8 <i_6076>:
    800062a8:	018c0c33          	add	s8,s8,s8

00000000800062ac <i_6077>:
    800062ac:	419207b3          	sub	a5,tp,s9

00000000800062b0 <i_6078>:
    800062b0:	023c4463          	blt	s8,gp,800062d8 <i_6088>

00000000800062b4 <i_6079>:
    800062b4:	00f20233          	add	tp,tp,a5

00000000800062b8 <i_6080>:
    800062b8:	00f00193          	li	gp,15

00000000800062bc <i_6081>:
    800062bc:	00389ebb          	sllw	t4,a7,gp

00000000800062c0 <i_6082>:
    800062c0:	00f00e93          	li	t4,15

00000000800062c4 <i_6083>:
    800062c4:	01ded7bb          	srlw	a5,t4,t4

00000000800062c8 <i_6084>:
    800062c8:	00319263          	bne	gp,gp,800062cc <i_6085>

00000000800062cc <i_6085>:
    800062cc:	01500193          	li	gp,21

00000000800062d0 <i_6086>:
    800062d0:	4037d7bb          	sraw	a5,a5,gp

00000000800062d4 <i_6087>:
    800062d4:	03415983          	lhu	s3,52(sp)

00000000800062d8 <i_6088>:
    800062d8:	01deaeb3          	slt	t4,t4,t4

00000000800062dc <i_6089>:
    800062dc:	01a00e93          	li	t4,26

00000000800062e0 <i_6090>:
    800062e0:	41d1debb          	sraw	t4,gp,t4

00000000800062e4 <i_6091>:
    800062e4:	01d13823          	sd	t4,16(sp)

00000000800062e8 <i_6092>:
    800062e8:	ff311323          	sh	s3,-26(sp)

00000000800062ec <i_6093>:
    800062ec:	41d98dbb          	subw	s11,s3,t4

00000000800062f0 <i_6094>:
    800062f0:	01dee7b3          	or	a5,t4,t4

00000000800062f4 <i_6095>:
    800062f4:	42cdb613          	sltiu	a2,s11,1068

00000000800062f8 <i_6096>:
    800062f8:	11215e83          	lhu	t4,274(sp)

00000000800062fc <i_6097>:
    800062fc:	0294543b          	divuw	s0,s0,s1

0000000080006300 <i_6098>:
    80006300:	1c014283          	lbu	t0,448(sp)

0000000080006304 <i_6099>:
    80006304:	00329c93          	slli	s9,t0,0x3

0000000080006308 <i_6100>:
    80006308:	47b43413          	sltiu	s0,s0,1147

000000008000630c <i_6101>:
    8000630c:	00613423          	sd	t1,8(sp)

0000000080006310 <i_6102>:
    80006310:	1cc16e83          	lwu	t4,460(sp)

0000000080006314 <i_6103>:
    80006314:	f7615c83          	lhu	s9,-138(sp)

0000000080006318 <i_6104>:
    80006318:	03944eb3          	div	t4,s0,s9

000000008000631c <i_6105>:
    8000631c:	02845063          	ble	s0,s0,8000633c <i_6113>

0000000080006320 <i_6106>:
    80006320:	07811b03          	lh	s6,120(sp)

0000000080006324 <i_6107>:
    80006324:	e6810d23          	sb	s0,-390(sp)

0000000080006328 <i_6108>:
    80006328:	028ed263          	ble	s0,t4,8000634c <i_6117>

000000008000632c <i_6109>:
    8000632c:	00fe8cb3          	add	s9,t4,a5

0000000080006330 <i_6110>:
    80006330:	019c9c63          	bne	s9,s9,80006348 <i_6116>

0000000080006334 <i_6111>:
    80006334:	e2812423          	sw	s0,-472(sp)

0000000080006338 <i_6112>:
    80006338:	01940263          	beq	s0,s9,8000633c <i_6113>

000000008000633c <i_6113>:
    8000633c:	08812223          	sw	s0,132(sp)

0000000080006340 <i_6114>:
    80006340:	98fef413          	andi	s0,t4,-1649

0000000080006344 <i_6115>:
    80006344:	ebe10403          	lb	s0,-322(sp)

0000000080006348 <i_6116>:
    80006348:	0b416783          	lwu	a5,180(sp)

000000008000634c <i_6117>:
    8000634c:	79142793          	slti	a5,s0,1937

0000000080006350 <i_6118>:
    80006350:	ebd13023          	sd	t4,-352(sp)

0000000080006354 <i_6119>:
    80006354:	402d5d1b          	sraiw	s10,s10,0x2

0000000080006358 <i_6120>:
    80006358:	40d40ab3          	sub	s5,s0,a3

000000008000635c <i_6121>:
    8000635c:	0013df9b          	srliw	t6,t2,0x1

0000000080006360 <i_6122>:
    80006360:	01f00c93          	li	s9,31

0000000080006364 <i_6123>:
    80006364:	019bdbb3          	srl	s7,s7,s9

0000000080006368 <i_6124>:
    80006368:	039440bb          	divw	ra,s0,s9

000000008000636c <i_6125>:
    8000636c:	ea414e03          	lbu	t3,-348(sp)

0000000080006370 <i_6126>:
    80006370:	18812a23          	sw	s0,404(sp)

0000000080006374 <i_6127>:
    80006374:	03246433          	rem	s0,s0,s2

0000000080006378 <i_6128>:
    80006378:	03c45eb3          	divu	t4,s0,t3

000000008000637c <i_6129>:
    8000637c:	005ee2b3          	or	t0,t4,t0

0000000080006380 <i_6130>:
    80006380:	411ec413          	xori	s0,t4,1041

0000000080006384 <i_6131>:
    80006384:	ef816483          	lwu	s1,-264(sp)

0000000080006388 <i_6132>:
    80006388:	03de35b3          	mulhu	a1,t3,t4

000000008000638c <i_6133>:
    8000638c:	00000013          	nop

0000000080006390 <i_6134>:
    80006390:	7ed00293          	li	t0,2029

0000000080006394 <i_6135>:
    80006394:	7fd00a13          	li	s4,2045

0000000080006398 <i_6136>:
    80006398:	03d405bb          	mulw	a1,s0,t4

000000008000639c <i_6137>:
    8000639c:	ee813403          	ld	s0,-280(sp)

00000000800063a0 <i_6138>:
    800063a0:	0210f7b3          	remu	a5,ra,ra

00000000800063a4 <i_6139>:
    800063a4:	028b7dbb          	remuw	s11,s6,s0

00000000800063a8 <i_6140>:
    800063a8:	f9d109a3          	sb	t4,-109(sp)

00000000800063ac <i_6141>:
    800063ac:	00529c63          	bne	t0,t0,800063c4 <i_6147>

00000000800063b0 <i_6142>:
    800063b0:	f1b13c23          	sd	s11,-232(sp)

00000000800063b4 <i_6143>:
    800063b4:	00940263          	beq	s0,s1,800063b8 <i_6144>

00000000800063b8 <i_6144>:
    800063b8:	00429613          	slli	a2,t0,0x4

00000000800063bc <i_6145>:
    800063bc:	fb813483          	ld	s1,-72(sp)

00000000800063c0 <i_6146>:
    800063c0:	13014983          	lbu	s3,304(sp)

00000000800063c4 <i_6147>:
    800063c4:	17b14603          	lbu	a2,379(sp)

00000000800063c8 <i_6148>:
    800063c8:	e4211e83          	lh	t4,-446(sp)

00000000800063cc <i_6149>:
    800063cc:	11410d03          	lb	s10,276(sp)

00000000800063d0 <i_6150>:
    800063d0:	00128293          	addi	t0,t0,1 # 32f6ac65 <main-0x4d09539b>
    800063d4:	fd42e2e3          	bltu	t0,s4,80006398 <i_6136>

00000000800063d8 <i_6151>:
    800063d8:	e1812483          	lw	s1,-488(sp)

00000000800063dc <i_6152>:
    800063dc:	0395653b          	remw	a0,a0,s9

00000000800063e0 <i_6153>:
    800063e0:	eba15d03          	lhu	s10,-326(sp)

00000000800063e4 <i_6154>:
    800063e4:	0ca10a83          	lb	s5,202(sp)

00000000800063e8 <i_6155>:
    800063e8:	01550c63          	beq	a0,s5,80006400 <i_6161>

00000000800063ec <i_6156>:
    800063ec:	008d7463          	bleu	s0,s10,800063f4 <i_6158>

00000000800063f0 <i_6157>:
    800063f0:	01ae9c63          	bne	t4,s10,80006408 <i_6163>

00000000800063f4 <i_6158>:
    800063f4:	fdd13423          	sd	t4,-56(sp)

00000000800063f8 <i_6159>:
    800063f8:	01200a13          	li	s4,18

00000000800063fc <i_6160>:
    800063fc:	01445433          	srl	s0,s0,s4

0000000080006400 <i_6161>:
    80006400:	02a578bb          	remuw	a7,a0,a0

0000000080006404 <i_6162>:
    80006404:	f0e10683          	lb	a3,-242(sp)

0000000080006408 <i_6163>:
    80006408:	008106a3          	sb	s0,13(sp)

000000008000640c <i_6164>:
    8000640c:	3a1e6897          	auipc	a7,0x3a1e6

0000000080006410 <i_6165>:
    80006410:	00d6c5b3          	xor	a1,a3,a3

0000000080006414 <i_6166>:
    80006414:	e2a11123          	sh	a0,-478(sp)

0000000080006418 <i_6167>:
    80006418:	0cf12823          	sw	a5,208(sp)

000000008000641c <i_6168>:
    8000641c:	eee13c23          	sd	a4,-264(sp)

0000000080006420 <i_6169>:
    80006420:	7bb00793          	li	a5,1979

0000000080006424 <i_6170>:
    80006424:	7c300713          	li	a4,1987

0000000080006428 <i_6171>:
    80006428:	02dd4d33          	div	s10,s10,a3

000000008000642c <i_6172>:
    8000642c:	1ae15683          	lhu	a3,430(sp)

0000000080006430 <i_6173>:
    80006430:	01a68863          	beq	a3,s10,80006440 <i_6177>

0000000080006434 <i_6174>:
    80006434:	02d71263          	bne	a4,a3,80006458 <i_6183>

0000000080006438 <i_6175>:
    80006438:	f5910d03          	lb	s10,-167(sp)

000000008000643c <i_6176>:
    8000643c:	01a13023          	sd	s10,0(sp)

0000000080006440 <i_6177>:
    80006440:	02800493          	li	s1,40

0000000080006444 <i_6178>:
    80006444:	409d56b3          	sra	a3,s10,s1

0000000080006448 <i_6179>:
    80006448:	19a13423          	sd	s10,392(sp)

000000008000644c <i_6180>:
    8000644c:	002a1a13          	slli	s4,s4,0x2

0000000080006450 <i_6181>:
    80006450:	405a0d3b          	subw	s10,s4,t0

0000000080006454 <i_6182>:
    80006454:	18c15283          	lhu	t0,396(sp)

0000000080006458 <i_6183>:
    80006458:	13816a03          	lwu	s4,312(sp)

000000008000645c <i_6184>:
    8000645c:	12a11c23          	sh	a0,312(sp)

0000000080006460 <i_6185>:
    80006460:	dbe01917          	auipc	s2,0xdbe01

0000000080006464 <i_6186>:
    80006464:	00178793          	addi	a5,a5,1
    80006468:	fcf710e3          	bne	a4,a5,80006428 <i_6171>

000000008000646c <i_6187>:
    8000646c:	00000013          	nop

0000000080006470 <i_6188>:
    80006470:	ff514583          	lbu	a1,-11(sp)

0000000080006474 <i_6189>:
    80006474:	0ca104a3          	sb	a0,201(sp)

0000000080006478 <i_6190>:
    80006478:	02563633          	mulhu	a2,a2,t0

000000008000647c <i_6191>:
    8000647c:	03449263          	bne	s1,s4,800064a0 <i_6200>

0000000080006480 <i_6192>:
    80006480:	11d10a03          	lb	s4,285(sp)

0000000080006484 <i_6193>:
    80006484:	00bdd663          	ble	a1,s11,80006490 <i_6196>

0000000080006488 <i_6194>:
    80006488:	00c65a63          	ble	a2,a2,8000649c <i_6199>

000000008000648c <i_6195>:
    8000648c:	00ca5e63          	ble	a2,s4,800064a8 <i_6202>

0000000080006490 <i_6196>:
    80006490:	e9416903          	lwu	s2,-364(sp)

0000000080006494 <i_6197>:
    80006494:	02c62533          	mulhsu	a0,a2,a2

0000000080006498 <i_6198>:
    80006498:	00b96e63          	bltu	s2,a1,800064b4 <i_6205>

000000008000649c <i_6199>:
    8000649c:	02c51c33          	mulh	s8,a0,a2

00000000800064a0 <i_6200>:
    800064a0:	15811b23          	sh	s8,342(sp)

00000000800064a4 <i_6201>:
    800064a4:	00c12503          	lw	a0,12(sp)

00000000800064a8 <i_6202>:
    800064a8:	11810523          	sb	s8,266(sp)

00000000800064ac <i_6203>:
    800064ac:	00435a1b          	srliw	s4,t1,0x4

00000000800064b0 <i_6204>:
    800064b0:	02134a3b          	divw	s4,t1,ra

00000000800064b4 <i_6205>:
    800064b4:	01614803          	lbu	a6,22(sp)

00000000800064b8 <i_6206>:
    800064b8:	00000013          	nop

00000000800064bc <i_6207>:
    800064bc:	7a500313          	li	t1,1957

00000000800064c0 <i_6208>:
    800064c0:	7b400f13          	li	t5,1972

00000000800064c4 <i_6209>:
    800064c4:	03e57063          	bleu	t5,a0,800064e4 <i_6216>

00000000800064c8 <i_6210>:
    800064c8:	035c5063          	ble	s5,s8,800064e8 <i_6217>

00000000800064cc <i_6211>:
    800064cc:	f0416b83          	lwu	s7,-252(sp)

00000000800064d0 <i_6212>:
    800064d0:	02af5063          	ble	a0,t5,800064f0 <i_6219>

00000000800064d4 <i_6213>:
    800064d4:	00130313          	addi	t1,t1,1
    800064d8:	fe6f76e3          	bleu	t1,t5,800064c4 <i_6209>

00000000800064dc <i_6214>:
    800064dc:	033c70b3          	remu	ra,s8,s3

00000000800064e0 <i_6215>:
    800064e0:	17813c23          	sd	s8,376(sp)

00000000800064e4 <i_6216>:
    800064e4:	026f7463          	bleu	t1,t5,8000650c <i_6226>

00000000800064e8 <i_6217>:
    800064e8:	401c5c13          	srai	s8,s8,0x1

00000000800064ec <i_6218>:
    800064ec:	03709463          	bne	ra,s7,80006514 <i_6228>

00000000800064f0 <i_6219>:
    800064f0:	00a0d663          	ble	a0,ra,800064fc <i_6222>

00000000800064f4 <i_6220>:
    800064f4:	403c5b9b          	sraiw	s7,s8,0x3

00000000800064f8 <i_6221>:
    800064f8:	037b0a3b          	mulw	s4,s6,s7

00000000800064fc <i_6222>:
    800064fc:	038dd263          	ble	s8,s11,80006520 <i_6231>

0000000080006500 <i_6223>:
    80006500:	16d14c03          	lbu	s8,365(sp)

0000000080006504 <i_6224>:
    80006504:	402c5f1b          	sraiw	t5,s8,0x2

0000000080006508 <i_6225>:
    80006508:	18412683          	lw	a3,388(sp)

000000008000650c <i_6226>:
    8000650c:	e4c12b03          	lw	s6,-436(sp)

0000000080006510 <i_6227>:
    80006510:	12710703          	lb	a4,295(sp)

0000000080006514 <i_6228>:
    80006514:	017afa63          	bleu	s7,s5,80006528 <i_6233>

0000000080006518 <i_6229>:
    80006518:	6a0ceb13          	ori	s6,s9,1696

000000008000651c <i_6230>:
    8000651c:	fc215a83          	lhu	s5,-62(sp)

0000000080006520 <i_6231>:
    80006520:	035afb33          	remu	s6,s5,s5

0000000080006524 <i_6232>:
    80006524:	281b0a93          	addi	s5,s6,641

0000000080006528 <i_6233>:
    80006528:	004ada9b          	srliw	s5,s5,0x4

000000008000652c <i_6234>:
    8000652c:	1c714903          	lbu	s2,455(sp)

0000000080006530 <i_6235>:
    80006530:	036ff463          	bleu	s6,t6,80006558 <i_6245>

0000000080006534 <i_6236>:
    80006534:	029b54b3          	divu	s1,s6,s1

0000000080006538 <i_6237>:
    80006538:	00ce1463          	bne	t3,a2,80006540 <i_6239>

000000008000653c <i_6238>:
    8000653c:	f9d14e03          	lbu	t3,-99(sp)

0000000080006540 <i_6239>:
    80006540:	01c41263          	bne	s0,t3,80006544 <i_6240>

0000000080006544 <i_6240>:
    80006544:	02400693          	li	a3,36

0000000080006548 <i_6241>:
    80006548:	40de56b3          	sra	a3,t3,a3

000000008000654c <i_6242>:
    8000654c:	00d12e23          	sw	a3,28(sp)

0000000080006550 <i_6243>:
    80006550:	0326f83b          	remuw	a6,a3,s2

0000000080006554 <i_6244>:
    80006554:	3c56be13          	sltiu	t3,a3,965

0000000080006558 <i_6245>:
    80006558:	0292c63b          	divw	a2,t0,s1

000000008000655c <i_6246>:
    8000655c:	19416583          	lwu	a1,404(sp)

0000000080006560 <i_6247>:
    80006560:	e8514f83          	lbu	t6,-379(sp)

0000000080006564 <i_6248>:
    80006564:	02bfc6b3          	div	a3,t6,a1

0000000080006568 <i_6249>:
    80006568:	0096ea63          	bltu	a3,s1,8000657c <i_6254>

000000008000656c <i_6250>:
    8000656c:	03049263          	bne	s1,a6,80006590 <i_6259>

0000000080006570 <i_6251>:
    80006570:	e5012683          	lw	a3,-432(sp)

0000000080006574 <i_6252>:
    80006574:	00dff863          	bleu	a3,t6,80006584 <i_6256>

0000000080006578 <i_6253>:
    80006578:	03f7e7b3          	rem	a5,a5,t6

000000008000657c <i_6254>:
    8000657c:	f6013683          	ld	a3,-160(sp)

0000000080006580 <i_6255>:
    80006580:	00d6f463          	bleu	a3,a3,80006588 <i_6257>

0000000080006584 <i_6256>:
    80006584:	e0d10f23          	sb	a3,-482(sp)

0000000080006588 <i_6257>:
    80006588:	f2211d83          	lh	s11,-222(sp)

000000008000658c <i_6258>:
    8000658c:	00000013          	nop

0000000080006590 <i_6259>:
    80006590:	e3812603          	lw	a2,-456(sp)

0000000080006594 <i_6260>:
    80006594:	00000013          	nop

0000000080006598 <i_6261>:
    80006598:	8ae00b13          	li	s6,-1874

000000008000659c <i_6262>:
    8000659c:	8b000693          	li	a3,-1872

00000000800065a0 <i_6263>:
    800065a0:	02c9493b          	divw	s2,s2,a2

00000000800065a4 <i_6264>:
    800065a4:	04814e03          	lbu	t3,72(sp)

00000000800065a8 <i_6265>:
    800065a8:	00000013          	nop

00000000800065ac <i_6266>:
    800065ac:	3490de97          	auipc	t4,0x3490d

00000000800065b0 <i_6267>:
    800065b0:	02e00393          	li	t2,46

00000000800065b4 <i_6268>:
    800065b4:	007fddb3          	srl	s11,t6,t2

00000000800065b8 <i_6269>:
    800065b8:	001b0b13          	addi	s6,s6,1
    800065bc:	fedb42e3          	blt	s6,a3,800065a0 <i_6263>

00000000800065c0 <i_6270>:
    800065c0:	01ddfd33          	and	s10,s11,t4

00000000800065c4 <i_6271>:
    800065c4:	01fcea63          	bltu	s9,t6,800065d8 <i_6276>

00000000800065c8 <i_6272>:
    800065c8:	eac12423          	sw	a2,-344(sp)

00000000800065cc <i_6273>:
    800065cc:	05012b83          	lw	s7,80(sp)

00000000800065d0 <i_6274>:
    800065d0:	11811d83          	lh	s11,280(sp)

00000000800065d4 <i_6275>:
    800065d4:	eff11b23          	sh	t6,-266(sp)

00000000800065d8 <i_6276>:
    800065d8:	09310c83          	lb	s9,147(sp)

00000000800065dc <i_6277>:
    800065dc:	02c3e33b          	remw	t1,t2,a2

00000000800065e0 <i_6278>:
    800065e0:	47982fb7          	lui	t6,0x47982

00000000800065e4 <i_6279>:
    800065e4:	0196e663          	bltu	a3,s9,800065f0 <i_6282>

00000000800065e8 <i_6280>:
    800065e8:	78bf869b          	addiw	a3,t6,1931

00000000800065ec <i_6281>:
    800065ec:	02d6f063          	bleu	a3,a3,8000660c <i_6289>

00000000800065f0 <i_6282>:
    800065f0:	eec16683          	lwu	a3,-276(sp)

00000000800065f4 <i_6283>:
    800065f4:	00ba04b3          	add	s1,s4,a1

00000000800065f8 <i_6284>:
    800065f8:	00000013          	nop

00000000800065fc <i_6285>:
    800065fc:	02b5c5b3          	div	a1,a1,a1

0000000080006600 <i_6286>:
    80006600:	029235b3          	mulhu	a1,tp,s1

0000000080006604 <i_6287>:
    80006604:	4020d51b          	sraiw	a0,ra,0x2

0000000080006608 <i_6288>:
    80006608:	03012083          	lw	ra,48(sp)

000000008000660c <i_6289>:
    8000660c:	f5514403          	lbu	s0,-171(sp)

0000000080006610 <i_6290>:
    80006610:	00000013          	nop

0000000080006614 <i_6291>:
    80006614:	82600f93          	li	t6,-2010

0000000080006618 <i_6292>:
    80006618:	82d00693          	li	a3,-2003

000000008000661c <i_6293>:
    8000661c:	e9016583          	lwu	a1,-368(sp)

0000000080006620 <i_6294>:
    80006620:	f5215403          	lhu	s0,-174(sp)

0000000080006624 <i_6295>:
    80006624:	f2c15d83          	lhu	s11,-212(sp)

0000000080006628 <i_6296>:
    80006628:	001f8f93          	addi	t6,t6,1 # 47982001 <main-0x3867dfff>
    8000662c:	fff6d8e3          	ble	t6,a3,8000661c <i_6293>

0000000080006630 <i_6297>:
    80006630:	00c12d83          	lw	s11,12(sp)

0000000080006634 <i_6298>:
    80006634:	eef10403          	lb	s0,-273(sp)

0000000080006638 <i_6299>:
    80006638:	04d14e83          	lbu	t4,77(sp)

000000008000663c <i_6300>:
    8000663c:	0cc12d83          	lw	s11,204(sp)

0000000080006640 <i_6301>:
    80006640:	01ddfc63          	bleu	t4,s11,80006658 <i_6307>

0000000080006644 <i_6302>:
    80006644:	e2013403          	ld	s0,-480(sp)

0000000080006648 <i_6303>:
    80006648:	01300213          	li	tp,19

000000008000664c <i_6304>:
    8000664c:	4040df33          	sra	t5,ra,tp

0000000080006650 <i_6305>:
    80006650:	021f40b3          	div	ra,t5,ra

0000000080006654 <i_6306>:
    80006654:	f8812a23          	sw	s0,-108(sp)

0000000080006658 <i_6307>:
    80006658:	03500e93          	li	t4,53

000000008000665c <i_6308>:
    8000665c:	01df1f33          	sll	t5,t5,t4

0000000080006660 <i_6309>:
    80006660:	78900093          	li	ra,1929

0000000080006664 <i_6310>:
    80006664:	79700813          	li	a6,1943

0000000080006668 <i_6311>:
    80006668:	00000013          	nop

000000008000666c <i_6312>:
    8000666c:	ee110d23          	sb	ra,-262(sp)

0000000080006670 <i_6313>:
    80006670:	10110423          	sb	ra,264(sp)

0000000080006674 <i_6314>:
    80006674:	08211383          	lh	t2,130(sp)

0000000080006678 <i_6315>:
    80006678:	03081463          	bne	a6,a6,800066a0 <i_6324>

000000008000667c <i_6316>:
    8000667c:	0ea11f03          	lh	t5,234(sp)

0000000080006680 <i_6317>:
    80006680:	00108093          	addi	ra,ra,1 # 4d7b9001 <main-0x32846fff>
    80006684:	fe1872e3          	bleu	ra,a6,80006668 <i_6311>

0000000080006688 <i_6318>:
    80006688:	004f5713          	srli	a4,t5,0x4

000000008000668c <i_6319>:
    8000668c:	03813a03          	ld	s4,56(sp)

0000000080006690 <i_6320>:
    80006690:	06010803          	lb	a6,96(sp)

0000000080006694 <i_6321>:
    80006694:	03aa8abb          	mulw	s5,s5,s10

0000000080006698 <i_6322>:
    80006698:	007a5c63          	ble	t2,s4,800066b0 <i_6328>

000000008000669c <i_6323>:
    8000669c:	03eedb3b          	divuw	s6,t4,t5

00000000800066a0 <i_6324>:
    800066a0:	03e89463          	bne	a7,t5,800066c8 <i_6334>

00000000800066a4 <i_6325>:
    800066a4:	eec16583          	lwu	a1,-276(sp)

00000000800066a8 <i_6326>:
    800066a8:	004f5e63          	ble	tp,t5,800066c4 <i_6333>

00000000800066ac <i_6327>:
    800066ac:	001cdf13          	srli	t5,s9,0x1

00000000800066b0 <i_6328>:
    800066b0:	e7012683          	lw	a3,-400(sp)

00000000800066b4 <i_6329>:
    800066b4:	40d68abb          	subw	s5,a3,a3

00000000800066b8 <i_6330>:
    800066b8:	00b5d463          	ble	a1,a1,800066c0 <i_6332>

00000000800066bc <i_6331>:
    800066bc:	13611583          	lh	a1,310(sp)

00000000800066c0 <i_6332>:
    800066c0:	ea016b83          	lwu	s7,-352(sp)

00000000800066c4 <i_6333>:
    800066c4:	6b2c2493          	slti	s1,s8,1714

00000000800066c8 <i_6334>:
    800066c8:	0293c263          	blt	t2,s1,800066ec <i_6343>

00000000800066cc <i_6335>:
    800066cc:	f5812a23          	sw	s8,-172(sp)

00000000800066d0 <i_6336>:
    800066d0:	00d00413          	li	s0,13

00000000800066d4 <i_6337>:
    800066d4:	408c5c33          	sra	s8,s8,s0

00000000800066d8 <i_6338>:
    800066d8:	009be463          	bltu	s7,s1,800066e0 <i_6340>

00000000800066dc <i_6339>:
    800066dc:	f6814c83          	lbu	s9,-152(sp)

00000000800066e0 <i_6340>:
    800066e0:	039454b3          	divu	s1,s0,s9

00000000800066e4 <i_6341>:
    800066e4:	00840433          	add	s0,s0,s0

00000000800066e8 <i_6342>:
    800066e8:	03000e93          	li	t4,48

00000000800066ec <i_6343>:
    800066ec:	01d41433          	sll	s0,s0,t4

00000000800066f0 <i_6344>:
    800066f0:	fc913823          	sd	s1,-48(sp)

00000000800066f4 <i_6345>:
    800066f4:	f9c11383          	lh	t2,-100(sp)

00000000800066f8 <i_6346>:
    800066f8:	ea710ba3          	sb	t2,-329(sp)

00000000800066fc <i_6347>:
    800066fc:	00f14403          	lbu	s0,15(sp)

0000000080006700 <i_6348>:
    80006700:	e3a14383          	lbu	t2,-454(sp)

0000000080006704 <i_6349>:
    80006704:	ff710603          	lb	a2,-9(sp)

0000000080006708 <i_6350>:
    80006708:	0ac12683          	lw	a3,172(sp)

000000008000670c <i_6351>:
    8000670c:	ea610a03          	lb	s4,-346(sp)

0000000080006710 <i_6352>:
    80006710:	01600d93          	li	s11,22

0000000080006714 <i_6353>:
    80006714:	01b61dbb          	sllw	s11,a2,s11

0000000080006718 <i_6354>:
    80006718:	16811083          	lh	ra,360(sp)

000000008000671c <i_6355>:
    8000671c:	18c12503          	lw	a0,396(sp)

0000000080006720 <i_6356>:
    80006720:	ed815503          	lhu	a0,-296(sp)

0000000080006724 <i_6357>:
    80006724:	eec11323          	sh	a2,-282(sp)

0000000080006728 <i_6358>:
    80006728:	00a09263          	bne	ra,a0,8000672c <i_6359>

000000008000672c <i_6359>:
    8000672c:	013df263          	bleu	s3,s11,80006730 <i_6360>

0000000080006730 <i_6360>:
    80006730:	023dc933          	div	s2,s11,gp

0000000080006734 <i_6361>:
    80006734:	d2583613          	sltiu	a2,a6,-731

0000000080006738 <i_6362>:
    80006738:	01b09e63          	bne	ra,s11,80006754 <i_6369>

000000008000673c <i_6363>:
    8000673c:	e8415183          	lhu	gp,-380(sp)

0000000080006740 <i_6364>:
    80006740:	0c013403          	ld	s0,192(sp)

0000000080006744 <i_6365>:
    80006744:	0351dab3          	divu	s5,gp,s5

0000000080006748 <i_6366>:
    80006748:	02a69063          	bne	a3,a0,80006768 <i_6374>

000000008000674c <i_6367>:
    8000674c:	f6810683          	lb	a3,-152(sp)

0000000080006750 <i_6368>:
    80006750:	02d6f463          	bleu	a3,a3,80006778 <i_6378>

0000000080006754 <i_6369>:
    80006754:	12d12c23          	sw	a3,312(sp)

0000000080006758 <i_6370>:
    80006758:	01e00a93          	li	s5,30

000000008000675c <i_6371>:
    8000675c:	01545dbb          	srlw	s11,s0,s5

0000000080006760 <i_6372>:
    80006760:	037d8463          	beq	s11,s7,80006788 <i_6382>

0000000080006764 <i_6373>:
    80006764:	f4816883          	lwu	a7,-184(sp)

0000000080006768 <i_6374>:
    80006768:	0061d463          	ble	t1,gp,80006770 <i_6376>

000000008000676c <i_6375>:
    8000676c:	fd313823          	sd	s3,-48(sp)

0000000080006770 <i_6376>:
    80006770:	00000013          	nop

0000000080006774 <i_6377>:
    80006774:	05b13823          	sd	s11,80(sp)

0000000080006778 <i_6378>:
    80006778:	00000013          	nop

000000008000677c <i_6379>:
    8000677c:	0321e1b3          	rem	gp,gp,s2

0000000080006780 <i_6380>:
    80006780:	023968bb          	remw	a7,s2,gp

0000000080006784 <i_6381>:
    80006784:	ef213823          	sd	s2,-272(sp)

0000000080006788 <i_6382>:
    80006788:	00000013          	nop

000000008000678c <i_6383>:
    8000678c:	00000013          	nop

0000000080006790 <i_6384>:
    80006790:	8a800913          	li	s2,-1880

0000000080006794 <i_6385>:
    80006794:	8ae00a93          	li	s5,-1874

0000000080006798 <i_6386>:
    80006798:	0231d663          	ble	gp,gp,800067c4 <i_6396>

000000008000679c <i_6387>:
    8000679c:	0f816983          	lwu	s3,248(sp)

00000000800067a0 <i_6388>:
    800067a0:	10313023          	sd	gp,256(sp)

00000000800067a4 <i_6389>:
    800067a4:	023931b3          	mulhu	gp,s2,gp

00000000800067a8 <i_6390>:
    800067a8:	1d311d23          	sh	s3,474(sp)

00000000800067ac <i_6391>:
    800067ac:	00190913          	addi	s2,s2,1 # 5be07461 <main-0x241f8b9f>
    800067b0:	ff2ad4e3          	ble	s2,s5,80006798 <i_6386>

00000000800067b4 <i_6392>:
    800067b4:	1b3102a3          	sb	s3,421(sp)

00000000800067b8 <i_6393>:
    800067b8:	f3211423          	sh	s2,-216(sp)

00000000800067bc <i_6394>:
    800067bc:	01700193          	li	gp,23

00000000800067c0 <i_6395>:
    800067c0:	003d99b3          	sll	s3,s11,gp

00000000800067c4 <i_6396>:
    800067c4:	09213423          	sd	s2,136(sp)

00000000800067c8 <i_6397>:
    800067c8:	0239c1bb          	divw	gp,s3,gp

00000000800067cc <i_6398>:
    800067cc:	01f1ca63          	blt	gp,t6,800067e0 <i_6403>

00000000800067d0 <i_6399>:
    800067d0:	ed813983          	ld	s3,-296(sp)

00000000800067d4 <i_6400>:
    800067d4:	01700713          	li	a4,23

00000000800067d8 <i_6401>:
    800067d8:	40e8d8b3          	sra	a7,a7,a4

00000000800067dc <i_6402>:
    800067dc:	e2e12223          	sw	a4,-476(sp)

00000000800067e0 <i_6403>:
    800067e0:	013b9463          	bne	s7,s3,800067e8 <i_6405>

00000000800067e4 <i_6404>:
    800067e4:	15012983          	lw	s3,336(sp)

00000000800067e8 <i_6405>:
    800067e8:	1d311423          	sh	s3,456(sp)

00000000800067ec <i_6406>:
    800067ec:	ffa15583          	lhu	a1,-6(sp)

00000000800067f0 <i_6407>:
    800067f0:	02e9f8bb          	remuw	a7,s3,a4

00000000800067f4 <i_6408>:
    800067f4:	e9013a03          	ld	s4,-368(sp)

00000000800067f8 <i_6409>:
    800067f8:	411508b3          	sub	a7,a0,a7

00000000800067fc <i_6410>:
    800067fc:	5d4f7617          	auipc	a2,0x5d4f7

0000000080006800 <i_6411>:
    80006800:	00a8dc63          	ble	a0,a7,80006818 <i_6417>

0000000080006804 <i_6412>:
    80006804:	00f64463          	blt	a2,a5,8000680c <i_6414>

0000000080006808 <i_6413>:
    80006808:	02ea6233          	rem	tp,s4,a4

000000008000680c <i_6414>:
    8000680c:	00b88463          	beq	a7,a1,80006814 <i_6416>

0000000080006810 <i_6415>:
    80006810:	404c5c13          	srai	s8,s8,0x4

0000000080006814 <i_6416>:
    80006814:	f5813823          	sd	s8,-176(sp)

0000000080006818 <i_6417>:
    80006818:	06615703          	lhu	a4,102(sp)

000000008000681c <i_6418>:
    8000681c:	ed211403          	lh	s0,-302(sp)

0000000080006820 <i_6419>:
    80006820:	00c24b33          	xor	s6,tp,a2

0000000080006824 <i_6420>:
    80006824:	e1766e93          	ori	t4,a2,-489

0000000080006828 <i_6421>:
    80006828:	008c1463          	bne	s8,s0,80006830 <i_6423>

000000008000682c <i_6422>:
    8000682c:	023a4ebb          	divw	t4,s4,gp

0000000080006830 <i_6423>:
    80006830:	03dec4b3          	div	s1,t4,t4

0000000080006834 <i_6424>:
    80006834:	01600e93          	li	t4,22

0000000080006838 <i_6425>:
    80006838:	01d4593b          	srlw	s2,s0,t4

000000008000683c <i_6426>:
    8000683c:	f6611703          	lh	a4,-154(sp)

0000000080006840 <i_6427>:
    80006840:	08c10923          	sb	a2,146(sp)

0000000080006844 <i_6428>:
    80006844:	002edc13          	srli	s8,t4,0x2

0000000080006848 <i_6429>:
    80006848:	04f10b03          	lb	s6,79(sp)

000000008000684c <i_6430>:
    8000684c:	f7e14603          	lbu	a2,-130(sp)

0000000080006850 <i_6431>:
    80006850:	e6114e83          	lbu	t4,-415(sp)

0000000080006854 <i_6432>:
    80006854:	00195913          	srli	s2,s2,0x1

0000000080006858 <i_6433>:
    80006858:	02ced933          	divu	s2,t4,a2

000000008000685c <i_6434>:
    8000685c:	02700613          	li	a2,39

0000000080006860 <i_6435>:
    80006860:	00c953b3          	srl	t2,s2,a2

0000000080006864 <i_6436>:
    80006864:	032f0933          	mul	s2,t5,s2

0000000080006868 <i_6437>:
    80006868:	00000013          	nop

000000008000686c <i_6438>:
    8000686c:	7bd00f13          	li	t5,1981

0000000080006870 <i_6439>:
    80006870:	7c100a93          	li	s5,1985

0000000080006874 <i_6440>:
    80006874:	0329093b          	mulw	s2,s2,s2

0000000080006878 <i_6441>:
    80006878:	e9510083          	lb	ra,-363(sp)

000000008000687c <i_6442>:
    8000687c:	03f00413          	li	s0,63

0000000080006880 <i_6443>:
    80006880:	00809433          	sll	s0,ra,s0

0000000080006884 <i_6444>:
    80006884:	e52108a3          	sb	s2,-431(sp)

0000000080006888 <i_6445>:
    80006888:	fbe11303          	lh	t1,-66(sp)

000000008000688c <i_6446>:
    8000688c:	f4111223          	sh	ra,-188(sp)

0000000080006890 <i_6447>:
    80006890:	008375b3          	and	a1,t1,s0

0000000080006894 <i_6448>:
    80006894:	001f0f13          	addi	t5,t5,1
    80006898:	fdeadee3          	ble	t5,s5,80006874 <i_6440>

000000008000689c <i_6449>:
    8000689c:	10412083          	lw	ra,260(sp)

00000000800068a0 <i_6450>:
    800068a0:	02355063          	ble	gp,a0,800068c0 <i_6458>

00000000800068a4 <i_6451>:
    800068a4:	02190933          	mul	s2,s2,ra

00000000800068a8 <i_6452>:
    800068a8:	08816b83          	lwu	s7,136(sp)

00000000800068ac <i_6453>:
    800068ac:	f6010183          	lb	gp,-160(sp)

00000000800068b0 <i_6454>:
    800068b0:	734bab93          	slti	s7,s7,1844

00000000800068b4 <i_6455>:
    800068b4:	00000013          	nop

00000000800068b8 <i_6456>:
    800068b8:	12813883          	ld	a7,296(sp)

00000000800068bc <i_6457>:
    800068bc:	f8812183          	lw	gp,-120(sp)

00000000800068c0 <i_6458>:
    800068c0:	15012023          	sw	a6,320(sp)

00000000800068c4 <i_6459>:
    800068c4:	07c15703          	lhu	a4,124(sp)

00000000800068c8 <i_6460>:
    800068c8:	7b500f13          	li	t5,1973

00000000800068cc <i_6461>:
    800068cc:	7b900c13          	li	s8,1977

00000000800068d0 <i_6462>:
    800068d0:	0f113023          	sd	a7,224(sp)

00000000800068d4 <i_6463>:
    800068d4:	ea08841b          	addiw	s0,a7,-352

00000000800068d8 <i_6464>:
    800068d8:	001f0f13          	addi	t5,t5,1
    800068dc:	ffec7ae3          	bleu	t5,s8,800068d0 <i_6462>

00000000800068e0 <i_6465>:
    800068e0:	00700f13          	li	t5,7

00000000800068e4 <i_6466>:
    800068e4:	01e7173b          	sllw	a4,a4,t5

00000000800068e8 <i_6467>:
    800068e8:	7b600913          	li	s2,1974

00000000800068ec <i_6468>:
    800068ec:	7c700e13          	li	t3,1991

00000000800068f0 <i_6469>:
    800068f0:	3986ba93          	sltiu	s5,a3,920

00000000800068f4 <i_6470>:
    800068f4:	40275f13          	srai	t5,a4,0x2

00000000800068f8 <i_6471>:
    800068f8:	022f18b3          	mulh	a7,t5,sp

00000000800068fc <i_6472>:
    800068fc:	f6e10f23          	sb	a4,-130(sp)

0000000080006900 <i_6473>:
    80006900:	02ef0cb3          	mul	s9,t5,a4

0000000080006904 <i_6474>:
    80006904:	00000013          	nop

0000000080006908 <i_6475>:
    80006908:	41e7063b          	subw	a2,a4,t5

000000008000690c <i_6476>:
    8000690c:	02c71733          	mulh	a4,a4,a2

0000000080006910 <i_6477>:
    80006910:	02d60733          	mul	a4,a2,a3

0000000080006914 <i_6478>:
    80006914:	e6e13c23          	sd	a4,-392(sp)

0000000080006918 <i_6479>:
    80006918:	00000013          	nop

000000008000691c <i_6480>:
    8000691c:	00190913          	addi	s2,s2,1
    80006920:	fd2e78e3          	bleu	s2,t3,800068f0 <i_6469>

0000000080006924 <i_6481>:
    80006924:	eee13423          	sd	a4,-280(sp)

0000000080006928 <i_6482>:
    80006928:	40365593          	srai	a1,a2,0x3

000000008000692c <i_6483>:
    8000692c:	f9914183          	lbu	gp,-103(sp)

0000000080006930 <i_6484>:
    80006930:	01175c63          	ble	a7,a4,80006948 <i_6490>

0000000080006934 <i_6485>:
    80006934:	f3714503          	lbu	a0,-201(sp)

0000000080006938 <i_6486>:
    80006938:	015dce63          	blt	s11,s5,80006954 <i_6493>

000000008000693c <i_6487>:
    8000693c:	00ef4463          	blt	t5,a4,80006944 <i_6489>

0000000080006940 <i_6488>:
    80006940:	00b59e63          	bne	a1,a1,8000695c <i_6495>

0000000080006944 <i_6489>:
    80006944:	00a74a63          	blt	a4,a0,80006958 <i_6494>

0000000080006948 <i_6490>:
    80006948:	0b010b03          	lb	s6,176(sp)

000000008000694c <i_6491>:
    8000694c:	e5f14083          	lbu	ra,-417(sp)

0000000080006950 <i_6492>:
    80006950:	0f0102a3          	sb	a6,229(sp)

0000000080006954 <i_6493>:
    80006954:	4030873b          	subw	a4,ra,gp

0000000080006958 <i_6494>:
    80006958:	00c00213          	li	tp,12

000000008000695c <i_6495>:
    8000695c:	00475d33          	srl	s10,a4,tp

0000000080006960 <i_6496>:
    80006960:	02e70263          	beq	a4,a4,80006984 <i_6505>

0000000080006964 <i_6497>:
    80006964:	001f4a63          	blt	t5,ra,80006978 <i_6502>

0000000080006968 <i_6498>:
    80006968:	01013703          	ld	a4,16(sp)

000000008000696c <i_6499>:
    8000696c:	02e23d33          	mulhu	s10,tp,a4

0000000080006970 <i_6500>:
    80006970:	03a26463          	bltu	tp,s10,80006998 <i_6510>

0000000080006974 <i_6501>:
    80006974:	00500513          	li	a0,5

0000000080006978 <i_6502>:
    80006978:	00a810bb          	sllw	ra,a6,a0

000000008000697c <i_6503>:
    8000697c:	f7b13023          	sd	s11,-160(sp)

0000000080006980 <i_6504>:
    80006980:	0040dc63          	ble	tp,ra,80006998 <i_6510>

0000000080006984 <i_6505>:
    80006984:	00e0d463          	ble	a4,ra,8000698c <i_6507>

0000000080006988 <i_6506>:
    80006988:	0227653b          	remw	a0,a4,sp

000000008000698c <i_6507>:
    8000698c:	f6610203          	lb	tp,-154(sp)

0000000080006990 <i_6508>:
    80006990:	00e76863          	bltu	a4,a4,800069a0 <i_6512>

0000000080006994 <i_6509>:
    80006994:	e6414f03          	lbu	t5,-412(sp)

0000000080006998 <i_6510>:
    80006998:	e6c12503          	lw	a0,-404(sp)

000000008000699c <i_6511>:
    8000699c:	01e20663          	beq	tp,t5,800069a8 <i_6514>

00000000800069a0 <i_6512>:
    800069a0:	02813503          	ld	a0,40(sp)

00000000800069a4 <i_6513>:
    800069a4:	10c16203          	lwu	tp,268(sp)

00000000800069a8 <i_6514>:
    800069a8:	fa6103a3          	sb	t1,-89(sp)

00000000800069ac <i_6515>:
    800069ac:	40225413          	srai	s0,tp,0x2

00000000800069b0 <i_6516>:
    800069b0:	008475b3          	and	a1,s0,s0

00000000800069b4 <i_6517>:
    800069b4:	e7d11b23          	sh	t4,-394(sp)

00000000800069b8 <i_6518>:
    800069b8:	f4016203          	lwu	tp,-192(sp)

00000000800069bc <i_6519>:
    800069bc:	cda24413          	xori	s0,tp,-806

00000000800069c0 <i_6520>:
    800069c0:	11c12703          	lw	a4,284(sp)

00000000800069c4 <i_6521>:
    800069c4:	02688333          	mul	t1,a7,t1

00000000800069c8 <i_6522>:
    800069c8:	0260ffb3          	remu	t6,ra,t1

00000000800069cc <i_6523>:
    800069cc:	fc611023          	sh	t1,-64(sp)

00000000800069d0 <i_6524>:
    800069d0:	01f46463          	bltu	s0,t6,800069d8 <i_6526>

00000000800069d4 <i_6525>:
    800069d4:	00d38733          	add	a4,t2,a3

00000000800069d8 <i_6526>:
    800069d8:	f6416783          	lwu	a5,-156(sp)

00000000800069dc <i_6527>:
    800069dc:	00e09463          	bne	ra,a4,800069e4 <i_6529>

00000000800069e0 <i_6528>:
    800069e0:	00e44a63          	blt	s0,a4,800069f4 <i_6533>

00000000800069e4 <i_6529>:
    800069e4:	0046c6b3          	xor	a3,a3,tp

00000000800069e8 <i_6530>:
    800069e8:	ece13823          	sd	a4,-304(sp)

00000000800069ec <i_6531>:
    800069ec:	01c12183          	lw	gp,28(sp)

00000000800069f0 <i_6532>:
    800069f0:	17c12403          	lw	s0,380(sp)

00000000800069f4 <i_6533>:
    800069f4:	1d611923          	sh	s6,466(sp)

00000000800069f8 <i_6534>:
    800069f8:	02b4673b          	remw	a4,s0,a1

00000000800069fc <i_6535>:
    800069fc:	75f00e13          	li	t3,1887

0000000080006a00 <i_6536>:
    80006a00:	76f00693          	li	a3,1903

0000000080006a04 <i_6537>:
    80006a04:	e4e11283          	lh	t0,-434(sp)

0000000080006a08 <i_6538>:
    80006a08:	ea511923          	sh	t0,-334(sp)

0000000080006a0c <i_6539>:
    80006a0c:	75a00a93          	li	s5,1882

0000000080006a10 <i_6540>:
    80006a10:	75e00213          	li	tp,1886

0000000080006a14 <i_6541>:
    80006a14:	009e0bb3          	add	s7,t3,s1

0000000080006a18 <i_6542>:
    80006a18:	3671c2b7          	lui	t0,0x3671c

0000000080006a1c <i_6543>:
    80006a1c:	fea11483          	lh	s1,-22(sp)

0000000080006a20 <i_6544>:
    80006a20:	001a8a93          	addi	s5,s5,1
    80006a24:	ff5218e3          	bne	tp,s5,80006a14 <i_6541>

0000000080006a28 <i_6545>:
    80006a28:	0092c933          	xor	s2,t0,s1

0000000080006a2c <i_6546>:
    80006a2c:	03228463          	beq	t0,s2,80006a54 <i_6555>

0000000080006a30 <i_6547>:
    80006a30:	01013983          	ld	s3,16(sp)

0000000080006a34 <i_6548>:
    80006a34:	fb211323          	sh	s2,-90(sp)

0000000080006a38 <i_6549>:
    80006a38:	f1416703          	lwu	a4,-236(sp)

0000000080006a3c <i_6550>:
    80006a3c:	014bea63          	bltu	s7,s4,80006a50 <i_6554>

0000000080006a40 <i_6551>:
    80006a40:	001e0e13          	addi	t3,t3,1 # ffffffffefa4a001 <_end+0xffffffff6fa39bed>
    80006a44:	fcde60e3          	bltu	t3,a3,80006a04 <i_6537>

0000000080006a48 <i_6552>:
    80006a48:	00e4c663          	blt	s1,a4,80006a54 <i_6555>

0000000080006a4c <i_6553>:
    80006a4c:	01c70a63          	beq	a4,t3,80006a60 <i_6558>

0000000080006a50 <i_6554>:
    80006a50:	e7210623          	sb	s2,-404(sp)

0000000080006a54 <i_6555>:
    80006a54:	dd44b713          	sltiu	a4,s1,-556

0000000080006a58 <i_6556>:
    80006a58:	02e70063          	beq	a4,a4,80006a78 <i_6564>

0000000080006a5c <i_6557>:
    80006a5c:	00e9f263          	bleu	a4,s3,80006a60 <i_6558>

0000000080006a60 <i_6558>:
    80006a60:	f7c16583          	lwu	a1,-132(sp)

0000000080006a64 <i_6559>:
    80006a64:	fd415d03          	lhu	s10,-44(sp)

0000000080006a68 <i_6560>:
    80006a68:	033921b3          	mulhsu	gp,s2,s3

0000000080006a6c <i_6561>:
    80006a6c:	01b502b3          	add	t0,a0,s11

0000000080006a70 <i_6562>:
    80006a70:	0d2105a3          	sb	s2,203(sp)

0000000080006a74 <i_6563>:
    80006a74:	1b010a83          	lb	s5,432(sp)

0000000080006a78 <i_6564>:
    80006a78:	03a11f83          	lh	t6,58(sp)

0000000080006a7c <i_6565>:
    80006a7c:	03e9793b          	remuw	s2,s2,t5

0000000080006a80 <i_6566>:
    80006a80:	012f8ab3          	add	s5,t6,s2

0000000080006a84 <i_6567>:
    80006a84:	0bf10f23          	sb	t6,190(sp)

0000000080006a88 <i_6568>:
    80006a88:	0c314f83          	lbu	t6,195(sp)

0000000080006a8c <i_6569>:
    80006a8c:	03f94abb          	divw	s5,s2,t6

0000000080006a90 <i_6570>:
    80006a90:	e5c12183          	lw	gp,-420(sp)

0000000080006a94 <i_6571>:
    80006a94:	01f90463          	beq	s2,t6,80006a9c <i_6573>

0000000080006a98 <i_6572>:
    80006a98:	e7512c23          	sw	s5,-392(sp)

0000000080006a9c <i_6573>:
    80006a9c:	ffb14e03          	lbu	t3,-5(sp)

0000000080006aa0 <i_6574>:
    80006aa0:	02411e03          	lh	t3,36(sp)

0000000080006aa4 <i_6575>:
    80006aa4:	8bf00f93          	li	t6,-1857

0000000080006aa8 <i_6576>:
    80006aa8:	8d200c13          	li	s8,-1838

0000000080006aac <i_6577>:
    80006aac:	00000013          	nop

0000000080006ab0 <i_6578>:
    80006ab0:	fb013183          	ld	gp,-80(sp)

0000000080006ab4 <i_6579>:
    80006ab4:	001f8f93          	addi	t6,t6,1
    80006ab8:	fffc5ae3          	ble	t6,s8,80006aac <i_6577>

0000000080006abc <i_6580>:
    80006abc:	03cfdfbb          	divuw	t6,t6,t3

0000000080006ac0 <i_6581>:
    80006ac0:	03f1c463          	blt	gp,t6,80006ae8 <i_6591>

0000000080006ac4 <i_6582>:
    80006ac4:	0fe11483          	lh	s1,254(sp)

0000000080006ac8 <i_6583>:
    80006ac8:	e3e11223          	sh	t5,-476(sp)

0000000080006acc <i_6584>:
    80006acc:	06813683          	ld	a3,104(sp)

0000000080006ad0 <i_6585>:
    80006ad0:	029fe4b3          	rem	s1,t6,s1

0000000080006ad4 <i_6586>:
    80006ad4:	1fdb71b7          	lui	gp,0x1fdb7

0000000080006ad8 <i_6587>:
    80006ad8:	01cf8c63          	beq	t6,t3,80006af0 <i_6593>

0000000080006adc <i_6588>:
    80006adc:	00d6b933          	sltu	s2,a3,a3

0000000080006ae0 <i_6589>:
    80006ae0:	012f9263          	bne	t6,s2,80006ae4 <i_6590>

0000000080006ae4 <i_6590>:
    80006ae4:	02d1d463          	ble	a3,gp,80006b0c <i_6600>

0000000080006ae8 <i_6591>:
    80006ae8:	00de0eb3          	add	t4,t3,a3

0000000080006aec <i_6592>:
    80006aec:	00700193          	li	gp,7

0000000080006af0 <i_6593>:
    80006af0:	0039d83b          	srlw	a6,s3,gp

0000000080006af4 <i_6594>:
    80006af4:	00348863          	beq	s1,gp,80006b04 <i_6598>

0000000080006af8 <i_6595>:
    80006af8:	01096a63          	bltu	s2,a6,80006b0c <i_6600>

0000000080006afc <i_6596>:
    80006afc:	172106a3          	sb	s2,365(sp)

0000000080006b00 <i_6597>:
    80006b00:	10c16803          	lwu	a6,268(sp)

0000000080006b04 <i_6598>:
    80006b04:	00815803          	lhu	a6,8(sp)

0000000080006b08 <i_6599>:
    80006b08:	004d5913          	srli	s2,s10,0x4

0000000080006b0c <i_6600>:
    80006b0c:	02f917b3          	mulh	a5,s2,a5

0000000080006b10 <i_6601>:
    80006b10:	98f7e393          	ori	t2,a5,-1649

0000000080006b14 <i_6602>:
    80006b14:	13610783          	lb	a5,310(sp)

0000000080006b18 <i_6603>:
    80006b18:	0073f863          	bleu	t2,t2,80006b28 <i_6607>

0000000080006b1c <i_6604>:
    80006b1c:	e8912e23          	sw	s1,-356(sp)

0000000080006b20 <i_6605>:
    80006b20:	00f7fa63          	bleu	a5,a5,80006b34 <i_6610>

0000000080006b24 <i_6606>:
    80006b24:	02c3f433          	remu	s0,t2,a2

0000000080006b28 <i_6607>:
    80006b28:	02842633          	mulhsu	a2,s0,s0

0000000080006b2c <i_6608>:
    80006b2c:	01365863          	ble	s3,a2,80006b3c <i_6612>

0000000080006b30 <i_6609>:
    80006b30:	00c7d863          	ble	a2,a5,80006b40 <i_6613>

0000000080006b34 <i_6610>:
    80006b34:	008989b3          	add	s3,s3,s0

0000000080006b38 <i_6611>:
    80006b38:	726e3617          	auipc	a2,0x726e3

0000000080006b3c <i_6612>:
    80006b3c:	2c8e0d37          	lui	s10,0x2c8e0

0000000080006b40 <i_6613>:
    80006b40:	18f14c03          	lbu	s8,399(sp)

0000000080006b44 <i_6614>:
    80006b44:	eb012a83          	lw	s5,-336(sp)

0000000080006b48 <i_6615>:
    80006b48:	02c13823          	sd	a2,48(sp)

0000000080006b4c <i_6616>:
    80006b4c:	fe016703          	lwu	a4,-32(sp)

0000000080006b50 <i_6617>:
    80006b50:	00700d13          	li	s10,7

0000000080006b54 <i_6618>:
    80006b54:	01a9963b          	sllw	a2,s3,s10

0000000080006b58 <i_6619>:
    80006b58:	0a013a03          	ld	s4,160(sp)

0000000080006b5c <i_6620>:
    80006b5c:	02cd7633          	remu	a2,s10,a2

0000000080006b60 <i_6621>:
    80006b60:	00cbda63          	ble	a2,s7,80006b74 <i_6626>

0000000080006b64 <i_6622>:
    80006b64:	0346083b          	mulw	a6,a2,s4

0000000080006b68 <i_6623>:
    80006b68:	0ae12023          	sw	a4,160(sp)

0000000080006b6c <i_6624>:
    80006b6c:	02c77463          	bleu	a2,a4,80006b94 <i_6634>

0000000080006b70 <i_6625>:
    80006b70:	03464063          	blt	a2,s4,80006b90 <i_6633>

0000000080006b74 <i_6626>:
    80006b74:	f9a15403          	lhu	s0,-102(sp)

0000000080006b78 <i_6627>:
    80006b78:	00013a03          	ld	s4,0(sp)

0000000080006b7c <i_6628>:
    80006b7c:	01387863          	bleu	s3,a6,80006b8c <i_6632>

0000000080006b80 <i_6629>:
    80006b80:	11c16903          	lwu	s2,284(sp)

0000000080006b84 <i_6630>:
    80006b84:	035906b3          	mul	a3,s2,s5

0000000080006b88 <i_6631>:
    80006b88:	03414a03          	lbu	s4,52(sp)

0000000080006b8c <i_6632>:
    80006b8c:	e9813183          	ld	gp,-360(sp)

0000000080006b90 <i_6633>:
    80006b90:	0f014c03          	lbu	s8,240(sp)

0000000080006b94 <i_6634>:
    80006b94:	01700a93          	li	s5,23

0000000080006b98 <i_6635>:
    80006b98:	01519abb          	sllw	s5,gp,s5

0000000080006b9c <i_6636>:
    80006b9c:	89100693          	li	a3,-1903

0000000080006ba0 <i_6637>:
    80006ba0:	8a300293          	li	t0,-1885

0000000080006ba4 <i_6638>:
    80006ba4:	fbc15183          	lhu	gp,-68(sp)

0000000080006ba8 <i_6639>:
    80006ba8:	3105d337          	lui	t1,0x3105d

0000000080006bac <i_6640>:
    80006bac:	00000013          	nop

0000000080006bb0 <i_6641>:
    80006bb0:	03536cbb          	remw	s9,t1,s5

0000000080006bb4 <i_6642>:
    80006bb4:	07812023          	sw	s8,96(sp)

0000000080006bb8 <i_6643>:
    80006bb8:	026c9a33          	mulh	s4,s9,t1

0000000080006bbc <i_6644>:
    80006bbc:	e5016383          	lwu	t2,-432(sp)

0000000080006bc0 <i_6645>:
    80006bc0:	fd511523          	sh	s5,-54(sp)

0000000080006bc4 <i_6646>:
    80006bc4:	ff913023          	sd	s9,-32(sp)

0000000080006bc8 <i_6647>:
    80006bc8:	00000013          	nop

0000000080006bcc <i_6648>:
    80006bcc:	1b63ba93          	sltiu	s5,t2,438

0000000080006bd0 <i_6649>:
    80006bd0:	00168693          	addi	a3,a3,1
    80006bd4:	fc56c8e3          	blt	a3,t0,80006ba4 <i_6638>

0000000080006bd8 <i_6650>:
    80006bd8:	0068c663          	blt	a7,t1,80006be4 <i_6653>

0000000080006bdc <i_6651>:
    80006bdc:	fe210503          	lb	a0,-30(sp)

0000000080006be0 <i_6652>:
    80006be0:	1db12423          	sw	s11,456(sp)

0000000080006be4 <i_6653>:
    80006be4:	03513823          	sd	s5,48(sp)

0000000080006be8 <i_6654>:
    80006be8:	1b512a23          	sw	s5,436(sp)

0000000080006bec <i_6655>:
    80006bec:	0a612823          	sw	t1,176(sp)

0000000080006bf0 <i_6656>:
    80006bf0:	003c61b3          	or	gp,s8,gp

0000000080006bf4 <i_6657>:
    80006bf4:	18312423          	sw	gp,392(sp)

0000000080006bf8 <i_6658>:
    80006bf8:	00800513          	li	a0,8

0000000080006bfc <i_6659>:
    80006bfc:	00ac553b          	srlw	a0,s8,a0

0000000080006c00 <i_6660>:
    80006c00:	ee710f83          	lb	t6,-281(sp)

0000000080006c04 <i_6661>:
    80006c04:	0231d333          	divu	t1,gp,gp

0000000080006c08 <i_6662>:
    80006c08:	00a1ce63          	blt	gp,a0,80006c24 <i_6669>

0000000080006c0c <i_6663>:
    80006c0c:	fd411223          	sh	s4,-60(sp)

0000000080006c10 <i_6664>:
    80006c10:	00afd463          	ble	a0,t6,80006c18 <i_6666>

0000000080006c14 <i_6665>:
    80006c14:	a8132493          	slti	s1,t1,-1407

0000000080006c18 <i_6666>:
    80006c18:	15d14e03          	lbu	t3,349(sp)

0000000080006c1c <i_6667>:
    80006c1c:	1b016383          	lwu	t2,432(sp)

0000000080006c20 <i_6668>:
    80006c20:	007e7e63          	bleu	t2,t3,80006c3c <i_6675>

0000000080006c24 <i_6669>:
    80006c24:	efb3c393          	xori	t2,t2,-261

0000000080006c28 <i_6670>:
    80006c28:	eb016583          	lwu	a1,-336(sp)

0000000080006c2c <i_6671>:
    80006c2c:	401adc13          	srai	s8,s5,0x1

0000000080006c30 <i_6672>:
    80006c30:	13412c83          	lw	s9,308(sp)

0000000080006c34 <i_6673>:
    80006c34:	e3912c23          	sw	s9,-456(sp)

0000000080006c38 <i_6674>:
    80006c38:	019c7cb3          	and	s9,s8,s9

0000000080006c3c <i_6675>:
    80006c3c:	e8714c03          	lbu	s8,-377(sp)

0000000080006c40 <i_6676>:
    80006c40:	13913823          	sd	s9,304(sp)

0000000080006c44 <i_6677>:
    80006c44:	fac16803          	lwu	a6,-84(sp)

0000000080006c48 <i_6678>:
    80006c48:	07911523          	sh	s9,106(sp)

0000000080006c4c <i_6679>:
    80006c4c:	e3913c23          	sd	s9,-456(sp)

0000000080006c50 <i_6680>:
    80006c50:	01087a63          	bleu	a6,a6,80006c64 <i_6685>

0000000080006c54 <i_6681>:
    80006c54:	030924b3          	mulhsu	s1,s2,a6

0000000080006c58 <i_6682>:
    80006c58:	00000013          	nop

0000000080006c5c <i_6683>:
    80006c5c:	00b00193          	li	gp,11

0000000080006c60 <i_6684>:
    80006c60:	40385eb3          	sra	t4,a6,gp

0000000080006c64 <i_6685>:
    80006c64:	01600f93          	li	t6,22

0000000080006c68 <i_6686>:
    80006c68:	01f95ebb          	srlw	t4,s2,t6

0000000080006c6c <i_6687>:
    80006c6c:	73600913          	li	s2,1846

0000000080006c70 <i_6688>:
    80006c70:	74400813          	li	a6,1860

0000000080006c74 <i_6689>:
    80006c74:	fb011723          	sh	a6,-82(sp)

0000000080006c78 <i_6690>:
    80006c78:	07010e23          	sb	a6,124(sp)

0000000080006c7c <i_6691>:
    80006c7c:	01ffa1b3          	slt	gp,t6,t6

0000000080006c80 <i_6692>:
    80006c80:	52ff8f9b          	addiw	t6,t6,1327

0000000080006c84 <i_6693>:
    80006c84:	0e813b03          	ld	s6,232(sp)

0000000080006c88 <i_6694>:
    80006c88:	00190913          	addi	s2,s2,1
    80006c8c:	ff2874e3          	bleu	s2,a6,80006c74 <i_6689>

0000000080006c90 <i_6695>:
    80006c90:	13813f83          	ld	t6,312(sp)

0000000080006c94 <i_6696>:
    80006c94:	bf5a4a13          	xori	s4,s4,-1035

0000000080006c98 <i_6697>:
    80006c98:	eac15a83          	lhu	s5,-340(sp)

0000000080006c9c <i_6698>:
    80006c9c:	015ff463          	bleu	s5,t6,80006ca4 <i_6700>

0000000080006ca0 <i_6699>:
    80006ca0:	0230eab3          	rem	s5,ra,gp

0000000080006ca4 <i_6700>:
    80006ca4:	0231c463          	blt	gp,gp,80006ccc <i_6710>

0000000080006ca8 <i_6701>:
    80006ca8:	0231c1bb          	divw	gp,gp,gp

0000000080006cac <i_6702>:
    80006cac:	5021a297          	auipc	t0,0x5021a

0000000080006cb0 <i_6703>:
    80006cb0:	05f10223          	sb	t6,68(sp)

0000000080006cb4 <i_6704>:
    80006cb4:	e3c16283          	lwu	t0,-452(sp)

0000000080006cb8 <i_6705>:
    80006cb8:	efc12f83          	lw	t6,-260(sp)

0000000080006cbc <i_6706>:
    80006cbc:	13714f83          	lbu	t6,311(sp)

0000000080006cc0 <i_6707>:
    80006cc0:	ed813983          	ld	s3,-296(sp)

0000000080006cc4 <i_6708>:
    80006cc4:	09016f83          	lwu	t6,144(sp)

0000000080006cc8 <i_6709>:
    80006cc8:	413f8fb3          	sub	t6,t6,s3

0000000080006ccc <i_6710>:
    80006ccc:	01f9b9b3          	sltu	s3,s3,t6

0000000080006cd0 <i_6711>:
    80006cd0:	0dd10083          	lb	ra,221(sp)

0000000080006cd4 <i_6712>:
    80006cd4:	013f8263          	beq	t6,s3,80006cd8 <i_6713>

0000000080006cd8 <i_6713>:
    80006cd8:	66c0e793          	ori	a5,ra,1644

0000000080006cdc <i_6714>:
    80006cdc:	e7013203          	ld	tp,-400(sp)

0000000080006ce0 <i_6715>:
    80006ce0:	0249c463          	blt	s3,tp,80006d08 <i_6725>

0000000080006ce4 <i_6716>:
    80006ce4:	15c14083          	lbu	ra,348(sp)

0000000080006ce8 <i_6717>:
    80006ce8:	02120b3b          	mulw	s6,tp,ra

0000000080006cec <i_6718>:
    80006cec:	e3812603          	lw	a2,-456(sp)

0000000080006cf0 <i_6719>:
    80006cf0:	ecf10923          	sb	a5,-302(sp)

0000000080006cf4 <i_6720>:
    80006cf4:	00f86a33          	or	s4,a6,a5

0000000080006cf8 <i_6721>:
    80006cf8:	f8012783          	lw	a5,-128(sp)

0000000080006cfc <i_6722>:
    80006cfc:	b7047513          	andi	a0,s0,-1168

0000000080006d00 <i_6723>:
    80006d00:	f1c16403          	lwu	s0,-228(sp)

0000000080006d04 <i_6724>:
    80006d04:	0023d39b          	srliw	t2,t2,0x2

0000000080006d08 <i_6725>:
    80006d08:	fd213c23          	sd	s2,-40(sp)

0000000080006d0c <i_6726>:
    80006d0c:	007a24b3          	slt	s1,s4,t2

0000000080006d10 <i_6727>:
    80006d10:	18710223          	sb	t2,388(sp)

0000000080006d14 <i_6728>:
    80006d14:	4043da13          	srai	s4,t2,0x4

0000000080006d18 <i_6729>:
    80006d18:	1c710523          	sb	t2,458(sp)

0000000080006d1c <i_6730>:
    80006d1c:	0093fe63          	bleu	s1,t2,80006d38 <i_6737>

0000000080006d20 <i_6731>:
    80006d20:	12711d23          	sh	t2,314(sp)

0000000080006d24 <i_6732>:
    80006d24:	02913823          	sd	s1,48(sp)

0000000080006d28 <i_6733>:
    80006d28:	013a0463          	beq	s4,s3,80006d30 <i_6735>

0000000080006d2c <i_6734>:
    80006d2c:	027a79b3          	remu	s3,s4,t2

0000000080006d30 <i_6735>:
    80006d30:	eae14a03          	lbu	s4,-338(sp)

0000000080006d34 <i_6736>:
    80006d34:	06013983          	ld	s3,96(sp)

0000000080006d38 <i_6737>:
    80006d38:	0c39f693          	andi	a3,s3,195

0000000080006d3c <i_6738>:
    80006d3c:	0d312023          	sw	s3,192(sp)

0000000080006d40 <i_6739>:
    80006d40:	01938233          	add	tp,t2,s9

0000000080006d44 <i_6740>:
    80006d44:	79100393          	li	t2,1937

0000000080006d48 <i_6741>:
    80006d48:	79b00c93          	li	s9,1947

0000000080006d4c <i_6742>:
    80006d4c:	e7816a83          	lwu	s5,-392(sp)

0000000080006d50 <i_6743>:
    80006d50:	f1412b03          	lw	s6,-236(sp)

0000000080006d54 <i_6744>:
    80006d54:	035b5663          	ble	s5,s6,80006d80 <i_6754>

0000000080006d58 <i_6745>:
    80006d58:	0da15a83          	lhu	s5,218(sp)

0000000080006d5c <i_6746>:
    80006d5c:	00000013          	nop

0000000080006d60 <i_6747>:
    80006d60:	1b513823          	sd	s5,432(sp)

0000000080006d64 <i_6748>:
    80006d64:	00138393          	addi	t2,t2,1
    80006d68:	ff93e2e3          	bltu	t2,s9,80006d4c <i_6742>

0000000080006d6c <i_6749>:
    80006d6c:	00000013          	nop

0000000080006d70 <i_6750>:
    80006d70:	e5c10b03          	lb	s6,-420(sp)

0000000080006d74 <i_6751>:
    80006d74:	ff611523          	sh	s6,-22(sp)

0000000080006d78 <i_6752>:
    80006d78:	48fb099b          	addiw	s3,s6,1167

0000000080006d7c <i_6753>:
    80006d7c:	f3511b23          	sh	s5,-202(sp)

0000000080006d80 <i_6754>:
    80006d80:	036ac263          	blt	s5,s6,80006da4 <i_6763>

0000000080006d84 <i_6755>:
    80006d84:	013b44b3          	xor	s1,s6,s3

0000000080006d88 <i_6756>:
    80006d88:	0154c263          	blt	s1,s5,80006d8c <i_6757>

0000000080006d8c <i_6757>:
    80006d8c:	1a212e23          	sw	sp,444(sp)

0000000080006d90 <i_6758>:
    80006d90:	00700713          	li	a4,7

0000000080006d94 <i_6759>:
    80006d94:	00ea9abb          	sllw	s5,s5,a4

0000000080006d98 <i_6760>:
    80006d98:	0d010583          	lb	a1,208(sp)

0000000080006d9c <i_6761>:
    80006d9c:	029e9fb3          	mulh	t6,t4,s1

0000000080006da0 <i_6762>:
    80006da0:	01014483          	lbu	s1,16(sp)

0000000080006da4 <i_6763>:
    80006da4:	00000013          	nop

0000000080006da8 <i_6764>:
    80006da8:	33ba3493          	sltiu	s1,s4,827

0000000080006dac <i_6765>:
    80006dac:	73900a93          	li	s5,1849

0000000080006db0 <i_6766>:
    80006db0:	74900b13          	li	s6,1865

0000000080006db4 <i_6767>:
    80006db4:	19c13023          	sd	t3,384(sp)

0000000080006db8 <i_6768>:
    80006db8:	001a8a93          	addi	s5,s5,1
    80006dbc:	ff5b5ce3          	ble	s5,s6,80006db4 <i_6767>

0000000080006dc0 <i_6769>:
    80006dc0:	f3013683          	ld	a3,-208(sp)

0000000080006dc4 <i_6770>:
    80006dc4:	0294bf33          	mulhu	t5,s1,s1

0000000080006dc8 <i_6771>:
    80006dc8:	1e411483          	lh	s1,484(sp)

0000000080006dcc <i_6772>:
    80006dcc:	030164b3          	rem	s1,sp,a6

0000000080006dd0 <i_6773>:
    80006dd0:	00000013          	nop

0000000080006dd4 <i_6774>:
    80006dd4:	84600813          	li	a6,-1978

0000000080006dd8 <i_6775>:
    80006dd8:	84800713          	li	a4,-1976

0000000080006ddc <i_6776>:
    80006ddc:	fb815483          	lhu	s1,-72(sp)

0000000080006de0 <i_6777>:
    80006de0:	53f940b7          	lui	ra,0x53f94

0000000080006de4 <i_6778>:
    80006de4:	026de33b          	remw	t1,s11,t1

0000000080006de8 <i_6779>:
    80006de8:	00000013          	nop

0000000080006dec <i_6780>:
    80006dec:	00a00693          	li	a3,10

0000000080006df0 <i_6781>:
    80006df0:	40d5d5bb          	sraw	a1,a1,a3

0000000080006df4 <i_6782>:
    80006df4:	00900293          	li	t0,9

0000000080006df8 <i_6783>:
    80006df8:	0056dfbb          	srlw	t6,a3,t0

0000000080006dfc <i_6784>:
    80006dfc:	00180813          	addi	a6,a6,1
    80006e00:	fd077ee3          	bleu	a6,a4,80006ddc <i_6776>

0000000080006e04 <i_6785>:
    80006e04:	09c15203          	lhu	tp,156(sp)

0000000080006e08 <i_6786>:
    80006e08:	01900a13          	li	s4,25

0000000080006e0c <i_6787>:
    80006e0c:	0148573b          	srlw	a4,a6,s4

0000000080006e10 <i_6788>:
    80006e10:	ea416703          	lwu	a4,-348(sp)

0000000080006e14 <i_6789>:
    80006e14:	f7812183          	lw	gp,-136(sp)

0000000080006e18 <i_6790>:
    80006e18:	1af10883          	lb	a7,431(sp)

0000000080006e1c <i_6791>:
    80006e1c:	14611e23          	sh	t1,348(sp)

0000000080006e20 <i_6792>:
    80006e20:	022f8063          	beq	t6,sp,80006e40 <i_6800>

0000000080006e24 <i_6793>:
    80006e24:	03700c13          	li	s8,55

0000000080006e28 <i_6794>:
    80006e28:	0181d1b3          	srl	gp,gp,s8

0000000080006e2c <i_6795>:
    80006e2c:	ea816203          	lwu	tp,-344(sp)

0000000080006e30 <i_6796>:
    80006e30:	12211983          	lh	s3,290(sp)

0000000080006e34 <i_6797>:
    80006e34:	004c6263          	bltu	s8,tp,80006e38 <i_6798>

0000000080006e38 <i_6798>:
    80006e38:	024e7833          	remu	a6,t3,tp

0000000080006e3c <i_6799>:
    80006e3c:	0309d23b          	divuw	tp,s3,a6

0000000080006e40 <i_6800>:
    80006e40:	04615403          	lhu	s0,70(sp)

0000000080006e44 <i_6801>:
    80006e44:	e6914983          	lbu	s3,-407(sp)

0000000080006e48 <i_6802>:
    80006e48:	f7214f83          	lbu	t6,-142(sp)

0000000080006e4c <i_6803>:
    80006e4c:	03f24cb3          	div	s9,tp,t6

0000000080006e50 <i_6804>:
    80006e50:	e5b14f83          	lbu	t6,-421(sp)

0000000080006e54 <i_6805>:
    80006e54:	00710c83          	lb	s9,7(sp)

0000000080006e58 <i_6806>:
    80006e58:	00000013          	nop

0000000080006e5c <i_6807>:
    80006e5c:	e2814d03          	lbu	s10,-472(sp)

0000000080006e60 <i_6808>:
    80006e60:	84f00413          	li	s0,-1969

0000000080006e64 <i_6809>:
    80006e64:	85200393          	li	t2,-1966

0000000080006e68 <i_6810>:
    80006e68:	f3812a83          	lw	s5,-200(sp)

0000000080006e6c <i_6811>:
    80006e6c:	00000013          	nop

0000000080006e70 <i_6812>:
    80006e70:	00140413          	addi	s0,s0,1 # ffffffff92418001 <_end+0xffffffff12407bed>
    80006e74:	fe83fae3          	bleu	s0,t2,80006e68 <i_6810>

0000000080006e78 <i_6813>:
    80006e78:	e7a12223          	sw	s10,-412(sp)

0000000080006e7c <i_6814>:
    80006e7c:	9cdd7313          	andi	t1,s10,-1587

0000000080006e80 <i_6815>:
    80006e80:	00730a63          	beq	t1,t2,80006e94 <i_6820>

0000000080006e84 <i_6816>:
    80006e84:	fba10823          	sb	s10,-80(sp)

0000000080006e88 <i_6817>:
    80006e88:	03f3e263          	bltu	t2,t6,80006eac <i_6826>

0000000080006e8c <i_6818>:
    80006e8c:	01513823          	sd	s5,16(sp)

0000000080006e90 <i_6819>:
    80006e90:	15ca8397          	auipc	t2,0x15ca8

0000000080006e94 <i_6820>:
    80006e94:	01538863          	beq	t2,s5,80006ea4 <i_6824>

0000000080006e98 <i_6821>:
    80006e98:	01300313          	li	t1,19

0000000080006e9c <i_6822>:
    80006e9c:	006c5cb3          	srl	s9,s8,t1

0000000080006ea0 <i_6823>:
    80006ea0:	0273d063          	ble	t2,t2,80006ec0 <i_6831>

0000000080006ea4 <i_6824>:
    80006ea4:	00b30cb3          	add	s9,t1,a1

0000000080006ea8 <i_6825>:
    80006ea8:	007aa3b3          	slt	t2,s5,t2

0000000080006eac <i_6826>:
    80006eac:	f9a108a3          	sb	s10,-111(sp)

0000000080006eb0 <i_6827>:
    80006eb0:	0073f663          	bleu	t2,t2,80006ebc <i_6830>

0000000080006eb4 <i_6828>:
    80006eb4:	cef3a493          	slti	s1,t2,-785

0000000080006eb8 <i_6829>:
    80006eb8:	f4810d23          	sb	s0,-166(sp)

0000000080006ebc <i_6830>:
    80006ebc:	008d1663          	bne	s10,s0,80006ec8 <i_6833>

0000000080006ec0 <i_6831>:
    80006ec0:	0a016a83          	lwu	s5,160(sp)

0000000080006ec4 <i_6832>:
    80006ec4:	027aebbb          	remw	s7,s5,t2

0000000080006ec8 <i_6833>:
    80006ec8:	e3a15803          	lhu	a6,-454(sp)

0000000080006ecc <i_6834>:
    80006ecc:	004a9d13          	slli	s10,s5,0x4

0000000080006ed0 <i_6835>:
    80006ed0:	f3a12e23          	sw	s10,-196(sp)

0000000080006ed4 <i_6836>:
    80006ed4:	1b512e23          	sw	s5,444(sp)

0000000080006ed8 <i_6837>:
    80006ed8:	32f48d13          	addi	s10,s1,815

0000000080006edc <i_6838>:
    80006edc:	035add3b          	divuw	s10,s5,s5

0000000080006ee0 <i_6839>:
    80006ee0:	6cce2a13          	slti	s4,t3,1740

0000000080006ee4 <i_6840>:
    80006ee4:	00200813          	li	a6,2

0000000080006ee8 <i_6841>:
    80006ee8:	0103d4bb          	srlw	s1,t2,a6

0000000080006eec <i_6842>:
    80006eec:	f8a15b03          	lhu	s6,-118(sp)

0000000080006ef0 <i_6843>:
    80006ef0:	10615183          	lhu	gp,262(sp)

0000000080006ef4 <i_6844>:
    80006ef4:	007383b3          	add	t2,t2,t2

0000000080006ef8 <i_6845>:
    80006ef8:	01541463          	bne	s0,s5,80006f00 <i_6847>

0000000080006efc <i_6846>:
    80006efc:	eee15503          	lhu	a0,-274(sp)

0000000080006f00 <i_6847>:
    80006f00:	fef10603          	lb	a2,-17(sp)

0000000080006f04 <i_6848>:
    80006f04:	f2c13823          	sd	a2,-208(sp)

0000000080006f08 <i_6849>:
    80006f08:	e4811d23          	sh	s0,-422(sp)

0000000080006f0c <i_6850>:
    80006f0c:	41a30e3b          	subw	t3,t1,s10

0000000080006f10 <i_6851>:
    80006f10:	027ae4b3          	rem	s1,s5,t2

0000000080006f14 <i_6852>:
    80006f14:	e4013d03          	ld	s10,-448(sp)

0000000080006f18 <i_6853>:
    80006f18:	0211abb3          	mulhsu	s7,gp,ra

0000000080006f1c <i_6854>:
    80006f1c:	00139e13          	slli	t3,t2,0x1

0000000080006f20 <i_6855>:
    80006f20:	413e09bb          	subw	s3,t3,s3

0000000080006f24 <i_6856>:
    80006f24:	f5013983          	ld	s3,-176(sp)

0000000080006f28 <i_6857>:
    80006f28:	01600e13          	li	t3,22

0000000080006f2c <i_6858>:
    80006f2c:	01cc5c3b          	srlw	s8,s8,t3

0000000080006f30 <i_6859>:
    80006f30:	038c4c33          	div	s8,s8,s8

0000000080006f34 <i_6860>:
    80006f34:	0031df1b          	srliw	t5,gp,0x3

0000000080006f38 <i_6861>:
    80006f38:	17311923          	sh	s3,370(sp)

0000000080006f3c <i_6862>:
    80006f3c:	11811723          	sh	s8,270(sp)

0000000080006f40 <i_6863>:
    80006f40:	19514c03          	lbu	s8,405(sp)

0000000080006f44 <i_6864>:
    80006f44:	87800e13          	li	t3,-1928

0000000080006f48 <i_6865>:
    80006f48:	87f00c93          	li	s9,-1921

0000000080006f4c <i_6866>:
    80006f4c:	03c599b3          	mulh	s3,a1,t3

0000000080006f50 <i_6867>:
    80006f50:	00000013          	nop

0000000080006f54 <i_6868>:
    80006f54:	0bc11f23          	sh	t3,190(sp)

0000000080006f58 <i_6869>:
    80006f58:	0f411f03          	lh	t5,244(sp)

0000000080006f5c <i_6870>:
    80006f5c:	001e0e13          	addi	t3,t3,1
    80006f60:	ffccd6e3          	ble	t3,s9,80006f4c <i_6866>

0000000080006f64 <i_6871>:
    80006f64:	001e591b          	srliw	s2,t3,0x1

0000000080006f68 <i_6872>:
    80006f68:	0b210f23          	sb	s2,190(sp)

0000000080006f6c <i_6873>:
    80006f6c:	07710203          	lb	tp,119(sp)

0000000080006f70 <i_6874>:
    80006f70:	06414a03          	lbu	s4,100(sp)

0000000080006f74 <i_6875>:
    80006f74:	0ac16983          	lwu	s3,172(sp)

0000000080006f78 <i_6876>:
    80006f78:	7a400193          	li	gp,1956

0000000080006f7c <i_6877>:
    80006f7c:	7b200e93          	li	t4,1970

0000000080006f80 <i_6878>:
    80006f80:	02c2463b          	divw	a2,tp,a2

0000000080006f84 <i_6879>:
    80006f84:	e3813903          	ld	s2,-456(sp)

0000000080006f88 <i_6880>:
    80006f88:	e4014983          	lbu	s3,-448(sp)

0000000080006f8c <i_6881>:
    80006f8c:	00000013          	nop

0000000080006f90 <i_6882>:
    80006f90:	033e9663          	bne	t4,s3,80006fbc <i_6892>

0000000080006f94 <i_6883>:
    80006f94:	033a1663          	bne	s4,s3,80006fc0 <i_6893>

0000000080006f98 <i_6884>:
    80006f98:	eb110a03          	lb	s4,-335(sp)

0000000080006f9c <i_6885>:
    80006f9c:	00118193          	addi	gp,gp,1 # 1fdb7001 <main-0x60248fff>
    80006fa0:	fe3ed0e3          	ble	gp,t4,80006f80 <i_6878>

0000000080006fa4 <i_6886>:
    80006fa4:	034a6063          	bltu	s4,s4,80006fc4 <i_6894>

0000000080006fa8 <i_6887>:
    80006fa8:	e2c13023          	sd	a2,-480(sp)

0000000080006fac <i_6888>:
    80006fac:	b2118613          	addi	a2,gp,-1247

0000000080006fb0 <i_6889>:
    80006fb0:	12d10503          	lb	a0,301(sp)

0000000080006fb4 <i_6890>:
    80006fb4:	0f013903          	ld	s2,240(sp)

0000000080006fb8 <i_6891>:
    80006fb8:	00000013          	nop

0000000080006fbc <i_6892>:
    80006fbc:	e8a13423          	sd	a0,-376(sp)

0000000080006fc0 <i_6893>:
    80006fc0:	00000013          	nop

0000000080006fc4 <i_6894>:
    80006fc4:	0d212623          	sw	s2,204(sp)

0000000080006fc8 <i_6895>:
    80006fc8:	e0c12e23          	sw	a2,-484(sp)

0000000080006fcc <i_6896>:
    80006fcc:	87a00a13          	li	s4,-1926

0000000080006fd0 <i_6897>:
    80006fd0:	88c00613          	li	a2,-1908

0000000080006fd4 <i_6898>:
    80006fd4:	001a0a13          	addi	s4,s4,1
    80006fd8:	feca4ee3          	blt	s4,a2,80006fd4 <i_6898>

0000000080006fdc <i_6899>:
    80006fdc:	efc16903          	lwu	s2,-260(sp)

0000000080006fe0 <i_6900>:
    80006fe0:	01e11903          	lh	s2,30(sp)

0000000080006fe4 <i_6901>:
    80006fe4:	02a56f33          	rem	t5,a0,a0

0000000080006fe8 <i_6902>:
    80006fe8:	02c102a3          	sb	a2,37(sp)

0000000080006fec <i_6903>:
    80006fec:	00c00413          	li	s0,12

0000000080006ff0 <i_6904>:
    80006ff0:	0085153b          	sllw	a0,a0,s0

0000000080006ff4 <i_6905>:
    80006ff4:	30153313          	sltiu	t1,a0,769

0000000080006ff8 <i_6906>:
    80006ff8:	f9416283          	lwu	t0,-108(sp)

0000000080006ffc <i_6907>:
    80006ffc:	0302d83b          	divuw	a6,t0,a6

0000000080007000 <i_6908>:
    80007000:	11215803          	lhu	a6,274(sp)

0000000080007004 <i_6909>:
    80007004:	0100c863          	blt	ra,a6,80007014 <i_6913>

0000000080007008 <i_6910>:
    80007008:	01087663          	bleu	a6,a6,80007014 <i_6913>

000000008000700c <i_6911>:
    8000700c:	00000013          	nop

0000000080007010 <i_6912>:
    80007010:	01082233          	slt	tp,a6,a6

0000000080007014 <i_6913>:
    80007014:	00000013          	nop

0000000080007018 <i_6914>:
    80007018:	d7dacd13          	xori	s10,s5,-643

000000008000701c <i_6915>:
    8000701c:	81b00813          	li	a6,-2021

0000000080007020 <i_6916>:
    80007020:	82700293          	li	t0,-2009

0000000080007024 <i_6917>:
    80007024:	efa13023          	sd	s10,-288(sp)

0000000080007028 <i_6918>:
    80007028:	03011fb3          	mulh	t6,sp,a6

000000008000702c <i_6919>:
    8000702c:	01300513          	li	a0,19

0000000080007030 <i_6920>:
    80007030:	00ab153b          	sllw	a0,s6,a0

0000000080007034 <i_6921>:
    80007034:	00180813          	addi	a6,a6,1
    80007038:	ff02d6e3          	ble	a6,t0,80007024 <i_6917>

000000008000703c <i_6922>:
    8000703c:	401fdd9b          	sraiw	s11,t6,0x1

0000000080007040 <i_6923>:
    80007040:	01a51663          	bne	a0,s10,8000704c <i_6926>

0000000080007044 <i_6924>:
    80007044:	41a50d3b          	subw	s10,a0,s10

0000000080007048 <i_6925>:
    80007048:	01adcc63          	blt	s11,s10,80007060 <i_6931>

000000008000704c <i_6926>:
    8000704c:	f5b13c23          	sd	s11,-168(sp)

0000000080007050 <i_6927>:
    80007050:	01bb8863          	beq	s7,s11,80007060 <i_6931>

0000000080007054 <i_6928>:
    80007054:	01bd8db3          	add	s11,s11,s11

0000000080007058 <i_6929>:
    80007058:	009dfd93          	andi	s11,s11,9

000000008000705c <i_6930>:
    8000705c:	03adaeb3          	mulhsu	t4,s11,s10

0000000080007060 <i_6931>:
    80007060:	f0514283          	lbu	t0,-251(sp)

0000000080007064 <i_6932>:
    80007064:	03add063          	ble	s10,s11,80007084 <i_6940>

0000000080007068 <i_6933>:
    80007068:	005ef463          	bleu	t0,t4,80007070 <i_6935>

000000008000706c <i_6934>:
    8000706c:	15813b83          	ld	s7,344(sp)

0000000080007070 <i_6935>:
    80007070:	f1d11823          	sh	t4,-240(sp)

0000000080007074 <i_6936>:
    80007074:	0042d51b          	srliw	a0,t0,0x4

0000000080007078 <i_6937>:
    80007078:	4a357293          	andi	t0,a0,1187

000000008000707c <i_6938>:
    8000707c:	eb811b83          	lh	s7,-328(sp)

0000000080007080 <i_6939>:
    80007080:	02abf1b3          	remu	gp,s7,a0

0000000080007084 <i_6940>:
    80007084:	0372e263          	bltu	t0,s7,800070a8 <i_6949>

0000000080007088 <i_6941>:
    80007088:	01800793          	li	a5,24

000000008000708c <i_6942>:
    8000708c:	40f2dc3b          	sraw	s8,t0,a5

0000000080007090 <i_6943>:
    80007090:	fa610c03          	lb	s8,-90(sp)

0000000080007094 <i_6944>:
    80007094:	07e15383          	lhu	t2,126(sp)

0000000080007098 <i_6945>:
    80007098:	fb611883          	lh	a7,-74(sp)

000000008000709c <i_6946>:
    8000709c:	10016483          	lwu	s1,256(sp)

00000000800070a0 <i_6947>:
    800070a0:	001c5093          	srli	ra,s8,0x1

00000000800070a4 <i_6948>:
    800070a4:	0d816183          	lwu	gp,216(sp)

00000000800070a8 <i_6949>:
    800070a8:	03a6093b          	mulw	s2,a2,s10

00000000800070ac <i_6950>:
    800070ac:	01813c03          	ld	s8,24(sp)

00000000800070b0 <i_6951>:
    800070b0:	79700f13          	li	t5,1943

00000000800070b4 <i_6952>:
    800070b4:	7a700d13          	li	s10,1959

00000000800070b8 <i_6953>:
    800070b8:	00ad7263          	bleu	a0,s10,800070bc <i_6954>

00000000800070bc <i_6954>:
    800070bc:	00d91463          	bne	s2,a3,800070c4 <i_6956>

00000000800070c0 <i_6955>:
    800070c0:	01014503          	lbu	a0,16(sp)

00000000800070c4 <i_6956>:
    800070c4:	01a00513          	li	a0,26

00000000800070c8 <i_6957>:
    800070c8:	40a555bb          	sraw	a1,a0,a0

00000000800070cc <i_6958>:
    800070cc:	018508b3          	add	a7,a0,s8

00000000800070d0 <i_6959>:
    800070d0:	e9215c03          	lhu	s8,-366(sp)

00000000800070d4 <i_6960>:
    800070d4:	00000013          	nop

00000000800070d8 <i_6961>:
    800070d8:	011c6263          	bltu	s8,a7,800070dc <i_6962>

00000000800070dc <i_6962>:
    800070dc:	038c3c33          	mulhu	s8,s8,s8

00000000800070e0 <i_6963>:
    800070e0:	4014d593          	srai	a1,s1,0x1

00000000800070e4 <i_6964>:
    800070e4:	00000013          	nop

00000000800070e8 <i_6965>:
    800070e8:	01812c23          	sw	s8,24(sp)

00000000800070ec <i_6966>:
    800070ec:	1b611c03          	lh	s8,438(sp)

00000000800070f0 <i_6967>:
    800070f0:	f0c11383          	lh	t2,-244(sp)

00000000800070f4 <i_6968>:
    800070f4:	001f0f13          	addi	t5,t5,1
    800070f8:	fdaf60e3          	bltu	t5,s10,800070b8 <i_6953>

00000000800070fc <i_6969>:
    800070fc:	10414883          	lbu	a7,260(sp)

0000000080007100 <i_6970>:
    80007100:	00000013          	nop

0000000080007104 <i_6971>:
    80007104:	76900c13          	li	s8,1897

0000000080007108 <i_6972>:
    80007108:	77100393          	li	t2,1905

000000008000710c <i_6973>:
    8000710c:	ea416a03          	lwu	s4,-348(sp)

0000000080007110 <i_6974>:
    80007110:	16012583          	lw	a1,352(sp)

0000000080007114 <i_6975>:
    80007114:	0314f4bb          	remuw	s1,s1,a7

0000000080007118 <i_6976>:
    80007118:	034886b3          	mul	a3,a7,s4

000000008000711c <i_6977>:
    8000711c:	00b88263          	beq	a7,a1,80007120 <i_6978>

0000000080007120 <i_6978>:
    80007120:	15415303          	lhu	t1,340(sp)

0000000080007124 <i_6979>:
    80007124:	e9111c23          	sh	a7,-360(sp)

0000000080007128 <i_6980>:
    80007128:	01451c63          	bne	a0,s4,80007140 <i_6985>

000000008000712c <i_6981>:
    8000712c:	ff013503          	ld	a0,-16(sp)

0000000080007130 <i_6982>:
    80007130:	001c0c13          	addi	s8,s8,1
    80007134:	fc7c6ce3          	bltu	s8,t2,8000710c <i_6973>

0000000080007138 <i_6983>:
    80007138:	14013403          	ld	s0,320(sp)

000000008000713c <i_6984>:
    8000713c:	00645e63          	ble	t1,s0,80007158 <i_6991>

0000000080007140 <i_6985>:
    80007140:	13811d03          	lh	s10,312(sp)

0000000080007144 <i_6986>:
    80007144:	0266d53b          	divuw	a0,a3,t1

0000000080007148 <i_6987>:
    80007148:	e8812623          	sw	s0,-372(sp)

000000008000714c <i_6988>:
    8000714c:	01600d13          	li	s10,22

0000000080007150 <i_6989>:
    80007150:	01ad1f3b          	sllw	t5,s10,s10

0000000080007154 <i_6990>:
    80007154:	01ef1863          	bne	t5,t5,80007164 <i_6994>

0000000080007158 <i_6991>:
    80007158:	00a54c63          	blt	a0,a0,80007170 <i_6997>

000000008000715c <i_6992>:
    8000715c:	19ff6f13          	ori	t5,t5,415

0000000080007160 <i_6993>:
    80007160:	0d813503          	ld	a0,216(sp)

0000000080007164 <i_6994>:
    80007164:	03ea6d3b          	remw	s10,s4,t5

0000000080007168 <i_6995>:
    80007168:	ef313023          	sd	s3,-288(sp)

000000008000716c <i_6996>:
    8000716c:	40355593          	srai	a1,a0,0x3

0000000080007170 <i_6997>:
    80007170:	07a12023          	sw	s10,96(sp)

0000000080007174 <i_6998>:
    80007174:	4025df13          	srai	t5,a1,0x2

0000000080007178 <i_6999>:
    80007178:	ede10f23          	sb	t5,-290(sp)

000000008000717c <i_7000>:
    8000717c:	01ef6263          	bltu	t5,t5,80007180 <i_7001>

0000000080007180 <i_7001>:
    80007180:	02af7cb3          	remu	s9,t5,a0

0000000080007184 <i_7002>:
    80007184:	0bf14203          	lbu	tp,191(sp)

0000000080007188 <i_7003>:
    80007188:	01624c63          	blt	tp,s6,800071a0 <i_7009>

000000008000718c <i_7004>:
    8000718c:	0002051b          	sext.w	a0,tp

0000000080007190 <i_7005>:
    80007190:	1be11b83          	lh	s7,446(sp)

0000000080007194 <i_7006>:
    80007194:	f8e11903          	lh	s2,-114(sp)

0000000080007198 <i_7007>:
    80007198:	45650c97          	auipc	s9,0x45650

000000008000719c <i_7008>:
    8000719c:	012cc863          	blt	s9,s2,800071ac <i_7012>

00000000800071a0 <i_7009>:
    800071a0:	f1712c23          	sw	s7,-232(sp)

00000000800071a4 <i_7010>:
    800071a4:	404bd293          	srai	t0,s7,0x4

00000000800071a8 <i_7011>:
    800071a8:	fb712223          	sw	s7,-92(sp)

00000000800071ac <i_7012>:
    800071ac:	0b012303          	lw	t1,176(sp)

00000000800071b0 <i_7013>:
    800071b0:	d99eec97          	auipc	s9,0xd99ee

00000000800071b4 <i_7014>:
    800071b4:	03228063          	beq	t0,s2,800071d4 <i_7022>

00000000800071b8 <i_7015>:
    800071b8:	eb113423          	sd	a7,-344(sp)

00000000800071bc <i_7016>:
    800071bc:	539baf13          	slti	t5,s7,1337

00000000800071c0 <i_7017>:
    800071c0:	017f4a63          	blt	t5,s7,800071d4 <i_7022>

00000000800071c4 <i_7018>:
    800071c4:	f5615583          	lhu	a1,-170(sp)

00000000800071c8 <i_7019>:
    800071c8:	0372aab3          	mulhsu	s5,t0,s7

00000000800071cc <i_7020>:
    800071cc:	00000013          	nop

00000000800071d0 <i_7021>:
    800071d0:	03510b83          	lb	s7,53(sp)

00000000800071d4 <i_7022>:
    800071d4:	00000013          	nop

00000000800071d8 <i_7023>:
    800071d8:	035104a3          	sb	s5,41(sp)

00000000800071dc <i_7024>:
    800071dc:	78900c93          	li	s9,1929

00000000800071e0 <i_7025>:
    800071e0:	79800f13          	li	t5,1944

00000000800071e4 <i_7026>:
    800071e4:	0e011c03          	lh	s8,224(sp)

00000000800071e8 <i_7027>:
    800071e8:	01ff6c63          	bltu	t5,t6,80007200 <i_7032>

00000000800071ec <i_7028>:
    800071ec:	13d10e03          	lb	t3,317(sp)

00000000800071f0 <i_7029>:
    800071f0:	001c8c93          	addi	s9,s9,1 # 599f51b1 <main-0x2660ae4f>
    800071f4:	ffece8e3          	bltu	s9,t5,800071e4 <i_7026>

00000000800071f8 <i_7030>:
    800071f8:	01cbdc63          	ble	t3,s7,80007210 <i_7036>

00000000800071fc <i_7031>:
    800071fc:	f4813a83          	ld	s5,-184(sp)

0000000080007200 <i_7032>:
    80007200:	f5414b83          	lbu	s7,-172(sp)

0000000080007204 <i_7033>:
    80007204:	033e69bb          	remw	s3,t3,s3

0000000080007208 <i_7034>:
    80007208:	f5214a03          	lbu	s4,-174(sp)

000000008000720c <i_7035>:
    8000720c:	034e6463          	bltu	t3,s4,80007234 <i_7045>

0000000080007210 <i_7036>:
    80007210:	01d00d93          	li	s11,29

0000000080007214 <i_7037>:
    80007214:	01bb98bb          	sllw	a7,s7,s11

0000000080007218 <i_7038>:
    80007218:	02b14e83          	lbu	t4,43(sp)

000000008000721c <i_7039>:
    8000721c:	ef110923          	sb	a7,-270(sp)

0000000080007220 <i_7040>:
    80007220:	fa412b83          	lw	s7,-92(sp)

0000000080007224 <i_7041>:
    80007224:	00000013          	nop

0000000080007228 <i_7042>:
    80007228:	3d366613          	ori	a2,a2,979

000000008000722c <i_7043>:
    8000722c:	00000013          	nop

0000000080007230 <i_7044>:
    80007230:	e2416703          	lwu	a4,-476(sp)

0000000080007234 <i_7045>:
    80007234:	00cda933          	slt	s2,s11,a2

0000000080007238 <i_7046>:
    80007238:	03bb8dbb          	mulw	s11,s7,s11

000000008000723c <i_7047>:
    8000723c:	8b200c13          	li	s8,-1870

0000000080007240 <i_7048>:
    80007240:	8c200e13          	li	t3,-1854

0000000080007244 <i_7049>:
    80007244:	eaf10483          	lb	s1,-337(sp)

0000000080007248 <i_7050>:
    80007248:	f2412d83          	lw	s11,-220(sp)

000000008000724c <i_7051>:
    8000724c:	03b48dbb          	mulw	s11,s1,s11

0000000080007250 <i_7052>:
    80007250:	0c813d83          	ld	s11,200(sp)

0000000080007254 <i_7053>:
    80007254:	f9812d83          	lw	s11,-104(sp)

0000000080007258 <i_7054>:
    80007258:	01e00313          	li	t1,30

000000008000725c <i_7055>:
    8000725c:	00615db3          	srl	s11,sp,t1

0000000080007260 <i_7056>:
    80007260:	001c0c13          	addi	s8,s8,1
    80007264:	ffcc60e3          	bltu	s8,t3,80007244 <i_7049>

0000000080007268 <i_7057>:
    80007268:	03b65263          	ble	s11,a2,8000728c <i_7066>

000000008000726c <i_7058>:
    8000726c:	40a30dbb          	subw	s11,t1,a0

0000000080007270 <i_7059>:
    80007270:	16013e03          	ld	t3,352(sp)

0000000080007274 <i_7060>:
    80007274:	16812503          	lw	a0,360(sp)

0000000080007278 <i_7061>:
    80007278:	03cdfd3b          	remuw	s10,s11,t3

000000008000727c <i_7062>:
    8000727c:	01bdee63          	bltu	s11,s11,80007298 <i_7069>

0000000080007280 <i_7063>:
    80007280:	03addd3b          	divuw	s10,s11,s10

0000000080007284 <i_7064>:
    80007284:	03a1d1b3          	divu	gp,gp,s10

0000000080007288 <i_7065>:
    80007288:	05c16d03          	lwu	s10,92(sp)

000000008000728c <i_7066>:
    8000728c:	be3d7193          	andi	gp,s10,-1053

0000000080007290 <i_7067>:
    80007290:	f0e11d03          	lh	s10,-242(sp)

0000000080007294 <i_7068>:
    80007294:	0ba10923          	sb	s10,178(sp)

0000000080007298 <i_7069>:
    80007298:	01a1f863          	bleu	s10,gp,800072a8 <i_7073>

000000008000729c <i_7070>:
    8000729c:	0d814603          	lbu	a2,216(sp)

00000000800072a0 <i_7071>:
    800072a0:	01affd33          	and	s10,t6,s10

00000000800072a4 <i_7072>:
    800072a4:	e1c12d03          	lw	s10,-484(sp)

00000000800072a8 <i_7073>:
    800072a8:	02c61d33          	mulh	s10,a2,a2

00000000800072ac <i_7074>:
    800072ac:	01ad1863          	bne	s10,s10,800072bc <i_7078>

00000000800072b0 <i_7075>:
    800072b0:	f7a13423          	sd	s10,-152(sp)

00000000800072b4 <i_7076>:
    800072b4:	fc412d03          	lw	s10,-60(sp)

00000000800072b8 <i_7077>:
    800072b8:	eca15f03          	lhu	t5,-310(sp)

00000000800072bc <i_7078>:
    800072bc:	01a27263          	bleu	s10,tp,800072c0 <i_7079>

00000000800072c0 <i_7079>:
    800072c0:	01ad4e63          	blt	s10,s10,800072dc <i_7086>

00000000800072c4 <i_7080>:
    800072c4:	01ad7263          	bleu	s10,s10,800072c8 <i_7081>

00000000800072c8 <i_7081>:
    800072c8:	01ed7e63          	bleu	t5,s10,800072e4 <i_7088>

00000000800072cc <i_7082>:
    800072cc:	03ad5063          	ble	s10,s10,800072ec <i_7090>

00000000800072d0 <i_7083>:
    800072d0:	01af0e63          	beq	t5,s10,800072ec <i_7090>

00000000800072d4 <i_7084>:
    800072d4:	fe811b83          	lh	s7,-24(sp)

00000000800072d8 <i_7085>:
    800072d8:	01ed1c63          	bne	s10,t5,800072f0 <i_7091>

00000000800072dc <i_7086>:
    800072dc:	ef110d03          	lb	s10,-271(sp)

00000000800072e0 <i_7087>:
    800072e0:	f2a11d03          	lh	s10,-214(sp)

00000000800072e4 <i_7088>:
    800072e4:	03eaef33          	rem	t5,s5,t5

00000000800072e8 <i_7089>:
    800072e8:	03af5063          	ble	s10,t5,80007308 <i_7097>

00000000800072ec <i_7090>:
    800072ec:	e3a13023          	sd	s10,-480(sp)

00000000800072f0 <i_7091>:
    800072f0:	fdc16d03          	lwu	s10,-36(sp)

00000000800072f4 <i_7092>:
    800072f4:	03500693          	li	a3,53

00000000800072f8 <i_7093>:
    800072f8:	00d555b3          	srl	a1,a0,a3

00000000800072fc <i_7094>:
    800072fc:	05d14d03          	lbu	s10,93(sp)

0000000080007300 <i_7095>:
    80007300:	02a3aeb3          	mulhsu	t4,t2,a0

0000000080007304 <i_7096>:
    80007304:	f2813483          	ld	s1,-216(sp)

0000000080007308 <i_7097>:
    80007308:	1e4100a3          	sb	tp,481(sp)

000000008000730c <i_7098>:
    8000730c:	03a4bcb3          	mulhu	s9,s1,s10

0000000080007310 <i_7099>:
    80007310:	88d00513          	li	a0,-1907

0000000080007314 <i_7100>:
    80007314:	89b00313          	li	t1,-1893

0000000080007318 <i_7101>:
    80007318:	f4e14903          	lbu	s2,-178(sp)

000000008000731c <i_7102>:
    8000731c:	00968c63          	beq	a3,s1,80007334 <i_7107>

0000000080007320 <i_7103>:
    80007320:	00150513          	addi	a0,a0,1
    80007324:	fe651ae3          	bne	a0,t1,80007318 <i_7101>

0000000080007328 <i_7104>:
    80007328:	0ff734b7          	lui	s1,0xff73

000000008000732c <i_7105>:
    8000732c:	f3912023          	sw	s9,-224(sp)

0000000080007330 <i_7106>:
    80007330:	b98eecb7          	lui	s9,0xb98ee

0000000080007334 <i_7107>:
    80007334:	e3912023          	sw	s9,-480(sp)

0000000080007338 <i_7108>:
    80007338:	0094de63          	ble	s1,s1,80007354 <i_7115>

000000008000733c <i_7109>:
    8000733c:	fee15f83          	lhu	t6,-18(sp)

0000000080007340 <i_7110>:
    80007340:	0045569b          	srliw	a3,a0,0x4

0000000080007344 <i_7111>:
    80007344:	17813383          	ld	t2,376(sp)

0000000080007348 <i_7112>:
    80007348:	00000013          	nop

000000008000734c <i_7113>:
    8000734c:	00139993          	slli	s3,t2,0x1

0000000080007350 <i_7114>:
    80007350:	00d3b233          	sltu	tp,t2,a3

0000000080007354 <i_7115>:
    80007354:	03010683          	lb	a3,48(sp)

0000000080007358 <i_7116>:
    80007358:	0b416383          	lwu	t2,180(sp)

000000008000735c <i_7117>:
    8000735c:	8bc00c93          	li	s9,-1860

0000000080007360 <i_7118>:
    80007360:	8ca00293          	li	t0,-1846

0000000080007364 <i_7119>:
    80007364:	00f386b3          	add	a3,t2,a5

0000000080007368 <i_7120>:
    80007368:	001c8c93          	addi	s9,s9,1 # ffffffffb98ee001 <_end+0xffffffff398ddbed>
    8000736c:	ff92dce3          	ble	s9,t0,80007364 <i_7119>

0000000080007370 <i_7121>:
    80007370:	e9c16703          	lwu	a4,-356(sp)

0000000080007374 <i_7122>:
    80007374:	f4d11d23          	sh	a3,-166(sp)

0000000080007378 <i_7123>:
    80007378:	0156c333          	xor	t1,a3,s5

000000008000737c <i_7124>:
    8000737c:	5343f393          	andi	t2,t2,1332

0000000080007380 <i_7125>:
    80007380:	00c3c5b3          	xor	a1,t2,a2

0000000080007384 <i_7126>:
    80007384:	00d5f863          	bleu	a3,a1,80007394 <i_7130>

0000000080007388 <i_7127>:
    80007388:	f2114f83          	lbu	t6,-223(sp)

000000008000738c <i_7128>:
    8000738c:	eed11523          	sh	a3,-278(sp)

0000000080007390 <i_7129>:
    80007390:	19514483          	lbu	s1,405(sp)

0000000080007394 <i_7130>:
    80007394:	fad14703          	lbu	a4,-83(sp)

0000000080007398 <i_7131>:
    80007398:	8d972e13          	slti	t3,a4,-1831

000000008000739c <i_7132>:
    8000739c:	40e7073b          	subw	a4,a4,a4

00000000800073a0 <i_7133>:
    800073a0:	fc214e03          	lbu	t3,-62(sp)

00000000800073a4 <i_7134>:
    800073a4:	0c812483          	lw	s1,200(sp)

00000000800073a8 <i_7135>:
    800073a8:	f32108a3          	sb	s2,-207(sp)

00000000800073ac <i_7136>:
    800073ac:	00013483          	ld	s1,0(sp)

00000000800073b0 <i_7137>:
    800073b0:	81200593          	li	a1,-2030

00000000800073b4 <i_7138>:
    800073b4:	82500913          	li	s2,-2011

00000000800073b8 <i_7139>:
    800073b8:	0a110e83          	lb	t4,161(sp)

00000000800073bc <i_7140>:
    800073bc:	19015483          	lhu	s1,400(sp)

00000000800073c0 <i_7141>:
    800073c0:	01c12c03          	lw	s8,28(sp)

00000000800073c4 <i_7142>:
    800073c4:	01df4eb3          	xor	t4,t5,t4

00000000800073c8 <i_7143>:
    800073c8:	1e615a83          	lhu	s5,486(sp)

00000000800073cc <i_7144>:
    800073cc:	001ae1b3          	or	gp,s5,ra

00000000800073d0 <i_7145>:
    800073d0:	1be11b03          	lh	s6,446(sp)

00000000800073d4 <i_7146>:
    800073d4:	03858063          	beq	a1,s8,800073f4 <i_7153>

00000000800073d8 <i_7147>:
    800073d8:	018a8263          	beq	s5,s8,800073dc <i_7148>

00000000800073dc <i_7148>:
    800073dc:	f9910e83          	lb	t4,-103(sp)

00000000800073e0 <i_7149>:
    800073e0:	15512e23          	sw	s5,348(sp)

00000000800073e4 <i_7150>:
    800073e4:	00158593          	addi	a1,a1,1
    800073e8:	fcb978e3          	bleu	a1,s2,800073b8 <i_7139>

00000000800073ec <i_7151>:
    800073ec:	01dec463          	blt	t4,t4,800073f4 <i_7153>

00000000800073f0 <i_7152>:
    800073f0:	f7416f83          	lwu	t6,-140(sp)

00000000800073f4 <i_7153>:
    800073f4:	fd013b83          	ld	s7,-48(sp)

00000000800073f8 <i_7154>:
    800073f8:	0e913423          	sd	s1,232(sp)

00000000800073fc <i_7155>:
    800073fc:	01688863          	beq	a7,s6,8000740c <i_7159>

0000000080007400 <i_7156>:
    80007400:	00211883          	lh	a7,2(sp)

0000000080007404 <i_7157>:
    80007404:	011b9863          	bne	s7,a7,80007414 <i_7161>

0000000080007408 <i_7158>:
    80007408:	03900313          	li	t1,57

000000008000740c <i_7159>:
    8000740c:	406bdf33          	sra	t5,s7,t1

0000000080007410 <i_7160>:
    80007410:	fc837993          	andi	s3,t1,-56

0000000080007414 <i_7161>:
    80007414:	01600613          	li	a2,22

0000000080007418 <i_7162>:
    80007418:	40caddb3          	sra	s11,s5,a2

000000008000741c <i_7163>:
    8000741c:	02cf0463          	beq	t5,a2,80007444 <i_7173>

0000000080007420 <i_7164>:
    80007420:	f1310823          	sb	s3,-240(sp)

0000000080007424 <i_7165>:
    80007424:	01100693          	li	a3,17

0000000080007428 <i_7166>:
    80007428:	40dbd8bb          	sraw	a7,s7,a3

000000008000742c <i_7167>:
    8000742c:	01500d13          	li	s10,21

0000000080007430 <i_7168>:
    80007430:	01a65cbb          	srlw	s9,a2,s10

0000000080007434 <i_7169>:
    80007434:	19113423          	sd	a7,392(sp)

0000000080007438 <i_7170>:
    80007438:	ffc11303          	lh	t1,-4(sp)

000000008000743c <i_7171>:
    8000743c:	e7112223          	sw	a7,-412(sp)

0000000080007440 <i_7172>:
    80007440:	006ce863          	bltu	s9,t1,80007450 <i_7176>

0000000080007444 <i_7173>:
    80007444:	0bf11523          	sh	t6,170(sp)

0000000080007448 <i_7174>:
    80007448:	1d113c23          	sd	a7,472(sp)

000000008000744c <i_7175>:
    8000744c:	00000013          	nop

0000000080007450 <i_7176>:
    80007450:	eec12823          	sw	a2,-272(sp)

0000000080007454 <i_7177>:
    80007454:	01188d33          	add	s10,a7,a7

0000000080007458 <i_7178>:
    80007458:	7db00193          	li	gp,2011

000000008000745c <i_7179>:
    8000745c:	7e600313          	li	t1,2022

0000000080007460 <i_7180>:
    80007460:	e4816883          	lwu	a7,-440(sp)

0000000080007464 <i_7181>:
    80007464:	10d13023          	sd	a3,256(sp)

0000000080007468 <i_7182>:
    80007468:	e3c11a23          	sh	t3,-460(sp)

000000008000746c <i_7183>:
    8000746c:	0391e0bb          	remw	ra,gp,s9

0000000080007470 <i_7184>:
    80007470:	00118193          	addi	gp,gp,1
    80007474:	fe3356e3          	ble	gp,t1,80007460 <i_7180>

0000000080007478 <i_7185>:
    80007478:	01109e63          	bne	ra,a7,80007494 <i_7192>

000000008000747c <i_7186>:
    8000747c:	03f0bbb3          	mulhu	s7,ra,t6

0000000080007480 <i_7187>:
    80007480:	001080b3          	add	ra,ra,ra

0000000080007484 <i_7188>:
    80007484:	00182d33          	slt	s10,a6,ra

0000000080007488 <i_7189>:
    80007488:	f81100a3          	sb	ra,-127(sp)

000000008000748c <i_7190>:
    8000748c:	6be50893          	addi	a7,a0,1726

0000000080007490 <i_7191>:
    80007490:	08110aa3          	sb	ra,149(sp)

0000000080007494 <i_7192>:
    80007494:	01a78863          	beq	a5,s10,800074a4 <i_7196>

0000000080007498 <i_7193>:
    80007498:	12111623          	sh	ra,300(sp)

000000008000749c <i_7194>:
    8000749c:	01200e93          	li	t4,18

00000000800074a0 <i_7195>:
    800074a0:	41d0d733          	sra	a4,ra,t4

00000000800074a4 <i_7196>:
    800074a4:	00e77863          	bleu	a4,a4,800074b4 <i_7200>

00000000800074a8 <i_7197>:
    800074a8:	e4c16603          	lwu	a2,-436(sp)

00000000800074ac <i_7198>:
    800074ac:	02c75733          	divu	a4,a4,a2

00000000800074b0 <i_7199>:
    800074b0:	0f816d83          	lwu	s11,248(sp)

00000000800074b4 <i_7200>:
    800074b4:	ad151737          	lui	a4,0xad151

00000000800074b8 <i_7201>:
    800074b8:	03770ebb          	mulw	t4,a4,s7

00000000800074bc <i_7202>:
    800074bc:	02edf463          	bleu	a4,s11,800074e4 <i_7212>

00000000800074c0 <i_7203>:
    800074c0:	03d56463          	bltu	a0,t4,800074e8 <i_7213>

00000000800074c4 <i_7204>:
    800074c4:	00ed8263          	beq	s11,a4,800074c8 <i_7205>

00000000800074c8 <i_7205>:
    800074c8:	ee013703          	ld	a4,-288(sp)

00000000800074cc <i_7206>:
    800074cc:	05b105a3          	sb	s11,75(sp)

00000000800074d0 <i_7207>:
    800074d0:	ed9104a3          	sb	s9,-311(sp)

00000000800074d4 <i_7208>:
    800074d4:	00000013          	nop

00000000800074d8 <i_7209>:
    800074d8:	02200593          	li	a1,34

00000000800074dc <i_7210>:
    800074dc:	00bc9db3          	sll	s11,s9,a1

00000000800074e0 <i_7211>:
    800074e0:	01400a93          	li	s5,20

00000000800074e4 <i_7212>:
    800074e4:	015999bb          	sllw	s3,s3,s5

00000000800074e8 <i_7213>:
    800074e8:	15611183          	lh	gp,342(sp)

00000000800074ec <i_7214>:
    800074ec:	03b12023          	sw	s11,32(sp)

00000000800074f0 <i_7215>:
    800074f0:	82000713          	li	a4,-2016

00000000800074f4 <i_7216>:
    800074f4:	82b00c93          	li	s9,-2005

00000000800074f8 <i_7217>:
    800074f8:	023edfb3          	divu	t6,t4,gp

00000000800074fc <i_7218>:
    800074fc:	00000013          	nop

0000000080007500 <i_7219>:
    80007500:	403cd993          	srai	s3,s9,0x3

0000000080007504 <i_7220>:
    80007504:	f3911223          	sh	s9,-220(sp)

0000000080007508 <i_7221>:
    80007508:	0399c7bb          	divw	a5,s3,s9

000000008000750c <i_7222>:
    8000750c:	0049ce63          	blt	s3,tp,80007528 <i_7228>

0000000080007510 <i_7223>:
    80007510:	0339b9b3          	mulhu	s3,s3,s3

0000000080007514 <i_7224>:
    80007514:	00170713          	addi	a4,a4,1 # ffffffffad151001 <_end+0xffffffff2d140bed>
    80007518:	ff9760e3          	bltu	a4,s9,800074f8 <i_7217>

000000008000751c <i_7225>:
    8000751c:	0047d993          	srli	s3,a5,0x4

0000000080007520 <i_7226>:
    80007520:	f6f13c23          	sd	a5,-136(sp)

0000000080007524 <i_7227>:
    80007524:	002a1793          	slli	a5,s4,0x2

0000000080007528 <i_7228>:
    80007528:	09812783          	lw	a5,152(sp)

000000008000752c <i_7229>:
    8000752c:	f0c16803          	lwu	a6,-244(sp)

0000000080007530 <i_7230>:
    80007530:	00f9fc63          	bleu	a5,s3,80007548 <i_7236>

0000000080007534 <i_7231>:
    80007534:	02f7f933          	remu	s2,a5,a5

0000000080007538 <i_7232>:
    80007538:	02200913          	li	s2,34

000000008000753c <i_7233>:
    8000753c:	012918b3          	sll	a7,s2,s2

0000000080007540 <i_7234>:
    80007540:	0019139b          	slliw	t2,s2,0x1

0000000080007544 <i_7235>:
    80007544:	e5016d83          	lwu	s11,-432(sp)

0000000080007548 <i_7236>:
    80007548:	13114903          	lbu	s2,305(sp)

000000008000754c <i_7237>:
    8000754c:	01800393          	li	t2,24

0000000080007550 <i_7238>:
    80007550:	0073d3b3          	srl	t2,t2,t2

0000000080007554 <i_7239>:
    80007554:	79c00793          	li	a5,1948

0000000080007558 <i_7240>:
    80007558:	7a200993          	li	s3,1954

000000008000755c <i_7241>:
    8000755c:	0323f263          	bleu	s2,t2,80007580 <i_7249>

0000000080007560 <i_7242>:
    80007560:	15013583          	ld	a1,336(sp)

0000000080007564 <i_7243>:
    80007564:	f8c15903          	lhu	s2,-116(sp)

0000000080007568 <i_7244>:
    80007568:	02cb5b33          	divu	s6,s6,a2

000000008000756c <i_7245>:
    8000756c:	0365c6bb          	divw	a3,a1,s6

0000000080007570 <i_7246>:
    80007570:	00178793          	addi	a5,a5,1
    80007574:	ff37e2e3          	bltu	a5,s3,80007558 <i_7240>

0000000080007578 <i_7247>:
    80007578:	08012e83          	lw	t4,128(sp)

000000008000757c <i_7248>:
    8000757c:	f7c12983          	lw	s3,-132(sp)

0000000080007580 <i_7249>:
    80007580:	19c11583          	lh	a1,412(sp)

0000000080007584 <i_7250>:
    80007584:	0226e433          	rem	s0,a3,sp

0000000080007588 <i_7251>:
    80007588:	18813023          	sd	s0,384(sp)

000000008000758c <i_7252>:
    8000758c:	16412603          	lw	a2,356(sp)

0000000080007590 <i_7253>:
    80007590:	0b211623          	sh	s2,172(sp)

0000000080007594 <i_7254>:
    80007594:	84100b13          	li	s6,-1983

0000000080007598 <i_7255>:
    80007598:	84c00413          	li	s0,-1972

000000008000759c <i_7256>:
    8000759c:	05414883          	lbu	a7,84(sp)

00000000800075a0 <i_7257>:
    800075a0:	f9313c23          	sd	s3,-104(sp)

00000000800075a4 <i_7258>:
    800075a4:	84400713          	li	a4,-1980

00000000800075a8 <i_7259>:
    800075a8:	85400693          	li	a3,-1964

00000000800075ac <i_7260>:
    800075ac:	0118b633          	sltu	a2,a7,a7

00000000800075b0 <i_7261>:
    800075b0:	00d8c233          	xor	tp,a7,a3

00000000800075b4 <i_7262>:
    800075b4:	00170713          	addi	a4,a4,1
    800075b8:	fed74ae3          	blt	a4,a3,800075ac <i_7260>

00000000800075bc <i_7263>:
    800075bc:	0318c463          	blt	a7,a7,800075e4 <i_7272>

00000000800075c0 <i_7264>:
    800075c0:	09f10883          	lb	a7,159(sp)

00000000800075c4 <i_7265>:
    800075c4:	001b0b13          	addi	s6,s6,1
    800075c8:	fc8b1ae3          	bne	s6,s0,8000759c <i_7256>

00000000800075cc <i_7266>:
    800075cc:	3794b8b7          	lui	a7,0x3794b

00000000800075d0 <i_7267>:
    800075d0:	0c411323          	sh	tp,198(sp)

00000000800075d4 <i_7268>:
    800075d4:	0e412623          	sw	tp,236(sp)

00000000800075d8 <i_7269>:
    800075d8:	ed113023          	sd	a7,-320(sp)

00000000800075dc <i_7270>:
    800075dc:	18011a83          	lh	s5,384(sp)

00000000800075e0 <i_7271>:
    800075e0:	cb08f513          	andi	a0,a7,-848

00000000800075e4 <i_7272>:
    800075e4:	00000013          	nop

00000000800075e8 <i_7273>:
    800075e8:	10a11623          	sh	a0,268(sp)

00000000800075ec <i_7274>:
    800075ec:	82300213          	li	tp,-2013

00000000800075f0 <i_7275>:
    800075f0:	82d00893          	li	a7,-2003

00000000800075f4 <i_7276>:
    800075f4:	703a851b          	addiw	a0,s5,1795

00000000800075f8 <i_7277>:
    800075f8:	02a57663          	bleu	a0,a0,80007624 <i_7287>

00000000800075fc <i_7278>:
    800075fc:	001ad193          	srli	gp,s5,0x1

0000000080007600 <i_7279>:
    80007600:	02a19663          	bne	gp,a0,8000762c <i_7289>

0000000080007604 <i_7280>:
    80007604:	00120213          	addi	tp,tp,1 # 1 <main-0x7fffffff>
    80007608:	ff1266e3          	bltu	tp,a7,800075f4 <i_7276>

000000008000760c <i_7281>:
    8000760c:	19a11c83          	lh	s9,410(sp)

0000000080007610 <i_7282>:
    80007610:	02aad263          	ble	a0,s5,80007634 <i_7291>

0000000080007614 <i_7283>:
    80007614:	00d1cc63          	blt	gp,a3,8000762c <i_7289>

0000000080007618 <i_7284>:
    80007618:	eac16703          	lwu	a4,-340(sp)

000000008000761c <i_7285>:
    8000761c:	00a55a63          	ble	a0,a0,80007630 <i_7290>

0000000080007620 <i_7286>:
    80007620:	11a11223          	sh	s10,260(sp)

0000000080007624 <i_7287>:
    80007624:	00aaea63          	bltu	s5,a0,80007638 <i_7292>

0000000080007628 <i_7288>:
    80007628:	033e0063          	beq	t3,s3,80007648 <i_7296>

000000008000762c <i_7289>:
    8000762c:	e68b0913          	addi	s2,s6,-408

0000000080007630 <i_7290>:
    80007630:	00a75463          	ble	a0,a4,80007638 <i_7292>

0000000080007634 <i_7291>:
    80007634:	0b510fa3          	sb	s5,191(sp)

0000000080007638 <i_7292>:
    80007638:	1d415a83          	lhu	s5,468(sp)

000000008000763c <i_7293>:
    8000763c:	00e54a63          	blt	a0,a4,80007650 <i_7298>

0000000080007640 <i_7294>:
    80007640:	02a18e3b          	mulw	t3,gp,a0

0000000080007644 <i_7295>:
    80007644:	07415503          	lhu	a0,116(sp)

0000000080007648 <i_7296>:
    80007648:	0bc11e23          	sh	t3,188(sp)

000000008000764c <i_7297>:
    8000764c:	17015503          	lhu	a0,368(sp)

0000000080007650 <i_7298>:
    80007650:	e7c13c23          	sd	t3,-392(sp)

0000000080007654 <i_7299>:
    80007654:	00ae7c63          	bleu	a0,t3,8000766c <i_7305>

0000000080007658 <i_7300>:
    80007658:	00254933          	xor	s2,a0,sp

000000008000765c <i_7301>:
    8000765c:	e2114903          	lbu	s2,-479(sp)

0000000080007660 <i_7302>:
    80007660:	19211923          	sh	s2,402(sp)

0000000080007664 <i_7303>:
    80007664:	01477933          	and	s2,a4,s4

0000000080007668 <i_7304>:
    80007668:	00e74733          	xor	a4,a4,a4

000000008000766c <i_7305>:
    8000766c:	0b015703          	lhu	a4,176(sp)

0000000080007670 <i_7306>:
    80007670:	40e90733          	sub	a4,s2,a4

0000000080007674 <i_7307>:
    80007674:	00e14a63          	blt	sp,a4,80007688 <i_7312>

0000000080007678 <i_7308>:
    80007678:	0cf13c23          	sd	a5,216(sp)

000000008000767c <i_7309>:
    8000767c:	4e528293          	addi	t0,t0,1253 # d0221191 <_end+0x50210d7d>

0000000080007680 <i_7310>:
    80007680:	02c2c2b3          	div	t0,t0,a2

0000000080007684 <i_7311>:
    80007684:	e5a13823          	sd	s10,-432(sp)

0000000080007688 <i_7312>:
    80007688:	14613423          	sd	t1,328(sp)

000000008000768c <i_7313>:
    8000768c:	f7013783          	ld	a5,-144(sp)

0000000080007690 <i_7314>:
    80007690:	7d500693          	li	a3,2005

0000000080007694 <i_7315>:
    80007694:	7e900593          	li	a1,2025

0000000080007698 <i_7316>:
    80007698:	00000013          	nop

000000008000769c <i_7317>:
    8000769c:	14412603          	lw	a2,324(sp)

00000000800076a0 <i_7318>:
    800076a0:	ec615603          	lhu	a2,-314(sp)

00000000800076a4 <i_7319>:
    800076a4:	7ca10613          	addi	a2,sp,1994

00000000800076a8 <i_7320>:
    800076a8:	e2813b83          	ld	s7,-472(sp)

00000000800076ac <i_7321>:
    800076ac:	00168693          	addi	a3,a3,1
    800076b0:	fed5d4e3          	ble	a3,a1,80007698 <i_7316>

00000000800076b4 <i_7322>:
    800076b4:	02513023          	sd	t0,32(sp)

00000000800076b8 <i_7323>:
    800076b8:	0d214683          	lbu	a3,210(sp)

00000000800076bc <i_7324>:
    800076bc:	01100b13          	li	s6,17

00000000800076c0 <i_7325>:
    800076c0:	016796b3          	sll	a3,a5,s6

00000000800076c4 <i_7326>:
    800076c4:	00c13423          	sd	a2,8(sp)

00000000800076c8 <i_7327>:
    800076c8:	19514583          	lbu	a1,405(sp)

00000000800076cc <i_7328>:
    800076cc:	0af11023          	sh	a5,160(sp)

00000000800076d0 <i_7329>:
    800076d0:	81900793          	li	a5,-2023

00000000800076d4 <i_7330>:
    800076d4:	82a00613          	li	a2,-2006

00000000800076d8 <i_7331>:
    800076d8:	03e9d4bb          	divuw	s1,s3,t5

00000000800076dc <i_7332>:
    800076dc:	4019d99b          	sraiw	s3,s3,0x1

00000000800076e0 <i_7333>:
    800076e0:	e5a11583          	lh	a1,-422(sp)

00000000800076e4 <i_7334>:
    800076e4:	00178793          	addi	a5,a5,1
    800076e8:	fec798e3          	bne	a5,a2,800076d8 <i_7331>

00000000800076ec <i_7335>:
    800076ec:	0039959b          	slliw	a1,s3,0x3

00000000800076f0 <i_7336>:
    800076f0:	0af10b83          	lb	s7,175(sp)

00000000800076f4 <i_7337>:
    800076f4:	e5710ba3          	sb	s7,-425(sp)

00000000800076f8 <i_7338>:
    800076f8:	417f0f33          	sub	t5,t5,s7

00000000800076fc <i_7339>:
    800076fc:	037bdbb3          	divu	s7,s7,s7

0000000080007700 <i_7340>:
    80007700:	0fa11b03          	lh	s6,250(sp)

0000000080007704 <i_7341>:
    80007704:	003bdb9b          	srliw	s7,s7,0x3

0000000080007708 <i_7342>:
    80007708:	0fbb3b93          	sltiu	s7,s6,251

000000008000770c <i_7343>:
    8000770c:	f5a15283          	lhu	t0,-166(sp)

0000000080007710 <i_7344>:
    80007710:	01e00193          	li	gp,30

0000000080007714 <i_7345>:
    80007714:	003f97b3          	sll	a5,t6,gp

0000000080007718 <i_7346>:
    80007718:	00479f93          	slli	t6,a5,0x4

000000008000771c <i_7347>:
    8000771c:	02e7a733          	mulhsu	a4,a5,a4

0000000080007720 <i_7348>:
    80007720:	e8e15583          	lhu	a1,-370(sp)

0000000080007724 <i_7349>:
    80007724:	00f10b23          	sb	a5,22(sp)

0000000080007728 <i_7350>:
    80007728:	0234e5b3          	rem	a1,s1,gp

000000008000772c <i_7351>:
    8000772c:	02b5db3b          	divuw	s6,a1,a1

0000000080007730 <i_7352>:
    80007730:	05e11483          	lh	s1,94(sp)

0000000080007734 <i_7353>:
    80007734:	01648b33          	add	s6,s1,s6

0000000080007738 <i_7354>:
    80007738:	00c5e863          	bltu	a1,a2,80007748 <i_7358>

000000008000773c <i_7355>:
    8000773c:	e8c12483          	lw	s1,-372(sp)

0000000080007740 <i_7356>:
    80007740:	00a00393          	li	t2,10

0000000080007744 <i_7357>:
    80007744:	007499bb          	sllw	s3,s1,t2

0000000080007748 <i_7358>:
    80007748:	0079da63          	ble	t2,s3,8000775c <i_7363>

000000008000774c <i_7359>:
    8000774c:	009b6463          	bltu	s6,s1,80007754 <i_7361>

0000000080007750 <i_7360>:
    80007750:	e9612823          	sw	s6,-368(sp)

0000000080007754 <i_7361>:
    80007754:	01900693          	li	a3,25

0000000080007758 <i_7362>:
    80007758:	40d6d6bb          	sraw	a3,a3,a3

000000008000775c <i_7363>:
    8000775c:	02d6c063          	blt	a3,a3,8000777c <i_7371>

0000000080007760 <i_7364>:
    80007760:	4026d693          	srai	a3,a3,0x2

0000000080007764 <i_7365>:
    80007764:	0b513023          	sd	s5,160(sp)

0000000080007768 <i_7366>:
    80007768:	00d36863          	bltu	t1,a3,80007778 <i_7370>

000000008000776c <i_7367>:
    8000776c:	00d6c263          	blt	a3,a3,80007770 <i_7368>

0000000080007770 <i_7368>:
    80007770:	40d686b3          	sub	a3,a3,a3

0000000080007774 <i_7369>:
    80007774:	e3912c23          	sw	s9,-456(sp)

0000000080007778 <i_7370>:
    80007778:	e2d10fa3          	sb	a3,-449(sp)

000000008000777c <i_7371>:
    8000777c:	02d69263          	bne	a3,a3,800077a0 <i_7380>

0000000080007780 <i_7372>:
    80007780:	00b68793          	addi	a5,a3,11

0000000080007784 <i_7373>:
    80007784:	02d676bb          	remuw	a3,a2,a3

0000000080007788 <i_7374>:
    80007788:	1c8102a3          	sb	s0,453(sp)

000000008000778c <i_7375>:
    8000778c:	08f12823          	sw	a5,144(sp)

0000000080007790 <i_7376>:
    80007790:	ff416e03          	lwu	t3,-12(sp)

0000000080007794 <i_7377>:
    80007794:	03ce3f33          	mulhu	t5,t3,t3

0000000080007798 <i_7378>:
    80007798:	05c11f03          	lh	t5,92(sp)

000000008000779c <i_7379>:
    8000779c:	01d00f13          	li	t5,29

00000000800077a0 <i_7380>:
    800077a0:	41ef56bb          	sraw	a3,t5,t5

00000000800077a4 <i_7381>:
    800077a4:	00000013          	nop

00000000800077a8 <i_7382>:
    800077a8:	89100e13          	li	t3,-1903

00000000800077ac <i_7383>:
    800077ac:	89f00e93          	li	t4,-1889

00000000800077b0 <i_7384>:
    800077b0:	18412b03          	lw	s6,388(sp)

00000000800077b4 <i_7385>:
    800077b4:	03e898b3          	mulh	a7,a7,t5

00000000800077b8 <i_7386>:
    800077b8:	e8211883          	lh	a7,-382(sp)

00000000800077bc <i_7387>:
    800077bc:	12b13823          	sd	a1,304(sp)

00000000800077c0 <i_7388>:
    800077c0:	001e0e13          	addi	t3,t3,1
    800077c4:	ffcef6e3          	bleu	t3,t4,800077b0 <i_7384>

00000000800077c8 <i_7389>:
    800077c8:	f4c12603          	lw	a2,-180(sp)

00000000800077cc <i_7390>:
    800077cc:	f4415303          	lhu	t1,-188(sp)

00000000800077d0 <i_7391>:
    800077d0:	01165463          	ble	a7,a2,800077d8 <i_7393>

00000000800077d4 <i_7392>:
    800077d4:	0e816303          	lwu	t1,232(sp)

00000000800077d8 <i_7393>:
    800077d8:	006f3633          	sltu	a2,t5,t1

00000000800077dc <i_7394>:
    800077dc:	00816603          	lwu	a2,8(sp)

00000000800077e0 <i_7395>:
    800077e0:	ff710d83          	lb	s11,-9(sp)

00000000800077e4 <i_7396>:
    800077e4:	03b10323          	sb	s11,38(sp)

00000000800077e8 <i_7397>:
    800077e8:	0e9105a3          	sb	s1,235(sp)

00000000800077ec <i_7398>:
    800077ec:	08613023          	sd	t1,128(sp)

00000000800077f0 <i_7399>:
    800077f0:	00cdc863          	blt	s11,a2,80007800 <i_7403>

00000000800077f4 <i_7400>:
    800077f4:	12016603          	lwu	a2,288(sp)

00000000800077f8 <i_7401>:
    800077f8:	01b61e63          	bne	a2,s11,80007814 <i_7408>

00000000800077fc <i_7402>:
    800077fc:	f2c11b23          	sh	a2,-202(sp)

0000000080007800 <i_7403>:
    80007800:	08c12823          	sw	a2,144(sp)

0000000080007804 <i_7404>:
    80007804:	ed013603          	ld	a2,-304(sp)

0000000080007808 <i_7405>:
    80007808:	ee416603          	lwu	a2,-284(sp)

000000008000780c <i_7406>:
    8000780c:	f6c11e23          	sh	a2,-132(sp)

0000000080007810 <i_7407>:
    80007810:	02c629b3          	mulhsu	s3,a2,a2

0000000080007814 <i_7408>:
    80007814:	00665863          	ble	t1,a2,80007824 <i_7412>

0000000080007818 <i_7409>:
    80007818:	40265613          	srai	a2,a2,0x2

000000008000781c <i_7410>:
    8000781c:	3dea43b7          	lui	t2,0x3dea4

0000000080007820 <i_7411>:
    80007820:	027389b3          	mul	s3,t2,t2

0000000080007824 <i_7412>:
    80007824:	f4c12d03          	lw	s10,-180(sp)

0000000080007828 <i_7413>:
    80007828:	002d5b9b          	srliw	s7,s10,0x2

000000008000782c <i_7414>:
    8000782c:	85100313          	li	t1,-1967

0000000080007830 <i_7415>:
    80007830:	85d00613          	li	a2,-1955

0000000080007834 <i_7416>:
    80007834:	01ad0bb3          	add	s7,s10,s10

0000000080007838 <i_7417>:
    80007838:	01012783          	lw	a5,16(sp)

000000008000783c <i_7418>:
    8000783c:	05c11903          	lh	s2,92(sp)

0000000080007840 <i_7419>:
    80007840:	11f10903          	lb	s2,287(sp)

0000000080007844 <i_7420>:
    80007844:	00130313          	addi	t1,t1,1 # 3105d001 <main-0x4efa2fff>
    80007848:	fec316e3          	bne	t1,a2,80007834 <i_7416>

000000008000784c <i_7421>:
    8000784c:	02f11523          	sh	a5,42(sp)

0000000080007850 <i_7422>:
    80007850:	e7211303          	lh	t1,-398(sp)

0000000080007854 <i_7423>:
    80007854:	1d212a23          	sw	s2,468(sp)

0000000080007858 <i_7424>:
    80007858:	0067e263          	bltu	a5,t1,8000785c <i_7425>

000000008000785c <i_7425>:
    8000785c:	17710083          	lb	ra,375(sp)

0000000080007860 <i_7426>:
    80007860:	e2f10923          	sb	a5,-462(sp)

0000000080007864 <i_7427>:
    80007864:	1b015303          	lhu	t1,432(sp)

0000000080007868 <i_7428>:
    80007868:	7ac00f13          	li	t5,1964

000000008000786c <i_7429>:
    8000786c:	7ae00913          	li	s2,1966

0000000080007870 <i_7430>:
    80007870:	00000013          	nop

0000000080007874 <i_7431>:
    80007874:	14611e23          	sh	t1,348(sp)

0000000080007878 <i_7432>:
    80007878:	01ef4263          	blt	t5,t5,8000787c <i_7433>

000000008000787c <i_7433>:
    8000787c:	1ae10c83          	lb	s9,430(sp)

0000000080007880 <i_7434>:
    80007880:	03a31663          	bne	t1,s10,800078ac <i_7444>

0000000080007884 <i_7435>:
    80007884:	00000013          	nop

0000000080007888 <i_7436>:
    80007888:	001f0f13          	addi	t5,t5,1
    8000788c:	ff2f62e3          	bltu	t5,s2,80007870 <i_7430>

0000000080007890 <i_7437>:
    80007890:	03094063          	blt	s2,a6,800078b0 <i_7445>

0000000080007894 <i_7438>:
    80007894:	f2816c83          	lwu	s9,-216(sp)

0000000080007898 <i_7439>:
    80007898:	00697b33          	and	s6,s2,t1

000000008000789c <i_7440>:
    8000789c:	03ef0933          	mul	s2,t5,t5

00000000800078a0 <i_7441>:
    800078a0:	03e330b3          	mulhu	ra,t1,t5

00000000800078a4 <i_7442>:
    800078a4:	05c16483          	lwu	s1,92(sp)

00000000800078a8 <i_7443>:
    800078a8:	f52106a3          	sb	s2,-179(sp)

00000000800078ac <i_7444>:
    800078ac:	00500d93          	li	s11,5

00000000800078b0 <i_7445>:
    800078b0:	41bb5933          	sra	s2,s6,s11

00000000800078b4 <i_7446>:
    800078b4:	0120c1b3          	xor	gp,ra,s2

00000000800078b8 <i_7447>:
    800078b8:	ede11123          	sh	t5,-318(sp)

00000000800078bc <i_7448>:
    800078bc:	01993933          	sltu	s2,s2,s9

00000000800078c0 <i_7449>:
    800078c0:	0090f263          	bleu	s1,ra,800078c4 <i_7450>

00000000800078c4 <i_7450>:
    800078c4:	03b4f1b3          	remu	gp,s1,s11

00000000800078c8 <i_7451>:
    800078c8:	9c534a93          	xori	s5,t1,-1595

00000000800078cc <i_7452>:
    800078cc:	00000013          	nop

00000000800078d0 <i_7453>:
    800078d0:	02332233          	mulhsu	tp,t1,gp

00000000800078d4 <i_7454>:
    800078d4:	88800f13          	li	t5,-1912

00000000800078d8 <i_7455>:
    800078d8:	89600313          	li	t1,-1898

00000000800078dc <i_7456>:
    800078dc:	001f0f13          	addi	t5,t5,1
    800078e0:	fe6f4ee3          	blt	t5,t1,800078dc <i_7456>

00000000800078e4 <i_7457>:
    800078e4:	0ec16583          	lwu	a1,236(sp)

00000000800078e8 <i_7458>:
    800078e8:	0035de63          	ble	gp,a1,80007904 <i_7465>

00000000800078ec <i_7459>:
    800078ec:	f4812d83          	lw	s11,-184(sp)

00000000800078f0 <i_7460>:
    800078f0:	fe013a83          	ld	s5,-32(sp)

00000000800078f4 <i_7461>:
    800078f4:	018c4663          	blt	s8,s8,80007900 <i_7464>

00000000800078f8 <i_7462>:
    800078f8:	018c7a63          	bleu	s8,s8,8000790c <i_7467>

00000000800078fc <i_7463>:
    800078fc:	f0810b83          	lb	s7,-248(sp)

0000000080007900 <i_7464>:
    80007900:	03c12a03          	lw	s4,60(sp)

0000000080007904 <i_7465>:
    80007904:	034fcbb3          	div	s7,t6,s4

0000000080007908 <i_7466>:
    80007908:	02c16a03          	lwu	s4,44(sp)

000000008000790c <i_7467>:
    8000790c:	03dc78bb          	remuw	a7,s8,t4

0000000080007910 <i_7468>:
    80007910:	034a7063          	bleu	s4,s4,80007930 <i_7476>

0000000080007914 <i_7469>:
    80007914:	0348e4bb          	remw	s1,a7,s4

0000000080007918 <i_7470>:
    80007918:	17713823          	sd	s7,368(sp)

000000008000791c <i_7471>:
    8000791c:	014eb7b3          	sltu	a5,t4,s4

0000000080007920 <i_7472>:
    80007920:	00779863          	bne	a5,t2,80007930 <i_7476>

0000000080007924 <i_7473>:
    80007924:	fce11083          	lh	ra,-50(sp)

0000000080007928 <i_7474>:
    80007928:	11711523          	sh	s7,266(sp)

000000008000792c <i_7475>:
    8000792c:	13016183          	lwu	gp,304(sp)

0000000080007930 <i_7476>:
    80007930:	0a611323          	sh	t1,166(sp)

0000000080007934 <i_7477>:
    80007934:	e8813b03          	ld	s6,-376(sp)

0000000080007938 <i_7478>:
    80007938:	4025519b          	sraiw	gp,a0,0x2

000000008000793c <i_7479>:
    8000793c:	00000013          	nop

0000000080007940 <i_7480>:
    80007940:	89c00313          	li	t1,-1892

0000000080007944 <i_7481>:
    80007944:	8b000513          	li	a0,-1872

0000000080007948 <i_7482>:
    80007948:	06012e03          	lw	t3,96(sp)

000000008000794c <i_7483>:
    8000794c:	00a57bb3          	and	s7,a0,a0

0000000080007950 <i_7484>:
    80007950:	00000013          	nop

0000000080007954 <i_7485>:
    80007954:	fa313823          	sd	gp,-80(sp)

0000000080007958 <i_7486>:
    80007958:	00000013          	nop

000000008000795c <i_7487>:
    8000795c:	00000013          	nop

0000000080007960 <i_7488>:
    80007960:	e2013b83          	ld	s7,-480(sp)

0000000080007964 <i_7489>:
    80007964:	036b4a3b          	divw	s4,s6,s6

0000000080007968 <i_7490>:
    80007968:	e6012983          	lw	s3,-416(sp)

000000008000796c <i_7491>:
    8000796c:	15710d23          	sb	s7,346(sp)

0000000080007970 <i_7492>:
    80007970:	17412c83          	lw	s9,372(sp)

0000000080007974 <i_7493>:
    80007974:	00130313          	addi	t1,t1,1
    80007978:	fc6558e3          	ble	t1,a0,80007948 <i_7482>

000000008000797c <i_7494>:
    8000797c:	f2a11823          	sh	a0,-208(sp)

0000000080007980 <i_7495>:
    80007980:	16611323          	sh	t1,358(sp)

0000000080007984 <i_7496>:
    80007984:	002a5c13          	srli	s8,s4,0x2

0000000080007988 <i_7497>:
    80007988:	036ba633          	mulhsu	a2,s7,s6

000000008000798c <i_7498>:
    8000798c:	00300b93          	li	s7,3

0000000080007990 <i_7499>:
    80007990:	017e5ab3          	srl	s5,t3,s7

0000000080007994 <i_7500>:
    80007994:	00000013          	nop

0000000080007998 <i_7501>:
    80007998:	0041919b          	slliw	gp,gp,0x4

000000008000799c <i_7502>:
    8000799c:	7c500f93          	li	t6,1989

00000000800079a0 <i_7503>:
    800079a0:	7d800f13          	li	t5,2008

00000000800079a4 <i_7504>:
    800079a4:	11f11f23          	sh	t6,286(sp)

00000000800079a8 <i_7505>:
    800079a8:	7556a193          	slti	gp,a3,1877

00000000800079ac <i_7506>:
    800079ac:	017f7e63          	bleu	s7,t5,800079c8 <i_7513>

00000000800079b0 <i_7507>:
    800079b0:	30fb4d93          	xori	s11,s6,783

00000000800079b4 <i_7508>:
    800079b4:	03edbab3          	mulhu	s5,s11,t5

00000000800079b8 <i_7509>:
    800079b8:	15816603          	lwu	a2,344(sp)

00000000800079bc <i_7510>:
    800079bc:	ec614483          	lbu	s1,-314(sp)

00000000800079c0 <i_7511>:
    800079c0:	f5211c03          	lh	s8,-174(sp)

00000000800079c4 <i_7512>:
    800079c4:	ee011a83          	lh	s5,-288(sp)

00000000800079c8 <i_7513>:
    800079c8:	91cdba93          	sltiu	s5,s11,-1764

00000000800079cc <i_7514>:
    800079cc:	67693a93          	sltiu	s5,s2,1654

00000000800079d0 <i_7515>:
    800079d0:	03b12c23          	sw	s11,56(sp)

00000000800079d4 <i_7516>:
    800079d4:	1e811903          	lh	s2,488(sp)

00000000800079d8 <i_7517>:
    800079d8:	038a9663          	bne	s5,s8,80007a04 <i_7527>

00000000800079dc <i_7518>:
    800079dc:	00000013          	nop

00000000800079e0 <i_7519>:
    800079e0:	00000013          	nop

00000000800079e4 <i_7520>:
    800079e4:	001f8f93          	addi	t6,t6,1
    800079e8:	fbff7ee3          	bleu	t6,t5,800079a4 <i_7504>

00000000800079ec <i_7521>:
    800079ec:	03300793          	li	a5,51

00000000800079f0 <i_7522>:
    800079f0:	40ff5f33          	sra	t5,t5,a5

00000000800079f4 <i_7523>:
    800079f4:	02f6dc3b          	divuw	s8,a3,a5

00000000800079f8 <i_7524>:
    800079f8:	f3412e03          	lw	t3,-204(sp)

00000000800079fc <i_7525>:
    800079fc:	f2015e03          	lhu	t3,-224(sp)

0000000080007a00 <i_7526>:
    80007a00:	01ce4c63          	blt	t3,t3,80007a18 <i_7532>

0000000080007a04 <i_7527>:
    80007a04:	e7814e03          	lbu	t3,-392(sp)

0000000080007a08 <i_7528>:
    80007a08:	1db10883          	lb	a7,475(sp)

0000000080007a0c <i_7529>:
    80007a0c:	13c13c23          	sd	t3,312(sp)

0000000080007a10 <i_7530>:
    80007a10:	08514e03          	lbu	t3,133(sp)

0000000080007a14 <i_7531>:
    80007a14:	00ecd663          	ble	a4,s9,80007a20 <i_7534>

0000000080007a18 <i_7532>:
    80007a18:	ea813883          	ld	a7,-344(sp)

0000000080007a1c <i_7533>:
    80007a1c:	011e4c63          	blt	t3,a7,80007a34 <i_7539>

0000000080007a20 <i_7534>:
    80007a20:	01de4eb3          	xor	t4,t3,t4

0000000080007a24 <i_7535>:
    80007a24:	07816703          	lwu	a4,120(sp)

0000000080007a28 <i_7536>:
    80007a28:	17013e83          	ld	t4,368(sp)

0000000080007a2c <i_7537>:
    80007a2c:	00ed7663          	bleu	a4,s10,80007a38 <i_7540>

0000000080007a30 <i_7538>:
    80007a30:	02e72733          	mulhsu	a4,a4,a4

0000000080007a34 <i_7539>:
    80007a34:	02e72733          	mulhsu	a4,a4,a4

0000000080007a38 <i_7540>:
    80007a38:	1b310083          	lb	ra,435(sp)

0000000080007a3c <i_7541>:
    80007a3c:	0c111c23          	sh	ra,216(sp)

0000000080007a40 <i_7542>:
    80007a40:	0220d063          	ble	sp,ra,80007a60 <i_7550>

0000000080007a44 <i_7543>:
    80007a44:	02171933          	mulh	s2,a4,ra

0000000080007a48 <i_7544>:
    80007a48:	0e013403          	ld	s0,224(sp)

0000000080007a4c <i_7545>:
    80007a4c:	e7016f03          	lwu	t5,-400(sp)

0000000080007a50 <i_7546>:
    80007a50:	05214283          	lbu	t0,82(sp)

0000000080007a54 <i_7547>:
    80007a54:	17810023          	sb	s8,352(sp)

0000000080007a58 <i_7548>:
    80007a58:	00f787b3          	add	a5,a5,a5

0000000080007a5c <i_7549>:
    80007a5c:	4032dc1b          	sraiw	s8,t0,0x3

0000000080007a60 <i_7550>:
    80007a60:	8ef78793          	addi	a5,a5,-1809

0000000080007a64 <i_7551>:
    80007a64:	05b10783          	lb	a5,91(sp)

0000000080007a68 <i_7552>:
    80007a68:	74a00093          	li	ra,1866

0000000080007a6c <i_7553>:
    80007a6c:	75b00713          	li	a4,1883

0000000080007a70 <i_7554>:
    80007a70:	01600793          	li	a5,22

0000000080007a74 <i_7555>:
    80007a74:	00f79eb3          	sll	t4,a5,a5

0000000080007a78 <i_7556>:
    80007a78:	78000393          	li	t2,1920

0000000080007a7c <i_7557>:
    80007a7c:	78d00f93          	li	t6,1933

0000000080007a80 <i_7558>:
    80007a80:	2907b793          	sltiu	a5,a5,656

0000000080007a84 <i_7559>:
    80007a84:	f2611b03          	lh	s6,-218(sp)

0000000080007a88 <i_7560>:
    80007a88:	00138393          	addi	t2,t2,1 # 3dea4001 <main-0x4215bfff>
    80007a8c:	fff3eae3          	bltu	t2,t6,80007a80 <i_7558>

0000000080007a90 <i_7561>:
    80007a90:	09c12a83          	lw	s5,156(sp)

0000000080007a94 <i_7562>:
    80007a94:	ff611023          	sh	s6,-32(sp)

0000000080007a98 <i_7563>:
    80007a98:	00108093          	addi	ra,ra,1 # 53f94001 <main-0x2c06bfff>
    80007a9c:	fce0cae3          	blt	ra,a4,80007a70 <i_7554>

0000000080007aa0 <i_7564>:
    80007aa0:	e8f12423          	sw	a5,-376(sp)

0000000080007aa4 <i_7565>:
    80007aa4:	03714703          	lbu	a4,55(sp)

0000000080007aa8 <i_7566>:
    80007aa8:	015a87b3          	add	a5,s5,s5

0000000080007aac <i_7567>:
    80007aac:	02a10523          	sb	a0,42(sp)

0000000080007ab0 <i_7568>:
    80007ab0:	08112023          	sw	ra,128(sp)

0000000080007ab4 <i_7569>:
    80007ab4:	06f12423          	sw	a5,104(sp)

0000000080007ab8 <i_7570>:
    80007ab8:	01000a93          	li	s5,16

0000000080007abc <i_7571>:
    80007abc:	415add3b          	sraw	s10,s5,s5

0000000080007ac0 <i_7572>:
    80007ac0:	017d7bb3          	and	s7,s10,s7

0000000080007ac4 <i_7573>:
    80007ac4:	02bae733          	rem	a4,s5,a1

0000000080007ac8 <i_7574>:
    80007ac8:	02fafbbb          	remuw	s7,s5,a5

0000000080007acc <i_7575>:
    80007acc:	02ef8fbb          	mulw	t6,t6,a4

0000000080007ad0 <i_7576>:
    80007ad0:	03812783          	lw	a5,56(sp)

0000000080007ad4 <i_7577>:
    80007ad4:	02f7d063          	ble	a5,a5,80007af4 <i_7585>

0000000080007ad8 <i_7578>:
    80007ad8:	03c7fabb          	remuw	s5,a5,t3

0000000080007adc <i_7579>:
    80007adc:	01ab8863          	beq	s7,s10,80007aec <i_7583>

0000000080007ae0 <i_7580>:
    80007ae0:	e3f12623          	sw	t6,-468(sp)

0000000080007ae4 <i_7581>:
    80007ae4:	02f7ca3b          	divw	s4,a5,a5

0000000080007ae8 <i_7582>:
    80007ae8:	0a813b03          	ld	s6,168(sp)

0000000080007aec <i_7583>:
    80007aec:	eb813783          	ld	a5,-328(sp)

0000000080007af0 <i_7584>:
    80007af0:	02fa80b3          	mul	ra,s5,a5

0000000080007af4 <i_7585>:
    80007af4:	03000413          	li	s0,48

0000000080007af8 <i_7586>:
    80007af8:	008ad7b3          	srl	a5,s5,s0

0000000080007afc <i_7587>:
    80007afc:	034d7263          	bleu	s4,s10,80007b20 <i_7596>

0000000080007b00 <i_7588>:
    80007b00:	0130c263          	blt	ra,s3,80007b04 <i_7589>

0000000080007b04 <i_7589>:
    80007b04:	e2112223          	sw	ra,-476(sp)

0000000080007b08 <i_7590>:
    80007b08:	f6016803          	lwu	a6,-160(sp)

0000000080007b0c <i_7591>:
    80007b0c:	03f6843b          	mulw	s0,a3,t6

0000000080007b10 <i_7592>:
    80007b10:	00679a63          	bne	a5,t1,80007b24 <i_7597>

0000000080007b14 <i_7593>:
    80007b14:	40345093          	srai	ra,s0,0x3

0000000080007b18 <i_7594>:
    80007b18:	028b8463          	beq	s7,s0,80007b40 <i_7604>

0000000080007b1c <i_7595>:
    80007b1c:	0030d69b          	srliw	a3,ra,0x3

0000000080007b20 <i_7596>:
    80007b20:	021b4463          	blt	s6,ra,80007b48 <i_7606>

0000000080007b24 <i_7597>:
    80007b24:	85e42c13          	slti	s8,s0,-1954

0000000080007b28 <i_7598>:
    80007b28:	010b5663          	ble	a6,s6,80007b34 <i_7601>

0000000080007b2c <i_7599>:
    80007b2c:	f5c12703          	lw	a4,-164(sp)

0000000080007b30 <i_7600>:
    80007b30:	f6510d23          	sb	t0,-134(sp)

0000000080007b34 <i_7601>:
    80007b34:	03200293          	li	t0,50

0000000080007b38 <i_7602>:
    80007b38:	00581633          	sll	a2,a6,t0

0000000080007b3c <i_7603>:
    80007b3c:	f2c13823          	sd	a2,-208(sp)

0000000080007b40 <i_7604>:
    80007b40:	1c714703          	lbu	a4,455(sp)

0000000080007b44 <i_7605>:
    80007b44:	56171eb7          	lui	t4,0x56171

0000000080007b48 <i_7606>:
    80007b48:	eac13823          	sd	a2,-336(sp)

0000000080007b4c <i_7607>:
    80007b4c:	1c314383          	lbu	t2,451(sp)

0000000080007b50 <i_7608>:
    80007b50:	007e9863          	bne	t4,t2,80007b60 <i_7612>

0000000080007b54 <i_7609>:
    80007b54:	01367263          	bleu	s3,a2,80007b58 <i_7610>

0000000080007b58 <i_7610>:
    80007b58:	f2e13023          	sd	a4,-224(sp)

0000000080007b5c <i_7611>:
    80007b5c:	04713c23          	sd	t2,88(sp)

0000000080007b60 <i_7612>:
    80007b60:	00c74e63          	blt	a4,a2,80007b7c <i_7619>

0000000080007b64 <i_7613>:
    80007b64:	40475893          	srai	a7,a4,0x4

0000000080007b68 <i_7614>:
    80007b68:	00e88f33          	add	t5,a7,a4

0000000080007b6c <i_7615>:
    80007b6c:	11b10b83          	lb	s7,283(sp)

0000000080007b70 <i_7616>:
    80007b70:	f8c10a23          	sb	a2,-108(sp)

0000000080007b74 <i_7617>:
    80007b74:	004f1393          	slli	t2,t5,0x4

0000000080007b78 <i_7618>:
    80007b78:	1de15a03          	lhu	s4,478(sp)

0000000080007b7c <i_7619>:
    80007b7c:	0273d5bb          	divuw	a1,t2,t2

0000000080007b80 <i_7620>:
    80007b80:	08e11f83          	lh	t6,142(sp)

0000000080007b84 <i_7621>:
    80007b84:	0045d79b          	srliw	a5,a1,0x4

0000000080007b88 <i_7622>:
    80007b88:	01b11b23          	sh	s11,22(sp)

0000000080007b8c <i_7623>:
    80007b8c:	15413423          	sd	s4,328(sp)

0000000080007b90 <i_7624>:
    80007b90:	e2c10f03          	lb	t5,-468(sp)

0000000080007b94 <i_7625>:
    80007b94:	00ff0663          	beq	t5,a5,80007ba0 <i_7628>

0000000080007b98 <i_7626>:
    80007b98:	01735a63          	ble	s7,t1,80007bac <i_7631>

0000000080007b9c <i_7627>:
    80007b9c:	10c12783          	lw	a5,268(sp)

0000000080007ba0 <i_7628>:
    80007ba0:	03ef4263          	blt	t5,t5,80007bc4 <i_7637>

0000000080007ba4 <i_7629>:
    80007ba4:	00ff0663          	beq	t5,a5,80007bb0 <i_7632>

0000000080007ba8 <i_7630>:
    80007ba8:	02f7d063          	ble	a5,a5,80007bc8 <i_7638>

0000000080007bac <i_7631>:
    80007bac:	fa013283          	ld	t0,-96(sp)

0000000080007bb0 <i_7632>:
    80007bb0:	a8347413          	andi	s0,s0,-1405

0000000080007bb4 <i_7633>:
    80007bb4:	00fd6e63          	bltu	s10,a5,80007bd0 <i_7640>

0000000080007bb8 <i_7634>:
    80007bb8:	0044179b          	slliw	a5,s0,0x4

0000000080007bbc <i_7635>:
    80007bbc:	00f7f863          	bleu	a5,a5,80007bcc <i_7639>

0000000080007bc0 <i_7636>:
    80007bc0:	005787b3          	add	a5,a5,t0

0000000080007bc4 <i_7637>:
    80007bc4:	e6c15503          	lhu	a0,-404(sp)

0000000080007bc8 <i_7638>:
    80007bc8:	01a00693          	li	a3,26

0000000080007bcc <i_7639>:
    80007bcc:	00d55d3b          	srlw	s10,a0,a3

0000000080007bd0 <i_7640>:
    80007bd0:	16816283          	lwu	t0,360(sp)

0000000080007bd4 <i_7641>:
    80007bd4:	03a692b3          	mulh	t0,a3,s10

0000000080007bd8 <i_7642>:
    80007bd8:	0056c263          	blt	a3,t0,80007bdc <i_7643>

0000000080007bdc <i_7643>:
    80007bdc:	08b10783          	lb	a5,139(sp)

0000000080007be0 <i_7644>:
    80007be0:	00c00093          	li	ra,12

0000000080007be4 <i_7645>:
    80007be4:	001292b3          	sll	t0,t0,ra

0000000080007be8 <i_7646>:
    80007be8:	01016303          	lwu	t1,16(sp)

0000000080007bec <i_7647>:
    80007bec:	016d1663          	bne	s10,s6,80007bf8 <i_7650>

0000000080007bf0 <i_7648>:
    80007bf0:	01400f93          	li	t6,20

0000000080007bf4 <i_7649>:
    80007bf4:	41f35d3b          	sraw	s10,t1,t6

0000000080007bf8 <i_7650>:
    80007bf8:	037bdbb3          	divu	s7,s7,s7

0000000080007bfc <i_7651>:
    80007bfc:	0da12223          	sw	s10,196(sp)

0000000080007c00 <i_7652>:
    80007c00:	011d6863          	bltu	s10,a7,80007c10 <i_7656>

0000000080007c04 <i_7653>:
    80007c04:	02637bb3          	remu	s7,t1,t1

0000000080007c08 <i_7654>:
    80007c08:	f9711d23          	sh	s7,-102(sp)

0000000080007c0c <i_7655>:
    80007c0c:	d1d8e893          	ori	a7,a7,-739

0000000080007c10 <i_7656>:
    80007c10:	00000013          	nop

0000000080007c14 <i_7657>:
    80007c14:	0da14283          	lbu	t0,218(sp)

0000000080007c18 <i_7658>:
    80007c18:	86a00513          	li	a0,-1942

0000000080007c1c <i_7659>:
    80007c1c:	87c00313          	li	t1,-1924

0000000080007c20 <i_7660>:
    80007c20:	4458ec93          	ori	s9,a7,1093

0000000080007c24 <i_7661>:
    80007c24:	1c813283          	ld	t0,456(sp)

0000000080007c28 <i_7662>:
    80007c28:	e3416c83          	lwu	s9,-460(sp)

0000000080007c2c <i_7663>:
    80007c2c:	40aa89bb          	subw	s3,s5,a0

0000000080007c30 <i_7664>:
    80007c30:	031989bb          	mulw	s3,s3,a7

0000000080007c34 <i_7665>:
    80007c34:	01013403          	ld	s0,16(sp)

0000000080007c38 <i_7666>:
    80007c38:	00150513          	addi	a0,a0,1
    80007c3c:	fea352e3          	ble	a0,t1,80007c20 <i_7660>

0000000080007c40 <i_7667>:
    80007c40:	0139ce63          	blt	s3,s3,80007c5c <i_7674>

0000000080007c44 <i_7668>:
    80007c44:	03300e93          	li	t4,51

0000000080007c48 <i_7669>:
    80007c48:	41d8d533          	sra	a0,a7,t4

0000000080007c4c <i_7670>:
    80007c4c:	0be11983          	lh	s3,190(sp)

0000000080007c50 <i_7671>:
    80007c50:	ed714e83          	lbu	t4,-297(sp)

0000000080007c54 <i_7672>:
    80007c54:	ff112823          	sw	a7,-16(sp)

0000000080007c58 <i_7673>:
    80007c58:	00000013          	nop

0000000080007c5c <i_7674>:
    80007c5c:	40f90933          	sub	s2,s2,a5

0000000080007c60 <i_7675>:
    80007c60:	00687833          	and	a6,a6,t1

0000000080007c64 <i_7676>:
    80007c64:	8d200993          	li	s3,-1838

0000000080007c68 <i_7677>:
    80007c68:	8d600313          	li	t1,-1834

0000000080007c6c <i_7678>:
    80007c6c:	00635c63          	ble	t1,t1,80007c84 <i_7684>

0000000080007c70 <i_7679>:
    80007c70:	1dc14403          	lbu	s0,476(sp)

0000000080007c74 <i_7680>:
    80007c74:	e6a10aa3          	sb	a0,-395(sp)

0000000080007c78 <i_7681>:
    80007c78:	1e612423          	sw	t1,488(sp)

0000000080007c7c <i_7682>:
    80007c7c:	1e014d83          	lbu	s11,480(sp)

0000000080007c80 <i_7683>:
    80007c80:	06c11503          	lh	a0,108(sp)

0000000080007c84 <i_7684>:
    80007c84:	ea416c03          	lwu	s8,-348(sp)

0000000080007c88 <i_7685>:
    80007c88:	02a51533          	mulh	a0,a0,a0

0000000080007c8c <i_7686>:
    80007c8c:	02e522b3          	mulhsu	t0,a0,a4

0000000080007c90 <i_7687>:
    80007c90:	01800a13          	li	s4,24

0000000080007c94 <i_7688>:
    80007c94:	4142d53b          	sraw	a0,t0,s4

0000000080007c98 <i_7689>:
    80007c98:	00198993          	addi	s3,s3,1
    80007c9c:	fc6998e3          	bne	s3,t1,80007c6c <i_7678>

0000000080007ca0 <i_7690>:
    80007ca0:	03c16283          	lwu	t0,60(sp)

0000000080007ca4 <i_7691>:
    80007ca4:	00010203          	lb	tp,0(sp)

0000000080007ca8 <i_7692>:
    80007ca8:	f2511c23          	sh	t0,-200(sp)

0000000080007cac <i_7693>:
    80007cac:	01500b93          	li	s7,21

0000000080007cb0 <i_7694>:
    80007cb0:	01751233          	sll	tp,a0,s7

0000000080007cb4 <i_7695>:
    80007cb4:	87d00613          	li	a2,-1923

0000000080007cb8 <i_7696>:
    80007cb8:	88300293          	li	t0,-1917

0000000080007cbc <i_7697>:
    80007cbc:	03764263          	blt	a2,s7,80007ce0 <i_7705>

0000000080007cc0 <i_7698>:
    80007cc0:	12214a03          	lbu	s4,290(sp)

0000000080007cc4 <i_7699>:
    80007cc4:	e4460a13          	addi	s4,a2,-444 # f26e997c <_end+0x726d9568>

0000000080007cc8 <i_7700>:
    80007cc8:	00160613          	addi	a2,a2,1
    80007ccc:	fe5646e3          	blt	a2,t0,80007cb8 <i_7696>

0000000080007cd0 <i_7701>:
    80007cd0:	ffc11603          	lh	a2,-4(sp)

0000000080007cd4 <i_7702>:
    80007cd4:	00cb8a33          	add	s4,s7,a2

0000000080007cd8 <i_7703>:
    80007cd8:	017c4a63          	blt	s8,s7,80007cec <i_7708>

0000000080007cdc <i_7704>:
    80007cdc:	01500613          	li	a2,21

0000000080007ce0 <i_7705>:
    80007ce0:	00ca1f33          	sll	t5,s4,a2

0000000080007ce4 <i_7706>:
    80007ce4:	0307073b          	mulw	a4,a4,a6

0000000080007ce8 <i_7707>:
    80007ce8:	00ea2733          	slt	a4,s4,a4

0000000080007cec <i_7708>:
    80007cec:	fb110523          	sb	a7,-86(sp)

0000000080007cf0 <i_7709>:
    80007cf0:	fb310783          	lb	a5,-77(sp)

0000000080007cf4 <i_7710>:
    80007cf4:	094102a3          	sb	s4,133(sp)

0000000080007cf8 <i_7711>:
    80007cf8:	fde11323          	sh	t5,-58(sp)

0000000080007cfc <i_7712>:
    80007cfc:	80600793          	li	a5,-2042

0000000080007d00 <i_7713>:
    80007d00:	81800e13          	li	t3,-2024

0000000080007d04 <i_7714>:
    80007d04:	00c71c63          	bne	a4,a2,80007d1c <i_7719>

0000000080007d08 <i_7715>:
    80007d08:	00178793          	addi	a5,a5,1
    80007d0c:	fefe5ce3          	ble	a5,t3,80007d04 <i_7714>

0000000080007d10 <i_7716>:
    80007d10:	00f67633          	and	a2,a2,a5

0000000080007d14 <i_7717>:
    80007d14:	00ce2633          	slt	a2,t3,a2

0000000080007d18 <i_7718>:
    80007d18:	02c61633          	mulh	a2,a2,a2

0000000080007d1c <i_7719>:
    80007d1c:	00c673b3          	and	t2,a2,a2

0000000080007d20 <i_7720>:
    80007d20:	02c6563b          	divuw	a2,a2,a2

0000000080007d24 <i_7721>:
    80007d24:	00c10a03          	lb	s4,12(sp)

0000000080007d28 <i_7722>:
    80007d28:	d0043f17          	auipc	t5,0xd0043

0000000080007d2c <i_7723>:
    80007d2c:	78900993          	li	s3,1929

0000000080007d30 <i_7724>:
    80007d30:	79b00693          	li	a3,1947

0000000080007d34 <i_7725>:
    80007d34:	03ef2233          	mulhsu	tp,t5,t5

0000000080007d38 <i_7726>:
    80007d38:	4146853b          	subw	a0,a3,s4

0000000080007d3c <i_7727>:
    80007d3c:	00600a13          	li	s4,6

0000000080007d40 <i_7728>:
    80007d40:	01445a33          	srl	s4,s0,s4

0000000080007d44 <i_7729>:
    80007d44:	00013a83          	ld	s5,0(sp)

0000000080007d48 <i_7730>:
    80007d48:	09816503          	lwu	a0,152(sp)

0000000080007d4c <i_7731>:
    80007d4c:	03450eb3          	mul	t4,a0,s4

0000000080007d50 <i_7732>:
    80007d50:	01000a13          	li	s4,16

0000000080007d54 <i_7733>:
    80007d54:	014e9233          	sll	tp,t4,s4

0000000080007d58 <i_7734>:
    80007d58:	00198993          	addi	s3,s3,1
    80007d5c:	fcd9ece3          	bltu	s3,a3,80007d34 <i_7725>

0000000080007d60 <i_7735>:
    80007d60:	00842433          	slt	s0,s0,s0

0000000080007d64 <i_7736>:
    80007d64:	02826433          	rem	s0,tp,s0

0000000080007d68 <i_7737>:
    80007d68:	f3215403          	lhu	s0,-206(sp)

0000000080007d6c <i_7738>:
    80007d6c:	10c13023          	sd	a2,256(sp)

0000000080007d70 <i_7739>:
    80007d70:	81243813          	sltiu	a6,s0,-2030

0000000080007d74 <i_7740>:
    80007d74:	f2811423          	sh	s0,-216(sp)

0000000080007d78 <i_7741>:
    80007d78:	0b013403          	ld	s0,176(sp)

0000000080007d7c <i_7742>:
    80007d7c:	02816603          	lwu	a2,40(sp)

0000000080007d80 <i_7743>:
    80007d80:	fec11283          	lh	t0,-20(sp)

0000000080007d84 <i_7744>:
    80007d84:	e7a11b23          	sh	s10,-394(sp)

0000000080007d88 <i_7745>:
    80007d88:	02f00813          	li	a6,47

0000000080007d8c <i_7746>:
    80007d8c:	01045833          	srl	a6,s0,a6

0000000080007d90 <i_7747>:
    80007d90:	0132e863          	bltu	t0,s3,80007da0 <i_7751>

0000000080007d94 <i_7748>:
    80007d94:	03082633          	mulhsu	a2,a6,a6

0000000080007d98 <i_7749>:
    80007d98:	0e816183          	lwu	gp,232(sp)

0000000080007d9c <i_7750>:
    80007d9c:	00345463          	ble	gp,s0,80007da4 <i_7752>

0000000080007da0 <i_7751>:
    80007da0:	00cf9a63          	bne	t6,a2,80007db4 <i_7756>

0000000080007da4 <i_7752>:
    80007da4:	fa412903          	lw	s2,-92(sp)

0000000080007da8 <i_7753>:
    80007da8:	18f10183          	lb	gp,399(sp)

0000000080007dac <i_7754>:
    80007dac:	01018833          	add	a6,gp,a6

0000000080007db0 <i_7755>:
    80007db0:	f0815203          	lhu	tp,-248(sp)

0000000080007db4 <i_7756>:
    80007db4:	f6812603          	lw	a2,-152(sp)

0000000080007db8 <i_7757>:
    80007db8:	4040d213          	srai	tp,ra,0x4

0000000080007dbc <i_7758>:
    80007dbc:	024d9db3          	mulh	s11,s11,tp

0000000080007dc0 <i_7759>:
    80007dc0:	01b61263          	bne	a2,s11,80007dc4 <i_7760>

0000000080007dc4 <i_7760>:
    80007dc4:	f2a14b03          	lbu	s6,-214(sp)

0000000080007dc8 <i_7761>:
    80007dc8:	00c24463          	blt	tp,a2,80007dd0 <i_7763>

0000000080007dcc <i_7762>:
    80007dcc:	19412603          	lw	a2,404(sp)

0000000080007dd0 <i_7763>:
    80007dd0:	f8c12423          	sw	a2,-120(sp)

0000000080007dd4 <i_7764>:
    80007dd4:	1c411903          	lh	s2,452(sp)

0000000080007dd8 <i_7765>:
    80007dd8:	01626333          	or	t1,tp,s6

0000000080007ddc <i_7766>:
    80007ddc:	02678263          	beq	a5,t1,80007e00 <i_7775>

0000000080007de0 <i_7767>:
    80007de0:	0f813483          	ld	s1,248(sp)

0000000080007de4 <i_7768>:
    80007de4:	00db4b33          	xor	s6,s6,a3

0000000080007de8 <i_7769>:
    80007de8:	ffa11303          	lh	t1,-6(sp)

0000000080007dec <i_7770>:
    80007dec:	01900613          	li	a2,25

0000000080007df0 <i_7771>:
    80007df0:	00c2923b          	sllw	tp,t0,a2

0000000080007df4 <i_7772>:
    80007df4:	6bb90c13          	addi	s8,s2,1723

0000000080007df8 <i_7773>:
    80007df8:	07c10623          	sb	t3,108(sp)

0000000080007dfc <i_7774>:
    80007dfc:	01100e13          	li	t3,17

0000000080007e00 <i_7775>:
    80007e00:	01cdd63b          	srlw	a2,s11,t3

0000000080007e04 <i_7776>:
    80007e04:	00b35863          	ble	a1,t1,80007e14 <i_7780>

0000000080007e08 <i_7777>:
    80007e08:	f100b5b7          	lui	a1,0xf100b

0000000080007e0c <i_7778>:
    80007e0c:	01014583          	lbu	a1,16(sp)

0000000080007e10 <i_7779>:
    80007e10:	01659e63          	bne	a1,s6,80007e2c <i_7786>

0000000080007e14 <i_7780>:
    80007e14:	0a412583          	lw	a1,164(sp)

0000000080007e18 <i_7781>:
    80007e18:	00700b13          	li	s6,7

0000000080007e1c <i_7782>:
    80007e1c:	016595bb          	sllw	a1,a1,s6

0000000080007e20 <i_7783>:
    80007e20:	f2b108a3          	sb	a1,-207(sp)

0000000080007e24 <i_7784>:
    80007e24:	12f10183          	lb	gp,303(sp)

0000000080007e28 <i_7785>:
    80007e28:	f0611b83          	lh	s7,-250(sp)

0000000080007e2c <i_7786>:
    80007e2c:	1e014583          	lbu	a1,480(sp)

0000000080007e30 <i_7787>:
    80007e30:	fc215583          	lhu	a1,-62(sp)

0000000080007e34 <i_7788>:
    80007e34:	00842433          	slt	s0,s0,s0

0000000080007e38 <i_7789>:
    80007e38:	75900d93          	li	s11,1881

0000000080007e3c <i_7790>:
    80007e3c:	76d00d13          	li	s10,1901

0000000080007e40 <i_7791>:
    80007e40:	1cb13c23          	sd	a1,472(sp)

0000000080007e44 <i_7792>:
    80007e44:	00000013          	nop

0000000080007e48 <i_7793>:
    80007e48:	1c810723          	sb	s0,462(sp)

0000000080007e4c <i_7794>:
    80007e4c:	83a00313          	li	t1,-1990

0000000080007e50 <i_7795>:
    80007e50:	84400413          	li	s0,-1980

0000000080007e54 <i_7796>:
    80007e54:	eb411f03          	lh	t5,-332(sp)

0000000080007e58 <i_7797>:
    80007e58:	028fe063          	bltu	t6,s0,80007e78 <i_7803>

0000000080007e5c <i_7798>:
    80007e5c:	00130313          	addi	t1,t1,1
    80007e60:	fe645ae3          	ble	t1,s0,80007e54 <i_7796>

0000000080007e64 <i_7799>:
    80007e64:	13611c03          	lh	s8,310(sp)

0000000080007e68 <i_7800>:
    80007e68:	001d8d93          	addi	s11,s11,1
    80007e6c:	fdad9ae3          	bne	s11,s10,80007e40 <i_7791>

0000000080007e70 <i_7801>:
    80007e70:	e8613023          	sd	t1,-384(sp)

0000000080007e74 <i_7802>:
    80007e74:	12012303          	lw	t1,288(sp)

0000000080007e78 <i_7803>:
    80007e78:	001fdf93          	srli	t6,t6,0x1

0000000080007e7c <i_7804>:
    80007e7c:	ec015783          	lhu	a5,-320(sp)

0000000080007e80 <i_7805>:
    80007e80:	008ff863          	bleu	s0,t6,80007e90 <i_7809>

0000000080007e84 <i_7806>:
    80007e84:	0e013183          	ld	gp,224(sp)

0000000080007e88 <i_7807>:
    80007e88:	03c10903          	lb	s2,60(sp)

0000000080007e8c <i_7808>:
    80007e8c:	06e15603          	lhu	a2,110(sp)

0000000080007e90 <i_7809>:
    80007e90:	05813c23          	sd	s8,88(sp)

0000000080007e94 <i_7810>:
    80007e94:	02b00893          	li	a7,43

0000000080007e98 <i_7811>:
    80007e98:	011f1ab3          	sll	s5,t5,a7

0000000080007e9c <i_7812>:
    80007e9c:	09011623          	sh	a6,140(sp)

0000000080007ea0 <i_7813>:
    80007ea0:	00000013          	nop

0000000080007ea4 <i_7814>:
    80007ea4:	00bfcfb3          	xor	t6,t6,a1

0000000080007ea8 <i_7815>:
    80007ea8:	8a800293          	li	t0,-1880

0000000080007eac <i_7816>:
    80007eac:	8b600813          	li	a6,-1866

0000000080007eb0 <i_7817>:
    80007eb0:	03d19eb3          	mulh	t4,gp,t4

0000000080007eb4 <i_7818>:
    80007eb4:	00000013          	nop

0000000080007eb8 <i_7819>:
    80007eb8:	001edf13          	srli	t5,t4,0x1

0000000080007ebc <i_7820>:
    80007ebc:	026f0263          	beq	t5,t1,80007ee0 <i_7828>

0000000080007ec0 <i_7821>:
    80007ec0:	00128293          	addi	t0,t0,1
    80007ec4:	fe5816e3          	bne	a6,t0,80007eb0 <i_7817>

0000000080007ec8 <i_7822>:
    80007ec8:	03e30263          	beq	t1,t5,80007eec <i_7831>

0000000080007ecc <i_7823>:
    80007ecc:	0261c83b          	divw	a6,gp,t1

0000000080007ed0 <i_7824>:
    80007ed0:	08d10183          	lb	gp,141(sp)

0000000080007ed4 <i_7825>:
    80007ed4:	0307e063          	bltu	a5,a6,80007ef4 <i_7833>

0000000080007ed8 <i_7826>:
    80007ed8:	eb815b03          	lhu	s6,-328(sp)

0000000080007edc <i_7827>:
    80007edc:	410f0dbb          	subw	s11,t5,a6

0000000080007ee0 <i_7828>:
    80007ee0:	09211983          	lh	s3,146(sp)

0000000080007ee4 <i_7829>:
    80007ee4:	ef412b03          	lw	s6,-268(sp)

0000000080007ee8 <i_7830>:
    80007ee8:	e4813803          	ld	a6,-440(sp)

0000000080007eec <i_7831>:
    80007eec:	4038549b          	sraiw	s1,a6,0x3

0000000080007ef0 <i_7832>:
    80007ef0:	00300f93          	li	t6,3

0000000080007ef4 <i_7833>:
    80007ef4:	01f39fbb          	sllw	t6,t2,t6

0000000080007ef8 <i_7834>:
    80007ef8:	e2011f83          	lh	t6,-480(sp)

0000000080007efc <i_7835>:
    80007efc:	009fce63          	blt	t6,s1,80007f18 <i_7842>

0000000080007f00 <i_7836>:
    80007f00:	0bf12a23          	sw	t6,180(sp)

0000000080007f04 <i_7837>:
    80007f04:	03f0afb3          	mulhsu	t6,ra,t6

0000000080007f08 <i_7838>:
    80007f08:	03ffefb3          	rem	t6,t6,t6

0000000080007f0c <i_7839>:
    80007f0c:	404fd793          	srai	a5,t6,0x4

0000000080007f10 <i_7840>:
    80007f10:	feb10e03          	lb	t3,-21(sp)

0000000080007f14 <i_7841>:
    80007f14:	63b4849b          	addiw	s1,s1,1595

0000000080007f18 <i_7842>:
    80007f18:	00300893          	li	a7,3

0000000080007f1c <i_7843>:
    80007f1c:	011e59bb          	srlw	s3,t3,a7

0000000080007f20 <i_7844>:
    80007f20:	019f8663          	beq	t6,s9,80007f2c <i_7847>

0000000080007f24 <i_7845>:
    80007f24:	01ca1463          	bne	s4,t3,80007f2c <i_7847>

0000000080007f28 <i_7846>:
    80007f28:	e9013f83          	ld	t6,-368(sp)

0000000080007f2c <i_7847>:
    80007f2c:	f1114d83          	lbu	s11,-239(sp)

0000000080007f30 <i_7848>:
    80007f30:	09812e03          	lw	t3,152(sp)

0000000080007f34 <i_7849>:
    80007f34:	002fa433          	slt	s0,t6,sp

0000000080007f38 <i_7850>:
    80007f38:	e9b109a3          	sb	s11,-365(sp)

0000000080007f3c <i_7851>:
    80007f3c:	01c78663          	beq	a5,t3,80007f48 <i_7854>

0000000080007f40 <i_7852>:
    80007f40:	4dfe4237          	lui	tp,0x4dfe4

0000000080007f44 <i_7853>:
    80007f44:	01f9d263          	ble	t6,s3,80007f48 <i_7854>

0000000080007f48 <i_7854>:
    80007f48:	10b14183          	lbu	gp,267(sp)

0000000080007f4c <i_7855>:
    80007f4c:	003209b3          	add	s3,tp,gp

0000000080007f50 <i_7856>:
    80007f50:	06412c23          	sw	tp,120(sp)

0000000080007f54 <i_7857>:
    80007f54:	0137cdb3          	xor	s11,a5,s3

0000000080007f58 <i_7858>:
    80007f58:	02426263          	bltu	tp,tp,80007f7c <i_7867>

0000000080007f5c <i_7859>:
    80007f5c:	0031e1b3          	or	gp,gp,gp

0000000080007f60 <i_7860>:
    80007f60:	024d723b          	remuw	tp,s10,tp

0000000080007f64 <i_7861>:
    80007f64:	0339e5bb          	remw	a1,s3,s3

0000000080007f68 <i_7862>:
    80007f68:	f0411d03          	lh	s10,-252(sp)

0000000080007f6c <i_7863>:
    80007f6c:	03f5c463          	blt	a1,t6,80007f94 <i_7873>

0000000080007f70 <i_7864>:
    80007f70:	03f5ba33          	mulhu	s4,a1,t6

0000000080007f74 <i_7865>:
    80007f74:	404d5e9b          	sraiw	t4,s10,0x4

0000000080007f78 <i_7866>:
    80007f78:	13410523          	sb	s4,298(sp)

0000000080007f7c <i_7867>:
    80007f7c:	01614c03          	lbu	s8,22(sp)

0000000080007f80 <i_7868>:
    80007f80:	e3514503          	lbu	a0,-459(sp)

0000000080007f84 <i_7869>:
    80007f84:	08813583          	ld	a1,136(sp)

0000000080007f88 <i_7870>:
    80007f88:	1cb14383          	lbu	t2,459(sp)

0000000080007f8c <i_7871>:
    80007f8c:	014ecc63          	blt	t4,s4,80007fa4 <i_7877>

0000000080007f90 <i_7872>:
    80007f90:	0dd10923          	sb	t4,210(sp)

0000000080007f94 <i_7873>:
    80007f94:	0eb10a03          	lb	s4,235(sp)

0000000080007f98 <i_7874>:
    80007f98:	00259993          	slli	s3,a1,0x2

0000000080007f9c <i_7875>:
    80007f9c:	034e4e33          	div	t3,t3,s4

0000000080007fa0 <i_7876>:
    80007fa0:	ebc16c03          	lwu	s8,-324(sp)

0000000080007fa4 <i_7877>:
    80007fa4:	fe815983          	lhu	s3,-24(sp)

0000000080007fa8 <i_7878>:
    80007fa8:	03500213          	li	tp,53

0000000080007fac <i_7879>:
    80007fac:	404adab3          	sra	s5,s5,tp

0000000080007fb0 <i_7880>:
    80007fb0:	0075ba33          	sltu	s4,a1,t2

0000000080007fb4 <i_7881>:
    80007fb4:	001a8863          	beq	s5,ra,80007fc4 <i_7885>

0000000080007fb8 <i_7882>:
    80007fb8:	10314a83          	lbu	s5,259(sp)

0000000080007fbc <i_7883>:
    80007fbc:	00129a1b          	slliw	s4,t0,0x1

0000000080007fc0 <i_7884>:
    80007fc0:	f3412a23          	sw	s4,-204(sp)

0000000080007fc4 <i_7885>:
    80007fc4:	06710c23          	sb	t2,120(sp)

0000000080007fc8 <i_7886>:
    80007fc8:	08813783          	ld	a5,136(sp)

0000000080007fcc <i_7887>:
    80007fcc:	8b900213          	li	tp,-1863

0000000080007fd0 <i_7888>:
    80007fd0:	8be00393          	li	t2,-1858

0000000080007fd4 <i_7889>:
    80007fd4:	f7413c23          	sd	s4,-136(sp)

0000000080007fd8 <i_7890>:
    80007fd8:	00120213          	addi	tp,tp,1 # 4dfe4001 <main-0x3201bfff>
    80007fdc:	fe43dce3          	ble	tp,t2,80007fd4 <i_7889>

0000000080007fe0 <i_7891>:
    80007fe0:	00498663          	beq	s3,tp,80007fec <i_7894>

0000000080007fe4 <i_7892>:
    80007fe4:	0ce14703          	lbu	a4,206(sp)

0000000080007fe8 <i_7893>:
    80007fe8:	06615d83          	lhu	s11,102(sp)

0000000080007fec <i_7894>:
    80007fec:	03b7f063          	bleu	s11,a5,8000800c <i_7902>

0000000080007ff0 <i_7895>:
    80007ff0:	f8514f83          	lbu	t6,-123(sp)

0000000080007ff4 <i_7896>:
    80007ff4:	01313c23          	sd	s3,24(sp)

0000000080007ff8 <i_7897>:
    80007ff8:	014b9863          	bne	s7,s4,80008008 <i_7901>

0000000080007ffc <i_7898>:
    80007ffc:	15b10f83          	lb	t6,347(sp)

0000000080008000 <i_7899>:
    80008000:	eac16a03          	lwu	s4,-340(sp)

0000000080008004 <i_7900>:
    80008004:	0c011b83          	lh	s7,192(sp)

0000000080008008 <i_7901>:
    80008008:	034a3a33          	mulhu	s4,s4,s4

000000008000800c <i_7902>:
    8000800c:	0f711523          	sh	s7,234(sp)

0000000080008010 <i_7903>:
    80008010:	4010d093          	srai	ra,ra,0x1

0000000080008014 <i_7904>:
    80008014:	00e00093          	li	ra,14

0000000080008018 <i_7905>:
    80008018:	001bda3b          	srlw	s4,s7,ra

000000008000801c <i_7906>:
    8000801c:	018c0c33          	add	s8,s8,s8

0000000080008020 <i_7907>:
    80008020:	0210f933          	remu	s2,ra,ra

0000000080008024 <i_7908>:
    80008024:	fd811923          	sh	s8,-46(sp)

0000000080008028 <i_7909>:
    80008028:	018a1a63          	bne	s4,s8,8000803c <i_7914>

000000008000802c <i_7910>:
    8000802c:	11012903          	lw	s2,272(sp)

0000000080008030 <i_7911>:
    80008030:	03d10803          	lb	a6,61(sp)

0000000080008034 <i_7912>:
    80008034:	03986cb3          	rem	s9,a6,s9

0000000080008038 <i_7913>:
    80008038:	039cfabb          	remuw	s5,s9,s9

000000008000803c <i_7914>:
    8000803c:	0c016303          	lwu	t1,192(sp)

0000000080008040 <i_7915>:
    80008040:	03e10083          	lb	ra,62(sp)

0000000080008044 <i_7916>:
    80008044:	02132a33          	mulhsu	s4,t1,ra

0000000080008048 <i_7917>:
    80008048:	0e813b03          	ld	s6,232(sp)

000000008000804c <i_7918>:
    8000804c:	00409e93          	slli	t4,ra,0x4

0000000080008050 <i_7919>:
    80008050:	08611123          	sh	t1,130(sp)

0000000080008054 <i_7920>:
    80008054:	00613023          	sd	t1,0(sp)

0000000080008058 <i_7921>:
    80008058:	85400d93          	li	s11,-1964

000000008000805c <i_7922>:
    8000805c:	85c00313          	li	t1,-1956

0000000080008060 <i_7923>:
    80008060:	0c013183          	ld	gp,192(sp)

0000000080008064 <i_7924>:
    80008064:	406e81bb          	subw	gp,t4,t1

0000000080008068 <i_7925>:
    80008068:	f3813f83          	ld	t6,-200(sp)

000000008000806c <i_7926>:
    8000806c:	401f87bb          	subw	a5,t6,ra

0000000080008070 <i_7927>:
    80008070:	03df8cbb          	mulw	s9,t6,t4

0000000080008074 <i_7928>:
    80008074:	f7e14083          	lbu	ra,-130(sp)

0000000080008078 <i_7929>:
    80008078:	0c416083          	lwu	ra,196(sp)

000000008000807c <i_7930>:
    8000807c:	f0914f83          	lbu	t6,-247(sp)

0000000080008080 <i_7931>:
    80008080:	ef610e83          	lb	t4,-266(sp)

0000000080008084 <i_7932>:
    80008084:	03e12023          	sw	t5,32(sp)

0000000080008088 <i_7933>:
    80008088:	021ec63b          	divw	a2,t4,ra

000000008000808c <i_7934>:
    8000808c:	0016561b          	srliw	a2,a2,0x1

0000000080008090 <i_7935>:
    80008090:	001d8d93          	addi	s11,s11,1
    80008094:	fdb356e3          	ble	s11,t1,80008060 <i_7923>

0000000080008098 <i_7936>:
    80008098:	00000013          	nop

000000008000809c <i_7937>:
    8000809c:	02cedfbb          	divuw	t6,t4,a2

00000000800080a0 <i_7938>:
    800080a0:	00231313          	slli	t1,t1,0x2

00000000800080a4 <i_7939>:
    800080a4:	0bd10123          	sb	t4,162(sp)

00000000800080a8 <i_7940>:
    800080a8:	05812e83          	lw	t4,88(sp)

00000000800080ac <i_7941>:
    800080ac:	34cdfd93          	andi	s11,s11,844

00000000800080b0 <i_7942>:
    800080b0:	00b10503          	lb	a0,11(sp)

00000000800080b4 <i_7943>:
    800080b4:	eac16783          	lwu	a5,-340(sp)

00000000800080b8 <i_7944>:
    800080b8:	1b711a23          	sh	s7,436(sp)

00000000800080bc <i_7945>:
    800080bc:	e4413023          	sd	tp,-448(sp)

00000000800080c0 <i_7946>:
    800080c0:	036b6b3b          	remw	s6,s6,s6

00000000800080c4 <i_7947>:
    800080c4:	18813e83          	ld	t4,392(sp)

00000000800080c8 <i_7948>:
    800080c8:	00fee463          	bltu	t4,a5,800080d0 <i_7950>

00000000800080cc <i_7949>:
    800080cc:	005b4a63          	blt	s6,t0,800080e0 <i_7954>

00000000800080d0 <i_7950>:
    800080d0:	03720063          	beq	tp,s7,800080f0 <i_7958>

00000000800080d4 <i_7951>:
    800080d4:	e6013803          	ld	a6,-416(sp)

00000000800080d8 <i_7952>:
    800080d8:	fa914903          	lbu	s2,-87(sp)

00000000800080dc <i_7953>:
    800080dc:	1bd13423          	sd	t4,424(sp)

00000000800080e0 <i_7954>:
    800080e0:	f0c16803          	lwu	a6,-244(sp)

00000000800080e4 <i_7955>:
    800080e4:	97da889b          	addiw	a7,s5,-1667

00000000800080e8 <i_7956>:
    800080e8:	03288a33          	mul	s4,a7,s2

00000000800080ec <i_7957>:
    800080ec:	ffa11d83          	lh	s11,-6(sp)

00000000800080f0 <i_7958>:
    800080f0:	17411e23          	sh	s4,380(sp)

00000000800080f4 <i_7959>:
    800080f4:	af7dc2b7          	lui	t0,0xaf7dc

00000000800080f8 <i_7960>:
    800080f8:	01b66c63          	bltu	a2,s11,80008110 <i_7966>

00000000800080fc <i_7961>:
    800080fc:	03a13c23          	sd	s10,56(sp)

0000000080008100 <i_7962>:
    80008100:	e8510623          	sb	t0,-372(sp)

0000000080008104 <i_7963>:
    80008104:	030e94b3          	mulh	s1,t4,a6

0000000080008108 <i_7964>:
    80008108:	1f413023          	sd	s4,480(sp)

000000008000810c <i_7965>:
    8000810c:	41de8ebb          	subw	t4,t4,t4

0000000080008110 <i_7966>:
    80008110:	03da0a3b          	mulw	s4,s4,t4

0000000080008114 <i_7967>:
    80008114:	f1016703          	lwu	a4,-240(sp)

0000000080008118 <i_7968>:
    80008118:	01b10f03          	lb	t5,27(sp)

000000008000811c <i_7969>:
    8000811c:	029a1463          	bne	s4,s1,80008144 <i_7979>

0000000080008120 <i_7970>:
    80008120:	005a2cb3          	slt	s9,s4,t0

0000000080008124 <i_7971>:
    80008124:	11013f03          	ld	t5,272(sp)

0000000080008128 <i_7972>:
    80008128:	015f5c63          	ble	s5,t5,80008140 <i_7978>

000000008000812c <i_7973>:
    8000812c:	0052e463          	bltu	t0,t0,80008134 <i_7975>

0000000080008130 <i_7974>:
    80008130:	0382dc3b          	divuw	s8,t0,s8

0000000080008134 <i_7975>:
    80008134:	ef811923          	sh	s8,-270(sp)

0000000080008138 <i_7976>:
    80008138:	04611b83          	lh	s7,70(sp)

000000008000813c <i_7977>:
    8000813c:	00000013          	nop

0000000080008140 <i_7978>:
    80008140:	06728b1b          	addiw	s6,t0,103

0000000080008144 <i_7979>:
    80008144:	00000013          	nop

0000000080008148 <i_7980>:
    80008148:	003f1b9b          	slliw	s7,t5,0x3

000000008000814c <i_7981>:
    8000814c:	82600513          	li	a0,-2010

0000000080008150 <i_7982>:
    80008150:	83500293          	li	t0,-1995

0000000080008154 <i_7983>:
    80008154:	017b0c33          	add	s8,s6,s7

0000000080008158 <i_7984>:
    80008158:	03428d3b          	mulw	s10,t0,s4

000000008000815c <i_7985>:
    8000815c:	79e00f13          	li	t5,1950

0000000080008160 <i_7986>:
    80008160:	7ad00f93          	li	t6,1965

0000000080008164 <i_7987>:
    80008164:	003d5a1b          	srliw	s4,s10,0x3

0000000080008168 <i_7988>:
    80008168:	0bd14303          	lbu	t1,189(sp)

000000008000816c <i_7989>:
    8000816c:	016d0b33          	add	s6,s10,s6

0000000080008170 <i_7990>:
    80008170:	001f0f13          	addi	t5,t5,1 # 5004ad29 <main-0x2ffb52d7>
    80008174:	ffeff8e3          	bleu	t5,t6,80008164 <i_7987>

0000000080008178 <i_7991>:
    80008178:	e7612e23          	sw	s6,-388(sp)

000000008000817c <i_7992>:
    8000817c:	00150513          	addi	a0,a0,1
    80008180:	fc556ae3          	bltu	a0,t0,80008154 <i_7983>

0000000080008184 <i_7993>:
    80008184:	07215d03          	lhu	s10,114(sp)

0000000080008188 <i_7994>:
    80008188:	003a1c13          	slli	s8,s4,0x3

000000008000818c <i_7995>:
    8000818c:	84200e93          	li	t4,-1982

0000000080008190 <i_7996>:
    80008190:	85500793          	li	a5,-1963

0000000080008194 <i_7997>:
    80008194:	001e8e93          	addi	t4,t4,1 # 56171001 <main-0x29e8efff>
    80008198:	fefeeee3          	bltu	t4,a5,80008194 <i_7997>

000000008000819c <i_7998>:
    8000819c:	eec13023          	sd	a2,-288(sp)

00000000800081a0 <i_7999>:
    800081a0:	07012c03          	lw	s8,112(sp)

00000000800081a4 <i_8000>:
    800081a4:	01e00c13          	li	s8,30

00000000800081a8 <i_8001>:
    800081a8:	01861ab3          	sll	s5,a2,s8

00000000800081ac <i_8002>:
    800081ac:	f8c12783          	lw	a5,-116(sp)

00000000800081b0 <i_8003>:
    800081b0:	ef016903          	lwu	s2,-272(sp)

00000000800081b4 <i_8004>:
    800081b4:	85800c13          	li	s8,-1960

00000000800081b8 <i_8005>:
    800081b8:	86b00a93          	li	s5,-1941

00000000800081bc <i_8006>:
    800081bc:	02f7c7b3          	div	a5,a5,a5

00000000800081c0 <i_8007>:
    800081c0:	001c0c13          	addi	s8,s8,1
    800081c4:	ff8adce3          	ble	s8,s5,800081bc <i_8006>

00000000800081c8 <i_8008>:
    800081c8:	00f927b3          	slt	a5,s2,a5

00000000800081cc <i_8009>:
    800081cc:	00f7d463          	ble	a5,a5,800081d4 <i_8011>

00000000800081d0 <i_8010>:
    800081d0:	0cf10223          	sb	a5,196(sp)

00000000800081d4 <i_8011>:
    800081d4:	02400793          	li	a5,36

00000000800081d8 <i_8012>:
    800081d8:	00f7d7b3          	srl	a5,a5,a5

00000000800081dc <i_8013>:
    800081dc:	02f78463          	beq	a5,a5,80008204 <i_8023>

00000000800081e0 <i_8014>:
    800081e0:	01500513          	li	a0,21

00000000800081e4 <i_8015>:
    800081e4:	00a69a3b          	sllw	s4,a3,a0

00000000800081e8 <i_8016>:
    800081e8:	01300993          	li	s3,19

00000000800081ec <i_8017>:
    800081ec:	4137d5b3          	sra	a1,a5,s3

00000000800081f0 <i_8018>:
    800081f0:	d4058993          	addi	s3,a1,-704 # fffffffff100ad40 <_end+0xffffffff70ffa92c>

00000000800081f4 <i_8019>:
    800081f4:	1af11b23          	sh	a5,438(sp)

00000000800081f8 <i_8020>:
    800081f8:	02f5ccb3          	div	s9,a1,a5

00000000800081fc <i_8021>:
    800081fc:	f7913023          	sd	s9,-160(sp)

0000000080008200 <i_8022>:
    80008200:	00000013          	nop

0000000080008204 <i_8023>:
    80008204:	00000013          	nop

0000000080008208 <i_8024>:
    80008208:	00000013          	nop

000000008000820c <i_8025>:
    8000820c:	8b400793          	li	a5,-1868

0000000080008210 <i_8026>:
    80008210:	8c700513          	li	a0,-1849

0000000080008214 <i_8027>:
    80008214:	413485bb          	subw	a1,s1,s3

0000000080008218 <i_8028>:
    80008218:	f2b11323          	sh	a1,-218(sp)

000000008000821c <i_8029>:
    8000821c:	00178793          	addi	a5,a5,1
    80008220:	fef57ae3          	bleu	a5,a0,80008214 <i_8027>

0000000080008224 <i_8030>:
    80008224:	10b10323          	sb	a1,262(sp)

0000000080008228 <i_8031>:
    80008228:	013d0e63          	beq	s10,s3,80008244 <i_8038>

000000008000822c <i_8032>:
    8000822c:	00b10c83          	lb	s9,11(sp)

0000000080008230 <i_8033>:
    80008230:	0f416c83          	lwu	s9,244(sp)

0000000080008234 <i_8034>:
    80008234:	003cd513          	srli	a0,s9,0x3

0000000080008238 <i_8035>:
    80008238:	00299993          	slli	s3,s3,0x2

000000008000823c <i_8036>:
    8000823c:	f5013983          	ld	s3,-176(sp)

0000000080008240 <i_8037>:
    80008240:	0be15a83          	lhu	s5,190(sp)

0000000080008244 <i_8038>:
    80008244:	033a8bb3          	mul	s7,s5,s3

0000000080008248 <i_8039>:
    80008248:	04816203          	lwu	tp,72(sp)

000000008000824c <i_8040>:
    8000824c:	0139c9b3          	xor	s3,s3,s3

0000000080008250 <i_8041>:
    80008250:	0f311f23          	sh	s3,254(sp)

0000000080008254 <i_8042>:
    80008254:	02a7c53b          	divw	a0,a5,a0

0000000080008258 <i_8043>:
    80008258:	87600993          	li	s3,-1930

000000008000825c <i_8044>:
    8000825c:	87f00b93          	li	s7,-1921

0000000080008260 <i_8045>:
    80008260:	03798b33          	mul	s6,s3,s7

0000000080008264 <i_8046>:
    80008264:	15e15883          	lhu	a7,350(sp)

0000000080008268 <i_8047>:
    80008268:	aec98e9b          	addiw	t4,s3,-1300

000000008000826c <i_8048>:
    8000826c:	00651e63          	bne	a0,t1,80008288 <i_8055>

0000000080008270 <i_8049>:
    80008270:	e7411703          	lh	a4,-396(sp)

0000000080008274 <i_8050>:
    80008274:	00000013          	nop

0000000080008278 <i_8051>:
    80008278:	03da2a33          	mulhsu	s4,s4,t4

000000008000827c <i_8052>:
    8000827c:	17d12423          	sw	t4,360(sp)

0000000080008280 <i_8053>:
    80008280:	05013703          	ld	a4,80(sp)

0000000080008284 <i_8054>:
    80008284:	eeb11523          	sh	a1,-278(sp)

0000000080008288 <i_8055>:
    80008288:	f7113c23          	sd	a7,-136(sp)

000000008000828c <i_8056>:
    8000828c:	03d8d73b          	divuw	a4,a7,t4

0000000080008290 <i_8057>:
    80008290:	02eed463          	ble	a4,t4,800082b8 <i_8066>

0000000080008294 <i_8058>:
    80008294:	00198993          	addi	s3,s3,1
    80008298:	fd3bf4e3          	bleu	s3,s7,80008260 <i_8045>

000000008000829c <i_8059>:
    8000829c:	01da06b3          	add	a3,s4,t4

00000000800082a0 <i_8060>:
    800082a0:	0b413823          	sd	s4,176(sp)

00000000800082a4 <i_8061>:
    800082a4:	03a6f2b3          	remu	t0,a3,s10

00000000800082a8 <i_8062>:
    800082a8:	11a11e03          	lh	t3,282(sp)

00000000800082ac <i_8063>:
    800082ac:	02ea0263          	beq	s4,a4,800082d0 <i_8072>

00000000800082b0 <i_8064>:
    800082b0:	11d11a23          	sh	t4,276(sp)

00000000800082b4 <i_8065>:
    800082b4:	13c12983          	lw	s3,316(sp)

00000000800082b8 <i_8066>:
    800082b8:	ee614a83          	lbu	s5,-282(sp)

00000000800082bc <i_8067>:
    800082bc:	1a013903          	ld	s2,416(sp)

00000000800082c0 <i_8068>:
    800082c0:	032a4463          	blt	s4,s2,800082e8 <i_8078>

00000000800082c4 <i_8069>:
    800082c4:	1bb13823          	sd	s11,432(sp)

00000000800082c8 <i_8070>:
    800082c8:	e2416983          	lwu	s3,-476(sp)

00000000800082cc <i_8071>:
    800082cc:	08611b83          	lh	s7,134(sp)

00000000800082d0 <i_8072>:
    800082d0:	037dadb3          	mulhsu	s11,s11,s7

00000000800082d4 <i_8073>:
    800082d4:	1bc14b83          	lbu	s7,444(sp)

00000000800082d8 <i_8074>:
    800082d8:	edd10a83          	lb	s5,-291(sp)

00000000800082dc <i_8075>:
    800082dc:	370dbb93          	sltiu	s7,s11,880

00000000800082e0 <i_8076>:
    800082e0:	f0410e03          	lb	t3,-252(sp)

00000000800082e4 <i_8077>:
    800082e4:	01ce5663          	ble	t3,t3,800082f0 <i_8080>

00000000800082e8 <i_8078>:
    800082e8:	908aba93          	sltiu	s5,s5,-1784

00000000800082ec <i_8079>:
    800082ec:	01b00e13          	li	t3,27

00000000800082f0 <i_8080>:
    800082f0:	01ce1abb          	sllw	s5,t3,t3

00000000800082f4 <i_8081>:
    800082f4:	004a9e1b          	slliw	t3,s5,0x4

00000000800082f8 <i_8082>:
    800082f8:	17c11c23          	sh	t3,376(sp)

00000000800082fc <i_8083>:
    800082fc:	12510203          	lb	tp,293(sp)

0000000080008300 <i_8084>:
    80008300:	f3c12223          	sw	t3,-220(sp)

0000000080008304 <i_8085>:
    80008304:	00f27ab3          	and	s5,tp,a5

0000000080008308 <i_8086>:
    80008308:	f4413823          	sd	tp,-176(sp)

000000008000830c <i_8087>:
    8000830c:	09e11e03          	lh	t3,158(sp)

0000000080008310 <i_8088>:
    80008310:	e4d14f83          	lbu	t6,-435(sp)

0000000080008314 <i_8089>:
    80008314:	f3013603          	ld	a2,-208(sp)

0000000080008318 <i_8090>:
    80008318:	02455fb3          	divu	t6,a0,tp

000000008000831c <i_8091>:
    8000831c:	002e179b          	slliw	a5,t3,0x2

0000000080008320 <i_8092>:
    80008320:	e6c11823          	sh	a2,-400(sp)

0000000080008324 <i_8093>:
    80008324:	03cc76bb          	remuw	a3,s8,t3

0000000080008328 <i_8094>:
    80008328:	02cfadb3          	mulhsu	s11,t6,a2

000000008000832c <i_8095>:
    8000832c:	02cac463          	blt	s5,a2,80008354 <i_8105>

0000000080008330 <i_8096>:
    80008330:	0046d19b          	srliw	gp,a3,0x4

0000000080008334 <i_8097>:
    80008334:	03f4a9b3          	mulhsu	s3,s1,t6

0000000080008338 <i_8098>:
    80008338:	03f38b33          	mul	s6,t2,t6

000000008000833c <i_8099>:
    8000833c:	e5816383          	lwu	t2,-424(sp)

0000000080008340 <i_8100>:
    80008340:	05c11e23          	sh	t3,92(sp)

0000000080008344 <i_8101>:
    80008344:	14d11123          	sh	a3,322(sp)

0000000080008348 <i_8102>:
    80008348:	f9013783          	ld	a5,-112(sp)

000000008000834c <i_8103>:
    8000834c:	06e11d83          	lh	s11,110(sp)

0000000080008350 <i_8104>:
    80008350:	f1816783          	lwu	a5,-232(sp)

0000000080008354 <i_8105>:
    80008354:	03b9e263          	bltu	s3,s11,80008378 <i_8114>

0000000080008358 <i_8106>:
    80008358:	024a7263          	bleu	tp,s4,8000837c <i_8115>

000000008000835c <i_8107>:
    8000835c:	41920dbb          	subw	s11,tp,s9

0000000080008360 <i_8108>:
    80008360:	0103e233          	or	tp,t2,a6

0000000080008364 <i_8109>:
    80008364:	1af11f23          	sh	a5,446(sp)

0000000080008368 <i_8110>:
    80008368:	e8012c83          	lw	s9,-384(sp)

000000008000836c <i_8111>:
    8000836c:	0e415703          	lhu	a4,228(sp)

0000000080008370 <i_8112>:
    80008370:	019d0d33          	add	s10,s10,s9

0000000080008374 <i_8113>:
    80008374:	4016d813          	srai	a6,a3,0x1

0000000080008378 <i_8114>:
    80008378:	ed510da3          	sb	s5,-293(sp)

000000008000837c <i_8115>:
    8000837c:	00371b13          	slli	s6,a4,0x3

0000000080008380 <i_8116>:
    80008380:	82ab3213          	sltiu	tp,s6,-2006

0000000080008384 <i_8117>:
    80008384:	e7c16903          	lwu	s2,-388(sp)

0000000080008388 <i_8118>:
    80008388:	00000013          	nop

000000008000838c <i_8119>:
    8000838c:	74800f93          	li	t6,1864

0000000080008390 <i_8120>:
    80008390:	74c00093          	li	ra,1868

0000000080008394 <i_8121>:
    80008394:	fd013b03          	ld	s6,-48(sp)

0000000080008398 <i_8122>:
    80008398:	021b5663          	ble	ra,s6,800083c4 <i_8132>

000000008000839c <i_8123>:
    8000839c:	00500d13          	li	s10,5

00000000800083a0 <i_8124>:
    800083a0:	01a95d33          	srl	s10,s2,s10

00000000800083a4 <i_8125>:
    800083a4:	001f8f93          	addi	t6,t6,1
    800083a8:	fff0f6e3          	bleu	t6,ra,80008394 <i_8121>

00000000800083ac <i_8126>:
    800083ac:	01a95e63          	ble	s10,s2,800083c8 <i_8133>

00000000800083b0 <i_8127>:
    800083b0:	03ad7d3b          	remuw	s10,s10,s10

00000000800083b4 <i_8128>:
    800083b4:	032b78b3          	remu	a7,s6,s2

00000000800083b8 <i_8129>:
    800083b8:	016d4eb3          	xor	t4,s10,s6

00000000800083bc <i_8130>:
    800083bc:	01ad5463          	ble	s10,s10,800083c4 <i_8132>

00000000800083c0 <i_8131>:
    800083c0:	03dd59b3          	divu	s3,s10,t4

00000000800083c4 <i_8132>:
    800083c4:	03deceb3          	div	t4,t4,t4

00000000800083c8 <i_8133>:
    800083c8:	02416983          	lwu	s3,36(sp)

00000000800083cc <i_8134>:
    800083cc:	efd11923          	sh	t4,-270(sp)

00000000800083d0 <i_8135>:
    800083d0:	01dec463          	blt	t4,t4,800083d8 <i_8137>

00000000800083d4 <i_8136>:
    800083d4:	00b00f13          	li	t5,11

00000000800083d8 <i_8137>:
    800083d8:	01ee97bb          	sllw	a5,t4,t5

00000000800083dc <i_8138>:
    800083dc:	01f00f13          	li	t5,31

00000000800083e0 <i_8139>:
    800083e0:	41e451bb          	sraw	gp,s0,t5

00000000800083e4 <i_8140>:
    800083e4:	00397e63          	bleu	gp,s2,80008400 <i_8147>

00000000800083e8 <i_8141>:
    800083e8:	05912c23          	sw	s9,88(sp)

00000000800083ec <i_8142>:
    800083ec:	002f519b          	srliw	gp,t5,0x2

00000000800083f0 <i_8143>:
    800083f0:	e5416183          	lwu	gp,-428(sp)

00000000800083f4 <i_8144>:
    800083f4:	00d1e863          	bltu	gp,a3,80008404 <i_8148>

00000000800083f8 <i_8145>:
    800083f8:	1e42019b          	addiw	gp,tp,484

00000000800083fc <i_8146>:
    800083fc:	1e311323          	sh	gp,486(sp)

0000000080008400 <i_8147>:
    80008400:	14b14503          	lbu	a0,331(sp)

0000000080008404 <i_8148>:
    80008404:	ecc12703          	lw	a4,-308(sp)

0000000080008408 <i_8149>:
    80008408:	00e19e63          	bne	gp,a4,80008424 <i_8156>

000000008000840c <i_8150>:
    8000840c:	21177713          	andi	a4,a4,529

0000000080008410 <i_8151>:
    80008410:	02a8e8bb          	remw	a7,a7,a0

0000000080008414 <i_8152>:
    80008414:	15412283          	lw	t0,340(sp)

0000000080008418 <i_8153>:
    80008418:	03914483          	lbu	s1,57(sp)

000000008000841c <i_8154>:
    8000841c:	0058c833          	xor	a6,a7,t0

0000000080008420 <i_8155>:
    80008420:	01129c63          	bne	t0,a7,80008438 <i_8161>

0000000080008424 <i_8156>:
    80008424:	eac16283          	lwu	t0,-340(sp)

0000000080008428 <i_8157>:
    80008428:	fb012423          	sw	a6,-88(sp)

000000008000842c <i_8158>:
    8000842c:	fc913023          	sd	s1,-64(sp)

0000000080008430 <i_8159>:
    80008430:	fe411483          	lh	s1,-28(sp)

0000000080008434 <i_8160>:
    80008434:	01f00713          	li	a4,31

0000000080008438 <i_8161>:
    80008438:	00e4d4bb          	srlw	s1,s1,a4

000000008000843c <i_8162>:
    8000843c:	0a911e23          	sh	s1,188(sp)

0000000080008440 <i_8163>:
    80008440:	f7d12623          	sw	t4,-148(sp)

0000000080008444 <i_8164>:
    80008444:	0045d19b          	srliw	gp,a1,0x4

0000000080008448 <i_8165>:
    80008448:	f8411283          	lh	t0,-124(sp)

000000008000844c <i_8166>:
    8000844c:	82700493          	li	s1,-2009

0000000080008450 <i_8167>:
    80008450:	83800593          	li	a1,-1992

0000000080008454 <i_8168>:
    80008454:	e8c16883          	lwu	a7,-372(sp)

0000000080008458 <i_8169>:
    80008458:	0ae12223          	sw	a4,164(sp)

000000008000845c <i_8170>:
    8000845c:	030772b3          	remu	t0,a4,a6

0000000080008460 <i_8171>:
    80008460:	02800713          	li	a4,40

0000000080008464 <i_8172>:
    80008464:	00e852b3          	srl	t0,a6,a4

0000000080008468 <i_8173>:
    80008468:	00148493          	addi	s1,s1,1 # ff73001 <main-0x7008cfff>
    8000846c:	feb494e3          	bne	s1,a1,80008454 <i_8168>

0000000080008470 <i_8174>:
    80008470:	11015583          	lhu	a1,272(sp)

0000000080008474 <i_8175>:
    80008474:	401580bb          	subw	ra,a1,ra

0000000080008478 <i_8176>:
    80008478:	01816c03          	lwu	s8,24(sp)

000000008000847c <i_8177>:
    8000847c:	00000013          	nop

0000000080008480 <i_8178>:
    80008480:	13f10a23          	sb	t6,308(sp)

0000000080008484 <i_8179>:
    80008484:	75b00613          	li	a2,1883

0000000080008488 <i_8180>:
    80008488:	76e00593          	li	a1,1902

000000008000848c <i_8181>:
    8000848c:	01100a13          	li	s4,17

0000000080008490 <i_8182>:
    80008490:	414758bb          	sraw	a7,a4,s4

0000000080008494 <i_8183>:
    80008494:	11110c23          	sb	a7,280(sp)

0000000080008498 <i_8184>:
    80008498:	0382f063          	bleu	s8,t0,800084b8 <i_8192>

000000008000849c <i_8185>:
    8000849c:	0eb12823          	sw	a1,240(sp)

00000000800084a0 <i_8186>:
    800084a0:	f4410c23          	sb	tp,-168(sp)

00000000800084a4 <i_8187>:
    800084a4:	0ac12423          	sw	a2,168(sp)

00000000800084a8 <i_8188>:
    800084a8:	e4014403          	lbu	s0,-448(sp)

00000000800084ac <i_8189>:
    800084ac:	4018d81b          	sraiw	a6,a7,0x1

00000000800084b0 <i_8190>:
    800084b0:	f7c13c23          	sd	t3,-136(sp)

00000000800084b4 <i_8191>:
    800084b4:	f87c2b93          	slti	s7,s8,-121

00000000800084b8 <i_8192>:
    800084b8:	18a2ba13          	sltiu	s4,t0,394

00000000800084bc <i_8193>:
    800084bc:	40185b93          	srai	s7,a6,0x1

00000000800084c0 <i_8194>:
    800084c0:	03088263          	beq	a7,a6,800084e4 <i_8202>

00000000800084c4 <i_8195>:
    800084c4:	00160613          	addi	a2,a2,1
    800084c8:	fcb642e3          	blt	a2,a1,8000848c <i_8181>

00000000800084cc <i_8196>:
    800084cc:	ed011623          	sh	a6,-308(sp)

00000000800084d0 <i_8197>:
    800084d0:	402bdb13          	srai	s6,s7,0x2

00000000800084d4 <i_8198>:
    800084d4:	017b2b33          	slt	s6,s6,s7

00000000800084d8 <i_8199>:
    800084d8:	00f00b93          	li	s7,15

00000000800084dc <i_8200>:
    800084dc:	41725bbb          	sraw	s7,tp,s7

00000000800084e0 <i_8201>:
    800084e0:	1b815283          	lhu	t0,440(sp)

00000000800084e4 <i_8202>:
    800084e4:	f6bf7b17          	auipc	s6,0xf6bf7

00000000800084e8 <i_8203>:
    800084e8:	00f2ab33          	slt	s6,t0,a5

00000000800084ec <i_8204>:
    800084ec:	1cb10803          	lb	a6,459(sp)

00000000800084f0 <i_8205>:
    800084f0:	010b1a63          	bne	s6,a6,80008504 <i_8210>

00000000800084f4 <i_8206>:
    800084f4:	ace2f793          	andi	a5,t0,-1330

00000000800084f8 <i_8207>:
    800084f8:	1a510d23          	sb	t0,442(sp)

00000000800084fc <i_8208>:
    800084fc:	e6513c23          	sd	t0,-392(sp)

0000000080008500 <i_8209>:
    80008500:	06411803          	lh	a6,100(sp)

0000000080008504 <i_8210>:
    80008504:	e2910283          	lb	t0,-471(sp)

0000000080008508 <i_8211>:
    80008508:	01c14783          	lbu	a5,28(sp)

000000008000850c <i_8212>:
    8000850c:	40185a9b          	sraiw	s5,a6,0x1

0000000080008510 <i_8213>:
    80008510:	01f00293          	li	t0,31

0000000080008514 <i_8214>:
    80008514:	40585dbb          	sraw	s11,a6,t0

0000000080008518 <i_8215>:
    80008518:	03b84063          	blt	a6,s11,80008538 <i_8223>

000000008000851c <i_8216>:
    8000851c:	02814503          	lbu	a0,40(sp)

0000000080008520 <i_8217>:
    80008520:	10a11b23          	sh	a0,278(sp)

0000000080008524 <i_8218>:
    80008524:	1da10ca3          	sb	s10,473(sp)

0000000080008528 <i_8219>:
    80008528:	0307033b          	mulw	t1,a4,a6

000000008000852c <i_8220>:
    8000852c:	0037c463          	blt	a5,gp,80008534 <i_8222>

0000000080008530 <i_8221>:
    80008530:	40135213          	srai	tp,t1,0x1

0000000080008534 <i_8222>:
    80008534:	006f8b33          	add	s6,t6,t1

0000000080008538 <i_8223>:
    80008538:	01012e03          	lw	t3,16(sp)

000000008000853c <i_8224>:
    8000853c:	0349023b          	mulw	tp,s2,s4

0000000080008540 <i_8225>:
    80008540:	79899b97          	auipc	s7,0x79899

0000000080008544 <i_8226>:
    80008544:	01b0d863          	ble	s11,ra,80008554 <i_8230>

0000000080008548 <i_8227>:
    80008548:	010bee33          	or	t3,s7,a6

000000008000854c <i_8228>:
    8000854c:	cef26913          	ori	s2,tp,-785

0000000080008550 <i_8229>:
    80008550:	0fc12783          	lw	a5,252(sp)

0000000080008554 <i_8230>:
    80008554:	f1013203          	ld	tp,-240(sp)

0000000080008558 <i_8231>:
    80008558:	ecc16203          	lwu	tp,-308(sp)

000000008000855c <i_8232>:
    8000855c:	e5412303          	lw	t1,-428(sp)

0000000080008560 <i_8233>:
    80008560:	02430063          	beq	t1,tp,80008580 <i_8241>

0000000080008564 <i_8234>:
    80008564:	1d012203          	lw	tp,464(sp)

0000000080008568 <i_8235>:
    80008568:	01d00213          	li	tp,29

000000008000856c <i_8236>:
    8000856c:	00441b3b          	sllw	s6,s0,tp

0000000080008570 <i_8237>:
    80008570:	05612023          	sw	s6,64(sp)

0000000080008574 <i_8238>:
    80008574:	006b4663          	blt	s6,t1,80008580 <i_8241>

0000000080008578 <i_8239>:
    80008578:	03635b33          	divu	s6,t1,s6

000000008000857c <i_8240>:
    8000857c:	012b5863          	ble	s2,s6,8000858c <i_8244>

0000000080008580 <i_8241>:
    80008580:	f36108a3          	sb	s6,-207(sp)

0000000080008584 <i_8242>:
    80008584:	f4410f23          	sb	tp,-162(sp)

0000000080008588 <i_8243>:
    80008588:	036b1b33          	mulh	s6,s6,s6

000000008000858c <i_8244>:
    8000858c:	036b1463          	bne	s6,s6,800085b4 <i_8254>

0000000080008590 <i_8245>:
    80008590:	016b1a63          	bne	s6,s6,800085a4 <i_8250>

0000000080008594 <i_8246>:
    80008594:	01611923          	sh	s6,18(sp)

0000000080008598 <i_8247>:
    80008598:	036b16b3          	mulh	a3,s6,s6

000000008000859c <i_8248>:
    8000859c:	f6710683          	lb	a3,-153(sp)

00000000800085a0 <i_8249>:
    800085a0:	00000013          	nop

00000000800085a4 <i_8250>:
    800085a4:	0cd106a3          	sb	a3,205(sp)

00000000800085a8 <i_8251>:
    800085a8:	ee568a1b          	addiw	s4,a3,-283

00000000800085ac <i_8252>:
    800085ac:	00000013          	nop

00000000800085b0 <i_8253>:
    800085b0:	402e8233          	sub	tp,t4,sp

00000000800085b4 <i_8254>:
    800085b4:	00000013          	nop

00000000800085b8 <i_8255>:
    800085b8:	08b14503          	lbu	a0,139(sp)

00000000800085bc <i_8256>:
    800085bc:	81500b13          	li	s6,-2027

00000000800085c0 <i_8257>:
    800085c0:	81900b93          	li	s7,-2023

00000000800085c4 <i_8258>:
    800085c4:	00000013          	nop

00000000800085c8 <i_8259>:
    800085c8:	13016503          	lwu	a0,304(sp)

00000000800085cc <i_8260>:
    800085cc:	75500e93          	li	t4,1877

00000000800085d0 <i_8261>:
    800085d0:	76000693          	li	a3,1888

00000000800085d4 <i_8262>:
    800085d4:	f0f10f03          	lb	t5,-241(sp)

00000000800085d8 <i_8263>:
    800085d8:	001e8e93          	addi	t4,t4,1
    800085dc:	fedecce3          	blt	t4,a3,800085d4 <i_8262>

00000000800085e0 <i_8264>:
    800085e0:	18c16683          	lwu	a3,396(sp)

00000000800085e4 <i_8265>:
    800085e4:	001b0b13          	addi	s6,s6,1 # 76bff4e5 <main-0x9400b1b>
    800085e8:	fd7b4ee3          	blt	s6,s7,800085c4 <i_8258>

00000000800085ec <i_8266>:
    800085ec:	ff416203          	lwu	tp,-12(sp)

00000000800085f0 <i_8267>:
    800085f0:	00a6d463          	ble	a0,a3,800085f8 <i_8269>

00000000800085f4 <i_8268>:
    800085f4:	19611483          	lh	s1,406(sp)

00000000800085f8 <i_8269>:
    800085f8:	a13f7093          	andi	ra,t5,-1517

00000000800085fc <i_8270>:
    800085fc:	ee012683          	lw	a3,-288(sp)

0000000080008600 <i_8271>:
    80008600:	82800213          	li	tp,-2008

0000000080008604 <i_8272>:
    80008604:	83300c13          	li	s8,-1997

0000000080008608 <i_8273>:
    80008608:	eb410d03          	lb	s10,-332(sp)

000000008000860c <i_8274>:
    8000860c:	1c411c23          	sh	tp,472(sp)

0000000080008610 <i_8275>:
    80008610:	e9e10fa3          	sb	t5,-353(sp)

0000000080008614 <i_8276>:
    80008614:	0ae11483          	lh	s1,174(sp)

0000000080008618 <i_8277>:
    80008618:	018f4263          	blt	t5,s8,8000861c <i_8278>

000000008000861c <i_8278>:
    8000861c:	00d48263          	beq	s1,a3,80008620 <i_8279>

0000000080008620 <i_8279>:
    80008620:	e9012f03          	lw	t5,-368(sp)

0000000080008624 <i_8280>:
    80008624:	029d03b3          	mul	t2,s10,s1

0000000080008628 <i_8281>:
    80008628:	01800d13          	li	s10,24

000000008000862c <i_8282>:
    8000862c:	41ad583b          	sraw	a6,s10,s10

0000000080008630 <i_8283>:
    80008630:	08016403          	lwu	s0,128(sp)

0000000080008634 <i_8284>:
    80008634:	017d0d33          	add	s10,s10,s7

0000000080008638 <i_8285>:
    80008638:	00120213          	addi	tp,tp,1 # 1 <main-0x7fffffff>
    8000863c:	fd8246e3          	blt	tp,s8,80008608 <i_8273>

0000000080008640 <i_8286>:
    80008640:	02d00d13          	li	s10,45

0000000080008644 <i_8287>:
    80008644:	01a41cb3          	sll	s9,s0,s10

0000000080008648 <i_8288>:
    80008648:	09011b23          	sh	a6,150(sp)

000000008000864c <i_8289>:
    8000864c:	03d681b3          	mul	gp,a3,t4

0000000080008650 <i_8290>:
    80008650:	027d2d33          	mulhsu	s10,s10,t2

0000000080008654 <i_8291>:
    80008654:	7a400813          	li	a6,1956

0000000080008658 <i_8292>:
    80008658:	7a800693          	li	a3,1960

000000008000865c <i_8293>:
    8000865c:	fb011123          	sh	a6,-94(sp)

0000000080008660 <i_8294>:
    80008660:	f5012a23          	sw	a6,-172(sp)

0000000080008664 <i_8295>:
    80008664:	02d6dd3b          	divuw	s10,a3,a3

0000000080008668 <i_8296>:
    80008668:	ec110c83          	lb	s9,-319(sp)

000000008000866c <i_8297>:
    8000866c:	fd012b83          	lw	s7,-48(sp)

0000000080008670 <i_8298>:
    80008670:	40155d13          	srai	s10,a0,0x1

0000000080008674 <i_8299>:
    80008674:	404cdc93          	srai	s9,s9,0x4

0000000080008678 <i_8300>:
    80008678:	01768263          	beq	a3,s7,8000867c <i_8301>

000000008000867c <i_8301>:
    8000867c:	01ad0663          	beq	s10,s10,80008688 <i_8304>

0000000080008680 <i_8302>:
    80008680:	40cb8bbb          	subw	s7,s7,a2

0000000080008684 <i_8303>:
    80008684:	039be463          	bltu	s7,s9,800086ac <i_8312>

0000000080008688 <i_8304>:
    80008688:	00000013          	nop

000000008000868c <i_8305>:
    8000868c:	01a00b93          	li	s7,26

0000000080008690 <i_8306>:
    80008690:	417bdbbb          	sraw	s7,s7,s7

0000000080008694 <i_8307>:
    80008694:	00180813          	addi	a6,a6,1
    80008698:	fcd812e3          	bne	a6,a3,8000865c <i_8293>

000000008000869c <i_8308>:
    8000869c:	037bebbb          	remw	s7,s7,s7

00000000800086a0 <i_8309>:
    800086a0:	17a15b83          	lhu	s7,378(sp)

00000000800086a4 <i_8310>:
    800086a4:	01700b93          	li	s7,23

00000000800086a8 <i_8311>:
    800086a8:	417bdbbb          	sraw	s7,s7,s7

00000000800086ac <i_8312>:
    800086ac:	01774863          	blt	a4,s7,800086bc <i_8316>

00000000800086b0 <i_8313>:
    800086b0:	e4211c83          	lh	s9,-446(sp)

00000000800086b4 <i_8314>:
    800086b4:	13913023          	sd	s9,288(sp)

00000000800086b8 <i_8315>:
    800086b8:	e6c16183          	lwu	gp,-404(sp)

00000000800086bc <i_8316>:
    800086bc:	003be263          	bltu	s7,gp,800086c0 <i_8317>

00000000800086c0 <i_8317>:
    800086c0:	0371b4b3          	mulhu	s1,gp,s7

00000000800086c4 <i_8318>:
    800086c4:	037bf1bb          	remuw	gp,s7,s7

00000000800086c8 <i_8319>:
    800086c8:	01000d13          	li	s10,16

00000000800086cc <i_8320>:
    800086cc:	01ad14b3          	sll	s1,s10,s10

00000000800086d0 <i_8321>:
    800086d0:	03b4ed33          	rem	s10,s1,s11

00000000800086d4 <i_8322>:
    800086d4:	f9012783          	lw	a5,-112(sp)

00000000800086d8 <i_8323>:
    800086d8:	14015483          	lhu	s1,320(sp)

00000000800086dc <i_8324>:
    800086dc:	42d7869b          	addiw	a3,a5,1069

00000000800086e0 <i_8325>:
    800086e0:	ee013d83          	ld	s11,-288(sp)

00000000800086e4 <i_8326>:
    800086e4:	fef12223          	sw	a5,-28(sp)

00000000800086e8 <i_8327>:
    800086e8:	02ddad33          	mulhsu	s10,s11,a3

00000000800086ec <i_8328>:
    800086ec:	ea016603          	lwu	a2,-352(sp)

00000000800086f0 <i_8329>:
    800086f0:	00c7e863          	bltu	a5,a2,80008700 <i_8333>

00000000800086f4 <i_8330>:
    800086f4:	017d8863          	beq	s11,s7,80008704 <i_8334>

00000000800086f8 <i_8331>:
    800086f8:	f9210883          	lb	a7,-110(sp)

00000000800086fc <i_8332>:
    800086fc:	02211823          	sh	sp,48(sp)

0000000080008700 <i_8333>:
    80008700:	02ddbb33          	mulhu	s6,s11,a3

0000000080008704 <i_8334>:
    80008704:	f2015203          	lhu	tp,-224(sp)

0000000080008708 <i_8335>:
    80008708:	016b1863          	bne	s6,s6,80008718 <i_8339>

000000008000870c <i_8336>:
    8000870c:	efa11d83          	lh	s11,-262(sp)

0000000080008710 <i_8337>:
    80008710:	e9013483          	ld	s1,-368(sp)

0000000080008714 <i_8338>:
    80008714:	0d914403          	lbu	s0,217(sp)

0000000080008718 <i_8339>:
    80008718:	03416d83          	lwu	s11,52(sp)

000000008000871c <i_8340>:
    8000871c:	f4c16903          	lwu	s2,-180(sp)

0000000080008720 <i_8341>:
    80008720:	00925e63          	ble	s1,tp,8000873c <i_8348>

0000000080008724 <i_8342>:
    80008724:	e9210c83          	lb	s9,-366(sp)

0000000080008728 <i_8343>:
    80008728:	08811e23          	sh	s0,156(sp)

000000008000872c <i_8344>:
    8000872c:	03016783          	lwu	a5,48(sp)

0000000080008730 <i_8345>:
    80008730:	11210923          	sb	s2,274(sp)

0000000080008734 <i_8346>:
    80008734:	8bc7a913          	slti	s2,a5,-1860

0000000080008738 <i_8347>:
    80008738:	58b97913          	andi	s2,s2,1419

000000008000873c <i_8348>:
    8000873c:	02e00513          	li	a0,46

0000000080008740 <i_8349>:
    80008740:	00ac9ab3          	sll	s5,s9,a0

0000000080008744 <i_8350>:
    80008744:	87d00b13          	li	s6,-1923

0000000080008748 <i_8351>:
    80008748:	88300a13          	li	s4,-1917

000000008000874c <i_8352>:
    8000874c:	00f96c63          	bltu	s2,a5,80008764 <i_8357>

0000000080008750 <i_8353>:
    80008750:	06811823          	sh	s0,112(sp)

0000000080008754 <i_8354>:
    80008754:	001b0b13          	addi	s6,s6,1
    80008758:	ff4b1ae3          	bne	s6,s4,8000874c <i_8352>

000000008000875c <i_8355>:
    8000875c:	e5711a23          	sh	s7,-428(sp)

0000000080008760 <i_8356>:
    80008760:	e2c12783          	lw	a5,-468(sp)

0000000080008764 <i_8357>:
    80008764:	02a78263          	beq	a5,a0,80008788 <i_8366>

0000000080008768 <i_8358>:
    80008768:	00f56463          	bltu	a0,a5,80008770 <i_8360>

000000008000876c <i_8359>:
    8000876c:	00aa9863          	bne	s5,a0,8000877c <i_8363>

0000000080008770 <i_8360>:
    80008770:	027a8263          	beq	s5,t2,80008794 <i_8369>

0000000080008774 <i_8361>:
    80008774:	0ac12083          	lw	ra,172(sp)

0000000080008778 <i_8362>:
    80008778:	1dd11723          	sh	t4,462(sp)

000000008000877c <i_8363>:
    8000877c:	0305683b          	remw	a6,a0,a6

0000000080008780 <i_8364>:
    80008780:	030ae063          	bltu	s5,a6,800087a0 <i_8372>

0000000080008784 <i_8365>:
    80008784:	e4812803          	lw	a6,-440(sp)

0000000080008788 <i_8366>:
    80008788:	e7813e83          	ld	t4,-392(sp)

000000008000878c <i_8367>:
    8000878c:	0a713c23          	sd	t2,184(sp)

0000000080008790 <i_8368>:
    80008790:	05c11e03          	lh	t3,92(sp)

0000000080008794 <i_8369>:
    80008794:	e3b10383          	lb	t2,-453(sp)

0000000080008798 <i_8370>:
    80008798:	09d10c03          	lb	s8,157(sp)

000000008000879c <i_8371>:
    8000879c:	038c5463          	ble	s8,s8,800087c4 <i_8381>

00000000800087a0 <i_8372>:
    800087a0:	407282b3          	sub	t0,t0,t2

00000000800087a4 <i_8373>:
    800087a4:	0a512023          	sw	t0,160(sp)

00000000800087a8 <i_8374>:
    800087a8:	408c0ebb          	subw	t4,s8,s0

00000000800087ac <i_8375>:
    800087ac:	02d3ec33          	rem	s8,t2,a3

00000000800087b0 <i_8376>:
    800087b0:	fdc16403          	lwu	s0,-36(sp)

00000000800087b4 <i_8377>:
    800087b4:	408989bb          	subw	s3,s3,s0

00000000800087b8 <i_8378>:
    800087b8:	e7d96b93          	ori	s7,s2,-387

00000000800087bc <i_8379>:
    800087bc:	033d8263          	beq	s11,s3,800087e0 <i_8388>

00000000800087c0 <i_8380>:
    800087c0:	035ecbb3          	div	s7,t4,s5

00000000800087c4 <i_8381>:
    800087c4:	e6813823          	sd	s0,-400(sp)

00000000800087c8 <i_8382>:
    800087c8:	033c7463          	bleu	s3,s8,800087f0 <i_8392>

00000000800087cc <i_8383>:
    800087cc:	2b2dae37          	lui	t3,0x2b2da

00000000800087d0 <i_8384>:
    800087d0:	08110983          	lb	s3,129(sp)

00000000800087d4 <i_8385>:
    800087d4:	40135313          	srai	t1,t1,0x1

00000000800087d8 <i_8386>:
    800087d8:	03cbfc33          	remu	s8,s7,t3

00000000800087dc <i_8387>:
    800087dc:	e9611483          	lh	s1,-362(sp)

00000000800087e0 <i_8388>:
    800087e0:	00a00913          	li	s2,10

00000000800087e4 <i_8389>:
    800087e4:	012e1cb3          	sll	s9,t3,s2

00000000800087e8 <i_8390>:
    800087e8:	f7211723          	sh	s2,-146(sp)

00000000800087ec <i_8391>:
    800087ec:	01c90463          	beq	s2,t3,800087f4 <i_8393>

00000000800087f0 <i_8392>:
    800087f0:	00900e13          	li	t3,9

00000000800087f4 <i_8393>:
    800087f4:	41ccd8b3          	sra	a7,s9,t3

00000000800087f8 <i_8394>:
    800087f8:	14012e03          	lw	t3,320(sp)

00000000800087fc <i_8395>:
    800087fc:	00000013          	nop

0000000080008800 <i_8396>:
    80008800:	8d300a13          	li	s4,-1837

0000000080008804 <i_8397>:
    80008804:	8e300c93          	li	s9,-1821

0000000080008808 <i_8398>:
    80008808:	004e1a9b          	slliw	s5,t3,0x4

000000008000880c <i_8399>:
    8000880c:	f7c13423          	sd	t3,-152(sp)

0000000080008810 <i_8400>:
    80008810:	0b414183          	lbu	gp,180(sp)

0000000080008814 <i_8401>:
    80008814:	00419693          	slli	a3,gp,0x4

0000000080008818 <i_8402>:
    80008818:	0d412e83          	lw	t4,212(sp)

000000008000881c <i_8403>:
    8000881c:	039cc663          	blt	s9,s9,80008848 <i_8413>

0000000080008820 <i_8404>:
    80008820:	001a0a13          	addi	s4,s4,1
    80008824:	ff4c92e3          	bne	s9,s4,80008808 <i_8398>

0000000080008828 <i_8405>:
    80008828:	ff310a03          	lb	s4,-13(sp)

000000008000882c <i_8406>:
    8000882c:	034cadb3          	mulhsu	s11,s9,s4

0000000080008830 <i_8407>:
    80008830:	10211a03          	lh	s4,258(sp)

0000000080008834 <i_8408>:
    80008834:	003c9a13          	slli	s4,s9,0x3

0000000080008838 <i_8409>:
    80008838:	00dd8a33          	add	s4,s11,a3

000000008000883c <i_8410>:
    8000883c:	e9411023          	sh	s4,-384(sp)

0000000080008840 <i_8411>:
    80008840:	03b13c23          	sd	s11,56(sp)

0000000080008844 <i_8412>:
    80008844:	f9b12e23          	sw	s11,-100(sp)

0000000080008848 <i_8413>:
    80008848:	0f413423          	sd	s4,232(sp)

000000008000884c <i_8414>:
    8000884c:	19014f03          	lbu	t5,400(sp)

0000000080008850 <i_8415>:
    80008850:	79a00c93          	li	s9,1946

0000000080008854 <i_8416>:
    80008854:	7a700613          	li	a2,1959

0000000080008858 <i_8417>:
    80008858:	01411423          	sh	s4,8(sp)

000000008000885c <i_8418>:
    8000885c:	00813083          	ld	ra,8(sp)

0000000080008860 <i_8419>:
    80008860:	0e514a03          	lbu	s4,229(sp)

0000000080008864 <i_8420>:
    80008864:	0140b433          	sltu	s0,ra,s4

0000000080008868 <i_8421>:
    80008868:	00d0ee63          	bltu	ra,a3,80008884 <i_8427>

000000008000886c <i_8422>:
    8000886c:	e6d13c23          	sd	a3,-392(sp)

0000000080008870 <i_8423>:
    80008870:	01fa0a63          	beq	s4,t6,80008884 <i_8427>

0000000080008874 <i_8424>:
    80008874:	001c8c93          	addi	s9,s9,1
    80008878:	fecce0e3          	bltu	s9,a2,80008858 <i_8417>

000000008000887c <i_8425>:
    8000887c:	8b6a4e13          	xori	t3,s4,-1866

0000000080008880 <i_8426>:
    80008880:	0fc13423          	sd	t3,232(sp)

0000000080008884 <i_8427>:
    80008884:	01300793          	li	a5,19

0000000080008888 <i_8428>:
    80008888:	40f45a33          	sra	s4,s0,a5

000000008000888c <i_8429>:
    8000888c:	1b611403          	lh	s0,438(sp)

0000000080008890 <i_8430>:
    80008890:	11411723          	sh	s4,270(sp)

0000000080008894 <i_8431>:
    80008894:	afceda17          	auipc	s4,0xafced

0000000080008898 <i_8432>:
    80008898:	f5314703          	lbu	a4,-173(sp)

000000008000889c <i_8433>:
    8000889c:	0af12a23          	sw	a5,180(sp)

00000000800088a0 <i_8434>:
    800088a0:	1d012903          	lw	s2,464(sp)

00000000800088a4 <i_8435>:
    800088a4:	06610903          	lb	s2,102(sp)

00000000800088a8 <i_8436>:
    800088a8:	e5e11703          	lh	a4,-418(sp)

00000000800088ac <i_8437>:
    800088ac:	f3c13023          	sd	t3,-224(sp)

00000000800088b0 <i_8438>:
    800088b0:	7b200513          	li	a0,1970

00000000800088b4 <i_8439>:
    800088b4:	7c500213          	li	tp,1989

00000000800088b8 <i_8440>:
    800088b8:	008727b3          	slt	a5,a4,s0

00000000800088bc <i_8441>:
    800088bc:	18c10403          	lb	s0,396(sp)

00000000800088c0 <i_8442>:
    800088c0:	00000013          	nop

00000000800088c4 <i_8443>:
    800088c4:	00446263          	bltu	s0,tp,800088c8 <i_8444>

00000000800088c8 <i_8444>:
    800088c8:	ea714b03          	lbu	s6,-345(sp)

00000000800088cc <i_8445>:
    800088cc:	0b813b03          	ld	s6,184(sp)

00000000800088d0 <i_8446>:
    800088d0:	0161a433          	slt	s0,gp,s6

00000000800088d4 <i_8447>:
    800088d4:	03c16d83          	lwu	s11,60(sp)

00000000800088d8 <i_8448>:
    800088d8:	0363c063          	blt	t2,s6,800088f8 <i_8455>

00000000800088dc <i_8449>:
    800088dc:	03bdf263          	bleu	s11,s11,80008900 <i_8457>

00000000800088e0 <i_8450>:
    800088e0:	5c847413          	andi	s0,s0,1480

00000000800088e4 <i_8451>:
    800088e4:	038b5663          	ble	s8,s6,80008910 <i_8461>

00000000800088e8 <i_8452>:
    800088e8:	00150513          	addi	a0,a0,1
    800088ec:	fc4566e3          	bltu	a0,tp,800088b8 <i_8440>

00000000800088f0 <i_8453>:
    800088f0:	9f5dcd93          	xori	s11,s11,-1547

00000000800088f4 <i_8454>:
    800088f4:	f6013c03          	ld	s8,-160(sp)

00000000800088f8 <i_8455>:
    800088f8:	f2011403          	lh	s0,-224(sp)

00000000800088fc <i_8456>:
    800088fc:	1a813c03          	ld	s8,424(sp)

0000000080008900 <i_8457>:
    80008900:	01b41e63          	bne	s0,s11,8000891c <i_8464>

0000000080008904 <i_8458>:
    80008904:	241d8413          	addi	s0,s11,577

0000000080008908 <i_8459>:
    80008908:	ef812d83          	lw	s11,-264(sp)

000000008000890c <i_8460>:
    8000890c:	15e15983          	lhu	s3,350(sp)

0000000080008910 <i_8461>:
    80008910:	00000013          	nop

0000000080008914 <i_8462>:
    80008914:	f3210983          	lb	s3,-206(sp)

0000000080008918 <i_8463>:
    80008918:	00000013          	nop

000000008000891c <i_8464>:
    8000891c:	f9211203          	lh	tp,-110(sp)

0000000080008920 <i_8465>:
    80008920:	ed310f23          	sb	s3,-290(sp)

0000000080008924 <i_8466>:
    80008924:	74900d93          	li	s11,1865

0000000080008928 <i_8467>:
    80008928:	75200c13          	li	s8,1874

000000008000892c <i_8468>:
    8000892c:	009d8263          	beq	s11,s1,80008930 <i_8469>

0000000080008930 <i_8469>:
    80008930:	1a412683          	lw	a3,420(sp)

0000000080008934 <i_8470>:
    80008934:	786c6693          	ori	a3,s8,1926

0000000080008938 <i_8471>:
    80008938:	001d8d93          	addi	s11,s11,1
    8000893c:	ffbc78e3          	bleu	s11,s8,8000892c <i_8468>

0000000080008940 <i_8472>:
    80008940:	03b6c4b3          	div	s1,a3,s11

0000000080008944 <i_8473>:
    80008944:	02948db3          	mul	s11,s1,s1

0000000080008948 <i_8474>:
    80008948:	00d49863          	bne	s1,a3,80008958 <i_8478>

000000008000894c <i_8475>:
    8000894c:	ec615303          	lhu	t1,-314(sp)

0000000080008950 <i_8476>:
    80008950:	1a015583          	lhu	a1,416(sp)

0000000080008954 <i_8477>:
    80008954:	0fc15d83          	lhu	s11,252(sp)

0000000080008958 <i_8478>:
    80008958:	13013083          	ld	ra,304(sp)

000000008000895c <i_8479>:
    8000895c:	0a012f03          	lw	t5,160(sp)

0000000080008960 <i_8480>:
    80008960:	ec6104a3          	sb	t1,-311(sp)

0000000080008964 <i_8481>:
    80008964:	02e4073b          	mulw	a4,s0,a4

0000000080008968 <i_8482>:
    80008968:	fdb13423          	sd	s11,-56(sp)

000000008000896c <i_8483>:
    8000896c:	07c16903          	lwu	s2,124(sp)

0000000080008970 <i_8484>:
    80008970:	00613423          	sd	t1,8(sp)

0000000080008974 <i_8485>:
    80008974:	0ea14d83          	lbu	s11,234(sp)

0000000080008978 <i_8486>:
    80008978:	4129093b          	subw	s2,s2,s2

000000008000897c <i_8487>:
    8000897c:	01297e63          	bleu	s2,s2,80008998 <i_8494>

0000000080008980 <i_8488>:
    80008980:	01250463          	beq	a0,s2,80008988 <i_8490>

0000000080008984 <i_8489>:
    80008984:	3dadf913          	andi	s2,s11,986

0000000080008988 <i_8490>:
    80008988:	0f0fb517          	auipc	a0,0xf0fb

000000008000898c <i_8491>:
    8000898c:	e3215203          	lhu	tp,-462(sp)

0000000080008990 <i_8492>:
    80008990:	17811d83          	lh	s11,376(sp)

0000000080008994 <i_8493>:
    80008994:	00000013          	nop

0000000080008998 <i_8494>:
    80008998:	00000013          	nop

000000008000899c <i_8495>:
    8000899c:	00424233          	xor	tp,tp,tp

00000000800089a0 <i_8496>:
    800089a0:	8a300613          	li	a2,-1885

00000000800089a4 <i_8497>:
    800089a4:	8ad00b93          	li	s7,-1875

00000000800089a8 <i_8498>:
    800089a8:	ee415203          	lhu	tp,-284(sp)

00000000800089ac <i_8499>:
    800089ac:	00000013          	nop

00000000800089b0 <i_8500>:
    800089b0:	fc110e03          	lb	t3,-63(sp)

00000000800089b4 <i_8501>:
    800089b4:	00474863          	blt	a4,tp,800089c4 <i_8505>

00000000800089b8 <i_8502>:
    800089b8:	a95d821b          	addiw	tp,s11,-1387

00000000800089bc <i_8503>:
    800089bc:	03c2753b          	remuw	a0,tp,t3

00000000800089c0 <i_8504>:
    800089c0:	0bc10723          	sb	t3,174(sp)

00000000800089c4 <i_8505>:
    800089c4:	17c16203          	lwu	tp,380(sp)

00000000800089c8 <i_8506>:
    800089c8:	e9812e03          	lw	t3,-360(sp)

00000000800089cc <i_8507>:
    800089cc:	00160613          	addi	a2,a2,1
    800089d0:	fd761ce3          	bne	a2,s7,800089a8 <i_8498>

00000000800089d4 <i_8508>:
    800089d4:	02a5e5b3          	rem	a1,a1,a0

00000000800089d8 <i_8509>:
    800089d8:	9108f297          	auipc	t0,0x9108f

00000000800089dc <i_8510>:
    800089dc:	0ba15603          	lhu	a2,186(sp)

00000000800089e0 <i_8511>:
    800089e0:	01752bb3          	slt	s7,a0,s7

00000000800089e4 <i_8512>:
    800089e4:	00c80bb3          	add	s7,a6,a2

00000000800089e8 <i_8513>:
    800089e8:	01760533          	add	a0,a2,s7

00000000800089ec <i_8514>:
    800089ec:	00211d03          	lh	s10,2(sp)

00000000800089f0 <i_8515>:
    800089f0:	07012483          	lw	s1,112(sp)

00000000800089f4 <i_8516>:
    800089f4:	05215483          	lhu	s1,82(sp)

00000000800089f8 <i_8517>:
    800089f8:	00a548b3          	xor	a7,a0,a0

00000000800089fc <i_8518>:
    800089fc:	03e00093          	li	ra,62

0000000080008a00 <i_8519>:
    80008a00:	00165633          	srl	a2,a2,ra

0000000080008a04 <i_8520>:
    80008a04:	16d12c23          	sw	a3,376(sp)

0000000080008a08 <i_8521>:
    80008a08:	e7a10823          	sb	s10,-400(sp)

0000000080008a0c <i_8522>:
    80008a0c:	14112023          	sw	ra,320(sp)

0000000080008a10 <i_8523>:
    80008a10:	02cb6b33          	rem	s6,s6,a2

0000000080008a14 <i_8524>:
    80008a14:	ff914083          	lbu	ra,-7(sp)

0000000080008a18 <i_8525>:
    80008a18:	c62c0093          	addi	ra,s8,-926

0000000080008a1c <i_8526>:
    80008a1c:	76600d13          	li	s10,1894

0000000080008a20 <i_8527>:
    80008a20:	77900c13          	li	s8,1913

0000000080008a24 <i_8528>:
    80008a24:	001d0d13          	addi	s10,s10,1 # 2c8e0001 <main-0x5371ffff>
    80008a28:	ffac5ee3          	ble	s10,s8,80008a24 <i_8528>

0000000080008a2c <i_8529>:
    80008a2c:	17816c03          	lwu	s8,376(sp)

0000000080008a30 <i_8530>:
    80008a30:	f7814c03          	lbu	s8,-136(sp)

0000000080008a34 <i_8531>:
    80008a34:	404c5493          	srai	s1,s8,0x4

0000000080008a38 <i_8532>:
    80008a38:	0180f263          	bleu	s8,ra,80008a3c <i_8533>

0000000080008a3c <i_8533>:
    80008a3c:	1b416783          	lwu	a5,436(sp)

0000000080008a40 <i_8534>:
    80008a40:	f5215a83          	lhu	s5,-174(sp)

0000000080008a44 <i_8535>:
    80008a44:	f4c14a83          	lbu	s5,-180(sp)

0000000080008a48 <i_8536>:
    80008a48:	009c7263          	bleu	s1,s8,80008a4c <i_8537>

0000000080008a4c <i_8537>:
    80008a4c:	02baec33          	rem	s8,s5,a1

0000000080008a50 <i_8538>:
    80008a50:	02fad263          	ble	a5,s5,80008a74 <i_8547>

0000000080008a54 <i_8539>:
    80008a54:	0e811583          	lh	a1,232(sp)

0000000080008a58 <i_8540>:
    80008a58:	1d511e23          	sh	s5,476(sp)

0000000080008a5c <i_8541>:
    80008a5c:	542afa93          	andi	s5,s5,1346

0000000080008a60 <i_8542>:
    80008a60:	403c5393          	srai	t2,s8,0x3

0000000080008a64 <i_8543>:
    80008a64:	11016583          	lwu	a1,272(sp)

0000000080008a68 <i_8544>:
    80008a68:	0153ecb3          	or	s9,t2,s5

0000000080008a6c <i_8545>:
    80008a6c:	ff910ea3          	sb	s9,-3(sp)

0000000080008a70 <i_8546>:
    80008a70:	01fc6463          	bltu	s8,t6,80008a78 <i_8548>

0000000080008a74 <i_8547>:
    80008a74:	004a1a1b          	slliw	s4,s4,0x4

0000000080008a78 <i_8548>:
    80008a78:	0153e863          	bltu	t2,s5,80008a88 <i_8552>

0000000080008a7c <i_8549>:
    80008a7c:	00159413          	slli	s0,a1,0x1

0000000080008a80 <i_8550>:
    80008a80:	20f5c213          	xori	tp,a1,527

0000000080008a84 <i_8551>:
    80008a84:	0023d413          	srli	s0,t2,0x2

0000000080008a88 <i_8552>:
    80008a88:	13c11a83          	lh	s5,316(sp)

0000000080008a8c <i_8553>:
    80008a8c:	0a010403          	lb	s0,160(sp)

0000000080008a90 <i_8554>:
    80008a90:	00479c93          	slli	s9,a5,0x4

0000000080008a94 <i_8555>:
    80008a94:	01b00f93          	li	t6,27

0000000080008a98 <i_8556>:
    80008a98:	41fcdc3b          	sraw	s8,s9,t6

0000000080008a9c <i_8557>:
    80008a9c:	77300213          	li	tp,1907

0000000080008aa0 <i_8558>:
    80008aa0:	78400393          	li	t2,1924

0000000080008aa4 <i_8559>:
    80008aa4:	fb016583          	lwu	a1,-80(sp)

0000000080008aa8 <i_8560>:
    80008aa8:	00000013          	nop

0000000080008aac <i_8561>:
    80008aac:	0355d463          	ble	s5,a1,80008ad4 <i_8570>

0000000080008ab0 <i_8562>:
    80008ab0:	f5f10b23          	sb	t6,-170(sp)

0000000080008ab4 <i_8563>:
    80008ab4:	031cf8bb          	remuw	a7,s9,a7

0000000080008ab8 <i_8564>:
    80008ab8:	00141b93          	slli	s7,s0,0x1

0000000080008abc <i_8565>:
    80008abc:	00120213          	addi	tp,tp,1 # 1 <main-0x7fffffff>
    80008ac0:	fe43f0e3          	bleu	tp,t2,80008aa0 <i_8558>

0000000080008ac4 <i_8566>:
    80008ac4:	01300893          	li	a7,19

0000000080008ac8 <i_8567>:
    80008ac8:	011898b3          	sll	a7,a7,a7

0000000080008acc <i_8568>:
    80008acc:	218b8e1b          	addiw	t3,s7,536

0000000080008ad0 <i_8569>:
    80008ad0:	01189863          	bne	a7,a7,80008ae0 <i_8573>

0000000080008ad4 <i_8570>:
    80008ad4:	f5111c23          	sh	a7,-168(sp)

0000000080008ad8 <i_8571>:
    80008ad8:	00888c63          	beq	a7,s0,80008af0 <i_8577>

0000000080008adc <i_8572>:
    80008adc:	02ebf73b          	remuw	a4,s7,a4

0000000080008ae0 <i_8573>:
    80008ae0:	f1c13423          	sd	t3,-248(sp)

0000000080008ae4 <i_8574>:
    80008ae4:	00e71663          	bne	a4,a4,80008af0 <i_8577>

0000000080008ae8 <i_8575>:
    80008ae8:	02eb073b          	mulw	a4,s6,a4

0000000080008aec <i_8576>:
    80008aec:	01474e63          	blt	a4,s4,80008b08 <i_8583>

0000000080008af0 <i_8577>:
    80008af0:	022b60bb          	remw	ra,s6,sp

0000000080008af4 <i_8578>:
    80008af4:	02e1f1b3          	remu	gp,gp,a4

0000000080008af8 <i_8579>:
    80008af8:	90673a37          	lui	s4,0x90673

0000000080008afc <i_8580>:
    80008afc:	00000013          	nop

0000000080008b00 <i_8581>:
    80008b00:	01400193          	li	gp,20

0000000080008b04 <i_8582>:
    80008b04:	0031de3b          	srlw	t3,gp,gp

0000000080008b08 <i_8583>:
    80008b08:	00000013          	nop

0000000080008b0c <i_8584>:
    80008b0c:	f2c12a03          	lw	s4,-212(sp)

0000000080008b10 <i_8585>:
    80008b10:	88800813          	li	a6,-1912

0000000080008b14 <i_8586>:
    80008b14:	88b00713          	li	a4,-1909

0000000080008b18 <i_8587>:
    80008b18:	034a2a33          	mulhsu	s4,s4,s4

0000000080008b1c <i_8588>:
    80008b1c:	0b810f23          	sb	s8,190(sp)

0000000080008b20 <i_8589>:
    80008b20:	07412c23          	sw	s4,120(sp)

0000000080008b24 <i_8590>:
    80008b24:	0341fb3b          	remuw	s6,gp,s4

0000000080008b28 <i_8591>:
    80008b28:	005a1263          	bne	s4,t0,80008b2c <i_8592>

0000000080008b2c <i_8592>:
    80008b2c:	0341f463          	bleu	s4,gp,80008b54 <i_8601>

0000000080008b30 <i_8593>:
    80008b30:	0e416283          	lwu	t0,228(sp)

0000000080008b34 <i_8594>:
    80008b34:	04510b23          	sb	t0,86(sp)

0000000080008b38 <i_8595>:
    80008b38:	ffa11f03          	lh	t5,-6(sp)

0000000080008b3c <i_8596>:
    80008b3c:	00000013          	nop

0000000080008b40 <i_8597>:
    80008b40:	f1c12b03          	lw	s6,-228(sp)

0000000080008b44 <i_8598>:
    80008b44:	00180813          	addi	a6,a6,1
    80008b48:	fce868e3          	bltu	a6,a4,80008b18 <i_8587>

0000000080008b4c <i_8599>:
    80008b4c:	0c814b03          	lbu	s6,200(sp)

0000000080008b50 <i_8600>:
    80008b50:	00000013          	nop

0000000080008b54 <i_8601>:
    80008b54:	e6012f03          	lw	t5,-416(sp)

0000000080008b58 <i_8602>:
    80008b58:	01210483          	lb	s1,18(sp)

0000000080008b5c <i_8603>:
    80008b5c:	82200293          	li	t0,-2014

0000000080008b60 <i_8604>:
    80008b60:	82500c93          	li	s9,-2011

0000000080008b64 <i_8605>:
    80008b64:	0cc16883          	lwu	a7,204(sp)

0000000080008b68 <i_8606>:
    80008b68:	01200313          	li	t1,18

0000000080008b6c <i_8607>:
    80008b6c:	4068db3b          	sraw	s6,a7,t1

0000000080008b70 <i_8608>:
    80008b70:	026b4333          	div	t1,s6,t1

0000000080008b74 <i_8609>:
    80008b74:	02689063          	bne	a7,t1,80008b94 <i_8616>

0000000080008b78 <i_8610>:
    80008b78:	00128293          	addi	t0,t0,1 # 110979d9 <main-0x6ef68627>
    80008b7c:	ff92e4e3          	bltu	t0,s9,80008b64 <i_8605>

0000000080008b80 <i_8611>:
    80008b80:	0ce11783          	lh	a5,206(sp)

0000000080008b84 <i_8612>:
    80008b84:	00379193          	slli	gp,a5,0x3

0000000080008b88 <i_8613>:
    80008b88:	e057899b          	addiw	s3,a5,-507

0000000080008b8c <i_8614>:
    80008b8c:	40f30a3b          	subw	s4,t1,a5

0000000080008b90 <i_8615>:
    80008b90:	02f7b933          	mulhu	s2,a5,a5

0000000080008b94 <i_8616>:
    80008b94:	10c12683          	lw	a3,268(sp)

0000000080008b98 <i_8617>:
    80008b98:	11210523          	sb	s2,266(sp)

0000000080008b9c <i_8618>:
    80008b9c:	f6016903          	lwu	s2,-160(sp)

0000000080008ba0 <i_8619>:
    80008ba0:	03234463          	blt	t1,s2,80008bc8 <i_8629>

0000000080008ba4 <i_8620>:
    80008ba4:	ec614903          	lbu	s2,-314(sp)

0000000080008ba8 <i_8621>:
    80008ba8:	0de15a03          	lhu	s4,222(sp)

0000000080008bac <i_8622>:
    80008bac:	1d813f83          	ld	t6,472(sp)

0000000080008bb0 <i_8623>:
    80008bb0:	4127093b          	subw	s2,a4,s2

0000000080008bb4 <i_8624>:
    80008bb4:	1b014903          	lbu	s2,432(sp)

0000000080008bb8 <i_8625>:
    80008bb8:	f0e13823          	sd	a4,-240(sp)

0000000080008bbc <i_8626>:
    80008bbc:	00e90f33          	add	t5,s2,a4

0000000080008bc0 <i_8627>:
    80008bc0:	032e093b          	mulw	s2,t3,s2

0000000080008bc4 <i_8628>:
    80008bc4:	18910f03          	lb	t5,393(sp)

0000000080008bc8 <i_8629>:
    80008bc8:	19211b23          	sh	s2,406(sp)

0000000080008bcc <i_8630>:
    80008bcc:	0aa15e03          	lhu	t3,170(sp)

0000000080008bd0 <i_8631>:
    80008bd0:	79000f93          	li	t6,1936

0000000080008bd4 <i_8632>:
    80008bd4:	79c00713          	li	a4,1948

0000000080008bd8 <i_8633>:
    80008bd8:	001f8f93          	addi	t6,t6,1
    80008bdc:	feefcee3          	blt	t6,a4,80008bd8 <i_8633>

0000000080008be0 <i_8634>:
    80008be0:	ef016183          	lwu	gp,-272(sp)

0000000080008be4 <i_8635>:
    80008be4:	11213023          	sd	s2,256(sp)

0000000080008be8 <i_8636>:
    80008be8:	0c811683          	lh	a3,200(sp)

0000000080008bec <i_8637>:
    80008bec:	03c4d4bb          	divuw	s1,s1,t3

0000000080008bf0 <i_8638>:
    80008bf0:	0096b4b3          	sltu	s1,a3,s1

0000000080008bf4 <i_8639>:
    80008bf4:	00911c63          	bne	sp,s1,80008c0c <i_8645>

0000000080008bf8 <i_8640>:
    80008bf8:	0394e263          	bltu	s1,s9,80008c1c <i_8649>

0000000080008bfc <i_8641>:
    80008bfc:	009bf663          	bleu	s1,s7,80008c08 <i_8644>

0000000080008c00 <i_8642>:
    80008c00:	fcd13023          	sd	a3,-64(sp)

0000000080008c04 <i_8643>:
    80008c04:	009ed663          	ble	s1,t4,80008c10 <i_8646>

0000000080008c08 <i_8644>:
    80008c08:	e89100a3          	sb	s1,-383(sp)

0000000080008c0c <i_8645>:
    80008c0c:	e3b14783          	lbu	a5,-453(sp)

0000000080008c10 <i_8646>:
    80008c10:	9004c313          	xori	t1,s1,-1792

0000000080008c14 <i_8647>:
    80008c14:	00f4a4b3          	slt	s1,s1,a5

0000000080008c18 <i_8648>:
    80008c18:	02969263          	bne	a3,s1,80008c3c <i_8657>

0000000080008c1c <i_8649>:
    80008c1c:	0064f463          	bleu	t1,s1,80008c24 <i_8651>

0000000080008c20 <i_8650>:
    80008c20:	fc9106a3          	sb	s1,-51(sp)

0000000080008c24 <i_8651>:
    80008c24:	00668863          	beq	a3,t1,80008c34 <i_8655>

0000000080008c28 <i_8652>:
    80008c28:	f5811783          	lh	a5,-168(sp)

0000000080008c2c <i_8653>:
    80008c2c:	00431313          	slli	t1,t1,0x4

0000000080008c30 <i_8654>:
    80008c30:	0094b6b3          	sltu	a3,s1,s1

0000000080008c34 <i_8655>:
    80008c34:	fb211483          	lh	s1,-78(sp)

0000000080008c38 <i_8656>:
    80008c38:	00f4de63          	ble	a5,s1,80008c54 <i_8663>

0000000080008c3c <i_8657>:
    80008c3c:	1b512223          	sw	s5,420(sp)

0000000080008c40 <i_8658>:
    80008c40:	f6911f23          	sh	s1,-130(sp)

0000000080008c44 <i_8659>:
    80008c44:	026ae263          	bltu	s5,t1,80008c68 <i_8668>

0000000080008c48 <i_8660>:
    80008c48:	f0015e83          	lhu	t4,-256(sp)

0000000080008c4c <i_8661>:
    80008c4c:	015e9663          	bne	t4,s5,80008c58 <i_8664>

0000000080008c50 <i_8662>:
    80008c50:	1c813303          	ld	t1,456(sp)

0000000080008c54 <i_8663>:
    80008c54:	eaa11583          	lh	a1,-342(sp)

0000000080008c58 <i_8664>:
    80008c58:	006a9e63          	bne	s5,t1,80008c74 <i_8671>

0000000080008c5c <i_8665>:
    80008c5c:	02ba8063          	beq	s5,a1,80008c7c <i_8673>

0000000080008c60 <i_8666>:
    80008c60:	015ee5b3          	or	a1,t4,s5

0000000080008c64 <i_8667>:
    80008c64:	fc013183          	ld	gp,-64(sp)

0000000080008c68 <i_8668>:
    80008c68:	0235d063          	ble	gp,a1,80008c88 <i_8676>

0000000080008c6c <i_8669>:
    80008c6c:	4018dc9b          	sraiw	s9,a7,0x1

0000000080008c70 <i_8670>:
    80008c70:	0114fa33          	and	s4,s1,a7

0000000080008c74 <i_8671>:
    80008c74:	fe815483          	lhu	s1,-24(sp)

0000000080008c78 <i_8672>:
    80008c78:	02bf55bb          	divuw	a1,t5,a1

0000000080008c7c <i_8673>:
    80008c7c:	030577b3          	remu	a5,a0,a6

0000000080008c80 <i_8674>:
    80008c80:	18013583          	ld	a1,384(sp)

0000000080008c84 <i_8675>:
    80008c84:	00b7b5b3          	sltu	a1,a5,a1

0000000080008c88 <i_8676>:
    80008c88:	9a663613          	sltiu	a2,a2,-1626

0000000080008c8c <i_8677>:
    80008c8c:	0ab10383          	lb	t2,171(sp)

0000000080008c90 <i_8678>:
    80008c90:	74100513          	li	a0,1857

0000000080008c94 <i_8679>:
    80008c94:	74a00a13          	li	s4,1866

0000000080008c98 <i_8680>:
    80008c98:	13bbfb93          	andi	s7,s7,315

0000000080008c9c <i_8681>:
    80008c9c:	eeb11023          	sh	a1,-288(sp)

0000000080008ca0 <i_8682>:
    80008ca0:	0015961b          	slliw	a2,a1,0x1

0000000080008ca4 <i_8683>:
    80008ca4:	f1815183          	lhu	gp,-232(sp)

0000000080008ca8 <i_8684>:
    80008ca8:	02d00593          	li	a1,45

0000000080008cac <i_8685>:
    80008cac:	00b61633          	sll	a2,a2,a1

0000000080008cb0 <i_8686>:
    80008cb0:	e8310d23          	sb	gp,-358(sp)

0000000080008cb4 <i_8687>:
    80008cb4:	ffc16683          	lwu	a3,-4(sp)

0000000080008cb8 <i_8688>:
    80008cb8:	41658b3b          	subw	s6,a1,s6

0000000080008cbc <i_8689>:
    80008cbc:	3d144097          	auipc	ra,0x3d144

0000000080008cc0 <i_8690>:
    80008cc0:	00150513          	addi	a0,a0,1 # 8f103989 <_end+0xf0f3575>
    80008cc4:	fcaa5ae3          	ble	a0,s4,80008c98 <i_8680>

0000000080008cc8 <i_8691>:
    80008cc8:	00bdc863          	blt	s11,a1,80008cd8 <i_8695>

0000000080008ccc <i_8692>:
    80008ccc:	00c00f13          	li	t5,12

0000000080008cd0 <i_8693>:
    80008cd0:	41e0d2b3          	sra	t0,ra,t5

0000000080008cd4 <i_8694>:
    80008cd4:	06711223          	sh	t2,100(sp)

0000000080008cd8 <i_8695>:
    80008cd8:	f7c12e83          	lw	t4,-132(sp)

0000000080008cdc <i_8696>:
    80008cdc:	00012683          	lw	a3,0(sp)

0000000080008ce0 <i_8697>:
    80008ce0:	00c6f663          	bleu	a2,a3,80008cec <i_8700>

0000000080008ce4 <i_8698>:
    80008ce4:	0a815983          	lhu	s3,168(sp)

0000000080008ce8 <i_8699>:
    80008ce8:	2e068e93          	addi	t4,a3,736

0000000080008cec <i_8700>:
    80008cec:	02de86bb          	mulw	a3,t4,a3

0000000080008cf0 <i_8701>:
    80008cf0:	41d68ebb          	subw	t4,a3,t4

0000000080008cf4 <i_8702>:
    80008cf4:	f0110f83          	lb	t6,-255(sp)

0000000080008cf8 <i_8703>:
    80008cf8:	02de8a3b          	mulw	s4,t4,a3

0000000080008cfc <i_8704>:
    80008cfc:	75300c13          	li	s8,1875

0000000080008d00 <i_8705>:
    80008d00:	76000493          	li	s1,1888

0000000080008d04 <i_8706>:
    80008d04:	013c7c63          	bleu	s3,s8,80008d1c <i_8712>

0000000080008d08 <i_8707>:
    80008d08:	ef312423          	sw	s3,-280(sp)

0000000080008d0c <i_8708>:
    80008d0c:	00d00913          	li	s2,13

0000000080008d10 <i_8709>:
    80008d10:	01295ebb          	srlw	t4,s2,s2

0000000080008d14 <i_8710>:
    80008d14:	00700a13          	li	s4,7

0000000080008d18 <i_8711>:
    80008d18:	014f9f33          	sll	t5,t6,s4

0000000080008d1c <i_8712>:
    80008d1c:	fdf10123          	sb	t6,-62(sp)

0000000080008d20 <i_8713>:
    80008d20:	00000013          	nop

0000000080008d24 <i_8714>:
    80008d24:	ff510a03          	lb	s4,-11(sp)

0000000080008d28 <i_8715>:
    80008d28:	001c0c13          	addi	s8,s8,1
    80008d2c:	fd84fce3          	bleu	s8,s1,80008d04 <i_8706>

0000000080008d30 <i_8716>:
    80008d30:	012a6463          	bltu	s4,s2,80008d38 <i_8718>

0000000080008d34 <i_8717>:
    80008d34:	01ea7663          	bleu	t5,s4,80008d40 <i_8720>

0000000080008d38 <i_8718>:
    80008d38:	034a2fb3          	mulhsu	t6,s4,s4

0000000080008d3c <i_8719>:
    80008d3c:	032a773b          	remuw	a4,s4,s2

0000000080008d40 <i_8720>:
    80008d40:	03473733          	mulhu	a4,a4,s4

0000000080008d44 <i_8721>:
    80008d44:	15415683          	lhu	a3,340(sp)

0000000080008d48 <i_8722>:
    80008d48:	00ea5263          	ble	a4,s4,80008d4c <i_8723>

0000000080008d4c <i_8723>:
    80008d4c:	18e11f83          	lh	t6,398(sp)

0000000080008d50 <i_8724>:
    80008d50:	00ed8263          	beq	s11,a4,80008d54 <i_8725>

0000000080008d54 <i_8725>:
    80008d54:	014a4663          	blt	s4,s4,80008d60 <i_8728>

0000000080008d58 <i_8726>:
    80008d58:	01269863          	bne	a3,s2,80008d68 <i_8730>

0000000080008d5c <i_8727>:
    80008d5c:	11013d03          	ld	s10,272(sp)

0000000080008d60 <i_8728>:
    80008d60:	fc211d03          	lh	s10,-62(sp)

0000000080008d64 <i_8729>:
    80008d64:	00000013          	nop

0000000080008d68 <i_8730>:
    80008d68:	f7c11e03          	lh	t3,-132(sp)

0000000080008d6c <i_8731>:
    80008d6c:	00000013          	nop

0000000080008d70 <i_8732>:
    80008d70:	75800193          	li	gp,1880

0000000080008d74 <i_8733>:
    80008d74:	76300893          	li	a7,1891

0000000080008d78 <i_8734>:
    80008d78:	03a8ec3b          	remw	s8,a7,s10

0000000080008d7c <i_8735>:
    80008d7c:	00000013          	nop

0000000080008d80 <i_8736>:
    80008d80:	78100f93          	li	t6,1921

0000000080008d84 <i_8737>:
    80008d84:	78c00d13          	li	s10,1932

0000000080008d88 <i_8738>:
    80008d88:	03ae5463          	ble	s10,t3,80008db0 <i_8747>

0000000080008d8c <i_8739>:
    80008d8c:	1d111f23          	sh	a7,478(sp)

0000000080008d90 <i_8740>:
    80008d90:	03c8c063          	blt	a7,t3,80008db0 <i_8747>

0000000080008d94 <i_8741>:
    80008d94:	00000013          	nop

0000000080008d98 <i_8742>:
    80008d98:	11011823          	sh	a6,272(sp)

0000000080008d9c <i_8743>:
    80008d9c:	001f8f93          	addi	t6,t6,1
    80008da0:	fffd54e3          	ble	t6,s10,80008d88 <i_8738>

0000000080008da4 <i_8744>:
    80008da4:	01ad0463          	beq	s10,s10,80008dac <i_8746>

0000000080008da8 <i_8745>:
    80008da8:	fb510e23          	sb	s5,-68(sp)

0000000080008dac <i_8746>:
    80008dac:	4023df1b          	sraiw	t5,t2,0x2

0000000080008db0 <i_8747>:
    80008db0:	00000013          	nop

0000000080008db4 <i_8748>:
    80008db4:	f14a0993          	addi	s3,s4,-236 # ffffffff90672f14 <_end+0xffffffff10662b00>

0000000080008db8 <i_8749>:
    80008db8:	00118193          	addi	gp,gp,1
    80008dbc:	fa38dee3          	ble	gp,a7,80008d78 <i_8734>

0000000080008dc0 <i_8750>:
    80008dc0:	03200093          	li	ra,50

0000000080008dc4 <i_8751>:
    80008dc4:	001d94b3          	sll	s1,s11,ra

0000000080008dc8 <i_8752>:
    80008dc8:	28297e37          	lui	t3,0x28297

0000000080008dcc <i_8753>:
    80008dcc:	f2a14983          	lbu	s3,-214(sp)

0000000080008dd0 <i_8754>:
    80008dd0:	73300c93          	li	s9,1843

0000000080008dd4 <i_8755>:
    80008dd4:	74000d13          	li	s10,1856

0000000080008dd8 <i_8756>:
    80008dd8:	04611483          	lh	s1,70(sp)

0000000080008ddc <i_8757>:
    80008ddc:	01bd6263          	bltu	s10,s11,80008de0 <i_8758>

0000000080008de0 <i_8758>:
    80008de0:	e5a11c03          	lh	s8,-422(sp)

0000000080008de4 <i_8759>:
    80008de4:	08911723          	sh	s1,142(sp)

0000000080008de8 <i_8760>:
    80008de8:	01b11a23          	sh	s11,20(sp)

0000000080008dec <i_8761>:
    80008dec:	8ca00d93          	li	s11,-1846

0000000080008df0 <i_8762>:
    80008df0:	8d200993          	li	s3,-1838

0000000080008df4 <i_8763>:
    80008df4:	09813823          	sd	s8,144(sp)

0000000080008df8 <i_8764>:
    80008df8:	038210b3          	mulh	ra,tp,s8

0000000080008dfc <i_8765>:
    80008dfc:	f0812c03          	lw	s8,-248(sp)

0000000080008e00 <i_8766>:
    80008e00:	001d8d93          	addi	s11,s11,1
    80008e04:	ff3dc8e3          	blt	s11,s3,80008df4 <i_8763>

0000000080008e08 <i_8767>:
    80008e08:	018c4e63          	blt	s8,s8,80008e24 <i_8773>

0000000080008e0c <i_8768>:
    80008e0c:	0af14e83          	lbu	t4,175(sp)

0000000080008e10 <i_8769>:
    80008e10:	001c8c93          	addi	s9,s9,1
    80008e14:	fdacc2e3          	blt	s9,s10,80008dd8 <i_8756>

0000000080008e18 <i_8770>:
    80008e18:	03bc49bb          	divw	s3,s8,s11

0000000080008e1c <i_8771>:
    80008e1c:	033c5463          	ble	s3,s8,80008e44 <i_8781>

0000000080008e20 <i_8772>:
    80008e20:	4016d69b          	sraiw	a3,a3,0x1

0000000080008e24 <i_8773>:
    80008e24:	0189d263          	ble	s8,s3,80008e28 <i_8774>

0000000080008e28 <i_8774>:
    80008e28:	038d8bb3          	mul	s7,s11,s8

0000000080008e2c <i_8775>:
    80008e2c:	02d4e263          	bltu	s1,a3,80008e50 <i_8784>

0000000080008e30 <i_8776>:
    80008e30:	033e9063          	bne	t4,s3,80008e50 <i_8784>

0000000080008e34 <i_8777>:
    80008e34:	03d9d463          	ble	t4,s3,80008e5c <i_8787>

0000000080008e38 <i_8778>:
    80008e38:	e6215c83          	lhu	s9,-414(sp)

0000000080008e3c <i_8779>:
    80008e3c:	ea412883          	lw	a7,-348(sp)

0000000080008e40 <i_8780>:
    80008e40:	02910c03          	lb	s8,41(sp)

0000000080008e44 <i_8781>:
    80008e44:	ff812b83          	lw	s7,-8(sp)

0000000080008e48 <i_8782>:
    80008e48:	031746b3          	div	a3,a4,a7

0000000080008e4c <i_8783>:
    80008e4c:	037383b3          	mul	t2,t2,s7

0000000080008e50 <i_8784>:
    80008e50:	f2711e23          	sh	t2,-196(sp)

0000000080008e54 <i_8785>:
    80008e54:	011ba5b3          	slt	a1,s7,a7

0000000080008e58 <i_8786>:
    80008e58:	02000593          	li	a1,32

0000000080008e5c <i_8787>:
    80008e5c:	00b694b3          	sll	s1,a3,a1

0000000080008e60 <i_8788>:
    80008e60:	01900913          	li	s2,25

0000000080008e64 <i_8789>:
    80008e64:	0125d2b3          	srl	t0,a1,s2

0000000080008e68 <i_8790>:
    80008e68:	0174c463          	blt	s1,s7,80008e70 <i_8792>

0000000080008e6c <i_8791>:
    80008e6c:	01bdbdb3          	sltu	s11,s11,s11

0000000080008e70 <i_8792>:
    80008e70:	2d19049b          	addiw	s1,s2,721

0000000080008e74 <i_8793>:
    80008e74:	03400893          	li	a7,52

0000000080008e78 <i_8794>:
    80008e78:	4113d1b3          	sra	gp,t2,a7

0000000080008e7c <i_8795>:
    80008e7c:	01695c63          	ble	s6,s2,80008e94 <i_8801>

0000000080008e80 <i_8796>:
    80008e80:	05e11683          	lh	a3,94(sp)

0000000080008e84 <i_8797>:
    80008e84:	00b94a63          	blt	s2,a1,80008e98 <i_8802>

0000000080008e88 <i_8798>:
    80008e88:	f2312c23          	sw	gp,-200(sp)

0000000080008e8c <i_8799>:
    80008e8c:	16310903          	lb	s2,355(sp)

0000000080008e90 <i_8800>:
    80008e90:	07f12a23          	sw	t6,116(sp)

0000000080008e94 <i_8801>:
    80008e94:	00d19663          	bne	gp,a3,80008ea0 <i_8804>

0000000080008e98 <i_8802>:
    80008e98:	012eaeb3          	slt	t4,t4,s2

0000000080008e9c <i_8803>:
    80008e9c:	03219463          	bne	gp,s2,80008ec4 <i_8813>

0000000080008ea0 <i_8804>:
    80008ea0:	01d12623          	sw	t4,12(sp)

0000000080008ea4 <i_8805>:
    80008ea4:	e6416803          	lwu	a6,-412(sp)

0000000080008ea8 <i_8806>:
    80008ea8:	08813583          	ld	a1,136(sp)

0000000080008eac <i_8807>:
    80008eac:	ef212e23          	sw	s2,-260(sp)

0000000080008eb0 <i_8808>:
    80008eb0:	e9815b83          	lhu	s7,-360(sp)

0000000080008eb4 <i_8809>:
    80008eb4:	01700593          	li	a1,23

0000000080008eb8 <i_8810>:
    80008eb8:	00b59f33          	sll	t5,a1,a1

0000000080008ebc <i_8811>:
    80008ebc:	01015583          	lhu	a1,16(sp)

0000000080008ec0 <i_8812>:
    80008ec0:	00bb8863          	beq	s7,a1,80008ed0 <i_8816>

0000000080008ec4 <i_8813>:
    80008ec4:	11416b83          	lwu	s7,276(sp)

0000000080008ec8 <i_8814>:
    80008ec8:	19711123          	sh	s7,386(sp)

0000000080008ecc <i_8815>:
    80008ecc:	03788bb3          	mul	s7,a7,s7

0000000080008ed0 <i_8816>:
    80008ed0:	8e0f95b7          	lui	a1,0x8e0f9

0000000080008ed4 <i_8817>:
    80008ed4:	02d10583          	lb	a1,45(sp)

0000000080008ed8 <i_8818>:
    80008ed8:	01759a63          	bne	a1,s7,80008eec <i_8823>

0000000080008edc <i_8819>:
    80008edc:	942bcb13          	xori	s6,s7,-1726

0000000080008ee0 <i_8820>:
    80008ee0:	00bba533          	slt	a0,s7,a1

0000000080008ee4 <i_8821>:
    80008ee4:	03758063          	beq	a1,s7,80008f04 <i_8829>

0000000080008ee8 <i_8822>:
    80008ee8:	1d013983          	ld	s3,464(sp)

0000000080008eec <i_8823>:
    80008eec:	e4b12623          	sw	a1,-436(sp)

0000000080008ef0 <i_8824>:
    80008ef0:	f9c15783          	lhu	a5,-100(sp)

0000000080008ef4 <i_8825>:
    80008ef4:	02f9a333          	mulhsu	t1,s3,a5

0000000080008ef8 <i_8826>:
    80008ef8:	e8b13c23          	sd	a1,-360(sp)

0000000080008efc <i_8827>:
    80008efc:	026c4263          	blt	s8,t1,80008f20 <i_8836>

0000000080008f00 <i_8828>:
    80008f00:	0d7100a3          	sb	s7,193(sp)

0000000080008f04 <i_8829>:
    80008f04:	00379b9b          	slliw	s7,a5,0x3

0000000080008f08 <i_8830>:
    80008f08:	ee812503          	lw	a0,-280(sp)

0000000080008f0c <i_8831>:
    80008f0c:	00e00b13          	li	s6,14

0000000080008f10 <i_8832>:
    80008f10:	01635abb          	srlw	s5,t1,s6

0000000080008f14 <i_8833>:
    80008f14:	026bbb33          	mulhu	s6,s7,t1

0000000080008f18 <i_8834>:
    80008f18:	41ab843b          	subw	s0,s7,s10

0000000080008f1c <i_8835>:
    80008f1c:	00e00513          	li	a0,14

0000000080008f20 <i_8836>:
    80008f20:	00aadd3b          	srlw	s10,s5,a0

0000000080008f24 <i_8837>:
    80008f24:	ed810403          	lb	s0,-296(sp)

0000000080008f28 <i_8838>:
    80008f28:	032553b3          	divu	t2,a0,s2

0000000080008f2c <i_8839>:
    80008f2c:	03546abb          	remw	s5,s0,s5

0000000080008f30 <i_8840>:
    80008f30:	12114d03          	lbu	s10,289(sp)

0000000080008f34 <i_8841>:
    80008f34:	19c11383          	lh	t2,412(sp)

0000000080008f38 <i_8842>:
    80008f38:	05813a83          	ld	s5,88(sp)

0000000080008f3c <i_8843>:
    80008f3c:	16813423          	sd	s0,360(sp)

0000000080008f40 <i_8844>:
    80008f40:	03013a83          	ld	s5,48(sp)

0000000080008f44 <i_8845>:
    80008f44:	10816d03          	lwu	s10,264(sp)

0000000080008f48 <i_8846>:
    80008f48:	004ad393          	srli	t2,s5,0x4

0000000080008f4c <i_8847>:
    80008f4c:	03a94e3b          	divw	t3,s2,s10

0000000080008f50 <i_8848>:
    80008f50:	03ce083b          	mulw	a6,t3,t3

0000000080008f54 <i_8849>:
    80008f54:	01a3c863          	blt	t2,s10,80008f64 <i_8853>

0000000080008f58 <i_8850>:
    80008f58:	f0114a83          	lbu	s5,-255(sp)

0000000080008f5c <i_8851>:
    80008f5c:	01a40fb3          	add	t6,s0,s10

0000000080008f60 <i_8852>:
    80008f60:	01184663          	blt	a6,a7,80008f6c <i_8855>

0000000080008f64 <i_8853>:
    80008f64:	3e95c737          	lui	a4,0x3e95c

0000000080008f68 <i_8854>:
    80008f68:	03ad7cbb          	remuw	s9,s10,s10

0000000080008f6c <i_8855>:
    80008f6c:	03afcbbb          	divw	s7,t6,s10

0000000080008f70 <i_8856>:
    80008f70:	0da13823          	sd	s10,208(sp)

0000000080008f74 <i_8857>:
    80008f74:	1a012303          	lw	t1,416(sp)

0000000080008f78 <i_8858>:
    80008f78:	01fd7a63          	bleu	t6,s10,80008f8c <i_8863>

0000000080008f7c <i_8859>:
    80008f7c:	025a62bb          	remw	t0,s4,t0

0000000080008f80 <i_8860>:
    80008f80:	007a81b3          	add	gp,s5,t2

0000000080008f84 <i_8861>:
    80008f84:	035ef263          	bleu	s5,t4,80008fa8 <i_8870>

0000000080008f88 <i_8862>:
    80008f88:	023fc463          	blt	t6,gp,80008fb0 <i_8872>

0000000080008f8c <i_8863>:
    80008f8c:	ef016203          	lwu	tp,-272(sp)

0000000080008f90 <i_8864>:
    80008f90:	18013b83          	ld	s7,384(sp)

0000000080008f94 <i_8865>:
    80008f94:	e6413423          	sd	tp,-408(sp)

0000000080008f98 <i_8866>:
    80008f98:	09c15a03          	lhu	s4,156(sp)

0000000080008f9c <i_8867>:
    80008f9c:	015d7c63          	bleu	s5,s10,80008fb4 <i_8873>

0000000080008fa0 <i_8868>:
    80008fa0:	fb013b83          	ld	s7,-80(sp)

0000000080008fa4 <i_8869>:
    80008fa4:	007afe63          	bleu	t2,s5,80008fc0 <i_8876>

0000000080008fa8 <i_8870>:
    80008fa8:	00319863          	bne	gp,gp,80008fb8 <i_8874>

0000000080008fac <i_8871>:
    80008fac:	01300813          	li	a6,19

0000000080008fb0 <i_8872>:
    80008fb0:	010e1333          	sll	t1,t3,a6

0000000080008fb4 <i_8873>:
    80008fb4:	0262c263          	blt	t0,t1,80008fd8 <i_8882>

0000000080008fb8 <i_8874>:
    80008fb8:	026fed3b          	remw	s10,t6,t1

0000000080008fbc <i_8875>:
    80008fbc:	019b9463          	bne	s7,s9,80008fc4 <i_8877>

0000000080008fc0 <i_8876>:
    80008fc0:	010d1863          	bne	s10,a6,80008fd0 <i_8880>

0000000080008fc4 <i_8877>:
    80008fc4:	21a7c337          	lui	t1,0x21a7c

0000000080008fc8 <i_8878>:
    80008fc8:	52e2b293          	sltiu	t0,t0,1326

0000000080008fcc <i_8879>:
    80008fcc:	74233313          	sltiu	t1,t1,1858

0000000080008fd0 <i_8880>:
    80008fd0:	00210803          	lb	a6,2(sp)

0000000080008fd4 <i_8881>:
    80008fd4:	e7e10583          	lb	a1,-386(sp)

0000000080008fd8 <i_8882>:
    80008fd8:	037d7dbb          	remuw	s11,s10,s7

0000000080008fdc <i_8883>:
    80008fdc:	037b8bbb          	mulw	s7,s7,s7

0000000080008fe0 <i_8884>:
    80008fe0:	02bbc5bb          	divw	a1,s7,a1

0000000080008fe4 <i_8885>:
    80008fe4:	05e11b83          	lh	s7,94(sp)

0000000080008fe8 <i_8886>:
    80008fe8:	00400193          	li	gp,4

0000000080008fec <i_8887>:
    80008fec:	4031d1bb          	sraw	gp,gp,gp

0000000080008ff0 <i_8888>:
    80008ff0:	fca15503          	lhu	a0,-54(sp)

0000000080008ff4 <i_8889>:
    80008ff4:	037dd833          	divu	a6,s11,s7

0000000080008ff8 <i_8890>:
    80008ff8:	f2514a03          	lbu	s4,-219(sp)

0000000080008ffc <i_8891>:
    80008ffc:	15416803          	lwu	a6,340(sp)

0000000080009000 <i_8892>:
    80009000:	e7a10e03          	lb	t3,-390(sp)

0000000080009004 <i_8893>:
    80009004:	e97105a3          	sb	s7,-373(sp)

0000000080009008 <i_8894>:
    80009008:	037f6063          	bltu	t5,s7,80009028 <i_8902>

000000008000900c <i_8895>:
    8000900c:	01b79463          	bne	a5,s11,80009014 <i_8897>

0000000080009010 <i_8896>:
    80009010:	1d012a23          	sw	a6,468(sp)

0000000080009014 <i_8897>:
    80009014:	15e15b83          	lhu	s7,350(sp)

0000000080009018 <i_8898>:
    80009018:	00600793          	li	a5,6

000000008000901c <i_8899>:
    8000901c:	00f7983b          	sllw	a6,a5,a5

0000000080009020 <i_8900>:
    80009020:	ef011183          	lh	gp,-272(sp)

0000000080009024 <i_8901>:
    80009024:	00f12623          	sw	a5,12(sp)

0000000080009028 <i_8902>:
    80009028:	1b813803          	ld	a6,440(sp)

000000008000902c <i_8903>:
    8000902c:	f1013503          	ld	a0,-240(sp)

0000000080009030 <i_8904>:
    80009030:	09015783          	lhu	a5,144(sp)

0000000080009034 <i_8905>:
    80009034:	06a13c23          	sd	a0,120(sp)

0000000080009038 <i_8906>:
    80009038:	ced57f93          	andi	t6,a0,-787

000000008000903c <i_8907>:
    8000903c:	e8812503          	lw	a0,-376(sp)

0000000080009040 <i_8908>:
    80009040:	ede15883          	lhu	a7,-290(sp)

0000000080009044 <i_8909>:
    80009044:	0fe10783          	lb	a5,254(sp)

0000000080009048 <i_8910>:
    80009048:	1c015083          	lhu	ra,448(sp)

000000008000904c <i_8911>:
    8000904c:	83500713          	li	a4,-1995

0000000080009050 <i_8912>:
    80009050:	83e00513          	li	a0,-1986

0000000080009054 <i_8913>:
    80009054:	f6c14f03          	lbu	t5,-148(sp)

0000000080009058 <i_8914>:
    80009058:	03e0df33          	divu	t5,ra,t5

000000008000905c <i_8915>:
    8000905c:	7e600e13          	li	t3,2022

0000000080009060 <i_8916>:
    80009060:	7f000293          	li	t0,2032

0000000080009064 <i_8917>:
    80009064:	02810083          	lb	ra,40(sp)

0000000080009068 <i_8918>:
    80009068:	03ef1863          	bne	t5,t5,80009098 <i_8928>

000000008000906c <i_8919>:
    8000906c:	021f5c3b          	divuw	s8,t5,ra

0000000080009070 <i_8920>:
    80009070:	c54dd5b7          	lui	a1,0xc54dd

0000000080009074 <i_8921>:
    80009074:	e9010083          	lb	ra,-368(sp)

0000000080009078 <i_8922>:
    80009078:	001e0e13          	addi	t3,t3,1 # 28297001 <main-0x57d68fff>
    8000907c:	ffc2d4e3          	ble	t3,t0,80009064 <i_8917>

0000000080009080 <i_8923>:
    80009080:	9b3fef93          	ori	t6,t6,-1613

0000000080009084 <i_8924>:
    80009084:	00170713          	addi	a4,a4,1 # 3e95c001 <main-0x416a3fff>
    80009088:	fce516e3          	bne	a0,a4,80009054 <i_8913>

000000008000908c <i_8925>:
    8000908c:	01e20e63          	beq	tp,t5,800090a8 <i_8932>

0000000080009090 <i_8926>:
    80009090:	41ef0bbb          	subw	s7,t5,t5

0000000080009094 <i_8927>:
    80009094:	021284b3          	mul	s1,t0,ra

0000000080009098 <i_8928>:
    80009098:	003f529b          	srliw	t0,t5,0x3

000000008000909c <i_8929>:
    8000909c:	0292f263          	bleu	s1,t0,800090c0 <i_8938>

00000000800090a0 <i_8930>:
    800090a0:	e6b12e23          	sw	a1,-388(sp)

00000000800090a4 <i_8931>:
    800090a4:	4025d19b          	sraiw	gp,a1,0x2

00000000800090a8 <i_8932>:
    800090a8:	02b0c263          	blt	ra,a1,800090cc <i_8941>

00000000800090ac <i_8933>:
    800090ac:	00bc6c63          	bltu	s8,a1,800090c4 <i_8939>

00000000800090b0 <i_8934>:
    800090b0:	00b00b93          	li	s7,11

00000000800090b4 <i_8935>:
    800090b4:	017095b3          	sll	a1,ra,s7

00000000800090b8 <i_8936>:
    800090b8:	00bfc463          	blt	t6,a1,800090c0 <i_8938>

00000000800090bc <i_8937>:
    800090bc:	01e2de63          	ble	t5,t0,800090d8 <i_8944>

00000000800090c0 <i_8938>:
    800090c0:	e1c11f03          	lh	t5,-484(sp)

00000000800090c4 <i_8939>:
    800090c4:	12c16303          	lwu	t1,300(sp)

00000000800090c8 <i_8940>:
    800090c8:	ed310783          	lb	a5,-301(sp)

00000000800090cc <i_8941>:
    800090cc:	02630063          	beq	t1,t1,800090ec <i_8949>

00000000800090d0 <i_8942>:
    800090d0:	19416583          	lwu	a1,404(sp)

00000000800090d4 <i_8943>:
    800090d4:	11211983          	lh	s3,274(sp)

00000000800090d8 <i_8944>:
    800090d8:	1bc16403          	lwu	s0,444(sp)

00000000800090dc <i_8945>:
    800090dc:	ff814483          	lbu	s1,-8(sp)

00000000800090e0 <i_8946>:
    800090e0:	54542793          	slti	a5,s0,1349

00000000800090e4 <i_8947>:
    800090e4:	024aff3b          	remuw	t5,s5,tp

00000000800090e8 <i_8948>:
    800090e8:	0039ec63          	bltu	s3,gp,80009100 <i_8954>

00000000800090ec <i_8949>:
    800090ec:	01b00093          	li	ra,27

00000000800090f0 <i_8950>:
    800090f0:	001b15b3          	sll	a1,s6,ra

00000000800090f4 <i_8951>:
    800090f4:	0233733b          	remuw	t1,t1,gp

00000000800090f8 <i_8952>:
    800090f8:	023d543b          	divuw	s0,s10,gp

00000000800090fc <i_8953>:
    800090fc:	fac12483          	lw	s1,-84(sp)

0000000080009100 <i_8954>:
    80009100:	31f5ce93          	xori	t4,a1,799

0000000080009104 <i_8955>:
    80009104:	ef812883          	lw	a7,-264(sp)

0000000080009108 <i_8956>:
    80009108:	00135b1b          	srliw	s6,t1,0x1

000000008000910c <i_8957>:
    8000910c:	09811403          	lh	s0,152(sp)

0000000080009110 <i_8958>:
    80009110:	02d00a13          	li	s4,45

0000000080009114 <i_8959>:
    80009114:	4149df33          	sra	t5,s3,s4

0000000080009118 <i_8960>:
    80009118:	fd013b03          	ld	s6,-48(sp)

000000008000911c <i_8961>:
    8000911c:	ea6100a3          	sb	t1,-351(sp)

0000000080009120 <i_8962>:
    80009120:	fa912c23          	sw	s1,-72(sp)

0000000080009124 <i_8963>:
    80009124:	0368cbbb          	divw	s7,a7,s6

0000000080009128 <i_8964>:
    80009128:	f2a15383          	lhu	t2,-214(sp)

000000008000912c <i_8965>:
    8000912c:	77800313          	li	t1,1912

0000000080009130 <i_8966>:
    80009130:	77c00893          	li	a7,1916

0000000080009134 <i_8967>:
    80009134:	eb810983          	lb	s3,-328(sp)

0000000080009138 <i_8968>:
    80009138:	00000013          	nop

000000008000913c <i_8969>:
    8000913c:	00000013          	nop

0000000080009140 <i_8970>:
    80009140:	0e6101a3          	sb	t1,227(sp)

0000000080009144 <i_8971>:
    80009144:	0033de13          	srli	t3,t2,0x3

0000000080009148 <i_8972>:
    80009148:	f4698d13          	addi	s10,s3,-186

000000008000914c <i_8973>:
    8000914c:	11211603          	lh	a2,274(sp)

0000000080009150 <i_8974>:
    80009150:	40c386bb          	subw	a3,t2,a2

0000000080009154 <i_8975>:
    80009154:	01000393          	li	t2,16

0000000080009158 <i_8976>:
    80009158:	0076d3bb          	srlw	t2,a3,t2

000000008000915c <i_8977>:
    8000915c:	00130313          	addi	t1,t1,1 # 21a7c001 <main-0x5e583fff>
    80009160:	fd134ae3          	blt	t1,a7,80009134 <i_8967>

0000000080009164 <i_8978>:
    80009164:	0106c833          	xor	a6,a3,a6

0000000080009168 <i_8979>:
    80009168:	00729263          	bne	t0,t2,8000916c <i_8980>

000000008000916c <i_8980>:
    8000916c:	02163333          	mulhu	t1,a2,ra

0000000080009170 <i_8981>:
    80009170:	02663b33          	mulhu	s6,a2,t1

0000000080009174 <i_8982>:
    80009174:	18012603          	lw	a2,384(sp)

0000000080009178 <i_8983>:
    80009178:	00000013          	nop

000000008000917c <i_8984>:
    8000917c:	82f00813          	li	a6,-2001

0000000080009180 <i_8985>:
    80009180:	84100413          	li	s0,-1983

0000000080009184 <i_8986>:
    80009184:	0339e9b3          	rem	s3,s3,s3

0000000080009188 <i_8987>:
    80009188:	00000013          	nop

000000008000918c <i_8988>:
    8000918c:	81600293          	li	t0,-2026

0000000080009190 <i_8989>:
    80009190:	81e00613          	li	a2,-2018

0000000080009194 <i_8990>:
    80009194:	03325233          	divu	tp,tp,s3

0000000080009198 <i_8991>:
    80009198:	f8c107a3          	sb	a2,-113(sp)

000000008000919c <i_8992>:
    8000919c:	00c65263          	ble	a2,a2,800091a0 <i_8993>

00000000800091a0 <i_8993>:
    800091a0:	04411823          	sh	tp,80(sp)

00000000800091a4 <i_8994>:
    800091a4:	eb411c23          	sh	s4,-328(sp)

00000000800091a8 <i_8995>:
    800091a8:	00121e1b          	slliw	t3,tp,0x1

00000000800091ac <i_8996>:
    800091ac:	f7811203          	lh	tp,-136(sp)

00000000800091b0 <i_8997>:
    800091b0:	00000013          	nop

00000000800091b4 <i_8998>:
    800091b4:	01c22e33          	slt	t3,tp,t3

00000000800091b8 <i_8999>:
    800091b8:	0242523b          	divuw	tp,tp,tp

00000000800091bc <i_9000>:
    800091bc:	00128293          	addi	t0,t0,1
    800091c0:	fc565ae3          	ble	t0,a2,80009194 <i_8990>

00000000800091c4 <i_9001>:
    800091c4:	ee710503          	lb	a0,-281(sp)

00000000800091c8 <i_9002>:
    800091c8:	00180813          	addi	a6,a6,1
    800091cc:	fa884ce3          	blt	a6,s0,80009184 <i_8986>

00000000800091d0 <i_9003>:
    800091d0:	024d5db3          	divu	s11,s10,tp

00000000800091d4 <i_9004>:
    800091d4:	0cc12303          	lw	t1,204(sp)

00000000800091d8 <i_9005>:
    800091d8:	02ad9063          	bne	s11,a0,800091f8 <i_9013>

00000000800091dc <i_9006>:
    800091dc:	fbc15903          	lhu	s2,-68(sp)

00000000800091e0 <i_9007>:
    800091e0:	e5813e03          	ld	t3,-424(sp)

00000000800091e4 <i_9008>:
    800091e4:	024258b3          	divu	a7,tp,tp

00000000800091e8 <i_9009>:
    800091e8:	03cdb0b3          	mulhu	ra,s11,t3

00000000800091ec <i_9010>:
    800091ec:	eaa13c23          	sd	a0,-328(sp)

00000000800091f0 <i_9011>:
    800091f0:	011dd663          	ble	a7,s11,800091fc <i_9014>

00000000800091f4 <i_9012>:
    800091f4:	f6111623          	sh	ra,-148(sp)

00000000800091f8 <i_9013>:
    800091f8:	02610ba3          	sb	t1,55(sp)

00000000800091fc <i_9014>:
    800091fc:	0c312023          	sw	gp,192(sp)

0000000080009200 <i_9015>:
    80009200:	00c00313          	li	t1,12

0000000080009204 <i_9016>:
    80009204:	0069563b          	srlw	a2,s2,t1

0000000080009208 <i_9017>:
    80009208:	0cc13c23          	sd	a2,216(sp)

000000008000920c <i_9018>:
    8000920c:	e6510783          	lb	a5,-411(sp)

0000000080009210 <i_9019>:
    80009210:	04816c03          	lwu	s8,72(sp)

0000000080009214 <i_9020>:
    80009214:	021670b3          	remu	ra,a2,ra

0000000080009218 <i_9021>:
    80009218:	0060e863          	bltu	ra,t1,80009228 <i_9025>

000000008000921c <i_9022>:
    8000921c:	039edebb          	divuw	t4,t4,s9

0000000080009220 <i_9023>:
    80009220:	0067c9b3          	xor	s3,a5,t1

0000000080009224 <i_9024>:
    80009224:	02634c3b          	divw	s8,t1,t1

0000000080009228 <i_9025>:
    80009228:	f46100a3          	sb	t1,-191(sp)

000000008000922c <i_9026>:
    8000922c:	f1a11303          	lh	t1,-230(sp)

0000000080009230 <i_9027>:
    80009230:	0067f263          	bleu	t1,a5,80009234 <i_9028>

0000000080009234 <i_9028>:
    80009234:	004ed49b          	srliw	s1,t4,0x4

0000000080009238 <i_9029>:
    80009238:	fa012303          	lw	t1,-96(sp)

000000008000923c <i_9030>:
    8000923c:	5694c493          	xori	s1,s1,1385

0000000080009240 <i_9031>:
    80009240:	e7412683          	lw	a3,-396(sp)

0000000080009244 <i_9032>:
    80009244:	00b71463          	bne	a4,a1,8000924c <i_9034>

0000000080009248 <i_9033>:
    80009248:	069108a3          	sb	s1,113(sp)

000000008000924c <i_9034>:
    8000924c:	003a8a63          	beq	s5,gp,80009260 <i_9039>

0000000080009250 <i_9035>:
    80009250:	18912c23          	sw	s1,408(sp)

0000000080009254 <i_9036>:
    80009254:	e6d13823          	sd	a3,-400(sp)

0000000080009258 <i_9037>:
    80009258:	03b10db3          	mul	s11,sp,s11

000000008000925c <i_9038>:
    8000925c:	e32109a3          	sb	s2,-461(sp)

0000000080009260 <i_9039>:
    80009260:	f5b13c23          	sd	s11,-168(sp)

0000000080009264 <i_9040>:
    80009264:	02500913          	li	s2,37

0000000080009268 <i_9041>:
    80009268:	4124ddb3          	sra	s11,s1,s2

000000008000926c <i_9042>:
    8000926c:	905a4a13          	xori	s4,s4,-1787

0000000080009270 <i_9043>:
    80009270:	0297e933          	rem	s2,a5,s1

0000000080009274 <i_9044>:
    80009274:	81c00793          	li	a5,-2020

0000000080009278 <i_9045>:
    80009278:	82b00493          	li	s1,-2005

000000008000927c <i_9046>:
    8000927c:	04e15d83          	lhu	s11,78(sp)

0000000080009280 <i_9047>:
    80009280:	e6910fa3          	sb	s1,-385(sp)

0000000080009284 <i_9048>:
    80009284:	1a013b83          	ld	s7,416(sp)

0000000080009288 <i_9049>:
    80009288:	15c10e03          	lb	t3,348(sp)

000000008000928c <i_9050>:
    8000928c:	0299e9bb          	remw	s3,s3,s1

0000000080009290 <i_9051>:
    80009290:	2d686993          	ori	s3,a6,726

0000000080009294 <i_9052>:
    80009294:	01c9e263          	bltu	s3,t3,80009298 <i_9053>

0000000080009298 <i_9053>:
    80009298:	0339ae33          	mulhsu	t3,s3,s3

000000008000929c <i_9054>:
    8000929c:	16e11c03          	lh	s8,366(sp)

00000000800092a0 <i_9055>:
    800092a0:	00178793          	addi	a5,a5,1
    800092a4:	fcf4dce3          	ble	a5,s1,8000927c <i_9046>

00000000800092a8 <i_9056>:
    800092a8:	01398863          	beq	s3,s3,800092b8 <i_9060>

00000000800092ac <i_9057>:
    800092ac:	e4a11f03          	lh	t5,-438(sp)

00000000800092b0 <i_9058>:
    800092b0:	f0e11703          	lh	a4,-242(sp)

00000000800092b4 <i_9059>:
    800092b4:	04615903          	lhu	s2,70(sp)

00000000800092b8 <i_9060>:
    800092b8:	f8e13c23          	sd	a4,-104(sp)

00000000800092bc <i_9061>:
    800092bc:	00000013          	nop

00000000800092c0 <i_9062>:
    800092c0:	86c00793          	li	a5,-1940

00000000800092c4 <i_9063>:
    800092c4:	87900a13          	li	s4,-1927

00000000800092c8 <i_9064>:
    800092c8:	03013083          	ld	ra,48(sp)

00000000800092cc <i_9065>:
    800092cc:	58a98f13          	addi	t5,s3,1418

00000000800092d0 <i_9066>:
    800092d0:	167109a3          	sb	t2,371(sp)

00000000800092d4 <i_9067>:
    800092d4:	018a3f33          	sltu	t5,s4,s8

00000000800092d8 <i_9068>:
    800092d8:	ebe10f23          	sb	t5,-322(sp)

00000000800092dc <i_9069>:
    800092dc:	e4813883          	ld	a7,-440(sp)

00000000800092e0 <i_9070>:
    800092e0:	0c813883          	ld	a7,200(sp)

00000000800092e4 <i_9071>:
    800092e4:	f1412903          	lw	s2,-236(sp)

00000000800092e8 <i_9072>:
    800092e8:	03500713          	li	a4,53

00000000800092ec <i_9073>:
    800092ec:	00e998b3          	sll	a7,s3,a4

00000000800092f0 <i_9074>:
    800092f0:	1a812b83          	lw	s7,424(sp)

00000000800092f4 <i_9075>:
    800092f4:	1d410fa3          	sb	s4,479(sp)

00000000800092f8 <i_9076>:
    800092f8:	ef112a23          	sw	a7,-268(sp)

00000000800092fc <i_9077>:
    800092fc:	00178793          	addi	a5,a5,1
    80009300:	fcfa54e3          	ble	a5,s4,800092c8 <i_9064>

0000000080009304 <i_9078>:
    80009304:	f5411883          	lh	a7,-172(sp)

0000000080009308 <i_9079>:
    80009308:	eb710f03          	lb	t5,-329(sp)

000000008000930c <i_9080>:
    8000930c:	0118c663          	blt	a7,a7,80009318 <i_9083>

0000000080009310 <i_9081>:
    80009310:	02424263          	blt	tp,tp,80009334 <i_9090>

0000000080009314 <i_9082>:
    80009314:	e5f14b03          	lbu	s6,-417(sp)

0000000080009318 <i_9083>:
    80009318:	03ebe063          	bltu	s7,t5,80009338 <i_9091>

000000008000931c <i_9084>:
    8000931c:	f1c14b03          	lbu	s6,-228(sp)

0000000080009320 <i_9085>:
    80009320:	e4813a83          	ld	s5,-440(sp)

0000000080009324 <i_9086>:
    80009324:	00e14a83          	lbu	s5,14(sp)

0000000080009328 <i_9087>:
    80009328:	12c14783          	lbu	a5,300(sp)

000000008000932c <i_9088>:
    8000932c:	f1a15b03          	lhu	s6,-230(sp)

0000000080009330 <i_9089>:
    80009330:	06c15a03          	lhu	s4,108(sp)

0000000080009334 <i_9090>:
    80009334:	f0611783          	lh	a5,-250(sp)

0000000080009338 <i_9091>:
    80009338:	18511423          	sh	t0,392(sp)

000000008000933c <i_9092>:
    8000933c:	036e0463          	beq	t3,s6,80009364 <i_9102>

0000000080009340 <i_9093>:
    80009340:	02fa2433          	mulhsu	s0,s4,a5

0000000080009344 <i_9094>:
    80009344:	01f00793          	li	a5,31

0000000080009348 <i_9095>:
    80009348:	40f7d7bb          	sraw	a5,a5,a5

000000008000934c <i_9096>:
    8000934c:	18d10783          	lb	a5,397(sp)

0000000080009350 <i_9097>:
    80009350:	00f7c463          	blt	a5,a5,80009358 <i_9099>

0000000080009354 <i_9098>:
    80009354:	f7412503          	lw	a0,-140(sp)

0000000080009358 <i_9099>:
    80009358:	f1c11403          	lh	s0,-228(sp)

000000008000935c <i_9100>:
    8000935c:	00a78a63          	beq	a5,a0,80009370 <i_9105>

0000000080009360 <i_9101>:
    80009360:	e6412d83          	lw	s11,-412(sp)

0000000080009364 <i_9102>:
    80009364:	ec810503          	lb	a0,-312(sp)

0000000080009368 <i_9103>:
    80009368:	88c83813          	sltiu	a6,a6,-1908

000000008000936c <i_9104>:
    8000936c:	03e00793          	li	a5,62

0000000080009370 <i_9105>:
    80009370:	00fc92b3          	sll	t0,s9,a5

0000000080009374 <i_9106>:
    80009374:	e5914803          	lbu	a6,-423(sp)

0000000080009378 <i_9107>:
    80009378:	ea513423          	sd	t0,-344(sp)

000000008000937c <i_9108>:
    8000937c:	e6c16d03          	lwu	s10,-404(sp)

0000000080009380 <i_9109>:
    80009380:	0c011283          	lh	t0,192(sp)

0000000080009384 <i_9110>:
    80009384:	01ade7b3          	or	a5,s11,s10

0000000080009388 <i_9111>:
    80009388:	005d7263          	bleu	t0,s10,8000938c <i_9112>

000000008000938c <i_9112>:
    8000938c:	fca15783          	lhu	a5,-54(sp)

0000000080009390 <i_9113>:
    80009390:	0252d463          	ble	t0,t0,800093b8 <i_9123>

0000000080009394 <i_9114>:
    80009394:	fb22c493          	xori	s1,t0,-78

0000000080009398 <i_9115>:
    80009398:	09416503          	lwu	a0,148(sp)

000000008000939c <i_9116>:
    8000939c:	00000013          	nop

00000000800093a0 <i_9117>:
    800093a0:	1d012a03          	lw	s4,464(sp)

00000000800093a4 <i_9118>:
    800093a4:	19114583          	lbu	a1,401(sp)

00000000800093a8 <i_9119>:
    800093a8:	0015f0b3          	and	ra,a1,ra

00000000800093ac <i_9120>:
    800093ac:	00000013          	nop

00000000800093b0 <i_9121>:
    800093b0:	009e04b3          	add	s1,t3,s1

00000000800093b4 <i_9122>:
    800093b4:	1a414483          	lbu	s1,420(sp)

00000000800093b8 <i_9123>:
    800093b8:	00000013          	nop

00000000800093bc <i_9124>:
    800093bc:	17c12a03          	lw	s4,380(sp)

00000000800093c0 <i_9125>:
    800093c0:	74e00293          	li	t0,1870

00000000800093c4 <i_9126>:
    800093c4:	75f00e93          	li	t4,1887

00000000800093c8 <i_9127>:
    800093c8:	e97105a3          	sb	s7,-373(sp)

00000000800093cc <i_9128>:
    800093cc:	e7514503          	lbu	a0,-395(sp)

00000000800093d0 <i_9129>:
    800093d0:	00000013          	nop

00000000800093d4 <i_9130>:
    800093d4:	00128293          	addi	t0,t0,1
    800093d8:	fe5ed8e3          	ble	t0,t4,800093c8 <i_9127>

00000000800093dc <i_9131>:
    800093dc:	00000013          	nop

00000000800093e0 <i_9132>:
    800093e0:	0a4eee93          	ori	t4,t4,164

00000000800093e4 <i_9133>:
    800093e4:	e9c11503          	lh	a0,-356(sp)

00000000800093e8 <i_9134>:
    800093e8:	e8c11083          	lh	ra,-372(sp)

00000000800093ec <i_9135>:
    800093ec:	00a0b533          	sltu	a0,ra,a0

00000000800093f0 <i_9136>:
    800093f0:	01500513          	li	a0,21

00000000800093f4 <i_9137>:
    800093f4:	00a5553b          	srlw	a0,a0,a0

00000000800093f8 <i_9138>:
    800093f8:	0ba10983          	lb	s3,186(sp)

00000000800093fc <i_9139>:
    800093fc:	e4816203          	lwu	tp,-440(sp)

0000000080009400 <i_9140>:
    80009400:	e2013783          	ld	a5,-480(sp)

0000000080009404 <i_9141>:
    80009404:	00698233          	add	tp,s3,t1

0000000080009408 <i_9142>:
    80009408:	40a48233          	sub	tp,s1,a0

000000008000940c <i_9143>:
    8000940c:	10813203          	ld	tp,264(sp)

0000000080009410 <i_9144>:
    80009410:	18a15583          	lhu	a1,394(sp)

0000000080009414 <i_9145>:
    80009414:	10215083          	lhu	ra,258(sp)

0000000080009418 <i_9146>:
    80009418:	17511323          	sh	s5,358(sp)

000000008000941c <i_9147>:
    8000941c:	02b230b3          	mulhu	ra,tp,a1

0000000080009420 <i_9148>:
    80009420:	01500593          	li	a1,21

0000000080009424 <i_9149>:
    80009424:	40b1d0bb          	sraw	ra,gp,a1

0000000080009428 <i_9150>:
    80009428:	00388663          	beq	a7,gp,80009434 <i_9153>

000000008000942c <i_9151>:
    8000942c:	0035941b          	slliw	s0,a1,0x3

0000000080009430 <i_9152>:
    80009430:	79b4041b          	addiw	s0,s0,1947

0000000080009434 <i_9153>:
    80009434:	e48101a3          	sb	s0,-445(sp)

0000000080009438 <i_9154>:
    80009438:	02846833          	rem	a6,s0,s0

000000008000943c <i_9155>:
    8000943c:	08812623          	sw	s0,140(sp)

0000000080009440 <i_9156>:
    80009440:	0305f8b3          	remu	a7,a1,a6

0000000080009444 <i_9157>:
    80009444:	09415a83          	lhu	s5,148(sp)

0000000080009448 <i_9158>:
    80009448:	f3c12303          	lw	t1,-196(sp)

000000008000944c <i_9159>:
    8000944c:	12a11883          	lh	a7,298(sp)

0000000080009450 <i_9160>:
    80009450:	11611a83          	lh	s5,278(sp)

0000000080009454 <i_9161>:
    80009454:	09f65437          	lui	s0,0x9f65

0000000080009458 <i_9162>:
    80009458:	0128e263          	bltu	a7,s2,8000945c <i_9163>

000000008000945c <i_9163>:
    8000945c:	03187063          	bleu	a7,a6,8000947c <i_9171>

0000000080009460 <i_9164>:
    80009460:	01e45463          	ble	t5,s0,80009468 <i_9166>

0000000080009464 <i_9165>:
    80009464:	0118da63          	ble	a7,a7,80009478 <i_9170>

0000000080009468 <i_9166>:
    80009468:	03ef1263          	bne	t5,t5,8000948c <i_9175>

000000008000946c <i_9167>:
    8000946c:	eec12283          	lw	t0,-276(sp)

0000000080009470 <i_9168>:
    80009470:	0028d693          	srli	a3,a7,0x2

0000000080009474 <i_9169>:
    80009474:	018f4863          	blt	t5,s8,80009484 <i_9173>

0000000080009478 <i_9170>:
    80009478:	afc2ee93          	ori	t4,t0,-1284

000000008000947c <i_9171>:
    8000947c:	02d282bb          	mulw	t0,t0,a3

0000000080009480 <i_9172>:
    80009480:	01d282b3          	add	t0,t0,t4

0000000080009484 <i_9173>:
    80009484:	0252e2bb          	remw	t0,t0,t0

0000000080009488 <i_9174>:
    80009488:	025e8463          	beq	t4,t0,800094b0 <i_9184>

000000008000948c <i_9175>:
    8000948c:	1b714e03          	lbu	t3,439(sp)

0000000080009490 <i_9176>:
    80009490:	f5013783          	ld	a5,-176(sp)

0000000080009494 <i_9177>:
    80009494:	ef5101a3          	sb	s5,-285(sp)

0000000080009498 <i_9178>:
    80009498:	ec615603          	lhu	a2,-314(sp)

000000008000949c <i_9179>:
    8000949c:	13c101a3          	sb	t3,291(sp)

00000000800094a0 <i_9180>:
    800094a0:	ee016d03          	lwu	s10,-288(sp)

00000000800094a4 <i_9181>:
    800094a4:	0387e063          	bltu	a5,s8,800094c4 <i_9189>

00000000800094a8 <i_9182>:
    800094a8:	eb013d03          	ld	s10,-336(sp)

00000000800094ac <i_9183>:
    800094ac:	06511423          	sh	t0,104(sp)

00000000800094b0 <i_9184>:
    800094b0:	1df109a3          	sb	t6,467(sp)

00000000800094b4 <i_9185>:
    800094b4:	01710283          	lb	t0,23(sp)

00000000800094b8 <i_9186>:
    800094b8:	00f2e663          	bltu	t0,a5,800094c4 <i_9189>

00000000800094bc <i_9187>:
    800094bc:	03ae6063          	bltu	t3,s10,800094dc <i_9195>

00000000800094c0 <i_9188>:
    800094c0:	4052863b          	subw	a2,t0,t0

00000000800094c4 <i_9189>:
    800094c4:	23ae8893          	addi	a7,t4,570

00000000800094c8 <i_9190>:
    800094c8:	07016b83          	lwu	s7,112(sp)

00000000800094cc <i_9191>:
    800094cc:	e9c13c23          	sd	t3,-360(sp)

00000000800094d0 <i_9192>:
    800094d0:	fb813d83          	ld	s11,-72(sp)

00000000800094d4 <i_9193>:
    800094d4:	02d00893          	li	a7,45

00000000800094d8 <i_9194>:
    800094d8:	4112d8b3          	sra	a7,t0,a7

00000000800094dc <i_9195>:
    800094dc:	ea813d83          	ld	s11,-344(sp)

00000000800094e0 <i_9196>:
    800094e0:	e8812f83          	lw	t6,-376(sp)

00000000800094e4 <i_9197>:
    800094e4:	8ac00293          	li	t0,-1876

00000000800094e8 <i_9198>:
    800094e8:	8b200493          	li	s1,-1870

00000000800094ec <i_9199>:
    800094ec:	00128293          	addi	t0,t0,1
    800094f0:	fe54fee3          	bleu	t0,s1,800094ec <i_9199>

00000000800094f4 <i_9200>:
    800094f4:	02581db3          	mulh	s11,a6,t0

00000000800094f8 <i_9201>:
    800094f8:	17013d83          	ld	s11,368(sp)

00000000800094fc <i_9202>:
    800094fc:	01bdf663          	bleu	s11,s11,80009508 <i_9205>

0000000080009500 <i_9203>:
    80009500:	01f3c663          	blt	t2,t6,8000950c <i_9206>

0000000080009504 <i_9204>:
    80009504:	19411883          	lh	a7,404(sp)

0000000080009508 <i_9205>:
    80009508:	00169993          	slli	s3,a3,0x1

000000008000950c <i_9206>:
    8000950c:	008d9e63          	bne	s11,s0,80009528 <i_9213>

0000000080009510 <i_9207>:
    80009510:	17813d83          	ld	s11,376(sp)

0000000080009514 <i_9208>:
    80009514:	0ce11803          	lh	a6,206(sp)

0000000080009518 <i_9209>:
    80009518:	1d615483          	lhu	s1,470(sp)

000000008000951c <i_9210>:
    8000951c:	42c93213          	sltiu	tp,s2,1068

0000000080009520 <i_9211>:
    80009520:	08a14d83          	lbu	s11,138(sp)

0000000080009524 <i_9212>:
    80009524:	01813703          	ld	a4,24(sp)

0000000080009528 <i_9213>:
    80009528:	03148c3b          	mulw	s8,s1,a7

000000008000952c <i_9214>:
    8000952c:	00e93fb3          	sltu	t6,s2,a4

0000000080009530 <i_9215>:
    80009530:	73000593          	li	a1,1840

0000000080009534 <i_9216>:
    80009534:	74400913          	li	s2,1860

0000000080009538 <i_9217>:
    80009538:	01100f93          	li	t6,17

000000008000953c <i_9218>:
    8000953c:	01f8d8bb          	srlw	a7,a7,t6

0000000080009540 <i_9219>:
    80009540:	1e015803          	lhu	a6,480(sp)

0000000080009544 <i_9220>:
    80009544:	012c5a63          	ble	s2,s8,80009558 <i_9224>

0000000080009548 <i_9221>:
    80009548:	00158593          	addi	a1,a1,1 # ffffffffc54dd001 <_end+0xffffffff454ccbed>
    8000954c:	feb976e3          	bleu	a1,s2,80009538 <i_9217>

0000000080009550 <i_9222>:
    80009550:	03f87263          	bleu	t6,a6,80009574 <i_9231>

0000000080009554 <i_9223>:
    80009554:	03f87f33          	remu	t5,a6,t6

0000000080009558 <i_9224>:
    80009558:	0188ca63          	blt	a7,s8,8000956c <i_9229>

000000008000955c <i_9225>:
    8000955c:	03e8c8b3          	div	a7,a7,t5

0000000080009560 <i_9226>:
    80009560:	0118f863          	bleu	a7,a7,80009570 <i_9230>

0000000080009564 <i_9227>:
    80009564:	163109a3          	sb	gp,371(sp)

0000000080009568 <i_9228>:
    80009568:	01e81a63          	bne	a6,t5,8000957c <i_9233>

000000008000956c <i_9229>:
    8000956c:	030f0463          	beq	t5,a6,80009594 <i_9239>

0000000080009570 <i_9230>:
    80009570:	01e4de63          	ble	t5,s1,8000958c <i_9237>

0000000080009574 <i_9231>:
    80009574:	b2f8f893          	andi	a7,a7,-1233

0000000080009578 <i_9232>:
    80009578:	1d113823          	sd	a7,464(sp)

000000008000957c <i_9233>:
    8000957c:	01113023          	sd	a7,0(sp)

0000000080009580 <i_9234>:
    80009580:	f9016503          	lwu	a0,-112(sp)

0000000080009584 <i_9235>:
    80009584:	fd416683          	lwu	a3,-44(sp)

0000000080009588 <i_9236>:
    80009588:	fea10d23          	sb	a0,-6(sp)

000000008000958c <i_9237>:
    8000958c:	fc683d93          	sltiu	s11,a6,-58

0000000080009590 <i_9238>:
    80009590:	f7b11023          	sh	s11,-160(sp)

0000000080009594 <i_9239>:
    80009594:	0ac12503          	lw	a0,172(sp)

0000000080009598 <i_9240>:
    80009598:	06a12423          	sw	a0,104(sp)

000000008000959c <i_9241>:
    8000959c:	00dc3d33          	sltu	s10,s8,a3

00000000800095a0 <i_9242>:
    800095a0:	00a56863          	bltu	a0,a0,800095b0 <i_9246>

00000000800095a4 <i_9243>:
    800095a4:	1abc2a13          	slti	s4,s8,427

00000000800095a8 <i_9244>:
    800095a8:	1bb105a3          	sb	s11,427(sp)

00000000800095ac <i_9245>:
    800095ac:	f6a13023          	sd	a0,-160(sp)

00000000800095b0 <i_9246>:
    800095b0:	12d11923          	sh	a3,306(sp)

00000000800095b4 <i_9247>:
    800095b4:	1842c293          	xori	t0,t0,388

00000000800095b8 <i_9248>:
    800095b8:	00f2f2b3          	and	t0,t0,a5

00000000800095bc <i_9249>:
    800095bc:	01b29463          	bne	t0,s11,800095c4 <i_9251>

00000000800095c0 <i_9250>:
    800095c0:	03bf5063          	ble	s11,t5,800095e0 <i_9258>

00000000800095c4 <i_9251>:
    800095c4:	4012d293          	srai	t0,t0,0x1

00000000800095c8 <i_9252>:
    800095c8:	00528c63          	beq	t0,t0,800095e0 <i_9258>

00000000800095cc <i_9253>:
    800095cc:	01633833          	sltu	a6,t1,s6

00000000800095d0 <i_9254>:
    800095d0:	1e013d03          	ld	s10,480(sp)

00000000800095d4 <i_9255>:
    800095d4:	f4511823          	sh	t0,-176(sp)

00000000800095d8 <i_9256>:
    800095d8:	09a13c23          	sd	s10,152(sp)

00000000800095dc <i_9257>:
    800095dc:	e7814883          	lbu	a7,-392(sp)

00000000800095e0 <i_9258>:
    800095e0:	fdc12283          	lw	t0,-36(sp)

00000000800095e4 <i_9259>:
    800095e4:	13113c23          	sd	a7,312(sp)

00000000800095e8 <i_9260>:
    800095e8:	00f57c63          	bleu	a5,a0,80009600 <i_9266>

00000000800095ec <i_9261>:
    800095ec:	003d129b          	slliw	t0,s10,0x3

00000000800095f0 <i_9262>:
    800095f0:	9c42e793          	ori	a5,t0,-1596

00000000800095f4 <i_9263>:
    800095f4:	00285613          	srli	a2,a6,0x2

00000000800095f8 <i_9264>:
    800095f8:	02c6c93b          	divw	s2,a3,a2

00000000800095fc <i_9265>:
    800095fc:	0ae12423          	sw	a4,168(sp)

0000000080009600 <i_9266>:
    80009600:	fb013823          	sd	a6,-80(sp)

0000000080009604 <i_9267>:
    80009604:	5af28293          	addi	t0,t0,1455

0000000080009608 <i_9268>:
    80009608:	02b435b3          	mulhu	a1,s0,a1

000000008000960c <i_9269>:
    8000960c:	0322c063          	blt	t0,s2,8000962c <i_9277>

0000000080009610 <i_9270>:
    80009610:	00f76663          	bltu	a4,a5,8000961c <i_9273>

0000000080009614 <i_9271>:
    80009614:	02c845bb          	divw	a1,a6,a2

0000000080009618 <i_9272>:
    80009618:	00329193          	slli	gp,t0,0x3

000000008000961c <i_9273>:
    8000961c:	00000013          	nop

0000000080009620 <i_9274>:
    80009620:	00000013          	nop

0000000080009624 <i_9275>:
    80009624:	b119021b          	addiw	tp,s2,-1263

0000000080009628 <i_9276>:
    80009628:	1b811903          	lh	s2,440(sp)

000000008000962c <i_9277>:
    8000962c:	01297933          	and	s2,s2,s2

0000000080009630 <i_9278>:
    80009630:	00000013          	nop

0000000080009634 <i_9279>:
    80009634:	78600293          	li	t0,1926

0000000080009638 <i_9280>:
    80009638:	79400593          	li	a1,1940

000000008000963c <i_9281>:
    8000963c:	03296663          	bltu	s2,s2,80009668 <i_9291>

0000000080009640 <i_9282>:
    80009640:	e3211323          	sh	s2,-474(sp)

0000000080009644 <i_9283>:
    80009644:	0b213c23          	sd	s2,184(sp)

0000000080009648 <i_9284>:
    80009648:	18d10223          	sb	a3,388(sp)

000000008000964c <i_9285>:
    8000964c:	00624e63          	blt	tp,t1,80009668 <i_9291>

0000000080009650 <i_9286>:
    80009650:	01291e63          	bne	s2,s2,8000966c <i_9292>

0000000080009654 <i_9287>:
    80009654:	00128293          	addi	t0,t0,1
    80009658:	feb2e2e3          	bltu	t0,a1,8000963c <i_9281>

000000008000965c <i_9288>:
    8000965c:	01b00a13          	li	s4,27

0000000080009660 <i_9289>:
    80009660:	01425233          	srl	tp,tp,s4

0000000080009664 <i_9290>:
    80009664:	0b210023          	sb	s2,160(sp)

0000000080009668 <i_9291>:
    80009668:	01296863          	bltu	s2,s2,80009678 <i_9295>

000000008000966c <i_9292>:
    8000966c:	00491263          	bne	s2,tp,80009670 <i_9293>

0000000080009670 <i_9293>:
    80009670:	fbe11203          	lh	tp,-66(sp)

0000000080009674 <i_9294>:
    80009674:	1c211603          	lh	a2,450(sp)

0000000080009678 <i_9295>:
    80009678:	f7815903          	lhu	s2,-136(sp)

000000008000967c <i_9296>:
    8000967c:	07310e23          	sb	s3,124(sp)

0000000080009680 <i_9297>:
    80009680:	ec413423          	sd	tp,-312(sp)

0000000080009684 <i_9298>:
    80009684:	00490263          	beq	s2,tp,80009688 <i_9299>

0000000080009688 <i_9299>:
    80009688:	00c97bb3          	and	s7,s2,a2

000000008000968c <i_9300>:
    8000968c:	012a6e63          	bltu	s4,s2,800096a8 <i_9307>

0000000080009690 <i_9301>:
    80009690:	03000713          	li	a4,48

0000000080009694 <i_9302>:
    80009694:	00efda33          	srl	s4,t6,a4

0000000080009698 <i_9303>:
    80009698:	0348ffb3          	remu	t6,a7,s4

000000008000969c <i_9304>:
    8000969c:	00000013          	nop

00000000800096a0 <i_9305>:
    800096a0:	118369b7          	lui	s3,0x11836

00000000800096a4 <i_9306>:
    800096a4:	eb410a03          	lb	s4,-332(sp)

00000000800096a8 <i_9307>:
    800096a8:	e7411a23          	sh	s4,-396(sp)

00000000800096ac <i_9308>:
    800096ac:	11011503          	lh	a0,272(sp)

00000000800096b0 <i_9309>:
    800096b0:	80800f93          	li	t6,-2040

00000000800096b4 <i_9310>:
    800096b4:	80c00893          	li	a7,-2036

00000000800096b8 <i_9311>:
    800096b8:	01f00993          	li	s3,31

00000000800096bc <i_9312>:
    800096bc:	013a59b3          	srl	s3,s4,s3

00000000800096c0 <i_9313>:
    800096c0:	03199063          	bne	s3,a7,800096e0 <i_9320>

00000000800096c4 <i_9314>:
    800096c4:	e7a11a03          	lh	s4,-390(sp)

00000000800096c8 <i_9315>:
    800096c8:	03e15983          	lhu	s3,62(sp)

00000000800096cc <i_9316>:
    800096cc:	00c00793          	li	a5,12

00000000800096d0 <i_9317>:
    800096d0:	00f9d9bb          	srlw	s3,s3,a5

00000000800096d4 <i_9318>:
    800096d4:	001f8f93          	addi	t6,t6,1
    800096d8:	ff1f90e3          	bne	t6,a7,800096b8 <i_9311>

00000000800096dc <i_9319>:
    800096dc:	0337c9bb          	divw	s3,a5,s3

00000000800096e0 <i_9320>:
    800096e0:	ef313023          	sd	s3,-288(sp)

00000000800096e4 <i_9321>:
    800096e4:	e8812b83          	lw	s7,-376(sp)

00000000800096e8 <i_9322>:
    800096e8:	ff310d23          	sb	s3,-6(sp)

00000000800096ec <i_9323>:
    800096ec:	f7811303          	lh	t1,-136(sp)

00000000800096f0 <i_9324>:
    800096f0:	0039969b          	slliw	a3,s3,0x3

00000000800096f4 <i_9325>:
    800096f4:	03f3b6b3          	mulhu	a3,t2,t6

00000000800096f8 <i_9326>:
    800096f8:	02d31933          	mulh	s2,t1,a3

00000000800096fc <i_9327>:
    800096fc:	eef13023          	sd	a5,-288(sp)

0000000080009700 <i_9328>:
    80009700:	01724c63          	blt	tp,s7,80009718 <i_9334>

0000000080009704 <i_9329>:
    80009704:	0337b833          	mulhu	a6,a5,s3

0000000080009708 <i_9330>:
    80009708:	032bd263          	ble	s2,s7,8000972c <i_9339>

000000008000970c <i_9331>:
    8000970c:	00684c63          	blt	a6,t1,80009724 <i_9337>

0000000080009710 <i_9332>:
    80009710:	017bd463          	ble	s7,s7,80009718 <i_9334>

0000000080009714 <i_9333>:
    80009714:	05013d03          	ld	s10,80(sp)

0000000080009718 <i_9334>:
    80009718:	017b8463          	beq	s7,s7,80009720 <i_9336>

000000008000971c <i_9335>:
    8000971c:	01b00293          	li	t0,27

0000000080009720 <i_9336>:
    80009720:	005c583b          	srlw	a6,s8,t0

0000000080009724 <i_9337>:
    80009724:	02fd4463          	blt	s10,a5,8000974c <i_9347>

0000000080009728 <i_9338>:
    80009728:	ec615e83          	lhu	t4,-314(sp)

000000008000972c <i_9339>:
    8000972c:	ec615d03          	lhu	s10,-314(sp)

0000000080009730 <i_9340>:
    80009730:	00300093          	li	ra,3

0000000080009734 <i_9341>:
    80009734:	001d133b          	sllw	t1,s10,ra

0000000080009738 <i_9342>:
    80009738:	00000013          	nop

000000008000973c <i_9343>:
    8000973c:	1a415203          	lhu	tp,420(sp)

0000000080009740 <i_9344>:
    80009740:	f2e14803          	lbu	a6,-210(sp)

0000000080009744 <i_9345>:
    80009744:	e8613823          	sd	t1,-368(sp)

0000000080009748 <i_9346>:
    80009748:	00000013          	nop

000000008000974c <i_9347>:
    8000974c:	ed012823          	sw	a6,-304(sp)

0000000080009750 <i_9348>:
    80009750:	00000013          	nop

0000000080009754 <i_9349>:
    80009754:	8af00593          	li	a1,-1873

0000000080009758 <i_9350>:
    80009758:	8bb00d13          	li	s10,-1861

000000008000975c <i_9351>:
    8000975c:	f8813803          	ld	a6,-120(sp)

0000000080009760 <i_9352>:
    80009760:	00000013          	nop

0000000080009764 <i_9353>:
    80009764:	0032581b          	srliw	a6,tp,0x3

0000000080009768 <i_9354>:
    80009768:	e8810883          	lb	a7,-376(sp)

000000008000976c <i_9355>:
    8000976c:	0308c23b          	divw	tp,a7,a6

0000000080009770 <i_9356>:
    80009770:	73926213          	ori	tp,tp,1849

0000000080009774 <i_9357>:
    80009774:	00000013          	nop

0000000080009778 <i_9358>:
    80009778:	06413423          	sd	tp,104(sp)

000000008000977c <i_9359>:
    8000977c:	02f8d8bb          	divuw	a7,a7,a5

0000000080009780 <i_9360>:
    80009780:	02b234b3          	mulhu	s1,tp,a1

0000000080009784 <i_9361>:
    80009784:	00158593          	addi	a1,a1,1
    80009788:	fda5cae3          	blt	a1,s10,8000975c <i_9351>

000000008000978c <i_9362>:
    8000978c:	0293b3b3          	mulhu	t2,t2,s1

0000000080009790 <i_9363>:
    80009790:	023481b3          	mul	gp,s1,gp

0000000080009794 <i_9364>:
    80009794:	00727463          	bleu	t2,tp,8000979c <i_9366>

0000000080009798 <i_9365>:
    80009798:	04012803          	lw	a6,64(sp)

000000008000979c <i_9366>:
    8000979c:	e1a15383          	lhu	t2,-486(sp)

00000000800097a0 <i_9367>:
    800097a0:	02313823          	sd	gp,48(sp)

00000000800097a4 <i_9368>:
    800097a4:	0073d463          	ble	t2,t2,800097ac <i_9370>

00000000800097a8 <i_9369>:
    800097a8:	0304543b          	divuw	s0,s0,a6

00000000800097ac <i_9370>:
    800097ac:	e8811123          	sh	s0,-382(sp)

00000000800097b0 <i_9371>:
    800097b0:	f2813383          	ld	t2,-216(sp)

00000000800097b4 <i_9372>:
    800097b4:	e7f10e23          	sb	t6,-388(sp)

00000000800097b8 <i_9373>:
    800097b8:	83700193          	li	gp,-1993

00000000800097bc <i_9374>:
    800097bc:	83e00513          	li	a0,-1986

00000000800097c0 <i_9375>:
    800097c0:	7739c813          	xori	a6,s3,1907

00000000800097c4 <i_9376>:
    800097c4:	ea712623          	sw	t2,-340(sp)

00000000800097c8 <i_9377>:
    800097c8:	f4111523          	sh	ra,-182(sp)

00000000800097cc <i_9378>:
    800097cc:	03741bb3          	mulh	s7,s0,s7

00000000800097d0 <i_9379>:
    800097d0:	410405b3          	sub	a1,s0,a6

00000000800097d4 <i_9380>:
    800097d4:	00900593          	li	a1,9

00000000800097d8 <i_9381>:
    800097d8:	00b85ebb          	srlw	t4,a6,a1

00000000800097dc <i_9382>:
    800097dc:	f2a12623          	sw	a0,-212(sp)

00000000800097e0 <i_9383>:
    800097e0:	00118193          	addi	gp,gp,1
    800097e4:	fc355ee3          	ble	gp,a0,800097c0 <i_9375>

00000000800097e8 <i_9384>:
    800097e8:	07114183          	lbu	gp,113(sp)

00000000800097ec <i_9385>:
    800097ec:	16c15903          	lhu	s2,364(sp)

00000000800097f0 <i_9386>:
    800097f0:	02358263          	beq	a1,gp,80009814 <i_9395>

00000000800097f4 <i_9387>:
    800097f4:	40195413          	srai	s0,s2,0x1

00000000800097f8 <i_9388>:
    800097f8:	01240433          	add	s0,s0,s2

00000000800097fc <i_9389>:
    800097fc:	00000013          	nop

0000000080009800 <i_9390>:
    80009800:	ea813583          	ld	a1,-344(sp)

0000000080009804 <i_9391>:
    80009804:	00000013          	nop

0000000080009808 <i_9392>:
    80009808:	f9215403          	lhu	s0,-110(sp)

000000008000980c <i_9393>:
    8000980c:	1d816983          	lwu	s3,472(sp)

0000000080009810 <i_9394>:
    80009810:	cd752c13          	slti	s8,a0,-809

0000000080009814 <i_9395>:
    80009814:	00000013          	nop

0000000080009818 <i_9396>:
    80009818:	00000013          	nop

000000008000981c <i_9397>:
    8000981c:	86700693          	li	a3,-1945

0000000080009820 <i_9398>:
    80009820:	87700193          	li	gp,-1929

0000000080009824 <i_9399>:
    80009824:	ebc16883          	lwu	a7,-324(sp)

0000000080009828 <i_9400>:
    80009828:	02900e93          	li	t4,41

000000008000982c <i_9401>:
    8000982c:	01d5d8b3          	srl	a7,a1,t4

0000000080009830 <i_9402>:
    80009830:	8b700213          	li	tp,-1865

0000000080009834 <i_9403>:
    80009834:	8be00a13          	li	s4,-1858

0000000080009838 <i_9404>:
    80009838:	f6410023          	sb	tp,-160(sp)

000000008000983c <i_9405>:
    8000983c:	00120213          	addi	tp,tp,1 # 1 <main-0x7fffffff>
    80009840:	ff426ae3          	bltu	tp,s4,80009834 <i_9403>

0000000080009844 <i_9406>:
    80009844:	f7d12c23          	sw	t4,-136(sp)

0000000080009848 <i_9407>:
    80009848:	004e8233          	add	tp,t4,tp

000000008000984c <i_9408>:
    8000984c:	00168693          	addi	a3,a3,1
    80009850:	fc36cae3          	blt	a3,gp,80009824 <i_9399>

0000000080009854 <i_9409>:
    80009854:	001b1093          	slli	ra,s6,0x1

0000000080009858 <i_9410>:
    80009858:	0044ec63          	bltu	s1,tp,80009870 <i_9416>

000000008000985c <i_9411>:
    8000985c:	03189233          	mulh	tp,a7,a7

0000000080009860 <i_9412>:
    80009860:	f2110ea3          	sb	ra,-195(sp)

0000000080009864 <i_9413>:
    80009864:	01766bb3          	or	s7,a2,s7

0000000080009868 <i_9414>:
    80009868:	03d8eeb3          	rem	t4,a7,t4

000000008000986c <i_9415>:
    8000986c:	00f00893          	li	a7,15

0000000080009870 <i_9416>:
    80009870:	411e58bb          	sraw	a7,t3,a7

0000000080009874 <i_9417>:
    80009874:	0017e263          	bltu	a5,ra,80009878 <i_9418>

0000000080009878 <i_9418>:
    80009878:	04412023          	sw	tp,64(sp)

000000008000987c <i_9419>:
    8000987c:	fe813a03          	ld	s4,-24(sp)

0000000080009880 <i_9420>:
    80009880:	16211b03          	lh	s6,354(sp)

0000000080009884 <i_9421>:
    80009884:	f5110e83          	lb	t4,-175(sp)

0000000080009888 <i_9422>:
    80009888:	03426463          	bltu	tp,s4,800098b0 <i_9432>

000000008000988c <i_9423>:
    8000988c:	0310cabb          	divw	s5,ra,a7

0000000080009890 <i_9424>:
    80009890:	01f00093          	li	ra,31

0000000080009894 <i_9425>:
    80009894:	001a9a33          	sll	s4,s5,ra

0000000080009898 <i_9426>:
    80009898:	f5010203          	lb	tp,-176(sp)

000000008000989c <i_9427>:
    8000989c:	0aa11f03          	lh	t5,170(sp)

00000000800098a0 <i_9428>:
    800098a0:	01de4e63          	blt	t3,t4,800098bc <i_9435>

00000000800098a4 <i_9429>:
    800098a4:	02818463          	beq	gp,s0,800098cc <i_9439>

00000000800098a8 <i_9430>:
    800098a8:	3d81f193          	andi	gp,gp,984

00000000800098ac <i_9431>:
    800098ac:	02a00593          	li	a1,42

00000000800098b0 <i_9432>:
    800098b0:	00bf10b3          	sll	ra,t5,a1

00000000800098b4 <i_9433>:
    800098b4:	e8112e23          	sw	ra,-356(sp)

00000000800098b8 <i_9434>:
    800098b8:	00159193          	slli	gp,a1,0x1

00000000800098bc <i_9435>:
    800098bc:	4020d313          	srai	t1,ra,0x2

00000000800098c0 <i_9436>:
    800098c0:	026582bb          	mulw	t0,a1,t1

00000000800098c4 <i_9437>:
    800098c4:	03b14683          	lbu	a3,59(sp)

00000000800098c8 <i_9438>:
    800098c8:	0da15683          	lhu	a3,218(sp)

00000000800098cc <i_9439>:
    800098cc:	0030c663          	blt	ra,gp,800098d8 <i_9442>

00000000800098d0 <i_9440>:
    800098d0:	12111b23          	sh	ra,310(sp)

00000000800098d4 <i_9441>:
    800098d4:	35876f97          	auipc	t6,0x35876

00000000800098d8 <i_9442>:
    800098d8:	00000013          	nop

00000000800098dc <i_9443>:
    800098dc:	00000013          	nop

00000000800098e0 <i_9444>:
    800098e0:	7b900a93          	li	s5,1977

00000000800098e4 <i_9445>:
    800098e4:	7bf00093          	li	ra,1983

00000000800098e8 <i_9446>:
    800098e8:	02d0e933          	rem	s2,ra,a3

00000000800098ec <i_9447>:
    800098ec:	00149e93          	slli	t4,s1,0x1

00000000800098f0 <i_9448>:
    800098f0:	00000013          	nop

00000000800098f4 <i_9449>:
    800098f4:	ee813483          	ld	s1,-280(sp)

00000000800098f8 <i_9450>:
    800098f8:	e5d12823          	sw	t4,-432(sp)

00000000800098fc <i_9451>:
    800098fc:	01d00e93          	li	t4,29

0000000080009900 <i_9452>:
    80009900:	01d4553b          	srlw	a0,s0,t4

0000000080009904 <i_9453>:
    80009904:	08e15f83          	lhu	t6,142(sp)

0000000080009908 <i_9454>:
    80009908:	402ed49b          	sraiw	s1,t4,0x2

000000008000990c <i_9455>:
    8000990c:	001a8a93          	addi	s5,s5,1
    80009910:	fc1acce3          	blt	s5,ra,800098e8 <i_9446>

0000000080009914 <i_9456>:
    80009914:	00000013          	nop

0000000080009918 <i_9457>:
    80009918:	f3514e83          	lbu	t4,-203(sp)

000000008000991c <i_9458>:
    8000991c:	88900c93          	li	s9,-1911

0000000080009920 <i_9459>:
    80009920:	89500413          	li	s0,-1899

0000000080009924 <i_9460>:
    80009924:	03d5debb          	divuw	t4,a1,t4

0000000080009928 <i_9461>:
    80009928:	008444b3          	xor	s1,s0,s0

000000008000992c <i_9462>:
    8000992c:	00c13c23          	sd	a2,24(sp)

0000000080009930 <i_9463>:
    80009930:	009939b3          	sltu	s3,s2,s1

0000000080009934 <i_9464>:
    80009934:	1dd13823          	sd	t4,464(sp)

0000000080009938 <i_9465>:
    80009938:	02947d3b          	remuw	s10,s0,s1

000000008000993c <i_9466>:
    8000993c:	001c8c93          	addi	s9,s9,1
    80009940:	ff9472e3          	bleu	s9,s0,80009924 <i_9460>

0000000080009944 <i_9467>:
    80009944:	41de8ebb          	subw	t4,t4,t4

0000000080009948 <i_9468>:
    80009948:	029d3433          	mulhu	s0,s10,s1

000000008000994c <i_9469>:
    8000994c:	01dee463          	bltu	t4,t4,80009954 <i_9471>

0000000080009950 <i_9470>:
    80009950:	feb11123          	sh	a1,-30(sp)

0000000080009954 <i_9471>:
    80009954:	029429b3          	mulhsu	s3,s0,s1

0000000080009958 <i_9472>:
    80009958:	1ad14e83          	lbu	t4,429(sp)

000000008000995c <i_9473>:
    8000995c:	01d7cc63          	blt	a5,t4,80009974 <i_9479>

0000000080009960 <i_9474>:
    80009960:	03b4643b          	remw	s0,s0,s11

0000000080009964 <i_9475>:
    80009964:	0054c863          	blt	s1,t0,80009974 <i_9479>

0000000080009968 <i_9476>:
    80009968:	ecc16403          	lwu	s0,-308(sp)

000000008000996c <i_9477>:
    8000996c:	0134e3b3          	or	t2,s1,s3

0000000080009970 <i_9478>:
    80009970:	413e843b          	subw	s0,t4,s3

0000000080009974 <i_9479>:
    80009974:	1db14403          	lbu	s0,475(sp)

0000000080009978 <i_9480>:
    80009978:	e9311e23          	sh	s3,-356(sp)

000000008000997c <i_9481>:
    8000997c:	0279893b          	mulw	s2,s3,t2

0000000080009980 <i_9482>:
    80009980:	00918e63          	beq	gp,s1,8000999c <i_9489>

0000000080009984 <i_9483>:
    80009984:	0023d29b          	srliw	t0,t2,0x2

0000000080009988 <i_9484>:
    80009988:	01540863          	beq	s0,s5,80009998 <i_9488>

000000008000998c <i_9485>:
    8000998c:	1b313023          	sd	s3,416(sp)

0000000080009990 <i_9486>:
    80009990:	eb412603          	lw	a2,-332(sp)

0000000080009994 <i_9487>:
    80009994:	03142c33          	mulhsu	s8,s0,a7

0000000080009998 <i_9488>:
    80009998:	01016883          	lwu	a7,16(sp)

000000008000999c <i_9489>:
    8000999c:	fbc16883          	lwu	a7,-68(sp)

00000000800099a0 <i_9490>:
    800099a0:	038c1463          	bne	s8,s8,800099c8 <i_9500>

00000000800099a4 <i_9491>:
    800099a4:	038c7c3b          	remuw	s8,s8,s8

00000000800099a8 <i_9492>:
    800099a8:	018c0e63          	beq	s8,s8,800099c4 <i_9499>

00000000800099ac <i_9493>:
    800099ac:	14a15603          	lhu	a2,330(sp)

00000000800099b0 <i_9494>:
    800099b0:	0c415503          	lhu	a0,196(sp)

00000000800099b4 <i_9495>:
    800099b4:	0b810923          	sb	s8,178(sp)

00000000800099b8 <i_9496>:
    800099b8:	011c0263          	beq	s8,a7,800099bc <i_9497>

00000000800099bc <i_9497>:
    800099bc:	0c813f03          	ld	t5,200(sp)

00000000800099c0 <i_9498>:
    800099c0:	003c5d13          	srli	s10,s8,0x3

00000000800099c4 <i_9499>:
    800099c4:	f3514703          	lbu	a4,-203(sp)

00000000800099c8 <i_9500>:
    800099c8:	00ec7633          	and	a2,s8,a4

00000000800099cc <i_9501>:
    800099cc:	ed112023          	sw	a7,-320(sp)

00000000800099d0 <i_9502>:
    800099d0:	99b8c413          	xori	s0,a7,-1637

00000000800099d4 <i_9503>:
    800099d4:	00155d1b          	srliw	s10,a0,0x1

00000000800099d8 <i_9504>:
    800099d8:	03847063          	bleu	s8,s0,800099f8 <i_9512>

00000000800099dc <i_9505>:
    800099dc:	fd013c03          	ld	s8,-48(sp)

00000000800099e0 <i_9506>:
    800099e0:	008d0e63          	beq	s10,s0,800099fc <i_9513>

00000000800099e4 <i_9507>:
    800099e4:	01a703b3          	add	t2,a4,s10

00000000800099e8 <i_9508>:
    800099e8:	01ad5463          	ble	s10,s10,800099f0 <i_9510>

00000000800099ec <i_9509>:
    800099ec:	0073eb33          	or	s6,t2,t2

00000000800099f0 <i_9510>:
    800099f0:	ff814383          	lbu	t2,-8(sp)

00000000800099f4 <i_9511>:
    800099f4:	0b412a83          	lw	s5,180(sp)

00000000800099f8 <i_9512>:
    800099f8:	011c1663          	bne	s8,a7,80009a04 <i_9515>

00000000800099fc <i_9513>:
    800099fc:	0383d5b3          	divu	a1,t2,s8

0000000080009a00 <i_9514>:
    80009a00:	02d3c463          	blt	t2,a3,80009a28 <i_9524>

0000000080009a04 <i_9515>:
    80009a04:	ff815283          	lhu	t0,-8(sp)

0000000080009a08 <i_9516>:
    80009a08:	002ed263          	ble	sp,t4,80009a0c <i_9517>

0000000080009a0c <i_9517>:
    80009a0c:	ff3103a3          	sb	s3,-25(sp)

0000000080009a10 <i_9518>:
    80009a10:	14812903          	lw	s2,328(sp)

0000000080009a14 <i_9519>:
    80009a14:	0a710b03          	lb	s6,167(sp)

0000000080009a18 <i_9520>:
    80009a18:	024a8263          	beq	s5,tp,80009a3c <i_9529>

0000000080009a1c <i_9521>:
    80009a1c:	003b171b          	slliw	a4,s6,0x3

0000000080009a20 <i_9522>:
    80009a20:	01ad2633          	slt	a2,s10,s10

0000000080009a24 <i_9523>:
    80009a24:	e9310603          	lb	a2,-365(sp)

0000000080009a28 <i_9524>:
    80009a28:	08511723          	sh	t0,142(sp)

0000000080009a2c <i_9525>:
    80009a2c:	03ee07bb          	mulw	a5,t3,t5

0000000080009a30 <i_9526>:
    80009a30:	038b793b          	remuw	s2,s6,s8

0000000080009a34 <i_9527>:
    80009a34:	002cdf13          	srli	t5,s9,0x2

0000000080009a38 <i_9528>:
    80009a38:	ff612e23          	sw	s6,-4(sp)

0000000080009a3c <i_9529>:
    80009a3c:	1d013b03          	ld	s6,464(sp)

0000000080009a40 <i_9530>:
    80009a40:	001b1c93          	slli	s9,s6,0x1

0000000080009a44 <i_9531>:
    80009a44:	1bd10b03          	lb	s6,445(sp)

0000000080009a48 <i_9532>:
    80009a48:	12b10b03          	lb	s6,299(sp)

0000000080009a4c <i_9533>:
    80009a4c:	00f10623          	sb	a5,12(sp)

0000000080009a50 <i_9534>:
    80009a50:	40fb09bb          	subw	s3,s6,a5

0000000080009a54 <i_9535>:
    80009a54:	0167ca63          	blt	a5,s6,80009a68 <i_9540>

0000000080009a58 <i_9536>:
    80009a58:	ff814b03          	lbu	s6,-8(sp)

0000000080009a5c <i_9537>:
    80009a5c:	10415b03          	lhu	s6,260(sp)

0000000080009a60 <i_9538>:
    80009a60:	ef5afa13          	andi	s4,s5,-267

0000000080009a64 <i_9539>:
    80009a64:	47fb0b1b          	addiw	s6,s6,1151

0000000080009a68 <i_9540>:
    80009a68:	016a0b33          	add	s6,s4,s6

0000000080009a6c <i_9541>:
    80009a6c:	13b10903          	lb	s2,315(sp)

0000000080009a70 <i_9542>:
    80009a70:	16416b03          	lwu	s6,356(sp)

0000000080009a74 <i_9543>:
    80009a74:	09416b03          	lwu	s6,148(sp)

0000000080009a78 <i_9544>:
    80009a78:	014b6a63          	bltu	s6,s4,80009a8c <i_9549>

0000000080009a7c <i_9545>:
    80009a7c:	014babb3          	slt	s7,s7,s4

0000000080009a80 <i_9546>:
    80009a80:	0c815b83          	lhu	s7,200(sp)

0000000080009a84 <i_9547>:
    80009a84:	01643433          	sltu	s0,s0,s6

0000000080009a88 <i_9548>:
    80009a88:	01646463          	bltu	s0,s6,80009a90 <i_9550>

0000000080009a8c <i_9549>:
    80009a8c:	017bde63          	ble	s7,s7,80009aa8 <i_9556>

0000000080009a90 <i_9550>:
    80009a90:	00840433          	add	s0,s0,s0

0000000080009a94 <i_9551>:
    80009a94:	ed215b83          	lhu	s7,-302(sp)

0000000080009a98 <i_9552>:
    80009a98:	00945e63          	ble	s1,s0,80009ab4 <i_9559>

0000000080009a9c <i_9553>:
    80009a9c:	02843433          	mulhu	s0,s0,s0

0000000080009aa0 <i_9554>:
    80009aa0:	f8812303          	lw	t1,-120(sp)

0000000080009aa4 <i_9555>:
    80009aa4:	01813603          	ld	a2,24(sp)

0000000080009aa8 <i_9556>:
    80009aa8:	14612a23          	sw	t1,340(sp)

0000000080009aac <i_9557>:
    80009aac:	0016141b          	slliw	s0,a2,0x1

0000000080009ab0 <i_9558>:
    80009ab0:	e6c13c23          	sd	a2,-392(sp)

0000000080009ab4 <i_9559>:
    80009ab4:	00845663          	ble	s0,s0,80009ac0 <i_9562>

0000000080009ab8 <i_9560>:
    80009ab8:	ef813883          	ld	a7,-264(sp)

0000000080009abc <i_9561>:
    80009abc:	00845a63          	ble	s0,s0,80009ad0 <i_9566>

0000000080009ac0 <i_9562>:
    80009ac0:	eff72413          	slti	s0,a4,-257

0000000080009ac4 <i_9563>:
    80009ac4:	11110da3          	sb	a7,283(sp)

0000000080009ac8 <i_9564>:
    80009ac8:	7f18c893          	xori	a7,a7,2033

0000000080009acc <i_9565>:
    80009acc:	15013883          	ld	a7,336(sp)

0000000080009ad0 <i_9566>:
    80009ad0:	01e00d93          	li	s11,30

0000000080009ad4 <i_9567>:
    80009ad4:	01bdd73b          	srlw	a4,s11,s11

0000000080009ad8 <i_9568>:
    80009ad8:	04415903          	lhu	s2,68(sp)

0000000080009adc <i_9569>:
    80009adc:	75e71717          	auipc	a4,0x75e71

0000000080009ae0 <i_9570>:
    80009ae0:	02844063          	blt	s0,s0,80009b00 <i_9578>

0000000080009ae4 <i_9571>:
    80009ae4:	032f8463          	beq	t6,s2,80009b0c <i_9581>

0000000080009ae8 <i_9572>:
    80009ae8:	0c812303          	lw	t1,200(sp)

0000000080009aec <i_9573>:
    80009aec:	0bb11023          	sh	s11,160(sp)

0000000080009af0 <i_9574>:
    80009af0:	02691db3          	mulh	s11,s2,t1

0000000080009af4 <i_9575>:
    80009af4:	0e816283          	lwu	t0,232(sp)

0000000080009af8 <i_9576>:
    80009af8:	0252c063          	blt	t0,t0,80009b18 <i_9584>

0000000080009afc <i_9577>:
    80009afc:	01b2c463          	blt	t0,s11,80009b04 <i_9579>

0000000080009b00 <i_9578>:
    80009b00:	01b12023          	sw	s11,0(sp)

0000000080009b04 <i_9579>:
    80009b04:	17813283          	ld	t0,376(sp)

0000000080009b08 <i_9580>:
    80009b08:	18513823          	sd	t0,400(sp)

0000000080009b0c <i_9581>:
    80009b0c:	00000013          	nop

0000000080009b10 <i_9582>:
    80009b10:	01d70733          	add	a4,a4,t4

0000000080009b14 <i_9583>:
    80009b14:	036adb33          	divu	s6,s5,s6

0000000080009b18 <i_9584>:
    80009b18:	14013e03          	ld	t3,320(sp)

0000000080009b1c <i_9585>:
    80009b1c:	035b633b          	remw	t1,s6,s5

0000000080009b20 <i_9586>:
    80009b20:	80700393          	li	t2,-2041

0000000080009b24 <i_9587>:
    80009b24:	80d00a93          	li	s5,-2035

0000000080009b28 <i_9588>:
    80009b28:	01611923          	sh	s6,18(sp)

0000000080009b2c <i_9589>:
    80009b2c:	02fa5263          	ble	a5,s4,80009b50 <i_9597>

0000000080009b30 <i_9590>:
    80009b30:	17610aa3          	sb	s6,373(sp)

0000000080009b34 <i_9591>:
    80009b34:	1c714303          	lbu	t1,455(sp)

0000000080009b38 <i_9592>:
    80009b38:	00138393          	addi	t2,t2,1
    80009b3c:	fe7ad6e3          	ble	t2,s5,80009b28 <i_9588>

0000000080009b40 <i_9593>:
    80009b40:	01a15b03          	lhu	s6,26(sp)

0000000080009b44 <i_9594>:
    80009b44:	f0c12d83          	lw	s11,-244(sp)

0000000080009b48 <i_9595>:
    80009b48:	038b1263          	bne	s6,s8,80009b6c <i_9604>

0000000080009b4c <i_9596>:
    80009b4c:	09615883          	lhu	a7,150(sp)

0000000080009b50 <i_9597>:
    80009b50:	003b5d93          	srli	s11,s6,0x3

0000000080009b54 <i_9598>:
    80009b54:	14813883          	ld	a7,328(sp)

0000000080009b58 <i_9599>:
    80009b58:	01b8ec63          	bltu	a7,s11,80009b70 <i_9605>

0000000080009b5c <i_9600>:
    80009b5c:	01d00813          	li	a6,29

0000000080009b60 <i_9601>:
    80009b60:	0108d633          	srl	a2,a7,a6

0000000080009b64 <i_9602>:
    80009b64:	19714d83          	lbu	s11,407(sp)

0000000080009b68 <i_9603>:
    80009b68:	03b8f263          	bleu	s11,a7,80009b8c <i_9612>

0000000080009b6c <i_9604>:
    80009b6c:	1c013f83          	ld	t6,448(sp)

0000000080009b70 <i_9605>:
    80009b70:	01160433          	add	s0,a2,a7

0000000080009b74 <i_9606>:
    80009b74:	01b62833          	slt	a6,a2,s11

0000000080009b78 <i_9607>:
    80009b78:	02600f93          	li	t6,38

0000000080009b7c <i_9608>:
    80009b7c:	01f65633          	srl	a2,a2,t6

0000000080009b80 <i_9609>:
    80009b80:	031b9533          	mulh	a0,s7,a7

0000000080009b84 <i_9610>:
    80009b84:	02c665bb          	remw	a1,a2,a2

0000000080009b88 <i_9611>:
    80009b88:	00000013          	nop

0000000080009b8c <i_9612>:
    80009b8c:	00b10523          	sb	a1,10(sp)

0000000080009b90 <i_9613>:
    80009b90:	1b911023          	sh	s9,416(sp)

0000000080009b94 <i_9614>:
    80009b94:	85b00b93          	li	s7,-1957

0000000080009b98 <i_9615>:
    80009b98:	85f00693          	li	a3,-1953

0000000080009b9c <i_9616>:
    80009b9c:	002cdc9b          	srliw	s9,s9,0x2

0000000080009ba0 <i_9617>:
    80009ba0:	e9610c83          	lb	s9,-362(sp)

0000000080009ba4 <i_9618>:
    80009ba4:	01415183          	lhu	gp,20(sp)

0000000080009ba8 <i_9619>:
    80009ba8:	e5911f23          	sh	s9,-418(sp)

0000000080009bac <i_9620>:
    80009bac:	07910823          	sb	s9,112(sp)

0000000080009bb0 <i_9621>:
    80009bb0:	019cb5b3          	sltu	a1,s9,s9

0000000080009bb4 <i_9622>:
    80009bb4:	001b8b93          	addi	s7,s7,1 # f98a1541 <_end+0x7989112d>
    80009bb8:	fedb92e3          	bne	s7,a3,80009b9c <i_9616>

0000000080009bbc <i_9623>:
    80009bbc:	05412583          	lw	a1,84(sp)

0000000080009bc0 <i_9624>:
    80009bc0:	003c9593          	slli	a1,s9,0x3

0000000080009bc4 <i_9625>:
    80009bc4:	0031f463          	bleu	gp,gp,80009bcc <i_9627>

0000000080009bc8 <i_9626>:
    80009bc8:	09813083          	ld	ra,152(sp)

0000000080009bcc <i_9627>:
    80009bcc:	001cf863          	bleu	ra,s9,80009bdc <i_9631>

0000000080009bd0 <i_9628>:
    80009bd0:	03459463          	bne	a1,s4,80009bf8 <i_9638>

0000000080009bd4 <i_9629>:
    80009bd4:	01c00093          	li	ra,28

0000000080009bd8 <i_9630>:
    80009bd8:	4010d0b3          	sra	ra,ra,ra

0000000080009bdc <i_9631>:
    80009bdc:	0212c2b3          	div	t0,t0,ra

0000000080009be0 <i_9632>:
    80009be0:	005a0db3          	add	s11,s4,t0

0000000080009be4 <i_9633>:
    80009be4:	6fedea13          	ori	s4,s11,1790

0000000080009be8 <i_9634>:
    80009be8:	02511123          	sh	t0,34(sp)

0000000080009bec <i_9635>:
    80009bec:	014a7863          	bleu	s4,s4,80009bfc <i_9639>

0000000080009bf0 <i_9636>:
    80009bf0:	0052fa33          	and	s4,t0,t0

0000000080009bf4 <i_9637>:
    80009bf4:	00000013          	nop

0000000080009bf8 <i_9638>:
    80009bf8:	00000013          	nop

0000000080009bfc <i_9639>:
    80009bfc:	16d14f03          	lbu	t5,365(sp)

0000000080009c00 <i_9640>:
    80009c00:	ed013783          	ld	a5,-304(sp)

0000000080009c04 <i_9641>:
    80009c04:	7c600293          	li	t0,1990

0000000080009c08 <i_9642>:
    80009c08:	7d600d93          	li	s11,2006

0000000080009c0c <i_9643>:
    80009c0c:	02fdd833          	divu	a6,s11,a5

0000000080009c10 <i_9644>:
    80009c10:	09b11223          	sh	s11,132(sp)

0000000080009c14 <i_9645>:
    80009c14:	0e813503          	ld	a0,232(sp)

0000000080009c18 <i_9646>:
    80009c18:	ee013503          	ld	a0,-288(sp)

0000000080009c1c <i_9647>:
    80009c1c:	1a212c23          	sw	sp,440(sp)

0000000080009c20 <i_9648>:
    80009c20:	03051663          	bne	a0,a6,80009c4c <i_9658>

0000000080009c24 <i_9649>:
    80009c24:	3e352813          	slti	a6,a0,995

0000000080009c28 <i_9650>:
    80009c28:	fe613823          	sd	t1,-16(sp)

0000000080009c2c <i_9651>:
    80009c2c:	02a876b3          	remu	a3,a6,a0

0000000080009c30 <i_9652>:
    80009c30:	00351d1b          	slliw	s10,a0,0x3

0000000080009c34 <i_9653>:
    80009c34:	00128293          	addi	t0,t0,1
    80009c38:	fc5d9ae3          	bne	s11,t0,80009c0c <i_9643>

0000000080009c3c <i_9654>:
    80009c3c:	02a12c23          	sw	a0,56(sp)

0000000080009c40 <i_9655>:
    80009c40:	00156533          	or	a0,a0,ra

0000000080009c44 <i_9656>:
    80009c44:	e3111223          	sh	a7,-476(sp)

0000000080009c48 <i_9657>:
    80009c48:	d1e54693          	xori	a3,a0,-738

0000000080009c4c <i_9658>:
    80009c4c:	01100693          	li	a3,17

0000000080009c50 <i_9659>:
    80009c50:	00d6d6b3          	srl	a3,a3,a3

0000000080009c54 <i_9660>:
    80009c54:	77a00a13          	li	s4,1914

0000000080009c58 <i_9661>:
    80009c58:	78c00793          	li	a5,1932

0000000080009c5c <i_9662>:
    80009c5c:	12611483          	lh	s1,294(sp)

0000000080009c60 <i_9663>:
    80009c60:	00949463          	bne	s1,s1,80009c68 <i_9665>

0000000080009c64 <i_9664>:
    80009c64:	f0810283          	lb	t0,-248(sp)

0000000080009c68 <i_9665>:
    80009c68:	0054e263          	bltu	s1,t0,80009c6c <i_9666>

0000000080009c6c <i_9666>:
    80009c6c:	16a15883          	lhu	a7,362(sp)

0000000080009c70 <i_9667>:
    80009c70:	eb615303          	lhu	t1,-330(sp)

0000000080009c74 <i_9668>:
    80009c74:	02910823          	sb	s1,48(sp)

0000000080009c78 <i_9669>:
    80009c78:	0d813283          	ld	t0,216(sp)

0000000080009c7c <i_9670>:
    80009c7c:	01e10183          	lb	gp,30(sp)

0000000080009c80 <i_9671>:
    80009c80:	0318c263          	blt	a7,a7,80009ca4 <i_9679>

0000000080009c84 <i_9672>:
    80009c84:	0022cc63          	blt	t0,sp,80009c9c <i_9677>

0000000080009c88 <i_9673>:
    80009c88:	001a0a13          	addi	s4,s4,1
    80009c8c:	fcfa68e3          	bltu	s4,a5,80009c5c <i_9662>

0000000080009c90 <i_9674>:
    80009c90:	eaa14183          	lbu	gp,-342(sp)

0000000080009c94 <i_9675>:
    80009c94:	ece14a03          	lbu	s4,-306(sp)

0000000080009c98 <i_9676>:
    80009c98:	e3816f03          	lwu	t5,-456(sp)

0000000080009c9c <i_9677>:
    80009c9c:	17416903          	lwu	s2,372(sp)

0000000080009ca0 <i_9678>:
    80009ca0:	f2610423          	sb	t1,-216(sp)

0000000080009ca4 <i_9679>:
    80009ca4:	023ba2b3          	mulhsu	t0,s7,gp

0000000080009ca8 <i_9680>:
    80009ca8:	034bb8b3          	mulhu	a7,s7,s4

0000000080009cac <i_9681>:
    80009cac:	89800a13          	li	s4,-1896

0000000080009cb0 <i_9682>:
    80009cb0:	8aa00213          	li	tp,-1878

0000000080009cb4 <i_9683>:
    80009cb4:	03c18e3b          	mulw	t3,gp,t3

0000000080009cb8 <i_9684>:
    80009cb8:	0158d463          	ble	s5,a7,80009cc0 <i_9686>

0000000080009cbc <i_9685>:
    80009cbc:	0f813983          	ld	s3,248(sp)

0000000080009cc0 <i_9686>:
    80009cc0:	013e6ab3          	or	s5,t3,s3

0000000080009cc4 <i_9687>:
    80009cc4:	fb810e03          	lb	t3,-72(sp)

0000000080009cc8 <i_9688>:
    80009cc8:	03580463          	beq	a6,s5,80009cf0 <i_9697>

0000000080009ccc <i_9689>:
    80009ccc:	001a0a13          	addi	s4,s4,1
    80009cd0:	fe4a62e3          	bltu	s4,tp,80009cb4 <i_9683>

0000000080009cd4 <i_9690>:
    80009cd4:	033ac9bb          	divw	s3,s5,s3

0000000080009cd8 <i_9691>:
    80009cd8:	fe210983          	lb	s3,-30(sp)

0000000080009cdc <i_9692>:
    80009cdc:	02f98063          	beq	s3,a5,80009cfc <i_9700>

0000000080009ce0 <i_9693>:
    80009ce0:	0e610383          	lb	t2,230(sp)

0000000080009ce4 <i_9694>:
    80009ce4:	013ae9b3          	or	s3,s5,s3

0000000080009ce8 <i_9695>:
    80009ce8:	12012783          	lw	a5,288(sp)

0000000080009cec <i_9696>:
    80009cec:	01b10c63          	beq	sp,s11,80009d04 <i_9702>

0000000080009cf0 <i_9697>:
    80009cf0:	033987b3          	mul	a5,s3,s3

0000000080009cf4 <i_9698>:
    80009cf4:	011f8733          	add	a4,t6,a7

0000000080009cf8 <i_9699>:
    80009cf8:	ed013e03          	ld	t3,-304(sp)

0000000080009cfc <i_9700>:
    80009cfc:	e4e103a3          	sb	a4,-441(sp)

0000000080009d00 <i_9701>:
    80009d00:	03500b93          	li	s7,53

0000000080009d04 <i_9702>:
    80009d04:	41775733          	sra	a4,a4,s7

0000000080009d08 <i_9703>:
    80009d08:	1ba10703          	lb	a4,442(sp)

0000000080009d0c <i_9704>:
    80009d0c:	84200f93          	li	t6,-1982

0000000080009d10 <i_9705>:
    80009d10:	85400993          	li	s3,-1964

0000000080009d14 <i_9706>:
    80009d14:	00000013          	nop

0000000080009d18 <i_9707>:
    80009d18:	02c46063          	bltu	s0,a2,80009d38 <i_9714>

0000000080009d1c <i_9708>:
    80009d1c:	00e72bb3          	slt	s7,a4,a4

0000000080009d20 <i_9709>:
    80009d20:	00016083          	lwu	ra,0(sp)

0000000080009d24 <i_9710>:
    80009d24:	17412e83          	lw	t4,372(sp)

0000000080009d28 <i_9711>:
    80009d28:	001f8f93          	addi	t6,t6,1 # b587f8d5 <_end+0x3586f4c1>
    80009d2c:	ff3f94e3          	bne	t6,s3,80009d14 <i_9706>

0000000080009d30 <i_9712>:
    80009d30:	0f013c03          	ld	s8,240(sp)

0000000080009d34 <i_9713>:
    80009d34:	03412083          	lw	ra,52(sp)

0000000080009d38 <i_9714>:
    80009d38:	12a11883          	lh	a7,298(sp)

0000000080009d3c <i_9715>:
    80009d3c:	02b12623          	sw	a1,44(sp)

0000000080009d40 <i_9716>:
    80009d40:	06615d83          	lhu	s11,102(sp)

0000000080009d44 <i_9717>:
    80009d44:	fc411e83          	lh	t4,-60(sp)

0000000080009d48 <i_9718>:
    80009d48:	003dd71b          	srliw	a4,s11,0x3

0000000080009d4c <i_9719>:
    80009d4c:	e9013703          	ld	a4,-368(sp)

0000000080009d50 <i_9720>:
    80009d50:	03b71463          	bne	a4,s11,80009d78 <i_9730>

0000000080009d54 <i_9721>:
    80009d54:	fd711723          	sh	s7,-50(sp)

0000000080009d58 <i_9722>:
    80009d58:	03beeb33          	rem	s6,t4,s11

0000000080009d5c <i_9723>:
    80009d5c:	03d95733          	divu	a4,s2,t4

0000000080009d60 <i_9724>:
    80009d60:	00000013          	nop

0000000080009d64 <i_9725>:
    80009d64:	402cde93          	srai	t4,s9,0x2

0000000080009d68 <i_9726>:
    80009d68:	16612a23          	sw	t1,372(sp)

0000000080009d6c <i_9727>:
    80009d6c:	00000013          	nop

0000000080009d70 <i_9728>:
    80009d70:	00000013          	nop

0000000080009d74 <i_9729>:
    80009d74:	f8816803          	lwu	a6,-120(sp)

0000000080009d78 <i_9730>:
    80009d78:	fc214883          	lbu	a7,-62(sp)

0000000080009d7c <i_9731>:
    80009d7c:	1a615883          	lhu	a7,422(sp)

0000000080009d80 <i_9732>:
    80009d80:	87500b13          	li	s6,-1931

0000000080009d84 <i_9733>:
    80009d84:	88000c93          	li	s9,-1920

0000000080009d88 <i_9734>:
    80009d88:	e3010803          	lb	a6,-464(sp)

0000000080009d8c <i_9735>:
    80009d8c:	02700813          	li	a6,39

0000000080009d90 <i_9736>:
    80009d90:	0108d533          	srl	a0,a7,a6

0000000080009d94 <i_9737>:
    80009d94:	00a56833          	or	a6,a0,a0

0000000080009d98 <i_9738>:
    80009d98:	01282833          	slt	a6,a6,s2

0000000080009d9c <i_9739>:
    80009d9c:	03012c23          	sw	a6,56(sp)

0000000080009da0 <i_9740>:
    80009da0:	02a54063          	blt	a0,a0,80009dc0 <i_9747>

0000000080009da4 <i_9741>:
    80009da4:	03a00813          	li	a6,58

0000000080009da8 <i_9742>:
    80009da8:	41095fb3          	sra	t6,s2,a6

0000000080009dac <i_9743>:
    80009dac:	001b0b13          	addi	s6,s6,1
    80009db0:	fd6cdce3          	ble	s6,s9,80009d88 <i_9734>

0000000080009db4 <i_9744>:
    80009db4:	1b712623          	sw	s7,428(sp)

0000000080009db8 <i_9745>:
    80009db8:	ff415a03          	lhu	s4,-12(sp)

0000000080009dbc <i_9746>:
    80009dbc:	03290bb3          	mul	s7,s2,s2

0000000080009dc0 <i_9747>:
    80009dc0:	ffe10283          	lb	t0,-2(sp)

0000000080009dc4 <i_9748>:
    80009dc4:	01013423          	sd	a6,8(sp)

0000000080009dc8 <i_9749>:
    80009dc8:	0cc14803          	lbu	a6,204(sp)

0000000080009dcc <i_9750>:
    80009dcc:	07211803          	lh	a6,114(sp)

0000000080009dd0 <i_9751>:
    80009dd0:	00c00093          	li	ra,12

0000000080009dd4 <i_9752>:
    80009dd4:	4018583b          	sraw	a6,a6,ra

0000000080009dd8 <i_9753>:
    80009dd8:	035840bb          	divw	ra,a6,s5

0000000080009ddc <i_9754>:
    80009ddc:	001b8bb3          	add	s7,s7,ra

0000000080009de0 <i_9755>:
    80009de0:	e9010023          	sb	a6,-384(sp)

0000000080009de4 <i_9756>:
    80009de4:	01780833          	add	a6,a6,s7

0000000080009de8 <i_9757>:
    80009de8:	00175663          	ble	ra,a4,80009df4 <i_9760>

0000000080009dec <i_9758>:
    80009dec:	00a13423          	sd	a0,8(sp)

0000000080009df0 <i_9759>:
    80009df0:	09011a23          	sh	a6,148(sp)

0000000080009df4 <i_9760>:
    80009df4:	e6012b83          	lw	s7,-416(sp)

0000000080009df8 <i_9761>:
    80009df8:	17713423          	sd	s7,360(sp)

0000000080009dfc <i_9762>:
    80009dfc:	84200513          	li	a0,-1982

0000000080009e00 <i_9763>:
    80009e00:	84a00913          	li	s2,-1974

0000000080009e04 <i_9764>:
    80009e04:	03781463          	bne	a6,s7,80009e2c <i_9774>

0000000080009e08 <i_9765>:
    80009e08:	01085263          	ble	a6,a6,80009e0c <i_9766>

0000000080009e0c <i_9766>:
    80009e0c:	6ee57813          	andi	a6,a0,1774

0000000080009e10 <i_9767>:
    80009e10:	ef813283          	ld	t0,-264(sp)

0000000080009e14 <i_9768>:
    80009e14:	f4013303          	ld	t1,-192(sp)

0000000080009e18 <i_9769>:
    80009e18:	12011a03          	lh	s4,288(sp)

0000000080009e1c <i_9770>:
    80009e1c:	f2415803          	lhu	a6,-220(sp)

0000000080009e20 <i_9771>:
    80009e20:	027503bb          	mulw	t2,a0,t2

0000000080009e24 <i_9772>:
    80009e24:	75786b13          	ori	s6,a6,1879

0000000080009e28 <i_9773>:
    80009e28:	0b016083          	lwu	ra,176(sp)

0000000080009e2c <i_9774>:
    80009e2c:	00000013          	nop

0000000080009e30 <i_9775>:
    80009e30:	02400f13          	li	t5,36

0000000080009e34 <i_9776>:
    80009e34:	01e3d0b3          	srl	ra,t2,t5

0000000080009e38 <i_9777>:
    80009e38:	00150513          	addi	a0,a0,1
    80009e3c:	fca954e3          	ble	a0,s2,80009e04 <i_9764>

0000000080009e40 <i_9778>:
    80009e40:	00119e63          	bne	gp,ra,80009e5c <i_9785>

0000000080009e44 <i_9779>:
    80009e44:	e9211083          	lh	ra,-366(sp)

0000000080009e48 <i_9780>:
    80009e48:	01e0f463          	bleu	t5,ra,80009e50 <i_9782>

0000000080009e4c <i_9781>:
    80009e4c:	f6113c23          	sd	ra,-136(sp)

0000000080009e50 <i_9782>:
    80009e50:	18914083          	lbu	ra,393(sp)

0000000080009e54 <i_9783>:
    80009e54:	0210d263          	ble	ra,ra,80009e78 <i_9792>

0000000080009e58 <i_9784>:
    80009e58:	6a90c793          	xori	a5,ra,1705

0000000080009e5c <i_9785>:
    80009e5c:	f0f13023          	sd	a5,-256(sp)

0000000080009e60 <i_9786>:
    80009e60:	00000013          	nop

0000000080009e64 <i_9787>:
    80009e64:	02111c23          	sh	ra,56(sp)

0000000080009e68 <i_9788>:
    80009e68:	00000013          	nop

0000000080009e6c <i_9789>:
    80009e6c:	0c014783          	lbu	a5,192(sp)

0000000080009e70 <i_9790>:
    80009e70:	1e811503          	lh	a0,488(sp)

0000000080009e74 <i_9791>:
    80009e74:	e5416283          	lwu	t0,-428(sp)

0000000080009e78 <i_9792>:
    80009e78:	fd016603          	lwu	a2,-48(sp)

0000000080009e7c <i_9793>:
    80009e7c:	eb211a83          	lh	s5,-334(sp)

0000000080009e80 <i_9794>:
    80009e80:	86400093          	li	ra,-1948

0000000080009e84 <i_9795>:
    80009e84:	86f00d93          	li	s11,-1937

0000000080009e88 <i_9796>:
    80009e88:	e5510283          	lb	t0,-427(sp)

0000000080009e8c <i_9797>:
    80009e8c:	f8615703          	lhu	a4,-122(sp)

0000000080009e90 <i_9798>:
    80009e90:	e6211503          	lh	a0,-414(sp)

0000000080009e94 <i_9799>:
    80009e94:	0e012703          	lw	a4,224(sp)

0000000080009e98 <i_9800>:
    80009e98:	00108093          	addi	ra,ra,1 # bd14ccbd <_end+0x3d13c8a9>
    80009e9c:	fe1dd6e3          	ble	ra,s11,80009e88 <i_9796>

0000000080009ea0 <i_9801>:
    80009ea0:	02eb9ab3          	mulh	s5,s7,a4

0000000080009ea4 <i_9802>:
    80009ea4:	035ad063          	ble	s5,s5,80009ec4 <i_9810>

0000000080009ea8 <i_9803>:
    80009ea8:	00ea8463          	beq	s5,a4,80009eb0 <i_9805>

0000000080009eac <i_9804>:
    80009eac:	01f5b5b3          	sltu	a1,a1,t6

0000000080009eb0 <i_9805>:
    80009eb0:	16e106a3          	sb	a4,365(sp)

0000000080009eb4 <i_9806>:
    80009eb4:	fcb10823          	sb	a1,-48(sp)

0000000080009eb8 <i_9807>:
    80009eb8:	f2e12423          	sw	a4,-216(sp)

0000000080009ebc <i_9808>:
    80009ebc:	e4710703          	lb	a4,-441(sp)

0000000080009ec0 <i_9809>:
    80009ec0:	0040dd9b          	srliw	s11,ra,0x4

0000000080009ec4 <i_9810>:
    80009ec4:	02b5b5b3          	mulhu	a1,a1,a1

0000000080009ec8 <i_9811>:
    80009ec8:	858d8713          	addi	a4,s11,-1960

0000000080009ecc <i_9812>:
    80009ecc:	02b97dbb          	remuw	s11,s2,a1

0000000080009ed0 <i_9813>:
    80009ed0:	03b19733          	mulh	a4,gp,s11

0000000080009ed4 <i_9814>:
    80009ed4:	ffc14483          	lbu	s1,-4(sp)

0000000080009ed8 <i_9815>:
    80009ed8:	80000d93          	li	s11,-2048

0000000080009edc <i_9816>:
    80009edc:	80500793          	li	a5,-2043

0000000080009ee0 <i_9817>:
    80009ee0:	00816f83          	lwu	t6,8(sp)

0000000080009ee4 <i_9818>:
    80009ee4:	00b78a63          	beq	a5,a1,80009ef8 <i_9823>

0000000080009ee8 <i_9819>:
    80009ee8:	002f959b          	slliw	a1,t6,0x2

0000000080009eec <i_9820>:
    80009eec:	0c811e83          	lh	t4,200(sp)

0000000080009ef0 <i_9821>:
    80009ef0:	00100993          	li	s3,1

0000000080009ef4 <i_9822>:
    80009ef4:	4135db33          	sra	s6,a1,s3

0000000080009ef8 <i_9823>:
    80009ef8:	03600993          	li	s3,54

0000000080009efc <i_9824>:
    80009efc:	413b55b3          	sra	a1,s6,s3

0000000080009f00 <i_9825>:
    80009f00:	7eb00b93          	li	s7,2027

0000000080009f04 <i_9826>:
    80009f04:	7f200293          	li	t0,2034

0000000080009f08 <i_9827>:
    80009f08:	06b11823          	sh	a1,112(sp)

0000000080009f0c <i_9828>:
    80009f0c:	15013583          	ld	a1,336(sp)

0000000080009f10 <i_9829>:
    80009f10:	ed816683          	lwu	a3,-296(sp)

0000000080009f14 <i_9830>:
    80009f14:	001b8b93          	addi	s7,s7,1
    80009f18:	ff72d8e3          	ble	s7,t0,80009f08 <i_9827>

0000000080009f1c <i_9831>:
    80009f1c:	00000013          	nop

0000000080009f20 <i_9832>:
    80009f20:	0273e3b3          	rem	t2,t2,t2

0000000080009f24 <i_9833>:
    80009f24:	001d8d93          	addi	s11,s11,1
    80009f28:	fbb7fce3          	bleu	s11,a5,80009ee0 <i_9817>

0000000080009f2c <i_9834>:
    80009f2c:	013b6633          	or	a2,s6,s3

0000000080009f30 <i_9835>:
    80009f30:	41e3879b          	addiw	a5,t2,1054

0000000080009f34 <i_9836>:
    80009f34:	7e25e9b7          	lui	s3,0x7e25e

0000000080009f38 <i_9837>:
    80009f38:	00fb77b3          	and	a5,s6,a5

0000000080009f3c <i_9838>:
    80009f3c:	02c7d063          	ble	a2,a5,80009f5c <i_9846>

0000000080009f40 <i_9839>:
    80009f40:	fc978993          	addi	s3,a5,-55

0000000080009f44 <i_9840>:
    80009f44:	18812783          	lw	a5,392(sp)

0000000080009f48 <i_9841>:
    80009f48:	0037d093          	srli	ra,a5,0x3

0000000080009f4c <i_9842>:
    80009f4c:	00f7de63          	ble	a5,a5,80009f68 <i_9849>

0000000080009f50 <i_9843>:
    80009f50:	025768b3          	rem	a7,a4,t0

0000000080009f54 <i_9844>:
    80009f54:	0018d61b          	srliw	a2,a7,0x1

0000000080009f58 <i_9845>:
    80009f58:	fc312e23          	sw	gp,-36(sp)

0000000080009f5c <i_9846>:
    80009f5c:	e7016a03          	lwu	s4,-400(sp)

0000000080009f60 <i_9847>:
    80009f60:	03860eb3          	mul	t4,a2,s8

0000000080009f64 <i_9848>:
    80009f64:	00000013          	nop

0000000080009f68 <i_9849>:
    80009f68:	0294c4bb          	divw	s1,s1,s1

0000000080009f6c <i_9850>:
    80009f6c:	00000013          	nop

0000000080009f70 <i_9851>:
    80009f70:	8ae00d93          	li	s11,-1874

0000000080009f74 <i_9852>:
    80009f74:	8ba00893          	li	a7,-1862

0000000080009f78 <i_9853>:
    80009f78:	001d8d93          	addi	s11,s11,1
    80009f7c:	ffb8dee3          	ble	s11,a7,80009f78 <i_9853>

0000000080009f80 <i_9854>:
    80009f80:	00f78c63          	beq	a5,a5,80009f98 <i_9860>

0000000080009f84 <i_9855>:
    80009f84:	02fee463          	bltu	t4,a5,80009fac <i_9865>

0000000080009f88 <i_9856>:
    80009f88:	10c10303          	lb	t1,268(sp)

0000000080009f8c <i_9857>:
    80009f8c:	e9e14c83          	lbu	s9,-354(sp)

0000000080009f90 <i_9858>:
    80009f90:	15012183          	lw	gp,336(sp)

0000000080009f94 <i_9859>:
    80009f94:	00000013          	nop

0000000080009f98 <i_9860>:
    80009f98:	00000013          	nop

0000000080009f9c <i_9861>:
    80009f9c:	ee914183          	lbu	gp,-279(sp)

0000000080009fa0 <i_9862>:
    80009fa0:	19611d23          	sh	s6,410(sp)

0000000080009fa4 <i_9863>:
    80009fa4:	ee812423          	sw	s0,-280(sp)

0000000080009fa8 <i_9864>:
    80009fa8:	13611183          	lh	gp,310(sp)

0000000080009fac <i_9865>:
    80009fac:	00000013          	nop

0000000080009fb0 <i_9866>:
    80009fb0:	13d14c83          	lbu	s9,317(sp)

0000000080009fb4 <i_9867>:
    80009fb4:	80d00413          	li	s0,-2035

0000000080009fb8 <i_9868>:
    80009fb8:	81000793          	li	a5,-2032

0000000080009fbc <i_9869>:
    80009fbc:	56e7a393          	slti	t2,a5,1390

0000000080009fc0 <i_9870>:
    80009fc0:	00140413          	addi	s0,s0,1 # 9f65001 <main-0x7609afff>
    80009fc4:	fe87fce3          	bleu	s0,a5,80009fbc <i_9869>

0000000080009fc8 <i_9871>:
    80009fc8:	0cc16383          	lwu	t2,204(sp)

0000000080009fcc <i_9872>:
    80009fcc:	00000013          	nop

0000000080009fd0 <i_9873>:
    80009fd0:	7ae00613          	li	a2,1966

0000000080009fd4 <i_9874>:
    80009fd4:	7b400d13          	li	s10,1972

0000000080009fd8 <i_9875>:
    80009fd8:	0d714583          	lbu	a1,215(sp)

0000000080009fdc <i_9876>:
    80009fdc:	1b812b03          	lw	s6,440(sp)

0000000080009fe0 <i_9877>:
    80009fe0:	00160613          	addi	a2,a2,1
    80009fe4:	fecd7ae3          	bleu	a2,s10,80009fd8 <i_9875>

0000000080009fe8 <i_9878>:
    80009fe8:	06013183          	ld	gp,96(sp)

0000000080009fec <i_9879>:
    80009fec:	8337b593          	sltiu	a1,a5,-1997

0000000080009ff0 <i_9880>:
    80009ff0:	0351fd3b          	remuw	s10,gp,s5

0000000080009ff4 <i_9881>:
    80009ff4:	19714183          	lbu	gp,407(sp)

0000000080009ff8 <i_9882>:
    80009ff8:	f8c11183          	lh	gp,-116(sp)

0000000080009ffc <i_9883>:
    80009ffc:	01a1d263          	ble	s10,gp,8000a000 <i_9884>

000000008000a000 <i_9884>:
    8000a000:	0015119b          	slliw	gp,a0,0x1

000000008000a004 <i_9885>:
    8000a004:	e6012183          	lw	gp,-416(sp)

000000008000a008 <i_9886>:
    8000a008:	74c00d93          	li	s11,1868

000000008000a00c <i_9887>:
    8000a00c:	75c00513          	li	a0,1884

000000008000a010 <i_9888>:
    8000a010:	00000013          	nop

000000008000a014 <i_9889>:
    8000a014:	f0a15483          	lhu	s1,-246(sp)

000000008000a018 <i_9890>:
    8000a018:	001d8d93          	addi	s11,s11,1
    8000a01c:	ffb57ae3          	bleu	s11,a0,8000a010 <i_9888>

000000008000a020 <i_9891>:
    8000a020:	016f8fb3          	add	t6,t6,s6

000000008000a024 <i_9892>:
    8000a024:	06313023          	sd	gp,96(sp)

000000008000a028 <i_9893>:
    8000a028:	12812183          	lw	gp,296(sp)

000000008000a02c <i_9894>:
    8000a02c:	f1a14483          	lbu	s1,-230(sp)

000000008000a030 <i_9895>:
    8000a030:	e734b693          	sltiu	a3,s1,-397

000000008000a034 <i_9896>:
    8000a034:	f0a11783          	lh	a5,-246(sp)

000000008000a038 <i_9897>:
    8000a038:	0031f663          	bleu	gp,gp,8000a044 <i_9900>

000000008000a03c <i_9898>:
    8000a03c:	0035f533          	and	a0,a1,gp

000000008000a040 <i_9899>:
    8000a040:	01e00593          	li	a1,30

000000008000a044 <i_9900>:
    8000a044:	40b555bb          	sraw	a1,a0,a1

000000008000a048 <i_9901>:
    8000a048:	e55c1517          	auipc	a0,0xe55c1

000000008000a04c <i_9902>:
    8000a04c:	01153233          	sltu	tp,a0,a7

000000008000a050 <i_9903>:
    8000a050:	01e52533          	slt	a0,a0,t5

000000008000a054 <i_9904>:
    8000a054:	0d414e83          	lbu	t4,212(sp)

000000008000a058 <i_9905>:
    8000a058:	404ed893          	srai	a7,t4,0x4

000000008000a05c <i_9906>:
    8000a05c:	024277b3          	remu	a5,tp,tp

000000008000a060 <i_9907>:
    8000a060:	02ae8463          	beq	t4,a0,8000a088 <i_9917>

000000008000a064 <i_9908>:
    8000a064:	f2c11483          	lh	s1,-212(sp)

000000008000a068 <i_9909>:
    8000a068:	f3211923          	sh	s2,-206(sp)

000000008000a06c <i_9910>:
    8000a06c:	00f4ea63          	bltu	s1,a5,8000a080 <i_9915>

000000008000a070 <i_9911>:
    8000a070:	00aa8663          	beq	s5,a0,8000a07c <i_9914>

000000008000a074 <i_9912>:
    8000a074:	0c016a03          	lwu	s4,192(sp)

000000008000a078 <i_9913>:
    8000a078:	40435313          	srai	t1,t1,0x4

000000008000a07c <i_9914>:
    8000a07c:	fa811983          	lh	s3,-88(sp)

000000008000a080 <i_9915>:
    8000a080:	0318ba33          	mulhu	s4,a7,a7

000000008000a084 <i_9916>:
    8000a084:	001104a3          	sb	ra,9(sp)

000000008000a088 <i_9917>:
    8000a088:	10910d23          	sb	s1,282(sp)

000000008000a08c <i_9918>:
    8000a08c:	0389ceb3          	div	t4,s3,s8

000000008000a090 <i_9919>:
    8000a090:	0265733b          	remuw	t1,a0,t1

000000008000a094 <i_9920>:
    8000a094:	0248f5bb          	remuw	a1,a7,tp

000000008000a098 <i_9921>:
    8000a098:	014282b3          	add	t0,t0,s4

000000008000a09c <i_9922>:
    8000a09c:	00b00d13          	li	s10,11

000000008000a0a0 <i_9923>:
    8000a0a0:	01a3583b          	srlw	a6,t1,s10

000000008000a0a4 <i_9924>:
    8000a0a4:	004ef263          	bleu	tp,t4,8000a0a8 <i_9925>

000000008000a0a8 <i_9925>:
    8000a0a8:	00a00793          	li	a5,10

000000008000a0ac <i_9926>:
    8000a0ac:	00f51f33          	sll	t5,a0,a5

000000008000a0b0 <i_9927>:
    8000a0b0:	e9514e83          	lbu	t4,-363(sp)

000000008000a0b4 <i_9928>:
    8000a0b4:	f22ec313          	xori	t1,t4,-222

000000008000a0b8 <i_9929>:
    8000a0b8:	03a85263          	ble	s10,a6,8000a0dc <i_9938>

000000008000a0bc <i_9930>:
    8000a0bc:	0f412b83          	lw	s7,244(sp)

000000008000a0c0 <i_9931>:
    8000a0c0:	17c15703          	lhu	a4,380(sp)

000000008000a0c4 <i_9932>:
    8000a0c4:	1a813883          	ld	a7,424(sp)

000000008000a0c8 <i_9933>:
    8000a0c8:	16013d03          	ld	s10,352(sp)

000000008000a0cc <i_9934>:
    8000a0cc:	01126263          	bltu	tp,a7,8000a0d0 <i_9935>

000000008000a0d0 <i_9935>:
    8000a0d0:	00000013          	nop

000000008000a0d4 <i_9936>:
    8000a0d4:	00000013          	nop

000000008000a0d8 <i_9937>:
    8000a0d8:	007503b3          	add	t2,a0,t2

000000008000a0dc <i_9938>:
    8000a0dc:	00000013          	nop

000000008000a0e0 <i_9939>:
    8000a0e0:	00451393          	slli	t2,a0,0x4

000000008000a0e4 <i_9940>:
    8000a0e4:	80100513          	li	a0,-2047

000000008000a0e8 <i_9941>:
    8000a0e8:	80e00893          	li	a7,-2034

000000008000a0ec <i_9942>:
    8000a0ec:	41188ebb          	subw	t4,a7,a7

000000008000a0f0 <i_9943>:
    8000a0f0:	65a88e9b          	addiw	t4,a7,1626

000000008000a0f4 <i_9944>:
    8000a0f4:	18415e83          	lhu	t4,388(sp)

000000008000a0f8 <i_9945>:
    8000a0f8:	00150513          	addi	a0,a0,1 # 655cb049 <main-0x1aa34fb7>
    8000a0fc:	fea8f8e3          	bleu	a0,a7,8000a0ec <i_9942>

000000008000a100 <i_9946>:
    8000a100:	00012403          	lw	s0,0(sp)

000000008000a104 <i_9947>:
    8000a104:	f9f10823          	sb	t6,-112(sp)

000000008000a108 <i_9948>:
    8000a108:	0263f4bb          	remuw	s1,t2,t1

000000008000a10c <i_9949>:
    8000a10c:	011e1a63          	bne	t3,a7,8000a120 <i_9954>

000000008000a110 <i_9950>:
    8000a110:	fed14e83          	lbu	t4,-19(sp)

000000008000a114 <i_9951>:
    8000a114:	ed411203          	lh	tp,-300(sp)

000000008000a118 <i_9952>:
    8000a118:	f0416c83          	lwu	s9,-252(sp)

000000008000a11c <i_9953>:
    8000a11c:	029cb833          	mulhu	a6,s9,s1

000000008000a120 <i_9954>:
    8000a120:	0091f263          	bleu	s1,gp,8000a124 <i_9955>

000000008000a124 <i_9955>:
    8000a124:	03d3e1bb          	remw	gp,t2,t4

000000008000a128 <i_9956>:
    8000a128:	00000013          	nop

000000008000a12c <i_9957>:
    8000a12c:	01dafeb3          	and	t4,s5,t4

000000008000a130 <i_9958>:
    8000a130:	7f100e13          	li	t3,2033

000000008000a134 <i_9959>:
    8000a134:	7f400213          	li	tp,2036

000000008000a138 <i_9960>:
    8000a138:	f0214e83          	lbu	t4,-254(sp)

000000008000a13c <i_9961>:
    8000a13c:	004e8663          	beq	t4,tp,8000a148 <i_9964>

000000008000a140 <i_9962>:
    8000a140:	001c8663          	beq	s9,ra,8000a14c <i_9965>

000000008000a144 <i_9963>:
    8000a144:	02800613          	li	a2,40

000000008000a148 <i_9964>:
    8000a148:	00ced633          	srl	a2,t4,a2

000000008000a14c <i_9965>:
    8000a14c:	e9411083          	lh	ra,-364(sp)

000000008000a150 <i_9966>:
    8000a150:	f4e10ca3          	sb	a4,-167(sp)

000000008000a154 <i_9967>:
    8000a154:	ea40f793          	andi	a5,ra,-348

000000008000a158 <i_9968>:
    8000a158:	00000013          	nop

000000008000a15c <i_9969>:
    8000a15c:	e8110223          	sb	ra,-380(sp)

000000008000a160 <i_9970>:
    8000a160:	00000013          	nop

000000008000a164 <i_9971>:
    8000a164:	7210a893          	slti	a7,ra,1825

000000008000a168 <i_9972>:
    8000a168:	0364c333          	div	t1,s1,s6

000000008000a16c <i_9973>:
    8000a16c:	12c12c03          	lw	s8,300(sp)

000000008000a170 <i_9974>:
    8000a170:	001e0e13          	addi	t3,t3,1
    8000a174:	fc4e42e3          	blt	t3,tp,8000a138 <i_9960>

000000008000a178 <i_9975>:
    8000a178:	401c00bb          	subw	ra,s8,ra

000000008000a17c <i_9976>:
    8000a17c:	10611f23          	sh	t1,286(sp)

000000008000a180 <i_9977>:
    8000a180:	021ec263          	blt	t4,ra,8000a1a4 <i_9986>

000000008000a184 <i_9978>:
    8000a184:	16c16083          	lwu	ra,364(sp)

000000008000a188 <i_9979>:
    8000a188:	0180e663          	bltu	ra,s8,8000a194 <i_9982>

000000008000a18c <i_9980>:
    8000a18c:	021d5eb3          	divu	t4,s10,ra

000000008000a190 <i_9981>:
    8000a190:	004d5d13          	srli	s10,s10,0x4

000000008000a194 <i_9982>:
    8000a194:	eb812083          	lw	ra,-328(sp)

000000008000a198 <i_9983>:
    8000a198:	f2412d03          	lw	s10,-220(sp)

000000008000a19c <i_9984>:
    8000a19c:	036d2f33          	mulhsu	t5,s10,s6

000000008000a1a0 <i_9985>:
    8000a1a0:	f3012283          	lw	t0,-208(sp)

000000008000a1a4 <i_9986>:
    8000a1a4:	10816283          	lwu	t0,264(sp)

000000008000a1a8 <i_9987>:
    8000a1a8:	0052ac33          	slt	s8,t0,t0

000000008000a1ac <i_9988>:
    8000a1ac:	86500393          	li	t2,-1947

000000008000a1b0 <i_9989>:
    8000a1b0:	87300e93          	li	t4,-1933

000000008000a1b4 <i_9990>:
    8000a1b4:	001c5913          	srli	s2,s8,0x1

000000008000a1b8 <i_9991>:
    8000a1b8:	e6812283          	lw	t0,-408(sp)

000000008000a1bc <i_9992>:
    8000a1bc:	04512623          	sw	t0,76(sp)

000000008000a1c0 <i_9993>:
    8000a1c0:	e4011303          	lh	t1,-448(sp)

000000008000a1c4 <i_9994>:
    8000a1c4:	f1810aa3          	sb	s8,-235(sp)

000000008000a1c8 <i_9995>:
    8000a1c8:	10fc0f13          	addi	t5,s8,271

000000008000a1cc <i_9996>:
    8000a1cc:	0b414483          	lbu	s1,180(sp)

000000008000a1d0 <i_9997>:
    8000a1d0:	ff414c03          	lbu	s8,-12(sp)

000000008000a1d4 <i_9998>:
    8000a1d4:	00138393          	addi	t2,t2,1
    8000a1d8:	fdd3cee3          	blt	t2,t4,8000a1b4 <i_9990>

000000008000a1dc <i_9999>:
    8000a1dc:	0064da63          	ble	t1,s1,8000a1f0 <i_10004>

000000008000a1e0 <i_10000>:
    8000a1e0:	f4a11c03          	lh	s8,-182(sp)

000000008000a1e4 <i_10001>:
    8000a1e4:	f4013303          	ld	t1,-192(sp)

000000008000a1e8 <i_10002>:
    8000a1e8:	f4c16b03          	lwu	s6,-180(sp)

000000008000a1ec <i_10003>:
    8000a1ec:	0094da63          	ble	s1,s1,8000a200 <i_10008>

000000008000a1f0 <i_10004>:
    8000a1f0:	dfe93d97          	auipc	s11,0xdfe93

000000008000a1f4 <i_10005>:
    8000a1f4:	016e2333          	slt	t1,t3,s6

000000008000a1f8 <i_10006>:
    8000a1f8:	009fe433          	or	s0,t6,s1

000000008000a1fc <i_10007>:
    8000a1fc:	06514d83          	lbu	s11,101(sp)

000000008000a200 <i_10008>:
    8000a200:	0ff105a3          	sb	t6,235(sp)

000000008000a204 <i_10009>:
    8000a204:	e89100a3          	sb	s1,-383(sp)

000000008000a208 <i_10010>:
    8000a208:	73d00f93          	li	t6,1853

000000008000a20c <i_10011>:
    8000a20c:	74d00b13          	li	s6,1869

000000008000a210 <i_10012>:
    8000a210:	408c0333          	sub	t1,s8,s0

000000008000a214 <i_10013>:
    8000a214:	41bd843b          	subw	s0,s11,s11

000000008000a218 <i_10014>:
    8000a218:	ffb11d23          	sh	s11,-6(sp)

000000008000a21c <i_10015>:
    8000a21c:	001f8f93          	addi	t6,t6,1
    8000a220:	fffb58e3          	ble	t6,s6,8000a210 <i_10012>

000000008000a224 <i_10016>:
    8000a224:	00900793          	li	a5,9

000000008000a228 <i_10017>:
    8000a228:	40f3593b          	sraw	s2,t1,a5

000000008000a22c <i_10018>:
    8000a22c:	03230063          	beq	t1,s2,8000a24c <i_10026>

000000008000a230 <i_10019>:
    8000a230:	4d542b13          	slti	s6,s0,1237

000000008000a234 <i_10020>:
    8000a234:	00000013          	nop

000000008000a238 <i_10021>:
    8000a238:	0287de33          	divu	t3,a5,s0

000000008000a23c <i_10022>:
    8000a23c:	f9c104a3          	sb	t3,-119(sp)

000000008000a240 <i_10023>:
    8000a240:	0257f7bb          	remuw	a5,a5,t0

000000008000a244 <i_10024>:
    8000a244:	00000013          	nop

000000008000a248 <i_10025>:
    8000a248:	02f7d7b3          	divu	a5,a5,a5

000000008000a24c <i_10026>:
    8000a24c:	e2e11f03          	lh	t5,-466(sp)

000000008000a250 <i_10027>:
    8000a250:	00000013          	nop

000000008000a254 <i_10028>:
    8000a254:	75700313          	li	t1,1879

000000008000a258 <i_10029>:
    8000a258:	76000413          	li	s0,1888

000000008000a25c <i_10030>:
    8000a25c:	02f10e23          	sb	a5,60(sp)

000000008000a260 <i_10031>:
    8000a260:	00fe7463          	bleu	a5,t3,8000a268 <i_10033>

000000008000a264 <i_10032>:
    8000a264:	4017d793          	srai	a5,a5,0x1

000000008000a268 <i_10033>:
    8000a268:	03e79063          	bne	a5,t5,8000a288 <i_10040>

000000008000a26c <i_10034>:
    8000a26c:	11e13c23          	sd	t5,280(sp)

000000008000a270 <i_10035>:
    8000a270:	00130313          	addi	t1,t1,1
    8000a274:	fe8344e3          	blt	t1,s0,8000a25c <i_10030>

000000008000a278 <i_10036>:
    8000a278:	03e7e463          	bltu	a5,t5,8000a2a0 <i_10046>

000000008000a27c <i_10037>:
    8000a27c:	ec310f83          	lb	t6,-317(sp)

000000008000a280 <i_10038>:
    8000a280:	00000013          	nop

000000008000a284 <i_10039>:
    8000a284:	00000013          	nop

000000008000a288 <i_10040>:
    8000a288:	19313823          	sd	s3,400(sp)

000000008000a28c <i_10041>:
    8000a28c:	00000013          	nop

000000008000a290 <i_10042>:
    8000a290:	fde12e23          	sw	t5,-36(sp)

000000008000a294 <i_10043>:
    8000a294:	06e11583          	lh	a1,110(sp)

000000008000a298 <i_10044>:
    8000a298:	0339e5b3          	rem	a1,s3,s3

000000008000a29c <i_10045>:
    8000a29c:	00000013          	nop

000000008000a2a0 <i_10046>:
    8000a2a0:	00459c13          	slli	s8,a1,0x4

000000008000a2a4 <i_10047>:
    8000a2a4:	03016483          	lwu	s1,48(sp)

000000008000a2a8 <i_10048>:
    8000a2a8:	89c00993          	li	s3,-1892

000000008000a2ac <i_10049>:
    8000a2ac:	8a600f13          	li	t5,-1882

000000008000a2b0 <i_10050>:
    8000a2b0:	1e015f83          	lhu	t6,480(sp)

000000008000a2b4 <i_10051>:
    8000a2b4:	fc615483          	lhu	s1,-58(sp)

000000008000a2b8 <i_10052>:
    8000a2b8:	0294e263          	bltu	s1,s1,8000a2dc <i_10060>

000000008000a2bc <i_10053>:
    8000a2bc:	00198993          	addi	s3,s3,1 # 7e25e001 <main-0x1da1fff>
    8000a2c0:	ff3f78e3          	bleu	s3,t5,8000a2b0 <i_10050>

000000008000a2c4 <i_10054>:
    8000a2c4:	ea816083          	lwu	ra,-344(sp)

000000008000a2c8 <i_10055>:
    8000a2c8:	00a00c13          	li	s8,10

000000008000a2cc <i_10056>:
    8000a2cc:	018f9c33          	sll	s8,t6,s8

000000008000a2d0 <i_10057>:
    8000a2d0:	0020969b          	slliw	a3,ra,0x2

000000008000a2d4 <i_10058>:
    8000a2d4:	53e0a093          	slti	ra,ra,1342

000000008000a2d8 <i_10059>:
    8000a2d8:	f1614c83          	lbu	s9,-234(sp)

000000008000a2dc <i_10060>:
    8000a2dc:	e4d12023          	sw	a3,-448(sp)

000000008000a2e0 <i_10061>:
    8000a2e0:	fabc3693          	sltiu	a3,s8,-85

000000008000a2e4 <i_10062>:
    8000a2e4:	0f811803          	lh	a6,248(sp)

000000008000a2e8 <i_10063>:
    8000a2e8:	001c8863          	beq	s9,ra,8000a2f8 <i_10067>

000000008000a2ec <i_10064>:
    8000a2ec:	07011323          	sh	a6,102(sp)

000000008000a2f0 <i_10065>:
    8000a2f0:	4040db9b          	sraiw	s7,ra,0x4

000000008000a2f4 <i_10066>:
    8000a2f4:	00000013          	nop

000000008000a2f8 <i_10067>:
    8000a2f8:	20608093          	addi	ra,ra,518

000000008000a2fc <i_10068>:
    8000a2fc:	e1e11083          	lh	ra,-482(sp)

000000008000a300 <i_10069>:
    8000a300:	85500693          	li	a3,-1963

000000008000a304 <i_10070>:
    8000a304:	85f00813          	li	a6,-1953

000000008000a308 <i_10071>:
    8000a308:	00167933          	and	s2,a2,ra

000000008000a30c <i_10072>:
    8000a30c:	1b710923          	sb	s7,434(sp)

000000008000a310 <i_10073>:
    8000a310:	1c016e03          	lwu	t3,448(sp)

000000008000a314 <i_10074>:
    8000a314:	02892433          	mulhsu	s0,s2,s0

000000008000a318 <i_10075>:
    8000a318:	032400b3          	mul	ra,s0,s2

000000008000a31c <i_10076>:
    8000a31c:	00000013          	nop

000000008000a320 <i_10077>:
    8000a320:	01600613          	li	a2,22

000000008000a324 <i_10078>:
    8000a324:	00c1963b          	sllw	a2,gp,a2

000000008000a328 <i_10079>:
    8000a328:	02c0f663          	bleu	a2,ra,8000a354 <i_10089>

000000008000a32c <i_10080>:
    8000a32c:	00168693          	addi	a3,a3,1
    8000a330:	fd069ce3          	bne	a3,a6,8000a308 <i_10071>

000000008000a334 <i_10081>:
    8000a334:	01a00c13          	li	s8,26

000000008000a338 <i_10082>:
    8000a338:	0184143b          	sllw	s0,s0,s8

000000008000a33c <i_10083>:
    8000a33c:	0d811f03          	lh	t5,216(sp)

000000008000a340 <i_10084>:
    8000a340:	02860063          	beq	a2,s0,8000a360 <i_10092>

000000008000a344 <i_10085>:
    8000a344:	034f063b          	mulw	a2,t5,s4

000000008000a348 <i_10086>:
    8000a348:	00000013          	nop

000000008000a34c <i_10087>:
    8000a34c:	f1e10b23          	sb	t5,-234(sp)

000000008000a350 <i_10088>:
    8000a350:	07416083          	lwu	ra,116(sp)

000000008000a354 <i_10089>:
    8000a354:	03209733          	mulh	a4,ra,s2

000000008000a358 <i_10090>:
    8000a358:	19d10883          	lb	a7,413(sp)

000000008000a35c <i_10091>:
    8000a35c:	cc92b293          	sltiu	t0,t0,-823

000000008000a360 <i_10092>:
    8000a360:	fb112c23          	sw	a7,-72(sp)

000000008000a364 <i_10093>:
    8000a364:	00000013          	nop

000000008000a368 <i_10094>:
    8000a368:	7b200913          	li	s2,1970

000000008000a36c <i_10095>:
    8000a36c:	7c500f13          	li	t5,1989

000000008000a370 <i_10096>:
    8000a370:	12512823          	sw	t0,304(sp)

000000008000a374 <i_10097>:
    8000a374:	1c510623          	sb	t0,460(sp)

000000008000a378 <i_10098>:
    8000a378:	02e6d463          	ble	a4,a3,8000a3a0 <i_10107>

000000008000a37c <i_10099>:
    8000a37c:	00190913          	addi	s2,s2,1
    8000a380:	ff2f78e3          	bleu	s2,t5,8000a370 <i_10096>

000000008000a384 <i_10100>:
    8000a384:	02500893          	li	a7,37

000000008000a388 <i_10101>:
    8000a388:	011bdbb3          	srl	s7,s7,a7

000000008000a38c <i_10102>:
    8000a38c:	001d1a9b          	slliw	s5,s10,0x1

000000008000a390 <i_10103>:
    8000a390:	fd813f03          	ld	t5,-40(sp)

000000008000a394 <i_10104>:
    8000a394:	16310183          	lb	gp,355(sp)

000000008000a398 <i_10105>:
    8000a398:	00e2d663          	ble	a4,t0,8000a3a4 <i_10108>

000000008000a39c <i_10106>:
    8000a39c:	01ef5863          	ble	t5,t5,8000a3ac <i_10110>

000000008000a3a0 <i_10107>:
    8000a3a0:	035288bb          	mulw	a7,t0,s5

000000008000a3a4 <i_10108>:
    8000a3a4:	eec15883          	lhu	a7,-276(sp)

000000008000a3a8 <i_10109>:
    8000a3a8:	e6411383          	lh	t2,-412(sp)

000000008000a3ac <i_10110>:
    8000a3ac:	0083bbb3          	sltu	s7,t2,s0

000000008000a3b0 <i_10111>:
    8000a3b0:	ee011603          	lh	a2,-288(sp)

000000008000a3b4 <i_10112>:
    8000a3b4:	f8d13023          	sd	a3,-128(sp)

000000008000a3b8 <i_10113>:
    8000a3b8:	10a15283          	lhu	t0,266(sp)

000000008000a3bc <i_10114>:
    8000a3bc:	11614883          	lbu	a7,278(sp)

000000008000a3c0 <i_10115>:
    8000a3c0:	00566233          	or	tp,a2,t0

000000008000a3c4 <i_10116>:
    8000a3c4:	e5812503          	lw	a0,-424(sp)

000000008000a3c8 <i_10117>:
    8000a3c8:	02c3c3bb          	divw	t2,t2,a2

000000008000a3cc <i_10118>:
    8000a3cc:	f2e12223          	sw	a4,-220(sp)

000000008000a3d0 <i_10119>:
    8000a3d0:	31b50f93          	addi	t6,a0,795

000000008000a3d4 <i_10120>:
    8000a3d4:	00000013          	nop

000000008000a3d8 <i_10121>:
    8000a3d8:	12014f83          	lbu	t6,288(sp)

000000008000a3dc <i_10122>:
    8000a3dc:	80500413          	li	s0,-2043

000000008000a3e0 <i_10123>:
    8000a3e0:	80700f13          	li	t5,-2041

000000008000a3e4 <i_10124>:
    8000a3e4:	02c2d3bb          	divuw	t2,t0,a2

000000008000a3e8 <i_10125>:
    8000a3e8:	0253d063          	ble	t0,t2,8000a408 <i_10133>

000000008000a3ec <i_10126>:
    8000a3ec:	02611383          	lh	t2,38(sp)

000000008000a3f0 <i_10127>:
    8000a3f0:	01f11b23          	sh	t6,22(sp)

000000008000a3f4 <i_10128>:
    8000a3f4:	002fbfb3          	sltu	t6,t6,sp

000000008000a3f8 <i_10129>:
    8000a3f8:	eff10e23          	sb	t6,-260(sp)

000000008000a3fc <i_10130>:
    8000a3fc:	00000013          	nop

000000008000a400 <i_10131>:
    8000a400:	3dcf3e13          	sltiu	t3,t5,988

000000008000a404 <i_10132>:
    8000a404:	04b14283          	lbu	t0,75(sp)

000000008000a408 <i_10133>:
    8000a408:	edf12823          	sw	t6,-304(sp)

000000008000a40c <i_10134>:
    8000a40c:	027293b3          	mulh	t2,t0,t2

000000008000a410 <i_10135>:
    8000a410:	eeb13823          	sd	a1,-272(sp)

000000008000a414 <i_10136>:
    8000a414:	005eee63          	bltu	t4,t0,8000a430 <i_10142>

000000008000a418 <i_10137>:
    8000a418:	1c914d83          	lbu	s11,457(sp)

000000008000a41c <i_10138>:
    8000a41c:	00140413          	addi	s0,s0,1
    8000a420:	fde412e3          	bne	s0,t5,8000a3e4 <i_10124>

000000008000a424 <i_10139>:
    8000a424:	19c12023          	sw	t3,384(sp)

000000008000a428 <i_10140>:
    8000a428:	17c11423          	sh	t3,360(sp)

000000008000a42c <i_10141>:
    8000a42c:	e6813303          	ld	t1,-408(sp)

000000008000a430 <i_10142>:
    8000a430:	01b1bf33          	sltu	t5,gp,s11

000000008000a434 <i_10143>:
    8000a434:	0c416903          	lwu	s2,196(sp)

000000008000a438 <i_10144>:
    8000a438:	d5e32a93          	slti	s5,t1,-674

000000008000a43c <i_10145>:
    8000a43c:	18411583          	lh	a1,388(sp)

000000008000a440 <i_10146>:
    8000a440:	02ee3333          	mulhu	t1,t3,a4

000000008000a444 <i_10147>:
    8000a444:	0292f263          	bleu	s1,t0,8000a468 <i_10156>

000000008000a448 <i_10148>:
    8000a448:	09b13823          	sd	s11,144(sp)

000000008000a44c <i_10149>:
    8000a44c:	0123fc63          	bleu	s2,t2,8000a464 <i_10155>

000000008000a450 <i_10150>:
    8000a450:	00e53933          	sltu	s2,a0,a4

000000008000a454 <i_10151>:
    8000a454:	02ec5eb3          	divu	t4,s8,a4

000000008000a458 <i_10152>:
    8000a458:	1ce12e23          	sw	a4,476(sp)

000000008000a45c <i_10153>:
    8000a45c:	fca10ea3          	sb	a0,-35(sp)

000000008000a460 <i_10154>:
    8000a460:	02b72eb3          	mulhsu	t4,a4,a1

000000008000a464 <i_10155>:
    8000a464:	f2b90713          	addi	a4,s2,-213

000000008000a468 <i_10156>:
    8000a468:	02b1f1b3          	remu	gp,gp,a1

000000008000a46c <i_10157>:
    8000a46c:	00eb0b33          	add	s6,s6,a4

000000008000a470 <i_10158>:
    8000a470:	00000013          	nop

000000008000a474 <i_10159>:
    8000a474:	02a17bbb          	remuw	s7,sp,a0

000000008000a478 <i_10160>:
    8000a478:	75b00e93          	li	t4,1883

000000008000a47c <i_10161>:
    8000a47c:	75e00293          	li	t0,1886

000000008000a480 <i_10162>:
    8000a480:	0051ce63          	blt	gp,t0,8000a49c <i_10169>

000000008000a484 <i_10163>:
    8000a484:	01675663          	ble	s6,a4,8000a490 <i_10166>

000000008000a488 <i_10164>:
    8000a488:	0e015183          	lhu	gp,224(sp)

000000008000a48c <i_10165>:
    8000a48c:	013a1e63          	bne	s4,s3,8000a4a8 <i_10172>

000000008000a490 <i_10166>:
    8000a490:	0d712223          	sw	s7,196(sp)

000000008000a494 <i_10167>:
    8000a494:	09712023          	sw	s7,128(sp)

000000008000a498 <i_10168>:
    8000a498:	03718d33          	mul	s10,gp,s7

000000008000a49c <i_10169>:
    8000a49c:	03813b83          	ld	s7,56(sp)

000000008000a4a0 <i_10170>:
    8000a4a0:	09a10b23          	sb	s10,150(sp)

000000008000a4a4 <i_10171>:
    8000a4a4:	03a19663          	bne	gp,s10,8000a4d0 <i_10181>

000000008000a4a8 <i_10172>:
    8000a4a8:	00000013          	nop

000000008000a4ac <i_10173>:
    8000a4ac:	13812483          	lw	s1,312(sp)

000000008000a4b0 <i_10174>:
    8000a4b0:	f4bdbd93          	sltiu	s11,s11,-181

000000008000a4b4 <i_10175>:
    8000a4b4:	001e8e93          	addi	t4,t4,1
    8000a4b8:	fc5ee4e3          	bltu	t4,t0,8000a480 <i_10162>

000000008000a4bc <i_10176>:
    8000a4bc:	00119a9b          	slliw	s5,gp,0x1

000000008000a4c0 <i_10177>:
    8000a4c0:	00000013          	nop

000000008000a4c4 <i_10178>:
    8000a4c4:	00000013          	nop

000000008000a4c8 <i_10179>:
    8000a4c8:	1c416483          	lwu	s1,452(sp)

000000008000a4cc <i_10180>:
    8000a4cc:	00000013          	nop

000000008000a4d0 <i_10181>:
    8000a4d0:	1de14d03          	lbu	s10,478(sp)

000000008000a4d4 <i_10182>:
    8000a4d4:	00000013          	nop

000000008000a4d8 <i_10183>:
    8000a4d8:	73600b93          	li	s7,1846

000000008000a4dc <i_10184>:
    8000a4dc:	74900c13          	li	s8,1865

000000008000a4e0 <i_10185>:
    8000a4e0:	03889d33          	mulh	s10,a7,s8

000000008000a4e4 <i_10186>:
    8000a4e4:	4018d893          	srai	a7,a7,0x1

000000008000a4e8 <i_10187>:
    8000a4e8:	e5a109a3          	sb	s10,-429(sp)

000000008000a4ec <i_10188>:
    8000a4ec:	e7a10da3          	sb	s10,-389(sp)

000000008000a4f0 <i_10189>:
    8000a4f0:	00000013          	nop

000000008000a4f4 <i_10190>:
    8000a4f4:	05110623          	sb	a7,76(sp)

000000008000a4f8 <i_10191>:
    8000a4f8:	029d6463          	bltu	s10,s1,8000a520 <i_10200>

000000008000a4fc <i_10192>:
    8000a4fc:	031458bb          	divuw	a7,s0,a7

000000008000a500 <i_10193>:
    8000a500:	031d7663          	bleu	a7,s10,8000a52c <i_10203>

000000008000a504 <i_10194>:
    8000a504:	0318f463          	bleu	a7,a7,8000a52c <i_10203>

000000008000a508 <i_10195>:
    8000a508:	001b8b93          	addi	s7,s7,1
    8000a50c:	fd8bcae3          	blt	s7,s8,8000a4e0 <i_10185>

000000008000a510 <i_10196>:
    8000a510:	03ad5d33          	divu	s10,s10,s10

000000008000a514 <i_10197>:
    8000a514:	e1c12d03          	lw	s10,-484(sp)

000000008000a518 <i_10198>:
    8000a518:	0114e863          	bltu	s1,a7,8000a528 <i_10202>

000000008000a51c <i_10199>:
    8000a51c:	02bb5b3b          	divuw	s6,s6,a1

000000008000a520 <i_10200>:
    8000a520:	ff314983          	lbu	s3,-13(sp)

000000008000a524 <i_10201>:
    8000a524:	e9a10d23          	sb	s10,-358(sp)

000000008000a528 <i_10202>:
    8000a528:	00289c93          	slli	s9,a7,0x2

000000008000a52c <i_10203>:
    8000a52c:	033b6d3b          	remw	s10,s6,s3

000000008000a530 <i_10204>:
    8000a530:	01962633          	slt	a2,a2,s9

000000008000a534 <i_10205>:
    8000a534:	01ab0263          	beq	s6,s10,8000a538 <i_10206>

000000008000a538 <i_10206>:
    8000a538:	ef1102a3          	sb	a7,-283(sp)

000000008000a53c <i_10207>:
    8000a53c:	01ecfcb3          	and	s9,s9,t5

000000008000a540 <i_10208>:
    8000a540:	00e00c93          	li	s9,14

000000008000a544 <i_10209>:
    8000a544:	019658b3          	srl	a7,a2,s9

000000008000a548 <i_10210>:
    8000a548:	f9e105a3          	sb	t5,-117(sp)

000000008000a54c <i_10211>:
    8000a54c:	00000013          	nop

000000008000a550 <i_10212>:
    8000a550:	89700b13          	li	s6,-1897

000000008000a554 <i_10213>:
    8000a554:	89b00f13          	li	t5,-1893

000000008000a558 <i_10214>:
    8000a558:	00000013          	nop

000000008000a55c <i_10215>:
    8000a55c:	00000013          	nop

000000008000a560 <i_10216>:
    8000a560:	0f415c83          	lhu	s9,244(sp)

000000008000a564 <i_10217>:
    8000a564:	001b0b13          	addi	s6,s6,1
    8000a568:	ffeb68e3          	bltu	s6,t5,8000a558 <i_10214>

000000008000a56c <i_10218>:
    8000a56c:	e2913023          	sd	s1,-480(sp)

000000008000a570 <i_10219>:
    8000a570:	f1e10123          	sb	t5,-254(sp)

000000008000a574 <i_10220>:
    8000a574:	01ecb8b3          	sltu	a7,s9,t5

000000008000a578 <i_10221>:
    8000a578:	13416783          	lwu	a5,308(sp)

000000008000a57c <i_10222>:
    8000a57c:	05013983          	ld	s3,80(sp)

000000008000a580 <i_10223>:
    8000a580:	ed110fa3          	sb	a7,-289(sp)

000000008000a584 <i_10224>:
    8000a584:	03ff29b3          	mulhsu	s3,t5,t6

000000008000a588 <i_10225>:
    8000a588:	e7c16703          	lwu	a4,-388(sp)

000000008000a58c <i_10226>:
    8000a58c:	0119e9b3          	or	s3,s3,a7

000000008000a590 <i_10227>:
    8000a590:	13e15883          	lhu	a7,318(sp)

000000008000a594 <i_10228>:
    8000a594:	10c11483          	lh	s1,268(sp)

000000008000a598 <i_10229>:
    8000a598:	0dc15503          	lhu	a0,220(sp)

000000008000a59c <i_10230>:
    8000a59c:	32176413          	ori	s0,a4,801

000000008000a5a0 <i_10231>:
    8000a5a0:	fb211c23          	sh	s2,-72(sp)

000000008000a5a4 <i_10232>:
    8000a5a4:	011235b3          	sltu	a1,tp,a7

000000008000a5a8 <i_10233>:
    8000a5a8:	00be6c63          	bltu	t3,a1,8000a5c0 <i_10239>

000000008000a5ac <i_10234>:
    8000a5ac:	00854e63          	blt	a0,s0,8000a5c8 <i_10241>

000000008000a5b0 <i_10235>:
    8000a5b0:	00360a63          	beq	a2,gp,8000a5c4 <i_10240>

000000008000a5b4 <i_10236>:
    8000a5b4:	088101a3          	sb	s0,131(sp)

000000008000a5b8 <i_10237>:
    8000a5b8:	408905b3          	sub	a1,s2,s0

000000008000a5bc <i_10238>:
    8000a5bc:	00e50863          	beq	a0,a4,8000a5cc <i_10242>

000000008000a5c0 <i_10239>:
    8000a5c0:	02948063          	beq	s1,s1,8000a5e0 <i_10247>

000000008000a5c4 <i_10240>:
    8000a5c4:	03157263          	bleu	a7,a0,8000a5e8 <i_10249>

000000008000a5c8 <i_10241>:
    8000a5c8:	ec310923          	sb	gp,-302(sp)

000000008000a5cc <i_10242>:
    8000a5cc:	03013983          	ld	s3,48(sp)

000000008000a5d0 <i_10243>:
    8000a5d0:	02e9673b          	remw	a4,s2,a4

000000008000a5d4 <i_10244>:
    8000a5d4:	00a4d663          	ble	a0,s1,8000a5e0 <i_10247>

000000008000a5d8 <i_10245>:
    8000a5d8:	19313423          	sd	s3,392(sp)

000000008000a5dc <i_10246>:
    8000a5dc:	10014983          	lbu	s3,256(sp)

000000008000a5e0 <i_10247>:
    8000a5e0:	06016983          	lwu	s3,96(sp)

000000008000a5e4 <i_10248>:
    8000a5e4:	7f3c4813          	xori	a6,s8,2035

000000008000a5e8 <i_10249>:
    8000a5e8:	00d00413          	li	s0,13

000000008000a5ec <i_10250>:
    8000a5ec:	408856bb          	sraw	a3,a6,s0

000000008000a5f0 <i_10251>:
    8000a5f0:	73a00b13          	li	s6,1850

000000008000a5f4 <i_10252>:
    8000a5f4:	74300c13          	li	s8,1859

000000008000a5f8 <i_10253>:
    8000a5f8:	1f011023          	sh	a6,480(sp)

000000008000a5fc <i_10254>:
    8000a5fc:	0016d813          	srli	a6,a3,0x1

000000008000a600 <i_10255>:
    8000a600:	e7e83813          	sltiu	a6,a6,-386

000000008000a604 <i_10256>:
    8000a604:	001b0b13          	addi	s6,s6,1
    8000a608:	ff6c58e3          	ble	s6,s8,8000a5f8 <i_10253>

000000008000a60c <i_10257>:
    8000a60c:	00485413          	srli	s0,a6,0x4

000000008000a610 <i_10258>:
    8000a610:	00285e1b          	srliw	t3,a6,0x2

000000008000a614 <i_10259>:
    8000a614:	fd013c23          	sd	a6,-40(sp)

000000008000a618 <i_10260>:
    8000a618:	80f00413          	li	s0,-2033

000000008000a61c <i_10261>:
    8000a61c:	82100c13          	li	s8,-2015

000000008000a620 <i_10262>:
    8000a620:	00000013          	nop

000000008000a624 <i_10263>:
    8000a624:	e2416803          	lwu	a6,-476(sp)

000000008000a628 <i_10264>:
    8000a628:	00412983          	lw	s3,4(sp)

000000008000a62c <i_10265>:
    8000a62c:	00140413          	addi	s0,s0,1
    8000a630:	ff8448e3          	blt	s0,s8,8000a620 <i_10262>

000000008000a634 <i_10266>:
    8000a634:	efd14f83          	lbu	t6,-259(sp)

000000008000a638 <i_10267>:
    8000a638:	f3a15f83          	lhu	t6,-198(sp)

000000008000a63c <i_10268>:
    8000a63c:	401fd99b          	sraiw	s3,t6,0x1

000000008000a640 <i_10269>:
    8000a640:	01c94c63          	blt	s2,t3,8000a658 <i_10275>

000000008000a644 <i_10270>:
    8000a644:	0d211683          	lh	a3,210(sp)

000000008000a648 <i_10271>:
    8000a648:	eed12623          	sw	a3,-276(sp)

000000008000a64c <i_10272>:
    8000a64c:	ebc12283          	lw	t0,-324(sp)

000000008000a650 <i_10273>:
    8000a650:	00000013          	nop

000000008000a654 <i_10274>:
    8000a654:	0a714283          	lbu	t0,167(sp)

000000008000a658 <i_10275>:
    8000a658:	00000013          	nop

000000008000a65c <i_10276>:
    8000a65c:	00000013          	nop

000000008000a660 <i_10277>:
    8000a660:	8a500e13          	li	t3,-1883

000000008000a664 <i_10278>:
    8000a664:	8ab00993          	li	s3,-1877

000000008000a668 <i_10279>:
    8000a668:	02596bbb          	remw	s7,s2,t0

000000008000a66c <i_10280>:
    8000a66c:	001e0e13          	addi	t3,t3,1
    8000a670:	ffc99ce3          	bne	s3,t3,8000a668 <i_10279>

000000008000a674 <i_10281>:
    8000a674:	025e59b3          	divu	s3,t3,t0

000000008000a678 <i_10282>:
    8000a678:	00000013          	nop

000000008000a67c <i_10283>:
    8000a67c:	07713023          	sd	s7,96(sp)

000000008000a680 <i_10284>:
    8000a680:	8bf00293          	li	t0,-1857

000000008000a684 <i_10285>:
    8000a684:	8cb00b93          	li	s7,-1845

000000008000a688 <i_10286>:
    8000a688:	0249c9bb          	divw	s3,s3,tp

000000008000a68c <i_10287>:
    8000a68c:	903b839b          	addiw	t2,s7,-1789

000000008000a690 <i_10288>:
    8000a690:	01500a13          	li	s4,21

000000008000a694 <i_10289>:
    8000a694:	414bdd33          	sra	s10,s7,s4

000000008000a698 <i_10290>:
    8000a698:	eac10f83          	lb	t6,-340(sp)

000000008000a69c <i_10291>:
    8000a69c:	00783833          	sltu	a6,a6,t2

000000008000a6a0 <i_10292>:
    8000a6a0:	07411383          	lh	t2,116(sp)

000000008000a6a4 <i_10293>:
    8000a6a4:	03fbe063          	bltu	s7,t6,8000a6c4 <i_10300>

000000008000a6a8 <i_10294>:
    8000a6a8:	f7813f83          	ld	t6,-136(sp)

000000008000a6ac <i_10295>:
    8000a6ac:	08f102a3          	sb	a5,133(sp)

000000008000a6b0 <i_10296>:
    8000a6b0:	09c16c03          	lwu	s8,156(sp)

000000008000a6b4 <i_10297>:
    8000a6b4:	00128293          	addi	t0,t0,1
    8000a6b8:	fd72c8e3          	blt	t0,s7,8000a688 <i_10286>

000000008000a6bc <i_10298>:
    8000a6bc:	018a0e63          	beq	s4,s8,8000a6d8 <i_10305>

000000008000a6c0 <i_10299>:
    8000a6c0:	038c4c33          	div	s8,s8,s8

000000008000a6c4 <i_10300>:
    8000a6c4:	e0f11f23          	sh	a5,-482(sp)

000000008000a6c8 <i_10301>:
    8000a6c8:	038c3c33          	mulhu	s8,s8,s8

000000008000a6cc <i_10302>:
    8000a6cc:	b6326c37          	lui	s8,0xb6326

000000008000a6d0 <i_10303>:
    8000a6d0:	003c119b          	slliw	gp,s8,0x3

000000008000a6d4 <i_10304>:
    8000a6d4:	0181e463          	bltu	gp,s8,8000a6dc <i_10306>

000000008000a6d8 <i_10305>:
    8000a6d8:	00b00f93          	li	t6,11

000000008000a6dc <i_10306>:
    8000a6dc:	41f7573b          	sraw	a4,a4,t6

000000008000a6e0 <i_10307>:
    8000a6e0:	003fec63          	bltu	t6,gp,8000a6f8 <i_10313>

000000008000a6e4 <i_10308>:
    8000a6e4:	f2813703          	ld	a4,-216(sp)

000000008000a6e8 <i_10309>:
    8000a6e8:	e2015283          	lhu	t0,-480(sp)

000000008000a6ec <i_10310>:
    8000a6ec:	0037571b          	srliw	a4,a4,0x3

000000008000a6f0 <i_10311>:
    8000a6f0:	1d812e83          	lw	t4,472(sp)

000000008000a6f4 <i_10312>:
    8000a6f4:	02e297b3          	mulh	a5,t0,a4

000000008000a6f8 <i_10313>:
    8000a6f8:	01f70663          	beq	a4,t6,8000a704 <i_10316>

000000008000a6fc <i_10314>:
    8000a6fc:	01de8c63          	beq	t4,t4,8000a714 <i_10320>

000000008000a700 <i_10315>:
    8000a700:	03600e93          	li	t4,54

000000008000a704 <i_10316>:
    8000a704:	01df99b3          	sll	s3,t6,t4

000000008000a708 <i_10317>:
    8000a708:	00fc7f33          	and	t5,s8,a5

000000008000a70c <i_10318>:
    8000a70c:	19810ca3          	sb	s8,409(sp)

000000008000a710 <i_10319>:
    8000a710:	01800593          	li	a1,24

000000008000a714 <i_10320>:
    8000a714:	00bed4b3          	srl	s1,t4,a1

000000008000a718 <i_10321>:
    8000a718:	1dd12623          	sw	t4,460(sp)

000000008000a71c <i_10322>:
    8000a71c:	02800893          	li	a7,40

000000008000a720 <i_10323>:
    8000a720:	011719b3          	sll	s3,a4,a7

000000008000a724 <i_10324>:
    8000a724:	030fe063          	bltu	t6,a6,8000a744 <i_10332>

000000008000a728 <i_10325>:
    8000a728:	11c16f83          	lwu	t6,284(sp)

000000008000a72c <i_10326>:
    8000a72c:	01a12e23          	sw	s10,28(sp)

000000008000a730 <i_10327>:
    8000a730:	02aeafb3          	mulhsu	t6,t4,a0

000000008000a734 <i_10328>:
    8000a734:	029ee463          	bltu	t4,s1,8000a75c <i_10338>

000000008000a738 <i_10329>:
    8000a738:	e3e15483          	lhu	s1,-450(sp)

000000008000a73c <i_10330>:
    8000a73c:	e9813283          	ld	t0,-360(sp)

000000008000a740 <i_10331>:
    8000a740:	0294c063          	blt	s1,s1,8000a760 <i_10339>

000000008000a744 <i_10332>:
    8000a744:	40628ebb          	subw	t4,t0,t1

000000008000a748 <i_10333>:
    8000a748:	e4511c23          	sh	t0,-424(sp)

000000008000a74c <i_10334>:
    8000a74c:	1827a537          	lui	a0,0x1827a

000000008000a750 <i_10335>:
    8000a750:	00000013          	nop

000000008000a754 <i_10336>:
    8000a754:	00aee2b3          	or	t0,t4,a0

000000008000a758 <i_10337>:
    8000a758:	fe812803          	lw	a6,-24(sp)

000000008000a75c <i_10338>:
    8000a75c:	00000013          	nop

000000008000a760 <i_10339>:
    8000a760:	00000013          	nop

000000008000a764 <i_10340>:
    8000a764:	ee9104a3          	sb	s1,-279(sp)

000000008000a768 <i_10341>:
    8000a768:	8d400d93          	li	s11,-1836

000000008000a76c <i_10342>:
    8000a76c:	8da00d13          	li	s10,-1830

000000008000a770 <i_10343>:
    8000a770:	0aa11183          	lh	gp,170(sp)

000000008000a774 <i_10344>:
    8000a774:	00000013          	nop

000000008000a778 <i_10345>:
    8000a778:	00700413          	li	s0,7

000000008000a77c <i_10346>:
    8000a77c:	408852b3          	sra	t0,a6,s0

000000008000a780 <i_10347>:
    8000a780:	001d8d93          	addi	s11,s11,1 # 5fe9d1f1 <main-0x20162e0f>
    8000a784:	ffbd56e3          	ble	s11,s10,8000a770 <i_10343>

000000008000a788 <i_10348>:
    8000a788:	11810e03          	lb	t3,280(sp)

000000008000a78c <i_10349>:
    8000a78c:	0a816e03          	lwu	t3,168(sp)

000000008000a790 <i_10350>:
    8000a790:	010df263          	bleu	a6,s11,8000a794 <i_10351>

000000008000a794 <i_10351>:
    8000a794:	40940833          	sub	a6,s0,s1

000000008000a798 <i_10352>:
    8000a798:	ee013803          	ld	a6,-288(sp)

000000008000a79c <i_10353>:
    8000a79c:	eec12883          	lw	a7,-276(sp)

000000008000a7a0 <i_10354>:
    8000a7a0:	a197cf13          	xori	t5,a5,-1511

000000008000a7a4 <i_10355>:
    8000a7a4:	00388663          	beq	a7,gp,8000a7b0 <i_10358>

000000008000a7a8 <i_10356>:
    8000a7a8:	0238a633          	mulhsu	a2,a7,gp

000000008000a7ac <i_10357>:
    8000a7ac:	010585b3          	add	a1,a1,a6

000000008000a7b0 <i_10358>:
    8000a7b0:	01cf4663          	blt	t5,t3,8000a7bc <i_10361>

000000008000a7b4 <i_10359>:
    8000a7b4:	03ef4f33          	div	t5,t5,t5

000000008000a7b8 <i_10360>:
    8000a7b8:	fda14f83          	lbu	t6,-38(sp)

000000008000a7bc <i_10361>:
    8000a7bc:	005e0463          	beq	t3,t0,8000a7c4 <i_10363>

000000008000a7c0 <i_10362>:
    8000a7c0:	f5af0f9b          	addiw	t6,t5,-166

000000008000a7c4 <i_10363>:
    8000a7c4:	02c5c263          	blt	a1,a2,8000a7e8 <i_10372>

000000008000a7c8 <i_10364>:
    8000a7c8:	00af45b3          	xor	a1,t5,a0

000000008000a7cc <i_10365>:
    8000a7cc:	0085f863          	bleu	s0,a1,8000a7dc <i_10369>

000000008000a7d0 <i_10366>:
    8000a7d0:	03ffffbb          	remuw	t6,t6,t6

000000008000a7d4 <i_10367>:
    8000a7d4:	e9014403          	lbu	s0,-368(sp)

000000008000a7d8 <i_10368>:
    8000a7d8:	016fb2b3          	sltu	t0,t6,s6

000000008000a7dc <i_10369>:
    8000a7dc:	fd816383          	lwu	t2,-40(sp)

000000008000a7e0 <i_10370>:
    8000a7e0:	0082e263          	bltu	t0,s0,8000a7e4 <i_10371>

000000008000a7e4 <i_10371>:
    8000a7e4:	004ede9b          	srliw	t4,t4,0x4

000000008000a7e8 <i_10372>:
    8000a7e8:	f8a14283          	lbu	t0,-118(sp)

000000008000a7ec <i_10373>:
    8000a7ec:	03c29063          	bne	t0,t3,8000a80c <i_10381>

000000008000a7f0 <i_10374>:
    8000a7f0:	fa914f83          	lbu	t6,-87(sp)

000000008000a7f4 <i_10375>:
    8000a7f4:	13416083          	lwu	ra,308(sp)

000000008000a7f8 <i_10376>:
    8000a7f8:	01d0c863          	blt	ra,t4,8000a808 <i_10380>

000000008000a7fc <i_10377>:
    8000a7fc:	01600c13          	li	s8,22

000000008000a800 <i_10378>:
    8000a800:	0182dc3b          	srlw	s8,t0,s8

000000008000a804 <i_10379>:
    8000a804:	ef611283          	lh	t0,-266(sp)

000000008000a808 <i_10380>:
    8000a808:	fcb13423          	sd	a1,-56(sp)

000000008000a80c <i_10381>:
    8000a80c:	0210e9b3          	rem	s3,ra,ra

000000008000a810 <i_10382>:
    8000a810:	0182f663          	bleu	s8,t0,8000a81c <i_10385>

000000008000a814 <i_10383>:
    8000a814:	fc013a83          	ld	s5,-64(sp)

000000008000a818 <i_10384>:
    8000a818:	0259d633          	divu	a2,s3,t0

000000008000a81c <i_10385>:
    8000a81c:	0d012b83          	lw	s7,208(sp)

000000008000a820 <i_10386>:
    8000a820:	01898863          	beq	s3,s8,8000a830 <i_10390>

000000008000a824 <i_10387>:
    8000a824:	00114203          	lbu	tp,1(sp)

000000008000a828 <i_10388>:
    8000a828:	0f812823          	sw	s8,240(sp)

000000008000a82c <i_10389>:
    8000a82c:	002c5b13          	srli	s6,s8,0x2

000000008000a830 <i_10390>:
    8000a830:	02eb7fb3          	remu	t6,s6,a4

000000008000a834 <i_10391>:
    8000a834:	03100713          	li	a4,49

000000008000a838 <i_10392>:
    8000a838:	40edd733          	sra	a4,s11,a4

000000008000a83c <i_10393>:
    8000a83c:	83d00593          	li	a1,-1987

000000008000a840 <i_10394>:
    8000a840:	84900913          	li	s2,-1975

000000008000a844 <i_10395>:
    8000a844:	ffa12423          	sw	s10,-24(sp)

000000008000a848 <i_10396>:
    8000a848:	78300c13          	li	s8,1923

000000008000a84c <i_10397>:
    8000a84c:	78b00d13          	li	s10,1931

000000008000a850 <i_10398>:
    8000a850:	bee4fc93          	andi	s9,s1,-1042

000000008000a854 <i_10399>:
    8000a854:	ffc11683          	lh	a3,-4(sp)

000000008000a858 <i_10400>:
    8000a858:	13012703          	lw	a4,304(sp)

000000008000a85c <i_10401>:
    8000a85c:	18013683          	ld	a3,384(sp)

000000008000a860 <i_10402>:
    8000a860:	40d686b3          	sub	a3,a3,a3

000000008000a864 <i_10403>:
    8000a864:	01100713          	li	a4,17

000000008000a868 <i_10404>:
    8000a868:	40e6d6bb          	sraw	a3,a3,a4

000000008000a86c <i_10405>:
    8000a86c:	001c0c13          	addi	s8,s8,1 # ffffffffb6326001 <_end+0xffffffff36315bed>
    8000a870:	ff8d50e3          	ble	s8,s10,8000a850 <i_10398>

000000008000a874 <i_10406>:
    8000a874:	e8d10ca3          	sb	a3,-359(sp)

000000008000a878 <i_10407>:
    8000a878:	00158593          	addi	a1,a1,1
    8000a87c:	fd2592e3          	bne	a1,s2,8000a840 <i_10394>

000000008000a880 <i_10408>:
    8000a880:	00e94c63          	blt	s2,a4,8000a898 <i_10414>

000000008000a884 <i_10409>:
    8000a884:	00e80e63          	beq	a6,a4,8000a8a0 <i_10416>

000000008000a888 <i_10410>:
    8000a888:	c2073693          	sltiu	a3,a4,-992

000000008000a88c <i_10411>:
    8000a88c:	16e12e23          	sw	a4,380(sp)

000000008000a890 <i_10412>:
    8000a890:	eaa15d03          	lhu	s10,-342(sp)

000000008000a894 <i_10413>:
    8000a894:	18d12623          	sw	a3,396(sp)

000000008000a898 <i_10414>:
    8000a898:	13e11b03          	lh	s6,318(sp)

000000008000a89c <i_10415>:
    8000a89c:	00000013          	nop

000000008000a8a0 <i_10416>:
    8000a8a0:	03623d33          	mulhu	s10,tp,s6

000000008000a8a4 <i_10417>:
    8000a8a4:	04e10283          	lb	t0,78(sp)

000000008000a8a8 <i_10418>:
    8000a8a8:	83d00213          	li	tp,-1987

000000008000a8ac <i_10419>:
    8000a8ac:	84200d93          	li	s11,-1982

000000008000a8b0 <i_10420>:
    8000a8b0:	0ba12623          	sw	s10,172(sp)

000000008000a8b4 <i_10421>:
    8000a8b4:	00000013          	nop

000000008000a8b8 <i_10422>:
    8000a8b8:	02dd8263          	beq	s11,a3,8000a8dc <i_10430>

000000008000a8bc <i_10423>:
    8000a8bc:	03400193          	li	gp,52

000000008000a8c0 <i_10424>:
    8000a8c0:	003750b3          	srl	ra,a4,gp

000000008000a8c4 <i_10425>:
    8000a8c4:	10413c23          	sd	tp,280(sp)

000000008000a8c8 <i_10426>:
    8000a8c8:	00120213          	addi	tp,tp,1 # 1 <main-0x7fffffff>
    8000a8cc:	ffb212e3          	bne	tp,s11,8000a8b0 <i_10420>

000000008000a8d0 <i_10427>:
    8000a8d0:	025ee7bb          	remw	a5,t4,t0

000000008000a8d4 <i_10428>:
    8000a8d4:	0ec15783          	lhu	a5,236(sp)

000000008000a8d8 <i_10429>:
    8000a8d8:	41620233          	sub	tp,tp,s6

000000008000a8dc <i_10430>:
    8000a8dc:	02f12223          	sw	a5,36(sp)

000000008000a8e0 <i_10431>:
    8000a8e0:	04012283          	lw	t0,64(sp)

000000008000a8e4 <i_10432>:
    8000a8e4:	02d15b33          	divu	s6,sp,a3

000000008000a8e8 <i_10433>:
    8000a8e8:	02178463          	beq	a5,ra,8000a910 <i_10443>

000000008000a8ec <i_10434>:
    8000a8ec:	01013283          	ld	t0,16(sp)

000000008000a8f0 <i_10435>:
    8000a8f0:	01a20c63          	beq	tp,s10,8000a908 <i_10441>

000000008000a8f4 <i_10436>:
    8000a8f4:	4e2f8d1b          	addiw	s10,t6,1250

000000008000a8f8 <i_10437>:
    8000a8f8:	01624263          	blt	tp,s6,8000a8fc <i_10438>

000000008000a8fc <i_10438>:
    8000a8fc:	01a21663          	bne	tp,s10,8000a908 <i_10441>

000000008000a900 <i_10439>:
    8000a900:	03600393          	li	t2,54

000000008000a904 <i_10440>:
    8000a904:	007d1b33          	sll	s6,s10,t2

000000008000a908 <i_10441>:
    8000a908:	e1c16c03          	lwu	s8,-484(sp)

000000008000a90c <i_10442>:
    8000a90c:	e5813023          	sd	s8,-448(sp)

000000008000a910 <i_10443>:
    8000a910:	ec710f23          	sb	t2,-290(sp)

000000008000a914 <i_10444>:
    8000a914:	408585b3          	sub	a1,a1,s0

000000008000a918 <i_10445>:
    8000a918:	e3612c23          	sw	s6,-456(sp)

000000008000a91c <i_10446>:
    8000a91c:	007c6663          	bltu	s8,t2,8000a928 <i_10449>

000000008000a920 <i_10447>:
    8000a920:	e3110303          	lb	t1,-463(sp)

000000008000a924 <i_10448>:
    8000a924:	0268fb33          	remu	s6,a7,t1

000000008000a928 <i_10449>:
    8000a928:	4013531b          	sraiw	t1,t1,0x1

000000008000a92c <i_10450>:
    8000a92c:	0cc12d83          	lw	s11,204(sp)

000000008000a930 <i_10451>:
    8000a930:	03013b83          	ld	s7,48(sp)

000000008000a934 <i_10452>:
    8000a934:	026b8063          	beq	s7,t1,8000a954 <i_10460>

000000008000a938 <i_10453>:
    8000a938:	1a611303          	lh	t1,422(sp)

000000008000a93c <i_10454>:
    8000a93c:	e6610123          	sb	t1,-414(sp)

000000008000a940 <i_10455>:
    8000a940:	037fcfbb          	divw	t6,t6,s7

000000008000a944 <i_10456>:
    8000a944:	40335893          	srai	a7,t1,0x3

000000008000a948 <i_10457>:
    8000a948:	002bd893          	srli	a7,s7,0x2

000000008000a94c <i_10458>:
    8000a94c:	ef613023          	sd	s6,-288(sp)

000000008000a950 <i_10459>:
    8000a950:	ec210f83          	lb	t6,-318(sp)

000000008000a954 <i_10460>:
    8000a954:	0314ca33          	div	s4,s1,a7

000000008000a958 <i_10461>:
    8000a958:	e3a15883          	lhu	a7,-454(sp)

000000008000a95c <i_10462>:
    8000a95c:	f7410f83          	lb	t6,-140(sp)

000000008000a960 <i_10463>:
    8000a960:	f2910f83          	lb	t6,-215(sp)

000000008000a964 <i_10464>:
    8000a964:	4d9448b7          	lui	a7,0x4d944

000000008000a968 <i_10465>:
    8000a968:	011f9663          	bne	t6,a7,8000a974 <i_10468>

000000008000a96c <i_10466>:
    8000a96c:	02afe263          	bltu	t6,a0,8000a990 <i_10475>

000000008000a970 <i_10467>:
    8000a970:	03f8afb3          	mulhsu	t6,a7,t6

000000008000a974 <i_10468>:
    8000a974:	00ffafb3          	slt	t6,t6,a5

000000008000a978 <i_10469>:
    8000a978:	03f2f063          	bleu	t6,t0,8000a998 <i_10477>

000000008000a97c <i_10470>:
    8000a97c:	031885b3          	mul	a1,a7,a7

000000008000a980 <i_10471>:
    8000a980:	0d112e23          	sw	a7,220(sp)

000000008000a984 <i_10472>:
    8000a984:	4037d793          	srai	a5,a5,0x3

000000008000a988 <i_10473>:
    8000a988:	02815883          	lhu	a7,40(sp)

000000008000a98c <i_10474>:
    8000a98c:	002d1793          	slli	a5,s10,0x2

000000008000a990 <i_10475>:
    8000a990:	01000093          	li	ra,16

000000008000a994 <i_10476>:
    8000a994:	001b5b3b          	srlw	s6,s6,ra

000000008000a998 <i_10477>:
    8000a998:	fcb11f23          	sh	a1,-34(sp)

000000008000a99c <i_10478>:
    8000a99c:	fd6105a3          	sb	s6,-53(sp)

000000008000a9a0 <i_10479>:
    8000a9a0:	38a9899b          	addiw	s3,s3,906

000000008000a9a4 <i_10480>:
    8000a9a4:	08e12a23          	sw	a4,148(sp)

000000008000a9a8 <i_10481>:
    8000a9a8:	03b00393          	li	t2,59

000000008000a9ac <i_10482>:
    8000a9ac:	0078dcb3          	srl	s9,a7,t2

000000008000a9b0 <i_10483>:
    8000a9b0:	03638263          	beq	t2,s6,8000a9d4 <i_10492>

000000008000a9b4 <i_10484>:
    8000a9b4:	01c00f93          	li	t6,28

000000008000a9b8 <i_10485>:
    8000a9b8:	01f096bb          	sllw	a3,ra,t6

000000008000a9bc <i_10486>:
    8000a9bc:	029994b3          	mulh	s1,s3,s1

000000008000a9c0 <i_10487>:
    8000a9c0:	1dc11f83          	lh	t6,476(sp)

000000008000a9c4 <i_10488>:
    8000a9c4:	02daf4bb          	remuw	s1,s5,a3

000000008000a9c8 <i_10489>:
    8000a9c8:	01198263          	beq	s3,a7,8000a9cc <i_10490>

000000008000a9cc <i_10490>:
    8000a9cc:	00b2f1b3          	and	gp,t0,a1

000000008000a9d0 <i_10491>:
    8000a9d0:	14713823          	sd	t2,336(sp)

000000008000a9d4 <i_10492>:
    8000a9d4:	00000013          	nop

000000008000a9d8 <i_10493>:
    8000a9d8:	00000013          	nop

000000008000a9dc <i_10494>:
    8000a9dc:	8a000593          	li	a1,-1888

000000008000a9e0 <i_10495>:
    8000a9e0:	8a400613          	li	a2,-1884

000000008000a9e4 <i_10496>:
    8000a9e4:	003678b3          	and	a7,a2,gp

000000008000a9e8 <i_10497>:
    8000a9e8:	00000013          	nop

000000008000a9ec <i_10498>:
    8000a9ec:	0318adb3          	mulhsu	s11,a7,a7

000000008000a9f0 <i_10499>:
    8000a9f0:	00158593          	addi	a1,a1,1
    8000a9f4:	fec5e8e3          	bltu	a1,a2,8000a9e4 <i_10496>

000000008000a9f8 <i_10500>:
    8000a9f8:	032db8b3          	mulhu	a7,s11,s2

000000008000a9fc <i_10501>:
    8000a9fc:	27d88c13          	addi	s8,a7,637 # 4d94427d <main-0x326bbd83>

000000008000aa00 <i_10502>:
    8000aa00:	011c5a63          	ble	a7,s8,8000aa14 <i_10507>

000000008000aa04 <i_10503>:
    8000aa04:	03b8c0bb          	divw	ra,a7,s11

000000008000aa08 <i_10504>:
    8000aa08:	0db11023          	sh	s11,192(sp)

000000008000aa0c <i_10505>:
    8000aa0c:	07016783          	lwu	a5,112(sp)

000000008000aa10 <i_10506>:
    8000aa10:	01108c63          	beq	ra,a7,8000aa28 <i_10512>

000000008000aa14 <i_10507>:
    8000aa14:	fe811a03          	lh	s4,-24(sp)

000000008000aa18 <i_10508>:
    8000aa18:	01611383          	lh	t2,22(sp)

000000008000aa1c <i_10509>:
    8000aa1c:	09113c23          	sd	a7,152(sp)

000000008000aa20 <i_10510>:
    8000aa20:	0399fcb3          	remu	s9,s3,s9

000000008000aa24 <i_10511>:
    8000aa24:	001c5263          	ble	ra,s8,8000aa28 <i_10512>

000000008000aa28 <i_10512>:
    8000aa28:	eeb10423          	sb	a1,-280(sp)

000000008000aa2c <i_10513>:
    8000aa2c:	16110123          	sb	ra,354(sp)

000000008000aa30 <i_10514>:
    8000aa30:	18811723          	sh	s0,398(sp)

000000008000aa34 <i_10515>:
    8000aa34:	01b66c63          	bltu	a2,s11,8000aa4c <i_10521>

000000008000aa38 <i_10516>:
    8000aa38:	0a513423          	sd	t0,168(sp)

000000008000aa3c <i_10517>:
    8000aa3c:	1b811723          	sh	s8,430(sp)

000000008000aa40 <i_10518>:
    8000aa40:	15112023          	sw	a7,320(sp)

000000008000aa44 <i_10519>:
    8000aa44:	03fa3533          	mulhu	a0,s4,t6

000000008000aa48 <i_10520>:
    8000aa48:	0dc16f83          	lwu	t6,220(sp)

000000008000aa4c <i_10521>:
    8000aa4c:	01d00893          	li	a7,29

000000008000aa50 <i_10522>:
    8000aa50:	411a58bb          	sraw	a7,s4,a7

000000008000aa54 <i_10523>:
    8000aa54:	8a700d93          	li	s11,-1881

000000008000aa58 <i_10524>:
    8000aa58:	8b100c13          	li	s8,-1871

000000008000aa5c <i_10525>:
    8000aa5c:	0ee15a83          	lhu	s5,238(sp)

000000008000aa60 <i_10526>:
    8000aa60:	03488233          	mul	tp,a7,s4

000000008000aa64 <i_10527>:
    8000aa64:	03289b33          	mulh	s6,a7,s2

000000008000aa68 <i_10528>:
    8000aa68:	03520063          	beq	tp,s5,8000aa88 <i_10536>

000000008000aa6c <i_10529>:
    8000aa6c:	d22eb0b7          	lui	ra,0xd22eb

000000008000aa70 <i_10530>:
    8000aa70:	0b812303          	lw	t1,184(sp)

000000008000aa74 <i_10531>:
    8000aa74:	17710083          	lb	ra,375(sp)

000000008000aa78 <i_10532>:
    8000aa78:	1a610323          	sb	t1,422(sp)

000000008000aa7c <i_10533>:
    8000aa7c:	f2615e83          	lhu	t4,-218(sp)

000000008000aa80 <i_10534>:
    8000aa80:	02a3623b          	remw	tp,t1,a0

000000008000aa84 <i_10535>:
    8000aa84:	0e314403          	lbu	s0,227(sp)

000000008000aa88 <i_10536>:
    8000aa88:	14410083          	lb	ra,324(sp)

000000008000aa8c <i_10537>:
    8000aa8c:	00131f93          	slli	t6,t1,0x1

000000008000aa90 <i_10538>:
    8000aa90:	001d8d93          	addi	s11,s11,1
    8000aa94:	fdbc54e3          	ble	s11,s8,8000aa5c <i_10525>

000000008000aa98 <i_10539>:
    8000aa98:	004b0bb3          	add	s7,s6,tp

000000008000aa9c <i_10540>:
    8000aa9c:	0dd13c23          	sd	t4,216(sp)

000000008000aaa0 <i_10541>:
    8000aaa0:	037473bb          	remuw	t2,s0,s7

000000008000aaa4 <i_10542>:
    8000aaa4:	037bdbbb          	divuw	s7,s7,s7

000000008000aaa8 <i_10543>:
    8000aaa8:	e6813783          	ld	a5,-408(sp)

000000008000aaac <i_10544>:
    8000aaac:	a8e7e793          	ori	a5,a5,-1394

000000008000aab0 <i_10545>:
    8000aab0:	004d5b93          	srli	s7,s10,0x4

000000008000aab4 <i_10546>:
    8000aab4:	16f11e23          	sh	a5,380(sp)

000000008000aab8 <i_10547>:
    8000aab8:	0bf11123          	sh	t6,162(sp)

000000008000aabc <i_10548>:
    8000aabc:	7d900793          	li	a5,2009

000000008000aac0 <i_10549>:
    8000aac0:	7e700b93          	li	s7,2023

000000008000aac4 <i_10550>:
    8000aac4:	05a10223          	sb	s10,68(sp)

000000008000aac8 <i_10551>:
    8000aac8:	f1f11923          	sh	t6,-238(sp)

000000008000aacc <i_10552>:
    8000aacc:	79100f93          	li	t6,1937

000000008000aad0 <i_10553>:
    8000aad0:	79700a93          	li	s5,1943

000000008000aad4 <i_10554>:
    8000aad4:	015acf33          	xor	t5,s5,s5

000000008000aad8 <i_10555>:
    8000aad8:	05613423          	sd	s6,72(sp)

000000008000aadc <i_10556>:
    8000aadc:	17a15503          	lhu	a0,378(sp)

000000008000aae0 <i_10557>:
    8000aae0:	02f500bb          	mulw	ra,a0,a5

000000008000aae4 <i_10558>:
    8000aae4:	00000013          	nop

000000008000aae8 <i_10559>:
    8000aae8:	001f8f93          	addi	t6,t6,1
    8000aaec:	ff5fe4e3          	bltu	t6,s5,8000aad4 <i_10554>

000000008000aaf0 <i_10560>:
    8000aaf0:	8a71cc13          	xori	s8,gp,-1881

000000008000aaf4 <i_10561>:
    8000aaf4:	e7e10183          	lb	gp,-386(sp)

000000008000aaf8 <i_10562>:
    8000aaf8:	01ed5263          	ble	t5,s10,8000aafc <i_10563>

000000008000aafc <i_10563>:
    8000aafc:	06812f83          	lw	t6,104(sp)

000000008000ab00 <i_10564>:
    8000ab00:	e6313423          	sd	gp,-408(sp)

000000008000ab04 <i_10565>:
    8000ab04:	00178793          	addi	a5,a5,1
    8000ab08:	fafbfee3          	bleu	a5,s7,8000aac4 <i_10550>

000000008000ab0c <i_10566>:
    8000ab0c:	0037e5b3          	or	a1,a5,gp

000000008000ab10 <i_10567>:
    8000ab10:	030f8263          	beq	t6,a6,8000ab34 <i_10576>

000000008000ab14 <i_10568>:
    8000ab14:	f7615e83          	lhu	t4,-138(sp)

000000008000ab18 <i_10569>:
    8000ab18:	00d00b13          	li	s6,13

000000008000ab1c <i_10570>:
    8000ab1c:	416edfbb          	sraw	t6,t4,s6

000000008000ab20 <i_10571>:
    8000ab20:	00000013          	nop

000000008000ab24 <i_10572>:
    8000ab24:	00000013          	nop

000000008000ab28 <i_10573>:
    8000ab28:	f8014c83          	lbu	s9,-128(sp)

000000008000ab2c <i_10574>:
    8000ab2c:	ea812783          	lw	a5,-344(sp)

000000008000ab30 <i_10575>:
    8000ab30:	04912c23          	sw	s1,88(sp)

000000008000ab34 <i_10576>:
    8000ab34:	0c016603          	lwu	a2,192(sp)

000000008000ab38 <i_10577>:
    8000ab38:	fa5100a3          	sb	t0,-95(sp)

000000008000ab3c <i_10578>:
    8000ab3c:	7e500a93          	li	s5,2021

000000008000ab40 <i_10579>:
    8000ab40:	7f800293          	li	t0,2040

000000008000ab44 <i_10580>:
    8000ab44:	001f1f1b          	slliw	t5,t5,0x1

000000008000ab48 <i_10581>:
    8000ab48:	81e60493          	addi	s1,a2,-2018

000000008000ab4c <i_10582>:
    8000ab4c:	00c48863          	beq	s1,a2,8000ab5c <i_10586>

000000008000ab50 <i_10583>:
    8000ab50:	e2c11483          	lh	s1,-468(sp)

000000008000ab54 <i_10584>:
    8000ab54:	f4c11183          	lh	gp,-180(sp)

000000008000ab58 <i_10585>:
    8000ab58:	029e063b          	mulw	a2,t3,s1

000000008000ab5c <i_10586>:
    8000ab5c:	01f00413          	li	s0,31

000000008000ab60 <i_10587>:
    8000ab60:	0084543b          	srlw	s0,s0,s0

000000008000ab64 <i_10588>:
    8000ab64:	ec813023          	sd	s0,-320(sp)

000000008000ab68 <i_10589>:
    8000ab68:	00811a63          	bne	sp,s0,8000ab7c <i_10593>

000000008000ab6c <i_10590>:
    8000ab6c:	001a8a93          	addi	s5,s5,1
    8000ab70:	fd52fae3          	bleu	s5,t0,8000ab44 <i_10580>

000000008000ab74 <i_10591>:
    8000ab74:	e6c13423          	sd	a2,-408(sp)

000000008000ab78 <i_10592>:
    8000ab78:	e99f4d93          	xori	s11,t5,-359

000000008000ab7c <i_10593>:
    8000ab7c:	00c0e663          	bltu	ra,a2,8000ab88 <i_10596>

000000008000ab80 <i_10594>:
    8000ab80:	0f412383          	lw	t2,244(sp)

000000008000ab84 <i_10595>:
    8000ab84:	00c40663          	beq	s0,a2,8000ab90 <i_10598>

000000008000ab88 <i_10596>:
    8000ab88:	01bd8c63          	beq	s11,s11,8000aba0 <i_10602>

000000008000ab8c <i_10597>:
    8000ab8c:	0281d463          	ble	s0,gp,8000abb4 <i_10607>

000000008000ab90 <i_10598>:
    8000ab90:	01b41a63          	bne	s0,s11,8000aba4 <i_10603>

000000008000ab94 <i_10599>:
    8000ab94:	40165593          	srai	a1,a2,0x1

000000008000ab98 <i_10600>:
    8000ab98:	01b39e63          	bne	t2,s11,8000abb4 <i_10607>

000000008000ab9c <i_10601>:
    8000ab9c:	15810783          	lb	a5,344(sp)

000000008000aba0 <i_10602>:
    8000aba0:	02c7b3b3          	mulhu	t2,a5,a2

000000008000aba4 <i_10603>:
    8000aba4:	ebe15e03          	lhu	t3,-322(sp)

000000008000aba8 <i_10604>:
    8000aba8:	fd811183          	lh	gp,-40(sp)

000000008000abac <i_10605>:
    8000abac:	01c64863          	blt	a2,t3,8000abbc <i_10609>

000000008000abb0 <i_10606>:
    8000abb0:	02566d3b          	remw	s10,a2,t0

000000008000abb4 <i_10607>:
    8000abb4:	01ce1263          	bne	t3,t3,8000abb8 <i_10608>

000000008000abb8 <i_10608>:
    8000abb8:	1ba14e03          	lbu	t3,442(sp)

000000008000abbc <i_10609>:
    8000abbc:	01c60333          	add	t1,a2,t3

000000008000abc0 <i_10610>:
    8000abc0:	fcc10c23          	sb	a2,-40(sp)

000000008000abc4 <i_10611>:
    8000abc4:	fd611e03          	lh	t3,-42(sp)

000000008000abc8 <i_10612>:
    8000abc8:	00000013          	nop

000000008000abcc <i_10613>:
    8000abcc:	7c700613          	li	a2,1991

000000008000abd0 <i_10614>:
    8000abd0:	7d100d13          	li	s10,2001

000000008000abd4 <i_10615>:
    8000abd4:	01500a93          	li	s5,21

000000008000abd8 <i_10616>:
    8000abd8:	415e5f3b          	sraw	t5,t3,s5

000000008000abdc <i_10617>:
    8000abdc:	00000013          	nop

000000008000abe0 <i_10618>:
    8000abe0:	00000013          	nop

000000008000abe4 <i_10619>:
    8000abe4:	00c2b333          	sltu	t1,t0,a2

000000008000abe8 <i_10620>:
    8000abe8:	03913823          	sd	s9,48(sp)

000000008000abec <i_10621>:
    8000abec:	00160613          	addi	a2,a2,1
    8000abf0:	fecd52e3          	ble	a2,s10,8000abd4 <i_10615>

000000008000abf4 <i_10622>:
    8000abf4:	f2610723          	sb	t1,-210(sp)

000000008000abf8 <i_10623>:
    8000abf8:	02c88063          	beq	a7,a2,8000ac18 <i_10631>

000000008000abfc <i_10624>:
    8000abfc:	a84abc93          	sltiu	s9,s5,-1404

000000008000ac00 <i_10625>:
    8000ac00:	037c861b          	addiw	a2,s9,55

000000008000ac04 <i_10626>:
    8000ac04:	f6b106a3          	sb	a1,-147(sp)

000000008000ac08 <i_10627>:
    8000ac08:	fee15483          	lhu	s1,-18(sp)

000000008000ac0c <i_10628>:
    8000ac0c:	002cd493          	srli	s1,s9,0x2

000000008000ac10 <i_10629>:
    8000ac10:	039a1a33          	mulh	s4,s4,s9

000000008000ac14 <i_10630>:
    8000ac14:	0034d493          	srli	s1,s1,0x3

000000008000ac18 <i_10631>:
    8000ac18:	ed013d83          	ld	s11,-304(sp)

000000008000ac1c <i_10632>:
    8000ac1c:	0a416183          	lwu	gp,164(sp)

000000008000ac20 <i_10633>:
    8000ac20:	81f00c93          	li	s9,-2017

000000008000ac24 <i_10634>:
    8000ac24:	82e00a93          	li	s5,-2002

000000008000ac28 <i_10635>:
    8000ac28:	41bd8db3          	sub	s11,s11,s11

000000008000ac2c <i_10636>:
    8000ac2c:	001c8c93          	addi	s9,s9,1
    8000ac30:	ff9adce3          	ble	s9,s5,8000ac28 <i_10635>

000000008000ac34 <i_10637>:
    8000ac34:	015abab3          	sltu	s5,s5,s5

000000008000ac38 <i_10638>:
    8000ac38:	eea11d83          	lh	s11,-278(sp)

000000008000ac3c <i_10639>:
    8000ac3c:	98332f93          	slti	t6,t1,-1661

000000008000ac40 <i_10640>:
    8000ac40:	03badcb3          	divu	s9,s5,s11

000000008000ac44 <i_10641>:
    8000ac44:	13813983          	ld	s3,312(sp)

000000008000ac48 <i_10642>:
    8000ac48:	e4e14c83          	lbu	s9,-434(sp)

000000008000ac4c <i_10643>:
    8000ac4c:	01400f13          	li	t5,20

000000008000ac50 <i_10644>:
    8000ac50:	41eddf33          	sra	t5,s11,t5

000000008000ac54 <i_10645>:
    8000ac54:	2781e193          	ori	gp,gp,632

000000008000ac58 <i_10646>:
    8000ac58:	023dcb3b          	divw	s6,s11,gp

000000008000ac5c <i_10647>:
    8000ac5c:	01298c33          	add	s8,s3,s2

000000008000ac60 <i_10648>:
    8000ac60:	ffe10523          	sb	t5,-22(sp)

000000008000ac64 <i_10649>:
    8000ac64:	008aad33          	slt	s10,s5,s0

000000008000ac68 <i_10650>:
    8000ac68:	e5a15083          	lhu	ra,-422(sp)

000000008000ac6c <i_10651>:
    8000ac6c:	e7e108a3          	sb	t5,-399(sp)

000000008000ac70 <i_10652>:
    8000ac70:	0350fabb          	remuw	s5,ra,s5

000000008000ac74 <i_10653>:
    8000ac74:	eb511b23          	sh	s5,-330(sp)

000000008000ac78 <i_10654>:
    8000ac78:	401ada9b          	sraiw	s5,s5,0x1

000000008000ac7c <i_10655>:
    8000ac7c:	021a8063          	beq	s5,ra,8000ac9c <i_10663>

000000008000ac80 <i_10656>:
    8000ac80:	11311423          	sh	s3,264(sp)

000000008000ac84 <i_10657>:
    8000ac84:	001bf863          	bleu	ra,s7,8000ac94 <i_10661>

000000008000ac88 <i_10658>:
    8000ac88:	015a8bb3          	add	s7,s5,s5

000000008000ac8c <i_10659>:
    8000ac8c:	0c415b83          	lhu	s7,196(sp)

000000008000ac90 <i_10660>:
    8000ac90:	5aeafb93          	andi	s7,s5,1454

000000008000ac94 <i_10661>:
    8000ac94:	04e11703          	lh	a4,78(sp)

000000008000ac98 <i_10662>:
    8000ac98:	00d2f2b3          	and	t0,t0,a3

000000008000ac9c <i_10663>:
    8000ac9c:	19712623          	sw	s7,396(sp)

000000008000aca0 <i_10664>:
    8000aca0:	5b98f2b7          	lui	t0,0x5b98f

000000008000aca4 <i_10665>:
    8000aca4:	87a00a93          	li	s5,-1926

000000008000aca8 <i_10666>:
    8000aca8:	88c00d13          	li	s10,-1908

000000008000acac <i_10667>:
    8000acac:	00512e23          	sw	t0,28(sp)

000000008000acb0 <i_10668>:
    8000acb0:	0250c2bb          	divw	t0,ra,t0

000000008000acb4 <i_10669>:
    8000acb4:	f8911a23          	sh	s1,-108(sp)

000000008000acb8 <i_10670>:
    8000acb8:	6c993297          	auipc	t0,0x6c993

000000008000acbc <i_10671>:
    8000acbc:	0012d513          	srli	a0,t0,0x1

000000008000acc0 <i_10672>:
    8000acc0:	001a8a93          	addi	s5,s5,1
    8000acc4:	ff5d54e3          	ble	s5,s10,8000acac <i_10667>

000000008000acc8 <i_10673>:
    8000acc8:	fc614503          	lbu	a0,-58(sp)

000000008000accc <i_10674>:
    8000accc:	02aac43b          	divw	s0,s5,a0

000000008000acd0 <i_10675>:
    8000acd0:	02e15d03          	lhu	s10,46(sp)

000000008000acd4 <i_10676>:
    8000acd4:	f3012503          	lw	a0,-208(sp)

000000008000acd8 <i_10677>:
    8000acd8:	fc314203          	lbu	tp,-61(sp)

000000008000acdc <i_10678>:
    8000acdc:	01c6da63          	ble	t3,a3,8000acf0 <i_10683>

000000008000ace0 <i_10679>:
    8000ace0:	01f56263          	bltu	a0,t6,8000ace4 <i_10680>

000000008000ace4 <i_10680>:
    8000ace4:	1e416a03          	lwu	s4,484(sp)

000000008000ace8 <i_10681>:
    8000ace8:	ef211b83          	lh	s7,-270(sp)

000000008000acec <i_10682>:
    8000acec:	00fd0f33          	add	t5,s10,a5

000000008000acf0 <i_10683>:
    8000acf0:	1c4106a3          	sb	tp,461(sp)

000000008000acf4 <i_10684>:
    8000acf4:	09412623          	sw	s4,140(sp)

000000008000acf8 <i_10685>:
    8000acf8:	01e54263          	blt	a0,t5,8000acfc <i_10686>

000000008000acfc <i_10686>:
    8000acfc:	00454ab3          	xor	s5,a0,tp

000000008000ad00 <i_10687>:
    8000ad00:	0344743b          	remuw	s0,s0,s4

000000008000ad04 <i_10688>:
    8000ad04:	004d1d1b          	slliw	s10,s10,0x4

000000008000ad08 <i_10689>:
    8000ad08:	03755733          	divu	a4,a0,s7

000000008000ad0c <i_10690>:
    8000ad0c:	03a50f33          	mul	t5,a0,s10

000000008000ad10 <i_10691>:
    8000ad10:	01a15f03          	lhu	t5,26(sp)

000000008000ad14 <i_10692>:
    8000ad14:	034bed33          	rem	s10,s7,s4

000000008000ad18 <i_10693>:
    8000ad18:	035ad063          	ble	s5,s5,8000ad38 <i_10701>

000000008000ad1c <i_10694>:
    8000ad1c:	015a5663          	ble	s5,s4,8000ad28 <i_10697>

000000008000ad20 <i_10695>:
    8000ad20:	e3614e03          	lbu	t3,-458(sp)

000000008000ad24 <i_10696>:
    8000ad24:	97caad93          	slti	s11,s5,-1668

000000008000ad28 <i_10697>:
    8000ad28:	01e2fe63          	bleu	t5,t0,8000ad44 <i_10704>

000000008000ad2c <i_10698>:
    8000ad2c:	fb813283          	ld	t0,-72(sp)

000000008000ad30 <i_10699>:
    8000ad30:	003dd81b          	srliw	a6,s11,0x3

000000008000ad34 <i_10700>:
    8000ad34:	fa412623          	sw	tp,-84(sp)

000000008000ad38 <i_10701>:
    8000ad38:	a9cdbd93          	sltiu	s11,s11,-1380

000000008000ad3c <i_10702>:
    8000ad3c:	7363fd97          	auipc	s11,0x7363f

000000008000ad40 <i_10703>:
    8000ad40:	0211f1b3          	remu	gp,gp,ra

000000008000ad44 <i_10704>:
    8000ad44:	1e1101a3          	sb	ra,483(sp)

000000008000ad48 <i_10705>:
    8000ad48:	021dfdbb          	remuw	s11,s11,ra

000000008000ad4c <i_10706>:
    8000ad4c:	7dc00813          	li	a6,2012

000000008000ad50 <i_10707>:
    8000ad50:	7ef00093          	li	ra,2031

000000008000ad54 <i_10708>:
    8000ad54:	001d8463          	beq	s11,ra,8000ad5c <i_10710>

000000008000ad58 <i_10709>:
    8000ad58:	e7b11823          	sh	s11,-400(sp)

000000008000ad5c <i_10710>:
    8000ad5c:	01b0f663          	bleu	s11,ra,8000ad68 <i_10713>

000000008000ad60 <i_10711>:
    8000ad60:	01bdfdb3          	and	s11,s11,s11

000000008000ad64 <i_10712>:
    8000ad64:	1c313823          	sd	gp,464(sp)

000000008000ad68 <i_10713>:
    8000ad68:	f7c15503          	lhu	a0,-132(sp)

000000008000ad6c <i_10714>:
    8000ad6c:	0c813e03          	ld	t3,200(sp)

000000008000ad70 <i_10715>:
    8000ad70:	e3013e83          	ld	t4,-464(sp)

000000008000ad74 <i_10716>:
    8000ad74:	e3816183          	lwu	gp,-456(sp)

000000008000ad78 <i_10717>:
    8000ad78:	403e8e33          	sub	t3,t4,gp

000000008000ad7c <i_10718>:
    8000ad7c:	f16cbcb7          	lui	s9,0xf16cb

000000008000ad80 <i_10719>:
    8000ad80:	0f012403          	lw	s0,240(sp)

000000008000ad84 <i_10720>:
    8000ad84:	00180813          	addi	a6,a6,1
    8000ad88:	fc1846e3          	blt	a6,ra,8000ad54 <i_10708>

000000008000ad8c <i_10721>:
    8000ad8c:	10011983          	lh	s3,256(sp)

000000008000ad90 <i_10722>:
    8000ad90:	e3312e23          	sw	s3,-452(sp)

000000008000ad94 <i_10723>:
    8000ad94:	0199fc63          	bleu	s9,s3,8000adac <i_10729>

000000008000ad98 <i_10724>:
    8000ad98:	0b313823          	sd	s3,176(sp)

000000008000ad9c <i_10725>:
    8000ad9c:	18816c83          	lwu	s9,392(sp)

000000008000ada0 <i_10726>:
    8000ada0:	00000013          	nop

000000008000ada4 <i_10727>:
    8000ada4:	fd912623          	sw	s9,-52(sp)

000000008000ada8 <i_10728>:
    8000ada8:	01e00c93          	li	s9,30

000000008000adac <i_10729>:
    8000adac:	01999ebb          	sllw	t4,s3,s9

000000008000adb0 <i_10730>:
    8000adb0:	00000013          	nop

000000008000adb4 <i_10731>:
    8000adb4:	82100d93          	li	s11,-2015

000000008000adb8 <i_10732>:
    8000adb8:	82a00993          	li	s3,-2006

000000008000adbc <i_10733>:
    8000adbc:	03dc8063          	beq	s9,t4,8000addc <i_10740>

000000008000adc0 <i_10734>:
    8000adc0:	001d8d93          	addi	s11,s11,1 # f3649d3d <_end+0x73639929>
    8000adc4:	ffb9fce3          	bleu	s11,s3,8000adbc <i_10733>

000000008000adc8 <i_10735>:
    8000adc8:	557e2e13          	slti	t3,t3,1367

000000008000adcc <i_10736>:
    8000adcc:	01bce463          	bltu	s9,s11,8000add4 <i_10738>

000000008000add0 <i_10737>:
    8000add0:	e8314503          	lbu	a0,-381(sp)

000000008000add4 <i_10738>:
    8000add4:	02a885b3          	mul	a1,a7,a0

000000008000add8 <i_10739>:
    8000add8:	e4416e83          	lwu	t4,-444(sp)

000000008000addc <i_10740>:
    8000addc:	e4415e03          	lhu	t3,-444(sp)

000000008000ade0 <i_10741>:
    8000ade0:	f2b10823          	sb	a1,-208(sp)

000000008000ade4 <i_10742>:
    8000ade4:	f2b12423          	sw	a1,-216(sp)

000000008000ade8 <i_10743>:
    8000ade8:	02b525b3          	mulhsu	a1,a0,a1

000000008000adec <i_10744>:
    8000adec:	02a57063          	bleu	a0,a0,8000ae0c <i_10752>

000000008000adf0 <i_10745>:
    8000adf0:	02a5e063          	bltu	a1,a0,8000ae10 <i_10753>

000000008000adf4 <i_10746>:
    8000adf4:	02a0d0b3          	divu	ra,ra,a0

000000008000adf8 <i_10747>:
    8000adf8:	00416503          	lwu	a0,4(sp)

000000008000adfc <i_10748>:
    8000adfc:	e8b13423          	sd	a1,-376(sp)

000000008000ae00 <i_10749>:
    8000ae00:	00a0f0b3          	and	ra,ra,a0

000000008000ae04 <i_10750>:
    8000ae04:	14710483          	lb	s1,327(sp)

000000008000ae08 <i_10751>:
    8000ae08:	f6913823          	sd	s1,-144(sp)

000000008000ae0c <i_10752>:
    8000ae0c:	18114c83          	lbu	s9,385(sp)

000000008000ae10 <i_10753>:
    8000ae10:	e3e11d83          	lh	s11,-450(sp)

000000008000ae14 <i_10754>:
    8000ae14:	00000013          	nop

000000008000ae18 <i_10755>:
    8000ae18:	7b000793          	li	a5,1968

000000008000ae1c <i_10756>:
    8000ae1c:	7bc00093          	li	ra,1980

000000008000ae20 <i_10757>:
    8000ae20:	07b11123          	sh	s11,98(sp)

000000008000ae24 <i_10758>:
    8000ae24:	01013f83          	ld	t6,16(sp)

000000008000ae28 <i_10759>:
    8000ae28:	039dbab3          	mulhu	s5,s11,s9

000000008000ae2c <i_10760>:
    8000ae2c:	0d813c83          	ld	s9,216(sp)

000000008000ae30 <i_10761>:
    8000ae30:	035dcdb3          	div	s11,s11,s5

000000008000ae34 <i_10762>:
    8000ae34:	6162f993          	andi	s3,t0,1558

000000008000ae38 <i_10763>:
    8000ae38:	00178793          	addi	a5,a5,1
    8000ae3c:	fe17e2e3          	bltu	a5,ra,8000ae20 <i_10757>

000000008000ae40 <i_10764>:
    8000ae40:	031fe333          	rem	t1,t6,a7

000000008000ae44 <i_10765>:
    8000ae44:	77d3029b          	addiw	t0,t1,1917

000000008000ae48 <i_10766>:
    8000ae48:	e3e11503          	lh	a0,-450(sp)

000000008000ae4c <i_10767>:
    8000ae4c:	83800693          	li	a3,-1992

000000008000ae50 <i_10768>:
    8000ae50:	84200a13          	li	s4,-1982

000000008000ae54 <i_10769>:
    8000ae54:	00168693          	addi	a3,a3,1
    8000ae58:	ff469ee3          	bne	a3,s4,8000ae54 <i_10769>

000000008000ae5c <i_10770>:
    8000ae5c:	03f6563b          	divuw	a2,a2,t6

000000008000ae60 <i_10771>:
    8000ae60:	034cd063          	ble	s4,s9,8000ae80 <i_10779>

000000008000ae64 <i_10772>:
    8000ae64:	405f8c33          	sub	s8,t6,t0

000000008000ae68 <i_10773>:
    8000ae68:	033d59bb          	divuw	s3,s10,s3

000000008000ae6c <i_10774>:
    8000ae6c:	01358263          	beq	a1,s3,8000ae70 <i_10775>

000000008000ae70 <i_10775>:
    8000ae70:	01e98f33          	add	t5,s3,t5

000000008000ae74 <i_10776>:
    8000ae74:	ed310f23          	sb	s3,-290(sp)

000000008000ae78 <i_10777>:
    8000ae78:	01e99663          	bne	s3,t5,8000ae84 <i_10780>

000000008000ae7c <i_10778>:
    8000ae7c:	0b8101a3          	sb	s8,163(sp)

000000008000ae80 <i_10779>:
    8000ae80:	03adc463          	blt	s11,s10,8000aea8 <i_10789>

000000008000ae84 <i_10780>:
    8000ae84:	b5bd4993          	xori	s3,s10,-1189

000000008000ae88 <i_10781>:
    8000ae88:	00674733          	xor	a4,a4,t1

000000008000ae8c <i_10782>:
    8000ae8c:	41388fb3          	sub	t6,a7,s3

000000008000ae90 <i_10783>:
    8000ae90:	00000013          	nop

000000008000ae94 <i_10784>:
    8000ae94:	00000013          	nop

000000008000ae98 <i_10785>:
    8000ae98:	ff2c4c13          	xori	s8,s8,-14

000000008000ae9c <i_10786>:
    8000ae9c:	401c5393          	srai	t2,s8,0x1

000000008000aea0 <i_10787>:
    8000aea0:	00000013          	nop

000000008000aea4 <i_10788>:
    8000aea4:	01400693          	li	a3,20

000000008000aea8 <i_10789>:
    8000aea8:	00d8dfbb          	srlw	t6,a7,a3

000000008000aeac <i_10790>:
    8000aeac:	03f12c23          	sw	t6,56(sp)

000000008000aeb0 <i_10791>:
    8000aeb0:	82e00893          	li	a7,-2002

000000008000aeb4 <i_10792>:
    8000aeb4:	83900713          	li	a4,-1991

000000008000aeb8 <i_10793>:
    8000aeb8:	01f75663          	ble	t6,a4,8000aec4 <i_10796>

000000008000aebc <i_10794>:
    8000aebc:	15813683          	ld	a3,344(sp)

000000008000aec0 <i_10795>:
    8000aec0:	6da6bf13          	sltiu	t5,a3,1754

000000008000aec4 <i_10796>:
    8000aec4:	ed811523          	sh	s8,-310(sp)

000000008000aec8 <i_10797>:
    8000aec8:	19c11683          	lh	a3,412(sp)

000000008000aecc <i_10798>:
    8000aecc:	0275f463          	bleu	t2,a1,8000aef4 <i_10807>

000000008000aed0 <i_10799>:
    8000aed0:	efe101a3          	sb	t5,-285(sp)

000000008000aed4 <i_10800>:
    8000aed4:	00188893          	addi	a7,a7,1
    8000aed8:	fee8e0e3          	bltu	a7,a4,8000aeb8 <i_10793>

000000008000aedc <i_10801>:
    8000aedc:	f9e15f83          	lhu	t6,-98(sp)

000000008000aee0 <i_10802>:
    8000aee0:	01fc1e63          	bne	s8,t6,8000aefc <i_10809>

000000008000aee4 <i_10803>:
    8000aee4:	002d5d1b          	srliw	s10,s10,0x2

000000008000aee8 <i_10804>:
    8000aee8:	01cd0833          	add	a6,s10,t3

000000008000aeec <i_10805>:
    8000aeec:	12813f83          	ld	t6,296(sp)

000000008000aef0 <i_10806>:
    8000aef0:	0ba13c23          	sd	s10,184(sp)

000000008000aef4 <i_10807>:
    8000aef4:	15416b83          	lwu	s7,340(sp)

000000008000aef8 <i_10808>:
    8000aef8:	13e11883          	lh	a7,318(sp)

000000008000aefc <i_10809>:
    8000aefc:	018b9463          	bne	s7,s8,8000af04 <i_10811>

000000008000af00 <i_10810>:
    8000af00:	030a88b3          	mul	a7,s5,a6

000000008000af04 <i_10811>:
    8000af04:	15010123          	sb	a6,322(sp)

000000008000af08 <i_10812>:
    8000af08:	01f85463          	ble	t6,a6,8000af10 <i_10814>

000000008000af0c <i_10813>:
    8000af0c:	03ab7a33          	remu	s4,s6,s10

000000008000af10 <i_10814>:
    8000af10:	f4813a03          	ld	s4,-184(sp)

000000008000af14 <i_10815>:
    8000af14:	ea714903          	lbu	s2,-345(sp)

000000008000af18 <i_10816>:
    8000af18:	0b112823          	sw	a7,176(sp)

000000008000af1c <i_10817>:
    8000af1c:	012f8e63          	beq	t6,s2,8000af38 <i_10824>

000000008000af20 <i_10818>:
    8000af20:	00190933          	add	s2,s2,ra

000000008000af24 <i_10819>:
    8000af24:	01fa4863          	blt	s4,t6,8000af34 <i_10823>

000000008000af28 <i_10820>:
    8000af28:	03482a33          	mulhsu	s4,a6,s4

000000008000af2c <i_10821>:
    8000af2c:	0284043b          	mulw	s0,s0,s0

000000008000af30 <i_10822>:
    8000af30:	4012591b          	sraiw	s2,tp,0x1

000000008000af34 <i_10823>:
    8000af34:	fff14c03          	lbu	s8,-1(sp)

000000008000af38 <i_10824>:
    8000af38:	028c42b3          	div	t0,s8,s0

000000008000af3c <i_10825>:
    8000af3c:	00000013          	nop

000000008000af40 <i_10826>:
    8000af40:	84400a13          	li	s4,-1980

000000008000af44 <i_10827>:
    8000af44:	84800f93          	li	t6,-1976

000000008000af48 <i_10828>:
    8000af48:	00000013          	nop

000000008000af4c <i_10829>:
    8000af4c:	03826263          	bltu	tp,s8,8000af70 <i_10837>

000000008000af50 <i_10830>:
    8000af50:	001a0a13          	addi	s4,s4,1
    8000af54:	ff4ffae3          	bleu	s4,t6,8000af48 <i_10828>

000000008000af58 <i_10831>:
    8000af58:	e1711f23          	sh	s7,-482(sp)

000000008000af5c <i_10832>:
    8000af5c:	03f2f433          	remu	s0,t0,t6

000000008000af60 <i_10833>:
    8000af60:	00499c63          	bne	s3,tp,8000af78 <i_10839>

000000008000af64 <i_10834>:
    8000af64:	06411423          	sh	tp,104(sp)

000000008000af68 <i_10835>:
    8000af68:	0b813823          	sd	s8,176(sp)

000000008000af6c <i_10836>:
    8000af6c:	f9016983          	lwu	s3,-112(sp)

000000008000af70 <i_10837>:
    8000af70:	e7013903          	ld	s2,-400(sp)

000000008000af74 <i_10838>:
    8000af74:	9949c213          	xori	tp,s3,-1644

000000008000af78 <i_10839>:
    8000af78:	00e00613          	li	a2,14

000000008000af7c <i_10840>:
    8000af7c:	00c291bb          	sllw	gp,t0,a2

000000008000af80 <i_10841>:
    8000af80:	fe310b03          	lb	s6,-29(sp)

000000008000af84 <i_10842>:
    8000af84:	0f213823          	sd	s2,240(sp)

000000008000af88 <i_10843>:
    8000af88:	1d513423          	sd	s5,456(sp)

000000008000af8c <i_10844>:
    8000af8c:	fe913023          	sd	s1,-32(sp)

000000008000af90 <i_10845>:
    8000af90:	fd412b03          	lw	s6,-44(sp)

000000008000af94 <i_10846>:
    8000af94:	10013d83          	ld	s11,256(sp)

000000008000af98 <i_10847>:
    8000af98:	ee412423          	sw	tp,-280(sp)

000000008000af9c <i_10848>:
    8000af9c:	08c16b03          	lwu	s6,140(sp)

000000008000afa0 <i_10849>:
    8000afa0:	0364f23b          	remuw	tp,s1,s6

000000008000afa4 <i_10850>:
    8000afa4:	01ef0b33          	add	s6,t5,t5

000000008000afa8 <i_10851>:
    8000afa8:	18816603          	lwu	a2,392(sp)

000000008000afac <i_10852>:
    8000afac:	15013b03          	ld	s6,336(sp)

000000008000afb0 <i_10853>:
    8000afb0:	07613823          	sd	s6,112(sp)

000000008000afb4 <i_10854>:
    8000afb4:	f8c14f03          	lbu	t5,-116(sp)

000000008000afb8 <i_10855>:
    8000afb8:	04c11c23          	sh	a2,88(sp)

000000008000afbc <i_10856>:
    8000afbc:	18c11423          	sh	a2,392(sp)

000000008000afc0 <i_10857>:
    8000afc0:	88e6061b          	addiw	a2,a2,-1906

000000008000afc4 <i_10858>:
    8000afc4:	fbb10023          	sb	s11,-96(sp)

000000008000afc8 <i_10859>:
    8000afc8:	ed215603          	lhu	a2,-302(sp)

000000008000afcc <i_10860>:
    8000afcc:	e9012f83          	lw	t6,-368(sp)

000000008000afd0 <i_10861>:
    8000afd0:	1b012283          	lw	t0,432(sp)

000000008000afd4 <i_10862>:
    8000afd4:	005a7ab3          	and	s5,s4,t0

000000008000afd8 <i_10863>:
    8000afd8:	00ea8733          	add	a4,s5,a4

000000008000afdc <i_10864>:
    8000afdc:	02560cb3          	mul	s9,a2,t0

000000008000afe0 <i_10865>:
    8000afe0:	f4c108a3          	sb	a2,-175(sp)

000000008000afe4 <i_10866>:
    8000afe4:	f1016d03          	lwu	s10,-240(sp)

000000008000afe8 <i_10867>:
    8000afe8:	0352c83b          	divw	a6,t0,s5

000000008000afec <i_10868>:
    8000afec:	e5411903          	lh	s2,-428(sp)

000000008000aff0 <i_10869>:
    8000aff0:	40185a9b          	sraiw	s5,a6,0x1

000000008000aff4 <i_10870>:
    8000aff4:	035d453b          	divw	a0,s10,s5

000000008000aff8 <i_10871>:
    8000aff8:	01294263          	blt	s2,s2,8000affc <i_10872>

000000008000affc <i_10872>:
    8000affc:	02311823          	sh	gp,48(sp)

000000008000b000 <i_10873>:
    8000b000:	03294463          	blt	s2,s2,8000b028 <i_10883>

000000008000b004 <i_10874>:
    8000b004:	02a51063          	bne	a0,a0,8000b024 <i_10882>

000000008000b008 <i_10875>:
    8000b008:	eb010823          	sb	a6,-336(sp)

000000008000b00c <i_10876>:
    8000b00c:	01055663          	ble	a6,a0,8000b018 <i_10879>

000000008000b010 <i_10877>:
    8000b010:	e4213423          	sd	sp,-440(sp)

000000008000b014 <i_10878>:
    8000b014:	01081263          	bne	a6,a6,8000b018 <i_10879>

000000008000b018 <i_10879>:
    8000b018:	1e016983          	lwu	s3,480(sp)

000000008000b01c <i_10880>:
    8000b01c:	14c12803          	lw	a6,332(sp)

000000008000b020 <i_10881>:
    8000b020:	1b714803          	lbu	a6,439(sp)

000000008000b024 <i_10882>:
    8000b024:	0308783b          	remuw	a6,a6,a6

000000008000b028 <i_10883>:
    8000b028:	f7594c13          	xori	s8,s2,-139

000000008000b02c <i_10884>:
    8000b02c:	f2012383          	lw	t2,-224(sp)

000000008000b030 <i_10885>:
    8000b030:	02710923          	sb	t2,50(sp)

000000008000b034 <i_10886>:
    8000b034:	e1a15683          	lhu	a3,-486(sp)

000000008000b038 <i_10887>:
    8000b038:	97d96693          	ori	a3,s2,-1667

000000008000b03c <i_10888>:
    8000b03c:	03ac2c33          	mulhsu	s8,s8,s10

000000008000b040 <i_10889>:
    8000b040:	f2215383          	lhu	t2,-222(sp)

000000008000b044 <i_10890>:
    8000b044:	02d6b3b3          	mulhu	t2,a3,a3

000000008000b048 <i_10891>:
    8000b048:	03aab0b3          	mulhu	ra,s5,s10

000000008000b04c <i_10892>:
    8000b04c:	027d1933          	mulh	s2,s10,t2

000000008000b050 <i_10893>:
    8000b050:	7a800d13          	li	s10,1960

000000008000b054 <i_10894>:
    8000b054:	7b200393          	li	t2,1970

000000008000b058 <i_10895>:
    8000b058:	0c711a23          	sh	t2,212(sp)

000000008000b05c <i_10896>:
    8000b05c:	027e5e3b          	divuw	t3,t3,t2

000000008000b060 <i_10897>:
    8000b060:	01300e13          	li	t3,19

000000008000b064 <i_10898>:
    8000b064:	01ce5e3b          	srlw	t3,t3,t3

000000008000b068 <i_10899>:
    8000b068:	e7410903          	lb	s2,-396(sp)

000000008000b06c <i_10900>:
    8000b06c:	2f886293          	ori	t0,a6,760

000000008000b070 <i_10901>:
    8000b070:	f4614e03          	lbu	t3,-186(sp)

000000008000b074 <i_10902>:
    8000b074:	01013303          	ld	t1,16(sp)

000000008000b078 <i_10903>:
    8000b078:	f2510823          	sb	t0,-208(sp)

000000008000b07c <i_10904>:
    8000b07c:	026375b3          	remu	a1,t1,t1

000000008000b080 <i_10905>:
    8000b080:	fe013183          	ld	gp,-32(sp)

000000008000b084 <i_10906>:
    8000b084:	13615403          	lhu	s0,310(sp)

000000008000b088 <i_10907>:
    8000b088:	00000013          	nop

000000008000b08c <i_10908>:
    8000b08c:	001d0d13          	addi	s10,s10,1
    8000b090:	fc7d44e3          	blt	s10,t2,8000b058 <i_10895>

000000008000b094 <i_10909>:
    8000b094:	0035fe63          	bleu	gp,a1,8000b0b0 <i_10916>

000000008000b098 <i_10910>:
    8000b098:	06214a83          	lbu	s5,98(sp)

000000008000b09c <i_10911>:
    8000b09c:	e6b10b23          	sb	a1,-394(sp)

000000008000b0a0 <i_10912>:
    8000b0a0:	00000013          	nop

000000008000b0a4 <i_10913>:
    8000b0a4:	02bbea3b          	remw	s4,s7,a1

000000008000b0a8 <i_10914>:
    8000b0a8:	00848a33          	add	s4,s1,s0

000000008000b0ac <i_10915>:
    8000b0ac:	002a9413          	slli	s0,s5,0x2

000000008000b0b0 <i_10916>:
    8000b0b0:	0045d693          	srli	a3,a1,0x4

000000008000b0b4 <i_10917>:
    8000b0b4:	00000013          	nop

000000008000b0b8 <i_10918>:
    8000b0b8:	76000593          	li	a1,1888

000000008000b0bc <i_10919>:
    8000b0bc:	76f00393          	li	t2,1903

000000008000b0c0 <i_10920>:
    8000b0c0:	00000013          	nop

000000008000b0c4 <i_10921>:
    8000b0c4:	e6711b23          	sh	t2,-394(sp)

000000008000b0c8 <i_10922>:
    8000b0c8:	14813c23          	sd	s0,344(sp)

000000008000b0cc <i_10923>:
    8000b0cc:	00158593          	addi	a1,a1,1
    8000b0d0:	feb3d8e3          	ble	a1,t2,8000b0c0 <i_10920>

000000008000b0d4 <i_10924>:
    8000b0d4:	f9f12a23          	sw	t6,-108(sp)

000000008000b0d8 <i_10925>:
    8000b0d8:	a7358613          	addi	a2,a1,-1421

000000008000b0dc <i_10926>:
    8000b0dc:	14816603          	lwu	a2,328(sp)

000000008000b0e0 <i_10927>:
    8000b0e0:	030e2e33          	mulhsu	t3,t3,a6

000000008000b0e4 <i_10928>:
    8000b0e4:	f9013383          	ld	t2,-112(sp)

000000008000b0e8 <i_10929>:
    8000b0e8:	01b2d463          	ble	s11,t0,8000b0f0 <i_10931>

000000008000b0ec <i_10930>:
    8000b0ec:	00000013          	nop

000000008000b0f0 <i_10931>:
    8000b0f0:	0a815e03          	lhu	t3,168(sp)

000000008000b0f4 <i_10932>:
    8000b0f4:	0ea11d03          	lh	s10,234(sp)

000000008000b0f8 <i_10933>:
    8000b0f8:	85a00293          	li	t0,-1958

000000008000b0fc <i_10934>:
    8000b0fc:	86b00813          	li	a6,-1941

000000008000b100 <i_10935>:
    8000b100:	fa513023          	sd	t0,-96(sp)

000000008000b104 <i_10936>:
    8000b104:	2ef28b93          	addi	s7,t0,751 # ec99dfa7 <_end+0x6c98db93>

000000008000b108 <i_10937>:
    8000b108:	f6f10483          	lb	s1,-145(sp)

000000008000b10c <i_10938>:
    8000b10c:	03ae7cbb          	remuw	s9,t3,s10

000000008000b110 <i_10939>:
    8000b110:	010bc863          	blt	s7,a6,8000b120 <i_10943>

000000008000b114 <i_10940>:
    8000b114:	0ba15403          	lhu	s0,186(sp)

000000008000b118 <i_10941>:
    8000b118:	fd011d03          	lh	s10,-48(sp)

000000008000b11c <i_10942>:
    8000b11c:	0b415403          	lhu	s0,180(sp)

000000008000b120 <i_10943>:
    8000b120:	00000013          	nop

000000008000b124 <i_10944>:
    8000b124:	00000013          	nop

000000008000b128 <i_10945>:
    8000b128:	00128293          	addi	t0,t0,1
    8000b12c:	fd029ae3          	bne	t0,a6,8000b100 <i_10935>

000000008000b130 <i_10946>:
    8000b130:	02884ab3          	div	s5,a6,s0

000000008000b134 <i_10947>:
    8000b134:	7adabd13          	sltiu	s10,s5,1965

000000008000b138 <i_10948>:
    8000b138:	03847abb          	remuw	s5,s0,s8

000000008000b13c <i_10949>:
    8000b13c:	0ea11803          	lh	a6,234(sp)

000000008000b140 <i_10950>:
    8000b140:	f9215403          	lhu	s0,-110(sp)

000000008000b144 <i_10951>:
    8000b144:	00000013          	nop

000000008000b148 <i_10952>:
    8000b148:	7d300313          	li	t1,2003

000000008000b14c <i_10953>:
    8000b14c:	7db00813          	li	a6,2011

000000008000b150 <i_10954>:
    8000b150:	40285413          	srai	s0,a6,0x2

000000008000b154 <i_10955>:
    8000b154:	19a11c23          	sh	s10,408(sp)

000000008000b158 <i_10956>:
    8000b158:	00000013          	nop

000000008000b15c <i_10957>:
    8000b15c:	0e310083          	lb	ra,227(sp)

000000008000b160 <i_10958>:
    8000b160:	110100a3          	sb	a6,257(sp)

000000008000b164 <i_10959>:
    8000b164:	fc215883          	lhu	a7,-62(sp)

000000008000b168 <i_10960>:
    8000b168:	00130313          	addi	t1,t1,1
    8000b16c:	fe6852e3          	ble	t1,a6,8000b150 <i_10954>

000000008000b170 <i_10961>:
    8000b170:	00640433          	add	s0,s0,t1

000000008000b174 <i_10962>:
    8000b174:	1c112023          	sw	ra,448(sp)

000000008000b178 <i_10963>:
    8000b178:	eaa15a03          	lhu	s4,-342(sp)

000000008000b17c <i_10964>:
    8000b17c:	00a8c263          	blt	a7,a0,8000b180 <i_10965>

000000008000b180 <i_10965>:
    8000b180:	f5f14283          	lbu	t0,-161(sp)

000000008000b184 <i_10966>:
    8000b184:	402a531b          	sraiw	t1,s4,0x2

000000008000b188 <i_10967>:
    8000b188:	0de10a03          	lb	s4,222(sp)

000000008000b18c <i_10968>:
    8000b18c:	00ea5863          	ble	a4,s4,8000b19c <i_10972>

000000008000b190 <i_10969>:
    8000b190:	06910e23          	sb	s1,124(sp)

000000008000b194 <i_10970>:
    8000b194:	014a2a33          	slt	s4,s4,s4

000000008000b198 <i_10971>:
    8000b198:	005a0263          	beq	s4,t0,8000b19c <i_10972>

000000008000b19c <i_10972>:
    8000b19c:	1a013283          	ld	t0,416(sp)

000000008000b1a0 <i_10973>:
    8000b1a0:	f881ea13          	ori	s4,gp,-120

000000008000b1a4 <i_10974>:
    8000b1a4:	f6e14a03          	lbu	s4,-146(sp)

000000008000b1a8 <i_10975>:
    8000b1a8:	024a4e3b          	divw	t3,s4,tp

000000008000b1ac <i_10976>:
    8000b1ac:	0cc11a03          	lh	s4,204(sp)

000000008000b1b0 <i_10977>:
    8000b1b0:	002e1d13          	slli	s10,t3,0x2

000000008000b1b4 <i_10978>:
    8000b1b4:	e5411f23          	sh	s4,-418(sp)

000000008000b1b8 <i_10979>:
    8000b1b8:	00b11723          	sh	a1,14(sp)

000000008000b1bc <i_10980>:
    8000b1bc:	8a200413          	li	s0,-1886

000000008000b1c0 <i_10981>:
    8000b1c0:	8a500a13          	li	s4,-1883

000000008000b1c4 <i_10982>:
    8000b1c4:	fe512a23          	sw	t0,-12(sp)

000000008000b1c8 <i_10983>:
    8000b1c8:	00140413          	addi	s0,s0,1
    8000b1cc:	ff446ce3          	bltu	s0,s4,8000b1c4 <i_10982>

000000008000b1d0 <i_10984>:
    8000b1d0:	fb813403          	ld	s0,-72(sp)

000000008000b1d4 <i_10985>:
    8000b1d4:	ee813803          	ld	a6,-280(sp)

000000008000b1d8 <i_10986>:
    8000b1d8:	018d5c63          	ble	s8,s10,8000b1f0 <i_10992>

000000008000b1dc <i_10987>:
    8000b1dc:	eb314883          	lbu	a7,-333(sp)

000000008000b1e0 <i_10988>:
    8000b1e0:	01f00693          	li	a3,31

000000008000b1e4 <i_10989>:
    8000b1e4:	40d8dd3b          	sraw	s10,a7,a3

000000008000b1e8 <i_10990>:
    8000b1e8:	16d11123          	sh	a3,354(sp)

000000008000b1ec <i_10991>:
    8000b1ec:	00d6f663          	bleu	a3,a3,8000b1f8 <i_10994>

000000008000b1f0 <i_10992>:
    8000b1f0:	fb013803          	ld	a6,-80(sp)

000000008000b1f4 <i_10993>:
    8000b1f4:	00dd7eb3          	and	t4,s10,a3

000000008000b1f8 <i_10994>:
    8000b1f8:	f0615883          	lhu	a7,-250(sp)

000000008000b1fc <i_10995>:
    8000b1fc:	03189263          	bne	a7,a7,8000b220 <i_11004>

000000008000b200 <i_10996>:
    8000b200:	1bd13823          	sd	t4,432(sp)

000000008000b204 <i_10997>:
    8000b204:	03d80eb3          	mul	t4,a6,t4

000000008000b208 <i_10998>:
    8000b208:	03d36063          	bltu	t1,t4,8000b228 <i_11006>

000000008000b20c <i_10999>:
    8000b20c:	00360663          	beq	a2,gp,8000b218 <i_11002>

000000008000b210 <i_11000>:
    8000b210:	031edb3b          	divuw	s6,t4,a7

000000008000b214 <i_11001>:
    8000b214:	0d412883          	lw	a7,212(sp)

000000008000b218 <i_11002>:
    8000b218:	14b14683          	lbu	a3,331(sp)

000000008000b21c <i_11003>:
    8000b21c:	1d610223          	sb	s6,452(sp)

000000008000b220 <i_11004>:
    8000b220:	0336a9b3          	mulhsu	s3,a3,s3

000000008000b224 <i_11005>:
    8000b224:	18a14e83          	lbu	t4,394(sp)

000000008000b228 <i_11006>:
    8000b228:	1cd11923          	sh	a3,466(sp)

000000008000b22c <i_11007>:
    8000b22c:	e7d11323          	sh	t4,-410(sp)

000000008000b230 <i_11008>:
    8000b230:	001edf93          	srli	t6,t4,0x1

000000008000b234 <i_11009>:
    8000b234:	e9310b23          	sb	s3,-362(sp)

000000008000b238 <i_11010>:
    8000b238:	07012783          	lw	a5,112(sp)

000000008000b23c <i_11011>:
    8000b23c:	00c00693          	li	a3,12

000000008000b240 <i_11012>:
    8000b240:	40d7523b          	sraw	tp,a4,a3

000000008000b244 <i_11013>:
    8000b244:	038b423b          	divw	tp,s6,s8

000000008000b248 <i_11014>:
    8000b248:	1d811a83          	lh	s5,472(sp)

000000008000b24c <i_11015>:
    8000b24c:	030ac463          	blt	s5,a6,8000b274 <i_11025>

000000008000b250 <i_11016>:
    8000b250:	edc15c03          	lhu	s8,-292(sp)

000000008000b254 <i_11017>:
    8000b254:	404c5d1b          	sraiw	s10,s8,0x4

000000008000b258 <i_11018>:
    8000b258:	02db4063          	blt	s6,a3,8000b278 <i_11026>

000000008000b25c <i_11019>:
    8000b25c:	e6e14083          	lbu	ra,-402(sp)

000000008000b260 <i_11020>:
    8000b260:	1d014b83          	lbu	s7,464(sp)

000000008000b264 <i_11021>:
    8000b264:	11710ea3          	sb	s7,285(sp)

000000008000b268 <i_11022>:
    8000b268:	11013403          	ld	s0,272(sp)

000000008000b26c <i_11023>:
    8000b26c:	02b3f3bb          	remuw	t2,t2,a1

000000008000b270 <i_11024>:
    8000b270:	0e311523          	sh	gp,234(sp)

000000008000b274 <i_11025>:
    8000b274:	01abeeb3          	or	t4,s7,s10

000000008000b278 <i_11026>:
    8000b278:	f1510023          	sb	s5,-256(sp)

000000008000b27c <i_11027>:
    8000b27c:	e1816d03          	lwu	s10,-488(sp)

000000008000b280 <i_11028>:
    8000b280:	0033e0b3          	or	ra,t2,gp

000000008000b284 <i_11029>:
    8000b284:	0160c863          	blt	ra,s6,8000b294 <i_11033>

000000008000b288 <i_11030>:
    8000b288:	0e215a03          	lhu	s4,226(sp)

000000008000b28c <i_11031>:
    8000b28c:	d00b8e1b          	addiw	t3,s7,-768

000000008000b290 <i_11032>:
    8000b290:	01d11e23          	sh	t4,28(sp)

000000008000b294 <i_11033>:
    8000b294:	09011203          	lh	tp,144(sp)

000000008000b298 <i_11034>:
    8000b298:	00420e63          	beq	tp,tp,8000b2b4 <i_11041>

000000008000b29c <i_11035>:
    8000b29c:	f0816603          	lwu	a2,-248(sp)

000000008000b2a0 <i_11036>:
    8000b2a0:	0da12023          	sw	s10,192(sp)

000000008000b2a4 <i_11037>:
    8000b2a4:	05611d23          	sh	s6,90(sp)

000000008000b2a8 <i_11038>:
    8000b2a8:	0370e463          	bltu	ra,s7,8000b2d0 <i_11048>

000000008000b2ac <i_11039>:
    8000b2ac:	18acca37          	lui	s4,0x18acc

000000008000b2b0 <i_11040>:
    8000b2b0:	e2110023          	sb	ra,-480(sp)

000000008000b2b4 <i_11041>:
    8000b2b4:	004ed81b          	srliw	a6,t4,0x4

000000008000b2b8 <i_11042>:
    8000b2b8:	01eebe33          	sltu	t3,t4,t5

000000008000b2bc <i_11043>:
    8000b2bc:	0a412803          	lw	a6,164(sp)

000000008000b2c0 <i_11044>:
    8000b2c0:	10811803          	lh	a6,264(sp)

000000008000b2c4 <i_11045>:
    8000b2c4:	07c16083          	lwu	ra,124(sp)

000000008000b2c8 <i_11046>:
    8000b2c8:	e4113423          	sd	ra,-440(sp)

000000008000b2cc <i_11047>:
    8000b2cc:	ea711923          	sh	t2,-334(sp)

000000008000b2d0 <i_11048>:
    8000b2d0:	00185c63          	ble	ra,a6,8000b2e8 <i_11054>

000000008000b2d4 <i_11049>:
    8000b2d4:	f3412c83          	lw	s9,-204(sp)

000000008000b2d8 <i_11050>:
    8000b2d8:	10113423          	sd	ra,264(sp)

000000008000b2dc <i_11051>:
    8000b2dc:	f8615c83          	lhu	s9,-122(sp)

000000008000b2e0 <i_11052>:
    8000b2e0:	f8f10c23          	sb	a5,-104(sp)

000000008000b2e4 <i_11053>:
    8000b2e4:	04711a23          	sh	t2,84(sp)

000000008000b2e8 <i_11054>:
    8000b2e8:	039d72bb          	remuw	t0,s10,s9

000000008000b2ec <i_11055>:
    8000b2ec:	e4110523          	sb	ra,-438(sp)

000000008000b2f0 <i_11056>:
    8000b2f0:	8d000e93          	li	t4,-1840

000000008000b2f4 <i_11057>:
    8000b2f4:	8db00393          	li	t2,-1829

000000008000b2f8 <i_11058>:
    8000b2f8:	11e11183          	lh	gp,286(sp)

000000008000b2fc <i_11059>:
    8000b2fc:	00000013          	nop

000000008000b300 <i_11060>:
    8000b300:	87e00493          	li	s1,-1922

000000008000b304 <i_11061>:
    8000b304:	88b00093          	li	ra,-1909

000000008000b308 <i_11062>:
    8000b308:	00148493          	addi	s1,s1,1
    8000b30c:	fe14eee3          	bltu	s1,ra,8000b308 <i_11062>

000000008000b310 <i_11063>:
    8000b310:	404a5093          	srai	ra,s4,0x4

000000008000b314 <i_11064>:
    8000b314:	01013903          	ld	s2,16(sp)

000000008000b318 <i_11065>:
    8000b318:	001e8e93          	addi	t4,t4,1
    8000b31c:	fc7ecee3          	blt	t4,t2,8000b2f8 <i_11058>

000000008000b320 <i_11066>:
    8000b320:	fad108a3          	sb	a3,-79(sp)

000000008000b324 <i_11067>:
    8000b324:	e8013903          	ld	s2,-384(sp)

000000008000b328 <i_11068>:
    8000b328:	8cf00693          	li	a3,-1841

000000008000b32c <i_11069>:
    8000b32c:	8d900193          	li	gp,-1831

000000008000b330 <i_11070>:
    8000b330:	1c510503          	lb	a0,453(sp)

000000008000b334 <i_11071>:
    8000b334:	0ea12023          	sw	a0,224(sp)

000000008000b338 <i_11072>:
    8000b338:	00a55263          	ble	a0,a0,8000b33c <i_11073>

000000008000b33c <i_11073>:
    8000b33c:	01900513          	li	a0,25

000000008000b340 <i_11074>:
    8000b340:	00ae9ebb          	sllw	t4,t4,a0

000000008000b344 <i_11075>:
    8000b344:	00000013          	nop

000000008000b348 <i_11076>:
    8000b348:	13816703          	lwu	a4,312(sp)

000000008000b34c <i_11077>:
    8000b34c:	40485f1b          	sraiw	t5,a6,0x4

000000008000b350 <i_11078>:
    8000b350:	01812b83          	lw	s7,24(sp)

000000008000b354 <i_11079>:
    8000b354:	e7e12223          	sw	t5,-412(sp)

000000008000b358 <i_11080>:
    8000b358:	0e114803          	lbu	a6,225(sp)

000000008000b35c <i_11081>:
    8000b35c:	05013c23          	sd	a6,88(sp)

000000008000b360 <i_11082>:
    8000b360:	030b8f33          	mul	t5,s7,a6

000000008000b364 <i_11083>:
    8000b364:	f8412083          	lw	ra,-124(sp)

000000008000b368 <i_11084>:
    8000b368:	00000013          	nop

000000008000b36c <i_11085>:
    8000b36c:	00168693          	addi	a3,a3,1
    8000b370:	fc36c0e3          	blt	a3,gp,8000b330 <i_11070>

000000008000b374 <i_11086>:
    8000b374:	08a11583          	lh	a1,138(sp)

000000008000b378 <i_11087>:
    8000b378:	00b5f0b3          	and	ra,a1,a1

000000008000b37c <i_11088>:
    8000b37c:	f2111923          	sh	ra,-206(sp)

000000008000b380 <i_11089>:
    8000b380:	0210f5bb          	remuw	a1,ra,ra

000000008000b384 <i_11090>:
    8000b384:	f2110823          	sb	ra,-208(sp)

000000008000b388 <i_11091>:
    8000b388:	01209863          	bne	ra,s2,8000b398 <i_11095>

000000008000b38c <i_11092>:
    8000b38c:	00109a1b          	slliw	s4,ra,0x1

000000008000b390 <i_11093>:
    8000b390:	ec111323          	sh	ra,-314(sp)

000000008000b394 <i_11094>:
    8000b394:	e3213023          	sd	s2,-480(sp)

000000008000b398 <i_11095>:
    8000b398:	0349093b          	mulw	s2,s2,s4

000000008000b39c <i_11096>:
    8000b39c:	fc912623          	sw	s1,-52(sp)

000000008000b3a0 <i_11097>:
    8000b3a0:	f0410423          	sb	tp,-248(sp)

000000008000b3a4 <i_11098>:
    8000b3a4:	14a11403          	lh	s0,330(sp)

000000008000b3a8 <i_11099>:
    8000b3a8:	ec011503          	lh	a0,-320(sp)

000000008000b3ac <i_11100>:
    8000b3ac:	f6110603          	lb	a2,-159(sp)

000000008000b3b0 <i_11101>:
    8000b3b0:	00cb6c63          	bltu	s6,a2,8000b3c8 <i_11107>

000000008000b3b4 <i_11102>:
    8000b3b4:	e6e11903          	lh	s2,-402(sp)

000000008000b3b8 <i_11103>:
    8000b3b8:	1a211a23          	sh	sp,436(sp)

000000008000b3bc <i_11104>:
    8000b3bc:	f2c11d23          	sh	a2,-198(sp)

000000008000b3c0 <i_11105>:
    8000b3c0:	02c65633          	divu	a2,a2,a2

000000008000b3c4 <i_11106>:
    8000b3c4:	09c14b83          	lbu	s7,156(sp)

000000008000b3c8 <i_11107>:
    8000b3c8:	00000013          	nop

000000008000b3cc <i_11108>:
    8000b3cc:	02cbc633          	div	a2,s7,a2

000000008000b3d0 <i_11109>:
    8000b3d0:	78c00b13          	li	s6,1932

000000008000b3d4 <i_11110>:
    8000b3d4:	79200f13          	li	t5,1938

000000008000b3d8 <i_11111>:
    8000b3d8:	e0e12e23          	sw	a4,-484(sp)

000000008000b3dc <i_11112>:
    8000b3dc:	5d10c213          	xori	tp,ra,1489

000000008000b3e0 <i_11113>:
    8000b3e0:	001b0b13          	addi	s6,s6,1
    8000b3e4:	ffeb1ae3          	bne	s6,t5,8000b3d8 <i_11111>

000000008000b3e8 <i_11114>:
    8000b3e8:	eac13c23          	sd	a2,-328(sp)

000000008000b3ec <i_11115>:
    8000b3ec:	03f6563b          	divuw	a2,a2,t6

000000008000b3f0 <i_11116>:
    8000b3f0:	f4c13c23          	sd	a2,-168(sp)

000000008000b3f4 <i_11117>:
    8000b3f4:	f6413423          	sd	tp,-152(sp)

000000008000b3f8 <i_11118>:
    8000b3f8:	00361213          	slli	tp,a2,0x3

000000008000b3fc <i_11119>:
    8000b3fc:	e9813b83          	ld	s7,-360(sp)

000000008000b400 <i_11120>:
    8000b400:	f4412a23          	sw	tp,-172(sp)

000000008000b404 <i_11121>:
    8000b404:	00627463          	bleu	t1,tp,8000b40c <i_11123>

000000008000b408 <i_11122>:
    8000b408:	02cbe063          	bltu	s7,a2,8000b428 <i_11130>

000000008000b40c <i_11123>:
    8000b40c:	02c65063          	ble	a2,a2,8000b42c <i_11131>

000000008000b410 <i_11124>:
    8000b410:	00a20463          	beq	tp,a0,8000b418 <i_11126>

000000008000b414 <i_11125>:
    8000b414:	f8910d83          	lb	s11,-119(sp)

000000008000b418 <i_11126>:
    8000b418:	f7013603          	ld	a2,-144(sp)

000000008000b41c <i_11127>:
    8000b41c:	00c25463          	ble	a2,tp,8000b424 <i_11129>

000000008000b420 <i_11128>:
    8000b420:	00000013          	nop

000000008000b424 <i_11129>:
    8000b424:	faf14603          	lbu	a2,-81(sp)

000000008000b428 <i_11130>:
    8000b428:	01416603          	lwu	a2,20(sp)

000000008000b42c <i_11131>:
    8000b42c:	00000013          	nop

000000008000b430 <i_11132>:
    8000b430:	ff015f03          	lhu	t5,-16(sp)

000000008000b434 <i_11133>:
    8000b434:	74600393          	li	t2,1862

000000008000b438 <i_11134>:
    8000b438:	75600313          	li	t1,1878

000000008000b43c <i_11135>:
    8000b43c:	1d016d83          	lwu	s11,464(sp)

000000008000b440 <i_11136>:
    8000b440:	00c609b3          	add	s3,a2,a2

000000008000b444 <i_11137>:
    8000b444:	03214b03          	lbu	s6,50(sp)

000000008000b448 <i_11138>:
    8000b448:	01264633          	xor	a2,a2,s2

000000008000b44c <i_11139>:
    8000b44c:	00138393          	addi	t2,t2,1
    8000b450:	fe6396e3          	bne	t2,t1,8000b43c <i_11135>

000000008000b454 <i_11140>:
    8000b454:	00465d13          	srli	s10,a2,0x4

000000008000b458 <i_11141>:
    8000b458:	012c7933          	and	s2,s8,s2

000000008000b45c <i_11142>:
    8000b45c:	00000013          	nop

000000008000b460 <i_11143>:
    8000b460:	7e000c13          	li	s8,2016

000000008000b464 <i_11144>:
    8000b464:	7e700493          	li	s1,2023

000000008000b468 <i_11145>:
    8000b468:	0fc16d03          	lwu	s10,252(sp)

000000008000b46c <i_11146>:
    8000b46c:	e4514d03          	lbu	s10,-443(sp)

000000008000b470 <i_11147>:
    8000b470:	88e00913          	li	s2,-1906

000000008000b474 <i_11148>:
    8000b474:	8a200c93          	li	s9,-1886

000000008000b478 <i_11149>:
    8000b478:	f8a15e03          	lhu	t3,-118(sp)

000000008000b47c <i_11150>:
    8000b47c:	03cd6263          	bltu	s10,t3,8000b4a0 <i_11157>

000000008000b480 <i_11151>:
    8000b480:	00190913          	addi	s2,s2,1
    8000b484:	ff996ae3          	bltu	s2,s9,8000b478 <i_11149>

000000008000b488 <i_11152>:
    8000b488:	11912e23          	sw	s9,284(sp)

000000008000b48c <i_11153>:
    8000b48c:	ee314d03          	lbu	s10,-285(sp)

000000008000b490 <i_11154>:
    8000b490:	001c0c13          	addi	s8,s8,1
    8000b494:	fc9c1ae3          	bne	s8,s1,8000b468 <i_11145>

000000008000b498 <i_11155>:
    8000b498:	2ae118b7          	lui	a7,0x2ae11

000000008000b49c <i_11156>:
    8000b49c:	f7a10ba3          	sb	s10,-137(sp)

000000008000b4a0 <i_11157>:
    8000b4a0:	011d5863          	ble	a7,s10,8000b4b0 <i_11161>

000000008000b4a4 <i_11158>:
    8000b4a4:	ee410883          	lb	a7,-284(sp)

000000008000b4a8 <i_11159>:
    8000b4a8:	0d813883          	ld	a7,216(sp)

000000008000b4ac <i_11160>:
    8000b4ac:	e7412b83          	lw	s7,-396(sp)

000000008000b4b0 <i_11161>:
    8000b4b0:	06016b83          	lwu	s7,96(sp)

000000008000b4b4 <i_11162>:
    8000b4b4:	e9411d03          	lh	s10,-364(sp)

000000008000b4b8 <i_11163>:
    8000b4b8:	18011183          	lh	gp,384(sp)

000000008000b4bc <i_11164>:
    8000b4bc:	00700e13          	li	t3,7

000000008000b4c0 <i_11165>:
    8000b4c0:	01ce1b33          	sll	s6,t3,t3

000000008000b4c4 <i_11166>:
    8000b4c4:	ecc16183          	lwu	gp,-308(sp)

000000008000b4c8 <i_11167>:
    8000b4c8:	09910903          	lb	s2,153(sp)

000000008000b4cc <i_11168>:
    8000b4cc:	ee016d03          	lwu	s10,-288(sp)

000000008000b4d0 <i_11169>:
    8000b4d0:	1b610023          	sb	s6,416(sp)

000000008000b4d4 <i_11170>:
    8000b4d4:	7b600313          	li	t1,1974

000000008000b4d8 <i_11171>:
    8000b4d8:	7c900b13          	li	s6,1993

000000008000b4dc <i_11172>:
    8000b4dc:	02db4a3b          	divw	s4,s6,a3

000000008000b4e0 <i_11173>:
    8000b4e0:	006d0663          	beq	s10,t1,8000b4ec <i_11176>

000000008000b4e4 <i_11174>:
    8000b4e4:	fe88a893          	slti	a7,a7,-24

000000008000b4e8 <i_11175>:
    8000b4e8:	e3013483          	ld	s1,-464(sp)

000000008000b4ec <i_11176>:
    8000b4ec:	f5414903          	lbu	s2,-172(sp)

000000008000b4f0 <i_11177>:
    8000b4f0:	e2114903          	lbu	s2,-479(sp)

000000008000b4f4 <i_11178>:
    8000b4f4:	e69101a3          	sb	s1,-413(sp)

000000008000b4f8 <i_11179>:
    8000b4f8:	0ca15903          	lhu	s2,202(sp)

000000008000b4fc <i_11180>:
    8000b4fc:	ec016683          	lwu	a3,-320(sp)

000000008000b500 <i_11181>:
    8000b500:	efe11803          	lh	a6,-258(sp)

000000008000b504 <i_11182>:
    8000b504:	ec710283          	lb	t0,-313(sp)

000000008000b508 <i_11183>:
    8000b508:	00500293          	li	t0,5

000000008000b50c <i_11184>:
    8000b50c:	0052dc3b          	srlw	s8,t0,t0

000000008000b510 <i_11185>:
    8000b510:	002c1913          	slli	s2,s8,0x2

000000008000b514 <i_11186>:
    8000b514:	00130313          	addi	t1,t1,1
    8000b518:	fc6b52e3          	ble	t1,s6,8000b4dc <i_11172>

000000008000b51c <i_11187>:
    8000b51c:	ebc16903          	lwu	s2,-324(sp)

000000008000b520 <i_11188>:
    8000b520:	6f5c2293          	slti	t0,s8,1781

000000008000b524 <i_11189>:
    8000b524:	00000013          	nop

000000008000b528 <i_11190>:
    8000b528:	88b00913          	li	s2,-1909

000000008000b52c <i_11191>:
    8000b52c:	89400c13          	li	s8,-1900

000000008000b530 <i_11192>:
    8000b530:	00545863          	ble	t0,s0,8000b540 <i_11196>

000000008000b534 <i_11193>:
    8000b534:	036c6433          	rem	s0,s8,s6

000000008000b538 <i_11194>:
    8000b538:	02846b33          	rem	s6,s0,s0

000000008000b53c <i_11195>:
    8000b53c:	e2c10403          	lb	s0,-468(sp)

000000008000b540 <i_11196>:
    8000b540:	865efa17          	auipc	s4,0x865ef

000000008000b544 <i_11197>:
    8000b544:	028259b3          	divu	s3,tp,s0

000000008000b548 <i_11198>:
    8000b548:	01400213          	li	tp,20

000000008000b54c <i_11199>:
    8000b54c:	4043d5bb          	sraw	a1,t2,tp

000000008000b550 <i_11200>:
    8000b550:	00b20433          	add	s0,tp,a1

000000008000b554 <i_11201>:
    8000b554:	4035d21b          	sraiw	tp,a1,0x3

000000008000b558 <i_11202>:
    8000b558:	0e016383          	lwu	t2,224(sp)

000000008000b55c <i_11203>:
    8000b55c:	00000013          	nop

000000008000b560 <i_11204>:
    8000b560:	f6410e23          	sb	tp,-132(sp)

000000008000b564 <i_11205>:
    8000b564:	00190913          	addi	s2,s2,1
    8000b568:	fd8964e3          	bltu	s2,s8,8000b530 <i_11192>

000000008000b56c <i_11206>:
    8000b56c:	04314583          	lbu	a1,67(sp)

000000008000b570 <i_11207>:
    8000b570:	02421263          	bne	tp,tp,8000b594 <i_11216>

000000008000b574 <i_11208>:
    8000b574:	01300d93          	li	s11,19

000000008000b578 <i_11209>:
    8000b578:	01bdd23b          	srlw	tp,s11,s11

000000008000b57c <i_11210>:
    8000b57c:	f1f10c03          	lb	s8,-225(sp)

000000008000b580 <i_11211>:
    8000b580:	03bc1063          	bne	s8,s11,8000b5a0 <i_11219>

000000008000b584 <i_11212>:
    8000b584:	038b63b3          	rem	t2,s6,s8

000000008000b588 <i_11213>:
    8000b588:	01839663          	bne	t2,s8,8000b594 <i_11216>

000000008000b58c <i_11214>:
    8000b58c:	00900213          	li	tp,9

000000008000b590 <i_11215>:
    8000b590:	004ddbb3          	srl	s7,s11,tp

000000008000b594 <i_11216>:
    8000b594:	e3211f83          	lh	t6,-462(sp)

000000008000b598 <i_11217>:
    8000b598:	004b4233          	xor	tp,s6,tp

000000008000b59c <i_11218>:
    8000b59c:	050c7193          	andi	gp,s8,80

000000008000b5a0 <i_11219>:
    8000b5a0:	01f3da63          	ble	t6,t2,8000b5b4 <i_11224>

000000008000b5a4 <i_11220>:
    8000b5a4:	001fdd93          	srli	s11,t6,0x1

000000008000b5a8 <i_11221>:
    8000b5a8:	05810d23          	sb	s8,90(sp)

000000008000b5ac <i_11222>:
    8000b5ac:	16c16403          	lwu	s0,364(sp)

000000008000b5b0 <i_11223>:
    8000b5b0:	008d8e33          	add	t3,s11,s0

000000008000b5b4 <i_11224>:
    8000b5b4:	0381c2bb          	divw	t0,gp,s8

000000008000b5b8 <i_11225>:
    8000b5b8:	01cb85b3          	add	a1,s7,t3

000000008000b5bc <i_11226>:
    8000b5bc:	ee416183          	lwu	gp,-284(sp)

000000008000b5c0 <i_11227>:
    8000b5c0:	03611e03          	lh	t3,54(sp)

000000008000b5c4 <i_11228>:
    8000b5c4:	fec16e03          	lwu	t3,-20(sp)

000000008000b5c8 <i_11229>:
    8000b5c8:	01ced863          	ble	t3,t4,8000b5d8 <i_11233>

000000008000b5cc <i_11230>:
    8000b5cc:	365eec97          	auipc	s9,0x365ee

000000008000b5d0 <i_11231>:
    8000b5d0:	00800c93          	li	s9,8

000000008000b5d4 <i_11232>:
    8000b5d4:	019c9cbb          	sllw	s9,s9,s9

000000008000b5d8 <i_11233>:
    8000b5d8:	014a1663          	bne	s4,s4,8000b5e4 <i_11236>

000000008000b5dc <i_11234>:
    8000b5dc:	034a1063          	bne	s4,s4,8000b5fc <i_11242>

000000008000b5e0 <i_11235>:
    8000b5e0:	03900a13          	li	s4,57

000000008000b5e4 <i_11236>:
    8000b5e4:	01445cb3          	srl	s9,s0,s4

000000008000b5e8 <i_11237>:
    8000b5e8:	034cf063          	bleu	s4,s9,8000b608 <i_11245>

000000008000b5ec <i_11238>:
    8000b5ec:	034a0463          	beq	s4,s4,8000b614 <i_11248>

000000008000b5f0 <i_11239>:
    8000b5f0:	0bc16383          	lwu	t2,188(sp)

000000008000b5f4 <i_11240>:
    8000b5f4:	f1e12823          	sw	t5,-240(sp)

000000008000b5f8 <i_11241>:
    8000b5f8:	019e9263          	bne	t4,s9,8000b5fc <i_11242>

000000008000b5fc <i_11242>:
    8000b5fc:	034a0a3b          	mulw	s4,s4,s4

000000008000b600 <i_11243>:
    8000b600:	01ea1263          	bne	s4,t5,8000b604 <i_11244>

000000008000b604 <i_11244>:
    8000b604:	022e7a3b          	remuw	s4,t3,sp

000000008000b608 <i_11245>:
    8000b608:	02b00f13          	li	t5,43

000000008000b60c <i_11246>:
    8000b60c:	01e39bb3          	sll	s7,t2,t5

000000008000b610 <i_11247>:
    8000b610:	67dd8e17          	auipc	t3,0x67dd8

000000008000b614 <i_11248>:
    8000b614:	00000013          	nop

000000008000b618 <i_11249>:
    8000b618:	00000013          	nop

000000008000b61c <i_11250>:
    8000b61c:	76000e13          	li	t3,1888

000000008000b620 <i_11251>:
    8000b620:	76400913          	li	s2,1892

000000008000b624 <i_11252>:
    8000b624:	012e6e63          	bltu	t3,s2,8000b640 <i_11259>

000000008000b628 <i_11253>:
    8000b628:	edc14f03          	lbu	t5,-292(sp)

000000008000b62c <i_11254>:
    8000b62c:	0018d29b          	srliw	t0,a7,0x1

000000008000b630 <i_11255>:
    8000b630:	1dc13023          	sd	t3,448(sp)

000000008000b634 <i_11256>:
    8000b634:	00594a63          	blt	s2,t0,8000b648 <i_11261>

000000008000b638 <i_11257>:
    8000b638:	0b113023          	sd	a7,160(sp)

000000008000b63c <i_11258>:
    8000b63c:	01180863          	beq	a6,a7,8000b64c <i_11262>

000000008000b640 <i_11259>:
    8000b640:	00700a13          	li	s4,7

000000008000b644 <i_11260>:
    8000b644:	0142d1b3          	srl	gp,t0,s4

000000008000b648 <i_11261>:
    8000b648:	03c961b3          	rem	gp,s2,t3

000000008000b64c <i_11262>:
    8000b64c:	12815503          	lhu	a0,296(sp)

000000008000b650 <i_11263>:
    8000b650:	02b5e5bb          	remw	a1,a1,a1

000000008000b654 <i_11264>:
    8000b654:	001e0e13          	addi	t3,t3,1 # e7de3611 <_end+0x67dd31fd>
    8000b658:	fd2e66e3          	bltu	t3,s2,8000b624 <i_11252>

000000008000b65c <i_11265>:
    8000b65c:	06c10e23          	sb	a2,124(sp)

000000008000b660 <i_11266>:
    8000b660:	f1211583          	lh	a1,-238(sp)

000000008000b664 <i_11267>:
    8000b664:	0315f5bb          	remuw	a1,a1,a7

000000008000b668 <i_11268>:
    8000b668:	08c14783          	lbu	a5,140(sp)

000000008000b66c <i_11269>:
    8000b66c:	00016403          	lwu	s0,0(sp)

000000008000b670 <i_11270>:
    8000b670:	1da11583          	lh	a1,474(sp)

000000008000b674 <i_11271>:
    8000b674:	008583b3          	add	t2,a1,s0

000000008000b678 <i_11272>:
    8000b678:	01d00893          	li	a7,29

000000008000b67c <i_11273>:
    8000b67c:	01159c3b          	sllw	s8,a1,a7

000000008000b680 <i_11274>:
    8000b680:	001c531b          	srliw	t1,s8,0x1

000000008000b684 <i_11275>:
    8000b684:	00ac6c33          	or	s8,s8,a0

000000008000b688 <i_11276>:
    8000b688:	e2811803          	lh	a6,-472(sp)

000000008000b68c <i_11277>:
    8000b68c:	fd011b03          	lh	s6,-48(sp)

000000008000b690 <i_11278>:
    8000b690:	89900393          	li	t2,-1895

000000008000b694 <i_11279>:
    8000b694:	89f00c13          	li	s8,-1889

000000008000b698 <i_11280>:
    8000b698:	e9710503          	lb	a0,-361(sp)

000000008000b69c <i_11281>:
    8000b69c:	02a77463          	bleu	a0,a4,8000b6c4 <i_11290>

000000008000b6a0 <i_11282>:
    8000b6a0:	f8d10d03          	lb	s10,-115(sp)

000000008000b6a4 <i_11283>:
    8000b6a4:	14e15483          	lhu	s1,334(sp)

000000008000b6a8 <i_11284>:
    8000b6a8:	00000013          	nop

000000008000b6ac <i_11285>:
    8000b6ac:	f5012a23          	sw	a6,-172(sp)

000000008000b6b0 <i_11286>:
    8000b6b0:	02930463          	beq	t1,s1,8000b6d8 <i_11295>

000000008000b6b4 <i_11287>:
    8000b6b4:	00138393          	addi	t2,t2,1
    8000b6b8:	fe7c50e3          	ble	t2,s8,8000b698 <i_11280>

000000008000b6bc <i_11288>:
    8000b6bc:	0a816503          	lwu	a0,168(sp)

000000008000b6c0 <i_11289>:
    8000b6c0:	01010e23          	sb	a6,28(sp)

000000008000b6c4 <i_11290>:
    8000b6c4:	fdc16a83          	lwu	s5,-36(sp)

000000008000b6c8 <i_11291>:
    8000b6c8:	f1a11923          	sh	s10,-238(sp)

000000008000b6cc <i_11292>:
    8000b6cc:	00013683          	ld	a3,0(sp)

000000008000b6d0 <i_11293>:
    8000b6d0:	e4714d03          	lbu	s10,-441(sp)

000000008000b6d4 <i_11294>:
    8000b6d4:	00000013          	nop

000000008000b6d8 <i_11295>:
    8000b6d8:	f3414883          	lbu	a7,-204(sp)

000000008000b6dc <i_11296>:
    8000b6dc:	ff510923          	sb	s5,-14(sp)

000000008000b6e0 <i_11297>:
    8000b6e0:	73e00a93          	li	s5,1854

000000008000b6e4 <i_11298>:
    8000b6e4:	74600e93          	li	t4,1862

000000008000b6e8 <i_11299>:
    8000b6e8:	001a8a93          	addi	s5,s5,1
    8000b6ec:	ffdaeee3          	bltu	s5,t4,8000b6e8 <i_11299>

000000008000b6f0 <i_11300>:
    8000b6f0:	16816183          	lwu	gp,360(sp)

000000008000b6f4 <i_11301>:
    8000b6f4:	e1914c83          	lbu	s9,-487(sp)

000000008000b6f8 <i_11302>:
    8000b6f8:	40155513          	srai	a0,a0,0x1

000000008000b6fc <i_11303>:
    8000b6fc:	16214883          	lbu	a7,354(sp)

000000008000b700 <i_11304>:
    8000b700:	014fe1b3          	or	gp,t6,s4

000000008000b704 <i_11305>:
    8000b704:	06311723          	sh	gp,110(sp)

000000008000b708 <i_11306>:
    8000b708:	ec816b83          	lwu	s7,-312(sp)

000000008000b70c <i_11307>:
    8000b70c:	00a8e833          	or	a6,a7,a0

000000008000b710 <i_11308>:
    8000b710:	00a80533          	add	a0,a6,a0

000000008000b714 <i_11309>:
    8000b714:	01e00c93          	li	s9,30

000000008000b718 <i_11310>:
    8000b718:	419a5abb          	sraw	s5,s4,s9

000000008000b71c <i_11311>:
    8000b71c:	01054c63          	blt	a0,a6,8000b734 <i_11317>

000000008000b720 <i_11312>:
    8000b720:	010af663          	bleu	a6,s5,8000b72c <i_11315>

000000008000b724 <i_11313>:
    8000b724:	1cd10d83          	lb	s11,461(sp)

000000008000b728 <i_11314>:
    8000b728:	f7013a83          	ld	s5,-144(sp)

000000008000b72c <i_11315>:
    8000b72c:	014af863          	bleu	s4,s5,8000b73c <i_11319>

000000008000b730 <i_11316>:
    8000b730:	03615d83          	lhu	s11,54(sp)

000000008000b734 <i_11317>:
    8000b734:	12013d83          	ld	s11,288(sp)

000000008000b738 <i_11318>:
    8000b738:	f4a15d83          	lhu	s11,-182(sp)

000000008000b73c <i_11319>:
    8000b73c:	04911523          	sh	s1,74(sp)

000000008000b740 <i_11320>:
    8000b740:	03b6cdbb          	divw	s11,a3,s11

000000008000b744 <i_11321>:
    8000b744:	ebb11823          	sh	s11,-336(sp)

000000008000b748 <i_11322>:
    8000b748:	fdb13c23          	sd	s11,-40(sp)

000000008000b74c <i_11323>:
    8000b74c:	00000013          	nop

000000008000b750 <i_11324>:
    8000b750:	79a00a93          	li	s5,1946

000000008000b754 <i_11325>:
    8000b754:	7a800d93          	li	s11,1960

000000008000b758 <i_11326>:
    8000b758:	05b11723          	sh	s11,78(sp)

000000008000b75c <i_11327>:
    8000b75c:	e9b10223          	sb	s11,-380(sp)

000000008000b760 <i_11328>:
    8000b760:	02500c13          	li	s8,37

000000008000b764 <i_11329>:
    8000b764:	418ad233          	sra	tp,s5,s8

000000008000b768 <i_11330>:
    8000b768:	fd6c4193          	xori	gp,s8,-42

000000008000b76c <i_11331>:
    8000b76c:	01837263          	bleu	s8,t1,8000b770 <i_11332>

000000008000b770 <i_11332>:
    8000b770:	01594663          	blt	s2,s5,8000b77c <i_11335>

000000008000b774 <i_11333>:
    8000b774:	28ae2317          	auipc	t1,0x28ae2

000000008000b778 <i_11334>:
    8000b778:	40435913          	srai	s2,t1,0x4

000000008000b77c <i_11335>:
    8000b77c:	1e016303          	lwu	t1,480(sp)

000000008000b780 <i_11336>:
    8000b780:	09010983          	lb	s3,144(sp)

000000008000b784 <i_11337>:
    8000b784:	04910303          	lb	t1,73(sp)

000000008000b788 <i_11338>:
    8000b788:	02690263          	beq	s2,t1,8000b7ac <i_11346>

000000008000b78c <i_11339>:
    8000b78c:	f5c11f23          	sh	t3,-162(sp)

000000008000b790 <i_11340>:
    8000b790:	001a8a93          	addi	s5,s5,1
    8000b794:	fdbae2e3          	bltu	s5,s11,8000b758 <i_11326>

000000008000b798 <i_11341>:
    8000b798:	f0813983          	ld	s3,-248(sp)

000000008000b79c <i_11342>:
    8000b79c:	01f00993          	li	s3,31

000000008000b7a0 <i_11343>:
    8000b7a0:	013316bb          	sllw	a3,t1,s3

000000008000b7a4 <i_11344>:
    8000b7a4:	23837313          	andi	t1,t1,568

000000008000b7a8 <i_11345>:
    8000b7a8:	e7214e83          	lbu	t4,-398(sp)

000000008000b7ac <i_11346>:
    8000b7ac:	1b411b23          	sh	s4,438(sp)

000000008000b7b0 <i_11347>:
    8000b7b0:	00000013          	nop

000000008000b7b4 <i_11348>:
    8000b7b4:	86400a13          	li	s4,-1948

000000008000b7b8 <i_11349>:
    8000b7b8:	86c00313          	li	t1,-1940

000000008000b7bc <i_11350>:
    8000b7bc:	012a0eb3          	add	t4,s4,s2

000000008000b7c0 <i_11351>:
    8000b7c0:	f8610423          	sb	t1,-120(sp)

000000008000b7c4 <i_11352>:
    8000b7c4:	03431663          	bne	t1,s4,8000b7f0 <i_11362>

000000008000b7c8 <i_11353>:
    8000b7c8:	1a011583          	lh	a1,416(sp)

000000008000b7cc <i_11354>:
    8000b7cc:	0339e4bb          	remw	s1,s3,s3

000000008000b7d0 <i_11355>:
    8000b7d0:	02d31663          	bne	t1,a3,8000b7fc <i_11365>

000000008000b7d4 <i_11356>:
    8000b7d4:	001a0a13          	addi	s4,s4,1 # 65fa541 <main-0x79a05abf>
    8000b7d8:	ff4372e3          	bleu	s4,t1,8000b7bc <i_11350>

000000008000b7dc <i_11357>:
    8000b7dc:	f6415f03          	lhu	t5,-156(sp)

000000008000b7e0 <i_11358>:
    8000b7e0:	f5016f03          	lwu	t5,-176(sp)

000000008000b7e4 <i_11359>:
    8000b7e4:	0e613423          	sd	t1,232(sp)

000000008000b7e8 <i_11360>:
    8000b7e8:	06911123          	sh	s1,98(sp)

000000008000b7ec <i_11361>:
    8000b7ec:	e3013703          	ld	a4,-464(sp)

000000008000b7f0 <i_11362>:
    8000b7f0:	f9c11303          	lh	t1,-100(sp)

000000008000b7f4 <i_11363>:
    8000b7f4:	ede11c23          	sh	t5,-296(sp)

000000008000b7f8 <i_11364>:
    8000b7f8:	00b5d263          	ble	a1,a1,8000b7fc <i_11365>

000000008000b7fc <i_11365>:
    8000b7fc:	02ea7263          	bleu	a4,s4,8000b820 <i_11374>

000000008000b800 <i_11366>:
    8000b800:	06b13c23          	sd	a1,120(sp)

000000008000b804 <i_11367>:
    8000b804:	03b7d733          	divu	a4,a5,s11

000000008000b808 <i_11368>:
    8000b808:	00000013          	nop

000000008000b80c <i_11369>:
    8000b80c:	0e415a03          	lhu	s4,228(sp)

000000008000b810 <i_11370>:
    8000b810:	02f3b933          	mulhu	s2,t2,a5

000000008000b814 <i_11371>:
    8000b814:	fc013d03          	ld	s10,-64(sp)

000000008000b818 <i_11372>:
    8000b818:	00000013          	nop

000000008000b81c <i_11373>:
    8000b81c:	07412623          	sw	s4,108(sp)

000000008000b820 <i_11374>:
    8000b820:	00000013          	nop

000000008000b824 <i_11375>:
    8000b824:	f9211923          	sh	s2,-110(sp)

000000008000b828 <i_11376>:
    8000b828:	7d600593          	li	a1,2006

000000008000b82c <i_11377>:
    8000b82c:	7db00793          	li	a5,2011

000000008000b830 <i_11378>:
    8000b830:	00158593          	addi	a1,a1,1
    8000b834:	feb7dee3          	ble	a1,a5,8000b830 <i_11378>

000000008000b838 <i_11379>:
    8000b838:	08012c03          	lw	s8,128(sp)

000000008000b83c <i_11380>:
    8000b83c:	00697933          	and	s2,s2,t1

000000008000b840 <i_11381>:
    8000b840:	1fb97a13          	andi	s4,s2,507

000000008000b844 <i_11382>:
    8000b844:	14d13023          	sd	a3,320(sp)

000000008000b848 <i_11383>:
    8000b848:	f3c15903          	lhu	s2,-196(sp)

000000008000b84c <i_11384>:
    8000b84c:	13314283          	lbu	t0,307(sp)

000000008000b850 <i_11385>:
    8000b850:	1d213423          	sd	s2,456(sp)

000000008000b854 <i_11386>:
    8000b854:	1a912e23          	sw	s1,444(sp)

000000008000b858 <i_11387>:
    8000b858:	01c28463          	beq	t0,t3,8000b860 <i_11389>

000000008000b85c <i_11388>:
    8000b85c:	01f00593          	li	a1,31

000000008000b860 <i_11389>:
    8000b860:	00ba593b          	srlw	s2,s4,a1

000000008000b864 <i_11390>:
    8000b864:	e4c93313          	sltiu	t1,s2,-436

000000008000b868 <i_11391>:
    8000b868:	e18a7593          	andi	a1,s4,-488

000000008000b86c <i_11392>:
    8000b86c:	15212023          	sw	s2,320(sp)

000000008000b870 <i_11393>:
    8000b870:	00359e63          	bne	a1,gp,8000b88c <i_11400>

000000008000b874 <i_11394>:
    8000b874:	0325c7b3          	div	a5,a1,s2

000000008000b878 <i_11395>:
    8000b878:	00617c63          	bleu	t1,sp,8000b890 <i_11401>

000000008000b87c <i_11396>:
    8000b87c:	fdd11c23          	sh	t4,-40(sp)

000000008000b880 <i_11397>:
    8000b880:	1e211183          	lh	gp,482(sp)

000000008000b884 <i_11398>:
    8000b884:	16410183          	lb	gp,356(sp)

000000008000b888 <i_11399>:
    8000b888:	fe714183          	lbu	gp,-25(sp)

000000008000b88c <i_11400>:
    8000b88c:	00518cb3          	add	s9,gp,t0

000000008000b890 <i_11401>:
    8000b890:	0c310fa3          	sb	gp,223(sp)

000000008000b894 <i_11402>:
    8000b894:	f6313823          	sd	gp,-144(sp)

000000008000b898 <i_11403>:
    8000b898:	0f815d83          	lhu	s11,248(sp)

000000008000b89c <i_11404>:
    8000b89c:	01921263          	bne	tp,s9,8000b8a0 <i_11405>

000000008000b8a0 <i_11405>:
    8000b8a0:	02811c83          	lh	s9,40(sp)

000000008000b8a4 <i_11406>:
    8000b8a4:	038d9263          	bne	s11,s8,8000b8c8 <i_11415>

000000008000b8a8 <i_11407>:
    8000b8a8:	0e816183          	lwu	gp,232(sp)

000000008000b8ac <i_11408>:
    8000b8ac:	03bcc533          	div	a0,s9,s11

000000008000b8b0 <i_11409>:
    8000b8b0:	06914183          	lbu	gp,105(sp)

000000008000b8b4 <i_11410>:
    8000b8b4:	023c8ab3          	mul	s5,s9,gp

000000008000b8b8 <i_11411>:
    8000b8b8:	01bafa63          	bleu	s11,s5,8000b8cc <i_11416>

000000008000b8bc <i_11412>:
    8000b8bc:	02318463          	beq	gp,gp,8000b8e4 <i_11422>

000000008000b8c0 <i_11413>:
    8000b8c0:	00a1b1b3          	sltu	gp,gp,a0

000000008000b8c4 <i_11414>:
    8000b8c4:	1a310a23          	sb	gp,436(sp)

000000008000b8c8 <i_11415>:
    8000b8c8:	17813a03          	ld	s4,376(sp)

000000008000b8cc <i_11416>:
    8000b8cc:	02c12703          	lw	a4,44(sp)

000000008000b8d0 <i_11417>:
    8000b8d0:	84573813          	sltiu	a6,a4,-1979

000000008000b8d4 <i_11418>:
    8000b8d4:	1d0101a3          	sb	a6,451(sp)

000000008000b8d8 <i_11419>:
    8000b8d8:	1b615a03          	lhu	s4,438(sp)

000000008000b8dc <i_11420>:
    8000b8dc:	f5d10583          	lb	a1,-163(sp)

000000008000b8e0 <i_11421>:
    8000b8e0:	14015783          	lhu	a5,320(sp)

000000008000b8e4 <i_11422>:
    8000b8e4:	00000013          	nop

000000008000b8e8 <i_11423>:
    8000b8e8:	03900d93          	li	s11,57

000000008000b8ec <i_11424>:
    8000b8ec:	01ba1233          	sll	tp,s4,s11

000000008000b8f0 <i_11425>:
    8000b8f0:	78100e93          	li	t4,1921

000000008000b8f4 <i_11426>:
    8000b8f4:	78c00093          	li	ra,1932

000000008000b8f8 <i_11427>:
    8000b8f8:	08013783          	ld	a5,128(sp)

000000008000b8fc <i_11428>:
    8000b8fc:	f0012a03          	lw	s4,-256(sp)

000000008000b900 <i_11429>:
    8000b900:	13b11a23          	sh	s11,308(sp)

000000008000b904 <i_11430>:
    8000b904:	001e8e93          	addi	t4,t4,1
    8000b908:	ffd0d6e3          	ble	t4,ra,8000b8f4 <i_11426>

000000008000b90c <i_11431>:
    8000b90c:	00013d83          	ld	s11,0(sp)

000000008000b910 <i_11432>:
    8000b910:	185c4597          	auipc	a1,0x185c4

000000008000b914 <i_11433>:
    8000b914:	fac12283          	lw	t0,-84(sp)

000000008000b918 <i_11434>:
    8000b918:	03b00d93          	li	s11,59

000000008000b91c <i_11435>:
    8000b91c:	01bddf33          	srl	t5,s11,s11

000000008000b920 <i_11436>:
    8000b920:	03b2b533          	mulhu	a0,t0,s11

000000008000b924 <i_11437>:
    8000b924:	f7416583          	lwu	a1,-140(sp)

000000008000b928 <i_11438>:
    8000b928:	005f4c63          	blt	t5,t0,8000b940 <i_11444>

000000008000b92c <i_11439>:
    8000b92c:	0057b7b3          	sltu	a5,a5,t0

000000008000b930 <i_11440>:
    8000b930:	0035df13          	srli	t5,a1,0x3

000000008000b934 <i_11441>:
    8000b934:	02a11323          	sh	a0,38(sp)

000000008000b938 <i_11442>:
    8000b938:	0c513423          	sd	t0,200(sp)

000000008000b93c <i_11443>:
    8000b93c:	f0a11783          	lh	a5,-246(sp)

000000008000b940 <i_11444>:
    8000b940:	41e787b3          	sub	a5,a5,t5

000000008000b944 <i_11445>:
    8000b944:	efc16303          	lwu	t1,-260(sp)

000000008000b948 <i_11446>:
    8000b948:	026550b3          	divu	ra,a0,t1

000000008000b94c <i_11447>:
    8000b94c:	0017d463          	ble	ra,a5,8000b954 <i_11449>

000000008000b950 <i_11448>:
    8000b950:	00ffd663          	ble	a5,t6,8000b95c <i_11451>

000000008000b954 <i_11449>:
    8000b954:	073302b7          	lui	t0,0x7330

000000008000b958 <i_11450>:
    8000b958:	00f78263          	beq	a5,a5,8000b95c <i_11451>

000000008000b95c <i_11451>:
    8000b95c:	f3813d83          	ld	s11,-200(sp)

000000008000b960 <i_11452>:
    8000b960:	09f14d03          	lbu	s10,159(sp)

000000008000b964 <i_11453>:
    8000b964:	f2411903          	lh	s2,-220(sp)

000000008000b968 <i_11454>:
    8000b968:	90c92313          	slti	t1,s2,-1780

000000008000b96c <i_11455>:
    8000b96c:	eda11123          	sh	s10,-318(sp)

000000008000b970 <i_11456>:
    8000b970:	e6514e83          	lbu	t4,-411(sp)

000000008000b974 <i_11457>:
    8000b974:	7e300793          	li	a5,2019

000000008000b978 <i_11458>:
    8000b978:	7ed00313          	li	t1,2029

000000008000b97c <i_11459>:
    8000b97c:	00f79463          	bne	a5,a5,8000b984 <i_11461>

000000008000b980 <i_11460>:
    8000b980:	03233db3          	mulhu	s11,t1,s2

000000008000b984 <i_11461>:
    8000b984:	06016d03          	lwu	s10,96(sp)

000000008000b988 <i_11462>:
    8000b988:	7aa33c93          	sltiu	s9,t1,1962

000000008000b98c <i_11463>:
    8000b98c:	ece11583          	lh	a1,-306(sp)

000000008000b990 <i_11464>:
    8000b990:	0045981b          	slliw	a6,a1,0x4

000000008000b994 <i_11465>:
    8000b994:	fc613023          	sd	t1,-64(sp)

000000008000b998 <i_11466>:
    8000b998:	00b00593          	li	a1,11

000000008000b99c <i_11467>:
    8000b99c:	00b59bbb          	sllw	s7,a1,a1

000000008000b9a0 <i_11468>:
    8000b9a0:	037c51b3          	divu	gp,s8,s7

000000008000b9a4 <i_11469>:
    8000b9a4:	00459193          	slli	gp,a1,0x4

000000008000b9a8 <i_11470>:
    8000b9a8:	41018ebb          	subw	t4,gp,a6

000000008000b9ac <i_11471>:
    8000b9ac:	4011d813          	srai	a6,gp,0x1

000000008000b9b0 <i_11472>:
    8000b9b0:	00178793          	addi	a5,a5,1
    8000b9b4:	fcf374e3          	bleu	a5,t1,8000b97c <i_11459>

000000008000b9b8 <i_11473>:
    8000b9b8:	fc013e83          	ld	t4,-64(sp)

000000008000b9bc <i_11474>:
    8000b9bc:	06814b83          	lbu	s7,104(sp)

000000008000b9c0 <i_11475>:
    8000b9c0:	9b6ee193          	ori	gp,t4,-1610

000000008000b9c4 <i_11476>:
    8000b9c4:	fec16183          	lwu	gp,-20(sp)

000000008000b9c8 <i_11477>:
    8000b9c8:	0305d1bb          	divuw	gp,a1,a6

000000008000b9cc <i_11478>:
    8000b9cc:	ecc15b83          	lhu	s7,-308(sp)

000000008000b9d0 <i_11479>:
    8000b9d0:	023f42b3          	div	t0,t5,gp

000000008000b9d4 <i_11480>:
    8000b9d4:	023bd463          	ble	gp,s7,8000b9fc <i_11490>

000000008000b9d8 <i_11481>:
    8000b9d8:	f4813903          	ld	s2,-184(sp)

000000008000b9dc <i_11482>:
    8000b9dc:	01411183          	lh	gp,20(sp)

000000008000b9e0 <i_11483>:
    8000b9e0:	ea914083          	lbu	ra,-343(sp)

000000008000b9e4 <i_11484>:
    8000b9e4:	0210d1b3          	divu	gp,ra,ra

000000008000b9e8 <i_11485>:
    8000b9e8:	01100393          	li	t2,17

000000008000b9ec <i_11486>:
    8000b9ec:	407c5c33          	sra	s8,s8,t2

000000008000b9f0 <i_11487>:
    8000b9f0:	f4b12423          	sw	a1,-184(sp)

000000008000b9f4 <i_11488>:
    8000b9f4:	0cd14c83          	lbu	s9,205(sp)

000000008000b9f8 <i_11489>:
    8000b9f8:	019cacb3          	slt	s9,s9,s9

000000008000b9fc <i_11490>:
    8000b9fc:	00000013          	nop

000000008000ba00 <i_11491>:
    8000ba00:	00000013          	nop

000000008000ba04 <i_11492>:
    8000ba04:	85900593          	li	a1,-1959

000000008000ba08 <i_11493>:
    8000ba08:	86000c13          	li	s8,-1952

000000008000ba0c <i_11494>:
    8000ba0c:	00e00f13          	li	t5,14

000000008000ba10 <i_11495>:
    8000ba10:	01ec1533          	sll	a0,s8,t5

000000008000ba14 <i_11496>:
    8000ba14:	0186ec63          	bltu	a3,s8,8000ba2c <i_11502>

000000008000ba18 <i_11497>:
    8000ba18:	06610ea3          	sb	t1,125(sp)

000000008000ba1c <i_11498>:
    8000ba1c:	13714d83          	lbu	s11,311(sp)

000000008000ba20 <i_11499>:
    8000ba20:	0ec15683          	lhu	a3,236(sp)

000000008000ba24 <i_11500>:
    8000ba24:	f4412883          	lw	a7,-188(sp)

000000008000ba28 <i_11501>:
    8000ba28:	eb415683          	lhu	a3,-332(sp)

000000008000ba2c <i_11502>:
    8000ba2c:	00000013          	nop

000000008000ba30 <i_11503>:
    8000ba30:	e7e15683          	lhu	a3,-386(sp)

000000008000ba34 <i_11504>:
    8000ba34:	fb110ca3          	sb	a7,-71(sp)

000000008000ba38 <i_11505>:
    8000ba38:	fb211283          	lh	t0,-78(sp)

000000008000ba3c <i_11506>:
    8000ba3c:	00158593          	addi	a1,a1,1 # 985cf911 <_end+0x185bf4fd>
    8000ba40:	fd85e6e3          	bltu	a1,s8,8000ba0c <i_11494>

000000008000ba44 <i_11507>:
    8000ba44:	1a910283          	lb	t0,425(sp)

000000008000ba48 <i_11508>:
    8000ba48:	18d13023          	sd	a3,384(sp)

000000008000ba4c <i_11509>:
    8000ba4c:	04513c23          	sd	t0,88(sp)

000000008000ba50 <i_11510>:
    8000ba50:	f7410203          	lb	tp,-140(sp)

000000008000ba54 <i_11511>:
    8000ba54:	fc815303          	lhu	t1,-56(sp)

000000008000ba58 <i_11512>:
    8000ba58:	00000013          	nop

000000008000ba5c <i_11513>:
    8000ba5c:	80400213          	li	tp,-2044

000000008000ba60 <i_11514>:
    8000ba60:	81400a93          	li	s5,-2028

000000008000ba64 <i_11515>:
    8000ba64:	00431e63          	bne	t1,tp,8000ba80 <i_11521>

000000008000ba68 <i_11516>:
    8000ba68:	00120213          	addi	tp,tp,1 # 1 <main-0x7fffffff>
    8000ba6c:	ff521ce3          	bne	tp,s5,8000ba64 <i_11515>

000000008000ba70 <i_11517>:
    8000ba70:	035181bb          	mulw	gp,gp,s5

000000008000ba74 <i_11518>:
    8000ba74:	17816e03          	lwu	t3,376(sp)

000000008000ba78 <i_11519>:
    8000ba78:	fb512823          	sw	s5,-80(sp)

000000008000ba7c <i_11520>:
    8000ba7c:	41218abb          	subw	s5,gp,s2

000000008000ba80 <i_11521>:
    8000ba80:	17416483          	lwu	s1,372(sp)

000000008000ba84 <i_11522>:
    8000ba84:	02a4cfb3          	div	t6,s1,a0

000000008000ba88 <i_11523>:
    8000ba88:	08410a83          	lb	s5,132(sp)

000000008000ba8c <i_11524>:
    8000ba8c:	0036139b          	slliw	t2,a2,0x3

000000008000ba90 <i_11525>:
    8000ba90:	00500a93          	li	s5,5

000000008000ba94 <i_11526>:
    8000ba94:	4156dfbb          	sraw	t6,a3,s5

000000008000ba98 <i_11527>:
    8000ba98:	76800913          	li	s2,1896

000000008000ba9c <i_11528>:
    8000ba9c:	77800613          	li	a2,1912

000000008000baa0 <i_11529>:
    8000baa0:	0274c23b          	divw	tp,s1,t2

000000008000baa4 <i_11530>:
    8000baa4:	f8610283          	lb	t0,-122(sp)

000000008000baa8 <i_11531>:
    8000baa8:	00600b13          	li	s6,6

000000008000baac <i_11532>:
    8000baac:	0164dabb          	srlw	s5,s1,s6

000000008000bab0 <i_11533>:
    8000bab0:	00190913          	addi	s2,s2,1
    8000bab4:	ff2654e3          	ble	s2,a2,8000ba9c <i_11528>

000000008000bab8 <i_11534>:
    8000bab8:	e9013b03          	ld	s6,-368(sp)

000000008000babc <i_11535>:
    8000babc:	01648663          	beq	s1,s6,8000bac8 <i_11538>

000000008000bac0 <i_11536>:
    8000bac0:	01fd7b33          	and	s6,s10,t6

000000008000bac4 <i_11537>:
    8000bac4:	05611b03          	lh	s6,86(sp)

000000008000bac8 <i_11538>:
    8000bac8:	9533871b          	addiw	a4,t2,-1709

000000008000bacc <i_11539>:
    8000bacc:	40eb0fb3          	sub	t6,s6,a4

000000008000bad0 <i_11540>:
    8000bad0:	01700b13          	li	s6,23

000000008000bad4 <i_11541>:
    8000bad4:	016c5b3b          	srlw	s6,s8,s6

000000008000bad8 <i_11542>:
    8000bad8:	e2013b03          	ld	s6,-480(sp)

000000008000badc <i_11543>:
    8000badc:	08e13423          	sd	a4,136(sp)

000000008000bae0 <i_11544>:
    8000bae0:	01611f23          	sh	s6,30(sp)

000000008000bae4 <i_11545>:
    8000bae4:	02f108a3          	sb	a5,49(sp)

000000008000bae8 <i_11546>:
    8000bae8:	e9613c23          	sd	s6,-360(sp)

000000008000baec <i_11547>:
    8000baec:	f7613823          	sd	s6,-144(sp)

000000008000baf0 <i_11548>:
    8000baf0:	ea615c83          	lhu	s9,-346(sp)

000000008000baf4 <i_11549>:
    8000baf4:	01646663          	bltu	s0,s6,8000bb00 <i_11552>

000000008000baf8 <i_11550>:
    8000baf8:	45b22c97          	auipc	s9,0x45b22

000000008000bafc <i_11551>:
    8000bafc:	02011703          	lh	a4,32(sp)

000000008000bb00 <i_11552>:
    8000bb00:	15611f83          	lh	t6,342(sp)

000000008000bb04 <i_11553>:
    8000bb04:	10016b03          	lwu	s6,256(sp)

000000008000bb08 <i_11554>:
    8000bb08:	75000713          	li	a4,1872

000000008000bb0c <i_11555>:
    8000bb0c:	75600a13          	li	s4,1878

000000008000bb10 <i_11556>:
    8000bb10:	00170713          	addi	a4,a4,1 # f5e7aadd <_end+0x75e6a6c9>
    8000bb14:	ff474ee3          	blt	a4,s4,8000bb10 <i_11556>

000000008000bb18 <i_11557>:
    8000bb18:	1e156a37          	lui	s4,0x1e156

000000008000bb1c <i_11558>:
    8000bb1c:	02e81733          	mulh	a4,a6,a4

000000008000bb20 <i_11559>:
    8000bb20:	11611e23          	sh	s6,284(sp)

000000008000bb24 <i_11560>:
    8000bb24:	f6011303          	lh	t1,-160(sp)

000000008000bb28 <i_11561>:
    8000bb28:	afab2713          	slti	a4,s6,-1286

000000008000bb2c <i_11562>:
    8000bb2c:	1cc12f83          	lw	t6,460(sp)

000000008000bb30 <i_11563>:
    8000bb30:	008a4863          	blt	s4,s0,8000bb40 <i_11567>

000000008000bb34 <i_11564>:
    8000bb34:	00300f93          	li	t6,3

000000008000bb38 <i_11565>:
    8000bb38:	01ffd43b          	srlw	s0,t6,t6

000000008000bb3c <i_11566>:
    8000bb3c:	03f5083b          	mulw	a6,a0,t6

000000008000bb40 <i_11567>:
    8000bb40:	028fffb3          	remu	t6,t6,s0

000000008000bb44 <i_11568>:
    8000bb44:	eff12c23          	sw	t6,-264(sp)

000000008000bb48 <i_11569>:
    8000bb48:	12015283          	lhu	t0,288(sp)

000000008000bb4c <i_11570>:
    8000bb4c:	03f2d433          	divu	s0,t0,t6

000000008000bb50 <i_11571>:
    8000bb50:	025fcfbb          	divw	t6,t6,t0

000000008000bb54 <i_11572>:
    8000bb54:	028c7463          	bleu	s0,s8,8000bb7c <i_11582>

000000008000bb58 <i_11573>:
    8000bb58:	a75c0c13          	addi	s8,s8,-1419

000000008000bb5c <i_11574>:
    8000bb5c:	ee614503          	lbu	a0,-282(sp)

000000008000bb60 <i_11575>:
    8000bb60:	038a1063          	bne	s4,s8,8000bb80 <i_11583>

000000008000bb64 <i_11576>:
    8000bb64:	013fee63          	bltu	t6,s3,8000bb80 <i_11583>

000000008000bb68 <i_11577>:
    8000bb68:	40850c3b          	subw	s8,a0,s0

000000008000bb6c <i_11578>:
    8000bb6c:	0a113823          	sd	ra,176(sp)

000000008000bb70 <i_11579>:
    8000bb70:	002a1a1b          	slliw	s4,s4,0x2

000000008000bb74 <i_11580>:
    8000bb74:	4049d093          	srai	ra,s3,0x4

000000008000bb78 <i_11581>:
    8000bb78:	09914503          	lbu	a0,153(sp)

000000008000bb7c <i_11582>:
    8000bb7c:	12615c03          	lhu	s8,294(sp)

000000008000bb80 <i_11583>:
    8000bb80:	0013a3b3          	slt	t2,t2,ra

000000008000bb84 <i_11584>:
    8000bb84:	0340c263          	blt	ra,s4,8000bba8 <i_11593>

000000008000bb88 <i_11585>:
    8000bb88:	f2015683          	lhu	a3,-224(sp)

000000008000bb8c <i_11586>:
    8000bb8c:	0013de63          	ble	ra,t2,8000bba8 <i_11593>

000000008000bb90 <i_11587>:
    8000bb90:	06812083          	lw	ra,104(sp)

000000008000bb94 <i_11588>:
    8000bb94:	03856463          	bltu	a0,s8,8000bbbc <i_11598>

000000008000bb98 <i_11589>:
    8000bb98:	0184f863          	bleu	s8,s1,8000bba8 <i_11593>

000000008000bb9c <i_11590>:
    8000bb9c:	05a13423          	sd	s10,72(sp)

000000008000bba0 <i_11591>:
    8000bba0:	00d24663          	blt	tp,a3,8000bbac <i_11594>

000000008000bba4 <i_11592>:
    8000bba4:	e9f10083          	lb	ra,-353(sp)

000000008000bba8 <i_11593>:
    8000bba8:	12113423          	sd	ra,296(sp)

000000008000bbac <i_11594>:
    8000bbac:	e2416b83          	lwu	s7,-476(sp)

000000008000bbb0 <i_11595>:
    8000bbb0:	007e6a63          	bltu	t3,t2,8000bbc4 <i_11600>

000000008000bbb4 <i_11596>:
    8000bbb4:	10c15383          	lhu	t2,268(sp)

000000008000bbb8 <i_11597>:
    8000bbb8:	00a08663          	beq	ra,a0,8000bbc4 <i_11600>

000000008000bbbc <i_11598>:
    8000bbbc:	01f3afb3          	slt	t6,t2,t6

000000008000bbc0 <i_11599>:
    8000bbc0:	09c15e03          	lhu	t3,156(sp)

000000008000bbc4 <i_11600>:
    8000bbc4:	17411d03          	lh	s10,372(sp)

000000008000bbc8 <i_11601>:
    8000bbc8:	00000013          	nop

000000008000bbcc <i_11602>:
    8000bbcc:	79b00c13          	li	s8,1947

000000008000bbd0 <i_11603>:
    8000bbd0:	7ae00593          	li	a1,1966

000000008000bbd4 <i_11604>:
    8000bbd4:	f7412a83          	lw	s5,-140(sp)

000000008000bbd8 <i_11605>:
    8000bbd8:	16016d03          	lwu	s10,352(sp)

000000008000bbdc <i_11606>:
    8000bbdc:	015d5e63          	ble	s5,s10,8000bbf8 <i_11613>

000000008000bbe0 <i_11607>:
    8000bbe0:	00000013          	nop

000000008000bbe4 <i_11608>:
    8000bbe4:	0b5105a3          	sb	s5,171(sp)

000000008000bbe8 <i_11609>:
    8000bbe8:	02412a83          	lw	s5,36(sp)

000000008000bbec <i_11610>:
    8000bbec:	a59aed13          	ori	s10,s5,-1447

000000008000bbf0 <i_11611>:
    8000bbf0:	03600213          	li	tp,54

000000008000bbf4 <i_11612>:
    8000bbf4:	004bdbb3          	srl	s7,s7,tp

000000008000bbf8 <i_11613>:
    8000bbf8:	01a21c63          	bne	tp,s10,8000bc10 <i_11618>

000000008000bbfc <i_11614>:
    8000bbfc:	04c16a83          	lwu	s5,76(sp)

000000008000bc00 <i_11615>:
    8000bc00:	001c0c13          	addi	s8,s8,1
    8000bc04:	fd85f8e3          	bleu	s8,a1,8000bbd4 <i_11604>

000000008000bc08 <i_11616>:
    8000bc08:	eb810a83          	lb	s5,-328(sp)

000000008000bc0c <i_11617>:
    8000bc0c:	009a8e63          	beq	s5,s1,8000bc28 <i_11624>

000000008000bc10 <i_11618>:
    8000bc10:	003bc1b3          	xor	gp,s7,gp

000000008000bc14 <i_11619>:
    8000bc14:	0ec16183          	lwu	gp,236(sp)

000000008000bc18 <i_11620>:
    8000bc18:	11114903          	lbu	s2,273(sp)

000000008000bc1c <i_11621>:
    8000bc1c:	01da8ab3          	add	s5,s5,t4

000000008000bc20 <i_11622>:
    8000bc20:	01813e83          	ld	t4,24(sp)

000000008000bc24 <i_11623>:
    8000bc24:	0239beb3          	mulhu	t4,s3,gp

000000008000bc28 <i_11624>:
    8000bc28:	98c1b693          	sltiu	a3,gp,-1652

000000008000bc2c <i_11625>:
    8000bc2c:	1b813183          	ld	gp,440(sp)

000000008000bc30 <i_11626>:
    8000bc30:	02def6b3          	remu	a3,t4,a3

000000008000bc34 <i_11627>:
    8000bc34:	1c012783          	lw	a5,448(sp)

000000008000bc38 <i_11628>:
    8000bc38:	18710683          	lb	a3,391(sp)

000000008000bc3c <i_11629>:
    8000bc3c:	07e15183          	lhu	gp,126(sp)

000000008000bc40 <i_11630>:
    8000bc40:	00d1c0b3          	xor	ra,gp,a3

000000008000bc44 <i_11631>:
    8000bc44:	02d44f3b          	divw	t5,s0,a3

000000008000bc48 <i_11632>:
    8000bc48:	03ef46b3          	div	a3,t5,t5

000000008000bc4c <i_11633>:
    8000bc4c:	92808f13          	addi	t5,ra,-1752 # ffffffffd22ea928 <_end+0xffffffff522da514>

000000008000bc50 <i_11634>:
    8000bc50:	01000c13          	li	s8,16

000000008000bc54 <i_11635>:
    8000bc54:	0187d7bb          	srlw	a5,a5,s8

000000008000bc58 <i_11636>:
    8000bc58:	ee013f03          	ld	t5,-288(sp)

000000008000bc5c <i_11637>:
    8000bc5c:	0f811f03          	lh	t5,248(sp)

000000008000bc60 <i_11638>:
    8000bc60:	03e00a13          	li	s4,62

000000008000bc64 <i_11639>:
    8000bc64:	414a5eb3          	sra	t4,s4,s4

000000008000bc68 <i_11640>:
    8000bc68:	f5e12223          	sw	t5,-188(sp)

000000008000bc6c <i_11641>:
    8000bc6c:	01000993          	li	s3,16

000000008000bc70 <i_11642>:
    8000bc70:	413a5f3b          	sraw	t5,s4,s3

000000008000bc74 <i_11643>:
    8000bc74:	03dbfeb3          	remu	t4,s7,t4

000000008000bc78 <i_11644>:
    8000bc78:	03499463          	bne	s3,s4,8000bca0 <i_11654>

000000008000bc7c <i_11645>:
    8000bc7c:	e9a14383          	lbu	t2,-358(sp)

000000008000bc80 <i_11646>:
    8000bc80:	0db14983          	lbu	s3,219(sp)

000000008000bc84 <i_11647>:
    8000bc84:	e1c12e83          	lw	t4,-484(sp)

000000008000bc88 <i_11648>:
    8000bc88:	f1615403          	lhu	s0,-234(sp)

000000008000bc8c <i_11649>:
    8000bc8c:	07d11523          	sh	t4,106(sp)

000000008000bc90 <i_11650>:
    8000bc90:	1d813403          	ld	s0,472(sp)

000000008000bc94 <i_11651>:
    8000bc94:	0dd11123          	sh	t4,194(sp)

000000008000bc98 <i_11652>:
    8000bc98:	03398833          	mul	a6,s3,s3

000000008000bc9c <i_11653>:
    8000bc9c:	f9416203          	lwu	tp,-108(sp)

000000008000bca0 <i_11654>:
    8000bca0:	033849b3          	div	s3,a6,s3

000000008000bca4 <i_11655>:
    8000bca4:	00225b9b          	srliw	s7,tp,0x2

000000008000bca8 <i_11656>:
    8000bca8:	81200893          	li	a7,-2030

000000008000bcac <i_11657>:
    8000bcac:	81f00a13          	li	s4,-2017

000000008000bcb0 <i_11658>:
    8000bcb0:	00000013          	nop

000000008000bcb4 <i_11659>:
    8000bcb4:	004babb3          	slt	s7,s7,tp

000000008000bcb8 <i_11660>:
    8000bcb8:	03927063          	bleu	s9,tp,8000bcd8 <i_11667>

000000008000bcbc <i_11661>:
    8000bcbc:	00188893          	addi	a7,a7,1 # 2ae11001 <main-0x551eefff>
    8000bcc0:	ff1a58e3          	ble	a7,s4,8000bcb0 <i_11658>

000000008000bcc4 <i_11662>:
    8000bcc4:	17016883          	lwu	a7,368(sp)

000000008000bcc8 <i_11663>:
    8000bcc8:	01a00b13          	li	s6,26

000000008000bccc <i_11664>:
    8000bccc:	416fd233          	sra	tp,t6,s6

000000008000bcd0 <i_11665>:
    8000bcd0:	124e021b          	addiw	tp,t3,292

000000008000bcd4 <i_11666>:
    8000bcd4:	16014883          	lbu	a7,352(sp)

000000008000bcd8 <i_11667>:
    8000bcd8:	02280833          	mul	a6,a6,sp

000000008000bcdc <i_11668>:
    8000bcdc:	e3010723          	sb	a6,-466(sp)

000000008000bce0 <i_11669>:
    8000bce0:	0318e463          	bltu	a7,a7,8000bd08 <i_11679>

000000008000bce4 <i_11670>:
    8000bce4:	0171f333          	and	t1,gp,s7

000000008000bce8 <i_11671>:
    8000bce8:	027883b3          	mul	t2,a7,t2

000000008000bcec <i_11672>:
    8000bcec:	01100e13          	li	t3,17

000000008000bcf0 <i_11673>:
    8000bcf0:	01c21dbb          	sllw	s11,tp,t3

000000008000bcf4 <i_11674>:
    8000bcf4:	004bcb33          	xor	s6,s7,tp

000000008000bcf8 <i_11675>:
    8000bcf8:	c798ca13          	xori	s4,a7,-903

000000008000bcfc <i_11676>:
    8000bcfc:	e3c16803          	lwu	a6,-452(sp)

000000008000bd00 <i_11677>:
    8000bd00:	f0215c83          	lhu	s9,-254(sp)

000000008000bd04 <i_11678>:
    8000bd04:	17710c03          	lb	s8,375(sp)

000000008000bd08 <i_11679>:
    8000bd08:	fc7105a3          	sb	t2,-53(sp)

000000008000bd0c <i_11680>:
    8000bd0c:	10710803          	lb	a6,263(sp)

000000008000bd10 <i_11681>:
    8000bd10:	f4415e03          	lhu	t3,-188(sp)

000000008000bd14 <i_11682>:
    8000bd14:	f7012383          	lw	t2,-144(sp)

000000008000bd18 <i_11683>:
    8000bd18:	010c0e63          	beq	s8,a6,8000bd34 <i_11690>

000000008000bd1c <i_11684>:
    8000bd1c:	0028539b          	srliw	t2,a6,0x2

000000008000bd20 <i_11685>:
    8000bd20:	404ddd93          	srai	s11,s11,0x4

000000008000bd24 <i_11686>:
    8000bd24:	00780663          	beq	a6,t2,8000bd30 <i_11689>

000000008000bd28 <i_11687>:
    8000bd28:	02781733          	mulh	a4,a6,t2

000000008000bd2c <i_11688>:
    8000bd2c:	0ac12c83          	lw	s9,172(sp)

000000008000bd30 <i_11689>:
    8000bd30:	01bc5c63          	ble	s11,s8,8000bd48 <i_11695>

000000008000bd34 <i_11690>:
    8000bd34:	ffc16d83          	lwu	s11,-4(sp)

000000008000bd38 <i_11691>:
    8000bd38:	1b012903          	lw	s2,432(sp)

000000008000bd3c <i_11692>:
    8000bd3c:	ff5a2a13          	slti	s4,s4,-11

000000008000bd40 <i_11693>:
    8000bd40:	0f4106a3          	sb	s4,237(sp)

000000008000bd44 <i_11694>:
    8000bd44:	0f210ca3          	sb	s2,249(sp)

000000008000bd48 <i_11695>:
    8000bd48:	012a4333          	xor	t1,s4,s2

000000008000bd4c <i_11696>:
    8000bd4c:	e7c12903          	lw	s2,-388(sp)

000000008000bd50 <i_11697>:
    8000bd50:	012ea933          	slt	s2,t4,s2

000000008000bd54 <i_11698>:
    8000bd54:	01230663          	beq	t1,s2,8000bd60 <i_11701>

000000008000bd58 <i_11699>:
    8000bd58:	00b14903          	lbu	s2,11(sp)

000000008000bd5c <i_11700>:
    8000bd5c:	036f7913          	andi	s2,t5,54

000000008000bd60 <i_11701>:
    8000bd60:	11415483          	lhu	s1,276(sp)

000000008000bd64 <i_11702>:
    8000bd64:	0019159b          	slliw	a1,s2,0x1

000000008000bd68 <i_11703>:
    8000bd68:	013be933          	or	s2,s7,s3

000000008000bd6c <i_11704>:
    8000bd6c:	7a700993          	li	s3,1959

000000008000bd70 <i_11705>:
    8000bd70:	7b200313          	li	t1,1970

000000008000bd74 <i_11706>:
    8000bd74:	00198993          	addi	s3,s3,1
    8000bd78:	fe69cee3          	blt	s3,t1,8000bd74 <i_11706>

000000008000bd7c <i_11707>:
    8000bd7c:	01287933          	and	s2,a6,s2

000000008000bd80 <i_11708>:
    8000bd80:	02813583          	ld	a1,40(sp)

000000008000bd84 <i_11709>:
    8000bd84:	ee610583          	lb	a1,-282(sp)

000000008000bd88 <i_11710>:
    8000bd88:	00bb1263          	bne	s6,a1,8000bd8c <i_11711>

000000008000bd8c <i_11711>:
    8000bd8c:	e3611423          	sh	s6,-472(sp)

000000008000bd90 <i_11712>:
    8000bd90:	03710583          	lb	a1,55(sp)

000000008000bd94 <i_11713>:
    8000bd94:	e4b12823          	sw	a1,-432(sp)

000000008000bd98 <i_11714>:
    8000bd98:	17611383          	lh	t2,374(sp)

000000008000bd9c <i_11715>:
    8000bd9c:	ef813a03          	ld	s4,-264(sp)

000000008000bda0 <i_11716>:
    8000bda0:	0023d69b          	srliw	a3,t2,0x2

000000008000bda4 <i_11717>:
    8000bda4:	ec110383          	lb	t2,-319(sp)

000000008000bda8 <i_11718>:
    8000bda8:	8a000a13          	li	s4,-1888

000000008000bdac <i_11719>:
    8000bdac:	8ab00c13          	li	s8,-1877

000000008000bdb0 <i_11720>:
    8000bdb0:	001a0a13          	addi	s4,s4,1 # 1e156001 <main-0x61ea9fff>
    8000bdb4:	ff4c5ee3          	ble	s4,s8,8000bdb0 <i_11720>

000000008000bdb8 <i_11721>:
    8000bdb8:	0273d7bb          	divuw	a5,t2,t2

000000008000bdbc <i_11722>:
    8000bdbc:	0246c23b          	divw	tp,a3,tp

000000008000bdc0 <i_11723>:
    8000bdc0:	00f12023          	sw	a5,0(sp)

000000008000bdc4 <i_11724>:
    8000bdc4:	11012203          	lw	tp,272(sp)

000000008000bdc8 <i_11725>:
    8000bdc8:	02d68063          	beq	a3,a3,8000bde8 <i_11733>

000000008000bdcc <i_11726>:
    8000bdcc:	08711523          	sh	t2,138(sp)

000000008000bdd0 <i_11727>:
    8000bdd0:	01a00393          	li	t2,26

000000008000bdd4 <i_11728>:
    8000bdd4:	40725833          	sra	a6,tp,t2

000000008000bdd8 <i_11729>:
    8000bdd8:	02416083          	lwu	ra,36(sp)

000000008000bddc <i_11730>:
    8000bddc:	f7811683          	lh	a3,-136(sp)

000000008000bde0 <i_11731>:
    8000bde0:	12c12c03          	lw	s8,300(sp)

000000008000bde4 <i_11732>:
    8000bde4:	e2410e23          	sb	tp,-452(sp)

000000008000bde8 <i_11733>:
    8000bde8:	891c2f13          	slti	t5,s8,-1903

000000008000bdec <i_11734>:
    8000bdec:	17c16383          	lwu	t2,380(sp)

000000008000bdf0 <i_11735>:
    8000bdf0:	80700813          	li	a6,-2041

000000008000bdf4 <i_11736>:
    8000bdf4:	81b00093          	li	ra,-2021

000000008000bdf8 <i_11737>:
    8000bdf8:	e84106a3          	sb	tp,-371(sp)

000000008000bdfc <i_11738>:
    8000bdfc:	00000013          	nop

000000008000be00 <i_11739>:
    8000be00:	00180813          	addi	a6,a6,1
    8000be04:	fe184ae3          	blt	a6,ra,8000bdf8 <i_11737>

000000008000be08 <i_11740>:
    8000be08:	0260e83b          	remw	a6,ra,t1

000000008000be0c <i_11741>:
    8000be0c:	001f5e63          	ble	ra,t5,8000be28 <i_11748>

000000008000be10 <i_11742>:
    8000be10:	00d6f263          	bleu	a3,a3,8000be14 <i_11743>

000000008000be14 <i_11743>:
    8000be14:	024f4e3b          	divw	t3,t5,tp

000000008000be18 <i_11744>:
    8000be18:	029153bb          	divuw	t2,sp,s1

000000008000be1c <i_11745>:
    8000be1c:	2586c393          	xori	t2,a3,600

000000008000be20 <i_11746>:
    8000be20:	03010f23          	sb	a6,62(sp)

000000008000be24 <i_11747>:
    8000be24:	fd215683          	lhu	a3,-46(sp)

000000008000be28 <i_11748>:
    8000be28:	01d00b13          	li	s6,29

000000008000be2c <i_11749>:
    8000be2c:	01669e3b          	sllw	t3,a3,s6

000000008000be30 <i_11750>:
    8000be30:	05613c23          	sd	s6,88(sp)

000000008000be34 <i_11751>:
    8000be34:	0166da63          	ble	s6,a3,8000be48 <i_11756>

000000008000be38 <i_11752>:
    8000be38:	00bb26b3          	slt	a3,s6,a1

000000008000be3c <i_11753>:
    8000be3c:	08016f03          	lwu	t5,128(sp)

000000008000be40 <i_11754>:
    8000be40:	6392fd13          	andi	s10,t0,1593

000000008000be44 <i_11755>:
    8000be44:	ed510f03          	lb	t5,-299(sp)

000000008000be48 <i_11756>:
    8000be48:	01ef0633          	add	a2,t5,t5

000000008000be4c <i_11757>:
    8000be4c:	03a6e9bb          	remw	s3,a3,s10

000000008000be50 <i_11758>:
    8000be50:	00d00d13          	li	s10,13

000000008000be54 <i_11759>:
    8000be54:	01af5f33          	srl	t5,t5,s10

000000008000be58 <i_11760>:
    8000be58:	09a43413          	sltiu	s0,s0,154

000000008000be5c <i_11761>:
    8000be5c:	11310a23          	sb	s3,276(sp)

000000008000be60 <i_11762>:
    8000be60:	00d46a63          	bltu	s0,a3,8000be74 <i_11767>

000000008000be64 <i_11763>:
    8000be64:	15c11983          	lh	s3,348(sp)

000000008000be68 <i_11764>:
    8000be68:	0019931b          	slliw	t1,s3,0x1

000000008000be6c <i_11765>:
    8000be6c:	24e02337          	lui	t1,0x24e02

000000008000be70 <i_11766>:
    8000be70:	1b815403          	lhu	s0,440(sp)

000000008000be74 <i_11767>:
    8000be74:	00e98eb3          	add	t4,s3,a4

000000008000be78 <i_11768>:
    8000be78:	298fceb7          	lui	t4,0x298fc

000000008000be7c <i_11769>:
    8000be7c:	0b210183          	lb	gp,178(sp)

000000008000be80 <i_11770>:
    8000be80:	006eb333          	sltu	t1,t4,t1

000000008000be84 <i_11771>:
    8000be84:	0c510703          	lb	a4,197(sp)

000000008000be88 <i_11772>:
    8000be88:	02600993          	li	s3,38

000000008000be8c <i_11773>:
    8000be8c:	01331333          	sll	t1,t1,s3

000000008000be90 <i_11774>:
    8000be90:	e1c14683          	lbu	a3,-484(sp)

000000008000be94 <i_11775>:
    8000be94:	e0610e23          	sb	t1,-484(sp)

000000008000be98 <i_11776>:
    8000be98:	19813803          	ld	a6,408(sp)

000000008000be9c <i_11777>:
    8000be9c:	03412183          	lw	gp,52(sp)

000000008000bea0 <i_11778>:
    8000bea0:	03034f3b          	divw	t5,t1,a6

000000008000bea4 <i_11779>:
    8000bea4:	85600093          	li	ra,-1962

000000008000bea8 <i_11780>:
    8000bea8:	86a00713          	li	a4,-1942

000000008000beac <i_11781>:
    8000beac:	1da13423          	sd	s10,456(sp)

000000008000beb0 <i_11782>:
    8000beb0:	02e77263          	bleu	a4,a4,8000bed4 <i_11791>

000000008000beb4 <i_11783>:
    8000beb4:	037ff063          	bleu	s7,t6,8000bed4 <i_11791>

000000008000beb8 <i_11784>:
    8000beb8:	00e37a63          	bleu	a4,t1,8000becc <i_11789>

000000008000bebc <i_11785>:
    8000bebc:	fbe15f83          	lhu	t6,-66(sp)

000000008000bec0 <i_11786>:
    8000bec0:	03e3ebb3          	rem	s7,t2,t5

000000008000bec4 <i_11787>:
    8000bec4:	01ef4633          	xor	a2,t5,t5

000000008000bec8 <i_11788>:
    8000bec8:	037601b3          	mul	gp,a2,s7

000000008000becc <i_11789>:
    8000becc:	07a14f03          	lbu	t5,122(sp)

000000008000bed0 <i_11790>:
    8000bed0:	b544f597          	auipc	a1,0xb544f

000000008000bed4 <i_11791>:
    8000bed4:	001b9b9b          	slliw	s7,s7,0x1

000000008000bed8 <i_11792>:
    8000bed8:	037b4bbb          	divw	s7,s6,s7

000000008000bedc <i_11793>:
    8000bedc:	00108093          	addi	ra,ra,1
    8000bee0:	fc1716e3          	bne	a4,ra,8000beac <i_11781>

000000008000bee4 <i_11794>:
    8000bee4:	11c16603          	lwu	a2,284(sp)

000000008000bee8 <i_11795>:
    8000bee8:	4f9b0b13          	addi	s6,s6,1273

000000008000beec <i_11796>:
    8000beec:	e5811d03          	lh	s10,-424(sp)

000000008000bef0 <i_11797>:
    8000bef0:	037b7d33          	remu	s10,s6,s7

000000008000bef4 <i_11798>:
    8000bef4:	e8b10183          	lb	gp,-373(sp)

000000008000bef8 <i_11799>:
    8000bef8:	036d5263          	ble	s6,s10,8000bf1c <i_11808>

000000008000befc <i_11800>:
    8000befc:	11813b83          	ld	s7,280(sp)

000000008000bf00 <i_11801>:
    8000bf00:	4161863b          	subw	a2,gp,s6

000000008000bf04 <i_11802>:
    8000bf04:	1b310b83          	lb	s7,435(sp)

000000008000bf08 <i_11803>:
    8000bf08:	09314b03          	lbu	s6,147(sp)

000000008000bf0c <i_11804>:
    8000bf0c:	02c64263          	blt	a2,a2,8000bf30 <i_11813>

000000008000bf10 <i_11805>:
    8000bf10:	d1c1bf13          	sltiu	t5,gp,-740

000000008000bf14 <i_11806>:
    8000bf14:	0b615f03          	lhu	t5,182(sp)

000000008000bf18 <i_11807>:
    8000bf18:	fe215703          	lhu	a4,-30(sp)

000000008000bf1c <i_11808>:
    8000bf1c:	f8815f03          	lhu	t5,-120(sp)

000000008000bf20 <i_11809>:
    8000bf20:	022dbdb3          	mulhu	s11,s11,sp

000000008000bf24 <i_11810>:
    8000bf24:	02e6e263          	bltu	a3,a4,8000bf48 <i_11819>

000000008000bf28 <i_11811>:
    8000bf28:	03620a33          	mul	s4,tp,s6

000000008000bf2c <i_11812>:
    8000bf2c:	01213023          	sd	s2,0(sp)

000000008000bf30 <i_11813>:
    8000bf30:	00ef5663          	ble	a4,t5,8000bf3c <i_11816>

000000008000bf34 <i_11814>:
    8000bf34:	ee114e83          	lbu	t4,-287(sp)

000000008000bf38 <i_11815>:
    8000bf38:	1db13c23          	sd	s11,472(sp)

000000008000bf3c <i_11816>:
    8000bf3c:	023f0463          	beq	t5,gp,8000bf64 <i_11826>

000000008000bf40 <i_11817>:
    8000bf40:	17b13823          	sd	s11,368(sp)

000000008000bf44 <i_11818>:
    8000bf44:	00000013          	nop

000000008000bf48 <i_11819>:
    8000bf48:	15812e83          	lw	t4,344(sp)

000000008000bf4c <i_11820>:
    8000bf4c:	03de8ebb          	mulw	t4,t4,t4

000000008000bf50 <i_11821>:
    8000bf50:	f9416e83          	lwu	t4,-108(sp)

000000008000bf54 <i_11822>:
    8000bf54:	03dec0bb          	divw	ra,t4,t4

000000008000bf58 <i_11823>:
    8000bf58:	10913023          	sd	s1,256(sp)

000000008000bf5c <i_11824>:
    8000bf5c:	d0773317          	auipc	t1,0xd0773

000000008000bf60 <i_11825>:
    8000bf60:	e4b10583          	lb	a1,-437(sp)

000000008000bf64 <i_11826>:
    8000bf64:	0264d5bb          	divuw	a1,s1,t1

000000008000bf68 <i_11827>:
    8000bf68:	00000013          	nop

000000008000bf6c <i_11828>:
    8000bf6c:	8ad00f13          	li	t5,-1875

000000008000bf70 <i_11829>:
    8000bf70:	8b500d93          	li	s11,-1867

000000008000bf74 <i_11830>:
    8000bf74:	00000013          	nop

000000008000bf78 <i_11831>:
    8000bf78:	026ee463          	bltu	t4,t1,8000bfa0 <i_11840>

000000008000bf7c <i_11832>:
    8000bf7c:	00000013          	nop

000000008000bf80 <i_11833>:
    8000bf80:	eed14e83          	lbu	t4,-275(sp)

000000008000bf84 <i_11834>:
    8000bf84:	1bd11623          	sh	t4,428(sp)

000000008000bf88 <i_11835>:
    8000bf88:	f5812a83          	lw	s5,-168(sp)

000000008000bf8c <i_11836>:
    8000bf8c:	f6c10083          	lb	ra,-148(sp)

000000008000bf90 <i_11837>:
    8000bf90:	001f0f13          	addi	t5,t5,1
    8000bf94:	ffedd0e3          	ble	t5,s11,8000bf74 <i_11830>

000000008000bf98 <i_11838>:
    8000bf98:	03de4e33          	div	t3,t3,t4

000000008000bf9c <i_11839>:
    8000bf9c:	03ce8ebb          	mulw	t4,t4,t3

000000008000bfa0 <i_11840>:
    8000bfa0:	03dedebb          	divuw	t4,t4,t4

000000008000bfa4 <i_11841>:
    8000bfa4:	004ed593          	srli	a1,t4,0x4

000000008000bfa8 <i_11842>:
    8000bfa8:	02bfffbb          	remuw	t6,t6,a1

000000008000bfac <i_11843>:
    8000bfac:	03fecfbb          	divw	t6,t4,t6

000000008000bfb0 <i_11844>:
    8000bfb0:	fcb12023          	sw	a1,-64(sp)

000000008000bfb4 <i_11845>:
    8000bfb4:	eff13823          	sd	t6,-272(sp)

000000008000bfb8 <i_11846>:
    8000bfb8:	01fe9263          	bne	t4,t6,8000bfbc <i_11847>

000000008000bfbc <i_11847>:
    8000bfbc:	07c16d83          	lwu	s11,124(sp)

000000008000bfc0 <i_11848>:
    8000bfc0:	020fa593          	slti	a1,t6,32

000000008000bfc4 <i_11849>:
    8000bfc4:	0ab13423          	sd	a1,168(sp)

000000008000bfc8 <i_11850>:
    8000bfc8:	41b581bb          	subw	gp,a1,s11

000000008000bfcc <i_11851>:
    8000bfcc:	01b5fdb3          	and	s11,a1,s11

000000008000bfd0 <i_11852>:
    8000bfd0:	00000013          	nop

000000008000bfd4 <i_11853>:
    8000bfd4:	83700f93          	li	t6,-1993

000000008000bfd8 <i_11854>:
    8000bfd8:	84700593          	li	a1,-1977

000000008000bfdc <i_11855>:
    8000bfdc:	00b18c63          	beq	gp,a1,8000bff4 <i_11861>

000000008000bfe0 <i_11856>:
    8000bfe0:	e9810703          	lb	a4,-360(sp)

000000008000bfe4 <i_11857>:
    8000bfe4:	fee13023          	sd	a4,-32(sp)

000000008000bfe8 <i_11858>:
    8000bfe8:	01e00413          	li	s0,30

000000008000bfec <i_11859>:
    8000bfec:	008599bb          	sllw	s3,a1,s0

000000008000bff0 <i_11860>:
    8000bff0:	f3e10883          	lb	a7,-194(sp)

000000008000bff4 <i_11861>:
    8000bff4:	00000013          	nop

000000008000bff8 <i_11862>:
    8000bff8:	fc414c83          	lbu	s9,-60(sp)

000000008000bffc <i_11863>:
    8000bffc:	ffc12a83          	lw	s5,-4(sp)

000000008000c000 <i_11864>:
    8000c000:	f1d10703          	lb	a4,-227(sp)

000000008000c004 <i_11865>:
    8000c004:	00800793          	li	a5,8

000000008000c008 <i_11866>:
    8000c008:	00f8d9bb          	srlw	s3,a7,a5

000000008000c00c <i_11867>:
    8000c00c:	03a5d463          	ble	s10,a1,8000c034 <i_11876>

000000008000c010 <i_11868>:
    8000c010:	00000013          	nop

000000008000c014 <i_11869>:
    8000c014:	fb013683          	ld	a3,-80(sp)

000000008000c018 <i_11870>:
    8000c018:	001f8f93          	addi	t6,t6,1
    8000c01c:	fdf5f0e3          	bleu	t6,a1,8000bfdc <i_11855>

000000008000c020 <i_11871>:
    8000c020:	f3016783          	lwu	a5,-208(sp)

000000008000c024 <i_11872>:
    8000c024:	8fa78417          	auipc	s0,0x8fa78

000000008000c028 <i_11873>:
    8000c028:	0e310803          	lb	a6,227(sp)

000000008000c02c <i_11874>:
    8000c02c:	0ad10e03          	lb	t3,173(sp)

000000008000c030 <i_11875>:
    8000c030:	fe011803          	lh	a6,-32(sp)

000000008000c034 <i_11876>:
    8000c034:	0c415c83          	lhu	s9,196(sp)

000000008000c038 <i_11877>:
    8000c038:	f2416403          	lwu	s0,-220(sp)

000000008000c03c <i_11878>:
    8000c03c:	0c611403          	lh	s0,198(sp)

000000008000c040 <i_11879>:
    8000c040:	01c46663          	bltu	s0,t3,8000c04c <i_11882>

000000008000c044 <i_11880>:
    8000c044:	0f816d03          	lwu	s10,248(sp)

000000008000c048 <i_11881>:
    8000c048:	fe812803          	lw	a6,-24(sp)

000000008000c04c <i_11882>:
    8000c04c:	008477b3          	and	a5,s0,s0

000000008000c050 <i_11883>:
    8000c050:	0281b1b3          	mulhu	gp,gp,s0

000000008000c054 <i_11884>:
    8000c054:	02886b3b          	remw	s6,a6,s0

000000008000c058 <i_11885>:
    8000c058:	02685463          	ble	t1,a6,8000c080 <i_11895>

000000008000c05c <i_11886>:
    8000c05c:	019e7e63          	bleu	s9,t3,8000c078 <i_11893>

000000008000c060 <i_11887>:
    8000c060:	002c969b          	slliw	a3,s9,0x2

000000008000c064 <i_11888>:
    8000c064:	02347e33          	remu	t3,s0,gp

000000008000c068 <i_11889>:
    8000c068:	01400393          	li	t2,20

000000008000c06c <i_11890>:
    8000c06c:	0076993b          	sllw	s2,a3,t2

000000008000c070 <i_11891>:
    8000c070:	00013f03          	ld	t5,0(sp)

000000008000c074 <i_11892>:
    8000c074:	00814663          	blt	sp,s0,8000c080 <i_11895>

000000008000c078 <i_11893>:
    8000c078:	3911869b          	addiw	a3,gp,913

000000008000c07c <i_11894>:
    8000c07c:	f7612623          	sw	s6,-148(sp)

000000008000c080 <i_11895>:
    8000c080:	02d801b3          	mul	gp,a6,a3

000000008000c084 <i_11896>:
    8000c084:	41940f33          	sub	t5,s0,s9

000000008000c088 <i_11897>:
    8000c088:	035b693b          	remw	s2,s6,s5

000000008000c08c <i_11898>:
    8000c08c:	032e6463          	bltu	t3,s2,8000c0b4 <i_11908>

000000008000c090 <i_11899>:
    8000c090:	03cb5f33          	divu	t5,s6,t3

000000008000c094 <i_11900>:
    8000c094:	0fa15e03          	lhu	t3,250(sp)

000000008000c098 <i_11901>:
    8000c098:	03910503          	lb	a0,57(sp)

000000008000c09c <i_11902>:
    8000c09c:	00411863          	bne	sp,tp,8000c0ac <i_11906>

000000008000c0a0 <i_11903>:
    8000c0a0:	01a00513          	li	a0,26

000000008000c0a4 <i_11904>:
    8000c0a4:	00a51e3b          	sllw	t3,a0,a0

000000008000c0a8 <i_11905>:
    8000c0a8:	09013a03          	ld	s4,144(sp)

000000008000c0ac <i_11906>:
    8000c0ac:	1d813f83          	ld	t6,472(sp)

000000008000c0b0 <i_11907>:
    8000c0b0:	0b013503          	ld	a0,176(sp)

000000008000c0b4 <i_11908>:
    8000c0b4:	16a10823          	sb	a0,368(sp)

000000008000c0b8 <i_11909>:
    8000c0b8:	01456863          	bltu	a0,s4,8000c0c8 <i_11913>

000000008000c0bc <i_11910>:
    8000c0bc:	02afe53b          	remw	a0,t6,a0

000000008000c0c0 <i_11911>:
    8000c0c0:	e8a11203          	lh	tp,-374(sp)

000000008000c0c4 <i_11912>:
    8000c0c4:	f7811c03          	lh	s8,-136(sp)

000000008000c0c8 <i_11913>:
    8000c0c8:	00afd663          	ble	a0,t6,8000c0d4 <i_11916>

000000008000c0cc <i_11914>:
    8000c0cc:	00300213          	li	tp,3

000000008000c0d0 <i_11915>:
    8000c0d0:	004a5fb3          	srl	t6,s4,tp

000000008000c0d4 <i_11916>:
    8000c0d4:	d5e20b93          	addi	s7,tp,-674 # fffffffffffffd5e <_end+0xffffffff7ffef94a>

000000008000c0d8 <i_11917>:
    8000c0d8:	00e00f93          	li	t6,14

000000008000c0dc <i_11918>:
    8000c0dc:	41f5573b          	sraw	a4,a0,t6

000000008000c0e0 <i_11919>:
    8000c0e0:	017f8463          	beq	t6,s7,8000c0e8 <i_11921>

000000008000c0e4 <i_11920>:
    8000c0e4:	00900a93          	li	s5,9

000000008000c0e8 <i_11921>:
    8000c0e8:	015b9fb3          	sll	t6,s7,s5

000000008000c0ec <i_11922>:
    8000c0ec:	035bcfbb          	divw	t6,s7,s5

000000008000c0f0 <i_11923>:
    8000c0f0:	00000013          	nop

000000008000c0f4 <i_11924>:
    8000c0f4:	00000013          	nop

000000008000c0f8 <i_11925>:
    8000c0f8:	75700b93          	li	s7,1879

000000008000c0fc <i_11926>:
    8000c0fc:	75d00a93          	li	s5,1885

000000008000c100 <i_11927>:
    8000c100:	eec14f83          	lbu	t6,-276(sp)

000000008000c104 <i_11928>:
    8000c104:	eff12c23          	sw	t6,-264(sp)

000000008000c108 <i_11929>:
    8000c108:	017b9a63          	bne	s7,s7,8000c11c <i_11934>

000000008000c10c <i_11930>:
    8000c10c:	015a9663          	bne	s5,s5,8000c118 <i_11933>

000000008000c110 <i_11931>:
    8000c110:	017aa9b3          	slt	s3,s5,s7

000000008000c114 <i_11932>:
    8000c114:	00900f93          	li	t6,9

000000008000c118 <i_11933>:
    8000c118:	41ffd833          	sra	a6,t6,t6

000000008000c11c <i_11934>:
    8000c11c:	0017171b          	slliw	a4,a4,0x1

000000008000c120 <i_11935>:
    8000c120:	03f70fbb          	mulw	t6,a4,t6

000000008000c124 <i_11936>:
    8000c124:	f5810383          	lb	t2,-168(sp)

000000008000c128 <i_11937>:
    8000c128:	00000013          	nop

000000008000c12c <i_11938>:
    8000c12c:	09816d83          	lwu	s11,152(sp)

000000008000c130 <i_11939>:
    8000c130:	001b8b93          	addi	s7,s7,1
    8000c134:	fd5bc6e3          	blt	s7,s5,8000c100 <i_11927>

000000008000c138 <i_11940>:
    8000c138:	07d13c23          	sd	t4,120(sp)

000000008000c13c <i_11941>:
    8000c13c:	1be11a83          	lh	s5,446(sp)

000000008000c140 <i_11942>:
    8000c140:	11d14a83          	lbu	s5,285(sp)

000000008000c144 <i_11943>:
    8000c144:	002e5d1b          	srliw	s10,t3,0x2

000000008000c148 <i_11944>:
    8000c148:	4ddaba93          	sltiu	s5,s5,1245

000000008000c14c <i_11945>:
    8000c14c:	eb513423          	sd	s5,-344(sp)

000000008000c150 <i_11946>:
    8000c150:	eb512423          	sw	s5,-344(sp)

000000008000c154 <i_11947>:
    8000c154:	07511d23          	sh	s5,122(sp)

000000008000c158 <i_11948>:
    8000c158:	013af5b3          	and	a1,s5,s3

000000008000c15c <i_11949>:
    8000c15c:	036a8063          	beq	s5,s6,8000c17c <i_11957>

000000008000c160 <i_11950>:
    8000c160:	7dea8b13          	addi	s6,s5,2014

000000008000c164 <i_11951>:
    8000c164:	15510423          	sb	s5,328(sp)

000000008000c168 <i_11952>:
    8000c168:	ede15a83          	lhu	s5,-290(sp)

000000008000c16c <i_11953>:
    8000c16c:	0365f463          	bleu	s6,a1,8000c194 <i_11963>

000000008000c170 <i_11954>:
    8000c170:	0036da9b          	srliw	s5,a3,0x3

000000008000c174 <i_11955>:
    8000c174:	015b6263          	bltu	s6,s5,8000c178 <i_11956>

000000008000c178 <i_11956>:
    8000c178:	e2c16683          	lwu	a3,-468(sp)

000000008000c17c <i_11957>:
    8000c17c:	002b4263          	blt	s6,sp,8000c180 <i_11958>

000000008000c180 <i_11958>:
    8000c180:	e7e14683          	lbu	a3,-386(sp)

000000008000c184 <i_11959>:
    8000c184:	fff10783          	lb	a5,-1(sp)

000000008000c188 <i_11960>:
    8000c188:	01ce0463          	beq	t3,t3,8000c190 <i_11962>

000000008000c18c <i_11961>:
    8000c18c:	415785b3          	sub	a1,a5,s5

000000008000c190 <i_11962>:
    8000c190:	fd011c03          	lh	s8,-48(sp)

000000008000c194 <i_11963>:
    8000c194:	00f5e7b3          	or	a5,a1,a5

000000008000c198 <i_11964>:
    8000c198:	0ef10b23          	sb	a5,246(sp)

000000008000c19c <i_11965>:
    8000c19c:	00f787b3          	add	a5,a5,a5

000000008000c1a0 <i_11966>:
    8000c1a0:	08f11323          	sh	a5,134(sp)

000000008000c1a4 <i_11967>:
    8000c1a4:	02f79c33          	mulh	s8,a5,a5

000000008000c1a8 <i_11968>:
    8000c1a8:	0387a733          	mulhsu	a4,a5,s8

000000008000c1ac <i_11969>:
    8000c1ac:	4027d793          	srai	a5,a5,0x2

000000008000c1b0 <i_11970>:
    8000c1b0:	03e7e7b3          	rem	a5,a5,t5

000000008000c1b4 <i_11971>:
    8000c1b4:	02f759bb          	divuw	s3,a4,a5

000000008000c1b8 <i_11972>:
    8000c1b8:	03398f33          	mul	t5,s3,s3

000000008000c1bc <i_11973>:
    8000c1bc:	01000293          	li	t0,16

000000008000c1c0 <i_11974>:
    8000c1c0:	405f5c3b          	sraw	s8,t5,t0

000000008000c1c4 <i_11975>:
    8000c1c4:	03400c93          	li	s9,52

000000008000c1c8 <i_11976>:
    8000c1c8:	4199d9b3          	sra	s3,s3,s9

000000008000c1cc <i_11977>:
    8000c1cc:	01328663          	beq	t0,s3,8000c1d8 <i_11980>

000000008000c1d0 <i_11978>:
    8000c1d0:	e9014903          	lbu	s2,-368(sp)

000000008000c1d4 <i_11979>:
    8000c1d4:	f2411283          	lh	t0,-220(sp)

000000008000c1d8 <i_11980>:
    8000c1d8:	00a97863          	bleu	a0,s2,8000c1e8 <i_11984>

000000008000c1dc <i_11981>:
    8000c1dc:	f1d14903          	lbu	s2,-227(sp)

000000008000c1e0 <i_11982>:
    8000c1e0:	f4815b83          	lhu	s7,-184(sp)

000000008000c1e4 <i_11983>:
    8000c1e4:	78308b97          	auipc	s7,0x78308

000000008000c1e8 <i_11984>:
    8000c1e8:	00000013          	nop

000000008000c1ec <i_11985>:
    8000c1ec:	f1712a23          	sw	s7,-236(sp)

000000008000c1f0 <i_11986>:
    8000c1f0:	85a00713          	li	a4,-1958

000000008000c1f4 <i_11987>:
    8000c1f4:	86900893          	li	a7,-1943

000000008000c1f8 <i_11988>:
    8000c1f8:	0ec16b03          	lwu	s6,236(sp)

000000008000c1fc <i_11989>:
    8000c1fc:	01670933          	add	s2,a4,s6

000000008000c200 <i_11990>:
    8000c200:	80300b93          	li	s7,-2045

000000008000c204 <i_11991>:
    8000c204:	81500c13          	li	s8,-2027

000000008000c208 <i_11992>:
    8000c208:	004c191b          	slliw	s2,s8,0x4

000000008000c20c <i_11993>:
    8000c20c:	1a510603          	lb	a2,421(sp)

000000008000c210 <i_11994>:
    8000c210:	00000013          	nop

000000008000c214 <i_11995>:
    8000c214:	00000013          	nop

000000008000c218 <i_11996>:
    8000c218:	001b8b93          	addi	s7,s7,1 # f83141e5 <_end+0x78303dd1>
    8000c21c:	ff7c76e3          	bleu	s7,s8,8000c208 <i_11992>

000000008000c220 <i_11997>:
    8000c220:	00c109a3          	sb	a2,19(sp)

000000008000c224 <i_11998>:
    8000c224:	fc215a83          	lhu	s5,-62(sp)

000000008000c228 <i_11999>:
    8000c228:	02f9e7bb          	remw	a5,s3,a5

000000008000c22c <i_12000>:
    8000c22c:	00000013          	nop

000000008000c230 <i_12001>:
    8000c230:	00000013          	nop

000000008000c234 <i_12002>:
    8000c234:	00000013          	nop

000000008000c238 <i_12003>:
    8000c238:	00000013          	nop

000000008000c23c <i_12004>:
    8000c23c:	00000013          	nop

000000008000c240 <i_12005>:
    8000c240:	00000013          	nop

000000008000c244 <i_12006>:
    8000c244:	00000013          	nop

000000008000c248 <i_12007>:
    8000c248:	00000013          	nop

000000008000c24c <i_12008>:
    8000c24c:	00000013          	nop

000000008000c250 <i_12009>:
    8000c250:	00000013          	nop
    8000c254:	0040006f          	j	8000c258 <tohost_exit>

000000008000c258 <tohost_exit>:
    8000c258:	00100113          	li	sp,1
    8000c25c:	01f11113          	slli	sp,sp,0x1f
    8000c260:	000101b7          	lui	gp,0x10
    8000c264:	00310133          	add	sp,sp,gp
    8000c268:	00100713          	li	a4,1
    8000c26c:	40e12023          	sw	a4,1024(sp)

000000008000c270 <loop>:
    8000c270:	0000006f          	j	8000c270 <loop>

Disassembly of section .data:

0000000080010000 <data>:
    80010000:	0d6692eb          	0xd6692eb
    80010004:	8091                	srli	s1,s1,0x4
    80010006:	f0a6                	sd	s1,96(sp)
    80010008:	7654                	ld	a3,168(a2)
    8001000a:	af0a                	fsd	ft2,408(sp)
    8001000c:	8759                	srai	a4,a4,0x16
    8001000e:	07ba                	slli	a5,a5,0xe
    80010010:	8c00                	0x8c00
    80010012:	8648                	0x8648
    80010014:	5dfd                	li	s11,-1
    80010016:	4535                	li	a0,13
    80010018:	232e0a77          	0x232e0a77
    8001001c:	38d2                	fld	fa7,304(sp)
    8001001e:	77d86b8b          	0x77d86b8b
    80010022:	8ea9                	xor	a3,a3,a0
    80010024:	32cd                	addiw	t0,t0,-13
    80010026:	2074                	fld	fa3,192(s0)
    80010028:	6ee4                	ld	s1,216(a3)
    8001002a:	c26c                	sw	a1,68(a2)
    8001002c:	afe9                	j	80010806 <_end+0x3f2>
    8001002e:	3f82                	fld	ft11,32(sp)
    80010030:	0a154fe3          	blt	a0,ra,800108ee <_end+0x4da>
    80010034:	ab1c                	fsd	fa5,16(a4)
    80010036:	76a9                	lui	a3,0xfffea
    80010038:	f100                	sd	s0,32(a0)
    8001003a:	b1b1                	j	8000fc86 <loop+0x3a16>
    8001003c:	ca72                	sw	t3,20(sp)
    8001003e:	34dc                	fld	fa5,168(s1)
    80010040:	c142                	sw	a6,128(sp)
    80010042:	2631                	addiw	a2,a2,12
    80010044:	b18c                	fsd	fa1,32(a1)
    80010046:	3631                	addiw	a2,a2,-20
    80010048:	6420cf13          	xori	t5,ra,1602
    8001004c:	0146                	slli	sp,sp,0x11
    8001004e:	67e8d5cf          	fnmadd.q	fa1,fa7,ft10,fa2,unknown
    80010052:	32e6                	fld	ft5,120(sp)
    80010054:	aeb4                	fsd	fa3,88(a3)
    80010056:	df8e                	sw	gp,252(sp)
    80010058:	ab71                	j	800105f4 <_end+0x1e0>
    8001005a:	4e9e                	lw	t4,196(sp)
    8001005c:	c484                	sw	s1,8(s1)
    8001005e:	6820                	ld	s0,80(s0)
    80010060:	d6b8                	sw	a4,104(a3)
    80010062:	9476                	add	s0,s0,t4
    80010064:	479a                	lw	a5,132(sp)
    80010066:	d066                	sw	s9,32(sp)
    80010068:	a59e                	fsd	ft7,200(sp)
    8001006a:	0514                	addi	a3,sp,640
    8001006c:	a8b4                	fsd	fa3,80(s1)
    8001006e:	5571                	li	a0,-4
    80010070:	6a5f 0f1a 0cf3      	0xcf30f1a6a5f
    80010076:	111a4e17          	auipc	t3,0x111a4
    8001007a:	64a9                	lui	s1,0xa
    8001007c:	115e                	slli	sp,sp,0x37
    8001007e:	3631                	addiw	a2,a2,-20
    80010080:	eb11                	bnez	a4,80010094 <data+0x94>
    80010082:	6a9d67ab          	0x6a9d67ab
    80010086:	eaf2                	sd	t3,336(sp)
    80010088:	5eae                	lw	t4,232(sp)
    8001008a:	305a                	fld	ft0,432(sp)
    8001008c:	0b24fa17          	auipc	s4,0xb24f
    80010090:	8f74                	0x8f74
    80010092:	6f1c                	ld	a5,24(a4)
    80010094:	df2e                	sw	a1,188(sp)
    80010096:	bdc1                	j	8000ff66 <loop+0x3cf6>
    80010098:	f27f                	0xf27f
    8001009a:	9e50129b          	0x9e50129b
    8001009e:	84eabb93          	sltiu	s7,s5,-1970
    800100a2:	94d25ba3          	0x94d25ba3
    800100a6:	60da7ee7          	0x60da7ee7
    800100aa:	5a45                	li	s4,-15
    800100ac:	c6a8                	sw	a0,72(a3)
    800100ae:	2365                	addiw	t1,t1,25
    800100b0:	3aba                	fld	fs5,424(sp)
    800100b2:	2cb6160f          	0x2cb6160f
    800100b6:	dd5f f293 d5cf      	0xd5cff293dd5f
    800100bc:	c44c8b8f          	0xc44c8b8f
    800100c0:	7df9                	lui	s11,0xffffe
    800100c2:	50f4                	lw	a3,100(s1)
    800100c4:	2c1f 68e0 f53b      	0xf53b68e02c1f
    800100ca:	1b95                	addi	s7,s7,-27
    800100cc:	72ad2197          	auipc	gp,0x72ad2
    800100d0:	bed1                	j	8000fca4 <loop+0x3a34>
    800100d2:	ba84                	fsd	fs1,48(a3)
    800100d4:	cac0                	sw	s0,20(a3)
    800100d6:	413daffb          	0x413daffb
    800100da:	a5fb2a17          	auipc	s4,0xa5fb2
    800100de:	b54c                	fsd	fa1,168(a0)
    800100e0:	a61b03af          	0xa61b03af
    800100e4:	bd84                	fsd	fs1,56(a1)
    800100e6:	3661                	addiw	a2,a2,-8
    800100e8:	d049                	beqz	s0,8001006a <data+0x6a>
    800100ea:	921c                	0x921c
    800100ec:	556a                	lw	a0,184(sp)
    800100ee:	3efe7a57          	0x3efe7a57
    800100f2:	436a                	lw	t1,152(sp)
    800100f4:	cea80f0b          	0xcea80f0b
    800100f8:	061810ab          	0x61810ab
    800100fc:	c839                	beqz	s0,80010152 <data+0x152>
    800100fe:	26fd97af          	0x26fd97af
    80010102:	71b4                	ld	a3,96(a1)
    80010104:	82c9                	srli	a3,a3,0x12
    80010106:	4624                	lw	s1,72(a2)
    80010108:	1aca                	slli	s5,s5,0x32
    8001010a:	71e0                	ld	s0,224(a1)
    8001010c:	6355                	lui	t1,0x15
    8001010e:	896d                	andi	a0,a0,27
    80010110:	3c49                	addiw	s8,s8,-14
    80010112:	afdc                	fsd	fa5,152(a5)
    80010114:	c069620f          	0xc069620f
    80010118:	ff18                	sd	a4,56(a4)
    8001011a:	34d2                	fld	fs1,304(sp)
    8001011c:	8c99                	sub	s1,s1,a4
    8001011e:	5de5                	li	s11,-7
    80010120:	5f61                	li	t5,-8
    80010122:	1864                	addi	s1,sp,60
    80010124:	1bdf 192a 04e4      	0x4e4192a1bdf
    8001012a:	4e66                	lw	t3,88(sp)
    8001012c:	a3b8                	fsd	fa4,64(a5)
    8001012e:	a57e                	fsd	ft11,136(sp)
    80010130:	6d39                	lui	s10,0xe
    80010132:	0205                	addi	tp,tp,1
    80010134:	f2be                	sd	a5,352(sp)
    80010136:	659b12db          	0x659b12db
    8001013a:	e5b79a33          	0xe5b79a33
    8001013e:	a271                	j	800102ca <data+0x2ca>
    80010140:	05c9                	addi	a1,a1,18
    80010142:	5670                	lw	a2,108(a2)
    80010144:	b845                	j	8000f9f4 <loop+0x3784>
    80010146:	ef11                	bnez	a4,80010162 <data+0x162>
    80010148:	f56c                	sd	a1,232(a0)
    8001014a:	e5a5c763          	blt	a1,s10,8000f798 <loop+0x3528>
    8001014e:	dd44                	sw	s1,60(a0)
    80010150:	5fc4                	lw	s1,60(a5)
    80010152:	1362                	slli	t1,t1,0x38
    80010154:	1e0e                	slli	t3,t3,0x23
    80010156:	48df 1e4e 7352      	0x73521e4e48df
    8001015c:	c1bd                	beqz	a1,800101c2 <data+0x1c2>
    8001015e:	1cb2                	slli	s9,s9,0x2c
    80010160:	dc08                	sw	a0,56(s0)
    80010162:	aa80                	fsd	fs0,16(a3)
    80010164:	e840                	sd	s0,144(s0)
    80010166:	b2a67ae3          	bleu	a0,a2,8000fc9a <loop+0x3a2a>
    8001016a:	48cc0eab          	0x48cc0eab
    8001016e:	9809                	andi	s0,s0,-30
    80010170:	6d12                	ld	s10,256(sp)
    80010172:	ce75                	beqz	a2,8001026e <data+0x26e>
    80010174:	99a5                	andi	a1,a1,-23
    80010176:	844e                	mv	s0,s3
    80010178:	67ff                	0x67ff
    8001017a:	26a9                	addiw	a3,a3,10
    8001017c:	1669                	addi	a2,a2,-6
    8001017e:	af92                	fsd	ft4,472(sp)
    80010180:	4308                	lw	a0,0(a4)
    80010182:	5a0e747b          	0x5a0e747b
    80010186:	5966                	lw	s2,120(sp)
    80010188:	5da1                	li	s11,-24
    8001018a:	b1a5                	j	8000fdf2 <loop+0x3b82>
    8001018c:	a66e                	fsd	fs11,264(sp)
    8001018e:	7a85                	lui	s5,0xfffe1
    80010190:	d27a26cb          	fnmsub.d	fa3,fs4,ft7,fs10,rdn
    80010194:	85ae                	mv	a1,a1
    80010196:	b101                	j	8000fd96 <loop+0x3b26>
    80010198:	9a16                	add	s4,s4,t0
    8001019a:	003a                	c.slli	zero,0xe
    8001019c:	d44ecbfb          	0xd44ecbfb
    800101a0:	497cda1b          	0x497cda1b
    800101a4:	36c0                	fld	fs0,168(a3)
    800101a6:	97f1                	srai	a5,a5,0x3c
    800101a8:	6228                	ld	a0,64(a2)
    800101aa:	fc73b6fb          	0xfc73b6fb
    800101ae:	bfabb233          	0xbfabb233
    800101b2:	0725                	addi	a4,a4,9
    800101b4:	6959                	lui	s2,0x16
    800101b6:	40311037          	lui	zero,0x40311
    800101ba:	1bed                	addi	s7,s7,-5
    800101bc:	0268                	addi	a0,sp,268
    800101be:	5c65                	li	s8,-7
    800101c0:	bf92dc03          	lhu	s8,-1031(t0) # 732fbf9 <main-0x78cd0407>
    800101c4:	25bc                	fld	fa5,72(a1)
    800101c6:	b37d272b          	0xb37d272b
    800101ca:	ce9a19b3          	0xce9a19b3
    800101ce:	5546e04b          	0x5546e04b
    800101d2:	f1e4                	sd	s1,224(a1)
    800101d4:	eede                	sd	s7,344(sp)
    800101d6:	2a0e3e33          	0x2a0e3e33
    800101da:	83ae9353          	0x83ae9353
    800101de:	7106                	ld	sp,96(sp)
    800101e0:	53df 686e e9ed      	0xe9ed686e53df
    800101e6:	0426                	slli	s0,s0,0x9
    800101e8:	81b0                	0x81b0
    800101ea:	9d16cde3          	blt	a3,a7,8000fbc4 <loop+0x3954>
    800101ee:	1b4c                	addi	a1,sp,436
    800101f0:	d984                	sw	s1,48(a1)
    800101f2:	8e7245a3          	0x8e7245a3
    800101f6:	e82e                	sd	a1,16(sp)
    800101f8:	a35d                	j	8001079e <_end+0x38a>
    800101fa:	d82d                	beqz	s0,8001016c <data+0x16c>
    800101fc:	3bf5                	addiw	s7,s7,-3
    800101fe:	24cc7003          	0x24cc7003
    80010202:	89bd                	andi	a1,a1,15
    80010204:	7fccbabf cdf84d0b 	0xcdf84d0b7fccbabf
    8001020c:	545c05c3          	0x545c05c3
    80010210:	db39                	beqz	a4,80010166 <data+0x166>
    80010212:	ed79f7b3          	0xed79f7b3
    80010216:	9f16                	add	t5,t5,t0
    80010218:	c8b8                	sw	a4,80(s1)
    8001021a:	5910                	lw	a2,48(a0)
    8001021c:	d401                	beqz	s0,80010124 <data+0x124>
    8001021e:	7168                	ld	a0,224(a0)
    80010220:	e71f 233e 8b93      	0x8b93233ee71f
    80010226:	b69a                	fsd	ft6,360(sp)
    80010228:	577d18a7          	0x577d18a7
    8001022c:	1769                	addi	a4,a4,-6
    8001022e:	3f0eefe7          	0x3f0eefe7
    80010232:	31d4                	fld	fa3,160(a1)
    80010234:	42bd                	li	t0,15
    80010236:	43e6                	lw	t2,88(sp)
    80010238:	e306                	sd	ra,384(sp)
    8001023a:	c54e3207          	fld	ft4,-940(t3) # 911b3cca <_end+0x111a38b6>
    8001023e:	5f7856ef          	jal	a3,80096034 <_end+0x85c20>
    80010242:	4b62b983          	ld	s3,1206(t0)
    80010246:	dc038ccf          	0xdc038ccf
    8001024a:	3de0                	fld	fs0,248(a1)
    8001024c:	a8d4                	fsd	fa3,144(s1)
    8001024e:	d801                	beqz	s0,8001015e <data+0x15e>
    80010250:	b491                	j	8000fc94 <loop+0x3a24>
    80010252:	3000                	fld	fs0,32(s0)
    80010254:	6545                	lui	a0,0x11
    80010256:	8df0                	0x8df0
    80010258:	e719                	bnez	a4,80010266 <data+0x266>
    8001025a:	74cd                	lui	s1,0xffff3
    8001025c:	72a8                	ld	a0,96(a3)
    8001025e:	3e9eb297          	auipc	t0,0x3e9eb
    80010262:	a0e2                	fsd	fs8,64(sp)
    80010264:	1281                	addi	t0,t0,-32
    80010266:	a79f 698b 5593      	0x5593698ba79f
    8001026c:	80b1                	srli	s1,s1,0xc
    8001026e:	52adc093          	xori	ra,s11,1322
    80010272:	8a1c                	0x8a1c
    80010274:	91417f27          	0x91417f27
    80010278:	bf54                	fsd	fa3,184(a4)
    8001027a:	faea                	sd	s10,368(sp)
    8001027c:	664a                	ld	a2,144(sp)
    8001027e:	fee1                	bnez	a3,80010256 <data+0x256>
    80010280:	b7de                	fsd	fs7,488(sp)
    80010282:	16b0                	addi	a2,sp,872
    80010284:	f28cf163          	bleu	s0,s9,8000f9a6 <loop+0x3736>
    80010288:	1f1f b8c4 6760      	0x6760b8c41f1f
    8001028e:	6fd1ea43          	fmadd.q	fs4,ft3,ft9,fa3,unknown
    80010292:	d3c1                	beqz	a5,80010212 <data+0x212>
    80010294:	17d6                	slli	a5,a5,0x35
    80010296:	deb6                	sw	a3,124(sp)
    80010298:	2b75                	addiw	s6,s6,29
    8001029a:	2e88                	fld	fa0,24(a3)
    8001029c:	70f8                	ld	a4,224(s1)
    8001029e:	0445                	addi	s0,s0,17
    800102a0:	1302                	slli	t1,t1,0x20
    800102a2:	53bd9fe7          	0x53bd9fe7
    800102a6:	37c1                	addiw	a5,a5,-16
    800102a8:	058c                	addi	a1,sp,704
    800102aa:	0ee0                	addi	s0,sp,860
    800102ac:	4dac                	lw	a1,88(a1)
    800102ae:	c646                	sw	a7,12(sp)
    800102b0:	f1da                	sd	s6,224(sp)
    800102b2:	fe7ca74b          	fnmsub.q	fa4,fs9,ft7,ft11,rdn
    800102b6:	24ee4ca7          	fsq	fa4,601(t3)
    800102ba:	c225                	beqz	a2,8001031a <data+0x31a>
    800102bc:	d17b4e77          	0xd17b4e77
    800102c0:	2fcd                	addiw	t6,t6,19
    800102c2:	999e                	add	s3,s3,t2
    800102c4:	8950                	0x8950
    800102c6:	62e6                	ld	t0,88(sp)
    800102c8:	515d                	li	sp,-9
    800102ca:	3938                	fld	fa4,112(a0)
    800102cc:	a02137a7          	fsd	ft2,-1521(sp)
    800102d0:	4764252b          	0x4764252b
    800102d4:	2a62                	fld	fs4,24(sp)
    800102d6:	8a6659b3          	0x8a6659b3
    800102da:	dd4cdd7b          	0xdd4cdd7b
    800102de:	4220                	lw	s0,64(a2)
    800102e0:	5afe                	lw	s5,252(sp)
    800102e2:	aa031be3          	bnez	t1,8000fd98 <loop+0x3b28>
    800102e6:	dc9f ccec 8fb5      	0x8fb5ccecdc9f
    800102ec:	fe0deb03          	lwu	s6,-32(s11) # ffffffffffffdfe0 <_end+0xffffffff7ffedbcc>
    800102f0:	d4e6                	sw	s9,104(sp)
    800102f2:	5023e0f7          	0x5023e0f7
    800102f6:	7304                	ld	s1,32(a4)
    800102f8:	4cd8                	lw	a4,28(s1)
    800102fa:	7d4c                	ld	a1,184(a0)
    800102fc:	2f45                	addiw	t5,t5,17
    800102fe:	6801                	0x6801
    80010300:	cac3cbf7          	0xcac3cbf7
    80010304:	fe6738b3          	0xfe6738b3
    80010308:	0c647f1b          	0xc647f1b
    8001030c:	195e                	slli	s2,s2,0x37
    8001030e:	bf62                	fsd	fs8,440(sp)
    80010310:	728feba3          	0x728feba3
    80010314:	026c                	addi	a1,sp,268
    80010316:	be2a                	fsd	fa0,312(sp)
    80010318:	fc18                	sd	a4,56(s0)
    8001031a:	febe                	sd	a5,376(sp)
    8001031c:	0fec                	addi	a1,sp,988
    8001031e:	01e2                	slli	gp,gp,0x18
    80010320:	6a9c                	ld	a5,16(a3)
    80010322:	7caa                	ld	s9,168(sp)
    80010324:	0882ab97          	auipc	s7,0x882a
    80010328:	86f9                	srai	a3,a3,0x1e
    8001032a:	60a2                	ld	ra,8(sp)
    8001032c:	f500                	sd	s0,40(a0)
    8001032e:	7c6a                	ld	s8,184(sp)
    80010330:	16cd                	addi	a3,a3,-13
    80010332:	5382                	lw	t2,32(sp)
    80010334:	5bb0                	lw	a2,112(a5)
    80010336:	a6f8                	fsd	fa4,200(a3)
    80010338:	80c6                	mv	ra,a7
    8001033a:	8fae                	mv	t6,a1
    8001033c:	600a                	0x600a
    8001033e:	6170                	ld	a2,192(a0)
    80010340:	6eb6                	ld	t4,328(sp)
    80010342:	3b6ea607          	flw	fa2,950(t4) # 298fc3b6 <main-0x56703c4a>
    80010346:	b3528ae3          	beq	t0,s5,8000fe7a <loop+0x3c0a>
    8001034a:	8a79                	andi	a2,a2,30
    8001034c:	549e                	lw	s1,228(sp)
    8001034e:	b37f                	0xb37f
    80010350:	5228                	lw	a0,96(a2)
    80010352:	aee8                	fsd	fa0,216(a3)
    80010354:	135c                	addi	a5,sp,420
    80010356:	7b72                	ld	s6,312(sp)
    80010358:	104173db          	0x104173db
    8001035c:	835d                	srli	a4,a4,0x17
    8001035e:	fc85                	bnez	s1,80010296 <data+0x296>
    80010360:	bc30                	fsd	fa2,120(s0)
    80010362:	0642                	slli	a2,a2,0x10
    80010364:	e395                	bnez	a5,80010388 <data+0x388>
    80010366:	0a1457eb          	0xa1457eb
    8001036a:	a359                	j	800108f0 <_end+0x4dc>
    8001036c:	2329                	addiw	t1,t1,10
    8001036e:	7bd07a57          	0x7bd07a57
    80010372:	d6c1b68f          	0xd6c1b68f
    80010376:	9ba1                	andi	a5,a5,-24
    80010378:	f915812b          	0xf915812b
    8001037c:	5660                	lw	s0,108(a2)
    8001037e:	423a                	lw	tp,140(sp)
    80010380:	6f4a                	ld	t5,144(sp)
    80010382:	a23cc2ab          	0xa23cc2ab
    80010386:	c998                	sw	a4,16(a1)
    80010388:	1cd2                	slli	s9,s9,0x34
    8001038a:	fc4b2433          	0xfc4b2433
    8001038e:	f4e5                	bnez	s1,80010376 <data+0x376>
    80010390:	a0e9ef2b          	0xa0e9ef2b
    80010394:	bd0271ab          	0xbd0271ab
    80010398:	0e46                	slli	t3,t3,0x11
    8001039a:	1728                	addi	a0,sp,936
    8001039c:	8a51                	andi	a2,a2,20
    8001039e:	9dc9                	0x9dc9
    800103a0:	63df c075 6ee6      	0x6ee6c07563df
    800103a6:	2f81                	sext.w	t6,t6
    800103a8:	9208c6bf 4f6ba01d 	0x4f6ba01d9208c6bf
    800103b0:	6291                	lui	t0,0x4
    800103b2:	081bf94f          	fnmadd.s	fs2,fs7,ft1,ft1
    800103b6:	c412                	sw	tp,8(sp)
    800103b8:	539c                	lw	a5,32(a5)
    800103ba:	a799                	j	80010b00 <_end+0x6ec>
    800103bc:	e799                	bnez	a5,800103ca <data+0x3ca>
    800103be:	46b1                	li	a3,12
    800103c0:	6785                	lui	a5,0x1
    800103c2:	3c85                	addiw	s9,s9,-31
    800103c4:	77f40d13          	addi	s10,s0,1919 # fa847a3 <main-0x7057b85d>
    800103c8:	e346                	sd	a7,384(sp)
    800103ca:	f1f1                	bnez	a1,8001038e <data+0x38e>
    800103cc:	8e89                	sub	a3,a3,a0
    800103ce:	0779d177          	0x779d177
    800103d2:	1ade8cc7          	fmsub.d	fs9,ft9,fa3,ft3,rne
    800103d6:	d486126b          	0xd486126b
    800103da:	c1ad0a87          	0xc1ad0a87
    800103de:	ab678023          	sb	s6,-1376(a5) # aa0 <main-0x7ffff560>
    800103e2:	80356b87          	0x80356b87
    800103e6:	3d64                	fld	fs1,248(a0)
    800103e8:	7de2                	ld	s11,56(sp)
    800103ea:	4f02                	lw	t5,0(sp)
    800103ec:	968d                	srai	a3,a3,0x23
    800103ee:	5380                	lw	s0,32(a5)
    800103f0:	6e0d                	lui	t3,0x3
    800103f2:	30d4                	fld	fa3,160(s1)
    800103f4:	a47d                	j	800106a2 <_end+0x28e>
    800103f6:	f05d6983          	lwu	s3,-251(s10) # df05 <main-0x7fff20fb>
    800103fa:	67f8                	ld	a4,200(a5)
    800103fc:	a0f34caf          	0xa0f34caf

Disassembly of section .tohost:

0000000080010400 <tohost>:
	...

0000000080010410 <fromhost>:
    80010410:	0000                	unimp
	...
