
output.riscv:     file format elf64-littleriscv


Disassembly of section .text:

0000000080000000 <main>:
    80000000:	40000137          	lui	sp,0x40000
    80000004:	00111113          	slli	sp,sp,0x1
    80000008:	000101b7          	lui	gp,0x10
    8000000c:	00310133          	add	sp,sp,gp
    80000010:	000032b7          	lui	t0,0x3
    80000014:	3002a073          	csrs	mstatus,t0
    80000018:	09f00293          	li	t0,159
    8000001c:	0032a073          	csrs	fcsr,t0
    80000020:	00813083          	ld	ra,8(sp) # 40000008 <main-0x3ffffff8>
    80000024:	01813183          	ld	gp,24(sp)
    80000028:	02013203          	ld	tp,32(sp)
    8000002c:	02813283          	ld	t0,40(sp)
    80000030:	03013303          	ld	t1,48(sp)
    80000034:	03813383          	ld	t2,56(sp)
    80000038:	04013403          	ld	s0,64(sp)
    8000003c:	04813483          	ld	s1,72(sp)
    80000040:	05013503          	ld	a0,80(sp)
    80000044:	05813583          	ld	a1,88(sp)
    80000048:	06013603          	ld	a2,96(sp)
    8000004c:	06813683          	ld	a3,104(sp)
    80000050:	07013703          	ld	a4,112(sp)
    80000054:	07813783          	ld	a5,120(sp)
    80000058:	08013803          	ld	a6,128(sp)
    8000005c:	08813883          	ld	a7,136(sp)
    80000060:	09013903          	ld	s2,144(sp)
    80000064:	09813983          	ld	s3,152(sp)
    80000068:	0a013a03          	ld	s4,160(sp)
    8000006c:	0a813a83          	ld	s5,168(sp)
    80000070:	0b013b03          	ld	s6,176(sp)
    80000074:	0b813b83          	ld	s7,184(sp)
    80000078:	0c013c03          	ld	s8,192(sp)
    8000007c:	0c813c83          	ld	s9,200(sp)
    80000080:	0d013d03          	ld	s10,208(sp)
    80000084:	0d813d83          	ld	s11,216(sp)
    80000088:	0e013e03          	ld	t3,224(sp)
    8000008c:	0e813e83          	ld	t4,232(sp)
    80000090:	0f013f03          	ld	t5,240(sp)
    80000094:	0f813f83          	ld	t6,248(sp)

0000000080000098 <i_0>:
    80000098:	00000013          	nop

000000008000009c <i_1>:
    8000009c:	01c3ca63          	blt	t2,t3,800000b0 <i_6>

00000000800000a0 <i_2>:
    800000a0:	e00ce693          	ori	a3,s9,-512

00000000800000a4 <i_3>:
    800000a4:	f2013803          	ld	a6,-224(sp)

00000000800000a8 <i_4>:
    800000a8:	0c816c83          	lwu	s9,200(sp)

00000000800000ac <i_5>:
    800000ac:	04013e83          	ld	t4,64(sp)

00000000800000b0 <i_6>:
    800000b0:	ef816383          	lwu	t2,-264(sp)

00000000800000b4 <i_7>:
    800000b4:	f5210c03          	lb	s8,-174(sp)

00000000800000b8 <i_8>:
    800000b8:	01f00313          	li	t1,31

00000000800000bc <i_9>:
    800000bc:	406c5c3b          	sraw	s8,s8,t1

00000000800000c0 <i_10>:
    800000c0:	e4c14a03          	lbu	s4,-436(sp)

00000000800000c4 <i_11>:
    800000c4:	018a4863          	blt	s4,s8,800000d4 <i_15>

00000000800000c8 <i_12>:
    800000c8:	01411023          	sh	s4,0(sp)

00000000800000cc <i_13>:
    800000cc:	0d811023          	sh	s8,192(sp)

00000000800000d0 <i_14>:
    800000d0:	00cc4c63          	blt	s8,a2,800000e8 <i_20>

00000000800000d4 <i_15>:
    800000d4:	f1d14c03          	lbu	s8,-227(sp)

00000000800000d8 <i_16>:
    800000d8:	4186063b          	subw	a2,a2,s8

00000000800000dc <i_17>:
    800000dc:	00013403          	ld	s0,0(sp)

00000000800000e0 <i_18>:
    800000e0:	02c2ce3b          	divw	t3,t0,a2

00000000800000e4 <i_19>:
    800000e4:	018e0433          	add	s0,t3,s8

00000000800000e8 <i_20>:
    800000e8:	038c2eb3          	mulhsu	t4,s8,s8

00000000800000ec <i_21>:
    800000ec:	00000013          	nop

00000000800000f0 <i_22>:
    800000f0:	7ce00c13          	li	s8,1998

00000000800000f4 <i_23>:
    800000f4:	7d900f13          	li	t5,2009

00000000800000f8 <i_24>:
    800000f8:	005e1863          	bne	t3,t0,80000108 <i_28>

00000000800000fc <i_25>:
    800000fc:	17812a23          	sw	s8,372(sp)

0000000080000100 <i_26>:
    80000100:	4a55f393          	andi	t2,a1,1189

0000000080000104 <i_27>:
    80000104:	003f551b          	srliw	a0,t5,0x3

0000000080000108 <i_28>:
    80000108:	025384b3          	mul	s1,t2,t0

000000008000010c <i_29>:
    8000010c:	00000013          	nop

0000000080000110 <i_30>:
    80000110:	28ecdb97          	auipc	s7,0x28ecd

0000000080000114 <i_31>:
    80000114:	87800593          	li	a1,-1928

0000000080000118 <i_32>:
    80000118:	87b00513          	li	a0,-1925

000000008000011c <i_33>:
    8000011c:	ff416b83          	lwu	s7,-12(sp)

0000000080000120 <i_34>:
    80000120:	037bd9bb          	divuw	s3,s7,s7

0000000080000124 <i_35>:
    80000124:	00158593          	addi	a1,a1,1
    80000128:	feb55ae3          	ble	a1,a0,8000011c <i_33>

000000008000012c <i_36>:
    8000012c:	033a0063          	beq	s4,s3,8000014c <i_43>

0000000080000130 <i_37>:
    80000130:	001c0c13          	addi	s8,s8,1
    80000134:	fdec42e3          	blt	s8,t5,800000f8 <i_24>

0000000080000138 <i_38>:
    80000138:	033bd063          	ble	s3,s7,80000158 <i_46>

000000008000013c <i_39>:
    8000013c:	00600993          	li	s3,6

0000000080000140 <i_40>:
    80000140:	013a59bb          	srlw	s3,s4,s3

0000000080000144 <i_41>:
    80000144:	1d311b23          	sh	s3,470(sp)

0000000080000148 <i_42>:
    80000148:	00000013          	nop

000000008000014c <i_43>:
    8000014c:	17311223          	sh	s3,356(sp)

0000000080000150 <i_44>:
    80000150:	00b00b93          	li	s7,11

0000000080000154 <i_45>:
    80000154:	0174d9bb          	srlw	s3,s1,s7

0000000080000158 <i_46>:
    80000158:	f5e11e03          	lh	t3,-162(sp)

000000008000015c <i_47>:
    8000015c:	0a813e03          	ld	t3,168(sp)

0000000080000160 <i_48>:
    80000160:	87800a13          	li	s4,-1928

0000000080000164 <i_49>:
    80000164:	87b00493          	li	s1,-1925

0000000080000168 <i_50>:
    80000168:	0f914503          	lbu	a0,249(sp)

000000008000016c <i_51>:
    8000016c:	0d816403          	lwu	s0,216(sp)

0000000080000170 <i_52>:
    80000170:	41398cb3          	sub	s9,s3,s3

0000000080000174 <i_53>:
    80000174:	00000013          	nop

0000000080000178 <i_54>:
    80000178:	09311023          	sh	s3,128(sp)

000000008000017c <i_55>:
    8000017c:	ee816983          	lwu	s3,-280(sp)

0000000080000180 <i_56>:
    80000180:	1a713823          	sd	t2,432(sp)

0000000080000184 <i_57>:
    80000184:	001a0a13          	addi	s4,s4,1
    80000188:	fe9a60e3          	bltu	s4,s1,80000168 <i_50>

000000008000018c <i_58>:
    8000018c:	f5311e23          	sh	s3,-164(sp)

0000000080000190 <i_59>:
    80000190:	fac16983          	lwu	s3,-84(sp)

0000000080000194 <i_60>:
    80000194:	00d00f13          	li	t5,13

0000000080000198 <i_61>:
    80000198:	01e9dcb3          	srl	s9,s3,t5

000000008000019c <i_62>:
    8000019c:	e6d14c83          	lbu	s9,-403(sp)

00000000800001a0 <i_63>:
    800001a0:	4012d813          	srai	a6,t0,0x1

00000000800001a4 <i_64>:
    800001a4:	039c0f33          	mul	t5,s8,s9

00000000800001a8 <i_65>:
    800001a8:	f8811723          	sh	s0,-114(sp)

00000000800001ac <i_66>:
    800001ac:	f5e10923          	sb	t5,-174(sp)

00000000800001b0 <i_67>:
    800001b0:	1d211c83          	lh	s9,466(sp)

00000000800001b4 <i_68>:
    800001b4:	fc815c83          	lhu	s9,-56(sp)

00000000800001b8 <i_69>:
    800001b8:	01ef6a63          	bltu	t5,t5,800001cc <i_74>

00000000800001bc <i_70>:
    800001bc:	010d4863          	blt	s10,a6,800001cc <i_74>

00000000800001c0 <i_71>:
    800001c0:	00000013          	nop

00000000800001c4 <i_72>:
    800001c4:	14813a83          	ld	s5,328(sp)

00000000800001c8 <i_73>:
    800001c8:	e4816683          	lwu	a3,-440(sp)

00000000800001cc <i_74>:
    800001cc:	00000013          	nop

00000000800001d0 <i_75>:
    800001d0:	0b010da3          	sb	a6,187(sp)

00000000800001d4 <i_76>:
    800001d4:	84c00c93          	li	s9,-1972

00000000800001d8 <i_77>:
    800001d8:	85700613          	li	a2,-1961

00000000800001dc <i_78>:
    800001dc:	01013f03          	ld	t5,16(sp)

00000000800001e0 <i_79>:
    800001e0:	013aea33          	or	s4,s5,s3

00000000800001e4 <i_80>:
    800001e4:	7ac00993          	li	s3,1964

00000000800001e8 <i_81>:
    800001e8:	7c000b93          	li	s7,1984

00000000800001ec <i_82>:
    800001ec:	0ca10a03          	lb	s4,202(sp)

00000000800001f0 <i_83>:
    800001f0:	019f4ab3          	xor	s5,t5,s9

00000000800001f4 <i_84>:
    800001f4:	00185b13          	srli	s6,a6,0x1

00000000800001f8 <i_85>:
    800001f8:	02a674bb          	remuw	s1,a2,a0

00000000800001fc <i_86>:
    800001fc:	035bd863          	ble	s5,s7,8000022c <i_96>

0000000080000200 <i_87>:
    80000200:	00198993          	addi	s3,s3,1
    80000204:	ff79e4e3          	bltu	s3,s7,800001ec <i_82>

0000000080000208 <i_88>:
    80000208:	e5c11503          	lh	a0,-420(sp)

000000008000020c <i_89>:
    8000020c:	16e14c03          	lbu	s8,366(sp)

0000000080000210 <i_90>:
    80000210:	038abab3          	mulhu	s5,s5,s8

0000000080000214 <i_91>:
    80000214:	001c8c93          	addi	s9,s9,1
    80000218:	fcccc2e3          	blt	s9,a2,800001dc <i_78>

000000008000021c <i_92>:
    8000021c:	00500513          	li	a0,5

0000000080000220 <i_93>:
    80000220:	00a0d6b3          	srl	a3,ra,a0

0000000080000224 <i_94>:
    80000224:	00000013          	nop

0000000080000228 <i_95>:
    80000228:	01a0bd33          	sltu	s10,ra,s10

000000008000022c <i_96>:
    8000022c:	1193c537          	lui	a0,0x1193c

0000000080000230 <i_97>:
    80000230:	f0a10603          	lb	a2,-246(sp)

0000000080000234 <i_98>:
    80000234:	89700093          	li	ra,-1897

0000000080000238 <i_99>:
    80000238:	89d00f13          	li	t5,-1891

000000008000023c <i_100>:
    8000023c:	415687bb          	subw	a5,a3,s5

0000000080000240 <i_101>:
    80000240:	03e663bb          	remw	t2,a2,t5

0000000080000244 <i_102>:
    80000244:	00000013          	nop

0000000080000248 <i_103>:
    80000248:	0ac16683          	lwu	a3,172(sp)

000000008000024c <i_104>:
    8000024c:	9da6a793          	slti	a5,a3,-1574

0000000080000250 <i_105>:
    80000250:	03d3fb3b          	remuw	s6,t2,t4

0000000080000254 <i_106>:
    80000254:	16c12403          	lw	s0,364(sp)

0000000080000258 <i_107>:
    80000258:	00108093          	addi	ra,ra,1
    8000025c:	ffe0c0e3          	blt	ra,t5,8000023c <i_100>

0000000080000260 <i_108>:
    80000260:	02f47463          	bleu	a5,s0,80000288 <i_118>

0000000080000264 <i_109>:
    80000264:	07215683          	lhu	a3,114(sp)

0000000080000268 <i_110>:
    80000268:	1d412823          	sw	s4,464(sp)

000000008000026c <i_111>:
    8000026c:	f0f12423          	sw	a5,-248(sp)

0000000080000270 <i_112>:
    80000270:	008477b3          	and	a5,s0,s0

0000000080000274 <i_113>:
    80000274:	fd812203          	lw	tp,-40(sp)

0000000080000278 <i_114>:
    80000278:	004b519b          	srliw	gp,s6,0x4

000000008000027c <i_115>:
    8000027c:	0244743b          	remuw	s0,s0,tp

0000000080000280 <i_116>:
    80000280:	0f342413          	slti	s0,s0,243

0000000080000284 <i_117>:
    80000284:	00840e63          	beq	s0,s0,800002a0 <i_124>

0000000080000288 <i_118>:
    80000288:	fa813c23          	sd	s0,-72(sp)

000000008000028c <i_119>:
    8000028c:	04a11383          	lh	t2,74(sp)

0000000080000290 <i_120>:
    80000290:	02840063          	beq	s0,s0,800002b0 <i_128>

0000000080000294 <i_121>:
    80000294:	0274043b          	mulw	s0,s0,t2

0000000080000298 <i_122>:
    80000298:	0073f463          	bleu	t2,t2,800002a0 <i_124>

000000008000029c <i_123>:
    8000029c:	03e38063          	beq	t2,t5,800002bc <i_131>

00000000800002a0 <i_124>:
    800002a0:	01a47c63          	bleu	s10,s0,800002b8 <i_130>

00000000800002a4 <i_125>:
    800002a4:	0073c263          	blt	t2,t2,800002a8 <i_126>

00000000800002a8 <i_126>:
    800002a8:	00843eb3          	sltu	t4,s0,s0

00000000800002ac <i_127>:
    800002ac:	0083c263          	blt	t2,s0,800002b0 <i_128>

00000000800002b0 <i_128>:
    800002b0:	002e9863          	bne	t4,sp,800002c0 <i_132>

00000000800002b4 <i_129>:
    800002b4:	e2812623          	sw	s0,-468(sp)

00000000800002b8 <i_130>:
    800002b8:	01d47eb3          	and	t4,s0,t4

00000000800002bc <i_131>:
    800002bc:	e6816403          	lwu	s0,-408(sp)

00000000800002c0 <i_132>:
    800002c0:	001e9e93          	slli	t4,t4,0x1

00000000800002c4 <i_133>:
    800002c4:	11913c23          	sd	s9,280(sp)

00000000800002c8 <i_134>:
    800002c8:	f6811f03          	lh	t5,-152(sp)

00000000800002cc <i_135>:
    800002cc:	16415c83          	lhu	s9,356(sp)

00000000800002d0 <i_136>:
    800002d0:	10a15d83          	lhu	s11,266(sp)

00000000800002d4 <i_137>:
    800002d4:	80800613          	li	a2,-2040

00000000800002d8 <i_138>:
    800002d8:	80a00993          	li	s3,-2038

00000000800002dc <i_139>:
    800002dc:	013d8e63          	beq	s11,s3,800002f8 <i_146>

00000000800002e0 <i_140>:
    800002e0:	039c65bb          	remw	a1,s8,s9

00000000800002e4 <i_141>:
    800002e4:	03100593          	li	a1,49

00000000800002e8 <i_142>:
    800002e8:	00bb1bb3          	sll	s7,s6,a1

00000000800002ec <i_143>:
    800002ec:	eaf10e83          	lb	t4,-337(sp)

00000000800002f0 <i_144>:
    800002f0:	036b6b3b          	remw	s6,s6,s6

00000000800002f4 <i_145>:
    800002f4:	13e14283          	lbu	t0,318(sp)

00000000800002f8 <i_146>:
    800002f8:	038b1463          	bne	s6,s8,80000320 <i_155>

00000000800002fc <i_147>:
    800002fc:	18210a03          	lb	s4,386(sp)

0000000080000300 <i_148>:
    80000300:	f4c12a83          	lw	s5,-180(sp)

0000000080000304 <i_149>:
    80000304:	0e614b03          	lbu	s6,230(sp)

0000000080000308 <i_150>:
    80000308:	036afeb3          	remu	t4,s5,s6

000000008000030c <i_151>:
    8000030c:	00000013          	nop

0000000080000310 <i_152>:
    80000310:	00160613          	addi	a2,a2,1
    80000314:	fd3614e3          	bne	a2,s3,800002dc <i_139>

0000000080000318 <i_153>:
    80000318:	321eac93          	slti	s9,t4,801

000000008000031c <i_154>:
    8000031c:	fb812e83          	lw	t4,-72(sp)

0000000080000320 <i_155>:
    80000320:	fea14b03          	lbu	s6,-22(sp)

0000000080000324 <i_156>:
    80000324:	035cd463          	ble	s5,s9,8000034c <i_166>

0000000080000328 <i_157>:
    80000328:	03200a93          	li	s5,50

000000008000032c <i_158>:
    8000032c:	015b5ab3          	srl	s5,s6,s5

0000000080000330 <i_159>:
    80000330:	028ce633          	rem	a2,s9,s0

0000000080000334 <i_160>:
    80000334:	e77a8e9b          	addiw	t4,s5,-393

0000000080000338 <i_161>:
    80000338:	00000013          	nop

000000008000033c <i_162>:
    8000033c:	00000013          	nop

0000000080000340 <i_163>:
    80000340:	15c15e03          	lhu	t3,348(sp)

0000000080000344 <i_164>:
    80000344:	96160b1b          	addiw	s6,a2,-1695

0000000080000348 <i_165>:
    80000348:	00000013          	nop

000000008000034c <i_166>:
    8000034c:	00000013          	nop

0000000080000350 <i_167>:
    80000350:	f1813e03          	ld	t3,-232(sp)

0000000080000354 <i_168>:
    80000354:	74500a93          	li	s5,1861

0000000080000358 <i_169>:
    80000358:	75200613          	li	a2,1874

000000008000035c <i_170>:
    8000035c:	019cfa63          	bleu	s9,s9,80000370 <i_175>

0000000080000360 <i_171>:
    80000360:	00211b03          	lh	s6,2(sp)

0000000080000364 <i_172>:
    80000364:	05d10b03          	lb	s6,93(sp)

0000000080000368 <i_173>:
    80000368:	01cad663          	ble	t3,s5,80000374 <i_176>

000000008000036c <i_174>:
    8000036c:	039dcdbb          	divw	s11,s11,s9

0000000080000370 <i_175>:
    80000370:	00800e93          	li	t4,8

0000000080000374 <i_176>:
    80000374:	41ddddb3          	sra	s11,s11,t4

0000000080000378 <i_177>:
    80000378:	01dcbdb3          	sltu	s11,s9,t4

000000008000037c <i_178>:
    8000037c:	001a8a93          	addi	s5,s5,1
    80000380:	fccacee3          	blt	s5,a2,8000035c <i_170>

0000000080000384 <i_179>:
    80000384:	f3110603          	lb	a2,-207(sp)

0000000080000388 <i_180>:
    80000388:	015e0e63          	beq	t3,s5,800003a4 <i_187>

000000008000038c <i_181>:
    8000038c:	b6ee0e13          	addi	t3,t3,-1170

0000000080000390 <i_182>:
    80000390:	01bdf663          	bleu	s11,s11,8000039c <i_185>

0000000080000394 <i_183>:
    80000394:	00000013          	nop

0000000080000398 <i_184>:
    80000398:	00000013          	nop

000000008000039c <i_185>:
    8000039c:	03924d33          	div	s10,tp,s9

00000000800003a0 <i_186>:
    800003a0:	09a15d03          	lhu	s10,154(sp)

00000000800003a4 <i_187>:
    800003a4:	fc211823          	sh	sp,-48(sp)

00000000800003a8 <i_188>:
    800003a8:	07b12223          	sw	s11,100(sp)

00000000800003ac <i_189>:
    800003ac:	86d00e13          	li	t3,-1939

00000000800003b0 <i_190>:
    800003b0:	87f00313          	li	t1,-1921

00000000800003b4 <i_191>:
    800003b4:	1a611423          	sh	t1,424(sp)

00000000800003b8 <i_192>:
    800003b8:	fc813d83          	ld	s11,-56(sp)

00000000800003bc <i_193>:
    800003bc:	01ce0263          	beq	t3,t3,800003c0 <i_194>

00000000800003c0 <i_194>:
    800003c0:	f4c16b03          	lwu	s6,-180(sp)

00000000800003c4 <i_195>:
    800003c4:	e3816d03          	lwu	s10,-456(sp)

00000000800003c8 <i_196>:
    800003c8:	0ba12023          	sw	s10,160(sp)

00000000800003cc <i_197>:
    800003cc:	03bb0d33          	mul	s10,s6,s11

00000000800003d0 <i_198>:
    800003d0:	10c14403          	lbu	s0,268(sp)

00000000800003d4 <i_199>:
    800003d4:	001e0e13          	addi	t3,t3,1
    800003d8:	fc6e6ee3          	bltu	t3,t1,800003b4 <i_191>

00000000800003dc <i_200>:
    800003dc:	f4413823          	sd	tp,-176(sp)

00000000800003e0 <i_201>:
    800003e0:	03649b33          	mulh	s6,s1,s6

00000000800003e4 <i_202>:
    800003e4:	89f00213          	li	tp,-1889

00000000800003e8 <i_203>:
    800003e8:	8a200513          	li	a0,-1886

00000000800003ec <i_204>:
    800003ec:	1e014d83          	lbu	s11,480(sp)

00000000800003f0 <i_205>:
    800003f0:	01813483          	ld	s1,24(sp)

00000000800003f4 <i_206>:
    800003f4:	4ea37493          	andi	s1,t1,1258

00000000800003f8 <i_207>:
    800003f8:	038c5c3b          	divuw	s8,s8,s8

00000000800003fc <i_208>:
    800003fc:	00000013          	nop

0000000080000400 <i_209>:
    80000400:	02948b33          	mul	s6,s1,s1

0000000080000404 <i_210>:
    80000404:	036b74bb          	remuw	s1,s6,s6

0000000080000408 <i_211>:
    80000408:	0e910923          	sb	s1,242(sp)

000000008000040c <i_212>:
    8000040c:	00120213          	addi	tp,tp,1 # 1 <main-0x7fffffff>
    80000410:	fca26ee3          	bltu	tp,a0,800003ec <i_204>

0000000080000414 <i_213>:
    80000414:	018b26b3          	slt	a3,s6,s8

0000000080000418 <i_214>:
    80000418:	1b613423          	sd	s6,424(sp)

000000008000041c <i_215>:
    8000041c:	f2816b03          	lwu	s6,-216(sp)

0000000080000420 <i_216>:
    80000420:	0094a4b3          	slt	s1,s1,s1

0000000080000424 <i_217>:
    80000424:	00d4cb33          	xor	s6,s1,a3

0000000080000428 <i_218>:
    80000428:	40d686bb          	subw	a3,a3,a3

000000008000042c <i_219>:
    8000042c:	ff514383          	lbu	t2,-11(sp)

0000000080000430 <i_220>:
    80000430:	02d6f6b3          	remu	a3,a3,a3

0000000080000434 <i_221>:
    80000434:	407680b3          	sub	ra,a3,t2

0000000080000438 <i_222>:
    80000438:	f6013e03          	ld	t3,-160(sp)

000000008000043c <i_223>:
    8000043c:	7ec00693          	li	a3,2028

0000000080000440 <i_224>:
    80000440:	7f300393          	li	t2,2035

0000000080000444 <i_225>:
    80000444:	09a11c03          	lh	s8,154(sp)

0000000080000448 <i_226>:
    80000448:	e7013e03          	ld	t3,-400(sp)

000000008000044c <i_227>:
    8000044c:	e6215803          	lhu	a6,-414(sp)

0000000080000450 <i_228>:
    80000450:	0fc10f23          	sb	t3,254(sp)

0000000080000454 <i_229>:
    80000454:	01c00e93          	li	t4,28

0000000080000458 <i_230>:
    80000458:	41de5e3b          	sraw	t3,t3,t4

000000008000045c <i_231>:
    8000045c:	1b813e83          	ld	t4,440(sp)

0000000080000460 <i_232>:
    80000460:	e7012803          	lw	a6,-400(sp)

0000000080000464 <i_233>:
    80000464:	0d011023          	sh	a6,192(sp)

0000000080000468 <i_234>:
    80000468:	00b00e13          	li	t3,11

000000008000046c <i_235>:
    8000046c:	01ce5833          	srl	a6,t3,t3

0000000080000470 <i_236>:
    80000470:	00168693          	addi	a3,a3,1
    80000474:	fcd3d8e3          	ble	a3,t2,80000444 <i_225>

0000000080000478 <i_237>:
    80000478:	e9c12623          	sw	t3,-372(sp)

000000008000047c <i_238>:
    8000047c:	030e4cbb          	divw	s9,t3,a6

0000000080000480 <i_239>:
    80000480:	002ed59b          	srliw	a1,t4,0x2

0000000080000484 <i_240>:
    80000484:	01ce8263          	beq	t4,t3,80000488 <i_241>

0000000080000488 <i_241>:
    80000488:	ea013e03          	ld	t3,-352(sp)

000000008000048c <i_242>:
    8000048c:	ff011523          	sh	a6,-22(sp)

0000000080000490 <i_243>:
    80000490:	004c5393          	srli	t2,s8,0x4

0000000080000494 <i_244>:
    80000494:	01013023          	sd	a6,0(sp)

0000000080000498 <i_245>:
    80000498:	03072233          	mulhsu	tp,a4,a6

000000008000049c <i_246>:
    8000049c:	11811423          	sh	s8,264(sp)

00000000800004a0 <i_247>:
    800004a0:	80300813          	li	a6,-2045

00000000800004a4 <i_248>:
    800004a4:	81500c13          	li	s8,-2027

00000000800004a8 <i_249>:
    800004a8:	404c0f33          	sub	t5,s8,tp

00000000800004ac <i_250>:
    800004ac:	00787c63          	bleu	t2,a6,800004c4 <i_256>

00000000800004b0 <i_251>:
    800004b0:	13012c23          	sw	a6,312(sp)

00000000800004b4 <i_252>:
    800004b4:	00185493          	srli	s1,a6,0x1

00000000800004b8 <i_253>:
    800004b8:	08812f03          	lw	t5,136(sp)

00000000800004bc <i_254>:
    800004bc:	ee414483          	lbu	s1,-284(sp)

00000000800004c0 <i_255>:
    800004c0:	07c10f03          	lb	t5,124(sp)

00000000800004c4 <i_256>:
    800004c4:	fdc10983          	lb	s3,-36(sp)

00000000800004c8 <i_257>:
    800004c8:	00a00213          	li	tp,10

00000000800004cc <i_258>:
    800004cc:	004f57bb          	srlw	a5,t5,tp

00000000800004d0 <i_259>:
    800004d0:	0307d263          	ble	a6,a5,800004f4 <i_267>

00000000800004d4 <i_260>:
    800004d4:	03e4f0b3          	remu	ra,s1,t5

00000000800004d8 <i_261>:
    800004d8:	00180813          	addi	a6,a6,1
    800004dc:	fd8846e3          	blt	a6,s8,800004a8 <i_249>

00000000800004e0 <i_262>:
    800004e0:	01e08a63          	beq	ra,t5,800004f4 <i_267>

00000000800004e4 <i_263>:
    800004e4:	010f5e63          	ble	a6,t5,80000500 <i_270>

00000000800004e8 <i_264>:
    800004e8:	0014ce63          	blt	s1,ra,80000504 <i_271>

00000000800004ec <i_265>:
    800004ec:	00420263          	beq	tp,tp,800004f0 <i_266>

00000000800004f0 <i_266>:
    800004f0:	f1a23293          	sltiu	t0,tp,-230

00000000800004f4 <i_267>:
    800004f4:	e9e12823          	sw	t5,-368(sp)

00000000800004f8 <i_268>:
    800004f8:	01000f13          	li	t5,16

00000000800004fc <i_269>:
    800004fc:	01e2583b          	srlw	a6,tp,t5

0000000080000500 <i_270>:
    80000500:	0292c263          	blt	t0,s1,80000524 <i_279>

0000000080000504 <i_271>:
    80000504:	0247e063          	bltu	a5,tp,80000524 <i_279>

0000000080000508 <i_272>:
    80000508:	03a00493          	li	s1,58

000000008000050c <i_273>:
    8000050c:	0097df33          	srl	t5,a5,s1

0000000080000510 <i_274>:
    80000510:	029dfdb3          	remu	s11,s11,s1

0000000080000514 <i_275>:
    80000514:	d04c8c93          	addi	s9,s9,-764

0000000080000518 <i_276>:
    80000518:	f9a10483          	lb	s1,-102(sp)

000000008000051c <i_277>:
    8000051c:	02ad8dbb          	mulw	s11,s11,a0

0000000080000520 <i_278>:
    80000520:	039cdcbb          	divuw	s9,s9,s9

0000000080000524 <i_279>:
    80000524:	01b8f333          	and	t1,a7,s11

0000000080000528 <i_280>:
    80000528:	01600d93          	li	s11,22

000000008000052c <i_281>:
    8000052c:	41bddeb3          	sra	t4,s11,s11

0000000080000530 <i_282>:
    80000530:	41bd8633          	sub	a2,s11,s11

0000000080000534 <i_283>:
    80000534:	01b74e63          	blt	a4,s11,80000550 <i_290>

0000000080000538 <i_284>:
    80000538:	e8c15803          	lhu	a6,-372(sp)

000000008000053c <i_285>:
    8000053c:	03b85db3          	divu	s11,a6,s11

0000000080000540 <i_286>:
    80000540:	12415c83          	lhu	s9,292(sp)

0000000080000544 <i_287>:
    80000544:	18c16403          	lwu	s0,396(sp)

0000000080000548 <i_288>:
    80000548:	fe813823          	sd	s0,-16(sp)

000000008000054c <i_289>:
    8000054c:	769d8d93          	addi	s11,s11,1897

0000000080000550 <i_290>:
    80000550:	03bd8263          	beq	s11,s11,80000574 <i_299>

0000000080000554 <i_291>:
    80000554:	0014129b          	slliw	t0,s0,0x1

0000000080000558 <i_292>:
    80000558:	0187e7b3          	or	a5,a5,s8

000000008000055c <i_293>:
    8000055c:	fa713823          	sd	t2,-80(sp)

0000000080000560 <i_294>:
    80000560:	00000013          	nop

0000000080000564 <i_295>:
    80000564:	00000013          	nop

0000000080000568 <i_296>:
    80000568:	19812083          	lw	ra,408(sp)

000000008000056c <i_297>:
    8000056c:	04815783          	lhu	a5,72(sp)

0000000080000570 <i_298>:
    80000570:	0a714083          	lbu	ra,167(sp)

0000000080000574 <i_299>:
    80000574:	0350fabb          	remuw	s5,ra,s5

0000000080000578 <i_300>:
    80000578:	12f12823          	sw	a5,304(sp)

000000008000057c <i_301>:
    8000057c:	7a200d93          	li	s11,1954

0000000080000580 <i_302>:
    80000580:	7b100513          	li	a0,1969

0000000080000584 <i_303>:
    80000584:	09b10a83          	lb	s5,155(sp)

0000000080000588 <i_304>:
    80000588:	15813783          	ld	a5,344(sp)

000000008000058c <i_305>:
    8000058c:	e8816c03          	lwu	s8,-376(sp)

0000000080000590 <i_306>:
    80000590:	02179663          	bne	a5,ra,800005bc <i_316>

0000000080000594 <i_307>:
    80000594:	02f6c1bb          	divw	gp,a3,a5

0000000080000598 <i_308>:
    80000598:	02f97263          	bleu	a5,s2,800005bc <i_316>

000000008000059c <i_309>:
    8000059c:	001d8d93          	addi	s11,s11,1
    800005a0:	feade2e3          	bltu	s11,a0,80000584 <i_303>

00000000800005a4 <i_310>:
    800005a4:	403c06bb          	subw	a3,s8,gp

00000000800005a8 <i_311>:
    800005a8:	0381f263          	bleu	s8,gp,800005cc <i_320>

00000000800005ac <i_312>:
    800005ac:	eec12403          	lw	s0,-276(sp)

00000000800005b0 <i_313>:
    800005b0:	12810b23          	sb	s0,310(sp)

00000000800005b4 <i_314>:
    800005b4:	04612e23          	sw	t1,92(sp)

00000000800005b8 <i_315>:
    800005b8:	00000013          	nop

00000000800005bc <i_316>:
    800005bc:	03410183          	lb	gp,52(sp)

00000000800005c0 <i_317>:
    800005c0:	19114b83          	lbu	s7,401(sp)

00000000800005c4 <i_318>:
    800005c4:	00000013          	nop

00000000800005c8 <i_319>:
    800005c8:	ed710c83          	lb	s9,-297(sp)

00000000800005cc <i_320>:
    800005cc:	02d361bb          	remw	gp,t1,a3

00000000800005d0 <i_321>:
    800005d0:	e2c13c23          	sd	a2,-456(sp)

00000000800005d4 <i_322>:
    800005d4:	7e800313          	li	t1,2024

00000000800005d8 <i_323>:
    800005d8:	7f800613          	li	a2,2040

00000000800005dc <i_324>:
    800005dc:	002bd813          	srli	a6,s7,0x2

00000000800005e0 <i_325>:
    800005e0:	01e1da63          	ble	t5,gp,800005f4 <i_330>

00000000800005e4 <i_326>:
    800005e4:	003cc863          	blt	s9,gp,800005f4 <i_330>

00000000800005e8 <i_327>:
    800005e8:	00000013          	nop

00000000800005ec <i_328>:
    800005ec:	02d12c23          	sw	a3,56(sp)

00000000800005f0 <i_329>:
    800005f0:	013329b3          	slt	s3,t1,s3

00000000800005f4 <i_330>:
    800005f4:	0e815683          	lhu	a3,232(sp)

00000000800005f8 <i_331>:
    800005f8:	e2013683          	ld	a3,-480(sp)

00000000800005fc <i_332>:
    800005fc:	ff813823          	sd	s8,-16(sp)

0000000080000600 <i_333>:
    80000600:	00130313          	addi	t1,t1,1
    80000604:	fcc31ce3          	bne	t1,a2,800005dc <i_324>

0000000080000608 <i_334>:
    80000608:	0287c263          	blt	a5,s0,8000062c <i_343>

000000008000060c <i_335>:
    8000060c:	00000013          	nop

0000000080000610 <i_336>:
    80000610:	ef812683          	lw	a3,-264(sp)

0000000080000614 <i_337>:
    80000614:	00000013          	nop

0000000080000618 <i_338>:
    80000618:	00200513          	li	a0,2

000000008000061c <i_339>:
    8000061c:	00ac9bbb          	sllw	s7,s9,a0

0000000080000620 <i_340>:
    80000620:	00000013          	nop

0000000080000624 <i_341>:
    80000624:	1dc105a3          	sb	t3,459(sp)

0000000080000628 <i_342>:
    80000628:	03c3ff33          	remu	t5,t2,t3

000000008000062c <i_343>:
    8000062c:	00000013          	nop

0000000080000630 <i_344>:
    80000630:	00000013          	nop

0000000080000634 <i_345>:
    80000634:	7ec00813          	li	a6,2028

0000000080000638 <i_346>:
    80000638:	7fc00e13          	li	t3,2044

000000008000063c <i_347>:
    8000063c:	e4a11303          	lh	t1,-438(sp)

0000000080000640 <i_348>:
    80000640:	00000013          	nop

0000000080000644 <i_349>:
    80000644:	001c141b          	slliw	s0,s8,0x1

0000000080000648 <i_350>:
    80000648:	026c5c33          	divu	s8,s8,t1

000000008000064c <i_351>:
    8000064c:	17a11c03          	lh	s8,378(sp)

0000000080000650 <i_352>:
    80000650:	00180813          	addi	a6,a6,1
    80000654:	ff0e74e3          	bleu	a6,t3,8000063c <i_347>

0000000080000658 <i_353>:
    80000658:	fcfc6e93          	ori	t4,s8,-49

000000008000065c <i_354>:
    8000065c:	008c0c33          	add	s8,s8,s0

0000000080000660 <i_355>:
    80000660:	15f14803          	lbu	a6,351(sp)

0000000080000664 <i_356>:
    80000664:	32bb6a17          	auipc	s4,0x32bb6

0000000080000668 <i_357>:
    80000668:	bd0a0593          	addi	a1,s4,-1072 # b2bb6234 <_end+0x32ba5e20>

000000008000066c <i_358>:
    8000066c:	00c00793          	li	a5,12

0000000080000670 <i_359>:
    80000670:	00fc1a3b          	sllw	s4,s8,a5

0000000080000674 <i_360>:
    80000674:	fca14203          	lbu	tp,-54(sp)

0000000080000678 <i_361>:
    80000678:	03300813          	li	a6,51

000000008000067c <i_362>:
    8000067c:	010edcb3          	srl	s9,t4,a6

0000000080000680 <i_363>:
    80000680:	fb913823          	sd	s9,-80(sp)

0000000080000684 <i_364>:
    80000684:	02ba85b3          	mul	a1,s5,a1

0000000080000688 <i_365>:
    80000688:	00880433          	add	s0,a6,s0

000000008000068c <i_366>:
    8000068c:	eb411e83          	lh	t4,-332(sp)

0000000080000690 <i_367>:
    80000690:	10016e83          	lwu	t4,256(sp)

0000000080000694 <i_368>:
    80000694:	e7813e03          	ld	t3,-392(sp)

0000000080000698 <i_369>:
    80000698:	f5e11823          	sh	t5,-176(sp)

000000008000069c <i_370>:
    8000069c:	9bf5b813          	sltiu	a6,a1,-1601

00000000800006a0 <i_371>:
    800006a0:	01940663          	beq	s0,s9,800006ac <i_374>

00000000800006a4 <i_372>:
    800006a4:	0d815d03          	lhu	s10,216(sp)

00000000800006a8 <i_373>:
    800006a8:	001e559b          	srliw	a1,t3,0x1

00000000800006ac <i_374>:
    800006ac:	03c5e063          	bltu	a1,t3,800006cc <i_382>

00000000800006b0 <i_375>:
    800006b0:	e6816c03          	lwu	s8,-408(sp)

00000000800006b4 <i_376>:
    800006b4:	11c15503          	lhu	a0,284(sp)

00000000800006b8 <i_377>:
    800006b8:	02a54463          	blt	a0,a0,800006e0 <i_387>

00000000800006bc <i_378>:
    800006bc:	00d00613          	li	a2,13

00000000800006c0 <i_379>:
    800006c0:	00c516bb          	sllw	a3,a0,a2

00000000800006c4 <i_380>:
    800006c4:	f8b14783          	lbu	a5,-117(sp)

00000000800006c8 <i_381>:
    800006c8:	11ce4413          	xori	s0,t3,284

00000000800006cc <i_382>:
    800006cc:	02100b93          	li	s7,33

00000000800006d0 <i_383>:
    800006d0:	0175d9b3          	srl	s3,a1,s7

00000000800006d4 <i_384>:
    800006d4:	05813e83          	ld	t4,88(sp)

00000000800006d8 <i_385>:
    800006d8:	ea813683          	ld	a3,-344(sp)

00000000800006dc <i_386>:
    800006dc:	0e414a83          	lbu	s5,228(sp)

00000000800006e0 <i_387>:
    800006e0:	12f101a3          	sb	a5,291(sp)

00000000800006e4 <i_388>:
    800006e4:	edc15503          	lhu	a0,-292(sp)

00000000800006e8 <i_389>:
    800006e8:	88200413          	li	s0,-1918

00000000800006ec <i_390>:
    800006ec:	88700393          	li	t2,-1913

00000000800006f0 <i_391>:
    800006f0:	12013083          	ld	ra,288(sp)

00000000800006f4 <i_392>:
    800006f4:	08013f03          	ld	t5,128(sp)

00000000800006f8 <i_393>:
    800006f8:	007bcd33          	xor	s10,s7,t2

00000000800006fc <i_394>:
    800006fc:	21ff0613          	addi	a2,t5,543

0000000080000700 <i_395>:
    80000700:	07611723          	sh	s6,110(sp)

0000000080000704 <i_396>:
    80000704:	e1c12603          	lw	a2,-484(sp)

0000000080000708 <i_397>:
    80000708:	59262e93          	slti	t4,a2,1426

000000008000070c <i_398>:
    8000070c:	f1d13023          	sd	t4,-256(sp)

0000000080000710 <i_399>:
    80000710:	00140413          	addi	s0,s0,1
    80000714:	fc83dee3          	ble	s0,t2,800006f0 <i_391>

0000000080000718 <i_400>:
    80000718:	00365d1b          	srliw	s10,a2,0x3

000000008000071c <i_401>:
    8000071c:	00a0ee63          	bltu	ra,a0,80000738 <i_408>

0000000080000720 <i_402>:
    80000720:	01dd9263          	bne	s11,t4,80000724 <i_403>

0000000080000724 <i_403>:
    80000724:	034f0063          	beq	t5,s4,80000744 <i_411>

0000000080000728 <i_404>:
    80000728:	01ae8463          	beq	t4,s10,80000730 <i_406>

000000008000072c <i_405>:
    8000072c:	f0012e83          	lw	t4,-256(sp)

0000000080000730 <i_406>:
    80000730:	0074c263          	blt	s1,t2,80000734 <i_407>

0000000080000734 <i_407>:
    80000734:	03a61d33          	mulh	s10,a2,s10

0000000080000738 <i_408>:
    80000738:	0d013d83          	ld	s11,208(sp)

000000008000073c <i_409>:
    8000073c:	f6412983          	lw	s3,-156(sp)

0000000080000740 <i_410>:
    80000740:	01ed0d33          	add	s10,s10,t5

0000000080000744 <i_411>:
    80000744:	18e11a83          	lh	s5,398(sp)

0000000080000748 <i_412>:
    80000748:	17b14e83          	lbu	t4,379(sp)

000000008000074c <i_413>:
    8000074c:	eb013e03          	ld	t3,-336(sp)

0000000080000750 <i_414>:
    80000750:	fb013c23          	sd	a6,-72(sp)

0000000080000754 <i_415>:
    80000754:	e6712823          	sw	t2,-400(sp)

0000000080000758 <i_416>:
    80000758:	ef714a03          	lbu	s4,-265(sp)

000000008000075c <i_417>:
    8000075c:	03a8f9b3          	remu	s3,a7,s10

0000000080000760 <i_418>:
    80000760:	fa813983          	ld	s3,-88(sp)

0000000080000764 <i_419>:
    80000764:	ec211483          	lh	s1,-318(sp)

0000000080000768 <i_420>:
    80000768:	01e9e663          	bltu	s3,t5,80000774 <i_423>

000000008000076c <i_421>:
    8000076c:	01b0c863          	blt	ra,s11,8000077c <i_425>

0000000080000770 <i_422>:
    80000770:	0d016383          	lwu	t2,208(sp)

0000000080000774 <i_423>:
    80000774:	02614c03          	lbu	s8,38(sp)

0000000080000778 <i_424>:
    80000778:	01c61863          	bne	a2,t3,80000788 <i_428>

000000008000077c <i_425>:
    8000077c:	00c5c9b3          	xor	s3,a1,a2

0000000080000780 <i_426>:
    80000780:	17012f03          	lw	t5,368(sp)

0000000080000784 <i_427>:
    80000784:	00415983          	lhu	s3,4(sp)

0000000080000788 <i_428>:
    80000788:	1da11423          	sh	s10,456(sp)

000000008000078c <i_429>:
    8000078c:	8e434c93          	xori	s9,t1,-1820

0000000080000790 <i_430>:
    80000790:	e6813f03          	ld	t5,-408(sp)

0000000080000794 <i_431>:
    80000794:	18713823          	sd	t2,400(sp)

0000000080000798 <i_432>:
    80000798:	01900f13          	li	t5,25

000000008000079c <i_433>:
    8000079c:	01ef5f33          	srl	t5,t5,t5

00000000800007a0 <i_434>:
    800007a0:	03ef7a3b          	remuw	s4,t5,t5

00000000800007a4 <i_435>:
    800007a4:	f3913823          	sd	s9,-208(sp)

00000000800007a8 <i_436>:
    800007a8:	402f5f1b          	sraiw	t5,t5,0x2

00000000800007ac <i_437>:
    800007ac:	03e17f3b          	remuw	t5,sp,t5

00000000800007b0 <i_438>:
    800007b0:	036f4263          	blt	t5,s6,800007d4 <i_447>

00000000800007b4 <i_439>:
    800007b4:	08710a03          	lb	s4,135(sp)

00000000800007b8 <i_440>:
    800007b8:	fdc16b83          	lwu	s7,-36(sp)

00000000800007bc <i_441>:
    800007bc:	0149e863          	bltu	s3,s4,800007cc <i_445>

00000000800007c0 <i_442>:
    800007c0:	ea416683          	lwu	a3,-348(sp)

00000000800007c4 <i_443>:
    800007c4:	f7e13023          	sd	t5,-160(sp)

00000000800007c8 <i_444>:
    800007c8:	03ea5263          	ble	t5,s4,800007ec <i_453>

00000000800007cc <i_445>:
    800007cc:	03ecf1b3          	remu	gp,s9,t5

00000000800007d0 <i_446>:
    800007d0:	fe813083          	ld	ra,-24(sp)

00000000800007d4 <i_447>:
    800007d4:	eaa14f03          	lbu	t5,-342(sp)

00000000800007d8 <i_448>:
    800007d8:	18013183          	ld	gp,384(sp)

00000000800007dc <i_449>:
    800007dc:	0c111023          	sh	ra,192(sp)

00000000800007e0 <i_450>:
    800007e0:	0230a7b3          	mulhsu	a5,ra,gp

00000000800007e4 <i_451>:
    800007e4:	1ac12f03          	lw	t5,428(sp)

00000000800007e8 <i_452>:
    800007e8:	0a611423          	sh	t1,168(sp)

00000000800007ec <i_453>:
    800007ec:	0d816503          	lwu	a0,216(sp)

00000000800007f0 <i_454>:
    800007f0:	0232ff33          	remu	t5,t0,gp

00000000800007f4 <i_455>:
    800007f4:	78700c93          	li	s9,1927

00000000800007f8 <i_456>:
    800007f8:	79300993          	li	s3,1939

00000000800007fc <i_457>:
    800007fc:	0041d19b          	srliw	gp,gp,0x4

0000000080000800 <i_458>:
    80000800:	403f02b3          	sub	t0,t5,gp

0000000080000804 <i_459>:
    80000804:	025f6663          	bltu	t5,t0,80000830 <i_469>

0000000080000808 <i_460>:
    80000808:	001c8c93          	addi	s9,s9,1
    8000080c:	ff3cc8e3          	blt	s9,s3,800007fc <i_457>

0000000080000810 <i_461>:
    80000810:	ede12e23          	sw	t5,-292(sp)

0000000080000814 <i_462>:
    80000814:	405181b3          	sub	gp,gp,t0

0000000080000818 <i_463>:
    80000818:	0fc11303          	lh	t1,252(sp)

000000008000081c <i_464>:
    8000081c:	023f4263          	blt	t5,gp,80000840 <i_473>

0000000080000820 <i_465>:
    80000820:	0cc13c23          	sd	a2,216(sp)

0000000080000824 <i_466>:
    80000824:	006d5e63          	ble	t1,s10,80000840 <i_473>

0000000080000828 <i_467>:
    80000828:	03733eb3          	mulhu	t4,t1,s7

000000008000082c <i_468>:
    8000082c:	00618863          	beq	gp,t1,8000083c <i_472>

0000000080000830 <i_469>:
    80000830:	403e8abb          	subw	s5,t4,gp

0000000080000834 <i_470>:
    80000834:	003ec463          	blt	t4,gp,8000083c <i_472>

0000000080000838 <i_471>:
    80000838:	023f5063          	ble	gp,t5,80000858 <i_479>

000000008000083c <i_472>:
    8000083c:	01eb5a63          	ble	t5,s6,80000850 <i_477>

0000000080000840 <i_473>:
    80000840:	00000013          	nop

0000000080000844 <i_474>:
    80000844:	ff415c03          	lhu	s8,-12(sp)

0000000080000848 <i_475>:
    80000848:	23938a93          	addi	s5,t2,569

000000008000084c <i_476>:
    8000084c:	ea816083          	lwu	ra,-344(sp)

0000000080000850 <i_477>:
    80000850:	00000013          	nop

0000000080000854 <i_478>:
    80000854:	f0611983          	lh	s3,-250(sp)

0000000080000858 <i_479>:
    80000858:	0269deb3          	divu	t4,s3,t1

000000008000085c <i_480>:
    8000085c:	8a6ebd37          	lui	s10,0x8a6eb

0000000080000860 <i_481>:
    80000860:	7b000f13          	li	t5,1968

0000000080000864 <i_482>:
    80000864:	7c200493          	li	s1,1986

0000000080000868 <i_483>:
    80000868:	03200b93          	li	s7,50

000000008000086c <i_484>:
    8000086c:	01709333          	sll	t1,ra,s7

0000000080000870 <i_485>:
    80000870:	036d0b3b          	mulw	s6,s10,s6

0000000080000874 <i_486>:
    80000874:	003a5813          	srli	a6,s4,0x3

0000000080000878 <i_487>:
    80000878:	001f0f13          	addi	t5,t5,1
    8000087c:	fe9f66e3          	bltu	t5,s1,80000868 <i_483>

0000000080000880 <i_488>:
    80000880:	40a8083b          	subw	a6,a6,a0

0000000080000884 <i_489>:
    80000884:	09215a03          	lhu	s4,146(sp)

0000000080000888 <i_490>:
    80000888:	f0211503          	lh	a0,-254(sp)

000000008000088c <i_491>:
    8000088c:	4048581b          	sraiw	a6,a6,0x4

0000000080000890 <i_492>:
    80000890:	ac0a7813          	andi	a6,s4,-1344

0000000080000894 <i_493>:
    80000894:	e6010e03          	lb	t3,-416(sp)

0000000080000898 <i_494>:
    80000898:	00a84c63          	blt	a6,a0,800008b0 <i_500>

000000008000089c <i_495>:
    8000089c:	00200813          	li	a6,2

00000000800008a0 <i_496>:
    800008a0:	410e59b3          	sra	s3,t3,a6

00000000800008a4 <i_497>:
    800008a4:	033a8533          	mul	a0,s5,s3

00000000800008a8 <i_498>:
    800008a8:	10a14d83          	lbu	s11,266(sp)

00000000800008ac <i_499>:
    800008ac:	01f80833          	add	a6,a6,t6

00000000800008b0 <i_500>:
    800008b0:	ebf14c83          	lbu	s9,-321(sp)

00000000800008b4 <i_501>:
    800008b4:	0239d063          	ble	gp,s3,800008d4 <i_509>

00000000800008b8 <i_502>:
    800008b8:	00900c13          	li	s8,9

00000000800008bc <i_503>:
    800008bc:	018c96b3          	sll	a3,s9,s8

00000000800008c0 <i_504>:
    800008c0:	028a7263          	bleu	s0,s4,800008e4 <i_513>

00000000800008c4 <i_505>:
    800008c4:	18b10a03          	lb	s4,395(sp)

00000000800008c8 <i_506>:
    800008c8:	ebd13023          	sd	t4,-352(sp)

00000000800008cc <i_507>:
    800008cc:	e7313823          	sd	s3,-400(sp)

00000000800008d0 <i_508>:
    800008d0:	00550db3          	add	s11,a0,t0

00000000800008d4 <i_509>:
    800008d4:	8d482c93          	slti	s9,a6,-1836

00000000800008d8 <i_510>:
    800008d8:	e9311823          	sh	s3,-368(sp)

00000000800008dc <i_511>:
    800008dc:	01300993          	li	s3,19

00000000800008e0 <i_512>:
    800008e0:	013852bb          	srlw	t0,a6,s3

00000000800008e4 <i_513>:
    800008e4:	e4211803          	lh	a6,-446(sp)

00000000800008e8 <i_514>:
    800008e8:	02a8453b          	divw	a0,a6,a0

00000000800008ec <i_515>:
    800008ec:	7b400193          	li	gp,1972

00000000800008f0 <i_516>:
    800008f0:	7bf00213          	li	tp,1983

00000000800008f4 <i_517>:
    800008f4:	00118193          	addi	gp,gp,1 # 10001 <main-0x7ffeffff>
    800008f8:	fe419ee3          	bne	gp,tp,800008f4 <i_517>

00000000800008fc <i_518>:
    800008fc:	025f0f33          	mul	t5,t5,t0

0000000080000900 <i_519>:
    80000900:	444aee17          	auipc	t3,0x444ae

0000000080000904 <i_520>:
    80000904:	18c15983          	lhu	s3,396(sp)

0000000080000908 <i_521>:
    80000908:	01384b33          	xor	s6,a6,s3

000000008000090c <i_522>:
    8000090c:	86700813          	li	a6,-1945

0000000080000910 <i_523>:
    80000910:	86c00f13          	li	t5,-1940

0000000080000914 <i_524>:
    80000914:	fc816083          	lwu	ra,-56(sp)

0000000080000918 <i_525>:
    80000918:	033c04b3          	mul	s1,s8,s3

000000008000091c <i_526>:
    8000091c:	005cc663          	blt	s9,t0,80000928 <i_529>

0000000080000920 <i_527>:
    80000920:	015b4263          	blt	s6,s5,80000924 <i_528>

0000000080000924 <i_528>:
    80000924:	13613423          	sd	s6,296(sp)

0000000080000928 <i_529>:
    80000928:	16510b03          	lb	s6,357(sp)

000000008000092c <i_530>:
    8000092c:	036b4b33          	div	s6,s6,s6

0000000080000930 <i_531>:
    80000930:	12712023          	sw	t2,288(sp)

0000000080000934 <i_532>:
    80000934:	e1c11a03          	lh	s4,-484(sp)

0000000080000938 <i_533>:
    80000938:	ee412c03          	lw	s8,-284(sp)

000000008000093c <i_534>:
    8000093c:	ef813423          	sd	s8,-280(sp)

0000000080000940 <i_535>:
    80000940:	0d210283          	lb	t0,210(sp)

0000000080000944 <i_536>:
    80000944:	00500293          	li	t0,5

0000000080000948 <i_537>:
    80000948:	4051dbbb          	sraw	s7,gp,t0

000000008000094c <i_538>:
    8000094c:	00180813          	addi	a6,a6,1
    80000950:	fde862e3          	bltu	a6,t5,80000914 <i_524>

0000000080000954 <i_539>:
    80000954:	0161ea63          	bltu	gp,s6,80000968 <i_544>

0000000080000958 <i_540>:
    80000958:	0090c863          	blt	ra,s1,80000968 <i_544>

000000008000095c <i_541>:
    8000095c:	fe416183          	lwu	gp,-28(sp)

0000000080000960 <i_542>:
    80000960:	f5314e83          	lbu	t4,-173(sp)

0000000080000964 <i_543>:
    80000964:	00000013          	nop

0000000080000968 <i_544>:
    80000968:	fd710c23          	sb	s7,-40(sp)

000000008000096c <i_545>:
    8000096c:	f9d11423          	sh	t4,-120(sp)

0000000080000970 <i_546>:
    80000970:	89800093          	li	ra,-1896

0000000080000974 <i_547>:
    80000974:	8ac00993          	li	s3,-1876

0000000080000978 <i_548>:
    80000978:	f4016d03          	lwu	s10,-192(sp)

000000008000097c <i_549>:
    8000097c:	216ba513          	slti	a0,s7,534

0000000080000980 <i_550>:
    80000980:	f2015583          	lhu	a1,-224(sp)

0000000080000984 <i_551>:
    80000984:	014d4e63          	blt	s10,s4,800009a0 <i_557>

0000000080000988 <i_552>:
    80000988:	001481b3          	add	gp,s1,ra

000000008000098c <i_553>:
    8000098c:	001c7d33          	and	s10,s8,ra

0000000080000990 <i_554>:
    80000990:	00108093          	addi	ra,ra,1
    80000994:	fe19d2e3          	ble	ra,s3,80000978 <i_548>

0000000080000998 <i_555>:
    80000998:	0151f0b3          	and	ra,gp,s5

000000008000099c <i_556>:
    8000099c:	16b13423          	sd	a1,360(sp)

00000000800009a0 <i_557>:
    800009a0:	ffd10a83          	lb	s5,-3(sp)

00000000800009a4 <i_558>:
    800009a4:	0151f863          	bleu	s5,gp,800009b4 <i_562>

00000000800009a8 <i_559>:
    800009a8:	ecb13023          	sd	a1,-320(sp)

00000000800009ac <i_560>:
    800009ac:	16113423          	sd	ra,360(sp)

00000000800009b0 <i_561>:
    800009b0:	1dc16083          	lwu	ra,476(sp)

00000000800009b4 <i_562>:
    800009b4:	02633333          	mulhu	t1,t1,t1

00000000800009b8 <i_563>:
    800009b8:	006a81b3          	add	gp,s5,t1

00000000800009bc <i_564>:
    800009bc:	06814083          	lbu	ra,104(sp)

00000000800009c0 <i_565>:
    800009c0:	0db11a23          	sh	s11,212(sp)

00000000800009c4 <i_566>:
    800009c4:	f6016a83          	lwu	s5,-160(sp)

00000000800009c8 <i_567>:
    800009c8:	029ad463          	ble	s1,s5,800009f0 <i_577>

00000000800009cc <i_568>:
    800009cc:	0359e9bb          	remw	s3,s3,s5

00000000800009d0 <i_569>:
    800009d0:	00400213          	li	tp,4

00000000800009d4 <i_570>:
    800009d4:	004b1ab3          	sll	s5,s6,tp

00000000800009d8 <i_571>:
    800009d8:	9ad34993          	xori	s3,t1,-1619

00000000800009dc <i_572>:
    800009dc:	1b311523          	sh	s3,426(sp)

00000000800009e0 <i_573>:
    800009e0:	0b815503          	lhu	a0,184(sp)

00000000800009e4 <i_574>:
    800009e4:	00900a93          	li	s5,9

00000000800009e8 <i_575>:
    800009e8:	415e5e33          	sra	t3,t3,s5

00000000800009ec <i_576>:
    800009ec:	8209e993          	ori	s3,s3,-2016

00000000800009f0 <i_577>:
    800009f0:	03386263          	bltu	a6,s3,80000a14 <i_586>

00000000800009f4 <i_578>:
    800009f4:	ed013a03          	ld	s4,-304(sp)

00000000800009f8 <i_579>:
    800009f8:	17313423          	sd	s3,360(sp)

00000000800009fc <i_580>:
    800009fc:	02c00a13          	li	s4,44

0000000080000a00 <i_581>:
    80000a00:	014999b3          	sll	s3,s3,s4

0000000080000a04 <i_582>:
    80000a04:	01398263          	beq	s3,s3,80000a08 <i_583>

0000000080000a08 <i_583>:
    80000a08:	0339f9b3          	remu	s3,s3,s3

0000000080000a0c <i_584>:
    80000a0c:	19310d23          	sb	s3,410(sp)

0000000080000a10 <i_585>:
    80000a10:	6d09b213          	sltiu	tp,s3,1744

0000000080000a14 <i_586>:
    80000a14:	18614d83          	lbu	s11,390(sp)

0000000080000a18 <i_587>:
    80000a18:	1a110d23          	sb	ra,442(sp)

0000000080000a1c <i_588>:
    80000a1c:	01000993          	li	s3,16

0000000080000a20 <i_589>:
    80000a20:	0132523b          	srlw	tp,tp,s3

0000000080000a24 <i_590>:
    80000a24:	fa215203          	lhu	tp,-94(sp)

0000000080000a28 <i_591>:
    80000a28:	004a1e63          	bne	s4,tp,80000a44 <i_598>

0000000080000a2c <i_592>:
    80000a2c:	1a615a83          	lhu	s5,422(sp)

0000000080000a30 <i_593>:
    80000a30:	e9c12303          	lw	t1,-356(sp)

0000000080000a34 <i_594>:
    80000a34:	0243523b          	divuw	tp,t1,tp

0000000080000a38 <i_595>:
    80000a38:	0c816603          	lwu	a2,200(sp)

0000000080000a3c <i_596>:
    80000a3c:	ea410ea3          	sb	tp,-323(sp)

0000000080000a40 <i_597>:
    80000a40:	1c411823          	sh	tp,464(sp)

0000000080000a44 <i_598>:
    80000a44:	00461a63          	bne	a2,tp,80000a58 <i_603>

0000000080000a48 <i_599>:
    80000a48:	fa811023          	sh	s0,-96(sp)

0000000080000a4c <i_600>:
    80000a4c:	652f7b13          	andi	s6,t5,1618

0000000080000a50 <i_601>:
    80000a50:	1fc12023          	sw	t3,480(sp)

0000000080000a54 <i_602>:
    80000a54:	15613823          	sd	s6,336(sp)

0000000080000a58 <i_603>:
    80000a58:	0033f463          	bleu	gp,t2,80000a60 <i_605>

0000000080000a5c <i_604>:
    80000a5c:	00465c63          	ble	tp,a2,80000a74 <i_610>

0000000080000a60 <i_605>:
    80000a60:	983b2213          	slti	tp,s6,-1661

0000000080000a64 <i_606>:
    80000a64:	fc113823          	sd	ra,-48(sp)

0000000080000a68 <i_607>:
    80000a68:	021989bb          	mulw	s3,s3,ra

0000000080000a6c <i_608>:
    80000a6c:	403c5293          	srai	t0,s8,0x3

0000000080000a70 <i_609>:
    80000a70:	1ac16c03          	lwu	s8,428(sp)

0000000080000a74 <i_610>:
    80000a74:	00000013          	nop

0000000080000a78 <i_611>:
    80000a78:	01000193          	li	gp,16

0000000080000a7c <i_612>:
    80000a7c:	003812bb          	sllw	t0,a6,gp

0000000080000a80 <i_613>:
    80000a80:	75000c93          	li	s9,1872

0000000080000a84 <i_614>:
    80000a84:	75e00393          	li	t2,1886

0000000080000a88 <i_615>:
    80000a88:	fb813c23          	sd	s8,-72(sp)

0000000080000a8c <i_616>:
    80000a8c:	001c8c93          	addi	s9,s9,1
    80000a90:	fe7ceae3          	bltu	s9,t2,80000a84 <i_614>

0000000080000a94 <i_617>:
    80000a94:	f1013383          	ld	t2,-240(sp)

0000000080000a98 <i_618>:
    80000a98:	01d1ee63          	bltu	gp,t4,80000ab4 <i_625>

0000000080000a9c <i_619>:
    80000a9c:	f6812f03          	lw	t5,-152(sp)

0000000080000aa0 <i_620>:
    80000aa0:	0259c6bb          	divw	a3,s3,t0

0000000080000aa4 <i_621>:
    80000aa4:	0155fa63          	bleu	s5,a1,80000ab8 <i_626>

0000000080000aa8 <i_622>:
    80000aa8:	01999463          	bne	s3,s9,80000ab0 <i_624>

0000000080000aac <i_623>:
    80000aac:	00798463          	beq	s3,t2,80000ab4 <i_625>

0000000080000ab0 <i_624>:
    80000ab0:	eb211c83          	lh	s9,-334(sp)

0000000080000ab4 <i_625>:
    80000ab4:	fea13c23          	sd	a0,-8(sp)

0000000080000ab8 <i_626>:
    80000ab8:	0ae10683          	lb	a3,174(sp)

0000000080000abc <i_627>:
    80000abc:	92d3e293          	ori	t0,t2,-1747

0000000080000ac0 <i_628>:
    80000ac0:	019b5c63          	ble	s9,s6,80000ad8 <i_634>

0000000080000ac4 <i_629>:
    80000ac4:	01929663          	bne	t0,s9,80000ad0 <i_632>

0000000080000ac8 <i_630>:
    80000ac8:	00cf6463          	bltu	t5,a2,80000ad0 <i_632>

0000000080000acc <i_631>:
    80000acc:	00000013          	nop

0000000080000ad0 <i_632>:
    80000ad0:	00000013          	nop

0000000080000ad4 <i_633>:
    80000ad4:	00000013          	nop

0000000080000ad8 <i_634>:
    80000ad8:	0cc11c23          	sh	a2,216(sp)

0000000080000adc <i_635>:
    80000adc:	12511823          	sh	t0,304(sp)

0000000080000ae0 <i_636>:
    80000ae0:	7e600c93          	li	s9,2022

0000000080000ae4 <i_637>:
    80000ae4:	7ef00613          	li	a2,2031

0000000080000ae8 <i_638>:
    80000ae8:	1c510d83          	lb	s11,453(sp)

0000000080000aec <i_639>:
    80000aec:	005eeeb3          	or	t4,t4,t0

0000000080000af0 <i_640>:
    80000af0:	02cee063          	bltu	t4,a2,80000b10 <i_647>

0000000080000af4 <i_641>:
    80000af4:	03de9eb3          	mulh	t4,t4,t4

0000000080000af8 <i_642>:
    80000af8:	001c8c93          	addi	s9,s9,1
    80000afc:	fecce6e3          	bltu	s9,a2,80000ae8 <i_638>

0000000080000b00 <i_643>:
    80000b00:	05813283          	ld	t0,88(sp)

0000000080000b04 <i_644>:
    80000b04:	0055dc63          	ble	t0,a1,80000b1c <i_650>

0000000080000b08 <i_645>:
    80000b08:	ffb10823          	sb	s11,-16(sp)

0000000080000b0c <i_646>:
    80000b0c:	41de8c3b          	subw	s8,t4,t4

0000000080000b10 <i_647>:
    80000b10:	00a15083          	lhu	ra,10(sp)

0000000080000b14 <i_648>:
    80000b14:	005c1663          	bne	s8,t0,80000b20 <i_651>

0000000080000b18 <i_649>:
    80000b18:	001d8863          	beq	s11,ra,80000b28 <i_653>

0000000080000b1c <i_650>:
    80000b1c:	0025569b          	srliw	a3,a0,0x2

0000000080000b20 <i_651>:
    80000b20:	f1415d83          	lhu	s11,-236(sp)

0000000080000b24 <i_652>:
    80000b24:	4026dd9b          	sraiw	s11,a3,0x2

0000000080000b28 <i_653>:
    80000b28:	e3b14503          	lbu	a0,-453(sp)

0000000080000b2c <i_654>:
    80000b2c:	41b50533          	sub	a0,a0,s11

0000000080000b30 <i_655>:
    80000b30:	e6012503          	lw	a0,-416(sp)

0000000080000b34 <i_656>:
    80000b34:	15b11523          	sh	s11,330(sp)

0000000080000b38 <i_657>:
    80000b38:	e5a11d83          	lh	s11,-422(sp)

0000000080000b3c <i_658>:
    80000b3c:	00add663          	ble	a0,s11,80000b48 <i_661>

0000000080000b40 <i_659>:
    80000b40:	00011303          	lh	t1,0(sp)

0000000080000b44 <i_660>:
    80000b44:	03c12403          	lw	s0,60(sp)

0000000080000b48 <i_661>:
    80000b48:	10110d83          	lb	s11,257(sp)

0000000080000b4c <i_662>:
    80000b4c:	02837433          	remu	s0,t1,s0

0000000080000b50 <i_663>:
    80000b50:	011403b3          	add	t2,s0,a7

0000000080000b54 <i_664>:
    80000b54:	f9412a83          	lw	s5,-108(sp)

0000000080000b58 <i_665>:
    80000b58:	00611403          	lh	s0,6(sp)

0000000080000b5c <i_666>:
    80000b5c:	0270c3b3          	div	t2,ra,t2

0000000080000b60 <i_667>:
    80000b60:	02600093          	li	ra,38

0000000080000b64 <i_668>:
    80000b64:	00165633          	srl	a2,a2,ra

0000000080000b68 <i_669>:
    80000b68:	0e814383          	lbu	t2,232(sp)

0000000080000b6c <i_670>:
    80000b6c:	01c00c13          	li	s8,28

0000000080000b70 <i_671>:
    80000b70:	4180ddbb          	sraw	s11,ra,s8

0000000080000b74 <i_672>:
    80000b74:	8a200a93          	li	s5,-1886

0000000080000b78 <i_673>:
    80000b78:	8a800c93          	li	s9,-1880

0000000080000b7c <i_674>:
    80000b7c:	001a8a93          	addi	s5,s5,1
    80000b80:	ff5cfce3          	bleu	s5,s9,80000b78 <i_673>

0000000080000b84 <i_675>:
    80000b84:	11512623          	sw	s5,268(sp)

0000000080000b88 <i_676>:
    80000b88:	0398f263          	bleu	s9,a7,80000bac <i_685>

0000000080000b8c <i_677>:
    80000b8c:	01200413          	li	s0,18

0000000080000b90 <i_678>:
    80000b90:	408c5cbb          	sraw	s9,s8,s0

0000000080000b94 <i_679>:
    80000b94:	008dca63          	blt	s11,s0,80000ba8 <i_684>

0000000080000b98 <i_680>:
    80000b98:	12416f03          	lwu	t5,292(sp)

0000000080000b9c <i_681>:
    80000b9c:	fe813e83          	ld	t4,-24(sp)

0000000080000ba0 <i_682>:
    80000ba0:	008dfe63          	bleu	s0,s11,80000bbc <i_689>

0000000080000ba4 <i_683>:
    80000ba4:	01b00f13          	li	t5,27

0000000080000ba8 <i_684>:
    80000ba8:	41ed5c33          	sra	s8,s10,t5

0000000080000bac <i_685>:
    80000bac:	ed3101a3          	sb	s3,-317(sp)

0000000080000bb0 <i_686>:
    80000bb0:	018f4e63          	blt	t5,s8,80000bcc <i_693>

0000000080000bb4 <i_687>:
    80000bb4:	41ef0f3b          	subw	t5,t5,t5

0000000080000bb8 <i_688>:
    80000bb8:	004f161b          	slliw	a2,t5,0x4

0000000080000bbc <i_689>:
    80000bbc:	08816a03          	lwu	s4,136(sp)

0000000080000bc0 <i_690>:
    80000bc0:	01800e93          	li	t4,24

0000000080000bc4 <i_691>:
    80000bc4:	01d85c33          	srl	s8,a6,t4

0000000080000bc8 <i_692>:
    80000bc8:	014a5463          	ble	s4,s4,80000bd0 <i_694>

0000000080000bcc <i_693>:
    80000bcc:	e9a14503          	lbu	a0,-358(sp)

0000000080000bd0 <i_694>:
    80000bd0:	014d2d33          	slt	s10,s10,s4

0000000080000bd4 <i_695>:
    80000bd4:	eea10823          	sb	a0,-272(sp)

0000000080000bd8 <i_696>:
    80000bd8:	11812023          	sw	s8,256(sp)

0000000080000bdc <i_697>:
    80000bdc:	e3211503          	lh	a0,-462(sp)

0000000080000be0 <i_698>:
    80000be0:	02ac9463          	bne	s9,a0,80000c08 <i_708>

0000000080000be4 <i_699>:
    80000be4:	f1015383          	lhu	t2,-240(sp)

0000000080000be8 <i_700>:
    80000be8:	01a3a533          	slt	a0,t2,s10

0000000080000bec <i_701>:
    80000bec:	eec11383          	lh	t2,-276(sp)

0000000080000bf0 <i_702>:
    80000bf0:	05416d03          	lwu	s10,84(sp)

0000000080000bf4 <i_703>:
    80000bf4:	00200093          	li	ra,2

0000000080000bf8 <i_704>:
    80000bf8:	001d55bb          	srlw	a1,s10,ra

0000000080000bfc <i_705>:
    80000bfc:	03ecff33          	remu	t5,s9,t5

0000000080000c00 <i_706>:
    80000c00:	00700593          	li	a1,7

0000000080000c04 <i_707>:
    80000c04:	00bd15bb          	sllw	a1,s10,a1

0000000080000c08 <i_708>:
    80000c08:	f6813f03          	ld	t5,-152(sp)

0000000080000c0c <i_709>:
    80000c0c:	efa11583          	lh	a1,-262(sp)

0000000080000c10 <i_710>:
    80000c10:	7eb00c93          	li	s9,2027

0000000080000c14 <i_711>:
    80000c14:	7fe00393          	li	t2,2046

0000000080000c18 <i_712>:
    80000c18:	00c15503          	lhu	a0,12(sp)

0000000080000c1c <i_713>:
    80000c1c:	007f5c63          	ble	t2,t5,80000c34 <i_718>

0000000080000c20 <i_714>:
    80000c20:	001c8c93          	addi	s9,s9,1
    80000c24:	ff93dae3          	ble	s9,t2,80000c18 <i_712>

0000000080000c28 <i_715>:
    80000c28:	faa13823          	sd	a0,-80(sp)

0000000080000c2c <i_716>:
    80000c2c:	00471a93          	slli	s5,a4,0x4

0000000080000c30 <i_717>:
    80000c30:	c3a6e5b7          	lui	a1,0xc3a6e

0000000080000c34 <i_718>:
    80000c34:	02b11023          	sh	a1,32(sp)

0000000080000c38 <i_719>:
    80000c38:	f7015683          	lhu	a3,-144(sp)

0000000080000c3c <i_720>:
    80000c3c:	7c300513          	li	a0,1987

0000000080000c40 <i_721>:
    80000c40:	7c700193          	li	gp,1991

0000000080000c44 <i_722>:
    80000c44:	e1a15583          	lhu	a1,-486(sp)

0000000080000c48 <i_723>:
    80000c48:	023686b3          	mul	a3,a3,gp

0000000080000c4c <i_724>:
    80000c4c:	4021d693          	srai	a3,gp,0x2

0000000080000c50 <i_725>:
    80000c50:	84500593          	li	a1,-1979

0000000080000c54 <i_726>:
    80000c54:	84c00b13          	li	s6,-1972

0000000080000c58 <i_727>:
    80000c58:	09a11a83          	lh	s5,154(sp)

0000000080000c5c <i_728>:
    80000c5c:	00000013          	nop

0000000080000c60 <i_729>:
    80000c60:	8bdae413          	ori	s0,s5,-1859

0000000080000c64 <i_730>:
    80000c64:	00000013          	nop

0000000080000c68 <i_731>:
    80000c68:	00158593          	addi	a1,a1,1 # ffffffffc3a6e001 <_end+0xffffffff43a5dbed>
    80000c6c:	febb76e3          	bleu	a1,s6,80000c58 <i_727>

0000000080000c70 <i_732>:
    80000c70:	01576e63          	bltu	a4,s5,80000c8c <i_738>

0000000080000c74 <i_733>:
    80000c74:	ed416a03          	lwu	s4,-300(sp)

0000000080000c78 <i_734>:
    80000c78:	00150513          	addi	a0,a0,1 # 1193c001 <main-0x6e6c3fff>
    80000c7c:	fc3514e3          	bne	a0,gp,80000c44 <i_722>

0000000080000c80 <i_735>:
    80000c80:	034ac33b          	divw	t1,s5,s4

0000000080000c84 <i_736>:
    80000c84:	014a5863          	ble	s4,s4,80000c94 <i_740>

0000000080000c88 <i_737>:
    80000c88:	fe016203          	lwu	tp,-32(sp)

0000000080000c8c <i_738>:
    80000c8c:	08613c23          	sd	t1,152(sp)

0000000080000c90 <i_739>:
    80000c90:	001add93          	srli	s11,s5,0x1

0000000080000c94 <i_740>:
    80000c94:	03b40c33          	mul	s8,s0,s11

0000000080000c98 <i_741>:
    80000c98:	00000013          	nop

0000000080000c9c <i_742>:
    80000c9c:	7f800393          	li	t2,2040

0000000080000ca0 <i_743>:
    80000ca0:	7fb00b13          	li	s6,2043

0000000080000ca4 <i_744>:
    80000ca4:	ff410c23          	sb	s4,-8(sp)

0000000080000ca8 <i_745>:
    80000ca8:	f2410aa3          	sb	tp,-203(sp)

0000000080000cac <i_746>:
    80000cac:	00138393          	addi	t2,t2,1
    80000cb0:	ff63eae3          	bltu	t2,s6,80000ca4 <i_744>

0000000080000cb4 <i_747>:
    80000cb4:	01be2c33          	slt	s8,t3,s11

0000000080000cb8 <i_748>:
    80000cb8:	01400193          	li	gp,20

0000000080000cbc <i_749>:
    80000cbc:	003353bb          	srlw	t2,t1,gp

0000000080000cc0 <i_750>:
    80000cc0:	0e213023          	sd	sp,224(sp)

0000000080000cc4 <i_751>:
    80000cc4:	e6812d83          	lw	s11,-408(sp)

0000000080000cc8 <i_752>:
    80000cc8:	fad14383          	lbu	t2,-83(sp)

0000000080000ccc <i_753>:
    80000ccc:	e8712e23          	sw	t2,-356(sp)

0000000080000cd0 <i_754>:
    80000cd0:	f8816183          	lwu	gp,-120(sp)

0000000080000cd4 <i_755>:
    80000cd4:	fbca8313          	addi	t1,s5,-68

0000000080000cd8 <i_756>:
    80000cd8:	01376c63          	bltu	a4,s3,80000cf0 <i_762>

0000000080000cdc <i_757>:
    80000cdc:	1d013f03          	ld	t5,464(sp)

0000000080000ce0 <i_758>:
    80000ce0:	f3416603          	lwu	a2,-204(sp)

0000000080000ce4 <i_759>:
    80000ce4:	fce15a83          	lhu	s5,-50(sp)

0000000080000ce8 <i_760>:
    80000ce8:	14210723          	sb	sp,334(sp)

0000000080000cec <i_761>:
    80000cec:	ffd13023          	sd	t4,-32(sp)

0000000080000cf0 <i_762>:
    80000cf0:	02556cbb          	remw	s9,a0,t0

0000000080000cf4 <i_763>:
    80000cf4:	00750f33          	add	t5,a0,t2

0000000080000cf8 <i_764>:
    80000cf8:	88300193          	li	gp,-1917

0000000080000cfc <i_765>:
    80000cfc:	89200b93          	li	s7,-1902

0000000080000d00 <i_766>:
    80000d00:	ee712e23          	sw	t2,-260(sp)

0000000080000d04 <i_767>:
    80000d04:	e7c14f03          	lbu	t5,-388(sp)

0000000080000d08 <i_768>:
    80000d08:	00000013          	nop

0000000080000d0c <i_769>:
    80000d0c:	404cd613          	srai	a2,s9,0x4

0000000080000d10 <i_770>:
    80000d10:	00000013          	nop

0000000080000d14 <i_771>:
    80000d14:	0027d79b          	srliw	a5,a5,0x2

0000000080000d18 <i_772>:
    80000d18:	00119413          	slli	s0,gp,0x1

0000000080000d1c <i_773>:
    80000d1c:	00118193          	addi	gp,gp,1
    80000d20:	ff71e0e3          	bltu	gp,s7,80000d00 <i_766>

0000000080000d24 <i_774>:
    80000d24:	028efeb3          	remu	t4,t4,s0

0000000080000d28 <i_775>:
    80000d28:	00feee63          	bltu	t4,a5,80000d44 <i_782>

0000000080000d2c <i_776>:
    80000d2c:	4034531b          	sraiw	t1,s0,0x3

0000000080000d30 <i_777>:
    80000d30:	f8211783          	lh	a5,-126(sp)

0000000080000d34 <i_778>:
    80000d34:	01d7ca63          	blt	a5,t4,80000d48 <i_783>

0000000080000d38 <i_779>:
    80000d38:	e3c12403          	lw	s0,-452(sp)

0000000080000d3c <i_780>:
    80000d3c:	1504849b          	addiw	s1,s1,336

0000000080000d40 <i_781>:
    80000d40:	00d00a13          	li	s4,13

0000000080000d44 <i_782>:
    80000d44:	0144143b          	sllw	s0,s0,s4

0000000080000d48 <i_783>:
    80000d48:	05a15083          	lhu	ra,90(sp)

0000000080000d4c <i_784>:
    80000d4c:	e7412623          	sw	s4,-404(sp)

0000000080000d50 <i_785>:
    80000d50:	82c00313          	li	t1,-2004

0000000080000d54 <i_786>:
    80000d54:	83600d13          	li	s10,-1994

0000000080000d58 <i_787>:
    80000d58:	0a414083          	lbu	ra,164(sp)

0000000080000d5c <i_788>:
    80000d5c:	04c15783          	lhu	a5,76(sp)

0000000080000d60 <i_789>:
    80000d60:	0210fb3b          	remuw	s6,ra,ra

0000000080000d64 <i_790>:
    80000d64:	00130313          	addi	t1,t1,1
    80000d68:	ffa318e3          	bne	t1,s10,80000d58 <i_787>

0000000080000d6c <i_791>:
    80000d6c:	001cc463          	blt	s9,ra,80000d74 <i_793>

0000000080000d70 <i_792>:
    80000d70:	40248eb3          	sub	t4,s1,sp

0000000080000d74 <i_793>:
    80000d74:	03ba54bb          	divuw	s1,s4,s11

0000000080000d78 <i_794>:
    80000d78:	eba11083          	lh	ra,-326(sp)

0000000080000d7c <i_795>:
    80000d7c:	00e00793          	li	a5,14

0000000080000d80 <i_796>:
    80000d80:	00f79c33          	sll	s8,a5,a5

0000000080000d84 <i_797>:
    80000d84:	00908a63          	beq	ra,s1,80000d98 <i_802>

0000000080000d88 <i_798>:
    80000d88:	1ae11b03          	lh	s6,430(sp)

0000000080000d8c <i_799>:
    80000d8c:	030d3b33          	mulhu	s6,s10,a6

0000000080000d90 <i_800>:
    80000d90:	fd215e83          	lhu	t4,-46(sp)

0000000080000d94 <i_801>:
    80000d94:	00c80863          	beq	a6,a2,80000da4 <i_805>

0000000080000d98 <i_802>:
    80000d98:	13815b83          	lhu	s7,312(sp)

0000000080000d9c <i_803>:
    80000d9c:	1cb11923          	sh	a1,466(sp)

0000000080000da0 <i_804>:
    80000da0:	14c11303          	lh	t1,332(sp)

0000000080000da4 <i_805>:
    80000da4:	0e416b03          	lwu	s6,228(sp)

0000000080000da8 <i_806>:
    80000da8:	12913823          	sd	s1,304(sp)

0000000080000dac <i_807>:
    80000dac:	ef010323          	sb	a6,-282(sp)

0000000080000db0 <i_808>:
    80000db0:	00980333          	add	t1,a6,s1

0000000080000db4 <i_809>:
    80000db4:	f9613023          	sd	s6,-128(sp)

0000000080000db8 <i_810>:
    80000db8:	00200313          	li	t1,2

0000000080000dbc <i_811>:
    80000dbc:	00635233          	srl	tp,t1,t1

0000000080000dc0 <i_812>:
    80000dc0:	01945663          	ble	s9,s0,80000dcc <i_815>

0000000080000dc4 <i_813>:
    80000dc4:	00630333          	add	t1,t1,t1

0000000080000dc8 <i_814>:
    80000dc8:	026515b3          	mulh	a1,a0,t1

0000000080000dcc <i_815>:
    80000dcc:	00000013          	nop

0000000080000dd0 <i_816>:
    80000dd0:	0049c333          	xor	t1,s3,tp

0000000080000dd4 <i_817>:
    80000dd4:	87500e13          	li	t3,-1931

0000000080000dd8 <i_818>:
    80000dd8:	88600513          	li	a0,-1914

0000000080000ddc <i_819>:
    80000ddc:	00121793          	slli	a5,tp,0x1

0000000080000de0 <i_820>:
    80000de0:	00000013          	nop

0000000080000de4 <i_821>:
    80000de4:	ee310403          	lb	s0,-285(sp)

0000000080000de8 <i_822>:
    80000de8:	01c25863          	ble	t3,tp,80000df8 <i_826>

0000000080000dec <i_823>:
    80000dec:	01c7af33          	slt	t5,a5,t3

0000000080000df0 <i_824>:
    80000df0:	ea613823          	sd	t1,-336(sp)

0000000080000df4 <i_825>:
    80000df4:	01e00b93          	li	s7,30

0000000080000df8 <i_826>:
    80000df8:	01731cbb          	sllw	s9,t1,s7

0000000080000dfc <i_827>:
    80000dfc:	40355613          	srai	a2,a0,0x3

0000000080000e00 <i_828>:
    80000e00:	462bb313          	sltiu	t1,s7,1122

0000000080000e04 <i_829>:
    80000e04:	001e0e13          	addi	t3,t3,1 # c44ae901 <_end+0x4449e4ed>
    80000e08:	fdc55ae3          	ble	t3,a0,80000ddc <i_819>

0000000080000e0c <i_830>:
    80000e0c:	faf14d03          	lbu	s10,-81(sp)

0000000080000e10 <i_831>:
    80000e10:	03466063          	bltu	a2,s4,80000e30 <i_839>

0000000080000e14 <i_832>:
    80000e14:	fde11383          	lh	t2,-34(sp)

0000000080000e18 <i_833>:
    80000e18:	027d5e33          	divu	t3,s10,t2

0000000080000e1c <i_834>:
    80000e1c:	e7a15503          	lhu	a0,-390(sp)

0000000080000e20 <i_835>:
    80000e20:	02c4743b          	remuw	s0,s0,a2

0000000080000e24 <i_836>:
    80000e24:	0c210403          	lb	s0,194(sp)

0000000080000e28 <i_837>:
    80000e28:	0e810ca3          	sb	s0,249(sp)

0000000080000e2c <i_838>:
    80000e2c:	00000013          	nop

0000000080000e30 <i_839>:
    80000e30:	00000013          	nop

0000000080000e34 <i_840>:
    80000e34:	2402b293          	sltiu	t0,t0,576

0000000080000e38 <i_841>:
    80000e38:	7a100613          	li	a2,1953

0000000080000e3c <i_842>:
    80000e3c:	7a800393          	li	t2,1960

0000000080000e40 <i_843>:
    80000e40:	2d22f293          	andi	t0,t0,722

0000000080000e44 <i_844>:
    80000e44:	02f6b693          	sltiu	a3,a3,47

0000000080000e48 <i_845>:
    80000e48:	0a914c83          	lbu	s9,169(sp)

0000000080000e4c <i_846>:
    80000e4c:	002c941b          	slliw	s0,s9,0x2

0000000080000e50 <i_847>:
    80000e50:	03d29463          	bne	t0,t4,80000e78 <i_856>

0000000080000e54 <i_848>:
    80000e54:	ea813683          	ld	a3,-344(sp)

0000000080000e58 <i_849>:
    80000e58:	0c311c23          	sh	gp,216(sp)

0000000080000e5c <i_850>:
    80000e5c:	00dcbcb3          	sltu	s9,s9,a3

0000000080000e60 <i_851>:
    80000e60:	00160613          	addi	a2,a2,1
    80000e64:	fcc3fee3          	bleu	a2,t2,80000e40 <i_843>

0000000080000e68 <i_852>:
    80000e68:	00dccc63          	blt	s9,a3,80000e80 <i_858>

0000000080000e6c <i_853>:
    80000e6c:	10d13023          	sd	a3,256(sp)

0000000080000e70 <i_854>:
    80000e70:	015cfa63          	bleu	s5,s9,80000e84 <i_859>

0000000080000e74 <i_855>:
    80000e74:	09011683          	lh	a3,144(sp)

0000000080000e78 <i_856>:
    80000e78:	e7913c23          	sd	s9,-392(sp)

0000000080000e7c <i_857>:
    80000e7c:	01568433          	add	s0,a3,s5

0000000080000e80 <i_858>:
    80000e80:	01947463          	bleu	s9,s0,80000e88 <i_860>

0000000080000e84 <i_859>:
    80000e84:	00d44c63          	blt	s0,a3,80000e9c <i_865>

0000000080000e88 <i_860>:
    80000e88:	e5910b23          	sb	s9,-426(sp)

0000000080000e8c <i_861>:
    80000e8c:	f3d68c93          	addi	s9,a3,-195

0000000080000e90 <i_862>:
    80000e90:	ebc10683          	lb	a3,-324(sp)

0000000080000e94 <i_863>:
    80000e94:	f9816c03          	lwu	s8,-104(sp)

0000000080000e98 <i_864>:
    80000e98:	fb014583          	lbu	a1,-80(sp)

0000000080000e9c <i_865>:
    80000e9c:	f4d11f23          	sh	a3,-162(sp)

0000000080000ea0 <i_866>:
    80000ea0:	038ce263          	bltu	s9,s8,80000ec4 <i_875>

0000000080000ea4 <i_867>:
    80000ea4:	e5910823          	sb	s9,-432(sp)

0000000080000ea8 <i_868>:
    80000ea8:	06815c83          	lhu	s9,104(sp)

0000000080000eac <i_869>:
    80000eac:	02800213          	li	tp,40

0000000080000eb0 <i_870>:
    80000eb0:	004cd6b3          	srl	a3,s9,tp

0000000080000eb4 <i_871>:
    80000eb4:	09a11503          	lh	a0,154(sp)

0000000080000eb8 <i_872>:
    80000eb8:	ef410683          	lb	a3,-268(sp)

0000000080000ebc <i_873>:
    80000ebc:	02a45463          	ble	a0,s0,80000ee4 <i_883>

0000000080000ec0 <i_874>:
    80000ec0:	09810423          	sb	s8,136(sp)

0000000080000ec4 <i_875>:
    80000ec4:	00000013          	nop

0000000080000ec8 <i_876>:
    80000ec8:	001cbc33          	sltu	s8,s9,ra

0000000080000ecc <i_877>:
    80000ecc:	f7811723          	sh	s8,-146(sp)

0000000080000ed0 <i_878>:
    80000ed0:	00000013          	nop

0000000080000ed4 <i_879>:
    80000ed4:	00245d1b          	srliw	s10,s0,0x2

0000000080000ed8 <i_880>:
    80000ed8:	039d2333          	mulhsu	t1,s10,s9

0000000080000edc <i_881>:
    80000edc:	fc813d03          	ld	s10,-56(sp)

0000000080000ee0 <i_882>:
    80000ee0:	00000013          	nop

0000000080000ee4 <i_883>:
    80000ee4:	01800e13          	li	t3,24

0000000080000ee8 <i_884>:
    80000ee8:	41c3533b          	sraw	t1,t1,t3

0000000080000eec <i_885>:
    80000eec:	78f00c93          	li	s9,1935

0000000080000ef0 <i_886>:
    80000ef0:	79800413          	li	s0,1944

0000000080000ef4 <i_887>:
    80000ef4:	03800813          	li	a6,56

0000000080000ef8 <i_888>:
    80000ef8:	01035f33          	srl	t5,t1,a6

0000000080000efc <i_889>:
    80000efc:	409d04b3          	sub	s1,s10,s1

0000000080000f00 <i_890>:
    80000f00:	001c8c93          	addi	s9,s9,1
    80000f04:	ff9458e3          	ble	s9,s0,80000ef4 <i_887>

0000000080000f08 <i_891>:
    80000f08:	ea013d03          	ld	s10,-352(sp)

0000000080000f0c <i_892>:
    80000f0c:	00600d13          	li	s10,6

0000000080000f10 <i_893>:
    80000f10:	41a55533          	sra	a0,a0,s10

0000000080000f14 <i_894>:
    80000f14:	0e610c03          	lb	s8,230(sp)

0000000080000f18 <i_895>:
    80000f18:	018e3f33          	sltu	t5,t3,s8

0000000080000f1c <i_896>:
    80000f1c:	fcc12c03          	lw	s8,-52(sp)

0000000080000f20 <i_897>:
    80000f20:	02fc0d3b          	mulw	s10,s8,a5

0000000080000f24 <i_898>:
    80000f24:	01c84ab3          	xor	s5,a6,t3

0000000080000f28 <i_899>:
    80000f28:	ff011a23          	sh	a6,-12(sp)

0000000080000f2c <i_900>:
    80000f2c:	01b00813          	li	a6,27

0000000080000f30 <i_901>:
    80000f30:	410ad5bb          	sraw	a1,s5,a6

0000000080000f34 <i_902>:
    80000f34:	018c7a63          	bleu	s8,s8,80000f48 <i_907>

0000000080000f38 <i_903>:
    80000f38:	08612e23          	sw	t1,156(sp)

0000000080000f3c <i_904>:
    80000f3c:	03558263          	beq	a1,s5,80000f60 <i_913>

0000000080000f40 <i_905>:
    80000f40:	01a35463          	ble	s10,t1,80000f48 <i_907>

0000000080000f44 <i_906>:
    80000f44:	1c615a83          	lhu	s5,454(sp)

0000000080000f48 <i_907>:
    80000f48:	01584263          	blt	a6,s5,80000f4c <i_908>

0000000080000f4c <i_908>:
    80000f4c:	0ee11d03          	lh	s10,238(sp)

0000000080000f50 <i_909>:
    80000f50:	03ad0263          	beq	s10,s10,80000f74 <i_918>

0000000080000f54 <i_910>:
    80000f54:	ee611a83          	lh	s5,-282(sp)

0000000080000f58 <i_911>:
    80000f58:	02416b83          	lwu	s7,36(sp)

0000000080000f5c <i_912>:
    80000f5c:	01aa9a63          	bne	s5,s10,80000f70 <i_917>

0000000080000f60 <i_913>:
    80000f60:	0d4d4b13          	xori	s6,s10,212

0000000080000f64 <i_914>:
    80000f64:	14a11a83          	lh	s5,330(sp)

0000000080000f68 <i_915>:
    80000f68:	0371bab3          	mulhu	s5,gp,s7

0000000080000f6c <i_916>:
    80000f6c:	03c11c83          	lh	s9,60(sp)

0000000080000f70 <i_917>:
    80000f70:	0393f1bb          	remuw	gp,t2,s9

0000000080000f74 <i_918>:
    80000f74:	08213823          	sd	sp,144(sp)

0000000080000f78 <i_919>:
    80000f78:	00000013          	nop

0000000080000f7c <i_920>:
    80000f7c:	7cf00e13          	li	t3,1999

0000000080000f80 <i_921>:
    80000f80:	7df00393          	li	t2,2015

0000000080000f84 <i_922>:
    80000f84:	0c312223          	sw	gp,196(sp)

0000000080000f88 <i_923>:
    80000f88:	023c9663          	bne	s9,gp,80000fb4 <i_933>

0000000080000f8c <i_924>:
    80000f8c:	fd412c83          	lw	s9,-44(sp)

0000000080000f90 <i_925>:
    80000f90:	15913c23          	sd	s9,344(sp)

0000000080000f94 <i_926>:
    80000f94:	023cdcb3          	divu	s9,s9,gp

0000000080000f98 <i_927>:
    80000f98:	0021d193          	srli	gp,gp,0x2

0000000080000f9c <i_928>:
    80000f9c:	11c12c83          	lw	s9,284(sp)

0000000080000fa0 <i_929>:
    80000fa0:	001e0e13          	addi	t3,t3,1
    80000fa4:	fe7e40e3          	blt	t3,t2,80000f84 <i_922>

0000000080000fa8 <i_930>:
    80000fa8:	11113423          	sd	a7,264(sp)

0000000080000fac <i_931>:
    80000fac:	111cbc93          	sltiu	s9,s9,273

0000000080000fb0 <i_932>:
    80000fb0:	2c478c97          	auipc	s9,0x2c478

0000000080000fb4 <i_933>:
    80000fb4:	00000013          	nop

0000000080000fb8 <i_934>:
    80000fb8:	036b7cb3          	remu	s9,s6,s6

0000000080000fbc <i_935>:
    80000fbc:	86900b13          	li	s6,-1943

0000000080000fc0 <i_936>:
    80000fc0:	86b00393          	li	t2,-1941

0000000080000fc4 <i_937>:
    80000fc4:	01913cb3          	sltu	s9,sp,s9

0000000080000fc8 <i_938>:
    80000fc8:	0163d863          	ble	s6,t2,80000fd8 <i_942>

0000000080000fcc <i_939>:
    80000fcc:	007b1263          	bne	s6,t2,80000fd0 <i_940>

0000000080000fd0 <i_940>:
    80000fd0:	00500c93          	li	s9,5

0000000080000fd4 <i_941>:
    80000fd4:	419cdc3b          	sraw	s8,s9,s9

0000000080000fd8 <i_942>:
    80000fd8:	e3c11d03          	lh	s10,-452(sp)

0000000080000fdc <i_943>:
    80000fdc:	633a3a13          	sltiu	s4,s4,1587

0000000080000fe0 <i_944>:
    80000fe0:	0393d663          	ble	s9,t2,8000100c <i_954>

0000000080000fe4 <i_945>:
    80000fe4:	014d3cb3          	sltu	s9,s10,s4

0000000080000fe8 <i_946>:
    80000fe8:	001b0b13          	addi	s6,s6,1
    80000fec:	fc7b4ce3          	blt	s6,t2,80000fc4 <i_937>

0000000080000ff0 <i_947>:
    80000ff0:	f7416c83          	lwu	s9,-140(sp)

0000000080000ff4 <i_948>:
    80000ff4:	0d912e23          	sw	s9,220(sp)

0000000080000ff8 <i_949>:
    80000ff8:	019a0263          	beq	s4,s9,80000ffc <i_950>

0000000080000ffc <i_950>:
    80000ffc:	e1c12e03          	lw	t3,-484(sp)

0000000080001000 <i_951>:
    80001000:	0e411c23          	sh	tp,248(sp)

0000000080001004 <i_952>:
    80001004:	ea215e83          	lhu	t4,-350(sp)

0000000080001008 <i_953>:
    80001008:	04013e03          	ld	t3,64(sp)

000000008000100c <i_954>:
    8000100c:	01cc73b3          	and	t2,s8,t3

0000000080001010 <i_955>:
    80001010:	f2e14c03          	lbu	s8,-210(sp)

0000000080001014 <i_956>:
    80001014:	00764863          	blt	a2,t2,80001024 <i_960>

0000000080001018 <i_957>:
    80001018:	03d3e463          	bltu	t2,t4,80001040 <i_967>

000000008000101c <i_958>:
    8000101c:	1b013603          	ld	a2,432(sp)

0000000080001020 <i_959>:
    80001020:	007c84b3          	add	s1,s9,t2

0000000080001024 <i_960>:
    80001024:	1be15403          	lhu	s0,446(sp)

0000000080001028 <i_961>:
    80001028:	ec510123          	sb	t0,-318(sp)

000000008000102c <i_962>:
    8000102c:	fba11403          	lh	s0,-70(sp)

0000000080001030 <i_963>:
    80001030:	00948e63          	beq	s1,s1,8000104c <i_970>

0000000080001034 <i_964>:
    80001034:	028454bb          	divuw	s1,s0,s0

0000000080001038 <i_965>:
    80001038:	01b4ca63          	blt	s1,s11,8000104c <i_970>

000000008000103c <i_966>:
    8000103c:	01a00413          	li	s0,26

0000000080001040 <i_967>:
    80001040:	00845433          	srl	s0,s0,s0

0000000080001044 <i_968>:
    80001044:	14c12a83          	lw	s5,332(sp)

0000000080001048 <i_969>:
    80001048:	00000013          	nop

000000008000104c <i_970>:
    8000104c:	f8811523          	sh	s0,-118(sp)

0000000080001050 <i_971>:
    80001050:	fa816403          	lwu	s0,-88(sp)

0000000080001054 <i_972>:
    80001054:	88400c93          	li	s9,-1916

0000000080001058 <i_973>:
    80001058:	88e00213          	li	tp,-1906

000000008000105c <i_974>:
    8000105c:	001c8c93          	addi	s9,s9,1 # ac478fb1 <_end+0x2c468b9d>
    80001060:	fe4ccee3          	blt	s9,tp,8000105c <i_974>

0000000080001064 <i_975>:
    80001064:	01911723          	sh	s9,14(sp)

0000000080001068 <i_976>:
    80001068:	004400b3          	add	ra,s0,tp

000000008000106c <i_977>:
    8000106c:	0214dcb3          	divu	s9,s1,ra

0000000080001070 <i_978>:
    80001070:	0010ca63          	blt	ra,ra,80001084 <i_983>

0000000080001074 <i_979>:
    80001074:	cb00b093          	sltiu	ra,ra,-848

0000000080001078 <i_980>:
    80001078:	0080c463          	blt	ra,s0,80001080 <i_982>

000000008000107c <i_981>:
    8000107c:	034960b3          	rem	ra,s2,s4

0000000080001080 <i_982>:
    80001080:	019c9c63          	bne	s9,s9,80001098 <i_988>

0000000080001084 <i_983>:
    80001084:	02113823          	sd	ra,48(sp)

0000000080001088 <i_984>:
    80001088:	11e10c83          	lb	s9,286(sp)

000000008000108c <i_985>:
    8000108c:	02183f33          	mulhu	t5,a6,ra

0000000080001090 <i_986>:
    80001090:	04112423          	sw	ra,72(sp)

0000000080001094 <i_987>:
    80001094:	039f443b          	divw	s0,t5,s9

0000000080001098 <i_988>:
    80001098:	00145f1b          	srliw	t5,s0,0x1

000000008000109c <i_989>:
    8000109c:	f81105a3          	sb	ra,-117(sp)

00000000800010a0 <i_990>:
    800010a0:	0e5107a3          	sb	t0,239(sp)

00000000800010a4 <i_991>:
    800010a4:	01012823          	sw	a6,16(sp)

00000000800010a8 <i_992>:
    800010a8:	f2a11503          	lh	a0,-214(sp)

00000000800010ac <i_993>:
    800010ac:	00a57e63          	bleu	a0,a0,800010c8 <i_1000>

00000000800010b0 <i_994>:
    800010b0:	02a8043b          	mulw	s0,a6,a0

00000000800010b4 <i_995>:
    800010b4:	03947263          	bleu	s9,s0,800010d8 <i_1004>

00000000800010b8 <i_996>:
    800010b8:	00011403          	lh	s0,0(sp)

00000000800010bc <i_997>:
    800010bc:	f07b8413          	addi	s0,s7,-249 # a8ecd017 <_end+0x28ebcc03>

00000000800010c0 <i_998>:
    800010c0:	ebf14483          	lbu	s1,-321(sp)

00000000800010c4 <i_999>:
    800010c4:	ec813483          	ld	s1,-312(sp)

00000000800010c8 <i_1000>:
    800010c8:	f1746613          	ori	a2,s0,-233

00000000800010cc <i_1001>:
    800010cc:	78550617          	auipc	a2,0x78550

00000000800010d0 <i_1002>:
    800010d0:	05811923          	sh	s8,82(sp)

00000000800010d4 <i_1003>:
    800010d4:	ea913823          	sd	s1,-336(sp)

00000000800010d8 <i_1004>:
    800010d8:	00000013          	nop

00000000800010dc <i_1005>:
    800010dc:	001c161b          	slliw	a2,s8,0x1

00000000800010e0 <i_1006>:
    800010e0:	85400b93          	li	s7,-1964

00000000800010e4 <i_1007>:
    800010e4:	85900c13          	li	s8,-1959

00000000800010e8 <i_1008>:
    800010e8:	40cd0633          	sub	a2,s10,a2

00000000800010ec <i_1009>:
    800010ec:	e4c103a3          	sb	a2,-441(sp)

00000000800010f0 <i_1010>:
    800010f0:	0cc108a3          	sb	a2,209(sp)

00000000800010f4 <i_1011>:
    800010f4:	f1815e83          	lhu	t4,-232(sp)

00000000800010f8 <i_1012>:
    800010f8:	03d60063          	beq	a2,t4,80001118 <i_1019>

00000000800010fc <i_1013>:
    800010fc:	fb813303          	ld	t1,-72(sp)

0000000080001100 <i_1014>:
    80001100:	001b8b93          	addi	s7,s7,1
    80001104:	ff8bc2e3          	blt	s7,s8,800010e8 <i_1008>

0000000080001108 <i_1015>:
    80001108:	00013d83          	ld	s11,0(sp)

000000008000110c <i_1016>:
    8000110c:	01deedb3          	or	s11,t4,t4

0000000080001110 <i_1017>:
    80001110:	00000013          	nop

0000000080001114 <i_1018>:
    80001114:	40115f1b          	sraiw	t5,sp,0x1

0000000080001118 <i_1019>:
    80001118:	fdf14303          	lbu	t1,-33(sp)

000000008000111c <i_1020>:
    8000111c:	08012383          	lw	t2,128(sp)

0000000080001120 <i_1021>:
    80001120:	78400293          	li	t0,1924

0000000080001124 <i_1022>:
    80001124:	79400d13          	li	s10,1940

0000000080001128 <i_1023>:
    80001128:	03e3c263          	blt	t2,t5,8000114c <i_1031>

000000008000112c <i_1024>:
    8000112c:	03136063          	bltu	t1,a7,8000114c <i_1031>

0000000080001130 <i_1025>:
    80001130:	04c16d83          	lwu	s11,76(sp)

0000000080001134 <i_1026>:
    80001134:	00500393          	li	t2,5

0000000080001138 <i_1027>:
    80001138:	007f1dbb          	sllw	s11,t5,t2

000000008000113c <i_1028>:
    8000113c:	00128293          	addi	t0,t0,1 # 3001 <main-0x7fffcfff>
    80001140:	ffa2e4e3          	bltu	t0,s10,80001128 <i_1023>

0000000080001144 <i_1029>:
    80001144:	ee5105a3          	sb	t0,-277(sp)

0000000080001148 <i_1030>:
    80001148:	f7816783          	lwu	a5,-136(sp)

000000008000114c <i_1031>:
    8000114c:	007d1663          	bne	s10,t2,80001158 <i_1034>

0000000080001150 <i_1032>:
    80001150:	01ad6463          	bltu	s10,s10,80001158 <i_1034>

0000000080001154 <i_1033>:
    80001154:	00f00193          	li	gp,15

0000000080001158 <i_1034>:
    80001158:	0033133b          	sllw	t1,t1,gp

000000008000115c <i_1035>:
    8000115c:	01d00b13          	li	s6,29

0000000080001160 <i_1036>:
    80001160:	0169d9bb          	srlw	s3,s3,s6

0000000080001164 <i_1037>:
    80001164:	19711923          	sh	s7,402(sp)

0000000080001168 <i_1038>:
    80001168:	00800193          	li	gp,8

000000008000116c <i_1039>:
    8000116c:	4037d3bb          	sraw	t2,a5,gp

0000000080001170 <i_1040>:
    80001170:	02f9e263          	bltu	s3,a5,80001194 <i_1049>

0000000080001174 <i_1041>:
    80001174:	64696393          	ori	t2,s2,1606

0000000080001178 <i_1042>:
    80001178:	013b3f33          	sltu	t5,s6,s3

000000008000117c <i_1043>:
    8000117c:	fe812983          	lw	s3,-24(sp)

0000000080001180 <i_1044>:
    80001180:	f6611823          	sh	t1,-144(sp)

0000000080001184 <i_1045>:
    80001184:	00000013          	nop

0000000080001188 <i_1046>:
    80001188:	e5813d03          	ld	s10,-424(sp)

000000008000118c <i_1047>:
    8000118c:	0e713823          	sd	t2,240(sp)

0000000080001190 <i_1048>:
    80001190:	1d416083          	lwu	ra,468(sp)

0000000080001194 <i_1049>:
    80001194:	efc16d83          	lwu	s11,-260(sp)

0000000080001198 <i_1050>:
    80001198:	0da10123          	sb	s10,194(sp)

000000008000119c <i_1051>:
    8000119c:	87b00193          	li	gp,-1925

00000000800011a0 <i_1052>:
    800011a0:	88900413          	li	s0,-1911

00000000800011a4 <i_1053>:
    800011a4:	ee810083          	lb	ra,-280(sp)

00000000800011a8 <i_1054>:
    800011a8:	fef10083          	lb	ra,-17(sp)

00000000800011ac <i_1055>:
    800011ac:	00000013          	nop

00000000800011b0 <i_1056>:
    800011b0:	e5411203          	lh	tp,-428(sp)

00000000800011b4 <i_1057>:
    800011b4:	00118193          	addi	gp,gp,1
    800011b8:	fe3416e3          	bne	s0,gp,800011a4 <i_1053>

00000000800011bc <i_1058>:
    800011bc:	ebc12783          	lw	a5,-324(sp)

00000000800011c0 <i_1059>:
    800011c0:	00a78eb3          	add	t4,a5,a0

00000000800011c4 <i_1060>:
    800011c4:	ee411403          	lh	s0,-284(sp)

00000000800011c8 <i_1061>:
    800011c8:	1e812023          	sw	s0,480(sp)

00000000800011cc <i_1062>:
    800011cc:	03bef063          	bleu	s11,t4,800011ec <i_1070>

00000000800011d0 <i_1063>:
    800011d0:	ec013d83          	ld	s11,-320(sp)

00000000800011d4 <i_1064>:
    800011d4:	03b9e463          	bltu	s3,s11,800011fc <i_1074>

00000000800011d8 <i_1065>:
    800011d8:	7dfa6a13          	ori	s4,s4,2015

00000000800011dc <i_1066>:
    800011dc:	00810323          	sb	s0,6(sp)

00000000800011e0 <i_1067>:
    800011e0:	e1e15803          	lhu	a6,-482(sp)

00000000800011e4 <i_1068>:
    800011e4:	00c51a63          	bne	a0,a2,800011f8 <i_1073>

00000000800011e8 <i_1069>:
    800011e8:	f1310303          	lb	t1,-237(sp)

00000000800011ec <i_1070>:
    800011ec:	f5410da3          	sb	s4,-165(sp)

00000000800011f0 <i_1071>:
    800011f0:	0a412483          	lw	s1,164(sp)

00000000800011f4 <i_1072>:
    800011f4:	01087c63          	bleu	a6,a6,8000120c <i_1078>

00000000800011f8 <i_1073>:
    800011f8:	025feb93          	ori	s7,t6,37

00000000800011fc <i_1074>:
    800011fc:	00b65263          	ble	a1,a2,80001200 <i_1075>

0000000080001200 <i_1075>:
    80001200:	11411b23          	sh	s4,278(sp)

0000000080001204 <i_1076>:
    80001204:	021a40b3          	div	ra,s4,ra

0000000080001208 <i_1077>:
    80001208:	c2d7e313          	ori	t1,a5,-979

000000008000120c <i_1078>:
    8000120c:	01084c63          	blt	a6,a6,80001224 <i_1084>

0000000080001210 <i_1079>:
    80001210:	e4813483          	ld	s1,-440(sp)

0000000080001214 <i_1080>:
    80001214:	8704f593          	andi	a1,s1,-1936

0000000080001218 <i_1081>:
    80001218:	00200a93          	li	s5,2

000000008000121c <i_1082>:
    8000121c:	015d1c3b          	sllw	s8,s10,s5

0000000080001220 <i_1083>:
    80001220:	01a14d03          	lbu	s10,26(sp)

0000000080001224 <i_1084>:
    80001224:	0ba106a3          	sb	s10,173(sp)

0000000080001228 <i_1085>:
    80001228:	fba13c23          	sd	s10,-72(sp)

000000008000122c <i_1086>:
    8000122c:	14415a83          	lhu	s5,324(sp)

0000000080001230 <i_1087>:
    80001230:	87500c13          	li	s8,-1931

0000000080001234 <i_1088>:
    80001234:	88100613          	li	a2,-1919

0000000080001238 <i_1089>:
    80001238:	018d6663          	bltu	s10,s8,80001244 <i_1092>

000000008000123c <i_1090>:
    8000123c:	f9b14d03          	lbu	s10,-101(sp)

0000000080001240 <i_1091>:
    80001240:	e2f10583          	lb	a1,-465(sp)

0000000080001244 <i_1092>:
    80001244:	04c11583          	lh	a1,76(sp)

0000000080001248 <i_1093>:
    80001248:	41ad033b          	subw	t1,s10,s10

000000008000124c <i_1094>:
    8000124c:	f9a10fa3          	sb	s10,-97(sp)

0000000080001250 <i_1095>:
    80001250:	00000013          	nop

0000000080001254 <i_1096>:
    80001254:	00000013          	nop

0000000080001258 <i_1097>:
    80001258:	00b360b3          	or	ra,t1,a1

000000008000125c <i_1098>:
    8000125c:	e8b12023          	sw	a1,-384(sp)

0000000080001260 <i_1099>:
    80001260:	00000013          	nop

0000000080001264 <i_1100>:
    80001264:	0a014c83          	lbu	s9,160(sp)

0000000080001268 <i_1101>:
    80001268:	1dc11203          	lh	tp,476(sp)

000000008000126c <i_1102>:
    8000126c:	026d5663          	ble	t1,s10,80001298 <i_1112>

0000000080001270 <i_1103>:
    80001270:	001c0c13          	addi	s8,s8,1
    80001274:	fccc62e3          	bltu	s8,a2,80001238 <i_1089>

0000000080001278 <i_1104>:
    80001278:	02627463          	bleu	t1,tp,800012a0 <i_1114>

000000008000127c <i_1105>:
    8000127c:	a8826d13          	ori	s10,tp,-1400

0000000080001280 <i_1106>:
    80001280:	16412303          	lw	t1,356(sp)

0000000080001284 <i_1107>:
    80001284:	4063033b          	subw	t1,t1,t1

0000000080001288 <i_1108>:
    80001288:	0242533b          	divuw	t1,tp,tp

000000008000128c <i_1109>:
    8000128c:	02620063          	beq	tp,t1,800012ac <i_1117>

0000000080001290 <i_1110>:
    80001290:	01700313          	li	t1,23

0000000080001294 <i_1111>:
    80001294:	406354bb          	sraw	s1,t1,t1

0000000080001298 <i_1112>:
    80001298:	ee214483          	lbu	s1,-286(sp)

000000008000129c <i_1113>:
    8000129c:	0263433b          	divw	t1,t1,t1

00000000800012a0 <i_1114>:
    800012a0:	00635a63          	ble	t1,t1,800012b4 <i_1119>

00000000800012a4 <i_1115>:
    800012a4:	ee615483          	lhu	s1,-282(sp)

00000000800012a8 <i_1116>:
    800012a8:	02933433          	mulhu	s0,t1,s1

00000000800012ac <i_1117>:
    800012ac:	ea810da3          	sb	s0,-325(sp)

00000000800012b0 <i_1118>:
    800012b0:	0294fabb          	remuw	s5,s1,s1

00000000800012b4 <i_1119>:
    800012b4:	0c813483          	ld	s1,200(sp)

00000000800012b8 <i_1120>:
    800012b8:	00000013          	nop

00000000800012bc <i_1121>:
    800012bc:	13e11b83          	lh	s7,318(sp)

00000000800012c0 <i_1122>:
    800012c0:	7c200593          	li	a1,1986

00000000800012c4 <i_1123>:
    800012c4:	7cc00413          	li	s0,1996

00000000800012c8 <i_1124>:
    800012c8:	00bf4bb3          	xor	s7,t5,a1

00000000800012cc <i_1125>:
    800012cc:	19310603          	lb	a2,403(sp)

00000000800012d0 <i_1126>:
    800012d0:	fac13023          	sd	a2,-96(sp)

00000000800012d4 <i_1127>:
    800012d4:	eb010603          	lb	a2,-336(sp)

00000000800012d8 <i_1128>:
    800012d8:	04b106a3          	sb	a1,77(sp)

00000000800012dc <i_1129>:
    800012dc:	ee411d83          	lh	s11,-284(sp)

00000000800012e0 <i_1130>:
    800012e0:	01b60bb3          	add	s7,a2,s11

00000000800012e4 <i_1131>:
    800012e4:	02c40a3b          	mulw	s4,s0,a2

00000000800012e8 <i_1132>:
    800012e8:	e5813603          	ld	a2,-424(sp)

00000000800012ec <i_1133>:
    800012ec:	03b93bb3          	mulhu	s7,s2,s11

00000000800012f0 <i_1134>:
    800012f0:	03044463          	blt	s0,a6,80001318 <i_1143>

00000000800012f4 <i_1135>:
    800012f4:	00361a9b          	slliw	s5,a2,0x3

00000000800012f8 <i_1136>:
    800012f8:	e5711323          	sh	s7,-442(sp)

00000000800012fc <i_1137>:
    800012fc:	02a00393          	li	t2,42

0000000080001300 <i_1138>:
    80001300:	00761db3          	sll	s11,a2,t2

0000000080001304 <i_1139>:
    80001304:	00158593          	addi	a1,a1,1
    80001308:	fcb450e3          	ble	a1,s0,800012c8 <i_1124>

000000008000130c <i_1140>:
    8000130c:	00211603          	lh	a2,2(sp)

0000000080001310 <i_1141>:
    80001310:	04713423          	sd	t2,72(sp)

0000000080001314 <i_1142>:
    80001314:	15e15603          	lhu	a2,350(sp)

0000000080001318 <i_1143>:
    80001318:	00709e63          	bne	ra,t2,80001334 <i_1150>

000000008000131c <i_1144>:
    8000131c:	05510b23          	sb	s5,86(sp)

0000000080001320 <i_1145>:
    80001320:	eec11223          	sh	a2,-284(sp)

0000000080001324 <i_1146>:
    80001324:	00783633          	sltu	a2,a6,t2

0000000080001328 <i_1147>:
    80001328:	035a9263          	bne	s5,s5,8000134c <i_1156>

000000008000132c <i_1148>:
    8000132c:	41ac83bb          	subw	t2,s9,s10

0000000080001330 <i_1149>:
    80001330:	0276053b          	mulw	a0,a2,t2

0000000080001334 <i_1150>:
    80001334:	00200493          	li	s1,2

0000000080001338 <i_1151>:
    80001338:	4095563b          	sraw	a2,a0,s1

000000008000133c <i_1152>:
    8000133c:	02800b13          	li	s6,40

0000000080001340 <i_1153>:
    80001340:	016a97b3          	sll	a5,s5,s6

0000000080001344 <i_1154>:
    80001344:	0b013d83          	ld	s11,176(sp)

0000000080001348 <i_1155>:
    80001348:	02fb67bb          	remw	a5,s6,a5

000000008000134c <i_1156>:
    8000134c:	11811b03          	lh	s6,280(sp)

0000000080001350 <i_1157>:
    80001350:	004d8b33          	add	s6,s11,tp

0000000080001354 <i_1158>:
    80001354:	80a00b93          	li	s7,-2038

0000000080001358 <i_1159>:
    80001358:	80e00213          	li	tp,-2034

000000008000135c <i_1160>:
    8000135c:	fc214383          	lbu	t2,-62(sp)

0000000080001360 <i_1161>:
    80001360:	1d8102a3          	sb	s8,453(sp)

0000000080001364 <i_1162>:
    80001364:	0273d463          	ble	t2,t2,8000138c <i_1171>

0000000080001368 <i_1163>:
    80001368:	02c5eb33          	rem	s6,a1,a2

000000008000136c <i_1164>:
    8000136c:	001b8b93          	addi	s7,s7,1
    80001370:	ff7256e3          	ble	s7,tp,8000135c <i_1160>

0000000080001374 <i_1165>:
    80001374:	0e412e23          	sw	tp,252(sp)

0000000080001378 <i_1166>:
    80001378:	03b3f063          	bleu	s11,t2,80001398 <i_1174>

000000008000137c <i_1167>:
    8000137c:	0273a233          	mulhsu	tp,t2,t2

0000000080001380 <i_1168>:
    80001380:	eb610aa3          	sb	s6,-331(sp)

0000000080001384 <i_1169>:
    80001384:	eb011383          	lh	t2,-336(sp)

0000000080001388 <i_1170>:
    80001388:	e4513423          	sd	t0,-440(sp)

000000008000138c <i_1171>:
    8000138c:	fe015203          	lhu	tp,-32(sp)

0000000080001390 <i_1172>:
    80001390:	0023c863          	blt	t2,sp,800013a0 <i_1176>

0000000080001394 <i_1173>:
    80001394:	03739263          	bne	t2,s7,800013b8 <i_1182>

0000000080001398 <i_1174>:
    80001398:	07714d03          	lbu	s10,119(sp)

000000008000139c <i_1175>:
    8000139c:	ea413423          	sd	tp,-344(sp)

00000000800013a0 <i_1176>:
    800013a0:	003a1613          	slli	a2,s4,0x3

00000000800013a4 <i_1177>:
    800013a4:	06c16783          	lwu	a5,108(sp)

00000000800013a8 <i_1178>:
    800013a8:	004b7e63          	bleu	tp,s6,800013c4 <i_1185>

00000000800013ac <i_1179>:
    800013ac:	036d1233          	mulh	tp,s10,s6

00000000800013b0 <i_1180>:
    800013b0:	00291f13          	slli	t5,s2,0x2

00000000800013b4 <i_1181>:
    800013b4:	004d169b          	slliw	a3,s10,0x4

00000000800013b8 <i_1182>:
    800013b8:	00ff3ab3          	sltu	s5,t5,a5

00000000800013bc <i_1183>:
    800013bc:	024f5ebb          	divuw	t4,t5,tp

00000000800013c0 <i_1184>:
    800013c0:	f6815303          	lhu	t1,-152(sp)

00000000800013c4 <i_1185>:
    800013c4:	ebc16303          	lwu	t1,-324(sp)

00000000800013c8 <i_1186>:
    800013c8:	03def333          	remu	t1,t4,t4

00000000800013cc <i_1187>:
    800013cc:	08f102a3          	sb	a5,133(sp)

00000000800013d0 <i_1188>:
    800013d0:	01d34863          	blt	t1,t4,800013e0 <i_1192>

00000000800013d4 <i_1189>:
    800013d4:	02d3033b          	mulw	t1,t1,a3

00000000800013d8 <i_1190>:
    800013d8:	09015b83          	lhu	s7,144(sp)

00000000800013dc <i_1191>:
    800013dc:	e5016a03          	lwu	s4,-432(sp)

00000000800013e0 <i_1192>:
    800013e0:	17812623          	sw	s8,364(sp)

00000000800013e4 <i_1193>:
    800013e4:	1d015483          	lhu	s1,464(sp)

00000000800013e8 <i_1194>:
    800013e8:	017bc863          	blt	s7,s7,800013f8 <i_1198>

00000000800013ec <i_1195>:
    800013ec:	00aa1263          	bne	s4,a0,800013f0 <i_1196>

00000000800013f0 <i_1196>:
    800013f0:	03900c13          	li	s8,57

00000000800013f4 <i_1197>:
    800013f4:	418bd4b3          	sra	s1,s7,s8

00000000800013f8 <i_1198>:
    800013f8:	17710da3          	sb	s7,379(sp)

00000000800013fc <i_1199>:
    800013fc:	03016503          	lwu	a0,48(sp)

0000000080001400 <i_1200>:
    80001400:	00c4a0b3          	slt	ra,s1,a2

0000000080001404 <i_1201>:
    80001404:	89600a13          	li	s4,-1898

0000000080001408 <i_1202>:
    80001408:	8aa00c13          	li	s8,-1878

000000008000140c <i_1203>:
    8000140c:	0350dbbb          	divuw	s7,ra,s5

0000000080001410 <i_1204>:
    80001410:	401f5f13          	srai	t5,t5,0x1

0000000080001414 <i_1205>:
    80001414:	75900993          	li	s3,1881

0000000080001418 <i_1206>:
    80001418:	75b00a93          	li	s5,1883

000000008000141c <i_1207>:
    8000141c:	c31bff13          	andi	t5,s7,-975

0000000080001420 <i_1208>:
    80001420:	469ba193          	slti	gp,s7,1129

0000000080001424 <i_1209>:
    80001424:	05c16583          	lwu	a1,92(sp)

0000000080001428 <i_1210>:
    80001428:	5294f337          	lui	t1,0x5294f

000000008000142c <i_1211>:
    8000142c:	12b10723          	sb	a1,302(sp)

0000000080001430 <i_1212>:
    80001430:	02812c23          	sw	s0,56(sp)

0000000080001434 <i_1213>:
    80001434:	00198993          	addi	s3,s3,1
    80001438:	ff59c2e3          	blt	s3,s5,8000141c <i_1207>

000000008000143c <i_1214>:
    8000143c:	0155a7b3          	slt	a5,a1,s5

0000000080001440 <i_1215>:
    80001440:	00000013          	nop

0000000080001444 <i_1216>:
    80001444:	001a0a13          	addi	s4,s4,1
    80001448:	fd4c72e3          	bleu	s4,s8,8000140c <i_1203>

000000008000144c <i_1217>:
    8000144c:	8ae4f213          	andi	tp,s1,-1874

0000000080001450 <i_1218>:
    80001450:	1b416d03          	lwu	s10,436(sp)

0000000080001454 <i_1219>:
    80001454:	f7415983          	lhu	s3,-140(sp)

0000000080001458 <i_1220>:
    80001458:	03300d13          	li	s10,51

000000008000145c <i_1221>:
    8000145c:	41a0d0b3          	sra	ra,ra,s10

0000000080001460 <i_1222>:
    80001460:	03a9d263          	ble	s10,s3,80001484 <i_1231>

0000000080001464 <i_1223>:
    80001464:	1e1103a3          	sb	ra,487(sp)

0000000080001468 <i_1224>:
    80001468:	0139c263          	blt	s3,s3,8000146c <i_1225>

000000008000146c <i_1225>:
    8000146c:	4020d99b          	sraiw	s3,ra,0x2

0000000080001470 <i_1226>:
    80001470:	0010c863          	blt	ra,ra,80001480 <i_1230>

0000000080001474 <i_1227>:
    80001474:	03b0f0bb          	remuw	ra,ra,s11

0000000080001478 <i_1228>:
    80001478:	ef110083          	lb	ra,-271(sp)

000000008000147c <i_1229>:
    8000147c:	1dd10083          	lb	ra,477(sp)

0000000080001480 <i_1230>:
    80001480:	004aeeb3          	or	t4,s5,tp

0000000080001484 <i_1231>:
    80001484:	01dcc0b3          	xor	ra,s9,t4

0000000080001488 <i_1232>:
    80001488:	e0711e23          	sh	t2,-484(sp)

000000008000148c <i_1233>:
    8000148c:	7b100d93          	li	s11,1969

0000000080001490 <i_1234>:
    80001490:	7c300d13          	li	s10,1987

0000000080001494 <i_1235>:
    80001494:	fc714803          	lbu	a6,-57(sp)

0000000080001498 <i_1236>:
    80001498:	001d8d93          	addi	s11,s11,1
    8000149c:	ffbd7ce3          	bleu	s11,s10,80001494 <i_1235>

00000000800014a0 <i_1237>:
    800014a0:	02a0a533          	mulhsu	a0,ra,a0

00000000800014a4 <i_1238>:
    800014a4:	e8914b03          	lbu	s6,-375(sp)

00000000800014a8 <i_1239>:
    800014a8:	04813083          	ld	ra,72(sp)

00000000800014ac <i_1240>:
    800014ac:	82300a93          	li	s5,-2013

00000000800014b0 <i_1241>:
    800014b0:	82900813          	li	a6,-2007

00000000800014b4 <i_1242>:
    800014b4:	016b4533          	xor	a0,s6,s6

00000000800014b8 <i_1243>:
    800014b8:	1c812f03          	lw	t5,456(sp)

00000000800014bc <i_1244>:
    800014bc:	02af43bb          	divw	t2,t5,a0

00000000800014c0 <i_1245>:
    800014c0:	f2cf8637          	lui	a2,0xf2cf8

00000000800014c4 <i_1246>:
    800014c4:	f8711f23          	sh	t2,-98(sp)

00000000800014c8 <i_1247>:
    800014c8:	1ac12223          	sw	a2,420(sp)

00000000800014cc <i_1248>:
    800014cc:	14c12423          	sw	a2,328(sp)

00000000800014d0 <i_1249>:
    800014d0:	10c16603          	lwu	a2,268(sp)

00000000800014d4 <i_1250>:
    800014d4:	0ff3c393          	xori	t2,t2,255

00000000800014d8 <i_1251>:
    800014d8:	001a8a93          	addi	s5,s5,1
    800014dc:	fd585ce3          	ble	s5,a6,800014b4 <i_1242>

00000000800014e0 <i_1252>:
    800014e0:	efe100a3          	sb	t5,-287(sp)

00000000800014e4 <i_1253>:
    800014e4:	ffe15603          	lhu	a2,-2(sp)

00000000800014e8 <i_1254>:
    800014e8:	01c00393          	li	t2,28

00000000800014ec <i_1255>:
    800014ec:	4073db33          	sra	s6,t2,t2

00000000800014f0 <i_1256>:
    800014f0:	02c65463          	ble	a2,a2,80001518 <i_1266>

00000000800014f4 <i_1257>:
    800014f4:	18c12423          	sw	a2,392(sp)

00000000800014f8 <i_1258>:
    800014f8:	fd013b03          	ld	s6,-48(sp)

00000000800014fc <i_1259>:
    800014fc:	00c60b33          	add	s6,a2,a2

0000000080001500 <i_1260>:
    80001500:	00c76463          	bltu	a4,a2,80001508 <i_1262>

0000000080001504 <i_1261>:
    80001504:	ef412c03          	lw	s8,-268(sp)

0000000080001508 <i_1262>:
    80001508:	0c110483          	lb	s1,193(sp)

000000008000150c <i_1263>:
    8000150c:	036c0c3b          	mulw	s8,s8,s6

0000000080001510 <i_1264>:
    80001510:	02949bb3          	mulh	s7,s1,s1

0000000080001514 <i_1265>:
    80001514:	2ef0a493          	slti	s1,ra,751

0000000080001518 <i_1266>:
    80001518:	fdf13823          	sd	t6,-48(sp)

000000008000151c <i_1267>:
    8000151c:	9733fa13          	andi	s4,t2,-1677

0000000080001520 <i_1268>:
    80001520:	17710c03          	lb	s8,375(sp)

0000000080001524 <i_1269>:
    80001524:	4047d69b          	sraiw	a3,a5,0x4

0000000080001528 <i_1270>:
    80001528:	e6d12a23          	sw	a3,-396(sp)

000000008000152c <i_1271>:
    8000152c:	75500793          	li	a5,1877

0000000080001530 <i_1272>:
    80001530:	76900393          	li	t2,1897

0000000080001534 <i_1273>:
    80001534:	01f00993          	li	s3,31

0000000080001538 <i_1274>:
    80001538:	01339abb          	sllw	s5,t2,s3

000000008000153c <i_1275>:
    8000153c:	77da8a9b          	addiw	s5,s5,1917

0000000080001540 <i_1276>:
    80001540:	00178793          	addi	a5,a5,1
    80001544:	fe7798e3          	bne	a5,t2,80001534 <i_1273>

0000000080001548 <i_1277>:
    80001548:	920af993          	andi	s3,s5,-1760

000000008000154c <i_1278>:
    8000154c:	015a8e33          	add	t3,s5,s5

0000000080001550 <i_1279>:
    80001550:	15410e03          	lb	t3,340(sp)

0000000080001554 <i_1280>:
    80001554:	eae15d83          	lhu	s11,-338(sp)

0000000080001558 <i_1281>:
    80001558:	02300d93          	li	s11,35

000000008000155c <i_1282>:
    8000155c:	41bdd233          	sra	tp,s11,s11

0000000080001560 <i_1283>:
    80001560:	024ad463          	ble	tp,s5,80001588 <i_1293>

0000000080001564 <i_1284>:
    80001564:	030dfe3b          	remuw	t3,s11,a6

0000000080001568 <i_1285>:
    80001568:	00426f33          	or	t5,tp,tp

000000008000156c <i_1286>:
    8000156c:	1de11e23          	sh	t5,476(sp)

0000000080001570 <i_1287>:
    80001570:	403901bb          	subw	gp,s2,gp

0000000080001574 <i_1288>:
    80001574:	00000013          	nop

0000000080001578 <i_1289>:
    80001578:	fa813403          	ld	s0,-88(sp)

000000008000157c <i_1290>:
    8000157c:	ae3f3d93          	sltiu	s11,t5,-1309

0000000080001580 <i_1291>:
    80001580:	06415c03          	lhu	s8,100(sp)

0000000080001584 <i_1292>:
    80001584:	03300a13          	li	s4,51

0000000080001588 <i_1293>:
    80001588:	014c10b3          	sll	ra,s8,s4

000000008000158c <i_1294>:
    8000158c:	f7415303          	lhu	t1,-140(sp)

0000000080001590 <i_1295>:
    80001590:	87100393          	li	t2,-1935

0000000080001594 <i_1296>:
    80001594:	88200813          	li	a6,-1918

0000000080001598 <i_1297>:
    80001598:	f4815e83          	lhu	t4,-184(sp)

000000008000159c <i_1298>:
    8000159c:	00000013          	nop

00000000800015a0 <i_1299>:
    800015a0:	84100e13          	li	t3,-1983

00000000800015a4 <i_1300>:
    800015a4:	84700f13          	li	t5,-1977

00000000800015a8 <i_1301>:
    800015a8:	03b87863          	bleu	s11,a6,800015d8 <i_1311>

00000000800015ac <i_1302>:
    800015ac:	001e0e13          	addi	t3,t3,1
    800015b0:	ffee1ce3          	bne	t3,t5,800015a8 <i_1301>

00000000800015b4 <i_1303>:
    800015b4:	ee411b83          	lh	s7,-284(sp)

00000000800015b8 <i_1304>:
    800015b8:	00138393          	addi	t2,t2,1
    800015bc:	fd03cee3          	blt	t2,a6,80001598 <i_1297>

00000000800015c0 <i_1305>:
    800015c0:	1aa11b83          	lh	s7,426(sp)

00000000800015c4 <i_1306>:
    800015c4:	027453b3          	divu	t2,s0,t2

00000000800015c8 <i_1307>:
    800015c8:	00000013          	nop

00000000800015cc <i_1308>:
    800015cc:	07411a23          	sh	s4,116(sp)

00000000800015d0 <i_1309>:
    800015d0:	00000013          	nop

00000000800015d4 <i_1310>:
    800015d4:	8172e293          	ori	t0,t0,-2025

00000000800015d8 <i_1311>:
    800015d8:	e8310983          	lb	s3,-381(sp)

00000000800015dc <i_1312>:
    800015dc:	12c12483          	lw	s1,300(sp)

00000000800015e0 <i_1313>:
    800015e0:	77f00f13          	li	t5,1919

00000000800015e4 <i_1314>:
    800015e4:	78700a13          	li	s4,1927

00000000800015e8 <i_1315>:
    800015e8:	03600093          	li	ra,54

00000000800015ec <i_1316>:
    800015ec:	4019d2b3          	sra	t0,s3,ra

00000000800015f0 <i_1317>:
    800015f0:	001f0f13          	addi	t5,t5,1
    800015f4:	ffea5ae3          	ble	t5,s4,800015e8 <i_1315>

00000000800015f8 <i_1318>:
    800015f8:	00000013          	nop

00000000800015fc <i_1319>:
    800015fc:	f9c12b83          	lw	s7,-100(sp)

0000000080001600 <i_1320>:
    80001600:	18013e03          	ld	t3,384(sp)

0000000080001604 <i_1321>:
    80001604:	00fba7b3          	slt	a5,s7,a5

0000000080001608 <i_1322>:
    80001608:	7fb00193          	li	gp,2043

000000008000160c <i_1323>:
    8000160c:	7ff00313          	li	t1,2047

0000000080001610 <i_1324>:
    80001610:	00000013          	nop

0000000080001614 <i_1325>:
    80001614:	03400393          	li	t2,52

0000000080001618 <i_1326>:
    80001618:	407e53b3          	sra	t2,t3,t2

000000008000161c <i_1327>:
    8000161c:	0c7109a3          	sb	t2,211(sp)

0000000080001620 <i_1328>:
    80001620:	00900613          	li	a2,9

0000000080001624 <i_1329>:
    80001624:	40c3deb3          	sra	t4,t2,a2

0000000080001628 <i_1330>:
    80001628:	00118193          	addi	gp,gp,1
    8000162c:	fe61c2e3          	blt	gp,t1,80001610 <i_1324>

0000000080001630 <i_1331>:
    80001630:	00c7e263          	bltu	a5,a2,80001634 <i_1332>

0000000080001634 <i_1332>:
    80001634:	f6712823          	sw	t2,-144(sp)

0000000080001638 <i_1333>:
    80001638:	01c3e863          	bltu	t2,t3,80001648 <i_1337>

000000008000163c <i_1334>:
    8000163c:	fb510283          	lb	t0,-75(sp)

0000000080001640 <i_1335>:
    80001640:	08c10023          	sb	a2,128(sp)

0000000080001644 <i_1336>:
    80001644:	00fedc63          	ble	a5,t4,8000165c <i_1342>

0000000080001648 <i_1337>:
    80001648:	17d11623          	sh	t4,364(sp)

000000008000164c <i_1338>:
    8000164c:	02fe6463          	bltu	t3,a5,80001674 <i_1348>

0000000080001650 <i_1339>:
    80001650:	eac12c23          	sw	a2,-328(sp)

0000000080001654 <i_1340>:
    80001654:	6ff7b413          	sltiu	s0,a5,1791

0000000080001658 <i_1341>:
    80001658:	08013b03          	ld	s6,128(sp)

000000008000165c <i_1342>:
    8000165c:	e9110ca3          	sb	a7,-359(sp)

0000000080001660 <i_1343>:
    80001660:	f3b11823          	sh	s11,-208(sp)

0000000080001664 <i_1344>:
    80001664:	e2210c03          	lb	s8,-478(sp)

0000000080001668 <i_1345>:
    80001668:	00000013          	nop

000000008000166c <i_1346>:
    8000166c:	1da15183          	lhu	gp,474(sp)

0000000080001670 <i_1347>:
    80001670:	03d00793          	li	a5,61

0000000080001674 <i_1348>:
    80001674:	00f65833          	srl	a6,a2,a5

0000000080001678 <i_1349>:
    80001678:	e9414b83          	lbu	s7,-364(sp)

000000008000167c <i_1350>:
    8000167c:	8b800293          	li	t0,-1864

0000000080001680 <i_1351>:
    80001680:	8c100e13          	li	t3,-1855

0000000080001684 <i_1352>:
    80001684:	f06105a3          	sb	t1,-245(sp)

0000000080001688 <i_1353>:
    80001688:	0307e663          	bltu	a5,a6,800016b4 <i_1363>

000000008000168c <i_1354>:
    8000168c:	00000013          	nop

0000000080001690 <i_1355>:
    80001690:	ecc16783          	lwu	a5,-308(sp)

0000000080001694 <i_1356>:
    80001694:	02f7abb3          	mulhsu	s7,a5,a5

0000000080001698 <i_1357>:
    80001698:	030f2f33          	mulhsu	t5,t5,a6

000000008000169c <i_1358>:
    8000169c:	17e13423          	sd	t5,360(sp)

00000000800016a0 <i_1359>:
    800016a0:	00415783          	lhu	a5,4(sp)

00000000800016a4 <i_1360>:
    800016a4:	00128293          	addi	t0,t0,1
    800016a8:	fdc2eee3          	bltu	t0,t3,80001684 <i_1352>

00000000800016ac <i_1361>:
    800016ac:	06f10223          	sb	a5,100(sp)

00000000800016b0 <i_1362>:
    800016b0:	01f00793          	li	a5,31

00000000800016b4 <i_1363>:
    800016b4:	40f4d7b3          	sra	a5,s1,a5

00000000800016b8 <i_1364>:
    800016b8:	4b7a4517          	auipc	a0,0x4b7a4

00000000800016bc <i_1365>:
    800016bc:	10c15f03          	lhu	t5,268(sp)

00000000800016c0 <i_1366>:
    800016c0:	f0912223          	sw	s1,-252(sp)

00000000800016c4 <i_1367>:
    800016c4:	00013e83          	ld	t4,0(sp)

00000000800016c8 <i_1368>:
    800016c8:	0f816783          	lwu	a5,248(sp)

00000000800016cc <i_1369>:
    800016cc:	00f7c663          	blt	a5,a5,800016d8 <i_1372>

00000000800016d0 <i_1370>:
    800016d0:	13c11f03          	lh	t5,316(sp)

00000000800016d4 <i_1371>:
    800016d4:	ff012483          	lw	s1,-16(sp)

00000000800016d8 <i_1372>:
    800016d8:	02f7c063          	blt	a5,a5,800016f8 <i_1380>

00000000800016dc <i_1373>:
    800016dc:	09012783          	lw	a5,144(sp)

00000000800016e0 <i_1374>:
    800016e0:	03e78463          	beq	a5,t5,80001708 <i_1384>

00000000800016e4 <i_1375>:
    800016e4:	034577b3          	remu	a5,a0,s4

00000000800016e8 <i_1376>:
    800016e8:	001a5a1b          	srliw	s4,s4,0x1

00000000800016ec <i_1377>:
    800016ec:	02f7c263          	blt	a5,a5,80001710 <i_1386>

00000000800016f0 <i_1378>:
    800016f0:	00a7f263          	bleu	a0,a5,800016f4 <i_1379>

00000000800016f4 <i_1379>:
    800016f4:	015a5c63          	ble	s5,s4,8000170c <i_1385>

00000000800016f8 <i_1380>:
    800016f8:	0dc7ea13          	ori	s4,a5,220

00000000800016fc <i_1381>:
    800016fc:	f8a10783          	lb	a5,-118(sp)

0000000080001700 <i_1382>:
    80001700:	0127d863          	ble	s2,a5,80001710 <i_1386>

0000000080001704 <i_1383>:
    80001704:	034787b3          	mul	a5,a5,s4

0000000080001708 <i_1384>:
    80001708:	01300e93          	li	t4,19

000000008000170c <i_1385>:
    8000170c:	01d7983b          	sllw	a6,a5,t4

0000000080001710 <i_1386>:
    80001710:	015a0ab3          	add	s5,s4,s5

0000000080001714 <i_1387>:
    80001714:	13615a03          	lhu	s4,310(sp)

0000000080001718 <i_1388>:
    80001718:	035d0d3b          	mulw	s10,s10,s5

000000008000171c <i_1389>:
    8000171c:	006a5e63          	ble	t1,s4,80001738 <i_1396>

0000000080001720 <i_1390>:
    80001720:	00e33333          	sltu	t1,t1,a4

0000000080001724 <i_1391>:
    80001724:	19514e03          	lbu	t3,405(sp)

0000000080001728 <i_1392>:
    80001728:	02683e33          	mulhu	t3,a6,t1

000000008000172c <i_1393>:
    8000172c:	eb412683          	lw	a3,-332(sp)

0000000080001730 <i_1394>:
    80001730:	fb014683          	lbu	a3,-80(sp)

0000000080001734 <i_1395>:
    80001734:	03ce7e33          	remu	t3,t3,t3

0000000080001738 <i_1396>:
    80001738:	03c6c063          	blt	a3,t3,80001758 <i_1404>

000000008000173c <i_1397>:
    8000173c:	a6e6f693          	andi	a3,a3,-1426

0000000080001740 <i_1398>:
    80001740:	ed416e03          	lwu	t3,-300(sp)

0000000080001744 <i_1399>:
    80001744:	0b813683          	ld	a3,184(sp)

0000000080001748 <i_1400>:
    80001748:	e1d14083          	lbu	ra,-483(sp)

000000008000174c <i_1401>:
    8000174c:	00469d13          	slli	s10,a3,0x4

0000000080001750 <i_1402>:
    80001750:	01cac663          	blt	s5,t3,8000175c <i_1405>

0000000080001754 <i_1403>:
    80001754:	1dd9e993          	ori	s3,s3,477

0000000080001758 <i_1404>:
    80001758:	1cd11723          	sh	a3,462(sp)

000000008000175c <i_1405>:
    8000175c:	402d09b3          	sub	s3,s10,sp

0000000080001760 <i_1406>:
    80001760:	01ad6e63          	bltu	s10,s10,8000177c <i_1413>

0000000080001764 <i_1407>:
    80001764:	e3a12c23          	sw	s10,-456(sp)

0000000080001768 <i_1408>:
    80001768:	13311423          	sh	s3,296(sp)

000000008000176c <i_1409>:
    8000176c:	02c9d063          	ble	a2,s3,8000178c <i_1417>

0000000080001770 <i_1410>:
    80001770:	e93102a3          	sb	s3,-379(sp)

0000000080001774 <i_1411>:
    80001774:	02998263          	beq	s3,s1,80001798 <i_1420>

0000000080001778 <i_1412>:
    80001778:	01ad5263          	ble	s10,s10,8000177c <i_1413>

000000008000177c <i_1413>:
    8000177c:	e6514d03          	lbu	s10,-411(sp)

0000000080001780 <i_1414>:
    80001780:	0339f5bb          	remuw	a1,s3,s3

0000000080001784 <i_1415>:
    80001784:	f0412383          	lw	t2,-252(sp)

0000000080001788 <i_1416>:
    80001788:	01910c03          	lb	s8,25(sp)

000000008000178c <i_1417>:
    8000178c:	0b312823          	sw	s3,176(sp)

0000000080001790 <i_1418>:
    80001790:	0189be33          	sltu	t3,s3,s8

0000000080001794 <i_1419>:
    80001794:	5149859b          	addiw	a1,s3,1300

0000000080001798 <i_1420>:
    80001798:	01000593          	li	a1,16

000000008000179c <i_1421>:
    8000179c:	00bc56bb          	srlw	a3,s8,a1

00000000800017a0 <i_1422>:
    800017a0:	01a12823          	sw	s10,16(sp)

00000000800017a4 <i_1423>:
    800017a4:	fc610e83          	lb	t4,-58(sp)

00000000800017a8 <i_1424>:
    800017a8:	07c11b23          	sh	t3,118(sp)

00000000800017ac <i_1425>:
    800017ac:	0045dd13          	srli	s10,a1,0x4

00000000800017b0 <i_1426>:
    800017b0:	4015d59b          	sraiw	a1,a1,0x1

00000000800017b4 <i_1427>:
    800017b4:	0035dc9b          	srliw	s9,a1,0x3

00000000800017b8 <i_1428>:
    800017b8:	01a78e63          	beq	a5,s10,800017d4 <i_1435>

00000000800017bc <i_1429>:
    800017bc:	4045d59b          	sraiw	a1,a1,0x4

00000000800017c0 <i_1430>:
    800017c0:	01fc4663          	blt	s8,t6,800017cc <i_1433>

00000000800017c4 <i_1431>:
    800017c4:	01955463          	ble	s9,a0,800017cc <i_1433>

00000000800017c8 <i_1432>:
    800017c8:	00d6f6b3          	and	a3,a3,a3

00000000800017cc <i_1433>:
    800017cc:	fb215683          	lhu	a3,-78(sp)

00000000800017d0 <i_1434>:
    800017d0:	00d00613          	li	a2,13

00000000800017d4 <i_1435>:
    800017d4:	00c6d3bb          	srlw	t2,a3,a2

00000000800017d8 <i_1436>:
    800017d8:	033539b3          	mulhu	s3,a0,s3

00000000800017dc <i_1437>:
    800017dc:	80a00b13          	li	s6,-2038

00000000800017e0 <i_1438>:
    800017e0:	81e00513          	li	a0,-2018

00000000800017e4 <i_1439>:
    800017e4:	001b0b13          	addi	s6,s6,1
    800017e8:	feab6ee3          	bltu	s6,a0,800017e4 <i_1439>

00000000800017ec <i_1440>:
    800017ec:	0333f0b3          	remu	ra,t2,s3

00000000800017f0 <i_1441>:
    800017f0:	fc713023          	sd	t2,-64(sp)

00000000800017f4 <i_1442>:
    800017f4:	59e0839b          	addiw	t2,ra,1438

00000000800017f8 <i_1443>:
    800017f8:	001bfe63          	bleu	ra,s7,80001814 <i_1450>

00000000800017fc <i_1444>:
    800017fc:	0133d663          	ble	s3,t2,80001808 <i_1447>

0000000080001800 <i_1445>:
    80001800:	0133f9b3          	and	s3,t2,s3

0000000080001804 <i_1446>:
    80001804:	ece11683          	lh	a3,-306(sp)

0000000080001808 <i_1447>:
    80001808:	0169e863          	bltu	s3,s6,80001818 <i_1451>

000000008000180c <i_1448>:
    8000180c:	01b39463          	bne	t2,s11,80001814 <i_1450>

0000000080001810 <i_1449>:
    80001810:	41a986bb          	subw	a3,s3,s10

0000000080001814 <i_1450>:
    80001814:	18011983          	lh	s3,384(sp)

0000000080001818 <i_1451>:
    80001818:	0133c463          	blt	t2,s3,80001820 <i_1453>

000000008000181c <i_1452>:
    8000181c:	0139cc63          	blt	s3,s3,80001834 <i_1458>

0000000080001820 <i_1453>:
    80001820:	ff014d03          	lbu	s10,-16(sp)

0000000080001824 <i_1454>:
    80001824:	16d12823          	sw	a3,368(sp)

0000000080001828 <i_1455>:
    80001828:	01868863          	beq	a3,s8,80001838 <i_1459>

000000008000182c <i_1456>:
    8000182c:	c6c26213          	ori	tp,tp,-916

0000000080001830 <i_1457>:
    80001830:	f6816683          	lwu	a3,-152(sp)

0000000080001834 <i_1458>:
    80001834:	f3014583          	lbu	a1,-208(sp)

0000000080001838 <i_1459>:
    80001838:	02b13023          	sd	a1,32(sp)

000000008000183c <i_1460>:
    8000183c:	01821463          	bne	tp,s8,80001844 <i_1462>

0000000080001840 <i_1461>:
    80001840:	025c12b3          	mulh	t0,s8,t0

0000000080001844 <i_1462>:
    80001844:	e2415c03          	lhu	s8,-476(sp)

0000000080001848 <i_1463>:
    80001848:	0d215283          	lhu	t0,210(sp)

000000008000184c <i_1464>:
    8000184c:	0f810203          	lb	tp,248(sp)

0000000080001850 <i_1465>:
    80001850:	85800593          	li	a1,-1960

0000000080001854 <i_1466>:
    80001854:	86000993          	li	s3,-1952

0000000080001858 <i_1467>:
    80001858:	03327263          	bleu	s3,tp,8000187c <i_1476>

000000008000185c <i_1468>:
    8000185c:	1a4107a3          	sb	tp,431(sp)

0000000080001860 <i_1469>:
    80001860:	f7312223          	sw	s3,-156(sp)

0000000080001864 <i_1470>:
    80001864:	018dbeb3          	sltu	t4,s11,s8

0000000080001868 <i_1471>:
    80001868:	00000013          	nop

000000008000186c <i_1472>:
    8000186c:	02defc3b          	remuw	s8,t4,a3

0000000080001870 <i_1473>:
    80001870:	00000013          	nop

0000000080001874 <i_1474>:
    80001874:	03dd0e33          	mul	t3,s10,t4

0000000080001878 <i_1475>:
    80001878:	ec016303          	lwu	t1,-320(sp)

000000008000187c <i_1476>:
    8000187c:	004c141b          	slliw	s0,s8,0x4

0000000080001880 <i_1477>:
    80001880:	01e00293          	li	t0,30

0000000080001884 <i_1478>:
    80001884:	4054523b          	sraw	tp,s0,t0

0000000080001888 <i_1479>:
    80001888:	7e500793          	li	a5,2021

000000008000188c <i_1480>:
    8000188c:	7eb00d13          	li	s10,2027

0000000080001890 <i_1481>:
    80001890:	00178793          	addi	a5,a5,1
    80001894:	ffa79ce3          	bne	a5,s10,8000188c <i_1480>

0000000080001898 <i_1482>:
    80001898:	02537eb3          	remu	t4,t1,t0

000000008000189c <i_1483>:
    8000189c:	00158593          	addi	a1,a1,1
    800018a0:	fb35cce3          	blt	a1,s3,80001858 <i_1467>

00000000800018a4 <i_1484>:
    800018a4:	fa812a23          	sw	s0,-76(sp)

00000000800018a8 <i_1485>:
    800018a8:	09e2a413          	slti	s0,t0,158

00000000800018ac <i_1486>:
    800018ac:	fa810923          	sb	s0,-78(sp)

00000000800018b0 <i_1487>:
    800018b0:	0033d293          	srli	t0,t2,0x3

00000000800018b4 <i_1488>:
    800018b4:	02410c83          	lb	s9,36(sp)

00000000800018b8 <i_1489>:
    800018b8:	0393d263          	ble	s9,t2,800018dc <i_1498>

00000000800018bc <i_1490>:
    800018bc:	05a11783          	lh	a5,90(sp)

00000000800018c0 <i_1491>:
    800018c0:	ff310183          	lb	gp,-13(sp)

00000000800018c4 <i_1492>:
    800018c4:	16210183          	lb	gp,354(sp)

00000000800018c8 <i_1493>:
    800018c8:	01b00a93          	li	s5,27

00000000800018cc <i_1494>:
    800018cc:	015192bb          	sllw	t0,gp,s5

00000000800018d0 <i_1495>:
    800018d0:	15415283          	lhu	t0,340(sp)

00000000800018d4 <i_1496>:
    800018d4:	10816603          	lwu	a2,264(sp)

00000000800018d8 <i_1497>:
    800018d8:	fa311823          	sh	gp,-80(sp)

00000000800018dc <i_1498>:
    800018dc:	01400613          	li	a2,20

00000000800018e0 <i_1499>:
    800018e0:	40cb55b3          	sra	a1,s6,a2

00000000800018e4 <i_1500>:
    800018e4:	7d200393          	li	t2,2002

00000000800018e8 <i_1501>:
    800018e8:	7e300813          	li	a6,2019

00000000800018ec <i_1502>:
    800018ec:	0142d463          	ble	s4,t0,800018f4 <i_1504>

00000000800018f0 <i_1503>:
    800018f0:	00465793          	srli	a5,a2,0x4

00000000800018f4 <i_1504>:
    800018f4:	00000013          	nop

00000000800018f8 <i_1505>:
    800018f8:	00000013          	nop

00000000800018fc <i_1506>:
    800018fc:	02f5d5bb          	divuw	a1,a1,a5

0000000080001900 <i_1507>:
    80001900:	e9611083          	lh	ra,-362(sp)

0000000080001904 <i_1508>:
    80001904:	00138393          	addi	t2,t2,1
    80001908:	fe7852e3          	ble	t2,a6,800018ec <i_1502>

000000008000190c <i_1509>:
    8000190c:	eb211583          	lh	a1,-334(sp)

0000000080001910 <i_1510>:
    80001910:	f8215e03          	lhu	t3,-126(sp)

0000000080001914 <i_1511>:
    80001914:	dd071b37          	lui	s6,0xdd071

0000000080001918 <i_1512>:
    80001918:	f9a12c23          	sw	s10,-104(sp)

000000008000191c <i_1513>:
    8000191c:	00000013          	nop

0000000080001920 <i_1514>:
    80001920:	fba11e83          	lh	t4,-70(sp)

0000000080001924 <i_1515>:
    80001924:	7ac00593          	li	a1,1964

0000000080001928 <i_1516>:
    80001928:	7bb00493          	li	s1,1979

000000008000192c <i_1517>:
    8000192c:	19010e03          	lb	t3,400(sp)

0000000080001930 <i_1518>:
    80001930:	0d816603          	lwu	a2,216(sp)

0000000080001934 <i_1519>:
    80001934:	ecb13823          	sd	a1,-304(sp)

0000000080001938 <i_1520>:
    80001938:	02b4d633          	divu	a2,s1,a1

000000008000193c <i_1521>:
    8000193c:	40b58cbb          	subw	s9,a1,a1

0000000080001940 <i_1522>:
    80001940:	fb813183          	ld	gp,-72(sp)

0000000080001944 <i_1523>:
    80001944:	0045dc9b          	srliw	s9,a1,0x4

0000000080001948 <i_1524>:
    80001948:	02c1c63b          	divw	a2,gp,a2

000000008000194c <i_1525>:
    8000194c:	03910da3          	sb	s9,59(sp)

0000000080001950 <i_1526>:
    80001950:	00319263          	bne	gp,gp,80001954 <i_1527>

0000000080001954 <i_1527>:
    80001954:	fc312423          	sw	gp,-56(sp)

0000000080001958 <i_1528>:
    80001958:	fcc14403          	lbu	s0,-52(sp)

000000008000195c <i_1529>:
    8000195c:	efc14b03          	lbu	s6,-260(sp)

0000000080001960 <i_1530>:
    80001960:	ef412183          	lw	gp,-268(sp)

0000000080001964 <i_1531>:
    80001964:	016b3433          	sltu	s0,s6,s6

0000000080001968 <i_1532>:
    80001968:	ca718e1b          	addiw	t3,gp,-857

000000008000196c <i_1533>:
    8000196c:	00158593          	addi	a1,a1,1
    80001970:	fa95eee3          	bltu	a1,s1,8000192c <i_1517>

0000000080001974 <i_1534>:
    80001974:	14313c23          	sd	gp,344(sp)

0000000080001978 <i_1535>:
    80001978:	12013183          	ld	gp,288(sp)

000000008000197c <i_1536>:
    8000197c:	ee310c23          	sb	gp,-264(sp)

0000000080001980 <i_1537>:
    80001980:	1b214283          	lbu	t0,434(sp)

0000000080001984 <i_1538>:
    80001984:	01ce7263          	bleu	t3,t3,80001988 <i_1539>

0000000080001988 <i_1539>:
    80001988:	ecc16383          	lwu	t2,-308(sp)

000000008000198c <i_1540>:
    8000198c:	02357533          	remu	a0,a0,gp

0000000080001990 <i_1541>:
    80001990:	13314403          	lbu	s0,307(sp)

0000000080001994 <i_1542>:
    80001994:	01900593          	li	a1,25

0000000080001998 <i_1543>:
    80001998:	40b552bb          	sraw	t0,a0,a1

000000008000199c <i_1544>:
    8000199c:	13b10603          	lb	a2,315(sp)

00000000800019a0 <i_1545>:
    800019a0:	10a11023          	sh	a0,256(sp)

00000000800019a4 <i_1546>:
    800019a4:	00466533          	or	a0,a2,tp

00000000800019a8 <i_1547>:
    800019a8:	02d505bb          	mulw	a1,a0,a3

00000000800019ac <i_1548>:
    800019ac:	50c1b5b7          	lui	a1,0x50c1b

00000000800019b0 <i_1549>:
    800019b0:	03658b3b          	mulw	s6,a1,s6

00000000800019b4 <i_1550>:
    800019b4:	03667063          	bleu	s6,a2,800019d4 <i_1558>

00000000800019b8 <i_1551>:
    800019b8:	8eeb4b13          	xori	s6,s6,-1810

00000000800019bc <i_1552>:
    800019bc:	01b00b13          	li	s6,27

00000000800019c0 <i_1553>:
    800019c0:	416a5b3b          	sraw	s6,s4,s6

00000000800019c4 <i_1554>:
    800019c4:	036b3b33          	mulhu	s6,s6,s6

00000000800019c8 <i_1555>:
    800019c8:	0d610523          	sb	s6,202(sp)

00000000800019cc <i_1556>:
    800019cc:	ffe10b03          	lb	s6,-2(sp)

00000000800019d0 <i_1557>:
    800019d0:	036b60b3          	rem	ra,s6,s6

00000000800019d4 <i_1558>:
    800019d4:	f0110b03          	lb	s6,-255(sp)

00000000800019d8 <i_1559>:
    800019d8:	eb811a83          	lh	s5,-328(sp)

00000000800019dc <i_1560>:
    800019dc:	03a105a3          	sb	s10,43(sp)

00000000800019e0 <i_1561>:
    800019e0:	0216e063          	bltu	a3,ra,80001a00 <i_1569>

00000000800019e4 <i_1562>:
    800019e4:	f8414603          	lbu	a2,-124(sp)

00000000800019e8 <i_1563>:
    800019e8:	1e015503          	lhu	a0,480(sp)

00000000800019ec <i_1564>:
    800019ec:	19211603          	lh	a2,402(sp)

00000000800019f0 <i_1565>:
    800019f0:	05c12b03          	lw	s6,92(sp)

00000000800019f4 <i_1566>:
    800019f4:	01651863          	bne	a0,s6,80001a04 <i_1570>

00000000800019f8 <i_1567>:
    800019f8:	03514683          	lbu	a3,53(sp)

00000000800019fc <i_1568>:
    800019fc:	01951463          	bne	a0,s9,80001a04 <i_1570>

0000000080001a00 <i_1569>:
    80001a00:	00014183          	lbu	gp,0(sp)

0000000080001a04 <i_1570>:
    80001a04:	eb613023          	sd	s6,-352(sp)

0000000080001a08 <i_1571>:
    80001a08:	16a11623          	sh	a0,364(sp)

0000000080001a0c <i_1572>:
    80001a0c:	4126053b          	subw	a0,a2,s2

0000000080001a10 <i_1573>:
    80001a10:	02c576b3          	remu	a3,a0,a2

0000000080001a14 <i_1574>:
    80001a14:	fcc16a03          	lwu	s4,-52(sp)

0000000080001a18 <i_1575>:
    80001a18:	00157b33          	and	s6,a0,ra

0000000080001a1c <i_1576>:
    80001a1c:	13413423          	sd	s4,296(sp)

0000000080001a20 <i_1577>:
    80001a20:	eea15203          	lhu	tp,-278(sp)

0000000080001a24 <i_1578>:
    80001a24:	0d08021b          	addiw	tp,a6,208

0000000080001a28 <i_1579>:
    80001a28:	08a12c23          	sw	a0,152(sp)

0000000080001a2c <i_1580>:
    80001a2c:	0249c0bb          	divw	ra,s3,tp

0000000080001a30 <i_1581>:
    80001a30:	01012b03          	lw	s6,16(sp)

0000000080001a34 <i_1582>:
    80001a34:	00dd7e63          	bleu	a3,s10,80001a50 <i_1589>

0000000080001a38 <i_1583>:
    80001a38:	eb012603          	lw	a2,-336(sp)

0000000080001a3c <i_1584>:
    80001a3c:	10111c23          	sh	ra,280(sp)

0000000080001a40 <i_1585>:
    80001a40:	1d210383          	lb	t2,466(sp)

0000000080001a44 <i_1586>:
    80001a44:	0ec11923          	sh	a2,242(sp)

0000000080001a48 <i_1587>:
    80001a48:	02751063          	bne	a0,t2,80001a68 <i_1595>

0000000080001a4c <i_1588>:
    80001a4c:	e2c12783          	lw	a5,-468(sp)

0000000080001a50 <i_1589>:
    80001a50:	0237ddbb          	divuw	s11,a5,gp

0000000080001a54 <i_1590>:
    80001a54:	016ada63          	ble	s6,s5,80001a68 <i_1595>

0000000080001a58 <i_1591>:
    80001a58:	1cd12223          	sw	a3,452(sp)

0000000080001a5c <i_1592>:
    80001a5c:	fca11b03          	lh	s6,-54(sp)

0000000080001a60 <i_1593>:
    80001a60:	fb016a03          	lwu	s4,-80(sp)

0000000080001a64 <i_1594>:
    80001a64:	e2d10ea3          	sb	a3,-451(sp)

0000000080001a68 <i_1595>:
    80001a68:	f7612c23          	sw	s6,-136(sp)

0000000080001a6c <i_1596>:
    80001a6c:	09811b03          	lh	s6,152(sp)

0000000080001a70 <i_1597>:
    80001a70:	f2a14a03          	lbu	s4,-214(sp)

0000000080001a74 <i_1598>:
    80001a74:	73edbb97          	auipc	s7,0x73edb

0000000080001a78 <i_1599>:
    80001a78:	034a4263          	blt	s4,s4,80001a9c <i_1608>

0000000080001a7c <i_1600>:
    80001a7c:	13013183          	ld	gp,304(sp)

0000000080001a80 <i_1601>:
    80001a80:	036b5263          	ble	s6,s6,80001aa4 <i_1610>

0000000080001a84 <i_1602>:
    80001a84:	17613423          	sd	s6,360(sp)

0000000080001a88 <i_1603>:
    80001a88:	12a11803          	lh	a6,298(sp)

0000000080001a8c <i_1604>:
    80001a8c:	ec313023          	sd	gp,-320(sp)

0000000080001a90 <i_1605>:
    80001a90:	00e00993          	li	s3,14

0000000080001a94 <i_1606>:
    80001a94:	013d543b          	srlw	s0,s10,s3

0000000080001a98 <i_1607>:
    80001a98:	01a10d33          	add	s10,sp,s10

0000000080001a9c <i_1608>:
    80001a9c:	0b313023          	sd	s3,160(sp)

0000000080001aa0 <i_1609>:
    80001aa0:	c7cd2313          	slti	t1,s10,-900

0000000080001aa4 <i_1610>:
    80001aa4:	0aa15303          	lhu	t1,170(sp)

0000000080001aa8 <i_1611>:
    80001aa8:	00100213          	li	tp,1

0000000080001aac <i_1612>:
    80001aac:	004419b3          	sll	s3,s0,tp

0000000080001ab0 <i_1613>:
    80001ab0:	0089ec63          	bltu	s3,s0,80001ac8 <i_1619>

0000000080001ab4 <i_1614>:
    80001ab4:	01abd663          	ble	s10,s7,80001ac0 <i_1617>

0000000080001ab8 <i_1615>:
    80001ab8:	03a26bb3          	rem	s7,tp,s10

0000000080001abc <i_1616>:
    80001abc:	08414403          	lbu	s0,132(sp)

0000000080001ac0 <i_1617>:
    80001ac0:	022bfbbb          	remuw	s7,s7,sp

0000000080001ac4 <i_1618>:
    80001ac4:	12b14637          	lui	a2,0x12b14

0000000080001ac8 <i_1619>:
    80001ac8:	02867bbb          	remuw	s7,a2,s0

0000000080001acc <i_1620>:
    80001acc:	e5711523          	sh	s7,-438(sp)

0000000080001ad0 <i_1621>:
    80001ad0:	01c44263          	blt	s0,t3,80001ad4 <i_1622>

0000000080001ad4 <i_1622>:
    80001ad4:	e2612e23          	sw	t1,-452(sp)

0000000080001ad8 <i_1623>:
    80001ad8:	037a9463          	bne	s5,s7,80001b00 <i_1633>

0000000080001adc <i_1624>:
    80001adc:	f3711223          	sh	s7,-220(sp)

0000000080001ae0 <i_1625>:
    80001ae0:	008f3b33          	sltu	s6,t5,s0

0000000080001ae4 <i_1626>:
    80001ae4:	e3e10303          	lb	t1,-450(sp)

0000000080001ae8 <i_1627>:
    80001ae8:	a64cec93          	ori	s9,s9,-1436

0000000080001aec <i_1628>:
    80001aec:	00f31863          	bne	t1,a5,80001afc <i_1632>

0000000080001af0 <i_1629>:
    80001af0:	fd014403          	lbu	s0,-48(sp)

0000000080001af4 <i_1630>:
    80001af4:	e2714083          	lbu	ra,-473(sp)

0000000080001af8 <i_1631>:
    80001af8:	fa813c03          	ld	s8,-88(sp)

0000000080001afc <i_1632>:
    80001afc:	01500b93          	li	s7,21

0000000080001b00 <i_1633>:
    80001b00:	4170d4bb          	sraw	s1,ra,s7

0000000080001b04 <i_1634>:
    80001b04:	a7932413          	slti	s0,t1,-1415

0000000080001b08 <i_1635>:
    80001b08:	e5712623          	sw	s7,-436(sp)

0000000080001b0c <i_1636>:
    80001b0c:	14612423          	sw	t1,328(sp)

0000000080001b10 <i_1637>:
    80001b10:	01ec9263          	bne	s9,t5,80001b14 <i_1638>

0000000080001b14 <i_1638>:
    80001b14:	008c4663          	blt	s8,s0,80001b20 <i_1641>

0000000080001b18 <i_1639>:
    80001b18:	027bca3b          	divw	s4,s7,t2

0000000080001b1c <i_1640>:
    80001b1c:	03fccc33          	div	s8,s9,t6

0000000080001b20 <i_1641>:
    80001b20:	018c0e63          	beq	s8,s8,80001b3c <i_1648>

0000000080001b24 <i_1642>:
    80001b24:	07011d03          	lh	s10,112(sp)

0000000080001b28 <i_1643>:
    80001b28:	62ba8c93          	addi	s9,s5,1579

0000000080001b2c <i_1644>:
    80001b2c:	1aec4d13          	xori	s10,s8,430

0000000080001b30 <i_1645>:
    80001b30:	fba15d03          	lhu	s10,-70(sp)

0000000080001b34 <i_1646>:
    80001b34:	01ac0c63          	beq	s8,s10,80001b4c <i_1652>

0000000080001b38 <i_1647>:
    80001b38:	403cdc1b          	sraiw	s8,s9,0x3

0000000080001b3c <i_1648>:
    80001b3c:	08016c03          	lwu	s8,128(sp)

0000000080001b40 <i_1649>:
    80001b40:	19013403          	ld	s0,400(sp)

0000000080001b44 <i_1650>:
    80001b44:	fd8100a3          	sb	s8,-63(sp)

0000000080001b48 <i_1651>:
    80001b48:	07813503          	ld	a0,120(sp)

0000000080001b4c <i_1652>:
    80001b4c:	19614303          	lbu	t1,406(sp)

0000000080001b50 <i_1653>:
    80001b50:	f8911f23          	sh	s1,-98(sp)

0000000080001b54 <i_1654>:
    80001b54:	038ce463          	bltu	s9,s8,80001b7c <i_1664>

0000000080001b58 <i_1655>:
    80001b58:	f9412a03          	lw	s4,-108(sp)

0000000080001b5c <i_1656>:
    80001b5c:	15016483          	lwu	s1,336(sp)

0000000080001b60 <i_1657>:
    80001b60:	02aa56b3          	divu	a3,s4,a0

0000000080001b64 <i_1658>:
    80001b64:	f3e14683          	lbu	a3,-194(sp)

0000000080001b68 <i_1659>:
    80001b68:	e8610823          	sb	t1,-368(sp)

0000000080001b6c <i_1660>:
    80001b6c:	0066ea63          	bltu	a3,t1,80001b80 <i_1665>

0000000080001b70 <i_1661>:
    80001b70:	0ec12d03          	lw	s10,236(sp)

0000000080001b74 <i_1662>:
    80001b74:	e5416c83          	lwu	s9,-428(sp)

0000000080001b78 <i_1663>:
    80001b78:	0393eeb3          	rem	t4,t2,s9

0000000080001b7c <i_1664>:
    80001b7c:	014eaeb3          	slt	t4,t4,s4

0000000080001b80 <i_1665>:
    80001b80:	f09100a3          	sb	s1,-255(sp)

0000000080001b84 <i_1666>:
    80001b84:	690f84b7          	lui	s1,0x690f8

0000000080001b88 <i_1667>:
    80001b88:	8f18ee93          	ori	t4,a7,-1807

0000000080001b8c <i_1668>:
    80001b8c:	00911a23          	sh	s1,20(sp)

0000000080001b90 <i_1669>:
    80001b90:	03dec4b3          	div	s1,t4,t4

0000000080001b94 <i_1670>:
    80001b94:	f2410623          	sb	tp,-212(sp)

0000000080001b98 <i_1671>:
    80001b98:	003cdc93          	srli	s9,s9,0x3

0000000080001b9c <i_1672>:
    80001b9c:	7aa00993          	li	s3,1962

0000000080001ba0 <i_1673>:
    80001ba0:	7be00493          	li	s1,1982

0000000080001ba4 <i_1674>:
    80001ba4:	00000013          	nop

0000000080001ba8 <i_1675>:
    80001ba8:	03345cbb          	divuw	s9,s0,s3

0000000080001bac <i_1676>:
    80001bac:	13713c23          	sd	s7,312(sp)

0000000080001bb0 <i_1677>:
    80001bb0:	01944c33          	xor	s8,s0,s9

0000000080001bb4 <i_1678>:
    80001bb4:	00198993          	addi	s3,s3,1
    80001bb8:	fe99e6e3          	bltu	s3,s1,80001ba4 <i_1674>

0000000080001bbc <i_1679>:
    80001bbc:	04e10c83          	lb	s9,78(sp)

0000000080001bc0 <i_1680>:
    80001bc0:	01746e63          	bltu	s0,s7,80001bdc <i_1687>

0000000080001bc4 <i_1681>:
    80001bc4:	19813423          	sd	s8,392(sp)

0000000080001bc8 <i_1682>:
    80001bc8:	12e11b83          	lh	s7,302(sp)

0000000080001bcc <i_1683>:
    80001bcc:	038c14b3          	mulh	s1,s8,s8

0000000080001bd0 <i_1684>:
    80001bd0:	00000013          	nop

0000000080001bd4 <i_1685>:
    80001bd4:	09a11b83          	lh	s7,154(sp)

0000000080001bd8 <i_1686>:
    80001bd8:	ec211483          	lh	s1,-318(sp)

0000000080001bdc <i_1687>:
    80001bdc:	15c10803          	lb	a6,348(sp)

0000000080001be0 <i_1688>:
    80001be0:	00000013          	nop

0000000080001be4 <i_1689>:
    80001be4:	7d600c13          	li	s8,2006

0000000080001be8 <i_1690>:
    80001be8:	7e000413          	li	s0,2016

0000000080001bec <i_1691>:
    80001bec:	1d013b83          	ld	s7,464(sp)

0000000080001bf0 <i_1692>:
    80001bf0:	03040b3b          	mulw	s6,s0,a6

0000000080001bf4 <i_1693>:
    80001bf4:	41d28db3          	sub	s11,t0,t4

0000000080001bf8 <i_1694>:
    80001bf8:	00000013          	nop

0000000080001bfc <i_1695>:
    80001bfc:	001c0c13          	addi	s8,s8,1
    80001c00:	fe8c66e3          	bltu	s8,s0,80001bec <i_1691>

0000000080001c04 <i_1696>:
    80001c04:	12610383          	lb	t2,294(sp)

0000000080001c08 <i_1697>:
    80001c08:	02713c23          	sd	t2,56(sp)

0000000080001c0c <i_1698>:
    80001c0c:	001b5d1b          	srliw	s10,s6,0x1

0000000080001c10 <i_1699>:
    80001c10:	1b416683          	lwu	a3,436(sp)

0000000080001c14 <i_1700>:
    80001c14:	a836a513          	slti	a0,a3,-1405

0000000080001c18 <i_1701>:
    80001c18:	f9813a03          	ld	s4,-104(sp)

0000000080001c1c <i_1702>:
    80001c1c:	03453b33          	mulhu	s6,a0,s4

0000000080001c20 <i_1703>:
    80001c20:	08a13023          	sd	a0,128(sp)

0000000080001c24 <i_1704>:
    80001c24:	02aa6063          	bltu	s4,a0,80001c44 <i_1712>

0000000080001c28 <i_1705>:
    80001c28:	fa412503          	lw	a0,-92(sp)

0000000080001c2c <i_1706>:
    80001c2c:	016b4a33          	xor	s4,s6,s6

0000000080001c30 <i_1707>:
    80001c30:	00000013          	nop

0000000080001c34 <i_1708>:
    80001c34:	00000013          	nop

0000000080001c38 <i_1709>:
    80001c38:	0f012503          	lw	a0,240(sp)

0000000080001c3c <i_1710>:
    80001c3c:	022105a3          	sb	sp,43(sp)

0000000080001c40 <i_1711>:
    80001c40:	ef016683          	lwu	a3,-272(sp)

0000000080001c44 <i_1712>:
    80001c44:	1a410803          	lb	a6,420(sp)

0000000080001c48 <i_1713>:
    80001c48:	0045599b          	srliw	s3,a0,0x4

0000000080001c4c <i_1714>:
    80001c4c:	75a00293          	li	t0,1882

0000000080001c50 <i_1715>:
    80001c50:	76d00a13          	li	s4,1901

0000000080001c54 <i_1716>:
    80001c54:	ea211503          	lh	a0,-350(sp)

0000000080001c58 <i_1717>:
    80001c58:	b8d80693          	addi	a3,a6,-1139

0000000080001c5c <i_1718>:
    80001c5c:	f1011383          	lh	t2,-240(sp)

0000000080001c60 <i_1719>:
    80001c60:	8a900513          	li	a0,-1879

0000000080001c64 <i_1720>:
    80001c64:	8bc00813          	li	a6,-1860

0000000080001c68 <i_1721>:
    80001c68:	00150513          	addi	a0,a0,1 # cb7a56b9 <_end+0x4b7952a5>
    80001c6c:	fea87ee3          	bleu	a0,a6,80001c68 <i_1721>

0000000080001c70 <i_1722>:
    80001c70:	00000013          	nop

0000000080001c74 <i_1723>:
    80001c74:	fc711223          	sh	t2,-60(sp)

0000000080001c78 <i_1724>:
    80001c78:	007389b3          	add	s3,t2,t2

0000000080001c7c <i_1725>:
    80001c7c:	0de15183          	lhu	gp,222(sp)

0000000080001c80 <i_1726>:
    80001c80:	e3e18a9b          	addiw	s5,gp,-450

0000000080001c84 <i_1727>:
    80001c84:	00128293          	addi	t0,t0,1
    80001c88:	fd4296e3          	bne	t0,s4,80001c54 <i_1716>

0000000080001c8c <i_1728>:
    80001c8c:	e5310823          	sb	s3,-432(sp)

0000000080001c90 <i_1729>:
    80001c90:	a3ab1617          	auipc	a2,0xa3ab1

0000000080001c94 <i_1730>:
    80001c94:	01b98263          	beq	s3,s11,80001c98 <i_1731>

0000000080001c98 <i_1731>:
    80001c98:	01b6da63          	ble	s11,a3,80001cac <i_1736>

0000000080001c9c <i_1732>:
    80001c9c:	014a8863          	beq	s5,s4,80001cac <i_1736>

0000000080001ca0 <i_1733>:
    80001ca0:	15813783          	ld	a5,344(sp)

0000000080001ca4 <i_1734>:
    80001ca4:	fb813a03          	ld	s4,-72(sp)

0000000080001ca8 <i_1735>:
    80001ca8:	64ea8d13          	addi	s10,s5,1614

0000000080001cac <i_1736>:
    80001cac:	e9511c23          	sh	s5,-360(sp)

0000000080001cb0 <i_1737>:
    80001cb0:	034d5d33          	divu	s10,s10,s4

0000000080001cb4 <i_1738>:
    80001cb4:	18813383          	ld	t2,392(sp)

0000000080001cb8 <i_1739>:
    80001cb8:	00fa4863          	blt	s4,a5,80001cc8 <i_1743>

0000000080001cbc <i_1740>:
    80001cbc:	7f476b37          	lui	s6,0x7f476

0000000080001cc0 <i_1741>:
    80001cc0:	f3611223          	sh	s6,-220(sp)

0000000080001cc4 <i_1742>:
    80001cc4:	58cf8813          	addi	a6,t6,1420

0000000080001cc8 <i_1743>:
    80001cc8:	027a5063          	ble	t2,s4,80001ce8 <i_1751>

0000000080001ccc <i_1744>:
    80001ccc:	034b6a3b          	remw	s4,s6,s4

0000000080001cd0 <i_1745>:
    80001cd0:	f1015a03          	lhu	s4,-240(sp)

0000000080001cd4 <i_1746>:
    80001cd4:	fb416b03          	lwu	s6,-76(sp)

0000000080001cd8 <i_1747>:
    80001cd8:	eb314a83          	lbu	s5,-333(sp)

0000000080001cdc <i_1748>:
    80001cdc:	0d414183          	lbu	gp,212(sp)

0000000080001ce0 <i_1749>:
    80001ce0:	1b013b03          	ld	s6,432(sp)

0000000080001ce4 <i_1750>:
    80001ce4:	1b412623          	sw	s4,428(sp)

0000000080001ce8 <i_1751>:
    80001ce8:	00387e63          	bleu	gp,a6,80001d04 <i_1758>

0000000080001cec <i_1752>:
    80001cec:	0250c463          	blt	ra,t0,80001d14 <i_1762>

0000000080001cf0 <i_1753>:
    80001cf0:	015c6a63          	bltu	s8,s5,80001d04 <i_1758>

0000000080001cf4 <i_1754>:
    80001cf4:	00000013          	nop

0000000080001cf8 <i_1755>:
    80001cf8:	09e10183          	lb	gp,158(sp)

0000000080001cfc <i_1756>:
    80001cfc:	00c7e1b3          	or	gp,a5,a2

0000000080001d00 <i_1757>:
    80001d00:	01800393          	li	t2,24

0000000080001d04 <i_1758>:
    80001d04:	007393bb          	sllw	t2,t2,t2

0000000080001d08 <i_1759>:
    80001d08:	01200393          	li	t2,18

0000000080001d0c <i_1760>:
    80001d0c:	007393bb          	sllw	t2,t2,t2

0000000080001d10 <i_1761>:
    80001d10:	ae63829b          	addiw	t0,t2,-1306

0000000080001d14 <i_1762>:
    80001d14:	0022939b          	slliw	t2,t0,0x2

0000000080001d18 <i_1763>:
    80001d18:	18c11383          	lh	t2,396(sp)

0000000080001d1c <i_1764>:
    80001d1c:	77200793          	li	a5,1906

0000000080001d20 <i_1765>:
    80001d20:	77e00613          	li	a2,1918

0000000080001d24 <i_1766>:
    80001d24:	0018951b          	slliw	a0,a7,0x1

0000000080001d28 <i_1767>:
    80001d28:	0f610d23          	sb	s6,250(sp)

0000000080001d2c <i_1768>:
    80001d2c:	11013a03          	ld	s4,272(sp)

0000000080001d30 <i_1769>:
    80001d30:	00178793          	addi	a5,a5,1
    80001d34:	fef658e3          	ble	a5,a2,80001d24 <i_1766>

0000000080001d38 <i_1770>:
    80001d38:	f0a11203          	lh	tp,-246(sp)

0000000080001d3c <i_1771>:
    80001d3c:	014a4663          	blt	s4,s4,80001d48 <i_1774>

0000000080001d40 <i_1772>:
    80001d40:	405282bb          	subw	t0,t0,t0

0000000080001d44 <i_1773>:
    80001d44:	00420a33          	add	s4,tp,tp

0000000080001d48 <i_1774>:
    80001d48:	0042dc63          	ble	tp,t0,80001d60 <i_1780>

0000000080001d4c <i_1775>:
    80001d4c:	01200193          	li	gp,18

0000000080001d50 <i_1776>:
    80001d50:	4032523b          	sraw	tp,tp,gp

0000000080001d54 <i_1777>:
    80001d54:	0051a2b3          	slt	t0,gp,t0

0000000080001d58 <i_1778>:
    80001d58:	19914603          	lbu	a2,409(sp)

0000000080001d5c <i_1779>:
    80001d5c:	fb010183          	lb	gp,-80(sp)

0000000080001d60 <i_1780>:
    80001d60:	02ca6633          	rem	a2,s4,a2

0000000080001d64 <i_1781>:
    80001d64:	06c12623          	sw	a2,108(sp)

0000000080001d68 <i_1782>:
    80001d68:	00561c63          	bne	a2,t0,80001d80 <i_1788>

0000000080001d6c <i_1783>:
    80001d6c:	00c2c263          	blt	t0,a2,80001d70 <i_1784>

0000000080001d70 <i_1784>:
    80001d70:	02c1543b          	divuw	s0,sp,a2

0000000080001d74 <i_1785>:
    80001d74:	03ca24b3          	mulhsu	s1,s4,t3

0000000080001d78 <i_1786>:
    80001d78:	02c2d463          	ble	a2,t0,80001da0 <i_1796>

0000000080001d7c <i_1787>:
    80001d7c:	003a7263          	bleu	gp,s4,80001d80 <i_1788>

0000000080001d80 <i_1788>:
    80001d80:	023a6463          	bltu	s4,gp,80001da8 <i_1798>

0000000080001d84 <i_1789>:
    80001d84:	00461413          	slli	s0,a2,0x4

0000000080001d88 <i_1790>:
    80001d88:	03a13c23          	sd	s10,56(sp)

0000000080001d8c <i_1791>:
    80001d8c:	0a911a23          	sh	s1,180(sp)

0000000080001d90 <i_1792>:
    80001d90:	00e15603          	lhu	a2,14(sp)

0000000080001d94 <i_1793>:
    80001d94:	00013603          	ld	a2,0(sp)

0000000080001d98 <i_1794>:
    80001d98:	02c61463          	bne	a2,a2,80001dc0 <i_1804>

0000000080001d9c <i_1795>:
    80001d9c:	00c49263          	bne	s1,a2,80001da0 <i_1796>

0000000080001da0 <i_1796>:
    80001da0:	00000013          	nop

0000000080001da4 <i_1797>:
    80001da4:	15c11c03          	lh	s8,348(sp)

0000000080001da8 <i_1798>:
    80001da8:	001c1e1b          	slliw	t3,s8,0x1

0000000080001dac <i_1799>:
    80001dac:	16c15483          	lhu	s1,364(sp)

0000000080001db0 <i_1800>:
    80001db0:	16913023          	sd	s1,352(sp)

0000000080001db4 <i_1801>:
    80001db4:	00000013          	nop

0000000080001db8 <i_1802>:
    80001db8:	00000013          	nop

0000000080001dbc <i_1803>:
    80001dbc:	fe011603          	lh	a2,-32(sp)

0000000080001dc0 <i_1804>:
    80001dc0:	00000013          	nop

0000000080001dc4 <i_1805>:
    80001dc4:	01f50e13          	addi	t3,a0,31

0000000080001dc8 <i_1806>:
    80001dc8:	74400313          	li	t1,1860

0000000080001dcc <i_1807>:
    80001dcc:	74f00693          	li	a3,1871

0000000080001dd0 <i_1808>:
    80001dd0:	02c66633          	rem	a2,a2,a2

0000000080001dd4 <i_1809>:
    80001dd4:	00130313          	addi	t1,t1,1 # 5294f001 <main-0x2d6b0fff>
    80001dd8:	fe66dce3          	ble	t1,a3,80001dd0 <i_1808>

0000000080001ddc <i_1810>:
    80001ddc:	b4ac8a93          	addi	s5,s9,-1206

0000000080001de0 <i_1811>:
    80001de0:	13012503          	lw	a0,304(sp)

0000000080001de4 <i_1812>:
    80001de4:	00151c93          	slli	s9,a0,0x1

0000000080001de8 <i_1813>:
    80001de8:	ea016603          	lwu	a2,-352(sp)

0000000080001dec <i_1814>:
    80001dec:	02d14b03          	lbu	s6,45(sp)

0000000080001df0 <i_1815>:
    80001df0:	1a614983          	lbu	s3,422(sp)

0000000080001df4 <i_1816>:
    80001df4:	685ccc93          	xori	s9,s9,1669

0000000080001df8 <i_1817>:
    80001df8:	e7613c23          	sd	s6,-392(sp)

0000000080001dfc <i_1818>:
    80001dfc:	01d00593          	li	a1,29

0000000080001e00 <i_1819>:
    80001e00:	00bcdb3b          	srlw	s6,s9,a1

0000000080001e04 <i_1820>:
    80001e04:	00013c83          	ld	s9,0(sp)

0000000080001e08 <i_1821>:
    80001e08:	0e011d03          	lh	s10,224(sp)

0000000080001e0c <i_1822>:
    80001e0c:	03a211b3          	mulh	gp,tp,s10

0000000080001e10 <i_1823>:
    80001e10:	03813023          	sd	s8,32(sp)

0000000080001e14 <i_1824>:
    80001e14:	01000c13          	li	s8,16

0000000080001e18 <i_1825>:
    80001e18:	018d11b3          	sll	gp,s10,s8

0000000080001e1c <i_1826>:
    80001e1c:	7f600213          	li	tp,2038

0000000080001e20 <i_1827>:
    80001e20:	7f800d13          	li	s10,2040

0000000080001e24 <i_1828>:
    80001e24:	12c15283          	lhu	t0,300(sp)

0000000080001e28 <i_1829>:
    80001e28:	00c16a83          	lwu	s5,12(sp)

0000000080001e2c <i_1830>:
    80001e2c:	19416b83          	lwu	s7,404(sp)

0000000080001e30 <i_1831>:
    80001e30:	eb013b83          	ld	s7,-336(sp)

0000000080001e34 <i_1832>:
    80001e34:	8d400493          	li	s1,-1836

0000000080001e38 <i_1833>:
    80001e38:	8e200413          	li	s0,-1822

0000000080001e3c <i_1834>:
    80001e3c:	0285d6b3          	divu	a3,a1,s0

0000000080001e40 <i_1835>:
    80001e40:	00000013          	nop

0000000080001e44 <i_1836>:
    80001e44:	00000013          	nop

0000000080001e48 <i_1837>:
    80001e48:	00148493          	addi	s1,s1,1 # 690f8001 <main-0x16f07fff>
    80001e4c:	fe84e8e3          	bltu	s1,s0,80001e3c <i_1834>

0000000080001e50 <i_1838>:
    80001e50:	0016d09b          	srliw	ra,a3,0x1

0000000080001e54 <i_1839>:
    80001e54:	0210f6bb          	remuw	a3,ra,ra

0000000080001e58 <i_1840>:
    80001e58:	00d686b3          	add	a3,a3,a3

0000000080001e5c <i_1841>:
    80001e5c:	0030d693          	srli	a3,ra,0x3

0000000080001e60 <i_1842>:
    80001e60:	00120213          	addi	tp,tp,1 # 1 <main-0x7fffffff>
    80001e64:	fda260e3          	bltu	tp,s10,80001e24 <i_1828>

0000000080001e68 <i_1843>:
    80001e68:	00668663          	beq	a3,t1,80001e74 <i_1846>

0000000080001e6c <i_1844>:
    80001e6c:	ebb103a3          	sb	s11,-345(sp)

0000000080001e70 <i_1845>:
    80001e70:	003d1d13          	slli	s10,s10,0x3

0000000080001e74 <i_1846>:
    80001e74:	65c54d93          	xori	s11,a0,1628

0000000080001e78 <i_1847>:
    80001e78:	eb412283          	lw	t0,-332(sp)

0000000080001e7c <i_1848>:
    80001e7c:	c402c293          	xori	t0,t0,-960

0000000080001e80 <i_1849>:
    80001e80:	03b6e6bb          	remw	a3,a3,s11

0000000080001e84 <i_1850>:
    80001e84:	0016d693          	srli	a3,a3,0x1

0000000080001e88 <i_1851>:
    80001e88:	0056cc63          	blt	a3,t0,80001ea0 <i_1857>

0000000080001e8c <i_1852>:
    80001e8c:	d556b697          	auipc	a3,0xd556b

0000000080001e90 <i_1853>:
    80001e90:	00c00693          	li	a3,12

0000000080001e94 <i_1854>:
    80001e94:	00d2d9bb          	srlw	s3,t0,a3

0000000080001e98 <i_1855>:
    80001e98:	12511323          	sh	t0,294(sp)

0000000080001e9c <i_1856>:
    80001e9c:	f6d13423          	sd	a3,-152(sp)

0000000080001ea0 <i_1857>:
    80001ea0:	00000013          	nop

0000000080001ea4 <i_1858>:
    80001ea4:	0047969b          	slliw	a3,a5,0x4

0000000080001ea8 <i_1859>:
    80001ea8:	7ba00d13          	li	s10,1978

0000000080001eac <i_1860>:
    80001eac:	7cb00793          	li	a5,1995

0000000080001eb0 <i_1861>:
    80001eb0:	02d6e6bb          	remw	a3,a3,a3

0000000080001eb4 <i_1862>:
    80001eb4:	fee10fa3          	sb	a4,-1(sp)

0000000080001eb8 <i_1863>:
    80001eb8:	f4a11403          	lh	s0,-182(sp)

0000000080001ebc <i_1864>:
    80001ebc:	f0013403          	ld	s0,-256(sp)

0000000080001ec0 <i_1865>:
    80001ec0:	001d0d13          	addi	s10,s10,1 # ffffffff8a6eb001 <_end+0xffffffff0a6dabed>
    80001ec4:	fefd66e3          	bltu	s10,a5,80001eb0 <i_1861>

0000000080001ec8 <i_1866>:
    80001ec8:	01000693          	li	a3,16

0000000080001ecc <i_1867>:
    80001ecc:	00d6d5bb          	srlw	a1,a3,a3

0000000080001ed0 <i_1868>:
    80001ed0:	00e5cc63          	blt	a1,a4,80001ee8 <i_1874>

0000000080001ed4 <i_1869>:
    80001ed4:	00d00593          	li	a1,13

0000000080001ed8 <i_1870>:
    80001ed8:	00b6dcbb          	srlw	s9,a3,a1

0000000080001edc <i_1871>:
    80001edc:	02b6f5b3          	remu	a1,a3,a1

0000000080001ee0 <i_1872>:
    80001ee0:	1cb10723          	sb	a1,462(sp)

0000000080001ee4 <i_1873>:
    80001ee4:	00bc7c33          	and	s8,s8,a1

0000000080001ee8 <i_1874>:
    80001ee8:	f1013083          	ld	ra,-240(sp)

0000000080001eec <i_1875>:
    80001eec:	003c5d9b          	srliw	s11,s8,0x3

0000000080001ef0 <i_1876>:
    80001ef0:	019c8863          	beq	s9,s9,80001f00 <i_1880>

0000000080001ef4 <i_1877>:
    80001ef4:	04416403          	lwu	s0,68(sp)

0000000080001ef8 <i_1878>:
    80001ef8:	00dc6463          	bltu	s8,a3,80001f00 <i_1880>

0000000080001efc <i_1879>:
    80001efc:	4044579b          	sraiw	a5,s0,0x4

0000000080001f00 <i_1880>:
    80001f00:	e4a15e03          	lhu	t3,-438(sp)

0000000080001f04 <i_1881>:
    80001f04:	02400a13          	li	s4,36

0000000080001f08 <i_1882>:
    80001f08:	0147de33          	srl	t3,a5,s4

0000000080001f0c <i_1883>:
    80001f0c:	00fa0e33          	add	t3,s4,a5

0000000080001f10 <i_1884>:
    80001f10:	01ce77b3          	and	a5,t3,t3

0000000080001f14 <i_1885>:
    80001f14:	025797b3          	mulh	a5,a5,t0

0000000080001f18 <i_1886>:
    80001f18:	41c28e33          	sub	t3,t0,t3

0000000080001f1c <i_1887>:
    80001f1c:	89700293          	li	t0,-1897

0000000080001f20 <i_1888>:
    80001f20:	8a500a13          	li	s4,-1883

0000000080001f24 <i_1889>:
    80001f24:	f1416603          	lwu	a2,-236(sp)

0000000080001f28 <i_1890>:
    80001f28:	15010b83          	lb	s7,336(sp)

0000000080001f2c <i_1891>:
    80001f2c:	05010b83          	lb	s7,80(sp)

0000000080001f30 <i_1892>:
    80001f30:	82b00793          	li	a5,-2005

0000000080001f34 <i_1893>:
    80001f34:	83900d13          	li	s10,-1991

0000000080001f38 <i_1894>:
    80001f38:	e8010b83          	lb	s7,-384(sp)

0000000080001f3c <i_1895>:
    80001f3c:	00178793          	addi	a5,a5,1
    80001f40:	fefd7ce3          	bleu	a5,s10,80001f38 <i_1894>

0000000080001f44 <i_1896>:
    80001f44:	ed712223          	sw	s7,-316(sp)

0000000080001f48 <i_1897>:
    80001f48:	f9314383          	lbu	t2,-109(sp)

0000000080001f4c <i_1898>:
    80001f4c:	00cd27b3          	slt	a5,s10,a2

0000000080001f50 <i_1899>:
    80001f50:	00128293          	addi	t0,t0,1
    80001f54:	fd42c8e3          	blt	t0,s4,80001f24 <i_1889>

0000000080001f58 <i_1900>:
    80001f58:	0cd10d03          	lb	s10,205(sp)

0000000080001f5c <i_1901>:
    80001f5c:	01914383          	lbu	t2,25(sp)

0000000080001f60 <i_1902>:
    80001f60:	fd813d83          	ld	s11,-40(sp)

0000000080001f64 <i_1903>:
    80001f64:	5864f493          	andi	s1,s1,1414

0000000080001f68 <i_1904>:
    80001f68:	00957533          	and	a0,a0,s1

0000000080001f6c <i_1905>:
    80001f6c:	03419bb3          	mulh	s7,gp,s4

0000000080001f70 <i_1906>:
    80001f70:	e6913023          	sd	s1,-416(sp)

0000000080001f74 <i_1907>:
    80001f74:	fd011a03          	lh	s4,-48(sp)

0000000080001f78 <i_1908>:
    80001f78:	0144f263          	bleu	s4,s1,80001f7c <i_1909>

0000000080001f7c <i_1909>:
    80001f7c:	02a4d263          	ble	a0,s1,80001fa0 <i_1918>

0000000080001f80 <i_1910>:
    80001f80:	ed413c23          	sd	s4,-296(sp)

0000000080001f84 <i_1911>:
    80001f84:	02a50063          	beq	a0,a0,80001fa4 <i_1919>

0000000080001f88 <i_1912>:
    80001f88:	eba11a03          	lh	s4,-326(sp)

0000000080001f8c <i_1913>:
    80001f8c:	00a50263          	beq	a0,a0,80001f90 <i_1914>

0000000080001f90 <i_1914>:
    80001f90:	02ba5533          	divu	a0,s4,a1

0000000080001f94 <i_1915>:
    80001f94:	2d8a6a13          	ori	s4,s4,728

0000000080001f98 <i_1916>:
    80001f98:	e7a15503          	lhu	a0,-390(sp)

0000000080001f9c <i_1917>:
    80001f9c:	01a11a03          	lh	s4,26(sp)

0000000080001fa0 <i_1918>:
    80001fa0:	eb815d03          	lhu	s10,-328(sp)

0000000080001fa4 <i_1919>:
    80001fa4:	00500513          	li	a0,5

0000000080001fa8 <i_1920>:
    80001fa8:	00a55533          	srl	a0,a0,a0

0000000080001fac <i_1921>:
    80001fac:	00a74233          	xor	tp,a4,a0

0000000080001fb0 <i_1922>:
    80001fb0:	03551463          	bne	a0,s5,80001fd8 <i_1932>

0000000080001fb4 <i_1923>:
    80001fb4:	f0a15503          	lhu	a0,-246(sp)

0000000080001fb8 <i_1924>:
    80001fb8:	02451063          	bne	a0,tp,80001fd8 <i_1932>

0000000080001fbc <i_1925>:
    80001fbc:	02a57463          	bleu	a0,a0,80001fe4 <i_1935>

0000000080001fc0 <i_1926>:
    80001fc0:	01500213          	li	tp,21

0000000080001fc4 <i_1927>:
    80001fc4:	00471f3b          	sllw	t5,a4,tp

0000000080001fc8 <i_1928>:
    80001fc8:	eca13423          	sd	a0,-312(sp)

0000000080001fcc <i_1929>:
    80001fcc:	01af7c63          	bleu	s10,t5,80001fe4 <i_1935>

0000000080001fd0 <i_1930>:
    80001fd0:	edc12c03          	lw	s8,-292(sp)

0000000080001fd4 <i_1931>:
    80001fd4:	03b25233          	divu	tp,tp,s11

0000000080001fd8 <i_1932>:
    80001fd8:	009d0863          	beq	s10,s1,80001fe8 <i_1936>

0000000080001fdc <i_1933>:
    80001fdc:	018d6463          	bltu	s10,s8,80001fe4 <i_1935>

0000000080001fe0 <i_1934>:
    80001fe0:	00aa3a33          	sltu	s4,s4,a0

0000000080001fe4 <i_1935>:
    80001fe4:	01ac09b3          	add	s3,s8,s10

0000000080001fe8 <i_1936>:
    80001fe8:	00800693          	li	a3,8

0000000080001fec <i_1937>:
    80001fec:	00d51db3          	sll	s11,a0,a3

0000000080001ff0 <i_1938>:
    80001ff0:	f27109a3          	sb	t2,-205(sp)

0000000080001ff4 <i_1939>:
    80001ff4:	02a26463          	bltu	tp,a0,8000201c <i_1949>

0000000080001ff8 <i_1940>:
    80001ff8:	0034d21b          	srliw	tp,s1,0x3

0000000080001ffc <i_1941>:
    80001ffc:	02e55abb          	divuw	s5,a0,a4

0000000080002000 <i_1942>:
    80002000:	03c57063          	bleu	t3,a0,80002020 <i_1950>

0000000080002004 <i_1943>:
    80002004:	f8a11e23          	sh	a0,-100(sp)

0000000080002008 <i_1944>:
    80002008:	024406bb          	mulw	a3,s0,tp

000000008000200c <i_1945>:
    8000200c:	02daae33          	mulhsu	t3,s5,a3

0000000080002010 <i_1946>:
    80002010:	015ec463          	blt	t4,s5,80002018 <i_1948>

0000000080002014 <i_1947>:
    80002014:	03f6ee33          	rem	t3,a3,t6

0000000080002018 <i_1948>:
    80002018:	035aef3b          	remw	t5,s5,s5

000000008000201c <i_1949>:
    8000201c:	e7e15f03          	lhu	t5,-386(sp)

0000000080002020 <i_1950>:
    80002020:	e6d10da3          	sb	a3,-389(sp)

0000000080002024 <i_1951>:
    80002024:	edc10323          	sb	t3,-314(sp)

0000000080002028 <i_1952>:
    80002028:	035f7a3b          	remuw	s4,t5,s5

000000008000202c <i_1953>:
    8000202c:	07512c23          	sw	s5,120(sp)

0000000080002030 <i_1954>:
    80002030:	03e00f13          	li	t5,62

0000000080002034 <i_1955>:
    80002034:	01ef5f33          	srl	t5,t5,t5

0000000080002038 <i_1956>:
    80002038:	01ea3f33          	sltu	t5,s4,t5

000000008000203c <i_1957>:
    8000203c:	03ecaf33          	mulhsu	t5,s9,t5

0000000080002040 <i_1958>:
    80002040:	03ef4463          	blt	t5,t5,80002068 <i_1968>

0000000080002044 <i_1959>:
    80002044:	035a6abb          	remw	s5,s4,s5

0000000080002048 <i_1960>:
    80002048:	e44a3f17          	auipc	t5,0xe44a3

000000008000204c <i_1961>:
    8000204c:	81f40413          	addi	s0,s0,-2017

0000000080002050 <i_1962>:
    80002050:	f4c12f03          	lw	t5,-180(sp)

0000000080002054 <i_1963>:
    80002054:	8e5f3c93          	sltiu	s9,t5,-1819

0000000080002058 <i_1964>:
    80002058:	028cc7b3          	div	a5,s9,s0

000000008000205c <i_1965>:
    8000205c:	0a813823          	sd	s0,176(sp)

0000000080002060 <i_1966>:
    80002060:	e3e12e23          	sw	t5,-452(sp)

0000000080002064 <i_1967>:
    80002064:	31f40a1b          	addiw	s4,s0,799

0000000080002068 <i_1968>:
    80002068:	03800d93          	li	s11,56

000000008000206c <i_1969>:
    8000206c:	41b3d6b3          	sra	a3,t2,s11

0000000080002070 <i_1970>:
    80002070:	00dd7f33          	and	t5,s10,a3

0000000080002074 <i_1971>:
    80002074:	4b2a3613          	sltiu	a2,s4,1202

0000000080002078 <i_1972>:
    80002078:	03b65063          	ble	s11,a2,80002098 <i_1980>

000000008000207c <i_1973>:
    8000207c:	0026d81b          	srliw	a6,a3,0x2

0000000080002080 <i_1974>:
    80002080:	13210723          	sb	s2,302(sp)

0000000080002084 <i_1975>:
    80002084:	0f813d83          	ld	s11,248(sp)

0000000080002088 <i_1976>:
    80002088:	00cdb3b3          	sltu	t2,s11,a2

000000008000208c <i_1977>:
    8000208c:	1ba15603          	lhu	a2,442(sp)

0000000080002090 <i_1978>:
    80002090:	00c3f633          	and	a2,t2,a2

0000000080002094 <i_1979>:
    80002094:	b2396397          	auipc	t2,0xb2396

0000000080002098 <i_1980>:
    80002098:	fe711a23          	sh	t2,-12(sp)

000000008000209c <i_1981>:
    8000209c:	aaf62193          	slti	gp,a2,-1361

00000000800020a0 <i_1982>:
    800020a0:	00b53533          	sltu	a0,a0,a1

00000000800020a4 <i_1983>:
    800020a4:	48e58393          	addi	t2,a1,1166 # 50c1b48e <main-0x2f3e4b72>

00000000800020a8 <i_1984>:
    800020a8:	09011503          	lh	a0,144(sp)

00000000800020ac <i_1985>:
    800020ac:	0271c063          	blt	gp,t2,800020cc <i_1993>

00000000800020b0 <i_1986>:
    800020b0:	d48b3b13          	sltiu	s6,s6,-696

00000000800020b4 <i_1987>:
    800020b4:	16013803          	ld	a6,352(sp)

00000000800020b8 <i_1988>:
    800020b8:	15310183          	lb	gp,339(sp)

00000000800020bc <i_1989>:
    800020bc:	ec711423          	sh	t2,-312(sp)

00000000800020c0 <i_1990>:
    800020c0:	01600313          	li	t1,22

00000000800020c4 <i_1991>:
    800020c4:	006393b3          	sll	t2,t2,t1

00000000800020c8 <i_1992>:
    800020c8:	01d00b13          	li	s6,29

00000000800020cc <i_1993>:
    800020cc:	016b5b3b          	srlw	s6,s6,s6

00000000800020d0 <i_1994>:
    800020d0:	006b5e63          	ble	t1,s6,800020ec <i_2001>

00000000800020d4 <i_1995>:
    800020d4:	e7612e23          	sw	s6,-388(sp)

00000000800020d8 <i_1996>:
    800020d8:	036b40b3          	div	ra,s6,s6

00000000800020dc <i_1997>:
    800020dc:	01db1663          	bne	s6,t4,800020e8 <i_2000>

00000000800020e0 <i_1998>:
    800020e0:	41630333          	sub	t1,t1,s6

00000000800020e4 <i_1999>:
    800020e4:	00d00313          	li	t1,13

00000000800020e8 <i_2000>:
    800020e8:	006412bb          	sllw	t0,s0,t1

00000000800020ec <i_2001>:
    800020ec:	07410423          	sb	s4,104(sp)

00000000800020f0 <i_2002>:
    800020f0:	03f35abb          	divuw	s5,t1,t6

00000000800020f4 <i_2003>:
    800020f4:	01f00a13          	li	s4,31

00000000800020f8 <i_2004>:
    800020f8:	014310bb          	sllw	ra,t1,s4

00000000800020fc <i_2005>:
    800020fc:	404a529b          	sraiw	t0,s4,0x4

0000000080002100 <i_2006>:
    80002100:	40528bb3          	sub	s7,t0,t0

0000000080002104 <i_2007>:
    80002104:	ec511a23          	sh	t0,-300(sp)

0000000080002108 <i_2008>:
    80002108:	0e510ca3          	sb	t0,249(sp)

000000008000210c <i_2009>:
    8000210c:	02508063          	beq	ra,t0,8000212c <i_2017>

0000000080002110 <i_2010>:
    80002110:	f1411e23          	sh	s4,-228(sp)

0000000080002114 <i_2011>:
    80002114:	8fa0e093          	ori	ra,ra,-1798

0000000080002118 <i_2012>:
    80002118:	e3812483          	lw	s1,-456(sp)

000000008000211c <i_2013>:
    8000211c:	ec814b83          	lbu	s7,-312(sp)

0000000080002120 <i_2014>:
    80002120:	01b00693          	li	a3,27

0000000080002124 <i_2015>:
    80002124:	00de92bb          	sllw	t0,t4,a3

0000000080002128 <i_2016>:
    80002128:	00700d93          	li	s11,7

000000008000212c <i_2017>:
    8000212c:	01b292bb          	sllw	t0,t0,s11

0000000080002130 <i_2018>:
    80002130:	02c69263          	bne	a3,a2,80002154 <i_2027>

0000000080002134 <i_2019>:
    80002134:	025df2b3          	remu	t0,s11,t0

0000000080002138 <i_2020>:
    80002138:	01d6f463          	bleu	t4,a3,80002140 <i_2022>

000000008000213c <i_2021>:
    8000213c:	f0812303          	lw	t1,-248(sp)

0000000080002140 <i_2022>:
    80002140:	fc416a83          	lwu	s5,-60(sp)

0000000080002144 <i_2023>:
    80002144:	a5e1be97          	auipc	t4,0xa5e1b

0000000080002148 <i_2024>:
    80002148:	026a9333          	mulh	t1,s5,t1

000000008000214c <i_2025>:
    8000214c:	0042929b          	slliw	t0,t0,0x4

0000000080002150 <i_2026>:
    80002150:	01b00293          	li	t0,27

0000000080002154 <i_2027>:
    80002154:	4052d33b          	sraw	t1,t0,t0

0000000080002158 <i_2028>:
    80002158:	0055de63          	ble	t0,a1,80002174 <i_2035>

000000008000215c <i_2029>:
    8000215c:	01de8a63          	beq	t4,t4,80002170 <i_2034>

0000000080002160 <i_2030>:
    80002160:	09510d83          	lb	s11,149(sp)

0000000080002164 <i_2031>:
    80002164:	00a00e93          	li	t4,10

0000000080002168 <i_2032>:
    80002168:	41dddebb          	sraw	t4,s11,t4

000000008000216c <i_2033>:
    8000216c:	fdd13023          	sd	t4,-64(sp)

0000000080002170 <i_2034>:
    80002170:	01b28bb3          	add	s7,t0,s11

0000000080002174 <i_2035>:
    80002174:	5d7bbe93          	sltiu	t4,s7,1495

0000000080002178 <i_2036>:
    80002178:	03c00793          	li	a5,60

000000008000217c <i_2037>:
    8000217c:	00fa90b3          	sll	ra,s5,a5

0000000080002180 <i_2038>:
    80002180:	03708bbb          	mulw	s7,ra,s7

0000000080002184 <i_2039>:
    80002184:	17016b83          	lwu	s7,368(sp)

0000000080002188 <i_2040>:
    80002188:	004b9b93          	slli	s7,s7,0x4

000000008000218c <i_2041>:
    8000218c:	017bfe63          	bleu	s7,s7,800021a8 <i_2048>

0000000080002190 <i_2042>:
    80002190:	fd816783          	lwu	a5,-40(sp)

0000000080002194 <i_2043>:
    80002194:	01733333          	sltu	t1,t1,s7

0000000080002198 <i_2044>:
    80002198:	03211b83          	lh	s7,50(sp)

000000008000219c <i_2045>:
    8000219c:	001bd313          	srli	t1,s7,0x1

00000000800021a0 <i_2046>:
    800021a0:	01730e63          	beq	t1,s7,800021bc <i_2053>

00000000800021a4 <i_2047>:
    800021a4:	00231e9b          	slliw	t4,t1,0x2

00000000800021a8 <i_2048>:
    800021a8:	04e37813          	andi	a6,t1,78

00000000800021ac <i_2049>:
    800021ac:	e7113823          	sd	a7,-400(sp)

00000000800021b0 <i_2050>:
    800021b0:	e1c11a03          	lh	s4,-484(sp)

00000000800021b4 <i_2051>:
    800021b4:	006eec63          	bltu	t4,t1,800021cc <i_2057>

00000000800021b8 <i_2052>:
    800021b8:	11013823          	sd	a6,272(sp)

00000000800021bc <i_2053>:
    800021bc:	15714e03          	lbu	t3,343(sp)

00000000800021c0 <i_2054>:
    800021c0:	578ce497          	auipc	s1,0x578ce

00000000800021c4 <i_2055>:
    800021c4:	03ccea3b          	remw	s4,s9,t3

00000000800021c8 <i_2056>:
    800021c8:	00300313          	li	t1,3

00000000800021cc <i_2057>:
    800021cc:	006a1cbb          	sllw	s9,s4,t1

00000000800021d0 <i_2058>:
    800021d0:	038c0c3b          	mulw	s8,s8,s8

00000000800021d4 <i_2059>:
    800021d4:	01dbd263          	ble	t4,s7,800021d8 <i_2060>

00000000800021d8 <i_2060>:
    800021d8:	00449793          	slli	a5,s1,0x4

00000000800021dc <i_2061>:
    800021dc:	1e612023          	sw	t1,480(sp)

00000000800021e0 <i_2062>:
    800021e0:	0028549b          	srliw	s1,a6,0x2

00000000800021e4 <i_2063>:
    800021e4:	006ee263          	bltu	t4,t1,800021e8 <i_2064>

00000000800021e8 <i_2064>:
    800021e8:	17912a23          	sw	s9,372(sp)

00000000800021ec <i_2065>:
    800021ec:	edd10423          	sb	t4,-312(sp)

00000000800021f0 <i_2066>:
    800021f0:	1dc13023          	sd	t3,448(sp)

00000000800021f4 <i_2067>:
    800021f4:	01c4f433          	and	s0,s1,t3

00000000800021f8 <i_2068>:
    800021f8:	028afabb          	remuw	s5,s5,s0

00000000800021fc <i_2069>:
    800021fc:	05615503          	lhu	a0,86(sp)

0000000080002200 <i_2070>:
    80002200:	f05101a3          	sb	t0,-253(sp)

0000000080002204 <i_2071>:
    80002204:	01c49463          	bne	s1,t3,8000220c <i_2073>

0000000080002208 <i_2072>:
    80002208:	03c7d7b3          	divu	a5,a5,t3

000000008000220c <i_2073>:
    8000220c:	12813823          	sd	s0,304(sp)

0000000080002210 <i_2074>:
    80002210:	0f910403          	lb	s0,249(sp)

0000000080002214 <i_2075>:
    80002214:	02f7c063          	blt	a5,a5,80002234 <i_2083>

0000000080002218 <i_2076>:
    80002218:	0aa11023          	sh	a0,160(sp)

000000008000221c <i_2077>:
    8000221c:	f2610a03          	lb	s4,-218(sp)

0000000080002220 <i_2078>:
    80002220:	54c03437          	lui	s0,0x54c03

0000000080002224 <i_2079>:
    80002224:	0286d6bb          	divuw	a3,a3,s0

0000000080002228 <i_2080>:
    80002228:	f0813503          	ld	a0,-248(sp)

000000008000222c <i_2081>:
    8000222c:	15813783          	ld	a5,344(sp)

0000000080002230 <i_2082>:
    80002230:	03813603          	ld	a2,56(sp)

0000000080002234 <i_2083>:
    80002234:	00d88c63          	beq	a7,a3,8000224c <i_2089>

0000000080002238 <i_2084>:
    80002238:	00000013          	nop

000000008000223c <i_2085>:
    8000223c:	01700613          	li	a2,23

0000000080002240 <i_2086>:
    80002240:	40ce5633          	sra	a2,t3,a2

0000000080002244 <i_2087>:
    80002244:	01100613          	li	a2,17

0000000080002248 <i_2088>:
    80002248:	40c652bb          	sraw	t0,a2,a2

000000008000224c <i_2089>:
    8000224c:	fe411023          	sh	tp,-32(sp)

0000000080002250 <i_2090>:
    80002250:	00000013          	nop

0000000080002254 <i_2091>:
    80002254:	75900793          	li	a5,1881

0000000080002258 <i_2092>:
    80002258:	76600213          	li	tp,1894

000000008000225c <i_2093>:
    8000225c:	00178793          	addi	a5,a5,1
    80002260:	fe47eee3          	bltu	a5,tp,8000225c <i_2093>

0000000080002264 <i_2094>:
    80002264:	00c60633          	add	a2,a2,a2

0000000080002268 <i_2095>:
    80002268:	0a411c23          	sh	tp,184(sp)

000000008000226c <i_2096>:
    8000226c:	e7f14d03          	lbu	s10,-385(sp)

0000000080002270 <i_2097>:
    80002270:	00400f13          	li	t5,4

0000000080002274 <i_2098>:
    80002274:	41e6563b          	sraw	a2,a2,t5

0000000080002278 <i_2099>:
    80002278:	00400c13          	li	s8,4

000000008000227c <i_2100>:
    8000227c:	018f1d33          	sll	s10,t5,s8

0000000080002280 <i_2101>:
    80002280:	0ec15603          	lhu	a2,236(sp)

0000000080002284 <i_2102>:
    80002284:	02cb7063          	bleu	a2,s6,800022a4 <i_2110>

0000000080002288 <i_2103>:
    80002288:	0ba13423          	sd	s10,168(sp)

000000008000228c <i_2104>:
    8000228c:	10c16603          	lwu	a2,268(sp)

0000000080002290 <i_2105>:
    80002290:	00c61c63          	bne	a2,a2,800022a8 <i_2111>

0000000080002294 <i_2106>:
    80002294:	e6016a83          	lwu	s5,-416(sp)

0000000080002298 <i_2107>:
    80002298:	402f509b          	sraiw	ra,t5,0x2

000000008000229c <i_2108>:
    8000229c:	f2416f03          	lwu	t5,-220(sp)

00000000800022a0 <i_2109>:
    800022a0:	ef910f03          	lb	t5,-263(sp)

00000000800022a4 <i_2110>:
    800022a4:	f2411e03          	lh	t3,-220(sp)

00000000800022a8 <i_2111>:
    800022a8:	001e1863          	bne	t3,ra,800022b8 <i_2115>

00000000800022ac <i_2112>:
    800022ac:	01c09663          	bne	ra,t3,800022b8 <i_2115>

00000000800022b0 <i_2113>:
    800022b0:	01c0be33          	sltu	t3,ra,t3

00000000800022b4 <i_2114>:
    800022b4:	e2013403          	ld	s0,-480(sp)

00000000800022b8 <i_2115>:
    800022b8:	19013423          	sd	a6,392(sp)

00000000800022bc <i_2116>:
    800022bc:	03ee0263          	beq	t3,t5,800022e0 <i_2125>

00000000800022c0 <i_2117>:
    800022c0:	0b010c83          	lb	s9,176(sp)

00000000800022c4 <i_2118>:
    800022c4:	0247863b          	mulw	a2,a5,tp

00000000800022c8 <i_2119>:
    800022c8:	f6611b83          	lh	s7,-154(sp)

00000000800022cc <i_2120>:
    800022cc:	02c15083          	lhu	ra,44(sp)

00000000800022d0 <i_2121>:
    800022d0:	03708bb3          	mul	s7,ra,s7

00000000800022d4 <i_2122>:
    800022d4:	037bebb3          	rem	s7,s7,s7

00000000800022d8 <i_2123>:
    800022d8:	404bde1b          	sraiw	t3,s7,0x4

00000000800022dc <i_2124>:
    800022dc:	0e813b03          	ld	s6,232(sp)

00000000800022e0 <i_2125>:
    800022e0:	03eb0433          	mul	s0,s6,t5

00000000800022e4 <i_2126>:
    800022e4:	ee211c03          	lh	s8,-286(sp)

00000000800022e8 <i_2127>:
    800022e8:	7d800f13          	li	t5,2008

00000000800022ec <i_2128>:
    800022ec:	7ea00993          	li	s3,2026

00000000800022f0 <i_2129>:
    800022f0:	f0112623          	sw	ra,-244(sp)

00000000800022f4 <i_2130>:
    800022f4:	0ac12083          	lw	ra,172(sp)

00000000800022f8 <i_2131>:
    800022f8:	038466b3          	rem	a3,s0,s8

00000000800022fc <i_2132>:
    800022fc:	001f0f13          	addi	t5,t5,1 # 644a5049 <main-0x1bb5afb7>
    80002300:	ff3f68e3          	bltu	t5,s3,800022f0 <i_2129>

0000000080002304 <i_2133>:
    80002304:	12411c03          	lh	s8,292(sp)

0000000080002308 <i_2134>:
    80002308:	01846a63          	bltu	s0,s8,8000231c <i_2139>

000000008000230c <i_2135>:
    8000230c:	0c3108a3          	sb	gp,209(sp)

0000000080002310 <i_2136>:
    80002310:	ed214683          	lbu	a3,-302(sp)

0000000080002314 <i_2137>:
    80002314:	c67b0c37          	lui	s8,0xc67b0

0000000080002318 <i_2138>:
    80002318:	418c0d33          	sub	s10,s8,s8

000000008000231c <i_2139>:
    8000231c:	18d11523          	sh	a3,394(sp)

0000000080002320 <i_2140>:
    80002320:	05410483          	lb	s1,84(sp)

0000000080002324 <i_2141>:
    80002324:	fa013683          	ld	a3,-96(sp)

0000000080002328 <i_2142>:
    80002328:	0299fa3b          	remuw	s4,s3,s1

000000008000232c <i_2143>:
    8000232c:	00d4e463          	bltu	s1,a3,80002334 <i_2145>

0000000080002330 <i_2144>:
    80002330:	ec913423          	sd	s1,-312(sp)

0000000080002334 <i_2145>:
    80002334:	00d3e263          	bltu	t2,a3,80002338 <i_2146>

0000000080002338 <i_2146>:
    80002338:	1d411183          	lh	gp,468(sp)

000000008000233c <i_2147>:
    8000233c:	009a7e63          	bleu	s1,s4,80002358 <i_2154>

0000000080002340 <i_2148>:
    80002340:	0154d463          	ble	s5,s1,80002348 <i_2150>

0000000080002344 <i_2149>:
    80002344:	0024c6b3          	xor	a3,s1,sp

0000000080002348 <i_2150>:
    80002348:	03000693          	li	a3,48

000000008000234c <i_2151>:
    8000234c:	00d7d4b3          	srl	s1,a5,a3

0000000080002350 <i_2152>:
    80002350:	04012e83          	lw	t4,64(sp)

0000000080002354 <i_2153>:
    80002354:	0327c7b3          	div	a5,a5,s2

0000000080002358 <i_2154>:
    80002358:	4c96f293          	andi	t0,a3,1225

000000008000235c <i_2155>:
    8000235c:	00000013          	nop

0000000080002360 <i_2156>:
    80002360:	78800b13          	li	s6,1928

0000000080002364 <i_2157>:
    80002364:	78f00513          	li	a0,1935

0000000080002368 <i_2158>:
    80002368:	00f7f263          	bleu	a5,a5,8000236c <i_2159>

000000008000236c <i_2159>:
    8000236c:	1a416203          	lwu	tp,420(sp)

0000000080002370 <i_2160>:
    80002370:	0016d81b          	srliw	a6,a3,0x1

0000000080002374 <i_2161>:
    80002374:	e3412e03          	lw	t3,-460(sp)

0000000080002378 <i_2162>:
    80002378:	001b0b13          	addi	s6,s6,1 # 7f476001 <main-0xb89fff>
    8000237c:	ff6576e3          	bleu	s6,a0,80002368 <i_2158>

0000000080002380 <i_2163>:
    80002380:	02500693          	li	a3,37

0000000080002384 <i_2164>:
    80002384:	00de9233          	sll	tp,t4,a3

0000000080002388 <i_2165>:
    80002388:	02d696b3          	mulh	a3,a3,a3

000000008000238c <i_2166>:
    8000238c:	00de8a33          	add	s4,t4,a3

0000000080002390 <i_2167>:
    80002390:	fbc15a03          	lhu	s4,-68(sp)

0000000080002394 <i_2168>:
    80002394:	85d00e93          	li	t4,-1955

0000000080002398 <i_2169>:
    80002398:	86c00693          	li	a3,-1940

000000008000239c <i_2170>:
    8000239c:	03420a33          	mul	s4,tp,s4

00000000800023a0 <i_2171>:
    800023a0:	00000013          	nop

00000000800023a4 <i_2172>:
    800023a4:	001e8e93          	addi	t4,t4,1 # 25e1d145 <main-0x5a1e2ebb>
    800023a8:	fedeeae3          	bltu	t4,a3,8000239c <i_2170>

00000000800023ac <i_2173>:
    800023ac:	00000013          	nop

00000000800023b0 <i_2174>:
    800023b0:	f6510ca3          	sb	t0,-135(sp)

00000000800023b4 <i_2175>:
    800023b4:	87e00a13          	li	s4,-1922

00000000800023b8 <i_2176>:
    800023b8:	88800293          	li	t0,-1912

00000000800023bc <i_2177>:
    800023bc:	f1210e83          	lb	t4,-238(sp)

00000000800023c0 <i_2178>:
    800023c0:	025a7063          	bleu	t0,s4,800023e0 <i_2186>

00000000800023c4 <i_2179>:
    800023c4:	0252cdb3          	div	s11,t0,t0

00000000800023c8 <i_2180>:
    800023c8:	41da0eb3          	sub	t4,s4,t4

00000000800023cc <i_2181>:
    800023cc:	034dc3bb          	divw	t2,s11,s4

00000000800023d0 <i_2182>:
    800023d0:	001e9e9b          	slliw	t4,t4,0x1

00000000800023d4 <i_2183>:
    800023d4:	0043999b          	slliw	s3,t2,0x4

00000000800023d8 <i_2184>:
    800023d8:	1a816683          	lwu	a3,424(sp)

00000000800023dc <i_2185>:
    800023dc:	10813c03          	ld	s8,264(sp)

00000000800023e0 <i_2186>:
    800023e0:	03100d93          	li	s11,49

00000000800023e4 <i_2187>:
    800023e4:	01bc53b3          	srl	t2,s8,s11

00000000800023e8 <i_2188>:
    800023e8:	e8c15683          	lhu	a3,-372(sp)

00000000800023ec <i_2189>:
    800023ec:	01c00d93          	li	s11,28

00000000800023f0 <i_2190>:
    800023f0:	01bb55bb          	srlw	a1,s6,s11

00000000800023f4 <i_2191>:
    800023f4:	001a0a13          	addi	s4,s4,1
    800023f8:	fc5a62e3          	bltu	s4,t0,800023bc <i_2177>

00000000800023fc <i_2192>:
    800023fc:	41db0b3b          	subw	s6,s6,t4

0000000080002400 <i_2193>:
    80002400:	02ba89bb          	mulw	s3,s5,a1

0000000080002404 <i_2194>:
    80002404:	00000013          	nop

0000000080002408 <i_2195>:
    80002408:	fa815e03          	lhu	t3,-88(sp)

000000008000240c <i_2196>:
    8000240c:	78600513          	li	a0,1926

0000000080002410 <i_2197>:
    80002410:	79400d13          	li	s10,1940

0000000080002414 <i_2198>:
    80002414:	01c9e463          	bltu	s3,t3,8000241c <i_2200>

0000000080002418 <i_2199>:
    80002418:	0015da1b          	srliw	s4,a1,0x1

000000008000241c <i_2200>:
    8000241c:	01612e23          	sw	s6,28(sp)

0000000080002420 <i_2201>:
    80002420:	036a79bb          	remuw	s3,s4,s6

0000000080002424 <i_2202>:
    80002424:	fae15e03          	lhu	t3,-82(sp)

0000000080002428 <i_2203>:
    80002428:	ebc12423          	sw	t3,-344(sp)

000000008000242c <i_2204>:
    8000242c:	3bec5c17          	auipc	s8,0x3bec5

0000000080002430 <i_2205>:
    80002430:	00150513          	addi	a0,a0,1
    80002434:	fead70e3          	bleu	a0,s10,80002414 <i_2198>

0000000080002438 <i_2206>:
    80002438:	013e7e33          	and	t3,t3,s3

000000008000243c <i_2207>:
    8000243c:	e2cd2597          	auipc	a1,0xe2cd2

0000000080002440 <i_2208>:
    80002440:	ecc16983          	lwu	s3,-308(sp)

0000000080002444 <i_2209>:
    80002444:	18812e03          	lw	t3,392(sp)

0000000080002448 <i_2210>:
    80002448:	04215e03          	lhu	t3,66(sp)

000000008000244c <i_2211>:
    8000244c:	03a9c463          	blt	s3,s10,80002474 <i_2221>

0000000080002450 <i_2212>:
    80002450:	00ae4a63          	blt	t3,a0,80002464 <i_2217>

0000000080002454 <i_2213>:
    80002454:	fce15503          	lhu	a0,-50(sp)

0000000080002458 <i_2214>:
    80002458:	15e15d03          	lhu	s10,350(sp)

000000008000245c <i_2215>:
    8000245c:	00ae3d33          	sltu	s10,t3,a0

0000000080002460 <i_2216>:
    80002460:	f3a13823          	sd	s10,-208(sp)

0000000080002464 <i_2217>:
    80002464:	012e0e63          	beq	t3,s2,80002480 <i_2224>

0000000080002468 <i_2218>:
    80002468:	03ae7d3b          	remuw	s10,t3,s10

000000008000246c <i_2219>:
    8000246c:	00957463          	bleu	s1,a0,80002474 <i_2221>

0000000080002470 <i_2220>:
    80002470:	010d0833          	add	a6,s10,a6

0000000080002474 <i_2221>:
    80002474:	05c10fa3          	sb	t3,95(sp)

0000000080002478 <i_2222>:
    80002478:	00000013          	nop

000000008000247c <i_2223>:
    8000247c:	13e15283          	lhu	t0,318(sp)

0000000080002480 <i_2224>:
    80002480:	017bce33          	xor	t3,s7,s7

0000000080002484 <i_2225>:
    80002484:	00000013          	nop

0000000080002488 <i_2226>:
    80002488:	8a700513          	li	a0,-1881

000000008000248c <i_2227>:
    8000248c:	8ab00b93          	li	s7,-1877

0000000080002490 <i_2228>:
    80002490:	417b82b3          	sub	t0,s7,s7

0000000080002494 <i_2229>:
    80002494:	19416283          	lwu	t0,404(sp)

0000000080002498 <i_2230>:
    80002498:	0052c463          	blt	t0,t0,800024a0 <i_2232>

000000008000249c <i_2231>:
    8000249c:	f7c12183          	lw	gp,-132(sp)

00000000800024a0 <i_2232>:
    800024a0:	0ec12e83          	lw	t4,236(sp)

00000000800024a4 <i_2233>:
    800024a4:	eb011283          	lh	t0,-336(sp)

00000000800024a8 <i_2234>:
    800024a8:	00150513          	addi	a0,a0,1
    800024ac:	feab92e3          	bne	s7,a0,80002490 <i_2228>

00000000800024b0 <i_2235>:
    800024b0:	17c12e03          	lw	t3,380(sp)

00000000800024b4 <i_2236>:
    800024b4:	f4513023          	sd	t0,-192(sp)

00000000800024b8 <i_2237>:
    800024b8:	03d18463          	beq	gp,t4,800024e0 <i_2247>

00000000800024bc <i_2238>:
    800024bc:	03dee063          	bltu	t4,t4,800024dc <i_2246>

00000000800024c0 <i_2239>:
    800024c0:	13814e83          	lbu	t4,312(sp)

00000000800024c4 <i_2240>:
    800024c4:	03ce7063          	bleu	t3,t3,800024e4 <i_2248>

00000000800024c8 <i_2241>:
    800024c8:	03d2bb33          	mulhu	s6,t0,t4

00000000800024cc <i_2242>:
    800024cc:	01b00b93          	li	s7,27

00000000800024d0 <i_2243>:
    800024d0:	017b5b33          	srl	s6,s6,s7

00000000800024d4 <i_2244>:
    800024d4:	017b5e63          	ble	s7,s6,800024f0 <i_2251>

00000000800024d8 <i_2245>:
    800024d8:	01de6e63          	bltu	t3,t4,800024f4 <i_2252>

00000000800024dc <i_2246>:
    800024dc:	05d14283          	lbu	t0,93(sp)

00000000800024e0 <i_2247>:
    800024e0:	017bebb3          	or	s7,s7,s7

00000000800024e4 <i_2248>:
    800024e4:	02d5e5bb          	remw	a1,a1,a3

00000000800024e8 <i_2249>:
    800024e8:	0254c4b3          	div	s1,s1,t0

00000000800024ec <i_2250>:
    800024ec:	fd812183          	lw	gp,-40(sp)

00000000800024f0 <i_2251>:
    800024f0:	10911a23          	sh	s1,276(sp)

00000000800024f4 <i_2252>:
    800024f4:	00000013          	nop

00000000800024f8 <i_2253>:
    800024f8:	022d6d3b          	remw	s10,s10,sp

00000000800024fc <i_2254>:
    800024fc:	73c00f13          	li	t5,1852

0000000080002500 <i_2255>:
    80002500:	74300693          	li	a3,1859

0000000080002504 <i_2256>:
    80002504:	f1114c83          	lbu	s9,-239(sp)

0000000080002508 <i_2257>:
    80002508:	01a473b3          	and	t2,s0,s10

000000008000250c <i_2258>:
    8000250c:	0ce11483          	lh	s1,206(sp)

0000000080002510 <i_2259>:
    80002510:	11012c03          	lw	s8,272(sp)

0000000080002514 <i_2260>:
    80002514:	00000013          	nop

0000000080002518 <i_2261>:
    80002518:	001f0f13          	addi	t5,t5,1
    8000251c:	fedf14e3          	bne	t5,a3,80002504 <i_2256>

0000000080002520 <i_2262>:
    80002520:	15711023          	sh	s7,320(sp)

0000000080002524 <i_2263>:
    80002524:	1e012983          	lw	s3,480(sp)

0000000080002528 <i_2264>:
    80002528:	004b9663          	bne	s7,tp,80002534 <i_2267>

000000008000252c <i_2265>:
    8000252c:	0d96d2b7          	lui	t0,0xd96d

0000000080002530 <i_2266>:
    80002530:	fc010583          	lb	a1,-64(sp)

0000000080002534 <i_2267>:
    80002534:	01948e63          	beq	s1,s9,80002550 <i_2274>

0000000080002538 <i_2268>:
    80002538:	e37108a3          	sb	s7,-463(sp)

000000008000253c <i_2269>:
    8000253c:	01a6dc63          	ble	s10,a3,80002554 <i_2275>

0000000080002540 <i_2270>:
    80002540:	01ad1463          	bne	s10,s10,80002548 <i_2272>

0000000080002544 <i_2271>:
    80002544:	0252d6bb          	divuw	a3,t0,t0

0000000080002548 <i_2272>:
    80002548:	4046de1b          	sraiw	t3,a3,0x4

000000008000254c <i_2273>:
    8000254c:	00d5d863          	ble	a3,a1,8000255c <i_2277>

0000000080002550 <i_2274>:
    80002550:	4032df13          	srai	t5,t0,0x3

0000000080002554 <i_2275>:
    80002554:	f3e11283          	lh	t0,-194(sp)

0000000080002558 <i_2276>:
    80002558:	1bc15483          	lhu	s1,444(sp)

000000008000255c <i_2277>:
    8000255c:	0336debb          	divuw	t4,a3,s3

0000000080002560 <i_2278>:
    80002560:	00015383          	lhu	t2,0(sp)

0000000080002564 <i_2279>:
    80002564:	00e2f263          	bleu	a4,t0,80002568 <i_2280>

0000000080002568 <i_2280>:
    80002568:	d53655b7          	lui	a1,0xd5365

000000008000256c <i_2281>:
    8000256c:	14b13c23          	sd	a1,344(sp)

0000000080002570 <i_2282>:
    80002570:	05d10723          	sb	t4,78(sp)

0000000080002574 <i_2283>:
    80002574:	03c693b3          	mulh	t2,a3,t3

0000000080002578 <i_2284>:
    80002578:	cbf4c613          	xori	a2,s1,-833

000000008000257c <i_2285>:
    8000257c:	009d6633          	or	a2,s10,s1

0000000080002580 <i_2286>:
    80002580:	e4d11423          	sh	a3,-440(sp)

0000000080002584 <i_2287>:
    80002584:	1a015483          	lhu	s1,416(sp)

0000000080002588 <i_2288>:
    80002588:	00d6b6b3          	sltu	a3,a3,a3

000000008000258c <i_2289>:
    8000258c:	00200c93          	li	s9,2

0000000080002590 <i_2290>:
    80002590:	019696b3          	sll	a3,a3,s9

0000000080002594 <i_2291>:
    80002594:	81100493          	li	s1,-2031

0000000080002598 <i_2292>:
    80002598:	82300e93          	li	t4,-2013

000000008000259c <i_2293>:
    8000259c:	a4fee993          	ori	s3,t4,-1457

00000000800025a0 <i_2294>:
    800025a0:	1c013203          	ld	tp,448(sp)

00000000800025a4 <i_2295>:
    800025a4:	409080bb          	subw	ra,ra,s1

00000000800025a8 <i_2296>:
    800025a8:	17016983          	lwu	s3,368(sp)

00000000800025ac <i_2297>:
    800025ac:	fc811083          	lh	ra,-56(sp)

00000000800025b0 <i_2298>:
    800025b0:	00b00d93          	li	s11,11

00000000800025b4 <i_2299>:
    800025b4:	41b0d0b3          	sra	ra,ra,s11

00000000800025b8 <i_2300>:
    800025b8:	782cf693          	andi	a3,s9,1922

00000000800025bc <i_2301>:
    800025bc:	ef814383          	lbu	t2,-264(sp)

00000000800025c0 <i_2302>:
    800025c0:	f8016b03          	lwu	s6,-128(sp)

00000000800025c4 <i_2303>:
    800025c4:	0136e663          	bltu	a3,s3,800025d0 <i_2306>

00000000800025c8 <i_2304>:
    800025c8:	00000013          	nop

00000000800025cc <i_2305>:
    800025cc:	00000013          	nop

00000000800025d0 <i_2306>:
    800025d0:	0270e0bb          	remw	ra,ra,t2

00000000800025d4 <i_2307>:
    800025d4:	04c16583          	lwu	a1,76(sp)

00000000800025d8 <i_2308>:
    800025d8:	00148493          	addi	s1,s1,1 # d78d01c1 <_end+0x578bfdad>
    800025dc:	fa9e9ee3          	bne	t4,s1,80002598 <i_2292>

00000000800025e0 <i_2309>:
    800025e0:	021350b3          	divu	ra,t1,ra

00000000800025e4 <i_2310>:
    800025e4:	12813083          	ld	ra,296(sp)

00000000800025e8 <i_2311>:
    800025e8:	021b8463          	beq	s7,ra,80002610 <i_2321>

00000000800025ec <i_2312>:
    800025ec:	f4814a83          	lbu	s5,-184(sp)

00000000800025f0 <i_2313>:
    800025f0:	021080bb          	mulw	ra,ra,ra

00000000800025f4 <i_2314>:
    800025f4:	e8c11083          	lh	ra,-372(sp)

00000000800025f8 <i_2315>:
    800025f8:	03509463          	bne	ra,s5,80002620 <i_2325>

00000000800025fc <i_2316>:
    800025fc:	001ad663          	ble	ra,s5,80002608 <i_2319>

0000000080002600 <i_2317>:
    80002600:	e2a15203          	lhu	tp,-470(sp)

0000000080002604 <i_2318>:
    80002604:	00000013          	nop

0000000080002608 <i_2319>:
    80002608:	e7a10623          	sb	s10,-404(sp)

000000008000260c <i_2320>:
    8000260c:	18f13c23          	sd	a5,408(sp)

0000000080002610 <i_2321>:
    80002610:	01b11823          	sh	s11,16(sp)

0000000080002614 <i_2322>:
    80002614:	1d013583          	ld	a1,464(sp)

0000000080002618 <i_2323>:
    80002618:	00000013          	nop

000000008000261c <i_2324>:
    8000261c:	00000013          	nop

0000000080002620 <i_2325>:
    80002620:	03872833          	mulhsu	a6,a4,s8

0000000080002624 <i_2326>:
    80002624:	00000013          	nop

0000000080002628 <i_2327>:
    80002628:	75000293          	li	t0,1872

000000008000262c <i_2328>:
    8000262c:	76000d13          	li	s10,1888

0000000080002630 <i_2329>:
    80002630:	06813e83          	ld	t4,104(sp)

0000000080002634 <i_2330>:
    80002634:	00229d9b          	slliw	s11,t0,0x2

0000000080002638 <i_2331>:
    80002638:	00000013          	nop

000000008000263c <i_2332>:
    8000263c:	10211e83          	lh	t4,258(sp)

0000000080002640 <i_2333>:
    80002640:	00000013          	nop

0000000080002644 <i_2334>:
    80002644:	909dbc93          	sltiu	s9,s11,-1783

0000000080002648 <i_2335>:
    80002648:	11816503          	lwu	a0,280(sp)

000000008000264c <i_2336>:
    8000264c:	0b815d83          	lhu	s11,184(sp)

0000000080002650 <i_2337>:
    80002650:	00128293          	addi	t0,t0,1 # d96d001 <main-0x72692fff>
    80002654:	fc5d5ee3          	ble	t0,s10,80002630 <i_2329>

0000000080002658 <i_2338>:
    80002658:	039df463          	bleu	s9,s11,80002680 <i_2348>

000000008000265c <i_2339>:
    8000265c:	07c10823          	sb	t3,112(sp)

0000000080002660 <i_2340>:
    80002660:	04813d83          	ld	s11,72(sp)

0000000080002664 <i_2341>:
    80002664:	0360c463          	blt	ra,s6,8000268c <i_2351>

0000000080002668 <i_2342>:
    80002668:	c190fb13          	andi	s6,ra,-999

000000008000266c <i_2343>:
    8000266c:	f1611923          	sh	s6,-238(sp)

0000000080002670 <i_2344>:
    80002670:	002dd263          	ble	sp,s11,80002674 <i_2345>

0000000080002674 <i_2345>:
    80002674:	01b0ee63          	bltu	ra,s11,80002690 <i_2352>

0000000080002678 <i_2346>:
    80002678:	19611223          	sh	s6,388(sp)

000000008000267c <i_2347>:
    8000267c:	f6211803          	lh	a6,-158(sp)

0000000080002680 <i_2348>:
    80002680:	1c813023          	sd	s0,448(sp)

0000000080002684 <i_2349>:
    80002684:	00000013          	nop

0000000080002688 <i_2350>:
    80002688:	f1012483          	lw	s1,-240(sp)

000000008000268c <i_2351>:
    8000268c:	f4912823          	sw	s1,-176(sp)

0000000080002690 <i_2352>:
    80002690:	0304c23b          	divw	tp,s1,a6

0000000080002694 <i_2353>:
    80002694:	ed813823          	sd	s8,-304(sp)

0000000080002698 <i_2354>:
    80002698:	83800d93          	li	s11,-1992

000000008000269c <i_2355>:
    8000269c:	83c00413          	li	s0,-1988

00000000800026a0 <i_2356>:
    800026a0:	f8314483          	lbu	s1,-125(sp)

00000000800026a4 <i_2357>:
    800026a4:	03c12a83          	lw	s5,60(sp)

00000000800026a8 <i_2358>:
    800026a8:	fee11803          	lh	a6,-18(sp)

00000000800026ac <i_2359>:
    800026ac:	015afc33          	and	s8,s5,s5

00000000800026b0 <i_2360>:
    800026b0:	01bbc463          	blt	s7,s11,800026b8 <i_2362>

00000000800026b4 <i_2361>:
    800026b4:	fec11a83          	lh	s5,-20(sp)

00000000800026b8 <i_2362>:
    800026b8:	0dd14583          	lbu	a1,221(sp)

00000000800026bc <i_2363>:
    800026bc:	0b013823          	sd	a6,176(sp)

00000000800026c0 <i_2364>:
    800026c0:	e9810f23          	sb	s8,-354(sp)

00000000800026c4 <i_2365>:
    800026c4:	01487a63          	bleu	s4,a6,800026d8 <i_2369>

00000000800026c8 <i_2366>:
    800026c8:	001d8d93          	addi	s11,s11,1
    800026cc:	fc8dcae3          	blt	s11,s0,800026a0 <i_2356>

00000000800026d0 <i_2367>:
    800026d0:	01d00813          	li	a6,29

00000000800026d4 <i_2368>:
    800026d4:	010a9c3b          	sllw	s8,s5,a6

00000000800026d8 <i_2369>:
    800026d8:	10011803          	lh	a6,256(sp)

00000000800026dc <i_2370>:
    800026dc:	903f2f13          	slti	t5,t5,-1789

00000000800026e0 <i_2371>:
    800026e0:	038f4263          	blt	t5,s8,80002704 <i_2380>

00000000800026e4 <i_2372>:
    800026e4:	03087063          	bleu	a6,a6,80002704 <i_2380>

00000000800026e8 <i_2373>:
    800026e8:	018c1863          	bne	s8,s8,800026f8 <i_2377>

00000000800026ec <i_2374>:
    800026ec:	010f5e63          	ble	a6,t5,80002708 <i_2381>

00000000800026f0 <i_2375>:
    800026f0:	01e86263          	bltu	a6,t5,800026f4 <i_2376>

00000000800026f4 <i_2376>:
    800026f4:	00000013          	nop

00000000800026f8 <i_2377>:
    800026f8:	02c85633          	divu	a2,a6,a2

00000000800026fc <i_2378>:
    800026fc:	005607b3          	add	a5,a2,t0

0000000080002700 <i_2379>:
    80002700:	1bb14183          	lbu	gp,443(sp)

0000000080002704 <i_2380>:
    80002704:	00000013          	nop

0000000080002708 <i_2381>:
    80002708:	1b810183          	lb	gp,440(sp)

000000008000270c <i_2382>:
    8000270c:	00f9ea33          	or	s4,s3,a5

0000000080002710 <i_2383>:
    80002710:	7e400493          	li	s1,2020

0000000080002714 <i_2384>:
    80002714:	7ef00813          	li	a6,2031

0000000080002718 <i_2385>:
    80002718:	03847433          	remu	s0,s0,s8

000000008000271c <i_2386>:
    8000271c:	e7114d83          	lbu	s11,-399(sp)

0000000080002720 <i_2387>:
    80002720:	00000013          	nop

0000000080002724 <i_2388>:
    80002724:	8c758c17          	auipc	s8,0x8c758

0000000080002728 <i_2389>:
    80002728:	01bc7db3          	and	s11,s8,s11

000000008000272c <i_2390>:
    8000272c:	01047663          	bleu	a6,s0,80002738 <i_2393>

0000000080002730 <i_2391>:
    80002730:	f1a14c03          	lbu	s8,-230(sp)

0000000080002734 <i_2392>:
    80002734:	e6e10d03          	lb	s10,-402(sp)

0000000080002738 <i_2393>:
    80002738:	12710c03          	lb	s8,295(sp)

000000008000273c <i_2394>:
    8000273c:	018c5c63          	ble	s8,s8,80002754 <i_2399>

0000000080002740 <i_2395>:
    80002740:	00148493          	addi	s1,s1,1
    80002744:	fd04cae3          	blt	s1,a6,80002718 <i_2385>

0000000080002748 <i_2396>:
    80002748:	017b8bb3          	add	s7,s7,s7

000000008000274c <i_2397>:
    8000274c:	016bcb33          	xor	s6,s7,s6

0000000080002750 <i_2398>:
    80002750:	f7c16c03          	lwu	s8,-132(sp)

0000000080002754 <i_2399>:
    80002754:	1d3b4093          	xori	ra,s6,467

0000000080002758 <i_2400>:
    80002758:	13613423          	sd	s6,296(sp)

000000008000275c <i_2401>:
    8000275c:	b40b6313          	ori	t1,s6,-1216

0000000080002760 <i_2402>:
    80002760:	021c65b3          	rem	a1,s8,ra

0000000080002764 <i_2403>:
    80002764:	eda15d03          	lhu	s10,-294(sp)

0000000080002768 <i_2404>:
    80002768:	02bd75b3          	remu	a1,s10,a1

000000008000276c <i_2405>:
    8000276c:	02bc5463          	ble	a1,s8,80002794 <i_2415>

0000000080002770 <i_2406>:
    80002770:	01ad1a63          	bne	s10,s10,80002784 <i_2411>

0000000080002774 <i_2407>:
    80002774:	0014ce63          	blt	s1,ra,80002790 <i_2414>

0000000080002778 <i_2408>:
    80002778:	00812d03          	lw	s10,8(sp)

000000008000277c <i_2409>:
    8000277c:	0cc10183          	lb	gp,204(sp)

0000000080002780 <i_2410>:
    80002780:	01ad32b3          	sltu	t0,s10,s10

0000000080002784 <i_2411>:
    80002784:	00b0f463          	bleu	a1,ra,8000278c <i_2413>

0000000080002788 <i_2412>:
    80002788:	02012d03          	lw	s10,32(sp)

000000008000278c <i_2413>:
    8000278c:	e0611d23          	sh	t1,-486(sp)

0000000080002790 <i_2414>:
    80002790:	01a1c663          	blt	gp,s10,8000279c <i_2417>

0000000080002794 <i_2415>:
    80002794:	02b5eebb          	remw	t4,a1,a1

0000000080002798 <i_2416>:
    80002798:	01c00d13          	li	s10,28

000000008000279c <i_2417>:
    8000279c:	01ad5a3b          	srlw	s4,s10,s10

00000000800027a0 <i_2418>:
    800027a0:	719c2b97          	auipc	s7,0x719c2

00000000800027a4 <i_2419>:
    800027a4:	01ad4d33          	xor	s10,s10,s10

00000000800027a8 <i_2420>:
    800027a8:	75900d93          	li	s11,1881

00000000800027ac <i_2421>:
    800027ac:	76500593          	li	a1,1893

00000000800027b0 <i_2422>:
    800027b0:	01118333          	add	t1,gp,a7

00000000800027b4 <i_2423>:
    800027b4:	08c12b83          	lw	s7,140(sp)

00000000800027b8 <i_2424>:
    800027b8:	017b8233          	add	tp,s7,s7

00000000800027bc <i_2425>:
    800027bc:	005e6263          	bltu	t3,t0,800027c0 <i_2426>

00000000800027c0 <i_2426>:
    800027c0:	01a26263          	bltu	tp,s10,800027c4 <i_2427>

00000000800027c4 <i_2427>:
    800027c4:	02bb89b3          	mul	s3,s7,a1

00000000800027c8 <i_2428>:
    800027c8:	013a8d33          	add	s10,s5,s3

00000000800027cc <i_2429>:
    800027cc:	001d8d93          	addi	s11,s11,1
    800027d0:	febd90e3          	bne	s11,a1,800027b0 <i_2422>

00000000800027d4 <i_2430>:
    800027d4:	e5012983          	lw	s3,-432(sp)

00000000800027d8 <i_2431>:
    800027d8:	f1611503          	lh	a0,-234(sp)

00000000800027dc <i_2432>:
    800027dc:	11514283          	lbu	t0,277(sp)

00000000800027e0 <i_2433>:
    800027e0:	01b00993          	li	s3,27

00000000800027e4 <i_2434>:
    800027e4:	013d59bb          	srlw	s3,s10,s3

00000000800027e8 <i_2435>:
    800027e8:	2819eb13          	ori	s6,s3,641

00000000800027ec <i_2436>:
    800027ec:	00cd0463          	beq	s10,a2,800027f4 <i_2438>

00000000800027f0 <i_2437>:
    800027f0:	005fce63          	blt	t6,t0,8000280c <i_2444>

00000000800027f4 <i_2438>:
    800027f4:	01a85863          	ble	s10,a6,80002804 <i_2442>

00000000800027f8 <i_2439>:
    800027f8:	f2411223          	sh	tp,-220(sp)

00000000800027fc <i_2440>:
    800027fc:	e4813483          	ld	s1,-440(sp)

0000000080002800 <i_2441>:
    80002800:	03900493          	li	s1,57

0000000080002804 <i_2442>:
    80002804:	009499b3          	sll	s3,s1,s1

0000000080002808 <i_2443>:
    80002808:	ed013503          	ld	a0,-304(sp)

000000008000280c <i_2444>:
    8000280c:	03154463          	blt	a0,a7,80002834 <i_2454>

0000000080002810 <i_2445>:
    80002810:	1cc12623          	sw	a2,460(sp)

0000000080002814 <i_2446>:
    80002814:	fda15603          	lhu	a2,-38(sp)

0000000080002818 <i_2447>:
    80002818:	56863c93          	sltiu	s9,a2,1384

000000008000281c <i_2448>:
    8000281c:	eb9100a3          	sb	s9,-351(sp)

0000000080002820 <i_2449>:
    80002820:	12815083          	lhu	ra,296(sp)

0000000080002824 <i_2450>:
    80002824:	f2a13023          	sd	a0,-224(sp)

0000000080002828 <i_2451>:
    80002828:	14012f03          	lw	t5,320(sp)

000000008000282c <i_2452>:
    8000282c:	16013e83          	ld	t4,352(sp)

0000000080002830 <i_2453>:
    80002830:	00000013          	nop

0000000080002834 <i_2454>:
    80002834:	ed112e23          	sw	a7,-292(sp)

0000000080002838 <i_2455>:
    80002838:	1c110b03          	lb	s6,449(sp)

000000008000283c <i_2456>:
    8000283c:	76600813          	li	a6,1894

0000000080002840 <i_2457>:
    80002840:	77800a93          	li	s5,1912

0000000080002844 <i_2458>:
    80002844:	01960263          	beq	a2,s9,80002848 <i_2459>

0000000080002848 <i_2459>:
    80002848:	19813b03          	ld	s6,408(sp)

000000008000284c <i_2460>:
    8000284c:	ed016083          	lwu	ra,-304(sp)

0000000080002850 <i_2461>:
    80002850:	fac16e83          	lwu	t4,-84(sp)

0000000080002854 <i_2462>:
    80002854:	00180813          	addi	a6,a6,1
    80002858:	ff0af6e3          	bleu	a6,s5,80002844 <i_2458>

000000008000285c <i_2463>:
    8000285c:	03def263          	bleu	t4,t4,80002880 <i_2472>

0000000080002860 <i_2464>:
    80002860:	03d570b3          	remu	ra,a0,t4

0000000080002864 <i_2465>:
    80002864:	01d57b33          	and	s6,a0,t4

0000000080002868 <i_2466>:
    80002868:	00100b13          	li	s6,1

000000008000286c <i_2467>:
    8000286c:	016b50b3          	srl	ra,s6,s6

0000000080002870 <i_2468>:
    80002870:	00000013          	nop

0000000080002874 <i_2469>:
    80002874:	0260cb3b          	divw	s6,ra,t1

0000000080002878 <i_2470>:
    80002878:	00000013          	nop

000000008000287c <i_2471>:
    8000287c:	18a11d83          	lh	s11,394(sp)

0000000080002880 <i_2472>:
    80002880:	04813603          	ld	a2,72(sp)

0000000080002884 <i_2473>:
    80002884:	fcc12083          	lw	ra,-52(sp)

0000000080002888 <i_2474>:
    80002888:	87f00e93          	li	t4,-1921

000000008000288c <i_2475>:
    8000288c:	88a00513          	li	a0,-1910

0000000080002890 <i_2476>:
    80002890:	02c66263          	bltu	a2,a2,800028b4 <i_2484>

0000000080002894 <i_2477>:
    80002894:	40b08c33          	sub	s8,ra,a1

0000000080002898 <i_2478>:
    80002898:	15b11923          	sh	s11,338(sp)

000000008000289c <i_2479>:
    8000289c:	018c3db3          	sltu	s11,s8,s8

00000000800028a0 <i_2480>:
    800028a0:	03b3d263          	ble	s11,t2,800028c4 <i_2488>

00000000800028a4 <i_2481>:
    800028a4:	001e8e93          	addi	t4,t4,1
    800028a8:	feaec4e3          	blt	t4,a0,80002890 <i_2476>

00000000800028ac <i_2482>:
    800028ac:	fd310e03          	lb	t3,-45(sp)

00000000800028b0 <i_2483>:
    800028b0:	01600313          	li	t1,22

00000000800028b4 <i_2484>:
    800028b4:	006e5c3b          	srlw	s8,t3,t1

00000000800028b8 <i_2485>:
    800028b8:	e6816e03          	lwu	t3,-408(sp)

00000000800028bc <i_2486>:
    800028bc:	f6411203          	lh	tp,-156(sp)

00000000800028c0 <i_2487>:
    800028c0:	eb7db617          	auipc	a2,0xeb7db

00000000800028c4 <i_2488>:
    800028c4:	15e12623          	sw	t5,332(sp)

00000000800028c8 <i_2489>:
    800028c8:	012e8863          	beq	t4,s2,800028d8 <i_2493>

00000000800028cc <i_2490>:
    800028cc:	00467a63          	bleu	tp,a2,800028e0 <i_2495>

00000000800028d0 <i_2491>:
    800028d0:	f4c12203          	lw	tp,-180(sp)

00000000800028d4 <i_2492>:
    800028d4:	0210c0bb          	divw	ra,ra,ra

00000000800028d8 <i_2493>:
    800028d8:	eec11a23          	sh	a2,-268(sp)

00000000800028dc <i_2494>:
    800028dc:	e7411803          	lh	a6,-396(sp)

00000000800028e0 <i_2495>:
    800028e0:	03096a33          	rem	s4,s2,a6

00000000800028e4 <i_2496>:
    800028e4:	f4016603          	lwu	a2,-192(sp)

00000000800028e8 <i_2497>:
    800028e8:	01463833          	sltu	a6,a2,s4

00000000800028ec <i_2498>:
    800028ec:	17014603          	lbu	a2,368(sp)

00000000800028f0 <i_2499>:
    800028f0:	13f11823          	sh	t6,304(sp)

00000000800028f4 <i_2500>:
    800028f4:	4046023b          	subw	tp,a2,tp

00000000800028f8 <i_2501>:
    800028f8:	40d2063b          	subw	a2,tp,a3

00000000800028fc <i_2502>:
    800028fc:	0242423b          	divw	tp,tp,tp

0000000080002900 <i_2503>:
    80002900:	1c411e23          	sh	tp,476(sp)

0000000080002904 <i_2504>:
    80002904:	00cd1e63          	bne	s10,a2,80002920 <i_2511>

0000000080002908 <i_2505>:
    80002908:	55924613          	xori	a2,tp,1369

000000008000290c <i_2506>:
    8000290c:	0e612823          	sw	t1,240(sp)

0000000080002910 <i_2507>:
    80002910:	02c393b3          	mulh	t2,t2,a2

0000000080002914 <i_2508>:
    80002914:	08c12423          	sw	a2,136(sp)

0000000080002918 <i_2509>:
    80002918:	00c26663          	bltu	tp,a2,80002924 <i_2512>

000000008000291c <i_2510>:
    8000291c:	00763e33          	sltu	t3,a2,t2

0000000080002920 <i_2511>:
    80002920:	10710b03          	lb	s6,263(sp)

0000000080002924 <i_2512>:
    80002924:	00724833          	xor	a6,tp,t2

0000000080002928 <i_2513>:
    80002928:	00c89e63          	bne	a7,a2,80002944 <i_2520>

000000008000292c <i_2514>:
    8000292c:	0fe11203          	lh	tp,254(sp)

0000000080002930 <i_2515>:
    80002930:	0e413423          	sd	tp,232(sp)

0000000080002934 <i_2516>:
    80002934:	fd615503          	lhu	a0,-42(sp)

0000000080002938 <i_2517>:
    80002938:	a58b2b13          	slti	s6,s6,-1448

000000008000293c <i_2518>:
    8000293c:	08012e03          	lw	t3,128(sp)

0000000080002940 <i_2519>:
    80002940:	ec412023          	sw	tp,-320(sp)

0000000080002944 <i_2520>:
    80002944:	fcb13823          	sd	a1,-48(sp)

0000000080002948 <i_2521>:
    80002948:	00000013          	nop

000000008000294c <i_2522>:
    8000294c:	78900593          	li	a1,1929

0000000080002950 <i_2523>:
    80002950:	79d00b13          	li	s6,1949

0000000080002954 <i_2524>:
    80002954:	f8416e03          	lwu	t3,-124(sp)

0000000080002958 <i_2525>:
    80002958:	00426a63          	bltu	tp,tp,8000296c <i_2530>

000000008000295c <i_2526>:
    8000295c:	fd011123          	sh	a6,-62(sp)

0000000080002960 <i_2527>:
    80002960:	5efe3613          	sltiu	a2,t3,1519

0000000080002964 <i_2528>:
    80002964:	05c12c23          	sw	t3,88(sp)

0000000080002968 <i_2529>:
    80002968:	07910303          	lb	t1,121(sp)

000000008000296c <i_2530>:
    8000296c:	fa611923          	sh	t1,-78(sp)

0000000080002970 <i_2531>:
    80002970:	15514e03          	lbu	t3,341(sp)

0000000080002974 <i_2532>:
    80002974:	0c813603          	ld	a2,200(sp)

0000000080002978 <i_2533>:
    80002978:	ee813a83          	ld	s5,-280(sp)

000000008000297c <i_2534>:
    8000297c:	19114403          	lbu	s0,401(sp)

0000000080002980 <i_2535>:
    80002980:	00158593          	addi	a1,a1,1 # ffffffffd5365001 <_end+0xffffffff55354bed>
    80002984:	fcbb78e3          	bleu	a1,s6,80002954 <i_2524>

0000000080002988 <i_2536>:
    80002988:	ef012423          	sw	a6,-280(sp)

000000008000298c <i_2537>:
    8000298c:	0b416183          	lwu	gp,180(sp)

0000000080002990 <i_2538>:
    80002990:	002e1e13          	slli	t3,t3,0x2

0000000080002994 <i_2539>:
    80002994:	f2812223          	sw	s0,-220(sp)

0000000080002998 <i_2540>:
    80002998:	e8314b83          	lbu	s7,-381(sp)

000000008000299c <i_2541>:
    8000299c:	02e00513          	li	a0,46

00000000800029a0 <i_2542>:
    800029a0:	00ab91b3          	sll	gp,s7,a0

00000000800029a4 <i_2543>:
    800029a4:	19010203          	lb	tp,400(sp)

00000000800029a8 <i_2544>:
    800029a8:	18411123          	sh	tp,386(sp)

00000000800029ac <i_2545>:
    800029ac:	e5c13023          	sd	t3,-448(sp)

00000000800029b0 <i_2546>:
    800029b0:	0032551b          	srliw	a0,tp,0x3

00000000800029b4 <i_2547>:
    800029b4:	0375d43b          	divuw	s0,a1,s7

00000000800029b8 <i_2548>:
    800029b8:	1d811603          	lh	a2,472(sp)

00000000800029bc <i_2549>:
    800029bc:	00c41a63          	bne	s0,a2,800029d0 <i_2554>

00000000800029c0 <i_2550>:
    800029c0:	00840433          	add	s0,s0,s0

00000000800029c4 <i_2551>:
    800029c4:	10811a23          	sh	s0,276(sp)

00000000800029c8 <i_2552>:
    800029c8:	03710523          	sb	s7,42(sp)

00000000800029cc <i_2553>:
    800029cc:	fa811a23          	sh	s0,-76(sp)

00000000800029d0 <i_2554>:
    800029d0:	0dc16503          	lwu	a0,220(sp)

00000000800029d4 <i_2555>:
    800029d4:	f1714283          	lbu	t0,-233(sp)

00000000800029d8 <i_2556>:
    800029d8:	f8510403          	lb	s0,-123(sp)

00000000800029dc <i_2557>:
    800029dc:	fd015c03          	lhu	s8,-48(sp)

00000000800029e0 <i_2558>:
    800029e0:	01700e13          	li	t3,23

00000000800029e4 <i_2559>:
    800029e4:	01cc5e3b          	srlw	t3,s8,t3

00000000800029e8 <i_2560>:
    800029e8:	f6d10983          	lb	s3,-147(sp)

00000000800029ec <i_2561>:
    800029ec:	0182fa63          	bleu	s8,t0,80002a00 <i_2566>

00000000800029f0 <i_2562>:
    800029f0:	01ce3e33          	sltu	t3,t3,t3

00000000800029f4 <i_2563>:
    800029f4:	03c13c23          	sd	t3,56(sp)

00000000800029f8 <i_2564>:
    800029f8:	00d00e13          	li	t3,13

00000000800029fc <i_2565>:
    800029fc:	01ce1e3b          	sllw	t3,t3,t3

0000000080002a00 <i_2566>:
    80002a00:	03ce1e33          	mulh	t3,t3,t3

0000000080002a04 <i_2567>:
    80002a04:	12e15e03          	lhu	t3,302(sp)

0000000080002a08 <i_2568>:
    80002a08:	03ce7c3b          	remuw	s8,t3,t3

0000000080002a0c <i_2569>:
    80002a0c:	e7c12e03          	lw	t3,-388(sp)

0000000080002a10 <i_2570>:
    80002a10:	07014583          	lbu	a1,112(sp)

0000000080002a14 <i_2571>:
    80002a14:	01a00793          	li	a5,26

0000000080002a18 <i_2572>:
    80002a18:	00f3d53b          	srlw	a0,t2,a5

0000000080002a1c <i_2573>:
    80002a1c:	5fcc5797          	auipc	a5,0x5fcc5

0000000080002a20 <i_2574>:
    80002a20:	00000013          	nop

0000000080002a24 <i_2575>:
    80002a24:	ea711723          	sh	t2,-338(sp)

0000000080002a28 <i_2576>:
    80002a28:	8a900e93          	li	t4,-1879

0000000080002a2c <i_2577>:
    80002a2c:	8ac00b93          	li	s7,-1876

0000000080002a30 <i_2578>:
    80002a30:	ef813c23          	sd	s8,-264(sp)

0000000080002a34 <i_2579>:
    80002a34:	21eee513          	ori	a0,t4,542

0000000080002a38 <i_2580>:
    80002a38:	001cd49b          	srliw	s1,s9,0x1

0000000080002a3c <i_2581>:
    80002a3c:	01e78e33          	add	t3,a5,t5

0000000080002a40 <i_2582>:
    80002a40:	01dec263          	blt	t4,t4,80002a44 <i_2583>

0000000080002a44 <i_2583>:
    80002a44:	00f59e63          	bne	a1,a5,80002a60 <i_2589>

0000000080002a48 <i_2584>:
    80002a48:	01300a93          	li	s5,19

0000000080002a4c <i_2585>:
    80002a4c:	015e55bb          	srlw	a1,t3,s5

0000000080002a50 <i_2586>:
    80002a50:	001e8e93          	addi	t4,t4,1
    80002a54:	fd7e9ee3          	bne	t4,s7,80002a30 <i_2578>

0000000080002a58 <i_2587>:
    80002a58:	02bae6bb          	remw	a3,s5,a1

0000000080002a5c <i_2588>:
    80002a5c:	f6c14083          	lbu	ra,-148(sp)

0000000080002a60 <i_2589>:
    80002a60:	02159463          	bne	a1,ra,80002a88 <i_2599>

0000000080002a64 <i_2590>:
    80002a64:	07214583          	lbu	a1,114(sp)

0000000080002a68 <i_2591>:
    80002a68:	0015e463          	bltu	a1,ra,80002a70 <i_2593>

0000000080002a6c <i_2592>:
    80002a6c:	06d12823          	sw	a3,112(sp)

0000000080002a70 <i_2593>:
    80002a70:	14a14083          	lbu	ra,330(sp)

0000000080002a74 <i_2594>:
    80002a74:	f9813b83          	ld	s7,-104(sp)

0000000080002a78 <i_2595>:
    80002a78:	01713023          	sd	s7,0(sp)

0000000080002a7c <i_2596>:
    80002a7c:	04c16c03          	lwu	s8,76(sp)

0000000080002a80 <i_2597>:
    80002a80:	029c5063          	ble	s1,s8,80002aa0 <i_2605>

0000000080002a84 <i_2598>:
    80002a84:	00000013          	nop

0000000080002a88 <i_2599>:
    80002a88:	40bef797          	auipc	a5,0x40bef

0000000080002a8c <i_2600>:
    80002a8c:	014decb3          	or	s9,s11,s4

0000000080002a90 <i_2601>:
    80002a90:	06a10a03          	lb	s4,106(sp)

0000000080002a94 <i_2602>:
    80002a94:	816bb613          	sltiu	a2,s7,-2026

0000000080002a98 <i_2603>:
    80002a98:	00000013          	nop

0000000080002a9c <i_2604>:
    80002a9c:	02fcccbb          	divw	s9,s9,a5

0000000080002aa0 <i_2605>:
    80002aa0:	023c4abb          	divw	s5,s8,gp

0000000080002aa4 <i_2606>:
    80002aa4:	f9912e23          	sw	s9,-100(sp)

0000000080002aa8 <i_2607>:
    80002aa8:	83200b93          	li	s7,-1998

0000000080002aac <i_2608>:
    80002aac:	83800d13          	li	s10,-1992

0000000080002ab0 <i_2609>:
    80002ab0:	001b8b93          	addi	s7,s7,1 # f19c47a1 <_end+0x719b438d>
    80002ab4:	ff7d7ee3          	bleu	s7,s10,80002ab0 <i_2609>

0000000080002ab8 <i_2610>:
    80002ab8:	021d6b33          	rem	s6,s10,ra

0000000080002abc <i_2611>:
    80002abc:	ff110d03          	lb	s10,-15(sp)

0000000080002ac0 <i_2612>:
    80002ac0:	01ab4d33          	xor	s10,s6,s10

0000000080002ac4 <i_2613>:
    80002ac4:	016b0263          	beq	s6,s6,80002ac8 <i_2614>

0000000080002ac8 <i_2614>:
    80002ac8:	71f7fc13          	andi	s8,a5,1823

0000000080002acc <i_2615>:
    80002acc:	ef813c23          	sd	s8,-264(sp)

0000000080002ad0 <i_2616>:
    80002ad0:	01d00b13          	li	s6,29

0000000080002ad4 <i_2617>:
    80002ad4:	016b1e33          	sll	t3,s6,s6

0000000080002ad8 <i_2618>:
    80002ad8:	00011383          	lh	t2,0(sp)

0000000080002adc <i_2619>:
    80002adc:	038c6c33          	rem	s8,s8,s8

0000000080002ae0 <i_2620>:
    80002ae0:	00000013          	nop

0000000080002ae4 <i_2621>:
    80002ae4:	00000013          	nop

0000000080002ae8 <i_2622>:
    80002ae8:	8a400693          	li	a3,-1884

0000000080002aec <i_2623>:
    80002aec:	8b300c13          	li	s8,-1869

0000000080002af0 <i_2624>:
    80002af0:	ff813c23          	sd	s8,-8(sp)

0000000080002af4 <i_2625>:
    80002af4:	e3812c23          	sw	s8,-456(sp)

0000000080002af8 <i_2626>:
    80002af8:	eb812483          	lw	s1,-328(sp)

0000000080002afc <i_2627>:
    80002afc:	06912a23          	sw	s1,116(sp)

0000000080002b00 <i_2628>:
    80002b00:	02d9f663          	bleu	a3,s3,80002b2c <i_2638>

0000000080002b04 <i_2629>:
    80002b04:	03813423          	sd	s8,40(sp)

0000000080002b08 <i_2630>:
    80002b08:	003f3f33          	sltu	t5,t5,gp

0000000080002b0c <i_2631>:
    80002b0c:	002f549b          	srliw	s1,t5,0x2

0000000080002b10 <i_2632>:
    80002b10:	028a1263          	bne	s4,s0,80002b34 <i_2640>

0000000080002b14 <i_2633>:
    80002b14:	00000013          	nop

0000000080002b18 <i_2634>:
    80002b18:	edc12583          	lw	a1,-292(sp)

0000000080002b1c <i_2635>:
    80002b1c:	00168693          	addi	a3,a3,1 # 5556ce8d <main-0x2aa93173>
    80002b20:	fcdc78e3          	bleu	a3,s8,80002af0 <i_2624>

0000000080002b24 <i_2636>:
    80002b24:	00a00993          	li	s3,10

0000000080002b28 <i_2637>:
    80002b28:	013596bb          	sllw	a3,a1,s3

0000000080002b2c <i_2638>:
    80002b2c:	00169a13          	slli	s4,a3,0x1

0000000080002b30 <i_2639>:
    80002b30:	00000013          	nop

0000000080002b34 <i_2640>:
    80002b34:	f3412a03          	lw	s4,-204(sp)

0000000080002b38 <i_2641>:
    80002b38:	414f0abb          	subw	s5,t5,s4

0000000080002b3c <i_2642>:
    80002b3c:	7da00593          	li	a1,2010

0000000080002b40 <i_2643>:
    80002b40:	7e900693          	li	a3,2025

0000000080002b44 <i_2644>:
    80002b44:	02500a13          	li	s4,37

0000000080002b48 <i_2645>:
    80002b48:	014a9233          	sll	tp,s5,s4

0000000080002b4c <i_2646>:
    80002b4c:	21234617          	auipc	a2,0x21234

0000000080002b50 <i_2647>:
    80002b50:	014a7863          	bleu	s4,s4,80002b60 <i_2651>

0000000080002b54 <i_2648>:
    80002b54:	e9012a03          	lw	s4,-368(sp)

0000000080002b58 <i_2649>:
    80002b58:	fec12603          	lw	a2,-20(sp)

0000000080002b5c <i_2650>:
    80002b5c:	0246663b          	remw	a2,a2,tp

0000000080002b60 <i_2651>:
    80002b60:	16c10323          	sb	a2,358(sp)

0000000080002b64 <i_2652>:
    80002b64:	15013603          	ld	a2,336(sp)

0000000080002b68 <i_2653>:
    80002b68:	f3e15c03          	lhu	s8,-194(sp)

0000000080002b6c <i_2654>:
    80002b6c:	f4c11023          	sh	a2,-192(sp)

0000000080002b70 <i_2655>:
    80002b70:	ea413c23          	sd	tp,-328(sp)

0000000080002b74 <i_2656>:
    80002b74:	00158593          	addi	a1,a1,1
    80002b78:	fcd5e6e3          	bltu	a1,a3,80002b44 <i_2644>

0000000080002b7c <i_2657>:
    80002b7c:	01ec4f33          	xor	t5,s8,t5

0000000080002b80 <i_2658>:
    80002b80:	02cf5063          	ble	a2,t5,80002ba0 <i_2666>

0000000080002b84 <i_2659>:
    80002b84:	f6c10f23          	sb	a2,-130(sp)

0000000080002b88 <i_2660>:
    80002b88:	01ef0f33          	add	t5,t5,t5

0000000080002b8c <i_2661>:
    80002b8c:	e6411603          	lh	a2,-412(sp)

0000000080002b90 <i_2662>:
    80002b90:	02cf0f3b          	mulw	t5,t5,a2

0000000080002b94 <i_2663>:
    80002b94:	1b013c03          	ld	s8,432(sp)

0000000080002b98 <i_2664>:
    80002b98:	41ef0433          	sub	s0,t5,t5

0000000080002b9c <i_2665>:
    80002b9c:	00cf6263          	bltu	t5,a2,80002ba0 <i_2666>

0000000080002ba0 <i_2666>:
    80002ba0:	028421b3          	mulhsu	gp,s0,s0

0000000080002ba4 <i_2667>:
    80002ba4:	02845433          	divu	s0,s0,s0

0000000080002ba8 <i_2668>:
    80002ba8:	14416403          	lwu	s0,324(sp)

0000000080002bac <i_2669>:
    80002bac:	0011d293          	srli	t0,gp,0x1

0000000080002bb0 <i_2670>:
    80002bb0:	fba11403          	lh	s0,-70(sp)

0000000080002bb4 <i_2671>:
    80002bb4:	16013403          	ld	s0,352(sp)

0000000080002bb8 <i_2672>:
    80002bb8:	e2d10e03          	lb	t3,-467(sp)

0000000080002bbc <i_2673>:
    80002bbc:	03c2d463          	ble	t3,t0,80002be4 <i_2683>

0000000080002bc0 <i_2674>:
    80002bc0:	00828e63          	beq	t0,s0,80002bdc <i_2681>

0000000080002bc4 <i_2675>:
    80002bc4:	e2910403          	lb	s0,-471(sp)

0000000080002bc8 <i_2676>:
    80002bc8:	e12e3413          	sltiu	s0,t3,-494

0000000080002bcc <i_2677>:
    80002bcc:	0b214403          	lbu	s0,178(sp)

0000000080002bd0 <i_2678>:
    80002bd0:	00741c63          	bne	s0,t2,80002be8 <i_2684>

0000000080002bd4 <i_2679>:
    80002bd4:	f5c11523          	sh	t3,-182(sp)

0000000080002bd8 <i_2680>:
    80002bd8:	00865c63          	ble	s0,a2,80002bf0 <i_2686>

0000000080002bdc <i_2681>:
    80002bdc:	02714e03          	lbu	t3,39(sp)

0000000080002be0 <i_2682>:
    80002be0:	00341c13          	slli	s8,s0,0x3

0000000080002be4 <i_2683>:
    80002be4:	018c5a63          	ble	s8,s8,80002bf8 <i_2688>

0000000080002be8 <i_2684>:
    80002be8:	00200c13          	li	s8,2

0000000080002bec <i_2685>:
    80002bec:	418c59bb          	sraw	s3,s8,s8

0000000080002bf0 <i_2686>:
    80002bf0:	0188f263          	bleu	s8,a7,80002bf4 <i_2687>

0000000080002bf4 <i_2687>:
    80002bf4:	0139e663          	bltu	s3,s3,80002c00 <i_2690>

0000000080002bf8 <i_2688>:
    80002bf8:	05c15983          	lhu	s3,92(sp)

0000000080002bfc <i_2689>:
    80002bfc:	f7416783          	lwu	a5,-140(sp)

0000000080002c00 <i_2690>:
    80002c00:	00900d93          	li	s11,9

0000000080002c04 <i_2691>:
    80002c04:	01ba9ab3          	sll	s5,s5,s11

0000000080002c08 <i_2692>:
    80002c08:	01bd9263          	bne	s11,s11,80002c0c <i_2693>

0000000080002c0c <i_2693>:
    80002c0c:	eca14f03          	lbu	t5,-310(sp)

0000000080002c10 <i_2694>:
    80002c10:	015ace63          	blt	s5,s5,80002c2c <i_2701>

0000000080002c14 <i_2695>:
    80002c14:	580f6f13          	ori	t5,t5,1408

0000000080002c18 <i_2696>:
    80002c18:	03e6ef33          	rem	t5,a3,t5

0000000080002c1c <i_2697>:
    80002c1c:	0012d29b          	srliw	t0,t0,0x1

0000000080002c20 <i_2698>:
    80002c20:	ffe11203          	lh	tp,-2(sp)

0000000080002c24 <i_2699>:
    80002c24:	001f5613          	srli	a2,t5,0x1

0000000080002c28 <i_2700>:
    80002c28:	00000013          	nop

0000000080002c2c <i_2701>:
    80002c2c:	ece15d83          	lhu	s11,-306(sp)

0000000080002c30 <i_2702>:
    80002c30:	15523c93          	sltiu	s9,tp,341

0000000080002c34 <i_2703>:
    80002c34:	7b000413          	li	s0,1968

0000000080002c38 <i_2704>:
    80002c38:	7b700813          	li	a6,1975

0000000080002c3c <i_2705>:
    80002c3c:	0252c23b          	divw	tp,t0,t0

0000000080002c40 <i_2706>:
    80002c40:	00140413          	addi	s0,s0,1 # 54c03001 <main-0x2b3fcfff>
    80002c44:	ff044ce3          	blt	s0,a6,80002c3c <i_2705>

0000000080002c48 <i_2707>:
    80002c48:	03f10583          	lb	a1,63(sp)

0000000080002c4c <i_2708>:
    80002c4c:	03a00293          	li	t0,58

0000000080002c50 <i_2709>:
    80002c50:	00525c33          	srl	s8,tp,t0

0000000080002c54 <i_2710>:
    80002c54:	80f00213          	li	tp,-2033

0000000080002c58 <i_2711>:
    80002c58:	82300b13          	li	s6,-2013

0000000080002c5c <i_2712>:
    80002c5c:	0382fab3          	remu	s5,t0,s8

0000000080002c60 <i_2713>:
    80002c60:	158104a3          	sb	s8,329(sp)

0000000080002c64 <i_2714>:
    80002c64:	fea11c03          	lh	s8,-22(sp)

0000000080002c68 <i_2715>:
    80002c68:	01900c13          	li	s8,25

0000000080002c6c <i_2716>:
    80002c6c:	018adc33          	srl	s8,s5,s8

0000000080002c70 <i_2717>:
    80002c70:	08812583          	lw	a1,136(sp)

0000000080002c74 <i_2718>:
    80002c74:	833ab513          	sltiu	a0,s5,-1997

0000000080002c78 <i_2719>:
    80002c78:	004c5c13          	srli	s8,s8,0x4

0000000080002c7c <i_2720>:
    80002c7c:	e2a12823          	sw	a0,-464(sp)

0000000080002c80 <i_2721>:
    80002c80:	eb813823          	sd	s8,-336(sp)

0000000080002c84 <i_2722>:
    80002c84:	f2f5e513          	ori	a0,a1,-209

0000000080002c88 <i_2723>:
    80002c88:	00120213          	addi	tp,tp,1 # 1 <main-0x7fffffff>
    80002c8c:	fd6246e3          	blt	tp,s6,80002c58 <i_2711>

0000000080002c90 <i_2724>:
    80002c90:	1c914583          	lbu	a1,457(sp)

0000000080002c94 <i_2725>:
    80002c94:	f6a14383          	lbu	t2,-150(sp)

0000000080002c98 <i_2726>:
    80002c98:	01858263          	beq	a1,s8,80002c9c <i_2727>

0000000080002c9c <i_2727>:
    80002c9c:	038c7263          	bleu	s8,s8,80002cc0 <i_2736>

0000000080002ca0 <i_2728>:
    80002ca0:	00b70a63          	beq	a4,a1,80002cb4 <i_2733>

0000000080002ca4 <i_2729>:
    80002ca4:	e1811d23          	sh	s8,-486(sp)

0000000080002ca8 <i_2730>:
    80002ca8:	f9c12803          	lw	a6,-100(sp)

0000000080002cac <i_2731>:
    80002cac:	02780063          	beq	a6,t2,80002ccc <i_2739>

0000000080002cb0 <i_2732>:
    80002cb0:	6f282e13          	slti	t3,a6,1778

0000000080002cb4 <i_2733>:
    80002cb4:	01058e33          	add	t3,a1,a6

0000000080002cb8 <i_2734>:
    80002cb8:	00900e13          	li	t3,9

0000000080002cbc <i_2735>:
    80002cbc:	01ce1833          	sll	a6,t3,t3

0000000080002cc0 <i_2736>:
    80002cc0:	02412f03          	lw	t5,36(sp)

0000000080002cc4 <i_2737>:
    80002cc4:	07e10b23          	sb	t5,118(sp)

0000000080002cc8 <i_2738>:
    80002cc8:	ee711823          	sh	t2,-272(sp)

0000000080002ccc <i_2739>:
    80002ccc:	0da14d83          	lbu	s11,218(sp)

0000000080002cd0 <i_2740>:
    80002cd0:	01e426b3          	slt	a3,s0,t5

0000000080002cd4 <i_2741>:
    80002cd4:	8b000293          	li	t0,-1872

0000000080002cd8 <i_2742>:
    80002cd8:	8b200e13          	li	t3,-1870

0000000080002cdc <i_2743>:
    80002cdc:	16510da3          	sb	t0,379(sp)

0000000080002ce0 <i_2744>:
    80002ce0:	04711323          	sh	t2,70(sp)

0000000080002ce4 <i_2745>:
    80002ce4:	0075c5b3          	xor	a1,a1,t2

0000000080002ce8 <i_2746>:
    80002ce8:	00d11a23          	sh	a3,20(sp)

0000000080002cec <i_2747>:
    80002cec:	02b3adb3          	mulhsu	s11,t2,a1

0000000080002cf0 <i_2748>:
    80002cf0:	00000013          	nop

0000000080002cf4 <i_2749>:
    80002cf4:	7dc00393          	li	t2,2012

0000000080002cf8 <i_2750>:
    80002cf8:	7f000993          	li	s3,2032

0000000080002cfc <i_2751>:
    80002cfc:	0d313823          	sd	s3,208(sp)

0000000080002d00 <i_2752>:
    80002d00:	00000013          	nop

0000000080002d04 <i_2753>:
    80002d04:	00138393          	addi	t2,t2,1 # 32398095 <main-0x4dc67f6b>
    80002d08:	ff339ae3          	bne	t2,s3,80002cfc <i_2751>

0000000080002d0c <i_2754>:
    80002d0c:	001dd99b          	srliw	s3,s11,0x1

0000000080002d10 <i_2755>:
    80002d10:	00c00493          	li	s1,12

0000000080002d14 <i_2756>:
    80002d14:	009956bb          	srlw	a3,s2,s1

0000000080002d18 <i_2757>:
    80002d18:	00128293          	addi	t0,t0,1
    80002d1c:	fdc2e0e3          	bltu	t0,t3,80002cdc <i_2743>

0000000080002d20 <i_2758>:
    80002d20:	ed311d23          	sh	s3,-294(sp)

0000000080002d24 <i_2759>:
    80002d24:	f1813083          	ld	ra,-232(sp)

0000000080002d28 <i_2760>:
    80002d28:	05110d83          	lb	s11,81(sp)

0000000080002d2c <i_2761>:
    80002d2c:	02300393          	li	t2,35

0000000080002d30 <i_2762>:
    80002d30:	007dd9b3          	srl	s3,s11,t2

0000000080002d34 <i_2763>:
    80002d34:	4046d213          	srai	tp,a3,0x4

0000000080002d38 <i_2764>:
    80002d38:	84348db7          	lui	s11,0x84348

0000000080002d3c <i_2765>:
    80002d3c:	027a5a3b          	divuw	s4,s4,t2

0000000080002d40 <i_2766>:
    80002d40:	e7816a03          	lwu	s4,-392(sp)

0000000080002d44 <i_2767>:
    80002d44:	81700693          	li	a3,-2025

0000000080002d48 <i_2768>:
    80002d48:	82100393          	li	t2,-2015

0000000080002d4c <i_2769>:
    80002d4c:	13112a23          	sw	a7,308(sp)

0000000080002d50 <i_2770>:
    80002d50:	00521e63          	bne	tp,t0,80002d6c <i_2776>

0000000080002d54 <i_2771>:
    80002d54:	02da3db3          	mulhu	s11,s4,a3

0000000080002d58 <i_2772>:
    80002d58:	0276d5bb          	divuw	a1,a3,t2

0000000080002d5c <i_2773>:
    80002d5c:	00168693          	addi	a3,a3,1
    80002d60:	fed3f6e3          	bleu	a3,t2,80002d4c <i_2769>

0000000080002d64 <i_2774>:
    80002d64:	0253b333          	mulhu	t1,t2,t0

0000000080002d68 <i_2775>:
    80002d68:	026a66bb          	remw	a3,s4,t1

0000000080002d6c <i_2776>:
    80002d6c:	0e815783          	lhu	a5,232(sp)

0000000080002d70 <i_2777>:
    80002d70:	039dd063          	ble	s9,s11,80002d90 <i_2785>

0000000080002d74 <i_2778>:
    80002d74:	0143e263          	bltu	t2,s4,80002d78 <i_2779>

0000000080002d78 <i_2779>:
    80002d78:	f4c16c83          	lwu	s9,-180(sp)

0000000080002d7c <i_2780>:
    80002d7c:	16f12623          	sw	a5,364(sp)

0000000080002d80 <i_2781>:
    80002d80:	02d6c063          	blt	a3,a3,80002da0 <i_2789>

0000000080002d84 <i_2782>:
    80002d84:	00d71463          	bne	a4,a3,80002d8c <i_2784>

0000000080002d88 <i_2783>:
    80002d88:	0047d693          	srli	a3,a5,0x4

0000000080002d8c <i_2784>:
    80002d8c:	00000013          	nop

0000000080002d90 <i_2785>:
    80002d90:	d3b6861b          	addiw	a2,a3,-709

0000000080002d94 <i_2786>:
    80002d94:	02a79633          	mulh	a2,a5,a0

0000000080002d98 <i_2787>:
    80002d98:	1a310783          	lb	a5,419(sp)

0000000080002d9c <i_2788>:
    80002d9c:	0026121b          	slliw	tp,a2,0x2

0000000080002da0 <i_2789>:
    80002da0:	eaa11023          	sh	a0,-352(sp)

0000000080002da4 <i_2790>:
    80002da4:	00000013          	nop

0000000080002da8 <i_2791>:
    80002da8:	84100693          	li	a3,-1983

0000000080002dac <i_2792>:
    80002dac:	85300513          	li	a0,-1965

0000000080002db0 <i_2793>:
    80002db0:	0b5101a3          	sb	s5,163(sp)

0000000080002db4 <i_2794>:
    80002db4:	03011303          	lh	t1,48(sp)

0000000080002db8 <i_2795>:
    80002db8:	403307b3          	sub	a5,t1,gp

0000000080002dbc <i_2796>:
    80002dbc:	e6214303          	lbu	t1,-414(sp)

0000000080002dc0 <i_2797>:
    80002dc0:	ff412c03          	lw	s8,-12(sp)

0000000080002dc4 <i_2798>:
    80002dc4:	ee610723          	sb	t1,-274(sp)

0000000080002dc8 <i_2799>:
    80002dc8:	02979463          	bne	a5,s1,80002df0 <i_2808>

0000000080002dcc <i_2800>:
    80002dcc:	ec812303          	lw	t1,-312(sp)

0000000080002dd0 <i_2801>:
    80002dd0:	11412083          	lw	ra,276(sp)

0000000080002dd4 <i_2802>:
    80002dd4:	00168693          	addi	a3,a3,1
    80002dd8:	fca6ece3          	bltu	a3,a0,80002db0 <i_2793>

0000000080002ddc <i_2803>:
    80002ddc:	01879863          	bne	a5,s8,80002dec <i_2807>

0000000080002de0 <i_2804>:
    80002de0:	03a11083          	lh	ra,58(sp)

0000000080002de4 <i_2805>:
    80002de4:	f1b10303          	lb	t1,-229(sp)

0000000080002de8 <i_2806>:
    80002de8:	026c6063          	bltu	s8,t1,80002e08 <i_2814>

0000000080002dec <i_2807>:
    80002dec:	1c611a23          	sh	t1,468(sp)

0000000080002df0 <i_2808>:
    80002df0:	006a0663          	beq	s4,t1,80002dfc <i_2811>

0000000080002df4 <i_2809>:
    80002df4:	03700413          	li	s0,55

0000000080002df8 <i_2810>:
    80002df8:	0080d433          	srl	s0,ra,s0

0000000080002dfc <i_2811>:
    80002dfc:	00836463          	bltu	t1,s0,80002e04 <i_2813>

0000000080002e00 <i_2812>:
    80002e00:	e2813423          	sd	s0,-472(sp)

0000000080002e04 <i_2813>:
    80002e04:	f0314803          	lbu	a6,-253(sp)

0000000080002e08 <i_2814>:
    80002e08:	0b813c03          	ld	s8,184(sp)

0000000080002e0c <i_2815>:
    80002e0c:	026350b3          	divu	ra,t1,t1

0000000080002e10 <i_2816>:
    80002e10:	bb9639b7          	lui	s3,0xbb963

0000000080002e14 <i_2817>:
    80002e14:	00000013          	nop

0000000080002e18 <i_2818>:
    80002e18:	75600b13          	li	s6,1878

0000000080002e1c <i_2819>:
    80002e1c:	76000593          	li	a1,1888

0000000080002e20 <i_2820>:
    80002e20:	03808063          	beq	ra,s8,80002e40 <i_2828>

0000000080002e24 <i_2821>:
    80002e24:	f30105a3          	sb	a6,-213(sp)

0000000080002e28 <i_2822>:
    80002e28:	07f14783          	lbu	a5,127(sp)

0000000080002e2c <i_2823>:
    80002e2c:	fac15083          	lhu	ra,-84(sp)

0000000080002e30 <i_2824>:
    80002e30:	0f813983          	ld	s3,248(sp)

0000000080002e34 <i_2825>:
    80002e34:	f7c16d03          	lwu	s10,-132(sp)

0000000080002e38 <i_2826>:
    80002e38:	00000013          	nop

0000000080002e3c <i_2827>:
    80002e3c:	00000013          	nop

0000000080002e40 <i_2828>:
    80002e40:	02149cb3          	mulh	s9,s1,ra

0000000080002e44 <i_2829>:
    80002e44:	00000013          	nop

0000000080002e48 <i_2830>:
    80002e48:	77800493          	li	s1,1912

0000000080002e4c <i_2831>:
    80002e4c:	78a00793          	li	a5,1930

0000000080002e50 <i_2832>:
    80002e50:	a09a0d13          	addi	s10,s4,-1527

0000000080002e54 <i_2833>:
    80002e54:	05816c03          	lwu	s8,88(sp)

0000000080002e58 <i_2834>:
    80002e58:	00148493          	addi	s1,s1,1
    80002e5c:	fef4cae3          	blt	s1,a5,80002e50 <i_2832>

0000000080002e60 <i_2835>:
    80002e60:	f1d10c03          	lb	s8,-227(sp)

0000000080002e64 <i_2836>:
    80002e64:	001b0b13          	addi	s6,s6,1
    80002e68:	fabb1ce3          	bne	s6,a1,80002e20 <i_2820>

0000000080002e6c <i_2837>:
    80002e6c:	0b114503          	lbu	a0,177(sp)

0000000080002e70 <i_2838>:
    80002e70:	be4d7293          	andi	t0,s10,-1052

0000000080002e74 <i_2839>:
    80002e74:	01150c63          	beq	a0,a7,80002e8c <i_2845>

0000000080002e78 <i_2840>:
    80002e78:	0026d693          	srli	a3,a3,0x2

0000000080002e7c <i_2841>:
    80002e7c:	02548263          	beq	s1,t0,80002ea0 <i_2850>

0000000080002e80 <i_2842>:
    80002e80:	f3812e23          	sw	s8,-196(sp)

0000000080002e84 <i_2843>:
    80002e84:	0e011983          	lh	s3,224(sp)

0000000080002e88 <i_2844>:
    80002e88:	fba10b23          	sb	s10,-74(sp)

0000000080002e8c <i_2845>:
    80002e8c:	00012c03          	lw	s8,0(sp)

0000000080002e90 <i_2846>:
    80002e90:	40d98dbb          	subw	s11,s3,a3

0000000080002e94 <i_2847>:
    80002e94:	01b48cb3          	add	s9,s1,s11

0000000080002e98 <i_2848>:
    80002e98:	10d13823          	sd	a3,272(sp)

0000000080002e9c <i_2849>:
    80002e9c:	0d913423          	sd	s9,200(sp)

0000000080002ea0 <i_2850>:
    80002ea0:	039c8cbb          	mulw	s9,s9,s9

0000000080002ea4 <i_2851>:
    80002ea4:	fe810623          	sb	s0,-20(sp)

0000000080002ea8 <i_2852>:
    80002ea8:	419c81bb          	subw	gp,s9,s9

0000000080002eac <i_2853>:
    80002eac:	e6e14403          	lbu	s0,-402(sp)

0000000080002eb0 <i_2854>:
    80002eb0:	7a100c93          	li	s9,1953

0000000080002eb4 <i_2855>:
    80002eb4:	7b300693          	li	a3,1971

0000000080002eb8 <i_2856>:
    80002eb8:	023f3633          	mulhu	a2,t5,gp

0000000080002ebc <i_2857>:
    80002ebc:	00f00993          	li	s3,15

0000000080002ec0 <i_2858>:
    80002ec0:	41365f33          	sra	t5,a2,s3

0000000080002ec4 <i_2859>:
    80002ec4:	fbc10f03          	lb	t5,-68(sp)

0000000080002ec8 <i_2860>:
    80002ec8:	e5e12823          	sw	t5,-432(sp)

0000000080002ecc <i_2861>:
    80002ecc:	40145313          	srai	t1,s0,0x1

0000000080002ed0 <i_2862>:
    80002ed0:	032f1663          	bne	t5,s2,80002efc <i_2872>

0000000080002ed4 <i_2863>:
    80002ed4:	03e31f33          	mulh	t5,t1,t5

0000000080002ed8 <i_2864>:
    80002ed8:	006f5e63          	ble	t1,t5,80002ef4 <i_2870>

0000000080002edc <i_2865>:
    80002edc:	00000013          	nop

0000000080002ee0 <i_2866>:
    80002ee0:	00000013          	nop

0000000080002ee4 <i_2867>:
    80002ee4:	001c8c93          	addi	s9,s9,1
    80002ee8:	fcdcc8e3          	blt	s9,a3,80002eb8 <i_2856>

0000000080002eec <i_2868>:
    80002eec:	18816f03          	lwu	t5,392(sp)

0000000080002ef0 <i_2869>:
    80002ef0:	003f5e13          	srli	t3,t5,0x3

0000000080002ef4 <i_2870>:
    80002ef4:	00d1e463          	bltu	gp,a3,80002efc <i_2872>

0000000080002ef8 <i_2871>:
    80002ef8:	e9015f03          	lhu	t5,-368(sp)

0000000080002efc <i_2872>:
    80002efc:	031f5463          	ble	a7,t5,80002f24 <i_2882>

0000000080002f00 <i_2873>:
    80002f00:	17c16503          	lwu	a0,380(sp)

0000000080002f04 <i_2874>:
    80002f04:	036dd263          	ble	s6,s11,80002f28 <i_2883>

0000000080002f08 <i_2875>:
    80002f08:	11015f03          	lhu	t5,272(sp)

0000000080002f0c <i_2876>:
    80002f0c:	006e4e63          	blt	t3,t1,80002f28 <i_2883>

0000000080002f10 <i_2877>:
    80002f10:	14710623          	sb	t2,332(sp)

0000000080002f14 <i_2878>:
    80002f14:	15e13423          	sd	t5,328(sp)

0000000080002f18 <i_2879>:
    80002f18:	78cf2093          	slti	ra,t5,1932

0000000080002f1c <i_2880>:
    80002f1c:	021f30b3          	mulhu	ra,t5,ra

0000000080002f20 <i_2881>:
    80002f20:	001f5f13          	srli	t5,t5,0x1

0000000080002f24 <i_2882>:
    80002f24:	03d00d93          	li	s11,61

0000000080002f28 <i_2883>:
    80002f28:	41b0d533          	sra	a0,ra,s11

0000000080002f2c <i_2884>:
    80002f2c:	0db11223          	sh	s11,196(sp)

0000000080002f30 <i_2885>:
    80002f30:	16c11a83          	lh	s5,364(sp)

0000000080002f34 <i_2886>:
    80002f34:	e8a11923          	sh	a0,-366(sp)

0000000080002f38 <i_2887>:
    80002f38:	e2416383          	lwu	t2,-476(sp)

0000000080002f3c <i_2888>:
    80002f3c:	1aa13023          	sd	a0,416(sp)

0000000080002f40 <i_2889>:
    80002f40:	0075c463          	blt	a1,t2,80002f48 <i_2891>

0000000080002f44 <i_2890>:
    80002f44:	102ebc37          	lui	s8,0x102eb

0000000080002f48 <i_2891>:
    80002f48:	0073b533          	sltu	a0,t2,t2

0000000080002f4c <i_2892>:
    80002f4c:	fda11083          	lh	ra,-38(sp)

0000000080002f50 <i_2893>:
    80002f50:	77700593          	li	a1,1911

0000000080002f54 <i_2894>:
    80002f54:	78a00393          	li	t2,1930

0000000080002f58 <i_2895>:
    80002f58:	02b5f063          	bleu	a1,a1,80002f78 <i_2903>

0000000080002f5c <i_2896>:
    80002f5c:	e81106a3          	sb	ra,-371(sp)

0000000080002f60 <i_2897>:
    80002f60:	00014083          	lbu	ra,0(sp)

0000000080002f64 <i_2898>:
    80002f64:	00b09e63          	bne	ra,a1,80002f80 <i_2905>

0000000080002f68 <i_2899>:
    80002f68:	e815f313          	andi	t1,a1,-383

0000000080002f6c <i_2900>:
    80002f6c:	01300793          	li	a5,19

0000000080002f70 <i_2901>:
    80002f70:	00f3ddb3          	srl	s11,t2,a5

0000000080002f74 <i_2902>:
    80002f74:	fb211f23          	sh	s2,-66(sp)

0000000080002f78 <i_2903>:
    80002f78:	e4c16783          	lwu	a5,-436(sp)

0000000080002f7c <i_2904>:
    80002f7c:	00b8e663          	bltu	a7,a1,80002f88 <i_2907>

0000000080002f80 <i_2905>:
    80002f80:	03b3eb33          	rem	s6,t2,s11

0000000080002f84 <i_2906>:
    80002f84:	f7814c83          	lbu	s9,-136(sp)

0000000080002f88 <i_2907>:
    80002f88:	00acd463          	ble	a0,s9,80002f90 <i_2909>

0000000080002f8c <i_2908>:
    80002f8c:	207df093          	andi	ra,s11,519

0000000080002f90 <i_2909>:
    80002f90:	4040de1b          	sraiw	t3,ra,0x4

0000000080002f94 <i_2910>:
    80002f94:	12610e83          	lb	t4,294(sp)

0000000080002f98 <i_2911>:
    80002f98:	00158593          	addi	a1,a1,1
    80002f9c:	fa75eee3          	bltu	a1,t2,80002f58 <i_2895>

0000000080002fa0 <i_2912>:
    80002fa0:	03be9063          	bne	t4,s11,80002fc0 <i_2920>

0000000080002fa4 <i_2913>:
    80002fa4:	01bdde63          	ble	s11,s11,80002fc0 <i_2920>

0000000080002fa8 <i_2914>:
    80002fa8:	19911523          	sh	s9,394(sp)

0000000080002fac <i_2915>:
    80002fac:	00ae1663          	bne	t3,a0,80002fb8 <i_2918>

0000000080002fb0 <i_2916>:
    80002fb0:	f6414c83          	lbu	s9,-156(sp)

0000000080002fb4 <i_2917>:
    80002fb4:	007c8e63          	beq	s9,t2,80002fd0 <i_2924>

0000000080002fb8 <i_2918>:
    80002fb8:	f3911923          	sh	s9,-206(sp)

0000000080002fbc <i_2919>:
    80002fbc:	02be8263          	beq	t4,a1,80002fe0 <i_2928>

0000000080002fc0 <i_2920>:
    80002fc0:	00600513          	li	a0,6

0000000080002fc4 <i_2921>:
    80002fc4:	40af5f3b          	sraw	t5,t5,a0

0000000080002fc8 <i_2922>:
    80002fc8:	7a052513          	slti	a0,a0,1952

0000000080002fcc <i_2923>:
    80002fcc:	00bf4c63          	blt	t5,a1,80002fe4 <i_2929>

0000000080002fd0 <i_2924>:
    80002fd0:	12c15203          	lhu	tp,300(sp)

0000000080002fd4 <i_2925>:
    80002fd4:	08e53f13          	sltiu	t5,a0,142

0000000080002fd8 <i_2926>:
    80002fd8:	0e214e83          	lbu	t4,226(sp)

0000000080002fdc <i_2927>:
    80002fdc:	03ecd463          	ble	t5,s9,80003004 <i_2937>

0000000080002fe0 <i_2928>:
    80002fe0:	03ef523b          	divuw	tp,t5,t5

0000000080002fe4 <i_2929>:
    80002fe4:	01edea63          	bltu	s11,t5,80002ff8 <i_2934>

0000000080002fe8 <i_2930>:
    80002fe8:	00c11d83          	lh	s11,12(sp)

0000000080002fec <i_2931>:
    80002fec:	024dedb3          	rem	s11,s11,tp

0000000080002ff0 <i_2932>:
    80002ff0:	03bd8db3          	mul	s11,s11,s11

0000000080002ff4 <i_2933>:
    80002ff4:	e5c16d03          	lwu	s10,-420(sp)

0000000080002ff8 <i_2934>:
    80002ff8:	00000013          	nop

0000000080002ffc <i_2935>:
    80002ffc:	0fb108a3          	sb	s11,241(sp)

0000000080003000 <i_2936>:
    80003000:	13e15d83          	lhu	s11,318(sp)

0000000080003004 <i_2937>:
    80003004:	038ddd33          	divu	s10,s11,s8

0000000080003008 <i_2938>:
    80003008:	00000013          	nop

000000008000300c <i_2939>:
    8000300c:	85e00c93          	li	s9,-1954

0000000080003010 <i_2940>:
    80003010:	86800213          	li	tp,-1944

0000000080003014 <i_2941>:
    80003014:	29bd6d13          	ori	s10,s10,667

0000000080003018 <i_2942>:
    80003018:	01ad1263          	bne	s10,s10,8000301c <i_2943>

000000008000301c <i_2943>:
    8000301c:	891c2d93          	slti	s11,s8,-1903

0000000080003020 <i_2944>:
    80003020:	003d9e9b          	slliw	t4,s11,0x3

0000000080003024 <i_2945>:
    80003024:	03857c33          	remu	s8,a0,s8

0000000080003028 <i_2946>:
    80003028:	001c8c93          	addi	s9,s9,1
    8000302c:	ff9254e3          	ble	s9,tp,80003014 <i_2941>

0000000080003030 <i_2947>:
    80003030:	01d37333          	and	t1,t1,t4

0000000080003034 <i_2948>:
    80003034:	f0612823          	sw	t1,-240(sp)

0000000080003038 <i_2949>:
    80003038:	af2c3313          	sltiu	t1,s8,-1294

000000008000303c <i_2950>:
    8000303c:	006d5863          	ble	t1,s10,8000304c <i_2954>

0000000080003040 <i_2951>:
    80003040:	0269cd3b          	divw	s10,s3,t1

0000000080003044 <i_2952>:
    80003044:	89ce0d37          	lui	s10,0x89ce0

0000000080003048 <i_2953>:
    80003048:	021d6d3b          	remw	s10,s10,ra

000000008000304c <i_2954>:
    8000304c:	14712423          	sw	t2,328(sp)

0000000080003050 <i_2955>:
    80003050:	021bfbbb          	remuw	s7,s7,ra

0000000080003054 <i_2956>:
    80003054:	75e00313          	li	t1,1886

0000000080003058 <i_2957>:
    80003058:	76a00c13          	li	s8,1898

000000008000305c <i_2958>:
    8000305c:	fd711b23          	sh	s7,-42(sp)

0000000080003060 <i_2959>:
    80003060:	12812983          	lw	s3,296(sp)

0000000080003064 <i_2960>:
    80003064:	83200d93          	li	s11,-1998

0000000080003068 <i_2961>:
    80003068:	83600093          	li	ra,-1994

000000008000306c <i_2962>:
    8000306c:	001d8d93          	addi	s11,s11,1 # ffffffff84348001 <_end+0xffffffff04337bed>
    80003070:	fe1deee3          	bltu	s11,ra,8000306c <i_2962>

0000000080003074 <i_2963>:
    80003074:	0f812783          	lw	a5,248(sp)

0000000080003078 <i_2964>:
    80003078:	0219f463          	bleu	ra,s3,800030a0 <i_2973>

000000008000307c <i_2965>:
    8000307c:	1bf10083          	lb	ra,447(sp)

0000000080003080 <i_2966>:
    80003080:	00130313          	addi	t1,t1,1
    80003084:	fc6c5ce3          	ble	t1,s8,8000305c <i_2958>

0000000080003088 <i_2967>:
    80003088:	03bbbd33          	mulhu	s10,s7,s11

000000008000308c <i_2968>:
    8000308c:	00fd7c63          	bleu	a5,s10,800030a4 <i_2974>

0000000080003090 <i_2969>:
    80003090:	037b863b          	mulw	a2,s7,s7

0000000080003094 <i_2970>:
    80003094:	e8c13c23          	sd	a2,-360(sp)

0000000080003098 <i_2971>:
    80003098:	03397063          	bleu	s3,s2,800030b8 <i_2979>

000000008000309c <i_2972>:
    8000309c:	2ad60613          	addi	a2,a2,685 # a1236df9 <_end+0x212269e5>

00000000800030a0 <i_2973>:
    800030a0:	11c16b03          	lwu	s6,284(sp)

00000000800030a4 <i_2974>:
    800030a4:	18c13823          	sd	a2,400(sp)

00000000800030a8 <i_2975>:
    800030a8:	01a48863          	beq	s1,s10,800030b8 <i_2979>

00000000800030ac <i_2976>:
    800030ac:	11c12d03          	lw	s10,284(sp)

00000000800030b0 <i_2977>:
    800030b0:	00c65e63          	ble	a2,a2,800030cc <i_2984>

00000000800030b4 <i_2978>:
    800030b4:	03cdde3b          	divuw	t3,s11,t3

00000000800030b8 <i_2979>:
    800030b8:	04311423          	sh	gp,72(sp)

00000000800030bc <i_2980>:
    800030bc:	09c11f23          	sh	t3,158(sp)

00000000800030c0 <i_2981>:
    800030c0:	01660633          	add	a2,a2,s6

00000000800030c4 <i_2982>:
    800030c4:	06a15183          	lhu	gp,106(sp)

00000000800030c8 <i_2983>:
    800030c8:	ea816b83          	lwu	s7,-344(sp)

00000000800030cc <i_2984>:
    800030cc:	84554bb7          	lui	s7,0x84554

00000000800030d0 <i_2985>:
    800030d0:	06710b03          	lb	s6,103(sp)

00000000800030d4 <i_2986>:
    800030d4:	89000613          	li	a2,-1904

00000000800030d8 <i_2987>:
    800030d8:	89e00193          	li	gp,-1890

00000000800030dc <i_2988>:
    800030dc:	00160613          	addi	a2,a2,1
    800030e0:	fe364ee3          	blt	a2,gp,800030dc <i_2988>

00000000800030e4 <i_2989>:
    800030e4:	1c814483          	lbu	s1,456(sp)

00000000800030e8 <i_2990>:
    800030e8:	0295b1b3          	mulhu	gp,a1,s1

00000000800030ec <i_2991>:
    800030ec:	a7118d1b          	addiw	s10,gp,-1423

00000000800030f0 <i_2992>:
    800030f0:	409900b3          	sub	ra,s2,s1

00000000800030f4 <i_2993>:
    800030f4:	f2812783          	lw	a5,-216(sp)

00000000800030f8 <i_2994>:
    800030f8:	04813483          	ld	s1,72(sp)

00000000800030fc <i_2995>:
    800030fc:	00611183          	lh	gp,6(sp)

0000000080003100 <i_2996>:
    80003100:	01a7fd33          	and	s10,a5,s10

0000000080003104 <i_2997>:
    80003104:	01a7c663          	blt	a5,s10,80003110 <i_3000>

0000000080003108 <i_2998>:
    80003108:	dbcaca93          	xori	s5,s5,-580

000000008000310c <i_2999>:
    8000310c:	edc12403          	lw	s0,-292(sp)

0000000080003110 <i_3000>:
    80003110:	02f7e263          	bltu	a5,a5,80003134 <i_3009>

0000000080003114 <i_3001>:
    80003114:	001737b3          	sltu	a5,a4,ra

0000000080003118 <i_3002>:
    80003118:	17513423          	sd	s5,360(sp)

000000008000311c <i_3003>:
    8000311c:	e5012c83          	lw	s9,-432(sp)

0000000080003120 <i_3004>:
    80003120:	0ca11403          	lh	s0,202(sp)

0000000080003124 <i_3005>:
    80003124:	01d461b3          	or	gp,s0,t4

0000000080003128 <i_3006>:
    80003128:	00000013          	nop

000000008000312c <i_3007>:
    8000312c:	fa811383          	lh	t2,-88(sp)

0000000080003130 <i_3008>:
    80003130:	007607b3          	add	a5,a2,t2

0000000080003134 <i_3009>:
    80003134:	f0712223          	sw	t2,-252(sp)

0000000080003138 <i_3010>:
    80003138:	02f3d4bb          	divuw	s1,t2,a5

000000008000313c <i_3011>:
    8000313c:	84400413          	li	s0,-1980

0000000080003140 <i_3012>:
    80003140:	85600613          	li	a2,-1962

0000000080003144 <i_3013>:
    80003144:	02c59063          	bne	a1,a2,80003164 <i_3021>

0000000080003148 <i_3014>:
    80003148:	00000013          	nop

000000008000314c <i_3015>:
    8000314c:	06f10a23          	sb	a5,116(sp)

0000000080003150 <i_3016>:
    80003150:	02f12e23          	sw	a5,60(sp)

0000000080003154 <i_3017>:
    80003154:	f9811283          	lh	t0,-104(sp)

0000000080003158 <i_3018>:
    80003158:	00300493          	li	s1,3

000000008000315c <i_3019>:
    8000315c:	009654bb          	srlw	s1,a2,s1

0000000080003160 <i_3020>:
    80003160:	01000493          	li	s1,16

0000000080003164 <i_3021>:
    80003164:	4094d4bb          	sraw	s1,s1,s1

0000000080003168 <i_3022>:
    80003168:	0394e83b          	remw	a6,s1,s9

000000008000316c <i_3023>:
    8000316c:	fe412303          	lw	t1,-28(sp)

0000000080003170 <i_3024>:
    80003170:	02530063          	beq	t1,t0,80003190 <i_3031>

0000000080003174 <i_3025>:
    80003174:	00140413          	addi	s0,s0,1
    80003178:	fcc466e3          	bltu	s0,a2,80003144 <i_3013>

000000008000317c <i_3026>:
    8000317c:	0a511823          	sh	t0,176(sp)

0000000080003180 <i_3027>:
    80003180:	ed813683          	ld	a3,-296(sp)

0000000080003184 <i_3028>:
    80003184:	00000013          	nop

0000000080003188 <i_3029>:
    80003188:	e8c106a3          	sb	a2,-371(sp)

000000008000318c <i_3030>:
    8000318c:	193103a3          	sb	s3,391(sp)

0000000080003190 <i_3031>:
    80003190:	02d7e6b3          	rem	a3,a5,a3

0000000080003194 <i_3032>:
    80003194:	f4710383          	lb	t2,-185(sp)

0000000080003198 <i_3033>:
    80003198:	80800293          	li	t0,-2040

000000008000319c <i_3034>:
    8000319c:	81b00c13          	li	s8,-2021

00000000800031a0 <i_3035>:
    800031a0:	f6912023          	sw	s1,-160(sp)

00000000800031a4 <i_3036>:
    800031a4:	e9711423          	sh	s7,-376(sp)

00000000800031a8 <i_3037>:
    800031a8:	00000013          	nop

00000000800031ac <i_3038>:
    800031ac:	0337feb3          	remu	t4,a5,s3

00000000800031b0 <i_3039>:
    800031b0:	01a00993          	li	s3,26

00000000800031b4 <i_3040>:
    800031b4:	013217bb          	sllw	a5,tp,s3

00000000800031b8 <i_3041>:
    800031b8:	15012683          	lw	a3,336(sp)

00000000800031bc <i_3042>:
    800031bc:	02fc4233          	div	tp,s8,a5

00000000800031c0 <i_3043>:
    800031c0:	e8813603          	ld	a2,-376(sp)

00000000800031c4 <i_3044>:
    800031c4:	edc15603          	lhu	a2,-292(sp)

00000000800031c8 <i_3045>:
    800031c8:	00128293          	addi	t0,t0,1
    800031cc:	fc5c7ae3          	bleu	t0,s8,800031a0 <i_3035>

00000000800031d0 <i_3046>:
    800031d0:	01c12b83          	lw	s7,28(sp)

00000000800031d4 <i_3047>:
    800031d4:	f1313823          	sd	s3,-240(sp)

00000000800031d8 <i_3048>:
    800031d8:	06413023          	sd	tp,96(sp)

00000000800031dc <i_3049>:
    800031dc:	11712c23          	sw	s7,280(sp)

00000000800031e0 <i_3050>:
    800031e0:	004649b3          	xor	s3,a2,tp

00000000800031e4 <i_3051>:
    800031e4:	01398663          	beq	s3,s3,800031f0 <i_3054>

00000000800031e8 <i_3052>:
    800031e8:	0339f83b          	remuw	a6,s3,s3

00000000800031ec <i_3053>:
    800031ec:	00561263          	bne	a2,t0,800031f0 <i_3054>

00000000800031f0 <i_3054>:
    800031f0:	f1414783          	lbu	a5,-236(sp)

00000000800031f4 <i_3055>:
    800031f4:	00f6e463          	bltu	a3,a5,800031fc <i_3057>

00000000800031f8 <i_3056>:
    800031f8:	12814183          	lbu	gp,296(sp)

00000000800031fc <i_3057>:
    800031fc:	02c9c063          	blt	s3,a2,8000321c <i_3065>

0000000080003200 <i_3058>:
    80003200:	ef215083          	lhu	ra,-270(sp)

0000000080003204 <i_3059>:
    80003204:	02c203bb          	mulw	t2,tp,a2

0000000080003208 <i_3060>:
    80003208:	ec111c23          	sh	ra,-296(sp)

000000008000320c <i_3061>:
    8000320c:	e4e15603          	lhu	a2,-434(sp)

0000000080003210 <i_3062>:
    80003210:	00c65263          	ble	a2,a2,80003214 <i_3063>

0000000080003214 <i_3063>:
    80003214:	00164663          	blt	a2,ra,80003220 <i_3066>

0000000080003218 <i_3064>:
    80003218:	0073fc63          	bleu	t2,t2,80003230 <i_3070>

000000008000321c <i_3065>:
    8000321c:	00c66263          	bltu	a2,a2,80003220 <i_3066>

0000000080003220 <i_3066>:
    80003220:	00c66333          	or	t1,a2,a2

0000000080003224 <i_3067>:
    80003224:	08713023          	sd	t2,128(sp)

0000000080003228 <i_3068>:
    80003228:	f2611d23          	sh	t1,-198(sp)

000000008000322c <i_3069>:
    8000322c:	0013539b          	srliw	t2,t1,0x1

0000000080003230 <i_3070>:
    80003230:	0020d09b          	srliw	ra,ra,0x2

0000000080003234 <i_3071>:
    80003234:	8467c093          	xori	ra,a5,-1978

0000000080003238 <i_3072>:
    80003238:	77400613          	li	a2,1908

000000008000323c <i_3073>:
    8000323c:	77d00313          	li	t1,1917

0000000080003240 <i_3074>:
    80003240:	0a415203          	lhu	tp,164(sp)

0000000080003244 <i_3075>:
    80003244:	00000013          	nop

0000000080003248 <i_3076>:
    80003248:	01200a93          	li	s5,18

000000008000324c <i_3077>:
    8000324c:	4150d4bb          	sraw	s1,ra,s5

0000000080003250 <i_3078>:
    80003250:	1a111923          	sh	ra,434(sp)

0000000080003254 <i_3079>:
    80003254:	f8711923          	sh	t2,-110(sp)

0000000080003258 <i_3080>:
    80003258:	f8eab093          	sltiu	ra,s5,-114

000000008000325c <i_3081>:
    8000325c:	10015a83          	lhu	s5,256(sp)

0000000080003260 <i_3082>:
    80003260:	035ac0b3          	div	ra,s5,s5

0000000080003264 <i_3083>:
    80003264:	0f410083          	lb	ra,244(sp)

0000000080003268 <i_3084>:
    80003268:	00160613          	addi	a2,a2,1
    8000326c:	fcc37ae3          	bleu	a2,t1,80003240 <i_3074>

0000000080003270 <i_3085>:
    80003270:	fbb10923          	sb	s11,-78(sp)

0000000080003274 <i_3086>:
    80003274:	01509a63          	bne	ra,s5,80003288 <i_3091>

0000000080003278 <i_3087>:
    80003278:	fb510923          	sb	s5,-78(sp)

000000008000327c <i_3088>:
    8000327c:	01b08db3          	add	s11,ra,s11

0000000080003280 <i_3089>:
    80003280:	fbb11823          	sh	s11,-80(sp)

0000000080003284 <i_3090>:
    80003284:	01108863          	beq	ra,a7,80003294 <i_3094>

0000000080003288 <i_3091>:
    80003288:	e8c12d03          	lw	s10,-372(sp)

000000008000328c <i_3092>:
    8000328c:	03ad0dbb          	mulw	s11,s10,s10

0000000080003290 <i_3093>:
    80003290:	f3813f03          	ld	t5,-200(sp)

0000000080003294 <i_3094>:
    80003294:	01ef6e63          	bltu	t5,t5,800032b0 <i_3101>

0000000080003298 <i_3095>:
    80003298:	f8011c83          	lh	s9,-128(sp)

000000008000329c <i_3096>:
    8000329c:	01bd7663          	bleu	s11,s10,800032a8 <i_3099>

00000000800032a0 <i_3097>:
    800032a0:	e7b12623          	sw	s11,-404(sp)

00000000800032a4 <i_3098>:
    800032a4:	fe810d83          	lb	s11,-24(sp)

00000000800032a8 <i_3099>:
    800032a8:	00000013          	nop

00000000800032ac <i_3100>:
    800032ac:	01b12423          	sw	s11,8(sp)

00000000800032b0 <i_3101>:
    800032b0:	01bd73b3          	and	t2,s10,s11

00000000800032b4 <i_3102>:
    800032b4:	03a7e7bb          	remw	a5,a5,s10

00000000800032b8 <i_3103>:
    800032b8:	87900213          	li	tp,-1927

00000000800032bc <i_3104>:
    800032bc:	88900d13          	li	s10,-1911

00000000800032c0 <i_3105>:
    800032c0:	01a00193          	li	gp,26

00000000800032c4 <i_3106>:
    800032c4:	0037ddbb          	srlw	s11,a5,gp

00000000800032c8 <i_3107>:
    800032c8:	9af62513          	slti	a0,a2,-1617

00000000800032cc <i_3108>:
    800032cc:	001d9193          	slli	gp,s11,0x1

00000000800032d0 <i_3109>:
    800032d0:	01b98633          	add	a2,s3,s11

00000000800032d4 <i_3110>:
    800032d4:	00ad9e63          	bne	s11,a0,800032f0 <i_3116>

00000000800032d8 <i_3111>:
    800032d8:	0123acb3          	slt	s9,t2,s2

00000000800032dc <i_3112>:
    800032dc:	e6f11c23          	sh	a5,-392(sp)

00000000800032e0 <i_3113>:
    800032e0:	00120213          	addi	tp,tp,1 # 1 <main-0x7fffffff>
    800032e4:	fda26ee3          	bltu	tp,s10,800032c0 <i_3105>

00000000800032e8 <i_3114>:
    800032e8:	e3813503          	ld	a0,-456(sp)

00000000800032ec <i_3115>:
    800032ec:	027dd063          	ble	t2,s11,8000330c <i_3123>

00000000800032f0 <i_3116>:
    800032f0:	02c1563b          	divuw	a2,sp,a2

00000000800032f4 <i_3117>:
    800032f4:	f8010603          	lb	a2,-128(sp)

00000000800032f8 <i_3118>:
    800032f8:	402ddf13          	srai	t5,s11,0x2

00000000800032fc <i_3119>:
    800032fc:	17e14603          	lbu	a2,382(sp)

0000000080003300 <i_3120>:
    80003300:	40315793          	srai	a5,sp,0x3

0000000080003304 <i_3121>:
    80003304:	00c2c463          	blt	t0,a2,8000330c <i_3123>

0000000080003308 <i_3122>:
    80003308:	efe12e23          	sw	t5,-260(sp)

000000008000330c <i_3123>:
    8000330c:	01a00193          	li	gp,26

0000000080003310 <i_3124>:
    80003310:	40365a3b          	sraw	s4,a2,gp

0000000080003314 <i_3125>:
    80003314:	1a816503          	lwu	a0,424(sp)

0000000080003318 <i_3126>:
    80003318:	00400813          	li	a6,4

000000008000331c <i_3127>:
    8000331c:	41055633          	sra	a2,a0,a6

0000000080003320 <i_3128>:
    80003320:	00a9c663          	blt	s3,a0,8000332c <i_3131>

0000000080003324 <i_3129>:
    80003324:	e7712423          	sw	s7,-408(sp)

0000000080003328 <i_3130>:
    80003328:	eca13023          	sd	a0,-320(sp)

000000008000332c <i_3131>:
    8000332c:	0ac11b23          	sh	a2,182(sp)

0000000080003330 <i_3132>:
    80003330:	01e00813          	li	a6,30

0000000080003334 <i_3133>:
    80003334:	41055f3b          	sraw	t5,a0,a6

0000000080003338 <i_3134>:
    80003338:	19013c23          	sd	a6,408(sp)

000000008000333c <i_3135>:
    8000333c:	02ca5463          	ble	a2,s4,80003364 <i_3145>

0000000080003340 <i_3136>:
    80003340:	e4c13c23          	sd	a2,-424(sp)

0000000080003344 <i_3137>:
    80003344:	13611603          	lh	a2,310(sp)

0000000080003348 <i_3138>:
    80003348:	00c61263          	bne	a2,a2,8000334c <i_3139>

000000008000334c <i_3139>:
    8000334c:	fbe15a03          	lhu	s4,-66(sp)

0000000080003350 <i_3140>:
    80003350:	03e65db3          	divu	s11,a2,t5

0000000080003354 <i_3141>:
    80003354:	2eee17b7          	lui	a5,0x2eee1

0000000080003358 <i_3142>:
    80003358:	00239f13          	slli	t5,t2,0x2

000000008000335c <i_3143>:
    8000335c:	e7812e03          	lw	t3,-392(sp)

0000000080003360 <i_3144>:
    80003360:	03ef5f3b          	divuw	t5,t5,t5

0000000080003364 <i_3145>:
    80003364:	0b013f03          	ld	t5,176(sp)

0000000080003368 <i_3146>:
    80003368:	1de10423          	sb	t5,456(sp)

000000008000336c <i_3147>:
    8000336c:	76700613          	li	a2,1895

0000000080003370 <i_3148>:
    80003370:	77800813          	li	a6,1912

0000000080003374 <i_3149>:
    80003374:	02200c13          	li	s8,34

0000000080003378 <i_3150>:
    80003378:	41865f33          	sra	t5,a2,s8

000000008000337c <i_3151>:
    8000337c:	01e65663          	ble	t5,a2,80003388 <i_3154>

0000000080003380 <i_3152>:
    80003380:	cf1ee197          	auipc	gp,0xcf1ee

0000000080003384 <i_3153>:
    80003384:	00000013          	nop

0000000080003388 <i_3154>:
    80003388:	0b815f03          	lhu	t5,184(sp)

000000008000338c <i_3155>:
    8000338c:	fe411f03          	lh	t5,-28(sp)

0000000080003390 <i_3156>:
    80003390:	00315263          	ble	gp,sp,80003394 <i_3157>

0000000080003394 <i_3157>:
    80003394:	18810183          	lb	gp,392(sp)

0000000080003398 <i_3158>:
    80003398:	19c16a03          	lwu	s4,412(sp)

000000008000339c <i_3159>:
    8000339c:	00160613          	addi	a2,a2,1
    800033a0:	fcc87ae3          	bleu	a2,a6,80003374 <i_3149>

00000000800033a4 <i_3160>:
    800033a4:	f5813423          	sd	s8,-184(sp)

00000000800033a8 <i_3161>:
    800033a8:	014f2c33          	slt	s8,t5,s4

00000000800033ac <i_3162>:
    800033ac:	2926869b          	addiw	a3,a3,658

00000000800033b0 <i_3163>:
    800033b0:	fb416b83          	lwu	s7,-76(sp)

00000000800033b4 <i_3164>:
    800033b4:	02dd653b          	remw	a0,s10,a3

00000000800033b8 <i_3165>:
    800033b8:	00d51463          	bne	a0,a3,800033c0 <i_3167>

00000000800033bc <i_3166>:
    800033bc:	01cbdc63          	ble	t3,s7,800033d4 <i_3172>

00000000800033c0 <i_3167>:
    800033c0:	419c0c3b          	subw	s8,s8,s9

00000000800033c4 <i_3168>:
    800033c4:	0aa11423          	sh	a0,168(sp)

00000000800033c8 <i_3169>:
    800033c8:	02ac3533          	mulhu	a0,s8,a0

00000000800033cc <i_3170>:
    800033cc:	038c2c33          	mulhsu	s8,s8,s8

00000000800033d0 <i_3171>:
    800033d0:	0a813603          	ld	a2,168(sp)

00000000800033d4 <i_3172>:
    800033d4:	0a714603          	lbu	a2,167(sp)

00000000800033d8 <i_3173>:
    800033d8:	e7812c03          	lw	s8,-392(sp)

00000000800033dc <i_3174>:
    800033dc:	002b1c13          	slli	s8,s6,0x2

00000000800033e0 <i_3175>:
    800033e0:	0a412603          	lw	a2,164(sp)

00000000800033e4 <i_3176>:
    800033e4:	01150263          	beq	a0,a7,800033e8 <i_3177>

00000000800033e8 <i_3177>:
    800033e8:	01a00f13          	li	t5,26

00000000800033ec <i_3178>:
    800033ec:	41ed54bb          	sraw	s1,s10,t5

00000000800033f0 <i_3179>:
    800033f0:	03164463          	blt	a2,a7,80003418 <i_3189>

00000000800033f4 <i_3180>:
    800033f4:	e2c13823          	sd	a2,-464(sp)

00000000800033f8 <i_3181>:
    800033f8:	00960463          	beq	a2,s1,80003400 <i_3183>

00000000800033fc <i_3182>:
    800033fc:	00d9b9b3          	sltu	s3,s3,a3

0000000080003400 <i_3183>:
    80003400:	00911923          	sh	s1,18(sp)

0000000080003404 <i_3184>:
    80003404:	01e4cf33          	xor	t5,s1,t5

0000000080003408 <i_3185>:
    80003408:	11211603          	lh	a2,274(sp)

000000008000340c <i_3186>:
    8000340c:	e9412583          	lw	a1,-364(sp)

0000000080003410 <i_3187>:
    80003410:	f8d13823          	sd	a3,-112(sp)

0000000080003414 <i_3188>:
    80003414:	00000013          	nop

0000000080003418 <i_3189>:
    80003418:	16c100a3          	sb	a2,353(sp)

000000008000341c <i_3190>:
    8000341c:	00000013          	nop

0000000080003420 <i_3191>:
    80003420:	77c00093          	li	ra,1916

0000000080003424 <i_3192>:
    80003424:	78600d13          	li	s10,1926

0000000080003428 <i_3193>:
    80003428:	00000013          	nop

000000008000342c <i_3194>:
    8000342c:	01e0f633          	and	a2,ra,t5

0000000080003430 <i_3195>:
    80003430:	84b00493          	li	s1,-1973

0000000080003434 <i_3196>:
    80003434:	85e00a13          	li	s4,-1954

0000000080003438 <i_3197>:
    80003438:	96377317          	auipc	t1,0x96377

000000008000343c <i_3198>:
    8000343c:	19413023          	sd	s4,384(sp)

0000000080003440 <i_3199>:
    80003440:	ef015f03          	lhu	t5,-272(sp)

0000000080003444 <i_3200>:
    80003444:	00148493          	addi	s1,s1,1
    80003448:	fe9a78e3          	bleu	s1,s4,80003438 <i_3197>

000000008000344c <i_3201>:
    8000344c:	05c11023          	sh	t3,64(sp)

0000000080003450 <i_3202>:
    80003450:	e1c15983          	lhu	s3,-484(sp)

0000000080003454 <i_3203>:
    80003454:	00f1ce63          	blt	gp,a5,80003470 <i_3209>

0000000080003458 <i_3204>:
    80003458:	00108093          	addi	ra,ra,1
    8000345c:	fc1d76e3          	bleu	ra,s10,80003428 <i_3193>

0000000080003460 <i_3205>:
    80003460:	0190e863          	bltu	ra,s9,80003470 <i_3209>

0000000080003464 <i_3206>:
    80003464:	40f187b3          	sub	a5,gp,a5

0000000080003468 <i_3207>:
    80003468:	f3812e83          	lw	t4,-200(sp)

000000008000346c <i_3208>:
    8000346c:	00a00813          	li	a6,10

0000000080003470 <i_3209>:
    80003470:	010edebb          	srlw	t4,t4,a6

0000000080003474 <i_3210>:
    80003474:	01d1e1b3          	or	gp,gp,t4

0000000080003478 <i_3211>:
    80003478:	ea311823          	sh	gp,-336(sp)

000000008000347c <i_3212>:
    8000347c:	04310923          	sb	gp,82(sp)

0000000080003480 <i_3213>:
    80003480:	0031e463          	bltu	gp,gp,80003488 <i_3215>

0000000080003484 <i_3214>:
    80003484:	010efe63          	bleu	a6,t4,800034a0 <i_3221>

0000000080003488 <i_3215>:
    80003488:	07012083          	lw	ra,112(sp)

000000008000348c <i_3216>:
    8000348c:	00b00813          	li	a6,11

0000000080003490 <i_3217>:
    80003490:	0108d233          	srl	tp,a7,a6

0000000080003494 <i_3218>:
    80003494:	08016803          	lwu	a6,128(sp)

0000000080003498 <i_3219>:
    80003498:	01080833          	add	a6,a6,a6

000000008000349c <i_3220>:
    8000349c:	030a0d3b          	mulw	s10,s4,a6

00000000800034a0 <i_3221>:
    800034a0:	ed412e83          	lw	t4,-300(sp)

00000000800034a4 <i_3222>:
    800034a4:	004e9813          	slli	a6,t4,0x4

00000000800034a8 <i_3223>:
    800034a8:	01686c63          	bltu	a6,s6,800034c0 <i_3229>

00000000800034ac <i_3224>:
    800034ac:	00000013          	nop

00000000800034b0 <i_3225>:
    800034b0:	00000013          	nop

00000000800034b4 <i_3226>:
    800034b4:	e3d10023          	sb	t4,-480(sp)

00000000800034b8 <i_3227>:
    800034b8:	00000013          	nop

00000000800034bc <i_3228>:
    800034bc:	0eb10503          	lb	a0,235(sp)

00000000800034c0 <i_3229>:
    800034c0:	00ab2533          	slt	a0,s6,a0

00000000800034c4 <i_3230>:
    800034c4:	0362553b          	divuw	a0,tp,s6

00000000800034c8 <i_3231>:
    800034c8:	8a100f13          	li	t5,-1887

00000000800034cc <i_3232>:
    800034cc:	8a400213          	li	tp,-1884

00000000800034d0 <i_3233>:
    800034d0:	ef514a03          	lbu	s4,-267(sp)

00000000800034d4 <i_3234>:
    800034d4:	02a57533          	remu	a0,a0,a0

00000000800034d8 <i_3235>:
    800034d8:	78100e93          	li	t4,1921

00000000800034dc <i_3236>:
    800034dc:	79500b13          	li	s6,1941

00000000800034e0 <i_3237>:
    800034e0:	f6e14583          	lbu	a1,-146(sp)

00000000800034e4 <i_3238>:
    800034e4:	02a542bb          	divw	t0,a0,a0

00000000800034e8 <i_3239>:
    800034e8:	02bef263          	bleu	a1,t4,8000350c <i_3246>

00000000800034ec <i_3240>:
    800034ec:	001e8e93          	addi	t4,t4,1
    800034f0:	ff6ec8e3          	blt	t4,s6,800034e0 <i_3237>

00000000800034f4 <i_3241>:
    800034f4:	00351c93          	slli	s9,a0,0x3

00000000800034f8 <i_3242>:
    800034f8:	001f0f13          	addi	t5,t5,1
    800034fc:	fc4f1ae3          	bne	t5,tp,800034d0 <i_3233>

0000000080003500 <i_3243>:
    80003500:	e5813683          	ld	a3,-424(sp)

0000000080003504 <i_3244>:
    80003504:	1a810523          	sb	s0,426(sp)

0000000080003508 <i_3245>:
    80003508:	12c16583          	lwu	a1,300(sp)

000000008000350c <i_3246>:
    8000350c:	1cb11a23          	sh	a1,468(sp)

0000000080003510 <i_3247>:
    80003510:	02b6e6bb          	remw	a3,a3,a1

0000000080003514 <i_3248>:
    80003514:	09912c23          	sw	s9,152(sp)

0000000080003518 <i_3249>:
    80003518:	00d6a5b3          	slt	a1,a3,a3

000000008000351c <i_3250>:
    8000351c:	e9614403          	lbu	s0,-362(sp)

0000000080003520 <i_3251>:
    80003520:	0a415983          	lhu	s3,164(sp)

0000000080003524 <i_3252>:
    80003524:	7a400c93          	li	s9,1956

0000000080003528 <i_3253>:
    80003528:	7ab00693          	li	a3,1963

000000008000352c <i_3254>:
    8000352c:	03b00d93          	li	s11,59

0000000080003530 <i_3255>:
    80003530:	01b999b3          	sll	s3,s3,s11

0000000080003534 <i_3256>:
    80003534:	8cf00293          	li	t0,-1841

0000000080003538 <i_3257>:
    80003538:	8d900493          	li	s1,-1831

000000008000353c <i_3258>:
    8000353c:	16b10ba3          	sb	a1,375(sp)

0000000080003540 <i_3259>:
    80003540:	4039d59b          	sraiw	a1,s3,0x3

0000000080003544 <i_3260>:
    80003544:	0139d263          	ble	s3,s3,80003548 <i_3261>

0000000080003548 <i_3261>:
    80003548:	f4811d83          	lh	s11,-184(sp)

000000008000354c <i_3262>:
    8000354c:	e5412583          	lw	a1,-428(sp)

0000000080003550 <i_3263>:
    80003550:	00128293          	addi	t0,t0,1
    80003554:	fe9294e3          	bne	t0,s1,8000353c <i_3258>

0000000080003558 <i_3264>:
    80003558:	f3b11c23          	sh	s11,-200(sp)

000000008000355c <i_3265>:
    8000355c:	033dee3b          	remw	t3,s11,s3

0000000080003560 <i_3266>:
    80003560:	06214d83          	lbu	s11,98(sp)

0000000080003564 <i_3267>:
    80003564:	1b012303          	lw	t1,432(sp)

0000000080003568 <i_3268>:
    80003568:	19415a03          	lhu	s4,404(sp)

000000008000356c <i_3269>:
    8000356c:	001c8c93          	addi	s9,s9,1
    80003570:	fadceee3          	bltu	s9,a3,8000352c <i_3254>

0000000080003574 <i_3270>:
    80003574:	06611b23          	sh	t1,118(sp)

0000000080003578 <i_3271>:
    80003578:	ff413023          	sd	s4,-32(sp)

000000008000357c <i_3272>:
    8000357c:	13814a03          	lbu	s4,312(sp)

0000000080003580 <i_3273>:
    80003580:	64da4b13          	xori	s6,s4,1613

0000000080003584 <i_3274>:
    80003584:	01615483          	lhu	s1,22(sp)

0000000080003588 <i_3275>:
    80003588:	03648b3b          	mulw	s6,s1,s6

000000008000358c <i_3276>:
    8000358c:	05612c23          	sw	s6,88(sp)

0000000080003590 <i_3277>:
    80003590:	990b2a13          	slti	s4,s6,-1648

0000000080003594 <i_3278>:
    80003594:	009b64b3          	or	s1,s6,s1

0000000080003598 <i_3279>:
    80003598:	00700b13          	li	s6,7

000000008000359c <i_3280>:
    8000359c:	416adb3b          	sraw	s6,s5,s6

00000000800035a0 <i_3281>:
    800035a0:	73900a93          	li	s5,1849

00000000800035a4 <i_3282>:
    800035a4:	74800f13          	li	t5,1864

00000000800035a8 <i_3283>:
    800035a8:	033b79b3          	remu	s3,s6,s3

00000000800035ac <i_3284>:
    800035ac:	033f53bb          	divuw	t2,t5,s3

00000000800035b0 <i_3285>:
    800035b0:	f3310fa3          	sb	s3,-193(sp)

00000000800035b4 <i_3286>:
    800035b4:	001a8a93          	addi	s5,s5,1
    800035b8:	ffeac8e3          	blt	s5,t5,800035a8 <i_3283>

00000000800035bc <i_3287>:
    800035bc:	00000013          	nop

00000000800035c0 <i_3288>:
    800035c0:	03b00b13          	li	s6,59

00000000800035c4 <i_3289>:
    800035c4:	4163d9b3          	sra	s3,t2,s6

00000000800035c8 <i_3290>:
    800035c8:	08710523          	sb	t2,138(sp)

00000000800035cc <i_3291>:
    800035cc:	02750533          	mul	a0,a0,t2

00000000800035d0 <i_3292>:
    800035d0:	01f50a63          	beq	a0,t6,800035e4 <i_3297>

00000000800035d4 <i_3293>:
    800035d4:	f0e11503          	lh	a0,-242(sp)

00000000800035d8 <i_3294>:
    800035d8:	ff714503          	lbu	a0,-9(sp)

00000000800035dc <i_3295>:
    800035dc:	67753b13          	sltiu	s6,a0,1655

00000000800035e0 <i_3296>:
    800035e0:	e7c16303          	lwu	t1,-388(sp)

00000000800035e4 <i_3297>:
    800035e4:	14812a83          	lw	s5,328(sp)

00000000800035e8 <i_3298>:
    800035e8:	ecc15a03          	lhu	s4,-308(sp)

00000000800035ec <i_3299>:
    800035ec:	e6f10503          	lb	a0,-401(sp)

00000000800035f0 <i_3300>:
    800035f0:	0e416303          	lwu	t1,228(sp)

00000000800035f4 <i_3301>:
    800035f4:	f4a11323          	sh	a0,-186(sp)

00000000800035f8 <i_3302>:
    800035f8:	ec811683          	lh	a3,-312(sp)

00000000800035fc <i_3303>:
    800035fc:	00d686b3          	add	a3,a3,a3

0000000080003600 <i_3304>:
    80003600:	16c11583          	lh	a1,364(sp)

0000000080003604 <i_3305>:
    80003604:	03755db3          	divu	s11,a0,s7

0000000080003608 <i_3306>:
    80003608:	00637e63          	bleu	t1,t1,80003624 <i_3313>

000000008000360c <i_3307>:
    8000360c:	ec112623          	sw	ra,-308(sp)

0000000080003610 <i_3308>:
    80003610:	00d51a63          	bne	a0,a3,80003624 <i_3313>

0000000080003614 <i_3309>:
    80003614:	02816683          	lwu	a3,40(sp)

0000000080003618 <i_3310>:
    80003618:	fc612e23          	sw	t1,-36(sp)

000000008000361c <i_3311>:
    8000361c:	1e011983          	lh	s3,480(sp)

0000000080003620 <i_3312>:
    80003620:	00231213          	slli	tp,t1,0x2

0000000080003624 <i_3313>:
    80003624:	00000013          	nop

0000000080003628 <i_3314>:
    80003628:	fc811b23          	sh	s0,-42(sp)

000000008000362c <i_3315>:
    8000362c:	7c200213          	li	tp,1986

0000000080003630 <i_3316>:
    80003630:	7cc00493          	li	s1,1996

0000000080003634 <i_3317>:
    80003634:	ecd11223          	sh	a3,-316(sp)

0000000080003638 <i_3318>:
    80003638:	03c10d83          	lb	s11,60(sp)

000000008000363c <i_3319>:
    8000363c:	00120213          	addi	tp,tp,1 # 1 <main-0x7fffffff>
    80003640:	fe926ae3          	bltu	tp,s1,80003634 <i_3317>

0000000080003644 <i_3320>:
    80003644:	0365e263          	bltu	a1,s6,80003668 <i_3329>

0000000080003648 <i_3321>:
    80003648:	026356bb          	divuw	a3,t1,t1

000000008000364c <i_3322>:
    8000364c:	eb015503          	lhu	a0,-336(sp)

0000000080003650 <i_3323>:
    80003650:	03e6f463          	bleu	t5,a3,80003678 <i_3333>

0000000080003654 <i_3324>:
    80003654:	18215c83          	lhu	s9,386(sp)

0000000080003658 <i_3325>:
    80003658:	00b1c6b3          	xor	a3,gp,a1

000000008000365c <i_3326>:
    8000365c:	01913c23          	sd	s9,24(sp)

0000000080003660 <i_3327>:
    80003660:	f6f13823          	sd	a5,-144(sp)

0000000080003664 <i_3328>:
    80003664:	02b56063          	bltu	a0,a1,80003684 <i_3336>

0000000080003668 <i_3329>:
    80003668:	00e35e63          	ble	a4,t1,80003684 <i_3336>

000000008000366c <i_3330>:
    8000366c:	00424e63          	blt	tp,tp,80003688 <i_3337>

0000000080003670 <i_3331>:
    80003670:	1e416603          	lwu	a2,484(sp)

0000000080003674 <i_3332>:
    80003674:	e3714a83          	lbu	s5,-457(sp)

0000000080003678 <i_3333>:
    80003678:	fa412c23          	sw	tp,-72(sp)

000000008000367c <i_3334>:
    8000367c:	07410f03          	lb	t5,116(sp)

0000000080003680 <i_3335>:
    80003680:	1a612023          	sw	t1,416(sp)

0000000080003684 <i_3336>:
    80003684:	abeacf37          	lui	t5,0xabeac

0000000080003688 <i_3337>:
    80003688:	024a5533          	divu	a0,s4,tp

000000008000368c <i_3338>:
    8000368c:	2ef18d97          	auipc	s11,0x2ef18

0000000080003690 <i_3339>:
    80003690:	03b00513          	li	a0,59

0000000080003694 <i_3340>:
    80003694:	00a6df33          	srl	t5,a3,a0

0000000080003698 <i_3341>:
    80003698:	f9812c83          	lw	s9,-104(sp)

000000008000369c <i_3342>:
    8000369c:	00465663          	ble	tp,a2,800036a8 <i_3345>

00000000800036a0 <i_3343>:
    800036a0:	039f76bb          	remuw	a3,t5,s9

00000000800036a4 <i_3344>:
    800036a4:	ed414c83          	lbu	s9,-300(sp)

00000000800036a8 <i_3345>:
    800036a8:	019f0463          	beq	t5,s9,800036b0 <i_3347>

00000000800036ac <i_3346>:
    800036ac:	039ce63b          	remw	a2,s9,s9

00000000800036b0 <i_3347>:
    800036b0:	0399e9bb          	remw	s3,s3,s9

00000000800036b4 <i_3348>:
    800036b4:	0a411083          	lh	ra,164(sp)

00000000800036b8 <i_3349>:
    800036b8:	0390f263          	bleu	s9,ra,800036dc <i_3358>

00000000800036bc <i_3350>:
    800036bc:	e1912e23          	sw	s9,-484(sp)

00000000800036c0 <i_3351>:
    800036c0:	1daf2c93          	slti	s9,t5,474

00000000800036c4 <i_3352>:
    800036c4:	14c11603          	lh	a2,332(sp)

00000000800036c8 <i_3353>:
    800036c8:	03df1233          	mulh	tp,t5,t4

00000000800036cc <i_3354>:
    800036cc:	fbe10da3          	sb	t5,-69(sp)

00000000800036d0 <i_3355>:
    800036d0:	0230f233          	remu	tp,ra,gp

00000000800036d4 <i_3356>:
    800036d4:	03920ebb          	mulw	t4,tp,s9

00000000800036d8 <i_3357>:
    800036d8:	1b114603          	lbu	a2,433(sp)

00000000800036dc <i_3358>:
    800036dc:	01e383b3          	add	t2,t2,t5

00000000800036e0 <i_3359>:
    800036e0:	01012b83          	lw	s7,16(sp)

00000000800036e4 <i_3360>:
    800036e4:	012c7463          	bleu	s2,s8,800036ec <i_3362>

00000000800036e8 <i_3361>:
    800036e8:	e7e11b23          	sh	t5,-394(sp)

00000000800036ec <i_3362>:
    800036ec:	03311423          	sh	s3,40(sp)

00000000800036f0 <i_3363>:
    800036f0:	00500b13          	li	s6,5

00000000800036f4 <i_3364>:
    800036f4:	016999bb          	sllw	s3,s3,s6

00000000800036f8 <i_3365>:
    800036f8:	013b4f33          	xor	t5,s6,s3

00000000800036fc <i_3366>:
    800036fc:	01e11c23          	sh	t5,24(sp)

0000000080003700 <i_3367>:
    80003700:	01813f03          	ld	t5,24(sp)

0000000080003704 <i_3368>:
    80003704:	01e9c863          	blt	s3,t5,80003714 <i_3372>

0000000080003708 <i_3369>:
    80003708:	e3a15d03          	lhu	s10,-454(sp)

000000008000370c <i_3370>:
    8000370c:	03a9fd3b          	remuw	s10,s3,s10

0000000080003710 <i_3371>:
    80003710:	01eb4c63          	blt	s6,t5,80003728 <i_3377>

0000000080003714 <i_3372>:
    80003714:	00c00693          	li	a3,12

0000000080003718 <i_3373>:
    80003718:	00d81833          	sll	a6,a6,a3

000000008000371c <i_3374>:
    8000371c:	f6410a03          	lb	s4,-156(sp)

0000000080003720 <i_3375>:
    80003720:	00d33333          	sltu	t1,t1,a3

0000000080003724 <i_3376>:
    80003724:	00dd0e63          	beq	s10,a3,80003740 <i_3383>

0000000080003728 <i_3377>:
    80003728:	03668263          	beq	a3,s6,8000374c <i_3386>

000000008000372c <i_3378>:
    8000372c:	11611503          	lh	a0,278(sp)

0000000080003730 <i_3379>:
    80003730:	013b7463          	bleu	s3,s6,80003738 <i_3381>

0000000080003734 <i_3380>:
    80003734:	0e813b03          	ld	s6,232(sp)

0000000080003738 <i_3381>:
    80003738:	ef611223          	sh	s6,-284(sp)

000000008000373c <i_3382>:
    8000373c:	ed411b03          	lh	s6,-300(sp)

0000000080003740 <i_3383>:
    80003740:	01657663          	bleu	s6,a0,8000374c <i_3386>

0000000080003744 <i_3384>:
    80003744:	e6215c03          	lhu	s8,-414(sp)

0000000080003748 <i_3385>:
    80003748:	036105bb          	mulw	a1,sp,s6

000000008000374c <i_3386>:
    8000374c:	e7816303          	lwu	t1,-392(sp)

0000000080003750 <i_3387>:
    80003750:	401b529b          	sraiw	t0,s6,0x1

0000000080003754 <i_3388>:
    80003754:	01d28863          	beq	t0,t4,80003764 <i_3392>

0000000080003758 <i_3389>:
    80003758:	fd615f03          	lhu	t5,-42(sp)

000000008000375c <i_3390>:
    8000375c:	e3610a23          	sb	s6,-460(sp)

0000000080003760 <i_3391>:
    80003760:	01e52533          	slt	a0,a0,t5

0000000080003764 <i_3392>:
    80003764:	01000513          	li	a0,16

0000000080003768 <i_3393>:
    80003768:	40af5c3b          	sraw	s8,t5,a0

000000008000376c <i_3394>:
    8000376c:	02a2ca3b          	divw	s4,t0,a0

0000000080003770 <i_3395>:
    80003770:	f3a10503          	lb	a0,-198(sp)

0000000080003774 <i_3396>:
    80003774:	f3214a03          	lbu	s4,-206(sp)

0000000080003778 <i_3397>:
    80003778:	e7412a83          	lw	s5,-396(sp)

000000008000377c <i_3398>:
    8000377c:	f7011e03          	lh	t3,-144(sp)

0000000080003780 <i_3399>:
    80003780:	14812a03          	lw	s4,328(sp)

0000000080003784 <i_3400>:
    80003784:	09413023          	sd	s4,128(sp)

0000000080003788 <i_3401>:
    80003788:	002e4463          	blt	t3,sp,80003790 <i_3403>

000000008000378c <i_3402>:
    8000378c:	fee11503          	lh	a0,-18(sp)

0000000080003790 <i_3403>:
    80003790:	03800813          	li	a6,56

0000000080003794 <i_3404>:
    80003794:	41055a33          	sra	s4,a0,a6

0000000080003798 <i_3405>:
    80003798:	f9413423          	sd	s4,-120(sp)

000000008000379c <i_3406>:
    8000379c:	fd811e23          	sh	s8,-36(sp)

00000000800037a0 <i_3407>:
    800037a0:	00451b13          	slli	s6,a0,0x4

00000000800037a4 <i_3408>:
    800037a4:	00ae0e33          	add	t3,t3,a0

00000000800037a8 <i_3409>:
    800037a8:	f5814b03          	lbu	s6,-168(sp)

00000000800037ac <i_3410>:
    800037ac:	03b00b93          	li	s7,59

00000000800037b0 <i_3411>:
    800037b0:	017b1b33          	sll	s6,s6,s7

00000000800037b4 <i_3412>:
    800037b4:	f7314e03          	lbu	t3,-141(sp)

00000000800037b8 <i_3413>:
    800037b8:	1a814e03          	lbu	t3,424(sp)

00000000800037bc <i_3414>:
    800037bc:	f3014b03          	lbu	s6,-208(sp)

00000000800037c0 <i_3415>:
    800037c0:	3af2a993          	slti	s3,t0,943

00000000800037c4 <i_3416>:
    800037c4:	00ae4a63          	blt	t3,a0,800037d8 <i_3421>

00000000800037c8 <i_3417>:
    800037c8:	e1e15283          	lhu	t0,-482(sp)

00000000800037cc <i_3418>:
    800037cc:	a4cf7f17          	auipc	t5,0xa4cf7

00000000800037d0 <i_3419>:
    800037d0:	fde15983          	lhu	s3,-34(sp)

00000000800037d4 <i_3420>:
    800037d4:	00199993          	slli	s3,s3,0x1

00000000800037d8 <i_3421>:
    800037d8:	1b3102a3          	sb	s3,421(sp)

00000000800037dc <i_3422>:
    800037dc:	1c510723          	sb	t0,462(sp)

00000000800037e0 <i_3423>:
    800037e0:	eac15983          	lhu	s3,-340(sp)

00000000800037e4 <i_3424>:
    800037e4:	00229b13          	slli	s6,t0,0x2

00000000800037e8 <i_3425>:
    800037e8:	e5611423          	sh	s6,-440(sp)

00000000800037ec <i_3426>:
    800037ec:	03eb1063          	bne	s6,t5,8000380c <i_3434>

00000000800037f0 <i_3427>:
    800037f0:	013b25b3          	slt	a1,s6,s3

00000000800037f4 <i_3428>:
    800037f4:	f8c12c03          	lw	s8,-116(sp)

00000000800037f8 <i_3429>:
    800037f8:	e4414b03          	lbu	s6,-444(sp)

00000000800037fc <i_3430>:
    800037fc:	025b4063          	blt	s6,t0,8000381c <i_3438>

0000000080003800 <i_3431>:
    80003800:	013b0463          	beq	s6,s3,80003808 <i_3433>

0000000080003804 <i_3432>:
    80003804:	004f5e93          	srli	t4,t5,0x4

0000000080003808 <i_3433>:
    80003808:	00500693          	li	a3,5

000000008000380c <i_3434>:
    8000380c:	00dc143b          	sllw	s0,s8,a3

0000000080003810 <i_3435>:
    80003810:	0239f9bb          	remuw	s3,s3,gp

0000000080003814 <i_3436>:
    80003814:	ff813083          	ld	ra,-8(sp)

0000000080003818 <i_3437>:
    80003818:	8466829b          	addiw	t0,a3,-1978

000000008000381c <i_3438>:
    8000381c:	1a5107a3          	sb	t0,431(sp)

0000000080003820 <i_3439>:
    80003820:	f6d12023          	sw	a3,-160(sp)

0000000080003824 <i_3440>:
    80003824:	0030d69b          	srliw	a3,ra,0x3

0000000080003828 <i_3441>:
    80003828:	14112223          	sw	ra,324(sp)

000000008000382c <i_3442>:
    8000382c:	0c812083          	lw	ra,200(sp)

0000000080003830 <i_3443>:
    80003830:	00d2f863          	bleu	a3,t0,80003840 <i_3447>

0000000080003834 <i_3444>:
    80003834:	0016979b          	slliw	a5,a3,0x1

0000000080003838 <i_3445>:
    80003838:	02f6d0bb          	divuw	ra,a3,a5

000000008000383c <i_3446>:
    8000383c:	01e00493          	li	s1,30

0000000080003840 <i_3447>:
    80003840:	0097d43b          	srlw	s0,a5,s1

0000000080003844 <i_3448>:
    80003844:	eef13023          	sd	a5,-288(sp)

0000000080003848 <i_3449>:
    80003848:	77c00793          	li	a5,1916

000000008000384c <i_3450>:
    8000384c:	79000693          	li	a3,1936

0000000080003850 <i_3451>:
    80003850:	0215043b          	mulw	s0,a0,ra

0000000080003854 <i_3452>:
    80003854:	f6c16503          	lwu	a0,-148(sp)

0000000080003858 <i_3453>:
    80003858:	00a4e263          	bltu	s1,a0,8000385c <i_3454>

000000008000385c <i_3454>:
    8000385c:	00ac8bb3          	add	s7,s9,a0

0000000080003860 <i_3455>:
    80003860:	028424b3          	mulhsu	s1,s0,s0

0000000080003864 <i_3456>:
    80003864:	0288f663          	bleu	s0,a7,80003890 <i_3466>

0000000080003868 <i_3457>:
    80003868:	fb711123          	sh	s7,-94(sp)

000000008000386c <i_3458>:
    8000386c:	029f4063          	blt	t5,s1,8000388c <i_3465>

0000000080003870 <i_3459>:
    80003870:	03755663          	ble	s7,a0,8000389c <i_3469>

0000000080003874 <i_3460>:
    80003874:	00178793          	addi	a5,a5,1 # 2eee1001 <main-0x5111efff>
    80003878:	fcf6dce3          	ble	a5,a3,80003850 <i_3451>

000000008000387c <i_3461>:
    8000387c:	408f80bb          	subw	ra,t6,s0

0000000080003880 <i_3462>:
    80003880:	07415b83          	lhu	s7,116(sp)

0000000080003884 <i_3463>:
    80003884:	407b8433          	sub	s0,s7,t2

0000000080003888 <i_3464>:
    80003888:	fe013383          	ld	t2,-32(sp)

000000008000388c <i_3465>:
    8000388c:	01840e63          	beq	s0,s8,800038a8 <i_3472>

0000000080003890 <i_3466>:
    80003890:	028f33b3          	mulhu	t2,t5,s0

0000000080003894 <i_3467>:
    80003894:	9a4c3213          	sltiu	tp,s8,-1628

0000000080003898 <i_3468>:
    80003898:	0076e863          	bltu	a3,t2,800038a8 <i_3472>

000000008000389c <i_3469>:
    8000389c:	01840c33          	add	s8,s0,s8

00000000800038a0 <i_3470>:
    800038a0:	e3816f03          	lwu	t5,-456(sp)

00000000800038a4 <i_3471>:
    800038a4:	02846f3b          	remw	t5,s0,s0

00000000800038a8 <i_3472>:
    800038a8:	0033d213          	srli	tp,t2,0x3

00000000800038ac <i_3473>:
    800038ac:	40245b9b          	sraiw	s7,s0,0x2

00000000800038b0 <i_3474>:
    800038b0:	01e47863          	bleu	t5,s0,800038c0 <i_3478>

00000000800038b4 <i_3475>:
    800038b4:	06016383          	lwu	t2,96(sp)

00000000800038b8 <i_3476>:
    800038b8:	00300f13          	li	t5,3

00000000800038bc <i_3477>:
    800038bc:	01e3deb3          	srl	t4,t2,t5

00000000800038c0 <i_3478>:
    800038c0:	01dbca63          	blt	s7,t4,800038d4 <i_3483>

00000000800038c4 <i_3479>:
    800038c4:	027383bb          	mulw	t2,t2,t2

00000000800038c8 <i_3480>:
    800038c8:	02d38263          	beq	t2,a3,800038ec <i_3489>

00000000800038cc <i_3481>:
    800038cc:	f6416083          	lwu	ra,-156(sp)

00000000800038d0 <i_3482>:
    800038d0:	01eee863          	bltu	t4,t5,800038e0 <i_3486>

00000000800038d4 <i_3483>:
    800038d4:	ebe13823          	sd	t5,-336(sp)

00000000800038d8 <i_3484>:
    800038d8:	001f5d9b          	srliw	s11,t5,0x1

00000000800038dc <i_3485>:
    800038dc:	03d0f063          	bleu	t4,ra,800038fc <i_3493>

00000000800038e0 <i_3486>:
    800038e0:	03dc1263          	bne	s8,t4,80003904 <i_3495>

00000000800038e4 <i_3487>:
    800038e4:	01dee863          	bltu	t4,t4,800038f4 <i_3491>

00000000800038e8 <i_3488>:
    800038e8:	02111d23          	sh	ra,58(sp)

00000000800038ec <i_3489>:
    800038ec:	0073e463          	bltu	t2,t2,800038f4 <i_3491>

00000000800038f0 <i_3490>:
    800038f0:	039d8463          	beq	s11,s9,80003918 <i_3500>

00000000800038f4 <i_3491>:
    800038f4:	ea013d83          	ld	s11,-352(sp)

00000000800038f8 <i_3492>:
    800038f8:	ede12423          	sw	t5,-312(sp)

00000000800038fc <i_3493>:
    800038fc:	edd13823          	sd	t4,-304(sp)

0000000080003900 <i_3494>:
    80003900:	5c7cfc93          	andi	s9,s9,1479

0000000080003904 <i_3495>:
    80003904:	e5215a03          	lhu	s4,-430(sp)

0000000080003908 <i_3496>:
    80003908:	03ecef33          	rem	t5,s9,t5

000000008000390c <i_3497>:
    8000390c:	e7514c83          	lbu	s9,-395(sp)

0000000080003910 <i_3498>:
    80003910:	04710a23          	sb	t2,84(sp)

0000000080003914 <i_3499>:
    80003914:	ec016c83          	lwu	s9,-320(sp)

0000000080003918 <i_3500>:
    80003918:	e8011a83          	lh	s5,-384(sp)

000000008000391c <i_3501>:
    8000391c:	004a5f1b          	srliw	t5,s4,0x4

0000000080003920 <i_3502>:
    80003920:	e2c12a03          	lw	s4,-468(sp)

0000000080003924 <i_3503>:
    80003924:	002acab3          	xor	s5,s5,sp

0000000080003928 <i_3504>:
    80003928:	c17dbf13          	sltiu	t5,s11,-1001

000000008000392c <i_3505>:
    8000392c:	415f0ab3          	sub	s5,t5,s5

0000000080003930 <i_3506>:
    80003930:	006a9e63          	bne	s5,t1,8000394c <i_3513>

0000000080003934 <i_3507>:
    80003934:	015f8263          	beq	t6,s5,80003938 <i_3508>

0000000080003938 <i_3508>:
    80003938:	00c00a93          	li	s5,12

000000008000393c <i_3509>:
    8000393c:	4156563b          	sraw	a2,a2,s5

0000000080003940 <i_3510>:
    80003940:	02700613          	li	a2,39

0000000080003944 <i_3511>:
    80003944:	40c65633          	sra	a2,a2,a2

0000000080003948 <i_3512>:
    80003948:	ecc11523          	sh	a2,-310(sp)

000000008000394c <i_3513>:
    8000394c:	01564e63          	blt	a2,s5,80003968 <i_3520>

0000000080003950 <i_3514>:
    80003950:	e2410123          	sb	tp,-478(sp)

0000000080003954 <i_3515>:
    80003954:	5216b5b7          	lui	a1,0x5216b

0000000080003958 <i_3516>:
    80003958:	00000013          	nop

000000008000395c <i_3517>:
    8000395c:	001adb1b          	srliw	s6,s5,0x1

0000000080003960 <i_3518>:
    80003960:	02411d23          	sh	tp,58(sp)

0000000080003964 <i_3519>:
    80003964:	02e00293          	li	t0,46

0000000080003968 <i_3520>:
    80003968:	405651b3          	sra	gp,a2,t0

000000008000396c <i_3521>:
    8000396c:	02422233          	mulhsu	tp,tp,tp

0000000080003970 <i_3522>:
    80003970:	89300a93          	li	s5,-1901

0000000080003974 <i_3523>:
    80003974:	8a400613          	li	a2,-1884

0000000080003978 <i_3524>:
    80003978:	0d016403          	lwu	s0,208(sp)

000000008000397c <i_3525>:
    8000397c:	1b614e83          	lbu	t4,438(sp)

0000000080003980 <i_3526>:
    80003980:	e4416403          	lwu	s0,-444(sp)

0000000080003984 <i_3527>:
    80003984:	403181bb          	subw	gp,gp,gp

0000000080003988 <i_3528>:
    80003988:	4021d19b          	sraiw	gp,gp,0x2

000000008000398c <i_3529>:
    8000398c:	0231c063          	blt	gp,gp,800039ac <i_3536>

0000000080003990 <i_3530>:
    80003990:	001a8a93          	addi	s5,s5,1
    80003994:	ff5672e3          	bleu	s5,a2,80003978 <i_3524>

0000000080003998 <i_3531>:
    80003998:	f1d10e23          	sb	t4,-228(sp)

000000008000399c <i_3532>:
    8000399c:	003e8c63          	beq	t4,gp,800039b4 <i_3538>

00000000800039a0 <i_3533>:
    800039a0:	1bd107a3          	sb	t4,431(sp)

00000000800039a4 <i_3534>:
    800039a4:	00312223          	sw	gp,4(sp)

00000000800039a8 <i_3535>:
    800039a8:	0231dd3b          	divuw	s10,gp,gp

00000000800039ac <i_3536>:
    800039ac:	03d2d063          	ble	t4,t0,800039cc <i_3544>

00000000800039b0 <i_3537>:
    800039b0:	03a19833          	mulh	a6,gp,s10

00000000800039b4 <i_3538>:
    800039b4:	14314d03          	lbu	s10,323(sp)

00000000800039b8 <i_3539>:
    800039b8:	16014383          	lbu	t2,352(sp)

00000000800039bc <i_3540>:
    800039bc:	15e11b03          	lh	s6,350(sp)

00000000800039c0 <i_3541>:
    800039c0:	ea712e23          	sw	t2,-324(sp)

00000000800039c4 <i_3542>:
    800039c4:	10312623          	sw	gp,268(sp)

00000000800039c8 <i_3543>:
    800039c8:	0073c663          	blt	t2,t2,800039d4 <i_3546>

00000000800039cc <i_3544>:
    800039cc:	0e310723          	sb	gp,238(sp)

00000000800039d0 <i_3545>:
    800039d0:	002d1d93          	slli	s11,s10,0x2

00000000800039d4 <i_3546>:
    800039d4:	4031d213          	srai	tp,gp,0x3

00000000800039d8 <i_3547>:
    800039d8:	f0f10583          	lb	a1,-241(sp)

00000000800039dc <i_3548>:
    800039dc:	fcb101a3          	sb	a1,-61(sp)

00000000800039e0 <i_3549>:
    800039e0:	0231f1b3          	remu	gp,gp,gp

00000000800039e4 <i_3550>:
    800039e4:	00310423          	sb	gp,8(sp)

00000000800039e8 <i_3551>:
    800039e8:	00719a63          	bne	gp,t2,800039fc <i_3556>

00000000800039ec <i_3552>:
    800039ec:	06812783          	lw	a5,104(sp)

00000000800039f0 <i_3553>:
    800039f0:	e6310d23          	sb	gp,-390(sp)

00000000800039f4 <i_3554>:
    800039f4:	02318263          	beq	gp,gp,80003a18 <i_3563>

00000000800039f8 <i_3555>:
    800039f8:	1bb12823          	sw	s11,432(sp)

00000000800039fc <i_3556>:
    800039fc:	02b11023          	sh	a1,32(sp)

0000000080003a00 <i_3557>:
    80003a00:	f5d11323          	sh	t4,-186(sp)

0000000080003a04 <i_3558>:
    80003a04:	10310d23          	sb	gp,282(sp)

0000000080003a08 <i_3559>:
    80003a08:	1e310323          	sb	gp,486(sp)

0000000080003a0c <i_3560>:
    80003a0c:	f0313423          	sd	gp,-248(sp)

0000000080003a10 <i_3561>:
    80003a10:	ff610483          	lb	s1,-10(sp)

0000000080003a14 <i_3562>:
    80003a14:	0f612823          	sw	s6,240(sp)

0000000080003a18 <i_3563>:
    80003a18:	ed013183          	ld	gp,-304(sp)

0000000080003a1c <i_3564>:
    80003a1c:	16c16c03          	lwu	s8,364(sp)

0000000080003a20 <i_3565>:
    80003a20:	029c723b          	remuw	tp,s8,s1

0000000080003a24 <i_3566>:
    80003a24:	02324263          	blt	tp,gp,80003a48 <i_3575>

0000000080003a28 <i_3567>:
    80003a28:	ed813423          	sd	s8,-312(sp)

0000000080003a2c <i_3568>:
    80003a2c:	03aa7a3b          	remuw	s4,s4,s10

0000000080003a30 <i_3569>:
    80003a30:	17812623          	sw	s8,364(sp)

0000000080003a34 <i_3570>:
    80003a34:	10011183          	lh	gp,256(sp)

0000000080003a38 <i_3571>:
    80003a38:	ec310223          	sb	gp,-316(sp)

0000000080003a3c <i_3572>:
    80003a3c:	034c5263          	ble	s4,s8,80003a60 <i_3581>

0000000080003a40 <i_3573>:
    80003a40:	01200593          	li	a1,18

0000000080003a44 <i_3574>:
    80003a44:	40b4d43b          	sraw	s0,s1,a1

0000000080003a48 <i_3575>:
    80003a48:	01013a03          	ld	s4,16(sp)

0000000080003a4c <i_3576>:
    80003a4c:	12013c03          	ld	s8,288(sp)

0000000080003a50 <i_3577>:
    80003a50:	e9510e83          	lb	t4,-363(sp)

0000000080003a54 <i_3578>:
    80003a54:	07813a03          	ld	s4,120(sp)

0000000080003a58 <i_3579>:
    80003a58:	16011383          	lh	t2,352(sp)

0000000080003a5c <i_3580>:
    80003a5c:	006a2d33          	slt	s10,s4,t1

0000000080003a60 <i_3581>:
    80003a60:	0e314a83          	lbu	s5,227(sp)

0000000080003a64 <i_3582>:
    80003a64:	00410203          	lb	tp,4(sp)

0000000080003a68 <i_3583>:
    80003a68:	00631e63          	bne	t1,t1,80003a84 <i_3590>

0000000080003a6c <i_3584>:
    80003a6c:	67327693          	andi	a3,tp,1651

0000000080003a70 <i_3585>:
    80003a70:	edc6deb7          	lui	t4,0xedc6d

0000000080003a74 <i_3586>:
    80003a74:	01620233          	add	tp,tp,s6

0000000080003a78 <i_3587>:
    80003a78:	00448863          	beq	s1,tp,80003a88 <i_3591>

0000000080003a7c <i_3588>:
    80003a7c:	fc411923          	sh	tp,-46(sp)

0000000080003a80 <i_3589>:
    80003a80:	e6710483          	lb	s1,-409(sp)

0000000080003a84 <i_3590>:
    80003a84:	1a913423          	sd	s1,424(sp)

0000000080003a88 <i_3591>:
    80003a88:	ee013203          	ld	tp,-288(sp)

0000000080003a8c <i_3592>:
    80003a8c:	fa412223          	sw	tp,-92(sp)

0000000080003a90 <i_3593>:
    80003a90:	029484b3          	mul	s1,s1,s1

0000000080003a94 <i_3594>:
    80003a94:	26148613          	addi	a2,s1,609

0000000080003a98 <i_3595>:
    80003a98:	fbc10d03          	lb	s10,-68(sp)

0000000080003a9c <i_3596>:
    80003a9c:	00000013          	nop

0000000080003aa0 <i_3597>:
    80003aa0:	79100513          	li	a0,1937

0000000080003aa4 <i_3598>:
    80003aa4:	7a500593          	li	a1,1957

0000000080003aa8 <i_3599>:
    80003aa8:	f4c16e83          	lwu	t4,-180(sp)

0000000080003aac <i_3600>:
    80003aac:	ed812403          	lw	s0,-296(sp)

0000000080003ab0 <i_3601>:
    80003ab0:	00150513          	addi	a0,a0,1
    80003ab4:	feb54ae3          	blt	a0,a1,80003aa8 <i_3599>

0000000080003ab8 <i_3602>:
    80003ab8:	0025d61b          	srliw	a2,a1,0x2

0000000080003abc <i_3603>:
    80003abc:	00b249b3          	xor	s3,tp,a1

0000000080003ac0 <i_3604>:
    80003ac0:	00b57e63          	bleu	a1,a0,80003adc <i_3611>

0000000080003ac4 <i_3605>:
    80003ac4:	18013783          	ld	a5,384(sp)

0000000080003ac8 <i_3606>:
    80003ac8:	fa016783          	lwu	a5,-96(sp)

0000000080003acc <i_3607>:
    80003acc:	01500393          	li	t2,21

0000000080003ad0 <i_3608>:
    80003ad0:	0077d53b          	srlw	a0,a5,t2

0000000080003ad4 <i_3609>:
    80003ad4:	11012083          	lw	ra,272(sp)

0000000080003ad8 <i_3610>:
    80003ad8:	021f5063          	ble	ra,t5,80003af8 <i_3618>

0000000080003adc <i_3611>:
    80003adc:	f1813503          	ld	a0,-232(sp)

0000000080003ae0 <i_3612>:
    80003ae0:	0a0300b7          	lui	ra,0xa030

0000000080003ae4 <i_3613>:
    80003ae4:	16415383          	lhu	t2,356(sp)

0000000080003ae8 <i_3614>:
    80003ae8:	f2a11423          	sh	a0,-216(sp)

0000000080003aec <i_3615>:
    80003aec:	02a13823          	sd	a0,48(sp)

0000000080003af0 <i_3616>:
    80003af0:	0013951b          	slliw	a0,t2,0x1

0000000080003af4 <i_3617>:
    80003af4:	e8012c83          	lw	s9,-384(sp)

0000000080003af8 <i_3618>:
    80003af8:	0273cabb          	divw	s5,t2,t2

0000000080003afc <i_3619>:
    80003afc:	e7d10403          	lb	s0,-387(sp)

0000000080003b00 <i_3620>:
    80003b00:	07011c03          	lh	s8,112(sp)

0000000080003b04 <i_3621>:
    80003b04:	038469b3          	rem	s3,s0,s8

0000000080003b08 <i_3622>:
    80003b08:	f7511323          	sh	s5,-154(sp)

0000000080003b0c <i_3623>:
    80003b0c:	419a8dbb          	subw	s11,s5,s9

0000000080003b10 <i_3624>:
    80003b10:	01b34e63          	blt	t1,s11,80003b2c <i_3631>

0000000080003b14 <i_3625>:
    80003b14:	01b4ff33          	and	t5,s1,s11

0000000080003b18 <i_3626>:
    80003b18:	ef812403          	lw	s0,-264(sp)

0000000080003b1c <i_3627>:
    80003b1c:	00000013          	nop

0000000080003b20 <i_3628>:
    80003b20:	13611923          	sh	s6,306(sp)

0000000080003b24 <i_3629>:
    80003b24:	00000013          	nop

0000000080003b28 <i_3630>:
    80003b28:	efa15603          	lhu	a2,-262(sp)

0000000080003b2c <i_3631>:
    80003b2c:	01e60533          	add	a0,a2,t5

0000000080003b30 <i_3632>:
    80003b30:	00000013          	nop

0000000080003b34 <i_3633>:
    80003b34:	82e00493          	li	s1,-2002

0000000080003b38 <i_3634>:
    80003b38:	83c00b13          	li	s6,-1988

0000000080003b3c <i_3635>:
    80003b3c:	00c53f33          	sltu	t5,a0,a2

0000000080003b40 <i_3636>:
    80003b40:	0aa11423          	sh	a0,168(sp)

0000000080003b44 <i_3637>:
    80003b44:	ff813503          	ld	a0,-8(sp)

0000000080003b48 <i_3638>:
    80003b48:	e8c15803          	lhu	a6,-372(sp)

0000000080003b4c <i_3639>:
    80003b4c:	00148493          	addi	s1,s1,1
    80003b50:	fe9b56e3          	ble	s1,s6,80003b3c <i_3635>

0000000080003b54 <i_3640>:
    80003b54:	fd412803          	lw	a6,-44(sp)

0000000080003b58 <i_3641>:
    80003b58:	00800293          	li	t0,8

0000000080003b5c <i_3642>:
    80003b5c:	005f1a3b          	sllw	s4,t5,t0

0000000080003b60 <i_3643>:
    80003b60:	010a6463          	bltu	s4,a6,80003b68 <i_3645>

0000000080003b64 <i_3644>:
    80003b64:	17415b03          	lhu	s6,372(sp)

0000000080003b68 <i_3645>:
    80003b68:	17813183          	ld	gp,376(sp)

0000000080003b6c <i_3646>:
    80003b6c:	003a4263          	blt	s4,gp,80003b70 <i_3647>

0000000080003b70 <i_3647>:
    80003b70:	030a32b3          	mulhu	t0,s4,a6

0000000080003b74 <i_3648>:
    80003b74:	02013b03          	ld	s6,32(sp)

0000000080003b78 <i_3649>:
    80003b78:	00000013          	nop

0000000080003b7c <i_3650>:
    80003b7c:	0351f53b          	remuw	a0,gp,s5

0000000080003b80 <i_3651>:
    80003b80:	79400193          	li	gp,1940

0000000080003b84 <i_3652>:
    80003b84:	79d00a93          	li	s5,1949

0000000080003b88 <i_3653>:
    80003b88:	40395e13          	srai	t3,s2,0x3

0000000080003b8c <i_3654>:
    80003b8c:	0233033b          	mulw	t1,t1,gp

0000000080003b90 <i_3655>:
    80003b90:	00135313          	srli	t1,t1,0x1

0000000080003b94 <i_3656>:
    80003b94:	02fe2e33          	mulhsu	t3,t3,a5

0000000080003b98 <i_3657>:
    80003b98:	026e4e33          	div	t3,t3,t1

0000000080003b9c <i_3658>:
    80003b9c:	ee611323          	sh	t1,-282(sp)

0000000080003ba0 <i_3659>:
    80003ba0:	034f7e33          	remu	t3,t5,s4

0000000080003ba4 <i_3660>:
    80003ba4:	ec416a03          	lwu	s4,-316(sp)

0000000080003ba8 <i_3661>:
    80003ba8:	6b982797          	auipc	a5,0x6b982

0000000080003bac <i_3662>:
    80003bac:	00118193          	addi	gp,gp,1 # 4f1f1381 <main-0x30e0ec7f>
    80003bb0:	fd51cce3          	blt	gp,s5,80003b88 <i_3653>

0000000080003bb4 <i_3663>:
    80003bb4:	17215a03          	lhu	s4,370(sp)

0000000080003bb8 <i_3664>:
    80003bb8:	00b14303          	lbu	t1,11(sp)

0000000080003bbc <i_3665>:
    80003bbc:	01011803          	lh	a6,16(sp)

0000000080003bc0 <i_3666>:
    80003bc0:	11411723          	sh	s4,270(sp)

0000000080003bc4 <i_3667>:
    80003bc4:	e6611403          	lh	s0,-410(sp)

0000000080003bc8 <i_3668>:
    80003bc8:	19310303          	lb	t1,403(sp)

0000000080003bcc <i_3669>:
    80003bcc:	97324813          	xori	a6,tp,-1677

0000000080003bd0 <i_3670>:
    80003bd0:	e9410a03          	lb	s4,-364(sp)

0000000080003bd4 <i_3671>:
    80003bd4:	f7411023          	sh	s4,-160(sp)

0000000080003bd8 <i_3672>:
    80003bd8:	0f713c23          	sd	s7,248(sp)

0000000080003bdc <i_3673>:
    80003bdc:	01031263          	bne	t1,a6,80003be0 <i_3674>

0000000080003be0 <i_3674>:
    80003be0:	030b43b3          	div	t2,s6,a6

0000000080003be4 <i_3675>:
    80003be4:	014e5a63          	ble	s4,t3,80003bf8 <i_3680>

0000000080003be8 <i_3676>:
    80003be8:	f6613023          	sd	t1,-160(sp)

0000000080003bec <i_3677>:
    80003bec:	f9389c37          	lui	s8,0xf9389

0000000080003bf0 <i_3678>:
    80003bf0:	036e0063          	beq	t3,s6,80003c10 <i_3686>

0000000080003bf4 <i_3679>:
    80003bf4:	038c7a3b          	remuw	s4,s8,s8

0000000080003bf8 <i_3680>:
    80003bf8:	414b0a3b          	subw	s4,s6,s4

0000000080003bfc <i_3681>:
    80003bfc:	404f5a1b          	sraiw	s4,t5,0x4

0000000080003c00 <i_3682>:
    80003c00:	f5411e23          	sh	s4,-164(sp)

0000000080003c04 <i_3683>:
    80003c04:	10615503          	lhu	a0,262(sp)

0000000080003c08 <i_3684>:
    80003c08:	0bc15783          	lhu	a5,188(sp)

0000000080003c0c <i_3685>:
    80003c0c:	00000013          	nop

0000000080003c10 <i_3686>:
    80003c10:	0a811e03          	lh	t3,168(sp)

0000000080003c14 <i_3687>:
    80003c14:	00000013          	nop

0000000080003c18 <i_3688>:
    80003c18:	7db00c13          	li	s8,2011

0000000080003c1c <i_3689>:
    80003c1c:	7e100b13          	li	s6,2017

0000000080003c20 <i_3690>:
    80003c20:	0147da63          	ble	s4,a5,80003c34 <i_3695>

0000000080003c24 <i_3691>:
    80003c24:	da6a2593          	slti	a1,s4,-602

0000000080003c28 <i_3692>:
    80003c28:	ff815583          	lhu	a1,-8(sp)

0000000080003c2c <i_3693>:
    80003c2c:	e9016783          	lwu	a5,-368(sp)

0000000080003c30 <i_3694>:
    80003c30:	1cf10f23          	sb	a5,478(sp)

0000000080003c34 <i_3695>:
    80003c34:	0362ea33          	rem	s4,t0,s6

0000000080003c38 <i_3696>:
    80003c38:	ff015503          	lhu	a0,-16(sp)

0000000080003c3c <i_3697>:
    80003c3c:	0147a7b3          	slt	a5,a5,s4

0000000080003c40 <i_3698>:
    80003c40:	1d013a83          	ld	s5,464(sp)

0000000080003c44 <i_3699>:
    80003c44:	ee816d03          	lwu	s10,-280(sp)

0000000080003c48 <i_3700>:
    80003c48:	001c0c13          	addi	s8,s8,1 # fffffffff9389001 <_end+0xffffffff79378bed>
    80003c4c:	fd6c1ae3          	bne	s8,s6,80003c20 <i_3690>

0000000080003c50 <i_3701>:
    80003c50:	19412e03          	lw	t3,404(sp)

0000000080003c54 <i_3702>:
    80003c54:	e7c16a83          	lwu	s5,-388(sp)

0000000080003c58 <i_3703>:
    80003c58:	04f10623          	sb	a5,76(sp)

0000000080003c5c <i_3704>:
    80003c5c:	13c13023          	sd	t3,288(sp)

0000000080003c60 <i_3705>:
    80003c60:	01c7f1b3          	and	gp,a5,t3

0000000080003c64 <i_3706>:
    80003c64:	ce93fe13          	andi	t3,t2,-791

0000000080003c68 <i_3707>:
    80003c68:	f7e15d03          	lhu	s10,-130(sp)

0000000080003c6c <i_3708>:
    80003c6c:	897d4d93          	xori	s11,s10,-1897

0000000080003c70 <i_3709>:
    80003c70:	1a411f23          	sh	tp,446(sp)

0000000080003c74 <i_3710>:
    80003c74:	16412223          	sw	tp,356(sp)

0000000080003c78 <i_3711>:
    80003c78:	015e1463          	bne	t3,s5,80003c80 <i_3713>

0000000080003c7c <i_3712>:
    80003c7c:	972aba13          	sltiu	s4,s5,-1678

0000000080003c80 <i_3713>:
    80003c80:	f8710e23          	sb	t2,-100(sp)

0000000080003c84 <i_3714>:
    80003c84:	cccd4293          	xori	t0,s10,-820

0000000080003c88 <i_3715>:
    80003c88:	03425c3b          	divuw	s8,tp,s4

0000000080003c8c <i_3716>:
    80003c8c:	ea815483          	lhu	s1,-344(sp)

0000000080003c90 <i_3717>:
    80003c90:	0dc12203          	lw	tp,220(sp)

0000000080003c94 <i_3718>:
    80003c94:	0244e263          	bltu	s1,tp,80003cb8 <i_3727>

0000000080003c98 <i_3719>:
    80003c98:	546c8217          	auipc	tp,0x546c8

0000000080003c9c <i_3720>:
    80003c9c:	02925063          	ble	s1,tp,80003cbc <i_3728>

0000000080003ca0 <i_3721>:
    80003ca0:	00949663          	bne	s1,s1,80003cac <i_3724>

0000000080003ca4 <i_3722>:
    80003ca4:	4044d213          	srai	tp,s1,0x4

0000000080003ca8 <i_3723>:
    80003ca8:	00000013          	nop

0000000080003cac <i_3724>:
    80003cac:	02412e83          	lw	t4,36(sp)

0000000080003cb0 <i_3725>:
    80003cb0:	e7c11783          	lh	a5,-388(sp)

0000000080003cb4 <i_3726>:
    80003cb4:	03713823          	sd	s7,48(sp)

0000000080003cb8 <i_3727>:
    80003cb8:	ff914a83          	lbu	s5,-7(sp)

0000000080003cbc <i_3728>:
    80003cbc:	00000013          	nop

0000000080003cc0 <i_3729>:
    80003cc0:	402add9b          	sraiw	s11,s5,0x2

0000000080003cc4 <i_3730>:
    80003cc4:	73c00493          	li	s1,1852

0000000080003cc8 <i_3731>:
    80003cc8:	74e00693          	li	a3,1870

0000000080003ccc <i_3732>:
    80003ccc:	01b4c233          	xor	tp,s1,s11

0000000080003cd0 <i_3733>:
    80003cd0:	03daaa33          	mulhsu	s4,s5,t4

0000000080003cd4 <i_3734>:
    80003cd4:	00148493          	addi	s1,s1,1
    80003cd8:	fe96fae3          	bleu	s1,a3,80003ccc <i_3732>

0000000080003cdc <i_3735>:
    80003cdc:	01da9a63          	bne	s5,t4,80003cf0 <i_3740>

0000000080003ce0 <i_3736>:
    80003ce0:	00b69e63          	bne	a3,a1,80003cfc <i_3743>

0000000080003ce4 <i_3737>:
    80003ce4:	03f25463          	ble	t6,tp,80003d0c <i_3747>

0000000080003ce8 <i_3738>:
    80003ce8:	0f012683          	lw	a3,240(sp)

0000000080003cec <i_3739>:
    80003cec:	13a11d83          	lh	s11,314(sp)

0000000080003cf0 <i_3740>:
    80003cf0:	15011e03          	lh	t3,336(sp)

0000000080003cf4 <i_3741>:
    80003cf4:	0c710a03          	lb	s4,199(sp)

0000000080003cf8 <i_3742>:
    80003cf8:	02d6e463          	bltu	a3,a3,80003d20 <i_3752>

0000000080003cfc <i_3743>:
    80003cfc:	18d11123          	sh	a3,386(sp)

0000000080003d00 <i_3744>:
    80003d00:	f0310183          	lb	gp,-253(sp)

0000000080003d04 <i_3745>:
    80003d04:	03ca5063          	ble	t3,s4,80003d24 <i_3753>

0000000080003d08 <i_3746>:
    80003d08:	02337263          	bleu	gp,t1,80003d2c <i_3755>

0000000080003d0c <i_3747>:
    80003d0c:	e2c14183          	lbu	gp,-468(sp)

0000000080003d10 <i_3748>:
    80003d10:	02400693          	li	a3,36

0000000080003d14 <i_3749>:
    80003d14:	00da1ab3          	sll	s5,s4,a3

0000000080003d18 <i_3750>:
    80003d18:	004e1693          	slli	a3,t3,0x4

0000000080003d1c <i_3751>:
    80003d1c:	fb510923          	sb	s5,-78(sp)

0000000080003d20 <i_3752>:
    80003d20:	0031ae33          	slt	t3,gp,gp

0000000080003d24 <i_3753>:
    80003d24:	02d6f0bb          	remuw	ra,a3,a3

0000000080003d28 <i_3754>:
    80003d28:	05c10683          	lb	a3,92(sp)

0000000080003d2c <i_3755>:
    80003d2c:	003a1a63          	bne	s4,gp,80003d40 <i_3760>

0000000080003d30 <i_3756>:
    80003d30:	00de1863          	bne	t3,a3,80003d40 <i_3760>

0000000080003d34 <i_3757>:
    80003d34:	03c6de33          	divu	t3,a3,t3

0000000080003d38 <i_3758>:
    80003d38:	03800093          	li	ra,56

0000000080003d3c <i_3759>:
    80003d3c:	0016de33          	srl	t3,a3,ra

0000000080003d40 <i_3760>:
    80003d40:	00128a63          	beq	t0,ra,80003d54 <i_3765>

0000000080003d44 <i_3761>:
    80003d44:	15910683          	lb	a3,345(sp)

0000000080003d48 <i_3762>:
    80003d48:	03c090b3          	mulh	ra,ra,t3

0000000080003d4c <i_3763>:
    80003d4c:	01c00e13          	li	t3,28

0000000080003d50 <i_3764>:
    80003d50:	01ca16bb          	sllw	a3,s4,t3

0000000080003d54 <i_3765>:
    80003d54:	40df06bb          	subw	a3,t5,a3

0000000080003d58 <i_3766>:
    80003d58:	00a69663          	bne	a3,a0,80003d64 <i_3769>

0000000080003d5c <i_3767>:
    80003d5c:	fc310083          	lb	ra,-61(sp)

0000000080003d60 <i_3768>:
    80003d60:	00d09663          	bne	ra,a3,80003d6c <i_3771>

0000000080003d64 <i_3769>:
    80003d64:	11010a83          	lb	s5,272(sp)

0000000080003d68 <i_3770>:
    80003d68:	1b016403          	lwu	s0,432(sp)

0000000080003d6c <i_3771>:
    80003d6c:	00d68263          	beq	a3,a3,80003d70 <i_3772>

0000000080003d70 <i_3772>:
    80003d70:	ea1109a3          	sb	ra,-333(sp)

0000000080003d74 <i_3773>:
    80003d74:	0386d43b          	divuw	s0,a3,s8

0000000080003d78 <i_3774>:
    80003d78:	07211203          	lh	tp,114(sp)

0000000080003d7c <i_3775>:
    80003d7c:	8cc00093          	li	ra,-1844

0000000080003d80 <i_3776>:
    80003d80:	8d700a93          	li	s5,-1833

0000000080003d84 <i_3777>:
    80003d84:	402407b3          	sub	a5,s0,sp

0000000080003d88 <i_3778>:
    80003d88:	00f12423          	sw	a5,8(sp)

0000000080003d8c <i_3779>:
    80003d8c:	00821463          	bne	tp,s0,80003d94 <i_3781>

0000000080003d90 <i_3780>:
    80003d90:	7d36a493          	slti	s1,a3,2003

0000000080003d94 <i_3781>:
    80003d94:	01900813          	li	a6,25

0000000080003d98 <i_3782>:
    80003d98:	010157bb          	srlw	a5,sp,a6

0000000080003d9c <i_3783>:
    80003d9c:	1a410e83          	lb	t4,420(sp)

0000000080003da0 <i_3784>:
    80003da0:	e5c15383          	lhu	t2,-420(sp)

0000000080003da4 <i_3785>:
    80003da4:	00b60633          	add	a2,a2,a1

0000000080003da8 <i_3786>:
    80003da8:	00125613          	srli	a2,tp,0x1

0000000080003dac <i_3787>:
    80003dac:	21d46613          	ori	a2,s0,541

0000000080003db0 <i_3788>:
    80003db0:	1bd14e83          	lbu	t4,445(sp)

0000000080003db4 <i_3789>:
    80003db4:	4023dd9b          	sraiw	s11,t2,0x2

0000000080003db8 <i_3790>:
    80003db8:	00108093          	addi	ra,ra,1 # a030001 <main-0x75fcffff>
    80003dbc:	fd50e4e3          	bltu	ra,s5,80003d84 <i_3777>

0000000080003dc0 <i_3791>:
    80003dc0:	f4712223          	sw	t2,-188(sp)

0000000080003dc4 <i_3792>:
    80003dc4:	00cd9e63          	bne	s11,a2,80003de0 <i_3799>

0000000080003dc8 <i_3793>:
    80003dc8:	00c67c63          	bleu	a2,a2,80003de0 <i_3799>

0000000080003dcc <i_3794>:
    80003dcc:	02c90a33          	mul	s4,s2,a2

0000000080003dd0 <i_3795>:
    80003dd0:	03d17233          	remu	tp,sp,t4

0000000080003dd4 <i_3796>:
    80003dd4:	03f24eb3          	div	t4,tp,t6

0000000080003dd8 <i_3797>:
    80003dd8:	ed813403          	ld	s0,-296(sp)

0000000080003ddc <i_3798>:
    80003ddc:	f4813c23          	sd	s0,-168(sp)

0000000080003de0 <i_3799>:
    80003de0:	9797e213          	ori	tp,a5,-1671

0000000080003de4 <i_3800>:
    80003de4:	ff412203          	lw	tp,-12(sp)

0000000080003de8 <i_3801>:
    80003de8:	7af00793          	li	a5,1967

0000000080003dec <i_3802>:
    80003dec:	7ba00413          	li	s0,1978

0000000080003df0 <i_3803>:
    80003df0:	01812203          	lw	tp,24(sp)

0000000080003df4 <i_3804>:
    80003df4:	16413423          	sd	tp,360(sp)

0000000080003df8 <i_3805>:
    80003df8:	00178793          	addi	a5,a5,1 # eb985ba9 <_end+0x6b975795>
    80003dfc:	fef45ae3          	ble	a5,s0,80003df0 <i_3803>

0000000080003e00 <i_3806>:
    80003e00:	00f78433          	add	s0,a5,a5

0000000080003e04 <i_3807>:
    80003e04:	02f2063b          	mulw	a2,tp,a5

0000000080003e08 <i_3808>:
    80003e08:	02c4423b          	divw	tp,s0,a2

0000000080003e0c <i_3809>:
    80003e0c:	00446863          	bltu	s0,tp,80003e1c <i_3813>

0000000080003e10 <i_3810>:
    80003e10:	00f26e63          	bltu	tp,a5,80003e2c <i_3817>

0000000080003e14 <i_3811>:
    80003e14:	fc813983          	ld	s3,-56(sp)

0000000080003e18 <i_3812>:
    80003e18:	00f629b3          	slt	s3,a2,a5

0000000080003e1c <i_3813>:
    80003e1c:	033df9bb          	remuw	s3,s11,s3

0000000080003e20 <i_3814>:
    80003e20:	11510023          	sb	s5,256(sp)

0000000080003e24 <i_3815>:
    80003e24:	013adc63          	ble	s3,s5,80003e3c <i_3821>

0000000080003e28 <i_3816>:
    80003e28:	0a714a83          	lbu	s5,167(sp)

0000000080003e2c <i_3817>:
    80003e2c:	17311a23          	sh	s3,372(sp)

0000000080003e30 <i_3818>:
    80003e30:	0339ee33          	rem	t3,s3,s3

0000000080003e34 <i_3819>:
    80003e34:	0089ec63          	bltu	s3,s0,80003e4c <i_3825>

0000000080003e38 <i_3820>:
    80003e38:	01526263          	bltu	tp,s5,80003e3c <i_3821>

0000000080003e3c <i_3821>:
    80003e3c:	11416203          	lwu	tp,276(sp)

0000000080003e40 <i_3822>:
    80003e40:	03ca8463          	beq	s5,t3,80003e68 <i_3832>

0000000080003e44 <i_3823>:
    80003e44:	ed812403          	lw	s0,-296(sp)

0000000080003e48 <i_3824>:
    80003e48:	35426c93          	ori	s9,tp,852

0000000080003e4c <i_3825>:
    80003e4c:	f7410e03          	lb	t3,-140(sp)

0000000080003e50 <i_3826>:
    80003e50:	f0112023          	sw	ra,-256(sp)

0000000080003e54 <i_3827>:
    80003e54:	00000013          	nop

0000000080003e58 <i_3828>:
    80003e58:	12b13023          	sd	a1,288(sp)

0000000080003e5c <i_3829>:
    80003e5c:	00000013          	nop

0000000080003e60 <i_3830>:
    80003e60:	0d910da3          	sb	s9,219(sp)

0000000080003e64 <i_3831>:
    80003e64:	e6012e03          	lw	t3,-416(sp)

0000000080003e68 <i_3832>:
    80003e68:	3ed20e13          	addi	t3,tp,1005 # d46cc085 <_end+0x546bbc71>

0000000080003e6c <i_3833>:
    80003e6c:	00000013          	nop

0000000080003e70 <i_3834>:
    80003e70:	8bb00593          	li	a1,-1861

0000000080003e74 <i_3835>:
    80003e74:	8c100213          	li	tp,-1855

0000000080003e78 <i_3836>:
    80003e78:	00125c93          	srli	s9,tp,0x1

0000000080003e7c <i_3837>:
    80003e7c:	0016161b          	slliw	a2,a2,0x1

0000000080003e80 <i_3838>:
    80003e80:	11013603          	ld	a2,272(sp)

0000000080003e84 <i_3839>:
    80003e84:	039e6663          	bltu	t3,s9,80003eb0 <i_3849>

0000000080003e88 <i_3840>:
    80003e88:	03927663          	bleu	s9,tp,80003eb4 <i_3850>

0000000080003e8c <i_3841>:
    80003e8c:	ef016d83          	lwu	s11,-272(sp)

0000000080003e90 <i_3842>:
    80003e90:	032edcbb          	divuw	s9,t4,s2

0000000080003e94 <i_3843>:
    80003e94:	ff744413          	xori	s0,s0,-9

0000000080003e98 <i_3844>:
    80003e98:	00158593          	addi	a1,a1,1 # 5216b001 <main-0x2de94fff>
    80003e9c:	fcb27ee3          	bleu	a1,tp,80003e78 <i_3836>

0000000080003ea0 <i_3845>:
    80003ea0:	fbb10223          	sb	s11,-92(sp)

0000000080003ea4 <i_3846>:
    80003ea4:	4040d413          	srai	s0,ra,0x4

0000000080003ea8 <i_3847>:
    80003ea8:	02844b33          	div	s6,s0,s0

0000000080003eac <i_3848>:
    80003eac:	01840c33          	add	s8,s0,s8

0000000080003eb0 <i_3849>:
    80003eb0:	f9b12423          	sw	s11,-120(sp)

0000000080003eb4 <i_3850>:
    80003eb4:	039cd0b3          	divu	ra,s9,s9

0000000080003eb8 <i_3851>:
    80003eb8:	f9811c23          	sh	s8,-104(sp)

0000000080003ebc <i_3852>:
    80003ebc:	e2d10fa3          	sb	a3,-449(sp)

0000000080003ec0 <i_3853>:
    80003ec0:	ee611803          	lh	a6,-282(sp)

0000000080003ec4 <i_3854>:
    80003ec4:	e3913c23          	sd	s9,-456(sp)

0000000080003ec8 <i_3855>:
    80003ec8:	001dc863          	blt	s11,ra,80003ed8 <i_3859>

0000000080003ecc <i_3856>:
    80003ecc:	01400313          	li	t1,20

0000000080003ed0 <i_3857>:
    80003ed0:	40645dbb          	sraw	s11,s0,t1

0000000080003ed4 <i_3858>:
    80003ed4:	1d838313          	addi	t1,t2,472

0000000080003ed8 <i_3859>:
    80003ed8:	02bcf3bb          	remuw	t2,s9,a1

0000000080003edc <i_3860>:
    80003edc:	f7011323          	sh	a6,-154(sp)

0000000080003ee0 <i_3861>:
    80003ee0:	01b87a63          	bleu	s11,a6,80003ef4 <i_3866>

0000000080003ee4 <i_3862>:
    80003ee4:	56710a93          	addi	s5,sp,1383

0000000080003ee8 <i_3863>:
    80003ee8:	1d816283          	lwu	t0,472(sp)

0000000080003eec <i_3864>:
    80003eec:	05815583          	lhu	a1,88(sp)

0000000080003ef0 <i_3865>:
    80003ef0:	04211403          	lh	s0,66(sp)

0000000080003ef4 <i_3866>:
    80003ef4:	40b585bb          	subw	a1,a1,a1

0000000080003ef8 <i_3867>:
    80003ef8:	02b15cbb          	divuw	s9,sp,a1

0000000080003efc <i_3868>:
    80003efc:	eac15583          	lhu	a1,-340(sp)

0000000080003f00 <i_3869>:
    80003f00:	02b5c063          	blt	a1,a1,80003f20 <i_3877>

0000000080003f04 <i_3870>:
    80003f04:	10b13c23          	sd	a1,280(sp)

0000000080003f08 <i_3871>:
    80003f08:	7b6c8c93          	addi	s9,s9,1974

0000000080003f0c <i_3872>:
    80003f0c:	6d258c93          	addi	s9,a1,1746

0000000080003f10 <i_3873>:
    80003f10:	019cfcb3          	and	s9,s9,s9

0000000080003f14 <i_3874>:
    80003f14:	f2612223          	sw	t1,-220(sp)

0000000080003f18 <i_3875>:
    80003f18:	03e33333          	mulhu	t1,t1,t5

0000000080003f1c <i_3876>:
    80003f1c:	10613c23          	sd	t1,280(sp)

0000000080003f20 <i_3877>:
    80003f20:	039ce063          	bltu	s9,s9,80003f40 <i_3885>

0000000080003f24 <i_3878>:
    80003f24:	14a15803          	lhu	a6,330(sp)

0000000080003f28 <i_3879>:
    80003f28:	006440b3          	xor	ra,s0,t1

0000000080003f2c <i_3880>:
    80003f2c:	f3fa2293          	slti	t0,s4,-193

0000000080003f30 <i_3881>:
    80003f30:	0272a7b3          	mulhsu	a5,t0,t2

0000000080003f34 <i_3882>:
    80003f34:	17614283          	lbu	t0,374(sp)

0000000080003f38 <i_3883>:
    80003f38:	01930a63          	beq	t1,s9,80003f4c <i_3888>

0000000080003f3c <i_3884>:
    80003f3c:	00500593          	li	a1,5

0000000080003f40 <i_3885>:
    80003f40:	00b7d33b          	srlw	t1,a5,a1

0000000080003f44 <i_3886>:
    80003f44:	0e314b03          	lbu	s6,227(sp)

0000000080003f48 <i_3887>:
    80003f48:	e8e11783          	lh	a5,-370(sp)

0000000080003f4c <i_3888>:
    80003f4c:	eaf11923          	sh	a5,-334(sp)

0000000080003f50 <i_3889>:
    80003f50:	00fb0863          	beq	s6,a5,80003f60 <i_3893>

0000000080003f54 <i_3890>:
    80003f54:	01000693          	li	a3,16

0000000080003f58 <i_3891>:
    80003f58:	40d5d7bb          	sraw	a5,a1,a3

0000000080003f5c <i_3892>:
    80003f5c:	ec611183          	lh	gp,-314(sp)

0000000080003f60 <i_3893>:
    80003f60:	f4014d83          	lbu	s11,-192(sp)

0000000080003f64 <i_3894>:
    80003f64:	ae76c293          	xori	t0,a3,-1305

0000000080003f68 <i_3895>:
    80003f68:	4025d39b          	sraiw	t2,a1,0x2

0000000080003f6c <i_3896>:
    80003f6c:	07015683          	lhu	a3,112(sp)

0000000080003f70 <i_3897>:
    80003f70:	79200213          	li	tp,1938

0000000080003f74 <i_3898>:
    80003f74:	7a200793          	li	a5,1954

0000000080003f78 <i_3899>:
    80003f78:	00000013          	nop

0000000080003f7c <i_3900>:
    80003f7c:	e5215403          	lhu	s0,-430(sp)

0000000080003f80 <i_3901>:
    80003f80:	00d5f463          	bleu	a3,a1,80003f88 <i_3903>

0000000080003f84 <i_3902>:
    80003f84:	f3c10583          	lb	a1,-196(sp)

0000000080003f88 <i_3903>:
    80003f88:	03700993          	li	s3,55

0000000080003f8c <i_3904>:
    80003f8c:	0132dc33          	srl	s8,t0,s3

0000000080003f90 <i_3905>:
    80003f90:	f3412f03          	lw	t5,-204(sp)

0000000080003f94 <i_3906>:
    80003f94:	2c2a7b37          	lui	s6,0x2c2a7

0000000080003f98 <i_3907>:
    80003f98:	02538333          	mul	t1,t2,t0

0000000080003f9c <i_3908>:
    80003f9c:	00120213          	addi	tp,tp,1 # 1 <main-0x7fffffff>
    80003fa0:	fc47fce3          	bleu	tp,a5,80003f78 <i_3899>

0000000080003fa4 <i_3909>:
    80003fa4:	039b2c33          	mulhsu	s8,s6,s9

0000000080003fa8 <i_3910>:
    80003fa8:	eb611c23          	sh	s6,-328(sp)

0000000080003fac <i_3911>:
    80003fac:	00016d83          	lwu	s11,0(sp)

0000000080003fb0 <i_3912>:
    80003fb0:	78600193          	li	gp,1926

0000000080003fb4 <i_3913>:
    80003fb4:	78900a93          	li	s5,1929

0000000080003fb8 <i_3914>:
    80003fb8:	02fb4063          	blt	s6,a5,80003fd8 <i_3922>

0000000080003fbc <i_3915>:
    80003fbc:	0189e463          	bltu	s3,s8,80003fc4 <i_3917>

0000000080003fc0 <i_3916>:
    80003fc0:	004f1463          	bne	t5,tp,80003fc8 <i_3918>

0000000080003fc4 <i_3917>:
    80003fc4:	05013503          	ld	a0,80(sp)

0000000080003fc8 <i_3918>:
    80003fc8:	0c015f03          	lhu	t5,192(sp)

0000000080003fcc <i_3919>:
    80003fcc:	ee010203          	lb	tp,-288(sp)

0000000080003fd0 <i_3920>:
    80003fd0:	03ec2c33          	mulhsu	s8,s8,t5

0000000080003fd4 <i_3921>:
    80003fd4:	02f88463          	beq	a7,a5,80003ffc <i_3930>

0000000080003fd8 <i_3922>:
    80003fd8:	13110f03          	lb	t5,305(sp)

0000000080003fdc <i_3923>:
    80003fdc:	fff13823          	sd	t6,-16(sp)

0000000080003fe0 <i_3924>:
    80003fe0:	4027d79b          	sraiw	a5,a5,0x2

0000000080003fe4 <i_3925>:
    80003fe4:	10811d83          	lh	s11,264(sp)

0000000080003fe8 <i_3926>:
    80003fe8:	0657b793          	sltiu	a5,a5,101

0000000080003fec <i_3927>:
    80003fec:	00118193          	addi	gp,gp,1
    80003ff0:	fd5194e3          	bne	gp,s5,80003fb8 <i_3914>

0000000080003ff4 <i_3928>:
    80003ff4:	024d883b          	mulw	a6,s11,tp

0000000080003ff8 <i_3929>:
    80003ff8:	03b85063          	ble	s11,a6,80004018 <i_3937>

0000000080003ffc <i_3930>:
    80003ffc:	ecf10c23          	sb	a5,-296(sp)

0000000080004000 <i_3931>:
    80004000:	fb910d83          	lb	s11,-71(sp)

0000000080004004 <i_3932>:
    80004004:	663c27b7          	lui	a5,0x663c2

0000000080004008 <i_3933>:
    80004008:	08f12e23          	sw	a5,156(sp)

000000008000400c <i_3934>:
    8000400c:	eb813c83          	ld	s9,-328(sp)

0000000080004010 <i_3935>:
    80004010:	0101adb3          	slt	s11,gp,a6

0000000080004014 <i_3936>:
    80004014:	f3816783          	lwu	a5,-200(sp)

0000000080004018 <i_3937>:
    80004018:	01b78663          	beq	a5,s11,80004024 <i_3940>

000000008000401c <i_3938>:
    8000401c:	00000013          	nop

0000000080004020 <i_3939>:
    80004020:	015cfcb3          	and	s9,s9,s5

0000000080004024 <i_3940>:
    80004024:	0159ccb3          	xor	s9,s3,s5

0000000080004028 <i_3941>:
    80004028:	e9510423          	sb	s5,-376(sp)

000000008000402c <i_3942>:
    8000402c:	82100d93          	li	s11,-2015

0000000080004030 <i_3943>:
    80004030:	83000a93          	li	s5,-2000

0000000080004034 <i_3944>:
    80004034:	00000013          	nop

0000000080004038 <i_3945>:
    80004038:	035dbeb3          	mulhu	t4,s11,s5

000000008000403c <i_3946>:
    8000403c:	00000013          	nop

0000000080004040 <i_3947>:
    80004040:	02f7f7b3          	remu	a5,a5,a5

0000000080004044 <i_3948>:
    80004044:	001d8d93          	addi	s11,s11,1 # aef1b68d <_end+0x2ef0b279>
    80004048:	ff5dc6e3          	blt	s11,s5,80004034 <i_3944>

000000008000404c <i_3949>:
    8000404c:	00000013          	nop

0000000080004050 <i_3950>:
    80004050:	02f7f063          	bleu	a5,a5,80004070 <i_3958>

0000000080004054 <i_3951>:
    80004054:	1527fe13          	andi	t3,a5,338

0000000080004058 <i_3952>:
    80004058:	03dcd463          	ble	t4,s9,80004080 <i_3962>

000000008000405c <i_3953>:
    8000405c:	f5416803          	lwu	a6,-172(sp)

0000000080004060 <i_3954>:
    80004060:	01cdca63          	blt	s11,t3,80004074 <i_3959>

0000000080004064 <i_3955>:
    80004064:	0107cdb3          	xor	s11,a5,a6

0000000080004068 <i_3956>:
    80004068:	01913023          	sd	s9,0(sp)

000000008000406c <i_3957>:
    8000406c:	00900c93          	li	s9,9

0000000080004070 <i_3958>:
    80004070:	419adeb3          	sra	t4,s5,s9

0000000080004074 <i_3959>:
    80004074:	1c011c83          	lh	s9,448(sp)

0000000080004078 <i_3960>:
    80004078:	010e6a63          	bltu	t3,a6,8000408c <i_3965>

000000008000407c <i_3961>:
    8000407c:	0c013683          	ld	a3,192(sp)

0000000080004080 <i_3962>:
    80004080:	eb013e03          	ld	t3,-336(sp)

0000000080004084 <i_3963>:
    80004084:	f7c13823          	sd	t3,-144(sp)

0000000080004088 <i_3964>:
    80004088:	00d00c13          	li	s8,13

000000008000408c <i_3965>:
    8000408c:	01831333          	sll	t1,t1,s8

0000000080004090 <i_3966>:
    80004090:	6da30313          	addi	t1,t1,1754 # 1637ab12 <main-0x69c854ee>

0000000080004094 <i_3967>:
    80004094:	02635063          	ble	t1,t1,800040b4 <i_3975>

0000000080004098 <i_3968>:
    80004098:	00000013          	nop

000000008000409c <i_3969>:
    8000409c:	0060b0b3          	sltu	ra,ra,t1

00000000800040a0 <i_3970>:
    800040a0:	17815083          	lhu	ra,376(sp)

00000000800040a4 <i_3971>:
    800040a4:	9a51cb93          	xori	s7,gp,-1627

00000000800040a8 <i_3972>:
    800040a8:	00000013          	nop

00000000800040ac <i_3973>:
    800040ac:	fcf0a813          	slti	a6,ra,-49

00000000800040b0 <i_3974>:
    800040b0:	03e0ff33          	remu	t5,ra,t5

00000000800040b4 <i_3975>:
    800040b4:	021ba0b3          	mulhsu	ra,s7,ra

00000000800040b8 <i_3976>:
    800040b8:	f6113023          	sd	ra,-160(sp)

00000000800040bc <i_3977>:
    800040bc:	7dd00413          	li	s0,2013

00000000800040c0 <i_3978>:
    800040c0:	7ec00313          	li	t1,2028

00000000800040c4 <i_3979>:
    800040c4:	fa412983          	lw	s3,-92(sp)

00000000800040c8 <i_3980>:
    800040c8:	c9e88d1b          	addiw	s10,a7,-866

00000000800040cc <i_3981>:
    800040cc:	01c11083          	lh	ra,28(sp)

00000000800040d0 <i_3982>:
    800040d0:	09e15083          	lhu	ra,158(sp)

00000000800040d4 <i_3983>:
    800040d4:	015080b3          	add	ra,ra,s5

00000000800040d8 <i_3984>:
    800040d8:	2670fa93          	andi	s5,ra,615

00000000800040dc <i_3985>:
    800040dc:	ed013a83          	ld	s5,-304(sp)

00000000800040e0 <i_3986>:
    800040e0:	13410083          	lb	ra,308(sp)

00000000800040e4 <i_3987>:
    800040e4:	6880a293          	slti	t0,ra,1672

00000000800040e8 <i_3988>:
    800040e8:	00140413          	addi	s0,s0,1
    800040ec:	fc835ce3          	ble	s0,t1,800040c4 <i_3979>

00000000800040f0 <i_3989>:
    800040f0:	0390e263          	bltu	ra,s9,80004114 <i_3998>

00000000800040f4 <i_3990>:
    800040f4:	00908263          	beq	ra,s1,800040f8 <i_3991>

00000000800040f8 <i_3991>:
    800040f8:	f6015783          	lhu	a5,-160(sp)

00000000800040fc <i_3992>:
    800040fc:	13215603          	lhu	a2,306(sp)

0000000080004100 <i_3993>:
    80004100:	00000013          	nop

0000000080004104 <i_3994>:
    80004104:	ea811783          	lh	a5,-344(sp)

0000000080004108 <i_3995>:
    80004108:	12f12a23          	sw	a5,308(sp)

000000008000410c <i_3996>:
    8000410c:	001ad39b          	srliw	t2,s5,0x1

0000000080004110 <i_3997>:
    80004110:	0253c833          	div	a6,t2,t0

0000000080004114 <i_3998>:
    80004114:	0054e4b3          	or	s1,s1,t0

0000000080004118 <i_3999>:
    80004118:	00000013          	nop

000000008000411c <i_4000>:
    8000411c:	7e400d13          	li	s10,2020

0000000080004120 <i_4001>:
    80004120:	7f400a13          	li	s4,2036

0000000080004124 <i_4002>:
    80004124:	001d0d13          	addi	s10,s10,1 # ffffffff89ce0001 <_end+0xffffffff09ccfbed>
    80004128:	ffaa7ee3          	bleu	s10,s4,80004124 <i_4002>

000000008000412c <i_4003>:
    8000412c:	015386b3          	add	a3,t2,s5

0000000080004130 <i_4004>:
    80004130:	40365e1b          	sraiw	t3,a2,0x3

0000000080004134 <i_4005>:
    80004134:	f8f11623          	sh	a5,-116(sp)

0000000080004138 <i_4006>:
    80004138:	00e13c23          	sd	a4,24(sp)

000000008000413c <i_4007>:
    8000413c:	009fabb3          	slt	s7,t6,s1

0000000080004140 <i_4008>:
    80004140:	0217c263          	blt	a5,ra,80004164 <i_4017>

0000000080004144 <i_4009>:
    80004144:	1be10e03          	lb	t3,446(sp)

0000000080004148 <i_4010>:
    80004148:	24090697          	auipc	a3,0x24090

000000008000414c <i_4011>:
    8000414c:	14814503          	lbu	a0,328(sp)

0000000080004150 <i_4012>:
    80004150:	03b7c263          	blt	a5,s11,80004174 <i_4021>

0000000080004154 <i_4013>:
    80004154:	01afca63          	blt	t6,s10,80004168 <i_4018>

0000000080004158 <i_4014>:
    80004158:	03a80d3b          	mulw	s10,a6,s10

000000008000415c <i_4015>:
    8000415c:	02d09463          	bne	ra,a3,80004184 <i_4025>

0000000080004160 <i_4016>:
    80004160:	00f0b533          	sltu	a0,ra,a5

0000000080004164 <i_4017>:
    80004164:	01769c63          	bne	a3,s7,8000417c <i_4023>

0000000080004168 <i_4018>:
    80004168:	12011683          	lh	a3,288(sp)

000000008000416c <i_4019>:
    8000416c:	02d56063          	bltu	a0,a3,8000418c <i_4027>

0000000080004170 <i_4020>:
    80004170:	11a11c23          	sh	s10,280(sp)

0000000080004174 <i_4021>:
    80004174:	0106f263          	bleu	a6,a3,80004178 <i_4022>

0000000080004178 <i_4022>:
    80004178:	40185d1b          	sraiw	s10,a6,0x1

000000008000417c <i_4023>:
    8000417c:	16416183          	lwu	gp,356(sp)

0000000080004180 <i_4024>:
    80004180:	11446513          	ori	a0,s0,276

0000000080004184 <i_4025>:
    80004184:	0341f263          	bleu	s4,gp,800041a8 <i_4034>

0000000080004188 <i_4026>:
    80004188:	f6a13823          	sd	a0,-144(sp)

000000008000418c <i_4027>:
    8000418c:	5897c793          	xori	a5,a5,1417

0000000080004190 <i_4028>:
    80004190:	03051263          	bne	a0,a6,800041b4 <i_4037>

0000000080004194 <i_4029>:
    80004194:	fd154493          	xori	s1,a0,-47

0000000080004198 <i_4030>:
    80004198:	e3c12783          	lw	a5,-452(sp)

000000008000419c <i_4031>:
    8000419c:	03a684bb          	mulw	s1,a3,s10

00000000800041a0 <i_4032>:
    800041a0:	0e816783          	lwu	a5,232(sp)

00000000800041a4 <i_4033>:
    800041a4:	02b52d33          	mulhsu	s10,a0,a1

00000000800041a8 <i_4034>:
    800041a8:	00000013          	nop

00000000800041ac <i_4035>:
    800041ac:	f1815583          	lhu	a1,-232(sp)

00000000800041b0 <i_4036>:
    800041b0:	41a50db3          	sub	s11,a0,s10

00000000800041b4 <i_4037>:
    800041b4:	09b12a23          	sw	s11,148(sp)

00000000800041b8 <i_4038>:
    800041b8:	1a416d83          	lwu	s11,420(sp)

00000000800041bc <i_4039>:
    800041bc:	7cd00513          	li	a0,1997

00000000800041c0 <i_4040>:
    800041c0:	7de00793          	li	a5,2014

00000000800041c4 <i_4041>:
    800041c4:	18f10b23          	sb	a5,406(sp)

00000000800041c8 <i_4042>:
    800041c8:	e3615983          	lhu	s3,-458(sp)

00000000800041cc <i_4043>:
    800041cc:	00000013          	nop

00000000800041d0 <i_4044>:
    800041d0:	00150513          	addi	a0,a0,1
    800041d4:	fef518e3          	bne	a0,a5,800041c4 <i_4041>

00000000800041d8 <i_4045>:
    800041d8:	01bc8a63          	beq	s9,s11,800041ec <i_4050>

00000000800041dc <i_4046>:
    800041dc:	01bdec63          	bltu	s11,s11,800041f4 <i_4052>

00000000800041e0 <i_4047>:
    800041e0:	03b9cbbb          	divw	s7,s3,s11

00000000800041e4 <i_4048>:
    800041e4:	eac14d83          	lbu	s11,-340(sp)

00000000800041e8 <i_4049>:
    800041e8:	d0ab8693          	addi	a3,s7,-758 # ffffffff84553d0a <_end+0xffffffff045438f6>

00000000800041ec <i_4050>:
    800041ec:	00d9d263          	ble	a3,s3,800041f0 <i_4051>

00000000800041f0 <i_4051>:
    800041f0:	e7b12223          	sw	s11,-412(sp)

00000000800041f4 <i_4052>:
    800041f4:	c42286b7          	lui	a3,0xc4228

00000000800041f8 <i_4053>:
    800041f8:	01400693          	li	a3,20

00000000800041fc <i_4054>:
    800041fc:	00d690bb          	sllw	ra,a3,a3

0000000080004200 <i_4055>:
    80004200:	f2615203          	lhu	tp,-218(sp)

0000000080004204 <i_4056>:
    80004204:	0246ddbb          	divuw	s11,a3,tp

0000000080004208 <i_4057>:
    80004208:	f5d12c23          	sw	t4,-168(sp)

000000008000420c <i_4058>:
    8000420c:	04811b03          	lh	s6,72(sp)

0000000080004210 <i_4059>:
    80004210:	fd016203          	lwu	tp,-48(sp)

0000000080004214 <i_4060>:
    80004214:	12016283          	lwu	t0,288(sp)

0000000080004218 <i_4061>:
    80004218:	fed13823          	sd	a3,-16(sp)

000000008000421c <i_4062>:
    8000421c:	01625663          	ble	s6,tp,80004228 <i_4065>

0000000080004220 <i_4063>:
    80004220:	025dd063          	ble	t0,s11,80004240 <i_4071>

0000000080004224 <i_4064>:
    80004224:	0162cc63          	blt	t0,s6,8000423c <i_4070>

0000000080004228 <i_4065>:
    80004228:	fc812283          	lw	t0,-56(sp)

000000008000422c <i_4066>:
    8000422c:	0252eb3b          	remw	s6,t0,t0

0000000080004230 <i_4067>:
    80004230:	1df14283          	lbu	t0,479(sp)

0000000080004234 <i_4068>:
    80004234:	003b1b13          	slli	s6,s6,0x3

0000000080004238 <i_4069>:
    80004238:	016b4463          	blt	s6,s6,80004240 <i_4071>

000000008000423c <i_4070>:
    8000423c:	00500c13          	li	s8,5

0000000080004240 <i_4071>:
    80004240:	018bdbbb          	srlw	s7,s7,s8

0000000080004244 <i_4072>:
    80004244:	2d9b7c13          	andi	s8,s6,729

0000000080004248 <i_4073>:
    80004248:	00d73b33          	sltu	s6,a4,a3

000000008000424c <i_4074>:
    8000424c:	07611e03          	lh	t3,118(sp)

0000000080004250 <i_4075>:
    80004250:	00546e63          	bltu	s0,t0,8000426c <i_4082>

0000000080004254 <i_4076>:
    80004254:	018e02b3          	add	t0,t3,s8

0000000080004258 <i_4077>:
    80004258:	f0a11423          	sh	a0,-248(sp)

000000008000425c <i_4078>:
    8000425c:	02816f03          	lwu	t5,40(sp)

0000000080004260 <i_4079>:
    80004260:	01cf0e33          	add	t3,t5,t3

0000000080004264 <i_4080>:
    80004264:	ef012a23          	sw	a6,-268(sp)

0000000080004268 <i_4081>:
    80004268:	795f0793          	addi	a5,t5,1941 # 24cfaf61 <main-0x5b30509f>

000000008000426c <i_4082>:
    8000426c:	02f7d463          	ble	a5,a5,80004294 <i_4092>

0000000080004270 <i_4083>:
    80004270:	821e0d93          	addi	s11,t3,-2015

0000000080004274 <i_4084>:
    80004274:	025f1463          	bne	t5,t0,8000429c <i_4094>

0000000080004278 <i_4085>:
    80004278:	02fc0263          	beq	s8,a5,8000429c <i_4094>

000000008000427c <i_4086>:
    8000427c:	017f4263          	blt	t5,s7,80004280 <i_4087>

0000000080004280 <i_4087>:
    80004280:	025dc433          	div	s0,s11,t0

0000000080004284 <i_4088>:
    80004284:	03be743b          	remuw	s0,t3,s11

0000000080004288 <i_4089>:
    80004288:	fda11a83          	lh	s5,-38(sp)

000000008000428c <i_4090>:
    8000428c:	ee016183          	lwu	gp,-288(sp)

0000000080004290 <i_4091>:
    80004290:	015e2e33          	slt	t3,t3,s5

0000000080004294 <i_4092>:
    80004294:	fbe14a83          	lbu	s5,-66(sp)

0000000080004298 <i_4093>:
    80004298:	03c1e263          	bltu	gp,t3,800042bc <i_4102>

000000008000429c <i_4094>:
    8000429c:	f27320b7          	lui	ra,0xf2732

00000000800042a0 <i_4095>:
    800042a0:	18311923          	sh	gp,402(sp)

00000000800042a4 <i_4096>:
    800042a4:	0351ce3b          	divw	t3,gp,s5

00000000800042a8 <i_4097>:
    800042a8:	0f210a83          	lb	s5,242(sp)

00000000800042ac <i_4098>:
    800042ac:	ed811503          	lh	a0,-296(sp)

00000000800042b0 <i_4099>:
    800042b0:	00000013          	nop

00000000800042b4 <i_4100>:
    800042b4:	00457e33          	and	t3,a0,tp

00000000800042b8 <i_4101>:
    800042b8:	09111c23          	sh	a7,152(sp)

00000000800042bc <i_4102>:
    800042bc:	ee013203          	ld	tp,-288(sp)

00000000800042c0 <i_4103>:
    800042c0:	02a56533          	rem	a0,a0,a0

00000000800042c4 <i_4104>:
    800042c4:	7eb00393          	li	t2,2027

00000000800042c8 <i_4105>:
    800042c8:	7ff00293          	li	t0,2047

00000000800042cc <i_4106>:
    800042cc:	3e3cec93          	ori	s9,s9,995

00000000800042d0 <i_4107>:
    800042d0:	00456263          	bltu	a0,tp,800042d4 <i_4108>

00000000800042d4 <i_4108>:
    800042d4:	13520c9b          	addiw	s9,tp,309

00000000800042d8 <i_4109>:
    800042d8:	03924263          	blt	tp,s9,800042fc <i_4117>

00000000800042dc <i_4110>:
    800042dc:	00c12b03          	lw	s6,12(sp)

00000000800042e0 <i_4111>:
    800042e0:	00138393          	addi	t2,t2,1
    800042e4:	fe53c4e3          	blt	t2,t0,800042cc <i_4106>

00000000800042e8 <i_4112>:
    800042e8:	16a13823          	sd	a0,368(sp)

00000000800042ec <i_4113>:
    800042ec:	1a816303          	lwu	t1,424(sp)

00000000800042f0 <i_4114>:
    800042f0:	41a282bb          	subw	t0,t0,s10

00000000800042f4 <i_4115>:
    800042f4:	026d033b          	mulw	t1,s10,t1

00000000800042f8 <i_4116>:
    800042f8:	01635c63          	ble	s6,t1,80004310 <i_4122>

00000000800042fc <i_4117>:
    800042fc:	02a2f063          	bleu	a0,t0,8000431c <i_4125>

0000000080004300 <i_4118>:
    80004300:	00a50663          	beq	a0,a0,8000430c <i_4121>

0000000080004304 <i_4119>:
    80004304:	12c12783          	lw	a5,300(sp)

0000000080004308 <i_4120>:
    80004308:	fbd7ce13          	xori	t3,a5,-67

000000008000430c <i_4121>:
    8000430c:	015f6333          	or	t1,t5,s5

0000000080004310 <i_4122>:
    80004310:	0267e833          	rem	a6,a5,t1

0000000080004314 <i_4123>:
    80004314:	06114783          	lbu	a5,97(sp)

0000000080004318 <i_4124>:
    80004318:	f3412783          	lw	a5,-204(sp)

000000008000431c <i_4125>:
    8000431c:	00f87e33          	and	t3,a6,a5

0000000080004320 <i_4126>:
    80004320:	0f816203          	lwu	tp,248(sp)

0000000080004324 <i_4127>:
    80004324:	006e7db3          	and	s11,t3,t1

0000000080004328 <i_4128>:
    80004328:	03c7da3b          	divuw	s4,a5,t3

000000008000432c <i_4129>:
    8000432c:	82ea0d13          	addi	s10,s4,-2002

0000000080004330 <i_4130>:
    80004330:	02c00a93          	li	s5,44

0000000080004334 <i_4131>:
    80004334:	015e1a33          	sll	s4,t3,s5

0000000080004338 <i_4132>:
    80004338:	e6613023          	sd	t1,-416(sp)

000000008000433c <i_4133>:
    8000433c:	a33b04b7          	lui	s1,0xa33b0

0000000080004340 <i_4134>:
    80004340:	f9c10023          	sb	t3,-128(sp)

0000000080004344 <i_4135>:
    80004344:	06412823          	sw	tp,112(sp)

0000000080004348 <i_4136>:
    80004348:	00000013          	nop

000000008000434c <i_4137>:
    8000434c:	00000013          	nop

0000000080004350 <i_4138>:
    80004350:	88300993          	li	s3,-1917

0000000080004354 <i_4139>:
    80004354:	88d00213          	li	tp,-1907

0000000080004358 <i_4140>:
    80004358:	0a911423          	sh	s1,168(sp)

000000008000435c <i_4141>:
    8000435c:	00198993          	addi	s3,s3,1 # ffffffffbb963001 <_end+0xffffffff3b952bed>
    80004360:	ff327ce3          	bleu	s3,tp,80004358 <i_4140>

0000000080004364 <i_4142>:
    80004364:	0099b4b3          	sltu	s1,s3,s1

0000000080004368 <i_4143>:
    80004368:	0334e063          	bltu	s1,s3,80004388 <i_4151>

000000008000436c <i_4144>:
    8000436c:	ff010203          	lb	tp,-16(sp)

0000000080004370 <i_4145>:
    80004370:	22516793          	ori	a5,sp,549

0000000080004374 <i_4146>:
    80004374:	e5311223          	sh	s3,-444(sp)

0000000080004378 <i_4147>:
    80004378:	0647ce13          	xori	t3,a5,100

000000008000437c <i_4148>:
    8000437c:	0107dc63          	ble	a6,a5,80004394 <i_4154>

0000000080004380 <i_4149>:
    80004380:	02c9c633          	div	a2,s3,a2

0000000080004384 <i_4150>:
    80004384:	045c81b7          	lui	gp,0x45c8

0000000080004388 <i_4151>:
    80004388:	02f48463          	beq	s1,a5,800043b0 <i_4161>

000000008000438c <i_4152>:
    8000438c:	15013383          	ld	t2,336(sp)

0000000080004390 <i_4153>:
    80004390:	fb114b03          	lbu	s6,-79(sp)

0000000080004394 <i_4154>:
    80004394:	00f3d463          	ble	a5,t2,8000439c <i_4156>

0000000080004398 <i_4155>:
    80004398:	0163c863          	blt	t2,s6,800043a8 <i_4159>

000000008000439c <i_4156>:
    8000439c:	1cf109a3          	sb	a5,467(sp)

00000000800043a0 <i_4157>:
    800043a0:	036387b3          	mul	a5,t2,s6

00000000800043a4 <i_4158>:
    800043a4:	0037c3b3          	xor	t2,a5,gp

00000000800043a8 <i_4159>:
    800043a8:	1dc11a83          	lh	s5,476(sp)

00000000800043ac <i_4160>:
    800043ac:	02f387bb          	mulw	a5,t2,a5

00000000800043b0 <i_4161>:
    800043b0:	01f3fe63          	bleu	t6,t2,800043cc <i_4168>

00000000800043b4 <i_4162>:
    800043b4:	015b6a63          	bltu	s6,s5,800043c8 <i_4167>

00000000800043b8 <i_4163>:
    800043b8:	f8811983          	lh	s3,-120(sp)

00000000800043bc <i_4164>:
    800043bc:	4017da9b          	sraiw	s5,a5,0x1

00000000800043c0 <i_4165>:
    800043c0:	008afc63          	bleu	s0,s5,800043d8 <i_4171>

00000000800043c4 <i_4166>:
    800043c4:	013afa63          	bleu	s3,s5,800043d8 <i_4171>

00000000800043c8 <i_4167>:
    800043c8:	f0512423          	sw	t0,-248(sp)

00000000800043cc <i_4168>:
    800043cc:	12215803          	lhu	a6,290(sp)

00000000800043d0 <i_4169>:
    800043d0:	41aa8d33          	sub	s10,s5,s10

00000000800043d4 <i_4170>:
    800043d4:	035ac533          	div	a0,s5,s5

00000000800043d8 <i_4171>:
    800043d8:	00281a9b          	slliw	s5,a6,0x2

00000000800043dc <i_4172>:
    800043dc:	030a8463          	beq	s5,a6,80004404 <i_4182>

00000000800043e0 <i_4173>:
    800043e0:	00a87c63          	bleu	a0,a6,800043f8 <i_4179>

00000000800043e4 <i_4174>:
    800043e4:	e4014683          	lbu	a3,-448(sp)

00000000800043e8 <i_4175>:
    800043e8:	01ae9c63          	bne	t4,s10,80004400 <i_4181>

00000000800043ec <i_4176>:
    800043ec:	e7614e83          	lbu	t4,-394(sp)

00000000800043f0 <i_4177>:
    800043f0:	ec815783          	lhu	a5,-312(sp)

00000000800043f4 <i_4178>:
    800043f4:	00f57a63          	bleu	a5,a0,80004408 <i_4183>

00000000800043f8 <i_4179>:
    800043f8:	40a78abb          	subw	s5,a5,a0

00000000800043fc <i_4180>:
    800043fc:	01900393          	li	t2,25

0000000080004400 <i_4181>:
    80004400:	4076df3b          	sraw	t5,a3,t2

0000000080004404 <i_4182>:
    80004404:	e7c14b03          	lbu	s6,-388(sp)

0000000080004408 <i_4183>:
    80004408:	05412603          	lw	a2,84(sp)

000000008000440c <i_4184>:
    8000440c:	02f39cb3          	mulh	s9,t2,a5

0000000080004410 <i_4185>:
    80004410:	00815863          	ble	s0,sp,80004420 <i_4189>

0000000080004414 <i_4186>:
    80004414:	01c00b13          	li	s6,28

0000000080004418 <i_4187>:
    80004418:	416cdbb3          	sra	s7,s9,s6

000000008000441c <i_4188>:
    8000441c:	01910783          	lb	a5,25(sp)

0000000080004420 <i_4189>:
    80004420:	6d5c73b7          	lui	t2,0x6d5c7

0000000080004424 <i_4190>:
    80004424:	0bc11683          	lh	a3,188(sp)

0000000080004428 <i_4191>:
    80004428:	f2816483          	lwu	s1,-216(sp)

000000008000442c <i_4192>:
    8000442c:	00a877b3          	and	a5,a6,a0

0000000080004430 <i_4193>:
    80004430:	1d811783          	lh	a5,472(sp)

0000000080004434 <i_4194>:
    80004434:	009d9e63          	bne	s11,s1,80004450 <i_4201>

0000000080004438 <i_4195>:
    80004438:	0294d9b3          	divu	s3,s1,s1

000000008000443c <i_4196>:
    8000443c:	00d4ee63          	bltu	s1,a3,80004458 <i_4203>

0000000080004440 <i_4197>:
    80004440:	0022d993          	srli	s3,t0,0x2

0000000080004444 <i_4198>:
    80004444:	f2210f23          	sb	sp,-194(sp)

0000000080004448 <i_4199>:
    80004448:	004b5f1b          	srliw	t5,s6,0x4

000000008000444c <i_4200>:
    8000444c:	15012283          	lw	t0,336(sp)

0000000080004450 <i_4201>:
    80004450:	0d013b03          	ld	s6,208(sp)

0000000080004454 <i_4202>:
    80004454:	01ab7c63          	bleu	s10,s6,8000446c <i_4208>

0000000080004458 <i_4203>:
    80004458:	879724b7          	lui	s1,0x87972

000000008000445c <i_4204>:
    8000445c:	f3e106a3          	sb	t5,-211(sp)

0000000080004460 <i_4205>:
    80004460:	0054ea63          	bltu	s1,t0,80004474 <i_4210>

0000000080004464 <i_4206>:
    80004464:	0057e263          	bltu	a5,t0,80004468 <i_4207>

0000000080004468 <i_4207>:
    80004468:	03611223          	sh	s6,36(sp)

000000008000446c <i_4208>:
    8000446c:	0055a4b3          	slt	s1,a1,t0

0000000080004470 <i_4209>:
    80004470:	e1d10c83          	lb	s9,-483(sp)

0000000080004474 <i_4210>:
    80004474:	03f6e333          	rem	t1,a3,t6

0000000080004478 <i_4211>:
    80004478:	e2813303          	ld	t1,-472(sp)

000000008000447c <i_4212>:
    8000447c:	fbc11f03          	lh	t5,-68(sp)

0000000080004480 <i_4213>:
    80004480:	e2a11923          	sh	a0,-462(sp)

0000000080004484 <i_4214>:
    80004484:	026c8533          	mul	a0,s9,t1

0000000080004488 <i_4215>:
    80004488:	10611323          	sh	t1,262(sp)

000000008000448c <i_4216>:
    8000448c:	06212423          	sw	sp,104(sp)

0000000080004490 <i_4217>:
    80004490:	0d416c83          	lwu	s9,212(sp)

0000000080004494 <i_4218>:
    80004494:	001e5c9b          	srliw	s9,t3,0x1

0000000080004498 <i_4219>:
    80004498:	85d00313          	li	t1,-1955

000000008000449c <i_4220>:
    8000449c:	87100e13          	li	t3,-1935

00000000800044a0 <i_4221>:
    800044a0:	01ccc663          	blt	s9,t3,800044ac <i_4224>

00000000800044a4 <i_4222>:
    800044a4:	ef816d83          	lwu	s11,-264(sp)

00000000800044a8 <i_4223>:
    800044a8:	011ded33          	or	s10,s11,a7

00000000800044ac <i_4224>:
    800044ac:	13813d83          	ld	s11,312(sp)

00000000800044b0 <i_4225>:
    800044b0:	03c59b33          	mulh	s6,a1,t3

00000000800044b4 <i_4226>:
    800044b4:	07016d83          	lwu	s11,112(sp)

00000000800044b8 <i_4227>:
    800044b8:	00000013          	nop

00000000800044bc <i_4228>:
    800044bc:	019dcb33          	xor	s6,s11,s9

00000000800044c0 <i_4229>:
    800044c0:	ed013c83          	ld	s9,-304(sp)

00000000800044c4 <i_4230>:
    800044c4:	1b611823          	sh	s6,432(sp)

00000000800044c8 <i_4231>:
    800044c8:	fb412783          	lw	a5,-76(sp)

00000000800044cc <i_4232>:
    800044cc:	036b0063          	beq	s6,s6,800044ec <i_4239>

00000000800044d0 <i_4233>:
    800044d0:	022b5063          	ble	sp,s6,800044f0 <i_4240>

00000000800044d4 <i_4234>:
    800044d4:	fb514b03          	lbu	s6,-75(sp)

00000000800044d8 <i_4235>:
    800044d8:	00130313          	addi	t1,t1,1
    800044dc:	fdc312e3          	bne	t1,t3,800044a0 <i_4221>

00000000800044e0 <i_4236>:
    800044e0:	e5e15383          	lhu	t2,-418(sp)

00000000800044e4 <i_4237>:
    800044e4:	004ddf13          	srli	t5,s11,0x4

00000000800044e8 <i_4238>:
    800044e8:	0fa15983          	lhu	s3,250(sp)

00000000800044ec <i_4239>:
    800044ec:	015cda63          	ble	s5,s9,80004500 <i_4244>

00000000800044f0 <i_4240>:
    800044f0:	f8415183          	lhu	gp,-124(sp)

00000000800044f4 <i_4241>:
    800044f4:	15310fa3          	sb	s3,351(sp)

00000000800044f8 <i_4242>:
    800044f8:	0337c6bb          	divw	a3,a5,s3

00000000800044fc <i_4243>:
    800044fc:	02fdfb3b          	remuw	s6,s11,a5

0000000080004500 <i_4244>:
    80004500:	016c9c63          	bne	s9,s6,80004518 <i_4250>

0000000080004504 <i_4245>:
    80004504:	ef310ba3          	sb	s3,-265(sp)

0000000080004508 <i_4246>:
    80004508:	eaa14383          	lbu	t2,-342(sp)

000000008000450c <i_4247>:
    8000450c:	00d9e263          	bltu	s3,a3,80004510 <i_4248>

0000000080004510 <i_4248>:
    80004510:	005dec63          	bltu	s11,t0,80004528 <i_4254>

0000000080004514 <i_4249>:
    80004514:	00db7863          	bleu	a3,s6,80004524 <i_4253>

0000000080004518 <i_4250>:
    80004518:	00239d13          	slli	s10,t2,0x2

000000008000451c <i_4251>:
    8000451c:	003cd993          	srli	s3,s9,0x3

0000000080004520 <i_4252>:
    80004520:	ff812383          	lw	t2,-8(sp)

0000000080004524 <i_4253>:
    80004524:	1a813b03          	ld	s6,424(sp)

0000000080004528 <i_4254>:
    80004528:	01bdd463          	ble	s11,s11,80004530 <i_4256>

000000008000452c <i_4255>:
    8000452c:	41a78bb3          	sub	s7,a5,s10

0000000080004530 <i_4256>:
    80004530:	0d013b83          	ld	s7,208(sp)

0000000080004534 <i_4257>:
    80004534:	003b7263          	bleu	gp,s6,80004538 <i_4258>

0000000080004538 <i_4258>:
    80004538:	f5211c83          	lh	s9,-174(sp)

000000008000453c <i_4259>:
    8000453c:	10312623          	sw	gp,268(sp)

0000000080004540 <i_4260>:
    80004540:	0a610a03          	lb	s4,166(sp)

0000000080004544 <i_4261>:
    80004544:	e1d14c03          	lbu	s8,-483(sp)

0000000080004548 <i_4262>:
    80004548:	f2815203          	lhu	tp,-216(sp)

000000008000454c <i_4263>:
    8000454c:	03416503          	lwu	a0,52(sp)

0000000080004550 <i_4264>:
    80004550:	ecf11d23          	sh	a5,-294(sp)

0000000080004554 <i_4265>:
    80004554:	004b8463          	beq	s7,tp,8000455c <i_4267>

0000000080004558 <i_4266>:
    80004558:	034cea33          	rem	s4,s9,s4

000000008000455c <i_4267>:
    8000455c:	00f7a433          	slt	s0,a5,a5

0000000080004560 <i_4268>:
    80004560:	19211e23          	sh	s2,412(sp)

0000000080004564 <i_4269>:
    80004564:	80b00793          	li	a5,-2037

0000000080004568 <i_4270>:
    80004568:	80d00c93          	li	s9,-2035

000000008000456c <i_4271>:
    8000456c:	00178793          	addi	a5,a5,1 # 663c2001 <main-0x19c3dfff>
    80004570:	fefcfee3          	bleu	a5,s9,8000456c <i_4271>

0000000080004574 <i_4272>:
    80004574:	019cf863          	bleu	s9,s9,80004584 <i_4276>

0000000080004578 <i_4273>:
    80004578:	f3711523          	sh	s7,-214(sp)

000000008000457c <i_4274>:
    8000457c:	10812223          	sw	s0,260(sp)

0000000080004580 <i_4275>:
    80004580:	00000013          	nop

0000000080004584 <i_4276>:
    80004584:	179106a3          	sb	s9,365(sp)

0000000080004588 <i_4277>:
    80004588:	f7910623          	sb	s9,-148(sp)

000000008000458c <i_4278>:
    8000458c:	89300c93          	li	s9,-1901

0000000080004590 <i_4279>:
    80004590:	89900793          	li	a5,-1895

0000000080004594 <i_4280>:
    80004594:	f4813c23          	sd	s0,-168(sp)

0000000080004598 <i_4281>:
    80004598:	03242533          	mulhsu	a0,s0,s2

000000008000459c <i_4282>:
    8000459c:	18013403          	ld	s0,384(sp)

00000000800045a0 <i_4283>:
    800045a0:	036cd063          	ble	s6,s9,800045c0 <i_4290>

00000000800045a4 <i_4284>:
    800045a4:	00000013          	nop

00000000800045a8 <i_4285>:
    800045a8:	00acc2b3          	xor	t0,s9,a0

00000000800045ac <i_4286>:
    800045ac:	eae10303          	lb	t1,-338(sp)

00000000800045b0 <i_4287>:
    800045b0:	001c8c93          	addi	s9,s9,1
    800045b4:	fefce0e3          	bltu	s9,a5,80004594 <i_4280>

00000000800045b8 <i_4288>:
    800045b8:	04c16303          	lwu	t1,76(sp)

00000000800045bc <i_4289>:
    800045bc:	0bc12b03          	lw	s6,188(sp)

00000000800045c0 <i_4290>:
    800045c0:	0032149b          	slliw	s1,tp,0x3

00000000800045c4 <i_4291>:
    800045c4:	026a3cb3          	mulhu	s9,s4,t1

00000000800045c8 <i_4292>:
    800045c8:	03679463          	bne	a5,s6,800045f0 <i_4302>

00000000800045cc <i_4293>:
    800045cc:	0052f663          	bleu	t0,t0,800045d8 <i_4296>

00000000800045d0 <i_4294>:
    800045d0:	19e11a03          	lh	s4,414(sp)

00000000800045d4 <i_4295>:
    800045d4:	12613823          	sd	t1,304(sp)

00000000800045d8 <i_4296>:
    800045d8:	f1013303          	ld	t1,-240(sp)

00000000800045dc <i_4297>:
    800045dc:	014b0e63          	beq	s6,s4,800045f8 <i_4304>

00000000800045e0 <i_4298>:
    800045e0:	019c0ab3          	add	s5,s8,s9

00000000800045e4 <i_4299>:
    800045e4:	0344cdbb          	divw	s11,s1,s4

00000000800045e8 <i_4300>:
    800045e8:	026f5463          	ble	t1,t5,80004610 <i_4310>

00000000800045ec <i_4301>:
    800045ec:	01611823          	sh	s6,16(sp)

00000000800045f0 <i_4302>:
    800045f0:	ef416403          	lwu	s0,-268(sp)

00000000800045f4 <i_4303>:
    800045f4:	14614a83          	lbu	s5,326(sp)

00000000800045f8 <i_4304>:
    800045f8:	035d9463          	bne	s11,s5,80004620 <i_4314>

00000000800045fc <i_4305>:
    800045fc:	e4412d03          	lw	s10,-444(sp)

0000000080004600 <i_4306>:
    80004600:	ef510923          	sb	s5,-270(sp)

0000000080004604 <i_4307>:
    80004604:	14114d83          	lbu	s11,321(sp)

0000000080004608 <i_4308>:
    80004608:	03aaed33          	rem	s10,s5,s10

000000008000460c <i_4309>:
    8000460c:	01ba9863          	bne	s5,s11,8000461c <i_4313>

0000000080004610 <i_4310>:
    80004610:	03adddb3          	divu	s11,s11,s10

0000000080004614 <i_4311>:
    80004614:	11512a23          	sw	s5,276(sp)

0000000080004618 <i_4312>:
    80004618:	f4013803          	ld	a6,-192(sp)

000000008000461c <i_4313>:
    8000461c:	03586063          	bltu	a6,s5,8000463c <i_4321>

0000000080004620 <i_4314>:
    80004620:	03300813          	li	a6,51

0000000080004624 <i_4315>:
    80004624:	01085a33          	srl	s4,a6,a6

0000000080004628 <i_4316>:
    80004628:	7b787e13          	andi	t3,a6,1975

000000008000462c <i_4317>:
    8000462c:	03084333          	div	t1,a6,a6

0000000080004630 <i_4318>:
    80004630:	4063083b          	subw	a6,t1,t1

0000000080004634 <i_4319>:
    80004634:	01800193          	li	gp,24

0000000080004638 <i_4320>:
    80004638:	4033583b          	sraw	a6,t1,gp

000000008000463c <i_4321>:
    8000463c:	18416d03          	lwu	s10,388(sp)

0000000080004640 <i_4322>:
    80004640:	7569b813          	sltiu	a6,s3,1878

0000000080004644 <i_4323>:
    80004644:	12510183          	lb	gp,293(sp)

0000000080004648 <i_4324>:
    80004648:	0239d1b3          	divu	gp,s3,gp

000000008000464c <i_4325>:
    8000464c:	01800a93          	li	s5,24

0000000080004650 <i_4326>:
    80004650:	0151d1bb          	srlw	gp,gp,s5

0000000080004654 <i_4327>:
    80004654:	13312823          	sw	s3,304(sp)

0000000080004658 <i_4328>:
    80004658:	0031e463          	bltu	gp,gp,80004660 <i_4330>

000000008000465c <i_4329>:
    8000465c:	ff215d83          	lhu	s11,-14(sp)

0000000080004660 <i_4330>:
    80004660:	06012a03          	lw	s4,96(sp)

0000000080004664 <i_4331>:
    80004664:	011dcc63          	blt	s11,a7,8000467c <i_4337>

0000000080004668 <i_4332>:
    80004668:	0071e463          	bltu	gp,t2,80004670 <i_4334>

000000008000466c <i_4333>:
    8000466c:	16213c23          	sd	sp,376(sp)

0000000080004670 <i_4334>:
    80004670:	01400793          	li	a5,20

0000000080004674 <i_4335>:
    80004674:	00fa94bb          	sllw	s1,s5,a5

0000000080004678 <i_4336>:
    80004678:	fec11383          	lh	t2,-20(sp)

000000008000467c <i_4337>:
    8000467c:	9076cf13          	xori	t5,a3,-1785

0000000080004680 <i_4338>:
    80004680:	f3914e83          	lbu	t4,-199(sp)

0000000080004684 <i_4339>:
    80004684:	7d800693          	li	a3,2008

0000000080004688 <i_4340>:
    80004688:	7e300d93          	li	s11,2019

000000008000468c <i_4341>:
    8000468c:	e5c12383          	lw	t2,-420(sp)

0000000080004690 <i_4342>:
    80004690:	16d13c23          	sd	a3,376(sp)

0000000080004694 <i_4343>:
    80004694:	14711e23          	sh	t2,348(sp)

0000000080004698 <i_4344>:
    80004698:	40780833          	sub	a6,a6,t2

000000008000469c <i_4345>:
    8000469c:	03f5d7b3          	divu	a5,a1,t6

00000000800046a0 <i_4346>:
    800046a0:	01100213          	li	tp,17

00000000800046a4 <i_4347>:
    800046a4:	004cd23b          	srlw	tp,s9,tp

00000000800046a8 <i_4348>:
    800046a8:	e4016403          	lwu	s0,-448(sp)

00000000800046ac <i_4349>:
    800046ac:	00168693          	addi	a3,a3,1 # ffffffffc4228001 <_end+0xffffffff44217bed>
    800046b0:	fdb6cee3          	blt	a3,s11,8000468c <i_4341>

00000000800046b4 <i_4350>:
    800046b4:	0087ca63          	blt	a5,s0,800046c8 <i_4355>

00000000800046b8 <i_4351>:
    800046b8:	0a812823          	sw	s0,176(sp)

00000000800046bc <i_4352>:
    800046bc:	0087da63          	ble	s0,a5,800046d0 <i_4357>

00000000800046c0 <i_4353>:
    800046c0:	1a816803          	lwu	a6,424(sp)

00000000800046c4 <i_4354>:
    800046c4:	02827ab3          	remu	s5,tp,s0

00000000800046c8 <i_4355>:
    800046c8:	00000013          	nop

00000000800046cc <i_4356>:
    800046cc:	00000013          	nop

00000000800046d0 <i_4357>:
    800046d0:	00000013          	nop

00000000800046d4 <i_4358>:
    800046d4:	00000013          	nop

00000000800046d8 <i_4359>:
    800046d8:	79c00d13          	li	s10,1948

00000000800046dc <i_4360>:
    800046dc:	7b000793          	li	a5,1968

00000000800046e0 <i_4361>:
    800046e0:	ffe11803          	lh	a6,-2(sp)

00000000800046e4 <i_4362>:
    800046e4:	903a8813          	addi	a6,s5,-1789

00000000800046e8 <i_4363>:
    800046e8:	001d0d13          	addi	s10,s10,1
    800046ec:	fefd6ae3          	bltu	s10,a5,800046e0 <i_4361>

00000000800046f0 <i_4364>:
    800046f0:	01600a93          	li	s5,22

00000000800046f4 <i_4365>:
    800046f4:	01521833          	sll	a6,tp,s5

00000000800046f8 <i_4366>:
    800046f8:	03686063          	bltu	a6,s6,80004718 <i_4374>

00000000800046fc <i_4367>:
    800046fc:	fa812383          	lw	t2,-88(sp)

0000000080004700 <i_4368>:
    80004700:	0300e83b          	remw	a6,ra,a6

0000000080004704 <i_4369>:
    80004704:	f3a15183          	lhu	gp,-198(sp)

0000000080004708 <i_4370>:
    80004708:	ffb14303          	lbu	t1,-5(sp)

000000008000470c <i_4371>:
    8000470c:	01048eb3          	add	t4,s1,a6

0000000080004710 <i_4372>:
    80004710:	0038539b          	srliw	t2,a6,0x3

0000000080004714 <i_4373>:
    80004714:	00000013          	nop

0000000080004718 <i_4374>:
    80004718:	01087333          	and	t1,a6,a6

000000008000471c <i_4375>:
    8000471c:	00000013          	nop

0000000080004720 <i_4376>:
    80004720:	89f00493          	li	s1,-1889

0000000080004724 <i_4377>:
    80004724:	8b000813          	li	a6,-1872

0000000080004728 <i_4378>:
    80004728:	409e833b          	subw	t1,t4,s1

000000008000472c <i_4379>:
    8000472c:	f4414603          	lbu	a2,-188(sp)

0000000080004730 <i_4380>:
    80004730:	00148493          	addi	s1,s1,1 # ffffffff87972001 <_end+0xffffffff07961bed>
    80004734:	fe987ae3          	bleu	s1,a6,80004728 <i_4378>

0000000080004738 <i_4381>:
    80004738:	f1010d23          	sb	a6,-230(sp)

000000008000473c <i_4382>:
    8000473c:	00a00613          	li	a2,10

0000000080004740 <i_4383>:
    80004740:	40c75abb          	sraw	s5,a4,a2

0000000080004744 <i_4384>:
    80004744:	009303b3          	add	t2,t1,s1

0000000080004748 <i_4385>:
    80004748:	01c86e33          	or	t3,a6,t3

000000008000474c <i_4386>:
    8000474c:	86600813          	li	a6,-1946

0000000080004750 <i_4387>:
    80004750:	86a00b13          	li	s6,-1942

0000000080004754 <i_4388>:
    80004754:	1ac15303          	lhu	t1,428(sp)

0000000080004758 <i_4389>:
    80004758:	08015183          	lhu	gp,128(sp)

000000008000475c <i_4390>:
    8000475c:	0103e9b3          	or	s3,t2,a6

0000000080004760 <i_4391>:
    80004760:	e0910c23          	sb	s1,-488(sp)

0000000080004764 <i_4392>:
    80004764:	01584863          	blt	a6,s5,80004774 <i_4396>

0000000080004768 <i_4393>:
    80004768:	e0b9a693          	slti	a3,s3,-501

000000008000476c <i_4394>:
    8000476c:	fcc16183          	lwu	gp,-52(sp)

0000000080004770 <i_4395>:
    80004770:	f3513823          	sd	s5,-208(sp)

0000000080004774 <i_4396>:
    80004774:	001bd993          	srli	s3,s7,0x1

0000000080004778 <i_4397>:
    80004778:	e5e15983          	lhu	s3,-418(sp)

000000008000477c <i_4398>:
    8000477c:	76300493          	li	s1,1891

0000000080004780 <i_4399>:
    80004780:	76800a93          	li	s5,1896

0000000080004784 <i_4400>:
    80004784:	00148493          	addi	s1,s1,1
    80004788:	ff54eee3          	bltu	s1,s5,80004784 <i_4400>

000000008000478c <i_4401>:
    8000478c:	23526c37          	lui	s8,0x23526

0000000080004790 <i_4402>:
    80004790:	ed311523          	sh	s3,-310(sp)

0000000080004794 <i_4403>:
    80004794:	03819663          	bne	gp,s8,800047c0 <i_4413>

0000000080004798 <i_4404>:
    80004798:	00180813          	addi	a6,a6,1
    8000479c:	fb686ce3          	bltu	a6,s6,80004754 <i_4388>

00000000800047a0 <i_4405>:
    800047a0:	0e510983          	lb	s3,229(sp)

00000000800047a4 <i_4406>:
    800047a4:	0a615603          	lhu	a2,166(sp)

00000000800047a8 <i_4407>:
    800047a8:	14416c83          	lwu	s9,324(sp)

00000000800047ac <i_4408>:
    800047ac:	e6c12f03          	lw	t5,-404(sp)

00000000800047b0 <i_4409>:
    800047b0:	034a0a3b          	mulw	s4,s4,s4

00000000800047b4 <i_4410>:
    800047b4:	0e016303          	lwu	t1,224(sp)

00000000800047b8 <i_4411>:
    800047b8:	002cda13          	srli	s4,s9,0x2

00000000800047bc <i_4412>:
    800047bc:	ed912a23          	sw	s9,-300(sp)

00000000800047c0 <i_4413>:
    800047c0:	14016b83          	lwu	s7,320(sp)

00000000800047c4 <i_4414>:
    800047c4:	06412c83          	lw	s9,100(sp)

00000000800047c8 <i_4415>:
    800047c8:	03936a33          	rem	s4,t1,s9

00000000800047cc <i_4416>:
    800047cc:	0349dcb3          	divu	s9,s3,s4

00000000800047d0 <i_4417>:
    800047d0:	02ccd063          	ble	a2,s9,800047f0 <i_4425>

00000000800047d4 <i_4418>:
    800047d4:	40365993          	srai	s3,a2,0x3

00000000800047d8 <i_4419>:
    800047d8:	03437263          	bleu	s4,t1,800047fc <i_4428>

00000000800047dc <i_4420>:
    800047dc:	18815303          	lhu	t1,392(sp)

00000000800047e0 <i_4421>:
    800047e0:	02fa4e3b          	divw	t3,s4,a5

00000000800047e4 <i_4422>:
    800047e4:	5b9e6a13          	ori	s4,t3,1465

00000000800047e8 <i_4423>:
    800047e8:	ff813203          	ld	tp,-8(sp)

00000000800047ec <i_4424>:
    800047ec:	f2210e03          	lb	t3,-222(sp)

00000000800047f0 <i_4425>:
    800047f0:	0f013e03          	ld	t3,240(sp)

00000000800047f4 <i_4426>:
    800047f4:	1e014303          	lbu	t1,480(sp)

00000000800047f8 <i_4427>:
    800047f8:	02635063          	ble	t1,t1,80004818 <i_4435>

00000000800047fc <i_4428>:
    800047fc:	ec910303          	lb	t1,-311(sp)

0000000080004800 <i_4429>:
    80004800:	fbc11823          	sh	t3,-80(sp)

0000000080004804 <i_4430>:
    80004804:	02d6f6b3          	remu	a3,a3,a3

0000000080004808 <i_4431>:
    80004808:	00421a63          	bne	tp,tp,8000481c <i_4436>

000000008000480c <i_4432>:
    8000480c:	f3c13423          	sd	t3,-216(sp)

0000000080004810 <i_4433>:
    80004810:	00530863          	beq	t1,t0,80004820 <i_4437>

0000000080004814 <i_4434>:
    80004814:	01600c13          	li	s8,22

0000000080004818 <i_4435>:
    80004818:	018310bb          	sllw	ra,t1,s8

000000008000481c <i_4436>:
    8000481c:	001e5c1b          	srliw	s8,t3,0x1

0000000080004820 <i_4437>:
    80004820:	ee013283          	ld	t0,-288(sp)

0000000080004824 <i_4438>:
    80004824:	e5012303          	lw	t1,-432(sp)

0000000080004828 <i_4439>:
    80004828:	01cc0663          	beq	s8,t3,80004834 <i_4442>

000000008000482c <i_4440>:
    8000482c:	f3813023          	sd	s8,-224(sp)

0000000080004830 <i_4441>:
    80004830:	01e00693          	li	a3,30

0000000080004834 <i_4442>:
    80004834:	40d0d6bb          	sraw	a3,ra,a3

0000000080004838 <i_4443>:
    80004838:	00d6ec63          	bltu	a3,a3,80004850 <i_4449>

000000008000483c <i_4444>:
    8000483c:	0010c0b3          	xor	ra,ra,ra

0000000080004840 <i_4445>:
    80004840:	00deb0b3          	sltu	ra,t4,a3

0000000080004844 <i_4446>:
    80004844:	00d2dc63          	ble	a3,t0,8000485c <i_4452>

0000000080004848 <i_4447>:
    80004848:	c6a2c393          	xori	t2,t0,-918

000000008000484c <i_4448>:
    8000484c:	fa412d83          	lw	s11,-92(sp)

0000000080004850 <i_4449>:
    80004850:	0cc11023          	sh	a2,192(sp)

0000000080004854 <i_4450>:
    80004854:	f9011683          	lh	a3,-112(sp)

0000000080004858 <i_4451>:
    80004858:	00000013          	nop

000000008000485c <i_4452>:
    8000485c:	0c816383          	lwu	t2,200(sp)

0000000080004860 <i_4453>:
    80004860:	4463b693          	sltiu	a3,t2,1094

0000000080004864 <i_4454>:
    80004864:	81800293          	li	t0,-2024

0000000080004868 <i_4455>:
    80004868:	81d00b93          	li	s7,-2019

000000008000486c <i_4456>:
    8000486c:	0216a3b3          	mulhsu	t2,a3,ra

0000000080004870 <i_4457>:
    80004870:	fc110b23          	sb	ra,-42(sp)

0000000080004874 <i_4458>:
    80004874:	75e00093          	li	ra,1886

0000000080004878 <i_4459>:
    80004878:	76900693          	li	a3,1897

000000008000487c <i_4460>:
    8000487c:	ede15383          	lhu	t2,-290(sp)

0000000080004880 <i_4461>:
    80004880:	00108093          	addi	ra,ra,1 # fffffffff2732001 <_end+0xffffffff72721bed>
    80004884:	fed09ce3          	bne	ra,a3,8000487c <i_4460>

0000000080004888 <i_4462>:
    80004888:	10711123          	sh	t2,258(sp)

000000008000488c <i_4463>:
    8000488c:	11013083          	ld	ra,272(sp)

0000000080004890 <i_4464>:
    80004890:	00128293          	addi	t0,t0,1
    80004894:	fc5bdce3          	ble	t0,s7,8000486c <i_4456>

0000000080004898 <i_4465>:
    80004898:	0053ea63          	bltu	t2,t0,800048ac <i_4470>

000000008000489c <i_4466>:
    8000489c:	0213e263          	bltu	t2,ra,800048c0 <i_4475>

00000000800048a0 <i_4467>:
    800048a0:	04110ea3          	sb	ra,93(sp)

00000000800048a4 <i_4468>:
    800048a4:	02f332b3          	mulhu	t0,t1,a5

00000000800048a8 <i_4469>:
    800048a8:	4043d21b          	sraiw	tp,t2,0x4

00000000800048ac <i_4470>:
    800048ac:	f4411923          	sh	tp,-174(sp)

00000000800048b0 <i_4471>:
    800048b0:	00520333          	add	t1,tp,t0

00000000800048b4 <i_4472>:
    800048b4:	56133213          	sltiu	tp,t1,1377

00000000800048b8 <i_4473>:
    800048b8:	e9a15583          	lhu	a1,-358(sp)

00000000800048bc <i_4474>:
    800048bc:	0042c233          	xor	tp,t0,tp

00000000800048c0 <i_4475>:
    800048c0:	f4013683          	ld	a3,-192(sp)

00000000800048c4 <i_4476>:
    800048c4:	fed11b23          	sh	a3,-10(sp)

00000000800048c8 <i_4477>:
    800048c8:	02dd76bb          	remuw	a3,s10,a3

00000000800048cc <i_4478>:
    800048cc:	010aca63          	blt	s5,a6,800048e0 <i_4483>

00000000800048d0 <i_4479>:
    800048d0:	bdb88c97          	auipc	s9,0xbdb88

00000000800048d4 <i_4480>:
    800048d4:	0195e463          	bltu	a1,s9,800048dc <i_4482>

00000000800048d8 <i_4481>:
    800048d8:	00bbff33          	and	t5,s7,a1

00000000800048dc <i_4482>:
    800048dc:	11e11323          	sh	t5,262(sp)

00000000800048e0 <i_4483>:
    800048e0:	18b109a3          	sb	a1,403(sp)

00000000800048e4 <i_4484>:
    800048e4:	f9c12c23          	sw	t3,-104(sp)

00000000800048e8 <i_4485>:
    800048e8:	e1b10583          	lb	a1,-485(sp)

00000000800048ec <i_4486>:
    800048ec:	02100c93          	li	s9,33

00000000800048f0 <i_4487>:
    800048f0:	0195d5b3          	srl	a1,a1,s9

00000000800048f4 <i_4488>:
    800048f4:	18b12e23          	sw	a1,412(sp)

00000000800048f8 <i_4489>:
    800048f8:	01eb7863          	bleu	t5,s6,80004908 <i_4493>

00000000800048fc <i_4490>:
    800048fc:	00300493          	li	s1,3

0000000080004900 <i_4491>:
    80004900:	4094dcb3          	sra	s9,s1,s1

0000000080004904 <i_4492>:
    80004904:	ec710603          	lb	a2,-313(sp)

0000000080004908 <i_4493>:
    80004908:	00b00393          	li	t2,11

000000008000490c <i_4494>:
    8000490c:	407cd63b          	sraw	a2,s9,t2

0000000080004910 <i_4495>:
    80004910:	e5611083          	lh	ra,-426(sp)

0000000080004914 <i_4496>:
    80004914:	fee11c83          	lh	s9,-18(sp)

0000000080004918 <i_4497>:
    80004918:	40760633          	sub	a2,a2,t2

000000008000491c <i_4498>:
    8000491c:	8eb62093          	slti	ra,a2,-1813

0000000080004920 <i_4499>:
    80004920:	18c12223          	sw	a2,388(sp)

0000000080004924 <i_4500>:
    80004924:	019cde63          	ble	s9,s9,80004940 <i_4507>

0000000080004928 <i_4501>:
    80004928:	e5415c83          	lhu	s9,-428(sp)

000000008000492c <i_4502>:
    8000492c:	002dd813          	srli	a6,s11,0x2

0000000080004930 <i_4503>:
    80004930:	00b00c93          	li	s9,11

0000000080004934 <i_4504>:
    80004934:	019cdcb3          	srl	s9,s9,s9

0000000080004938 <i_4505>:
    80004938:	0d913823          	sd	s9,208(sp)

000000008000493c <i_4506>:
    8000493c:	01d14d83          	lbu	s11,29(sp)

0000000080004940 <i_4507>:
    80004940:	f0813803          	ld	a6,-248(sp)

0000000080004944 <i_4508>:
    80004944:	03816283          	lwu	t0,56(sp)

0000000080004948 <i_4509>:
    80004948:	0028181b          	slliw	a6,a6,0x2

000000008000494c <i_4510>:
    8000494c:	ff813983          	ld	s3,-8(sp)

0000000080004950 <i_4511>:
    80004950:	f6c108a3          	sb	a2,-143(sp)

0000000080004954 <i_4512>:
    80004954:	15410283          	lb	t0,340(sp)

0000000080004958 <i_4513>:
    80004958:	e7a10f03          	lb	t5,-390(sp)

000000008000495c <i_4514>:
    8000495c:	03e2d063          	ble	t5,t0,8000497c <i_4522>

0000000080004960 <i_4515>:
    80004960:	403dd813          	srai	a6,s11,0x3

0000000080004964 <i_4516>:
    80004964:	e5816303          	lwu	t1,-424(sp)

0000000080004968 <i_4517>:
    80004968:	005672b3          	and	t0,a2,t0

000000008000496c <i_4518>:
    8000496c:	ea310123          	sb	gp,-350(sp)

0000000080004970 <i_4519>:
    80004970:	92cde293          	ori	t0,s11,-1748

0000000080004974 <i_4520>:
    80004974:	ff816d83          	lwu	s11,-8(sp)

0000000080004978 <i_4521>:
    80004978:	16613023          	sd	t1,352(sp)

000000008000497c <i_4522>:
    8000497c:	02537333          	remu	t1,t1,t0

0000000080004980 <i_4523>:
    80004980:	11011b83          	lh	s7,272(sp)

0000000080004984 <i_4524>:
    80004984:	1c016303          	lwu	t1,448(sp)

0000000080004988 <i_4525>:
    80004988:	ef016d03          	lwu	s10,-272(sp)

000000008000498c <i_4526>:
    8000498c:	017bf463          	bleu	s7,s7,80004994 <i_4528>

0000000080004990 <i_4527>:
    80004990:	0db14483          	lbu	s1,219(sp)

0000000080004994 <i_4528>:
    80004994:	00634463          	blt	t1,t1,8000499c <i_4530>

0000000080004998 <i_4529>:
    80004998:	06fd049b          	addiw	s1,s10,111

000000008000499c <i_4530>:
    8000499c:	036d1533          	mulh	a0,s10,s6

00000000800049a0 <i_4531>:
    800049a0:	01a50a63          	beq	a0,s10,800049b4 <i_4536>

00000000800049a4 <i_4532>:
    800049a4:	eca11f23          	sh	a0,-290(sp)

00000000800049a8 <i_4533>:
    800049a8:	e9813303          	ld	t1,-360(sp)

00000000800049ac <i_4534>:
    800049ac:	026d9bb3          	mulh	s7,s11,t1

00000000800049b0 <i_4535>:
    800049b0:	08f14303          	lbu	t1,143(sp)

00000000800049b4 <i_4536>:
    800049b4:	ed615a03          	lhu	s4,-298(sp)

00000000800049b8 <i_4537>:
    800049b8:	0a415483          	lhu	s1,164(sp)

00000000800049bc <i_4538>:
    800049bc:	01614b83          	lbu	s7,22(sp)

00000000800049c0 <i_4539>:
    800049c0:	f9d11223          	sh	t4,-124(sp)

00000000800049c4 <i_4540>:
    800049c4:	19a12e23          	sw	s10,412(sp)

00000000800049c8 <i_4541>:
    800049c8:	fbc15b83          	lhu	s7,-68(sp)

00000000800049cc <i_4542>:
    800049cc:	e7712423          	sw	s7,-408(sp)

00000000800049d0 <i_4543>:
    800049d0:	1a013d03          	ld	s10,416(sp)

00000000800049d4 <i_4544>:
    800049d4:	037d3f33          	mulhu	t5,s10,s7

00000000800049d8 <i_4545>:
    800049d8:	f0314b83          	lbu	s7,-253(sp)

00000000800049dc <i_4546>:
    800049dc:	017fbf33          	sltu	t5,t6,s7

00000000800049e0 <i_4547>:
    800049e0:	00000013          	nop

00000000800049e4 <i_4548>:
    800049e4:	87b00313          	li	t1,-1925

00000000800049e8 <i_4549>:
    800049e8:	88600d93          	li	s11,-1914

00000000800049ec <i_4550>:
    800049ec:	1f713023          	sd	s7,480(sp)

00000000800049f0 <i_4551>:
    800049f0:	15e12a23          	sw	t5,340(sp)

00000000800049f4 <i_4552>:
    800049f4:	00130313          	addi	t1,t1,1
    800049f8:	fe6d9ae3          	bne	s11,t1,800049ec <i_4550>

00000000800049fc <i_4553>:
    800049fc:	404f5f13          	srai	t5,t5,0x4

0000000080004a00 <i_4554>:
    80004a00:	1de13823          	sd	t5,464(sp)

0000000080004a04 <i_4555>:
    80004a04:	11a15183          	lhu	gp,282(sp)

0000000080004a08 <i_4556>:
    80004a08:	f5015503          	lhu	a0,-176(sp)

0000000080004a0c <i_4557>:
    80004a0c:	404f5f13          	srai	t5,t5,0x4

0000000080004a10 <i_4558>:
    80004a10:	0f310d03          	lb	s10,243(sp)

0000000080004a14 <i_4559>:
    80004a14:	003f5593          	srli	a1,t5,0x3

0000000080004a18 <i_4560>:
    80004a18:	00310783          	lb	a5,3(sp)

0000000080004a1c <i_4561>:
    80004a1c:	41750a3b          	subw	s4,a0,s7

0000000080004a20 <i_4562>:
    80004a20:	00000013          	nop

0000000080004a24 <i_4563>:
    80004a24:	73900413          	li	s0,1849

0000000080004a28 <i_4564>:
    80004a28:	74a00813          	li	a6,1866

0000000080004a2c <i_4565>:
    80004a2c:	402a5a13          	srai	s4,s4,0x2

0000000080004a30 <i_4566>:
    80004a30:	03aa5a3b          	divuw	s4,s4,s10

0000000080004a34 <i_4567>:
    80004a34:	0345aa33          	mulhsu	s4,a1,s4

0000000080004a38 <i_4568>:
    80004a38:	f8070d1b          	addiw	s10,a4,-128

0000000080004a3c <i_4569>:
    80004a3c:	f97385b7          	lui	a1,0xf9738

0000000080004a40 <i_4570>:
    80004a40:	ec014983          	lbu	s3,-320(sp)

0000000080004a44 <i_4571>:
    80004a44:	02b99a33          	mulh	s4,s3,a1

0000000080004a48 <i_4572>:
    80004a48:	09816503          	lwu	a0,152(sp)

0000000080004a4c <i_4573>:
    80004a4c:	f9c16483          	lwu	s1,-100(sp)

0000000080004a50 <i_4574>:
    80004a50:	03016583          	lwu	a1,48(sp)

0000000080004a54 <i_4575>:
    80004a54:	f5416483          	lwu	s1,-172(sp)

0000000080004a58 <i_4576>:
    80004a58:	00211383          	lh	t2,2(sp)

0000000080004a5c <i_4577>:
    80004a5c:	0273d063          	ble	t2,t2,80004a7c <i_4584>

0000000080004a60 <i_4578>:
    80004a60:	013a7c63          	bleu	s3,s4,80004a78 <i_4583>

0000000080004a64 <i_4579>:
    80004a64:	00b98a63          	beq	s3,a1,80004a78 <i_4583>

0000000080004a68 <i_4580>:
    80004a68:	00140413          	addi	s0,s0,1
    80004a6c:	fc8870e3          	bleu	s0,a6,80004a2c <i_4565>

0000000080004a70 <i_4581>:
    80004a70:	05214583          	lbu	a1,82(sp)

0000000080004a74 <i_4582>:
    80004a74:	19013a03          	ld	s4,400(sp)

0000000080004a78 <i_4583>:
    80004a78:	579c9a37          	lui	s4,0x579c9

0000000080004a7c <i_4584>:
    80004a7c:	f3812303          	lw	t1,-200(sp)

0000000080004a80 <i_4585>:
    80004a80:	034a7a33          	remu	s4,s4,s4

0000000080004a84 <i_4586>:
    80004a84:	40ea0e3b          	subw	t3,s4,a4

0000000080004a88 <i_4587>:
    80004a88:	410a0abb          	subw	s5,s4,a6

0000000080004a8c <i_4588>:
    80004a8c:	03ca1ab3          	mulh	s5,s4,t3

0000000080004a90 <i_4589>:
    80004a90:	fb813203          	ld	tp,-72(sp)

0000000080004a94 <i_4590>:
    80004a94:	01100493          	li	s1,17

0000000080004a98 <i_4591>:
    80004a98:	009adab3          	srl	s5,s5,s1

0000000080004a9c <i_4592>:
    80004a9c:	01435e63          	ble	s4,t1,80004ab8 <i_4599>

0000000080004aa0 <i_4593>:
    80004aa0:	01aa0e63          	beq	s4,s10,80004abc <i_4600>

0000000080004aa4 <i_4594>:
    80004aa4:	08413c23          	sd	tp,152(sp)

0000000080004aa8 <i_4595>:
    80004aa8:	00238263          	beq	t2,sp,80004aac <i_4596>

0000000080004aac <i_4596>:
    80004aac:	fc511f23          	sh	t0,-34(sp)

0000000080004ab0 <i_4597>:
    80004ab0:	e7c16203          	lwu	tp,-388(sp)

0000000080004ab4 <i_4598>:
    80004ab4:	1ae10983          	lb	s3,430(sp)

0000000080004ab8 <i_4599>:
    80004ab8:	00427e63          	bleu	tp,tp,80004ad4 <i_4606>

0000000080004abc <i_4600>:
    80004abc:	0044cc63          	blt	s1,tp,80004ad4 <i_4606>

0000000080004ac0 <i_4601>:
    80004ac0:	015b2ab3          	slt	s5,s6,s5

0000000080004ac4 <i_4602>:
    80004ac4:	009adc63          	ble	s1,s5,80004adc <i_4608>

0000000080004ac8 <i_4603>:
    80004ac8:	f4412623          	sw	tp,-180(sp)

0000000080004acc <i_4604>:
    80004acc:	f0411b23          	sh	tp,-234(sp)

0000000080004ad0 <i_4605>:
    80004ad0:	fd313c23          	sd	s3,-40(sp)

0000000080004ad4 <i_4606>:
    80004ad4:	e9f10223          	sb	t6,-380(sp)

0000000080004ad8 <i_4607>:
    80004ad8:	00e00f13          	li	t5,14

0000000080004adc <i_4608>:
    80004adc:	41e9d33b          	sraw	t1,s3,t5

0000000080004ae0 <i_4609>:
    80004ae0:	026f4063          	blt	t5,t1,80004b00 <i_4617>

0000000080004ae4 <i_4610>:
    80004ae4:	e9813983          	ld	s3,-360(sp)

0000000080004ae8 <i_4611>:
    80004ae8:	03ef7463          	bleu	t5,t5,80004b10 <i_4621>

0000000080004aec <i_4612>:
    80004aec:	03e989b3          	mul	s3,s3,t5

0000000080004af0 <i_4613>:
    80004af0:	13016403          	lwu	s0,304(sp)

0000000080004af4 <i_4614>:
    80004af4:	fac12203          	lw	tp,-84(sp)

0000000080004af8 <i_4615>:
    80004af8:	18813423          	sd	s0,392(sp)

0000000080004afc <i_4616>:
    80004afc:	00000013          	nop

0000000080004b00 <i_4617>:
    80004b00:	03012083          	lw	ra,48(sp)

0000000080004b04 <i_4618>:
    80004b04:	fd613423          	sd	s6,-56(sp)

0000000080004b08 <i_4619>:
    80004b08:	41c98abb          	subw	s5,s3,t3

0000000080004b0c <i_4620>:
    80004b0c:	15414983          	lbu	s3,340(sp)

0000000080004b10 <i_4621>:
    80004b10:	00000013          	nop

0000000080004b14 <i_4622>:
    80004b14:	00129d1b          	slliw	s10,t0,0x1

0000000080004b18 <i_4623>:
    80004b18:	7ac00693          	li	a3,1964

0000000080004b1c <i_4624>:
    80004b1c:	7b600413          	li	s0,1974

0000000080004b20 <i_4625>:
    80004b20:	f5310d83          	lb	s11,-173(sp)

0000000080004b24 <i_4626>:
    80004b24:	00000013          	nop

0000000080004b28 <i_4627>:
    80004b28:	03bdd263          	ble	s11,s11,80004b4c <i_4635>

0000000080004b2c <i_4628>:
    80004b2c:	00168693          	addi	a3,a3,1
    80004b30:	fed478e3          	bleu	a3,s0,80004b20 <i_4625>

0000000080004b34 <i_4629>:
    80004b34:	b48d2593          	slti	a1,s10,-1208

0000000080004b38 <i_4630>:
    80004b38:	e8a11a83          	lh	s5,-374(sp)

0000000080004b3c <i_4631>:
    80004b3c:	e2215d03          	lhu	s10,-478(sp)

0000000080004b40 <i_4632>:
    80004b40:	17016203          	lwu	tp,368(sp)

0000000080004b44 <i_4633>:
    80004b44:	17211523          	sh	s2,362(sp)

0000000080004b48 <i_4634>:
    80004b48:	18413823          	sd	tp,400(sp)

0000000080004b4c <i_4635>:
    80004b4c:	f2012c03          	lw	s8,-224(sp)

0000000080004b50 <i_4636>:
    80004b50:	07013083          	ld	ra,112(sp)

0000000080004b54 <i_4637>:
    80004b54:	fc412c23          	sw	tp,-40(sp)

0000000080004b58 <i_4638>:
    80004b58:	03e59263          	bne	a1,t5,80004b7c <i_4647>

0000000080004b5c <i_4639>:
    80004b5c:	038c0c3b          	mulw	s8,s8,s8

0000000080004b60 <i_4640>:
    80004b60:	415d09b3          	sub	s3,s10,s5

0000000080004b64 <i_4641>:
    80004b64:	1cf10683          	lb	a3,463(sp)

0000000080004b68 <i_4642>:
    80004b68:	02165463          	ble	ra,a2,80004b90 <i_4652>

0000000080004b6c <i_4643>:
    80004b6c:	00421e63          	bne	tp,tp,80004b88 <i_4650>

0000000080004b70 <i_4644>:
    80004b70:	c349bd93          	sltiu	s11,s3,-972

0000000080004b74 <i_4645>:
    80004b74:	08114203          	lbu	tp,129(sp)

0000000080004b78 <i_4646>:
    80004b78:	24c53393          	sltiu	t2,a0,588

0000000080004b7c <i_4647>:
    80004b7c:	4042531b          	sraiw	t1,tp,0x4

0000000080004b80 <i_4648>:
    80004b80:	00420a33          	add	s4,tp,tp

0000000080004b84 <i_4649>:
    80004b84:	17412c23          	sw	s4,376(sp)

0000000080004b88 <i_4650>:
    80004b88:	978c7d17          	auipc	s10,0x978c7

0000000080004b8c <i_4651>:
    80004b8c:	024d5463          	ble	tp,s10,80004bb4 <i_4661>

0000000080004b90 <i_4652>:
    80004b90:	01bade63          	ble	s11,s5,80004bac <i_4659>

0000000080004b94 <i_4653>:
    80004b94:	f0613023          	sd	t1,-256(sp)

0000000080004b98 <i_4654>:
    80004b98:	027247b3          	div	a5,tp,t2

0000000080004b9c <i_4655>:
    80004b9c:	00fd1a63          	bne	s10,a5,80004bb0 <i_4660>

0000000080004ba0 <i_4656>:
    80004ba0:	026223b3          	mulhsu	t2,tp,t1

0000000080004ba4 <i_4657>:
    80004ba4:	00f39e63          	bne	t2,a5,80004bc0 <i_4664>

0000000080004ba8 <i_4658>:
    80004ba8:	027d5263          	ble	t2,s10,80004bcc <i_4667>

0000000080004bac <i_4659>:
    80004bac:	12910c83          	lb	s9,297(sp)

0000000080004bb0 <i_4660>:
    80004bb0:	0c611c03          	lh	s8,198(sp)

0000000080004bb4 <i_4661>:
    80004bb4:	f8611603          	lh	a2,-122(sp)

0000000080004bb8 <i_4662>:
    80004bb8:	00736f33          	or	t5,t1,t2

0000000080004bbc <i_4663>:
    80004bbc:	05a15b03          	lhu	s6,90(sp)

0000000080004bc0 <i_4664>:
    80004bc0:	024cf23b          	remuw	tp,s9,tp

0000000080004bc4 <i_4665>:
    80004bc4:	027d2db3          	mulhsu	s11,s10,t2

0000000080004bc8 <i_4666>:
    80004bc8:	038c7463          	bleu	s8,s8,80004bf0 <i_4676>

0000000080004bcc <i_4667>:
    80004bcc:	f2f13423          	sd	a5,-216(sp)

0000000080004bd0 <i_4668>:
    80004bd0:	418b0c3b          	subw	s8,s6,s8

0000000080004bd4 <i_4669>:
    80004bd4:	08611c03          	lh	s8,134(sp)

0000000080004bd8 <i_4670>:
    80004bd8:	01ec7c63          	bleu	t5,s8,80004bf0 <i_4676>

0000000080004bdc <i_4671>:
    80004bdc:	00000013          	nop

0000000080004be0 <i_4672>:
    80004be0:	00000013          	nop

0000000080004be4 <i_4673>:
    80004be4:	712f6493          	ori	s1,t5,1810

0000000080004be8 <i_4674>:
    80004be8:	029c6ebb          	remw	t4,s8,s1

0000000080004bec <i_4675>:
    80004bec:	033f79bb          	remuw	s3,t5,s3

0000000080004bf0 <i_4676>:
    80004bf0:	e5e9e993          	ori	s3,s3,-418

0000000080004bf4 <i_4677>:
    80004bf4:	00000013          	nop

0000000080004bf8 <i_4678>:
    80004bf8:	8d300f13          	li	t5,-1837

0000000080004bfc <i_4679>:
    80004bfc:	8e300c13          	li	s8,-1821

0000000080004c00 <i_4680>:
    80004c00:	01dee863          	bltu	t4,t4,80004c10 <i_4684>

0000000080004c04 <i_4681>:
    80004c04:	ec610e83          	lb	t4,-314(sp)

0000000080004c08 <i_4682>:
    80004c08:	10211983          	lh	s3,258(sp)

0000000080004c0c <i_4683>:
    80004c0c:	00000013          	nop

0000000080004c10 <i_4684>:
    80004c10:	02411303          	lh	t1,36(sp)

0000000080004c14 <i_4685>:
    80004c14:	efc14403          	lbu	s0,-260(sp)

0000000080004c18 <i_4686>:
    80004c18:	89300993          	li	s3,-1901

0000000080004c1c <i_4687>:
    80004c1c:	8a200393          	li	t2,-1886

0000000080004c20 <i_4688>:
    80004c20:	00198993          	addi	s3,s3,1
    80004c24:	ff33fee3          	bleu	s3,t2,80004c20 <i_4688>

0000000080004c28 <i_4689>:
    80004c28:	00000013          	nop

0000000080004c2c <i_4690>:
    80004c2c:	00000013          	nop

0000000080004c30 <i_4691>:
    80004c30:	001f0f13          	addi	t5,t5,1
    80004c34:	fdec56e3          	ble	t5,s8,80004c00 <i_4680>

0000000080004c38 <i_4692>:
    80004c38:	00412383          	lw	t2,4(sp)

0000000080004c3c <i_4693>:
    80004c3c:	00000013          	nop

0000000080004c40 <i_4694>:
    80004c40:	7f100593          	li	a1,2033

0000000080004c44 <i_4695>:
    80004c44:	7fe00413          	li	s0,2046

0000000080004c48 <i_4696>:
    80004c48:	01998b33          	add	s6,s3,s9

0000000080004c4c <i_4697>:
    80004c4c:	00158593          	addi	a1,a1,1 # fffffffff9738001 <_end+0xffffffff79727bed>
    80004c50:	fe85cce3          	blt	a1,s0,80004c48 <i_4696>

0000000080004c54 <i_4698>:
    80004c54:	00000013          	nop

0000000080004c58 <i_4699>:
    80004c58:	0164b5b3          	sltu	a1,s1,s6

0000000080004c5c <i_4700>:
    80004c5c:	01343ab3          	sltu	s5,s0,s3

0000000080004c60 <i_4701>:
    80004c60:	0da10083          	lb	ra,218(sp)

0000000080004c64 <i_4702>:
    80004c64:	06712823          	sw	t2,112(sp)

0000000080004c68 <i_4703>:
    80004c68:	0010bbb3          	sltu	s7,ra,ra

0000000080004c6c <i_4704>:
    80004c6c:	0ff10503          	lb	a0,255(sp)

0000000080004c70 <i_4705>:
    80004c70:	e9411383          	lh	t2,-364(sp)

0000000080004c74 <i_4706>:
    80004c74:	03054063          	blt	a0,a6,80004c94 <i_4714>

0000000080004c78 <i_4707>:
    80004c78:	d37e8993          	addi	s3,t4,-713 # ffffffffedc6cd37 <_end+0xffffffff6dc5c923>

0000000080004c7c <i_4708>:
    80004c7c:	00bb9463          	bne	s7,a1,80004c84 <i_4710>

0000000080004c80 <i_4709>:
    80004c80:	001bf663          	bleu	ra,s7,80004c8c <i_4712>

0000000080004c84 <i_4710>:
    80004c84:	efd10383          	lb	t2,-259(sp)

0000000080004c88 <i_4711>:
    80004c88:	01398463          	beq	s3,s3,80004c90 <i_4713>

0000000080004c8c <i_4712>:
    80004c8c:	02e9d9b3          	divu	s3,s3,a4

0000000080004c90 <i_4713>:
    80004c90:	1a211303          	lh	t1,418(sp)

0000000080004c94 <i_4714>:
    80004c94:	02f982b3          	mul	t0,s3,a5

0000000080004c98 <i_4715>:
    80004c98:	03c34b3b          	divw	s6,t1,t3

0000000080004c9c <i_4716>:
    80004c9c:	036287bb          	mulw	a5,t0,s6

0000000080004ca0 <i_4717>:
    80004ca0:	77fe029b          	addiw	t0,t3,1919

0000000080004ca4 <i_4718>:
    80004ca4:	02f2f063          	bleu	a5,t0,80004cc4 <i_4726>

0000000080004ca8 <i_4719>:
    80004ca8:	025ef463          	bleu	t0,t4,80004cd0 <i_4729>

0000000080004cac <i_4720>:
    80004cac:	14511c23          	sh	t0,344(sp)

0000000080004cb0 <i_4721>:
    80004cb0:	19414d83          	lbu	s11,404(sp)

0000000080004cb4 <i_4722>:
    80004cb4:	14511223          	sh	t0,324(sp)

0000000080004cb8 <i_4723>:
    80004cb8:	0e310523          	sb	gp,234(sp)

0000000080004cbc <i_4724>:
    80004cbc:	f6410783          	lb	a5,-156(sp)

0000000080004cc0 <i_4725>:
    80004cc0:	09613823          	sd	s6,144(sp)

0000000080004cc4 <i_4726>:
    80004cc4:	41c78633          	sub	a2,a5,t3

0000000080004cc8 <i_4727>:
    80004cc8:	f1816783          	lwu	a5,-232(sp)

0000000080004ccc <i_4728>:
    80004ccc:	01d2beb3          	sltu	t4,t0,t4

0000000080004cd0 <i_4729>:
    80004cd0:	08313023          	sd	gp,128(sp)

0000000080004cd4 <i_4730>:
    80004cd4:	03910b83          	lb	s7,57(sp)

0000000080004cd8 <i_4731>:
    80004cd8:	82800f13          	li	t5,-2008

0000000080004cdc <i_4732>:
    80004cdc:	83800193          	li	gp,-1992

0000000080004ce0 <i_4733>:
    80004ce0:	157109a3          	sb	s7,339(sp)

0000000080004ce4 <i_4734>:
    80004ce4:	02f00d93          	li	s11,47

0000000080004ce8 <i_4735>:
    80004ce8:	01bb9eb3          	sll	t4,s7,s11

0000000080004cec <i_4736>:
    80004cec:	fe214b03          	lbu	s6,-30(sp)

0000000080004cf0 <i_4737>:
    80004cf0:	09711523          	sh	s7,138(sp)

0000000080004cf4 <i_4738>:
    80004cf4:	07611e83          	lh	t4,118(sp)

0000000080004cf8 <i_4739>:
    80004cf8:	001f0f13          	addi	t5,t5,1
    80004cfc:	fe3f42e3          	blt	t5,gp,80004ce0 <i_4733>

0000000080004d00 <i_4740>:
    80004d00:	01bef663          	bleu	s11,t4,80004d0c <i_4743>

0000000080004d04 <i_4741>:
    80004d04:	0dd14083          	lbu	ra,221(sp)

0000000080004d08 <i_4742>:
    80004d08:	f0816403          	lwu	s0,-248(sp)

0000000080004d0c <i_4743>:
    80004d0c:	05713823          	sd	s7,80(sp)

0000000080004d10 <i_4744>:
    80004d10:	11e14783          	lbu	a5,286(sp)

0000000080004d14 <i_4745>:
    80004d14:	16211083          	lh	ra,354(sp)

0000000080004d18 <i_4746>:
    80004d18:	00fdee63          	bltu	s11,a5,80004d34 <i_4753>

0000000080004d1c <i_4747>:
    80004d1c:	18a11983          	lh	s3,394(sp)

0000000080004d20 <i_4748>:
    80004d20:	0010df13          	srli	t5,ra,0x1

0000000080004d24 <i_4749>:
    80004d24:	0e215683          	lhu	a3,226(sp)

0000000080004d28 <i_4750>:
    80004d28:	401989b3          	sub	s3,s3,ra

0000000080004d2c <i_4751>:
    80004d2c:	18013683          	ld	a3,384(sp)

0000000080004d30 <i_4752>:
    80004d30:	01ab7663          	bleu	s10,s6,80004d3c <i_4755>

0000000080004d34 <i_4753>:
    80004d34:	021b5ebb          	divuw	t4,s6,ra

0000000080004d38 <i_4754>:
    80004d38:	013462b3          	or	t0,s0,s3

0000000080004d3c <i_4755>:
    80004d3c:	18812403          	lw	s0,392(sp)

0000000080004d40 <i_4756>:
    80004d40:	0369c063          	blt	s3,s6,80004d60 <i_4764>

0000000080004d44 <i_4757>:
    80004d44:	12c16e03          	lwu	t3,300(sp)

0000000080004d48 <i_4758>:
    80004d48:	9d19fe93          	andi	t4,s3,-1583

0000000080004d4c <i_4759>:
    80004d4c:	01d45663          	ble	t4,s0,80004d58 <i_4762>

0000000080004d50 <i_4760>:
    80004d50:	fb613023          	sd	s6,-96(sp)

0000000080004d54 <i_4761>:
    80004d54:	001d6263          	bltu	s10,ra,80004d58 <i_4762>

0000000080004d58 <i_4762>:
    80004d58:	01ceeeb3          	or	t4,t4,t3

0000000080004d5c <i_4763>:
    80004d5c:	03de8e33          	mul	t3,t4,t4

0000000080004d60 <i_4764>:
    80004d60:	018ee463          	bltu	t4,s8,80004d68 <i_4766>

0000000080004d64 <i_4765>:
    80004d64:	03ccce3b          	divw	t3,s9,t3

0000000080004d68 <i_4766>:
    80004d68:	00000013          	nop

0000000080004d6c <i_4767>:
    80004d6c:	001c5e1b          	srliw	t3,s8,0x1

0000000080004d70 <i_4768>:
    80004d70:	80a00c13          	li	s8,-2038

0000000080004d74 <i_4769>:
    80004d74:	81100e93          	li	t4,-2031

0000000080004d78 <i_4770>:
    80004d78:	19c12083          	lw	ra,412(sp)

0000000080004d7c <i_4771>:
    80004d7c:	001c0e63          	beq	s8,ra,80004d98 <i_4777>

0000000080004d80 <i_4772>:
    80004d80:	02155533          	divu	a0,a0,ra

0000000080004d84 <i_4773>:
    80004d84:	001c0c13          	addi	s8,s8,1 # 23526001 <main-0x5cad9fff>
    80004d88:	ffdc18e3          	bne	s8,t4,80004d78 <i_4770>

0000000080004d8c <i_4774>:
    80004d8c:	88d0a093          	slti	ra,ra,-1907

0000000080004d90 <i_4775>:
    80004d90:	028c1263          	bne	s8,s0,80004db4 <i_4784>

0000000080004d94 <i_4776>:
    80004d94:	00a09c63          	bne	ra,a0,80004dac <i_4782>

0000000080004d98 <i_4777>:
    80004d98:	001dcdb3          	xor	s11,s11,ra

0000000080004d9c <i_4778>:
    80004d9c:	001d9513          	slli	a0,s11,0x1

0000000080004da0 <i_4779>:
    80004da0:	00a4e0b3          	or	ra,s1,a0

0000000080004da4 <i_4780>:
    80004da4:	00a4c0b3          	xor	ra,s1,a0

0000000080004da8 <i_4781>:
    80004da8:	01400993          	li	s3,20

0000000080004dac <i_4782>:
    80004dac:	41355cbb          	sraw	s9,a0,s3

0000000080004db0 <i_4783>:
    80004db0:	856e6bb7          	lui	s7,0x856e6

0000000080004db4 <i_4784>:
    80004db4:	14113823          	sd	ra,336(sp)

0000000080004db8 <i_4785>:
    80004db8:	eb912a23          	sw	s9,-332(sp)

0000000080004dbc <i_4786>:
    80004dbc:	0030919b          	slliw	gp,ra,0x3

0000000080004dc0 <i_4787>:
    80004dc0:	02add9bb          	divuw	s3,s11,a0

0000000080004dc4 <i_4788>:
    80004dc4:	0036c863          	blt	a3,gp,80004dd4 <i_4792>

0000000080004dc8 <i_4789>:
    80004dc8:	16a10503          	lb	a0,362(sp)

0000000080004dcc <i_4790>:
    80004dcc:	416086b3          	sub	a3,ra,s6

0000000080004dd0 <i_4791>:
    80004dd0:	0da14503          	lbu	a0,218(sp)

0000000080004dd4 <i_4792>:
    80004dd4:	0031ccb3          	xor	s9,gp,gp

0000000080004dd8 <i_4793>:
    80004dd8:	0031ca63          	blt	gp,gp,80004dec <i_4798>

0000000080004ddc <i_4794>:
    80004ddc:	ff813b03          	ld	s6,-8(sp)

0000000080004de0 <i_4795>:
    80004de0:	02813383          	ld	t2,40(sp)

0000000080004de4 <i_4796>:
    80004de4:	01800193          	li	gp,24

0000000080004de8 <i_4797>:
    80004de8:	003c93bb          	sllw	t2,s9,gp

0000000080004dec <i_4798>:
    80004dec:	1a7106a3          	sb	t2,429(sp)

0000000080004df0 <i_4799>:
    80004df0:	00000013          	nop

0000000080004df4 <i_4800>:
    80004df4:	82d00693          	li	a3,-2003

0000000080004df8 <i_4801>:
    80004df8:	83200293          	li	t0,-1998

0000000080004dfc <i_4802>:
    80004dfc:	00000013          	nop

0000000080004e00 <i_4803>:
    80004e00:	02550ab3          	mul	s5,a0,t0

0000000080004e04 <i_4804>:
    80004e04:	73e00b13          	li	s6,1854

0000000080004e08 <i_4805>:
    80004e08:	74300c93          	li	s9,1859

0000000080004e0c <i_4806>:
    80004e0c:	01957e63          	bleu	s9,a0,80004e28 <i_4812>

0000000080004e10 <i_4807>:
    80004e10:	18015c03          	lhu	s8,384(sp)

0000000080004e14 <i_4808>:
    80004e14:	001b0b13          	addi	s6,s6,1 # 2c2a7001 <main-0x53d58fff>
    80004e18:	ff6cdae3          	ble	s6,s9,80004e0c <i_4806>

0000000080004e1c <i_4809>:
    80004e1c:	f5615b83          	lhu	s7,-170(sp)

0000000080004e20 <i_4810>:
    80004e20:	407b8b33          	sub	s6,s7,t2

0000000080004e24 <i_4811>:
    80004e24:	01713023          	sd	s7,0(sp)

0000000080004e28 <i_4812>:
    80004e28:	edc12083          	lw	ra,-292(sp)

0000000080004e2c <i_4813>:
    80004e2c:	f7e15483          	lhu	s1,-130(sp)

0000000080004e30 <i_4814>:
    80004e30:	00168693          	addi	a3,a3,1
    80004e34:	fc56e4e3          	bltu	a3,t0,80004dfc <i_4802>

0000000080004e38 <i_4815>:
    80004e38:	f0815437          	lui	s0,0xf0815

0000000080004e3c <i_4816>:
    80004e3c:	06112023          	sw	ra,96(sp)

0000000080004e40 <i_4817>:
    80004e40:	f3e15583          	lhu	a1,-194(sp)

0000000080004e44 <i_4818>:
    80004e44:	016d0d33          	add	s10,s10,s6

0000000080004e48 <i_4819>:
    80004e48:	0b813c23          	sd	s8,184(sp)

0000000080004e4c <i_4820>:
    80004e4c:	01a00b13          	li	s6,26

0000000080004e50 <i_4821>:
    80004e50:	0169dc3b          	srlw	s8,s3,s6

0000000080004e54 <i_4822>:
    80004e54:	7da00593          	li	a1,2010

0000000080004e58 <i_4823>:
    80004e58:	7e300993          	li	s3,2019

0000000080004e5c <i_4824>:
    80004e5c:	f5c11b03          	lh	s6,-164(sp)

0000000080004e60 <i_4825>:
    80004e60:	02b9cb33          	div	s6,s3,a1

0000000080004e64 <i_4826>:
    80004e64:	01700b13          	li	s6,23

0000000080004e68 <i_4827>:
    80004e68:	016b1c3b          	sllw	s8,s6,s6

0000000080004e6c <i_4828>:
    80004e6c:	00158593          	addi	a1,a1,1
    80004e70:	ff3594e3          	bne	a1,s3,80004e58 <i_4823>

0000000080004e74 <i_4829>:
    80004e74:	02bb55b3          	divu	a1,s6,a1

0000000080004e78 <i_4830>:
    80004e78:	00000013          	nop

0000000080004e7c <i_4831>:
    80004e7c:	08514b03          	lbu	s6,133(sp)

0000000080004e80 <i_4832>:
    80004e80:	76700e93          	li	t4,1895

0000000080004e84 <i_4833>:
    80004e84:	77b00593          	li	a1,1915

0000000080004e88 <i_4834>:
    80004e88:	fac16a03          	lwu	s4,-84(sp)

0000000080004e8c <i_4835>:
    80004e8c:	11d14f03          	lbu	t5,285(sp)

0000000080004e90 <i_4836>:
    80004e90:	01758463          	beq	a1,s7,80004e98 <i_4838>

0000000080004e94 <i_4837>:
    80004e94:	10113023          	sd	ra,256(sp)

0000000080004e98 <i_4838>:
    80004e98:	03300b93          	li	s7,51

0000000080004e9c <i_4839>:
    80004e9c:	417a5233          	sra	tp,s4,s7

0000000080004ea0 <i_4840>:
    80004ea0:	013bb9b3          	sltu	s3,s7,s3

0000000080004ea4 <i_4841>:
    80004ea4:	033204b3          	mul	s1,tp,s3

0000000080004ea8 <i_4842>:
    80004ea8:	001e8e93          	addi	t4,t4,1
    80004eac:	fcbe9ee3          	bne	t4,a1,80004e88 <i_4834>

0000000080004eb0 <i_4843>:
    80004eb0:	09712823          	sw	s7,144(sp)

0000000080004eb4 <i_4844>:
    80004eb4:	00000013          	nop

0000000080004eb8 <i_4845>:
    80004eb8:	00000013          	nop

0000000080004ebc <i_4846>:
    80004ebc:	80b00213          	li	tp,-2037

0000000080004ec0 <i_4847>:
    80004ec0:	81900b93          	li	s7,-2023

0000000080004ec4 <i_4848>:
    80004ec4:	00120213          	addi	tp,tp,1 # 1 <main-0x7fffffff>
    80004ec8:	fe4b9ee3          	bne	s7,tp,80004ec4 <i_4848>

0000000080004ecc <i_4849>:
    80004ecc:	00000013          	nop

0000000080004ed0 <i_4850>:
    80004ed0:	01340463          	beq	s0,s3,80004ed8 <i_4852>

0000000080004ed4 <i_4851>:
    80004ed4:	f1016483          	lwu	s1,-240(sp)

0000000080004ed8 <i_4852>:
    80004ed8:	e6911b23          	sh	s1,-394(sp)

0000000080004edc <i_4853>:
    80004edc:	03513823          	sd	s5,48(sp)

0000000080004ee0 <i_4854>:
    80004ee0:	05310ca3          	sb	s3,89(sp)

0000000080004ee4 <i_4855>:
    80004ee4:	78300a93          	li	s5,1923

0000000080004ee8 <i_4856>:
    80004ee8:	78e00993          	li	s3,1934

0000000080004eec <i_4857>:
    80004eec:	fce11e83          	lh	t4,-50(sp)

0000000080004ef0 <i_4858>:
    80004ef0:	c05c35b7          	lui	a1,0xc05c3

0000000080004ef4 <i_4859>:
    80004ef4:	0130c5b3          	xor	a1,ra,s3

0000000080004ef8 <i_4860>:
    80004ef8:	001a8a93          	addi	s5,s5,1
    80004efc:	ff3ac8e3          	blt	s5,s3,80004eec <i_4857>

0000000080004f00 <i_4861>:
    80004f00:	02500093          	li	ra,37

0000000080004f04 <i_4862>:
    80004f04:	4010d4b3          	sra	s1,ra,ra

0000000080004f08 <i_4863>:
    80004f08:	0290f0b3          	remu	ra,ra,s1

0000000080004f0c <i_4864>:
    80004f0c:	0014c863          	blt	s1,ra,80004f1c <i_4868>

0000000080004f10 <i_4865>:
    80004f10:	16111f23          	sh	ra,382(sp)

0000000080004f14 <i_4866>:
    80004f14:	02108263          	beq	ra,ra,80004f38 <i_4875>

0000000080004f18 <i_4867>:
    80004f18:	e3012983          	lw	s3,-464(sp)

0000000080004f1c <i_4868>:
    80004f1c:	0139c663          	blt	s3,s3,80004f28 <i_4871>

0000000080004f20 <i_4869>:
    80004f20:	18a15183          	lhu	gp,394(sp)

0000000080004f24 <i_4870>:
    80004f24:	f0016983          	lwu	s3,-256(sp)

0000000080004f28 <i_4871>:
    80004f28:	f9e14a83          	lbu	s5,-98(sp)

0000000080004f2c <i_4872>:
    80004f2c:	035895b3          	mulh	a1,a7,s5

0000000080004f30 <i_4873>:
    80004f30:	03a00593          	li	a1,58

0000000080004f34 <i_4874>:
    80004f34:	40b5d0b3          	sra	ra,a1,a1

0000000080004f38 <i_4875>:
    80004f38:	00000013          	nop

0000000080004f3c <i_4876>:
    80004f3c:	10c15083          	lhu	ra,268(sp)

0000000080004f40 <i_4877>:
    80004f40:	84800393          	li	t2,-1976

0000000080004f44 <i_4878>:
    80004f44:	85600813          	li	a6,-1962

0000000080004f48 <i_4879>:
    80004f48:	ed511723          	sh	s5,-306(sp)

0000000080004f4c <i_4880>:
    80004f4c:	f1813b03          	ld	s6,-232(sp)

0000000080004f50 <i_4881>:
    80004f50:	02db56b3          	divu	a3,s6,a3

0000000080004f54 <i_4882>:
    80004f54:	02b5d333          	divu	t1,a1,a1

0000000080004f58 <i_4883>:
    80004f58:	e6615b03          	lhu	s6,-410(sp)

0000000080004f5c <i_4884>:
    80004f5c:	00138393          	addi	t2,t2,1 # 6d5c7001 <main-0x12a38fff>
    80004f60:	ff03c4e3          	blt	t2,a6,80004f48 <i_4879>

0000000080004f64 <i_4885>:
    80004f64:	f6d13c23          	sd	a3,-136(sp)

0000000080004f68 <i_4886>:
    80004f68:	e5815683          	lhu	a3,-424(sp)

0000000080004f6c <i_4887>:
    80004f6c:	016b1863          	bne	s6,s6,80004f7c <i_4891>

0000000080004f70 <i_4888>:
    80004f70:	01636c63          	bltu	t1,s6,80004f88 <i_4894>

0000000080004f74 <i_4889>:
    80004f74:	01600093          	li	ra,22

0000000080004f78 <i_4890>:
    80004f78:	40165b3b          	sraw	s6,a2,ra

0000000080004f7c <i_4891>:
    80004f7c:	03634eb3          	div	t4,t1,s6

0000000080004f80 <i_4892>:
    80004f80:	01c00c93          	li	s9,28

0000000080004f84 <i_4893>:
    80004f84:	419edcb3          	sra	s9,t4,s9

0000000080004f88 <i_4894>:
    80004f88:	ed914b03          	lbu	s6,-295(sp)

0000000080004f8c <i_4895>:
    80004f8c:	1d815c83          	lhu	s9,472(sp)

0000000080004f90 <i_4896>:
    80004f90:	f1c12c83          	lw	s9,-228(sp)

0000000080004f94 <i_4897>:
    80004f94:	13810c83          	lb	s9,312(sp)

0000000080004f98 <i_4898>:
    80004f98:	77900313          	li	t1,1913

0000000080004f9c <i_4899>:
    80004f9c:	78a00e93          	li	t4,1930

0000000080004fa0 <i_4900>:
    80004fa0:	15b10b83          	lb	s7,347(sp)

0000000080004fa4 <i_4901>:
    80004fa4:	19710323          	sb	s7,390(sp)

0000000080004fa8 <i_4902>:
    80004fa8:	9398b193          	sltiu	gp,a7,-1735

0000000080004fac <i_4903>:
    80004fac:	17912223          	sw	s9,356(sp)

0000000080004fb0 <i_4904>:
    80004fb0:	03919063          	bne	gp,s9,80004fd0 <i_4912>

0000000080004fb4 <i_4905>:
    80004fb4:	00a11183          	lh	gp,10(sp)

0000000080004fb8 <i_4906>:
    80004fb8:	02384833          	div	a6,a6,gp

0000000080004fbc <i_4907>:
    80004fbc:	00382cb3          	slt	s9,a6,gp

0000000080004fc0 <i_4908>:
    80004fc0:	00000013          	nop

0000000080004fc4 <i_4909>:
    80004fc4:	1d012803          	lw	a6,464(sp)

0000000080004fc8 <i_4910>:
    80004fc8:	e3815803          	lhu	a6,-456(sp)

0000000080004fcc <i_4911>:
    80004fcc:	6a041f37          	lui	t5,0x6a041

0000000080004fd0 <i_4912>:
    80004fd0:	1d50809b          	addiw	ra,ra,469

0000000080004fd4 <i_4913>:
    80004fd4:	03e09cb3          	mulh	s9,ra,t5

0000000080004fd8 <i_4914>:
    80004fd8:	fa610083          	lb	ra,-90(sp)

0000000080004fdc <i_4915>:
    80004fdc:	00130313          	addi	t1,t1,1
    80004fe0:	fdd340e3          	blt	t1,t4,80004fa0 <i_4900>

0000000080004fe4 <i_4916>:
    80004fe4:	01a80663          	beq	a6,s10,80004ff0 <i_4919>

0000000080004fe8 <i_4917>:
    80004fe8:	03086463          	bltu	a6,a6,80005010 <i_4927>

0000000080004fec <i_4918>:
    80004fec:	e9013c83          	ld	s9,-368(sp)

0000000080004ff0 <i_4919>:
    80004ff0:	05e12a23          	sw	t5,84(sp)

0000000080004ff4 <i_4920>:
    80004ff4:	00000013          	nop

0000000080004ff8 <i_4921>:
    80004ff8:	00181b93          	slli	s7,a6,0x1

0000000080004ffc <i_4922>:
    80004ffc:	0d013823          	sd	a6,208(sp)

0000000080005000 <i_4923>:
    80005000:	3803c813          	xori	a6,t2,896

0000000080005004 <i_4924>:
    80005004:	017b8cb3          	add	s9,s7,s7

0000000080005008 <i_4925>:
    80005008:	f5913023          	sd	s9,-192(sp)

000000008000500c <i_4926>:
    8000500c:	08711823          	sh	t2,144(sp)

0000000080005010 <i_4927>:
    80005010:	017babb3          	slt	s7,s7,s7

0000000080005014 <i_4928>:
    80005014:	01610e03          	lb	t3,22(sp)

0000000080005018 <i_4929>:
    80005018:	86500393          	li	t2,-1947

000000008000501c <i_4930>:
    8000501c:	87300f13          	li	t5,-1933

0000000080005020 <i_4931>:
    80005020:	010cc263          	blt	s9,a6,80005024 <i_4932>

0000000080005024 <i_4932>:
    80005024:	4cd17e13          	andi	t3,sp,1229

0000000080005028 <i_4933>:
    80005028:	17914e03          	lbu	t3,377(sp)

000000008000502c <i_4934>:
    8000502c:	019e5e63          	ble	s9,t3,80005048 <i_4940>

0000000080005030 <i_4935>:
    80005030:	117102a3          	sb	s7,261(sp)

0000000080005034 <i_4936>:
    80005034:	039e4463          	blt	t3,s9,8000505c <i_4945>

0000000080005038 <i_4937>:
    80005038:	00138393          	addi	t2,t2,1
    8000503c:	ffe3c2e3          	blt	t2,t5,80005020 <i_4931>

0000000080005040 <i_4938>:
    80005040:	01ce0a63          	beq	t3,t3,80005054 <i_4943>

0000000080005044 <i_4939>:
    80005044:	03987463          	bleu	s9,a6,8000506c <i_4949>

0000000080005048 <i_4940>:
    80005048:	017c9663          	bne	s9,s7,80005054 <i_4943>

000000008000504c <i_4941>:
    8000504c:	03ce6333          	rem	t1,t3,t3

0000000080005050 <i_4942>:
    80005050:	21abc793          	xori	a5,s7,538

0000000080005054 <i_4943>:
    80005054:	f0210303          	lb	t1,-254(sp)

0000000080005058 <i_4944>:
    80005058:	01486bb3          	or	s7,a6,s4

000000008000505c <i_4945>:
    8000505c:	f4416c83          	lwu	s9,-188(sp)

0000000080005060 <i_4946>:
    80005060:	12310c83          	lb	s9,291(sp)

0000000080005064 <i_4947>:
    80005064:	0190d663          	ble	s9,ra,80005070 <i_4950>

0000000080005068 <i_4948>:
    80005068:	f1911723          	sh	s9,-242(sp)

000000008000506c <i_4949>:
    8000506c:	19813403          	ld	s0,408(sp)

0000000080005070 <i_4950>:
    80005070:	00700b93          	li	s7,7

0000000080005074 <i_4951>:
    80005074:	017c90bb          	sllw	ra,s9,s7

0000000080005078 <i_4952>:
    80005078:	00147c63          	bleu	ra,s0,80005090 <i_4958>

000000008000507c <i_4953>:
    8000507c:	e9013083          	ld	ra,-368(sp)

0000000080005080 <i_4954>:
    80005080:	bfc60d13          	addi	s10,a2,-1028

0000000080005084 <i_4955>:
    80005084:	0d012983          	lw	s3,208(sp)

0000000080005088 <i_4956>:
    80005088:	0130ec63          	bltu	ra,s3,800050a0 <i_4962>

000000008000508c <i_4957>:
    8000508c:	f0614c83          	lbu	s9,-250(sp)

0000000080005090 <i_4958>:
    80005090:	ef016183          	lwu	gp,-272(sp)

0000000080005094 <i_4959>:
    80005094:	be41cd13          	xori	s10,gp,-1052

0000000080005098 <i_4960>:
    80005098:	f2813c23          	sd	s0,-200(sp)

000000008000509c <i_4961>:
    8000509c:	0be15f03          	lhu	t5,190(sp)

00000000800050a0 <i_4962>:
    800050a0:	0c812a83          	lw	s5,200(sp)

00000000800050a4 <i_4963>:
    800050a4:	00000013          	nop

00000000800050a8 <i_4964>:
    800050a8:	7c400993          	li	s3,1988

00000000800050ac <i_4965>:
    800050ac:	7d000513          	li	a0,2000

00000000800050b0 <i_4966>:
    800050b0:	ede11a23          	sh	t5,-300(sp)

00000000800050b4 <i_4967>:
    800050b4:	f2114a83          	lbu	s5,-223(sp)

00000000800050b8 <i_4968>:
    800050b8:	1a350693          	addi	a3,a0,419

00000000800050bc <i_4969>:
    800050bc:	00000013          	nop

00000000800050c0 <i_4970>:
    800050c0:	00000013          	nop

00000000800050c4 <i_4971>:
    800050c4:	03512a23          	sw	s5,52(sp)

00000000800050c8 <i_4972>:
    800050c8:	1d41b4b7          	lui	s1,0x1d41b

00000000800050cc <i_4973>:
    800050cc:	005f6ab3          	or	s5,t5,t0

00000000800050d0 <i_4974>:
    800050d0:	00445a93          	srli	s5,s0,0x4

00000000800050d4 <i_4975>:
    800050d4:	08412283          	lw	t0,132(sp)

00000000800050d8 <i_4976>:
    800050d8:	00198993          	addi	s3,s3,1
    800050dc:	fd357ae3          	bleu	s3,a0,800050b0 <i_4966>

00000000800050e0 <i_4977>:
    800050e0:	f8416603          	lwu	a2,-124(sp)

00000000800050e4 <i_4978>:
    800050e4:	f6711d23          	sh	t2,-134(sp)

00000000800050e8 <i_4979>:
    800050e8:	01c3bab3          	sltu	s5,t2,t3

00000000800050ec <i_4980>:
    800050ec:	03763ab3          	mulhu	s5,a2,s7

00000000800050f0 <i_4981>:
    800050f0:	1a810803          	lb	a6,424(sp)

00000000800050f4 <i_4982>:
    800050f4:	eb013023          	sd	a6,-352(sp)

00000000800050f8 <i_4983>:
    800050f8:	13611803          	lh	a6,310(sp)

00000000800050fc <i_4984>:
    800050fc:	03080463          	beq	a6,a6,80005124 <i_4994>

0000000080005100 <i_4985>:
    80005100:	f8813383          	ld	t2,-120(sp)

0000000080005104 <i_4986>:
    80005104:	14c16803          	lwu	a6,332(sp)

0000000080005108 <i_4987>:
    80005108:	0c412483          	lw	s1,196(sp)

000000008000510c <i_4988>:
    8000510c:	00912423          	sw	s1,8(sp)

0000000080005110 <i_4989>:
    80005110:	00000013          	nop

0000000080005114 <i_4990>:
    80005114:	0e311823          	sh	gp,240(sp)

0000000080005118 <i_4991>:
    80005118:	03e874bb          	remuw	s1,a6,t5

000000008000511c <i_4992>:
    8000511c:	f4914f03          	lbu	t5,-183(sp)

0000000080005120 <i_4993>:
    80005120:	05a11683          	lh	a3,90(sp)

0000000080005124 <i_4994>:
    80005124:	029f1233          	mulh	tp,t5,s1

0000000080005128 <i_4995>:
    80005128:	023266b3          	rem	a3,tp,gp

000000008000512c <i_4996>:
    8000512c:	89000193          	li	gp,-1904

0000000080005130 <i_4997>:
    80005130:	8a300813          	li	a6,-1885

0000000080005134 <i_4998>:
    80005134:	02d4e063          	bltu	s1,a3,80005154 <i_5005>

0000000080005138 <i_4999>:
    80005138:	e3f14a83          	lbu	s5,-449(sp)

000000008000513c <i_5000>:
    8000513c:	09015683          	lhu	a3,144(sp)

0000000080005140 <i_5001>:
    80005140:	00118193          	addi	gp,gp,1 # 45c8001 <main-0x7ba37fff>
    80005144:	fe3818e3          	bne	a6,gp,80005134 <i_4998>

0000000080005148 <i_5002>:
    80005148:	ea812a83          	lw	s5,-344(sp)

000000008000514c <i_5003>:
    8000514c:	f9512423          	sw	s5,-120(sp)

0000000080005150 <i_5004>:
    80005150:	05513c23          	sd	s5,88(sp)

0000000080005154 <i_5005>:
    80005154:	035a8263          	beq	s5,s5,80005178 <i_5014>

0000000080005158 <i_5006>:
    80005158:	004ada9b          	srliw	s5,s5,0x4

000000008000515c <i_5007>:
    8000515c:	0cf10723          	sb	a5,206(sp)

0000000080005160 <i_5008>:
    80005160:	002adf1b          	srliw	t5,s5,0x2

0000000080005164 <i_5009>:
    80005164:	00000013          	nop

0000000080005168 <i_5010>:
    80005168:	00000013          	nop

000000008000516c <i_5011>:
    8000516c:	11c16f03          	lwu	t5,284(sp)

0000000080005170 <i_5012>:
    80005170:	1ac16583          	lwu	a1,428(sp)

0000000080005174 <i_5013>:
    80005174:	fb513823          	sd	s5,-80(sp)

0000000080005178 <i_5014>:
    80005178:	18812f03          	lw	t5,392(sp)

000000008000517c <i_5015>:
    8000517c:	19016683          	lwu	a3,400(sp)

0000000080005180 <i_5016>:
    80005180:	7d200793          	li	a5,2002

0000000080005184 <i_5017>:
    80005184:	7da00a93          	li	s5,2010

0000000080005188 <i_5018>:
    80005188:	ee816e03          	lwu	t3,-280(sp)

000000008000518c <i_5019>:
    8000518c:	01eb0b33          	add	s6,s6,t5

0000000080005190 <i_5020>:
    80005190:	e9011d23          	sh	a6,-358(sp)

0000000080005194 <i_5021>:
    80005194:	00178793          	addi	a5,a5,1
    80005198:	ff57c8e3          	blt	a5,s5,80005188 <i_5018>

000000008000519c <i_5022>:
    8000519c:	09615683          	lhu	a3,150(sp)

00000000800051a0 <i_5023>:
    800051a0:	02d6d5bb          	divuw	a1,a3,a3

00000000800051a4 <i_5024>:
    800051a4:	0046d693          	srli	a3,a3,0x4

00000000800051a8 <i_5025>:
    800051a8:	40e30333          	sub	t1,t1,a4

00000000800051ac <i_5026>:
    800051ac:	fc314683          	lbu	a3,-61(sp)

00000000800051b0 <i_5027>:
    800051b0:	00634863          	blt	t1,t1,800051c0 <i_5031>

00000000800051b4 <i_5028>:
    800051b4:	ea612823          	sw	t1,-336(sp)

00000000800051b8 <i_5029>:
    800051b8:	a086b693          	sltiu	a3,a3,-1528

00000000800051bc <i_5030>:
    800051bc:	1e215683          	lhu	a3,482(sp)

00000000800051c0 <i_5031>:
    800051c0:	4023d39b          	sraiw	t2,t2,0x2

00000000800051c4 <i_5032>:
    800051c4:	02d6f7bb          	remuw	a5,a3,a3

00000000800051c8 <i_5033>:
    800051c8:	89e00613          	li	a2,-1890

00000000800051cc <i_5034>:
    800051cc:	8a900313          	li	t1,-1879

00000000800051d0 <i_5035>:
    800051d0:	03c00293          	li	t0,60

00000000800051d4 <i_5036>:
    800051d4:	00535cb3          	srl	s9,t1,t0

00000000800051d8 <i_5037>:
    800051d8:	1a412c03          	lw	s8,420(sp)

00000000800051dc <i_5038>:
    800051dc:	02c3d463          	ble	a2,t2,80005204 <i_5047>

00000000800051e0 <i_5039>:
    800051e0:	02668263          	beq	a3,t1,80005204 <i_5047>

00000000800051e4 <i_5040>:
    800051e4:	04213423          	sd	sp,72(sp)

00000000800051e8 <i_5041>:
    800051e8:	00160613          	addi	a2,a2,1
    800051ec:	fe6642e3          	blt	a2,t1,800051d0 <i_5035>

00000000800051f0 <i_5042>:
    800051f0:	15710c03          	lb	s8,343(sp)

00000000800051f4 <i_5043>:
    800051f4:	0196edb3          	or	s11,a3,s9

00000000800051f8 <i_5044>:
    800051f8:	01800613          	li	a2,24

00000000800051fc <i_5045>:
    800051fc:	40ccdb33          	sra	s6,s9,a2

0000000080005200 <i_5046>:
    80005200:	90257c17          	auipc	s8,0x90257

0000000080005204 <i_5047>:
    80005204:	1c615e03          	lhu	t3,454(sp)

0000000080005208 <i_5048>:
    80005208:	edf13423          	sd	t6,-312(sp)

000000008000520c <i_5049>:
    8000520c:	e4c13023          	sd	a2,-448(sp)

0000000080005210 <i_5050>:
    80005210:	f6110603          	lb	a2,-159(sp)

0000000080005214 <i_5051>:
    80005214:	0bc10c23          	sb	t3,184(sp)

0000000080005218 <i_5052>:
    80005218:	10412823          	sw	tp,272(sp)

000000008000521c <i_5053>:
    8000521c:	019e5c63          	ble	s9,t3,80005234 <i_5059>

0000000080005220 <i_5054>:
    80005220:	03966263          	bltu	a2,s9,80005244 <i_5063>

0000000080005224 <i_5055>:
    80005224:	03977cb3          	remu	s9,a4,s9

0000000080005228 <i_5056>:
    80005228:	00312e23          	sw	gp,28(sp)

000000008000522c <i_5057>:
    8000522c:	e0310ea3          	sb	gp,-483(sp)

0000000080005230 <i_5058>:
    80005230:	f3211d03          	lh	s10,-206(sp)

0000000080005234 <i_5059>:
    80005234:	fb812783          	lw	a5,-72(sp)

0000000080005238 <i_5060>:
    80005238:	002cdb13          	srli	s6,s9,0x2

000000008000523c <i_5061>:
    8000523c:	02211b03          	lh	s6,34(sp)

0000000080005240 <i_5062>:
    80005240:	0231b1b3          	mulhu	gp,gp,gp

0000000080005244 <i_5063>:
    80005244:	e2310823          	sb	gp,-464(sp)

0000000080005248 <i_5064>:
    80005248:	1c816183          	lwu	gp,456(sp)

000000008000524c <i_5065>:
    8000524c:	f5813083          	ld	ra,-168(sp)

0000000080005250 <i_5066>:
    80005250:	f6a15e03          	lhu	t3,-150(sp)

0000000080005254 <i_5067>:
    80005254:	011e6cb3          	or	s9,t3,a7

0000000080005258 <i_5068>:
    80005258:	e6113423          	sd	ra,-408(sp)

000000008000525c <i_5069>:
    8000525c:	11214383          	lbu	t2,274(sp)

0000000080005260 <i_5070>:
    80005260:	04415203          	lhu	tp,68(sp)

0000000080005264 <i_5071>:
    80005264:	e4314d03          	lbu	s10,-445(sp)

0000000080005268 <i_5072>:
    80005268:	03624b3b          	divw	s6,tp,s6

000000008000526c <i_5073>:
    8000526c:	10c14483          	lbu	s1,268(sp)

0000000080005270 <i_5074>:
    80005270:	1a210b83          	lb	s7,418(sp)

0000000080005274 <i_5075>:
    80005274:	07a10ea3          	sb	s10,125(sp)

0000000080005278 <i_5076>:
    80005278:	e5611a23          	sh	s6,-428(sp)

000000008000527c <i_5077>:
    8000527c:	0233c263          	blt	t2,gp,800052a0 <i_5086>

0000000080005280 <i_5078>:
    80005280:	036b73b3          	remu	t2,s6,s6

0000000080005284 <i_5079>:
    80005284:	fdbb0793          	addi	a5,s6,-37

0000000080005288 <i_5080>:
    80005288:	01612223          	sw	s6,4(sp)

000000008000528c <i_5081>:
    8000528c:	1b416b03          	lwu	s6,436(sp)

0000000080005290 <i_5082>:
    80005290:	ee410683          	lb	a3,-284(sp)

0000000080005294 <i_5083>:
    80005294:	00d6ca63          	blt	a3,a3,800052a8 <i_5088>

0000000080005298 <i_5084>:
    80005298:	f8f14303          	lbu	t1,-113(sp)

000000008000529c <i_5085>:
    8000529c:	02735ab3          	divu	s5,t1,t2

00000000800052a0 <i_5086>:
    800052a0:	0ad12823          	sw	a3,176(sp)

00000000800052a4 <i_5087>:
    800052a4:	e7214603          	lbu	a2,-398(sp)

00000000800052a8 <i_5088>:
    800052a8:	107100a3          	sb	t2,257(sp)

00000000800052ac <i_5089>:
    800052ac:	00165d13          	srli	s10,a2,0x1

00000000800052b0 <i_5090>:
    800052b0:	81000393          	li	t2,-2032

00000000800052b4 <i_5091>:
    800052b4:	82200693          	li	a3,-2014

00000000800052b8 <i_5092>:
    800052b8:	02816d03          	lwu	s10,40(sp)

00000000800052bc <i_5093>:
    800052bc:	10214603          	lbu	a2,258(sp)

00000000800052c0 <i_5094>:
    800052c0:	01000613          	li	a2,16

00000000800052c4 <i_5095>:
    800052c4:	00c6563b          	srlw	a2,a2,a2

00000000800052c8 <i_5096>:
    800052c8:	40365613          	srai	a2,a2,0x3

00000000800052cc <i_5097>:
    800052cc:	00138393          	addi	t2,t2,1
    800052d0:	fed3c4e3          	blt	t2,a3,800052b8 <i_5092>

00000000800052d4 <i_5098>:
    800052d4:	021662b3          	rem	t0,a2,ra

00000000800052d8 <i_5099>:
    800052d8:	f1512623          	sw	s5,-244(sp)

00000000800052dc <i_5100>:
    800052dc:	0210fdb3          	remu	s11,ra,ra

00000000800052e0 <i_5101>:
    800052e0:	a5b7069b          	addiw	a3,a4,-1445

00000000800052e4 <i_5102>:
    800052e4:	02129833          	mulh	a6,t0,ra

00000000800052e8 <i_5103>:
    800052e8:	f2013c83          	ld	s9,-224(sp)

00000000800052ec <i_5104>:
    800052ec:	1c512623          	sw	t0,460(sp)

00000000800052f0 <i_5105>:
    800052f0:	11c15583          	lhu	a1,284(sp)

00000000800052f4 <i_5106>:
    800052f4:	00416c83          	lwu	s9,4(sp)

00000000800052f8 <i_5107>:
    800052f8:	00000013          	nop

00000000800052fc <i_5108>:
    800052fc:	89a00293          	li	t0,-1894

0000000080005300 <i_5109>:
    80005300:	8a000593          	li	a1,-1888

0000000080005304 <i_5110>:
    80005304:	00bbe663          	bltu	s7,a1,80005310 <i_5113>

0000000080005308 <i_5111>:
    80005308:	00b2eab3          	or	s5,t0,a1

000000008000530c <i_5112>:
    8000530c:	08f10a83          	lb	s5,143(sp)

0000000080005310 <i_5113>:
    80005310:	011fce63          	blt	t6,a7,8000532c <i_5119>

0000000080005314 <i_5114>:
    80005314:	fb415b83          	lhu	s7,-76(sp)

0000000080005318 <i_5115>:
    80005318:	00128293          	addi	t0,t0,1
    8000531c:	feb2e4e3          	bltu	t0,a1,80005304 <i_5110>

0000000080005320 <i_5116>:
    80005320:	01ead863          	ble	t5,s5,80005330 <i_5120>

0000000080005324 <i_5117>:
    80005324:	f4b109a3          	sb	a1,-173(sp)

0000000080005328 <i_5118>:
    80005328:	02b5b5b3          	mulhu	a1,a1,a1

000000008000532c <i_5119>:
    8000532c:	0325c4bb          	divw	s1,a1,s2

0000000080005330 <i_5120>:
    80005330:	12b13023          	sd	a1,288(sp)

0000000080005334 <i_5121>:
    80005334:	029b8063          	beq	s7,s1,80005354 <i_5129>

0000000080005338 <i_5122>:
    80005338:	0b110383          	lb	t2,177(sp)

000000008000533c <i_5123>:
    8000533c:	03514e83          	lbu	t4,53(sp)

0000000080005340 <i_5124>:
    80005340:	1be15a83          	lhu	s5,446(sp)

0000000080005344 <i_5125>:
    80005344:	40958f3b          	subw	t5,a1,s1

0000000080005348 <i_5126>:
    80005348:	0d015583          	lhu	a1,208(sp)

000000008000534c <i_5127>:
    8000534c:	01e9c2b3          	xor	t0,s3,t5

0000000080005350 <i_5128>:
    80005350:	01ceadb3          	slt	s11,t4,t3

0000000080005354 <i_5129>:
    80005354:	01b7c7b3          	xor	a5,a5,s11

0000000080005358 <i_5130>:
    80005358:	ec013303          	ld	t1,-320(sp)

000000008000535c <i_5131>:
    8000535c:	0bc10383          	lb	t2,188(sp)

0000000080005360 <i_5132>:
    80005360:	ee011f03          	lh	t5,-288(sp)

0000000080005364 <i_5133>:
    80005364:	ee615c83          	lhu	s9,-282(sp)

0000000080005368 <i_5134>:
    80005368:	03df6f33          	rem	t5,t5,t4

000000008000536c <i_5135>:
    8000536c:	0073d463          	ble	t2,t2,80005374 <i_5137>

0000000080005370 <i_5136>:
    80005370:	00000013          	nop

0000000080005374 <i_5137>:
    80005374:	0a015c83          	lhu	s9,160(sp)

0000000080005378 <i_5138>:
    80005378:	01e0ccb3          	xor	s9,ra,t5

000000008000537c <i_5139>:
    8000537c:	89e00f13          	li	t5,-1890

0000000080005380 <i_5140>:
    80005380:	8a800513          	li	a0,-1880

0000000080005384 <i_5141>:
    80005384:	00811783          	lh	a5,8(sp)

0000000080005388 <i_5142>:
    80005388:	03c12083          	lw	ra,60(sp)

000000008000538c <i_5143>:
    8000538c:	fa816383          	lwu	t2,-88(sp)

0000000080005390 <i_5144>:
    80005390:	03958463          	beq	a1,s9,800053b8 <i_5153>

0000000080005394 <i_5145>:
    80005394:	11615083          	lhu	ra,278(sp)

0000000080005398 <i_5146>:
    80005398:	01dc0263          	beq	s8,t4,8000539c <i_5147>

000000008000539c <i_5147>:
    8000539c:	fe1105a3          	sb	ra,-21(sp)

00000000800053a0 <i_5148>:
    800053a0:	0252a2b3          	mulhsu	t0,t0,t0

00000000800053a4 <i_5149>:
    800053a4:	001f0f13          	addi	t5,t5,1 # 6a041001 <main-0x15fbefff>
    800053a8:	fde51ee3          	bne	a0,t5,80005384 <i_5141>

00000000800053ac <i_5150>:
    800053ac:	fd013c83          	ld	s9,-48(sp)

00000000800053b0 <i_5151>:
    800053b0:	f41104a3          	sb	ra,-183(sp)

00000000800053b4 <i_5152>:
    800053b4:	e8812083          	lw	ra,-376(sp)

00000000800053b8 <i_5153>:
    800053b8:	68608b13          	addi	s6,ra,1670

00000000800053bc <i_5154>:
    800053bc:	02511a23          	sh	t0,52(sp)

00000000800053c0 <i_5155>:
    800053c0:	02a13423          	sd	a0,40(sp)

00000000800053c4 <i_5156>:
    800053c4:	e5e10603          	lb	a2,-418(sp)

00000000800053c8 <i_5157>:
    800053c8:	f2812983          	lw	s3,-216(sp)

00000000800053cc <i_5158>:
    800053cc:	12013503          	ld	a0,288(sp)

00000000800053d0 <i_5159>:
    800053d0:	f4c11e23          	sh	a2,-164(sp)

00000000800053d4 <i_5160>:
    800053d4:	f8c102a3          	sb	a2,-123(sp)

00000000800053d8 <i_5161>:
    800053d8:	06914183          	lbu	gp,105(sp)

00000000800053dc <i_5162>:
    800053dc:	1d812e83          	lw	t4,472(sp)

00000000800053e0 <i_5163>:
    800053e0:	00c48a63          	beq	s1,a2,800053f4 <i_5168>

00000000800053e4 <i_5164>:
    800053e4:	ef813183          	ld	gp,-264(sp)

00000000800053e8 <i_5165>:
    800053e8:	01366463          	bltu	a2,s3,800053f0 <i_5167>

00000000800053ec <i_5166>:
    800053ec:	1bc16d03          	lwu	s10,444(sp)

00000000800053f0 <i_5167>:
    800053f0:	e7416483          	lwu	s1,-396(sp)

00000000800053f4 <i_5168>:
    800053f4:	fb416783          	lwu	a5,-76(sp)

00000000800053f8 <i_5169>:
    800053f8:	02d4f533          	remu	a0,s1,a3

00000000800053fc <i_5170>:
    800053fc:	00a7d263          	ble	a0,a5,80005400 <i_5171>

0000000080005400 <i_5171>:
    80005400:	09714283          	lbu	t0,151(sp)

0000000080005404 <i_5172>:
    80005404:	00a10323          	sb	a0,6(sp)

0000000080005408 <i_5173>:
    80005408:	fb312e23          	sw	s3,-68(sp)

000000008000540c <i_5174>:
    8000540c:	83900613          	li	a2,-1991

0000000080005410 <i_5175>:
    80005410:	84300493          	li	s1,-1981

0000000080005414 <i_5176>:
    80005414:	00000013          	nop

0000000080005418 <i_5177>:
    80005418:	00300693          	li	a3,3

000000008000541c <i_5178>:
    8000541c:	00d49433          	sll	s0,s1,a3

0000000080005420 <i_5179>:
    80005420:	e8816a83          	lwu	s5,-376(sp)

0000000080005424 <i_5180>:
    80005424:	e5b10203          	lb	tp,-421(sp)

0000000080005428 <i_5181>:
    80005428:	00000013          	nop

000000008000542c <i_5182>:
    8000542c:	0242d2bb          	divuw	t0,t0,tp

0000000080005430 <i_5183>:
    80005430:	02c40cb3          	mul	s9,s0,a2

0000000080005434 <i_5184>:
    80005434:	00160613          	addi	a2,a2,1
    80005438:	fcc4fee3          	bleu	a2,s1,80005414 <i_5176>

000000008000543c <i_5185>:
    8000543c:	f1013783          	ld	a5,-240(sp)

0000000080005440 <i_5186>:
    80005440:	01b00093          	li	ra,27

0000000080005444 <i_5187>:
    80005444:	00125d3b          	srlw	s10,tp,ra

0000000080005448 <i_5188>:
    80005448:	0ad11823          	sh	a3,176(sp)

000000008000544c <i_5189>:
    8000544c:	09211303          	lh	t1,146(sp)

0000000080005450 <i_5190>:
    80005450:	00430e63          	beq	t1,tp,8000546c <i_5197>

0000000080005454 <i_5191>:
    80005454:	ea013203          	ld	tp,-352(sp)

0000000080005458 <i_5192>:
    80005458:	f4a14b83          	lbu	s7,-182(sp)

000000008000545c <i_5193>:
    8000545c:	f3712e23          	sw	s7,-196(sp)

0000000080005460 <i_5194>:
    80005460:	18b13023          	sd	a1,384(sp)

0000000080005464 <i_5195>:
    80005464:	03745bbb          	divuw	s7,s0,s7

0000000080005468 <i_5196>:
    80005468:	f2c10d03          	lb	s10,-212(sp)

000000008000546c <i_5197>:
    8000546c:	16012b83          	lw	s7,352(sp)

0000000080005470 <i_5198>:
    80005470:	f4114b83          	lbu	s7,-191(sp)

0000000080005474 <i_5199>:
    80005474:	0e611683          	lh	a3,230(sp)

0000000080005478 <i_5200>:
    80005478:	002f141b          	slliw	s0,t5,0x2

000000008000547c <i_5201>:
    8000547c:	02442633          	mulhsu	a2,s0,tp

0000000080005480 <i_5202>:
    80005480:	02c25063          	ble	a2,tp,800054a0 <i_5210>

0000000080005484 <i_5203>:
    80005484:	008d04b3          	add	s1,s10,s0

0000000080005488 <i_5204>:
    80005488:	f9610323          	sb	s6,-122(sp)

000000008000548c <i_5205>:
    8000548c:	00dbda63          	ble	a3,s7,800054a0 <i_5210>

0000000080005490 <i_5206>:
    80005490:	017be263          	bltu	s7,s7,80005494 <i_5207>

0000000080005494 <i_5207>:
    80005494:	03740463          	beq	s0,s7,800054bc <i_5217>

0000000080005498 <i_5208>:
    80005498:	0a911a23          	sh	s1,180(sp)

000000008000549c <i_5209>:
    8000549c:	f0813603          	ld	a2,-248(sp)

00000000800054a0 <i_5210>:
    800054a0:	009484b3          	add	s1,s1,s1

00000000800054a4 <i_5211>:
    800054a4:	0a714d03          	lbu	s10,167(sp)

00000000800054a8 <i_5212>:
    800054a8:	fa913423          	sd	s1,-88(sp)

00000000800054ac <i_5213>:
    800054ac:	009bbbb3          	sltu	s7,s7,s1

00000000800054b0 <i_5214>:
    800054b0:	e69105a3          	sb	s1,-405(sp)

00000000800054b4 <i_5215>:
    800054b4:	e9510603          	lb	a2,-363(sp)

00000000800054b8 <i_5216>:
    800054b8:	00c45c63          	ble	a2,s0,800054d0 <i_5222>

00000000800054bc <i_5217>:
    800054bc:	0096ee63          	bltu	a3,s1,800054d8 <i_5224>

00000000800054c0 <i_5218>:
    800054c0:	017b8633          	add	a2,s7,s7

00000000800054c4 <i_5219>:
    800054c4:	efa14c03          	lbu	s8,-262(sp)

00000000800054c8 <i_5220>:
    800054c8:	1c412303          	lw	t1,452(sp)

00000000800054cc <i_5221>:
    800054cc:	0174dc63          	ble	s7,s1,800054e4 <i_5227>

00000000800054d0 <i_5222>:
    800054d0:	029d6bbb          	remw	s7,s10,s1

00000000800054d4 <i_5223>:
    800054d4:	f9510483          	lb	s1,-107(sp)

00000000800054d8 <i_5224>:
    800054d8:	00968e63          	beq	a3,s1,800054f4 <i_5231>

00000000800054dc <i_5225>:
    800054dc:	406484b3          	sub	s1,s1,t1

00000000800054e0 <i_5226>:
    800054e0:	73d4b693          	sltiu	a3,s1,1853

00000000800054e4 <i_5227>:
    800054e4:	f5a15483          	lhu	s1,-166(sp)

00000000800054e8 <i_5228>:
    800054e8:	16912023          	sw	s1,352(sp)

00000000800054ec <i_5229>:
    800054ec:	e6911d23          	sh	s1,-390(sp)

00000000800054f0 <i_5230>:
    800054f0:	00331493          	slli	s1,t1,0x3

00000000800054f4 <i_5231>:
    800054f4:	e6611483          	lh	s1,-410(sp)

00000000800054f8 <i_5232>:
    800054f8:	01f00693          	li	a3,31

00000000800054fc <i_5233>:
    800054fc:	00d5d4bb          	srlw	s1,a1,a3

0000000080005500 <i_5234>:
    80005500:	ffc12603          	lw	a2,-4(sp)

0000000080005504 <i_5235>:
    80005504:	0fa11c03          	lh	s8,250(sp)

0000000080005508 <i_5236>:
    80005508:	029c7463          	bleu	s1,s8,80005530 <i_5246>

000000008000550c <i_5237>:
    8000550c:	e8911b23          	sh	s1,-362(sp)

0000000080005510 <i_5238>:
    80005510:	e2013c03          	ld	s8,-480(sp)

0000000080005514 <i_5239>:
    80005514:	00ec5a63          	ble	a4,s8,80005528 <i_5244>

0000000080005518 <i_5240>:
    80005518:	01860263          	beq	a2,s8,8000551c <i_5241>

000000008000551c <i_5241>:
    8000551c:	0f811b23          	sh	s8,246(sp)

0000000080005520 <i_5242>:
    80005520:	fda15c03          	lhu	s8,-38(sp)

0000000080005524 <i_5243>:
    80005524:	038c0c3b          	mulw	s8,s8,s8

0000000080005528 <i_5244>:
    80005528:	ed110083          	lb	ra,-303(sp)

000000008000552c <i_5245>:
    8000552c:	03bc4dbb          	divw	s11,s8,s11

0000000080005530 <i_5246>:
    80005530:	002d0263          	beq	s10,sp,80005534 <i_5247>

0000000080005534 <i_5247>:
    80005534:	efc14d03          	lbu	s10,-260(sp)

0000000080005538 <i_5248>:
    80005538:	1e016203          	lwu	tp,480(sp)

000000008000553c <i_5249>:
    8000553c:	02111623          	sh	ra,44(sp)

0000000080005540 <i_5250>:
    80005540:	fe611d03          	lh	s10,-26(sp)

0000000080005544 <i_5251>:
    80005544:	0012e6b3          	or	a3,t0,ra

0000000080005548 <i_5252>:
    80005548:	001d6663          	bltu	s10,ra,80005554 <i_5255>

000000008000554c <i_5253>:
    8000554c:	1a211a83          	lh	s5,418(sp)

0000000080005550 <i_5254>:
    80005550:	0252c4bb          	divw	s1,t0,t0

0000000080005554 <i_5255>:
    80005554:	15c12e03          	lw	t3,348(sp)

0000000080005558 <i_5256>:
    80005558:	06510123          	sb	t0,98(sp)

000000008000555c <i_5257>:
    8000555c:	002e5293          	srli	t0,t3,0x2

0000000080005560 <i_5258>:
    80005560:	0c713c23          	sd	t2,216(sp)

0000000080005564 <i_5259>:
    80005564:	f4b14483          	lbu	s1,-181(sp)

0000000080005568 <i_5260>:
    80005568:	029e0463          	beq	t3,s1,80005590 <i_5270>

000000008000556c <i_5261>:
    8000556c:	e43a0a1b          	addiw	s4,s4,-445

0000000080005570 <i_5262>:
    80005570:	00be6663          	bltu	t3,a1,8000557c <i_5265>

0000000080005574 <i_5263>:
    80005574:	001a1a93          	slli	s5,s4,0x1

0000000080005578 <i_5264>:
    80005578:	f854881b          	addiw	a6,s1,-123

000000008000557c <i_5265>:
    8000557c:	f4012803          	lw	a6,-192(sp)

0000000080005580 <i_5266>:
    80005580:	1d5100a3          	sb	s5,449(sp)

0000000080005584 <i_5267>:
    80005584:	00000013          	nop

0000000080005588 <i_5268>:
    80005588:	fdc16803          	lwu	a6,-36(sp)

000000008000558c <i_5269>:
    8000558c:	15012623          	sw	a6,332(sp)

0000000080005590 <i_5270>:
    80005590:	18411d83          	lh	s11,388(sp)

0000000080005594 <i_5271>:
    80005594:	13013c23          	sd	a6,312(sp)

0000000080005598 <i_5272>:
    80005598:	77a00a93          	li	s5,1914

000000008000559c <i_5273>:
    8000559c:	78e00493          	li	s1,1934

00000000800055a0 <i_5274>:
    800055a0:	01bdf833          	and	a6,s11,s11

00000000800055a4 <i_5275>:
    800055a4:	01ed8bb3          	add	s7,s11,t5

00000000800055a8 <i_5276>:
    800055a8:	00385293          	srli	t0,a6,0x3

00000000800055ac <i_5277>:
    800055ac:	030bf2b3          	remu	t0,s7,a6

00000000800055b0 <i_5278>:
    800055b0:	010dc263          	blt	s11,a6,800055b4 <i_5279>

00000000800055b4 <i_5279>:
    800055b4:	029dfdb3          	remu	s11,s11,s1

00000000800055b8 <i_5280>:
    800055b8:	0e510ca3          	sb	t0,249(sp)

00000000800055bc <i_5281>:
    800055bc:	5a22cb13          	xori	s6,t0,1442

00000000800055c0 <i_5282>:
    800055c0:	001a8a93          	addi	s5,s5,1
    800055c4:	fc9a9ee3          	bne	s5,s1,800055a0 <i_5274>

00000000800055c8 <i_5283>:
    800055c8:	1db12823          	sw	s11,464(sp)

00000000800055cc <i_5284>:
    800055cc:	03a28bb3          	mul	s7,t0,s10

00000000800055d0 <i_5285>:
    800055d0:	ee813c83          	ld	s9,-280(sp)

00000000800055d4 <i_5286>:
    800055d4:	ed416803          	lwu	a6,-300(sp)

00000000800055d8 <i_5287>:
    800055d8:	005b6e63          	bltu	s6,t0,800055f4 <i_5294>

00000000800055dc <i_5288>:
    800055dc:	0dd10e23          	sb	t4,220(sp)

00000000800055e0 <i_5289>:
    800055e0:	0e511323          	sh	t0,230(sp)

00000000800055e4 <i_5290>:
    800055e4:	00000013          	nop

00000000800055e8 <i_5291>:
    800055e8:	033cbcb3          	mulhu	s9,s9,s3

00000000800055ec <i_5292>:
    800055ec:	025c9cb3          	mulh	s9,s9,t0

00000000800055f0 <i_5293>:
    800055f0:	0196a2b3          	slt	t0,a3,s9

00000000800055f4 <i_5294>:
    800055f4:	03dedcb3          	divu	s9,t4,t4

00000000800055f8 <i_5295>:
    800055f8:	e3615c83          	lhu	s9,-458(sp)

00000000800055fc <i_5296>:
    800055fc:	8c700e93          	li	t4,-1849

0000000080005600 <i_5297>:
    80005600:	8d700693          	li	a3,-1833

0000000080005604 <i_5298>:
    80005604:	e7013b83          	ld	s7,-400(sp)

0000000080005608 <i_5299>:
    80005608:	404ad993          	srai	s3,s5,0x4

000000008000560c <i_5300>:
    8000560c:	fad12e23          	sw	a3,-68(sp)

0000000080005610 <i_5301>:
    80005610:	001e8e93          	addi	t4,t4,1
    80005614:	fedec8e3          	blt	t4,a3,80005604 <i_5298>

0000000080005618 <i_5302>:
    80005618:	0f813283          	ld	t0,248(sp)

000000008000561c <i_5303>:
    8000561c:	07412c83          	lw	s9,116(sp)

0000000080005620 <i_5304>:
    80005620:	00569663          	bne	a3,t0,8000562c <i_5307>

0000000080005624 <i_5305>:
    80005624:	00569c63          	bne	a3,t0,8000563c <i_5311>

0000000080005628 <i_5306>:
    80005628:	00d9e863          	bltu	s3,a3,80005638 <i_5310>

000000008000562c <i_5307>:
    8000562c:	0b015683          	lhu	a3,176(sp)

0000000080005630 <i_5308>:
    80005630:	40d98ebb          	subw	t4,s3,a3

0000000080005634 <i_5309>:
    80005634:	02000e93          	li	t4,32

0000000080005638 <i_5310>:
    80005638:	01d6d6b3          	srl	a3,a3,t4

000000008000563c <i_5311>:
    8000563c:	03d84063          	blt	a6,t4,8000565c <i_5319>

0000000080005640 <i_5312>:
    80005640:	0ed10c23          	sb	a3,248(sp)

0000000080005644 <i_5313>:
    80005644:	eed11323          	sh	a3,-282(sp)

0000000080005648 <i_5314>:
    80005648:	f2d13823          	sd	a3,-208(sp)

000000008000564c <i_5315>:
    8000564c:	01c00793          	li	a5,28

0000000080005650 <i_5316>:
    80005650:	00f6db3b          	srlw	s6,a3,a5

0000000080005654 <i_5317>:
    80005654:	fb813d83          	ld	s11,-72(sp)

0000000080005658 <i_5318>:
    80005658:	0026d21b          	srliw	tp,a3,0x2

000000008000565c <i_5319>:
    8000565c:	03b27263          	bleu	s11,tp,80005680 <i_5328>

0000000080005660 <i_5320>:
    80005660:	03dd8eb3          	mul	t4,s11,t4

0000000080005664 <i_5321>:
    80005664:	0a814683          	lbu	a3,168(sp)

0000000080005668 <i_5322>:
    80005668:	01b206b3          	add	a3,tp,s11

000000008000566c <i_5323>:
    8000566c:	0046d263          	ble	tp,a3,80005670 <i_5324>

0000000080005670 <i_5324>:
    80005670:	08411c23          	sh	tp,152(sp)

0000000080005674 <i_5325>:
    80005674:	01ddca63          	blt	s11,t4,80005688 <i_5330>

0000000080005678 <i_5326>:
    80005678:	0046d663          	ble	tp,a3,80005684 <i_5329>

000000008000567c <i_5327>:
    8000567c:	01beec63          	bltu	t4,s11,80005694 <i_5333>

0000000080005680 <i_5328>:
    80005680:	01d3f863          	bleu	t4,t2,80005690 <i_5332>

0000000080005684 <i_5329>:
    80005684:	05415583          	lhu	a1,84(sp)

0000000080005688 <i_5330>:
    80005688:	02d580bb          	mulw	ra,a1,a3

000000008000568c <i_5331>:
    8000568c:	01569a63          	bne	a3,s5,800056a0 <i_5336>

0000000080005690 <i_5332>:
    80005690:	0010e663          	bltu	ra,ra,8000569c <i_5335>

0000000080005694 <i_5333>:
    80005694:	006c3333          	sltu	t1,s8,t1

0000000080005698 <i_5334>:
    80005698:	10610923          	sb	t1,274(sp)

000000008000569c <i_5335>:
    8000569c:	00000013          	nop

00000000800056a0 <i_5336>:
    800056a0:	f0610e23          	sb	t1,-228(sp)

00000000800056a4 <i_5337>:
    800056a4:	06110023          	sb	ra,96(sp)

00000000800056a8 <i_5338>:
    800056a8:	7a700b93          	li	s7,1959

00000000800056ac <i_5339>:
    800056ac:	7ab00093          	li	ra,1963

00000000800056b0 <i_5340>:
    800056b0:	032371b3          	remu	gp,t1,s2

00000000800056b4 <i_5341>:
    800056b4:	0231c33b          	divw	t1,gp,gp

00000000800056b8 <i_5342>:
    800056b8:	023181bb          	mulw	gp,gp,gp

00000000800056bc <i_5343>:
    800056bc:	e4c12183          	lw	gp,-436(sp)

00000000800056c0 <i_5344>:
    800056c0:	02200193          	li	gp,34

00000000800056c4 <i_5345>:
    800056c4:	4031da33          	sra	s4,gp,gp

00000000800056c8 <i_5346>:
    800056c8:	001b8b93          	addi	s7,s7,1 # ffffffff856e6001 <_end+0xffffffff056d5bed>
    800056cc:	ff70f2e3          	bleu	s7,ra,800056b0 <i_5340>

00000000800056d0 <i_5347>:
    800056d0:	0a914583          	lbu	a1,169(sp)

00000000800056d4 <i_5348>:
    800056d4:	00b1c463          	blt	gp,a1,800056dc <i_5350>

00000000800056d8 <i_5349>:
    800056d8:	fa013183          	ld	gp,-96(sp)

00000000800056dc <i_5350>:
    800056dc:	01800193          	li	gp,24

00000000800056e0 <i_5351>:
    800056e0:	003490bb          	sllw	ra,s1,gp

00000000800056e4 <i_5352>:
    800056e4:	76500d93          	li	s11,1893

00000000800056e8 <i_5353>:
    800056e8:	76800e93          	li	t4,1896

00000000800056ec <i_5354>:
    800056ec:	0231c663          	blt	gp,gp,80005718 <i_5364>

00000000800056f0 <i_5355>:
    800056f0:	00b00093          	li	ra,11

00000000800056f4 <i_5356>:
    800056f4:	001894bb          	sllw	s1,a7,ra

00000000800056f8 <i_5357>:
    800056f8:	fd611183          	lh	gp,-42(sp)

00000000800056fc <i_5358>:
    800056fc:	001d8d93          	addi	s11,s11,1
    80005700:	ffbef6e3          	bleu	s11,t4,800056ec <i_5354>

0000000080005704 <i_5359>:
    80005704:	0290f263          	bleu	s1,ra,80005728 <i_5368>

0000000080005708 <i_5360>:
    80005708:	0031f263          	bleu	gp,gp,8000570c <i_5361>

000000008000570c <i_5361>:
    8000570c:	0014f263          	bleu	ra,s1,80005710 <i_5362>

0000000080005710 <i_5362>:
    80005710:	f5815f03          	lhu	t5,-168(sp)

0000000080005714 <i_5363>:
    80005714:	4034d093          	srai	ra,s1,0x3

0000000080005718 <i_5364>:
    80005718:	40425193          	srai	gp,tp,0x4

000000008000571c <i_5365>:
    8000571c:	00000013          	nop

0000000080005720 <i_5366>:
    80005720:	003c5c13          	srli	s8,s8,0x3

0000000080005724 <i_5367>:
    80005724:	00416183          	lwu	gp,4(sp)

0000000080005728 <i_5368>:
    80005728:	10910623          	sb	s1,268(sp)

000000008000572c <i_5369>:
    8000572c:	f0311f23          	sh	gp,-226(sp)

0000000080005730 <i_5370>:
    80005730:	87200a13          	li	s4,-1934

0000000080005734 <i_5371>:
    80005734:	87a00213          	li	tp,-1926

0000000080005738 <i_5372>:
    80005738:	c530c813          	xori	a6,ra,-941

000000008000573c <i_5373>:
    8000573c:	410181bb          	subw	gp,gp,a6

0000000080005740 <i_5374>:
    80005740:	18312e23          	sw	gp,412(sp)

0000000080005744 <i_5375>:
    80005744:	04e15383          	lhu	t2,78(sp)

0000000080005748 <i_5376>:
    80005748:	0046d69b          	srliw	a3,a3,0x4

000000008000574c <i_5377>:
    8000574c:	fb912223          	sw	s9,-92(sp)

0000000080005750 <i_5378>:
    80005750:	02d1c263          	blt	gp,a3,80005774 <i_5386>

0000000080005754 <i_5379>:
    80005754:	02764abb          	divw	s5,a2,t2

0000000080005758 <i_5380>:
    80005758:	001a0a13          	addi	s4,s4,1 # 579c9001 <main-0x28636fff>
    8000575c:	fc4a4ee3          	blt	s4,tp,80005738 <i_5372>

0000000080005760 <i_5381>:
    80005760:	fb013283          	ld	t0,-80(sp)

0000000080005764 <i_5382>:
    80005764:	0351e1bb          	remw	gp,gp,s5

0000000080005768 <i_5383>:
    80005768:	efa14803          	lbu	a6,-262(sp)

000000008000576c <i_5384>:
    8000576c:	0259aa33          	mulhsu	s4,s3,t0

0000000080005770 <i_5385>:
    80005770:	00210d03          	lb	s10,2(sp)

0000000080005774 <i_5386>:
    80005774:	03528ab3          	mul	s5,t0,s5

0000000080005778 <i_5387>:
    80005778:	ef511523          	sh	s5,-278(sp)

000000008000577c <i_5388>:
    8000577c:	00f00193          	li	gp,15

0000000080005780 <i_5389>:
    80005780:	4031d4b3          	sra	s1,gp,gp

0000000080005784 <i_5390>:
    80005784:	003ac1b3          	xor	gp,s5,gp

0000000080005788 <i_5391>:
    80005788:	e3110a83          	lb	s5,-463(sp)

000000008000578c <i_5392>:
    8000578c:	03e61a33          	mulh	s4,a2,t5

0000000080005790 <i_5393>:
    80005790:	0dc11183          	lh	gp,220(sp)

0000000080005794 <i_5394>:
    80005794:	17c16303          	lwu	t1,380(sp)

0000000080005798 <i_5395>:
    80005798:	01a2e863          	bltu	t0,s10,800057a8 <i_5399>

000000008000579c <i_5396>:
    8000579c:	00980663          	beq	a6,s1,800057a8 <i_5399>

00000000800057a0 <i_5397>:
    800057a0:	e4812303          	lw	t1,-440(sp)

00000000800057a4 <i_5398>:
    800057a4:	7b632297          	auipc	t0,0x7b632

00000000800057a8 <i_5399>:
    800057a8:	f4811d83          	lh	s11,-184(sp)

00000000800057ac <i_5400>:
    800057ac:	09615683          	lhu	a3,150(sp)

00000000800057b0 <i_5401>:
    800057b0:	04314383          	lbu	t2,67(sp)

00000000800057b4 <i_5402>:
    800057b4:	02d37263          	bleu	a3,t1,800057d8 <i_5411>

00000000800057b8 <i_5403>:
    800057b8:	41228433          	sub	s0,t0,s2

00000000800057bc <i_5404>:
    800057bc:	0253bdb3          	mulhu	s11,t2,t0

00000000800057c0 <i_5405>:
    800057c0:	aec26297          	auipc	t0,0xaec26

00000000800057c4 <i_5406>:
    800057c4:	ea5109a3          	sb	t0,-333(sp)

00000000800057c8 <i_5407>:
    800057c8:	fc8103a3          	sb	s0,-57(sp)

00000000800057cc <i_5408>:
    800057cc:	03b28463          	beq	t0,s11,800057f4 <i_5418>

00000000800057d0 <i_5409>:
    800057d0:	0082e863          	bltu	t0,s0,800057e0 <i_5413>

00000000800057d4 <i_5410>:
    800057d4:	03b28dbb          	mulw	s11,t0,s11

00000000800057d8 <i_5411>:
    800057d8:	e8810283          	lb	t0,-376(sp)

00000000800057dc <i_5412>:
    800057dc:	00429e93          	slli	t4,t0,0x4

00000000800057e0 <i_5413>:
    800057e0:	f0512023          	sw	t0,-256(sp)

00000000800057e4 <i_5414>:
    800057e4:	0a511a23          	sh	t0,180(sp)

00000000800057e8 <i_5415>:
    800057e8:	1e338d1b          	addiw	s10,t2,483

00000000800057ec <i_5416>:
    800057ec:	01600493          	li	s1,22

00000000800057f0 <i_5417>:
    800057f0:	00949d3b          	sllw	s10,s1,s1

00000000800057f4 <i_5418>:
    800057f4:	f29d4393          	xori	t2,s10,-215

00000000800057f8 <i_5419>:
    800057f8:	01ad4c33          	xor	s8,s10,s10

00000000800057fc <i_5420>:
    800057fc:	03c14183          	lbu	gp,60(sp)

0000000080005800 <i_5421>:
    80005800:	00bd5a63          	ble	a1,s10,80005814 <i_5426>

0000000080005804 <i_5422>:
    80005804:	f5212223          	sw	s2,-188(sp)

0000000080005808 <i_5423>:
    80005808:	e6016183          	lwu	gp,-416(sp)

000000008000580c <i_5424>:
    8000580c:	f6310e23          	sb	gp,-132(sp)

0000000080005810 <i_5425>:
    80005810:	0211e063          	bltu	gp,ra,80005830 <i_5433>

0000000080005814 <i_5426>:
    80005814:	001180b3          	add	ra,gp,ra

0000000080005818 <i_5427>:
    80005818:	e6312823          	sw	gp,-400(sp)

000000008000581c <i_5428>:
    8000581c:	00614183          	lbu	gp,6(sp)

0000000080005820 <i_5429>:
    80005820:	e7a0ec93          	ori	s9,ra,-390

0000000080005824 <i_5430>:
    80005824:	001f9b9b          	slliw	s7,t6,0x1

0000000080005828 <i_5431>:
    80005828:	00000013          	nop

000000008000582c <i_5432>:
    8000582c:	ef712c23          	sw	s7,-264(sp)

0000000080005830 <i_5433>:
    80005830:	00000013          	nop

0000000080005834 <i_5434>:
    80005834:	eb013b83          	ld	s7,-336(sp)

0000000080005838 <i_5435>:
    80005838:	8b000093          	li	ra,-1872

000000008000583c <i_5436>:
    8000583c:	8c300513          	li	a0,-1853

0000000080005840 <i_5437>:
    80005840:	f1011b03          	lh	s6,-240(sp)

0000000080005844 <i_5438>:
    80005844:	ebe14b83          	lbu	s7,-322(sp)

0000000080005848 <i_5439>:
    80005848:	ecb10f23          	sb	a1,-290(sp)

000000008000584c <i_5440>:
    8000584c:	ebf14683          	lbu	a3,-321(sp)

0000000080005850 <i_5441>:
    80005850:	00108093          	addi	ra,ra,1
    80005854:	fe1576e3          	bleu	ra,a0,80005840 <i_5437>

0000000080005858 <i_5442>:
    80005858:	15811983          	lh	s3,344(sp)

000000008000585c <i_5443>:
    8000585c:	036b0063          	beq	s6,s6,8000587c <i_5451>

0000000080005860 <i_5444>:
    80005860:	7d20cb13          	xori	s6,ra,2002

0000000080005864 <i_5445>:
    80005864:	01910e03          	lb	t3,25(sp)

0000000080005868 <i_5446>:
    80005868:	0f310b03          	lb	s6,243(sp)

000000008000586c <i_5447>:
    8000586c:	038b5c3b          	divuw	s8,s6,s8

0000000080005870 <i_5448>:
    80005870:	073109a3          	sb	s3,115(sp)

0000000080005874 <i_5449>:
    80005874:	01699863          	bne	s3,s6,80005884 <i_5453>

0000000080005878 <i_5450>:
    80005878:	019b4863          	blt	s6,s9,80005888 <i_5454>

000000008000587c <i_5451>:
    8000587c:	12012b03          	lw	s6,288(sp)

0000000080005880 <i_5452>:
    80005880:	036e3b33          	mulhu	s6,t3,s6

0000000080005884 <i_5453>:
    80005884:	0d812623          	sw	s8,204(sp)

0000000080005888 <i_5454>:
    80005888:	1d812f03          	lw	t5,472(sp)

000000008000588c <i_5455>:
    8000588c:	1d010b03          	lb	s6,464(sp)

0000000080005890 <i_5456>:
    80005890:	f7d14a83          	lbu	s5,-131(sp)

0000000080005894 <i_5457>:
    80005894:	fcc11c03          	lh	s8,-52(sp)

0000000080005898 <i_5458>:
    80005898:	1d310323          	sb	s3,454(sp)

000000008000589c <i_5459>:
    8000589c:	01000313          	li	t1,16

00000000800058a0 <i_5460>:
    800058a0:	006612bb          	sllw	t0,a2,t1

00000000800058a4 <i_5461>:
    800058a4:	00f307b3          	add	a5,t1,a5

00000000800058a8 <i_5462>:
    800058a8:	04412e83          	lw	t4,68(sp)

00000000800058ac <i_5463>:
    800058ac:	00f2f863          	bleu	a5,t0,800058bc <i_5467>

00000000800058b0 <i_5464>:
    800058b0:	00000013          	nop

00000000800058b4 <i_5465>:
    800058b4:	ee510a83          	lb	s5,-283(sp)

00000000800058b8 <i_5466>:
    800058b8:	9cdc6793          	ori	a5,s8,-1587

00000000800058bc <i_5467>:
    800058bc:	0157ae33          	slt	t3,a5,s5

00000000800058c0 <i_5468>:
    800058c0:	e6614683          	lbu	a3,-410(sp)

00000000800058c4 <i_5469>:
    800058c4:	72a00e93          	li	t4,1834

00000000800058c8 <i_5470>:
    800058c8:	73a00c13          	li	s8,1850

00000000800058cc <i_5471>:
    800058cc:	001e8e93          	addi	t4,t4,1
    800058d0:	ff8eeee3          	bltu	t4,s8,800058cc <i_5471>

00000000800058d4 <i_5472>:
    800058d4:	0351663b          	remw	a2,sp,s5

00000000800058d8 <i_5473>:
    800058d8:	00fc6663          	bltu	s8,a5,800058e4 <i_5476>

00000000800058dc <i_5474>:
    800058dc:	9e467a93          	andi	s5,a2,-1564

00000000800058e0 <i_5475>:
    800058e0:	02dc00bb          	mulw	ra,s8,a3

00000000800058e4 <i_5476>:
    800058e4:	01846a63          	bltu	s0,s8,800058f8 <i_5481>

00000000800058e8 <i_5477>:
    800058e8:	021c7c3b          	remuw	s8,s8,ra

00000000800058ec <i_5478>:
    800058ec:	0c112023          	sw	ra,192(sp)

00000000800058f0 <i_5479>:
    800058f0:	1ae9849b          	addiw	s1,s3,430

00000000800058f4 <i_5480>:
    800058f4:	1cc10383          	lb	t2,460(sp)

00000000800058f8 <i_5481>:
    800058f8:	0274c063          	blt	s1,t2,80005918 <i_5489>

00000000800058fc <i_5482>:
    800058fc:	01864a63          	blt	a2,s8,80005910 <i_5487>

0000000080005900 <i_5483>:
    80005900:	01e4f463          	bleu	t5,s1,80005908 <i_5485>

0000000080005904 <i_5484>:
    80005904:	029c66bb          	remw	a3,s8,s1

0000000080005908 <i_5485>:
    80005908:	e2813b03          	ld	s6,-472(sp)

000000008000590c <i_5486>:
    8000590c:	02960063          	beq	a2,s1,8000592c <i_5494>

0000000080005910 <i_5487>:
    80005910:	03b6d4bb          	divuw	s1,a3,s11

0000000080005914 <i_5488>:
    80005914:	e9013d83          	ld	s11,-368(sp)

0000000080005918 <i_5489>:
    80005918:	f3f13c23          	sd	t6,-200(sp)

000000008000591c <i_5490>:
    8000591c:	03087833          	remu	a6,a6,a6

0000000080005920 <i_5491>:
    80005920:	0d91edb7          	lui	s11,0xd91e

0000000080005924 <i_5492>:
    80005924:	02922833          	mulhsu	a6,tp,s1

0000000080005928 <i_5493>:
    80005928:	05c12383          	lw	t2,92(sp)

000000008000592c <i_5494>:
    8000592c:	08c12c83          	lw	s9,140(sp)

0000000080005930 <i_5495>:
    80005930:	e7615f03          	lhu	t5,-394(sp)

0000000080005934 <i_5496>:
    80005934:	73000613          	li	a2,1840

0000000080005938 <i_5497>:
    80005938:	73a00493          	li	s1,1850

000000008000593c <i_5498>:
    8000593c:	00411503          	lh	a0,4(sp)

0000000080005940 <i_5499>:
    80005940:	039ef063          	bleu	s9,t4,80005960 <i_5507>

0000000080005944 <i_5500>:
    80005944:	16e14a03          	lbu	s4,366(sp)

0000000080005948 <i_5501>:
    80005948:	15e13c23          	sd	t5,344(sp)

000000008000594c <i_5502>:
    8000594c:	f3c15303          	lhu	t1,-196(sp)

0000000080005950 <i_5503>:
    80005950:	019ce463          	bltu	s9,s9,80005958 <i_5505>

0000000080005954 <i_5504>:
    80005954:	00000013          	nop

0000000080005958 <i_5505>:
    80005958:	02a00313          	li	t1,42

000000008000595c <i_5506>:
    8000595c:	006c9cb3          	sll	s9,s9,t1

0000000080005960 <i_5507>:
    80005960:	fa612823          	sw	t1,-80(sp)

0000000080005964 <i_5508>:
    80005964:	03932333          	mulhsu	t1,t1,s9

0000000080005968 <i_5509>:
    80005968:	00160613          	addi	a2,a2,1
    8000596c:	fc9668e3          	bltu	a2,s1,8000593c <i_5498>

0000000080005970 <i_5510>:
    80005970:	00400593          	li	a1,4

0000000080005974 <i_5511>:
    80005974:	00b35cb3          	srl	s9,t1,a1

0000000080005978 <i_5512>:
    80005978:	fa813303          	ld	t1,-88(sp)

000000008000597c <i_5513>:
    8000597c:	05c15783          	lhu	a5,92(sp)

0000000080005980 <i_5514>:
    80005980:	e5013c83          	ld	s9,-432(sp)

0000000080005984 <i_5515>:
    80005984:	15d10b83          	lb	s7,349(sp)

0000000080005988 <i_5516>:
    80005988:	ef416a83          	lwu	s5,-268(sp)

000000008000598c <i_5517>:
    8000598c:	f1411303          	lh	t1,-236(sp)

0000000080005990 <i_5518>:
    80005990:	8c600593          	li	a1,-1850

0000000080005994 <i_5519>:
    80005994:	8d900b93          	li	s7,-1831

0000000080005998 <i_5520>:
    80005998:	00000013          	nop

000000008000599c <i_5521>:
    8000599c:	1a813d83          	ld	s11,424(sp)

00000000800059a0 <i_5522>:
    800059a0:	037554b3          	divu	s1,a0,s7

00000000800059a4 <i_5523>:
    800059a4:	12416c03          	lwu	s8,292(sp)

00000000800059a8 <i_5524>:
    800059a8:	0260ba33          	mulhu	s4,ra,t1

00000000800059ac <i_5525>:
    800059ac:	13710d83          	lb	s11,311(sp)

00000000800059b0 <i_5526>:
    800059b0:	00f10403          	lb	s0,15(sp)

00000000800059b4 <i_5527>:
    800059b4:	026b0663          	beq	s6,t1,800059e0 <i_5537>

00000000800059b8 <i_5528>:
    800059b8:	00158593          	addi	a1,a1,1 # ffffffffc05c3001 <_end+0xffffffff405b2bed>
    800059bc:	fcbbdee3          	ble	a1,s7,80005998 <i_5520>

00000000800059c0 <i_5529>:
    800059c0:	52fbf293          	andi	t0,s7,1327

00000000800059c4 <i_5530>:
    800059c4:	1b215b03          	lhu	s6,434(sp)

00000000800059c8 <i_5531>:
    800059c8:	ef513c23          	sd	s5,-264(sp)

00000000800059cc <i_5532>:
    800059cc:	034c72bb          	remuw	t0,s8,s4

00000000800059d0 <i_5533>:
    800059d0:	014b2b33          	slt	s6,s6,s4

00000000800059d4 <i_5534>:
    800059d4:	00000013          	nop

00000000800059d8 <i_5535>:
    800059d8:	f4f11423          	sh	a5,-184(sp)

00000000800059dc <i_5536>:
    800059dc:	fcc16483          	lwu	s1,-52(sp)

00000000800059e0 <i_5537>:
    800059e0:	ff411b03          	lh	s6,-12(sp)

00000000800059e4 <i_5538>:
    800059e4:	df8b0c13          	addi	s8,s6,-520

00000000800059e8 <i_5539>:
    800059e8:	82200793          	li	a5,-2014

00000000800059ec <i_5540>:
    800059ec:	82500d93          	li	s11,-2011

00000000800059f0 <i_5541>:
    800059f0:	06c12623          	sw	a2,108(sp)

00000000800059f4 <i_5542>:
    800059f4:	00178793          	addi	a5,a5,1
    800059f8:	fefdfce3          	bleu	a5,s11,800059f0 <i_5541>

00000000800059fc <i_5543>:
    800059fc:	003c1993          	slli	s3,s8,0x3

0000000080005a00 <i_5544>:
    80005a00:	3211be13          	sltiu	t3,gp,801

0000000080005a04 <i_5545>:
    80005a04:	01400b13          	li	s6,20

0000000080005a08 <i_5546>:
    80005a08:	416b523b          	sraw	tp,s6,s6

0000000080005a0c <i_5547>:
    80005a0c:	02408ebb          	mulw	t4,ra,tp

0000000080005a10 <i_5548>:
    80005a10:	01de5263          	ble	t4,t3,80005a14 <i_5549>

0000000080005a14 <i_5549>:
    80005a14:	1bd11523          	sh	t4,426(sp)

0000000080005a18 <i_5550>:
    80005a18:	03de6a3b          	remw	s4,t3,t4

0000000080005a1c <i_5551>:
    80005a1c:	41de0e33          	sub	t3,t3,t4

0000000080005a20 <i_5552>:
    80005a20:	01d3ec63          	bltu	t2,t4,80005a38 <i_5558>

0000000080005a24 <i_5553>:
    80005a24:	033e39b3          	mulhu	s3,t3,s3

0000000080005a28 <i_5554>:
    80005a28:	002e5e13          	srli	t3,t3,0x2

0000000080005a2c <i_5555>:
    80005a2c:	15c12423          	sw	t3,328(sp)

0000000080005a30 <i_5556>:
    80005a30:	f9f14e03          	lbu	t3,-97(sp)

0000000080005a34 <i_5557>:
    80005a34:	17aa9697          	auipc	a3,0x17aa9

0000000080005a38 <i_5558>:
    80005a38:	4016d213          	srai	tp,a3,0x1

0000000080005a3c <i_5559>:
    80005a3c:	13c13c23          	sd	t3,312(sp)

0000000080005a40 <i_5560>:
    80005a40:	75b00993          	li	s3,1883

0000000080005a44 <i_5561>:
    80005a44:	76100e13          	li	t3,1889

0000000080005a48 <i_5562>:
    80005a48:	02e00a13          	li	s4,46

0000000080005a4c <i_5563>:
    80005a4c:	41455a33          	sra	s4,a0,s4

0000000080005a50 <i_5564>:
    80005a50:	00198993          	addi	s3,s3,1
    80005a54:	ffc9cae3          	blt	s3,t3,80005a48 <i_5562>

0000000080005a58 <i_5565>:
    80005a58:	00486e63          	bltu	a6,tp,80005a74 <i_5572>

0000000080005a5c <i_5566>:
    80005a5c:	0f013303          	ld	t1,240(sp)

0000000080005a60 <i_5567>:
    80005a60:	0349de33          	divu	t3,s3,s4

0000000080005a64 <i_5568>:
    80005a64:	00000013          	nop

0000000080005a68 <i_5569>:
    80005a68:	026a5333          	divu	t1,s4,t1

0000000080005a6c <i_5570>:
    80005a6c:	414e0cbb          	subw	s9,t3,s4

0000000080005a70 <i_5571>:
    80005a70:	0263633b          	remw	t1,t1,t1

0000000080005a74 <i_5572>:
    80005a74:	01967e33          	and	t3,a2,s9

0000000080005a78 <i_5573>:
    80005a78:	3e6cf293          	andi	t0,s9,998

0000000080005a7c <i_5574>:
    80005a7c:	80900a13          	li	s4,-2039

0000000080005a80 <i_5575>:
    80005a80:	81900993          	li	s3,-2023

0000000080005a84 <i_5576>:
    80005a84:	01200293          	li	t0,18

0000000080005a88 <i_5577>:
    80005a88:	0052d2bb          	srlw	t0,t0,t0

0000000080005a8c <i_5578>:
    80005a8c:	001a0a13          	addi	s4,s4,1
    80005a90:	ff3a4ae3          	blt	s4,s3,80005a84 <i_5576>

0000000080005a94 <i_5579>:
    80005a94:	0072ae33          	slt	t3,t0,t2

0000000080005a98 <i_5580>:
    80005a98:	00529c63          	bne	t0,t0,80005ab0 <i_5586>

0000000080005a9c <i_5581>:
    80005a9c:	00000013          	nop

0000000080005aa0 <i_5582>:
    80005aa0:	00812a03          	lw	s4,8(sp)

0000000080005aa4 <i_5583>:
    80005aa4:	e2f101a3          	sb	a5,-477(sp)

0000000080005aa8 <i_5584>:
    80005aa8:	f6813583          	ld	a1,-152(sp)

0000000080005aac <i_5585>:
    80005aac:	00b2b5b3          	sltu	a1,t0,a1

0000000080005ab0 <i_5586>:
    80005ab0:	feb14b83          	lbu	s7,-21(sp)

0000000080005ab4 <i_5587>:
    80005ab4:	03cd7d3b          	remuw	s10,s10,t3

0000000080005ab8 <i_5588>:
    80005ab8:	77b00293          	li	t0,1915

0000000080005abc <i_5589>:
    80005abc:	78500793          	li	a5,1925

0000000080005ac0 <i_5590>:
    80005ac0:	02b29cb3          	mulh	s9,t0,a1

0000000080005ac4 <i_5591>:
    80005ac4:	f8a10a03          	lb	s4,-118(sp)

0000000080005ac8 <i_5592>:
    80005ac8:	e4f10e23          	sb	a5,-420(sp)

0000000080005acc <i_5593>:
    80005acc:	2cde2093          	slti	ra,t3,717

0000000080005ad0 <i_5594>:
    80005ad0:	11813c23          	sd	s8,280(sp)

0000000080005ad4 <i_5595>:
    80005ad4:	00128293          	addi	t0,t0,1 # 2ec2b7c1 <main-0x513d483f>
    80005ad8:	fef294e3          	bne	t0,a5,80005ac0 <i_5590>

0000000080005adc <i_5596>:
    80005adc:	04014d03          	lbu	s10,64(sp)

0000000080005ae0 <i_5597>:
    80005ae0:	401d00bb          	subw	ra,s10,ra

0000000080005ae4 <i_5598>:
    80005ae4:	ebc12083          	lw	ra,-324(sp)

0000000080005ae8 <i_5599>:
    80005ae8:	03409063          	bne	ra,s4,80005b08 <i_5607>

0000000080005aec <i_5600>:
    80005aec:	03a0f063          	bleu	s10,ra,80005b0c <i_5608>

0000000080005af0 <i_5601>:
    80005af0:	4040db9b          	sraiw	s7,ra,0x4

0000000080005af4 <i_5602>:
    80005af4:	03a5753b          	remuw	a0,a0,s10

0000000080005af8 <i_5603>:
    80005af8:	eb710da3          	sb	s7,-325(sp)

0000000080005afc <i_5604>:
    80005afc:	01abe663          	bltu	s7,s10,80005b08 <i_5607>

0000000080005b00 <i_5605>:
    80005b00:	02a2e7b3          	rem	a5,t0,a0

0000000080005b04 <i_5606>:
    80005b04:	026d4333          	div	t1,s10,t1

0000000080005b08 <i_5607>:
    80005b08:	006563b3          	or	t2,a0,t1

0000000080005b0c <i_5608>:
    80005b0c:	f9412c03          	lw	s8,-108(sp)

0000000080005b10 <i_5609>:
    80005b10:	6c97ba93          	sltiu	s5,a5,1737

0000000080005b14 <i_5610>:
    80005b14:	0370c0b3          	div	ra,ra,s7

0000000080005b18 <i_5611>:
    80005b18:	02713423          	sd	t2,40(sp)

0000000080005b1c <i_5612>:
    80005b1c:	006b0463          	beq	s6,t1,80005b24 <i_5614>

0000000080005b20 <i_5613>:
    80005b20:	01775663          	ble	s7,a4,80005b2c <i_5616>

0000000080005b24 <i_5614>:
    80005b24:	00165a63          	ble	ra,a2,80005b38 <i_5619>

0000000080005b28 <i_5615>:
    80005b28:	4045519b          	sraiw	gp,a0,0x4

0000000080005b2c <i_5616>:
    80005b2c:	f6313c23          	sd	gp,-136(sp)

0000000080005b30 <i_5617>:
    80005b30:	e8310623          	sb	gp,-372(sp)

0000000080005b34 <i_5618>:
    80005b34:	004d5f1b          	srliw	t5,s10,0x4

0000000080005b38 <i_5619>:
    80005b38:	ffd14803          	lbu	a6,-3(sp)

0000000080005b3c <i_5620>:
    80005b3c:	00800493          	li	s1,8

0000000080005b40 <i_5621>:
    80005b40:	00935633          	srl	a2,t1,s1

0000000080005b44 <i_5622>:
    80005b44:	f5813d83          	ld	s11,-168(sp)

0000000080005b48 <i_5623>:
    80005b48:	4030d993          	srai	s3,ra,0x3

0000000080005b4c <i_5624>:
    80005b4c:	14412c03          	lw	s8,324(sp)

0000000080005b50 <i_5625>:
    80005b50:	75500293          	li	t0,1877

0000000080005b54 <i_5626>:
    80005b54:	75b00d13          	li	s10,1883

0000000080005b58 <i_5627>:
    80005b58:	e6f11223          	sh	a5,-412(sp)

0000000080005b5c <i_5628>:
    80005b5c:	0350f3b3          	remu	t2,ra,s5

0000000080005b60 <i_5629>:
    80005b60:	03031663          	bne	t1,a6,80005b8c <i_5639>

0000000080005b64 <i_5630>:
    80005b64:	125106a3          	sb	t0,301(sp)

0000000080005b68 <i_5631>:
    80005b68:	00100993          	li	s3,1

0000000080005b6c <i_5632>:
    80005b6c:	4133d33b          	sraw	t1,t2,s3

0000000080005b70 <i_5633>:
    80005b70:	0039f1b3          	and	gp,s3,gp

0000000080005b74 <i_5634>:
    80005b74:	00128293          	addi	t0,t0,1
    80005b78:	fe5d70e3          	bleu	t0,s10,80005b58 <i_5627>

0000000080005b7c <i_5635>:
    80005b7c:	4029de93          	srai	t4,s3,0x2

0000000080005b80 <i_5636>:
    80005b80:	01d1b9b3          	sltu	s3,gp,t4

0000000080005b84 <i_5637>:
    80005b84:	e6412603          	lw	a2,-412(sp)

0000000080005b88 <i_5638>:
    80005b88:	00398a63          	beq	s3,gp,80005b9c <i_5643>

0000000080005b8c <i_5639>:
    80005b8c:	00b8cc63          	blt	a7,a1,80005ba4 <i_5645>

0000000080005b90 <i_5640>:
    80005b90:	00398863          	beq	s3,gp,80005ba0 <i_5644>

0000000080005b94 <i_5641>:
    80005b94:	03d98463          	beq	s3,t4,80005bbc <i_5651>

0000000080005b98 <i_5642>:
    80005b98:	0f811483          	lh	s1,248(sp)

0000000080005b9c <i_5643>:
    80005b9c:	17d102a3          	sb	t4,357(sp)

0000000080005ba0 <i_5644>:
    80005ba0:	e2c11023          	sh	a2,-480(sp)

0000000080005ba4 <i_5645>:
    80005ba4:	00000013          	nop

0000000080005ba8 <i_5646>:
    80005ba8:	4124809b          	addiw	ra,s1,1042

0000000080005bac <i_5647>:
    80005bac:	02c4b533          	mulhu	a0,s1,a2

0000000080005bb0 <i_5648>:
    80005bb0:	04415083          	lhu	ra,68(sp)

0000000080005bb4 <i_5649>:
    80005bb4:	00409b9b          	slliw	s7,ra,0x4

0000000080005bb8 <i_5650>:
    80005bb8:	04112c23          	sw	ra,88(sp)

0000000080005bbc <i_5651>:
    80005bbc:	01000413          	li	s0,16

0000000080005bc0 <i_5652>:
    80005bc0:	0089163b          	sllw	a2,s2,s0

0000000080005bc4 <i_5653>:
    80005bc4:	89400493          	li	s1,-1900

0000000080005bc8 <i_5654>:
    80005bc8:	8a600213          	li	tp,-1882

0000000080005bcc <i_5655>:
    80005bcc:	02c46d3b          	remw	s10,s0,a2

0000000080005bd0 <i_5656>:
    80005bd0:	0ca11d03          	lh	s10,202(sp)

0000000080005bd4 <i_5657>:
    80005bd4:	00148493          	addi	s1,s1,1 # 1d41b001 <main-0x62be4fff>
    80005bd8:	fe927ae3          	bleu	s1,tp,80005bcc <i_5655>

0000000080005bdc <i_5658>:
    80005bdc:	ec812783          	lw	a5,-312(sp)

0000000080005be0 <i_5659>:
    80005be0:	ec211403          	lh	s0,-318(sp)

0000000080005be4 <i_5660>:
    80005be4:	f0811523          	sh	s0,-246(sp)

0000000080005be8 <i_5661>:
    80005be8:	0081e663          	bltu	gp,s0,80005bf4 <i_5664>

0000000080005bec <i_5662>:
    80005bec:	e2a12823          	sw	a0,-464(sp)

0000000080005bf0 <i_5663>:
    80005bf0:	4034519b          	sraiw	gp,s0,0x3

0000000080005bf4 <i_5664>:
    80005bf4:	4b740593          	addi	a1,s0,1207 # fffffffff08154b7 <_end+0xffffffff708050a3>

0000000080005bf8 <i_5665>:
    80005bf8:	03813983          	ld	s3,56(sp)

0000000080005bfc <i_5666>:
    80005bfc:	0e311623          	sh	gp,236(sp)

0000000080005c00 <i_5667>:
    80005c00:	0024119b          	slliw	gp,s0,0x2

0000000080005c04 <i_5668>:
    80005c04:	0035ca63          	blt	a1,gp,80005c18 <i_5673>

0000000080005c08 <i_5669>:
    80005c08:	0136c463          	blt	a3,s3,80005c10 <i_5671>

0000000080005c0c <i_5670>:
    80005c0c:	01900c93          	li	s9,25

0000000080005c10 <i_5671>:
    80005c10:	019591bb          	sllw	gp,a1,s9

0000000080005c14 <i_5672>:
    80005c14:	e8313023          	sd	gp,-384(sp)

0000000080005c18 <i_5673>:
    80005c18:	15813983          	ld	s3,344(sp)

0000000080005c1c <i_5674>:
    80005c1c:	12811b23          	sh	s0,310(sp)

0000000080005c20 <i_5675>:
    80005c20:	13811d83          	lh	s11,312(sp)

0000000080005c24 <i_5676>:
    80005c24:	00000013          	nop

0000000080005c28 <i_5677>:
    80005c28:	81100993          	li	s3,-2031

0000000080005c2c <i_5678>:
    80005c2c:	82100813          	li	a6,-2015

0000000080005c30 <i_5679>:
    80005c30:	09b102a3          	sb	s11,133(sp)

0000000080005c34 <i_5680>:
    80005c34:	05714283          	lbu	t0,87(sp)

0000000080005c38 <i_5681>:
    80005c38:	00000013          	nop

0000000080005c3c <i_5682>:
    80005c3c:	f4615603          	lhu	a2,-186(sp)

0000000080005c40 <i_5683>:
    80005c40:	093103a3          	sb	s3,135(sp)

0000000080005c44 <i_5684>:
    80005c44:	023cae33          	mulhsu	t3,s9,gp

0000000080005c48 <i_5685>:
    80005c48:	f1913023          	sd	s9,-256(sp)

0000000080005c4c <i_5686>:
    80005c4c:	00d00c93          	li	s9,13

0000000080005c50 <i_5687>:
    80005c50:	019a9db3          	sll	s11,s5,s9

0000000080005c54 <i_5688>:
    80005c54:	00198993          	addi	s3,s3,1
    80005c58:	fd099ce3          	bne	s3,a6,80005c30 <i_5679>

0000000080005c5c <i_5689>:
    80005c5c:	f1814d83          	lbu	s11,-232(sp)

0000000080005c60 <i_5690>:
    80005c60:	05512423          	sw	s5,72(sp)

0000000080005c64 <i_5691>:
    80005c64:	f0c16d03          	lwu	s10,-244(sp)

0000000080005c68 <i_5692>:
    80005c68:	fda11c23          	sh	s10,-40(sp)

0000000080005c6c <i_5693>:
    80005c6c:	035a96b3          	mulh	a3,s5,s5

0000000080005c70 <i_5694>:
    80005c70:	00cbc863          	blt	s7,a2,80005c80 <i_5698>

0000000080005c74 <i_5695>:
    80005c74:	fb416b83          	lwu	s7,-76(sp)

0000000080005c78 <i_5696>:
    80005c78:	01700593          	li	a1,23

0000000080005c7c <i_5697>:
    80005c7c:	40bad6b3          	sra	a3,s5,a1

0000000080005c80 <i_5698>:
    80005c80:	11310783          	lb	a5,275(sp)

0000000080005c84 <i_5699>:
    80005c84:	0f310d83          	lb	s11,243(sp)

0000000080005c88 <i_5700>:
    80005c88:	fa210583          	lb	a1,-94(sp)

0000000080005c8c <i_5701>:
    80005c8c:	00b5ebb3          	or	s7,a1,a1

0000000080005c90 <i_5702>:
    80005c90:	1de14783          	lbu	a5,478(sp)

0000000080005c94 <i_5703>:
    80005c94:	0b016583          	lwu	a1,176(sp)

0000000080005c98 <i_5704>:
    80005c98:	02f59263          	bne	a1,a5,80005cbc <i_5713>

0000000080005c9c <i_5705>:
    80005c9c:	e9713c23          	sd	s7,-360(sp)

0000000080005ca0 <i_5706>:
    80005ca0:	0375d463          	ble	s7,a1,80005cc8 <i_5716>

0000000080005ca4 <i_5707>:
    80005ca4:	01c80bb3          	add	s7,a6,t3

0000000080005ca8 <i_5708>:
    80005ca8:	0355aab3          	mulhsu	s5,a1,s5

0000000080005cac <i_5709>:
    80005cac:	fd511123          	sh	s5,-62(sp)

0000000080005cb0 <i_5710>:
    80005cb0:	f6812383          	lw	t2,-152(sp)

0000000080005cb4 <i_5711>:
    80005cb4:	035acab3          	div	s5,s5,s5

0000000080005cb8 <i_5712>:
    80005cb8:	02c12a83          	lw	s5,44(sp)

0000000080005cbc <i_5713>:
    80005cbc:	1d914383          	lbu	t2,473(sp)

0000000080005cc0 <i_5714>:
    80005cc0:	14410e83          	lb	t4,324(sp)

0000000080005cc4 <i_5715>:
    80005cc4:	00000013          	nop

0000000080005cc8 <i_5716>:
    80005cc8:	4033d413          	srai	s0,t2,0x3

0000000080005ccc <i_5717>:
    80005ccc:	f5513c23          	sd	s5,-168(sp)

0000000080005cd0 <i_5718>:
    80005cd0:	8c600593          	li	a1,-1850

0000000080005cd4 <i_5719>:
    80005cd4:	8ce00f13          	li	t5,-1842

0000000080005cd8 <i_5720>:
    80005cd8:	03c3be33          	mulhu	t3,t2,t3

0000000080005cdc <i_5721>:
    80005cdc:	00158593          	addi	a1,a1,1
    80005ce0:	ffe59ce3          	bne	a1,t5,80005cd8 <i_5720>

0000000080005ce4 <i_5722>:
    80005ce4:	fb310783          	lb	a5,-77(sp)

0000000080005ce8 <i_5723>:
    80005ce8:	1bc14e03          	lbu	t3,444(sp)

0000000080005cec <i_5724>:
    80005cec:	00d14b03          	lbu	s6,13(sp)

0000000080005cf0 <i_5725>:
    80005cf0:	07712a23          	sw	s7,116(sp)

0000000080005cf4 <i_5726>:
    80005cf4:	1dc10e23          	sb	t3,476(sp)

0000000080005cf8 <i_5727>:
    80005cf8:	e5d10e03          	lb	t3,-419(sp)

0000000080005cfc <i_5728>:
    80005cfc:	13c13423          	sd	t3,296(sp)

0000000080005d00 <i_5729>:
    80005d00:	f1610ba3          	sb	s6,-233(sp)

0000000080005d04 <i_5730>:
    80005d04:	16c15603          	lhu	a2,364(sp)

0000000080005d08 <i_5731>:
    80005d08:	83a00b93          	li	s7,-1990

0000000080005d0c <i_5732>:
    80005d0c:	84500b13          	li	s6,-1979

0000000080005d10 <i_5733>:
    80005d10:	03cd1e33          	mulh	t3,s10,t3

0000000080005d14 <i_5734>:
    80005d14:	001b8b93          	addi	s7,s7,1
    80005d18:	ff6bcce3          	blt	s7,s6,80005d10 <i_5733>

0000000080005d1c <i_5735>:
    80005d1c:	40d6053b          	subw	a0,a2,a3

0000000080005d20 <i_5736>:
    80005d20:	16a12e23          	sw	a0,380(sp)

0000000080005d24 <i_5737>:
    80005d24:	05c12583          	lw	a1,92(sp)

0000000080005d28 <i_5738>:
    80005d28:	01816483          	lwu	s1,24(sp)

0000000080005d2c <i_5739>:
    80005d2c:	f8a13023          	sd	a0,-128(sp)

0000000080005d30 <i_5740>:
    80005d30:	00b74663          	blt	a4,a1,80005d3c <i_5743>

0000000080005d34 <i_5741>:
    80005d34:	0064dc63          	ble	t1,s1,80005d4c <i_5747>

0000000080005d38 <i_5742>:
    80005d38:	00b48463          	beq	s1,a1,80005d40 <i_5744>

0000000080005d3c <i_5743>:
    80005d3c:	261e8493          	addi	s1,t4,609

0000000080005d40 <i_5744>:
    80005d40:	00986233          	or	tp,a6,s1

0000000080005d44 <i_5745>:
    80005d44:	08812e83          	lw	t4,136(sp)

0000000080005d48 <i_5746>:
    80005d48:	03813683          	ld	a3,56(sp)

0000000080005d4c <i_5747>:
    80005d4c:	0d813403          	ld	s0,216(sp)

0000000080005d50 <i_5748>:
    80005d50:	02d4c4bb          	divw	s1,s1,a3

0000000080005d54 <i_5749>:
    80005d54:	02d6f433          	remu	s0,a3,a3

0000000080005d58 <i_5750>:
    80005d58:	1bc15483          	lhu	s1,444(sp)

0000000080005d5c <i_5751>:
    80005d5c:	e4813c23          	sd	s0,-424(sp)

0000000080005d60 <i_5752>:
    80005d60:	fcc12683          	lw	a3,-52(sp)

0000000080005d64 <i_5753>:
    80005d64:	008484b3          	add	s1,s1,s0

0000000080005d68 <i_5754>:
    80005d68:	00844433          	xor	s0,s0,s0

0000000080005d6c <i_5755>:
    80005d6c:	f4813583          	ld	a1,-184(sp)

0000000080005d70 <i_5756>:
    80005d70:	00946a63          	bltu	s0,s1,80005d84 <i_5761>

0000000080005d74 <i_5757>:
    80005d74:	00b44e63          	blt	s0,a1,80005d90 <i_5764>

0000000080005d78 <i_5758>:
    80005d78:	00f00a13          	li	s4,15

0000000080005d7c <i_5759>:
    80005d7c:	01455533          	srl	a0,a0,s4

0000000080005d80 <i_5760>:
    80005d80:	00200213          	li	tp,2

0000000080005d84 <i_5761>:
    80005d84:	4045d43b          	sraw	s0,a1,tp

0000000080005d88 <i_5762>:
    80005d88:	0ec12b83          	lw	s7,236(sp)

0000000080005d8c <i_5763>:
    80005d8c:	03212e23          	sw	s2,60(sp)

0000000080005d90 <i_5764>:
    80005d90:	04211583          	lh	a1,66(sp)

0000000080005d94 <i_5765>:
    80005d94:	00728533          	add	a0,t0,t2

0000000080005d98 <i_5766>:
    80005d98:	82300693          	li	a3,-2013

0000000080005d9c <i_5767>:
    80005d9c:	83000393          	li	t2,-2000

0000000080005da0 <i_5768>:
    80005da0:	00468863          	beq	a3,tp,80005db0 <i_5772>

0000000080005da4 <i_5769>:
    80005da4:	f2a10fa3          	sb	a0,-193(sp)

0000000080005da8 <i_5770>:
    80005da8:	e8412c23          	sw	tp,-360(sp)

0000000080005dac <i_5771>:
    80005dac:	ee416403          	lwu	s0,-284(sp)

0000000080005db0 <i_5772>:
    80005db0:	02846463          	bltu	s0,s0,80005dd8 <i_5781>

0000000080005db4 <i_5773>:
    80005db4:	00000013          	nop

0000000080005db8 <i_5774>:
    80005db8:	02453db3          	mulhu	s11,a0,tp

0000000080005dbc <i_5775>:
    80005dbc:	fa711f23          	sh	t2,-66(sp)

0000000080005dc0 <i_5776>:
    80005dc0:	18811f23          	sh	s0,414(sp)

0000000080005dc4 <i_5777>:
    80005dc4:	00168693          	addi	a3,a3,1 # 97aaea35 <_end+0x17a9e621>
    80005dc8:	fcd3dce3          	ble	a3,t2,80005da0 <i_5768>

0000000080005dcc <i_5778>:
    80005dcc:	017bb233          	sltu	tp,s7,s7

0000000080005dd0 <i_5779>:
    80005dd0:	fbc11303          	lh	t1,-68(sp)

0000000080005dd4 <i_5780>:
    80005dd4:	f9114283          	lbu	t0,-111(sp)

0000000080005dd8 <i_5781>:
    80005dd8:	e2413023          	sd	tp,-480(sp)

0000000080005ddc <i_5782>:
    80005ddc:	e3416983          	lwu	s3,-460(sp)

0000000080005de0 <i_5783>:
    80005de0:	88200413          	li	s0,-1918

0000000080005de4 <i_5784>:
    80005de4:	89100b93          	li	s7,-1903

0000000080005de8 <i_5785>:
    80005de8:	fc611823          	sh	t1,-48(sp)

0000000080005dec <i_5786>:
    80005dec:	026ce233          	rem	tp,s9,t1

0000000080005df0 <i_5787>:
    80005df0:	b7dcbc93          	sltiu	s9,s9,-1155

0000000080005df4 <i_5788>:
    80005df4:	03921463          	bne	tp,s9,80005e1c <i_5798>

0000000080005df8 <i_5789>:
    80005df8:	f7010c83          	lb	s9,-144(sp)

0000000080005dfc <i_5790>:
    80005dfc:	f4413c23          	sd	tp,-168(sp)

0000000080005e00 <i_5791>:
    80005e00:	01600993          	li	s3,22

0000000080005e04 <i_5792>:
    80005e04:	4139d233          	sra	tp,s3,s3

0000000080005e08 <i_5793>:
    80005e08:	00c15d03          	lhu	s10,12(sp)

0000000080005e0c <i_5794>:
    80005e0c:	00000013          	nop

0000000080005e10 <i_5795>:
    80005e10:	01a26663          	bltu	tp,s10,80005e1c <i_5798>

0000000080005e14 <i_5796>:
    80005e14:	419209bb          	subw	s3,tp,s9

0000000080005e18 <i_5797>:
    80005e18:	19221997          	auipc	s3,0x19221

0000000080005e1c <i_5798>:
    80005e1c:	001d1e1b          	slliw	t3,s10,0x1

0000000080005e20 <i_5799>:
    80005e20:	00000013          	nop

0000000080005e24 <i_5800>:
    80005e24:	00140413          	addi	s0,s0,1
    80005e28:	fc8bf0e3          	bleu	s0,s7,80005de8 <i_5785>

0000000080005e2c <i_5801>:
    80005e2c:	013ccc33          	xor	s8,s9,s3

0000000080005e30 <i_5802>:
    80005e30:	05c16603          	lwu	a2,92(sp)

0000000080005e34 <i_5803>:
    80005e34:	01d99a63          	bne	s3,t4,80005e48 <i_5808>

0000000080005e38 <i_5804>:
    80005e38:	09311223          	sh	s3,132(sp)

0000000080005e3c <i_5805>:
    80005e3c:	04c12e03          	lw	t3,76(sp)

0000000080005e40 <i_5806>:
    80005e40:	029cf433          	remu	s0,s9,s1

0000000080005e44 <i_5807>:
    80005e44:	41ce04bb          	subw	s1,t3,t3

0000000080005e48 <i_5808>:
    80005e48:	018876b3          	and	a3,a6,s8

0000000080005e4c <i_5809>:
    80005e4c:	013e5c63          	ble	s3,t3,80005e64 <i_5815>

0000000080005e50 <i_5810>:
    80005e50:	f0910383          	lb	t2,-247(sp)

0000000080005e54 <i_5811>:
    80005e54:	02015583          	lhu	a1,32(sp)

0000000080005e58 <i_5812>:
    80005e58:	01314e63          	blt	sp,s3,80005e74 <i_5819>

0000000080005e5c <i_5813>:
    80005e5c:	4014db9b          	sraiw	s7,s1,0x1

0000000080005e60 <i_5814>:
    80005e60:	02e00213          	li	tp,46

0000000080005e64 <i_5815>:
    80005e64:	4049d433          	sra	s0,s3,tp

0000000080005e68 <i_5816>:
    80005e68:	0d914603          	lbu	a2,217(sp)

0000000080005e6c <i_5817>:
    80005e6c:	00000013          	nop

0000000080005e70 <i_5818>:
    80005e70:	00000013          	nop

0000000080005e74 <i_5819>:
    80005e74:	00c26bb3          	or	s7,tp,a2

0000000080005e78 <i_5820>:
    80005e78:	e5013303          	ld	t1,-432(sp)

0000000080005e7c <i_5821>:
    80005e7c:	77200093          	li	ra,1906

0000000080005e80 <i_5822>:
    80005e80:	78200c13          	li	s8,1922

0000000080005e84 <i_5823>:
    80005e84:	03bdedb3          	rem	s11,s11,s11

0000000080005e88 <i_5824>:
    80005e88:	13713823          	sd	s7,304(sp)

0000000080005e8c <i_5825>:
    80005e8c:	e16ba613          	slti	a2,s7,-490

0000000080005e90 <i_5826>:
    80005e90:	fa013d83          	ld	s11,-96(sp)

0000000080005e94 <i_5827>:
    80005e94:	5fff0793          	addi	a5,t5,1535

0000000080005e98 <i_5828>:
    80005e98:	e4c11e23          	sh	a2,-420(sp)

0000000080005e9c <i_5829>:
    80005e9c:	00108093          	addi	ra,ra,1
    80005ea0:	ff80e2e3          	bltu	ra,s8,80005e84 <i_5823>

0000000080005ea4 <i_5830>:
    80005ea4:	00f32f33          	slt	t5,t1,a5

0000000080005ea8 <i_5831>:
    80005ea8:	00fcd863          	ble	a5,s9,80005eb8 <i_5835>

0000000080005eac <i_5832>:
    80005eac:	01e7ee63          	bltu	a5,t5,80005ec8 <i_5839>

0000000080005eb0 <i_5833>:
    80005eb0:	ecd10ca3          	sb	a3,-295(sp)

0000000080005eb4 <i_5834>:
    80005eb4:	039f7263          	bleu	s9,t5,80005ed8 <i_5843>

0000000080005eb8 <i_5835>:
    80005eb8:	e7b13023          	sd	s11,-416(sp)

0000000080005ebc <i_5836>:
    80005ebc:	18914c83          	lbu	s9,393(sp)

0000000080005ec0 <i_5837>:
    80005ec0:	00d69863          	bne	a3,a3,80005ed0 <i_5841>

0000000080005ec4 <i_5838>:
    80005ec4:	40668cb3          	sub	s9,a3,t1

0000000080005ec8 <i_5839>:
    80005ec8:	001cd593          	srli	a1,s9,0x1

0000000080005ecc <i_5840>:
    80005ecc:	02d5c263          	blt	a1,a3,80005ef0 <i_5849>

0000000080005ed0 <i_5841>:
    80005ed0:	16811a03          	lh	s4,360(sp)

0000000080005ed4 <i_5842>:
    80005ed4:	80fd7d13          	andi	s10,s10,-2033

0000000080005ed8 <i_5843>:
    80005ed8:	eb014683          	lbu	a3,-336(sp)

0000000080005edc <i_5844>:
    80005edc:	02819463          	bne	gp,s0,80005f04 <i_5854>

0000000080005ee0 <i_5845>:
    80005ee0:	ee412383          	lw	t2,-284(sp)

0000000080005ee4 <i_5846>:
    80005ee4:	05416e03          	lwu	t3,84(sp)

0000000080005ee8 <i_5847>:
    80005ee8:	08710923          	sb	t2,146(sp)

0000000080005eec <i_5848>:
    80005eec:	fcd13823          	sd	a3,-48(sp)

0000000080005ef0 <i_5849>:
    80005ef0:	02d00693          	li	a3,45

0000000080005ef4 <i_5850>:
    80005ef4:	40de53b3          	sra	t2,t3,a3

0000000080005ef8 <i_5851>:
    80005ef8:	0073ae33          	slt	t3,t2,t2

0000000080005efc <i_5852>:
    80005efc:	02738463          	beq	t2,t2,80005f24 <i_5862>

0000000080005f00 <i_5853>:
    80005f00:	03ef86bb          	mulw	a3,t6,t5

0000000080005f04 <i_5854>:
    80005f04:	410150b7          	lui	ra,0x41015

0000000080005f08 <i_5855>:
    80005f08:	00000013          	nop

0000000080005f0c <i_5856>:
    80005f0c:	18710123          	sb	t2,386(sp)

0000000080005f10 <i_5857>:
    80005f10:	e8912423          	sw	s1,-376(sp)

0000000080005f14 <i_5858>:
    80005f14:	027f3333          	mulhu	t1,t5,t2

0000000080005f18 <i_5859>:
    80005f18:	f3312c23          	sw	s3,-200(sp)

0000000080005f1c <i_5860>:
    80005f1c:	1cc16803          	lwu	a6,460(sp)

0000000080005f20 <i_5861>:
    80005f20:	02662633          	mulhsu	a2,a2,t1

0000000080005f24 <i_5862>:
    80005f24:	00000013          	nop

0000000080005f28 <i_5863>:
    80005f28:	02c13423          	sd	a2,40(sp)

0000000080005f2c <i_5864>:
    80005f2c:	72b00393          	li	t2,1835

0000000080005f30 <i_5865>:
    80005f30:	73f00f13          	li	t5,1855

0000000080005f34 <i_5866>:
    80005f34:	00138393          	addi	t2,t2,1
    80005f38:	ffe3cee3          	blt	t2,t5,80005f34 <i_5866>

0000000080005f3c <i_5867>:
    80005f3c:	01ee3b33          	sltu	s6,t3,t5

0000000080005f40 <i_5868>:
    80005f40:	01c3e463          	bltu	t2,t3,80005f48 <i_5870>

0000000080005f44 <i_5869>:
    80005f44:	fc813083          	ld	ra,-56(sp)

0000000080005f48 <i_5870>:
    80005f48:	c4196193          	ori	gp,s2,-959

0000000080005f4c <i_5871>:
    80005f4c:	01981e63          	bne	a6,s9,80005f68 <i_5878>

0000000080005f50 <i_5872>:
    80005f50:	001f03b3          	add	t2,t5,ra

0000000080005f54 <i_5873>:
    80005f54:	18013c83          	ld	s9,384(sp)

0000000080005f58 <i_5874>:
    80005f58:	0191a9b3          	slt	s3,gp,s9

0000000080005f5c <i_5875>:
    80005f5c:	e1e14083          	lbu	ra,-482(sp)

0000000080005f60 <i_5876>:
    80005f60:	e7a11183          	lh	gp,-390(sp)

0000000080005f64 <i_5877>:
    80005f64:	1a112223          	sw	ra,420(sp)

0000000080005f68 <i_5878>:
    80005f68:	1be10183          	lb	gp,446(sp)

0000000080005f6c <i_5879>:
    80005f6c:	003980b3          	add	ra,s3,gp

0000000080005f70 <i_5880>:
    80005f70:	401c0c33          	sub	s8,s8,ra

0000000080005f74 <i_5881>:
    80005f74:	14111023          	sh	ra,320(sp)

0000000080005f78 <i_5882>:
    80005f78:	0f313c23          	sd	s3,248(sp)

0000000080005f7c <i_5883>:
    80005f7c:	02319cb3          	mulh	s9,gp,gp

0000000080005f80 <i_5884>:
    80005f80:	07c16183          	lwu	gp,124(sp)

0000000080005f84 <i_5885>:
    80005f84:	fe312c23          	sw	gp,-8(sp)

0000000080005f88 <i_5886>:
    80005f88:	fb114c03          	lbu	s8,-79(sp)

0000000080005f8c <i_5887>:
    80005f8c:	0161f863          	bleu	s6,gp,80005f9c <i_5891>

0000000080005f90 <i_5888>:
    80005f90:	4161e193          	ori	gp,gp,1046

0000000080005f94 <i_5889>:
    80005f94:	0181f463          	bleu	s8,gp,80005f9c <i_5891>

0000000080005f98 <i_5890>:
    80005f98:	f5910aa3          	sb	s9,-171(sp)

0000000080005f9c <i_5891>:
    80005f9c:	08b14c03          	lbu	s8,139(sp)

0000000080005fa0 <i_5892>:
    80005fa0:	e2e11403          	lh	s0,-466(sp)

0000000080005fa4 <i_5893>:
    80005fa4:	0045959b          	slliw	a1,a1,0x4

0000000080005fa8 <i_5894>:
    80005fa8:	e4c11e83          	lh	t4,-436(sp)

0000000080005fac <i_5895>:
    80005fac:	10810ea3          	sb	s0,285(sp)

0000000080005fb0 <i_5896>:
    80005fb0:	e4a15e83          	lhu	t4,-438(sp)

0000000080005fb4 <i_5897>:
    80005fb4:	17b58c1b          	addiw	s8,a1,379

0000000080005fb8 <i_5898>:
    80005fb8:	e5813583          	ld	a1,-424(sp)

0000000080005fbc <i_5899>:
    80005fbc:	c6be8793          	addi	a5,t4,-917

0000000080005fc0 <i_5900>:
    80005fc0:	0387a6b3          	mulhsu	a3,a5,s8

0000000080005fc4 <i_5901>:
    80005fc4:	d735cb13          	xori	s6,a1,-653

0000000080005fc8 <i_5902>:
    80005fc8:	8c900c13          	li	s8,-1847

0000000080005fcc <i_5903>:
    80005fcc:	8d800593          	li	a1,-1832

0000000080005fd0 <i_5904>:
    80005fd0:	00000013          	nop

0000000080005fd4 <i_5905>:
    80005fd4:	f3610323          	sb	s6,-218(sp)

0000000080005fd8 <i_5906>:
    80005fd8:	1b611f03          	lh	t5,438(sp)

0000000080005fdc <i_5907>:
    80005fdc:	02fb57b3          	divu	a5,s6,a5

0000000080005fe0 <i_5908>:
    80005fe0:	01686e63          	bltu	a6,s6,80005ffc <i_5914>

0000000080005fe4 <i_5909>:
    80005fe4:	11612e23          	sw	s6,284(sp)

0000000080005fe8 <i_5910>:
    80005fe8:	02f83833          	mulhu	a6,a6,a5

0000000080005fec <i_5911>:
    80005fec:	001c0c13          	addi	s8,s8,1 # 1025c201 <main-0x6fda3dff>
    80005ff0:	ff85d0e3          	ble	s8,a1,80005fd0 <i_5904>

0000000080005ff4 <i_5912>:
    80005ff4:	00f85863          	ble	a5,a6,80006004 <i_5916>

0000000080005ff8 <i_5913>:
    80005ff8:	01e80463          	beq	a6,t5,80006000 <i_5915>

0000000080005ffc <i_5914>:
    80005ffc:	00f81e63          	bne	a6,a5,80006018 <i_5921>

0000000080006000 <i_5915>:
    80006000:	f7412b03          	lw	s6,-140(sp)

0000000080006004 <i_5916>:
    80006004:	0e415303          	lhu	t1,228(sp)

0000000080006008 <i_5917>:
    80006008:	01032833          	slt	a6,t1,a6

000000008000600c <i_5918>:
    8000600c:	1d013303          	ld	t1,464(sp)

0000000080006010 <i_5919>:
    80006010:	fe610023          	sb	t1,-32(sp)

0000000080006014 <i_5920>:
    80006014:	f0a11303          	lh	t1,-246(sp)

0000000080006018 <i_5921>:
    80006018:	09610d03          	lb	s10,150(sp)

000000008000601c <i_5922>:
    8000601c:	030360bb          	remw	ra,t1,a6

0000000080006020 <i_5923>:
    80006020:	02000193          	li	gp,32

0000000080006024 <i_5924>:
    80006024:	40385833          	sra	a6,a6,gp

0000000080006028 <i_5925>:
    80006028:	76600a13          	li	s4,1894

000000008000602c <i_5926>:
    8000602c:	77000313          	li	t1,1904

0000000080006030 <i_5927>:
    80006030:	00000013          	nop

0000000080006034 <i_5928>:
    80006034:	410383bb          	subw	t2,t2,a6

0000000080006038 <i_5929>:
    80006038:	00000013          	nop

000000008000603c <i_5930>:
    8000603c:	1b416b83          	lwu	s7,436(sp)

0000000080006040 <i_5931>:
    80006040:	1d010223          	sb	a6,452(sp)

0000000080006044 <i_5932>:
    80006044:	00610783          	lb	a5,6(sp)

0000000080006048 <i_5933>:
    80006048:	00300f13          	li	t5,3

000000008000604c <i_5934>:
    8000604c:	41ebde33          	sra	t3,s7,t5

0000000080006050 <i_5935>:
    80006050:	001a0a13          	addi	s4,s4,1
    80006054:	fc6a6ce3          	bltu	s4,t1,8000602c <i_5926>

0000000080006058 <i_5936>:
    80006058:	da0e7c13          	andi	s8,t3,-608

000000008000605c <i_5937>:
    8000605c:	01e7c863          	blt	a5,t5,8000606c <i_5941>

0000000080006060 <i_5938>:
    80006060:	e8816183          	lwu	gp,-376(sp)

0000000080006064 <i_5939>:
    80006064:	038b0b3b          	mulw	s6,s6,s8

0000000080006068 <i_5940>:
    80006068:	fcc12e03          	lw	t3,-52(sp)

000000008000606c <i_5941>:
    8000606c:	ea812083          	lw	ra,-344(sp)

0000000080006070 <i_5942>:
    80006070:	fa110f23          	sb	ra,-66(sp)

0000000080006074 <i_5943>:
    80006074:	1f1c2393          	slti	t2,s8,497

0000000080006078 <i_5944>:
    80006078:	eb813e03          	ld	t3,-328(sp)

000000008000607c <i_5945>:
    8000607c:	03416083          	lwu	ra,52(sp)

0000000080006080 <i_5946>:
    80006080:	0022d49b          	srliw	s1,t0,0x2

0000000080006084 <i_5947>:
    80006084:	0a811123          	sh	s0,162(sp)

0000000080006088 <i_5948>:
    80006088:	09410603          	lb	a2,148(sp)

000000008000608c <i_5949>:
    8000608c:	00923e33          	sltu	t3,tp,s1

0000000080006090 <i_5950>:
    80006090:	eee14b03          	lbu	s6,-274(sp)

0000000080006094 <i_5951>:
    80006094:	fac11583          	lh	a1,-84(sp)

0000000080006098 <i_5952>:
    80006098:	f7a10b03          	lb	s6,-134(sp)

000000008000609c <i_5953>:
    8000609c:	009c4263          	blt	s8,s1,800060a0 <i_5954>

00000000800060a0 <i_5954>:
    800060a0:	023e4b33          	div	s6,t3,gp

00000000800060a4 <i_5955>:
    800060a4:	00be0c63          	beq	t3,a1,800060bc <i_5961>

00000000800060a8 <i_5956>:
    800060a8:	02f00393          	li	t2,47

00000000800060ac <i_5957>:
    800060ac:	00749e33          	sll	t3,s1,t2

00000000800060b0 <i_5958>:
    800060b0:	f8a15503          	lhu	a0,-118(sp)

00000000800060b4 <i_5959>:
    800060b4:	e7c10a03          	lb	s4,-388(sp)

00000000800060b8 <i_5960>:
    800060b8:	1b015383          	lhu	t2,432(sp)

00000000800060bc <i_5961>:
    800060bc:	03f14e03          	lbu	t3,63(sp)

00000000800060c0 <i_5962>:
    800060c0:	00000013          	nop

00000000800060c4 <i_5963>:
    800060c4:	85300613          	li	a2,-1965

00000000800060c8 <i_5964>:
    800060c8:	85f00f13          	li	t5,-1953

00000000800060cc <i_5965>:
    800060cc:	e6013d83          	ld	s11,-416(sp)

00000000800060d0 <i_5966>:
    800060d0:	02c11a23          	sh	a2,52(sp)

00000000800060d4 <i_5967>:
    800060d4:	00000013          	nop

00000000800060d8 <i_5968>:
    800060d8:	07015e83          	lhu	t4,112(sp)

00000000800060dc <i_5969>:
    800060dc:	0be13423          	sd	t5,168(sp)

00000000800060e0 <i_5970>:
    800060e0:	fbe12023          	sw	t5,-96(sp)

00000000800060e4 <i_5971>:
    800060e4:	00000013          	nop

00000000800060e8 <i_5972>:
    800060e8:	00160613          	addi	a2,a2,1
    800060ec:	fecf70e3          	bleu	a2,t5,800060cc <i_5965>

00000000800060f0 <i_5973>:
    800060f0:	eadf6213          	ori	tp,t5,-339

00000000800060f4 <i_5974>:
    800060f4:	00221413          	slli	s0,tp,0x2

00000000800060f8 <i_5975>:
    800060f8:	00000013          	nop

00000000800060fc <i_5976>:
    800060fc:	01300093          	li	ra,19

0000000080006100 <i_5977>:
    80006100:	001b9bb3          	sll	s7,s7,ra

0000000080006104 <i_5978>:
    80006104:	87a00213          	li	tp,-1926

0000000080006108 <i_5979>:
    80006108:	88300d13          	li	s10,-1917

000000008000610c <i_5980>:
    8000610c:	ed012683          	lw	a3,-304(sp)

0000000080006110 <i_5981>:
    80006110:	3ce0eb93          	ori	s7,ra,974

0000000080006114 <i_5982>:
    80006114:	8b500b13          	li	s6,-1867

0000000080006118 <i_5983>:
    80006118:	8c800093          	li	ra,-1848

000000008000611c <i_5984>:
    8000611c:	001b1693          	slli	a3,s6,0x1

0000000080006120 <i_5985>:
    80006120:	18013b83          	ld	s7,384(sp)

0000000080006124 <i_5986>:
    80006124:	001b0b13          	addi	s6,s6,1
    80006128:	fe1b1ae3          	bne	s6,ra,8000611c <i_5984>

000000008000612c <i_5987>:
    8000612c:	01900613          	li	a2,25

0000000080006130 <i_5988>:
    80006130:	00cbdb3b          	srlw	s6,s7,a2

0000000080006134 <i_5989>:
    80006134:	00120213          	addi	tp,tp,1 # 1 <main-0x7fffffff>
    80006138:	fda218e3          	bne	tp,s10,80006108 <i_5979>

000000008000613c <i_5990>:
    8000613c:	00c66c63          	bltu	a2,a2,80006154 <i_5996>

0000000080006140 <i_5991>:
    80006140:	02e6e063          	bltu	a3,a4,80006160 <i_5999>

0000000080006144 <i_5992>:
    80006144:	0386e6b3          	rem	a3,a3,s8

0000000080006148 <i_5993>:
    80006148:	00dfec63          	bltu	t6,a3,80006160 <i_5999>

000000008000614c <i_5994>:
    8000614c:	11c13823          	sd	t3,272(sp)

0000000080006150 <i_5995>:
    80006150:	f5e10c03          	lb	s8,-162(sp)

0000000080006154 <i_5996>:
    80006154:	00d6de63          	ble	a3,a3,80006170 <i_6003>

0000000080006158 <i_5997>:
    80006158:	1dc15c03          	lhu	s8,476(sp)

000000008000615c <i_5998>:
    8000615c:	00d0d463          	ble	a3,ra,80006164 <i_6000>

0000000080006160 <i_5999>:
    80006160:	0210c6bb          	divw	a3,ra,ra

0000000080006164 <i_6000>:
    80006164:	00109693          	slli	a3,ra,0x1

0000000080006168 <i_6001>:
    80006168:	01ad0d33          	add	s10,s10,s10

000000008000616c <i_6002>:
    8000616c:	b18c839b          	addiw	t2,s9,-1256

0000000080006170 <i_6003>:
    80006170:	0026d79b          	srliw	a5,a3,0x2

0000000080006174 <i_6004>:
    80006174:	00000013          	nop

0000000080006178 <i_6005>:
    80006178:	80900a13          	li	s4,-2039

000000008000617c <i_6006>:
    8000617c:	81000093          	li	ra,-2032

0000000080006180 <i_6007>:
    80006180:	f3416603          	lwu	a2,-204(sp)

0000000080006184 <i_6008>:
    80006184:	035617b3          	mulh	a5,a2,s5

0000000080006188 <i_6009>:
    80006188:	001a0a13          	addi	s4,s4,1
    8000618c:	ff40dae3          	ble	s4,ra,80006180 <i_6007>

0000000080006190 <i_6010>:
    80006190:	12f13423          	sd	a5,296(sp)

0000000080006194 <i_6011>:
    80006194:	02f947b3          	div	a5,s2,a5

0000000080006198 <i_6012>:
    80006198:	03978263          	beq	a5,s9,800061bc <i_6021>

000000008000619c <i_6013>:
    8000619c:	13014783          	lbu	a5,304(sp)

00000000800061a0 <i_6014>:
    800061a0:	00f7d663          	ble	a5,a5,800061ac <i_6017>

00000000800061a4 <i_6015>:
    800061a4:	fac12c23          	sw	a2,-72(sp)

00000000800061a8 <i_6016>:
    800061a8:	02c00c93          	li	s9,44

00000000800061ac <i_6017>:
    800061ac:	019657b3          	srl	a5,a2,s9

00000000800061b0 <i_6018>:
    800061b0:	e2e15283          	lhu	t0,-466(sp)

00000000800061b4 <i_6019>:
    800061b4:	ea114083          	lbu	ra,-351(sp)

00000000800061b8 <i_6020>:
    800061b8:	00000013          	nop

00000000800061bc <i_6021>:
    800061bc:	00000013          	nop

00000000800061c0 <i_6022>:
    800061c0:	0ec11d03          	lh	s10,236(sp)

00000000800061c4 <i_6023>:
    800061c4:	74f00613          	li	a2,1871

00000000800061c8 <i_6024>:
    800061c8:	75700793          	li	a5,1879

00000000800061cc <i_6025>:
    800061cc:	402d5d13          	srai	s10,s10,0x2

00000000800061d0 <i_6026>:
    800061d0:	005d6e63          	bltu	s10,t0,800061ec <i_6033>

00000000800061d4 <i_6027>:
    800061d4:	1b412d03          	lw	s10,436(sp)

00000000800061d8 <i_6028>:
    800061d8:	6337c2b7          	lui	t0,0x6337c

00000000800061dc <i_6029>:
    800061dc:	17a13823          	sd	s10,368(sp)

00000000800061e0 <i_6030>:
    800061e0:	03a2d663          	ble	s10,t0,8000620c <i_6040>

00000000800061e4 <i_6031>:
    800061e4:	e2811923          	sh	s0,-462(sp)

00000000800061e8 <i_6032>:
    800061e8:	13816a03          	lwu	s4,312(sp)

00000000800061ec <i_6033>:
    800061ec:	40f484b3          	sub	s1,s1,a5

00000000800061f0 <i_6034>:
    800061f0:	efc16203          	lwu	tp,-260(sp)

00000000800061f4 <i_6035>:
    800061f4:	04812483          	lw	s1,72(sp)

00000000800061f8 <i_6036>:
    800061f8:	00160613          	addi	a2,a2,1
    800061fc:	fcc798e3          	bne	a5,a2,800061cc <i_6025>

0000000080006200 <i_6037>:
    80006200:	01b4a633          	slt	a2,s1,s11

0000000080006204 <i_6038>:
    80006204:	00920863          	beq	tp,s1,80006214 <i_6042>

0000000080006208 <i_6039>:
    80006208:	ed013d83          	ld	s11,-304(sp)

000000008000620c <i_6040>:
    8000620c:	00000013          	nop

0000000080006210 <i_6041>:
    80006210:	0fd14d83          	lbu	s11,253(sp)

0000000080006214 <i_6042>:
    80006214:	00000013          	nop

0000000080006218 <i_6043>:
    80006218:	02c12d83          	lw	s11,44(sp)

000000008000621c <i_6044>:
    8000621c:	84600493          	li	s1,-1978

0000000080006220 <i_6045>:
    80006220:	85400213          	li	tp,-1964

0000000080006224 <i_6046>:
    80006224:	02426db3          	rem	s11,tp,tp

0000000080006228 <i_6047>:
    80006228:	09813c03          	ld	s8,152(sp)

000000008000622c <i_6048>:
    8000622c:	13813423          	sd	s8,296(sp)

0000000080006230 <i_6049>:
    80006230:	01b20863          	beq	tp,s11,80006240 <i_6053>

0000000080006234 <i_6050>:
    80006234:	41b686bb          	subw	a3,a3,s11

0000000080006238 <i_6051>:
    80006238:	e7812d83          	lw	s11,-392(sp)

000000008000623c <i_6052>:
    8000623c:	02ddc063          	blt	s11,a3,8000625c <i_6059>

0000000080006240 <i_6053>:
    80006240:	026966bb          	remw	a3,s2,t1

0000000080006244 <i_6054>:
    80006244:	f7810e23          	sb	s8,-132(sp)

0000000080006248 <i_6055>:
    80006248:	00148493          	addi	s1,s1,1
    8000624c:	fc44cce3          	blt	s1,tp,80006224 <i_6046>

0000000080006250 <i_6056>:
    80006250:	0e514483          	lbu	s1,229(sp)

0000000080006254 <i_6057>:
    80006254:	1ad100a3          	sb	a3,417(sp)

0000000080006258 <i_6058>:
    80006258:	01dd0eb3          	add	t4,s10,t4

000000008000625c <i_6059>:
    8000625c:	a9263613          	sltiu	a2,a2,-1390

0000000080006260 <i_6060>:
    80006260:	40ce863b          	subw	a2,t4,a2

0000000080006264 <i_6061>:
    80006264:	74900693          	li	a3,1865

0000000080006268 <i_6062>:
    80006268:	75c00e13          	li	t3,1884

000000008000626c <i_6063>:
    8000626c:	02c3f333          	remu	t1,t2,a2

0000000080006270 <i_6064>:
    80006270:	0e016603          	lwu	a2,224(sp)

0000000080006274 <i_6065>:
    80006274:	15016503          	lwu	a0,336(sp)

0000000080006278 <i_6066>:
    80006278:	00ce4a63          	blt	t3,a2,8000628c <i_6071>

000000008000627c <i_6067>:
    8000627c:	0016139b          	slliw	t2,a2,0x1

0000000080006280 <i_6068>:
    80006280:	0030d09b          	srliw	ra,ra,0x3

0000000080006284 <i_6069>:
    80006284:	00000013          	nop

0000000080006288 <i_6070>:
    80006288:	00139463          	bne	t2,ra,80006290 <i_6072>

000000008000628c <i_6071>:
    8000628c:	40c602b3          	sub	t0,a2,a2

0000000080006290 <i_6072>:
    80006290:	0250d633          	divu	a2,ra,t0

0000000080006294 <i_6073>:
    80006294:	0110f463          	bleu	a7,ra,8000629c <i_6075>

0000000080006298 <i_6074>:
    80006298:	0252e063          	bltu	t0,t0,800062b8 <i_6081>

000000008000629c <i_6075>:
    8000629c:	00800813          	li	a6,8

00000000800062a0 <i_6076>:
    800062a0:	010095bb          	sllw	a1,ra,a6

00000000800062a4 <i_6077>:
    800062a4:	00168693          	addi	a3,a3,1
    800062a8:	fdc6e2e3          	bltu	a3,t3,8000626c <i_6063>

00000000800062ac <i_6078>:
    800062ac:	0305c263          	blt	a1,a6,800062d0 <i_6087>

00000000800062b0 <i_6079>:
    800062b0:	00c85863          	ble	a2,a6,800062c0 <i_6083>

00000000800062b4 <i_6080>:
    800062b4:	e8e0b693          	sltiu	a3,ra,-370

00000000800062b8 <i_6081>:
    800062b8:	ef412a83          	lw	s5,-268(sp)

00000000800062bc <i_6082>:
    800062bc:	90444a93          	xori	s5,s0,-1788

00000000800062c0 <i_6083>:
    800062c0:	f9812183          	lw	gp,-104(sp)

00000000800062c4 <i_6084>:
    800062c4:	ec410783          	lb	a5,-316(sp)

00000000800062c8 <i_6085>:
    800062c8:	fcf12a23          	sw	a5,-44(sp)

00000000800062cc <i_6086>:
    800062cc:	ec710a83          	lb	s5,-313(sp)

00000000800062d0 <i_6087>:
    800062d0:	18013e03          	ld	t3,384(sp)

00000000800062d4 <i_6088>:
    800062d4:	08412503          	lw	a0,132(sp)

00000000800062d8 <i_6089>:
    800062d8:	8c600093          	li	ra,-1850

00000000800062dc <i_6090>:
    800062dc:	8ce00693          	li	a3,-1842

00000000800062e0 <i_6091>:
    800062e0:	00c12183          	lw	gp,12(sp)

00000000800062e4 <i_6092>:
    800062e4:	00000013          	nop

00000000800062e8 <i_6093>:
    800062e8:	00108093          	addi	ra,ra,1 # 41015001 <main-0x3efeafff>
    800062ec:	fe16dae3          	ble	ra,a3,800062e0 <i_6091>

00000000800062f0 <i_6094>:
    800062f0:	15812683          	lw	a3,344(sp)

00000000800062f4 <i_6095>:
    800062f4:	0111e263          	bltu	gp,a7,800062f8 <i_6096>

00000000800062f8 <i_6096>:
    800062f8:	06a10c03          	lb	s8,106(sp)

00000000800062fc <i_6097>:
    800062fc:	02d7e263          	bltu	a5,a3,80006320 <i_6106>

0000000080006300 <i_6098>:
    80006300:	1b510623          	sb	s5,428(sp)

0000000080006304 <i_6099>:
    80006304:	0031c433          	xor	s0,gp,gp

0000000080006308 <i_6100>:
    80006308:	17210723          	sb	s2,366(sp)

000000008000630c <i_6101>:
    8000630c:	00fc5263          	ble	a5,s8,80006310 <i_6102>

0000000080006310 <i_6102>:
    80006310:	d85af793          	andi	a5,s5,-635

0000000080006314 <i_6103>:
    80006314:	e6a12c23          	sw	a0,-392(sp)

0000000080006318 <i_6104>:
    80006318:	efc12e23          	sw	t3,-260(sp)

000000008000631c <i_6105>:
    8000631c:	00700593          	li	a1,7

0000000080006320 <i_6106>:
    80006320:	00b7d7bb          	srlw	a5,a5,a1

0000000080006324 <i_6107>:
    80006324:	00000013          	nop

0000000080006328 <i_6108>:
    80006328:	002d5813          	srli	a6,s10,0x2

000000008000632c <i_6109>:
    8000632c:	81900e13          	li	t3,-2023

0000000080006330 <i_6110>:
    80006330:	82700e93          	li	t4,-2009

0000000080006334 <i_6111>:
    80006334:	09b10803          	lb	a6,155(sp)

0000000080006338 <i_6112>:
    80006338:	001e0e13          	addi	t3,t3,1
    8000633c:	ffde4ce3          	blt	t3,t4,80006334 <i_6111>

0000000080006340 <i_6113>:
    80006340:	f1816583          	lwu	a1,-232(sp)

0000000080006344 <i_6114>:
    80006344:	4018529b          	sraiw	t0,a6,0x1

0000000080006348 <i_6115>:
    80006348:	02b5debb          	divuw	t4,a1,a1

000000008000634c <i_6116>:
    8000634c:	00b58e33          	add	t3,a1,a1

0000000080006350 <i_6117>:
    80006350:	7115c093          	xori	ra,a1,1809

0000000080006354 <i_6118>:
    80006354:	00013583          	ld	a1,0(sp)

0000000080006358 <i_6119>:
    80006358:	01400593          	li	a1,20

000000008000635c <i_6120>:
    8000635c:	00b85e3b          	srlw	t3,a6,a1

0000000080006360 <i_6121>:
    80006360:	0035909b          	slliw	ra,a1,0x3

0000000080006364 <i_6122>:
    80006364:	01d00a93          	li	s5,29

0000000080006368 <i_6123>:
    80006368:	015595b3          	sll	a1,a1,s5

000000008000636c <i_6124>:
    8000636c:	f0013603          	ld	a2,-256(sp)

0000000080006370 <i_6125>:
    80006370:	0bc14603          	lbu	a2,188(sp)

0000000080006374 <i_6126>:
    80006374:	e8012403          	lw	s0,-384(sp)

0000000080006378 <i_6127>:
    80006378:	10816583          	lwu	a1,264(sp)

000000008000637c <i_6128>:
    8000637c:	00ba9663          	bne	s5,a1,80006388 <i_6131>

0000000080006380 <i_6129>:
    80006380:	038580bb          	mulw	ra,a1,s8

0000000080006384 <i_6130>:
    80006384:	00121093          	slli	ra,tp,0x1

0000000080006388 <i_6131>:
    80006388:	021eba33          	mulhu	s4,t4,ra

000000008000638c <i_6132>:
    8000638c:	f9410123          	sb	s4,-126(sp)

0000000080006390 <i_6133>:
    80006390:	e3714083          	lbu	ra,-457(sp)

0000000080006394 <i_6134>:
    80006394:	01559a63          	bne	a1,s5,800063a8 <i_6139>

0000000080006398 <i_6135>:
    80006398:	00bb00b3          	add	ra,s6,a1

000000008000639c <i_6136>:
    8000639c:	01631e63          	bne	t1,s6,800063b8 <i_6143>

00000000800063a0 <i_6137>:
    800063a0:	e3011e03          	lh	t3,-464(sp)

00000000800063a4 <i_6138>:
    800063a4:	f3511023          	sh	s5,-224(sp)

00000000800063a8 <i_6139>:
    800063a8:	00000013          	nop

00000000800063ac <i_6140>:
    800063ac:	00000013          	nop

00000000800063b0 <i_6141>:
    800063b0:	00000013          	nop

00000000800063b4 <i_6142>:
    800063b4:	0025d09b          	srliw	ra,a1,0x2

00000000800063b8 <i_6143>:
    800063b8:	06816083          	lwu	ra,104(sp)

00000000800063bc <i_6144>:
    800063bc:	5b50c093          	xori	ra,ra,1461

00000000800063c0 <i_6145>:
    800063c0:	7ac00e93          	li	t4,1964

00000000800063c4 <i_6146>:
    800063c4:	7b400593          	li	a1,1972

00000000800063c8 <i_6147>:
    800063c8:	0010e663          	bltu	ra,ra,800063d4 <i_6150>

00000000800063cc <i_6148>:
    800063cc:	e4813c83          	ld	s9,-440(sp)

00000000800063d0 <i_6149>:
    800063d0:	039ce433          	rem	s0,s9,s9

00000000800063d4 <i_6150>:
    800063d4:	e6812803          	lw	a6,-408(sp)

00000000800063d8 <i_6151>:
    800063d8:	f5812403          	lw	s0,-168(sp)

00000000800063dc <i_6152>:
    800063dc:	1cc15603          	lhu	a2,460(sp)

00000000800063e0 <i_6153>:
    800063e0:	401e539b          	sraiw	t2,t3,0x1

00000000800063e4 <i_6154>:
    800063e4:	00160d33          	add	s10,a2,ra

00000000800063e8 <i_6155>:
    800063e8:	ad80bd13          	sltiu	s10,ra,-1320

00000000800063ec <i_6156>:
    800063ec:	fd410683          	lb	a3,-44(sp)

00000000800063f0 <i_6157>:
    800063f0:	039686b3          	mul	a3,a3,s9

00000000800063f4 <i_6158>:
    800063f4:	10811823          	sh	s0,272(sp)

00000000800063f8 <i_6159>:
    800063f8:	001e8e93          	addi	t4,t4,1
    800063fc:	fdd5f6e3          	bleu	t4,a1,800063c8 <i_6147>

0000000080006400 <i_6160>:
    80006400:	00d0f663          	bleu	a3,ra,8000640c <i_6163>

0000000080006404 <i_6161>:
    80006404:	03a09263          	bne	ra,s10,80006428 <i_6170>

0000000080006408 <i_6162>:
    80006408:	12813023          	sd	s0,288(sp)

000000008000640c <i_6163>:
    8000640c:	00369693          	slli	a3,a3,0x3

0000000080006410 <i_6164>:
    80006410:	0210b0b3          	mulhu	ra,ra,ra

0000000080006414 <i_6165>:
    80006414:	1c457993          	andi	s3,a0,452

0000000080006418 <i_6166>:
    80006418:	02e7cd33          	div	s10,a5,a4

000000008000641c <i_6167>:
    8000641c:	00000013          	nop

0000000080006420 <i_6168>:
    80006420:	14013983          	ld	s3,320(sp)

0000000080006424 <i_6169>:
    80006424:	e8012d03          	lw	s10,-384(sp)

0000000080006428 <i_6170>:
    80006428:	02a513b3          	mulh	t2,a0,a0

000000008000642c <i_6171>:
    8000642c:	e5312623          	sw	s3,-436(sp)

0000000080006430 <i_6172>:
    80006430:	85c00413          	li	s0,-1956

0000000080006434 <i_6173>:
    80006434:	86600513          	li	a0,-1946

0000000080006438 <i_6174>:
    80006438:	027d79b3          	remu	s3,s10,t2

000000008000643c <i_6175>:
    8000643c:	216d3593          	sltiu	a1,s10,534

0000000080006440 <i_6176>:
    80006440:	027d6063          	bltu	s10,t2,80006460 <i_6183>

0000000080006444 <i_6177>:
    80006444:	0139de63          	ble	s3,s3,80006460 <i_6183>

0000000080006448 <i_6178>:
    80006448:	00140413          	addi	s0,s0,1
    8000644c:	fe8576e3          	bleu	s0,a0,80006438 <i_6174>

0000000080006450 <i_6179>:
    80006450:	03a991b3          	mulh	gp,s3,s10

0000000080006454 <i_6180>:
    80006454:	fdd14603          	lbu	a2,-35(sp)

0000000080006458 <i_6181>:
    80006458:	00000013          	nop

000000008000645c <i_6182>:
    8000645c:	f4a10603          	lb	a2,-182(sp)

0000000080006460 <i_6183>:
    80006460:	15415803          	lhu	a6,340(sp)

0000000080006464 <i_6184>:
    80006464:	00000013          	nop

0000000080006468 <i_6185>:
    80006468:	81400193          	li	gp,-2028

000000008000646c <i_6186>:
    8000646c:	81c00993          	li	s3,-2020

0000000080006470 <i_6187>:
    80006470:	0c213c23          	sd	sp,216(sp)

0000000080006474 <i_6188>:
    80006474:	01061863          	bne	a2,a6,80006484 <i_6192>

0000000080006478 <i_6189>:
    80006478:	405282b3          	sub	t0,t0,t0

000000008000647c <i_6190>:
    8000647c:	e6813023          	sd	s0,-416(sp)

0000000080006480 <i_6191>:
    80006480:	f3412203          	lw	tp,-204(sp)

0000000080006484 <i_6192>:
    80006484:	ecc10f23          	sb	a2,-290(sp)

0000000080006488 <i_6193>:
    80006488:	0b411803          	lh	a6,180(sp)

000000008000648c <i_6194>:
    8000648c:	0244f4b3          	remu	s1,s1,tp

0000000080006490 <i_6195>:
    80006490:	e7013f03          	ld	t5,-400(sp)

0000000080006494 <i_6196>:
    80006494:	efc15e83          	lhu	t4,-260(sp)

0000000080006498 <i_6197>:
    80006498:	00982d33          	slt	s10,a6,s1

000000008000649c <i_6198>:
    8000649c:	01a64e63          	blt	a2,s10,800064b8 <i_6204>

00000000800064a0 <i_6199>:
    800064a0:	00118193          	addi	gp,gp,1
    800064a4:	fd3196e3          	bne	gp,s3,80006470 <i_6187>

00000000800064a8 <i_6200>:
    800064a8:	d74f079b          	addiw	a5,t5,-652

00000000800064ac <i_6201>:
    800064ac:	00321c9b          	slliw	s9,tp,0x3

00000000800064b0 <i_6202>:
    800064b0:	ffd10f23          	sb	t4,-2(sp)

00000000800064b4 <i_6203>:
    800064b4:	0042ed33          	or	s10,t0,tp

00000000800064b8 <i_6204>:
    800064b8:	00900f13          	li	t5,9

00000000800064bc <i_6205>:
    800064bc:	01e999bb          	sllw	s3,s3,t5

00000000800064c0 <i_6206>:
    800064c0:	03db5463          	ble	t4,s6,800064e8 <i_6216>

00000000800064c4 <i_6207>:
    800064c4:	1354b513          	sltiu	a0,s1,309

00000000800064c8 <i_6208>:
    800064c8:	02800f13          	li	t5,40

00000000800064cc <i_6209>:
    800064cc:	41e55b33          	sra	s6,a0,t5

00000000800064d0 <i_6210>:
    800064d0:	00000013          	nop

00000000800064d4 <i_6211>:
    800064d4:	f1e12e23          	sw	t5,-228(sp)

00000000800064d8 <i_6212>:
    800064d8:	00000013          	nop

00000000800064dc <i_6213>:
    800064dc:	15211f03          	lh	t5,338(sp)

00000000800064e0 <i_6214>:
    800064e0:	0339f433          	remu	s0,s3,s3

00000000800064e4 <i_6215>:
    800064e4:	f1813a83          	ld	s5,-232(sp)

00000000800064e8 <i_6216>:
    800064e8:	03e9ccbb          	divw	s9,s3,t5

00000000800064ec <i_6217>:
    800064ec:	01200093          	li	ra,18

00000000800064f0 <i_6218>:
    800064f0:	401f5cbb          	sraw	s9,t5,ra

00000000800064f4 <i_6219>:
    800064f4:	74300b13          	li	s6,1859

00000000800064f8 <i_6220>:
    800064f8:	75100993          	li	s3,1873

00000000800064fc <i_6221>:
    800064fc:	019cfcb3          	and	s9,s9,s9

0000000080006500 <i_6222>:
    80006500:	00800e93          	li	t4,8

0000000080006504 <i_6223>:
    80006504:	01de9ebb          	sllw	t4,t4,t4

0000000080006508 <i_6224>:
    80006508:	0302c663          	blt	t0,a6,80006534 <i_6234>

000000008000650c <i_6225>:
    8000650c:	1b011723          	sh	a6,430(sp)

0000000080006510 <i_6226>:
    80006510:	001b0b13          	addi	s6,s6,1
    80006514:	ff3b62e3          	bltu	s6,s3,800064f8 <i_6220>

0000000080006518 <i_6227>:
    80006518:	03dcf263          	bleu	t4,s9,8000653c <i_6236>

000000008000651c <i_6228>:
    8000651c:	021cda3b          	divuw	s4,s9,ra

0000000080006520 <i_6229>:
    80006520:	14111c23          	sh	ra,344(sp)

0000000080006524 <i_6230>:
    80006524:	03dccf33          	div	t5,s9,t4

0000000080006528 <i_6231>:
    80006528:	010c9e63          	bne	s9,a6,80006544 <i_6238>

000000008000652c <i_6232>:
    8000652c:	0f411e23          	sh	s4,252(sp)

0000000080006530 <i_6233>:
    80006530:	4046da1b          	sraiw	s4,a3,0x4

0000000080006534 <i_6234>:
    80006534:	f6dd15b7          	lui	a1,0xf6dd1

0000000080006538 <i_6235>:
    80006538:	e3e13023          	sd	t5,-480(sp)

000000008000653c <i_6236>:
    8000653c:	e6514183          	lbu	gp,-411(sp)

0000000080006540 <i_6237>:
    80006540:	01e5cf33          	xor	t5,a1,t5

0000000080006544 <i_6238>:
    80006544:	ee313c23          	sd	gp,-264(sp)

0000000080006548 <i_6239>:
    80006548:	0d010a83          	lb	s5,208(sp)

000000008000654c <i_6240>:
    8000654c:	f8658593          	addi	a1,a1,-122 # fffffffff6dd0f86 <_end+0xffffffff76dc0b72>

0000000080006550 <i_6241>:
    80006550:	e6013a03          	ld	s4,-416(sp)

0000000080006554 <i_6242>:
    80006554:	83100193          	li	gp,-1999

0000000080006558 <i_6243>:
    80006558:	83500c93          	li	s9,-1995

000000008000655c <i_6244>:
    8000655c:	18813783          	ld	a5,392(sp)

0000000080006560 <i_6245>:
    80006560:	e4f13c23          	sd	a5,-424(sp)

0000000080006564 <i_6246>:
    80006564:	0045d493          	srli	s1,a1,0x4

0000000080006568 <i_6247>:
    80006568:	02b7c663          	blt	a5,a1,80006594 <i_6257>

000000008000656c <i_6248>:
    8000656c:	02b4f5bb          	remuw	a1,s1,a1

0000000080006570 <i_6249>:
    80006570:	00118193          	addi	gp,gp,1
    80006574:	ff9194e3          	bne	gp,s9,8000655c <i_6244>

0000000080006578 <i_6250>:
    80006578:	0095ea63          	bltu	a1,s1,8000658c <i_6255>

000000008000657c <i_6251>:
    8000657c:	1d415483          	lhu	s1,468(sp)

0000000080006580 <i_6252>:
    80006580:	e8614383          	lbu	t2,-378(sp)

0000000080006584 <i_6253>:
    80006584:	0079e663          	bltu	s3,t2,80006590 <i_6256>

0000000080006588 <i_6254>:
    80006588:	ee812383          	lw	t2,-280(sp)

000000008000658c <i_6255>:
    8000658c:	f6f10383          	lb	t2,-145(sp)

0000000080006590 <i_6256>:
    80006590:	0254f063          	bleu	t0,s1,800065b0 <i_6264>

0000000080006594 <i_6257>:
    80006594:	10713c23          	sd	t2,280(sp)

0000000080006598 <i_6258>:
    80006598:	00910da3          	sb	s1,27(sp)

000000008000659c <i_6259>:
    8000659c:	fe712c23          	sw	t2,-8(sp)

00000000800065a0 <i_6260>:
    800065a0:	0231e1b3          	rem	gp,gp,gp

00000000800065a4 <i_6261>:
    800065a4:	02948bb3          	mul	s7,s1,s1

00000000800065a8 <i_6262>:
    800065a8:	003c44b3          	xor	s1,s8,gp

00000000800065ac <i_6263>:
    800065ac:	005bf993          	andi	s3,s7,5

00000000800065b0 <i_6264>:
    800065b0:	00b4cbb3          	xor	s7,s1,a1

00000000800065b4 <i_6265>:
    800065b4:	0f710c23          	sb	s7,248(sp)

00000000800065b8 <i_6266>:
    800065b8:	83e00193          	li	gp,-1986

00000000800065bc <i_6267>:
    800065bc:	84600493          	li	s1,-1978

00000000800065c0 <i_6268>:
    800065c0:	00800a13          	li	s4,8

00000000800065c4 <i_6269>:
    800065c4:	414bdbb3          	sra	s7,s7,s4

00000000800065c8 <i_6270>:
    800065c8:	62248a13          	addi	s4,s1,1570

00000000800065cc <i_6271>:
    800065cc:	4039df1b          	sraiw	t5,s3,0x3

00000000800065d0 <i_6272>:
    800065d0:	11313423          	sd	s3,264(sp)

00000000800065d4 <i_6273>:
    800065d4:	0134ee63          	bltu	s1,s3,800065f0 <i_6279>

00000000800065d8 <i_6274>:
    800065d8:	413f0833          	sub	a6,t5,s3

00000000800065dc <i_6275>:
    800065dc:	021fdbb3          	divu	s7,t6,ra

00000000800065e0 <i_6276>:
    800065e0:	00118193          	addi	gp,gp,1
    800065e4:	fc34fee3          	bleu	gp,s1,800065c0 <i_6268>

00000000800065e8 <i_6277>:
    800065e8:	18911d23          	sh	s1,410(sp)

00000000800065ec <i_6278>:
    800065ec:	00100593          	li	a1,1

00000000800065f0 <i_6279>:
    800065f0:	00b694bb          	sllw	s1,a3,a1

00000000800065f4 <i_6280>:
    800065f4:	ecb107a3          	sb	a1,-305(sp)

00000000800065f8 <i_6281>:
    800065f8:	0d310623          	sb	s3,204(sp)

00000000800065fc <i_6282>:
    800065fc:	00000013          	nop

0000000080006600 <i_6283>:
    80006600:	0ab11223          	sh	a1,164(sp)

0000000080006604 <i_6284>:
    80006604:	81200f13          	li	t5,-2030

0000000080006608 <i_6285>:
    80006608:	82000613          	li	a2,-2016

000000008000660c <i_6286>:
    8000660c:	9e11a193          	slti	gp,gp,-1567

0000000080006610 <i_6287>:
    80006610:	00b805b3          	add	a1,a6,a1

0000000080006614 <i_6288>:
    80006614:	0c312423          	sw	gp,200(sp)

0000000080006618 <i_6289>:
    80006618:	0231f33b          	remuw	t1,gp,gp

000000008000661c <i_6290>:
    8000661c:	ff813583          	ld	a1,-8(sp)

0000000080006620 <i_6291>:
    80006620:	eeb11223          	sh	a1,-284(sp)

0000000080006624 <i_6292>:
    80006624:	001f0f13          	addi	t5,t5,1
    80006628:	fecf62e3          	bltu	t5,a2,8000660c <i_6286>

000000008000662c <i_6293>:
    8000662c:	03d355bb          	divuw	a1,t1,t4

0000000080006630 <i_6294>:
    80006630:	e9411583          	lh	a1,-364(sp)

0000000080006634 <i_6295>:
    80006634:	0eb13c23          	sd	a1,248(sp)

0000000080006638 <i_6296>:
    80006638:	00134863          	blt	t1,ra,80006648 <i_6300>

000000008000663c <i_6297>:
    8000663c:	0023131b          	slliw	t1,t1,0x2

0000000080006640 <i_6298>:
    80006640:	00b5c463          	blt	a1,a1,80006648 <i_6300>

0000000080006644 <i_6299>:
    80006644:	00b35e63          	ble	a1,t1,80006660 <i_6306>

0000000080006648 <i_6300>:
    80006648:	02bceb33          	rem	s6,s9,a1

000000008000664c <i_6301>:
    8000664c:	00500e13          	li	t3,5

0000000080006650 <i_6302>:
    80006650:	01c595bb          	sllw	a1,a1,t3

0000000080006654 <i_6303>:
    80006654:	026e1463          	bne	t3,t1,8000667c <i_6313>

0000000080006658 <i_6304>:
    80006658:	ee813283          	ld	t0,-280(sp)

000000008000665c <i_6305>:
    8000665c:	03259263          	bne	a1,s2,80006680 <i_6314>

0000000080006660 <i_6306>:
    80006660:	00435313          	srli	t1,t1,0x4

0000000080006664 <i_6307>:
    80006664:	00231493          	slli	s1,t1,0x2

0000000080006668 <i_6308>:
    80006668:	ee412d03          	lw	s10,-284(sp)

000000008000666c <i_6309>:
    8000666c:	00db86b3          	add	a3,s7,a3

0000000080006670 <i_6310>:
    80006670:	02999263          	bne	s3,s1,80006694 <i_6319>

0000000080006674 <i_6311>:
    80006674:	2eb7c293          	xori	t0,a5,747

0000000080006678 <i_6312>:
    80006678:	033489b3          	mul	s3,s1,s3

000000008000667c <i_6313>:
    8000667c:	00998863          	beq	s3,s1,8000668c <i_6317>

0000000080006680 <i_6314>:
    80006680:	f9514a03          	lbu	s4,-107(sp)

0000000080006684 <i_6315>:
    80006684:	0342c463          	blt	t0,s4,800066ac <i_6325>

0000000080006688 <i_6316>:
    80006688:	0032951b          	slliw	a0,t0,0x3

000000008000668c <i_6317>:
    8000668c:	014a7663          	bleu	s4,s4,80006698 <i_6320>

0000000080006690 <i_6318>:
    80006690:	e6813b03          	ld	s6,-408(sp)

0000000080006694 <i_6319>:
    80006694:	fda15a03          	lhu	s4,-38(sp)

0000000080006698 <i_6320>:
    80006698:	016a0a63          	beq	s4,s6,800066ac <i_6325>

000000008000669c <i_6321>:
    8000669c:	15013f03          	ld	t5,336(sp)

00000000800066a0 <i_6322>:
    800066a0:	0c016583          	lwu	a1,192(sp)

00000000800066a4 <i_6323>:
    800066a4:	fd610023          	sb	s6,-64(sp)

00000000800066a8 <i_6324>:
    800066a8:	03e5e463          	bltu	a1,t5,800066d0 <i_6334>

00000000800066ac <i_6325>:
    800066ac:	f8012303          	lw	t1,-128(sp)

00000000800066b0 <i_6326>:
    800066b0:	1aa15583          	lhu	a1,426(sp)

00000000800066b4 <i_6327>:
    800066b4:	08c12083          	lw	ra,140(sp)

00000000800066b8 <i_6328>:
    800066b8:	e2414b83          	lbu	s7,-476(sp)

00000000800066bc <i_6329>:
    800066bc:	016b62b3          	or	t0,s6,s6

00000000800066c0 <i_6330>:
    800066c0:	401b81bb          	subw	gp,s7,ra

00000000800066c4 <i_6331>:
    800066c4:	18613423          	sd	t1,392(sp)

00000000800066c8 <i_6332>:
    800066c8:	03000a13          	li	s4,48

00000000800066cc <i_6333>:
    800066cc:	4145d2b3          	sra	t0,a1,s4

00000000800066d0 <i_6334>:
    800066d0:	1c410083          	lb	ra,452(sp)

00000000800066d4 <i_6335>:
    800066d4:	00000013          	nop

00000000800066d8 <i_6336>:
    800066d8:	75300393          	li	t2,1875

00000000800066dc <i_6337>:
    800066dc:	76200b13          	li	s6,1890

00000000800066e0 <i_6338>:
    800066e0:	00c15c03          	lhu	s8,12(sp)

00000000800066e4 <i_6339>:
    800066e4:	0210e2bb          	remw	t0,ra,ra

00000000800066e8 <i_6340>:
    800066e8:	00138393          	addi	t2,t2,1
    800066ec:	ff63cae3          	blt	t2,s6,800066e0 <i_6338>

00000000800066f0 <i_6341>:
    800066f0:	06113423          	sd	ra,104(sp)

00000000800066f4 <i_6342>:
    800066f4:	00d8e317          	auipc	t1,0xd8e

00000000800066f8 <i_6343>:
    800066f8:	02b19463          	bne	gp,a1,80006720 <i_6353>

00000000800066fc <i_6344>:
    800066fc:	e9813303          	ld	t1,-360(sp)

0000000080006700 <i_6345>:
    80006700:	05611283          	lh	t0,86(sp)

0000000080006704 <i_6346>:
    80006704:	00000013          	nop

0000000080006708 <i_6347>:
    80006708:	00000013          	nop

000000008000670c <i_6348>:
    8000670c:	00000013          	nop

0000000080006710 <i_6349>:
    80006710:	401286bb          	subw	a3,t0,ra

0000000080006714 <i_6350>:
    80006714:	07e15503          	lhu	a0,126(sp)

0000000080006718 <i_6351>:
    80006718:	02b6fd33          	remu	s10,a3,a1

000000008000671c <i_6352>:
    8000671c:	15c16083          	lwu	ra,348(sp)

0000000080006720 <i_6353>:
    80006720:	00000013          	nop

0000000080006724 <i_6354>:
    80006724:	021b7b3b          	remuw	s6,s6,ra

0000000080006728 <i_6355>:
    80006728:	7b400993          	li	s3,1972

000000008000672c <i_6356>:
    8000672c:	7c100213          	li	tp,1985

0000000080006730 <i_6357>:
    80006730:	e2713c23          	sd	t2,-456(sp)

0000000080006734 <i_6358>:
    80006734:	021b5663          	ble	ra,s6,80006760 <i_6368>

0000000080006738 <i_6359>:
    80006738:	e1813683          	ld	a3,-488(sp)

000000008000673c <i_6360>:
    8000673c:	02113423          	sd	ra,40(sp)

0000000080006740 <i_6361>:
    80006740:	e0c0c597          	auipc	a1,0xe0c0c

0000000080006744 <i_6362>:
    80006744:	01e00d13          	li	s10,30

0000000080006748 <i_6363>:
    80006748:	01a292bb          	sllw	t0,t0,s10

000000008000674c <i_6364>:
    8000674c:	00198993          	addi	s3,s3,1 # 99226e19 <_end+0x19216a05>
    80006750:	ff3270e3          	bleu	s3,tp,80006730 <i_6357>

0000000080006754 <i_6365>:
    80006754:	00bb7e63          	bleu	a1,s6,80006770 <i_6372>

0000000080006758 <i_6366>:
    80006758:	e3a15d03          	lhu	s10,-454(sp)

000000008000675c <i_6367>:
    8000675c:	ea512a23          	sw	t0,-332(sp)

0000000080006760 <i_6368>:
    80006760:	e41d3793          	sltiu	a5,s10,-447

0000000080006764 <i_6369>:
    80006764:	e932a293          	slti	t0,t0,-365

0000000080006768 <i_6370>:
    80006768:	41a2823b          	subw	tp,t0,s10

000000008000676c <i_6371>:
    8000676c:	005d0d33          	add	s10,s10,t0

0000000080006770 <i_6372>:
    80006770:	02527463          	bleu	t0,tp,80006798 <i_6382>

0000000080006774 <i_6373>:
    80006774:	0242e2bb          	remw	t0,t0,tp

0000000080006778 <i_6374>:
    80006778:	024d3233          	mulhu	tp,s10,tp

000000008000677c <i_6375>:
    8000677c:	004d5a63          	ble	tp,s10,80006790 <i_6380>

0000000080006780 <i_6376>:
    80006780:	0fc10b83          	lb	s7,252(sp)

0000000080006784 <i_6377>:
    80006784:	f4012203          	lw	tp,-192(sp)

0000000080006788 <i_6378>:
    80006788:	4b026d13          	ori	s10,tp,1200

000000008000678c <i_6379>:
    8000678c:	002b9213          	slli	tp,s7,0x2

0000000080006790 <i_6380>:
    80006790:	e3a11b03          	lh	s6,-454(sp)

0000000080006794 <i_6381>:
    80006794:	01ad4e63          	blt	s10,s10,800067b0 <i_6388>

0000000080006798 <i_6382>:
    80006798:	004b4d33          	xor	s10,s6,tp

000000008000679c <i_6383>:
    8000679c:	06412d03          	lw	s10,100(sp)

00000000800067a0 <i_6384>:
    800067a0:	401b5b13          	srai	s6,s6,0x1

00000000800067a4 <i_6385>:
    800067a4:	01ad1c63          	bne	s10,s10,800067bc <i_6391>

00000000800067a8 <i_6386>:
    800067a8:	03a66d3b          	remw	s10,a2,s10

00000000800067ac <i_6387>:
    800067ac:	ea411e23          	sh	tp,-324(sp)

00000000800067b0 <i_6388>:
    800067b0:	16b10b03          	lb	s6,363(sp)

00000000800067b4 <i_6389>:
    800067b4:	f6912823          	sw	s1,-144(sp)

00000000800067b8 <i_6390>:
    800067b8:	00000013          	nop

00000000800067bc <i_6391>:
    800067bc:	0166ec33          	or	s8,a3,s6

00000000800067c0 <i_6392>:
    800067c0:	00000013          	nop

00000000800067c4 <i_6393>:
    800067c4:	82900493          	li	s1,-2007

00000000800067c8 <i_6394>:
    800067c8:	83c00313          	li	t1,-1988

00000000800067cc <i_6395>:
    800067cc:	416585bb          	subw	a1,a1,s6

00000000800067d0 <i_6396>:
    800067d0:	01a5ac33          	slt	s8,a1,s10

00000000800067d4 <i_6397>:
    800067d4:	00148493          	addi	s1,s1,1
    800067d8:	fe64eae3          	bltu	s1,t1,800067cc <i_6395>

00000000800067dc <i_6398>:
    800067dc:	13a10923          	sb	s10,306(sp)

00000000800067e0 <i_6399>:
    800067e0:	01ab0863          	beq	s6,s10,800067f0 <i_6403>

00000000800067e4 <i_6400>:
    800067e4:	06813d03          	ld	s10,104(sp)

00000000800067e8 <i_6401>:
    800067e8:	08d14e03          	lbu	t3,141(sp)

00000000800067ec <i_6402>:
    800067ec:	efc100a3          	sb	t3,-287(sp)

00000000800067f0 <i_6403>:
    800067f0:	0df14d03          	lbu	s10,223(sp)

00000000800067f4 <i_6404>:
    800067f4:	1664b7b7          	lui	a5,0x1664b

00000000800067f8 <i_6405>:
    800067f8:	402cdd93          	srai	s11,s9,0x2

00000000800067fc <i_6406>:
    800067fc:	01c7e463          	bltu	a5,t3,80006804 <i_6408>

0000000080006800 <i_6407>:
    80006800:	02fde7bb          	remw	a5,s11,a5

0000000080006804 <i_6408>:
    80006804:	edc14b03          	lbu	s6,-292(sp)

0000000080006808 <i_6409>:
    80006808:	00a1c263          	blt	gp,a0,8000680c <i_6410>

000000008000680c <i_6410>:
    8000680c:	02a7f263          	bleu	a0,a5,80006830 <i_6419>

0000000080006810 <i_6411>:
    80006810:	0165b533          	sltu	a0,a1,s6

0000000080006814 <i_6412>:
    80006814:	03614463          	blt	sp,s6,8000683c <i_6422>

0000000080006818 <i_6413>:
    80006818:	036501b3          	mul	gp,a0,s6

000000008000681c <i_6414>:
    8000681c:	eef10503          	lb	a0,-273(sp)

0000000080006820 <i_6415>:
    80006820:	00a51663          	bne	a0,a0,8000682c <i_6418>

0000000080006824 <i_6416>:
    80006824:	08a12a23          	sw	a0,148(sp)

0000000080006828 <i_6417>:
    80006828:	02a1d463          	ble	a0,gp,80006850 <i_6427>

000000008000682c <i_6418>:
    8000682c:	4771e6b7          	lui	a3,0x4771e

0000000080006830 <i_6419>:
    80006830:	f5813183          	ld	gp,-168(sp)

0000000080006834 <i_6420>:
    80006834:	1ed11423          	sh	a3,488(sp)

0000000080006838 <i_6421>:
    80006838:	14b14183          	lbu	gp,331(sp)

000000008000683c <i_6422>:
    8000683c:	00a54a63          	blt	a0,a0,80006850 <i_6427>

0000000080006840 <i_6423>:
    80006840:	0ca13023          	sd	a0,192(sp)

0000000080006844 <i_6424>:
    80006844:	fca13c23          	sd	a0,-40(sp)

0000000080006848 <i_6425>:
    80006848:	00d50f33          	add	t5,a0,a3

000000008000684c <i_6426>:
    8000684c:	f936c513          	xori	a0,a3,-109

0000000080006850 <i_6427>:
    80006850:	02d57f33          	remu	t5,a0,a3

0000000080006854 <i_6428>:
    80006854:	02acd263          	ble	a0,s9,80006878 <i_6437>

0000000080006858 <i_6429>:
    80006858:	99486d13          	ori	s10,a6,-1644

000000008000685c <i_6430>:
    8000685c:	04813f03          	ld	t5,72(sp)

0000000080006860 <i_6431>:
    80006860:	01e69663          	bne	a3,t5,8000686c <i_6434>

0000000080006864 <i_6432>:
    80006864:	02bd5463          	ble	a1,s10,8000688c <i_6442>

0000000080006868 <i_6433>:
    80006868:	19412623          	sw	s4,396(sp)

000000008000686c <i_6434>:
    8000686c:	f3a11a23          	sh	s10,-204(sp)

0000000080006870 <i_6435>:
    80006870:	41ad0e3b          	subw	t3,s10,s10

0000000080006874 <i_6436>:
    80006874:	1aa15d03          	lhu	s10,426(sp)

0000000080006878 <i_6437>:
    80006878:	00000013          	nop

000000008000687c <i_6438>:
    8000687c:	00000013          	nop

0000000080006880 <i_6439>:
    80006880:	00000013          	nop

0000000080006884 <i_6440>:
    80006884:	04b101a3          	sb	a1,67(sp)

0000000080006888 <i_6441>:
    80006888:	41ba8db3          	sub	s11,s5,s11

000000008000688c <i_6442>:
    8000688c:	00000013          	nop

0000000080006890 <i_6443>:
    80006890:	00000013          	nop

0000000080006894 <i_6444>:
    80006894:	79a00593          	li	a1,1946

0000000080006898 <i_6445>:
    80006898:	7ad00a93          	li	s5,1965

000000008000689c <i_6446>:
    8000689c:	03b39e33          	mulh	t3,t2,s11

00000000800068a0 <i_6447>:
    800068a0:	00000013          	nop

00000000800068a4 <i_6448>:
    800068a4:	07c10623          	sb	t3,108(sp)

00000000800068a8 <i_6449>:
    800068a8:	09b12c23          	sw	s11,152(sp)

00000000800068ac <i_6450>:
    800068ac:	028e7e33          	remu	t3,t3,s0

00000000800068b0 <i_6451>:
    800068b0:	00158593          	addi	a1,a1,1 # 60c12741 <main-0x1f3ed8bf>
    800068b4:	ff55c4e3          	blt	a1,s5,8000689c <i_6446>

00000000800068b8 <i_6452>:
    800068b8:	f5c16803          	lwu	a6,-164(sp)

00000000800068bc <i_6453>:
    800068bc:	004db233          	sltu	tp,s11,tp

00000000800068c0 <i_6454>:
    800068c0:	004d0263          	beq	s10,tp,800068c4 <i_6455>

00000000800068c4 <i_6455>:
    800068c4:	01e00213          	li	tp,30

00000000800068c8 <i_6456>:
    800068c8:	00421d33          	sll	s10,tp,tp

00000000800068cc <i_6457>:
    800068cc:	0c412823          	sw	tp,208(sp)

00000000800068d0 <i_6458>:
    800068d0:	f30106a3          	sb	a6,-211(sp)

00000000800068d4 <i_6459>:
    800068d4:	12c12203          	lw	tp,300(sp)

00000000800068d8 <i_6460>:
    800068d8:	03920cbb          	mulw	s9,tp,s9

00000000800068dc <i_6461>:
    800068dc:	2ddc7213          	andi	tp,s8,733

00000000800068e0 <i_6462>:
    800068e0:	0f013483          	ld	s1,240(sp)

00000000800068e4 <i_6463>:
    800068e4:	0d913c23          	sd	s9,216(sp)

00000000800068e8 <i_6464>:
    800068e8:	f2412403          	lw	s0,-220(sp)

00000000800068ec <i_6465>:
    800068ec:	0024141b          	slliw	s0,s0,0x2

00000000800068f0 <i_6466>:
    800068f0:	8ce00c93          	li	s9,-1842

00000000800068f4 <i_6467>:
    800068f4:	8dd00c13          	li	s8,-1827

00000000800068f8 <i_6468>:
    800068f8:	001c8c93          	addi	s9,s9,1 # 3db8c8d1 <main-0x4247372f>
    800068fc:	ff9c5ee3          	ble	s9,s8,800068f8 <i_6468>

0000000080006900 <i_6469>:
    80006900:	e2912023          	sw	s1,-480(sp)

0000000080006904 <i_6470>:
    80006904:	035ca4b3          	mulhsu	s1,s9,s5

0000000080006908 <i_6471>:
    80006908:	00847c63          	bleu	s0,s0,80006920 <i_6477>

000000008000690c <i_6472>:
    8000690c:	018cde63          	ble	s8,s9,80006928 <i_6479>

0000000080006910 <i_6473>:
    80006910:	e3ec8313          	addi	t1,s9,-450

0000000080006914 <i_6474>:
    80006914:	0284ccbb          	divw	s9,s1,s0

0000000080006918 <i_6475>:
    80006918:	0024d613          	srli	a2,s1,0x2

000000008000691c <i_6476>:
    8000691c:	03760bb3          	mul	s7,a2,s7

0000000080006920 <i_6477>:
    80006920:	0197c663          	blt	a5,s9,8000692c <i_6480>

0000000080006924 <i_6478>:
    80006924:	f01c8c93          	addi	s9,s9,-255

0000000080006928 <i_6479>:
    80006928:	008635b3          	sltu	a1,a2,s0

000000008000692c <i_6480>:
    8000692c:	bc35f193          	andi	gp,a1,-1085

0000000080006930 <i_6481>:
    80006930:	f2813583          	ld	a1,-216(sp)

0000000080006934 <i_6482>:
    80006934:	f8b12823          	sw	a1,-112(sp)

0000000080006938 <i_6483>:
    80006938:	02b6d5bb          	divuw	a1,a3,a1

000000008000693c <i_6484>:
    8000693c:	00358663          	beq	a1,gp,80006948 <i_6487>

0000000080006940 <i_6485>:
    80006940:	04013e83          	ld	t4,64(sp)

0000000080006944 <i_6486>:
    80006944:	02b5a633          	mulhsu	a2,a1,a1

0000000080006948 <i_6487>:
    80006948:	f4012b83          	lw	s7,-192(sp)

000000008000694c <i_6488>:
    8000694c:	0b711223          	sh	s7,164(sp)

0000000080006950 <i_6489>:
    80006950:	0d614c03          	lbu	s8,214(sp)

0000000080006954 <i_6490>:
    80006954:	83900593          	li	a1,-1991

0000000080006958 <i_6491>:
    80006958:	84700b93          	li	s7,-1977

000000008000695c <i_6492>:
    8000695c:	418b82bb          	subw	t0,s7,s8

0000000080006960 <i_6493>:
    80006960:	00158593          	addi	a1,a1,1
    80006964:	ff75ece3          	bltu	a1,s7,8000695c <i_6492>

0000000080006968 <i_6494>:
    80006968:	01d00b93          	li	s7,29

000000008000696c <i_6495>:
    8000696c:	01759dbb          	sllw	s11,a1,s7

0000000080006970 <i_6496>:
    80006970:	e4110a03          	lb	s4,-447(sp)

0000000080006974 <i_6497>:
    80006974:	0b413423          	sd	s4,168(sp)

0000000080006978 <i_6498>:
    80006978:	ffd14b83          	lbu	s7,-3(sp)

000000008000697c <i_6499>:
    8000697c:	f0013603          	ld	a2,-256(sp)

0000000080006980 <i_6500>:
    80006980:	1bc10583          	lb	a1,444(sp)

0000000080006984 <i_6501>:
    80006984:	02df3ab3          	mulhu	s5,t5,a3

0000000080006988 <i_6502>:
    80006988:	87100693          	li	a3,-1935

000000008000698c <i_6503>:
    8000698c:	87d00f13          	li	t5,-1923

0000000080006990 <i_6504>:
    80006990:	00d5f863          	bleu	a3,a1,800069a0 <i_6508>

0000000080006994 <i_6505>:
    80006994:	00000013          	nop

0000000080006998 <i_6506>:
    80006998:	f7412803          	lw	a6,-140(sp)

000000008000699c <i_6507>:
    8000699c:	e4d13023          	sd	a3,-448(sp)

00000000800069a0 <i_6508>:
    800069a0:	02400b93          	li	s7,36

00000000800069a4 <i_6509>:
    800069a4:	01789833          	sll	a6,a7,s7

00000000800069a8 <i_6510>:
    800069a8:	0305abb3          	mulhsu	s7,a1,a6

00000000800069ac <i_6511>:
    800069ac:	01ea8e33          	add	t3,s5,t5

00000000800069b0 <i_6512>:
    800069b0:	0155fbb3          	and	s7,a1,s5

00000000800069b4 <i_6513>:
    800069b4:	09712023          	sw	s7,128(sp)

00000000800069b8 <i_6514>:
    800069b8:	00168693          	addi	a3,a3,1 # 4771e001 <main-0x388e1fff>
    800069bc:	fcdf7ae3          	bleu	a3,t5,80006990 <i_6504>

00000000800069c0 <i_6515>:
    800069c0:	00000013          	nop

00000000800069c4 <i_6516>:
    800069c4:	415e8f3b          	subw	t5,t4,s5

00000000800069c8 <i_6517>:
    800069c8:	01081e63          	bne	a6,a6,800069e4 <i_6524>

00000000800069cc <i_6518>:
    800069cc:	013f5863          	ble	s3,t5,800069dc <i_6522>

00000000800069d0 <i_6519>:
    800069d0:	035b0263          	beq	s6,s5,800069f4 <i_6528>

00000000800069d4 <i_6520>:
    800069d4:	002e0a63          	beq	t3,sp,800069e8 <i_6525>

00000000800069d8 <i_6521>:
    800069d8:	f7c16283          	lwu	t0,-132(sp)

00000000800069dc <i_6522>:
    800069dc:	01813a03          	ld	s4,24(sp)

00000000800069e0 <i_6523>:
    800069e0:	402e5a13          	srai	s4,t3,0x2

00000000800069e4 <i_6524>:
    800069e4:	01eade63          	ble	t5,s5,80006a00 <i_6531>

00000000800069e8 <i_6525>:
    800069e8:	03ebf063          	bleu	t5,s7,80006a08 <i_6533>

00000000800069ec <i_6526>:
    800069ec:	02558a33          	mul	s4,a1,t0

00000000800069f0 <i_6527>:
    800069f0:	03e00813          	li	a6,62

00000000800069f4 <i_6528>:
    800069f4:	01029833          	sll	a6,t0,a6

00000000800069f8 <i_6529>:
    800069f8:	f5112c23          	sw	a7,-168(sp)

00000000800069fc <i_6530>:
    800069fc:	0185f463          	bleu	s8,a1,80006a04 <i_6532>

0000000080006a00 <i_6531>:
    80006a00:	034eceb3          	div	t4,t4,s4

0000000080006a04 <i_6532>:
    80006a04:	dc586593          	ori	a1,a6,-571

0000000080006a08 <i_6533>:
    80006a08:	0105ca63          	blt	a1,a6,80006a1c <i_6538>

0000000080006a0c <i_6534>:
    80006a0c:	1cc12803          	lw	a6,460(sp)

0000000080006a10 <i_6535>:
    80006a10:	03082833          	mulhsu	a6,a6,a6

0000000080006a14 <i_6536>:
    80006a14:	c3ffb597          	auipc	a1,0xc3ffb

0000000080006a18 <i_6537>:
    80006a18:	09814803          	lbu	a6,152(sp)

0000000080006a1c <i_6538>:
    80006a1c:	030ba3b3          	mulhsu	t2,s7,a6

0000000080006a20 <i_6539>:
    80006a20:	0b214283          	lbu	t0,178(sp)

0000000080006a24 <i_6540>:
    80006a24:	eea5f793          	andi	a5,a1,-278

0000000080006a28 <i_6541>:
    80006a28:	f7e10603          	lb	a2,-130(sp)

0000000080006a2c <i_6542>:
    80006a2c:	15c11383          	lh	t2,348(sp)

0000000080006a30 <i_6543>:
    80006a30:	002b9793          	slli	a5,s7,0x2

0000000080006a34 <i_6544>:
    80006a34:	00b00993          	li	s3,11

0000000080006a38 <i_6545>:
    80006a38:	01365cbb          	srlw	s9,a2,s3

0000000080006a3c <i_6546>:
    80006a3c:	01986863          	bltu	a6,s9,80006a4c <i_6550>

0000000080006a40 <i_6547>:
    80006a40:	f8816583          	lwu	a1,-120(sp)

0000000080006a44 <i_6548>:
    80006a44:	00c79463          	bne	a5,a2,80006a4c <i_6550>

0000000080006a48 <i_6549>:
    80006a48:	e7415583          	lhu	a1,-396(sp)

0000000080006a4c <i_6550>:
    80006a4c:	e2f10e23          	sb	a5,-452(sp)

0000000080006a50 <i_6551>:
    80006a50:	030865bb          	remw	a1,a6,a6

0000000080006a54 <i_6552>:
    80006a54:	02b9d263          	ble	a1,s3,80006a78 <i_6561>

0000000080006a58 <i_6553>:
    80006a58:	ed010423          	sb	a6,-312(sp)

0000000080006a5c <i_6554>:
    80006a5c:	18615d03          	lhu	s10,390(sp)

0000000080006a60 <i_6555>:
    80006a60:	01ad4263          	blt	s10,s10,80006a64 <i_6556>

0000000080006a64 <i_6556>:
    80006a64:	f8b12c23          	sw	a1,-104(sp)

0000000080006a68 <i_6557>:
    80006a68:	fec12023          	sw	a2,-32(sp)

0000000080006a6c <i_6558>:
    80006a6c:	f19100a3          	sb	s9,-255(sp)

0000000080006a70 <i_6559>:
    80006a70:	fb811c83          	lh	s9,-72(sp)

0000000080006a74 <i_6560>:
    80006a74:	e8a15c83          	lhu	s9,-374(sp)

0000000080006a78 <i_6561>:
    80006a78:	01ad2cb3          	slt	s9,s10,s10

0000000080006a7c <i_6562>:
    80006a7c:	fec12c83          	lw	s9,-20(sp)

0000000080006a80 <i_6563>:
    80006a80:	e3714a83          	lbu	s5,-457(sp)

0000000080006a84 <i_6564>:
    80006a84:	cc4c8d1b          	addiw	s10,s9,-828

0000000080006a88 <i_6565>:
    80006a88:	401adc93          	srai	s9,s5,0x1

0000000080006a8c <i_6566>:
    80006a8c:	01a13423          	sd	s10,8(sp)

0000000080006a90 <i_6567>:
    80006a90:	03a13823          	sd	s10,48(sp)

0000000080006a94 <i_6568>:
    80006a94:	01ad6ab3          	or	s5,s10,s10

0000000080006a98 <i_6569>:
    80006a98:	06816d03          	lwu	s10,104(sp)

0000000080006a9c <i_6570>:
    80006a9c:	03a6fd33          	remu	s10,a3,s10

0000000080006aa0 <i_6571>:
    80006aa0:	73f00693          	li	a3,1855

0000000080006aa4 <i_6572>:
    80006aa4:	74800c93          	li	s9,1864

0000000080006aa8 <i_6573>:
    80006aa8:	00168693          	addi	a3,a3,1
    80006aac:	fedcfee3          	bleu	a3,s9,80006aa8 <i_6573>

0000000080006ab0 <i_6574>:
    80006ab0:	00dc8a63          	beq	s9,a3,80006ac4 <i_6579>

0000000080006ab4 <i_6575>:
    80006ab4:	17415e83          	lhu	t4,372(sp)

0000000080006ab8 <i_6576>:
    80006ab8:	01ae8a63          	beq	t4,s10,80006acc <i_6581>

0000000080006abc <i_6577>:
    80006abc:	039cd463          	ble	s9,s9,80006ae4 <i_6587>

0000000080006ac0 <i_6578>:
    80006ac0:	03de9263          	bne	t4,t4,80006ae4 <i_6587>

0000000080006ac4 <i_6579>:
    80006ac4:	00d686b3          	add	a3,a3,a3

0000000080006ac8 <i_6580>:
    80006ac8:	0ac14503          	lbu	a0,172(sp)

0000000080006acc <i_6581>:
    80006acc:	efc12e83          	lw	t4,-260(sp)

0000000080006ad0 <i_6582>:
    80006ad0:	e0468693          	addi	a3,a3,-508

0000000080006ad4 <i_6583>:
    80006ad4:	01d00e13          	li	t3,29

0000000080006ad8 <i_6584>:
    80006ad8:	41c6d9b3          	sra	s3,a3,t3

0000000080006adc <i_6585>:
    80006adc:	029da3b3          	mulhsu	t2,s11,s1

0000000080006ae0 <i_6586>:
    80006ae0:	e5c11e23          	sh	t3,-420(sp)

0000000080006ae4 <i_6587>:
    80006ae4:	a639bd13          	sltiu	s10,s3,-1437

0000000080006ae8 <i_6588>:
    80006ae8:	00a54633          	xor	a2,a0,a0

0000000080006aec <i_6589>:
    80006aec:	89f00c93          	li	s9,-1889

0000000080006af0 <i_6590>:
    80006af0:	8b000213          	li	tp,-1872

0000000080006af4 <i_6591>:
    80006af4:	ff813983          	ld	s3,-8(sp)

0000000080006af8 <i_6592>:
    80006af8:	c72d6293          	ori	t0,s10,-910

0000000080006afc <i_6593>:
    80006afc:	43b125b7          	lui	a1,0x43b12

0000000080006b00 <i_6594>:
    80006b00:	12f10ba3          	sb	a5,311(sp)

0000000080006b04 <i_6595>:
    80006b04:	89b0809b          	addiw	ra,ra,-1893

0000000080006b08 <i_6596>:
    80006b08:	001d0d33          	add	s10,s10,ra

0000000080006b0c <i_6597>:
    80006b0c:	021595b3          	mulh	a1,a1,ra

0000000080006b10 <i_6598>:
    80006b10:	001c8c93          	addi	s9,s9,1
    80006b14:	fe4c90e3          	bne	s9,tp,80006af4 <i_6591>

0000000080006b18 <i_6599>:
    80006b18:	e2110a23          	sb	ra,-460(sp)

0000000080006b1c <i_6600>:
    80006b1c:	01a4f0b3          	and	ra,s1,s10

0000000080006b20 <i_6601>:
    80006b20:	00714d03          	lbu	s10,7(sp)

0000000080006b24 <i_6602>:
    80006b24:	ea113423          	sd	ra,-344(sp)

0000000080006b28 <i_6603>:
    80006b28:	001d4863          	blt	s10,ra,80006b38 <i_6607>

0000000080006b2c <i_6604>:
    80006b2c:	ece15283          	lhu	t0,-306(sp)

0000000080006b30 <i_6605>:
    80006b30:	1a814983          	lbu	s3,424(sp)

0000000080006b34 <i_6606>:
    80006b34:	01a0ca63          	blt	ra,s10,80006b48 <i_6611>

0000000080006b38 <i_6607>:
    80006b38:	021d4263          	blt	s10,ra,80006b5c <i_6616>

0000000080006b3c <i_6608>:
    80006b3c:	5b07cd13          	xori	s10,a5,1456

0000000080006b40 <i_6609>:
    80006b40:	036b1b33          	mulh	s6,s6,s6

0000000080006b44 <i_6610>:
    80006b44:	05a11e03          	lh	t3,90(sp)

0000000080006b48 <i_6611>:
    80006b48:	02e00b13          	li	s6,46

0000000080006b4c <i_6612>:
    80006b4c:	016196b3          	sll	a3,gp,s6

0000000080006b50 <i_6613>:
    80006b50:	0231e1b3          	rem	gp,gp,gp

0000000080006b54 <i_6614>:
    80006b54:	402184bb          	subw	s1,gp,sp

0000000080006b58 <i_6615>:
    80006b58:	a381f193          	andi	gp,gp,-1480

0000000080006b5c <i_6616>:
    80006b5c:	00318863          	beq	gp,gp,80006b6c <i_6620>

0000000080006b60 <i_6617>:
    80006b60:	15b14c03          	lbu	s8,347(sp)

0000000080006b64 <i_6618>:
    80006b64:	11013d83          	ld	s11,272(sp)

0000000080006b68 <i_6619>:
    80006b68:	f9b10623          	sb	s11,-116(sp)

0000000080006b6c <i_6620>:
    80006b6c:	00000013          	nop

0000000080006b70 <i_6621>:
    80006b70:	be218513          	addi	a0,gp,-1054

0000000080006b74 <i_6622>:
    80006b74:	7d700193          	li	gp,2007

0000000080006b78 <i_6623>:
    80006b78:	7df00c93          	li	s9,2015

0000000080006b7c <i_6624>:
    80006b7c:	02356263          	bltu	a0,gp,80006ba0 <i_6632>

0000000080006b80 <i_6625>:
    80006b80:	03bc8463          	beq	s9,s11,80006ba8 <i_6634>

0000000080006b84 <i_6626>:
    80006b84:	003c9c63          	bne	s9,gp,80006b9c <i_6631>

0000000080006b88 <i_6627>:
    80006b88:	0141f2b3          	and	t0,gp,s4

0000000080006b8c <i_6628>:
    80006b8c:	00118193          	addi	gp,gp,1
    80006b90:	ff91e6e3          	bltu	gp,s9,80006b7c <i_6624>

0000000080006b94 <i_6629>:
    80006b94:	00d4dc63          	ble	a3,s1,80006bac <i_6635>

0000000080006b98 <i_6630>:
    80006b98:	00200493          	li	s1,2

0000000080006b9c <i_6631>:
    80006b9c:	4091d1bb          	sraw	gp,gp,s1

0000000080006ba0 <i_6632>:
    80006ba0:	0044d793          	srli	a5,s1,0x4

0000000080006ba4 <i_6633>:
    80006ba4:	004a979b          	slliw	a5,s5,0x4

0000000080006ba8 <i_6634>:
    80006ba8:	eea5b197          	auipc	gp,0xeea5b

0000000080006bac <i_6635>:
    80006bac:	00f1e663          	bltu	gp,a5,80006bb8 <i_6638>

0000000080006bb0 <i_6636>:
    80006bb0:	0a513c23          	sd	t0,184(sp)

0000000080006bb4 <i_6637>:
    80006bb4:	09e14383          	lbu	t2,158(sp)

0000000080006bb8 <i_6638>:
    80006bb8:	409207b3          	sub	a5,tp,s1

0000000080006bbc <i_6639>:
    80006bbc:	e9312223          	sw	s3,-380(sp)

0000000080006bc0 <i_6640>:
    80006bc0:	4034de13          	srai	t3,s1,0x3

0000000080006bc4 <i_6641>:
    80006bc4:	00f2ce63          	blt	t0,a5,80006be0 <i_6648>

0000000080006bc8 <i_6642>:
    80006bc8:	ec911023          	sh	s1,-320(sp)

0000000080006bcc <i_6643>:
    80006bcc:	1b013383          	ld	t2,432(sp)

0000000080006bd0 <i_6644>:
    80006bd0:	00949863          	bne	s1,s1,80006be0 <i_6648>

0000000080006bd4 <i_6645>:
    80006bd4:	05a15e83          	lhu	t4,90(sp)

0000000080006bd8 <i_6646>:
    80006bd8:	16811403          	lh	s0,360(sp)

0000000080006bdc <i_6647>:
    80006bdc:	0311e063          	bltu	gp,a7,80006bfc <i_6655>

0000000080006be0 <i_6648>:
    80006be0:	02345463          	ble	gp,s0,80006c08 <i_6658>

0000000080006be4 <i_6649>:
    80006be4:	40928333          	sub	t1,t0,s1

0000000080006be8 <i_6650>:
    80006be8:	09411e03          	lh	t3,148(sp)

0000000080006bec <i_6651>:
    80006bec:	fba11023          	sh	s10,-96(sp)

0000000080006bf0 <i_6652>:
    80006bf0:	ef110a83          	lb	s5,-271(sp)

0000000080006bf4 <i_6653>:
    80006bf4:	025e13b3          	mulh	t2,t3,t0

0000000080006bf8 <i_6654>:
    80006bf8:	00b46263          	bltu	s0,a1,80006bfc <i_6655>

0000000080006bfc <i_6655>:
    80006bfc:	e8611383          	lh	t2,-378(sp)

0000000080006c00 <i_6656>:
    80006c00:	029e7833          	remu	a6,t3,s1

0000000080006c04 <i_6657>:
    80006c04:	4013dc93          	srai	s9,t2,0x1

0000000080006c08 <i_6658>:
    80006c08:	04016083          	lwu	ra,64(sp)

0000000080006c0c <i_6659>:
    80006c0c:	03ccce3b          	divw	t3,s9,t3

0000000080006c10 <i_6660>:
    80006c10:	13310203          	lb	tp,307(sp)

0000000080006c14 <i_6661>:
    80006c14:	02125063          	ble	ra,tp,80006c34 <i_6669>

0000000080006c18 <i_6662>:
    80006c18:	0bd13c23          	sd	t4,184(sp)

0000000080006c1c <i_6663>:
    80006c1c:	0380af33          	mulhsu	t5,ra,s8

0000000080006c20 <i_6664>:
    80006c20:	0b913823          	sd	s9,176(sp)

0000000080006c24 <i_6665>:
    80006c24:	df0fcd93          	xori	s11,t6,-528

0000000080006c28 <i_6666>:
    80006c28:	fbb10423          	sb	s11,-88(sp)

0000000080006c2c <i_6667>:
    80006c2c:	004e7c63          	bleu	tp,t3,80006c44 <i_6673>

0000000080006c30 <i_6668>:
    80006c30:	0042509b          	srliw	ra,tp,0x4

0000000080006c34 <i_6669>:
    80006c34:	00b00613          	li	a2,11

0000000080006c38 <i_6670>:
    80006c38:	00cc9633          	sll	a2,s9,a2

0000000080006c3c <i_6671>:
    80006c3c:	b2963d13          	sltiu	s10,a2,-1239

0000000080006c40 <i_6672>:
    80006c40:	00c67433          	and	s0,a2,a2

0000000080006c44 <i_6673>:
    80006c44:	fc813683          	ld	a3,-56(sp)

0000000080006c48 <i_6674>:
    80006c48:	06d12423          	sw	a3,104(sp)

0000000080006c4c <i_6675>:
    80006c4c:	88e00a13          	li	s4,-1906

0000000080006c50 <i_6676>:
    80006c50:	89100993          	li	s3,-1903

0000000080006c54 <i_6677>:
    80006c54:	00000013          	nop

0000000080006c58 <i_6678>:
    80006c58:	17a10223          	sb	s10,356(sp)

0000000080006c5c <i_6679>:
    80006c5c:	07412283          	lw	t0,116(sp)

0000000080006c60 <i_6680>:
    80006c60:	10013d03          	ld	s10,256(sp)

0000000080006c64 <i_6681>:
    80006c64:	031e8333          	mul	t1,t4,a7

0000000080006c68 <i_6682>:
    80006c68:	03366263          	bltu	a2,s3,80006c8c <i_6690>

0000000080006c6c <i_6683>:
    80006c6c:	03428eb3          	mul	t4,t0,s4

0000000080006c70 <i_6684>:
    80006c70:	001a0a13          	addi	s4,s4,1
    80006c74:	ff3a40e3          	blt	s4,s3,80006c54 <i_6677>

0000000080006c78 <i_6685>:
    80006c78:	00000013          	nop

0000000080006c7c <i_6686>:
    80006c7c:	f9812a03          	lw	s4,-104(sp)

0000000080006c80 <i_6687>:
    80006c80:	119106a3          	sb	s9,269(sp)

0000000080006c84 <i_6688>:
    80006c84:	01decc63          	blt	t4,t4,80006c9c <i_6694>

0000000080006c88 <i_6689>:
    80006c88:	026ef063          	bleu	t1,t4,80006ca8 <i_6697>

0000000080006c8c <i_6690>:
    80006c8c:	026a6a3b          	remw	s4,s4,t1

0000000080006c90 <i_6691>:
    80006c90:	ee812e83          	lw	t4,-280(sp)

0000000080006c94 <i_6692>:
    80006c94:	01431863          	bne	t1,s4,80006ca4 <i_6696>

0000000080006c98 <i_6693>:
    80006c98:	014a1e63          	bne	s4,s4,80006cb4 <i_6700>

0000000080006c9c <i_6694>:
    80006c9c:	00e00693          	li	a3,14

0000000080006ca0 <i_6695>:
    80006ca0:	00da1333          	sll	t1,s4,a3

0000000080006ca4 <i_6696>:
    80006ca4:	010e7a33          	and	s4,t3,a6

0000000080006ca8 <i_6697>:
    80006ca8:	06811d03          	lh	s10,104(sp)

0000000080006cac <i_6698>:
    80006cac:	035acabb          	divw	s5,s5,s5

0000000080006cb0 <i_6699>:
    80006cb0:	f0d10ba3          	sb	a3,-233(sp)

0000000080006cb4 <i_6700>:
    80006cb4:	0d810d03          	lb	s10,216(sp)

0000000080006cb8 <i_6701>:
    80006cb8:	02da563b          	divuw	a2,s4,a3

0000000080006cbc <i_6702>:
    80006cbc:	eba13423          	sd	s10,-344(sp)

0000000080006cc0 <i_6703>:
    80006cc0:	414a0dbb          	subw	s11,s4,s4

0000000080006cc4 <i_6704>:
    80006cc4:	05710683          	lb	a3,87(sp)

0000000080006cc8 <i_6705>:
    80006cc8:	eed13823          	sd	a3,-272(sp)

0000000080006ccc <i_6706>:
    80006ccc:	01032a33          	slt	s4,t1,a6

0000000080006cd0 <i_6707>:
    80006cd0:	faa10a03          	lb	s4,-86(sp)

0000000080006cd4 <i_6708>:
    80006cd4:	ea015683          	lhu	a3,-352(sp)

0000000080006cd8 <i_6709>:
    80006cd8:	00000013          	nop

0000000080006cdc <i_6710>:
    80006cdc:	8bc00d13          	li	s10,-1860

0000000080006ce0 <i_6711>:
    80006ce0:	8c400c13          	li	s8,-1852

0000000080006ce4 <i_6712>:
    80006ce4:	ebe11a83          	lh	s5,-322(sp)

0000000080006ce8 <i_6713>:
    80006ce8:	e4612423          	sw	t1,-440(sp)

0000000080006cec <i_6714>:
    80006cec:	8ac00b13          	li	s6,-1876

0000000080006cf0 <i_6715>:
    80006cf0:	8b800313          	li	t1,-1864

0000000080006cf4 <i_6716>:
    80006cf4:	f1f10683          	lb	a3,-225(sp)

0000000080006cf8 <i_6717>:
    80006cf8:	0d813683          	ld	a3,216(sp)

0000000080006cfc <i_6718>:
    80006cfc:	0ad10a23          	sb	a3,180(sp)

0000000080006d00 <i_6719>:
    80006d00:	00269e1b          	slliw	t3,a3,0x2

0000000080006d04 <i_6720>:
    80006d04:	001b0b13          	addi	s6,s6,1
    80006d08:	fe6b66e3          	bltu	s6,t1,80006cf4 <i_6716>

0000000080006d0c <i_6721>:
    80006d0c:	40135a9b          	sraiw	s5,t1,0x1

0000000080006d10 <i_6722>:
    80006d10:	08a11a83          	lh	s5,138(sp)

0000000080006d14 <i_6723>:
    80006d14:	0359d9bb          	divuw	s3,s3,s5

0000000080006d18 <i_6724>:
    80006d18:	02435a3b          	divuw	s4,t1,tp

0000000080006d1c <i_6725>:
    80006d1c:	41c30b3b          	subw	s6,t1,t3

0000000080006d20 <i_6726>:
    80006d20:	00000013          	nop

0000000080006d24 <i_6727>:
    80006d24:	001d0d13          	addi	s10,s10,1 # 178cbb89 <main-0x68734477>
    80006d28:	fb8d6ee3          	bltu	s10,s8,80006ce4 <i_6712>

0000000080006d2c <i_6728>:
    80006d2c:	0ae11303          	lh	t1,174(sp)

0000000080006d30 <i_6729>:
    80006d30:	0f615603          	lhu	a2,246(sp)

0000000080006d34 <i_6730>:
    80006d34:	4010d09b          	sraiw	ra,ra,0x1

0000000080006d38 <i_6731>:
    80006d38:	10011c03          	lh	s8,256(sp)

0000000080006d3c <i_6732>:
    80006d3c:	10613c23          	sd	t1,280(sp)

0000000080006d40 <i_6733>:
    80006d40:	f7013c83          	ld	s9,-144(sp)

0000000080006d44 <i_6734>:
    80006d44:	af5e6e13          	ori	t3,t3,-1291

0000000080006d48 <i_6735>:
    80006d48:	016e0e33          	add	t3,t3,s6

0000000080006d4c <i_6736>:
    80006d4c:	14c16683          	lwu	a3,332(sp)

0000000080006d50 <i_6737>:
    80006d50:	e8812783          	lw	a5,-376(sp)

0000000080006d54 <i_6738>:
    80006d54:	00d7ee63          	bltu	a5,a3,80006d70 <i_6745>

0000000080006d58 <i_6739>:
    80006d58:	ebc15783          	lhu	a5,-324(sp)

0000000080006d5c <i_6740>:
    80006d5c:	0035569b          	srliw	a3,a0,0x3

0000000080006d60 <i_6741>:
    80006d60:	785db793          	sltiu	a5,s11,1925

0000000080006d64 <i_6742>:
    80006d64:	00ff0263          	beq	t5,a5,80006d68 <i_6743>

0000000080006d68 <i_6743>:
    80006d68:	eef11623          	sh	a5,-276(sp)

0000000080006d6c <i_6744>:
    80006d6c:	02f7ee33          	rem	t3,a5,a5

0000000080006d70 <i_6745>:
    80006d70:	0e813483          	ld	s1,232(sp)

0000000080006d74 <i_6746>:
    80006d74:	e8510683          	lb	a3,-379(sp)

0000000080006d78 <i_6747>:
    80006d78:	00f7e863          	bltu	a5,a5,80006d88 <i_6751>

0000000080006d7c <i_6748>:
    80006d7c:	01c7f463          	bleu	t3,a5,80006d84 <i_6750>

0000000080006d80 <i_6749>:
    80006d80:	05813f03          	ld	t5,88(sp)

0000000080006d84 <i_6750>:
    80006d84:	f70106a3          	sb	a6,-147(sp)

0000000080006d88 <i_6751>:
    80006d88:	01600493          	li	s1,22

0000000080006d8c <i_6752>:
    80006d8c:	009795bb          	sllw	a1,a5,s1

0000000080006d90 <i_6753>:
    80006d90:	07415f03          	lhu	t5,116(sp)

0000000080006d94 <i_6754>:
    80006d94:	e9c10fa3          	sb	t3,-353(sp)

0000000080006d98 <i_6755>:
    80006d98:	0037cc63          	blt	a5,gp,80006db0 <i_6761>

0000000080006d9c <i_6756>:
    80006d9c:	00f6ec63          	bltu	a3,a5,80006db4 <i_6762>

0000000080006da0 <i_6757>:
    80006da0:	e8c16c03          	lwu	s8,-372(sp)

0000000080006da4 <i_6758>:
    80006da4:	6ae6fc13          	andi	s8,a3,1710

0000000080006da8 <i_6759>:
    80006da8:	17d10183          	lb	gp,381(sp)

0000000080006dac <i_6760>:
    80006dac:	00013783          	ld	a5,0(sp)

0000000080006db0 <i_6761>:
    80006db0:	12310d83          	lb	s11,291(sp)

0000000080006db4 <i_6762>:
    80006db4:	02f7d7bb          	divuw	a5,a5,a5

0000000080006db8 <i_6763>:
    80006db8:	00c7ea63          	bltu	a5,a2,80006dcc <i_6768>

0000000080006dbc <i_6764>:
    80006dbc:	00f3cdb3          	xor	s11,t2,a5

0000000080006dc0 <i_6765>:
    80006dc0:	019dccb3          	xor	s9,s11,s9

0000000080006dc4 <i_6766>:
    80006dc4:	11a7b193          	sltiu	gp,a5,282

0000000080006dc8 <i_6767>:
    80006dc8:	017ddc63          	ble	s7,s11,80006de0 <i_6773>

0000000080006dcc <i_6768>:
    80006dcc:	003df463          	bleu	gp,s11,80006dd4 <i_6770>

0000000080006dd0 <i_6769>:
    80006dd0:	039cebbb          	remw	s7,s9,s9

0000000080006dd4 <i_6770>:
    80006dd4:	03dbfeb3          	remu	t4,s7,t4

0000000080006dd8 <i_6771>:
    80006dd8:	fb013c83          	ld	s9,-80(sp)

0000000080006ddc <i_6772>:
    80006ddc:	011bde63          	ble	a7,s7,80006df8 <i_6779>

0000000080006de0 <i_6773>:
    80006de0:	e20bab13          	slti	s6,s7,-480

0000000080006de4 <i_6774>:
    80006de4:	01dff863          	bleu	t4,t6,80006df4 <i_6778>

0000000080006de8 <i_6775>:
    80006de8:	07012d03          	lw	s10,112(sp)

0000000080006dec <i_6776>:
    80006dec:	00000013          	nop

0000000080006df0 <i_6777>:
    80006df0:	12012603          	lw	a2,288(sp)

0000000080006df4 <i_6778>:
    80006df4:	00ed66b3          	or	a3,s10,a4

0000000080006df8 <i_6779>:
    80006df8:	2c4d6693          	ori	a3,s10,708

0000000080006dfc <i_6780>:
    80006dfc:	ea714383          	lbu	t2,-345(sp)

0000000080006e00 <i_6781>:
    80006e00:	82300d93          	li	s11,-2013

0000000080006e04 <i_6782>:
    80006e04:	83600093          	li	ra,-1994

0000000080006e08 <i_6783>:
    80006e08:	00710523          	sb	t2,10(sp)

0000000080006e0c <i_6784>:
    80006e0c:	00600993          	li	s3,6

0000000080006e10 <i_6785>:
    80006e10:	0133963b          	sllw	a2,t2,s3

0000000080006e14 <i_6786>:
    80006e14:	86700b93          	li	s7,-1945

0000000080006e18 <i_6787>:
    80006e18:	87400d13          	li	s10,-1932

0000000080006e1c <i_6788>:
    80006e1c:	001b8b93          	addi	s7,s7,1
    80006e20:	ffabece3          	bltu	s7,s10,80006e18 <i_6787>

0000000080006e24 <i_6789>:
    80006e24:	12c10a03          	lb	s4,300(sp)

0000000080006e28 <i_6790>:
    80006e28:	03900293          	li	t0,57

0000000080006e2c <i_6791>:
    80006e2c:	00561d33          	sll	s10,a2,t0

0000000080006e30 <i_6792>:
    80006e30:	001d8d93          	addi	s11,s11,1 # d91e001 <main-0x726e1fff>
    80006e34:	fc1dcae3          	blt	s11,ra,80006e08 <i_6783>

0000000080006e38 <i_6793>:
    80006e38:	ff3ea6b7          	lui	a3,0xff3ea

0000000080006e3c <i_6794>:
    80006e3c:	00798333          	add	t1,s3,t2

0000000080006e40 <i_6795>:
    80006e40:	03c31ab3          	mulh	s5,t1,t3

0000000080006e44 <i_6796>:
    80006e44:	e7e11b83          	lh	s7,-386(sp)

0000000080006e48 <i_6797>:
    80006e48:	7b800e13          	li	t3,1976

0000000080006e4c <i_6798>:
    80006e4c:	7bb00693          	li	a3,1979

0000000080006e50 <i_6799>:
    80006e50:	10c12e23          	sw	a2,284(sp)

0000000080006e54 <i_6800>:
    80006e54:	00564993          	xori	s3,a2,5

0000000080006e58 <i_6801>:
    80006e58:	03813983          	ld	s3,56(sp)

0000000080006e5c <i_6802>:
    80006e5c:	04813c03          	ld	s8,72(sp)

0000000080006e60 <i_6803>:
    80006e60:	41e90c33          	sub	s8,s2,t5

0000000080006e64 <i_6804>:
    80006e64:	03ef7f3b          	remuw	t5,t5,t5

0000000080006e68 <i_6805>:
    80006e68:	8a3f2513          	slti	a0,t5,-1885

0000000080006e6c <i_6806>:
    80006e6c:	ed013f03          	ld	t5,-304(sp)

0000000080006e70 <i_6807>:
    80006e70:	03e50663          	beq	a0,t5,80006e9c <i_6817>

0000000080006e74 <i_6808>:
    80006e74:	02af7463          	bleu	a0,t5,80006e9c <i_6817>

0000000080006e78 <i_6809>:
    80006e78:	00000013          	nop

0000000080006e7c <i_6810>:
    80006e7c:	00ae3233          	sltu	tp,t3,a0

0000000080006e80 <i_6811>:
    80006e80:	00000013          	nop

0000000080006e84 <i_6812>:
    80006e84:	10413823          	sd	tp,272(sp)

0000000080006e88 <i_6813>:
    80006e88:	001e0e13          	addi	t3,t3,1
    80006e8c:	fdc6d2e3          	ble	t3,a3,80006e50 <i_6799>

0000000080006e90 <i_6814>:
    80006e90:	01e782b3          	add	t0,a5,t5

0000000080006e94 <i_6815>:
    80006e94:	003e9813          	slli	a6,t4,0x3

0000000080006e98 <i_6816>:
    80006e98:	03412803          	lw	a6,52(sp)

0000000080006e9c <i_6817>:
    80006e9c:	02100e93          	li	t4,33

0000000080006ea0 <i_6818>:
    80006ea0:	01d81f33          	sll	t5,a6,t4

0000000080006ea4 <i_6819>:
    80006ea4:	01eeb9b3          	sltu	s3,t4,t5

0000000080006ea8 <i_6820>:
    80006ea8:	13010123          	sb	a6,290(sp)

0000000080006eac <i_6821>:
    80006eac:	e47ac793          	xori	a5,s5,-441

0000000080006eb0 <i_6822>:
    80006eb0:	0d812783          	lw	a5,216(sp)

0000000080006eb4 <i_6823>:
    80006eb4:	00f9f833          	and	a6,s3,a5

0000000080006eb8 <i_6824>:
    80006eb8:	404fd793          	srai	a5,t6,0x4

0000000080006ebc <i_6825>:
    80006ebc:	01000793          	li	a5,16

0000000080006ec0 <i_6826>:
    80006ec0:	00f517bb          	sllw	a5,a0,a5

0000000080006ec4 <i_6827>:
    80006ec4:	02fe87bb          	mulw	a5,t4,a5

0000000080006ec8 <i_6828>:
    80006ec8:	1e815f03          	lhu	t5,488(sp)

0000000080006ecc <i_6829>:
    80006ecc:	04813f03          	ld	t5,72(sp)

0000000080006ed0 <i_6830>:
    80006ed0:	01b00a13          	li	s4,27

0000000080006ed4 <i_6831>:
    80006ed4:	4147dbbb          	sraw	s7,a5,s4

0000000080006ed8 <i_6832>:
    80006ed8:	81400793          	li	a5,-2028

0000000080006edc <i_6833>:
    80006edc:	82300f13          	li	t5,-2013

0000000080006ee0 <i_6834>:
    80006ee0:	008f7263          	bleu	s0,t5,80006ee4 <i_6835>

0000000080006ee4 <i_6835>:
    80006ee4:	017a7463          	bleu	s7,s4,80006eec <i_6837>

0000000080006ee8 <i_6836>:
    80006ee8:	034a7a3b          	remuw	s4,s4,s4

0000000080006eec <i_6837>:
    80006eec:	037c1bb3          	mulh	s7,s8,s7

0000000080006ef0 <i_6838>:
    80006ef0:	021a2c33          	mulhsu	s8,s4,ra

0000000080006ef4 <i_6839>:
    80006ef4:	014a7e63          	bleu	s4,s4,80006f10 <i_6845>

0000000080006ef8 <i_6840>:
    80006ef8:	00178793          	addi	a5,a5,1 # 1664b001 <main-0x699b4fff>
    80006efc:	feff52e3          	ble	a5,t5,80006ee0 <i_6834>

0000000080006f00 <i_6841>:
    80006f00:	004d4863          	blt	s10,tp,80006f10 <i_6845>

0000000080006f04 <i_6842>:
    80006f04:	17413c23          	sd	s4,376(sp)

0000000080006f08 <i_6843>:
    80006f08:	fd811523          	sh	s8,-54(sp)

0000000080006f0c <i_6844>:
    80006f0c:	014c5263          	ble	s4,s8,80006f10 <i_6845>

0000000080006f10 <i_6845>:
    80006f10:	fd410f23          	sb	s4,-34(sp)

0000000080006f14 <i_6846>:
    80006f14:	004a531b          	srliw	t1,s4,0x4

0000000080006f18 <i_6847>:
    80006f18:	5ca72397          	auipc	t2,0x5ca72

0000000080006f1c <i_6848>:
    80006f1c:	01a00c93          	li	s9,26

0000000080006f20 <i_6849>:
    80006f20:	019a5c33          	srl	s8,s4,s9

0000000080006f24 <i_6850>:
    80006f24:	034cfcbb          	remuw	s9,s9,s4

0000000080006f28 <i_6851>:
    80006f28:	f0013a03          	ld	s4,-256(sp)

0000000080006f2c <i_6852>:
    80006f2c:	002cda13          	srli	s4,s9,0x2

0000000080006f30 <i_6853>:
    80006f30:	004c1a1b          	slliw	s4,s8,0x4

0000000080006f34 <i_6854>:
    80006f34:	cf5a7c13          	andi	s8,s4,-779

0000000080006f38 <i_6855>:
    80006f38:	038a6a33          	rem	s4,s4,s8

0000000080006f3c <i_6856>:
    80006f3c:	01000a13          	li	s4,16

0000000080006f40 <i_6857>:
    80006f40:	41435c33          	sra	s8,t1,s4

0000000080006f44 <i_6858>:
    80006f44:	014a0e63          	beq	s4,s4,80006f60 <i_6865>

0000000080006f48 <i_6859>:
    80006f48:	01812c03          	lw	s8,24(sp)

0000000080006f4c <i_6860>:
    80006f4c:	014a0e63          	beq	s4,s4,80006f68 <i_6867>

0000000080006f50 <i_6861>:
    80006f50:	02700c13          	li	s8,39

0000000080006f54 <i_6862>:
    80006f54:	418c5a33          	sra	s4,s8,s8

0000000080006f58 <i_6863>:
    80006f58:	014a1c63          	bne	s4,s4,80006f70 <i_6869>

0000000080006f5c <i_6864>:
    80006f5c:	f9810fa3          	sb	s8,-97(sp)

0000000080006f60 <i_6865>:
    80006f60:	0176fc33          	and	s8,a3,s7

0000000080006f64 <i_6866>:
    80006f64:	00f0dc63          	ble	a5,ra,80006f7c <i_6872>

0000000080006f68 <i_6867>:
    80006f68:	e7a15603          	lhu	a2,-390(sp)

0000000080006f6c <i_6868>:
    80006f6c:	038660bb          	remw	ra,a2,s8

0000000080006f70 <i_6869>:
    80006f70:	10113023          	sd	ra,256(sp)

0000000080006f74 <i_6870>:
    80006f74:	e1c10e83          	lb	t4,-484(sp)

0000000080006f78 <i_6871>:
    80006f78:	418c00bb          	subw	ra,s8,s8

0000000080006f7c <i_6872>:
    80006f7c:	10113023          	sd	ra,256(sp)

0000000080006f80 <i_6873>:
    80006f80:	00167463          	bleu	ra,a2,80006f88 <i_6875>

0000000080006f84 <i_6874>:
    80006f84:	02ce8633          	mul	a2,t4,a2

0000000080006f88 <i_6875>:
    80006f88:	01dc8db3          	add	s11,s9,t4

0000000080006f8c <i_6876>:
    80006f8c:	00149813          	slli	a6,s1,0x1

0000000080006f90 <i_6877>:
    80006f90:	f5c10d23          	sb	t3,-166(sp)

0000000080006f94 <i_6878>:
    80006f94:	01be8833          	add	a6,t4,s11

0000000080006f98 <i_6879>:
    80006f98:	fa67e813          	ori	a6,a5,-90

0000000080006f9c <i_6880>:
    80006f9c:	035eb2b3          	mulhu	t0,t4,s5

0000000080006fa0 <i_6881>:
    80006fa0:	02600793          	li	a5,38

0000000080006fa4 <i_6882>:
    80006fa4:	00f79233          	sll	tp,a5,a5

0000000080006fa8 <i_6883>:
    80006fa8:	fc012783          	lw	a5,-64(sp)

0000000080006fac <i_6884>:
    80006fac:	fd710e83          	lb	t4,-41(sp)

0000000080006fb0 <i_6885>:
    80006fb0:	00000013          	nop

0000000080006fb4 <i_6886>:
    80006fb4:	75400a93          	li	s5,1876

0000000080006fb8 <i_6887>:
    80006fb8:	75800513          	li	a0,1880

0000000080006fbc <i_6888>:
    80006fbc:	10a12223          	sw	a0,260(sp)

0000000080006fc0 <i_6889>:
    80006fc0:	ebd10ea3          	sb	t4,-323(sp)

0000000080006fc4 <i_6890>:
    80006fc4:	13a10a03          	lb	s4,314(sp)

0000000080006fc8 <i_6891>:
    80006fc8:	40aa86b3          	sub	a3,s5,a0

0000000080006fcc <i_6892>:
    80006fcc:	00dd5e63          	ble	a3,s10,80006fe8 <i_6898>

0000000080006fd0 <i_6893>:
    80006fd0:	06d13423          	sd	a3,104(sp)

0000000080006fd4 <i_6894>:
    80006fd4:	001a8a93          	addi	s5,s5,1
    80006fd8:	feaae2e3          	bltu	s5,a0,80006fbc <i_6888>

0000000080006fdc <i_6895>:
    80006fdc:	02d6a6b3          	mulhsu	a3,a3,a3

0000000080006fe0 <i_6896>:
    80006fe0:	00000013          	nop

0000000080006fe4 <i_6897>:
    80006fe4:	00000013          	nop

0000000080006fe8 <i_6898>:
    80006fe8:	94b6eb93          	ori	s7,a3,-1717

0000000080006fec <i_6899>:
    80006fec:	11c11203          	lh	tp,284(sp)

0000000080006ff0 <i_6900>:
    80006ff0:	7bd00693          	li	a3,1981

0000000080006ff4 <i_6901>:
    80006ff4:	7c200a13          	li	s4,1986

0000000080006ff8 <i_6902>:
    80006ff8:	1ac10b83          	lb	s7,428(sp)

0000000080006ffc <i_6903>:
    80006ffc:	ed011f03          	lh	t5,-304(sp)

0000000080007000 <i_6904>:
    80007000:	02211223          	sh	sp,36(sp)

0000000080007004 <i_6905>:
    80007004:	fcc12b03          	lw	s6,-52(sp)

0000000080007008 <i_6906>:
    80007008:	027f73bb          	remuw	t2,t5,t2

000000008000700c <i_6907>:
    8000700c:	0f615e03          	lhu	t3,246(sp)

0000000080007010 <i_6908>:
    80007010:	a3cb4513          	xori	a0,s6,-1476

0000000080007014 <i_6909>:
    80007014:	01cf2f33          	slt	t5,t5,t3

0000000080007018 <i_6910>:
    80007018:	e9412583          	lw	a1,-364(sp)

000000008000701c <i_6911>:
    8000701c:	00168693          	addi	a3,a3,1 # ffffffffff3ea001 <_end+0xffffffff7f3d9bed>
    80007020:	fcda7ce3          	bleu	a3,s4,80006ff8 <i_6902>

0000000080007024 <i_6912>:
    80007024:	f6710223          	sb	t2,-156(sp)

0000000080007028 <i_6913>:
    80007028:	00d51263          	bne	a0,a3,8000702c <i_6914>

000000008000702c <i_6914>:
    8000702c:	f4110583          	lb	a1,-191(sp)

0000000080007030 <i_6915>:
    80007030:	02b11a23          	sh	a1,52(sp)

0000000080007034 <i_6916>:
    80007034:	016afa63          	bleu	s6,s5,80007048 <i_6921>

0000000080007038 <i_6917>:
    80007038:	18c10ba3          	sb	a2,407(sp)

000000008000703c <i_6918>:
    8000703c:	16e10583          	lb	a1,366(sp)

0000000080007040 <i_6919>:
    80007040:	03a57833          	remu	a6,a0,s10

0000000080007044 <i_6920>:
    80007044:	0f813203          	ld	tp,248(sp)

0000000080007048 <i_6921>:
    80007048:	03a6cd33          	div	s10,a3,s10

000000008000704c <i_6922>:
    8000704c:	03181063          	bne	a6,a7,8000706c <i_6930>

0000000080007050 <i_6923>:
    80007050:	e4d14e83          	lbu	t4,-435(sp)

0000000080007054 <i_6924>:
    80007054:	17a11923          	sh	s10,370(sp)

0000000080007058 <i_6925>:
    80007058:	b836e393          	ori	t2,a3,-1149

000000008000705c <i_6926>:
    8000705c:	f0a11523          	sh	a0,-246(sp)

0000000080007060 <i_6927>:
    80007060:	00d82433          	slt	s0,a6,a3

0000000080007064 <i_6928>:
    80007064:	002e9f1b          	slliw	t5,t4,0x2

0000000080007068 <i_6929>:
    80007068:	07614403          	lbu	s0,118(sp)

000000008000706c <i_6930>:
    8000706c:	02a81833          	mulh	a6,a6,a0

0000000080007070 <i_6931>:
    80007070:	1c615d03          	lhu	s10,454(sp)

0000000080007074 <i_6932>:
    80007074:	75800e93          	li	t4,1880

0000000080007078 <i_6933>:
    80007078:	76c00513          	li	a0,1900

000000008000707c <i_6934>:
    8000707c:	14710a23          	sb	t2,340(sp)

0000000080007080 <i_6935>:
    80007080:	00000013          	nop

0000000080007084 <i_6936>:
    80007084:	02f867bb          	remw	a5,a6,a5

0000000080007088 <i_6937>:
    80007088:	16814483          	lbu	s1,360(sp)

000000008000708c <i_6938>:
    8000708c:	03e4e463          	bltu	s1,t5,800070b4 <i_6947>

0000000080007090 <i_6939>:
    80007090:	e9813783          	ld	a5,-360(sp)

0000000080007094 <i_6940>:
    80007094:	403c5413          	srai	s0,s8,0x3

0000000080007098 <i_6941>:
    80007098:	001e8e93          	addi	t4,t4,1
    8000709c:	ffd550e3          	ble	t4,a0,8000707c <i_6934>

00000000800070a0 <i_6942>:
    800070a0:	00fd1e63          	bne	s10,a5,800070bc <i_6949>

00000000800070a4 <i_6943>:
    800070a4:	00800493          	li	s1,8

00000000800070a8 <i_6944>:
    800070a8:	409c5c3b          	sraw	s8,s8,s1

00000000800070ac <i_6945>:
    800070ac:	fc913823          	sd	s1,-48(sp)

00000000800070b0 <i_6946>:
    800070b0:	00000013          	nop

00000000800070b4 <i_6947>:
    800070b4:	00000013          	nop

00000000800070b8 <i_6948>:
    800070b8:	0bc16383          	lwu	t2,188(sp)

00000000800070bc <i_6949>:
    800070bc:	fac12c03          	lw	s8,-84(sp)

00000000800070c0 <i_6950>:
    800070c0:	01100a93          	li	s5,17

00000000800070c4 <i_6951>:
    800070c4:	015c5cbb          	srlw	s9,s8,s5

00000000800070c8 <i_6952>:
    800070c8:	83500493          	li	s1,-1995

00000000800070cc <i_6953>:
    800070cc:	83e00d93          	li	s11,-1986

00000000800070d0 <i_6954>:
    800070d0:	02016a83          	lwu	s5,32(sp)

00000000800070d4 <i_6955>:
    800070d4:	0189bc33          	sltu	s8,s3,s8

00000000800070d8 <i_6956>:
    800070d8:	01849663          	bne	s1,s8,800070e4 <i_6959>

00000000800070dc <i_6957>:
    800070dc:	40245f1b          	sraiw	t5,s0,0x2

00000000800070e0 <i_6958>:
    800070e0:	04f13423          	sd	a5,72(sp)

00000000800070e4 <i_6959>:
    800070e4:	009ad463          	ble	s1,s5,800070ec <i_6961>

00000000800070e8 <i_6960>:
    800070e8:	02100a13          	li	s4,33

00000000800070ec <i_6961>:
    800070ec:	014c50b3          	srl	ra,s8,s4

00000000800070f0 <i_6962>:
    800070f0:	01d00f13          	li	t5,29

00000000800070f4 <i_6963>:
    800070f4:	01ec1cbb          	sllw	s9,s8,t5

00000000800070f8 <i_6964>:
    800070f8:	00148493          	addi	s1,s1,1
    800070fc:	fc9dd8e3          	ble	s1,s11,800070cc <i_6953>

0000000080007100 <i_6965>:
    80007100:	01ecec63          	bltu	s9,t5,80007118 <i_6971>

0000000080007104 <i_6966>:
    80007104:	1b910fa3          	sb	s9,447(sp)

0000000080007108 <i_6967>:
    80007108:	00fcc7b3          	xor	a5,s9,a5

000000008000710c <i_6968>:
    8000710c:	f8f13023          	sd	a5,-128(sp)

0000000080007110 <i_6969>:
    80007110:	02fafab3          	remu	s5,s5,a5

0000000080007114 <i_6970>:
    80007114:	e7510da3          	sb	s5,-389(sp)

0000000080007118 <i_6971>:
    80007118:	daa6fbb7          	lui	s7,0xdaa6f

000000008000711c <i_6972>:
    8000711c:	00000013          	nop

0000000080007120 <i_6973>:
    80007120:	77a00793          	li	a5,1914

0000000080007124 <i_6974>:
    80007124:	77f00d13          	li	s10,1919

0000000080007128 <i_6975>:
    80007128:	00178793          	addi	a5,a5,1
    8000712c:	fefd7ee3          	bleu	a5,s10,80007128 <i_6975>

0000000080007130 <i_6976>:
    80007130:	01eb8c63          	beq	s7,t5,80007148 <i_6982>

0000000080007134 <i_6977>:
    80007134:	00ff4663          	blt	t5,a5,80007140 <i_6980>

0000000080007138 <i_6978>:
    80007138:	1b013783          	ld	a5,432(sp)

000000008000713c <i_6979>:
    8000713c:	01730333          	add	t1,t1,s7

0000000080007140 <i_6980>:
    80007140:	11816783          	lwu	a5,280(sp)

0000000080007144 <i_6981>:
    80007144:	01c00593          	li	a1,28

0000000080007148 <i_6982>:
    80007148:	00b85ebb          	srlw	t4,a6,a1

000000008000714c <i_6983>:
    8000714c:	0db10783          	lb	a5,219(sp)

0000000080007150 <i_6984>:
    80007150:	00a7ab93          	slti	s7,a5,10

0000000080007154 <i_6985>:
    80007154:	026b8bb3          	mul	s7,s7,t1

0000000080007158 <i_6986>:
    80007158:	e5e102a3          	sb	t5,-443(sp)

000000008000715c <i_6987>:
    8000715c:	00fbceb3          	xor	t4,s7,a5

0000000080007160 <i_6988>:
    80007160:	01a78a63          	beq	a5,s10,80007174 <i_6993>

0000000080007164 <i_6989>:
    80007164:	00678663          	beq	a5,t1,80007170 <i_6992>

0000000080007168 <i_6990>:
    80007168:	0a815b03          	lhu	s6,168(sp)

000000008000716c <i_6991>:
    8000716c:	03ab8f33          	mul	t5,s7,s10

0000000080007170 <i_6992>:
    80007170:	02611623          	sh	t1,44(sp)

0000000080007174 <i_6993>:
    80007174:	00ff0663          	beq	t5,a5,80007180 <i_6996>

0000000080007178 <i_6994>:
    80007178:	03f10603          	lb	a2,63(sp)

000000008000717c <i_6995>:
    8000717c:	0268e063          	bltu	a7,t1,8000719c <i_7003>

0000000080007180 <i_6996>:
    80007180:	030639b3          	mulhu	s3,a2,a6

0000000080007184 <i_6997>:
    80007184:	9d293817          	auipc	a6,0x9d293

0000000080007188 <i_6998>:
    80007188:	01080eb3          	add	t4,a6,a6

000000008000718c <i_6999>:
    8000718c:	eb016803          	lwu	a6,-336(sp)

0000000080007190 <i_7000>:
    80007190:	ff0105a3          	sb	a6,-21(sp)

0000000080007194 <i_7001>:
    80007194:	e7d12823          	sw	t4,-400(sp)

0000000080007198 <i_7002>:
    80007198:	04710023          	sb	t2,64(sp)

000000008000719c <i_7003>:
    8000719c:	e6416283          	lwu	t0,-412(sp)

00000000800071a0 <i_7004>:
    800071a0:	02587263          	bleu	t0,a6,800071c4 <i_7013>

00000000800071a4 <i_7005>:
    800071a4:	ebc12803          	lw	a6,-324(sp)

00000000800071a8 <i_7006>:
    800071a8:	40580833          	sub	a6,a6,t0

00000000800071ac <i_7007>:
    800071ac:	287dba37          	lui	s4,0x287db

00000000800071b0 <i_7008>:
    800071b0:	010e8a63          	beq	t4,a6,800071c4 <i_7013>

00000000800071b4 <i_7009>:
    800071b4:	f4c15803          	lhu	a6,-180(sp)

00000000800071b8 <i_7010>:
    800071b8:	025a5a3b          	divuw	s4,s4,t0

00000000800071bc <i_7011>:
    800071bc:	01086c63          	bltu	a6,a6,800071d4 <i_7017>

00000000800071c0 <i_7012>:
    800071c0:	00586e63          	bltu	a6,t0,800071dc <i_7019>

00000000800071c4 <i_7013>:
    800071c4:	0102c463          	blt	t0,a6,800071cc <i_7015>

00000000800071c8 <i_7014>:
    800071c8:	030a6063          	bltu	s4,a6,800071e8 <i_7022>

00000000800071cc <i_7015>:
    800071cc:	ef010a23          	sb	a6,-268(sp)

00000000800071d0 <i_7016>:
    800071d0:	0051b1b3          	sltu	gp,gp,t0

00000000800071d4 <i_7017>:
    800071d4:	10a10383          	lb	t2,266(sp)

00000000800071d8 <i_7018>:
    800071d8:	64a3c993          	xori	s3,t2,1610

00000000800071dc <i_7019>:
    800071dc:	00400393          	li	t2,4

00000000800071e0 <i_7020>:
    800071e0:	0079d4bb          	srlw	s1,s3,t2

00000000800071e4 <i_7021>:
    800071e4:	e5812803          	lw	a6,-424(sp)

00000000800071e8 <i_7022>:
    800071e8:	e6013183          	ld	gp,-416(sp)

00000000800071ec <i_7023>:
    800071ec:	0091fe63          	bleu	s1,gp,80007208 <i_7030>

00000000800071f0 <i_7024>:
    800071f0:	023a7463          	bleu	gp,s4,80007218 <i_7034>

00000000800071f4 <i_7025>:
    800071f4:	0301ea33          	rem	s4,gp,a6

00000000800071f8 <i_7026>:
    800071f8:	1b016083          	lwu	ra,432(sp)

00000000800071fc <i_7027>:
    800071fc:	00000013          	nop

0000000080007200 <i_7028>:
    80007200:	02200d93          	li	s11,34

0000000080007204 <i_7029>:
    80007204:	01b09433          	sll	s0,ra,s11

0000000080007208 <i_7030>:
    80007208:	00013083          	ld	ra,0(sp)

000000008000720c <i_7031>:
    8000720c:	f1a11e03          	lh	t3,-230(sp)

0000000080007210 <i_7032>:
    80007210:	00000013          	nop

0000000080007214 <i_7033>:
    80007214:	15015383          	lhu	t2,336(sp)

0000000080007218 <i_7034>:
    80007218:	021cbeb3          	mulhu	t4,s9,ra

000000008000721c <i_7035>:
    8000721c:	fab57e93          	andi	t4,a0,-85

0000000080007220 <i_7036>:
    80007220:	8c400813          	li	a6,-1852

0000000080007224 <i_7037>:
    80007224:	8cc00c13          	li	s8,-1844

0000000080007228 <i_7038>:
    80007228:	c4149097          	auipc	ra,0xc4149

000000008000722c <i_7039>:
    8000722c:	00000013          	nop

0000000080007230 <i_7040>:
    80007230:	03aee0b3          	rem	ra,t4,s10

0000000080007234 <i_7041>:
    80007234:	0273f463          	bleu	t2,t2,8000725c <i_7050>

0000000080007238 <i_7042>:
    80007238:	1a710e83          	lb	t4,423(sp)

000000008000723c <i_7043>:
    8000723c:	027e83bb          	mulw	t2,t4,t2

0000000080007240 <i_7044>:
    80007240:	00180813          	addi	a6,a6,1 # 1d29a185 <main-0x62d65e7b>
    80007244:	ff8812e3          	bne	a6,s8,80007228 <i_7038>

0000000080007248 <i_7045>:
    80007248:	0a611683          	lh	a3,166(sp)

000000008000724c <i_7046>:
    8000724c:	03100613          	li	a2,49

0000000080007250 <i_7047>:
    80007250:	00c25233          	srl	tp,tp,a2

0000000080007254 <i_7048>:
    80007254:	f3a14203          	lbu	tp,-198(sp)

0000000080007258 <i_7049>:
    80007258:	ec713423          	sd	t2,-312(sp)

000000008000725c <i_7050>:
    8000725c:	00166863          	bltu	a2,ra,8000726c <i_7054>

0000000080007260 <i_7051>:
    80007260:	fad11b23          	sh	a3,-74(sp)

0000000080007264 <i_7052>:
    80007264:	01667463          	bleu	s6,a2,8000726c <i_7054>

0000000080007268 <i_7053>:
    80007268:	16013983          	ld	s3,352(sp)

000000008000726c <i_7054>:
    8000726c:	02614783          	lbu	a5,38(sp)

0000000080007270 <i_7055>:
    80007270:	0d313c23          	sd	s3,216(sp)

0000000080007274 <i_7056>:
    80007274:	0339cb3b          	divw	s6,s3,s3

0000000080007278 <i_7057>:
    80007278:	00a00993          	li	s3,10

000000008000727c <i_7058>:
    8000727c:	0137dd33          	srl	s10,a5,s3

0000000080007280 <i_7059>:
    80007280:	03ad26b3          	mulhsu	a3,s10,s10

0000000080007284 <i_7060>:
    80007284:	00f00e93          	li	t4,15

0000000080007288 <i_7061>:
    80007288:	01d6d6bb          	srlw	a3,a3,t4

000000008000728c <i_7062>:
    8000728c:	01ad7c63          	bleu	s10,s10,800072a4 <i_7068>

0000000080007290 <i_7063>:
    80007290:	00016803          	lwu	a6,0(sp)

0000000080007294 <i_7064>:
    80007294:	00df0663          	beq	t5,a3,800072a0 <i_7067>

0000000080007298 <i_7065>:
    80007298:	e5a11323          	sh	s10,-442(sp)

000000008000729c <i_7066>:
    8000729c:	40c109bb          	subw	s3,sp,a2

00000000800072a0 <i_7067>:
    800072a0:	0a614783          	lbu	a5,166(sp)

00000000800072a4 <i_7068>:
    800072a4:	b35ec293          	xori	t0,t4,-1227

00000000800072a8 <i_7069>:
    800072a8:	033d5bb3          	divu	s7,s10,s3

00000000800072ac <i_7070>:
    800072ac:	01a79863          	bne	a5,s10,800072bc <i_7074>

00000000800072b0 <i_7071>:
    800072b0:	03083f33          	mulhu	t5,a6,a6

00000000800072b4 <i_7072>:
    800072b4:	01800213          	li	tp,24

00000000800072b8 <i_7073>:
    800072b8:	004b9db3          	sll	s11,s7,tp

00000000800072bc <i_7074>:
    800072bc:	01079263          	bne	a5,a6,800072c0 <i_7075>

00000000800072c0 <i_7075>:
    800072c0:	13312c23          	sw	s3,312(sp)

00000000800072c4 <i_7076>:
    800072c4:	16416583          	lwu	a1,356(sp)

00000000800072c8 <i_7077>:
    800072c8:	1cf13c23          	sd	a5,472(sp)

00000000800072cc <i_7078>:
    800072cc:	16f13823          	sd	a5,368(sp)

00000000800072d0 <i_7079>:
    800072d0:	00a9e263          	bltu	s3,a0,800072d4 <i_7080>

00000000800072d4 <i_7080>:
    800072d4:	02bbc1b3          	div	gp,s7,a1

00000000800072d8 <i_7081>:
    800072d8:	f1813a83          	ld	s5,-232(sp)

00000000800072dc <i_7082>:
    800072dc:	02914283          	lbu	t0,41(sp)

00000000800072e0 <i_7083>:
    800072e0:	8b500f13          	li	t5,-1867

00000000800072e4 <i_7084>:
    800072e4:	8c700693          	li	a3,-1849

00000000800072e8 <i_7085>:
    800072e8:	001f0f13          	addi	t5,t5,1
    800072ec:	fedf4ee3          	blt	t5,a3,800072e8 <i_7085>

00000000800072f0 <i_7086>:
    800072f0:	ff812203          	lw	tp,-8(sp)

00000000800072f4 <i_7087>:
    800072f4:	00012283          	lw	t0,0(sp)

00000000800072f8 <i_7088>:
    800072f8:	0232adb3          	mulhsu	s11,t0,gp

00000000800072fc <i_7089>:
    800072fc:	003d9f13          	slli	t5,s11,0x3

0000000080007300 <i_7090>:
    80007300:	86500313          	li	t1,-1947

0000000080007304 <i_7091>:
    80007304:	86b00093          	li	ra,-1941

0000000080007308 <i_7092>:
    80007308:	00000013          	nop

000000008000730c <i_7093>:
    8000730c:	0d910da3          	sb	s9,219(sp)

0000000080007310 <i_7094>:
    80007310:	03b369b3          	rem	s3,t1,s11

0000000080007314 <i_7095>:
    80007314:	0c215d83          	lhu	s11,194(sp)

0000000080007318 <i_7096>:
    80007318:	00000013          	nop

000000008000731c <i_7097>:
    8000731c:	03bd9063          	bne	s11,s11,8000733c <i_7104>

0000000080007320 <i_7098>:
    80007320:	f3e12a23          	sw	t5,-204(sp)

0000000080007324 <i_7099>:
    80007324:	00130313          	addi	t1,t1,1 # 80d946f5 <_end+0xd842e1>
    80007328:	fe6090e3          	bne	ra,t1,80007308 <i_7092>

000000008000732c <i_7100>:
    8000732c:	e6811d83          	lh	s11,-408(sp)

0000000080007330 <i_7101>:
    80007330:	0c815503          	lhu	a0,200(sp)

0000000080007334 <i_7102>:
    80007334:	016dca63          	blt	s11,s6,80007348 <i_7107>

0000000080007338 <i_7103>:
    80007338:	f5b13c23          	sd	s11,-168(sp)

000000008000733c <i_7104>:
    8000733c:	03bd4263          	blt	s10,s11,80007360 <i_7113>

0000000080007340 <i_7105>:
    80007340:	03b4d4b3          	divu	s1,s1,s11

0000000080007344 <i_7106>:
    80007344:	018dbc33          	sltu	s8,s11,s8

0000000080007348 <i_7107>:
    80007348:	15e14803          	lbu	a6,350(sp)

000000008000734c <i_7108>:
    8000734c:	009c8e63          	beq	s9,s1,80007368 <i_7115>

0000000080007350 <i_7109>:
    80007350:	eb011983          	lh	s3,-336(sp)

0000000080007354 <i_7110>:
    80007354:	013989b3          	add	s3,s3,s3

0000000080007358 <i_7111>:
    80007358:	13d14083          	lbu	ra,317(sp)

000000008000735c <i_7112>:
    8000735c:	17013083          	ld	ra,368(sp)

0000000080007360 <i_7113>:
    80007360:	f2c16803          	lwu	a6,-212(sp)

0000000080007364 <i_7114>:
    80007364:	01a00293          	li	t0,26

0000000080007368 <i_7115>:
    80007368:	00581c3b          	sllw	s8,a6,t0

000000008000736c <i_7116>:
    8000736c:	06615583          	lhu	a1,102(sp)

0000000080007370 <i_7117>:
    80007370:	01584463          	blt	a6,s5,80007378 <i_7119>

0000000080007374 <i_7118>:
    80007374:	00d2e263          	bltu	t0,a3,80007378 <i_7119>

0000000080007378 <i_7119>:
    80007378:	54554813          	xori	a6,a0,1349

000000008000737c <i_7120>:
    8000737c:	00a00193          	li	gp,10

0000000080007380 <i_7121>:
    80007380:	003e13bb          	sllw	t2,t3,gp

0000000080007384 <i_7122>:
    80007384:	004a9a9b          	slliw	s5,s5,0x4

0000000080007388 <i_7123>:
    80007388:	06c15183          	lhu	gp,108(sp)

000000008000738c <i_7124>:
    8000738c:	bb80cb93          	xori	s7,ra,-1096

0000000080007390 <i_7125>:
    80007390:	1ac10303          	lb	t1,428(sp)

0000000080007394 <i_7126>:
    80007394:	77400093          	li	ra,1908

0000000080007398 <i_7127>:
    80007398:	78300193          	li	gp,1923

000000008000739c <i_7128>:
    8000739c:	00108093          	addi	ra,ra,1 # 44150229 <main-0x3beafdd7>
    800073a0:	fe309ee3          	bne	ra,gp,8000739c <i_7128>

00000000800073a4 <i_7129>:
    800073a4:	e5510303          	lb	t1,-427(sp)

00000000800073a8 <i_7130>:
    800073a8:	0d813583          	ld	a1,216(sp)

00000000800073ac <i_7131>:
    800073ac:	0ec16783          	lwu	a5,236(sp)

00000000800073b0 <i_7132>:
    800073b0:	0038c463          	blt	a7,gp,800073b8 <i_7134>

00000000800073b4 <i_7133>:
    800073b4:	0f5105a3          	sb	s5,235(sp)

00000000800073b8 <i_7134>:
    800073b8:	03db8ebb          	mulw	t4,s7,t4

00000000800073bc <i_7135>:
    800073bc:	9eaaa793          	slti	a5,s5,-1558

00000000800073c0 <i_7136>:
    800073c0:	8b100a93          	li	s5,-1871

00000000800073c4 <i_7137>:
    800073c4:	8bc00b13          	li	s6,-1860

00000000800073c8 <i_7138>:
    800073c8:	0155f7b3          	and	a5,a1,s5

00000000800073cc <i_7139>:
    800073cc:	13314083          	lbu	ra,307(sp)

00000000800073d0 <i_7140>:
    800073d0:	001a8a93          	addi	s5,s5,1
    800073d4:	ff6acae3          	blt	s5,s6,800073c8 <i_7138>

00000000800073d8 <i_7141>:
    800073d8:	fef14c03          	lbu	s8,-17(sp)

00000000800073dc <i_7142>:
    800073dc:	ea111a23          	sh	ra,-332(sp)

00000000800073e0 <i_7143>:
    800073e0:	e3d10d23          	sb	t4,-454(sp)

00000000800073e4 <i_7144>:
    800073e4:	e4a13c23          	sd	a0,-424(sp)

00000000800073e8 <i_7145>:
    800073e8:	0045999b          	slliw	s3,a1,0x4

00000000800073ec <i_7146>:
    800073ec:	99a9809b          	addiw	ra,s3,-1638

00000000800073f0 <i_7147>:
    800073f0:	0077bd33          	sltu	s10,a5,t2

00000000800073f4 <i_7148>:
    800073f4:	7e59aa93          	slti	s5,s3,2021

00000000800073f8 <i_7149>:
    800073f8:	f8c10d83          	lb	s11,-116(sp)

00000000800073fc <i_7150>:
    800073fc:	09815b03          	lhu	s6,152(sp)

0000000080007400 <i_7151>:
    80007400:	0075ea63          	bltu	a1,t2,80007414 <i_7156>

0000000080007404 <i_7152>:
    80007404:	fcf12a23          	sw	a5,-44(sp)

0000000080007408 <i_7153>:
    80007408:	e2d14e03          	lbu	t3,-467(sp)

000000008000740c <i_7154>:
    8000740c:	03bdc1b3          	div	gp,s11,s11

0000000080007410 <i_7155>:
    80007410:	03ba5a33          	divu	s4,s4,s11

0000000080007414 <i_7156>:
    80007414:	00000013          	nop

0000000080007418 <i_7157>:
    80007418:	f5013503          	ld	a0,-176(sp)

000000008000741c <i_7158>:
    8000741c:	8b500593          	li	a1,-1867

0000000080007420 <i_7159>:
    80007420:	8bf00b13          	li	s6,-1857

0000000080007424 <i_7160>:
    80007424:	00158593          	addi	a1,a1,1 # 43b12001 <main-0x3c4edfff>
    80007428:	ff659ee3          	bne	a1,s6,80007424 <i_7160>

000000008000742c <i_7161>:
    8000742c:	0174ebb3          	or	s7,s1,s7

0000000080007430 <i_7162>:
    80007430:	023bf263          	bleu	gp,s7,80007454 <i_7171>

0000000080007434 <i_7163>:
    80007434:	02360dbb          	mulw	s11,a2,gp

0000000080007438 <i_7164>:
    80007438:	ec813183          	ld	gp,-312(sp)

000000008000743c <i_7165>:
    8000743c:	e8314183          	lbu	gp,-381(sp)

0000000080007440 <i_7166>:
    80007440:	01057263          	bleu	a6,a0,80007444 <i_7167>

0000000080007444 <i_7167>:
    80007444:	0f210683          	lb	a3,242(sp)

0000000080007448 <i_7168>:
    80007448:	ff015b03          	lhu	s6,-16(sp)

000000008000744c <i_7169>:
    8000744c:	15c11023          	sh	t3,320(sp)

0000000080007450 <i_7170>:
    80007450:	40db083b          	subw	a6,s6,a3

0000000080007454 <i_7171>:
    80007454:	026b1533          	mulh	a0,s6,t1

0000000080007458 <i_7172>:
    80007458:	fad13423          	sd	a3,-88(sp)

000000008000745c <i_7173>:
    8000745c:	1a810083          	lb	ra,424(sp)

0000000080007460 <i_7174>:
    80007460:	f4a12023          	sw	a0,-192(sp)

0000000080007464 <i_7175>:
    80007464:	00180c63          	beq	a6,ra,8000747c <i_7181>

0000000080007468 <i_7176>:
    80007468:	06112023          	sw	ra,96(sp)

000000008000746c <i_7177>:
    8000746c:	01084863          	blt	a6,a6,8000747c <i_7181>

0000000080007470 <i_7178>:
    80007470:	e2112423          	sw	ra,-472(sp)

0000000080007474 <i_7179>:
    80007474:	e6c14503          	lbu	a0,-404(sp)

0000000080007478 <i_7180>:
    80007478:	e7c10623          	sb	t3,-404(sp)

000000008000747c <i_7181>:
    8000747c:	016b1c63          	bne	s6,s6,80007494 <i_7187>

0000000080007480 <i_7182>:
    80007480:	00a13823          	sd	a0,16(sp)

0000000080007484 <i_7183>:
    80007484:	01808463          	beq	ra,s8,8000748c <i_7185>

0000000080007488 <i_7184>:
    80007488:	f4f12823          	sw	a5,-176(sp)

000000008000748c <i_7185>:
    8000748c:	99df0f13          	addi	t5,t5,-1635

0000000080007490 <i_7186>:
    80007490:	e1a11683          	lh	a3,-486(sp)

0000000080007494 <i_7187>:
    80007494:	1ad13023          	sd	a3,416(sp)

0000000080007498 <i_7188>:
    80007498:	00700813          	li	a6,7

000000008000749c <i_7189>:
    8000749c:	010f5f3b          	srlw	t5,t5,a6

00000000800074a0 <i_7190>:
    800074a0:	7ca00513          	li	a0,1994

00000000800074a4 <i_7191>:
    800074a4:	7d900293          	li	t0,2009

00000000800074a8 <i_7192>:
    800074a8:	00150513          	addi	a0,a0,1
    800074ac:	fe554ce3          	blt	a0,t0,800074a4 <i_7191>

00000000800074b0 <i_7193>:
    800074b0:	01700f13          	li	t5,23

00000000800074b4 <i_7194>:
    800074b4:	01ef1f3b          	sllw	t5,t5,t5

00000000800074b8 <i_7195>:
    800074b8:	fec16f03          	lwu	t5,-20(sp)

00000000800074bc <i_7196>:
    800074bc:	04010f03          	lb	t5,64(sp)

00000000800074c0 <i_7197>:
    800074c0:	12e10f03          	lb	t5,302(sp)

00000000800074c4 <i_7198>:
    800074c4:	034f55bb          	divuw	a1,t5,s4

00000000800074c8 <i_7199>:
    800074c8:	12214f03          	lbu	t5,290(sp)

00000000800074cc <i_7200>:
    800074cc:	0d012b03          	lw	s6,208(sp)

00000000800074d0 <i_7201>:
    800074d0:	58ef2c13          	slti	s8,t5,1422

00000000800074d4 <i_7202>:
    800074d4:	01ef4e63          	blt	t5,t5,800074f0 <i_7209>

00000000800074d8 <i_7203>:
    800074d8:	04813a83          	ld	s5,72(sp)

00000000800074dc <i_7204>:
    800074dc:	00bf65b3          	or	a1,t5,a1

00000000800074e0 <i_7205>:
    800074e0:	e5415983          	lhu	s3,-428(sp)

00000000800074e4 <i_7206>:
    800074e4:	00100c13          	li	s8,1

00000000800074e8 <i_7207>:
    800074e8:	418f56bb          	sraw	a3,t5,s8

00000000800074ec <i_7208>:
    800074ec:	01800093          	li	ra,24

00000000800074f0 <i_7209>:
    800074f0:	4012523b          	sraw	tp,tp,ra

00000000800074f4 <i_7210>:
    800074f4:	ee412a23          	sw	tp,-268(sp)

00000000800074f8 <i_7211>:
    800074f8:	f5312e23          	sw	s3,-164(sp)

00000000800074fc <i_7212>:
    800074fc:	ed906eb7          	lui	t4,0xed906

0000000080007500 <i_7213>:
    80007500:	fe012203          	lw	tp,-32(sp)

0000000080007504 <i_7214>:
    80007504:	ff813083          	ld	ra,-8(sp)

0000000080007508 <i_7215>:
    80007508:	01d88e63          	beq	a7,t4,80007524 <i_7222>

000000008000750c <i_7216>:
    8000750c:	001ee863          	bltu	t4,ra,8000751c <i_7220>

0000000080007510 <i_7217>:
    80007510:	00127c63          	bleu	ra,tp,80007528 <i_7223>

0000000080007514 <i_7218>:
    80007514:	002c5e9b          	srliw	t4,s8,0x2

0000000080007518 <i_7219>:
    80007518:	40308493          	addi	s1,ra,1027

000000008000751c <i_7220>:
    8000751c:	01d08463          	beq	ra,t4,80007524 <i_7222>

0000000080007520 <i_7221>:
    80007520:	f2313823          	sd	gp,-208(sp)

0000000080007524 <i_7222>:
    80007524:	0090be33          	sltu	t3,ra,s1

0000000080007528 <i_7223>:
    80007528:	00174a63          	blt	a4,ra,8000753c <i_7228>

000000008000752c <i_7224>:
    8000752c:	08912023          	sw	s1,128(sp)

0000000080007530 <i_7225>:
    80007530:	15611483          	lh	s1,342(sp)

0000000080007534 <i_7226>:
    80007534:	18011803          	lh	a6,384(sp)

0000000080007538 <i_7227>:
    80007538:	0104e263          	bltu	s1,a6,8000753c <i_7228>

000000008000753c <i_7228>:
    8000753c:	03c87bb3          	remu	s7,a6,t3

0000000080007540 <i_7229>:
    80007540:	029844bb          	divw	s1,a6,s1

0000000080007544 <i_7230>:
    80007544:	0de15e03          	lhu	t3,222(sp)

0000000080007548 <i_7231>:
    80007548:	03c3ed33          	rem	s10,t2,t3

000000008000754c <i_7232>:
    8000754c:	037e5bbb          	divuw	s7,t3,s7

0000000080007550 <i_7233>:
    80007550:	00345d1b          	srliw	s10,s0,0x3

0000000080007554 <i_7234>:
    80007554:	037b9263          	bne	s7,s7,80007578 <i_7243>

0000000080007558 <i_7235>:
    80007558:	01ad0bb3          	add	s7,s10,s10

000000008000755c <i_7236>:
    8000755c:	08813b83          	ld	s7,136(sp)

0000000080007560 <i_7237>:
    80007560:	e2c11b83          	lh	s7,-468(sp)

0000000080007564 <i_7238>:
    80007564:	03abe063          	bltu	s7,s10,80007584 <i_7246>

0000000080007568 <i_7239>:
    80007568:	09a13423          	sd	s10,136(sp)

000000008000756c <i_7240>:
    8000756c:	01ad8d33          	add	s10,s11,s10

0000000080007570 <i_7241>:
    80007570:	1b910683          	lb	a3,441(sp)

0000000080007574 <i_7242>:
    80007574:	03abe063          	bltu	s7,s10,80007594 <i_7250>

0000000080007578 <i_7243>:
    80007578:	028b9063          	bne	s7,s0,80007598 <i_7251>

000000008000757c <i_7244>:
    8000757c:	fb711523          	sh	s7,-86(sp)

0000000080007580 <i_7245>:
    80007580:	01765663          	ble	s7,a2,8000758c <i_7248>

0000000080007584 <i_7246>:
    80007584:	0178c663          	blt	a7,s7,80007590 <i_7249>

0000000080007588 <i_7247>:
    80007588:	01700993          	li	s3,23

000000008000758c <i_7248>:
    8000758c:	013d1bbb          	sllw	s7,s10,s3

0000000080007590 <i_7249>:
    80007590:	12d13423          	sd	a3,296(sp)

0000000080007594 <i_7250>:
    80007594:	40dd06bb          	subw	a3,s10,a3

0000000080007598 <i_7251>:
    80007598:	00abda63          	ble	a0,s7,800075ac <i_7256>

000000008000759c <i_7252>:
    8000759c:	0378fbb3          	remu	s7,a7,s7

00000000800075a0 <i_7253>:
    800075a0:	e4d11523          	sh	a3,-438(sp)

00000000800075a4 <i_7254>:
    800075a4:	0136de63          	ble	s3,a3,800075c0 <i_7261>

00000000800075a8 <i_7255>:
    800075a8:	0c811603          	lh	a2,200(sp)

00000000800075ac <i_7256>:
    800075ac:	efc15783          	lhu	a5,-260(sp)

00000000800075b0 <i_7257>:
    800075b0:	002dd993          	srli	s3,s11,0x2

00000000800075b4 <i_7258>:
    800075b4:	fef11623          	sh	a5,-20(sp)

00000000800075b8 <i_7259>:
    800075b8:	00f9d863          	ble	a5,s3,800075c8 <i_7263>

00000000800075bc <i_7260>:
    800075bc:	04c11b23          	sh	a2,86(sp)

00000000800075c0 <i_7261>:
    800075c0:	01366f33          	or	t5,a2,s3

00000000800075c4 <i_7262>:
    800075c4:	6368cf37          	lui	t5,0x6368c

00000000800075c8 <i_7263>:
    800075c8:	01c00993          	li	s3,28

00000000800075cc <i_7264>:
    800075cc:	0139d53b          	srlw	a0,s3,s3

00000000800075d0 <i_7265>:
    800075d0:	03e16463          	bltu	sp,t5,800075f8 <i_7275>

00000000800075d4 <i_7266>:
    800075d4:	07812d83          	lw	s11,120(sp)

00000000800075d8 <i_7267>:
    800075d8:	01e50863          	beq	a0,t5,800075e8 <i_7271>

00000000800075dc <i_7268>:
    800075dc:	01b52f33          	slt	t5,a0,s11

00000000800075e0 <i_7269>:
    800075e0:	00000013          	nop

00000000800075e4 <i_7270>:
    800075e4:	02a00f13          	li	t5,42

00000000800075e8 <i_7271>:
    800075e8:	01eddf33          	srl	t5,s11,t5

00000000800075ec <i_7272>:
    800075ec:	f8b10f03          	lb	t5,-117(sp)

00000000800075f0 <i_7273>:
    800075f0:	419f0cb3          	sub	s9,t5,s9

00000000800075f4 <i_7274>:
    800075f4:	00000013          	nop

00000000800075f8 <i_7275>:
    800075f8:	01d00f13          	li	t5,29

00000000800075fc <i_7276>:
    800075fc:	01ef1ebb          	sllw	t4,t5,t5

0000000080007600 <i_7277>:
    80007600:	77a00d93          	li	s11,1914

0000000080007604 <i_7278>:
    80007604:	78c00513          	li	a0,1932

0000000080007608 <i_7279>:
    80007608:	04310383          	lb	t2,67(sp)

000000008000760c <i_7280>:
    8000760c:	03ecd3bb          	divuw	t2,s9,t5

0000000080007610 <i_7281>:
    80007610:	00000013          	nop

0000000080007614 <i_7282>:
    80007614:	0d913023          	sd	s9,192(sp)

0000000080007618 <i_7283>:
    80007618:	03d3e063          	bltu	t2,t4,80007638 <i_7290>

000000008000761c <i_7284>:
    8000761c:	06414403          	lbu	s0,100(sp)

0000000080007620 <i_7285>:
    80007620:	00000013          	nop

0000000080007624 <i_7286>:
    80007624:	08a11403          	lh	s0,138(sp)

0000000080007628 <i_7287>:
    80007628:	001d8d93          	addi	s11,s11,1
    8000762c:	fcad9ee3          	bne	s11,a0,80007608 <i_7279>

0000000080007630 <i_7288>:
    80007630:	11910c23          	sb	s9,280(sp)

0000000080007634 <i_7289>:
    80007634:	0023e863          	bltu	t2,sp,80007644 <i_7293>

0000000080007638 <i_7290>:
    80007638:	e7dcf613          	andi	a2,s9,-387

000000008000763c <i_7291>:
    8000763c:	00c16383          	lwu	t2,12(sp)

0000000080007640 <i_7292>:
    80007640:	e4a10403          	lb	s0,-438(sp)

0000000080007644 <i_7293>:
    80007644:	02c407b3          	mul	a5,s0,a2

0000000080007648 <i_7294>:
    80007648:	00145f1b          	srliw	t5,s0,0x1

000000008000764c <i_7295>:
    8000764c:	ea713423          	sd	t2,-344(sp)

0000000080007650 <i_7296>:
    80007650:	81300d93          	li	s11,-2029

0000000080007654 <i_7297>:
    80007654:	81f00b13          	li	s6,-2017

0000000080007658 <i_7298>:
    80007658:	10512223          	sw	t0,260(sp)

000000008000765c <i_7299>:
    8000765c:	01b11423          	sh	s11,8(sp)

0000000080007660 <i_7300>:
    80007660:	0285e5b3          	rem	a1,a1,s0

0000000080007664 <i_7301>:
    80007664:	15b14803          	lbu	a6,347(sp)

0000000080007668 <i_7302>:
    80007668:	e8314583          	lbu	a1,-381(sp)

000000008000766c <i_7303>:
    8000766c:	e6b10ea3          	sb	a1,-387(sp)

0000000080007670 <i_7304>:
    80007670:	80100b93          	li	s7,-2047

0000000080007674 <i_7305>:
    80007674:	80300313          	li	t1,-2045

0000000080007678 <i_7306>:
    80007678:	00000013          	nop

000000008000767c <i_7307>:
    8000767c:	02bbe863          	bltu	s7,a1,800076ac <i_7317>

0000000080007680 <i_7308>:
    80007680:	001b8b93          	addi	s7,s7,1 # ffffffffdaa6f001 <_end+0xffffffff5aa5ebed>
    80007684:	fe6b9ae3          	bne	s7,t1,80007678 <i_7306>

0000000080007688 <i_7309>:
    80007688:	00637c33          	and	s8,t1,t1

000000008000768c <i_7310>:
    8000768c:	00259613          	slli	a2,a1,0x2

0000000080007690 <i_7311>:
    80007690:	001d8d93          	addi	s11,s11,1
    80007694:	fdbb52e3          	ble	s11,s6,80007658 <i_7298>

0000000080007698 <i_7312>:
    80007698:	04816e03          	lwu	t3,72(sp)

000000008000769c <i_7313>:
    8000769c:	02c3633b          	remw	t1,t1,a2

00000000800076a0 <i_7314>:
    800076a0:	02c31263          	bne	t1,a2,800076c4 <i_7323>

00000000800076a4 <i_7315>:
    800076a4:	04c11c23          	sh	a2,88(sp)

00000000800076a8 <i_7316>:
    800076a8:	c317be13          	sltiu	t3,a5,-975

00000000800076ac <i_7317>:
    800076ac:	f6611383          	lh	t2,-154(sp)

00000000800076b0 <i_7318>:
    800076b0:	02813383          	ld	t2,40(sp)

00000000800076b4 <i_7319>:
    800076b4:	03900493          	li	s1,57

00000000800076b8 <i_7320>:
    800076b8:	409357b3          	sra	a5,t1,s1

00000000800076bc <i_7321>:
    800076bc:	0d815083          	lhu	ra,216(sp)

00000000800076c0 <i_7322>:
    800076c0:	027a1063          	bne	s4,t2,800076e0 <i_7330>

00000000800076c4 <i_7323>:
    800076c4:	a1430c1b          	addiw	s8,t1,-1516

00000000800076c8 <i_7324>:
    800076c8:	08710e03          	lb	t3,135(sp)

00000000800076cc <i_7325>:
    800076cc:	ef811123          	sh	s8,-286(sp)

00000000800076d0 <i_7326>:
    800076d0:	01ea0e33          	add	t3,s4,t5

00000000800076d4 <i_7327>:
    800076d4:	ed615f03          	lhu	t5,-298(sp)

00000000800076d8 <i_7328>:
    800076d8:	16814983          	lbu	s3,360(sp)

00000000800076dc <i_7329>:
    800076dc:	00000013          	nop

00000000800076e0 <i_7330>:
    800076e0:	00000013          	nop

00000000800076e4 <i_7331>:
    800076e4:	1d013a83          	ld	s5,464(sp)

00000000800076e8 <i_7332>:
    800076e8:	8c500093          	li	ra,-1851

00000000800076ec <i_7333>:
    800076ec:	8d600a13          	li	s4,-1834

00000000800076f0 <i_7334>:
    800076f0:	003e4263          	blt	t3,gp,800076f4 <i_7335>

00000000800076f4 <i_7335>:
    800076f4:	fe813983          	ld	s3,-24(sp)

00000000800076f8 <i_7336>:
    800076f8:	034f7463          	bleu	s4,t5,80007720 <i_7345>

00000000800076fc <i_7337>:
    800076fc:	06111a23          	sh	ra,116(sp)

0000000080007700 <i_7338>:
    80007700:	00108093          	addi	ra,ra,1
    80007704:	ff4096e3          	bne	ra,s4,800076f0 <i_7334>

0000000080007708 <i_7339>:
    80007708:	033e7a33          	remu	s4,t3,s3

000000008000770c <i_7340>:
    8000770c:	eb812a03          	lw	s4,-328(sp)

0000000080007710 <i_7341>:
    80007710:	16011483          	lh	s1,352(sp)

0000000080007714 <i_7342>:
    80007714:	46010313          	addi	t1,sp,1120

0000000080007718 <i_7343>:
    80007718:	fdc11123          	sh	t3,-62(sp)

000000008000771c <i_7344>:
    8000771c:	05210b03          	lb	s6,82(sp)

0000000080007720 <i_7345>:
    80007720:	18610183          	lb	gp,390(sp)

0000000080007724 <i_7346>:
    80007724:	f4c12e03          	lw	t3,-180(sp)

0000000080007728 <i_7347>:
    80007728:	18e18613          	addi	a2,gp,398 # 6ea61d36 <main-0x1159e2ca>

000000008000772c <i_7348>:
    8000772c:	02cf7c3b          	remuw	s8,t5,a2

0000000080007730 <i_7349>:
    80007730:	e1814483          	lbu	s1,-488(sp)

0000000080007734 <i_7350>:
    80007734:	f7816183          	lwu	gp,-136(sp)

0000000080007738 <i_7351>:
    80007738:	1c914603          	lbu	a2,457(sp)

000000008000773c <i_7352>:
    8000773c:	e7c12623          	sw	t3,-404(sp)

0000000080007740 <i_7353>:
    80007740:	f8b14603          	lbu	a2,-117(sp)

0000000080007744 <i_7354>:
    80007744:	00ce4f33          	xor	t5,t3,a2

0000000080007748 <i_7355>:
    80007748:	016f1663          	bne	t5,s6,80007754 <i_7358>

000000008000774c <i_7356>:
    8000774c:	01ea0b33          	add	s6,s4,t5

0000000080007750 <i_7357>:
    80007750:	19a14f03          	lbu	t5,410(sp)

0000000080007754 <i_7358>:
    80007754:	03e15d83          	lhu	s11,62(sp)

0000000080007758 <i_7359>:
    80007758:	03cf0463          	beq	t5,t3,80007780 <i_7369>

000000008000775c <i_7360>:
    8000775c:	002e9b13          	slli	s6,t4,0x2

0000000080007760 <i_7361>:
    80007760:	01613023          	sd	s6,0(sp)

0000000080007764 <i_7362>:
    80007764:	00420233          	add	tp,tp,tp

0000000080007768 <i_7363>:
    80007768:	ec012e83          	lw	t4,-320(sp)

000000008000776c <i_7364>:
    8000776c:	024eef33          	rem	t5,t4,tp

0000000080007770 <i_7365>:
    80007770:	f8e12c23          	sw	a4,-104(sp)

0000000080007774 <i_7366>:
    80007774:	401edb1b          	sraiw	s6,t4,0x1

0000000080007778 <i_7367>:
    80007778:	14910f03          	lb	t5,329(sp)

000000008000777c <i_7368>:
    8000777c:	e4410723          	sb	tp,-434(sp)

0000000080007780 <i_7369>:
    80007780:	402b5e9b          	sraiw	t4,s6,0x2

0000000080007784 <i_7370>:
    80007784:	fae15783          	lhu	a5,-82(sp)

0000000080007788 <i_7371>:
    80007788:	01e7c663          	blt	a5,t5,80007794 <i_7374>

000000008000778c <i_7372>:
    8000778c:	00ff5e63          	ble	a5,t5,800077a8 <i_7379>

0000000080007790 <i_7373>:
    80007790:	1d013783          	ld	a5,464(sp)

0000000080007794 <i_7374>:
    80007794:	1cf13c23          	sd	a5,472(sp)

0000000080007798 <i_7375>:
    80007798:	06e14f03          	lbu	t5,110(sp)

000000008000779c <i_7376>:
    8000779c:	00e00f13          	li	t5,14

00000000800077a0 <i_7377>:
    800077a0:	01e196b3          	sll	a3,gp,t5

00000000800077a4 <i_7378>:
    800077a4:	e2514983          	lbu	s3,-475(sp)

00000000800077a8 <i_7379>:
    800077a8:	0df14983          	lbu	s3,223(sp)

00000000800077ac <i_7380>:
    800077ac:	fd113423          	sd	a7,-56(sp)

00000000800077b0 <i_7381>:
    800077b0:	83500493          	li	s1,-1995

00000000800077b4 <i_7382>:
    800077b4:	83c00193          	li	gp,-1988

00000000800077b8 <i_7383>:
    800077b8:	0056c2b3          	xor	t0,a3,t0

00000000800077bc <i_7384>:
    800077bc:	0049d993          	srli	s3,s3,0x4

00000000800077c0 <i_7385>:
    800077c0:	00148493          	addi	s1,s1,1
    800077c4:	fe91dae3          	ble	s1,gp,800077b8 <i_7383>

00000000800077c8 <i_7386>:
    800077c8:	13311223          	sh	s3,292(sp)

00000000800077cc <i_7387>:
    800077cc:	0336cf33          	div	t5,a3,s3

00000000800077d0 <i_7388>:
    800077d0:	005f6e63          	bltu	t5,t0,800077ec <i_7395>

00000000800077d4 <i_7389>:
    800077d4:	01000393          	li	t2,16

00000000800077d8 <i_7390>:
    800077d8:	407f54b3          	sra	s1,t5,t2

00000000800077dc <i_7391>:
    800077dc:	0276e0bb          	remw	ra,a3,t2

00000000800077e0 <i_7392>:
    800077e0:	03ef0463          	beq	t5,t5,80007808 <i_7402>

00000000800077e4 <i_7393>:
    800077e4:	11c15983          	lhu	s3,284(sp)

00000000800077e8 <i_7394>:
    800077e8:	eb813983          	ld	s3,-328(sp)

00000000800077ec <i_7395>:
    800077ec:	c6b0e513          	ori	a0,ra,-917

00000000800077f0 <i_7396>:
    800077f0:	02157ab3          	remu	s5,a0,ra

00000000800077f4 <i_7397>:
    800077f4:	02a0d0bb          	divuw	ra,ra,a0

00000000800077f8 <i_7398>:
    800077f8:	06415e83          	lhu	t4,100(sp)

00000000800077fc <i_7399>:
    800077fc:	f8110a23          	sb	ra,-108(sp)

0000000080007800 <i_7400>:
    80007800:	00d00093          	li	ra,13

0000000080007804 <i_7401>:
    80007804:	001a90bb          	sllw	ra,s5,ra

0000000080007808 <i_7402>:
    80007808:	2ceef093          	andi	ra,t4,718

000000008000780c <i_7403>:
    8000780c:	021aa7b3          	mulhsu	a5,s5,ra

0000000080007810 <i_7404>:
    80007810:	17012603          	lw	a2,368(sp)

0000000080007814 <i_7405>:
    80007814:	01800e93          	li	t4,24

0000000080007818 <i_7406>:
    80007818:	01de1abb          	sllw	s5,t3,t4

000000008000781c <i_7407>:
    8000781c:	77000293          	li	t0,1904

0000000080007820 <i_7408>:
    80007820:	78000e13          	li	t3,1920

0000000080007824 <i_7409>:
    80007824:	03c94633          	div	a2,s2,t3

0000000080007828 <i_7410>:
    80007828:	009080b3          	add	ra,ra,s1

000000008000782c <i_7411>:
    8000782c:	00128293          	addi	t0,t0,1 # 6337c001 <main-0x1cc83fff>
    80007830:	ffc29ae3          	bne	t0,t3,80007824 <i_7409>

0000000080007834 <i_7412>:
    80007834:	e1e14483          	lbu	s1,-482(sp)

0000000080007838 <i_7413>:
    80007838:	00000013          	nop

000000008000783c <i_7414>:
    8000783c:	8b300313          	li	t1,-1869

0000000080007840 <i_7415>:
    80007840:	8c700093          	li	ra,-1849

0000000080007844 <i_7416>:
    80007844:	14912023          	sw	s1,320(sp)

0000000080007848 <i_7417>:
    80007848:	0260c063          	blt	ra,t1,80007868 <i_7424>

000000008000784c <i_7418>:
    8000784c:	00130313          	addi	t1,t1,1
    80007850:	fe136ae3          	bltu	t1,ra,80007844 <i_7416>

0000000080007854 <i_7419>:
    80007854:	03016e83          	lwu	t4,48(sp)

0000000080007858 <i_7420>:
    80007858:	001e5263          	ble	ra,t3,8000785c <i_7421>

000000008000785c <i_7421>:
    8000785c:	035e6abb          	remw	s5,t3,s5

0000000080007860 <i_7422>:
    80007860:	e6912c23          	sw	s1,-392(sp)

0000000080007864 <i_7423>:
    80007864:	4014d49b          	sraiw	s1,s1,0x1

0000000080007868 <i_7424>:
    80007868:	0014949b          	slliw	s1,s1,0x1

000000008000786c <i_7425>:
    8000786c:	00000013          	nop

0000000080007870 <i_7426>:
    80007870:	8b200313          	li	t1,-1870

0000000080007874 <i_7427>:
    80007874:	8b800e13          	li	t3,-1864

0000000080007878 <i_7428>:
    80007878:	00130313          	addi	t1,t1,1
    8000787c:	fe6e1ee3          	bne	t3,t1,80007878 <i_7428>

0000000080007880 <i_7429>:
    80007880:	029e0abb          	mulw	s5,t3,s1

0000000080007884 <i_7430>:
    80007884:	f0412403          	lw	s0,-252(sp)

0000000080007888 <i_7431>:
    80007888:	00944663          	blt	s0,s1,80007894 <i_7434>

000000008000788c <i_7432>:
    8000788c:	015e7463          	bleu	s5,t3,80007894 <i_7434>

0000000080007890 <i_7433>:
    80007890:	035e7063          	bleu	s5,t3,800078b0 <i_7441>

0000000080007894 <i_7434>:
    80007894:	00241413          	slli	s0,s0,0x2

0000000080007898 <i_7435>:
    80007898:	00868863          	beq	a3,s0,800078a8 <i_7439>

000000008000789c <i_7436>:
    8000789c:	edd14183          	lbu	gp,-291(sp)

00000000800078a0 <i_7437>:
    800078a0:	01512023          	sw	s5,0(sp)

00000000800078a4 <i_7438>:
    800078a4:	01544e63          	blt	s0,s5,800078c0 <i_7445>

00000000800078a8 <i_7439>:
    800078a8:	0181c433          	xor	s0,gp,s8

00000000800078ac <i_7440>:
    800078ac:	1e416e03          	lwu	t3,484(sp)

00000000800078b0 <i_7441>:
    800078b0:	fdc11723          	sh	t3,-50(sp)

00000000800078b4 <i_7442>:
    800078b4:	11e15503          	lhu	a0,286(sp)

00000000800078b8 <i_7443>:
    800078b8:	03c00b93          	li	s7,60

00000000800078bc <i_7444>:
    800078bc:	01785e33          	srl	t3,a6,s7

00000000800078c0 <i_7445>:
    800078c0:	e8f14603          	lbu	a2,-369(sp)

00000000800078c4 <i_7446>:
    800078c4:	f9710fa3          	sb	s7,-97(sp)

00000000800078c8 <i_7447>:
    800078c8:	02361063          	bne	a2,gp,800078e8 <i_7455>

00000000800078cc <i_7448>:
    800078cc:	ed510c23          	sb	s5,-296(sp)

00000000800078d0 <i_7449>:
    800078d0:	eeb14d83          	lbu	s11,-277(sp)

00000000800078d4 <i_7450>:
    800078d4:	0293c463          	blt	t2,s1,800078fc <i_7460>

00000000800078d8 <i_7451>:
    800078d8:	40318a33          	sub	s4,gp,gp

00000000800078dc <i_7452>:
    800078dc:	4016d19b          	sraiw	gp,a3,0x1

00000000800078e0 <i_7453>:
    800078e0:	11013783          	ld	a5,272(sp)

00000000800078e4 <i_7454>:
    800078e4:	02f31263          	bne	t1,a5,80007908 <i_7463>

00000000800078e8 <i_7455>:
    800078e8:	0141e7b3          	or	a5,gp,s4

00000000800078ec <i_7456>:
    800078ec:	414d09bb          	subw	s3,s10,s4

00000000800078f0 <i_7457>:
    800078f0:	00000013          	nop

00000000800078f4 <i_7458>:
    800078f4:	e9313c23          	sd	s3,-360(sp)

00000000800078f8 <i_7459>:
    800078f8:	00000013          	nop

00000000800078fc <i_7460>:
    800078fc:	14313c23          	sd	gp,344(sp)

0000000080007900 <i_7461>:
    80007900:	00000013          	nop

0000000080007904 <i_7462>:
    80007904:	030847b3          	div	a5,a6,a6

0000000080007908 <i_7463>:
    80007908:	ff615183          	lhu	gp,-10(sp)

000000008000790c <i_7464>:
    8000790c:	16012183          	lw	gp,352(sp)

0000000080007910 <i_7465>:
    80007910:	75f00813          	li	a6,1887

0000000080007914 <i_7466>:
    80007914:	76600f13          	li	t5,1894

0000000080007918 <i_7467>:
    80007918:	023f6663          	bltu	t5,gp,80007944 <i_7477>

000000008000791c <i_7468>:
    8000791c:	01900e93          	li	t4,25

0000000080007920 <i_7469>:
    80007920:	01d9d7bb          	srlw	a5,s3,t4

0000000080007924 <i_7470>:
    80007924:	1c214183          	lbu	gp,450(sp)

0000000080007928 <i_7471>:
    80007928:	1a312223          	sw	gp,420(sp)

000000008000792c <i_7472>:
    8000792c:	00180813          	addi	a6,a6,1
    80007930:	ff0f54e3          	ble	a6,t5,80007918 <i_7467>

0000000080007934 <i_7473>:
    80007934:	e5b10783          	lb	a5,-421(sp)

0000000080007938 <i_7474>:
    80007938:	023ec463          	blt	t4,gp,80007960 <i_7484>

000000008000793c <i_7475>:
    8000793c:	41d1a3b7          	lui	t2,0x41d1a

0000000080007940 <i_7476>:
    80007940:	00369663          	bne	a3,gp,8000794c <i_7479>

0000000080007944 <i_7477>:
    80007944:	014efa33          	and	s4,t4,s4

0000000080007948 <i_7478>:
    80007948:	027601bb          	mulw	gp,a2,t2

000000008000794c <i_7479>:
    8000794c:	e7016503          	lwu	a0,-400(sp)

0000000080007950 <i_7480>:
    80007950:	0071d863          	ble	t2,gp,80007960 <i_7484>

0000000080007954 <i_7481>:
    80007954:	f7013a83          	ld	s5,-144(sp)

0000000080007958 <i_7482>:
    80007958:	02f7c43b          	divw	s0,a5,a5

000000008000795c <i_7483>:
    8000795c:	0197ca63          	blt	a5,s9,80007970 <i_7488>

0000000080007960 <i_7484>:
    80007960:	f5913823          	sd	s9,-176(sp)

0000000080007964 <i_7485>:
    80007964:	108100a3          	sb	s0,257(sp)

0000000080007968 <i_7486>:
    80007968:	772a4793          	xori	a5,s4,1906

000000008000796c <i_7487>:
    8000796c:	03c41a33          	mulh	s4,s0,t3

0000000080007970 <i_7488>:
    80007970:	e4c10303          	lb	t1,-436(sp)

0000000080007974 <i_7489>:
    80007974:	00810a03          	lb	s4,8(sp)

0000000080007978 <i_7490>:
    80007978:	79100413          	li	s0,1937

000000008000797c <i_7491>:
    8000797c:	79500e93          	li	t4,1941

0000000080007980 <i_7492>:
    80007980:	bb1a2b13          	slti	s6,s4,-1103

0000000080007984 <i_7493>:
    80007984:	c0f66e17          	auipc	t3,0xc0f66

0000000080007988 <i_7494>:
    80007988:	86100513          	li	a0,-1951

000000008000798c <i_7495>:
    8000798c:	87000593          	li	a1,-1936

0000000080007990 <i_7496>:
    80007990:	02d11623          	sh	a3,44(sp)

0000000080007994 <i_7497>:
    80007994:	00b00a93          	li	s5,11

0000000080007998 <i_7498>:
    80007998:	015d933b          	sllw	t1,s11,s5

000000008000799c <i_7499>:
    8000799c:	00150513          	addi	a0,a0,1
    800079a0:	fea5d8e3          	ble	a0,a1,80007990 <i_7496>

00000000800079a4 <i_7500>:
    800079a4:	026a5833          	divu	a6,s4,t1

00000000800079a8 <i_7501>:
    800079a8:	00140413          	addi	s0,s0,1
    800079ac:	fdd46ae3          	bltu	s0,t4,80007980 <i_7492>

00000000800079b0 <i_7502>:
    800079b0:	1a910d83          	lb	s11,425(sp)

00000000800079b4 <i_7503>:
    800079b4:	f6013183          	ld	gp,-160(sp)

00000000800079b8 <i_7504>:
    800079b8:	15810ca3          	sb	s8,345(sp)

00000000800079bc <i_7505>:
    800079bc:	74500a93          	li	s5,1861

00000000800079c0 <i_7506>:
    800079c0:	74a00d93          	li	s11,1866

00000000800079c4 <i_7507>:
    800079c4:	41dd8eb3          	sub	t4,s11,t4

00000000800079c8 <i_7508>:
    800079c8:	03581063          	bne	a6,s5,800079e8 <i_7516>

00000000800079cc <i_7509>:
    800079cc:	01bafa63          	bleu	s11,s5,800079e0 <i_7514>

00000000800079d0 <i_7510>:
    800079d0:	00000013          	nop

00000000800079d4 <i_7511>:
    800079d4:	00000013          	nop

00000000800079d8 <i_7512>:
    800079d8:	01b84a63          	blt	a6,s11,800079ec <i_7517>

00000000800079dc <i_7513>:
    800079dc:	1c816e83          	lwu	t4,456(sp)

00000000800079e0 <i_7514>:
    800079e0:	0101feb3          	and	t4,gp,a6

00000000800079e4 <i_7515>:
    800079e4:	002ede9b          	srliw	t4,t4,0x2

00000000800079e8 <i_7516>:
    800079e8:	03d1c463          	blt	gp,t4,80007a10 <i_7525>

00000000800079ec <i_7517>:
    800079ec:	0a210183          	lb	gp,162(sp)

00000000800079f0 <i_7518>:
    800079f0:	ebd11823          	sh	t4,-336(sp)

00000000800079f4 <i_7519>:
    800079f4:	001a8a93          	addi	s5,s5,1
    800079f8:	fd5dd6e3          	ble	s5,s11,800079c4 <i_7507>

00000000800079fc <i_7520>:
    800079fc:	41d480bb          	subw	ra,s1,t4

0000000080007a00 <i_7521>:
    80007a00:	33be8a93          	addi	s5,t4,827 # ffffffffed90633b <_end+0xffffffff6d8f5f27>

0000000080007a04 <i_7522>:
    80007a04:	415e8ab3          	sub	s5,t4,s5

0000000080007a08 <i_7523>:
    80007a08:	12012283          	lw	t0,288(sp)

0000000080007a0c <i_7524>:
    80007a0c:	f8812383          	lw	t2,-120(sp)

0000000080007a10 <i_7525>:
    80007a10:	ff510ba3          	sb	s5,-9(sp)

0000000080007a14 <i_7526>:
    80007a14:	0050d263          	ble	t0,ra,80007a18 <i_7527>

0000000080007a18 <i_7527>:
    80007a18:	03838463          	beq	t2,s8,80007a40 <i_7537>

0000000080007a1c <i_7528>:
    80007a1c:	04415083          	lhu	ra,68(sp)

0000000080007a20 <i_7529>:
    80007a20:	04013d03          	ld	s10,64(sp)

0000000080007a24 <i_7530>:
    80007a24:	11e12823          	sw	t5,272(sp)

0000000080007a28 <i_7531>:
    80007a28:	03e0ef3b          	remw	t5,ra,t5

0000000080007a2c <i_7532>:
    80007a2c:	fa012d83          	lw	s11,-96(sp)

0000000080007a30 <i_7533>:
    80007a30:	0f412f03          	lw	t5,244(sp)

0000000080007a34 <i_7534>:
    80007a34:	19a11d23          	sh	s10,410(sp)

0000000080007a38 <i_7535>:
    80007a38:	ec312823          	sw	gp,-304(sp)

0000000080007a3c <i_7536>:
    80007a3c:	f6012d03          	lw	s10,-160(sp)

0000000080007a40 <i_7537>:
    80007a40:	eb013b03          	ld	s6,-336(sp)

0000000080007a44 <i_7538>:
    80007a44:	f2611823          	sh	t1,-208(sp)

0000000080007a48 <i_7539>:
    80007a48:	86a00393          	li	t2,-1942

0000000080007a4c <i_7540>:
    80007a4c:	87e00293          	li	t0,-1922

0000000080007a50 <i_7541>:
    80007a50:	00411083          	lh	ra,4(sp)

0000000080007a54 <i_7542>:
    80007a54:	1b613023          	sd	s6,416(sp)

0000000080007a58 <i_7543>:
    80007a58:	0360d663          	ble	s6,ra,80007a84 <i_7553>

0000000080007a5c <i_7544>:
    80007a5c:	e8311c23          	sh	gp,-360(sp)

0000000080007a60 <i_7545>:
    80007a60:	01498a33          	add	s4,s3,s4

0000000080007a64 <i_7546>:
    80007a64:	02200313          	li	t1,34

0000000080007a68 <i_7547>:
    80007a68:	4061d533          	sra	a0,gp,t1

0000000080007a6c <i_7548>:
    80007a6c:	00138393          	addi	t2,t2,1 # 41d1a001 <main-0x3e2e5fff>
    80007a70:	fe53e0e3          	bltu	t2,t0,80007a50 <i_7541>

0000000080007a74 <i_7549>:
    80007a74:	003b7e63          	bleu	gp,s6,80007a90 <i_7556>

0000000080007a78 <i_7550>:
    80007a78:	0c813b83          	ld	s7,200(sp)

0000000080007a7c <i_7551>:
    80007a7c:	01011b83          	lh	s7,16(sp)

0000000080007a80 <i_7552>:
    80007a80:	0f813283          	ld	t0,248(sp)

0000000080007a84 <i_7553>:
    80007a84:	03900593          	li	a1,57

0000000080007a88 <i_7554>:
    80007a88:	00b2dbb3          	srl	s7,t0,a1

0000000080007a8c <i_7555>:
    80007a8c:	00534463          	blt	t1,t0,80007a94 <i_7557>

0000000080007a90 <i_7556>:
    80007a90:	0f416283          	lwu	t0,244(sp)

0000000080007a94 <i_7557>:
    80007a94:	7f62b193          	sltiu	gp,t0,2038

0000000080007a98 <i_7558>:
    80007a98:	0252ea33          	rem	s4,t0,t0

0000000080007a9c <i_7559>:
    80007a9c:	00159813          	slli	a6,a1,0x1

0000000080007aa0 <i_7560>:
    80007aa0:	0342d6bb          	divuw	a3,t0,s4

0000000080007aa4 <i_7561>:
    80007aa4:	05012823          	sw	a6,80(sp)

0000000080007aa8 <i_7562>:
    80007aa8:	19016a03          	lwu	s4,400(sp)

0000000080007aac <i_7563>:
    80007aac:	01700813          	li	a6,23

0000000080007ab0 <i_7564>:
    80007ab0:	0103583b          	srlw	a6,t1,a6

0000000080007ab4 <i_7565>:
    80007ab4:	00d6ce63          	blt	a3,a3,80007ad0 <i_7572>

0000000080007ab8 <i_7566>:
    80007ab8:	014b2833          	slt	a6,s6,s4

0000000080007abc <i_7567>:
    80007abc:	2726ca13          	xori	s4,a3,626

0000000080007ac0 <i_7568>:
    80007ac0:	034a5a3b          	divuw	s4,s4,s4

0000000080007ac4 <i_7569>:
    80007ac4:	4018581b          	sraiw	a6,a6,0x1

0000000080007ac8 <i_7570>:
    80007ac8:	03082833          	mulhsu	a6,a6,a6

0000000080007acc <i_7571>:
    80007acc:	09012a23          	sw	a6,148(sp)

0000000080007ad0 <i_7572>:
    80007ad0:	b4104817          	auipc	a6,0xb4104

0000000080007ad4 <i_7573>:
    80007ad4:	00000013          	nop

0000000080007ad8 <i_7574>:
    80007ad8:	87400b13          	li	s6,-1932

0000000080007adc <i_7575>:
    80007adc:	88200213          	li	tp,-1918

0000000080007ae0 <i_7576>:
    80007ae0:	ee813183          	ld	gp,-280(sp)

0000000080007ae4 <i_7577>:
    80007ae4:	001b0b13          	addi	s6,s6,1
    80007ae8:	ff625ce3          	ble	s6,tp,80007ae0 <i_7576>

0000000080007aec <i_7578>:
    80007aec:	00386863          	bltu	a6,gp,80007afc <i_7582>

0000000080007af0 <i_7579>:
    80007af0:	f7a14803          	lbu	a6,-134(sp)

0000000080007af4 <i_7580>:
    80007af4:	03019263          	bne	gp,a6,80007b18 <i_7589>

0000000080007af8 <i_7581>:
    80007af8:	00381463          	bne	a6,gp,80007b00 <i_7583>

0000000080007afc <i_7582>:
    80007afc:	4038519b          	sraiw	gp,a6,0x3

0000000080007b00 <i_7583>:
    80007b00:	05c16c83          	lwu	s9,92(sp)

0000000080007b04 <i_7584>:
    80007b04:	00f87c63          	bleu	a5,a6,80007b1c <i_7590>

0000000080007b08 <i_7585>:
    80007b08:	fe313023          	sd	gp,-32(sp)

0000000080007b0c <i_7586>:
    80007b0c:	0047979b          	slliw	a5,a5,0x4

0000000080007b10 <i_7587>:
    80007b10:	e8f106a3          	sb	a5,-371(sp)

0000000080007b14 <i_7588>:
    80007b14:	003c8663          	beq	s9,gp,80007b20 <i_7591>

0000000080007b18 <i_7589>:
    80007b18:	022cda3b          	divuw	s4,s9,sp

0000000080007b1c <i_7590>:
    80007b1c:	e3b14a03          	lbu	s4,-453(sp)

0000000080007b20 <i_7591>:
    80007b20:	0e214a03          	lbu	s4,226(sp)

0000000080007b24 <i_7592>:
    80007b24:	1ed11223          	sh	a3,484(sp)

0000000080007b28 <i_7593>:
    80007b28:	13c16b83          	lwu	s7,316(sp)

0000000080007b2c <i_7594>:
    80007b2c:	0be15e83          	lhu	t4,190(sp)

0000000080007b30 <i_7595>:
    80007b30:	0b416a03          	lwu	s4,180(sp)

0000000080007b34 <i_7596>:
    80007b34:	014c2633          	slt	a2,s8,s4

0000000080007b38 <i_7597>:
    80007b38:	0a614483          	lbu	s1,166(sp)

0000000080007b3c <i_7598>:
    80007b3c:	84300b93          	li	s7,-1981

0000000080007b40 <i_7599>:
    80007b40:	84c00a13          	li	s4,-1972

0000000080007b44 <i_7600>:
    80007b44:	00000013          	nop

0000000080007b48 <i_7601>:
    80007b48:	ed013683          	ld	a3,-304(sp)

0000000080007b4c <i_7602>:
    80007b4c:	402bdc9b          	sraiw	s9,s7,0x2

0000000080007b50 <i_7603>:
    80007b50:	ed816c83          	lwu	s9,-296(sp)

0000000080007b54 <i_7604>:
    80007b54:	ff710723          	sb	s7,-18(sp)

0000000080007b58 <i_7605>:
    80007b58:	40d686bb          	subw	a3,a3,a3

0000000080007b5c <i_7606>:
    80007b5c:	001b8b93          	addi	s7,s7,1
    80007b60:	ff4bc2e3          	blt	s7,s4,80007b44 <i_7600>

0000000080007b64 <i_7607>:
    80007b64:	15910e23          	sb	s9,348(sp)

0000000080007b68 <i_7608>:
    80007b68:	01b00693          	li	a3,27

0000000080007b6c <i_7609>:
    80007b6c:	00d69cbb          	sllw	s9,a3,a3

0000000080007b70 <i_7610>:
    80007b70:	02da4a3b          	divw	s4,s4,a3

0000000080007b74 <i_7611>:
    80007b74:	13412683          	lw	a3,308(sp)

0000000080007b78 <i_7612>:
    80007b78:	00469c13          	slli	s8,a3,0x4

0000000080007b7c <i_7613>:
    80007b7c:	04d11523          	sh	a3,74(sp)

0000000080007b80 <i_7614>:
    80007b80:	0346d7b3          	divu	a5,a3,s4

0000000080007b84 <i_7615>:
    80007b84:	f6615e03          	lhu	t3,-154(sp)

0000000080007b88 <i_7616>:
    80007b88:	02fe06b3          	mul	a3,t3,a5

0000000080007b8c <i_7617>:
    80007b8c:	0046dc93          	srli	s9,a3,0x4

0000000080007b90 <i_7618>:
    80007b90:	3dadec93          	ori	s9,s11,986

0000000080007b94 <i_7619>:
    80007b94:	fff14d83          	lbu	s11,-1(sp)

0000000080007b98 <i_7620>:
    80007b98:	403cd693          	srai	a3,s9,0x3

0000000080007b9c <i_7621>:
    80007b9c:	01bdadb3          	slt	s11,s11,s11

0000000080007ba0 <i_7622>:
    80007ba0:	ee615683          	lhu	a3,-282(sp)

0000000080007ba4 <i_7623>:
    80007ba4:	0042541b          	srliw	s0,tp,0x4

0000000080007ba8 <i_7624>:
    80007ba8:	01b45e63          	ble	s11,s0,80007bc4 <i_7631>

0000000080007bac <i_7625>:
    80007bac:	e4b08093          	addi	ra,ra,-437

0000000080007bb0 <i_7626>:
    80007bb0:	0394f263          	bleu	s9,s1,80007bd4 <i_7635>

0000000080007bb4 <i_7627>:
    80007bb4:	fa016e83          	lwu	t4,-96(sp)

0000000080007bb8 <i_7628>:
    80007bb8:	00dd8863          	beq	s11,a3,80007bc8 <i_7632>

0000000080007bbc <i_7629>:
    80007bbc:	00c10c83          	lb	s9,12(sp)

0000000080007bc0 <i_7630>:
    80007bc0:	ebc15083          	lhu	ra,-324(sp)

0000000080007bc4 <i_7631>:
    80007bc4:	13314c83          	lbu	s9,307(sp)

0000000080007bc8 <i_7632>:
    80007bc8:	0e113423          	sd	ra,232(sp)

0000000080007bcc <i_7633>:
    80007bcc:	01fcf263          	bleu	t6,s9,80007bd0 <i_7634>

0000000080007bd0 <i_7634>:
    80007bd0:	1a013f03          	ld	t5,416(sp)

0000000080007bd4 <i_7635>:
    80007bd4:	45088e9b          	addiw	t4,a7,1104

0000000080007bd8 <i_7636>:
    80007bd8:	01709a63          	bne	ra,s7,80007bec <i_7641>

0000000080007bdc <i_7637>:
    80007bdc:	03913023          	sd	s9,32(sp)

0000000080007be0 <i_7638>:
    80007be0:	f5813083          	ld	ra,-168(sp)

0000000080007be4 <i_7639>:
    80007be4:	d862f097          	auipc	ra,0xd862f

0000000080007be8 <i_7640>:
    80007be8:	00900213          	li	tp,9

0000000080007bec <i_7641>:
    80007bec:	004e963b          	sllw	a2,t4,tp

0000000080007bf0 <i_7642>:
    80007bf0:	01d0ee63          	bltu	ra,t4,80007c0c <i_7649>

0000000080007bf4 <i_7643>:
    80007bf4:	01debd33          	sltu	s10,t4,t4

0000000080007bf8 <i_7644>:
    80007bf8:	e9416603          	lwu	a2,-364(sp)

0000000080007bfc <i_7645>:
    80007bfc:	1c412b83          	lw	s7,452(sp)

0000000080007c00 <i_7646>:
    80007c00:	02cd60bb          	remw	ra,s10,a2

0000000080007c04 <i_7647>:
    80007c04:	eba15203          	lhu	tp,-326(sp)

0000000080007c08 <i_7648>:
    80007c08:	00400293          	li	t0,4

0000000080007c0c <i_7649>:
    80007c0c:	005610bb          	sllw	ra,a2,t0

0000000080007c10 <i_7650>:
    80007c10:	00000013          	nop

0000000080007c14 <i_7651>:
    80007c14:	82900493          	li	s1,-2007

0000000080007c18 <i_7652>:
    80007c18:	83900b93          	li	s7,-1991

0000000080007c1c <i_7653>:
    80007c1c:	00000013          	nop

0000000080007c20 <i_7654>:
    80007c20:	00e12e23          	sw	a4,28(sp)

0000000080007c24 <i_7655>:
    80007c24:	00148493          	addi	s1,s1,1
    80007c28:	fe9bdae3          	ble	s1,s7,80007c1c <i_7653>

0000000080007c2c <i_7656>:
    80007c2c:	19013283          	ld	t0,400(sp)

0000000080007c30 <i_7657>:
    80007c30:	025152bb          	divuw	t0,sp,t0

0000000080007c34 <i_7658>:
    80007c34:	f2113c23          	sd	ra,-200(sp)

0000000080007c38 <i_7659>:
    80007c38:	0092f663          	bleu	s1,t0,80007c44 <i_7662>

0000000080007c3c <i_7660>:
    80007c3c:	fc412083          	lw	ra,-60(sp)

0000000080007c40 <i_7661>:
    80007c40:	fe813a03          	ld	s4,-24(sp)

0000000080007c44 <i_7662>:
    80007c44:	e4016f03          	lwu	t5,-448(sp)

0000000080007c48 <i_7663>:
    80007c48:	14813c83          	ld	s9,328(sp)

0000000080007c4c <i_7664>:
    80007c4c:	002a139b          	slliw	t2,s4,0x2

0000000080007c50 <i_7665>:
    80007c50:	005f5663          	ble	t0,t5,80007c5c <i_7668>

0000000080007c54 <i_7666>:
    80007c54:	8fef041b          	addiw	s0,t5,-1794

0000000080007c58 <i_7667>:
    80007c58:	03461633          	mulh	a2,a2,s4

0000000080007c5c <i_7668>:
    80007c5c:	4014541b          	sraiw	s0,s0,0x1

0000000080007c60 <i_7669>:
    80007c60:	01416d03          	lwu	s10,20(sp)

0000000080007c64 <i_7670>:
    80007c64:	2e3f3d37          	lui	s10,0x2e3f3

0000000080007c68 <i_7671>:
    80007c68:	01a45263          	ble	s10,s0,80007c6c <i_7672>

0000000080007c6c <i_7672>:
    80007c6c:	e2040413          	addi	s0,s0,-480

0000000080007c70 <i_7673>:
    80007c70:	40145c13          	srai	s8,s0,0x1

0000000080007c74 <i_7674>:
    80007c74:	00f00993          	li	s3,15

0000000080007c78 <i_7675>:
    80007c78:	413c543b          	sraw	s0,s8,s3

0000000080007c7c <i_7676>:
    80007c7c:	0049e863          	bltu	s3,tp,80007c8c <i_7680>

0000000080007c80 <i_7677>:
    80007c80:	ec812e23          	sw	s0,-292(sp)

0000000080007c84 <i_7678>:
    80007c84:	f3611c83          	lh	s9,-202(sp)

0000000080007c88 <i_7679>:
    80007c88:	03d45cb3          	divu	s9,s0,t4

0000000080007c8c <i_7680>:
    80007c8c:	b96c8993          	addi	s3,s9,-1130

0000000080007c90 <i_7681>:
    80007c90:	039cfcbb          	remuw	s9,s9,s9

0000000080007c94 <i_7682>:
    80007c94:	e6a109a3          	sb	a0,-397(sp)

0000000080007c98 <i_7683>:
    80007c98:	1b810603          	lb	a2,440(sp)

0000000080007c9c <i_7684>:
    80007c9c:	55298c97          	auipc	s9,0x55298

0000000080007ca0 <i_7685>:
    80007ca0:	0ea14083          	lbu	ra,234(sp)

0000000080007ca4 <i_7686>:
    80007ca4:	86d00793          	li	a5,-1939

0000000080007ca8 <i_7687>:
    80007ca8:	87900b13          	li	s6,-1927

0000000080007cac <i_7688>:
    80007cac:	00000013          	nop

0000000080007cb0 <i_7689>:
    80007cb0:	767e3cb7          	lui	s9,0x767e3

0000000080007cb4 <i_7690>:
    80007cb4:	81d00e93          	li	t4,-2019

0000000080007cb8 <i_7691>:
    80007cb8:	82c00613          	li	a2,-2004

0000000080007cbc <i_7692>:
    80007cbc:	eba14683          	lbu	a3,-326(sp)

0000000080007cc0 <i_7693>:
    80007cc0:	02a00293          	li	t0,42

0000000080007cc4 <i_7694>:
    80007cc4:	005e96b3          	sll	a3,t4,t0

0000000080007cc8 <i_7695>:
    80007cc8:	15e15683          	lhu	a3,350(sp)

0000000080007ccc <i_7696>:
    80007ccc:	01812383          	lw	t2,24(sp)

0000000080007cd0 <i_7697>:
    80007cd0:	40cc8f33          	sub	t5,s9,a2

0000000080007cd4 <i_7698>:
    80007cd4:	02710c23          	sb	t2,56(sp)

0000000080007cd8 <i_7699>:
    80007cd8:	00000013          	nop

0000000080007cdc <i_7700>:
    80007cdc:	001e8e93          	addi	t4,t4,1
    80007ce0:	fcce9ee3          	bne	t4,a2,80007cbc <i_7692>

0000000080007ce4 <i_7701>:
    80007ce4:	036bd063          	ble	s6,s7,80007d04 <i_7708>

0000000080007ce8 <i_7702>:
    80007ce8:	301f2b93          	slti	s7,t5,769

0000000080007cec <i_7703>:
    80007cec:	00178793          	addi	a5,a5,1
    80007cf0:	fb67cee3          	blt	a5,s6,80007cac <i_7688>

0000000080007cf4 <i_7704>:
    80007cf4:	02012e83          	lw	t4,32(sp)

0000000080007cf8 <i_7705>:
    80007cf8:	bc1ebb93          	sltiu	s7,t4,-1087

0000000080007cfc <i_7706>:
    80007cfc:	00ee7e63          	bleu	a4,t3,80007d18 <i_7713>

0000000080007d00 <i_7707>:
    80007d00:	03300b93          	li	s7,51

0000000080007d04 <i_7708>:
    80007d04:	017f10b3          	sll	ra,t5,s7

0000000080007d08 <i_7709>:
    80007d08:	037eebbb          	remw	s7,t4,s7

0000000080007d0c <i_7710>:
    80007d0c:	4040d993          	srai	s3,ra,0x4

0000000080007d10 <i_7711>:
    80007d10:	f6016083          	lwu	ra,-160(sp)

0000000080007d14 <i_7712>:
    80007d14:	e4113023          	sd	ra,-448(sp)

0000000080007d18 <i_7713>:
    80007d18:	0f910823          	sb	s9,240(sp)

0000000080007d1c <i_7714>:
    80007d1c:	033bd333          	divu	t1,s7,s3

0000000080007d20 <i_7715>:
    80007d20:	1f811123          	sh	s8,482(sp)

0000000080007d24 <i_7716>:
    80007d24:	02611323          	sh	t1,38(sp)

0000000080007d28 <i_7717>:
    80007d28:	e8210983          	lb	s3,-382(sp)

0000000080007d2c <i_7718>:
    80007d2c:	01760e63          	beq	a2,s7,80007d48 <i_7725>

0000000080007d30 <i_7719>:
    80007d30:	01dcc863          	blt	s9,t4,80007d40 <i_7723>

0000000080007d34 <i_7720>:
    80007d34:	1d712e23          	sw	s7,476(sp)

0000000080007d38 <i_7721>:
    80007d38:	f9d12423          	sw	t4,-120(sp)

0000000080007d3c <i_7722>:
    80007d3c:	004e9693          	slli	a3,t4,0x4

0000000080007d40 <i_7723>:
    80007d40:	0d914d03          	lbu	s10,217(sp)

0000000080007d44 <i_7724>:
    80007d44:	01d0e663          	bltu	ra,t4,80007d50 <i_7727>

0000000080007d48 <i_7725>:
    80007d48:	13914e83          	lbu	t4,313(sp)

0000000080007d4c <i_7726>:
    80007d4c:	fb416803          	lwu	a6,-76(sp)

0000000080007d50 <i_7727>:
    80007d50:	13012e83          	lw	t4,304(sp)

0000000080007d54 <i_7728>:
    80007d54:	030ed263          	ble	a6,t4,80007d78 <i_7737>

0000000080007d58 <i_7729>:
    80007d58:	01e14803          	lbu	a6,30(sp)

0000000080007d5c <i_7730>:
    80007d5c:	9a8cbeb7          	lui	t4,0x9a8cb

0000000080007d60 <i_7731>:
    80007d60:	f5a11e83          	lh	t4,-166(sp)

0000000080007d64 <i_7732>:
    80007d64:	003e9e9b          	slliw	t4,t4,0x3

0000000080007d68 <i_7733>:
    80007d68:	0035551b          	srliw	a0,a0,0x3

0000000080007d6c <i_7734>:
    80007d6c:	03d84d33          	div	s10,a6,t4

0000000080007d70 <i_7735>:
    80007d70:	18a13c23          	sd	a0,408(sp)

0000000080007d74 <i_7736>:
    80007d74:	00000013          	nop

0000000080007d78 <i_7737>:
    80007d78:	02af053b          	mulw	a0,t5,a0

0000000080007d7c <i_7738>:
    80007d7c:	f2c11d03          	lh	s10,-212(sp)

0000000080007d80 <i_7739>:
    80007d80:	76300393          	li	t2,1891

0000000080007d84 <i_7740>:
    80007d84:	76900813          	li	a6,1897

0000000080007d88 <i_7741>:
    80007d88:	41a80e33          	sub	t3,a6,s10

0000000080007d8c <i_7742>:
    80007d8c:	01de5c63          	ble	t4,t3,80007da4 <i_7748>

0000000080007d90 <i_7743>:
    80007d90:	03de6263          	bltu	t3,t4,80007db4 <i_7752>

0000000080007d94 <i_7744>:
    80007d94:	f3415a83          	lhu	s5,-204(sp)

0000000080007d98 <i_7745>:
    80007d98:	03500a93          	li	s5,53

0000000080007d9c <i_7746>:
    80007d9c:	015ade33          	srl	t3,s5,s5

0000000080007da0 <i_7747>:
    80007da0:	e1e11083          	lh	ra,-482(sp)

0000000080007da4 <i_7748>:
    80007da4:	0c810ca3          	sb	s0,217(sp)

0000000080007da8 <i_7749>:
    80007da8:	014e1263          	bne	t3,s4,80007dac <i_7750>

0000000080007dac <i_7750>:
    80007dac:	f0b10f23          	sb	a1,-226(sp)

0000000080007db0 <i_7751>:
    80007db0:	1c1100a3          	sb	ra,449(sp)

0000000080007db4 <i_7752>:
    80007db4:	fc416583          	lwu	a1,-60(sp)

0000000080007db8 <i_7753>:
    80007db8:	008e5e63          	ble	s0,t3,80007dd4 <i_7759>

0000000080007dbc <i_7754>:
    80007dbc:	00138393          	addi	t2,t2,1
    80007dc0:	fd03e4e3          	bltu	t2,a6,80007d88 <i_7741>

0000000080007dc4 <i_7755>:
    80007dc4:	01c5ce33          	xor	t3,a1,t3

0000000080007dc8 <i_7756>:
    80007dc8:	02be3e33          	mulhu	t3,t3,a1

0000000080007dcc <i_7757>:
    80007dcc:	41ce0233          	sub	tp,t3,t3

0000000080007dd0 <i_7758>:
    80007dd0:	f5c12223          	sw	t3,-188(sp)

0000000080007dd4 <i_7759>:
    80007dd4:	00410c23          	sb	tp,24(sp)

0000000080007dd8 <i_7760>:
    80007dd8:	037b8bb3          	mul	s7,s7,s7

0000000080007ddc <i_7761>:
    80007ddc:	80500a13          	li	s4,-2043

0000000080007de0 <i_7762>:
    80007de0:	80700593          	li	a1,-2041

0000000080007de4 <i_7763>:
    80007de4:	f8013803          	ld	a6,-128(sp)

0000000080007de8 <i_7764>:
    80007de8:	40225b9b          	sraiw	s7,tp,0x2

0000000080007dec <i_7765>:
    80007dec:	001a0a13          	addi	s4,s4,1 # 287db001 <main-0x57824fff>
    80007df0:	ff45dae3          	ble	s4,a1,80007de4 <i_7763>

0000000080007df4 <i_7766>:
    80007df4:	41710b33          	sub	s6,sp,s7

0000000080007df8 <i_7767>:
    80007df8:	0035d593          	srli	a1,a1,0x3

0000000080007dfc <i_7768>:
    80007dfc:	b13b8b9b          	addiw	s7,s7,-1261

0000000080007e00 <i_7769>:
    80007e00:	01ab2d33          	slt	s10,s6,s10

0000000080007e04 <i_7770>:
    80007e04:	01100593          	li	a1,17

0000000080007e08 <i_7771>:
    80007e08:	40badb3b          	sraw	s6,s5,a1

0000000080007e0c <i_7772>:
    80007e0c:	002d5693          	srli	a3,s10,0x2

0000000080007e10 <i_7773>:
    80007e10:	02db7063          	bleu	a3,s6,80007e30 <i_7781>

0000000080007e14 <i_7774>:
    80007e14:	00dd0e63          	beq	s10,a3,80007e30 <i_7781>

0000000080007e18 <i_7775>:
    80007e18:	f7c12b83          	lw	s7,-132(sp)

0000000080007e1c <i_7776>:
    80007e1c:	00b12a23          	sw	a1,20(sp)

0000000080007e20 <i_7777>:
    80007e20:	b275af13          	slti	t5,a1,-1241

0000000080007e24 <i_7778>:
    80007e24:	40b68333          	sub	t1,a3,a1

0000000080007e28 <i_7779>:
    80007e28:	fd211303          	lh	t1,-46(sp)

0000000080007e2c <i_7780>:
    80007e2c:	00000013          	nop

0000000080007e30 <i_7781>:
    80007e30:	f4310e03          	lb	t3,-189(sp)

0000000080007e34 <i_7782>:
    80007e34:	263b6313          	ori	t1,s6,611

0000000080007e38 <i_7783>:
    80007e38:	75600a93          	li	s5,1878

0000000080007e3c <i_7784>:
    80007e3c:	76000213          	li	tp,1888

0000000080007e40 <i_7785>:
    80007e40:	15314583          	lbu	a1,339(sp)

0000000080007e44 <i_7786>:
    80007e44:	04813b83          	ld	s7,72(sp)

0000000080007e48 <i_7787>:
    80007e48:	001a8a93          	addi	s5,s5,1
    80007e4c:	fe4aeae3          	bltu	s5,tp,80007e40 <i_7785>

0000000080007e50 <i_7788>:
    80007e50:	ee016203          	lwu	tp,-288(sp)

0000000080007e54 <i_7789>:
    80007e54:	06b12223          	sw	a1,100(sp)

0000000080007e58 <i_7790>:
    80007e58:	f5012683          	lw	a3,-176(sp)

0000000080007e5c <i_7791>:
    80007e5c:	017d4e63          	blt	s10,s7,80007e78 <i_7798>

0000000080007e60 <i_7792>:
    80007e60:	251afa93          	andi	s5,s5,593

0000000080007e64 <i_7793>:
    80007e64:	01f6f663          	bleu	t6,a3,80007e70 <i_7796>

0000000080007e68 <i_7794>:
    80007e68:	f4c11503          	lh	a0,-180(sp)

0000000080007e6c <i_7795>:
    80007e6c:	03a14503          	lbu	a0,58(sp)

0000000080007e70 <i_7796>:
    80007e70:	f5f14a83          	lbu	s5,-161(sp)

0000000080007e74 <i_7797>:
    80007e74:	0fb14203          	lbu	tp,251(sp)

0000000080007e78 <i_7798>:
    80007e78:	00125b93          	srli	s7,tp,0x1

0000000080007e7c <i_7799>:
    80007e7c:	417b80bb          	subw	ra,s7,s7

0000000080007e80 <i_7800>:
    80007e80:	08814d03          	lbu	s10,136(sp)

0000000080007e84 <i_7801>:
    80007e84:	03a38263          	beq	t2,s10,80007ea8 <i_7810>

0000000080007e88 <i_7802>:
    80007e88:	03209463          	bne	ra,s2,80007eb0 <i_7812>

0000000080007e8c <i_7803>:
    80007e8c:	19813023          	sd	s8,384(sp)

0000000080007e90 <i_7804>:
    80007e90:	0df10323          	sb	t6,198(sp)

0000000080007e94 <i_7805>:
    80007e94:	00113023          	sd	ra,0(sp)

0000000080007e98 <i_7806>:
    80007e98:	03a74063          	blt	a4,s10,80007eb8 <i_7814>

0000000080007e9c <i_7807>:
    80007e9c:	00309463          	bne	ra,gp,80007ea4 <i_7809>

0000000080007ea0 <i_7808>:
    80007ea0:	5e7d0d1b          	addiw	s10,s10,1511

0000000080007ea4 <i_7809>:
    80007ea4:	e3013d03          	ld	s10,-464(sp)

0000000080007ea8 <i_7810>:
    80007ea8:	fa411123          	sh	tp,-94(sp)

0000000080007eac <i_7811>:
    80007eac:	0277f7bb          	remuw	a5,a5,t2

0000000080007eb0 <i_7812>:
    80007eb0:	0da13023          	sd	s10,192(sp)

0000000080007eb4 <i_7813>:
    80007eb4:	fca11303          	lh	t1,-54(sp)

0000000080007eb8 <i_7814>:
    80007eb8:	0e416a83          	lwu	s5,228(sp)

0000000080007ebc <i_7815>:
    80007ebc:	1b813c03          	ld	s8,440(sp)

0000000080007ec0 <i_7816>:
    80007ec0:	3d0ee337          	lui	t1,0x3d0ee

0000000080007ec4 <i_7817>:
    80007ec4:	02b9b5b3          	mulhu	a1,s3,a1

0000000080007ec8 <i_7818>:
    80007ec8:	6773c493          	xori	s1,t2,1655

0000000080007ecc <i_7819>:
    80007ecc:	0f410603          	lb	a2,244(sp)

0000000080007ed0 <i_7820>:
    80007ed0:	01400393          	li	t2,20

0000000080007ed4 <i_7821>:
    80007ed4:	007adb3b          	srlw	s6,s5,t2

0000000080007ed8 <i_7822>:
    80007ed8:	19816303          	lwu	t1,408(sp)

0000000080007edc <i_7823>:
    80007edc:	ebc10823          	sb	t3,-336(sp)

0000000080007ee0 <i_7824>:
    80007ee0:	1d610383          	lb	t2,470(sp)

0000000080007ee4 <i_7825>:
    80007ee4:	19210d03          	lb	s10,402(sp)

0000000080007ee8 <i_7826>:
    80007ee8:	03ab7b3b          	remuw	s6,s6,s10

0000000080007eec <i_7827>:
    80007eec:	12711823          	sh	t2,304(sp)

0000000080007ef0 <i_7828>:
    80007ef0:	036d3b33          	mulhu	s6,s10,s6

0000000080007ef4 <i_7829>:
    80007ef4:	eb615c03          	lhu	s8,-330(sp)

0000000080007ef8 <i_7830>:
    80007ef8:	e6814783          	lbu	a5,-408(sp)

0000000080007efc <i_7831>:
    80007efc:	f6813283          	ld	t0,-152(sp)

0000000080007f00 <i_7832>:
    80007f00:	fb610d23          	sb	s6,-70(sp)

0000000080007f04 <i_7833>:
    80007f04:	002d1b1b          	slliw	s6,s10,0x2

0000000080007f08 <i_7834>:
    80007f08:	0297e063          	bltu	a5,s1,80007f28 <i_7842>

0000000080007f0c <i_7835>:
    80007f0c:	0382bb33          	mulhu	s6,t0,s8

0000000080007f10 <i_7836>:
    80007f10:	f1e10783          	lb	a5,-226(sp)

0000000080007f14 <i_7837>:
    80007f14:	01978863          	beq	a5,s9,80007f24 <i_7841>

0000000080007f18 <i_7838>:
    80007f18:	e5615183          	lhu	gp,-426(sp)

0000000080007f1c <i_7839>:
    80007f1c:	00f40bb3          	add	s7,s0,a5

0000000080007f20 <i_7840>:
    80007f20:	005b4663          	blt	s6,t0,80007f2c <i_7843>

0000000080007f24 <i_7841>:
    80007f24:	002bf863          	bleu	sp,s7,80007f34 <i_7845>

0000000080007f28 <i_7842>:
    80007f28:	fd816b03          	lwu	s6,-40(sp)

0000000080007f2c <i_7843>:
    80007f2c:	036b8263          	beq	s7,s6,80007f50 <i_7852>

0000000080007f30 <i_7844>:
    80007f30:	ee015b83          	lhu	s7,-288(sp)

0000000080007f34 <i_7845>:
    80007f34:	01719e63          	bne	gp,s7,80007f50 <i_7852>

0000000080007f38 <i_7846>:
    80007f38:	e76100a3          	sb	s6,-415(sp)

0000000080007f3c <i_7847>:
    80007f3c:	fca15c83          	lhu	s9,-54(sp)

0000000080007f40 <i_7848>:
    80007f40:	00100193          	li	gp,1

0000000080007f44 <i_7849>:
    80007f44:	003bd6b3          	srl	a3,s7,gp

0000000080007f48 <i_7850>:
    80007f48:	01b00193          	li	gp,27

0000000080007f4c <i_7851>:
    80007f4c:	00319b3b          	sllw	s6,gp,gp

0000000080007f50 <i_7852>:
    80007f50:	11c15f03          	lhu	t5,284(sp)

0000000080007f54 <i_7853>:
    80007f54:	02d1a9b3          	mulhsu	s3,gp,a3

0000000080007f58 <i_7854>:
    80007f58:	0de11683          	lh	a3,222(sp)

0000000080007f5c <i_7855>:
    80007f5c:	e2a10583          	lb	a1,-470(sp)

0000000080007f60 <i_7856>:
    80007f60:	82d00793          	li	a5,-2003

0000000080007f64 <i_7857>:
    80007f64:	83f00093          	li	ra,-1985

0000000080007f68 <i_7858>:
    80007f68:	00178793          	addi	a5,a5,1
    80007f6c:	fef0dee3          	ble	a5,ra,80007f68 <i_7858>

0000000080007f70 <i_7859>:
    80007f70:	e3416e83          	lwu	t4,-460(sp)

0000000080007f74 <i_7860>:
    80007f74:	0031cc63          	blt	gp,gp,80007f8c <i_7866>

0000000080007f78 <i_7861>:
    80007f78:	00cf5863          	ble	a2,t5,80007f88 <i_7865>

0000000080007f7c <i_7862>:
    80007f7c:	00365613          	srli	a2,a2,0x3

0000000080007f80 <i_7863>:
    80007f80:	e1914f03          	lbu	t5,-487(sp)

0000000080007f84 <i_7864>:
    80007f84:	06012803          	lw	a6,96(sp)

0000000080007f88 <i_7865>:
    80007f88:	03dadbb3          	divu	s7,s5,t4

0000000080007f8c <i_7866>:
    80007f8c:	f5e11223          	sh	t5,-188(sp)

0000000080007f90 <i_7867>:
    80007f90:	033bcf33          	div	t5,s7,s3

0000000080007f94 <i_7868>:
    80007f94:	7a500a93          	li	s5,1957

0000000080007f98 <i_7869>:
    80007f98:	7b500e93          	li	t4,1973

0000000080007f9c <i_7870>:
    80007f9c:	3eaf6f13          	ori	t5,t5,1002

0000000080007fa0 <i_7871>:
    80007fa0:	d61aef13          	ori	t5,s5,-671

0000000080007fa4 <i_7872>:
    80007fa4:	eb9a3a13          	sltiu	s4,s4,-327

0000000080007fa8 <i_7873>:
    80007fa8:	0019db9b          	srliw	s7,s3,0x1

0000000080007fac <i_7874>:
    80007fac:	00000013          	nop

0000000080007fb0 <i_7875>:
    80007fb0:	f7f13423          	sd	t6,-152(sp)

0000000080007fb4 <i_7876>:
    80007fb4:	01e00f13          	li	t5,30

0000000080007fb8 <i_7877>:
    80007fb8:	41ead3bb          	sraw	t2,s5,t5

0000000080007fbc <i_7878>:
    80007fbc:	02e3e263          	bltu	t2,a4,80007fe0 <i_7886>

0000000080007fc0 <i_7879>:
    80007fc0:	001a8a93          	addi	s5,s5,1
    80007fc4:	fd5efce3          	bleu	s5,t4,80007f9c <i_7870>

0000000080007fc8 <i_7880>:
    80007fc8:	007f5a63          	ble	t2,t5,80007fdc <i_7885>

0000000080007fcc <i_7881>:
    80007fcc:	17413c23          	sd	s4,376(sp)

0000000080007fd0 <i_7882>:
    80007fd0:	0c411383          	lh	t2,196(sp)

0000000080007fd4 <i_7883>:
    80007fd4:	e3414a03          	lbu	s4,-460(sp)

0000000080007fd8 <i_7884>:
    80007fd8:	01c00813          	li	a6,28

0000000080007fdc <i_7885>:
    80007fdc:	0103d3bb          	srlw	t2,t2,a6

0000000080007fe0 <i_7886>:
    80007fe0:	038813b3          	mulh	t2,a6,s8

0000000080007fe4 <i_7887>:
    80007fe4:	027853bb          	divuw	t2,a6,t2

0000000080007fe8 <i_7888>:
    80007fe8:	e8013c03          	ld	s8,-384(sp)

0000000080007fec <i_7889>:
    80007fec:	0143b533          	sltu	a0,t2,s4

0000000080007ff0 <i_7890>:
    80007ff0:	83a00a13          	li	s4,-1990

0000000080007ff4 <i_7891>:
    80007ff4:	84100d93          	li	s11,-1983

0000000080007ff8 <i_7892>:
    80007ff8:	027b6b33          	rem	s6,s6,t2

0000000080007ffc <i_7893>:
    80007ffc:	f6813183          	ld	gp,-152(sp)

0000000080008000 <i_7894>:
    80008000:	00385863          	ble	gp,a6,80008010 <i_7898>

0000000080008004 <i_7895>:
    80008004:	e2312623          	sw	gp,-468(sp)

0000000080008008 <i_7896>:
    80008008:	00000013          	nop

000000008000800c <i_7897>:
    8000800c:	6a69d317          	auipc	t1,0x6a69d

0000000080008010 <i_7898>:
    80008010:	407d8eb3          	sub	t4,s11,t2

0000000080008014 <i_7899>:
    80008014:	ccf30093          	addi	ra,t1,-817 # ea6a4cdb <_end+0x6a6948c7>

0000000080008018 <i_7900>:
    80008018:	ee111423          	sh	ra,-280(sp)

000000008000801c <i_7901>:
    8000801c:	fa613823          	sd	t1,-80(sp)

0000000080008020 <i_7902>:
    80008020:	f5813303          	ld	t1,-168(sp)

0000000080008024 <i_7903>:
    80008024:	01816483          	lwu	s1,24(sp)

0000000080008028 <i_7904>:
    80008028:	1e112023          	sw	ra,480(sp)

000000008000802c <i_7905>:
    8000802c:	001a0a13          	addi	s4,s4,1
    80008030:	fd4dd4e3          	ble	s4,s11,80007ff8 <i_7892>

0000000080008034 <i_7906>:
    80008034:	4c0d4693          	xori	a3,s10,1216

0000000080008038 <i_7907>:
    80008038:	1d812083          	lw	ra,472(sp)

000000008000803c <i_7908>:
    8000803c:	82700f13          	li	t5,-2009

0000000080008040 <i_7909>:
    80008040:	83300e13          	li	t3,-1997

0000000080008044 <i_7910>:
    80008044:	001e7a63          	bleu	ra,t3,80008058 <i_7915>

0000000080008048 <i_7911>:
    80008048:	1cd13c23          	sd	a3,472(sp)

000000008000804c <i_7912>:
    8000804c:	e3c13423          	sd	t3,-472(sp)

0000000080008050 <i_7913>:
    80008050:	f3c10623          	sb	t3,-212(sp)

0000000080008054 <i_7914>:
    80008054:	001a1863          	bne	s4,ra,80008064 <i_7918>

0000000080008058 <i_7915>:
    80008058:	00000013          	nop

000000008000805c <i_7916>:
    8000805c:	001e1263          	bne	t3,ra,80008060 <i_7917>

0000000080008060 <i_7917>:
    80008060:	f8d10923          	sb	a3,-110(sp)

0000000080008064 <i_7918>:
    80008064:	0d013083          	ld	ra,208(sp)

0000000080008068 <i_7919>:
    80008068:	e3114b83          	lbu	s7,-463(sp)

000000008000806c <i_7920>:
    8000806c:	00000013          	nop

0000000080008070 <i_7921>:
    80008070:	001f0f13          	addi	t5,t5,1 # 6368c001 <main-0x1c973fff>
    80008074:	fdcf18e3          	bne	t5,t3,80008044 <i_7910>

0000000080008078 <i_7922>:
    80008078:	09813483          	ld	s1,152(sp)

000000008000807c <i_7923>:
    8000807c:	0375c4bb          	divw	s1,a1,s7

0000000080008080 <i_7924>:
    80008080:	40e68e33          	sub	t3,a3,a4

0000000080008084 <i_7925>:
    80008084:	03a0d063          	ble	s10,ra,800080a4 <i_7933>

0000000080008088 <i_7926>:
    80008088:	0296cbb3          	div	s7,a3,s1

000000008000808c <i_7927>:
    8000808c:	e3713423          	sd	s7,-472(sp)

0000000080008090 <i_7928>:
    80008090:	02198333          	mul	t1,s3,ra

0000000080008094 <i_7929>:
    80008094:	0096fc63          	bleu	s1,a3,800080ac <i_7935>

0000000080008098 <i_7930>:
    80008098:	0bb14603          	lbu	a2,187(sp)

000000008000809c <i_7931>:
    8000809c:	00c4e263          	bltu	s1,a2,800080a0 <i_7932>

00000000800080a0 <i_7932>:
    800080a0:	0344d4b3          	divu	s1,s1,s4

00000000800080a4 <i_7933>:
    800080a4:	ec812383          	lw	t2,-312(sp)

00000000800080a8 <i_7934>:
    800080a8:	00c3f663          	bleu	a2,t2,800080b4 <i_7937>

00000000800080ac <i_7935>:
    800080ac:	e2912223          	sw	s1,-476(sp)

00000000800080b0 <i_7936>:
    800080b0:	0064b533          	sltu	a0,s1,t1

00000000800080b4 <i_7937>:
    800080b4:	a92fbe97          	auipc	t4,0xa92fb

00000000800080b8 <i_7938>:
    800080b8:	01950c63          	beq	a0,s9,800080d0 <i_7944>

00000000800080bc <i_7939>:
    800080bc:	10816c83          	lwu	s9,264(sp)

00000000800080c0 <i_7940>:
    800080c0:	977ecc93          	xori	s9,t4,-1673

00000000800080c4 <i_7941>:
    800080c4:	01d56c63          	bltu	a0,t4,800080dc <i_7947>

00000000800080c8 <i_7942>:
    800080c8:	11310e83          	lb	t4,275(sp)

00000000800080cc <i_7943>:
    800080cc:	fdc15c03          	lhu	s8,-36(sp)

00000000800080d0 <i_7944>:
    800080d0:	03dc8cbb          	mulw	s9,s9,t4

00000000800080d4 <i_7945>:
    800080d4:	003cdf1b          	srliw	t5,s9,0x3

00000000800080d8 <i_7946>:
    800080d8:	001b4e63          	blt	s6,ra,800080f4 <i_7953>

00000000800080dc <i_7947>:
    800080dc:	01df7e63          	bleu	t4,t5,800080f8 <i_7954>

00000000800080e0 <i_7948>:
    800080e0:	12813c83          	ld	s9,296(sp)

00000000800080e4 <i_7949>:
    800080e4:	01dc9c63          	bne	s9,t4,800080fc <i_7955>

00000000800080e8 <i_7950>:
    800080e8:	021f40bb          	divw	ra,t5,ra

00000000800080ec <i_7951>:
    800080ec:	16c14f03          	lbu	t5,364(sp)

00000000800080f0 <i_7952>:
    800080f0:	06a12a23          	sw	a0,116(sp)

00000000800080f4 <i_7953>:
    800080f4:	13a10a03          	lb	s4,314(sp)

00000000800080f8 <i_7954>:
    800080f8:	17a11c23          	sh	s10,376(sp)

00000000800080fc <i_7955>:
    800080fc:	0029999b          	slliw	s3,s3,0x2

0000000080008100 <i_7956>:
    80008100:	01900393          	li	t2,25

0000000080008104 <i_7957>:
    80008104:	007c9cb3          	sll	s9,s9,t2

0000000080008108 <i_7958>:
    80008108:	033e7bb3          	remu	s7,t3,s3

000000008000810c <i_7959>:
    8000810c:	10c12603          	lw	a2,268(sp)

0000000080008110 <i_7960>:
    80008110:	021bc2b3          	div	t0,s7,ra

0000000080008114 <i_7961>:
    80008114:	01712e23          	sw	s7,28(sp)

0000000080008118 <i_7962>:
    80008118:	11713423          	sd	s7,264(sp)

000000008000811c <i_7963>:
    8000811c:	1ecfe297          	auipc	t0,0x1ecfe

0000000080008120 <i_7964>:
    80008120:	037b8633          	mul	a2,s7,s7

0000000080008124 <i_7965>:
    80008124:	10816b83          	lwu	s7,264(sp)

0000000080008128 <i_7966>:
    80008128:	0a016b83          	lwu	s7,160(sp)

000000008000812c <i_7967>:
    8000812c:	0be15203          	lhu	tp,190(sp)

0000000080008130 <i_7968>:
    80008130:	00420e63          	beq	tp,tp,8000814c <i_7975>

0000000080008134 <i_7969>:
    80008134:	00816603          	lwu	a2,8(sp)

0000000080008138 <i_7970>:
    80008138:	004bc263          	blt	s7,tp,8000813c <i_7971>

000000008000813c <i_7971>:
    8000813c:	f7416583          	lwu	a1,-140(sp)

0000000080008140 <i_7972>:
    80008140:	f7f12023          	sw	t6,-160(sp)

0000000080008144 <i_7973>:
    80008144:	017bdc63          	ble	s7,s7,8000815c <i_7979>

0000000080008148 <i_7974>:
    80008148:	0a411583          	lh	a1,164(sp)

000000008000814c <i_7975>:
    8000814c:	00e00593          	li	a1,14

0000000080008150 <i_7976>:
    80008150:	40b65633          	sra	a2,a2,a1

0000000080008154 <i_7977>:
    80008154:	e47beb93          	ori	s7,s7,-441

0000000080008158 <i_7978>:
    80008158:	019cbcb3          	sltu	s9,s9,s9

000000008000815c <i_7979>:
    8000815c:	01796a63          	bltu	s2,s7,80008170 <i_7984>

0000000080008160 <i_7980>:
    80008160:	fff10983          	lb	s3,-1(sp)

0000000080008164 <i_7981>:
    80008164:	fd714f03          	lbu	t5,-41(sp)

0000000080008168 <i_7982>:
    80008168:	02013b03          	ld	s6,32(sp)

000000008000816c <i_7983>:
    8000816c:	04b11223          	sh	a1,68(sp)

0000000080008170 <i_7984>:
    80008170:	06b11223          	sh	a1,100(sp)

0000000080008174 <i_7985>:
    80008174:	03ef1263          	bne	t5,t5,80008198 <i_7994>

0000000080008178 <i_7986>:
    80008178:	ff813f03          	ld	t5,-8(sp)

000000008000817c <i_7987>:
    8000817c:	401cd59b          	sraiw	a1,s9,0x1

0000000080008180 <i_7988>:
    80008180:	19e12e23          	sw	t5,412(sp)

0000000080008184 <i_7989>:
    80008184:	00f5bc33          	sltu	s8,a1,a5

0000000080008188 <i_7990>:
    80008188:	fbe13423          	sd	t5,-88(sp)

000000008000818c <i_7991>:
    8000818c:	02bf7263          	bleu	a1,t5,800081b0 <i_8000>

0000000080008190 <i_7992>:
    80008190:	01ed4863          	blt	s10,t5,800081a0 <i_7996>

0000000080008194 <i_7993>:
    80008194:	18813d83          	ld	s11,392(sp)

0000000080008198 <i_7994>:
    80008198:	018f5663          	ble	s8,t5,800081a4 <i_7997>

000000008000819c <i_7995>:
    8000819c:	e6714f03          	lbu	t5,-409(sp)

00000000800081a0 <i_7996>:
    800081a0:	08c15d83          	lhu	s11,140(sp)

00000000800081a4 <i_7997>:
    800081a4:	01210303          	lb	t1,18(sp)

00000000800081a8 <i_7998>:
    800081a8:	e1e11d03          	lh	s10,-482(sp)

00000000800081ac <i_7999>:
    800081ac:	ecf11923          	sh	a5,-302(sp)

00000000800081b0 <i_8000>:
    800081b0:	f9112023          	sw	a7,-128(sp)

00000000800081b4 <i_8001>:
    800081b4:	00c15303          	lhu	t1,12(sp)

00000000800081b8 <i_8002>:
    800081b8:	f6611b03          	lh	s6,-154(sp)

00000000800081bc <i_8003>:
    800081bc:	0fc16583          	lwu	a1,252(sp)

00000000800081c0 <i_8004>:
    800081c0:	e4b10ba3          	sb	a1,-425(sp)

00000000800081c4 <i_8005>:
    800081c4:	09810183          	lb	gp,152(sp)

00000000800081c8 <i_8006>:
    800081c8:	05210c83          	lb	s9,82(sp)

00000000800081cc <i_8007>:
    800081cc:	f5812023          	sw	s8,-192(sp)

00000000800081d0 <i_8008>:
    800081d0:	08416c03          	lwu	s8,132(sp)

00000000800081d4 <i_8009>:
    800081d4:	046109a3          	sb	t1,83(sp)

00000000800081d8 <i_8010>:
    800081d8:	f9011d03          	lh	s10,-112(sp)

00000000800081dc <i_8011>:
    800081dc:	f4812583          	lw	a1,-184(sp)

00000000800081e0 <i_8012>:
    800081e0:	05214983          	lbu	s3,82(sp)

00000000800081e4 <i_8013>:
    800081e4:	0371ef33          	rem	t5,gp,s7

00000000800081e8 <i_8014>:
    800081e8:	02bd6263          	bltu	s10,a1,8000820c <i_8023>

00000000800081ec <i_8015>:
    800081ec:	033c0f33          	mul	t5,s8,s3

00000000800081f0 <i_8016>:
    800081f0:	02e9e463          	bltu	s3,a4,80008218 <i_8026>

00000000800081f4 <i_8017>:
    800081f4:	02bd1063          	bne	s10,a1,80008214 <i_8025>

00000000800081f8 <i_8018>:
    800081f8:	00200213          	li	tp,2

00000000800081fc <i_8019>:
    800081fc:	4040d4bb          	sraw	s1,ra,tp

0000000080008200 <i_8020>:
    80008200:	01100413          	li	s0,17

0000000080008204 <i_8021>:
    80008204:	4089d4bb          	sraw	s1,s3,s0

0000000080008208 <i_8022>:
    80008208:	359c4c93          	xori	s9,s8,857

000000008000820c <i_8023>:
    8000820c:	01941263          	bne	s0,s9,80008210 <i_8024>

0000000080008210 <i_8024>:
    80008210:	e2b11523          	sh	a1,-470(sp)

0000000080008214 <i_8025>:
    80008214:	00600d93          	li	s11,6

0000000080008218 <i_8026>:
    80008218:	01ba1c3b          	sllw	s8,s4,s11

000000008000821c <i_8027>:
    8000821c:	01f00993          	li	s3,31

0000000080008220 <i_8028>:
    80008220:	013c1c33          	sll	s8,s8,s3

0000000080008224 <i_8029>:
    80008224:	84600813          	li	a6,-1978

0000000080008228 <i_8030>:
    80008228:	84f00413          	li	s0,-1969

000000008000822c <i_8031>:
    8000822c:	16810a83          	lb	s5,360(sp)

0000000080008230 <i_8032>:
    80008230:	0185d463          	ble	s8,a1,80008238 <i_8034>

0000000080008234 <i_8033>:
    80008234:	11813983          	ld	s3,280(sp)

0000000080008238 <i_8034>:
    80008238:	03398663          	beq	s3,s3,80008264 <i_8044>

000000008000823c <i_8035>:
    8000823c:	18313023          	sd	gp,384(sp)

0000000080008240 <i_8036>:
    80008240:	15415503          	lhu	a0,340(sp)

0000000080008244 <i_8037>:
    80008244:	fc816983          	lwu	s3,-56(sp)

0000000080008248 <i_8038>:
    80008248:	00180813          	addi	a6,a6,1 # 3410bad1 <main-0x4bef452f>
    8000824c:	fc881ee3          	bne	a6,s0,80008228 <i_8030>

0000000080008250 <i_8039>:
    80008250:	bb198693          	addi	a3,s3,-1103

0000000080008254 <i_8040>:
    80008254:	00013983          	ld	s3,0(sp)

0000000080008258 <i_8041>:
    80008258:	00000013          	nop

000000008000825c <i_8042>:
    8000825c:	eb614483          	lbu	s1,-330(sp)

0000000080008260 <i_8043>:
    80008260:	02d9c0b3          	div	ra,s3,a3

0000000080008264 <i_8044>:
    80008264:	00013c83          	ld	s9,0(sp)

0000000080008268 <i_8045>:
    80008268:	1b9104a3          	sb	s9,425(sp)

000000008000826c <i_8046>:
    8000826c:	78a00f13          	li	t5,1930

0000000080008270 <i_8047>:
    80008270:	79c00193          	li	gp,1948

0000000080008274 <i_8048>:
    80008274:	00000013          	nop

0000000080008278 <i_8049>:
    80008278:	06d13423          	sd	a3,104(sp)

000000008000827c <i_8050>:
    8000827c:	1c311f23          	sh	gp,478(sp)

0000000080008280 <i_8051>:
    80008280:	1d110983          	lb	s3,465(sp)

0000000080008284 <i_8052>:
    80008284:	fc012203          	lw	tp,-64(sp)

0000000080008288 <i_8053>:
    80008288:	00911623          	sh	s1,12(sp)

000000008000828c <i_8054>:
    8000828c:	ff813483          	ld	s1,-8(sp)

0000000080008290 <i_8055>:
    80008290:	17815383          	lhu	t2,376(sp)

0000000080008294 <i_8056>:
    80008294:	f5011983          	lh	s3,-176(sp)

0000000080008298 <i_8057>:
    80008298:	001f0f13          	addi	t5,t5,1
    8000829c:	fde19ce3          	bne	gp,t5,80008274 <i_8048>

00000000800082a0 <i_8058>:
    800082a0:	033480b3          	mul	ra,s1,s3

00000000800082a4 <i_8059>:
    800082a4:	05313023          	sd	s3,64(sp)

00000000800082a8 <i_8060>:
    800082a8:	00dcce63          	blt	s9,a3,800082c4 <i_8067>

00000000800082ac <i_8061>:
    800082ac:	eb511c23          	sh	s5,-328(sp)

00000000800082b0 <i_8062>:
    800082b0:	03e1f063          	bleu	t5,gp,800082d0 <i_8070>

00000000800082b4 <i_8063>:
    800082b4:	9bf2b293          	sltiu	t0,t0,-1601

00000000800082b8 <i_8064>:
    800082b8:	0139fc33          	and	s8,s3,s3

00000000800082bc <i_8065>:
    800082bc:	e6210983          	lb	s3,-414(sp)

00000000800082c0 <i_8066>:
    800082c0:	ff012283          	lw	t0,-16(sp)

00000000800082c4 <i_8067>:
    800082c4:	6862b413          	sltiu	s0,t0,1670

00000000800082c8 <i_8068>:
    800082c8:	f6e15d83          	lhu	s11,-146(sp)

00000000800082cc <i_8069>:
    800082cc:	01e2fe33          	and	t3,t0,t5

00000000800082d0 <i_8070>:
    800082d0:	0b812d83          	lw	s11,184(sp)

00000000800082d4 <i_8071>:
    800082d4:	ffb10803          	lb	a6,-5(sp)

00000000800082d8 <i_8072>:
    800082d8:	77200413          	li	s0,1906

00000000800082dc <i_8073>:
    800082dc:	77d00f13          	li	t5,1917

00000000800082e0 <i_8074>:
    800082e0:	ebc14e83          	lbu	t4,-324(sp)

00000000800082e4 <i_8075>:
    800082e4:	01c41a63          	bne	s0,t3,800082f8 <i_8080>

00000000800082e8 <i_8076>:
    800082e8:	e2012183          	lw	gp,-480(sp)

00000000800082ec <i_8077>:
    800082ec:	01c9fa63          	bleu	t3,s3,80008300 <i_8082>

00000000800082f0 <i_8078>:
    800082f0:	e5e15183          	lhu	gp,-418(sp)

00000000800082f4 <i_8079>:
    800082f4:	00000013          	nop

00000000800082f8 <i_8080>:
    800082f8:	eb911e23          	sh	s9,-324(sp)

00000000800082fc <i_8081>:
    800082fc:	00000013          	nop

0000000080008300 <i_8082>:
    80008300:	eec16783          	lwu	a5,-276(sp)

0000000080008304 <i_8083>:
    80008304:	e2813423          	sd	s0,-472(sp)

0000000080008308 <i_8084>:
    80008308:	00140413          	addi	s0,s0,1
    8000830c:	fde44ae3          	blt	s0,t5,800082e0 <i_8074>

0000000080008310 <i_8085>:
    80008310:	03bdf3b3          	remu	t2,s11,s11

0000000080008314 <i_8086>:
    80008314:	edc16683          	lwu	a3,-292(sp)

0000000080008318 <i_8087>:
    80008318:	9645ab17          	auipc	s6,0x9645a

000000008000831c <i_8088>:
    8000831c:	01b47263          	bleu	s11,s0,80008320 <i_8089>

0000000080008320 <i_8089>:
    80008320:	09012303          	lw	t1,144(sp)

0000000080008324 <i_8090>:
    80008324:	03a00793          	li	a5,58

0000000080008328 <i_8091>:
    80008328:	00fb11b3          	sll	gp,s6,a5

000000008000832c <i_8092>:
    8000832c:	03b10a83          	lb	s5,59(sp)

0000000080008330 <i_8093>:
    80008330:	fc211e03          	lh	t3,-62(sp)

0000000080008334 <i_8094>:
    80008334:	0053f263          	bleu	t0,t2,80008338 <i_8095>

0000000080008338 <i_8095>:
    80008338:	0278e063          	bltu	a7,t2,80008358 <i_8103>

000000008000833c <i_8096>:
    8000833c:	01bde263          	bltu	s11,s11,80008340 <i_8097>

0000000080008340 <i_8097>:
    80008340:	0357b3b3          	mulhu	t2,a5,s5

0000000080008344 <i_8098>:
    80008344:	0357f063          	bleu	s5,a5,80008364 <i_8106>

0000000080008348 <i_8099>:
    80008348:	00b3ce63          	blt	t2,a1,80008364 <i_8106>

000000008000834c <i_8100>:
    8000834c:	54fa879b          	addiw	a5,s5,1359

0000000080008350 <i_8101>:
    80008350:	00a7b533          	sltu	a0,a5,a0

0000000080008354 <i_8102>:
    80008354:	2937a693          	slti	a3,a5,659

0000000080008358 <i_8103>:
    80008358:	08412603          	lw	a2,132(sp)

000000008000835c <i_8104>:
    8000835c:	08c12c03          	lw	s8,140(sp)

0000000080008360 <i_8105>:
    80008360:	09410603          	lb	a2,148(sp)

0000000080008364 <i_8106>:
    80008364:	015f77b3          	and	a5,t5,s5

0000000080008368 <i_8107>:
    80008368:	01850263          	beq	a0,s8,8000836c <i_8108>

000000008000836c <i_8108>:
    8000836c:	ef3101a3          	sb	s3,-285(sp)

0000000080008370 <i_8109>:
    80008370:	17511423          	sh	s5,360(sp)

0000000080008374 <i_8110>:
    80008374:	4049d99b          	sraiw	s3,s3,0x4

0000000080008378 <i_8111>:
    80008378:	00c9c863          	blt	s3,a2,80008388 <i_8115>

000000008000837c <i_8112>:
    8000837c:	02a98633          	mul	a2,s3,a0

0000000080008380 <i_8113>:
    80008380:	1a815983          	lhu	s3,424(sp)

0000000080008384 <i_8114>:
    80008384:	03100513          	li	a0,49

0000000080008388 <i_8115>:
    80008388:	00a61633          	sll	a2,a2,a0

000000008000838c <i_8116>:
    8000838c:	02400393          	li	t2,36

0000000080008390 <i_8117>:
    80008390:	00751833          	sll	a6,a0,t2

0000000080008394 <i_8118>:
    80008394:	e8a12623          	sw	a0,-372(sp)

0000000080008398 <i_8119>:
    80008398:	eaa12e23          	sw	a0,-324(sp)

000000008000839c <i_8120>:
    8000839c:	02f989bb          	mulw	s3,s3,a5

00000000800083a0 <i_8121>:
    800083a0:	00a56863          	bltu	a0,a0,800083b0 <i_8125>

00000000800083a4 <i_8122>:
    800083a4:	01c00513          	li	a0,28

00000000800083a8 <i_8123>:
    800083a8:	00a999bb          	sllw	s3,s3,a0

00000000800083ac <i_8124>:
    800083ac:	0dc11b83          	lh	s7,220(sp)

00000000800083b0 <i_8125>:
    800083b0:	0369d063          	ble	s6,s3,800083d0 <i_8133>

00000000800083b4 <i_8126>:
    800083b4:	02a51463          	bne	a0,a0,800083dc <i_8136>

00000000800083b8 <i_8127>:
    800083b8:	e4013983          	ld	s3,-448(sp)

00000000800083bc <i_8128>:
    800083bc:	0aa12c23          	sw	a0,184(sp)

00000000800083c0 <i_8129>:
    800083c0:	ef211d83          	lh	s11,-270(sp)

00000000800083c4 <i_8130>:
    800083c4:	ee611183          	lh	gp,-282(sp)

00000000800083c8 <i_8131>:
    800083c8:	f3611783          	lh	a5,-202(sp)

00000000800083cc <i_8132>:
    800083cc:	017dee63          	bltu	s11,s7,800083e8 <i_8139>

00000000800083d0 <i_8133>:
    800083d0:	02f78bbb          	mulw	s7,a5,a5

00000000800083d4 <i_8134>:
    800083d4:	02b1c263          	blt	gp,a1,800083f8 <i_8143>

00000000800083d8 <i_8135>:
    800083d8:	0171fa63          	bleu	s7,gp,800083ec <i_8140>

00000000800083dc <i_8136>:
    800083dc:	05011b83          	lh	s7,80(sp)

00000000800083e0 <i_8137>:
    800083e0:	037bfbb3          	remu	s7,s7,s7

00000000800083e4 <i_8138>:
    800083e4:	eab102a3          	sb	a1,-347(sp)

00000000800083e8 <i_8139>:
    800083e8:	02bbe263          	bltu	s7,a1,8000840c <i_8148>

00000000800083ec <i_8140>:
    800083ec:	1cf10323          	sb	a5,454(sp)

00000000800083f0 <i_8141>:
    800083f0:	003bf863          	bleu	gp,s7,80008400 <i_8145>

00000000800083f4 <i_8142>:
    800083f4:	14610603          	lb	a2,326(sp)

00000000800083f8 <i_8143>:
    800083f8:	0cf11723          	sh	a5,206(sp)

00000000800083fc <i_8144>:
    800083fc:	00600a93          	li	s5,6

0000000080008400 <i_8145>:
    80008400:	415bdbb3          	sra	s7,s7,s5

0000000080008404 <i_8146>:
    80008404:	a2a6dc37          	lui	s8,0xa2a6d

0000000080008408 <i_8147>:
    80008408:	ee313023          	sd	gp,-288(sp)

000000008000840c <i_8148>:
    8000840c:	00000013          	nop

0000000080008410 <i_8149>:
    80008410:	18b14183          	lbu	gp,395(sp)

0000000080008414 <i_8150>:
    80008414:	73500b93          	li	s7,1845

0000000080008418 <i_8151>:
    80008418:	74200a93          	li	s5,1858

000000008000841c <i_8152>:
    8000841c:	14012c03          	lw	s8,320(sp)

0000000080008420 <i_8153>:
    80008420:	00000013          	nop

0000000080008424 <i_8154>:
    80008424:	0f014183          	lbu	gp,240(sp)

0000000080008428 <i_8155>:
    80008428:	e8016783          	lwu	a5,-384(sp)

000000008000842c <i_8156>:
    8000842c:	001b8b93          	addi	s7,s7,1
    80008430:	ff7af6e3          	bleu	s7,s5,8000841c <i_8152>

0000000080008434 <i_8157>:
    80008434:	e9811783          	lh	a5,-360(sp)

0000000080008438 <i_8158>:
    80008438:	0057f2b3          	and	t0,a5,t0

000000008000843c <i_8159>:
    8000843c:	4367fb93          	andi	s7,a5,1078

0000000080008440 <i_8160>:
    80008440:	1da15c83          	lhu	s9,474(sp)

0000000080008444 <i_8161>:
    80008444:	02f1a2b3          	mulhsu	t0,gp,a5

0000000080008448 <i_8162>:
    80008448:	e8c20d1b          	addiw	s10,tp,-372

000000008000844c <i_8163>:
    8000844c:	e46ce193          	ori	gp,s9,-442

0000000080008450 <i_8164>:
    80008450:	019cca63          	blt	s9,s9,80008464 <i_8169>

0000000080008454 <i_8165>:
    80008454:	01918e63          	beq	gp,s9,80008470 <i_8172>

0000000080008458 <i_8166>:
    80008458:	003d7663          	bleu	gp,s10,80008464 <i_8169>

000000008000845c <i_8167>:
    8000845c:	ffa12023          	sw	s10,-32(sp)

0000000080008460 <i_8168>:
    80008460:	01a1c263          	blt	gp,s10,80008464 <i_8169>

0000000080008464 <i_8169>:
    80008464:	0141ed33          	or	s10,gp,s4

0000000080008468 <i_8170>:
    80008468:	e2c11083          	lh	ra,-468(sp)

000000008000846c <i_8171>:
    8000846c:	03100313          	li	t1,49

0000000080008470 <i_8172>:
    80008470:	40635333          	sra	t1,t1,t1

0000000080008474 <i_8173>:
    80008474:	f0013d03          	ld	s10,-256(sp)

0000000080008478 <i_8174>:
    80008478:	026edebb          	divuw	t4,t4,t1

000000008000847c <i_8175>:
    8000847c:	022576b7          	lui	a3,0x2257

0000000080008480 <i_8176>:
    80008480:	fc811d03          	lh	s10,-56(sp)

0000000080008484 <i_8177>:
    80008484:	e8110da3          	sb	ra,-357(sp)

0000000080008488 <i_8178>:
    80008488:	0306feb3          	remu	t4,a3,a6

000000008000848c <i_8179>:
    8000848c:	e5a15083          	lhu	ra,-422(sp)

0000000080008490 <i_8180>:
    80008490:	00328db3          	add	s11,t0,gp

0000000080008494 <i_8181>:
    80008494:	629769b7          	lui	s3,0x62976

0000000080008498 <i_8182>:
    80008498:	f2f12823          	sw	a5,-208(sp)

000000008000849c <i_8183>:
    8000849c:	03830bb3          	mul	s7,t1,s8

00000000800084a0 <i_8184>:
    800084a0:	bab34c37          	lui	s8,0xbab34

00000000800084a4 <i_8185>:
    800084a4:	05c12203          	lw	tp,92(sp)

00000000800084a8 <i_8186>:
    800084a8:	ed813823          	sd	s8,-304(sp)

00000000800084ac <i_8187>:
    800084ac:	f5013b03          	ld	s6,-176(sp)

00000000800084b0 <i_8188>:
    800084b0:	eb016203          	lwu	tp,-336(sp)

00000000800084b4 <i_8189>:
    800084b4:	0043e663          	bltu	t2,tp,800084c0 <i_8192>

00000000800084b8 <i_8190>:
    800084b8:	ee016403          	lwu	s0,-288(sp)

00000000800084bc <i_8191>:
    800084bc:	01500b93          	li	s7,21

00000000800084c0 <i_8192>:
    800084c0:	017797bb          	sllw	a5,a5,s7

00000000800084c4 <i_8193>:
    800084c4:	47127b13          	andi	s6,tp,1137

00000000800084c8 <i_8194>:
    800084c8:	1b612423          	sw	s6,424(sp)

00000000800084cc <i_8195>:
    800084cc:	02125463          	ble	ra,tp,800084f4 <i_8205>

00000000800084d0 <i_8196>:
    800084d0:	00479b13          	slli	s6,a5,0x4

00000000800084d4 <i_8197>:
    800084d4:	e4812823          	sw	s0,-432(sp)

00000000800084d8 <i_8198>:
    800084d8:	1b210583          	lb	a1,434(sp)

00000000800084dc <i_8199>:
    800084dc:	f3210823          	sb	s2,-208(sp)

00000000800084e0 <i_8200>:
    800084e0:	0d710ea3          	sb	s7,221(sp)

00000000800084e4 <i_8201>:
    800084e4:	fe211a83          	lh	s5,-30(sp)

00000000800084e8 <i_8202>:
    800084e8:	e3414d83          	lbu	s11,-460(sp)

00000000800084ec <i_8203>:
    800084ec:	00000013          	nop

00000000800084f0 <i_8204>:
    800084f0:	0a416c03          	lwu	s8,164(sp)

00000000800084f4 <i_8205>:
    800084f4:	00000013          	nop

00000000800084f8 <i_8206>:
    800084f8:	0365e63b          	remw	a2,a1,s6

00000000800084fc <i_8207>:
    800084fc:	75300693          	li	a3,1875

0000000080008500 <i_8208>:
    80008500:	76600f13          	li	t5,1894

0000000080008504 <i_8209>:
    80008504:	02b6c633          	div	a2,a3,a1

0000000080008508 <i_8210>:
    80008508:	e5e12623          	sw	t5,-436(sp)

000000008000850c <i_8211>:
    8000850c:	01e28263          	beq	t0,t5,80008510 <i_8212>

0000000080008510 <i_8212>:
    80008510:	0251f2b3          	remu	t0,gp,t0

0000000080008514 <i_8213>:
    80008514:	00100a93          	li	s5,1

0000000080008518 <i_8214>:
    80008518:	015e12bb          	sllw	t0,t3,s5

000000008000851c <i_8215>:
    8000851c:	00168693          	addi	a3,a3,1 # 2257001 <main-0x7dda8fff>
    80008520:	fedf52e3          	ble	a3,t5,80008504 <i_8209>

0000000080008524 <i_8216>:
    80008524:	0aa11f03          	lh	t5,170(sp)

0000000080008528 <i_8217>:
    80008528:	bff2e793          	ori	a5,t0,-1025

000000008000852c <i_8218>:
    8000852c:	03300793          	li	a5,51

0000000080008530 <i_8219>:
    80008530:	00f79333          	sll	t1,a5,a5

0000000080008534 <i_8220>:
    80008534:	04f13823          	sd	a5,80(sp)

0000000080008538 <i_8221>:
    80008538:	02f79333          	mulh	t1,a5,a5

000000008000853c <i_8222>:
    8000853c:	0267c7b3          	div	a5,a5,t1

0000000080008540 <i_8223>:
    80008540:	03ff8263          	beq	t6,t6,80008564 <i_8232>

0000000080008544 <i_8224>:
    80008544:	e2f12223          	sw	a5,-476(sp)

0000000080008548 <i_8225>:
    80008548:	03f10123          	sb	t6,34(sp)

000000008000854c <i_8226>:
    8000854c:	ef416183          	lwu	gp,-268(sp)

0000000080008550 <i_8227>:
    80008550:	1dbfe093          	ori	ra,t6,475

0000000080008554 <i_8228>:
    80008554:	fb013403          	ld	s0,-80(sp)

0000000080008558 <i_8229>:
    80008558:	00836e63          	bltu	t1,s0,80008574 <i_8236>

000000008000855c <i_8230>:
    8000855c:	0ef106a3          	sb	a5,237(sp)

0000000080008560 <i_8231>:
    80008560:	0087cb33          	xor	s6,a5,s0

0000000080008564 <i_8232>:
    80008564:	0c612423          	sw	t1,200(sp)

0000000080008568 <i_8233>:
    80008568:	0387dcb3          	divu	s9,a5,s8

000000008000856c <i_8234>:
    8000856c:	e1f10d03          	lb	s10,-481(sp)

0000000080008570 <i_8235>:
    80008570:	418d0c3b          	subw	s8,s10,s8

0000000080008574 <i_8236>:
    80008574:	ef314183          	lbu	gp,-269(sp)

0000000080008578 <i_8237>:
    80008578:	1dd13c23          	sd	t4,472(sp)

000000008000857c <i_8238>:
    8000857c:	ee313823          	sd	gp,-272(sp)

0000000080008580 <i_8239>:
    80008580:	0021999b          	slliw	s3,gp,0x2

0000000080008584 <i_8240>:
    80008584:	e2313c23          	sd	gp,-456(sp)

0000000080008588 <i_8241>:
    80008588:	02c9c3bb          	divw	t2,s3,a2

000000008000858c <i_8242>:
    8000858c:	00000013          	nop

0000000080008590 <i_8243>:
    80008590:	17d14603          	lbu	a2,381(sp)

0000000080008594 <i_8244>:
    80008594:	8cc00593          	li	a1,-1844

0000000080008598 <i_8245>:
    80008598:	8d000d13          	li	s10,-1840

000000008000859c <i_8246>:
    8000859c:	073109a3          	sb	s3,115(sp)

00000000800085a0 <i_8247>:
    800085a0:	0ca15783          	lhu	a5,202(sp)

00000000800085a4 <i_8248>:
    800085a4:	02e66663          	bltu	a2,a4,800085d0 <i_8258>

00000000800085a8 <i_8249>:
    800085a8:	00158593          	addi	a1,a1,1
    800085ac:	ffa5c8e3          	blt	a1,s10,8000859c <i_8246>

00000000800085b0 <i_8250>:
    800085b0:	e8815a83          	lhu	s5,-376(sp)

00000000800085b4 <i_8251>:
    800085b4:	03e00693          	li	a3,62

00000000800085b8 <i_8252>:
    800085b8:	40d9d9b3          	sra	s3,s3,a3

00000000800085bc <i_8253>:
    800085bc:	0f810f23          	sb	s8,254(sp)

00000000800085c0 <i_8254>:
    800085c0:	00100193          	li	gp,1

00000000800085c4 <i_8255>:
    800085c4:	003d1e33          	sll	t3,s10,gp

00000000800085c8 <i_8256>:
    800085c8:	f0011583          	lh	a1,-256(sp)

00000000800085cc <i_8257>:
    800085cc:	10410c03          	lb	s8,260(sp)

00000000800085d0 <i_8258>:
    800085d0:	e6c11d03          	lh	s10,-404(sp)

00000000800085d4 <i_8259>:
    800085d4:	eb810923          	sb	s8,-334(sp)

00000000800085d8 <i_8260>:
    800085d8:	fd910e03          	lb	t3,-39(sp)

00000000800085dc <i_8261>:
    800085dc:	01ae1e63          	bne	t3,s10,800085f8 <i_8268>

00000000800085e0 <i_8262>:
    800085e0:	0e016d83          	lwu	s11,224(sp)

00000000800085e4 <i_8263>:
    800085e4:	19812a23          	sw	s8,404(sp)

00000000800085e8 <i_8264>:
    800085e8:	18f10483          	lb	s1,399(sp)

00000000800085ec <i_8265>:
    800085ec:	f3b13823          	sd	s11,-208(sp)

00000000800085f0 <i_8266>:
    800085f0:	faa15403          	lhu	s0,-86(sp)

00000000800085f4 <i_8267>:
    800085f4:	03ad5d33          	divu	s10,s10,s10

00000000800085f8 <i_8268>:
    800085f8:	00000013          	nop

00000000800085fc <i_8269>:
    800085fc:	009e8bb3          	add	s7,t4,s1

0000000080008600 <i_8270>:
    80008600:	75200a93          	li	s5,1874

0000000080008604 <i_8271>:
    80008604:	75700e93          	li	t4,1879

0000000080008608 <i_8272>:
    80008608:	01c51263          	bne	a0,t3,8000860c <i_8273>

000000008000860c <i_8273>:
    8000860c:	03c43e33          	mulhu	t3,s0,t3

0000000080008610 <i_8274>:
    80008610:	f3514603          	lbu	a2,-203(sp)

0000000080008614 <i_8275>:
    80008614:	e9c12023          	sw	t3,-384(sp)

0000000080008618 <i_8276>:
    80008618:	96a67093          	andi	ra,a2,-1686

000000008000861c <i_8277>:
    8000861c:	028bc9bb          	divw	s3,s7,s0

0000000080008620 <i_8278>:
    80008620:	001a8a93          	addi	s5,s5,1
    80008624:	ff5ef2e3          	bleu	s5,t4,80008608 <i_8272>

0000000080008628 <i_8279>:
    80008628:	fc416b03          	lwu	s6,-60(sp)

000000008000862c <i_8280>:
    8000862c:	01760263          	beq	a2,s7,80008630 <i_8281>

0000000080008630 <i_8281>:
    80008630:	004b5b93          	srli	s7,s6,0x4

0000000080008634 <i_8282>:
    80008634:	07411603          	lh	a2,116(sp)

0000000080008638 <i_8283>:
    80008638:	00f00b13          	li	s6,15

000000008000863c <i_8284>:
    8000863c:	01661333          	sll	t1,a2,s6

0000000080008640 <i_8285>:
    80008640:	00815583          	lhu	a1,8(sp)

0000000080008644 <i_8286>:
    80008644:	06215683          	lhu	a3,98(sp)

0000000080008648 <i_8287>:
    80008648:	01660a63          	beq	a2,s6,8000865c <i_8292>

000000008000864c <i_8288>:
    8000864c:	0026561b          	srliw	a2,a2,0x2

0000000080008650 <i_8289>:
    80008650:	f8e14303          	lbu	t1,-114(sp)

0000000080008654 <i_8290>:
    80008654:	012beab3          	or	s5,s7,s2

0000000080008658 <i_8291>:
    80008658:	00d67e63          	bleu	a3,a2,80008674 <i_8298>

000000008000865c <i_8292>:
    8000865c:	01560633          	add	a2,a2,s5

0000000080008660 <i_8293>:
    80008660:	06d102a3          	sb	a3,101(sp)

0000000080008664 <i_8294>:
    80008664:	4a86061b          	addiw	a2,a2,1192

0000000080008668 <i_8295>:
    80008668:	02361063          	bne	a2,gp,80008688 <i_8303>

000000008000866c <i_8296>:
    8000866c:	12812183          	lw	gp,296(sp)

0000000080008670 <i_8297>:
    80008670:	02c61263          	bne	a2,a2,80008694 <i_8306>

0000000080008674 <i_8298>:
    80008674:	e9016583          	lwu	a1,-368(sp)

0000000080008678 <i_8299>:
    80008678:	4015d61b          	sraiw	a2,a1,0x1

000000008000867c <i_8300>:
    8000867c:	fca15683          	lhu	a3,-54(sp)

0000000080008680 <i_8301>:
    80008680:	00500b93          	li	s7,5

0000000080008684 <i_8302>:
    80008684:	017656bb          	srlw	a3,a2,s7

0000000080008688 <i_8303>:
    80008688:	a452b293          	sltiu	t0,t0,-1467

000000008000868c <i_8304>:
    8000868c:	037bc1bb          	divw	gp,s7,s7

0000000080008690 <i_8305>:
    80008690:	e7411e23          	sh	s4,-388(sp)

0000000080008694 <i_8306>:
    80008694:	00c1e333          	or	t1,gp,a2

0000000080008698 <i_8307>:
    80008698:	02ca0263          	beq	s4,a2,800086bc <i_8316>

000000008000869c <i_8308>:
    8000869c:	200bc413          	xori	s0,s7,512

00000000800086a0 <i_8309>:
    800086a0:	18412583          	lw	a1,388(sp)

00000000800086a4 <i_8310>:
    800086a4:	01300193          	li	gp,19

00000000800086a8 <i_8311>:
    800086a8:	4039d9bb          	sraw	s3,s3,gp

00000000800086ac <i_8312>:
    800086ac:	00f5d463          	ble	a5,a1,800086b4 <i_8314>

00000000800086b0 <i_8313>:
    800086b0:	01731e63          	bne	t1,s7,800086cc <i_8320>

00000000800086b4 <i_8314>:
    800086b4:	19615503          	lhu	a0,406(sp)

00000000800086b8 <i_8315>:
    800086b8:	02a54333          	div	t1,a0,a0

00000000800086bc <i_8316>:
    800086bc:	ea610303          	lb	t1,-346(sp)

00000000800086c0 <i_8317>:
    800086c0:	1a613c23          	sd	t1,440(sp)

00000000800086c4 <i_8318>:
    800086c4:	00e00093          	li	ra,14

00000000800086c8 <i_8319>:
    800086c8:	00131333          	sll	t1,t1,ra

00000000800086cc <i_8320>:
    800086cc:	e2015483          	lhu	s1,-480(sp)

00000000800086d0 <i_8321>:
    800086d0:	00637333          	and	t1,t1,t1

00000000800086d4 <i_8322>:
    800086d4:	edf13423          	sd	t6,-312(sp)

00000000800086d8 <i_8323>:
    800086d8:	ec812a83          	lw	s5,-312(sp)

00000000800086dc <i_8324>:
    800086dc:	0a0a8313          	addi	t1,s5,160

00000000800086e0 <i_8325>:
    800086e0:	04812023          	sw	s0,64(sp)

00000000800086e4 <i_8326>:
    800086e4:	18e11523          	sh	a4,394(sp)

00000000800086e8 <i_8327>:
    800086e8:	8d200413          	li	s0,-1838

00000000800086ec <i_8328>:
    800086ec:	8d800b13          	li	s6,-1832

00000000800086f0 <i_8329>:
    800086f0:	0e810603          	lb	a2,232(sp)

00000000800086f4 <i_8330>:
    800086f4:	00000013          	nop

00000000800086f8 <i_8331>:
    800086f8:	78900b93          	li	s7,1929

00000000800086fc <i_8332>:
    800086fc:	79100493          	li	s1,1937

0000000080008700 <i_8333>:
    80008700:	06110603          	lb	a2,97(sp)

0000000080008704 <i_8334>:
    80008704:	0374d263          	ble	s7,s1,80008728 <i_8342>

0000000080008708 <i_8335>:
    80008708:	001b8b93          	addi	s7,s7,1
    8000870c:	fe9bcae3          	blt	s7,s1,80008700 <i_8333>

0000000080008710 <i_8336>:
    80008710:	029bfbb3          	remu	s7,s7,s1

0000000080008714 <i_8337>:
    80008714:	e8815603          	lhu	a2,-376(sp)

0000000080008718 <i_8338>:
    80008718:	00c47663          	bleu	a2,s0,80008724 <i_8341>

000000008000871c <i_8339>:
    8000871c:	f2211b83          	lh	s7,-222(sp)

0000000080008720 <i_8340>:
    80008720:	017667b3          	or	a5,a2,s7

0000000080008724 <i_8341>:
    80008724:	037e8633          	mul	a2,t4,s7

0000000080008728 <i_8342>:
    80008728:	00165193          	srli	gp,a2,0x1

000000008000872c <i_8343>:
    8000872c:	0107e833          	or	a6,a5,a6

0000000080008730 <i_8344>:
    80008730:	00400993          	li	s3,4

0000000080008734 <i_8345>:
    80008734:	4130d0bb          	sraw	ra,ra,s3

0000000080008738 <i_8346>:
    80008738:	00140413          	addi	s0,s0,1
    8000873c:	fb641ae3          	bne	s0,s6,800086f0 <i_8329>

0000000080008740 <i_8347>:
    80008740:	01081a63          	bne	a6,a6,80008754 <i_8352>

0000000080008744 <i_8348>:
    80008744:	017bf263          	bleu	s7,s7,80008748 <i_8349>

0000000080008748 <i_8349>:
    80008748:	fac12e23          	sw	a2,-68(sp)

000000008000874c <i_8350>:
    8000874c:	0010e0b3          	or	ra,ra,ra

0000000080008750 <i_8351>:
    80008750:	e7412b03          	lw	s6,-396(sp)

0000000080008754 <i_8352>:
    80008754:	402b5b9b          	sraiw	s7,s6,0x2

0000000080008758 <i_8353>:
    80008758:	12610b03          	lb	s6,294(sp)

000000008000875c <i_8354>:
    8000875c:	0b816b03          	lwu	s6,184(sp)

0000000080008760 <i_8355>:
    80008760:	8d600093          	li	ra,-1834

0000000080008764 <i_8356>:
    80008764:	8d900513          	li	a0,-1831

0000000080008768 <i_8357>:
    80008768:	00108093          	addi	ra,ra,1 # 58636be5 <main-0x279c941b>
    8000876c:	fea0eee3          	bltu	ra,a0,80008768 <i_8357>

0000000080008770 <i_8358>:
    80008770:	02b00b13          	li	s6,43

0000000080008774 <i_8359>:
    80008774:	01655e33          	srl	t3,a0,s6

0000000080008778 <i_8360>:
    80008778:	03610d23          	sb	s6,58(sp)

000000008000877c <i_8361>:
    8000877c:	003ede9b          	srliw	t4,t4,0x3

0000000080008780 <i_8362>:
    80008780:	0f816e03          	lwu	t3,248(sp)

0000000080008784 <i_8363>:
    80008784:	0e012b03          	lw	s6,224(sp)

0000000080008788 <i_8364>:
    80008788:	fdc10723          	sb	t3,-50(sp)

000000008000878c <i_8365>:
    8000878c:	e7a10b03          	lb	s6,-390(sp)

0000000080008790 <i_8366>:
    80008790:	016b6a63          	bltu	s6,s6,800087a4 <i_8371>

0000000080008794 <i_8367>:
    80008794:	f5812e03          	lw	t3,-168(sp)

0000000080008798 <i_8368>:
    80008798:	02f6e463          	bltu	a3,a5,800087c0 <i_8378>

000000008000879c <i_8369>:
    8000879c:	069100a3          	sb	s1,97(sp)

00000000800087a0 <i_8370>:
    800087a0:	f8a14483          	lbu	s1,-118(sp)

00000000800087a4 <i_8371>:
    800087a4:	02870433          	mul	s0,a4,s0

00000000800087a8 <i_8372>:
    800087a8:	008e7863          	bleu	s0,t3,800087b8 <i_8376>

00000000800087ac <i_8373>:
    800087ac:	03300413          	li	s0,51

00000000800087b0 <i_8374>:
    800087b0:	00845a33          	srl	s4,s0,s0

00000000800087b4 <i_8375>:
    800087b4:	00847433          	and	s0,s0,s0

00000000800087b8 <i_8376>:
    800087b8:	00360833          	add	a6,a2,gp

00000000800087bc <i_8377>:
    800087bc:	402a5813          	srai	a6,s4,0x2

00000000800087c0 <i_8378>:
    800087c0:	0024561b          	srliw	a2,s0,0x2

00000000800087c4 <i_8379>:
    800087c4:	07412e83          	lw	t4,116(sp)

00000000800087c8 <i_8380>:
    800087c8:	f8411723          	sh	tp,-114(sp)

00000000800087cc <i_8381>:
    800087cc:	02c64463          	blt	a2,a2,800087f4 <i_8391>

00000000800087d0 <i_8382>:
    800087d0:	003ed613          	srli	a2,t4,0x3

00000000800087d4 <i_8383>:
    800087d4:	00000013          	nop

00000000800087d8 <i_8384>:
    800087d8:	e5c16c03          	lwu	s8,-420(sp)

00000000800087dc <i_8385>:
    800087dc:	ef110983          	lb	s3,-271(sp)

00000000800087e0 <i_8386>:
    800087e0:	00000013          	nop

00000000800087e4 <i_8387>:
    800087e4:	00000013          	nop

00000000800087e8 <i_8388>:
    800087e8:	f4b10983          	lb	s3,-181(sp)

00000000800087ec <i_8389>:
    800087ec:	170102a3          	sb	a6,357(sp)

00000000800087f0 <i_8390>:
    800087f0:	02600813          	li	a6,38

00000000800087f4 <i_8391>:
    800087f4:	010999b3          	sll	s3,s3,a6

00000000800087f8 <i_8392>:
    800087f8:	fb313023          	sd	s3,-96(sp)

00000000800087fc <i_8393>:
    800087fc:	86e00613          	li	a2,-1938

0000000080008800 <i_8394>:
    80008800:	87d00e93          	li	t4,-1923

0000000080008804 <i_8395>:
    80008804:	1c013c03          	ld	s8,448(sp)

0000000080008808 <i_8396>:
    80008808:	f1013203          	ld	tp,-240(sp)

000000008000880c <i_8397>:
    8000880c:	f1416983          	lwu	s3,-236(sp)

0000000080008810 <i_8398>:
    80008810:	f3914483          	lbu	s1,-199(sp)

0000000080008814 <i_8399>:
    80008814:	00160613          	addi	a2,a2,1
    80008818:	ffd666e3          	bltu	a2,t4,80008804 <i_8395>

000000008000881c <i_8400>:
    8000881c:	e7313823          	sd	s3,-400(sp)

0000000080008820 <i_8401>:
    80008820:	f7811823          	sh	s8,-144(sp)

0000000080008824 <i_8402>:
    80008824:	04412a23          	sw	tp,84(sp)

0000000080008828 <i_8403>:
    80008828:	01a00f13          	li	t5,26

000000008000882c <i_8404>:
    8000882c:	01e2523b          	srlw	tp,tp,t5

0000000080008830 <i_8405>:
    80008830:	f3a15c03          	lhu	s8,-198(sp)

0000000080008834 <i_8406>:
    80008834:	007c6263          	bltu	s8,t2,80008838 <i_8407>

0000000080008838 <i_8407>:
    80008838:	f7811023          	sh	s8,-160(sp)

000000008000883c <i_8408>:
    8000883c:	e3412c03          	lw	s8,-460(sp)

0000000080008840 <i_8409>:
    80008840:	01ec0663          	beq	s8,t5,8000884c <i_8412>

0000000080008844 <i_8410>:
    80008844:	0185cc33          	xor	s8,a1,s8

0000000080008848 <i_8411>:
    80008848:	bf1c7f13          	andi	t5,s8,-1039

000000008000884c <i_8412>:
    8000884c:	404c5c13          	srai	s8,s8,0x4

0000000080008850 <i_8413>:
    80008850:	038c7f33          	remu	t5,s8,s8

0000000080008854 <i_8414>:
    80008854:	e3812083          	lw	ra,-456(sp)

0000000080008858 <i_8415>:
    80008858:	01ef4263          	blt	t5,t5,8000885c <i_8416>

000000008000885c <i_8416>:
    8000885c:	e9412083          	lw	ra,-364(sp)

0000000080008860 <i_8417>:
    80008860:	0bc10f03          	lb	t5,188(sp)

0000000080008864 <i_8418>:
    80008864:	03013303          	ld	t1,48(sp)

0000000080008868 <i_8419>:
    80008868:	12416783          	lwu	a5,292(sp)

000000008000886c <i_8420>:
    8000886c:	e8b12023          	sw	a1,-384(sp)

0000000080008870 <i_8421>:
    80008870:	0060e263          	bltu	ra,t1,80008874 <i_8422>

0000000080008874 <i_8422>:
    80008874:	02178463          	beq	a5,ra,8000889c <i_8432>

0000000080008878 <i_8423>:
    80008878:	40108533          	sub	a0,ra,ra

000000008000887c <i_8424>:
    8000887c:	0ac11083          	lh	ra,172(sp)

0000000080008880 <i_8425>:
    80008880:	ec610283          	lb	t0,-314(sp)

0000000080008884 <i_8426>:
    80008884:	00ff1c63          	bne	t5,a5,8000889c <i_8432>

0000000080008888 <i_8427>:
    80008888:	0cc11f03          	lh	t5,204(sp)

000000008000888c <i_8428>:
    8000888c:	41ef0f3b          	subw	t5,t5,t5

0000000080008890 <i_8429>:
    80008890:	ff714203          	lbu	tp,-9(sp)

0000000080008894 <i_8430>:
    80008894:	fcf10da3          	sb	a5,-37(sp)

0000000080008898 <i_8431>:
    80008898:	02f21f33          	mulh	t5,tp,a5

000000008000889c <i_8432>:
    8000889c:	e7e13823          	sd	t5,-400(sp)

00000000800088a0 <i_8433>:
    800088a0:	0ba10583          	lb	a1,186(sp)

00000000800088a4 <i_8434>:
    800088a4:	001d521b          	srliw	tp,s10,0x1

00000000800088a8 <i_8435>:
    800088a8:	00000013          	nop

00000000800088ac <i_8436>:
    800088ac:	01a00c93          	li	s9,26

00000000800088b0 <i_8437>:
    800088b0:	0192d5bb          	srlw	a1,t0,s9

00000000800088b4 <i_8438>:
    800088b4:	76900613          	li	a2,1897

00000000800088b8 <i_8439>:
    800088b8:	77700293          	li	t0,1911

00000000800088bc <i_8440>:
    800088bc:	00160613          	addi	a2,a2,1
    800088c0:	fe561ce3          	bne	a2,t0,800088b8 <i_8439>

00000000800088c4 <i_8441>:
    800088c4:	e4a15603          	lhu	a2,-438(sp)

00000000800088c8 <i_8442>:
    800088c8:	00000013          	nop

00000000800088cc <i_8443>:
    800088cc:	f4a11923          	sh	a0,-174(sp)

00000000800088d0 <i_8444>:
    800088d0:	85c00b13          	li	s6,-1956

00000000800088d4 <i_8445>:
    800088d4:	86900513          	li	a0,-1943

00000000800088d8 <i_8446>:
    800088d8:	fcb11423          	sh	a1,-56(sp)

00000000800088dc <i_8447>:
    800088dc:	00000013          	nop

00000000800088e0 <i_8448>:
    800088e0:	0395c63b          	divw	a2,a1,s9

00000000800088e4 <i_8449>:
    800088e4:	02900d13          	li	s10,41

00000000800088e8 <i_8450>:
    800088e8:	01a61c33          	sll	s8,a2,s10

00000000800088ec <i_8451>:
    800088ec:	0fc15183          	lhu	gp,252(sp)

00000000800088f0 <i_8452>:
    800088f0:	00cb5e63          	ble	a2,s6,8000890c <i_8458>

00000000800088f4 <i_8453>:
    800088f4:	03987463          	bleu	s9,a6,8000891c <i_8462>

00000000800088f8 <i_8454>:
    800088f8:	06a15c83          	lhu	s9,106(sp)

00000000800088fc <i_8455>:
    800088fc:	001b0b13          	addi	s6,s6,1 # 16462319 <main-0x69b9dce7>
    80008900:	fd657ce3          	bleu	s6,a0,800088d8 <i_8446>

0000000080008904 <i_8456>:
    80008904:	f9812c83          	lw	s9,-104(sp)

0000000080008908 <i_8457>:
    80008908:	039cc0b3          	div	ra,s9,s9

000000008000890c <i_8458>:
    8000890c:	01da6263          	bltu	s4,t4,80008910 <i_8459>

0000000080008910 <i_8459>:
    80008910:	fcc16783          	lwu	a5,-52(sp)

0000000080008914 <i_8460>:
    80008914:	4010d09b          	sraiw	ra,ra,0x1

0000000080008918 <i_8461>:
    80008918:	f6110523          	sb	ra,-150(sp)

000000008000891c <i_8462>:
    8000891c:	02f09463          	bne	ra,a5,80008944 <i_8472>

0000000080008920 <i_8463>:
    80008920:	06513c23          	sd	t0,120(sp)

0000000080008924 <i_8464>:
    80008924:	005c8a63          	beq	s9,t0,80008938 <i_8469>

0000000080008928 <i_8465>:
    80008928:	00409213          	slli	tp,ra,0x4

000000008000892c <i_8466>:
    8000892c:	e85109a3          	sb	t0,-365(sp)

0000000080008930 <i_8467>:
    80008930:	00bc82b3          	add	t0,s9,a1

0000000080008934 <i_8468>:
    80008934:	11513c23          	sd	s5,280(sp)

0000000080008938 <i_8469>:
    80008938:	16112023          	sw	ra,352(sp)

000000008000893c <i_8470>:
    8000893c:	0212fcb3          	remu	s9,t0,ra

0000000080008940 <i_8471>:
    80008940:	18214d83          	lbu	s11,386(sp)

0000000080008944 <i_8472>:
    80008944:	f4e11203          	lh	tp,-178(sp)

0000000080008948 <i_8473>:
    80008948:	1a412c23          	sw	tp,440(sp)

000000008000894c <i_8474>:
    8000894c:	83900293          	li	t0,-1991

0000000080008950 <i_8475>:
    80008950:	84b00093          	li	ra,-1973

0000000080008954 <i_8476>:
    80008954:	0250f33b          	remuw	t1,ra,t0

0000000080008958 <i_8477>:
    80008958:	0e413c23          	sd	tp,248(sp)

000000008000895c <i_8478>:
    8000895c:	12c12183          	lw	gp,300(sp)

0000000080008960 <i_8479>:
    80008960:	12d65537          	lui	a0,0x12d65

0000000080008964 <i_8480>:
    80008964:	03ca5463          	ble	t3,s4,8000898c <i_8489>

0000000080008968 <i_8481>:
    80008968:	12310223          	sb	gp,292(sp)

000000008000896c <i_8482>:
    8000896c:	f8013a03          	ld	s4,-128(sp)

0000000080008970 <i_8483>:
    80008970:	00128293          	addi	t0,t0,1 # 9ed0611d <_end+0x1ecf5d09>
    80008974:	fe12e0e3          	bltu	t0,ra,80008954 <i_8476>

0000000080008978 <i_8484>:
    80008978:	034a5063          	ble	s4,s4,80008998 <i_8492>

000000008000897c <i_8485>:
    8000897c:	02aa0463          	beq	s4,a0,800089a4 <i_8495>

0000000080008980 <i_8486>:
    80008980:	04113023          	sd	ra,64(sp)

0000000080008984 <i_8487>:
    80008984:	00a5de63          	ble	a0,a1,800089a0 <i_8494>

0000000080008988 <i_8488>:
    80008988:	00a70a63          	beq	a4,a0,8000899c <i_8493>

000000008000898c <i_8489>:
    8000898c:	0146a6b3          	slt	a3,a3,s4

0000000080008990 <i_8490>:
    80008990:	16a10523          	sb	a0,362(sp)

0000000080008994 <i_8491>:
    80008994:	f8415e83          	lhu	t4,-124(sp)

0000000080008998 <i_8492>:
    80008998:	1e215683          	lhu	a3,482(sp)

000000008000899c <i_8493>:
    8000899c:	ead10423          	sb	a3,-344(sp)

00000000800089a0 <i_8494>:
    800089a0:	9e86f693          	andi	a3,a3,-1560

00000000800089a4 <i_8495>:
    800089a4:	0146dc63          	ble	s4,a3,800089bc <i_8501>

00000000800089a8 <i_8496>:
    800089a8:	41d686b3          	sub	a3,a3,t4

00000000800089ac <i_8497>:
    800089ac:	fad13c23          	sd	a3,-72(sp)

00000000800089b0 <i_8498>:
    800089b0:	0028d693          	srli	a3,a7,0x2

00000000800089b4 <i_8499>:
    800089b4:	e8d13823          	sd	a3,-368(sp)

00000000800089b8 <i_8500>:
    800089b8:	1dd12c23          	sw	t4,472(sp)

00000000800089bc <i_8501>:
    800089bc:	00369513          	slli	a0,a3,0x3

00000000800089c0 <i_8502>:
    800089c0:	e5816503          	lwu	a0,-424(sp)

00000000800089c4 <i_8503>:
    800089c4:	03d6e463          	bltu	a3,t4,800089ec <i_8513>

00000000800089c8 <i_8504>:
    800089c8:	01410383          	lb	t2,20(sp)

00000000800089cc <i_8505>:
    800089cc:	02d389bb          	mulw	s3,t2,a3

00000000800089d0 <i_8506>:
    800089d0:	01c10663          	beq	sp,t3,800089dc <i_8509>

00000000800089d4 <i_8507>:
    800089d4:	ffa10b03          	lb	s6,-6(sp)

00000000800089d8 <i_8508>:
    800089d8:	02850463          	beq	a0,s0,80008a00 <i_8518>

00000000800089dc <i_8509>:
    800089dc:	e4713c23          	sd	t2,-424(sp)

00000000800089e0 <i_8510>:
    800089e0:	68f2b3b7          	lui	t2,0x68f2b

00000000800089e4 <i_8511>:
    800089e4:	15813683          	ld	a3,344(sp)

00000000800089e8 <i_8512>:
    800089e8:	0100bcb3          	sltu	s9,ra,a6

00000000800089ec <i_8513>:
    800089ec:	018cf533          	and	a0,s9,s8

00000000800089f0 <i_8514>:
    800089f0:	f4013483          	ld	s1,-192(sp)

00000000800089f4 <i_8515>:
    800089f4:	e6016e03          	lwu	t3,-416(sp)

00000000800089f8 <i_8516>:
    800089f8:	00000013          	nop

00000000800089fc <i_8517>:
    800089fc:	002c951b          	slliw	a0,s9,0x2

0000000080008a00 <i_8518>:
    80008a00:	0016d293          	srli	t0,a3,0x1

0000000080008a04 <i_8519>:
    80008a04:	0022d99b          	srliw	s3,t0,0x2

0000000080008a08 <i_8520>:
    80008a08:	83900413          	li	s0,-1991

0000000080008a0c <i_8521>:
    80008a0c:	84500813          	li	a6,-1979

0000000080008a10 <i_8522>:
    80008a10:	00984263          	blt	a6,s1,80008a14 <i_8523>

0000000080008a14 <i_8523>:
    80008a14:	09310c23          	sb	s3,152(sp)

0000000080008a18 <i_8524>:
    80008a18:	f2510023          	sb	t0,-224(sp)

0000000080008a1c <i_8525>:
    80008a1c:	ec910a23          	sb	s1,-300(sp)

0000000080008a20 <i_8526>:
    80008a20:	f6813383          	ld	t2,-152(sp)

0000000080008a24 <i_8527>:
    80008a24:	0ac12483          	lw	s1,172(sp)

0000000080008a28 <i_8528>:
    80008a28:	02639333          	mulh	t1,t2,t1

0000000080008a2c <i_8529>:
    80008a2c:	00140413          	addi	s0,s0,1
    80008a30:	fe8850e3          	ble	s0,a6,80008a10 <i_8522>

0000000080008a34 <i_8530>:
    80008a34:	0193dc63          	ble	s9,t2,80008a4c <i_8536>

0000000080008a38 <i_8531>:
    80008a38:	04a11483          	lh	s1,74(sp)

0000000080008a3c <i_8532>:
    80008a3c:	02729063          	bne	t0,t2,80008a5c <i_8540>

0000000080008a40 <i_8533>:
    80008a40:	0284443b          	divw	s0,s0,s0

0000000080008a44 <i_8534>:
    80008a44:	05813c23          	sd	s8,88(sp)

0000000080008a48 <i_8535>:
    80008a48:	e9013283          	ld	t0,-368(sp)

0000000080008a4c <i_8536>:
    80008a4c:	0b416603          	lwu	a2,180(sp)

0000000080008a50 <i_8537>:
    80008a50:	03b62433          	mulhsu	s0,a2,s11

0000000080008a54 <i_8538>:
    80008a54:	02cd8dbb          	mulw	s11,s11,a2

0000000080008a58 <i_8539>:
    80008a58:	e5614983          	lbu	s3,-426(sp)

0000000080008a5c <i_8540>:
    80008a5c:	034aca33          	div	s4,s5,s4

0000000080008a60 <i_8541>:
    80008a60:	4019d99b          	sraiw	s3,s3,0x1

0000000080008a64 <i_8542>:
    80008a64:	7e100493          	li	s1,2017

0000000080008a68 <i_8543>:
    80008a68:	7ea00e93          	li	t4,2026

0000000080008a6c <i_8544>:
    80008a6c:	03e11c83          	lh	s9,62(sp)

0000000080008a70 <i_8545>:
    80008a70:	021409bb          	mulw	s3,s0,ra

0000000080008a74 <i_8546>:
    80008a74:	01d9f663          	bleu	t4,s3,80008a80 <i_8549>

0000000080008a78 <i_8547>:
    80008a78:	00000013          	nop

0000000080008a7c <i_8548>:
    80008a7c:	02f00613          	li	a2,47

0000000080008a80 <i_8549>:
    80008a80:	00c617b3          	sll	a5,a2,a2

0000000080008a84 <i_8550>:
    80008a84:	02f7d633          	divu	a2,a5,a5

0000000080008a88 <i_8551>:
    80008a88:	0b215a03          	lhu	s4,178(sp)

0000000080008a8c <i_8552>:
    80008a8c:	001b5b1b          	srliw	s6,s6,0x1

0000000080008a90 <i_8553>:
    80008a90:	18013603          	ld	a2,384(sp)

0000000080008a94 <i_8554>:
    80008a94:	e3612223          	sw	s6,-476(sp)

0000000080008a98 <i_8555>:
    80008a98:	f1c15b03          	lhu	s6,-228(sp)

0000000080008a9c <i_8556>:
    80008a9c:	00148493          	addi	s1,s1,1
    80008aa0:	fdd4c6e3          	blt	s1,t4,80008a6c <i_8544>

0000000080008aa4 <i_8557>:
    80008aa4:	33eb3b13          	sltiu	s6,s6,830

0000000080008aa8 <i_8558>:
    80008aa8:	02cb3b33          	mulhu	s6,s6,a2

0000000080008aac <i_8559>:
    80008aac:	ff813c83          	ld	s9,-8(sp)

0000000080008ab0 <i_8560>:
    80008ab0:	e9b12223          	sw	s11,-380(sp)

0000000080008ab4 <i_8561>:
    80008ab4:	002ada9b          	srliw	s5,s5,0x2

0000000080008ab8 <i_8562>:
    80008ab8:	06810203          	lb	tp,104(sp)

0000000080008abc <i_8563>:
    80008abc:	0ec105a3          	sb	a2,235(sp)

0000000080008ac0 <i_8564>:
    80008ac0:	03625b3b          	divuw	s6,tp,s6

0000000080008ac4 <i_8565>:
    80008ac4:	e9910803          	lb	a6,-359(sp)

0000000080008ac8 <i_8566>:
    80008ac8:	02726263          	bltu	tp,t2,80008aec <i_8575>

0000000080008acc <i_8567>:
    80008acc:	17dcf393          	andi	t2,s9,381

0000000080008ad0 <i_8568>:
    80008ad0:	0356623b          	remw	tp,a2,s5

0000000080008ad4 <i_8569>:
    80008ad4:	024ae063          	bltu	s5,tp,80008af4 <i_8577>

0000000080008ad8 <i_8570>:
    80008ad8:	01800a93          	li	s5,24

0000000080008adc <i_8571>:
    80008adc:	4153d4b3          	sra	s1,t2,s5

0000000080008ae0 <i_8572>:
    80008ae0:	00464233          	xor	tp,a2,tp

0000000080008ae4 <i_8573>:
    80008ae4:	407c8ebb          	subw	t4,s9,t2

0000000080008ae8 <i_8574>:
    80008ae8:	ff510f23          	sb	s5,-2(sp)

0000000080008aec <i_8575>:
    80008aec:	07013603          	ld	a2,112(sp)

0000000080008af0 <i_8576>:
    80008af0:	598eab13          	slti	s6,t4,1432

0000000080008af4 <i_8577>:
    80008af4:	024a8463          	beq	s5,tp,80008b1c <i_8587>

0000000080008af8 <i_8578>:
    80008af8:	18413c23          	sd	tp,408(sp)

0000000080008afc <i_8579>:
    80008afc:	0194fe63          	bleu	s9,s1,80008b18 <i_8586>

0000000080008b00 <i_8580>:
    80008b00:	027a9263          	bne	s5,t2,80008b24 <i_8589>

0000000080008b04 <i_8581>:
    80008b04:	016b7663          	bleu	s6,s6,80008b10 <i_8584>

0000000080008b08 <i_8582>:
    80008b08:	19910e23          	sb	s9,412(sp)

0000000080008b0c <i_8583>:
    80008b0c:	067107a3          	sb	t2,111(sp)

0000000080008b10 <i_8584>:
    80008b10:	fbe15b83          	lhu	s7,-66(sp)

0000000080008b14 <i_8585>:
    80008b14:	00c65863          	ble	a2,a2,80008b24 <i_8589>

0000000080008b18 <i_8586>:
    80008b18:	eddbbc13          	sltiu	s8,s7,-291

0000000080008b1c <i_8587>:
    80008b1c:	08913c23          	sd	s1,152(sp)

0000000080008b20 <i_8588>:
    80008b20:	03926063          	bltu	tp,s9,80008b40 <i_8596>

0000000080008b24 <i_8589>:
    80008b24:	f6412823          	sw	tp,-144(sp)

0000000080008b28 <i_8590>:
    80008b28:	07c12483          	lw	s1,124(sp)

0000000080008b2c <i_8591>:
    80008b2c:	c32dbd97          	auipc	s11,0xc32db

0000000080008b30 <i_8592>:
    80008b30:	0fb10c03          	lb	s8,251(sp)

0000000080008b34 <i_8593>:
    80008b34:	01881863          	bne	a6,s8,80008b44 <i_8597>

0000000080008b38 <i_8594>:
    80008b38:	f7811d23          	sh	s8,-134(sp)

0000000080008b3c <i_8595>:
    80008b3c:	00c6da63          	ble	a2,a3,80008b50 <i_8600>

0000000080008b40 <i_8596>:
    80008b40:	00c11823          	sh	a2,16(sp)

0000000080008b44 <i_8597>:
    80008b44:	14562093          	slti	ra,a2,325

0000000080008b48 <i_8598>:
    80008b48:	00c67863          	bleu	a2,a2,80008b58 <i_8602>

0000000080008b4c <i_8599>:
    80008b4c:	d6298b13          	addi	s6,s3,-670 # 62975d62 <main-0x1d68a29e>

0000000080008b50 <i_8600>:
    80008b50:	19015c83          	lhu	s9,400(sp)

0000000080008b54 <i_8601>:
    80008b54:	01200d13          	li	s10,18

0000000080008b58 <i_8602>:
    80008b58:	41a4db3b          	sraw	s6,s1,s10

0000000080008b5c <i_8603>:
    80008b5c:	ed910ca3          	sb	s9,-295(sp)

0000000080008b60 <i_8604>:
    80008b60:	01967633          	and	a2,a2,s9

0000000080008b64 <i_8605>:
    80008b64:	0c412c83          	lw	s9,196(sp)

0000000080008b68 <i_8606>:
    80008b68:	11611803          	lh	a6,278(sp)

0000000080008b6c <i_8607>:
    80008b6c:	0f614c83          	lbu	s9,246(sp)

0000000080008b70 <i_8608>:
    80008b70:	002d1093          	slli	ra,s10,0x2

0000000080008b74 <i_8609>:
    80008b74:	03a85d3b          	divuw	s10,a6,s10

0000000080008b78 <i_8610>:
    80008b78:	e7016d03          	lwu	s10,-400(sp)

0000000080008b7c <i_8611>:
    80008b7c:	09a11f23          	sh	s10,158(sp)

0000000080008b80 <i_8612>:
    80008b80:	0f416d03          	lwu	s10,244(sp)

0000000080008b84 <i_8613>:
    80008b84:	08410183          	lb	gp,132(sp)

0000000080008b88 <i_8614>:
    80008b88:	0f412d03          	lw	s10,244(sp)

0000000080008b8c <i_8615>:
    80008b8c:	03ad0263          	beq	s10,s10,80008bb0 <i_8624>

0000000080008b90 <i_8616>:
    80008b90:	00000013          	nop

0000000080008b94 <i_8617>:
    80008b94:	19714283          	lbu	t0,407(sp)

0000000080008b98 <i_8618>:
    80008b98:	08011d03          	lh	s10,128(sp)

0000000080008b9c <i_8619>:
    80008b9c:	00000013          	nop

0000000080008ba0 <i_8620>:
    80008ba0:	15812283          	lw	t0,344(sp)

0000000080008ba4 <i_8621>:
    80008ba4:	0011a433          	slt	s0,gp,ra

0000000080008ba8 <i_8622>:
    80008ba8:	036a7d3b          	remuw	s10,s4,s6

0000000080008bac <i_8623>:
    80008bac:	001401b3          	add	gp,s0,ra

0000000080008bb0 <i_8624>:
    80008bb0:	005d2633          	slt	a2,s10,t0

0000000080008bb4 <i_8625>:
    80008bb4:	00000013          	nop

0000000080008bb8 <i_8626>:
    80008bb8:	74d00d93          	li	s11,1869

0000000080008bbc <i_8627>:
    80008bbc:	75a00b13          	li	s6,1882

0000000080008bc0 <i_8628>:
    80008bc0:	ed710283          	lb	t0,-297(sp)

0000000080008bc4 <i_8629>:
    80008bc4:	14c11223          	sh	a2,324(sp)

0000000080008bc8 <i_8630>:
    80008bc8:	f6416383          	lwu	t2,-156(sp)

0000000080008bcc <i_8631>:
    80008bcc:	ebccb813          	sltiu	a6,s9,-324

0000000080008bd0 <i_8632>:
    80008bd0:	00600193          	li	gp,6

0000000080008bd4 <i_8633>:
    80008bd4:	0031d1bb          	srlw	gp,gp,gp

0000000080008bd8 <i_8634>:
    80008bd8:	00700593          	li	a1,7

0000000080008bdc <i_8635>:
    80008bdc:	40b3d2b3          	sra	t0,t2,a1

0000000080008be0 <i_8636>:
    80008be0:	001d8d93          	addi	s11,s11,1 # 432e3b2d <main-0x3cd1c4d3>
    80008be4:	fdbb7ee3          	bleu	s11,s6,80008bc0 <i_8628>

0000000080008be8 <i_8637>:
    80008be8:	e8610083          	lb	ra,-378(sp)

0000000080008bec <i_8638>:
    80008bec:	41918cbb          	subw	s9,gp,s9

0000000080008bf0 <i_8639>:
    80008bf0:	13913c23          	sd	s9,312(sp)

0000000080008bf4 <i_8640>:
    80008bf4:	f5013c83          	ld	s9,-176(sp)

0000000080008bf8 <i_8641>:
    80008bf8:	0023d19b          	srliw	gp,t2,0x2

0000000080008bfc <i_8642>:
    80008bfc:	11412c83          	lw	s9,276(sp)

0000000080008c00 <i_8643>:
    80008c00:	00d1da63          	ble	a3,gp,80008c14 <i_8648>

0000000080008c04 <i_8644>:
    80008c04:	0033fc63          	bleu	gp,t2,80008c1c <i_8650>

0000000080008c08 <i_8645>:
    80008c08:	e5611403          	lh	s0,-426(sp)

0000000080008c0c <i_8646>:
    80008c0c:	0030ec63          	bltu	ra,gp,80008c24 <i_8652>

0000000080008c10 <i_8647>:
    80008c10:	1a412c83          	lw	s9,420(sp)

0000000080008c14 <i_8648>:
    80008c14:	fc015603          	lhu	a2,-64(sp)

0000000080008c18 <i_8649>:
    80008c18:	00811c23          	sh	s0,24(sp)

0000000080008c1c <i_8650>:
    80008c1c:	fc015403          	lhu	s0,-64(sp)

0000000080008c20 <i_8651>:
    80008c20:	03911e23          	sh	s9,60(sp)

0000000080008c24 <i_8652>:
    80008c24:	f8013383          	ld	t2,-128(sp)

0000000080008c28 <i_8653>:
    80008c28:	02318cbb          	mulw	s9,gp,gp

0000000080008c2c <i_8654>:
    80008c2c:	03c8643b          	remw	s0,a6,t3

0000000080008c30 <i_8655>:
    80008c30:	00f56a63          	bltu	a0,a5,80008c44 <i_8660>

0000000080008c34 <i_8656>:
    80008c34:	08011803          	lh	a6,128(sp)

0000000080008c38 <i_8657>:
    80008c38:	03f00413          	li	s0,63

0000000080008c3c <i_8658>:
    80008c3c:	00881633          	sll	a2,a6,s0

0000000080008c40 <i_8659>:
    80008c40:	01041e63          	bne	s0,a6,80008c5c <i_8666>

0000000080008c44 <i_8660>:
    80008c44:	09c15483          	lhu	s1,156(sp)

0000000080008c48 <i_8661>:
    80008c48:	004a9c9b          	slliw	s9,s5,0x4

0000000080008c4c <i_8662>:
    80008c4c:	13c15403          	lhu	s0,316(sp)

0000000080008c50 <i_8663>:
    80008c50:	00346663          	bltu	s0,gp,80008c5c <i_8666>

0000000080008c54 <i_8664>:
    80008c54:	f7813a83          	ld	s5,-136(sp)

0000000080008c58 <i_8665>:
    80008c58:	1c412c03          	lw	s8,452(sp)

0000000080008c5c <i_8666>:
    80008c5c:	e4311d23          	sh	gp,-422(sp)

0000000080008c60 <i_8667>:
    80008c60:	038667bb          	remw	a5,a2,s8

0000000080008c64 <i_8668>:
    80008c64:	07510c03          	lb	s8,117(sp)

0000000080008c68 <i_8669>:
    80008c68:	3aac4c13          	xori	s8,s8,938

0000000080008c6c <i_8670>:
    80008c6c:	76100693          	li	a3,1889

0000000080008c70 <i_8671>:
    80008c70:	76a00493          	li	s1,1898

0000000080008c74 <i_8672>:
    80008c74:	ffc16c03          	lwu	s8,-4(sp)

0000000080008c78 <i_8673>:
    80008c78:	030dc463          	blt	s11,a6,80008ca0 <i_8683>

0000000080008c7c <i_8674>:
    80008c7c:	009c5263          	ble	s1,s8,80008c80 <i_8675>

0000000080008c80 <i_8675>:
    80008c80:	00d49863          	bne	s1,a3,80008c90 <i_8679>

0000000080008c84 <i_8676>:
    80008c84:	02415c03          	lhu	s8,36(sp)

0000000080008c88 <i_8677>:
    80008c88:	fe913423          	sd	s1,-24(sp)

0000000080008c8c <i_8678>:
    80008c8c:	f7813c83          	ld	s9,-136(sp)

0000000080008c90 <i_8679>:
    80008c90:	403d5d1b          	sraiw	s10,s10,0x3

0000000080008c94 <i_8680>:
    80008c94:	1e016d83          	lwu	s11,480(sp)

0000000080008c98 <i_8681>:
    80008c98:	16211c03          	lh	s8,354(sp)

0000000080008c9c <i_8682>:
    80008c9c:	029c7c33          	remu	s8,s8,s1

0000000080008ca0 <i_8683>:
    80008ca0:	409a07b3          	sub	a5,s4,s1

0000000080008ca4 <i_8684>:
    80008ca4:	00f13823          	sd	a5,16(sp)

0000000080008ca8 <i_8685>:
    80008ca8:	02f7d7bb          	divuw	a5,a5,a5

0000000080008cac <i_8686>:
    80008cac:	018c4e63          	blt	s8,s8,80008cc8 <i_8692>

0000000080008cb0 <i_8687>:
    80008cb0:	00168693          	addi	a3,a3,1
    80008cb4:	fcd4d0e3          	ble	a3,s1,80008c74 <i_8672>

0000000080008cb8 <i_8688>:
    80008cb8:	02f7cd3b          	divw	s10,a5,a5

0000000080008cbc <i_8689>:
    80008cbc:	00fc0c63          	beq	s8,a5,80008cd4 <i_8695>

0000000080008cc0 <i_8690>:
    80008cc0:	03ae4b33          	div	s6,t3,s10

0000000080008cc4 <i_8691>:
    80008cc4:	0ac11683          	lh	a3,172(sp)

0000000080008cc8 <i_8692>:
    80008cc8:	5986ff13          	andi	t5,a3,1432

0000000080008ccc <i_8693>:
    80008ccc:	1b813023          	sd	s8,416(sp)

0000000080008cd0 <i_8694>:
    80008cd0:	01e00d13          	li	s10,30

0000000080008cd4 <i_8695>:
    80008cd4:	41a7d33b          	sraw	t1,a5,s10

0000000080008cd8 <i_8696>:
    80008cd8:	006c0e63          	beq	s8,t1,80008cf4 <i_8703>

0000000080008cdc <i_8697>:
    80008cdc:	038377b3          	remu	a5,t1,s8

0000000080008ce0 <i_8698>:
    80008ce0:	026c6a3b          	remw	s4,s8,t1

0000000080008ce4 <i_8699>:
    80008ce4:	fcc16983          	lwu	s3,-52(sp)

0000000080008ce8 <i_8700>:
    80008ce8:	05c16c03          	lwu	s8,92(sp)

0000000080008cec <i_8701>:
    80008cec:	0167c663          	blt	a5,s6,80008cf8 <i_8704>

0000000080008cf0 <i_8702>:
    80008cf0:	02d6c6b3          	div	a3,a3,a3

0000000080008cf4 <i_8703>:
    80008cf4:	ea013383          	ld	t2,-352(sp)

0000000080008cf8 <i_8704>:
    80008cf8:	fb214b03          	lbu	s6,-78(sp)

0000000080008cfc <i_8705>:
    80008cfc:	4046d793          	srai	a5,a3,0x4

0000000080008d00 <i_8706>:
    80008d00:	0a713423          	sd	t2,168(sp)

0000000080008d04 <i_8707>:
    80008d04:	e2110183          	lb	gp,-479(sp)

0000000080008d08 <i_8708>:
    80008d08:	fe016a03          	lwu	s4,-32(sp)

0000000080008d0c <i_8709>:
    80008d0c:	e2816683          	lwu	a3,-472(sp)

0000000080008d10 <i_8710>:
    80008d10:	0341d263          	ble	s4,gp,80008d34 <i_8719>

0000000080008d14 <i_8711>:
    80008d14:	00d181b3          	add	gp,gp,a3

0000000080008d18 <i_8712>:
    80008d18:	1a313023          	sd	gp,416(sp)

0000000080008d1c <i_8713>:
    80008d1c:	e4015e03          	lhu	t3,-448(sp)

0000000080008d20 <i_8714>:
    80008d20:	ef411323          	sh	s4,-282(sp)

0000000080008d24 <i_8715>:
    80008d24:	fdc12a23          	sw	t3,-44(sp)

0000000080008d28 <i_8716>:
    80008d28:	01ca0e33          	add	t3,s4,t3

0000000080008d2c <i_8717>:
    80008d2c:	01c189b3          	add	s3,gp,t3

0000000080008d30 <i_8718>:
    80008d30:	034e4063          	blt	t3,s4,80008d50 <i_8726>

0000000080008d34 <i_8719>:
    80008d34:	e4b14503          	lbu	a0,-437(sp)

0000000080008d38 <i_8720>:
    80008d38:	19c10d23          	sb	t3,410(sp)

0000000080008d3c <i_8721>:
    80008d3c:	ee311223          	sh	gp,-284(sp)

0000000080008d40 <i_8722>:
    80008d40:	17c12423          	sw	t3,360(sp)

0000000080008d44 <i_8723>:
    80008d44:	03900813          	li	a6,57

0000000080008d48 <i_8724>:
    80008d48:	0106d3b3          	srl	t2,a3,a6

0000000080008d4c <i_8725>:
    80008d4c:	00c12b03          	lw	s6,12(sp)

0000000080008d50 <i_8726>:
    80008d50:	40338c13          	addi	s8,t2,1027 # 68f2b403 <main-0x170d4bfd>

0000000080008d54 <i_8727>:
    80008d54:	fc114b03          	lbu	s6,-63(sp)

0000000080008d58 <i_8728>:
    80008d58:	8b000a13          	li	s4,-1872

0000000080008d5c <i_8729>:
    80008d5c:	8c000d93          	li	s11,-1856

0000000080008d60 <i_8730>:
    80008d60:	18311423          	sh	gp,392(sp)

0000000080008d64 <i_8731>:
    80008d64:	02584063          	blt	a6,t0,80008d84 <i_8738>

0000000080008d68 <i_8732>:
    80008d68:	fe110083          	lb	ra,-31(sp)

0000000080008d6c <i_8733>:
    80008d6c:	001a0a13          	addi	s4,s4,1
    80008d70:	ff4dd8e3          	ble	s4,s11,80008d60 <i_8730>

0000000080008d74 <i_8734>:
    80008d74:	1ce14383          	lbu	t2,462(sp)

0000000080008d78 <i_8735>:
    80008d78:	04312623          	sw	gp,76(sp)

0000000080008d7c <i_8736>:
    80008d7c:	0ce12023          	sw	a4,192(sp)

0000000080008d80 <i_8737>:
    80008d80:	01073833          	sltu	a6,a4,a6

0000000080008d84 <i_8738>:
    80008d84:	c869a813          	slti	a6,s3,-890

0000000080008d88 <i_8739>:
    80008d88:	16013203          	ld	tp,352(sp)

0000000080008d8c <i_8740>:
    80008d8c:	024c1263          	bne	s8,tp,80008db0 <i_8749>

0000000080008d90 <i_8741>:
    80008d90:	1e010a03          	lb	s4,480(sp)

0000000080008d94 <i_8742>:
    80008d94:	ed70a393          	slti	t2,ra,-297

0000000080008d98 <i_8743>:
    80008d98:	01900a13          	li	s4,25

0000000080008d9c <i_8744>:
    80008d9c:	414253bb          	sraw	t2,tp,s4

0000000080008da0 <i_8745>:
    80008da0:	01800793          	li	a5,24

0000000080008da4 <i_8746>:
    80008da4:	00fa523b          	srlw	tp,s4,a5

0000000080008da8 <i_8747>:
    80008da8:	4017df13          	srai	t5,a5,0x1

0000000080008dac <i_8748>:
    80008dac:	00420a33          	add	s4,tp,tp

0000000080008db0 <i_8749>:
    80008db0:	02d3c463          	blt	t2,a3,80008dd8 <i_8759>

0000000080008db4 <i_8750>:
    80008db4:	fe615203          	lhu	tp,-26(sp)

0000000080008db8 <i_8751>:
    80008db8:	faf11623          	sh	a5,-84(sp)

0000000080008dbc <i_8752>:
    80008dbc:	0247f23b          	remuw	tp,a5,tp

0000000080008dc0 <i_8753>:
    80008dc0:	02f13423          	sd	a5,40(sp)

0000000080008dc4 <i_8754>:
    80008dc4:	08411823          	sh	tp,144(sp)

0000000080008dc8 <i_8755>:
    80008dc8:	02ff4463          	blt	t5,a5,80008df0 <i_8765>

0000000080008dcc <i_8756>:
    80008dcc:	fa416783          	lwu	a5,-92(sp)

0000000080008dd0 <i_8757>:
    80008dd0:	00379793          	slli	a5,a5,0x3

0000000080008dd4 <i_8758>:
    80008dd4:	4037d793          	srai	a5,a5,0x3

0000000080008dd8 <i_8759>:
    80008dd8:	fbc12a23          	sw	t3,-76(sp)

0000000080008ddc <i_8760>:
    80008ddc:	07c12203          	lw	tp,124(sp)

0000000080008de0 <i_8761>:
    80008de0:	04813583          	ld	a1,72(sp)

0000000080008de4 <i_8762>:
    80008de4:	00f7c663          	blt	a5,a5,80008df0 <i_8765>

0000000080008de8 <i_8763>:
    80008de8:	0037d21b          	srliw	tp,a5,0x3

0000000080008dec <i_8764>:
    80008dec:	08d10b83          	lb	s7,141(sp)

0000000080008df0 <i_8765>:
    80008df0:	004c1513          	slli	a0,s8,0x4

0000000080008df4 <i_8766>:
    80008df4:	00f15c63          	ble	a5,sp,80008e0c <i_8772>

0000000080008df8 <i_8767>:
    80008df8:	f4f12a23          	sw	a5,-172(sp)

0000000080008dfc <i_8768>:
    80008dfc:	13713823          	sd	s7,304(sp)

0000000080008e00 <i_8769>:
    80008e00:	0107f263          	bleu	a6,a5,80008e04 <i_8770>

0000000080008e04 <i_8770>:
    80008e04:	00a79e63          	bne	a5,a0,80008e20 <i_8777>

0000000080008e08 <i_8771>:
    80008e08:	e6b13823          	sd	a1,-400(sp)

0000000080008e0c <i_8772>:
    80008e0c:	5be3009b          	addiw	ra,t1,1470

0000000080008e10 <i_8773>:
    80008e10:	02a097b3          	mulh	a5,ra,a0

0000000080008e14 <i_8774>:
    80008e14:	02912823          	sw	s1,48(sp)

0000000080008e18 <i_8775>:
    80008e18:	f8a12223          	sw	a0,-124(sp)

0000000080008e1c <i_8776>:
    80008e1c:	001c8463          	beq	s9,ra,80008e24 <i_8778>

0000000080008e20 <i_8777>:
    80008e20:	16c15a83          	lhu	s5,364(sp)

0000000080008e24 <i_8778>:
    80008e24:	00c12503          	lw	a0,12(sp)

0000000080008e28 <i_8779>:
    80008e28:	00000013          	nop

0000000080008e2c <i_8780>:
    80008e2c:	88a00093          	li	ra,-1910

0000000080008e30 <i_8781>:
    80008e30:	88f00213          	li	tp,-1905

0000000080008e34 <i_8782>:
    80008e34:	00100693          	li	a3,1

0000000080008e38 <i_8783>:
    80008e38:	00d09ebb          	sllw	t4,ra,a3

0000000080008e3c <i_8784>:
    80008e3c:	024ad333          	divu	t1,s5,tp

0000000080008e40 <i_8785>:
    80008e40:	f6615b03          	lhu	s6,-154(sp)

0000000080008e44 <i_8786>:
    80008e44:	ee612423          	sw	t1,-280(sp)

0000000080008e48 <i_8787>:
    80008e48:	00108093          	addi	ra,ra,1
    80008e4c:	fe1274e3          	bleu	ra,tp,80008e34 <i_8782>

0000000080008e50 <i_8788>:
    80008e50:	4047db13          	srai	s6,a5,0x4

0000000080008e54 <i_8789>:
    80008e54:	fe012b03          	lw	s6,-32(sp)

0000000080008e58 <i_8790>:
    80008e58:	1d211303          	lh	t1,466(sp)

0000000080008e5c <i_8791>:
    80008e5c:	fff10783          	lb	a5,-1(sp)

0000000080008e60 <i_8792>:
    80008e60:	00617663          	bleu	t1,sp,80008e6c <i_8795>

0000000080008e64 <i_8793>:
    80008e64:	e3810f23          	sb	s8,-450(sp)

0000000080008e68 <i_8794>:
    80008e68:	9fe33093          	sltiu	ra,t1,-1538

0000000080008e6c <i_8795>:
    80008e6c:	0ce15303          	lhu	t1,206(sp)

0000000080008e70 <i_8796>:
    80008e70:	00178263          	beq	a5,ra,80008e74 <i_8797>

0000000080008e74 <i_8797>:
    80008e74:	f8813083          	ld	ra,-120(sp)

0000000080008e78 <i_8798>:
    80008e78:	031087bb          	mulw	a5,ra,a7

0000000080008e7c <i_8799>:
    80008e7c:	0d813a83          	ld	s5,216(sp)

0000000080008e80 <i_8800>:
    80008e80:	0012e7b3          	or	a5,t0,ra

0000000080008e84 <i_8801>:
    80008e84:	fcc12683          	lw	a3,-52(sp)

0000000080008e88 <i_8802>:
    80008e88:	04011283          	lh	t0,64(sp)

0000000080008e8c <i_8803>:
    80008e8c:	17e12823          	sw	t5,368(sp)

0000000080008e90 <i_8804>:
    80008e90:	e2d13c23          	sd	a3,-456(sp)

0000000080008e94 <i_8805>:
    80008e94:	00129863          	bne	t0,ra,80008ea4 <i_8809>

0000000080008e98 <i_8806>:
    80008e98:	0366db33          	divu	s6,a3,s6

0000000080008e9c <i_8807>:
    80008e9c:	0c313c23          	sd	gp,216(sp)

0000000080008ea0 <i_8808>:
    80008ea0:	02d8d263          	ble	a3,a7,80008ec4 <i_8817>

0000000080008ea4 <i_8809>:
    80008ea4:	003b541b          	srliw	s0,s6,0x3

0000000080008ea8 <i_8810>:
    80008ea8:	14c10583          	lb	a1,332(sp)

0000000080008eac <i_8811>:
    80008eac:	03685263          	ble	s6,a6,80008ed0 <i_8820>

0000000080008eb0 <i_8812>:
    80008eb0:	00147663          	bleu	ra,s0,80008ebc <i_8815>

0000000080008eb4 <i_8813>:
    80008eb4:	e7b10f03          	lb	t5,-389(sp)

0000000080008eb8 <i_8814>:
    80008eb8:	0012fe63          	bleu	ra,t0,80008ed4 <i_8821>

0000000080008ebc <i_8815>:
    80008ebc:	408283b3          	sub	t2,t0,s0

0000000080008ec0 <i_8816>:
    80008ec0:	0083f663          	bleu	s0,t2,80008ecc <i_8819>

0000000080008ec4 <i_8817>:
    80008ec4:	0052f263          	bleu	t0,t0,80008ec8 <i_8818>

0000000080008ec8 <i_8818>:
    80008ec8:	0377fbb3          	remu	s7,a5,s7

0000000080008ecc <i_8819>:
    80008ecc:	0044909b          	slliw	ra,s1,0x4

0000000080008ed0 <i_8820>:
    80008ed0:	f8d13023          	sd	a3,-128(sp)

0000000080008ed4 <i_8821>:
    80008ed4:	0055e263          	bltu	a1,t0,80008ed8 <i_8822>

0000000080008ed8 <i_8822>:
    80008ed8:	00712a23          	sw	t2,20(sp)

0000000080008edc <i_8823>:
    80008edc:	ff3102a3          	sb	s3,-27(sp)

0000000080008ee0 <i_8824>:
    80008ee0:	00108463          	beq	ra,ra,80008ee8 <i_8826>

0000000080008ee4 <i_8825>:
    80008ee4:	027b3f33          	mulhu	t5,s6,t2

0000000080008ee8 <i_8826>:
    80008ee8:	0166c6b3          	xor	a3,a3,s6

0000000080008eec <i_8827>:
    80008eec:	00b00513          	li	a0,11

0000000080008ef0 <i_8828>:
    80008ef0:	00a0db3b          	srlw	s6,ra,a0

0000000080008ef4 <i_8829>:
    80008ef4:	1a111823          	sh	ra,432(sp)

0000000080008ef8 <i_8830>:
    80008ef8:	13612423          	sw	s6,296(sp)

0000000080008efc <i_8831>:
    80008efc:	e5712023          	sw	s7,-448(sp)

0000000080008f00 <i_8832>:
    80008f00:	017b3233          	sltu	tp,s6,s7

0000000080008f04 <i_8833>:
    80008f04:	1dd14083          	lbu	ra,477(sp)

0000000080008f08 <i_8834>:
    80008f08:	08014683          	lbu	a3,128(sp)

0000000080008f0c <i_8835>:
    80008f0c:	e6415c83          	lhu	s9,-412(sp)

0000000080008f10 <i_8836>:
    80008f10:	99c68513          	addi	a0,a3,-1636

0000000080008f14 <i_8837>:
    80008f14:	01200f13          	li	t5,18

0000000080008f18 <i_8838>:
    80008f18:	01e55bbb          	srlw	s7,a0,t5

0000000080008f1c <i_8839>:
    80008f1c:	00f3c3b3          	xor	t2,t2,a5

0000000080008f20 <i_8840>:
    80008f20:	03bbfdbb          	remuw	s11,s7,s11

0000000080008f24 <i_8841>:
    80008f24:	004ba233          	slt	tp,s7,tp

0000000080008f28 <i_8842>:
    80008f28:	01bbe263          	bltu	s7,s11,80008f2c <i_8843>

0000000080008f2c <i_8843>:
    80008f2c:	18812203          	lw	tp,392(sp)

0000000080008f30 <i_8844>:
    80008f30:	f8813203          	ld	tp,-120(sp)

0000000080008f34 <i_8845>:
    80008f34:	02424063          	blt	tp,tp,80008f54 <i_8853>

0000000080008f38 <i_8846>:
    80008f38:	fd610b03          	lb	s6,-42(sp)

0000000080008f3c <i_8847>:
    80008f3c:	03621b33          	mulh	s6,tp,s6

0000000080008f40 <i_8848>:
    80008f40:	01b24233          	xor	tp,tp,s11

0000000080008f44 <i_8849>:
    80008f44:	03610323          	sb	s6,38(sp)

0000000080008f48 <i_8850>:
    80008f48:	00421a63          	bne	tp,tp,80008f5c <i_8855>

0000000080008f4c <i_8851>:
    80008f4c:	01000a13          	li	s4,16

0000000080008f50 <i_8852>:
    80008f50:	0146d6bb          	srlw	a3,a3,s4

0000000080008f54 <i_8853>:
    80008f54:	014b5e63          	ble	s4,s6,80008f70 <i_8860>

0000000080008f58 <i_8854>:
    80008f58:	01b00f13          	li	t5,27

0000000080008f5c <i_8855>:
    80008f5c:	41e851bb          	sraw	gp,a6,t5

0000000080008f60 <i_8856>:
    80008f60:	13813983          	ld	s3,312(sp)

0000000080008f64 <i_8857>:
    80008f64:	cd1b019b          	addiw	gp,s6,-815

0000000080008f68 <i_8858>:
    80008f68:	004a5263          	ble	tp,s4,80008f6c <i_8859>

0000000080008f6c <i_8859>:
    80008f6c:	278f7b13          	andi	s6,t5,632

0000000080008f70 <i_8860>:
    80008f70:	03e9e463          	bltu	s3,t5,80008f98 <i_8870>

0000000080008f74 <i_8861>:
    80008f74:	03eb6263          	bltu	s6,t5,80008f98 <i_8870>

0000000080008f78 <i_8862>:
    80008f78:	09e13023          	sd	t5,128(sp)

0000000080008f7c <i_8863>:
    80008f7c:	1dc16783          	lwu	a5,476(sp)

0000000080008f80 <i_8864>:
    80008f80:	23e3ab13          	slti	s6,t2,574

0000000080008f84 <i_8865>:
    80008f84:	416f0c3b          	subw	s8,t5,s6

0000000080008f88 <i_8866>:
    80008f88:	14e14783          	lbu	a5,334(sp)

0000000080008f8c <i_8867>:
    80008f8c:	13312423          	sw	s3,296(sp)

0000000080008f90 <i_8868>:
    80008f90:	01679263          	bne	a5,s6,80008f94 <i_8869>

0000000080008f94 <i_8869>:
    80008f94:	03679463          	bne	a5,s6,80008fbc <i_8879>

0000000080008f98 <i_8870>:
    80008f98:	0139da63          	ble	s3,s3,80008fac <i_8875>

0000000080008f9c <i_8871>:
    80008f9c:	02fb4263          	blt	s6,a5,80008fc0 <i_8880>

0000000080008fa0 <i_8872>:
    80008fa0:	e5811023          	sh	s8,-448(sp)

0000000080008fa4 <i_8873>:
    80008fa4:	03f00393          	li	t2,63

0000000080008fa8 <i_8874>:
    80008fa8:	007c5d33          	srl	s10,s8,t2

0000000080008fac <i_8875>:
    80008fac:	00f39863          	bne	t2,a5,80008fbc <i_8879>

0000000080008fb0 <i_8876>:
    80008fb0:	e1cd039b          	addiw	t2,s10,-484

0000000080008fb4 <i_8877>:
    80008fb4:	01a00393          	li	t2,26

0000000080008fb8 <i_8878>:
    80008fb8:	007d13b3          	sll	t2,s10,t2

0000000080008fbc <i_8879>:
    80008fbc:	0073c863          	blt	t2,t2,80008fcc <i_8883>

0000000080008fc0 <i_8880>:
    80008fc0:	f5910d23          	sb	s9,-166(sp)

0000000080008fc4 <i_8881>:
    80008fc4:	0273d263          	ble	t2,t2,80008fe8 <i_8890>

0000000080008fc8 <i_8882>:
    80008fc8:	0da11203          	lh	tp,218(sp)

0000000080008fcc <i_8883>:
    80008fcc:	0073e463          	bltu	t2,t2,80008fd4 <i_8885>

0000000080008fd0 <i_8884>:
    80008fd0:	02000f13          	li	t5,32

0000000080008fd4 <i_8885>:
    80008fd4:	41e253b3          	sra	t2,tp,t5

0000000080008fd8 <i_8886>:
    80008fd8:	f1416403          	lwu	s0,-236(sp)

0000000080008fdc <i_8887>:
    80008fdc:	01100593          	li	a1,17

0000000080008fe0 <i_8888>:
    80008fe0:	00ba1b3b          	sllw	s6,s4,a1

0000000080008fe4 <i_8889>:
    80008fe4:	10811803          	lh	a6,264(sp)

0000000080008fe8 <i_8890>:
    80008fe8:	00b865b3          	or	a1,a6,a1

0000000080008fec <i_8891>:
    80008fec:	0ba11583          	lh	a1,186(sp)

0000000080008ff0 <i_8892>:
    80008ff0:	0b013423          	sd	a6,168(sp)

0000000080008ff4 <i_8893>:
    80008ff4:	00300593          	li	a1,3

0000000080008ff8 <i_8894>:
    80008ff8:	00b5d833          	srl	a6,a1,a1

0000000080008ffc <i_8895>:
    80008ffc:	0325c263          	blt	a1,s2,80009020 <i_8904>

0000000080009000 <i_8896>:
    80009000:	02b5c5b3          	div	a1,a1,a1

0000000080009004 <i_8897>:
    80009004:	0255c5b3          	div	a1,a1,t0

0000000080009008 <i_8898>:
    80009008:	021e50b3          	divu	ra,t3,ra

000000008000900c <i_8899>:
    8000900c:	e1a11983          	lh	s3,-486(sp)

0000000080009010 <i_8900>:
    80009010:	00b0d263          	ble	a1,ra,80009014 <i_8901>

0000000080009014 <i_8901>:
    80009014:	02111523          	sh	ra,42(sp)

0000000080009018 <i_8902>:
    80009018:	03610e03          	lb	t3,54(sp)

000000008000901c <i_8903>:
    8000901c:	0be10083          	lb	ra,190(sp)

0000000080009020 <i_8904>:
    80009020:	e2114a83          	lbu	s5,-479(sp)

0000000080009024 <i_8905>:
    80009024:	e5f10d83          	lb	s11,-417(sp)

0000000080009028 <i_8906>:
    80009028:	e7313023          	sd	s3,-416(sp)

000000008000902c <i_8907>:
    8000902c:	e3e15c83          	lhu	s9,-450(sp)

0000000080009030 <i_8908>:
    80009030:	bac55537          	lui	a0,0xbac55

0000000080009034 <i_8909>:
    80009034:	013e1e63          	bne	t3,s3,80009050 <i_8916>

0000000080009038 <i_8910>:
    80009038:	05511e23          	sh	s5,92(sp)

000000008000903c <i_8911>:
    8000903c:	f9c13423          	sd	t3,-120(sp)

0000000080009040 <i_8912>:
    80009040:	035af263          	bleu	s5,s5,80009064 <i_8921>

0000000080009044 <i_8913>:
    80009044:	e9813d03          	ld	s10,-360(sp)

0000000080009048 <i_8914>:
    80009048:	033e4533          	div	a0,t3,s3

000000008000904c <i_8915>:
    8000904c:	03ce3e33          	mulhu	t3,t3,t3

0000000080009050 <i_8916>:
    80009050:	19012283          	lw	t0,400(sp)

0000000080009054 <i_8917>:
    80009054:	827d6e93          	ori	t4,s10,-2009

0000000080009058 <i_8918>:
    80009058:	01a29663          	bne	t0,s10,80009064 <i_8921>

000000008000905c <i_8919>:
    8000905c:	e9613823          	sd	s6,-368(sp)

0000000080009060 <i_8920>:
    80009060:	f5711323          	sh	s7,-186(sp)

0000000080009064 <i_8921>:
    80009064:	01000b13          	li	s6,16

0000000080009068 <i_8922>:
    80009068:	4162dd3b          	sraw	s10,t0,s6

000000008000906c <i_8923>:
    8000906c:	fa410283          	lb	t0,-92(sp)

0000000080009070 <i_8924>:
    80009070:	b6239c37          	lui	s8,0xb6239

0000000080009074 <i_8925>:
    80009074:	038b1063          	bne	s6,s8,80009094 <i_8933>

0000000080009078 <i_8926>:
    80009078:	f5a13023          	sd	s10,-192(sp)

000000008000907c <i_8927>:
    8000907c:	12a14d03          	lbu	s10,298(sp)

0000000080009080 <i_8928>:
    80009080:	f7a109a3          	sb	s10,-141(sp)

0000000080009084 <i_8929>:
    80009084:	ef813f03          	ld	t5,-264(sp)

0000000080009088 <i_8930>:
    80009088:	08013203          	ld	tp,128(sp)

000000008000908c <i_8931>:
    8000908c:	004d7c63          	bleu	tp,s10,800090a4 <i_8937>

0000000080009090 <i_8932>:
    80009090:	005c6663          	bltu	s8,t0,8000909c <i_8935>

0000000080009094 <i_8933>:
    80009094:	ff015b83          	lhu	s7,-16(sp)

0000000080009098 <i_8934>:
    80009098:	f0816283          	lwu	t0,-248(sp)

000000008000909c <i_8935>:
    8000909c:	02fb5b33          	divu	s6,s6,a5

00000000800090a0 <i_8936>:
    800090a0:	004285b3          	add	a1,t0,tp

00000000800090a4 <i_8937>:
    800090a4:	0f013303          	ld	t1,240(sp)

00000000800090a8 <i_8938>:
    800090a8:	11613c23          	sd	s6,280(sp)

00000000800090ac <i_8939>:
    800090ac:	89100f13          	li	t5,-1903

00000000800090b0 <i_8940>:
    800090b0:	8a400d13          	li	s10,-1884

00000000800090b4 <i_8941>:
    800090b4:	001f0f13          	addi	t5,t5,1
    800090b8:	ffed7ee3          	bleu	t5,s10,800090b4 <i_8941>

00000000800090bc <i_8942>:
    800090bc:	0a411d23          	sh	tp,186(sp)

00000000800090c0 <i_8943>:
    800090c0:	ed411483          	lh	s1,-300(sp)

00000000800090c4 <i_8944>:
    800090c4:	00936c63          	bltu	t1,s1,800090dc <i_8950>

00000000800090c8 <i_8945>:
    800090c8:	ec412223          	sw	tp,-316(sp)

00000000800090cc <i_8946>:
    800090cc:	0240de33          	divu	t3,ra,tp

00000000800090d0 <i_8947>:
    800090d0:	017b5e63          	ble	s7,s6,800090ec <i_8954>

00000000800090d4 <i_8948>:
    800090d4:	00365c63          	ble	gp,a2,800090ec <i_8954>

00000000800090d8 <i_8949>:
    800090d8:	0265dd33          	divu	s10,a1,t1

00000000800090dc <i_8950>:
    800090dc:	00259b93          	slli	s7,a1,0x2

00000000800090e0 <i_8951>:
    800090e0:	01cd1263          	bne	s10,t3,800090e4 <i_8952>

00000000800090e4 <i_8952>:
    800090e4:	02ae4063          	blt	t3,a0,80009104 <i_8960>

00000000800090e8 <i_8953>:
    800090e8:	03b2d463          	ble	s11,t0,80009110 <i_8963>

00000000800090ec <i_8954>:
    800090ec:	00d10803          	lb	a6,13(sp)

00000000800090f0 <i_8955>:
    800090f0:	38a9899b          	addiw	s3,s3,906

00000000800090f4 <i_8956>:
    800090f4:	01400293          	li	t0,20

00000000800090f8 <i_8957>:
    800090f8:	4054da3b          	sraw	s4,s1,t0

00000000800090fc <i_8958>:
    800090fc:	038b4a93          	xori	s5,s6,56

0000000080009100 <i_8959>:
    80009100:	00ce4a63          	blt	t3,a2,80009114 <i_8964>

0000000080009104 <i_8960>:
    80009104:	68220613          	addi	a2,tp,1666 # 682 <main-0x7ffff97e>

0000000080009108 <i_8961>:
    80009108:	15812203          	lw	tp,344(sp)

000000008000910c <i_8962>:
    8000910c:	e2a63213          	sltiu	tp,a2,-470

0000000080009110 <i_8963>:
    80009110:	00c221b3          	slt	gp,tp,a2

0000000080009114 <i_8964>:
    80009114:	fc310203          	lb	tp,-61(sp)

0000000080009118 <i_8965>:
    80009118:	02341433          	mulh	s0,s0,gp

000000008000911c <i_8966>:
    8000911c:	8bd00593          	li	a1,-1859

0000000080009120 <i_8967>:
    80009120:	8d000993          	li	s3,-1840

0000000080009124 <i_8968>:
    80009124:	1c014183          	lbu	gp,448(sp)

0000000080009128 <i_8969>:
    80009128:	f6f102a3          	sb	a5,-155(sp)

000000008000912c <i_8970>:
    8000912c:	0b810c03          	lb	s8,184(sp)

0000000080009130 <i_8971>:
    80009130:	e381f393          	andi	t2,gp,-456

0000000080009134 <i_8972>:
    80009134:	0d012383          	lw	t2,208(sp)

0000000080009138 <i_8973>:
    80009138:	1d412183          	lw	gp,468(sp)

000000008000913c <i_8974>:
    8000913c:	15812623          	sw	s8,332(sp)

0000000080009140 <i_8975>:
    80009140:	fe411203          	lh	tp,-28(sp)

0000000080009144 <i_8976>:
    80009144:	02738663          	beq	t2,t2,80009170 <i_8986>

0000000080009148 <i_8977>:
    80009148:	0c610803          	lb	a6,198(sp)

000000008000914c <i_8978>:
    8000914c:	41c20833          	sub	a6,tp,t3

0000000080009150 <i_8979>:
    80009150:	00158593          	addi	a1,a1,1
    80009154:	fd35c8e3          	blt	a1,s3,80009124 <i_8968>

0000000080009158 <i_8980>:
    80009158:	fb615383          	lhu	t2,-74(sp)

000000008000915c <i_8981>:
    8000915c:	efc10c03          	lb	s8,-260(sp)

0000000080009160 <i_8982>:
    80009160:	8874a813          	slti	a6,s1,-1913

0000000080009164 <i_8983>:
    80009164:	02013603          	ld	a2,32(sp)

0000000080009168 <i_8984>:
    80009168:	00f00493          	li	s1,15

000000008000916c <i_8985>:
    8000916c:	4098523b          	sraw	tp,a6,s1

0000000080009170 <i_8986>:
    80009170:	ef411983          	lh	s3,-268(sp)

0000000080009174 <i_8987>:
    80009174:	01338663          	beq	t2,s3,80009180 <i_8990>

0000000080009178 <i_8988>:
    80009178:	0274d83b          	divuw	a6,s1,t2

000000008000917c <i_8989>:
    8000917c:	fa910ca3          	sb	s1,-71(sp)

0000000080009180 <i_8990>:
    80009180:	f6611323          	sh	t1,-154(sp)

0000000080009184 <i_8991>:
    80009184:	cc80b397          	auipc	t2,0xcc80b

0000000080009188 <i_8992>:
    80009188:	cc513337          	lui	t1,0xcc513

000000008000918c <i_8993>:
    8000918c:	73a00693          	li	a3,1850

0000000080009190 <i_8994>:
    80009190:	74300793          	li	a5,1859

0000000080009194 <i_8995>:
    80009194:	0fe15303          	lhu	t1,254(sp)

0000000080009198 <i_8996>:
    80009198:	0a412403          	lw	s0,164(sp)

000000008000919c <i_8997>:
    8000919c:	00168693          	addi	a3,a3,1
    800091a0:	fed7fae3          	bleu	a3,a5,80009194 <i_8995>

00000000800091a4 <i_8998>:
    800091a4:	ecc10403          	lb	s0,-308(sp)

00000000800091a8 <i_8999>:
    800091a8:	00d40a63          	beq	s0,a3,800091bc <i_9004>

00000000800091ac <i_9000>:
    800091ac:	00169263          	bne	a3,ra,800091b0 <i_9001>

00000000800091b0 <i_9001>:
    800091b0:	408286bb          	subw	a3,t0,s0

00000000800091b4 <i_9002>:
    800091b4:	00145413          	srli	s0,s0,0x1

00000000800091b8 <i_9003>:
    800091b8:	f9612023          	sw	s6,-128(sp)

00000000800091bc <i_9004>:
    800091bc:	01800c93          	li	s9,24

00000000800091c0 <i_9005>:
    800091c0:	019696bb          	sllw	a3,a3,s9

00000000800091c4 <i_9006>:
    800091c4:	1a811223          	sh	s0,420(sp)

00000000800091c8 <i_9007>:
    800091c8:	a4acb293          	sltiu	t0,s9,-1462

00000000800091cc <i_9008>:
    800091cc:	fc014203          	lbu	tp,-64(sp)

00000000800091d0 <i_9009>:
    800091d0:	02d28063          	beq	t0,a3,800091f0 <i_9017>

00000000800091d4 <i_9010>:
    800091d4:	01925c63          	ble	s9,tp,800091ec <i_9016>

00000000800091d8 <i_9011>:
    800091d8:	07910d23          	sb	s9,122(sp)

00000000800091dc <i_9012>:
    800091dc:	02828063          	beq	t0,s0,800091fc <i_9020>

00000000800091e0 <i_9013>:
    800091e0:	01400c13          	li	s8,20

00000000800091e4 <i_9014>:
    800091e4:	018bd2bb          	srlw	t0,s7,s8

00000000800091e8 <i_9015>:
    800091e8:	1b215303          	lhu	t1,434(sp)

00000000800091ec <i_9016>:
    800091ec:	03d2853b          	mulw	a0,t0,t4

00000000800091f0 <i_9017>:
    800091f0:	ec012583          	lw	a1,-320(sp)

00000000800091f4 <i_9018>:
    800091f4:	00500a93          	li	s5,5

00000000800091f8 <i_9019>:
    800091f8:	0151133b          	sllw	t1,sp,s5

00000000800091fc <i_9020>:
    800091fc:	00b44433          	xor	s0,s0,a1

0000000080009200 <i_9021>:
    80009200:	1c711e23          	sh	t2,476(sp)

0000000080009204 <i_9022>:
    80009204:	7a500293          	li	t0,1957

0000000080009208 <i_9023>:
    80009208:	7a900a93          	li	s5,1961

000000008000920c <i_9024>:
    8000920c:	ed412c03          	lw	s8,-300(sp)

0000000080009210 <i_9025>:
    80009210:	f3813823          	sd	s8,-208(sp)

0000000080009214 <i_9026>:
    80009214:	0055dc63          	ble	t0,a1,8000922c <i_9032>

0000000080009218 <i_9027>:
    80009218:	fe812623          	sw	s0,-20(sp)

000000008000921c <i_9028>:
    8000921c:	02829263          	bne	t0,s0,80009240 <i_9037>

0000000080009220 <i_9029>:
    80009220:	017a8463          	beq	s5,s7,80009228 <i_9031>

0000000080009224 <i_9030>:
    80009224:	0082ef33          	or	t5,t0,s0

0000000080009228 <i_9031>:
    80009228:	003e5c9b          	srliw	s9,t3,0x3

000000008000922c <i_9032>:
    8000922c:	e8f13423          	sd	a5,-376(sp)

0000000080009230 <i_9033>:
    80009230:	005b8863          	beq	s7,t0,80009240 <i_9037>

0000000080009234 <i_9034>:
    80009234:	12c10603          	lb	a2,300(sp)

0000000080009238 <i_9035>:
    80009238:	02fc7463          	bleu	a5,s8,80009260 <i_9044>

000000008000923c <i_9036>:
    8000923c:	ea013c83          	ld	s9,-352(sp)

0000000080009240 <i_9037>:
    80009240:	fcd14983          	lbu	s3,-51(sp)

0000000080009244 <i_9038>:
    80009244:	02cf7063          	bleu	a2,t5,80009264 <i_9045>

0000000080009248 <i_9039>:
    80009248:	00128293          	addi	t0,t0,1
    8000924c:	fd52e0e3          	bltu	t0,s5,8000920c <i_9024>

0000000080009250 <i_9040>:
    80009250:	f7c16f03          	lwu	t5,-132(sp)

0000000080009254 <i_9041>:
    80009254:	005f73b3          	and	t2,t5,t0

0000000080009258 <i_9042>:
    80009258:	03767cb3          	remu	s9,a2,s7

000000008000925c <i_9043>:
    8000925c:	04f14983          	lbu	s3,79(sp)

0000000080009260 <i_9044>:
    80009260:	008a7863          	bleu	s0,s4,80009270 <i_9048>

0000000080009264 <i_9045>:
    80009264:	00b67863          	bleu	a1,a2,80009274 <i_9049>

0000000080009268 <i_9046>:
    80009268:	0273d63b          	divuw	a2,t2,t2

000000008000926c <i_9047>:
    8000926c:	f0813803          	ld	a6,-248(sp)

0000000080009270 <i_9048>:
    80009270:	0f9107a3          	sb	s9,239(sp)

0000000080009274 <i_9049>:
    80009274:	fd615503          	lhu	a0,-42(sp)

0000000080009278 <i_9050>:
    80009278:	00abfbb3          	and	s7,s7,a0

000000008000927c <i_9051>:
    8000927c:	74800393          	li	t2,1864

0000000080009280 <i_9052>:
    80009280:	75700813          	li	a6,1879

0000000080009284 <i_9053>:
    80009284:	00a3f863          	bleu	a0,t2,80009294 <i_9057>

0000000080009288 <i_9054>:
    80009288:	e9a15503          	lhu	a0,-358(sp)

000000008000928c <i_9055>:
    8000928c:	14011283          	lh	t0,320(sp)

0000000080009290 <i_9056>:
    80009290:	00000013          	nop

0000000080009294 <i_9057>:
    80009294:	3f75099b          	addiw	s3,a0,1015

0000000080009298 <i_9058>:
    80009298:	00000013          	nop

000000008000929c <i_9059>:
    8000929c:	73300e13          	li	t3,1843

00000000800092a0 <i_9060>:
    800092a0:	73e00213          	li	tp,1854

00000000800092a4 <i_9061>:
    800092a4:	e3228a9b          	addiw	s5,t0,-462

00000000800092a8 <i_9062>:
    800092a8:	001e0e13          	addi	t3,t3,1 # 40f6d985 <main-0x3f09267b>
    800092ac:	ffc25ce3          	ble	t3,tp,800092a4 <i_9061>

00000000800092b0 <i_9063>:
    800092b0:	12512223          	sw	t0,292(sp)

00000000800092b4 <i_9064>:
    800092b4:	1da15f03          	lhu	t5,474(sp)

00000000800092b8 <i_9065>:
    800092b8:	00138393          	addi	t2,t2,1 # 4c814185 <main-0x337ebe7b>
    800092bc:	fd03c4e3          	blt	t2,a6,80009284 <i_9053>

00000000800092c0 <i_9066>:
    800092c0:	001f7f33          	and	t5,t5,ra

00000000800092c4 <i_9067>:
    800092c4:	00000013          	nop

00000000800092c8 <i_9068>:
    800092c8:	80f00513          	li	a0,-2033

00000000800092cc <i_9069>:
    800092cc:	81900393          	li	t2,-2023

00000000800092d0 <i_9070>:
    800092d0:	05a11083          	lh	ra,90(sp)

00000000800092d4 <i_9071>:
    800092d4:	00a13023          	sd	a0,0(sp)

00000000800092d8 <i_9072>:
    800092d8:	00149493          	slli	s1,s1,0x1

00000000800092dc <i_9073>:
    800092dc:	01855e63          	ble	s8,a0,800092f8 <i_9080>

00000000800092e0 <i_9074>:
    800092e0:	01f50e63          	beq	a0,t6,800092fc <i_9081>

00000000800092e4 <i_9075>:
    800092e4:	06016283          	lwu	t0,96(sp)

00000000800092e8 <i_9076>:
    800092e8:	11615c03          	lhu	s8,278(sp)

00000000800092ec <i_9077>:
    800092ec:	0382b4b3          	mulhu	s1,t0,s8

00000000800092f0 <i_9078>:
    800092f0:	fa911d23          	sh	s1,-70(sp)

00000000800092f4 <i_9079>:
    800092f4:	1cd10483          	lb	s1,461(sp)

00000000800092f8 <i_9080>:
    800092f8:	ec614583          	lbu	a1,-314(sp)

00000000800092fc <i_9081>:
    800092fc:	16313423          	sd	gp,360(sp)

0000000080009300 <i_9082>:
    80009300:	fe211a83          	lh	s5,-30(sp)

0000000080009304 <i_9083>:
    80009304:	04c16803          	lwu	a6,76(sp)

0000000080009308 <i_9084>:
    80009308:	00150513          	addi	a0,a0,1 # ffffffffbac55001 <_end+0xffffffff3ac44bed>
    8000930c:	fca3d2e3          	ble	a0,t2,800092d0 <i_9070>

0000000080009310 <i_9085>:
    80009310:	410486b3          	sub	a3,s1,a6

0000000080009314 <i_9086>:
    80009314:	00000013          	nop

0000000080009318 <i_9087>:
    80009318:	f1510ba3          	sb	s5,-233(sp)

000000008000931c <i_9088>:
    8000931c:	81f00813          	li	a6,-2017

0000000080009320 <i_9089>:
    80009320:	82800e93          	li	t4,-2008

0000000080009324 <i_9090>:
    80009324:	0c215b83          	lhu	s7,194(sp)

0000000080009328 <i_9091>:
    80009328:	00000013          	nop

000000008000932c <i_9092>:
    8000932c:	85100793          	li	a5,-1967

0000000080009330 <i_9093>:
    80009330:	85500493          	li	s1,-1963

0000000080009334 <i_9094>:
    80009334:	13513823          	sd	s5,304(sp)

0000000080009338 <i_9095>:
    80009338:	13512623          	sw	s5,300(sp)

000000008000933c <i_9096>:
    8000933c:	0f412b83          	lw	s7,244(sp)

0000000080009340 <i_9097>:
    80009340:	00000013          	nop

0000000080009344 <i_9098>:
    80009344:	03649b33          	mulh	s6,s1,s6

0000000080009348 <i_9099>:
    80009348:	ffc16b03          	lwu	s6,-4(sp)

000000008000934c <i_9100>:
    8000934c:	18b10583          	lb	a1,395(sp)

0000000080009350 <i_9101>:
    80009350:	00178793          	addi	a5,a5,1
    80009354:	fe97e0e3          	bltu	a5,s1,80009334 <i_9094>

0000000080009358 <i_9102>:
    80009358:	036b8abb          	mulw	s5,s7,s6

000000008000935c <i_9103>:
    8000935c:	14c16b03          	lwu	s6,332(sp)

0000000080009360 <i_9104>:
    80009360:	00180813          	addi	a6,a6,1
    80009364:	fdd860e3          	bltu	a6,t4,80009324 <i_9090>

0000000080009368 <i_9105>:
    80009368:	1d813d83          	ld	s11,472(sp)

000000008000936c <i_9106>:
    8000936c:	00cd45b3          	xor	a1,s10,a2

0000000080009370 <i_9107>:
    80009370:	05b10923          	sb	s11,82(sp)

0000000080009374 <i_9108>:
    80009374:	1a96b617          	auipc	a2,0x1a96b

0000000080009378 <i_9109>:
    80009378:	015ae263          	bltu	s5,s5,8000937c <i_9110>

000000008000937c <i_9110>:
    8000937c:	0ac12303          	lw	t1,172(sp)

0000000080009380 <i_9111>:
    80009380:	f5510da3          	sb	s5,-165(sp)

0000000080009384 <i_9112>:
    80009384:	01566c63          	bltu	a2,s5,8000939c <i_9118>

0000000080009388 <i_9113>:
    80009388:	f4811c23          	sh	s0,-168(sp)

000000008000938c <i_9114>:
    8000938c:	00000013          	nop

0000000080009390 <i_9115>:
    80009390:	001b5c1b          	srliw	s8,s6,0x1

0000000080009394 <i_9116>:
    80009394:	00000013          	nop

0000000080009398 <i_9117>:
    80009398:	01800b13          	li	s6,24

000000008000939c <i_9118>:
    8000939c:	016adc33          	srl	s8,s5,s6

00000000800093a0 <i_9119>:
    800093a0:	004c199b          	slliw	s3,s8,0x4

00000000800093a4 <i_9120>:
    800093a4:	79c00413          	li	s0,1948

00000000800093a8 <i_9121>:
    800093a8:	7a500613          	li	a2,1957

00000000800093ac <i_9122>:
    800093ac:	00439193          	slli	gp,t2,0x4

00000000800093b0 <i_9123>:
    800093b0:	e7310b03          	lb	s6,-397(sp)

00000000800093b4 <i_9124>:
    800093b4:	4043d39b          	sraiw	t2,t2,0x4

00000000800093b8 <i_9125>:
    800093b8:	00910203          	lb	tp,9(sp)

00000000800093bc <i_9126>:
    800093bc:	f7613423          	sd	s6,-152(sp)

00000000800093c0 <i_9127>:
    800093c0:	00140413          	addi	s0,s0,1
    800093c4:	fe8674e3          	bleu	s0,a2,800093ac <i_9122>

00000000800093c8 <i_9128>:
    800093c8:	401b519b          	sraiw	gp,s6,0x1

00000000800093cc <i_9129>:
    800093cc:	007cc863          	blt	s9,t2,800093dc <i_9133>

00000000800093d0 <i_9130>:
    800093d0:	ed314783          	lbu	a5,-301(sp)

00000000800093d4 <i_9131>:
    800093d4:	40a384bb          	subw	s1,t2,a0

00000000800093d8 <i_9132>:
    800093d8:	0244ca3b          	divw	s4,s1,tp

00000000800093dc <i_9133>:
    800093dc:	e1c94497          	auipc	s1,0xe1c94

00000000800093e0 <i_9134>:
    800093e0:	02d00393          	li	t2,45

00000000800093e4 <i_9135>:
    800093e4:	007194b3          	sll	s1,gp,t2

00000000800093e8 <i_9136>:
    800093e8:	f1510a23          	sb	s5,-236(sp)

00000000800093ec <i_9137>:
    800093ec:	1ba15983          	lhu	s3,442(sp)

00000000800093f0 <i_9138>:
    800093f0:	00fd6663          	bltu	s10,a5,800093fc <i_9141>

00000000800093f4 <i_9139>:
    800093f4:	0137a3b3          	slt	t2,a5,s3

00000000800093f8 <i_9140>:
    800093f8:	e4013203          	ld	tp,-448(sp)

00000000800093fc <i_9141>:
    800093fc:	fe013e83          	ld	t4,-32(sp)

0000000080009400 <i_9142>:
    80009400:	f5e15583          	lhu	a1,-162(sp)

0000000080009404 <i_9143>:
    80009404:	023b4463          	blt	s6,gp,8000942c <i_9153>

0000000080009408 <i_9144>:
    80009408:	36e2b613          	sltiu	a2,t0,878

000000008000940c <i_9145>:
    8000940c:	fec10c23          	sb	a2,-8(sp)

0000000080009410 <i_9146>:
    80009410:	18812a83          	lw	s5,392(sp)

0000000080009414 <i_9147>:
    80009414:	024655bb          	divuw	a1,a2,tp

0000000080009418 <i_9148>:
    80009418:	02baf263          	bleu	a1,s5,8000943c <i_9157>

000000008000941c <i_9149>:
    8000941c:	0035ee63          	bltu	a1,gp,80009438 <i_9156>

0000000080009420 <i_9150>:
    80009420:	00011e83          	lh	t4,0(sp)

0000000080009424 <i_9151>:
    80009424:	001f559b          	srliw	a1,t5,0x1

0000000080009428 <i_9152>:
    80009428:	00000013          	nop

000000008000942c <i_9153>:
    8000942c:	019c8cb3          	add	s9,s9,s9

0000000080009430 <i_9154>:
    80009430:	ed812c83          	lw	s9,-296(sp)

0000000080009434 <i_9155>:
    80009434:	00f00193          	li	gp,15

0000000080009438 <i_9156>:
    80009438:	0035d833          	srl	a6,a1,gp

000000008000943c <i_9157>:
    8000943c:	05911023          	sh	s9,64(sp)

0000000080009440 <i_9158>:
    80009440:	e7813c03          	ld	s8,-392(sp)

0000000080009444 <i_9159>:
    80009444:	74600313          	li	t1,1862

0000000080009448 <i_9160>:
    80009448:	75500593          	li	a1,1877

000000008000944c <i_9161>:
    8000944c:	004c9c13          	slli	s8,s9,0x4

0000000080009450 <i_9162>:
    80009450:	00000013          	nop

0000000080009454 <i_9163>:
    80009454:	ecc16c03          	lwu	s8,-308(sp)

0000000080009458 <i_9164>:
    80009458:	03942c33          	mulhsu	s8,s0,s9

000000008000945c <i_9165>:
    8000945c:	002e141b          	slliw	s0,t3,0x2

0000000080009460 <i_9166>:
    80009460:	01d20eb3          	add	t4,tp,t4

0000000080009464 <i_9167>:
    80009464:	00130313          	addi	t1,t1,1 # ffffffffcc513001 <_end+0xffffffff4c502bed>
    80009468:	feb312e3          	bne	t1,a1,8000944c <i_9161>

000000008000946c <i_9168>:
    8000946c:	03d25d33          	divu	s10,tp,t4

0000000080009470 <i_9169>:
    80009470:	0d8109a3          	sb	s8,211(sp)

0000000080009474 <i_9170>:
    80009474:	c5d4029b          	addiw	t0,s0,-931

0000000080009478 <i_9171>:
    80009478:	4044023b          	subw	tp,s0,tp

000000008000947c <i_9172>:
    8000947c:	005ef663          	bleu	t0,t4,80009488 <i_9175>

0000000080009480 <i_9173>:
    80009480:	314c3b13          	sltiu	s6,s8,788

0000000080009484 <i_9174>:
    80009484:	03ab1263          	bne	s6,s10,800094a8 <i_9183>

0000000080009488 <i_9175>:
    80009488:	eb8105a3          	sb	s8,-341(sp)

000000008000948c <i_9176>:
    8000948c:	03a25063          	ble	s10,tp,800094ac <i_9184>

0000000080009490 <i_9177>:
    80009490:	fb211503          	lh	a0,-78(sp)

0000000080009494 <i_9178>:
    80009494:	17011b83          	lh	s7,368(sp)

0000000080009498 <i_9179>:
    80009498:	016ff663          	bleu	s6,t6,800094a4 <i_9182>

000000008000949c <i_9180>:
    8000949c:	14a13023          	sd	a0,320(sp)

00000000800094a0 <i_9181>:
    800094a0:	00812c83          	lw	s9,8(sp)

00000000800094a4 <i_9182>:
    800094a4:	eb211d03          	lh	s10,-334(sp)

00000000800094a8 <i_9183>:
    800094a8:	15a13823          	sd	s10,336(sp)

00000000800094ac <i_9184>:
    800094ac:	14015d03          	lhu	s10,320(sp)

00000000800094b0 <i_9185>:
    800094b0:	1b510b83          	lb	s7,437(sp)

00000000800094b4 <i_9186>:
    800094b4:	019cd463          	ble	s9,s9,800094bc <i_9188>

00000000800094b8 <i_9187>:
    800094b8:	ffc16403          	lwu	s0,-4(sp)

00000000800094bc <i_9188>:
    800094bc:	18613c23          	sd	t1,408(sp)

00000000800094c0 <i_9189>:
    800094c0:	0162c663          	blt	t0,s6,800094cc <i_9192>

00000000800094c4 <i_9190>:
    800094c4:	f7812403          	lw	s0,-136(sp)

00000000800094c8 <i_9191>:
    800094c8:	00abea63          	bltu	s7,a0,800094dc <i_9196>

00000000800094cc <i_9192>:
    800094cc:	0192cc33          	xor	s8,t0,s9

00000000800094d0 <i_9193>:
    800094d0:	19e11e03          	lh	t3,414(sp)

00000000800094d4 <i_9194>:
    800094d4:	0085ee63          	bltu	a1,s0,800094f0 <i_9201>

00000000800094d8 <i_9195>:
    800094d8:	004c5c63          	ble	tp,s8,800094f0 <i_9201>

00000000800094dc <i_9196>:
    800094dc:	f7210203          	lb	tp,-142(sp)

00000000800094e0 <i_9197>:
    800094e0:	40d1043b          	subw	s0,sp,a3

00000000800094e4 <i_9198>:
    800094e4:	60a24213          	xori	tp,tp,1546

00000000800094e8 <i_9199>:
    800094e8:	008e9463          	bne	t4,s0,800094f0 <i_9201>

00000000800094ec <i_9200>:
    800094ec:	00012203          	lw	tp,0(sp)

00000000800094f0 <i_9201>:
    800094f0:	f0611c03          	lh	s8,-250(sp)

00000000800094f4 <i_9202>:
    800094f4:	10015203          	lhu	tp,256(sp)

00000000800094f8 <i_9203>:
    800094f8:	ed813203          	ld	tp,-296(sp)

00000000800094fc <i_9204>:
    800094fc:	00427233          	and	tp,tp,tp

0000000080009500 <i_9205>:
    80009500:	003e9e93          	slli	t4,t4,0x3

0000000080009504 <i_9206>:
    80009504:	00420663          	beq	tp,tp,80009510 <i_9209>

0000000080009508 <i_9207>:
    80009508:	024ee7b3          	rem	a5,t4,tp

000000008000950c <i_9208>:
    8000950c:	00f00193          	li	gp,15

0000000080009510 <i_9209>:
    80009510:	00321333          	sll	t1,tp,gp

0000000080009514 <i_9210>:
    80009514:	f6f12823          	sw	a5,-144(sp)

0000000080009518 <i_9211>:
    80009518:	7c600393          	li	t2,1990

000000008000951c <i_9212>:
    8000951c:	7c900213          	li	tp,1993

0000000080009520 <i_9213>:
    80009520:	ef614c83          	lbu	s9,-266(sp)

0000000080009524 <i_9214>:
    80009524:	15c12303          	lw	t1,348(sp)

0000000080009528 <i_9215>:
    80009528:	05813d03          	ld	s10,88(sp)

000000008000952c <i_9216>:
    8000952c:	78c00793          	li	a5,1932

0000000080009530 <i_9217>:
    80009530:	78e00c93          	li	s9,1934

0000000080009534 <i_9218>:
    80009534:	1e410583          	lb	a1,484(sp)

0000000080009538 <i_9219>:
    80009538:	f6b13c23          	sd	a1,-136(sp)

000000008000953c <i_9220>:
    8000953c:	03937f33          	remu	t5,t1,s9

0000000080009540 <i_9221>:
    80009540:	0ac10123          	sb	a2,162(sp)

0000000080009544 <i_9222>:
    80009544:	00000013          	nop

0000000080009548 <i_9223>:
    80009548:	e2a11a83          	lh	s5,-470(sp)

000000008000954c <i_9224>:
    8000954c:	00178793          	addi	a5,a5,1
    80009550:	fefcd2e3          	ble	a5,s9,80009534 <i_9218>

0000000080009554 <i_9225>:
    80009554:	f1911623          	sh	s9,-244(sp)

0000000080009558 <i_9226>:
    80009558:	00138393          	addi	t2,t2,1
    8000955c:	fc43e2e3          	bltu	t2,tp,80009520 <i_9213>

0000000080009560 <i_9227>:
    80009560:	f8a11803          	lh	a6,-118(sp)

0000000080009564 <i_9228>:
    80009564:	07b14c83          	lbu	s9,123(sp)

0000000080009568 <i_9229>:
    80009568:	13016b03          	lwu	s6,304(sp)

000000008000956c <i_9230>:
    8000956c:	00bf6ab3          	or	s5,t5,a1

0000000080009570 <i_9231>:
    80009570:	34880c9b          	addiw	s9,a6,840

0000000080009574 <i_9232>:
    80009574:	f1611223          	sh	s6,-252(sp)

0000000080009578 <i_9233>:
    80009578:	ff610b23          	sb	s6,-10(sp)

000000008000957c <i_9234>:
    8000957c:	07412083          	lw	ra,116(sp)

0000000080009580 <i_9235>:
    80009580:	e6d10d23          	sb	a3,-390(sp)

0000000080009584 <i_9236>:
    80009584:	e56105a3          	sb	s6,-437(sp)

0000000080009588 <i_9237>:
    80009588:	1ca14483          	lbu	s1,458(sp)

000000008000958c <i_9238>:
    8000958c:	01086a63          	bltu	a6,a6,800095a0 <i_9243>

0000000080009590 <i_9239>:
    80009590:	02148b33          	mul	s6,s1,ra

0000000080009594 <i_9240>:
    80009594:	03e761bb          	remw	gp,a4,t5

0000000080009598 <i_9241>:
    80009598:	403b5213          	srai	tp,s6,0x3

000000008000959c <i_9242>:
    8000959c:	f7c11a83          	lh	s5,-132(sp)

00000000800095a0 <i_9243>:
    800095a0:	03a20b33          	mul	s6,tp,s10

00000000800095a4 <i_9244>:
    800095a4:	f3c12603          	lw	a2,-196(sp)

00000000800095a8 <i_9245>:
    800095a8:	00c4e263          	bltu	s1,a2,800095ac <i_9246>

00000000800095ac <i_9246>:
    800095ac:	003b5493          	srli	s1,s6,0x3

00000000800095b0 <i_9247>:
    800095b0:	fb611b83          	lh	s7,-74(sp)

00000000800095b4 <i_9248>:
    800095b4:	fd815603          	lhu	a2,-40(sp)

00000000800095b8 <i_9249>:
    800095b8:	05210723          	sb	s2,78(sp)

00000000800095bc <i_9250>:
    800095bc:	13815683          	lhu	a3,312(sp)

00000000800095c0 <i_9251>:
    800095c0:	89900593          	li	a1,-1895

00000000800095c4 <i_9252>:
    800095c4:	89e00993          	li	s3,-1890

00000000800095c8 <i_9253>:
    800095c8:	01211323          	sh	s2,6(sp)

00000000800095cc <i_9254>:
    800095cc:	00158593          	addi	a1,a1,1
    800095d0:	feb99ce3          	bne	s3,a1,800095c8 <i_9253>

00000000800095d4 <i_9255>:
    800095d4:	aa672997          	auipc	s3,0xaa672

00000000800095d8 <i_9256>:
    800095d8:	0049dc1b          	srliw	s8,s3,0x4

00000000800095dc <i_9257>:
    800095dc:	13011803          	lh	a6,304(sp)

00000000800095e0 <i_9258>:
    800095e0:	00000013          	nop

00000000800095e4 <i_9259>:
    800095e4:	eab13823          	sd	a1,-336(sp)

00000000800095e8 <i_9260>:
    800095e8:	85f00993          	li	s3,-1953

00000000800095ec <i_9261>:
    800095ec:	86100613          	li	a2,-1951

00000000800095f0 <i_9262>:
    800095f0:	410581b3          	sub	gp,a1,a6

00000000800095f4 <i_9263>:
    800095f4:	ed416583          	lwu	a1,-300(sp)

00000000800095f8 <i_9264>:
    800095f8:	15812023          	sw	s8,320(sp)

00000000800095fc <i_9265>:
    800095fc:	ee013c03          	ld	s8,-288(sp)

0000000080009600 <i_9266>:
    80009600:	e7d14483          	lbu	s1,-387(sp)

0000000080009604 <i_9267>:
    80009604:	0045da93          	srli	s5,a1,0x4

0000000080009608 <i_9268>:
    80009608:	009c7463          	bleu	s1,s8,80009610 <i_9270>

000000008000960c <i_9269>:
    8000960c:	015c5663          	ble	s5,s8,80009618 <i_9272>

0000000080009610 <i_9270>:
    80009610:	9bcc3a93          	sltiu	s5,s8,-1604

0000000080009614 <i_9271>:
    80009614:	41248bb3          	sub	s7,s1,s2

0000000080009618 <i_9272>:
    80009618:	15b10e83          	lb	t4,347(sp)

000000008000961c <i_9273>:
    8000961c:	e8c15e83          	lhu	t4,-372(sp)

0000000080009620 <i_9274>:
    80009620:	038aaf33          	mulhsu	t5,s5,s8

0000000080009624 <i_9275>:
    80009624:	415a04b3          	sub	s1,s4,s5

0000000080009628 <i_9276>:
    80009628:	00198993          	addi	s3,s3,1 # 2a67b5d5 <main-0x55984a2b>
    8000962c:	fd3672e3          	bleu	s3,a2,800095f0 <i_9262>

0000000080009630 <i_9277>:
    80009630:	0bd10aa3          	sb	t4,181(sp)

0000000080009634 <i_9278>:
    80009634:	0c211a83          	lh	s5,194(sp)

0000000080009638 <i_9279>:
    80009638:	018f0463          	beq	t5,s8,80009640 <i_9281>

000000008000963c <i_9280>:
    8000963c:	616c6a13          	ori	s4,s8,1558

0000000080009640 <i_9281>:
    80009640:	018ee263          	bltu	t4,s8,80009644 <i_9282>

0000000080009644 <i_9282>:
    80009644:	037b8b33          	mul	s6,s7,s7

0000000080009648 <i_9283>:
    80009648:	07d12623          	sw	t4,108(sp)

000000008000964c <i_9284>:
    8000964c:	00baee63          	bltu	s5,a1,80009668 <i_9291>

0000000080009650 <i_9285>:
    80009650:	f8814183          	lbu	gp,-120(sp)

0000000080009654 <i_9286>:
    80009654:	41da8bbb          	subw	s7,s5,t4

0000000080009658 <i_9287>:
    80009658:	401ed19b          	sraiw	gp,t4,0x1

000000008000965c <i_9288>:
    8000965c:	f4a15e83          	lhu	t4,-182(sp)

0000000080009660 <i_9289>:
    80009660:	ff712223          	sw	s7,-28(sp)

0000000080009664 <i_9290>:
    80009664:	1dd13023          	sd	t4,448(sp)

0000000080009668 <i_9291>:
    80009668:	251e869b          	addiw	a3,t4,593

000000008000966c <i_9292>:
    8000966c:	01d687b3          	add	a5,a3,t4

0000000080009670 <i_9293>:
    80009670:	01770463          	beq	a4,s7,80009678 <i_9295>

0000000080009674 <i_9294>:
    80009674:	1d514c03          	lbu	s8,469(sp)

0000000080009678 <i_9295>:
    80009678:	59c72697          	auipc	a3,0x59c72

000000008000967c <i_9296>:
    8000967c:	02db8263          	beq	s7,a3,800096a0 <i_9305>

0000000080009680 <i_9297>:
    80009680:	ed3eac13          	slti	s8,t4,-301

0000000080009684 <i_9298>:
    80009684:	ac5c6d13          	ori	s10,s8,-1339

0000000080009688 <i_9299>:
    80009688:	1b412c03          	lw	s8,436(sp)

000000008000968c <i_9300>:
    8000968c:	e5611983          	lh	s3,-426(sp)

0000000080009690 <i_9301>:
    80009690:	01a9de63          	ble	s10,s3,800096ac <i_9308>

0000000080009694 <i_9302>:
    80009694:	ffa11823          	sh	s10,-16(sp)

0000000080009698 <i_9303>:
    80009698:	016d7c63          	bleu	s6,s10,800096b0 <i_9309>

000000008000969c <i_9304>:
    8000969c:	0eb14b83          	lbu	s7,235(sp)

00000000800096a0 <i_9305>:
    800096a0:	fb711e23          	sh	s7,-68(sp)

00000000800096a4 <i_9306>:
    800096a4:	02ac5c33          	divu	s8,s8,a0

00000000800096a8 <i_9307>:
    800096a8:	1a415983          	lhu	s3,420(sp)

00000000800096ac <i_9308>:
    800096ac:	e7514983          	lbu	s3,-395(sp)

00000000800096b0 <i_9309>:
    800096b0:	0389dbb3          	divu	s7,s3,s8

00000000800096b4 <i_9310>:
    800096b4:	ff416983          	lwu	s3,-12(sp)

00000000800096b8 <i_9311>:
    800096b8:	4034d613          	srai	a2,s1,0x3

00000000800096bc <i_9312>:
    800096bc:	40165c13          	srai	s8,a2,0x1

00000000800096c0 <i_9313>:
    800096c0:	e7013783          	ld	a5,-400(sp)

00000000800096c4 <i_9314>:
    800096c4:	18510483          	lb	s1,389(sp)

00000000800096c8 <i_9315>:
    800096c8:	e3813823          	sd	s8,-464(sp)

00000000800096cc <i_9316>:
    800096cc:	ac2c0313          	addi	t1,s8,-1342 # ffffffffb6238ac2 <_end+0xffffffff362286ae>

00000000800096d0 <i_9317>:
    800096d0:	02f38433          	mul	s0,t2,a5

00000000800096d4 <i_9318>:
    800096d4:	fcf14b83          	lbu	s7,-49(sp)

00000000800096d8 <i_9319>:
    800096d8:	f5813c03          	ld	s8,-168(sp)

00000000800096dc <i_9320>:
    800096dc:	f2e15b83          	lhu	s7,-210(sp)

00000000800096e0 <i_9321>:
    800096e0:	03948463          	beq	s1,s9,80009708 <i_9331>

00000000800096e4 <i_9322>:
    800096e4:	03636433          	rem	s0,t1,s6

00000000800096e8 <i_9323>:
    800096e8:	fff13823          	sd	t6,-16(sp)

00000000800096ec <i_9324>:
    800096ec:	ff911123          	sh	s9,-30(sp)

00000000800096f0 <i_9325>:
    800096f0:	11816783          	lwu	a5,280(sp)

00000000800096f4 <i_9326>:
    800096f4:	fa014b83          	lbu	s7,-96(sp)

00000000800096f8 <i_9327>:
    800096f8:	02f44f33          	div	t5,s0,a5

00000000800096fc <i_9328>:
    800096fc:	00000013          	nop

0000000080009700 <i_9329>:
    80009700:	1c012b83          	lw	s7,448(sp)

0000000080009704 <i_9330>:
    80009704:	1f6d0f13          	addi	t5,s10,502 # 2e3f31f6 <main-0x51c0ce0a>

0000000080009708 <i_9331>:
    80009708:	fba14483          	lbu	s1,-70(sp)

000000008000970c <i_9332>:
    8000970c:	e4012b83          	lw	s7,-448(sp)

0000000080009710 <i_9333>:
    80009710:	73900c93          	li	s9,1849

0000000080009714 <i_9334>:
    80009714:	74000c13          	li	s8,1856

0000000080009718 <i_9335>:
    80009718:	009bbab3          	sltu	s5,s7,s1

000000008000971c <i_9336>:
    8000971c:	001c8c93          	addi	s9,s9,1 # 767e3001 <main-0x981cfff>
    80009720:	ff9c5ce3          	ble	s9,s8,80009718 <i_9335>

0000000080009724 <i_9337>:
    80009724:	f6614e83          	lbu	t4,-154(sp)

0000000080009728 <i_9338>:
    80009728:	009bee63          	bltu	s7,s1,80009744 <i_9345>

000000008000972c <i_9339>:
    8000972c:	0d411b03          	lh	s6,212(sp)

0000000080009730 <i_9340>:
    80009730:	e2415b83          	lhu	s7,-476(sp)

0000000080009734 <i_9341>:
    80009734:	495bb313          	sltiu	t1,s7,1173

0000000080009738 <i_9342>:
    80009738:	0154ec63          	bltu	s1,s5,80009750 <i_9348>

000000008000973c <i_9343>:
    8000973c:	026ef263          	bleu	t1,t4,80009760 <i_9352>

0000000080009740 <i_9344>:
    80009740:	f1713423          	sd	s7,-248(sp)

0000000080009744 <i_9345>:
    80009744:	1b713023          	sd	s7,416(sp)

0000000080009748 <i_9346>:
    80009748:	41698333          	sub	t1,s3,s6

000000008000974c <i_9347>:
    8000974c:	09613c23          	sd	s6,152(sp)

0000000080009750 <i_9348>:
    80009750:	17c12583          	lw	a1,380(sp)

0000000080009754 <i_9349>:
    80009754:	ef013f03          	ld	t5,-272(sp)

0000000080009758 <i_9350>:
    80009758:	eee14783          	lbu	a5,-274(sp)

000000008000975c <i_9351>:
    8000975c:	00000013          	nop

0000000080009760 <i_9352>:
    80009760:	f7a14783          	lbu	a5,-134(sp)

0000000080009764 <i_9353>:
    80009764:	00000013          	nop

0000000080009768 <i_9354>:
    80009768:	8b300093          	li	ra,-1869

000000008000976c <i_9355>:
    8000976c:	8be00b13          	li	s6,-1858

0000000080009770 <i_9356>:
    80009770:	06f102a3          	sb	a5,101(sp)

0000000080009774 <i_9357>:
    80009774:	7d246997          	auipc	s3,0x7d246

0000000080009778 <i_9358>:
    80009778:	15811983          	lh	s3,344(sp)

000000008000977c <i_9359>:
    8000977c:	03e00313          	li	t1,62

0000000080009780 <i_9360>:
    80009780:	006597b3          	sll	a5,a1,t1

0000000080009784 <i_9361>:
    80009784:	1a514783          	lbu	a5,421(sp)

0000000080009788 <i_9362>:
    80009788:	0de10383          	lb	t2,222(sp)

000000008000978c <i_9363>:
    8000978c:	02a7f663          	bleu	a0,a5,800097b8 <i_9373>

0000000080009790 <i_9364>:
    80009790:	e8f13823          	sd	a5,-368(sp)

0000000080009794 <i_9365>:
    80009794:	0013d79b          	srliw	a5,t2,0x1

0000000080009798 <i_9366>:
    80009798:	02735463          	ble	t2,t1,800097c0 <i_9375>

000000008000979c <i_9367>:
    8000979c:	027883bb          	mulw	t2,a7,t2

00000000800097a0 <i_9368>:
    800097a0:	02f3d3bb          	divuw	t2,t2,a5

00000000800097a4 <i_9369>:
    800097a4:	ee410f03          	lb	t5,-284(sp)

00000000800097a8 <i_9370>:
    800097a8:	00108093          	addi	ra,ra,1
    800097ac:	fd60c2e3          	blt	ra,s6,80009770 <i_9356>

00000000800097b0 <i_9371>:
    800097b0:	08012783          	lw	a5,128(sp)

00000000800097b4 <i_9372>:
    800097b4:	00000013          	nop

00000000800097b8 <i_9373>:
    800097b8:	00000013          	nop

00000000800097bc <i_9374>:
    800097bc:	0277dd33          	divu	s10,a5,t2

00000000800097c0 <i_9375>:
    800097c0:	00000013          	nop

00000000800097c4 <i_9376>:
    800097c4:	026f66b3          	rem	a3,t5,t1

00000000800097c8 <i_9377>:
    800097c8:	86900513          	li	a0,-1943

00000000800097cc <i_9378>:
    800097cc:	86d00393          	li	t2,-1939

00000000800097d0 <i_9379>:
    800097d0:	11811e03          	lh	t3,280(sp)

00000000800097d4 <i_9380>:
    800097d4:	221ff317          	auipc	t1,0x221ff

00000000800097d8 <i_9381>:
    800097d8:	00150513          	addi	a0,a0,1
    800097dc:	fe754ae3          	blt	a0,t2,800097d0 <i_9379>

00000000800097e0 <i_9382>:
    800097e0:	14816783          	lwu	a5,328(sp)

00000000800097e4 <i_9383>:
    800097e4:	94cf3f13          	sltiu	t5,t5,-1716

00000000800097e8 <i_9384>:
    800097e8:	03ece6bb          	remw	a3,s9,t5

00000000800097ec <i_9385>:
    800097ec:	0033199b          	slliw	s3,t1,0x3

00000000800097f0 <i_9386>:
    800097f0:	75800313          	li	t1,1880

00000000800097f4 <i_9387>:
    800097f4:	76100f13          	li	t5,1889

00000000800097f8 <i_9388>:
    800097f8:	15c12d03          	lw	s10,348(sp)

00000000800097fc <i_9389>:
    800097fc:	3e46c693          	xori	a3,a3,996

0000000080009800 <i_9390>:
    80009800:	e6f13423          	sd	a5,-408(sp)

0000000080009804 <i_9391>:
    80009804:	4dbf4293          	xori	t0,t5,1243

0000000080009808 <i_9392>:
    80009808:	e9c13c23          	sd	t3,-360(sp)

000000008000980c <i_9393>:
    8000980c:	0da24097          	auipc	ra,0xda24

0000000080009810 <i_9394>:
    80009810:	72ad3193          	sltiu	gp,s10,1834

0000000080009814 <i_9395>:
    80009814:	00000013          	nop

0000000080009818 <i_9396>:
    80009818:	fc011203          	lh	tp,-64(sp)

000000008000981c <i_9397>:
    8000981c:	0d310803          	lb	a6,211(sp)

0000000080009820 <i_9398>:
    80009820:	03398663          	beq	s3,s3,8000984c <i_9408>

0000000080009824 <i_9399>:
    80009824:	16411823          	sh	tp,368(sp)

0000000080009828 <i_9400>:
    80009828:	0019d193          	srli	gp,s3,0x1

000000008000982c <i_9401>:
    8000982c:	fc310283          	lb	t0,-61(sp)

0000000080009830 <i_9402>:
    80009830:	02168bb3          	mul	s7,a3,ra

0000000080009834 <i_9403>:
    80009834:	00130313          	addi	t1,t1,1 # a22087d5 <_end+0x221f83c1>
    80009838:	fc6f50e3          	ble	t1,t5,800097f8 <i_9388>

000000008000983c <i_9404>:
    8000983c:	01e81a63          	bne	a6,t5,80009850 <i_9409>

0000000080009840 <i_9405>:
    80009840:	0036de13          	srli	t3,a3,0x3

0000000080009844 <i_9406>:
    80009844:	ac526697          	auipc	a3,0xac526

0000000080009848 <i_9407>:
    80009848:	03e80463          	beq	a6,t5,80009870 <i_9417>

000000008000984c <i_9408>:
    8000984c:	16014683          	lbu	a3,352(sp)

0000000080009850 <i_9409>:
    80009850:	403181bb          	subw	gp,gp,gp

0000000080009854 <i_9410>:
    80009854:	12812e03          	lw	t3,296(sp)

0000000080009858 <i_9411>:
    80009858:	0171de63          	ble	s7,gp,80009874 <i_9418>

000000008000985c <i_9412>:
    8000985c:	00318bb3          	add	s7,gp,gp

0000000080009860 <i_9413>:
    80009860:	f8415803          	lhu	a6,-124(sp)

0000000080009864 <i_9414>:
    80009864:	05e15a83          	lhu	s5,94(sp)

0000000080009868 <i_9415>:
    80009868:	003a9863          	bne	s5,gp,80009878 <i_9419>

000000008000986c <i_9416>:
    8000986c:	035bd5b3          	divu	a1,s7,s5

0000000080009870 <i_9417>:
    80009870:	ee211183          	lh	gp,-286(sp)

0000000080009874 <i_9418>:
    80009874:	e7c11183          	lh	gp,-388(sp)

0000000080009878 <i_9419>:
    80009878:	f7210a23          	sb	s2,-140(sp)

000000008000987c <i_9420>:
    8000987c:	01c00193          	li	gp,28

0000000080009880 <i_9421>:
    80009880:	403ed63b          	sraw	a2,t4,gp

0000000080009884 <i_9422>:
    80009884:	7d200a93          	li	s5,2002

0000000080009888 <i_9423>:
    80009888:	7d400093          	li	ra,2004

000000008000988c <i_9424>:
    8000988c:	00d84663          	blt	a6,a3,80009898 <i_9427>

0000000080009890 <i_9425>:
    80009890:	13c12803          	lw	a6,316(sp)

0000000080009894 <i_9426>:
    80009894:	fd412803          	lw	a6,-44(sp)

0000000080009898 <i_9427>:
    80009898:	01086263          	bltu	a6,a6,8000989c <i_9428>

000000008000989c <i_9428>:
    8000989c:	00382233          	slt	tp,a6,gp

00000000800098a0 <i_9429>:
    800098a0:	00000013          	nop

00000000800098a4 <i_9430>:
    800098a4:	0301e263          	bltu	gp,a6,800098c8 <i_9438>

00000000800098a8 <i_9431>:
    800098a8:	0012d19b          	srliw	gp,t0,0x1

00000000800098ac <i_9432>:
    800098ac:	00381c63          	bne	a6,gp,800098c4 <i_9437>

00000000800098b0 <i_9433>:
    800098b0:	e9c11203          	lh	tp,-356(sp)

00000000800098b4 <i_9434>:
    800098b4:	001a8a93          	addi	s5,s5,1
    800098b8:	fc1a98e3          	bne	s5,ra,80009888 <i_9423>

00000000800098bc <i_9435>:
    800098bc:	0f114203          	lbu	tp,241(sp)

00000000800098c0 <i_9436>:
    800098c0:	f6110183          	lb	gp,-159(sp)

00000000800098c4 <i_9437>:
    800098c4:	0044931b          	slliw	t1,s1,0x4

00000000800098c8 <i_9438>:
    800098c8:	fc412823          	sw	tp,-48(sp)

00000000800098cc <i_9439>:
    800098cc:	006b0233          	add	tp,s6,t1

00000000800098d0 <i_9440>:
    800098d0:	02c53333          	mulhu	t1,a0,a2

00000000800098d4 <i_9441>:
    800098d4:	00431463          	bne	t1,tp,800098dc <i_9443>

00000000800098d8 <i_9442>:
    800098d8:	ec613c23          	sd	t1,-296(sp)

00000000800098dc <i_9443>:
    800098dc:	fce10303          	lb	t1,-50(sp)

00000000800098e0 <i_9444>:
    800098e0:	07412203          	lw	tp,116(sp)

00000000800098e4 <i_9445>:
    800098e4:	fa611923          	sh	t1,-78(sp)

00000000800098e8 <i_9446>:
    800098e8:	f1f14a83          	lbu	s5,-225(sp)

00000000800098ec <i_9447>:
    800098ec:	01a11923          	sh	s10,18(sp)

00000000800098f0 <i_9448>:
    800098f0:	17013c03          	ld	s8,368(sp)

00000000800098f4 <i_9449>:
    800098f4:	00311a9b          	slliw	s5,sp,0x3

00000000800098f8 <i_9450>:
    800098f8:	02414e03          	lbu	t3,36(sp)

00000000800098fc <i_9451>:
    800098fc:	015d4d33          	xor	s10,s10,s5

0000000080009900 <i_9452>:
    80009900:	eb014a83          	lbu	s5,-336(sp)

0000000080009904 <i_9453>:
    80009904:	01c09263          	bne	ra,t3,80009908 <i_9454>

0000000080009908 <i_9454>:
    80009908:	03564463          	blt	a2,s5,80009930 <i_9464>

000000008000990c <i_9455>:
    8000990c:	01e00d93          	li	s11,30

0000000080009910 <i_9456>:
    80009910:	41bd5d33          	sra	s10,s10,s11

0000000080009914 <i_9457>:
    80009914:	00900d93          	li	s11,9

0000000080009918 <i_9458>:
    80009918:	41bdddb3          	sra	s11,s11,s11

000000008000991c <i_9459>:
    8000991c:	026b8333          	mul	t1,s7,t1

0000000080009920 <i_9460>:
    80009920:	eec12d83          	lw	s11,-276(sp)

0000000080009924 <i_9461>:
    80009924:	03d65ebb          	divuw	t4,a2,t4

0000000080009928 <i_9462>:
    80009928:	00000013          	nop

000000008000992c <i_9463>:
    8000992c:	5eb32313          	slti	t1,t1,1515

0000000080009930 <i_9464>:
    80009930:	00000013          	nop

0000000080009934 <i_9465>:
    80009934:	e3610383          	lb	t2,-458(sp)

0000000080009938 <i_9466>:
    80009938:	7af00d13          	li	s10,1967

000000008000993c <i_9467>:
    8000993c:	7c300613          	li	a2,1987

0000000080009940 <i_9468>:
    80009940:	001d0d13          	addi	s10,s10,1
    80009944:	fecd1ee3          	bne	s10,a2,80009940 <i_9468>

0000000080009948 <i_9469>:
    80009948:	11813d83          	ld	s11,280(sp)

000000008000994c <i_9470>:
    8000994c:	02147263          	bleu	ra,s0,80009970 <i_9479>

0000000080009950 <i_9471>:
    80009950:	ecf13423          	sd	a5,-312(sp)

0000000080009954 <i_9472>:
    80009954:	f7b13423          	sd	s11,-152(sp)

0000000080009958 <i_9473>:
    80009958:	02738463          	beq	t2,t2,80009980 <i_9483>

000000008000995c <i_9474>:
    8000995c:	f2112823          	sw	ra,-208(sp)

0000000080009960 <i_9475>:
    80009960:	15a13423          	sd	s10,328(sp)

0000000080009964 <i_9476>:
    80009964:	e4016f03          	lwu	t5,-448(sp)

0000000080009968 <i_9477>:
    80009968:	11e10723          	sb	t5,270(sp)

000000008000996c <i_9478>:
    8000996c:	01e37863          	bleu	t5,t1,8000997c <i_9482>

0000000080009970 <i_9479>:
    80009970:	16415383          	lhu	t2,356(sp)

0000000080009974 <i_9480>:
    80009974:	0f813303          	ld	t1,248(sp)

0000000080009978 <i_9481>:
    80009978:	03f00313          	li	t1,63

000000008000997c <i_9482>:
    8000997c:	006edeb3          	srl	t4,t4,t1

0000000080009980 <i_9483>:
    80009980:	026f7463          	bleu	t1,t5,800099a8 <i_9493>

0000000080009984 <i_9484>:
    80009984:	00b00813          	li	a6,11

0000000080009988 <i_9485>:
    80009988:	0103133b          	sllw	t1,t1,a6

000000008000998c <i_9486>:
    8000998c:	10e11303          	lh	t1,270(sp)

0000000080009990 <i_9487>:
    80009990:	00634333          	xor	t1,t1,t1

0000000080009994 <i_9488>:
    80009994:	0ec15483          	lhu	s1,236(sp)

0000000080009998 <i_9489>:
    80009998:	f4210b23          	sb	sp,-170(sp)

000000008000999c <i_9490>:
    8000999c:	0de15a83          	lhu	s5,222(sp)

00000000800099a0 <i_9491>:
    800099a0:	006ae333          	or	t1,s5,t1

00000000800099a4 <i_9492>:
    800099a4:	614ace93          	xori	t4,s5,1556

00000000800099a8 <i_9493>:
    800099a8:	01048833          	add	a6,s1,a6

00000000800099ac <i_9494>:
    800099ac:	0064d463          	ble	t1,s1,800099b4 <i_9496>

00000000800099b0 <i_9495>:
    800099b0:	00620463          	beq	tp,t1,800099b8 <i_9497>

00000000800099b4 <i_9496>:
    800099b4:	00648e63          	beq	s1,t1,800099d0 <i_9503>

00000000800099b8 <i_9497>:
    800099b8:	75582493          	slti	s1,a6,1877

00000000800099bc <i_9498>:
    800099bc:	07d13c23          	sd	t4,120(sp)

00000000800099c0 <i_9499>:
    800099c0:	00416083          	lwu	ra,4(sp)

00000000800099c4 <i_9500>:
    800099c4:	029084b3          	mul	s1,ra,s1

00000000800099c8 <i_9501>:
    800099c8:	01087663          	bleu	a6,a6,800099d4 <i_9504>

00000000800099cc <i_9502>:
    800099cc:	00187c63          	bleu	ra,a6,800099e4 <i_9508>

00000000800099d0 <i_9503>:
    800099d0:	00185c13          	srli	s8,a6,0x1

00000000800099d4 <i_9504>:
    800099d4:	eb013b03          	ld	s6,-336(sp)

00000000800099d8 <i_9505>:
    800099d8:	e4016803          	lwu	a6,-448(sp)

00000000800099dc <i_9506>:
    800099dc:	036b1db3          	mulh	s11,s6,s6

00000000800099e0 <i_9507>:
    800099e0:	004a1a1b          	slliw	s4,s4,0x4

00000000800099e4 <i_9508>:
    800099e4:	f5013b03          	ld	s6,-176(sp)

00000000800099e8 <i_9509>:
    800099e8:	f1410da3          	sb	s4,-229(sp)

00000000800099ec <i_9510>:
    800099ec:	87000c13          	li	s8,-1936

00000000800099f0 <i_9511>:
    800099f0:	87f00813          	li	a6,-1921

00000000800099f4 <i_9512>:
    800099f4:	0381e663          	bltu	gp,s8,80009a20 <i_9522>

00000000800099f8 <i_9513>:
    800099f8:	e2a10f03          	lb	t5,-470(sp)

00000000800099fc <i_9514>:
    800099fc:	0e416d83          	lwu	s11,228(sp)

0000000080009a00 <i_9515>:
    80009a00:	0015999b          	slliw	s3,a1,0x1

0000000080009a04 <i_9516>:
    80009a04:	033709bb          	mulw	s3,a4,s3

0000000080009a08 <i_9517>:
    80009a08:	01500e13          	li	t3,21

0000000080009a0c <i_9518>:
    80009a0c:	01c9de3b          	srlw	t3,s3,t3

0000000080009a10 <i_9519>:
    80009a10:	001c0c13          	addi	s8,s8,1
    80009a14:	ff0c60e3          	bltu	s8,a6,800099f4 <i_9512>

0000000080009a18 <i_9520>:
    80009a18:	035f05bb          	mulw	a1,t5,s5

0000000080009a1c <i_9521>:
    80009a1c:	03c9e263          	bltu	s3,t3,80009a40 <i_9530>

0000000080009a20 <i_9522>:
    80009a20:	f7412383          	lw	t2,-140(sp)

0000000080009a24 <i_9523>:
    80009a24:	01ede463          	bltu	s11,t5,80009a2c <i_9525>

0000000080009a28 <i_9524>:
    80009a28:	01500d93          	li	s11,21

0000000080009a2c <i_9525>:
    80009a2c:	01b3d3bb          	srlw	t2,t2,s11

0000000080009a30 <i_9526>:
    80009a30:	07114c83          	lbu	s9,113(sp)

0000000080009a34 <i_9527>:
    80009a34:	039a7063          	bleu	s9,s4,80009a54 <i_9535>

0000000080009a38 <i_9528>:
    80009a38:	039cf063          	bleu	s9,s9,80009a58 <i_9536>

0000000080009a3c <i_9529>:
    80009a3c:	039c9533          	mulh	a0,s9,s9

0000000080009a40 <i_9530>:
    80009a40:	03bc9ab3          	mulh	s5,s9,s11

0000000080009a44 <i_9531>:
    80009a44:	00aaee63          	bltu	s5,a0,80009a60 <i_9538>

0000000080009a48 <i_9532>:
    80009a48:	e4a11c23          	sh	a0,-424(sp)

0000000080009a4c <i_9533>:
    80009a4c:	00ade1b3          	or	gp,s11,a0

0000000080009a50 <i_9534>:
    80009a50:	02adc833          	div	a6,s11,a0

0000000080009a54 <i_9535>:
    80009a54:	027c8a3b          	mulw	s4,s9,t2

0000000080009a58 <i_9536>:
    80009a58:	0ee14c83          	lbu	s9,238(sp)

0000000080009a5c <i_9537>:
    80009a5c:	1dc15a03          	lhu	s4,476(sp)

0000000080009a60 <i_9538>:
    80009a60:	403cdc93          	srai	s9,s9,0x3

0000000080009a64 <i_9539>:
    80009a64:	019ca233          	slt	tp,s9,s9

0000000080009a68 <i_9540>:
    80009a68:	034a4063          	blt	s4,s4,80009a88 <i_9548>

0000000080009a6c <i_9541>:
    80009a6c:	f4413023          	sd	tp,-192(sp)

0000000080009a70 <i_9542>:
    80009a70:	aac7b237          	lui	tp,0xaac7b

0000000080009a74 <i_9543>:
    80009a74:	f6810f03          	lb	t5,-152(sp)

0000000080009a78 <i_9544>:
    80009a78:	1a313c23          	sd	gp,440(sp)

0000000080009a7c <i_9545>:
    80009a7c:	ec411d23          	sh	tp,-294(sp)

0000000080009a80 <i_9546>:
    80009a80:	03dce463          	bltu	s9,t4,80009aa8 <i_9556>

0000000080009a84 <i_9547>:
    80009a84:	02221463          	bne	tp,sp,80009aac <i_9557>

0000000080009a88 <i_9548>:
    80009a88:	034230b3          	mulhu	ra,tp,s4

0000000080009a8c <i_9549>:
    80009a8c:	03417c3b          	remuw	s8,sp,s4

0000000080009a90 <i_9550>:
    80009a90:	e1d10da3          	sb	t4,-485(sp)

0000000080009a94 <i_9551>:
    80009a94:	16215e03          	lhu	t3,354(sp)

0000000080009a98 <i_9552>:
    80009a98:	01ca1a63          	bne	s4,t3,80009aac <i_9557>

0000000080009a9c <i_9553>:
    80009a9c:	19d10c83          	lb	s9,413(sp)

0000000080009aa0 <i_9554>:
    80009aa0:	f3814303          	lbu	t1,-200(sp)

0000000080009aa4 <i_9555>:
    80009aa4:	01da09b3          	add	s3,s4,t4

0000000080009aa8 <i_9556>:
    80009aa8:	00665c63          	ble	t1,a2,80009ac0 <i_9562>

0000000080009aac <i_9557>:
    80009aac:	402a579b          	sraiw	a5,s4,0x2

0000000080009ab0 <i_9558>:
    80009ab0:	e7c16f03          	lwu	t5,-388(sp)

0000000080009ab4 <i_9559>:
    80009ab4:	2c4c8593          	addi	a1,s9,708

0000000080009ab8 <i_9560>:
    80009ab8:	02b219b3          	mulh	s3,tp,a1

0000000080009abc <i_9561>:
    80009abc:	004e4663          	blt	t3,tp,80009ac8 <i_9564>

0000000080009ac0 <i_9562>:
    80009ac0:	034997b3          	mulh	a5,s3,s4

0000000080009ac4 <i_9563>:
    80009ac4:	23b78a13          	addi	s4,a5,571

0000000080009ac8 <i_9564>:
    80009ac8:	11411a23          	sh	s4,276(sp)

0000000080009acc <i_9565>:
    80009acc:	0cc7b093          	sltiu	ra,a5,204

0000000080009ad0 <i_9566>:
    80009ad0:	04016783          	lwu	a5,64(sp)

0000000080009ad4 <i_9567>:
    80009ad4:	021b8463          	beq	s7,ra,80009afc <i_9577>

0000000080009ad8 <i_9568>:
    80009ad8:	401100b3          	sub	ra,sp,ra

0000000080009adc <i_9569>:
    80009adc:	0010c463          	blt	ra,ra,80009ae4 <i_9571>

0000000080009ae0 <i_9570>:
    80009ae0:	fa112623          	sw	ra,-84(sp)

0000000080009ae4 <i_9571>:
    80009ae4:	00f55663          	ble	a5,a0,80009af0 <i_9574>

0000000080009ae8 <i_9572>:
    80009ae8:	17c14503          	lbu	a0,380(sp)

0000000080009aec <i_9573>:
    80009aec:	f4a10c23          	sb	a0,-168(sp)

0000000080009af0 <i_9574>:
    80009af0:	ca856513          	ori	a0,a0,-856

0000000080009af4 <i_9575>:
    80009af4:	e8111323          	sh	ra,-378(sp)

0000000080009af8 <i_9576>:
    80009af8:	03c00e13          	li	t3,60

0000000080009afc <i_9577>:
    80009afc:	01c595b3          	sll	a1,a1,t3

0000000080009b00 <i_9578>:
    80009b00:	0aa12223          	sw	a0,164(sp)

0000000080009b04 <i_9579>:
    80009b04:	80100093          	li	ra,-2047

0000000080009b08 <i_9580>:
    80009b08:	80600793          	li	a5,-2042

0000000080009b0c <i_9581>:
    80009b0c:	021e0263          	beq	t3,ra,80009b30 <i_9589>

0000000080009b10 <i_9582>:
    80009b10:	f3310503          	lb	a0,-205(sp)

0000000080009b14 <i_9583>:
    80009b14:	41c8083b          	subw	a6,a6,t3

0000000080009b18 <i_9584>:
    80009b18:	07a10403          	lb	s0,122(sp)

0000000080009b1c <i_9585>:
    80009b1c:	fc85859b          	addiw	a1,a1,-56

0000000080009b20 <i_9586>:
    80009b20:	00108093          	addi	ra,ra,1 # 8da2d80d <_end+0xda1d3f9>
    80009b24:	fef0c4e3          	blt	ra,a5,80009b0c <i_9581>

0000000080009b28 <i_9587>:
    80009b28:	02880533          	mul	a0,a6,s0

0000000080009b2c <i_9588>:
    80009b2c:	f6012503          	lw	a0,-160(sp)

0000000080009b30 <i_9589>:
    80009b30:	02a47263          	bleu	a0,s0,80009b54 <i_9598>

0000000080009b34 <i_9590>:
    80009b34:	01258663          	beq	a1,s2,80009b40 <i_9593>

0000000080009b38 <i_9591>:
    80009b38:	00a58663          	beq	a1,a0,80009b44 <i_9594>

0000000080009b3c <i_9592>:
    80009b3c:	f0b12423          	sw	a1,-248(sp)

0000000080009b40 <i_9593>:
    80009b40:	13813503          	ld	a0,312(sp)

0000000080009b44 <i_9594>:
    80009b44:	fc614a83          	lbu	s5,-58(sp)

0000000080009b48 <i_9595>:
    80009b48:	f9813783          	ld	a5,-104(sp)

0000000080009b4c <i_9596>:
    80009b4c:	00a57663          	bleu	a0,a0,80009b58 <i_9599>

0000000080009b50 <i_9597>:
    80009b50:	e5914503          	lbu	a0,-423(sp)

0000000080009b54 <i_9598>:
    80009b54:	00700813          	li	a6,7

0000000080009b58 <i_9599>:
    80009b58:	010adabb          	srlw	s5,s5,a6

0000000080009b5c <i_9600>:
    80009b5c:	07510a23          	sb	s5,116(sp)

0000000080009b60 <i_9601>:
    80009b60:	00000013          	nop

0000000080009b64 <i_9602>:
    80009b64:	00000013          	nop

0000000080009b68 <i_9603>:
    80009b68:	87700793          	li	a5,-1929

0000000080009b6c <i_9604>:
    80009b6c:	87b00393          	li	t2,-1925

0000000080009b70 <i_9605>:
    80009b70:	17b14403          	lbu	s0,379(sp)

0000000080009b74 <i_9606>:
    80009b74:	00f51c63          	bne	a0,a5,80009b8c <i_9612>

0000000080009b78 <i_9607>:
    80009b78:	fd814303          	lbu	t1,-40(sp)

0000000080009b7c <i_9608>:
    80009b7c:	03e7fcb3          	remu	s9,a5,t5

0000000080009b80 <i_9609>:
    80009b80:	06314503          	lbu	a0,99(sp)

0000000080009b84 <i_9610>:
    80009b84:	f8a13023          	sd	a0,-128(sp)

0000000080009b88 <i_9611>:
    80009b88:	fb911623          	sh	s9,-84(sp)

0000000080009b8c <i_9612>:
    80009b8c:	2f853293          	sltiu	t0,a0,760

0000000080009b90 <i_9613>:
    80009b90:	02528cbb          	mulw	s9,t0,t0

0000000080009b94 <i_9614>:
    80009b94:	14511923          	sh	t0,338(sp)

0000000080009b98 <i_9615>:
    80009b98:	039cf2bb          	remuw	t0,s9,s9

0000000080009b9c <i_9616>:
    80009b9c:	03a15e83          	lhu	t4,58(sp)

0000000080009ba0 <i_9617>:
    80009ba0:	00c15c83          	lhu	s9,12(sp)

0000000080009ba4 <i_9618>:
    80009ba4:	09d12023          	sw	t4,128(sp)

0000000080009ba8 <i_9619>:
    80009ba8:	00178793          	addi	a5,a5,1
    80009bac:	fc77c2e3          	blt	a5,t2,80009b70 <i_9605>

0000000080009bb0 <i_9620>:
    80009bb0:	03dce463          	bltu	s9,t4,80009bd8 <i_9630>

0000000080009bb4 <i_9621>:
    80009bb4:	019b6663          	bltu	s6,s9,80009bc0 <i_9624>

0000000080009bb8 <i_9622>:
    80009bb8:	007cda63          	ble	t2,s9,80009bcc <i_9627>

0000000080009bbc <i_9623>:
    80009bbc:	ea615583          	lhu	a1,-346(sp)

0000000080009bc0 <i_9624>:
    80009bc0:	09d10323          	sb	t4,134(sp)

0000000080009bc4 <i_9625>:
    80009bc4:	01fcd463          	ble	t6,s9,80009bcc <i_9627>

0000000080009bc8 <i_9626>:
    80009bc8:	f6013c83          	ld	s9,-160(sp)

0000000080009bcc <i_9627>:
    80009bcc:	01600693          	li	a3,22

0000000080009bd0 <i_9628>:
    80009bd0:	40d5debb          	sraw	t4,a1,a3

0000000080009bd4 <i_9629>:
    80009bd4:	12210583          	lb	a1,290(sp)

0000000080009bd8 <i_9630>:
    80009bd8:	1b215e83          	lhu	t4,434(sp)

0000000080009bdc <i_9631>:
    80009bdc:	02b12e23          	sw	a1,60(sp)

0000000080009be0 <i_9632>:
    80009be0:	f1013d83          	ld	s11,-240(sp)

0000000080009be4 <i_9633>:
    80009be4:	01200993          	li	s3,18

0000000080009be8 <i_9634>:
    80009be8:	0132123b          	sllw	tp,tp,s3

0000000080009bec <i_9635>:
    80009bec:	00b9f463          	bleu	a1,s3,80009bf4 <i_9637>

0000000080009bf0 <i_9636>:
    80009bf0:	09416583          	lwu	a1,148(sp)

0000000080009bf4 <i_9637>:
    80009bf4:	02b5e263          	bltu	a1,a1,80009c18 <i_9646>

0000000080009bf8 <i_9638>:
    80009bf8:	00f58663          	beq	a1,a5,80009c04 <i_9641>

0000000080009bfc <i_9639>:
    80009bfc:	e4013583          	ld	a1,-448(sp)

0000000080009c00 <i_9640>:
    80009c00:	fac16e83          	lwu	t4,-84(sp)

0000000080009c04 <i_9641>:
    80009c04:	86c79317          	auipc	t1,0x86c79

0000000080009c08 <i_9642>:
    80009c08:	01158463          	beq	a1,a7,80009c10 <i_9644>

0000000080009c0c <i_9643>:
    80009c0c:	403ed59b          	sraiw	a1,t4,0x3

0000000080009c10 <i_9644>:
    80009c10:	03d5e5bb          	remw	a1,a1,t4

0000000080009c14 <i_9645>:
    80009c14:	01859c63          	bne	a1,s8,80009c2c <i_9651>

0000000080009c18 <i_9646>:
    80009c18:	006e8863          	beq	t4,t1,80009c28 <i_9650>

0000000080009c1c <i_9647>:
    80009c1c:	08013e83          	ld	t4,128(sp)

0000000080009c20 <i_9648>:
    80009c20:	e7215e83          	lhu	t4,-398(sp)

0000000080009c24 <i_9649>:
    80009c24:	03d5e263          	bltu	a1,t4,80009c48 <i_9658>

0000000080009c28 <i_9650>:
    80009c28:	02b9de3b          	divuw	t3,s3,a1

0000000080009c2c <i_9651>:
    80009c2c:	00be9c63          	bne	t4,a1,80009c44 <i_9657>

0000000080009c30 <i_9652>:
    80009c30:	41de86b3          	sub	a3,t4,t4

0000000080009c34 <i_9653>:
    80009c34:	4015df1b          	sraiw	t5,a1,0x1

0000000080009c38 <i_9654>:
    80009c38:	03debf33          	mulhu	t5,t4,t4

0000000080009c3c <i_9655>:
    80009c3c:	f0114583          	lbu	a1,-255(sp)

0000000080009c40 <i_9656>:
    80009c40:	e9811f03          	lh	t5,-360(sp)

0000000080009c44 <i_9657>:
    80009c44:	08c10623          	sb	a2,140(sp)

0000000080009c48 <i_9658>:
    80009c48:	f2a14583          	lbu	a1,-214(sp)

0000000080009c4c <i_9659>:
    80009c4c:	00b3d263          	ble	a1,t2,80009c50 <i_9660>

0000000080009c50 <i_9660>:
    80009c50:	03ef0f33          	mul	t5,t5,t5

0000000080009c54 <i_9661>:
    80009c54:	00479793          	slli	a5,a5,0x4

0000000080009c58 <i_9662>:
    80009c58:	016f6463          	bltu	t5,s6,80009c60 <i_9664>

0000000080009c5c <i_9663>:
    80009c5c:	fa410d03          	lb	s10,-92(sp)

0000000080009c60 <i_9664>:
    80009c60:	01a5ee63          	bltu	a1,s10,80009c7c <i_9671>

0000000080009c64 <i_9665>:
    80009c64:	07e12623          	sw	t5,108(sp)

0000000080009c68 <i_9666>:
    80009c68:	ef811683          	lh	a3,-264(sp)

0000000080009c6c <i_9667>:
    80009c6c:	1a415383          	lhu	t2,420(sp)

0000000080009c70 <i_9668>:
    80009c70:	41ea87b3          	sub	a5,s5,t5

0000000080009c74 <i_9669>:
    80009c74:	40b78bbb          	subw	s7,a5,a1

0000000080009c78 <i_9670>:
    80009c78:	08711923          	sh	t2,146(sp)

0000000080009c7c <i_9671>:
    80009c7c:	00800393          	li	t2,8

0000000080009c80 <i_9672>:
    80009c80:	007bd6bb          	srlw	a3,s7,t2

0000000080009c84 <i_9673>:
    80009c84:	4046dd13          	srai	s10,a3,0x4

0000000080009c88 <i_9674>:
    80009c88:	f3215683          	lhu	a3,-206(sp)

0000000080009c8c <i_9675>:
    80009c8c:	11c12d03          	lw	s10,284(sp)

0000000080009c90 <i_9676>:
    80009c90:	f5416383          	lwu	t2,-172(sp)

0000000080009c94 <i_9677>:
    80009c94:	0013de1b          	srliw	t3,t2,0x1

0000000080009c98 <i_9678>:
    80009c98:	4026dd1b          	sraiw	s10,a3,0x2

0000000080009c9c <i_9679>:
    80009c9c:	ebc14683          	lbu	a3,-324(sp)

0000000080009ca0 <i_9680>:
    80009ca0:	01ad8663          	beq	s11,s10,80009cac <i_9683>

0000000080009ca4 <i_9681>:
    80009ca4:	fba13423          	sd	s10,-88(sp)

0000000080009ca8 <i_9682>:
    80009ca8:	17c12c83          	lw	s9,380(sp)

0000000080009cac <i_9683>:
    80009cac:	03ed6263          	bltu	s10,t5,80009cd0 <i_9692>

0000000080009cb0 <i_9684>:
    80009cb0:	106efd13          	andi	s10,t4,262

0000000080009cb4 <i_9685>:
    80009cb4:	03a787b3          	mul	a5,a5,s10

0000000080009cb8 <i_9686>:
    80009cb8:	0199f0b3          	and	ra,s3,s9

0000000080009cbc <i_9687>:
    80009cbc:	00000013          	nop

0000000080009cc0 <i_9688>:
    80009cc0:	1c113823          	sd	ra,464(sp)

0000000080009cc4 <i_9689>:
    80009cc4:	12112823          	sw	ra,304(sp)

0000000080009cc8 <i_9690>:
    80009cc8:	00000013          	nop

0000000080009ccc <i_9691>:
    80009ccc:	00000013          	nop

0000000080009cd0 <i_9692>:
    80009cd0:	00100c93          	li	s9,1

0000000080009cd4 <i_9693>:
    80009cd4:	4190dd33          	sra	s10,ra,s9

0000000080009cd8 <i_9694>:
    80009cd8:	87e00613          	li	a2,-1922

0000000080009cdc <i_9695>:
    80009cdc:	88300c13          	li	s8,-1917

0000000080009ce0 <i_9696>:
    80009ce0:	e5a12623          	sw	s10,-436(sp)

0000000080009ce4 <i_9697>:
    80009ce4:	fe416803          	lwu	a6,-28(sp)

0000000080009ce8 <i_9698>:
    80009ce8:	1d313823          	sd	s3,464(sp)

0000000080009cec <i_9699>:
    80009cec:	0010f2b3          	and	t0,ra,ra

0000000080009cf0 <i_9700>:
    80009cf0:	0049d993          	srli	s3,s3,0x4

0000000080009cf4 <i_9701>:
    80009cf4:	ed311d23          	sh	s3,-294(sp)

0000000080009cf8 <i_9702>:
    80009cf8:	02214a83          	lbu	s5,34(sp)

0000000080009cfc <i_9703>:
    80009cfc:	00160613          	addi	a2,a2,1 # 9a974375 <_end+0x1a963f61>
    80009d00:	fecc70e3          	bleu	a2,s8,80009ce0 <i_9696>

0000000080009d04 <i_9704>:
    80009d04:	03087263          	bleu	a6,a6,80009d28 <i_9713>

0000000080009d08 <i_9705>:
    80009d08:	010f0e63          	beq	t5,a6,80009d24 <i_9712>

0000000080009d0c <i_9706>:
    80009d0c:	0242d333          	divu	t1,t0,tp

0000000080009d10 <i_9707>:
    80009d10:	14ea8b1b          	addiw	s6,s5,334

0000000080009d14 <i_9708>:
    80009d14:	e4610803          	lb	a6,-442(sp)

0000000080009d18 <i_9709>:
    80009d18:	fc412183          	lw	gp,-60(sp)

0000000080009d1c <i_9710>:
    80009d1c:	01618d33          	add	s10,gp,s6

0000000080009d20 <i_9711>:
    80009d20:	02632d33          	mulhsu	s10,t1,t1

0000000080009d24 <i_9712>:
    80009d24:	04e10e83          	lb	t4,78(sp)

0000000080009d28 <i_9713>:
    80009d28:	f5d12a23          	sw	t4,-172(sp)

0000000080009d2c <i_9714>:
    80009d2c:	0031ccb3          	xor	s9,gp,gp

0000000080009d30 <i_9715>:
    80009d30:	7c300193          	li	gp,1987

0000000080009d34 <i_9716>:
    80009d34:	7d400e13          	li	t3,2004

0000000080009d38 <i_9717>:
    80009d38:	7ef2021b          	addiw	tp,tp,2031

0000000080009d3c <i_9718>:
    80009d3c:	01425a63          	ble	s4,tp,80009d50 <i_9723>

0000000080009d40 <i_9719>:
    80009d40:	019e9e63          	bne	t4,s9,80009d5c <i_9726>

0000000080009d44 <i_9720>:
    80009d44:	ebd11e23          	sh	t4,-324(sp)

0000000080009d48 <i_9721>:
    80009d48:	01c12483          	lw	s1,28(sp)

0000000080009d4c <i_9722>:
    80009d4c:	ebc11383          	lh	t2,-324(sp)

0000000080009d50 <i_9723>:
    80009d50:	00700e93          	li	t4,7

0000000080009d54 <i_9724>:
    80009d54:	01d496b3          	sll	a3,s1,t4

0000000080009d58 <i_9725>:
    80009d58:	e4816383          	lwu	t2,-440(sp)

0000000080009d5c <i_9726>:
    80009d5c:	04816b83          	lwu	s7,72(sp)

0000000080009d60 <i_9727>:
    80009d60:	0f812b03          	lw	s6,248(sp)

0000000080009d64 <i_9728>:
    80009d64:	00000013          	nop

0000000080009d68 <i_9729>:
    80009d68:	00118193          	addi	gp,gp,1
    80009d6c:	fdc196e3          	bne	gp,t3,80009d38 <i_9717>

0000000080009d70 <i_9730>:
    80009d70:	025f66bb          	remw	a3,t5,t0

0000000080009d74 <i_9731>:
    80009d74:	00bbe5b3          	or	a1,s7,a1

0000000080009d78 <i_9732>:
    80009d78:	fb416383          	lwu	t2,-76(sp)

0000000080009d7c <i_9733>:
    80009d7c:	1b814583          	lbu	a1,440(sp)

0000000080009d80 <i_9734>:
    80009d80:	0ed10e23          	sb	a3,252(sp)

0000000080009d84 <i_9735>:
    80009d84:	004d9693          	slli	a3,s11,0x4

0000000080009d88 <i_9736>:
    80009d88:	f6b12223          	sw	a1,-156(sp)

0000000080009d8c <i_9737>:
    80009d8c:	0296f5bb          	remuw	a1,a3,s1

0000000080009d90 <i_9738>:
    80009d90:	0a411a03          	lh	s4,164(sp)

0000000080009d94 <i_9739>:
    80009d94:	8cb00493          	li	s1,-1845

0000000080009d98 <i_9740>:
    80009d98:	8d000693          	li	a3,-1840

0000000080009d9c <i_9741>:
    80009d9c:	00500e13          	li	t3,5

0000000080009da0 <i_9742>:
    80009da0:	41c4d33b          	sraw	t1,s1,t3

0000000080009da4 <i_9743>:
    80009da4:	77d00b93          	li	s7,1917

0000000080009da8 <i_9744>:
    80009da8:	79100513          	li	a0,1937

0000000080009dac <i_9745>:
    80009dac:	00000013          	nop

0000000080009db0 <i_9746>:
    80009db0:	f6810c83          	lb	s9,-152(sp)

0000000080009db4 <i_9747>:
    80009db4:	001b8b93          	addi	s7,s7,1
    80009db8:	ff755ae3          	ble	s7,a0,80009dac <i_9745>

0000000080009dbc <i_9748>:
    80009dbc:	14015a03          	lhu	s4,320(sp)

0000000080009dc0 <i_9749>:
    80009dc0:	00148493          	addi	s1,s1,1 # 61c9d3dd <main-0x1e362c23>
    80009dc4:	fc96fce3          	bleu	s1,a3,80009d9c <i_9741>

0000000080009dc8 <i_9750>:
    80009dc8:	ef412e23          	sw	s4,-260(sp)

0000000080009dcc <i_9751>:
    80009dcc:	f4914a03          	lbu	s4,-183(sp)

0000000080009dd0 <i_9752>:
    80009dd0:	039d8bbb          	mulw	s7,s11,s9

0000000080009dd4 <i_9753>:
    80009dd4:	0d615a03          	lhu	s4,214(sp)

0000000080009dd8 <i_9754>:
    80009dd8:	f9c11a03          	lh	s4,-100(sp)

0000000080009ddc <i_9755>:
    80009ddc:	02016d83          	lwu	s11,32(sp)

0000000080009de0 <i_9756>:
    80009de0:	91ccb537          	lui	a0,0x91ccb

0000000080009de4 <i_9757>:
    80009de4:	19410b23          	sb	s4,406(sp)

0000000080009de8 <i_9758>:
    80009de8:	03d11b23          	sh	t4,54(sp)

0000000080009dec <i_9759>:
    80009dec:	03b60ebb          	mulw	t4,a2,s11

0000000080009df0 <i_9760>:
    80009df0:	02500513          	li	a0,37

0000000080009df4 <i_9761>:
    80009df4:	00a51533          	sll	a0,a0,a0

0000000080009df8 <i_9762>:
    80009df8:	0f211503          	lh	a0,242(sp)

0000000080009dfc <i_9763>:
    80009dfc:	06e11603          	lh	a2,110(sp)

0000000080009e00 <i_9764>:
    80009e00:	17013683          	ld	a3,368(sp)

0000000080009e04 <i_9765>:
    80009e04:	05415c83          	lhu	s9,84(sp)

0000000080009e08 <i_9766>:
    80009e08:	0b016683          	lwu	a3,176(sp)

0000000080009e0c <i_9767>:
    80009e0c:	12015603          	lhu	a2,288(sp)

0000000080009e10 <i_9768>:
    80009e10:	02cab533          	mulhu	a0,s5,a2

0000000080009e14 <i_9769>:
    80009e14:	03d63633          	mulhu	a2,a2,t4

0000000080009e18 <i_9770>:
    80009e18:	02ceb833          	mulhu	a6,t4,a2

0000000080009e1c <i_9771>:
    80009e1c:	c8380e9b          	addiw	t4,a6,-893

0000000080009e20 <i_9772>:
    80009e20:	01c12e03          	lw	t3,28(sp)

0000000080009e24 <i_9773>:
    80009e24:	03085463          	ble	a6,a6,80009e4c <i_9783>

0000000080009e28 <i_9774>:
    80009e28:	e8012503          	lw	a0,-384(sp)

0000000080009e2c <i_9775>:
    80009e2c:	00141e1b          	slliw	t3,s0,0x1

0000000080009e30 <i_9776>:
    80009e30:	1dc10fa3          	sb	t3,479(sp)

0000000080009e34 <i_9777>:
    80009e34:	00000013          	nop

0000000080009e38 <i_9778>:
    80009e38:	0252ce33          	div	t3,t0,t0

0000000080009e3c <i_9779>:
    80009e3c:	0b712423          	sw	s7,168(sp)

0000000080009e40 <i_9780>:
    80009e40:	00c00e13          	li	t3,12

0000000080009e44 <i_9781>:
    80009e44:	41ce51bb          	sraw	gp,t3,t3

0000000080009e48 <i_9782>:
    80009e48:	e9c12223          	sw	t3,-380(sp)

0000000080009e4c <i_9783>:
    80009e4c:	003e7e33          	and	t3,t3,gp

0000000080009e50 <i_9784>:
    80009e50:	fe012083          	lw	ra,-32(sp)

0000000080009e54 <i_9785>:
    80009e54:	78600293          	li	t0,1926

0000000080009e58 <i_9786>:
    80009e58:	79a00813          	li	a6,1946

0000000080009e5c <i_9787>:
    80009e5c:	f0c16203          	lwu	tp,-244(sp)

0000000080009e60 <i_9788>:
    80009e60:	02121063          	bne	tp,ra,80009e80 <i_9795>

0000000080009e64 <i_9789>:
    80009e64:	13a11923          	sh	s10,306(sp)

0000000080009e68 <i_9790>:
    80009e68:	5a31bd13          	sltiu	s10,gp,1443

0000000080009e6c <i_9791>:
    80009e6c:	1a813303          	ld	t1,424(sp)

0000000080009e70 <i_9792>:
    80009e70:	00128293          	addi	t0,t0,1
    80009e74:	fe5874e3          	bleu	t0,a6,80009e5c <i_9787>

0000000080009e78 <i_9793>:
    80009e78:	024e42bb          	divw	t0,t3,tp

0000000080009e7c <i_9794>:
    80009e7c:	01c26463          	bltu	tp,t3,80009e84 <i_9796>

0000000080009e80 <i_9795>:
    80009e80:	e3015d03          	lhu	s10,-464(sp)

0000000080009e84 <i_9796>:
    80009e84:	12910ea3          	sb	s1,317(sp)

0000000080009e88 <i_9797>:
    80009e88:	14d10e03          	lb	t3,333(sp)

0000000080009e8c <i_9798>:
    80009e8c:	01236863          	bltu	t1,s2,80009e9c <i_9802>

0000000080009e90 <i_9799>:
    80009e90:	402e5213          	srai	tp,t3,0x2

0000000080009e94 <i_9800>:
    80009e94:	fd812983          	lw	s3,-40(sp)

0000000080009e98 <i_9801>:
    80009e98:	00000013          	nop

0000000080009e9c <i_9802>:
    80009e9c:	02215d03          	lhu	s10,34(sp)

0000000080009ea0 <i_9803>:
    80009ea0:	f6b11e23          	sh	a1,-132(sp)

0000000080009ea4 <i_9804>:
    80009ea4:	88f00793          	li	a5,-1905

0000000080009ea8 <i_9805>:
    80009ea8:	89600e13          	li	t3,-1898

0000000080009eac <i_9806>:
    80009eac:	40b785bb          	subw	a1,a5,a1

0000000080009eb0 <i_9807>:
    80009eb0:	f2f13c23          	sd	a5,-200(sp)

0000000080009eb4 <i_9808>:
    80009eb4:	73b855b7          	lui	a1,0x73b85

0000000080009eb8 <i_9809>:
    80009eb8:	00178793          	addi	a5,a5,1
    80009ebc:	fefe78e3          	bleu	a5,t3,80009eac <i_9806>

0000000080009ec0 <i_9810>:
    80009ec0:	00b5fa63          	bleu	a1,a1,80009ed4 <i_9815>

0000000080009ec4 <i_9811>:
    80009ec4:	e9c12c83          	lw	s9,-356(sp)

0000000080009ec8 <i_9812>:
    80009ec8:	12015683          	lhu	a3,288(sp)

0000000080009ecc <i_9813>:
    80009ecc:	00bc5463          	ble	a1,s8,80009ed4 <i_9815>

0000000080009ed0 <i_9814>:
    80009ed0:	1ab14603          	lbu	a2,427(sp)

0000000080009ed4 <i_9815>:
    80009ed4:	02c6d5b3          	divu	a1,a3,a2

0000000080009ed8 <i_9816>:
    80009ed8:	f8414683          	lbu	a3,-124(sp)

0000000080009edc <i_9817>:
    80009edc:	00d65663          	ble	a3,a2,80009ee8 <i_9820>

0000000080009ee0 <i_9818>:
    80009ee0:	f8c10683          	lb	a3,-116(sp)

0000000080009ee4 <i_9819>:
    80009ee4:	e4d101a3          	sb	a3,-445(sp)

0000000080009ee8 <i_9820>:
    80009ee8:	fac11123          	sh	a2,-94(sp)

0000000080009eec <i_9821>:
    80009eec:	01800c93          	li	s9,24

0000000080009ef0 <i_9822>:
    80009ef0:	0196dcbb          	srlw	s9,a3,s9

0000000080009ef4 <i_9823>:
    80009ef4:	fc012383          	lw	t2,-64(sp)

0000000080009ef8 <i_9824>:
    80009ef8:	6976ae13          	slti	t3,a3,1687

0000000080009efc <i_9825>:
    80009efc:	0c714683          	lbu	a3,199(sp)

0000000080009f00 <i_9826>:
    80009f00:	e7512823          	sw	s5,-400(sp)

0000000080009f04 <i_9827>:
    80009f04:	75000613          	li	a2,1872

0000000080009f08 <i_9828>:
    80009f08:	75b00213          	li	tp,1883

0000000080009f0c <i_9829>:
    80009f0c:	07611a83          	lh	s5,118(sp)

0000000080009f10 <i_9830>:
    80009f10:	03500c93          	li	s9,53

0000000080009f14 <i_9831>:
    80009f14:	419254b3          	sra	s1,tp,s9

0000000080009f18 <i_9832>:
    80009f18:	0f813983          	ld	s3,248(sp)

0000000080009f1c <i_9833>:
    80009f1c:	03550dbb          	mulw	s11,a0,s5

0000000080009f20 <i_9834>:
    80009f20:	0e013c03          	ld	s8,224(sp)

0000000080009f24 <i_9835>:
    80009f24:	0154a5b3          	slt	a1,s1,s5

0000000080009f28 <i_9836>:
    80009f28:	998c3a93          	sltiu	s5,s8,-1640

0000000080009f2c <i_9837>:
    80009f2c:	018c0263          	beq	s8,s8,80009f30 <i_9838>

0000000080009f30 <i_9838>:
    80009f30:	00281c1b          	slliw	s8,a6,0x2

0000000080009f34 <i_9839>:
    80009f34:	1e015403          	lhu	s0,480(sp)

0000000080009f38 <i_9840>:
    80009f38:	00160613          	addi	a2,a2,1
    80009f3c:	fcc278e3          	bleu	a2,tp,80009f0c <i_9829>

0000000080009f40 <i_9841>:
    80009f40:	0e815e83          	lhu	t4,232(sp)

0000000080009f44 <i_9842>:
    80009f44:	41d60c3b          	subw	s8,a2,t4

0000000080009f48 <i_9843>:
    80009f48:	73f00613          	li	a2,1855

0000000080009f4c <i_9844>:
    80009f4c:	74b00593          	li	a1,1867

0000000080009f50 <i_9845>:
    80009f50:	0382043b          	mulw	s0,tp,s8

0000000080009f54 <i_9846>:
    80009f54:	00000013          	nop

0000000080009f58 <i_9847>:
    80009f58:	4037d79b          	sraiw	a5,a5,0x3

0000000080009f5c <i_9848>:
    80009f5c:	00160613          	addi	a2,a2,1
    80009f60:	fec5d8e3          	ble	a2,a1,80009f50 <i_9845>

0000000080009f64 <i_9849>:
    80009f64:	ed514e03          	lbu	t3,-299(sp)

0000000080009f68 <i_9850>:
    80009f68:	01f33e33          	sltu	t3,t1,t6

0000000080009f6c <i_9851>:
    80009f6c:	87d00f13          	li	t5,-1923

0000000080009f70 <i_9852>:
    80009f70:	88100413          	li	s0,-1919

0000000080009f74 <i_9853>:
    80009f74:	001e579b          	srliw	a5,t3,0x1

0000000080009f78 <i_9854>:
    80009f78:	fdc13823          	sd	t3,-48(sp)

0000000080009f7c <i_9855>:
    80009f7c:	edf103a3          	sb	t6,-313(sp)

0000000080009f80 <i_9856>:
    80009f80:	019ce863          	bltu	s9,s9,80009f90 <i_9860>

0000000080009f84 <i_9857>:
    80009f84:	f8310e03          	lb	t3,-125(sp)

0000000080009f88 <i_9858>:
    80009f88:	17f14183          	lbu	gp,383(sp)

0000000080009f8c <i_9859>:
    80009f8c:	00000013          	nop

0000000080009f90 <i_9860>:
    80009f90:	fc610783          	lb	a5,-58(sp)

0000000080009f94 <i_9861>:
    80009f94:	11611223          	sh	s6,260(sp)

0000000080009f98 <i_9862>:
    80009f98:	02f19463          	bne	gp,a5,80009fc0 <i_9871>

0000000080009f9c <i_9863>:
    80009f9c:	001f0f13          	addi	t5,t5,1
    80009fa0:	fde47ae3          	bleu	t5,s0,80009f74 <i_9853>

0000000080009fa4 <i_9864>:
    80009fa4:	05b14183          	lbu	gp,91(sp)

0000000080009fa8 <i_9865>:
    80009fa8:	eef12223          	sw	a5,-284(sp)

0000000080009fac <i_9866>:
    80009fac:	00f00493          	li	s1,15

0000000080009fb0 <i_9867>:
    80009fb0:	4097d1bb          	sraw	gp,a5,s1

0000000080009fb4 <i_9868>:
    80009fb4:	faf12a23          	sw	a5,-76(sp)

0000000080009fb8 <i_9869>:
    80009fb8:	0034c663          	blt	s1,gp,80009fc4 <i_9872>

0000000080009fbc <i_9870>:
    80009fbc:	02a181bb          	mulw	gp,gp,a0

0000000080009fc0 <i_9871>:
    80009fc0:	f6312e23          	sw	gp,-132(sp)

0000000080009fc4 <i_9872>:
    80009fc4:	00311f23          	sh	gp,30(sp)

0000000080009fc8 <i_9873>:
    80009fc8:	2341819b          	addiw	gp,gp,564

0000000080009fcc <i_9874>:
    80009fcc:	0331bf33          	mulhu	t5,gp,s3

0000000080009fd0 <i_9875>:
    80009fd0:	0b621b97          	auipc	s7,0xb621

0000000080009fd4 <i_9876>:
    80009fd4:	f3013f03          	ld	t5,-208(sp)

0000000080009fd8 <i_9877>:
    80009fd8:	002f0a63          	beq	t5,sp,80009fec <i_9882>

0000000080009fdc <i_9878>:
    80009fdc:	01100093          	li	ra,17

0000000080009fe0 <i_9879>:
    80009fe0:	001f5f3b          	srlw	t5,t5,ra

0000000080009fe4 <i_9880>:
    80009fe4:	f1416d03          	lwu	s10,-236(sp)

0000000080009fe8 <i_9881>:
    80009fe8:	03e09463          	bne	ra,t5,8000a010 <i_9891>

0000000080009fec <i_9882>:
    80009fec:	00109663          	bne	ra,ra,80009ff8 <i_9885>

0000000080009ff0 <i_9883>:
    80009ff0:	03e0e063          	bltu	ra,t5,8000a010 <i_9891>

0000000080009ff4 <i_9884>:
    80009ff4:	03e09463          	bne	ra,t5,8000a01c <i_9894>

0000000080009ff8 <i_9885>:
    80009ff8:	19013c03          	ld	s8,400(sp)

0000000080009ffc <i_9886>:
    80009ffc:	f9e12c23          	sw	t5,-104(sp)

000000008000a000 <i_9887>:
    8000a000:	418e0e3b          	subw	t3,t3,s8

000000008000a004 <i_9888>:
    8000a004:	00000013          	nop

000000008000a008 <i_9889>:
    8000a008:	fb011c83          	lh	s9,-80(sp)

000000008000a00c <i_9890>:
    8000a00c:	00000013          	nop

000000008000a010 <i_9891>:
    8000a010:	00000013          	nop

000000008000a014 <i_9892>:
    8000a014:	0f010423          	sb	a6,232(sp)

000000008000a018 <i_9893>:
    8000a018:	025e02b3          	mul	t0,t3,t0

000000008000a01c <i_9894>:
    8000a01c:	bede3e13          	sltiu	t3,t3,-1043

000000008000a020 <i_9895>:
    8000a020:	1be15c83          	lhu	s9,446(sp)

000000008000a024 <i_9896>:
    8000a024:	8b300593          	li	a1,-1869

000000008000a028 <i_9897>:
    8000a028:	8be00f13          	li	t5,-1858

000000008000a02c <i_9898>:
    8000a02c:	02b10c83          	lb	s9,43(sp)

000000008000a030 <i_9899>:
    8000a030:	0d416083          	lwu	ra,212(sp)

000000008000a034 <i_9900>:
    8000a034:	e3c13023          	sd	t3,-480(sp)

000000008000a038 <i_9901>:
    8000a038:	0390f663          	bleu	s9,ra,8000a064 <i_9911>

000000008000a03c <i_9902>:
    8000a03c:	eb013e03          	ld	t3,-336(sp)

000000008000a040 <i_9903>:
    8000a040:	0390fcb3          	remu	s9,ra,s9

000000008000a044 <i_9904>:
    8000a044:	02561233          	mulh	tp,a2,t0

000000008000a048 <i_9905>:
    8000a048:	00158593          	addi	a1,a1,1 # 73b85001 <main-0xc47afff>
    8000a04c:	ffe590e3          	bne	a1,t5,8000a02c <i_9898>

000000008000a050 <i_9906>:
    8000a050:	00000013          	nop

000000008000a054 <i_9907>:
    8000a054:	0300843b          	mulw	s0,ra,a6

000000008000a058 <i_9908>:
    8000a058:	00500b93          	li	s7,5

000000008000a05c <i_9909>:
    8000a05c:	4170d233          	sra	tp,ra,s7

000000008000a060 <i_9910>:
    8000a060:	eb912023          	sw	s9,-352(sp)

000000008000a064 <i_9911>:
    8000a064:	00000013          	nop

000000008000a068 <i_9912>:
    8000a068:	01f00293          	li	t0,31

000000008000a06c <i_9913>:
    8000a06c:	405bdbbb          	sraw	s7,s7,t0

000000008000a070 <i_9914>:
    8000a070:	77d00813          	li	a6,1917

000000008000a074 <i_9915>:
    8000a074:	78100313          	li	t1,1921

000000008000a078 <i_9916>:
    8000a078:	03728bbb          	mulw	s7,t0,s7

000000008000a07c <i_9917>:
    8000a07c:	e6812b83          	lw	s7,-408(sp)

000000008000a080 <i_9918>:
    8000a080:	e7710023          	sb	s7,-416(sp)

000000008000a084 <i_9919>:
    8000a084:	0ec16083          	lwu	ra,236(sp)

000000008000a088 <i_9920>:
    8000a088:	01abd263          	ble	s10,s7,8000a08c <i_9921>

000000008000a08c <i_9921>:
    8000a08c:	00000013          	nop

000000008000a090 <i_9922>:
    8000a090:	025b9263          	bne	s7,t0,8000a0b4 <i_9930>

000000008000a094 <i_9923>:
    8000a094:	17713423          	sd	s7,360(sp)

000000008000a098 <i_9924>:
    8000a098:	811ba293          	slti	t0,s7,-2031

000000008000a09c <i_9925>:
    8000a09c:	00180813          	addi	a6,a6,1
    8000a0a0:	fd035ae3          	ble	a6,t1,8000a074 <i_9915>

000000008000a0a4 <i_9926>:
    8000a0a4:	0050e863          	bltu	ra,t0,8000a0b4 <i_9930>

000000008000a0a8 <i_9927>:
    8000a0a8:	1832ab93          	slti	s7,t0,387

000000008000a0ac <i_9928>:
    8000a0ac:	0e211283          	lh	t0,226(sp)

000000008000a0b0 <i_9929>:
    8000a0b0:	ff812c03          	lw	s8,-8(sp)

000000008000a0b4 <i_9930>:
    8000a0b4:	0210c2b3          	div	t0,ra,ra

000000008000a0b8 <i_9931>:
    8000a0b8:	ed712423          	sw	s7,-312(sp)

000000008000a0bc <i_9932>:
    8000a0bc:	05012083          	lw	ra,80(sp)

000000008000a0c0 <i_9933>:
    8000a0c0:	81900f13          	li	t5,-2023

000000008000a0c4 <i_9934>:
    8000a0c4:	82c00513          	li	a0,-2004

000000008000a0c8 <i_9935>:
    8000a0c8:	00000013          	nop

000000008000a0cc <i_9936>:
    8000a0cc:	ee112223          	sw	ra,-284(sp)

000000008000a0d0 <i_9937>:
    8000a0d0:	40a080b3          	sub	ra,ra,a0

000000008000a0d4 <i_9938>:
    8000a0d4:	f8112a23          	sw	ra,-108(sp)

000000008000a0d8 <i_9939>:
    8000a0d8:	00000013          	nop

000000008000a0dc <i_9940>:
    8000a0dc:	001f0f13          	addi	t5,t5,1
    8000a0e0:	feaf64e3          	bltu	t5,a0,8000a0c8 <i_9935>

000000008000a0e4 <i_9941>:
    8000a0e4:	0160f533          	and	a0,ra,s6

000000008000a0e8 <i_9942>:
    8000a0e8:	f2a13823          	sd	a0,-208(sp)

000000008000a0ec <i_9943>:
    8000a0ec:	f5f12e23          	sw	t6,-164(sp)

000000008000a0f0 <i_9944>:
    8000a0f0:	00156a63          	bltu	a0,ra,8000a104 <i_9949>

000000008000a0f4 <i_9945>:
    8000a0f4:	f1414e83          	lbu	t4,-236(sp)

000000008000a0f8 <i_9946>:
    8000a0f8:	01600093          	li	ra,22

000000008000a0fc <i_9947>:
    8000a0fc:	00151eb3          	sll	t4,a0,ra

000000008000a100 <i_9948>:
    8000a100:	00a0aeb3          	slt	t4,ra,a0

000000008000a104 <i_9949>:
    8000a104:	16112023          	sw	ra,352(sp)

000000008000a108 <i_9950>:
    8000a108:	00a0c263          	blt	ra,a0,8000a10c <i_9951>

000000008000a10c <i_9951>:
    8000a10c:	fa1103a3          	sb	ra,-89(sp)

000000008000a110 <i_9952>:
    8000a110:	1b412403          	lw	s0,436(sp)

000000008000a114 <i_9953>:
    8000a114:	00109263          	bne	ra,ra,8000a118 <i_9954>

000000008000a118 <i_9954>:
    8000a118:	7ad08593          	addi	a1,ra,1965

000000008000a11c <i_9955>:
    8000a11c:	0e112423          	sw	ra,232(sp)

000000008000a120 <i_9956>:
    8000a120:	00813403          	ld	s0,8(sp)

000000008000a124 <i_9957>:
    8000a124:	e7815803          	lhu	a6,-392(sp)

000000008000a128 <i_9958>:
    8000a128:	40bf84bb          	subw	s1,t6,a1

000000008000a12c <i_9959>:
    8000a12c:	0a816583          	lwu	a1,168(sp)

000000008000a130 <i_9960>:
    8000a130:	01a4ec63          	bltu	s1,s10,8000a148 <i_9966>

000000008000a134 <i_9961>:
    8000a134:	009109a3          	sb	s1,19(sp)

000000008000a138 <i_9962>:
    8000a138:	ecb10623          	sb	a1,-308(sp)

000000008000a13c <i_9963>:
    8000a13c:	003c9c9b          	slliw	s9,s9,0x3

000000008000a140 <i_9964>:
    8000a140:	f9e14383          	lbu	t2,-98(sp)

000000008000a144 <i_9965>:
    8000a144:	0093c663          	blt	t2,s1,8000a150 <i_9968>

000000008000a148 <i_9966>:
    8000a148:	e8912623          	sw	s1,-372(sp)

000000008000a14c <i_9967>:
    8000a14c:	09a10e83          	lb	t4,154(sp)

000000008000a150 <i_9968>:
    8000a150:	fd580493          	addi	s1,a6,-43

000000008000a154 <i_9969>:
    8000a154:	1dc14583          	lbu	a1,476(sp)

000000008000a158 <i_9970>:
    8000a158:	12710aa3          	sb	t2,309(sp)

000000008000a15c <i_9971>:
    8000a15c:	029393b3          	mulh	t2,t2,s1

000000008000a160 <i_9972>:
    8000a160:	037543b3          	div	t2,a0,s7

000000008000a164 <i_9973>:
    8000a164:	00000013          	nop

000000008000a168 <i_9974>:
    8000a168:	83c00513          	li	a0,-1988

000000008000a16c <i_9975>:
    8000a16c:	84d00d13          	li	s10,-1971

000000008000a170 <i_9976>:
    8000a170:	41a501bb          	subw	gp,a0,s10

000000008000a174 <i_9977>:
    8000a174:	01a70663          	beq	a4,s10,8000a180 <i_9980>

000000008000a178 <i_9978>:
    8000a178:	f0615c03          	lhu	s8,-250(sp)

000000008000a17c <i_9979>:
    8000a17c:	e1b14483          	lbu	s1,-485(sp)

000000008000a180 <i_9980>:
    8000a180:	029c4463          	blt	s8,s1,8000a1a8 <i_9989>

000000008000a184 <i_9981>:
    8000a184:	0272ceb3          	div	t4,t0,t2

000000008000a188 <i_9982>:
    8000a188:	02c16283          	lwu	t0,44(sp)

000000008000a18c <i_9983>:
    8000a18c:	0276e263          	bltu	a3,t2,8000a1b0 <i_9991>

000000008000a190 <i_9984>:
    8000a190:	029c6263          	bltu	s8,s1,8000a1b4 <i_9992>

000000008000a194 <i_9985>:
    8000a194:	027c05b3          	mul	a1,s8,t2

000000008000a198 <i_9986>:
    8000a198:	00150513          	addi	a0,a0,1 # ffffffff91ccb001 <_end+0xffffffff11cbabed>
    8000a19c:	fda51ae3          	bne	a0,s10,8000a170 <i_9976>

000000008000a1a0 <i_9987>:
    8000a1a0:	03d5653b          	remw	a0,a0,t4

000000008000a1a4 <i_9988>:
    8000a1a4:	00ac6263          	bltu	s8,a0,8000a1a8 <i_9989>

000000008000a1a8 <i_9989>:
    8000a1a8:	fec12983          	lw	s3,-20(sp)

000000008000a1ac <i_9990>:
    8000a1ac:	862a4b93          	xori	s7,s4,-1950

000000008000a1b0 <i_9991>:
    8000a1b0:	038151b3          	divu	gp,sp,s8

000000008000a1b4 <i_9992>:
    8000a1b4:	0139e463          	bltu	s3,s3,8000a1bc <i_9994>

000000008000a1b8 <i_9993>:
    8000a1b8:	0397c063          	blt	a5,s9,8000a1d8 <i_10001>

000000008000a1bc <i_9994>:
    8000a1bc:	01d9e863          	bltu	s3,t4,8000a1cc <i_9998>

000000008000a1c0 <i_9995>:
    8000a1c0:	00100513          	li	a0,1

000000008000a1c4 <i_9996>:
    8000a1c4:	00a515bb          	sllw	a1,a0,a0

000000008000a1c8 <i_9997>:
    8000a1c8:	01b54cb3          	xor	s9,a0,s11

000000008000a1cc <i_9998>:
    8000a1cc:	02355263          	ble	gp,a0,8000a1f0 <i_10007>

000000008000a1d0 <i_9999>:
    8000a1d0:	02a56533          	rem	a0,a0,a0

000000008000a1d4 <i_10000>:
    8000a1d4:	a3d53e13          	sltiu	t3,a0,-1475

000000008000a1d8 <i_10001>:
    8000a1d8:	f6510803          	lb	a6,-155(sp)

000000008000a1dc <i_10002>:
    8000a1dc:	f0611503          	lh	a0,-250(sp)

000000008000a1e0 <i_10003>:
    8000a1e0:	00000013          	nop

000000008000a1e4 <i_10004>:
    8000a1e4:	1e211303          	lh	t1,482(sp)

000000008000a1e8 <i_10005>:
    8000a1e8:	00000013          	nop

000000008000a1ec <i_10006>:
    8000a1ec:	02a3453b          	divw	a0,t1,a0

000000008000a1f0 <i_10007>:
    8000a1f0:	06813303          	ld	t1,104(sp)

000000008000a1f4 <i_10008>:
    8000a1f4:	00000013          	nop

000000008000a1f8 <i_10009>:
    8000a1f8:	76800213          	li	tp,1896

000000008000a1fc <i_10010>:
    8000a1fc:	77900c13          	li	s8,1913

000000008000a200 <i_10011>:
    8000a200:	00c00593          	li	a1,12

000000008000a204 <i_10012>:
    8000a204:	00ba9abb          	sllw	s5,s5,a1

000000008000a208 <i_10013>:
    8000a208:	00000013          	nop

000000008000a20c <i_10014>:
    8000a20c:	fe610a23          	sb	t1,-12(sp)

000000008000a210 <i_10015>:
    8000a210:	00120213          	addi	tp,tp,1 # ffffffffaac7b001 <_end+0xffffffff2ac6abed>
    8000a214:	ff8266e3          	bltu	tp,s8,8000a200 <i_10011>

000000008000a218 <i_10016>:
    8000a218:	3fa52793          	slti	a5,a0,1018

000000008000a21c <i_10017>:
    8000a21c:	00fafcb3          	and	s9,s5,a5

000000008000a220 <i_10018>:
    8000a220:	00634c63          	blt	t1,t1,8000a238 <i_10024>

000000008000a224 <i_10019>:
    8000a224:	19812a83          	lw	s5,408(sp)

000000008000a228 <i_10020>:
    8000a228:	03530463          	beq	t1,s5,8000a250 <i_10030>

000000008000a22c <i_10021>:
    8000a22c:	00600413          	li	s0,6

000000008000a230 <i_10022>:
    8000a230:	00821ab3          	sll	s5,tp,s0

000000008000a234 <i_10023>:
    8000a234:	035af063          	bleu	s5,s5,8000a254 <i_10031>

000000008000a238 <i_10024>:
    8000a238:	0d013a83          	ld	s5,208(sp)

000000008000a23c <i_10025>:
    8000a23c:	00e47e63          	bleu	a4,s0,8000a258 <i_10032>

000000008000a240 <i_10026>:
    8000a240:	004ad493          	srli	s1,s5,0x4

000000008000a244 <i_10027>:
    8000a244:	1d513823          	sd	s5,464(sp)

000000008000a248 <i_10028>:
    8000a248:	04813c23          	sd	s0,88(sp)

000000008000a24c <i_10029>:
    8000a24c:	1d416183          	lwu	gp,468(sp)

000000008000a250 <i_10030>:
    8000a250:	03545463          	ble	s5,s0,8000a278 <i_10040>

000000008000a254 <i_10031>:
    8000a254:	e6c11403          	lh	s0,-404(sp)

000000008000a258 <i_10032>:
    8000a258:	b0846213          	ori	tp,s0,-1272

000000008000a25c <i_10033>:
    8000a25c:	f2a15603          	lhu	a2,-214(sp)

000000008000a260 <i_10034>:
    8000a260:	004ada93          	srli	s5,s5,0x4

000000008000a264 <i_10035>:
    8000a264:	02c23633          	mulhu	a2,tp,a2

000000008000a268 <i_10036>:
    8000a268:	1d012603          	lw	a2,464(sp)

000000008000a26c <i_10037>:
    8000a26c:	41fa0a33          	sub	s4,s4,t6

000000008000a270 <i_10038>:
    8000a270:	fce14a83          	lbu	s5,-50(sp)

000000008000a274 <i_10039>:
    8000a274:	dbf86413          	ori	s0,a6,-577

000000008000a278 <i_10040>:
    8000a278:	09615203          	lhu	tp,150(sp)

000000008000a27c <i_10041>:
    8000a27c:	40325613          	srai	a2,tp,0x3

000000008000a280 <i_10042>:
    8000a280:	03e00793          	li	a5,62

000000008000a284 <i_10043>:
    8000a284:	00f45633          	srl	a2,s0,a5

000000008000a288 <i_10044>:
    8000a288:	0127d463          	ble	s2,a5,8000a290 <i_10046>

000000008000a28c <i_10045>:
    8000a28c:	00c7ca63          	blt	a5,a2,8000a2a0 <i_10050>

000000008000a290 <i_10046>:
    8000a290:	00f40863          	beq	s0,a5,8000a2a0 <i_10050>

000000008000a294 <i_10047>:
    8000a294:	f7710aa3          	sb	s7,-139(sp)

000000008000a298 <i_10048>:
    8000a298:	f8f12a23          	sw	a5,-108(sp)

000000008000a29c <i_10049>:
    8000a29c:	4027de9b          	sraiw	t4,a5,0x2

000000008000a2a0 <i_10050>:
    8000a2a0:	02f787b3          	mul	a5,a5,a5

000000008000a2a4 <i_10051>:
    8000a2a4:	e2211e83          	lh	t4,-478(sp)

000000008000a2a8 <i_10052>:
    8000a2a8:	2a7825b7          	lui	a1,0x2a782

000000008000a2ac <i_10053>:
    8000a2ac:	e9912223          	sw	s9,-380(sp)

000000008000a2b0 <i_10054>:
    8000a2b0:	03dae7bb          	remw	a5,s5,t4

000000008000a2b4 <i_10055>:
    8000a2b4:	004eda93          	srli	s5,t4,0x4

000000008000a2b8 <i_10056>:
    8000a2b8:	00d587b3          	add	a5,a1,a3

000000008000a2bc <i_10057>:
    8000a2bc:	01659463          	bne	a1,s6,8000a2c4 <i_10059>

000000008000a2c0 <i_10058>:
    8000a2c0:	ee713023          	sd	t2,-288(sp)

000000008000a2c4 <i_10059>:
    8000a2c4:	0b513823          	sd	s5,176(sp)

000000008000a2c8 <i_10060>:
    8000a2c8:	eeb11423          	sh	a1,-280(sp)

000000008000a2cc <i_10061>:
    8000a2cc:	035ae233          	rem	tp,s5,s5

000000008000a2d0 <i_10062>:
    8000a2d0:	e8f11023          	sh	a5,-384(sp)

000000008000a2d4 <i_10063>:
    8000a2d4:	e9811c83          	lh	s9,-360(sp)

000000008000a2d8 <i_10064>:
    8000a2d8:	00fa8ab3          	add	s5,s5,a5

000000008000a2dc <i_10065>:
    8000a2dc:	015c8463          	beq	s9,s5,8000a2e4 <i_10067>

000000008000a2e0 <i_10066>:
    8000a2e0:	f2e12a23          	sw	a4,-204(sp)

000000008000a2e4 <i_10067>:
    8000a2e4:	00face63          	blt	s5,a5,8000a300 <i_10074>

000000008000a2e8 <i_10068>:
    8000a2e8:	e5310f03          	lb	t5,-429(sp)

000000008000a2ec <i_10069>:
    8000a2ec:	00413023          	sd	tp,0(sp)

000000008000a2f0 <i_10070>:
    8000a2f0:	01416683          	lwu	a3,20(sp)

000000008000a2f4 <i_10071>:
    8000a2f4:	14d12423          	sw	a3,328(sp)

000000008000a2f8 <i_10072>:
    8000a2f8:	00d11423          	sh	a3,8(sp)

000000008000a2fc <i_10073>:
    8000a2fc:	09511d23          	sh	s5,154(sp)

000000008000a300 <i_10074>:
    8000a300:	0c412f03          	lw	t5,196(sp)

000000008000a304 <i_10075>:
    8000a304:	03ef1263          	bne	t5,t5,8000a328 <i_10084>

000000008000a308 <i_10076>:
    8000a308:	f9013f03          	ld	t5,-112(sp)

000000008000a30c <i_10077>:
    8000a30c:	03e94bbb          	divw	s7,s2,t5

000000008000a310 <i_10078>:
    8000a310:	03127633          	remu	a2,tp,a7

000000008000a314 <i_10079>:
    8000a314:	01d64a63          	blt	a2,t4,8000a328 <i_10084>

000000008000a318 <i_10080>:
    8000a318:	03012603          	lw	a2,48(sp)

000000008000a31c <i_10081>:
    8000a31c:	f4f105a3          	sb	a5,-181(sp)

000000008000a320 <i_10082>:
    8000a320:	f5e10e83          	lb	t4,-162(sp)

000000008000a324 <i_10083>:
    8000a324:	01763cb3          	sltu	s9,a2,s7

000000008000a328 <i_10084>:
    8000a328:	e3016503          	lwu	a0,-464(sp)

000000008000a32c <i_10085>:
    8000a32c:	1b815183          	lhu	gp,440(sp)

000000008000a330 <i_10086>:
    8000a330:	f4a10983          	lb	s3,-182(sp)

000000008000a334 <i_10087>:
    8000a334:	18615e83          	lhu	t4,390(sp)

000000008000a338 <i_10088>:
    8000a338:	0331e263          	bltu	gp,s3,8000a35c <i_10097>

000000008000a33c <i_10089>:
    8000a33c:	fce11603          	lh	a2,-50(sp)

000000008000a340 <i_10090>:
    8000a340:	13812403          	lw	s0,312(sp)

000000008000a344 <i_10091>:
    8000a344:	0339e2bb          	remw	t0,s3,s3

000000008000a348 <i_10092>:
    8000a348:	00111813          	slli	a6,sp,0x1

000000008000a34c <i_10093>:
    8000a34c:	02b00a13          	li	s4,43

000000008000a350 <i_10094>:
    8000a350:	4149d633          	sra	a2,s3,s4

000000008000a354 <i_10095>:
    8000a354:	f0d14803          	lbu	a6,-243(sp)

000000008000a358 <i_10096>:
    8000a358:	404a599b          	sraiw	s3,s4,0x4

000000008000a35c <i_10097>:
    8000a35c:	15f10983          	lb	s3,351(sp)

000000008000a360 <i_10098>:
    8000a360:	e3013983          	ld	s3,-464(sp)

000000008000a364 <i_10099>:
    8000a364:	77c00b13          	li	s6,1916

000000008000a368 <i_10100>:
    8000a368:	78100193          	li	gp,1921

000000008000a36c <i_10101>:
    8000a36c:	13c16683          	lwu	a3,316(sp)

000000008000a370 <i_10102>:
    8000a370:	03e13423          	sd	t5,40(sp)

000000008000a374 <i_10103>:
    8000a374:	02d9e83b          	remw	a6,s3,a3

000000008000a378 <i_10104>:
    8000a378:	0339a633          	mulhsu	a2,s3,s3

000000008000a37c <i_10105>:
    8000a37c:	001b0b13          	addi	s6,s6,1
    8000a380:	fe3b46e3          	blt	s6,gp,8000a36c <i_10101>

000000008000a384 <i_10106>:
    8000a384:	f5412683          	lw	a3,-172(sp)

000000008000a388 <i_10107>:
    8000a388:	f3813983          	ld	s3,-200(sp)

000000008000a38c <i_10108>:
    8000a38c:	00c00993          	li	s3,12

000000008000a390 <i_10109>:
    8000a390:	0136d43b          	srlw	s0,a3,s3

000000008000a394 <i_10110>:
    8000a394:	03e80263          	beq	a6,t5,8000a3b8 <i_10119>

000000008000a398 <i_10111>:
    8000a398:	0296f063          	bleu	s1,a3,8000a3b8 <i_10119>

000000008000a39c <i_10112>:
    8000a39c:	1664081b          	addiw	a6,s0,358

000000008000a3a0 <i_10113>:
    8000a3a0:	0289e7b3          	rem	a5,s3,s0

000000008000a3a4 <i_10114>:
    8000a3a4:	403ede93          	srai	t4,t4,0x3

000000008000a3a8 <i_10115>:
    8000a3a8:	f3014d83          	lbu	s11,-208(sp)

000000008000a3ac <i_10116>:
    8000a3ac:	01b449b3          	xor	s3,s0,s11

000000008000a3b0 <i_10117>:
    8000a3b0:	09213c23          	sd	s2,152(sp)

000000008000a3b4 <i_10118>:
    8000a3b4:	e7812383          	lw	t2,-392(sp)

000000008000a3b8 <i_10119>:
    8000a3b8:	02ce6633          	rem	a2,t3,a2

000000008000a3bc <i_10120>:
    8000a3bc:	030dc833          	div	a6,s11,a6

000000008000a3c0 <i_10121>:
    8000a3c0:	e4d13823          	sd	a3,-432(sp)

000000008000a3c4 <i_10122>:
    8000a3c4:	0280c0bb          	divw	ra,ra,s0

000000008000a3c8 <i_10123>:
    8000a3c8:	00000013          	nop

000000008000a3cc <i_10124>:
    8000a3cc:	83300a13          	li	s4,-1997

000000008000a3d0 <i_10125>:
    8000a3d0:	84500a93          	li	s5,-1979

000000008000a3d4 <i_10126>:
    8000a3d4:	80dac793          	xori	a5,s5,-2035

000000008000a3d8 <i_10127>:
    8000a3d8:	40dc8db3          	sub	s11,s9,a3

000000008000a3dc <i_10128>:
    8000a3dc:	001a0a13          	addi	s4,s4,1
    8000a3e0:	ff5a1ae3          	bne	s4,s5,8000a3d4 <i_10126>

000000008000a3e4 <i_10129>:
    8000a3e4:	03a79d33          	mulh	s10,a5,s10

000000008000a3e8 <i_10130>:
    8000a3e8:	021cfcbb          	remuw	s9,s9,ra

000000008000a3ec <i_10131>:
    8000a3ec:	ea811503          	lh	a0,-344(sp)

000000008000a3f0 <i_10132>:
    8000a3f0:	eae15303          	lhu	t1,-338(sp)

000000008000a3f4 <i_10133>:
    8000a3f4:	03100413          	li	s0,49

000000008000a3f8 <i_10134>:
    8000a3f8:	008c9cb3          	sll	s9,s9,s0

000000008000a3fc <i_10135>:
    8000a3fc:	01100793          	li	a5,17

000000008000a400 <i_10136>:
    8000a400:	00fc933b          	sllw	t1,s9,a5

000000008000a404 <i_10137>:
    8000a404:	14e11403          	lh	s0,334(sp)

000000008000a408 <i_10138>:
    8000a408:	f3812403          	lw	s0,-200(sp)

000000008000a40c <i_10139>:
    8000a40c:	17c16e83          	lwu	t4,380(sp)

000000008000a410 <i_10140>:
    8000a410:	fef11323          	sh	a5,-26(sp)

000000008000a414 <i_10141>:
    8000a414:	fe813e03          	ld	t3,-24(sp)

000000008000a418 <i_10142>:
    8000a418:	79e00c13          	li	s8,1950

000000008000a41c <i_10143>:
    8000a41c:	7ab00793          	li	a5,1963

000000008000a420 <i_10144>:
    8000a420:	01d48233          	add	tp,s1,t4

000000008000a424 <i_10145>:
    8000a424:	15013983          	ld	s3,336(sp)

000000008000a428 <i_10146>:
    8000a428:	10f12823          	sw	a5,272(sp)

000000008000a42c <i_10147>:
    8000a42c:	fca15503          	lhu	a0,-54(sp)

000000008000a430 <i_10148>:
    8000a430:	001c0c13          	addi	s8,s8,1
    8000a434:	fefc16e3          	bne	s8,a5,8000a420 <i_10144>

000000008000a438 <i_10149>:
    8000a438:	00f10e23          	sb	a5,28(sp)

000000008000a43c <i_10150>:
    8000a43c:	17810523          	sb	s8,362(sp)

000000008000a440 <i_10151>:
    8000a440:	40f781bb          	subw	gp,a5,a5

000000008000a444 <i_10152>:
    8000a444:	018e7c63          	bleu	s8,t3,8000a45c <i_10158>

000000008000a448 <i_10153>:
    8000a448:	011e7a63          	bleu	a7,t3,8000a45c <i_10158>

000000008000a44c <i_10154>:
    8000a44c:	00419263          	bne	gp,tp,8000a450 <i_10155>

000000008000a450 <i_10155>:
    8000a450:	fb910083          	lb	ra,-71(sp)

000000008000a454 <i_10156>:
    8000a454:	0131da63          	ble	s3,gp,8000a468 <i_10161>

000000008000a458 <i_10157>:
    8000a458:	004c6233          	or	tp,s8,tp

000000008000a45c <i_10158>:
    8000a45c:	00013083          	ld	ra,0(sp)

000000008000a460 <i_10159>:
    8000a460:	0022521b          	srliw	tp,tp,0x2

000000008000a464 <i_10160>:
    8000a464:	0241d263          	ble	tp,gp,8000a488 <i_10169>

000000008000a468 <i_10161>:
    8000a468:	02300193          	li	gp,35

000000008000a46c <i_10162>:
    8000a46c:	00321633          	sll	a2,tp,gp

000000008000a470 <i_10163>:
    8000a470:	f3112c23          	sw	a7,-200(sp)

000000008000a474 <i_10164>:
    8000a474:	00366c63          	bltu	a2,gp,8000a48c <i_10170>

000000008000a478 <i_10165>:
    8000a478:	00c60bb3          	add	s7,a2,a2

000000008000a47c <i_10166>:
    8000a47c:	07611603          	lh	a2,118(sp)

000000008000a480 <i_10167>:
    8000a480:	02cbd633          	divu	a2,s7,a2

000000008000a484 <i_10168>:
    8000a484:	02c61463          	bne	a2,a2,8000a4ac <i_10178>

000000008000a488 <i_10169>:
    8000a488:	ecc10323          	sb	a2,-314(sp)

000000008000a48c <i_10170>:
    8000a48c:	ff712a23          	sw	s7,-12(sp)

000000008000a490 <i_10171>:
    8000a490:	fb816603          	lwu	a2,-72(sp)

000000008000a494 <i_10172>:
    8000a494:	f3211403          	lh	s0,-206(sp)

000000008000a498 <i_10173>:
    8000a498:	eec16603          	lwu	a2,-276(sp)

000000008000a49c <i_10174>:
    8000a49c:	efc12e03          	lw	t3,-260(sp)

000000008000a4a0 <i_10175>:
    8000a4a0:	1dc13023          	sd	t3,448(sp)

000000008000a4a4 <i_10176>:
    8000a4a4:	00c12023          	sw	a2,0(sp)

000000008000a4a8 <i_10177>:
    8000a4a8:	00ce05b3          	add	a1,t3,a2

000000008000a4ac <i_10178>:
    8000a4ac:	02ce4263          	blt	t3,a2,8000a4d0 <i_10187>

000000008000a4b0 <i_10179>:
    8000a4b0:	09714583          	lbu	a1,151(sp)

000000008000a4b4 <i_10180>:
    8000a4b4:	028e5e3b          	divuw	t3,t3,s0

000000008000a4b8 <i_10181>:
    8000a4b8:	01147a63          	bleu	a7,s0,8000a4cc <i_10186>

000000008000a4bc <i_10182>:
    8000a4bc:	05812d83          	lw	s11,88(sp)

000000008000a4c0 <i_10183>:
    8000a4c0:	02c65063          	ble	a2,a2,8000a4e0 <i_10191>

000000008000a4c4 <i_10184>:
    8000a4c4:	f8011203          	lh	tp,-128(sp)

000000008000a4c8 <i_10185>:
    8000a4c8:	024dc633          	div	a2,s11,tp

000000008000a4cc <i_10186>:
    8000a4cc:	1c013a03          	ld	s4,448(sp)

000000008000a4d0 <i_10187>:
    8000a4d0:	02ca663b          	remw	a2,s4,a2

000000008000a4d4 <i_10188>:
    8000a4d4:	02c2723b          	remuw	tp,tp,a2

000000008000a4d8 <i_10189>:
    8000a4d8:	07810b83          	lb	s7,120(sp)

000000008000a4dc <i_10190>:
    8000a4dc:	034a723b          	remuw	tp,s4,s4

000000008000a4e0 <i_10191>:
    8000a4e0:	01a14303          	lbu	t1,26(sp)

000000008000a4e4 <i_10192>:
    8000a4e4:	10910183          	lb	gp,265(sp)

000000008000a4e8 <i_10193>:
    8000a4e8:	82000613          	li	a2,-2016

000000008000a4ec <i_10194>:
    8000a4ec:	82200a13          	li	s4,-2014

000000008000a4f0 <i_10195>:
    8000a4f0:	a4b2079b          	addiw	a5,tp,-1461

000000008000a4f4 <i_10196>:
    8000a4f4:	ecd80213          	addi	tp,a6,-307

000000008000a4f8 <i_10197>:
    8000a4f8:	02e15303          	lhu	t1,46(sp)

000000008000a4fc <i_10198>:
    8000a4fc:	00fa0663          	beq	s4,a5,8000a508 <i_10201>

000000008000a500 <i_10199>:
    8000a500:	f2813303          	ld	t1,-216(sp)

000000008000a504 <i_10200>:
    8000a504:	f7332b93          	slti	s7,t1,-141

000000008000a508 <i_10201>:
    8000a508:	c8a33c13          	sltiu	s8,t1,-886

000000008000a50c <i_10202>:
    8000a50c:	02608263          	beq	ra,t1,8000a530 <i_10210>

000000008000a510 <i_10203>:
    8000a510:	109a0097          	auipc	ra,0x109a0

000000008000a514 <i_10204>:
    8000a514:	00160613          	addi	a2,a2,1
    8000a518:	fd464ce3          	blt	a2,s4,8000a4f0 <i_10195>

000000008000a51c <i_10205>:
    8000a51c:	01a0fd33          	and	s10,ra,s10

000000008000a520 <i_10206>:
    8000a520:	1ba12023          	sw	s10,416(sp)

000000008000a524 <i_10207>:
    8000a524:	006ba0b3          	slt	ra,s7,t1

000000008000a528 <i_10208>:
    8000a528:	021100bb          	mulw	ra,sp,ra

000000008000a52c <i_10209>:
    8000a52c:	ed415b83          	lhu	s7,-300(sp)

000000008000a530 <i_10210>:
    8000a530:	00000013          	nop

000000008000a534 <i_10211>:
    8000a534:	00000013          	nop

000000008000a538 <i_10212>:
    8000a538:	89200c13          	li	s8,-1902

000000008000a53c <i_10213>:
    8000a53c:	89900593          	li	a1,-1895

000000008000a540 <i_10214>:
    8000a540:	0295d4bb          	divuw	s1,a1,s1

000000008000a544 <i_10215>:
    8000a544:	038c4d3b          	divw	s10,s8,s8

000000008000a548 <i_10216>:
    8000a548:	17810ca3          	sb	s8,377(sp)

000000008000a54c <i_10217>:
    8000a54c:	009482b3          	add	t0,s1,s1

000000008000a550 <i_10218>:
    8000a550:	fa611f03          	lh	t5,-90(sp)

000000008000a554 <i_10219>:
    8000a554:	8c400493          	li	s1,-1852

000000008000a558 <i_10220>:
    8000a558:	8ca00d13          	li	s10,-1846

000000008000a55c <i_10221>:
    8000a55c:	f65105a3          	sb	t0,-149(sp)

000000008000a560 <i_10222>:
    8000a560:	e2813f03          	ld	t5,-472(sp)

000000008000a564 <i_10223>:
    8000a564:	13e12823          	sw	t5,304(sp)

000000008000a568 <i_10224>:
    8000a568:	00000013          	nop

000000008000a56c <i_10225>:
    8000a56c:	00148493          	addi	s1,s1,1
    8000a570:	fe9d76e3          	bleu	s1,s10,8000a55c <i_10221>

000000008000a574 <i_10226>:
    8000a574:	025dc2b3          	div	t0,s11,t0

000000008000a578 <i_10227>:
    8000a578:	001c0c13          	addi	s8,s8,1
    8000a57c:	fcbc42e3          	blt	s8,a1,8000a540 <i_10214>

000000008000a580 <i_10228>:
    8000a580:	1de108a3          	sb	t5,465(sp)

000000008000a584 <i_10229>:
    8000a584:	1de12023          	sw	t5,448(sp)

000000008000a588 <i_10230>:
    8000a588:	40ff0c3b          	subw	s8,t5,a5

000000008000a58c <i_10231>:
    8000a58c:	01ef1a63          	bne	t5,t5,8000a5a0 <i_10236>

000000008000a590 <i_10232>:
    8000a590:	1a511b23          	sh	t0,438(sp)

000000008000a594 <i_10233>:
    8000a594:	ef012d83          	lw	s11,-272(sp)

000000008000a598 <i_10234>:
    8000a598:	fc510523          	sb	t0,-54(sp)

000000008000a59c <i_10235>:
    8000a59c:	03cc5263          	ble	t3,s8,8000a5c0 <i_10244>

000000008000a5a0 <i_10236>:
    8000a5a0:	09b11a23          	sh	s11,148(sp)

000000008000a5a4 <i_10237>:
    8000a5a4:	41c485b3          	sub	a1,s1,t3

000000008000a5a8 <i_10238>:
    8000a5a8:	03bdcf33          	div	t5,s11,s11

000000008000a5ac <i_10239>:
    8000a5ac:	ee014c03          	lbu	s8,-288(sp)

000000008000a5b0 <i_10240>:
    8000a5b0:	03cc2f33          	mulhsu	t5,s8,t3

000000008000a5b4 <i_10241>:
    8000a5b4:	00000013          	nop

000000008000a5b8 <i_10242>:
    8000a5b8:	a7887493          	andi	s1,a6,-1416

000000008000a5bc <i_10243>:
    8000a5bc:	010feeb3          	or	t4,t6,a6

000000008000a5c0 <i_10244>:
    8000a5c0:	09012f03          	lw	t5,144(sp)

000000008000a5c4 <i_10245>:
    8000a5c4:	404c5e93          	srai	t4,s8,0x4

000000008000a5c8 <i_10246>:
    8000a5c8:	88f00e13          	li	t3,-1905

000000008000a5cc <i_10247>:
    8000a5cc:	89200793          	li	a5,-1902

000000008000a5d0 <i_10248>:
    8000a5d0:	16813b83          	ld	s7,360(sp)

000000008000a5d4 <i_10249>:
    8000a5d4:	01011b83          	lh	s7,16(sp)

000000008000a5d8 <i_10250>:
    8000a5d8:	75100813          	li	a6,1873

000000008000a5dc <i_10251>:
    8000a5dc:	76500c13          	li	s8,1893

000000008000a5e0 <i_10252>:
    8000a5e0:	00180813          	addi	a6,a6,1
    8000a5e4:	ff0c7ee3          	bleu	a6,s8,8000a5e0 <i_10252>

000000008000a5e8 <i_10253>:
    8000a5e8:	15811323          	sh	s8,326(sp)

000000008000a5ec <i_10254>:
    8000a5ec:	00000013          	nop

000000008000a5f0 <i_10255>:
    8000a5f0:	0384f33b          	remuw	t1,s1,s8

000000008000a5f4 <i_10256>:
    8000a5f4:	ebd13c23          	sd	t4,-328(sp)

000000008000a5f8 <i_10257>:
    8000a5f8:	001e0e13          	addi	t3,t3,1
    8000a5fc:	fdc79ae3          	bne	a5,t3,8000a5d0 <i_10248>

000000008000a600 <i_10258>:
    8000a600:	401c5293          	srai	t0,s8,0x1

000000008000a604 <i_10259>:
    8000a604:	0372f463          	bleu	s7,t0,8000a62c <i_10269>

000000008000a608 <i_10260>:
    8000a608:	005b9263          	bne	s7,t0,8000a60c <i_10261>

000000008000a60c <i_10261>:
    8000a60c:	0ea10e03          	lb	t3,234(sp)

000000008000a610 <i_10262>:
    8000a610:	f4611c23          	sh	t1,-168(sp)

000000008000a614 <i_10263>:
    8000a614:	00c00793          	li	a5,12

000000008000a618 <i_10264>:
    8000a618:	40f2dbbb          	sraw	s7,t0,a5

000000008000a61c <i_10265>:
    8000a61c:	05710d23          	sb	s7,90(sp)

000000008000a620 <i_10266>:
    8000a620:	0057ec63          	bltu	a5,t0,8000a638 <i_10272>

000000008000a624 <i_10267>:
    8000a624:	03400b93          	li	s7,52

000000008000a628 <i_10268>:
    8000a628:	0177deb3          	srl	t4,a5,s7

000000008000a62c <i_10269>:
    8000a62c:	03d3433b          	divw	t1,t1,t4

000000008000a630 <i_10270>:
    8000a630:	91956e97          	auipc	t4,0x91956

000000008000a634 <i_10271>:
    8000a634:	01abe463          	bltu	s7,s10,8000a63c <i_10273>

000000008000a638 <i_10272>:
    8000a638:	07d13c23          	sd	t4,120(sp)

000000008000a63c <i_10273>:
    8000a63c:	1cc12583          	lw	a1,460(sp)

000000008000a640 <i_10274>:
    8000a640:	ea612a23          	sw	t1,-332(sp)

000000008000a644 <i_10275>:
    8000a644:	00bbfa63          	bleu	a1,s7,8000a658 <i_10280>

000000008000a648 <i_10276>:
    8000a648:	09d13423          	sd	t4,136(sp)

000000008000a64c <i_10277>:
    8000a64c:	00c00293          	li	t0,12

000000008000a650 <i_10278>:
    8000a650:	0055d43b          	srlw	s0,a1,t0

000000008000a654 <i_10279>:
    8000a654:	f2016a83          	lwu	s5,-224(sp)

000000008000a658 <i_10280>:
    8000a658:	017e8eb3          	add	t4,t4,s7

000000008000a65c <i_10281>:
    8000a65c:	015e85b3          	add	a1,t4,s5

000000008000a660 <i_10282>:
    8000a660:	76800513          	li	a0,1896

000000008000a664 <i_10283>:
    8000a664:	77700613          	li	a2,1911

000000008000a668 <i_10284>:
    8000a668:	0b016783          	lwu	a5,176(sp)

000000008000a66c <i_10285>:
    8000a66c:	003cdc93          	srli	s9,s9,0x3

000000008000a670 <i_10286>:
    8000a670:	019efc63          	bleu	s9,t4,8000a688 <i_10292>

000000008000a674 <i_10287>:
    8000a674:	09510723          	sb	s5,142(sp)

000000008000a678 <i_10288>:
    8000a678:	00bab4b3          	sltu	s1,s5,a1

000000008000a67c <i_10289>:
    8000a67c:	0014de1b          	srliw	t3,s1,0x1

000000008000a680 <i_10290>:
    8000a680:	f6013a83          	ld	s5,-160(sp)

000000008000a684 <i_10291>:
    8000a684:	03ce01b3          	mul	gp,t3,t3

000000008000a688 <i_10292>:
    8000a688:	e2014203          	lbu	tp,-480(sp)

000000008000a68c <i_10293>:
    8000a68c:	e4416283          	lwu	t0,-444(sp)

000000008000a690 <i_10294>:
    8000a690:	0c710203          	lb	tp,199(sp)

000000008000a694 <i_10295>:
    8000a694:	00150513          	addi	a0,a0,1
    8000a698:	fca678e3          	bleu	a0,a2,8000a668 <i_10284>

000000008000a69c <i_10296>:
    8000a69c:	00518663          	beq	gp,t0,8000a6a8 <i_10299>

000000008000a6a0 <i_10297>:
    8000a6a0:	00013303          	ld	t1,0(sp)

000000008000a6a4 <i_10298>:
    8000a6a4:	07015583          	lhu	a1,112(sp)

000000008000a6a8 <i_10299>:
    8000a6a8:	024351bb          	divuw	gp,t1,tp

000000008000a6ac <i_10300>:
    8000a6ac:	4022dc13          	srai	s8,t0,0x2

000000008000a6b0 <i_10301>:
    8000a6b0:	77d00e93          	li	t4,1917

000000008000a6b4 <i_10302>:
    8000a6b4:	78700e13          	li	t3,1927

000000008000a6b8 <i_10303>:
    8000a6b8:	bca20213          	addi	tp,tp,-1078 # fffffffffffffbca <_end+0xffffffff7ffef7b6>

000000008000a6bc <i_10304>:
    8000a6bc:	0241fcb3          	remu	s9,gp,tp

000000008000a6c0 <i_10305>:
    8000a6c0:	0231e1b3          	rem	gp,gp,gp

000000008000a6c4 <i_10306>:
    8000a6c4:	002c959b          	slliw	a1,s9,0x2

000000008000a6c8 <i_10307>:
    8000a6c8:	001e8e93          	addi	t4,t4,1 # 11960631 <main-0x6e69f9cf>
    8000a6cc:	ffcec6e3          	blt	t4,t3,8000a6b8 <i_10303>

000000008000a6d0 <i_10308>:
    8000a6d0:	02424463          	blt	tp,tp,8000a6f8 <i_10318>

000000008000a6d4 <i_10309>:
    8000a6d4:	02bcecb3          	rem	s9,s9,a1

000000008000a6d8 <i_10310>:
    8000a6d8:	02b206bb          	mulw	a3,tp,a1

000000008000a6dc <i_10311>:
    8000a6dc:	00100c93          	li	s9,1

000000008000a6e0 <i_10312>:
    8000a6e0:	0196d63b          	srlw	a2,a3,s9

000000008000a6e4 <i_10313>:
    8000a6e4:	026e1cb3          	mulh	s9,t3,t1

000000008000a6e8 <i_10314>:
    8000a6e8:	019c8863          	beq	s9,s9,8000a6f8 <i_10318>

000000008000a6ec <i_10315>:
    8000a6ec:	03966063          	bltu	a2,s9,8000a70c <i_10323>

000000008000a6f0 <i_10316>:
    8000a6f0:	f7c14c83          	lbu	s9,-132(sp)

000000008000a6f4 <i_10317>:
    8000a6f4:	019cf463          	bleu	s9,s9,8000a6fc <i_10319>

000000008000a6f8 <i_10318>:
    8000a6f8:	00e99263          	bne	s3,a4,8000a6fc <i_10319>

000000008000a6fc <i_10319>:
    8000a6fc:	70343413          	sltiu	s0,s0,1795

000000008000a700 <i_10320>:
    8000a700:	0284043b          	mulw	s0,s0,s0

000000008000a704 <i_10321>:
    8000a704:	14813d83          	ld	s11,328(sp)

000000008000a708 <i_10322>:
    8000a708:	15e10d83          	lb	s11,350(sp)

000000008000a70c <i_10323>:
    8000a70c:	00000013          	nop

000000008000a710 <i_10324>:
    8000a710:	f5813d83          	ld	s11,-168(sp)

000000008000a714 <i_10325>:
    8000a714:	73f00413          	li	s0,1855

000000008000a718 <i_10326>:
    8000a718:	74e00a93          	li	s5,1870

000000008000a71c <i_10327>:
    8000a71c:	e7b12a23          	sw	s11,-396(sp)

000000008000a720 <i_10328>:
    8000a720:	00140413          	addi	s0,s0,1
    8000a724:	fe8afce3          	bleu	s0,s5,8000a71c <i_10327>

000000008000a728 <i_10329>:
    8000a728:	41bd8ab3          	sub	s5,s11,s11

000000008000a72c <i_10330>:
    8000a72c:	02bdd463          	ble	a1,s11,8000a754 <i_10340>

000000008000a730 <i_10331>:
    8000a730:	01bafe63          	bleu	s11,s5,8000a74c <i_10338>

000000008000a734 <i_10332>:
    8000a734:	01b4be33          	sltu	t3,s1,s11

000000008000a738 <i_10333>:
    8000a738:	01c53a33          	sltu	s4,a0,t3

000000008000a73c <i_10334>:
    8000a73c:	10b14e03          	lbu	t3,267(sp)

000000008000a740 <i_10335>:
    8000a740:	e2714203          	lbu	tp,-473(sp)

000000008000a744 <i_10336>:
    8000a744:	e3c11d23          	sh	t3,-454(sp)

000000008000a748 <i_10337>:
    8000a748:	0a813683          	ld	a3,168(sp)

000000008000a74c <i_10338>:
    8000a74c:	c06fcdb7          	lui	s11,0xc06fc

000000008000a750 <i_10339>:
    8000a750:	ee013683          	ld	a3,-288(sp)

000000008000a754 <i_10340>:
    8000a754:	00de7e33          	and	t3,t3,a3

000000008000a758 <i_10341>:
    8000a758:	09c12223          	sw	t3,132(sp)

000000008000a75c <i_10342>:
    8000a75c:	86a00613          	li	a2,-1942

000000008000a760 <i_10343>:
    8000a760:	87700493          	li	s1,-1929

000000008000a764 <i_10344>:
    8000a764:	014dfb13          	andi	s6,s11,20

000000008000a768 <i_10345>:
    8000a768:	00fb4663          	blt	s6,a5,8000a774 <i_10348>

000000008000a76c <i_10346>:
    8000a76c:	8cbc019b          	addiw	gp,s8,-1845

000000008000a770 <i_10347>:
    8000a770:	f1c13423          	sd	t3,-248(sp)

000000008000a774 <i_10348>:
    8000a774:	18815083          	lhu	ra,392(sp)

000000008000a778 <i_10349>:
    8000a778:	004bdc1b          	srliw	s8,s7,0x4

000000008000a77c <i_10350>:
    8000a77c:	03ce4263          	blt	t3,t3,8000a7a0 <i_10358>

000000008000a780 <i_10351>:
    8000a780:	0380ce3b          	divw	t3,ra,s8

000000008000a784 <i_10352>:
    8000a784:	1ac14083          	lbu	ra,428(sp)

000000008000a788 <i_10353>:
    8000a788:	00160613          	addi	a2,a2,1
    8000a78c:	fc961ce3          	bne	a2,s1,8000a764 <i_10344>

000000008000a790 <i_10354>:
    8000a790:	bac9d3b7          	lui	t2,0xbac9d

000000008000a794 <i_10355>:
    8000a794:	1a811e03          	lh	t3,424(sp)

000000008000a798 <i_10356>:
    8000a798:	f4013383          	ld	t2,-192(sp)

000000008000a79c <i_10357>:
    8000a79c:	19c14783          	lbu	a5,412(sp)

000000008000a7a0 <i_10358>:
    8000a7a0:	00000013          	nop

000000008000a7a4 <i_10359>:
    8000a7a4:	44ee73b7          	lui	t2,0x44ee7

000000008000a7a8 <i_10360>:
    8000a7a8:	77a00193          	li	gp,1914

000000008000a7ac <i_10361>:
    8000a7ac:	77e00c13          	li	s8,1918

000000008000a7b0 <i_10362>:
    8000a7b0:	0237adb3          	mulhsu	s11,a5,gp

000000008000a7b4 <i_10363>:
    8000a7b4:	11714783          	lbu	a5,279(sp)

000000008000a7b8 <i_10364>:
    8000a7b8:	0e510783          	lb	a5,229(sp)

000000008000a7bc <i_10365>:
    8000a7bc:	002d979b          	slliw	a5,s11,0x2

000000008000a7c0 <i_10366>:
    8000a7c0:	02f7fab3          	remu	s5,a5,a5

000000008000a7c4 <i_10367>:
    8000a7c4:	00118193          	addi	gp,gp,1
    8000a7c8:	ff81e4e3          	bltu	gp,s8,8000a7b0 <i_10362>

000000008000a7cc <i_10368>:
    8000a7cc:	02f7e7bb          	remw	a5,a5,a5

000000008000a7d0 <i_10369>:
    8000a7d0:	06f10623          	sb	a5,108(sp)

000000008000a7d4 <i_10370>:
    8000a7d4:	e6411783          	lh	a5,-412(sp)

000000008000a7d8 <i_10371>:
    8000a7d8:	03000793          	li	a5,48

000000008000a7dc <i_10372>:
    8000a7dc:	00f7d0b3          	srl	ra,a5,a5

000000008000a7e0 <i_10373>:
    8000a7e0:	e4110323          	sb	ra,-442(sp)

000000008000a7e4 <i_10374>:
    8000a7e4:	0257f0b3          	remu	ra,a5,t0

000000008000a7e8 <i_10375>:
    8000a7e8:	81100793          	li	a5,-2031

000000008000a7ec <i_10376>:
    8000a7ec:	81400293          	li	t0,-2028

000000008000a7f0 <i_10377>:
    8000a7f0:	fac08413          	addi	s0,ra,-84 # 909aa4bc <_end+0x1099a0a8>

000000008000a7f4 <i_10378>:
    8000a7f4:	0014599b          	srliw	s3,s0,0x1

000000008000a7f8 <i_10379>:
    8000a7f8:	02f7d463          	ble	a5,a5,8000a820 <i_10389>

000000008000a7fc <i_10380>:
    8000a7fc:	02529833          	mulh	a6,t0,t0

000000008000a800 <i_10381>:
    8000a800:	00547433          	and	s0,s0,t0

000000008000a804 <i_10382>:
    8000a804:	15e10e03          	lb	t3,350(sp)

000000008000a808 <i_10383>:
    8000a808:	19215403          	lhu	s0,402(sp)

000000008000a80c <i_10384>:
    8000a80c:	00b00c93          	li	s9,11

000000008000a810 <i_10385>:
    8000a810:	0194143b          	sllw	s0,s0,s9

000000008000a814 <i_10386>:
    8000a814:	1b412d83          	lw	s11,436(sp)

000000008000a818 <i_10387>:
    8000a818:	10015e03          	lhu	t3,256(sp)

000000008000a81c <i_10388>:
    8000a81c:	004e5d93          	srli	s11,t3,0x4

000000008000a820 <i_10389>:
    8000a820:	00cc9c63          	bne	s9,a2,8000a838 <i_10394>

000000008000a824 <i_10390>:
    8000a824:	02840db3          	mul	s11,s0,s0

000000008000a828 <i_10391>:
    8000a828:	00178793          	addi	a5,a5,1
    8000a82c:	fc5792e3          	bne	a5,t0,8000a7f0 <i_10377>

000000008000a830 <i_10392>:
    8000a830:	03800b93          	li	s7,56

000000008000a834 <i_10393>:
    8000a834:	017b5b33          	srl	s6,s6,s7

000000008000a838 <i_10394>:
    8000a838:	c30e4e13          	xori	t3,t3,-976

000000008000a83c <i_10395>:
    8000a83c:	035be1b3          	rem	gp,s7,s5

000000008000a840 <i_10396>:
    8000a840:	01c1e263          	bltu	gp,t3,8000a844 <i_10397>

000000008000a844 <i_10397>:
    8000a844:	f6312823          	sw	gp,-144(sp)

000000008000a848 <i_10398>:
    8000a848:	13816c03          	lwu	s8,312(sp)

000000008000a84c <i_10399>:
    8000a84c:	a84e4e13          	xori	t3,t3,-1404

000000008000a850 <i_10400>:
    8000a850:	e1c15203          	lhu	tp,-484(sp)

000000008000a854 <i_10401>:
    8000a854:	f6c12c03          	lw	s8,-148(sp)

000000008000a858 <i_10402>:
    8000a858:	51c22f13          	slti	t5,tp,1308

000000008000a85c <i_10403>:
    8000a85c:	0241beb3          	mulhu	t4,gp,tp

000000008000a860 <i_10404>:
    8000a860:	003e8a63          	beq	t4,gp,8000a874 <i_10409>

000000008000a864 <i_10405>:
    8000a864:	0032521b          	srliw	tp,tp,0x3

000000008000a868 <i_10406>:
    8000a868:	00d00e93          	li	t4,13

000000008000a86c <i_10407>:
    8000a86c:	01d2183b          	sllw	a6,tp,t4

000000008000a870 <i_10408>:
    8000a870:	01eeca63          	blt	t4,t5,8000a884 <i_10413>

000000008000a874 <i_10409>:
    8000a874:	1e012803          	lw	a6,480(sp)

000000008000a878 <i_10410>:
    8000a878:	016eee63          	bltu	t4,s6,8000a894 <i_10417>

000000008000a87c <i_10411>:
    8000a87c:	01086e63          	bltu	a6,a6,8000a898 <i_10418>

000000008000a880 <i_10412>:
    8000a880:	51987b13          	andi	s6,a6,1305

000000008000a884 <i_10413>:
    8000a884:	0b011a23          	sh	a6,180(sp)

000000008000a888 <i_10414>:
    8000a888:	016f8a63          	beq	t6,s6,8000a89c <i_10419>

000000008000a88c <i_10415>:
    8000a88c:	036acb33          	div	s6,s5,s6

000000008000a890 <i_10416>:
    8000a890:	006ef863          	bleu	t1,t4,8000a8a0 <i_10420>

000000008000a894 <i_10417>:
    8000a894:	01d81c63          	bne	a6,t4,8000a8ac <i_10423>

000000008000a898 <i_10418>:
    8000a898:	01f873b3          	and	t2,a6,t6

000000008000a89c <i_10419>:
    8000a89c:	007b0e63          	beq	s6,t2,8000a8b8 <i_10426>

000000008000a8a0 <i_10420>:
    8000a8a0:	012e9e63          	bne	t4,s2,8000a8bc <i_10427>

000000008000a8a4 <i_10421>:
    8000a8a4:	00000013          	nop

000000008000a8a8 <i_10422>:
    8000a8a8:	03db0b3b          	mulw	s6,s6,t4

000000008000a8ac <i_10423>:
    8000a8ac:	416e8b33          	sub	s6,t4,s6

000000008000a8b0 <i_10424>:
    8000a8b0:	ec211b03          	lh	s6,-318(sp)

000000008000a8b4 <i_10425>:
    8000a8b4:	001e5e1b          	srliw	t3,t3,0x1

000000008000a8b8 <i_10426>:
    8000a8b8:	f0d12c23          	sw	a3,-232(sp)

000000008000a8bc <i_10427>:
    8000a8bc:	003e0b33          	add	s6,t3,gp

000000008000a8c0 <i_10428>:
    8000a8c0:	03ab6d33          	rem	s10,s6,s10

000000008000a8c4 <i_10429>:
    8000a8c4:	8c700e93          	li	t4,-1849

000000008000a8c8 <i_10430>:
    8000a8c8:	8d600a13          	li	s4,-1834

000000008000a8cc <i_10431>:
    8000a8cc:	00000013          	nop

000000008000a8d0 <i_10432>:
    8000a8d0:	01700b13          	li	s6,23

000000008000a8d4 <i_10433>:
    8000a8d4:	4161dd33          	sra	s10,gp,s6

000000008000a8d8 <i_10434>:
    8000a8d8:	78e00e13          	li	t3,1934

000000008000a8dc <i_10435>:
    8000a8dc:	79600193          	li	gp,1942

000000008000a8e0 <i_10436>:
    8000a8e0:	001e0e13          	addi	t3,t3,1
    8000a8e4:	fe3e1ce3          	bne	t3,gp,8000a8dc <i_10435>

000000008000a8e8 <i_10437>:
    8000a8e8:	00000013          	nop

000000008000a8ec <i_10438>:
    8000a8ec:	001e8e93          	addi	t4,t4,1
    8000a8f0:	fd4ecee3          	blt	t4,s4,8000a8cc <i_10431>

000000008000a8f4 <i_10439>:
    8000a8f4:	e3c15f03          	lhu	t5,-452(sp)

000000008000a8f8 <i_10440>:
    8000a8f8:	00000013          	nop

000000008000a8fc <i_10441>:
    8000a8fc:	82200e13          	li	t3,-2014

000000008000a900 <i_10442>:
    8000a900:	83100193          	li	gp,-1999

000000008000a904 <i_10443>:
    8000a904:	f0215a83          	lhu	s5,-254(sp)

000000008000a908 <i_10444>:
    8000a908:	001e0e13          	addi	t3,t3,1
    8000a90c:	fe3e1ce3          	bne	t3,gp,8000a904 <i_10443>

000000008000a910 <i_10445>:
    8000a910:	01ad1663          	bne	s10,s10,8000a91c <i_10448>

000000008000a914 <i_10446>:
    8000a914:	19e11823          	sh	t5,400(sp)

000000008000a918 <i_10447>:
    8000a918:	e7011b03          	lh	s6,-400(sp)

000000008000a91c <i_10448>:
    8000a91c:	002adb1b          	srliw	s6,s5,0x2

000000008000a920 <i_10449>:
    8000a920:	015e0eb3          	add	t4,t3,s5

000000008000a924 <i_10450>:
    8000a924:	7b800693          	li	a3,1976

000000008000a928 <i_10451>:
    8000a928:	7bb00a93          	li	s5,1979

000000008000a92c <i_10452>:
    8000a92c:	402adf13          	srai	t5,s5,0x2

000000008000a930 <i_10453>:
    8000a930:	03510aa3          	sb	s5,53(sp)

000000008000a934 <i_10454>:
    8000a934:	e5e13423          	sd	t5,-440(sp)

000000008000a938 <i_10455>:
    8000a938:	01430e63          	beq	t1,s4,8000a954 <i_10461>

000000008000a93c <i_10456>:
    8000a93c:	19e14303          	lbu	t1,414(sp)

000000008000a940 <i_10457>:
    8000a940:	026f1333          	mulh	t1,t5,t1

000000008000a944 <i_10458>:
    8000a944:	00168693          	addi	a3,a3,1 # 2c52f845 <main-0x53ad07bb>
    8000a948:	fedad2e3          	ble	a3,s5,8000a92c <i_10452>

000000008000a94c <i_10459>:
    8000a94c:	07e12823          	sw	t5,112(sp)

000000008000a950 <i_10460>:
    8000a950:	41e3033b          	subw	t1,t1,t5

000000008000a954 <i_10461>:
    8000a954:	006c5e63          	ble	t1,s8,8000a970 <i_10468>

000000008000a958 <i_10462>:
    8000a958:	0d614503          	lbu	a0,214(sp)

000000008000a95c <i_10463>:
    8000a95c:	00431313          	slli	t1,t1,0x4

000000008000a960 <i_10464>:
    8000a960:	edd14503          	lbu	a0,-291(sp)

000000008000a964 <i_10465>:
    8000a964:	10c12d03          	lw	s10,268(sp)

000000008000a968 <i_10466>:
    8000a968:	5bd36193          	ori	gp,t1,1469

000000008000a96c <i_10467>:
    8000a96c:	fe910c83          	lb	s9,-23(sp)

000000008000a970 <i_10468>:
    8000a970:	01380333          	add	t1,a6,s3

000000008000a974 <i_10469>:
    8000a974:	01012623          	sw	a6,12(sp)

000000008000a978 <i_10470>:
    8000a978:	ea211d83          	lh	s11,-350(sp)

000000008000a97c <i_10471>:
    8000a97c:	0ef14303          	lbu	t1,239(sp)

000000008000a980 <i_10472>:
    8000a980:	0211c063          	blt	gp,ra,8000a9a0 <i_10480>

000000008000a984 <i_10473>:
    8000a984:	e8613023          	sd	t1,-384(sp)

000000008000a988 <i_10474>:
    8000a988:	0391e3bb          	remw	t2,gp,s9

000000008000a98c <i_10475>:
    8000a98c:	00000013          	nop

000000008000a990 <i_10476>:
    8000a990:	16813e03          	ld	t3,360(sp)

000000008000a994 <i_10477>:
    8000a994:	03a14e03          	lbu	t3,58(sp)

000000008000a998 <i_10478>:
    8000a998:	08d13023          	sd	a3,128(sp)

000000008000a99c <i_10479>:
    8000a99c:	00000013          	nop

000000008000a9a0 <i_10480>:
    8000a9a0:	f8816583          	lwu	a1,-120(sp)

000000008000a9a4 <i_10481>:
    8000a9a4:	f6b11023          	sh	a1,-160(sp)

000000008000a9a8 <i_10482>:
    8000a9a8:	88500193          	li	gp,-1915

000000008000a9ac <i_10483>:
    8000a9ac:	89600d93          	li	s11,-1898

000000008000a9b0 <i_10484>:
    8000a9b0:	40bb83b3          	sub	t2,s7,a1

000000008000a9b4 <i_10485>:
    8000a9b4:	02b3c5bb          	divw	a1,t2,a1

000000008000a9b8 <i_10486>:
    8000a9b8:	75e00693          	li	a3,1886

000000008000a9bc <i_10487>:
    8000a9bc:	76a00813          	li	a6,1898

000000008000a9c0 <i_10488>:
    8000a9c0:	0c416b03          	lwu	s6,196(sp)

000000008000a9c4 <i_10489>:
    8000a9c4:	02b5dab3          	divu	s5,a1,a1

000000008000a9c8 <i_10490>:
    8000a9c8:	00168693          	addi	a3,a3,1
    8000a9cc:	ff069ae3          	bne	a3,a6,8000a9c0 <i_10488>

000000008000a9d0 <i_10491>:
    8000a9d0:	eab11c23          	sh	a1,-328(sp)

000000008000a9d4 <i_10492>:
    8000a9d4:	e3214403          	lbu	s0,-462(sp)

000000008000a9d8 <i_10493>:
    8000a9d8:	00118193          	addi	gp,gp,1
    8000a9dc:	fc3ddae3          	ble	gp,s11,8000a9b0 <i_10484>

000000008000a9e0 <i_10494>:
    8000a9e0:	f4c16583          	lwu	a1,-180(sp)

000000008000a9e4 <i_10495>:
    8000a9e4:	13813583          	ld	a1,312(sp)

000000008000a9e8 <i_10496>:
    8000a9e8:	028ad463          	ble	s0,s5,8000aa10 <i_10506>

000000008000a9ec <i_10497>:
    8000a9ec:	028ad6bb          	divuw	a3,s5,s0

000000008000a9f0 <i_10498>:
    8000a9f0:	035596b3          	mulh	a3,a1,s5

000000008000a9f4 <i_10499>:
    8000a9f4:	00d43433          	sltu	s0,s0,a3

000000008000a9f8 <i_10500>:
    8000a9f8:	01900693          	li	a3,25

000000008000a9fc <i_10501>:
    8000a9fc:	00da9833          	sll	a6,s5,a3

000000008000aa00 <i_10502>:
    8000aa00:	09416403          	lwu	s0,148(sp)

000000008000aa04 <i_10503>:
    8000aa04:	16816683          	lwu	a3,360(sp)

000000008000aa08 <i_10504>:
    8000aa08:	01568463          	beq	a3,s5,8000aa10 <i_10506>

000000008000aa0c <i_10505>:
    8000aa0c:	00879a63          	bne	a5,s0,8000aa20 <i_10510>

000000008000aa10 <i_10506>:
    8000aa10:	03081263          	bne	a6,a6,8000aa34 <i_10515>

000000008000aa14 <i_10507>:
    8000aa14:	77c4029b          	addiw	t0,s0,1916

000000008000aa18 <i_10508>:
    8000aa18:	ed013a83          	ld	s5,-304(sp)

000000008000aa1c <i_10509>:
    8000aa1c:	01084a33          	xor	s4,a6,a6

000000008000aa20 <i_10510>:
    8000aa20:	eb413023          	sd	s4,-352(sp)

000000008000aa24 <i_10511>:
    8000aa24:	03d802bb          	mulw	t0,a6,t4

000000008000aa28 <i_10512>:
    8000aa28:	0108f863          	bleu	a6,a7,8000aa38 <i_10516>

000000008000aa2c <i_10513>:
    8000aa2c:	f1c10803          	lb	a6,-228(sp)

000000008000aa30 <i_10514>:
    8000aa30:	03000313          	li	t1,48

000000008000aa34 <i_10515>:
    8000aa34:	4062d833          	sra	a6,t0,t1

000000008000aa38 <i_10516>:
    8000aa38:	0a910123          	sb	s1,162(sp)

000000008000aa3c <i_10517>:
    8000aa3c:	10b2e293          	ori	t0,t0,267

000000008000aa40 <i_10518>:
    8000aa40:	1d815803          	lhu	a6,472(sp)

000000008000aa44 <i_10519>:
    8000aa44:	00549863          	bne	s1,t0,8000aa54 <i_10523>

000000008000aa48 <i_10520>:
    8000aa48:	61c2c813          	xori	a6,t0,1564

000000008000aa4c <i_10521>:
    8000aa4c:	026819b3          	mulh	s3,a6,t1

000000008000aa50 <i_10522>:
    8000aa50:	f4013283          	ld	t0,-192(sp)

000000008000aa54 <i_10523>:
    8000aa54:	03814303          	lbu	t1,56(sp)

000000008000aa58 <i_10524>:
    8000aa58:	fa814303          	lbu	t1,-88(sp)

000000008000aa5c <i_10525>:
    8000aa5c:	41b30e3b          	subw	t3,t1,s11

000000008000aa60 <i_10526>:
    8000aa60:	006e6a63          	bltu	t3,t1,8000aa74 <i_10531>

000000008000aa64 <i_10527>:
    8000aa64:	ff412303          	lw	t1,-12(sp)

000000008000aa68 <i_10528>:
    8000aa68:	03c31263          	bne	t1,t3,8000aa8c <i_10537>

000000008000aa6c <i_10529>:
    8000aa6c:	01100f13          	li	t5,17

000000008000aa70 <i_10530>:
    8000aa70:	01e4de3b          	srlw	t3,s1,t5

000000008000aa74 <i_10531>:
    8000aa74:	01ce7663          	bleu	t3,t3,8000aa80 <i_10534>

000000008000aa78 <i_10532>:
    8000aa78:	e9611783          	lh	a5,-362(sp)

000000008000aa7c <i_10533>:
    8000aa7c:	08c14e03          	lbu	t3,140(sp)

000000008000aa80 <i_10534>:
    8000aa80:	f0813783          	ld	a5,-248(sp)

000000008000aa84 <i_10535>:
    8000aa84:	e9c12423          	sw	t3,-376(sp)

000000008000aa88 <i_10536>:
    8000aa88:	00500e13          	li	t3,5

000000008000aa8c <i_10537>:
    8000aa8c:	41ce5ebb          	sraw	t4,t3,t3

000000008000aa90 <i_10538>:
    8000aa90:	03247d3b          	remuw	s10,s0,s2

000000008000aa94 <i_10539>:
    8000aa94:	79100293          	li	t0,1937

000000008000aa98 <i_10540>:
    8000aa98:	7a300d93          	li	s11,1955

000000008000aa9c <i_10541>:
    8000aa9c:	fcc12503          	lw	a0,-52(sp)

000000008000aaa0 <i_10542>:
    8000aaa0:	00000013          	nop

000000008000aaa4 <i_10543>:
    8000aaa4:	f9d10e03          	lb	t3,-99(sp)

000000008000aaa8 <i_10544>:
    8000aaa8:	ffa10d23          	sb	s10,-6(sp)

000000008000aaac <i_10545>:
    8000aaac:	e5215083          	lhu	ra,-430(sp)

000000008000aab0 <i_10546>:
    8000aab0:	00128293          	addi	t0,t0,1
    8000aab4:	ffb294e3          	bne	t0,s11,8000aa9c <i_10541>

000000008000aab8 <i_10547>:
    8000aab8:	021fe0b3          	rem	ra,t6,ra

000000008000aabc <i_10548>:
    8000aabc:	00209d13          	slli	s10,ra,0x2

000000008000aac0 <i_10549>:
    8000aac0:	e8413023          	sd	tp,-384(sp)

000000008000aac4 <i_10550>:
    8000aac4:	001080b3          	add	ra,ra,ra

000000008000aac8 <i_10551>:
    8000aac8:	03a12e23          	sw	s10,60(sp)

000000008000aacc <i_10552>:
    8000aacc:	ef3105a3          	sb	s3,-277(sp)

000000008000aad0 <i_10553>:
    8000aad0:	418080b3          	sub	ra,ra,s8

000000008000aad4 <i_10554>:
    8000aad4:	02d0eebb          	remw	t4,ra,a3

000000008000aad8 <i_10555>:
    8000aad8:	7ea00d13          	li	s10,2026

000000008000aadc <i_10556>:
    8000aadc:	7f300c13          	li	s8,2035

000000008000aae0 <i_10557>:
    8000aae0:	021c7463          	bleu	ra,s8,8000ab08 <i_10566>

000000008000aae4 <i_10558>:
    8000aae4:	001d0d13          	addi	s10,s10,1
    8000aae8:	ff8d1ce3          	bne	s10,s8,8000aae0 <i_10557>

000000008000aaec <i_10559>:
    8000aaec:	f1813083          	ld	ra,-232(sp)

000000008000aaf0 <i_10560>:
    8000aaf0:	00000013          	nop

000000008000aaf4 <i_10561>:
    8000aaf4:	03dedabb          	divuw	s5,t4,t4

000000008000aaf8 <i_10562>:
    8000aaf8:	1f813023          	sd	s8,480(sp)

000000008000aafc <i_10563>:
    8000aafc:	0a210c03          	lb	s8,162(sp)

000000008000ab00 <i_10564>:
    8000ab00:	401adc13          	srai	s8,s5,0x1

000000008000ab04 <i_10565>:
    8000ab04:	0dd12a23          	sw	t4,212(sp)

000000008000ab08 <i_10566>:
    8000ab08:	00000013          	nop

000000008000ab0c <i_10567>:
    8000ab0c:	e9810823          	sb	s8,-368(sp)

000000008000ab10 <i_10568>:
    8000ab10:	7e700d93          	li	s11,2023

000000008000ab14 <i_10569>:
    8000ab14:	7fa00e93          	li	t4,2042

000000008000ab18 <i_10570>:
    8000ab18:	00010203          	lb	tp,0(sp)

000000008000ab1c <i_10571>:
    8000ab1c:	1db10823          	sb	s11,464(sp)

000000008000ab20 <i_10572>:
    8000ab20:	00325093          	srli	ra,tp,0x3

000000008000ab24 <i_10573>:
    8000ab24:	018aac33          	slt	s8,s5,s8

000000008000ab28 <i_10574>:
    8000ab28:	038174b3          	remu	s1,sp,s8

000000008000ab2c <i_10575>:
    8000ab2c:	038c7663          	bleu	s8,s8,8000ab58 <i_10585>

000000008000ab30 <i_10576>:
    8000ab30:	0c412c03          	lw	s8,196(sp)

000000008000ab34 <i_10577>:
    8000ab34:	00500c13          	li	s8,5

000000008000ab38 <i_10578>:
    8000ab38:	418c5c3b          	sraw	s8,s8,s8

000000008000ab3c <i_10579>:
    8000ab3c:	029c61b3          	rem	gp,s8,s1

000000008000ab40 <i_10580>:
    8000ab40:	001d8d93          	addi	s11,s11,1 # ffffffffc06fc001 <_end+0xffffffff406ebbed>
    8000ab44:	fdbedae3          	ble	s11,t4,8000ab18 <i_10570>

000000008000ab48 <i_10581>:
    8000ab48:	ed013c03          	ld	s8,-304(sp)

000000008000ab4c <i_10582>:
    8000ab4c:	007c4663          	blt	s8,t2,8000ab58 <i_10585>

000000008000ab50 <i_10583>:
    8000ab50:	002c5293          	srli	t0,s8,0x2

000000008000ab54 <i_10584>:
    8000ab54:	029c5063          	ble	s1,s8,8000ab74 <i_10592>

000000008000ab58 <i_10585>:
    8000ab58:	00349a63          	bne	s1,gp,8000ab6c <i_10590>

000000008000ab5c <i_10586>:
    8000ab5c:	02311923          	sh	gp,50(sp)

000000008000ab60 <i_10587>:
    8000ab60:	009c0263          	beq	s8,s1,8000ab64 <i_10588>

000000008000ab64 <i_10588>:
    8000ab64:	0051b4b3          	sltu	s1,gp,t0

000000008000ab68 <i_10589>:
    8000ab68:	4043d39b          	sraiw	t2,t2,0x4

000000008000ab6c <i_10590>:
    8000ab6c:	0a913423          	sd	s1,168(sp)

000000008000ab70 <i_10591>:
    8000ab70:	f2710223          	sb	t2,-220(sp)

000000008000ab74 <i_10592>:
    8000ab74:	00000013          	nop

000000008000ab78 <i_10593>:
    8000ab78:	e6a11523          	sh	a0,-406(sp)

000000008000ab7c <i_10594>:
    8000ab7c:	79400b13          	li	s6,1940

000000008000ab80 <i_10595>:
    8000ab80:	7a800293          	li	t0,1960

000000008000ab84 <i_10596>:
    8000ab84:	01318863          	beq	gp,s3,8000ab94 <i_10600>

000000008000ab88 <i_10597>:
    8000ab88:	e7013603          	ld	a2,-400(sp)

000000008000ab8c <i_10598>:
    8000ab8c:	00e50533          	add	a0,a0,a4

000000008000ab90 <i_10599>:
    8000ab90:	001b5e1b          	srliw	t3,s6,0x1

000000008000ab94 <i_10600>:
    8000ab94:	0cc103a3          	sb	a2,199(sp)

000000008000ab98 <i_10601>:
    8000ab98:	fafe2e13          	slti	t3,t3,-81

000000008000ab9c <i_10602>:
    8000ab9c:	0bc13823          	sd	t3,176(sp)

000000008000aba0 <i_10603>:
    8000aba0:	001b0b13          	addi	s6,s6,1
    8000aba4:	fe5b40e3          	blt	s6,t0,8000ab84 <i_10596>

000000008000aba8 <i_10604>:
    8000aba8:	01fd0463          	beq	s10,t6,8000abb0 <i_10606>

000000008000abac <i_10605>:
    8000abac:	00419d13          	slli	s10,gp,0x4

000000008000abb0 <i_10606>:
    8000abb0:	ffa11523          	sh	s10,-22(sp)

000000008000abb4 <i_10607>:
    8000abb4:	01a11823          	sh	s10,16(sp)

000000008000abb8 <i_10608>:
    8000abb8:	031e7063          	bleu	a7,t3,8000abd8 <i_10616>

000000008000abbc <i_10609>:
    8000abbc:	f4013583          	ld	a1,-192(sp)

000000008000abc0 <i_10610>:
    8000abc0:	fb511423          	sh	s5,-88(sp)

000000008000abc4 <i_10611>:
    8000abc4:	02000313          	li	t1,32

000000008000abc8 <i_10612>:
    8000abc8:	006d1c33          	sll	s8,s10,t1

000000008000abcc <i_10613>:
    8000abcc:	e5810aa3          	sb	s8,-427(sp)

000000008000abd0 <i_10614>:
    8000abd0:	00000013          	nop

000000008000abd4 <i_10615>:
    8000abd4:	00000013          	nop

000000008000abd8 <i_10616>:
    8000abd8:	03de4cbb          	divw	s9,t3,t4

000000008000abdc <i_10617>:
    8000abdc:	00000013          	nop

000000008000abe0 <i_10618>:
    8000abe0:	75400e13          	li	t3,1876

000000008000abe4 <i_10619>:
    8000abe4:	76400e93          	li	t4,1892

000000008000abe8 <i_10620>:
    8000abe8:	00b5cb33          	xor	s6,a1,a1

000000008000abec <i_10621>:
    8000abec:	1cb11323          	sh	a1,454(sp)

000000008000abf0 <i_10622>:
    8000abf0:	006c7263          	bleu	t1,s8,8000abf4 <i_10623>

000000008000abf4 <i_10623>:
    8000abf4:	ec014a83          	lbu	s5,-320(sp)

000000008000abf8 <i_10624>:
    8000abf8:	02630ab3          	mul	s5,t1,t1

000000008000abfc <i_10625>:
    8000abfc:	ea813583          	ld	a1,-344(sp)

000000008000ac00 <i_10626>:
    8000ac00:	03cf0333          	mul	t1,t5,t3

000000008000ac04 <i_10627>:
    8000ac04:	01d33f33          	sltu	t5,t1,t4

000000008000ac08 <i_10628>:
    8000ac08:	1d813823          	sd	s8,464(sp)

000000008000ac0c <i_10629>:
    8000ac0c:	001e0e13          	addi	t3,t3,1
    8000ac10:	fdde4ce3          	blt	t3,t4,8000abe8 <i_10620>

000000008000ac14 <i_10630>:
    8000ac14:	03cb4263          	blt	s6,t3,8000ac38 <i_10639>

000000008000ac18 <i_10631>:
    8000ac18:	00600c93          	li	s9,6

000000008000ac1c <i_10632>:
    8000ac1c:	0195dab3          	srl	s5,a1,s9

000000008000ac20 <i_10633>:
    8000ac20:	402e81bb          	subw	gp,t4,sp

000000008000ac24 <i_10634>:
    8000ac24:	01de7e63          	bleu	t4,t3,8000ac40 <i_10641>

000000008000ac28 <i_10635>:
    8000ac28:	f2c11c03          	lh	s8,-212(sp)

000000008000ac2c <i_10636>:
    8000ac2c:	0cb13023          	sd	a1,192(sp)

000000008000ac30 <i_10637>:
    8000ac30:	030c633b          	remw	t1,s8,a6

000000008000ac34 <i_10638>:
    8000ac34:	023f4d33          	div	s10,t5,gp

000000008000ac38 <i_10639>:
    8000ac38:	10812e03          	lw	t3,264(sp)

000000008000ac3c <i_10640>:
    8000ac3c:	0b611e03          	lh	t3,182(sp)

000000008000ac40 <i_10641>:
    8000ac40:	d2d49f17          	auipc	t5,0xd2d49

000000008000ac44 <i_10642>:
    8000ac44:	f6914783          	lbu	a5,-151(sp)

000000008000ac48 <i_10643>:
    8000ac48:	e3e12023          	sw	t5,-480(sp)

000000008000ac4c <i_10644>:
    8000ac4c:	08a15a03          	lhu	s4,138(sp)

000000008000ac50 <i_10645>:
    8000ac50:	f9416d03          	lwu	s10,-108(sp)

000000008000ac54 <i_10646>:
    8000ac54:	11811583          	lh	a1,280(sp)

000000008000ac58 <i_10647>:
    8000ac58:	e6013a03          	ld	s4,-416(sp)

000000008000ac5c <i_10648>:
    8000ac5c:	17b11023          	sh	s11,352(sp)

000000008000ac60 <i_10649>:
    8000ac60:	034f0a33          	mul	s4,t5,s4

000000008000ac64 <i_10650>:
    8000ac64:	02ad29b3          	mulhsu	s3,s10,a0

000000008000ac68 <i_10651>:
    8000ac68:	01da7c63          	bleu	t4,s4,8000ac80 <i_10657>

000000008000ac6c <i_10652>:
    8000ac6c:	0335d463          	ble	s3,a1,8000ac94 <i_10662>

000000008000ac70 <i_10653>:
    8000ac70:	f0813403          	ld	s0,-248(sp)

000000008000ac74 <i_10654>:
    8000ac74:	406b833b          	subw	t1,s7,t1

000000008000ac78 <i_10655>:
    8000ac78:	03813803          	ld	a6,56(sp)

000000008000ac7c <i_10656>:
    8000ac7c:	e7f10183          	lb	gp,-385(sp)

000000008000ac80 <i_10657>:
    8000ac80:	e1010da3          	sb	a6,-485(sp)

000000008000ac84 <i_10658>:
    8000ac84:	e2210b83          	lb	s7,-478(sp)

000000008000ac88 <i_10659>:
    8000ac88:	05711e23          	sh	s7,92(sp)

000000008000ac8c <i_10660>:
    8000ac8c:	01500493          	li	s1,21

000000008000ac90 <i_10661>:
    8000ac90:	009414bb          	sllw	s1,s0,s1

000000008000ac94 <i_10662>:
    8000ac94:	0263463b          	divw	a2,t1,t1

000000008000ac98 <i_10663>:
    8000ac98:	fd910983          	lb	s3,-39(sp)

000000008000ac9c <i_10664>:
    8000ac9c:	8a300693          	li	a3,-1885

000000008000aca0 <i_10665>:
    8000aca0:	8ac00313          	li	t1,-1876

000000008000aca4 <i_10666>:
    8000aca4:	013d7263          	bleu	s3,s10,8000aca8 <i_10667>

000000008000aca8 <i_10667>:
    8000aca8:	01310223          	sb	s3,4(sp)

000000008000acac <i_10668>:
    8000acac:	96090837          	lui	a6,0x96090

000000008000acb0 <i_10669>:
    8000acb0:	f6813183          	ld	gp,-152(sp)

000000008000acb4 <i_10670>:
    8000acb4:	05c12d83          	lw	s11,92(sp)

000000008000acb8 <i_10671>:
    8000acb8:	0138e463          	bltu	a7,s3,8000acc0 <i_10673>

000000008000acbc <i_10672>:
    8000acbc:	02cdb633          	mulhu	a2,s11,a2

000000008000acc0 <i_10673>:
    8000acc0:	e5412603          	lw	a2,-428(sp)

000000008000acc4 <i_10674>:
    8000acc4:	05411603          	lh	a2,84(sp)

000000008000acc8 <i_10675>:
    8000acc8:	ead10603          	lb	a2,-339(sp)

000000008000accc <i_10676>:
    8000accc:	00168693          	addi	a3,a3,1
    8000acd0:	fcd37ae3          	bleu	a3,t1,8000aca4 <i_10666>

000000008000acd4 <i_10677>:
    8000acd4:	0cc11803          	lh	a6,204(sp)

000000008000acd8 <i_10678>:
    8000acd8:	02c66a3b          	remw	s4,a2,a2

000000008000acdc <i_10679>:
    8000acdc:	91e64b93          	xori	s7,a2,-1762

000000008000ace0 <i_10680>:
    8000ace0:	00c67a63          	bleu	a2,a2,8000acf4 <i_10685>

000000008000ace4 <i_10681>:
    8000ace4:	0308623b          	remw	tp,a6,a6

000000008000ace8 <i_10682>:
    8000ace8:	e3011e23          	sh	a6,-452(sp)

000000008000acec <i_10683>:
    8000acec:	e5013c23          	sd	a6,-424(sp)

000000008000acf0 <i_10684>:
    8000acf0:	01080833          	add	a6,a6,a6

000000008000acf4 <i_10685>:
    8000acf4:	03455b3b          	divuw	s6,a0,s4

000000008000acf8 <i_10686>:
    8000acf8:	08211a03          	lh	s4,130(sp)

000000008000acfc <i_10687>:
    8000acfc:	ef810803          	lb	a6,-264(sp)

000000008000ad00 <i_10688>:
    8000ad00:	03056063          	bltu	a0,a6,8000ad20 <i_10696>

000000008000ad04 <i_10689>:
    8000ad04:	1d416083          	lwu	ra,468(sp)

000000008000ad08 <i_10690>:
    8000ad08:	c4333393          	sltiu	t2,t1,-957

000000008000ad0c <i_10691>:
    8000ad0c:	0af10d03          	lb	s10,175(sp)

000000008000ad10 <i_10692>:
    8000ad10:	00000013          	nop

000000008000ad14 <i_10693>:
    8000ad14:	ea812383          	lw	t2,-344(sp)

000000008000ad18 <i_10694>:
    8000ad18:	0c014503          	lbu	a0,192(sp)

000000008000ad1c <i_10695>:
    8000ad1c:	fae15d83          	lhu	s11,-82(sp)

000000008000ad20 <i_10696>:
    8000ad20:	01100e93          	li	t4,17

000000008000ad24 <i_10697>:
    8000ad24:	41da5a33          	sra	s4,s4,t4

000000008000ad28 <i_10698>:
    8000ad28:	74f00813          	li	a6,1871

000000008000ad2c <i_10699>:
    8000ad2c:	75e00193          	li	gp,1886

000000008000ad30 <i_10700>:
    8000ad30:	03800693          	li	a3,56

000000008000ad34 <i_10701>:
    8000ad34:	40dddcb3          	sra	s9,s11,a3

000000008000ad38 <i_10702>:
    8000ad38:	fee15503          	lhu	a0,-18(sp)

000000008000ad3c <i_10703>:
    8000ad3c:	e0e23213          	sltiu	tp,tp,-498

000000008000ad40 <i_10704>:
    8000ad40:	0fc10683          	lb	a3,252(sp)

000000008000ad44 <i_10705>:
    8000ad44:	00180813          	addi	a6,a6,1 # ffffffff96090001 <_end+0xffffffff1607fbed>
    8000ad48:	ff01d4e3          	ble	a6,gp,8000ad30 <i_10700>

000000008000ad4c <i_10706>:
    8000ad4c:	10811123          	sh	s0,258(sp)

000000008000ad50 <i_10707>:
    8000ad50:	0046d463          	ble	tp,a3,8000ad58 <i_10709>

000000008000ad54 <i_10708>:
    8000ad54:	00c23233          	sltu	tp,tp,a2

000000008000ad58 <i_10709>:
    8000ad58:	08612623          	sw	t1,140(sp)

000000008000ad5c <i_10710>:
    8000ad5c:	00824e63          	blt	tp,s0,8000ad78 <i_10717>

000000008000ad60 <i_10711>:
    8000ad60:	499c3413          	sltiu	s0,s8,1177

000000008000ad64 <i_10712>:
    8000ad64:	06c11383          	lh	t2,108(sp)

000000008000ad68 <i_10713>:
    8000ad68:	0233ddb3          	divu	s11,t2,gp

000000008000ad6c <i_10714>:
    8000ad6c:	f6b10b03          	lb	s6,-149(sp)

000000008000ad70 <i_10715>:
    8000ad70:	0db12223          	sw	s11,196(sp)

000000008000ad74 <i_10716>:
    8000ad74:	00000013          	nop

000000008000ad78 <i_10717>:
    8000ad78:	00000013          	nop

000000008000ad7c <i_10718>:
    8000ad7c:	05412083          	lw	ra,84(sp)

000000008000ad80 <i_10719>:
    8000ad80:	76c00193          	li	gp,1900

000000008000ad84 <i_10720>:
    8000ad84:	78000c13          	li	s8,1920

000000008000ad88 <i_10721>:
    8000ad88:	00000013          	nop

000000008000ad8c <i_10722>:
    8000ad8c:	01700413          	li	s0,23

000000008000ad90 <i_10723>:
    8000ad90:	0081d533          	srl	a0,gp,s0

000000008000ad94 <i_10724>:
    8000ad94:	00000013          	nop

000000008000ad98 <i_10725>:
    8000ad98:	fc712a23          	sw	t2,-44(sp)

000000008000ad9c <i_10726>:
    8000ad9c:	12713c23          	sd	t2,312(sp)

000000008000ada0 <i_10727>:
    8000ada0:	f7510a23          	sb	s5,-140(sp)

000000008000ada4 <i_10728>:
    8000ada4:	02a500b3          	mul	ra,a0,a0

000000008000ada8 <i_10729>:
    8000ada8:	02a20063          	beq	tp,a0,8000adc8 <i_10736>

000000008000adac <i_10730>:
    8000adac:	02a0f063          	bleu	a0,ra,8000adcc <i_10737>

000000008000adb0 <i_10731>:
    8000adb0:	00118193          	addi	gp,gp,1
    8000adb4:	fc3c5ae3          	ble	gp,s8,8000ad88 <i_10721>

000000008000adb8 <i_10732>:
    8000adb8:	08811083          	lh	ra,136(sp)

000000008000adbc <i_10733>:
    8000adbc:	18811e23          	sh	s0,412(sp)

000000008000adc0 <i_10734>:
    8000adc0:	04c0b293          	sltiu	t0,ra,76

000000008000adc4 <i_10735>:
    8000adc4:	ff110223          	sb	a7,-28(sp)

000000008000adc8 <i_10736>:
    8000adc8:	01000413          	li	s0,16

000000008000adcc <i_10737>:
    8000adcc:	408d5433          	sra	s0,s10,s0

000000008000add0 <i_10738>:
    8000add0:	00000013          	nop

000000008000add4 <i_10739>:
    8000add4:	7c800293          	li	t0,1992

000000008000add8 <i_10740>:
    8000add8:	7d400313          	li	t1,2004

000000008000addc <i_10741>:
    8000addc:	18610523          	sb	t1,394(sp)

000000008000ade0 <i_10742>:
    8000ade0:	029420b3          	mulhsu	ra,s0,s1

000000008000ade4 <i_10743>:
    8000ade4:	02610683          	lb	a3,38(sp)

000000008000ade8 <i_10744>:
    8000ade8:	e8d12623          	sw	a3,-372(sp)

000000008000adec <i_10745>:
    8000adec:	5116fe93          	andi	t4,a3,1297

000000008000adf0 <i_10746>:
    8000adf0:	5a608b93          	addi	s7,ra,1446

000000008000adf4 <i_10747>:
    8000adf4:	492ba093          	slti	ra,s7,1170

000000008000adf8 <i_10748>:
    8000adf8:	03509463          	bne	ra,s5,8000ae20 <i_10757>

000000008000adfc <i_10749>:
    8000adfc:	0e114083          	lbu	ra,225(sp)

000000008000ae00 <i_10750>:
    8000ae00:	00128293          	addi	t0,t0,1
    8000ae04:	fc62cce3          	blt	t0,t1,8000addc <i_10741>

000000008000ae08 <i_10751>:
    8000ae08:	18113c23          	sd	ra,408(sp)

000000008000ae0c <i_10752>:
    8000ae0c:	001bde63          	ble	ra,s7,8000ae28 <i_10759>

000000008000ae10 <i_10753>:
    8000ae10:	0210e0b3          	rem	ra,ra,ra

000000008000ae14 <i_10754>:
    8000ae14:	f2610083          	lb	ra,-218(sp)

000000008000ae18 <i_10755>:
    8000ae18:	0210c463          	blt	ra,ra,8000ae40 <i_10765>

000000008000ae1c <i_10756>:
    8000ae1c:	0210c0bb          	divw	ra,ra,ra

000000008000ae20 <i_10757>:
    8000ae20:	19811e83          	lh	t4,408(sp)

000000008000ae24 <i_10758>:
    8000ae24:	fe110a83          	lb	s5,-31(sp)

000000008000ae28 <i_10759>:
    8000ae28:	08013583          	ld	a1,128(sp)

000000008000ae2c <i_10760>:
    8000ae2c:	e4416e83          	lwu	t4,-444(sp)

000000008000ae30 <i_10761>:
    8000ae30:	05816603          	lwu	a2,88(sp)

000000008000ae34 <i_10762>:
    8000ae34:	0b012583          	lw	a1,176(sp)

000000008000ae38 <i_10763>:
    8000ae38:	00419e93          	slli	t4,gp,0x4

000000008000ae3c <i_10764>:
    8000ae3c:	f6b12c23          	sw	a1,-136(sp)

000000008000ae40 <i_10765>:
    8000ae40:	00000013          	nop

000000008000ae44 <i_10766>:
    8000ae44:	fdd11a23          	sh	t4,-44(sp)

000000008000ae48 <i_10767>:
    8000ae48:	86200093          	li	ra,-1950

000000008000ae4c <i_10768>:
    8000ae4c:	86600c13          	li	s8,-1946

000000008000ae50 <i_10769>:
    8000ae50:	50c1deb7          	lui	t4,0x50c1d

000000008000ae54 <i_10770>:
    8000ae54:	f7d10c23          	sb	t4,-136(sp)

000000008000ae58 <i_10771>:
    8000ae58:	f0813e83          	ld	t4,-248(sp)

000000008000ae5c <i_10772>:
    8000ae5c:	03d55533          	divu	a0,a0,t4

000000008000ae60 <i_10773>:
    8000ae60:	efd10fa3          	sb	t4,-257(sp)

000000008000ae64 <i_10774>:
    8000ae64:	00108093          	addi	ra,ra,1
    8000ae68:	ff80c4e3          	blt	ra,s8,8000ae50 <i_10769>

000000008000ae6c <i_10775>:
    8000ae6c:	01300c13          	li	s8,19

000000008000ae70 <i_10776>:
    8000ae70:	018ed333          	srl	t1,t4,s8

000000008000ae74 <i_10777>:
    8000ae74:	01debeb3          	sltu	t4,t4,t4

000000008000ae78 <i_10778>:
    8000ae78:	00700493          	li	s1,7

000000008000ae7c <i_10779>:
    8000ae7c:	009316bb          	sllw	a3,t1,s1

000000008000ae80 <i_10780>:
    8000ae80:	f7012483          	lw	s1,-144(sp)

000000008000ae84 <i_10781>:
    8000ae84:	19110403          	lb	s0,401(sp)

000000008000ae88 <i_10782>:
    8000ae88:	0044cdb3          	xor	s11,s1,tp

000000008000ae8c <i_10783>:
    8000ae8c:	1c811223          	sh	s0,452(sp)

000000008000ae90 <i_10784>:
    8000ae90:	17813603          	ld	a2,376(sp)

000000008000ae94 <i_10785>:
    8000ae94:	00265a93          	srli	s5,a2,0x2

000000008000ae98 <i_10786>:
    8000ae98:	e5011503          	lh	a0,-432(sp)

000000008000ae9c <i_10787>:
    8000ae9c:	00945a63          	ble	s1,s0,8000aeb0 <i_10792>

000000008000aea0 <i_10788>:
    8000aea0:	e5512c23          	sw	s5,-424(sp)

000000008000aea4 <i_10789>:
    8000aea4:	00b00193          	li	gp,11

000000008000aea8 <i_10790>:
    8000aea8:	003a963b          	sllw	a2,s5,gp

000000008000aeac <i_10791>:
    8000aeac:	0ea11123          	sh	a0,226(sp)

000000008000aeb0 <i_10792>:
    8000aeb0:	f6816603          	lwu	a2,-152(sp)

000000008000aeb4 <i_10793>:
    8000aeb4:	6d87c793          	xori	a5,a5,1752

000000008000aeb8 <i_10794>:
    8000aeb8:	00000013          	nop

000000008000aebc <i_10795>:
    8000aebc:	83900493          	li	s1,-1991

000000008000aec0 <i_10796>:
    8000aec0:	84b00c13          	li	s8,-1973

000000008000aec4 <i_10797>:
    8000aec4:	53bc57b7          	lui	a5,0x53bc5

000000008000aec8 <i_10798>:
    8000aec8:	00000013          	nop

000000008000aecc <i_10799>:
    8000aecc:	018c6e63          	bltu	s8,s8,8000aee8 <i_10805>

000000008000aed0 <i_10800>:
    8000aed0:	ff816303          	lwu	t1,-8(sp)

000000008000aed4 <i_10801>:
    8000aed4:	00148493          	addi	s1,s1,1
    8000aed8:	fe9c56e3          	ble	s1,s8,8000aec4 <i_10797>

000000008000aedc <i_10802>:
    8000aedc:	f8411783          	lh	a5,-124(sp)

000000008000aee0 <i_10803>:
    8000aee0:	018e0c63          	beq	t3,s8,8000aef8 <i_10809>

000000008000aee4 <i_10804>:
    8000aee4:	f0f13823          	sd	a5,-240(sp)

000000008000aee8 <i_10805>:
    8000aee8:	01813823          	sd	s8,16(sp)

000000008000aeec <i_10806>:
    8000aeec:	d21f6417          	auipc	s0,0xd21f6

000000008000aef0 <i_10807>:
    8000aef0:	178108a3          	sb	s8,369(sp)

000000008000aef4 <i_10808>:
    8000aef4:	02f42333          	mulhsu	t1,s0,a5

000000008000aef8 <i_10809>:
    8000aef8:	0e813303          	ld	t1,232(sp)

000000008000aefc <i_10810>:
    8000aefc:	00f3fa63          	bleu	a5,t2,8000af10 <i_10815>

000000008000af00 <i_10811>:
    8000af00:	406787bb          	subw	a5,a5,t1

000000008000af04 <i_10812>:
    8000af04:	04c30313          	addi	t1,t1,76 # 6c82c50 <main-0x7937d3b0>

000000008000af08 <i_10813>:
    8000af08:	00335613          	srli	a2,t1,0x3

000000008000af0c <i_10814>:
    8000af0c:	f4c12303          	lw	t1,-180(sp)

000000008000af10 <i_10815>:
    8000af10:	00500e13          	li	t3,5

000000008000af14 <i_10816>:
    8000af14:	41c3d5bb          	sraw	a1,t2,t3

000000008000af18 <i_10817>:
    8000af18:	fd611e03          	lh	t3,-42(sp)

000000008000af1c <i_10818>:
    8000af1c:	03b00a93          	li	s5,59

000000008000af20 <i_10819>:
    8000af20:	01579333          	sll	t1,a5,s5

000000008000af24 <i_10820>:
    8000af24:	ecc11303          	lh	t1,-308(sp)

000000008000af28 <i_10821>:
    8000af28:	03267f3b          	remuw	t5,a2,s2

000000008000af2c <i_10822>:
    8000af2c:	03b00813          	li	a6,59

000000008000af30 <i_10823>:
    8000af30:	41065633          	sra	a2,a2,a6

000000008000af34 <i_10824>:
    8000af34:	03016583          	lwu	a1,48(sp)

000000008000af38 <i_10825>:
    8000af38:	01d1aa33          	slt	s4,gp,t4

000000008000af3c <i_10826>:
    8000af3c:	13c13023          	sd	t3,288(sp)

000000008000af40 <i_10827>:
    8000af40:	21936a13          	ori	s4,t1,537

000000008000af44 <i_10828>:
    8000af44:	07c15303          	lhu	t1,124(sp)

000000008000af48 <i_10829>:
    8000af48:	8ae00e93          	li	t4,-1874

000000008000af4c <i_10830>:
    8000af4c:	8b500813          	li	a6,-1867

000000008000af50 <i_10831>:
    8000af50:	fb412e23          	sw	s4,-68(sp)

000000008000af54 <i_10832>:
    8000af54:	03d36463          	bltu	t1,t4,8000af7c <i_10841>

000000008000af58 <i_10833>:
    8000af58:	001e8e93          	addi	t4,t4,1 # 50c1d001 <main-0x2f3e2fff>
    8000af5c:	ff0ecae3          	blt	t4,a6,8000af50 <i_10831>

000000008000af60 <i_10834>:
    8000af60:	fd811303          	lh	t1,-40(sp)

000000008000af64 <i_10835>:
    8000af64:	026a0333          	mul	t1,s4,t1

000000008000af68 <i_10836>:
    8000af68:	00130a63          	beq	t1,ra,8000af7c <i_10841>

000000008000af6c <i_10837>:
    8000af6c:	18612c23          	sw	t1,408(sp)

000000008000af70 <i_10838>:
    8000af70:	025a0063          	beq	s4,t0,8000af90 <i_10846>

000000008000af74 <i_10839>:
    8000af74:	f4f10283          	lb	t0,-177(sp)

000000008000af78 <i_10840>:
    8000af78:	06a2a813          	slti	a6,t0,106

000000008000af7c <i_10841>:
    8000af7c:	1c615283          	lhu	t0,454(sp)

000000008000af80 <i_10842>:
    8000af80:	03437a3b          	remuw	s4,t1,s4

000000008000af84 <i_10843>:
    8000af84:	313c8db7          	lui	s11,0x313c8

000000008000af88 <i_10844>:
    8000af88:	ea611a03          	lh	s4,-346(sp)

000000008000af8c <i_10845>:
    8000af8c:	023a51bb          	divuw	gp,s4,gp

000000008000af90 <i_10846>:
    8000af90:	01900b13          	li	s6,25

000000008000af94 <i_10847>:
    8000af94:	4161d1bb          	sraw	gp,gp,s6

000000008000af98 <i_10848>:
    8000af98:	cb51a817          	auipc	a6,0xcb51a

000000008000af9c <i_10849>:
    8000af9c:	ef412623          	sw	s4,-276(sp)

000000008000afa0 <i_10850>:
    8000afa0:	031a1463          	bne	s4,a7,8000afc8 <i_10860>

000000008000afa4 <i_10851>:
    8000afa4:	0f610ea3          	sb	s6,253(sp)

000000008000afa8 <i_10852>:
    8000afa8:	00313423          	sd	gp,8(sp)

000000008000afac <i_10853>:
    8000afac:	036b6263          	bltu	s6,s6,8000afd0 <i_10862>

000000008000afb0 <i_10854>:
    8000afb0:	0141ca33          	xor	s4,gp,s4

000000008000afb4 <i_10855>:
    8000afb4:	014a3a33          	sltu	s4,s4,s4

000000008000afb8 <i_10856>:
    8000afb8:	0298f317          	auipc	t1,0x298f

000000008000afbc <i_10857>:
    8000afbc:	0301a833          	mulhsu	a6,gp,a6

000000008000afc0 <i_10858>:
    8000afc0:	01480863          	beq	a6,s4,8000afd0 <i_10862>

000000008000afc4 <i_10859>:
    8000afc4:	0bd14b03          	lbu	s6,189(sp)

000000008000afc8 <i_10860>:
    8000afc8:	e9210c83          	lb	s9,-366(sp)

000000008000afcc <i_10861>:
    8000afcc:	02d35463          	ble	a3,t1,8000aff4 <i_10871>

000000008000afd0 <i_10862>:
    8000afd0:	0bc16403          	lwu	s0,188(sp)

000000008000afd4 <i_10863>:
    8000afd4:	f4611323          	sh	t1,-186(sp)

000000008000afd8 <i_10864>:
    8000afd8:	026c9463          	bne	s9,t1,8000b000 <i_10874>

000000008000afdc <i_10865>:
    8000afdc:	0bc10423          	sb	t3,168(sp)

000000008000afe0 <i_10866>:
    8000afe0:	0fc12303          	lw	t1,252(sp)

000000008000afe4 <i_10867>:
    8000afe4:	03067463          	bleu	a6,a2,8000b00c <i_10877>

000000008000afe8 <i_10868>:
    8000afe8:	15c11983          	lh	s3,348(sp)

000000008000afec <i_10869>:
    8000afec:	030a763b          	remuw	a2,s4,a6

000000008000aff0 <i_10870>:
    8000aff0:	1c613423          	sd	t1,456(sp)

000000008000aff4 <i_10871>:
    8000aff4:	ea013b03          	ld	s6,-352(sp)

000000008000aff8 <i_10872>:
    8000aff8:	016a04b3          	add	s1,s4,s6

000000008000affc <i_10873>:
    8000affc:	1d610ea3          	sb	s6,477(sp)

000000008000b000 <i_10874>:
    8000b000:	00381e1b          	slliw	t3,a6,0x3

000000008000b004 <i_10875>:
    8000b004:	01480663          	beq	a6,s4,8000b010 <i_10878>

000000008000b008 <i_10876>:
    8000b008:	014c0863          	beq	s8,s4,8000b018 <i_10880>

000000008000b00c <i_10877>:
    8000b00c:	1ac12303          	lw	t1,428(sp)

000000008000b010 <i_10878>:
    8000b010:	f3a11b83          	lh	s7,-198(sp)

000000008000b014 <i_10879>:
    8000b014:	030944b3          	div	s1,s2,a6

000000008000b018 <i_10880>:
    8000b018:	036c8463          	beq	s9,s6,8000b040 <i_10890>

000000008000b01c <i_10881>:
    8000b01c:	039b8cb3          	mul	s9,s7,s9

000000008000b020 <i_10882>:
    8000b020:	d8528c97          	auipc	s9,0xd8528

000000008000b024 <i_10883>:
    8000b024:	019439b3          	sltu	s3,s0,s9

000000008000b028 <i_10884>:
    8000b028:	01b28cb3          	add	s9,t0,s11

000000008000b02c <i_10885>:
    8000b02c:	0139ca63          	blt	s3,s3,8000b040 <i_10890>

000000008000b030 <i_10886>:
    8000b030:	0399d2b3          	divu	t0,s3,s9

000000008000b034 <i_10887>:
    8000b034:	019b6c63          	bltu	s6,s9,8000b04c <i_10893>

000000008000b038 <i_10888>:
    8000b038:	039cecbb          	remw	s9,s9,s9

000000008000b03c <i_10889>:
    8000b03c:	025cfcb3          	remu	s9,s9,t0

000000008000b040 <i_10890>:
    8000b040:	1cc16c83          	lwu	s9,460(sp)

000000008000b044 <i_10891>:
    8000b044:	0392e1b3          	rem	gp,t0,s9

000000008000b048 <i_10892>:
    8000b048:	16512823          	sw	t0,368(sp)

000000008000b04c <i_10893>:
    8000b04c:	003c8e63          	beq	s9,gp,8000b068 <i_10900>

000000008000b050 <i_10894>:
    8000b050:	f5911323          	sh	s9,-186(sp)

000000008000b054 <i_10895>:
    8000b054:	1b015c83          	lhu	s9,432(sp)

000000008000b058 <i_10896>:
    8000b058:	e6313023          	sd	gp,-416(sp)

000000008000b05c <i_10897>:
    8000b05c:	00464a63          	blt	a2,tp,8000b070 <i_10902>

000000008000b060 <i_10898>:
    8000b060:	039cd1bb          	divuw	gp,s9,s9

000000008000b064 <i_10899>:
    8000b064:	0231c1bb          	divw	gp,gp,gp

000000008000b068 <i_10900>:
    8000b068:	10210223          	sb	sp,260(sp)

000000008000b06c <i_10901>:
    8000b06c:	401e5193          	srai	gp,t3,0x1

000000008000b070 <i_10902>:
    8000b070:	e2312a23          	sw	gp,-460(sp)

000000008000b074 <i_10903>:
    8000b074:	fac12183          	lw	gp,-84(sp)

000000008000b078 <i_10904>:
    8000b078:	ec311c23          	sh	gp,-296(sp)

000000008000b07c <i_10905>:
    8000b07c:	0391cb33          	div	s6,gp,s9

000000008000b080 <i_10906>:
    8000b080:	36818413          	addi	s0,gp,872

000000008000b084 <i_10907>:
    8000b084:	a32cac93          	slti	s9,s9,-1486

000000008000b088 <i_10908>:
    8000b088:	fec16183          	lwu	gp,-20(sp)

000000008000b08c <i_10909>:
    8000b08c:	f4c16683          	lwu	a3,-180(sp)

000000008000b090 <i_10910>:
    8000b090:	00700d13          	li	s10,7

000000008000b094 <i_10911>:
    8000b094:	01a41b3b          	sllw	s6,s0,s10

000000008000b098 <i_10912>:
    8000b098:	003b1263          	bne	s6,gp,8000b09c <i_10913>

000000008000b09c <i_10913>:
    8000b09c:	01913823          	sd	s9,16(sp)

000000008000b0a0 <i_10914>:
    8000b0a0:	f0514203          	lbu	tp,-251(sp)

000000008000b0a4 <i_10915>:
    8000b0a4:	fda11e23          	sh	s10,-36(sp)

000000008000b0a8 <i_10916>:
    8000b0a8:	00000013          	nop

000000008000b0ac <i_10917>:
    8000b0ac:	e7a14803          	lbu	a6,-390(sp)

000000008000b0b0 <i_10918>:
    8000b0b0:	7b100b13          	li	s6,1969

000000008000b0b4 <i_10919>:
    8000b0b4:	7c300693          	li	a3,1987

000000008000b0b8 <i_10920>:
    8000b0b8:	03813603          	ld	a2,56(sp)

000000008000b0bc <i_10921>:
    8000b0bc:	f1011e83          	lh	t4,-240(sp)

000000008000b0c0 <i_10922>:
    8000b0c0:	001b0b13          	addi	s6,s6,1
    8000b0c4:	ff66fae3          	bleu	s6,a3,8000b0b8 <i_10920>

000000008000b0c8 <i_10923>:
    8000b0c8:	01dd5463          	ble	t4,s10,8000b0d0 <i_10925>

000000008000b0cc <i_10924>:
    8000b0cc:	0288e433          	rem	s0,a7,s0

000000008000b0d0 <i_10925>:
    8000b0d0:	036cfebb          	remuw	t4,s9,s6

000000008000b0d4 <i_10926>:
    8000b0d4:	02861063          	bne	a2,s0,8000b0f4 <i_10934>

000000008000b0d8 <i_10927>:
    8000b0d8:	9b666b13          	ori	s6,a2,-1610

000000008000b0dc <i_10928>:
    8000b0dc:	19816083          	lwu	ra,408(sp)

000000008000b0e0 <i_10929>:
    8000b0e0:	00c00093          	li	ra,12

000000008000b0e4 <i_10930>:
    8000b0e4:	40165b3b          	sraw	s6,a2,ra

000000008000b0e8 <i_10931>:
    8000b0e8:	14711c23          	sh	t2,344(sp)

000000008000b0ec <i_10932>:
    8000b0ec:	0273c3b3          	div	t2,t2,t2

000000008000b0f0 <i_10933>:
    8000b0f0:	0270f063          	bleu	t2,ra,8000b110 <i_10941>

000000008000b0f4 <i_10934>:
    8000b0f4:	02d08463          	beq	ra,a3,8000b11c <i_10944>

000000008000b0f8 <i_10935>:
    8000b0f8:	03109ab3          	mulh	s5,ra,a7

000000008000b0fc <i_10936>:
    8000b0fc:	11f10603          	lb	a2,287(sp)

000000008000b100 <i_10937>:
    8000b100:	fd815683          	lhu	a3,-40(sp)

000000008000b104 <i_10938>:
    8000b104:	e2415a83          	lhu	s5,-476(sp)

000000008000b108 <i_10939>:
    8000b108:	10d108a3          	sb	a3,273(sp)

000000008000b10c <i_10940>:
    8000b10c:	18415603          	lhu	a2,388(sp)

000000008000b110 <i_10941>:
    8000b110:	00000013          	nop

000000008000b114 <i_10942>:
    8000b114:	11a101a3          	sb	s10,259(sp)

000000008000b118 <i_10943>:
    8000b118:	1dc12083          	lw	ra,476(sp)

000000008000b11c <i_10944>:
    8000b11c:	0b813d83          	ld	s11,184(sp)

000000008000b120 <i_10945>:
    8000b120:	40da8dbb          	subw	s11,s5,a3

000000008000b124 <i_10946>:
    8000b124:	7b500d13          	li	s10,1973

000000008000b128 <i_10947>:
    8000b128:	7ba00593          	li	a1,1978

000000008000b12c <i_10948>:
    8000b12c:	ffc12603          	lw	a2,-4(sp)

000000008000b130 <i_10949>:
    8000b130:	f2d11523          	sh	a3,-214(sp)

000000008000b134 <i_10950>:
    8000b134:	f08107a3          	sb	s0,-241(sp)

000000008000b138 <i_10951>:
    8000b138:	00714683          	lbu	a3,7(sp)

000000008000b13c <i_10952>:
    8000b13c:	001d0d13          	addi	s10,s10,1
    8000b140:	febd16e3          	bne	s10,a1,8000b12c <i_10948>

000000008000b144 <i_10953>:
    8000b144:	08d12823          	sw	a3,144(sp)

000000008000b148 <i_10954>:
    8000b148:	ef3dfe93          	andi	t4,s11,-269

000000008000b14c <i_10955>:
    8000b14c:	00288263          	beq	a7,sp,8000b150 <i_10956>

000000008000b150 <i_10956>:
    8000b150:	00ddca63          	blt	s11,a3,8000b164 <i_10961>

000000008000b154 <i_10957>:
    8000b154:	e9215983          	lhu	s3,-366(sp)

000000008000b158 <i_10958>:
    8000b158:	0336f833          	remu	a6,a3,s3

000000008000b15c <i_10959>:
    8000b15c:	01080263          	beq	a6,a6,8000b160 <i_10960>

000000008000b160 <i_10960>:
    8000b160:	01edd263          	ble	t5,s11,8000b164 <i_10961>

000000008000b164 <i_10961>:
    8000b164:	41e681b3          	sub	gp,a3,t5

000000008000b168 <i_10962>:
    8000b168:	00000013          	nop

000000008000b16c <i_10963>:
    8000b16c:	03bdf6bb          	remuw	a3,s11,s11

000000008000b170 <i_10964>:
    8000b170:	76d00d93          	li	s11,1901

000000008000b174 <i_10965>:
    8000b174:	77100e93          	li	t4,1905

000000008000b178 <i_10966>:
    8000b178:	14416583          	lwu	a1,324(sp)

000000008000b17c <i_10967>:
    8000b17c:	04014583          	lbu	a1,64(sp)

000000008000b180 <i_10968>:
    8000b180:	fa815383          	lhu	t2,-88(sp)

000000008000b184 <i_10969>:
    8000b184:	e8110b03          	lb	s6,-383(sp)

000000008000b188 <i_10970>:
    8000b188:	ed110d03          	lb	s10,-303(sp)

000000008000b18c <i_10971>:
    8000b18c:	001d8d93          	addi	s11,s11,1 # 313c8001 <main-0x4ec37fff>
    8000b190:	ffdd94e3          	bne	s11,t4,8000b178 <i_10966>

000000008000b194 <i_10972>:
    8000b194:	e4711f23          	sh	t2,-418(sp)

000000008000b198 <i_10973>:
    8000b198:	0a816383          	lwu	t2,168(sp)

000000008000b19c <i_10974>:
    8000b19c:	60838d13          	addi	s10,t2,1544 # 44ee7608 <main-0x3b1189f8>

000000008000b1a0 <i_10975>:
    8000b1a0:	f6f13423          	sd	a5,-152(sp)

000000008000b1a4 <i_10976>:
    8000b1a4:	2973e793          	ori	a5,t2,663

000000008000b1a8 <i_10977>:
    8000b1a8:	02600393          	li	t2,38

000000008000b1ac <i_10978>:
    8000b1ac:	0077d7b3          	srl	a5,a5,t2

000000008000b1b0 <i_10979>:
    8000b1b0:	01b7ce63          	blt	a5,s11,8000b1cc <i_10986>

000000008000b1b4 <i_10980>:
    8000b1b4:	02f7d7b3          	divu	a5,a5,a5

000000008000b1b8 <i_10981>:
    8000b1b8:	1cc12383          	lw	t2,460(sp)

000000008000b1bc <i_10982>:
    8000b1bc:	e9014083          	lbu	ra,-368(sp)

000000008000b1c0 <i_10983>:
    8000b1c0:	02f386b3          	mul	a3,t2,a5

000000008000b1c4 <i_10984>:
    8000b1c4:	15412d03          	lw	s10,340(sp)

000000008000b1c8 <i_10985>:
    8000b1c8:	11913823          	sd	s9,272(sp)

000000008000b1cc <i_10986>:
    8000b1cc:	4047d39b          	sraiw	t2,a5,0x4

000000008000b1d0 <i_10987>:
    8000b1d0:	03f00313          	li	t1,63

000000008000b1d4 <i_10988>:
    8000b1d4:	006795b3          	sll	a1,a5,t1

000000008000b1d8 <i_10989>:
    8000b1d8:	02bbf063          	bleu	a1,s7,8000b1f8 <i_10997>

000000008000b1dc <i_10990>:
    8000b1dc:	01d00093          	li	ra,29

000000008000b1e0 <i_10991>:
    8000b1e0:	001597b3          	sll	a5,a1,ra

000000008000b1e4 <i_10992>:
    8000b1e4:	7545b593          	sltiu	a1,a1,1876

000000008000b1e8 <i_10993>:
    8000b1e8:	e4b11823          	sh	a1,-432(sp)

000000008000b1ec <i_10994>:
    8000b1ec:	40c503b3          	sub	t2,a0,a2

000000008000b1f0 <i_10995>:
    8000b1f0:	0d015383          	lhu	t2,208(sp)

000000008000b1f4 <i_10996>:
    8000b1f4:	04713c23          	sd	t2,88(sp)

000000008000b1f8 <i_10997>:
    8000b1f8:	0073c263          	blt	t2,t2,8000b1fc <i_10998>

000000008000b1fc <i_10998>:
    8000b1fc:	18210403          	lb	s0,386(sp)

000000008000b200 <i_10999>:
    8000b200:	00836463          	bltu	t1,s0,8000b208 <i_11001>

000000008000b204 <i_11000>:
    8000b204:	02739263          	bne	t2,t2,8000b228 <i_11009>

000000008000b208 <i_11001>:
    8000b208:	e5f10383          	lb	t2,-417(sp)

000000008000b20c <i_11002>:
    8000b20c:	f8713423          	sd	t2,-120(sp)

000000008000b210 <i_11003>:
    8000b210:	10713c23          	sd	t2,280(sp)

000000008000b214 <i_11004>:
    8000b214:	01a11d03          	lh	s10,26(sp)

000000008000b218 <i_11005>:
    8000b218:	00a00313          	li	t1,10

000000008000b21c <i_11006>:
    8000b21c:	006ddf3b          	srlw	t5,s11,t1

000000008000b220 <i_11007>:
    8000b220:	00411c93          	slli	s9,sp,0x4

000000008000b224 <i_11008>:
    8000b224:	008d4d33          	xor	s10,s10,s0

000000008000b228 <i_11009>:
    8000b228:	008d4e63          	blt	s10,s0,8000b244 <i_11016>

000000008000b22c <i_11010>:
    8000b22c:	01940633          	add	a2,s0,s9

000000008000b230 <i_11011>:
    8000b230:	14711f23          	sh	t2,350(sp)

000000008000b234 <i_11012>:
    8000b234:	00000013          	nop

000000008000b238 <i_11013>:
    8000b238:	00000013          	nop

000000008000b23c <i_11014>:
    8000b23c:	03e18d33          	mul	s10,gp,t5

000000008000b240 <i_11015>:
    8000b240:	0286463b          	divw	a2,a2,s0

000000008000b244 <i_11016>:
    8000b244:	1a814b83          	lbu	s7,424(sp)

000000008000b248 <i_11017>:
    8000b248:	027ca6b3          	mulhsu	a3,s9,t2

000000008000b24c <i_11018>:
    8000b24c:	7c300f13          	li	t5,1987

000000008000b250 <i_11019>:
    8000b250:	7d700293          	li	t0,2007

000000008000b254 <i_11020>:
    8000b254:	09911023          	sh	s9,128(sp)

000000008000b258 <i_11021>:
    8000b258:	ee611323          	sh	t1,-282(sp)

000000008000b25c <i_11022>:
    8000b25c:	406b8bb3          	sub	s7,s7,t1

000000008000b260 <i_11023>:
    8000b260:	00000013          	nop

000000008000b264 <i_11024>:
    8000b264:	02dbb6b3          	mulhu	a3,s7,a3

000000008000b268 <i_11025>:
    8000b268:	00dbcb33          	xor	s6,s7,a3

000000008000b26c <i_11026>:
    8000b26c:	e6114d83          	lbu	s11,-415(sp)

000000008000b270 <i_11027>:
    8000b270:	40db0b33          	sub	s6,s6,a3

000000008000b274 <i_11028>:
    8000b274:	f6612023          	sw	t1,-160(sp)

000000008000b278 <i_11029>:
    8000b278:	001f0f13          	addi	t5,t5,1 # 52d53c41 <main-0x2d2ac3bf>
    8000b27c:	fc5f4ce3          	blt	t5,t0,8000b254 <i_11020>

000000008000b280 <i_11030>:
    8000b280:	03cb7b3b          	remuw	s6,s6,t3

000000008000b284 <i_11031>:
    8000b284:	01e10c03          	lb	s8,30(sp)

000000008000b288 <i_11032>:
    8000b288:	01800c13          	li	s8,24

000000008000b28c <i_11033>:
    8000b28c:	018c1c33          	sll	s8,s8,s8

000000008000b290 <i_11034>:
    8000b290:	1cc12c03          	lw	s8,460(sp)

000000008000b294 <i_11035>:
    8000b294:	018b4263          	blt	s6,s8,8000b298 <i_11036>

000000008000b298 <i_11036>:
    8000b298:	404c5b13          	srai	s6,s8,0x4

000000008000b29c <i_11037>:
    8000b29c:	01612023          	sw	s6,0(sp)

000000008000b2a0 <i_11038>:
    8000b2a0:	0ce15c03          	lhu	s8,206(sp)

000000008000b2a4 <i_11039>:
    8000b2a4:	0e014b03          	lbu	s6,224(sp)

000000008000b2a8 <i_11040>:
    8000b2a8:	04012383          	lw	t2,64(sp)

000000008000b2ac <i_11041>:
    8000b2ac:	007b6c63          	bltu	s6,t2,8000b2c4 <i_11047>

000000008000b2b0 <i_11042>:
    8000b2b0:	753ecb93          	xori	s7,t4,1875

000000008000b2b4 <i_11043>:
    8000b2b4:	018b7463          	bleu	s8,s6,8000b2bc <i_11045>

000000008000b2b8 <i_11044>:
    8000b2b8:	0fe15583          	lhu	a1,254(sp)

000000008000b2bc <i_11045>:
    8000b2bc:	13614a03          	lbu	s4,310(sp)

000000008000b2c0 <i_11046>:
    8000b2c0:	dfab0a93          	addi	s5,s6,-518

000000008000b2c4 <i_11047>:
    8000b2c4:	027a6063          	bltu	s4,t2,8000b2e4 <i_11055>

000000008000b2c8 <i_11048>:
    8000b2c8:	003f1f1b          	slliw	t5,t5,0x3

000000008000b2cc <i_11049>:
    8000b2cc:	3635809b          	addiw	ra,a1,867

000000008000b2d0 <i_11050>:
    8000b2d0:	027f70bb          	remuw	ra,t5,t2

000000008000b2d4 <i_11051>:
    8000b2d4:	f7510b23          	sb	s5,-138(sp)

000000008000b2d8 <i_11052>:
    8000b2d8:	4049dd93          	srai	s11,s3,0x4

000000008000b2dc <i_11053>:
    8000b2dc:	f2a12e23          	sw	a0,-196(sp)

000000008000b2e0 <i_11054>:
    8000b2e0:	00000013          	nop

000000008000b2e4 <i_11055>:
    8000b2e4:	621d6513          	ori	a0,s10,1569

000000008000b2e8 <i_11056>:
    8000b2e8:	003ad21b          	srliw	tp,s5,0x3

000000008000b2ec <i_11057>:
    8000b2ec:	76c00d13          	li	s10,1900

000000008000b2f0 <i_11058>:
    8000b2f0:	77800793          	li	a5,1912

000000008000b2f4 <i_11059>:
    8000b2f4:	07c16f03          	lwu	t5,124(sp)

000000008000b2f8 <i_11060>:
    8000b2f8:	0a610503          	lb	a0,166(sp)

000000008000b2fc <i_11061>:
    8000b2fc:	86800b13          	li	s6,-1944

000000008000b300 <i_11062>:
    8000b300:	87c00a13          	li	s4,-1924

000000008000b304 <i_11063>:
    8000b304:	00000013          	nop

000000008000b308 <i_11064>:
    8000b308:	001b0b13          	addi	s6,s6,1
    8000b30c:	ff6a7ce3          	bleu	s6,s4,8000b304 <i_11063>

000000008000b310 <i_11065>:
    8000b310:	f9d14083          	lbu	ra,-99(sp)

000000008000b314 <i_11066>:
    8000b314:	023bcc3b          	divw	s8,s7,gp

000000008000b318 <i_11067>:
    8000b318:	001d0d13          	addi	s10,s10,1
    8000b31c:	fcfd4ce3          	blt	s10,a5,8000b2f4 <i_11059>

000000008000b320 <i_11068>:
    8000b320:	05811d03          	lh	s10,88(sp)

000000008000b324 <i_11069>:
    8000b324:	faa12c23          	sw	a0,-72(sp)

000000008000b328 <i_11070>:
    8000b328:	00c12183          	lw	gp,12(sp)

000000008000b32c <i_11071>:
    8000b32c:	e5813023          	sd	s8,-448(sp)

000000008000b330 <i_11072>:
    8000b330:	7dcd6c13          	ori	s8,s10,2012

000000008000b334 <i_11073>:
    8000b334:	004d1c13          	slli	s8,s10,0x4

000000008000b338 <i_11074>:
    8000b338:	e5811183          	lh	gp,-424(sp)

000000008000b33c <i_11075>:
    8000b33c:	0303583b          	divuw	a6,t1,a6

000000008000b340 <i_11076>:
    8000b340:	00000013          	nop

000000008000b344 <i_11077>:
    8000b344:	f3012623          	sw	a6,-212(sp)

000000008000b348 <i_11078>:
    8000b348:	8d500813          	li	a6,-1835

000000008000b34c <i_11079>:
    8000b34c:	8db00d13          	li	s10,-1829

000000008000b350 <i_11080>:
    8000b350:	f1812c83          	lw	s9,-232(sp)

000000008000b354 <i_11081>:
    8000b354:	019d5a63          	ble	s9,s10,8000b368 <i_11086>

000000008000b358 <i_11082>:
    8000b358:	08011c83          	lh	s9,128(sp)

000000008000b35c <i_11083>:
    8000b35c:	01aa7233          	and	tp,s4,s10

000000008000b360 <i_11084>:
    8000b360:	12016e03          	lwu	t3,288(sp)

000000008000b364 <i_11085>:
    8000b364:	f9813203          	ld	tp,-104(sp)

000000008000b368 <i_11086>:
    8000b368:	ec816183          	lwu	gp,-312(sp)

000000008000b36c <i_11087>:
    8000b36c:	ee412823          	sw	tp,-272(sp)

000000008000b370 <i_11088>:
    8000b370:	f9c13023          	sd	t3,-128(sp)

000000008000b374 <i_11089>:
    8000b374:	ee013e03          	ld	t3,-288(sp)

000000008000b378 <i_11090>:
    8000b378:	0021da9b          	srliw	s5,gp,0x2

000000008000b37c <i_11091>:
    8000b37c:	00180813          	addi	a6,a6,1 # 4b524f99 <main-0x34adb067>
    8000b380:	fda818e3          	bne	a6,s10,8000b350 <i_11080>

000000008000b384 <i_11092>:
    8000b384:	1e211203          	lh	tp,482(sp)

000000008000b388 <i_11093>:
    8000b388:	0044dc63          	ble	tp,s1,8000b3a0 <i_11099>

000000008000b38c <i_11094>:
    8000b38c:	05910523          	sb	s9,74(sp)

000000008000b390 <i_11095>:
    8000b390:	00000013          	nop

000000008000b394 <i_11096>:
    8000b394:	ff511b23          	sh	s5,-10(sp)

000000008000b398 <i_11097>:
    8000b398:	1a313423          	sd	gp,424(sp)

000000008000b39c <i_11098>:
    8000b39c:	f80ca293          	slti	t0,s9,-128

000000008000b3a0 <i_11099>:
    8000b3a0:	0040d093          	srli	ra,ra,0x4

000000008000b3a4 <i_11100>:
    8000b3a4:	18416683          	lwu	a3,388(sp)

000000008000b3a8 <i_11101>:
    8000b3a8:	7cd00e93          	li	t4,1997

000000008000b3ac <i_11102>:
    8000b3ac:	7d800c93          	li	s9,2008

000000008000b3b0 <i_11103>:
    8000b3b0:	03cef663          	bleu	t3,t4,8000b3dc <i_11113>

000000008000b3b4 <i_11104>:
    8000b3b4:	0231f63b          	remuw	a2,gp,gp

000000008000b3b8 <i_11105>:
    8000b3b8:	f9e11583          	lh	a1,-98(sp)

000000008000b3bc <i_11106>:
    8000b3bc:	001e8e93          	addi	t4,t4,1
    8000b3c0:	ff9ee8e3          	bltu	t4,s9,8000b3b0 <i_11103>

000000008000b3c4 <i_11107>:
    8000b3c4:	00013e83          	ld	t4,0(sp)

000000008000b3c8 <i_11108>:
    8000b3c8:	f3d12c23          	sw	t4,-200(sp)

000000008000b3cc <i_11109>:
    8000b3cc:	08011583          	lh	a1,128(sp)

000000008000b3d0 <i_11110>:
    8000b3d0:	e6b14c83          	lbu	s9,-405(sp)

000000008000b3d4 <i_11111>:
    8000b3d4:	ff412283          	lw	t0,-12(sp)

000000008000b3d8 <i_11112>:
    8000b3d8:	0325d0bb          	divuw	ra,a1,s2

000000008000b3dc <i_11113>:
    8000b3dc:	016e4b33          	xor	s6,t3,s6

000000008000b3e0 <i_11114>:
    8000b3e0:	026b25b3          	mulhsu	a1,s6,t1

000000008000b3e4 <i_11115>:
    8000b3e4:	f9416b03          	lwu	s6,-108(sp)

000000008000b3e8 <i_11116>:
    8000b3e8:	4025de93          	srai	t4,a1,0x2

000000008000b3ec <i_11117>:
    8000b3ec:	e3012b83          	lw	s7,-464(sp)

000000008000b3f0 <i_11118>:
    8000b3f0:	00951863          	bne	a0,s1,8000b400 <i_11122>

000000008000b3f4 <i_11119>:
    8000b3f4:	003ed313          	srli	t1,t4,0x3

000000008000b3f8 <i_11120>:
    8000b3f8:	0e410483          	lb	s1,228(sp)

000000008000b3fc <i_11121>:
    8000b3fc:	1d711a23          	sh	s7,468(sp)

000000008000b400 <i_11122>:
    8000b400:	00400493          	li	s1,4

000000008000b404 <i_11123>:
    8000b404:	0092d2bb          	srlw	t0,t0,s1

000000008000b408 <i_11124>:
    8000b408:	009989b3          	add	s3,s3,s1

000000008000b40c <i_11125>:
    8000b40c:	03615283          	lhu	t0,54(sp)

000000008000b410 <i_11126>:
    8000b410:	ea513823          	sd	t0,-336(sp)

000000008000b414 <i_11127>:
    8000b414:	f4c15983          	lhu	s3,-180(sp)

000000008000b418 <i_11128>:
    8000b418:	e7b14603          	lbu	a2,-389(sp)

000000008000b41c <i_11129>:
    8000b41c:	03b669bb          	remw	s3,a2,s11

000000008000b420 <i_11130>:
    8000b420:	033e7e33          	remu	t3,t3,s3

000000008000b424 <i_11131>:
    8000b424:	02598063          	beq	s3,t0,8000b444 <i_11139>

000000008000b428 <i_11132>:
    8000b428:	0052d263          	ble	t0,t0,8000b42c <i_11133>

000000008000b42c <i_11133>:
    8000b42c:	04816283          	lwu	t0,72(sp)

000000008000b430 <i_11134>:
    8000b430:	0a5107a3          	sb	t0,175(sp)

000000008000b434 <i_11135>:
    8000b434:	a5b2851b          	addiw	a0,t0,-1445

000000008000b438 <i_11136>:
    8000b438:	41ce0e3b          	subw	t3,t3,t3

000000008000b43c <i_11137>:
    8000b43c:	10212c23          	sw	sp,280(sp)

000000008000b440 <i_11138>:
    8000b440:	02c9e833          	rem	a6,s3,a2

000000008000b444 <i_11139>:
    8000b444:	f2c12083          	lw	ra,-212(sp)

000000008000b448 <i_11140>:
    8000b448:	15012623          	sw	a6,332(sp)

000000008000b44c <i_11141>:
    8000b44c:	05011e03          	lh	t3,80(sp)

000000008000b450 <i_11142>:
    8000b450:	0aa13823          	sd	a0,176(sp)

000000008000b454 <i_11143>:
    8000b454:	4012d613          	srai	a2,t0,0x1

000000008000b458 <i_11144>:
    8000b458:	0053fa63          	bleu	t0,t2,8000b46c <i_11149>

000000008000b45c <i_11145>:
    8000b45c:	e61dcdb7          	lui	s11,0xe61dc

000000008000b460 <i_11146>:
    8000b460:	01098a63          	beq	s3,a6,8000b474 <i_11151>

000000008000b464 <i_11147>:
    8000b464:	033d8063          	beq	s11,s3,8000b484 <i_11155>

000000008000b468 <i_11148>:
    8000b468:	fe812783          	lw	a5,-24(sp)

000000008000b46c <i_11149>:
    8000b46c:	f6c15803          	lhu	a6,-148(sp)

000000008000b470 <i_11150>:
    8000b470:	18013483          	ld	s1,384(sp)

000000008000b474 <i_11151>:
    8000b474:	00000013          	nop

000000008000b478 <i_11152>:
    8000b478:	00f00413          	li	s0,15

000000008000b47c <i_11153>:
    8000b47c:	008ddf3b          	srlw	t5,s11,s0

000000008000b480 <i_11154>:
    8000b480:	02347833          	remu	a6,s0,gp

000000008000b484 <i_11155>:
    8000b484:	ed114783          	lbu	a5,-303(sp)

000000008000b488 <i_11156>:
    8000b488:	f4813783          	ld	a5,-184(sp)

000000008000b48c <i_11157>:
    8000b48c:	8c400193          	li	gp,-1852

000000008000b490 <i_11158>:
    8000b490:	8d700d93          	li	s11,-1833

000000008000b494 <i_11159>:
    8000b494:	01ff2b33          	slt	s6,t5,t6

000000008000b498 <i_11160>:
    8000b498:	03747063          	bleu	s7,s0,8000b4b8 <i_11168>

000000008000b49c <i_11161>:
    8000b49c:	00000013          	nop

000000008000b4a0 <i_11162>:
    8000b4a0:	02200b13          	li	s6,34

000000008000b4a4 <i_11163>:
    8000b4a4:	016a19b3          	sll	s3,s4,s6

000000008000b4a8 <i_11164>:
    8000b4a8:	00000013          	nop

000000008000b4ac <i_11165>:
    8000b4ac:	00318663          	beq	gp,gp,8000b4b8 <i_11168>

000000008000b4b0 <i_11166>:
    8000b4b0:	ee812023          	sw	s0,-288(sp)

000000008000b4b4 <i_11167>:
    8000b4b4:	03800c13          	li	s8,56

000000008000b4b8 <i_11168>:
    8000b4b8:	4187db33          	sra	s6,a5,s8

000000008000b4bc <i_11169>:
    8000b4bc:	00000013          	nop

000000008000b4c0 <i_11170>:
    8000b4c0:	018b7833          	and	a6,s6,s8

000000008000b4c4 <i_11171>:
    8000b4c4:	00118193          	addi	gp,gp,1
    8000b4c8:	fdb1e6e3          	bltu	gp,s11,8000b494 <i_11159>

000000008000b4cc <i_11172>:
    8000b4cc:	16815f03          	lhu	t5,360(sp)

000000008000b4d0 <i_11173>:
    8000b4d0:	01884c33          	xor	s8,a6,s8

000000008000b4d4 <i_11174>:
    8000b4d4:	03855263          	ble	s8,a0,8000b4f8 <i_11183>

000000008000b4d8 <i_11175>:
    8000b4d8:	038ed063          	ble	s8,t4,8000b4f8 <i_11183>

000000008000b4dc <i_11176>:
    8000b4dc:	11e13423          	sd	t5,264(sp)

000000008000b4e0 <i_11177>:
    8000b4e0:	03cee063          	bltu	t4,t3,8000b500 <i_11185>

000000008000b4e4 <i_11178>:
    8000b4e4:	01df3c33          	sltu	s8,t5,t4

000000008000b4e8 <i_11179>:
    8000b4e8:	ea210e83          	lb	t4,-350(sp)

000000008000b4ec <i_11180>:
    8000b4ec:	e5813783          	ld	a5,-424(sp)

000000008000b4f0 <i_11181>:
    8000b4f0:	02fc1463          	bne	s8,a5,8000b518 <i_11191>

000000008000b4f4 <i_11182>:
    8000b4f4:	0b013b03          	ld	s6,176(sp)

000000008000b4f8 <i_11183>:
    8000b4f8:	ed214303          	lbu	t1,-302(sp)

000000008000b4fc <i_11184>:
    8000b4fc:	ce1c0c93          	addi	s9,s8,-799

000000008000b500 <i_11185>:
    8000b500:	08415e03          	lhu	t3,132(sp)

000000008000b504 <i_11186>:
    8000b504:	41930a33          	sub	s4,t1,s9

000000008000b508 <i_11187>:
    8000b508:	fa813303          	ld	t1,-88(sp)

000000008000b50c <i_11188>:
    8000b50c:	11016c03          	lwu	s8,272(sp)

000000008000b510 <i_11189>:
    8000b510:	1c411303          	lh	t1,452(sp)

000000008000b514 <i_11190>:
    8000b514:	40435a1b          	sraiw	s4,t1,0x4

000000008000b518 <i_11191>:
    8000b518:	0d410983          	lb	s3,212(sp)

000000008000b51c <i_11192>:
    8000b51c:	11030c1b          	addiw	s8,t1,272

000000008000b520 <i_11193>:
    8000b520:	01499263          	bne	s3,s4,8000b524 <i_11194>

000000008000b524 <i_11194>:
    8000b524:	e4414803          	lbu	a6,-444(sp)

000000008000b528 <i_11195>:
    8000b528:	15912023          	sw	s9,320(sp)

000000008000b52c <i_11196>:
    8000b52c:	03016803          	lwu	a6,48(sp)

000000008000b530 <i_11197>:
    8000b530:	e5813983          	ld	s3,-424(sp)

000000008000b534 <i_11198>:
    8000b534:	004cda13          	srli	s4,s9,0x4

000000008000b538 <i_11199>:
    8000b538:	de782413          	slti	s0,a6,-537

000000008000b53c <i_11200>:
    8000b53c:	01486263          	bltu	a6,s4,8000b540 <i_11201>

000000008000b540 <i_11201>:
    8000b540:	f7811403          	lh	s0,-136(sp)

000000008000b544 <i_11202>:
    8000b544:	0339fc33          	remu	s8,s3,s3

000000008000b548 <i_11203>:
    8000b548:	f1312023          	sw	s3,-256(sp)

000000008000b54c <i_11204>:
    8000b54c:	e5c11983          	lh	s3,-420(sp)

000000008000b550 <i_11205>:
    8000b550:	f3311223          	sh	s3,-220(sp)

000000008000b554 <i_11206>:
    8000b554:	01b00813          	li	a6,27

000000008000b558 <i_11207>:
    8000b558:	0107d7bb          	srlw	a5,a5,a6

000000008000b55c <i_11208>:
    8000b55c:	e9816303          	lwu	t1,-360(sp)

000000008000b560 <i_11209>:
    8000b560:	013cce63          	blt	s9,s3,8000b57c <i_11216>

000000008000b564 <i_11210>:
    8000b564:	00485693          	srli	a3,a6,0x4

000000008000b568 <i_11211>:
    8000b568:	dffc0f1b          	addiw	t5,s8,-513

000000008000b56c <i_11212>:
    8000b56c:	e0f13c23          	sd	a5,-488(sp)

000000008000b570 <i_11213>:
    8000b570:	41980cbb          	subw	s9,a6,s9

000000008000b574 <i_11214>:
    8000b574:	fa610783          	lb	a5,-90(sp)

000000008000b578 <i_11215>:
    8000b578:	00379593          	slli	a1,a5,0x3

000000008000b57c <i_11216>:
    8000b57c:	75f40b93          	addi	s7,s0,1887 # 5220164b <main-0x2ddfe9b5>

000000008000b580 <i_11217>:
    8000b580:	f1813683          	ld	a3,-232(sp)

000000008000b584 <i_11218>:
    8000b584:	f5914403          	lbu	s0,-167(sp)

000000008000b588 <i_11219>:
    8000b588:	07411c83          	lh	s9,116(sp)

000000008000b58c <i_11220>:
    8000b58c:	05911d23          	sh	s9,90(sp)

000000008000b590 <i_11221>:
    8000b590:	1cd10983          	lb	s3,461(sp)

000000008000b594 <i_11222>:
    8000b594:	12a14803          	lbu	a6,298(sp)

000000008000b598 <i_11223>:
    8000b598:	0176c463          	blt	a3,s7,8000b5a0 <i_11225>

000000008000b59c <i_11224>:
    8000b59c:	e8413423          	sd	tp,-376(sp)

000000008000b5a0 <i_11225>:
    8000b5a0:	02d39263          	bne	t2,a3,8000b5c4 <i_11234>

000000008000b5a4 <i_11226>:
    8000b5a4:	e9311223          	sh	s3,-380(sp)

000000008000b5a8 <i_11227>:
    8000b5a8:	0195a5b3          	slt	a1,a1,s9

000000008000b5ac <i_11228>:
    8000b5ac:	765ca597          	auipc	a1,0x765ca

000000008000b5b0 <i_11229>:
    8000b5b0:	01b60db3          	add	s11,a2,s11

000000008000b5b4 <i_11230>:
    8000b5b4:	f1614983          	lbu	s3,-234(sp)

000000008000b5b8 <i_11231>:
    8000b5b8:	02b14583          	lbu	a1,43(sp)

000000008000b5bc <i_11232>:
    8000b5bc:	00b84463          	blt	a6,a1,8000b5c4 <i_11234>

000000008000b5c0 <i_11233>:
    8000b5c0:	02b9d5b3          	divu	a1,s3,a1

000000008000b5c4 <i_11234>:
    8000b5c4:	eac15803          	lhu	a6,-340(sp)

000000008000b5c8 <i_11235>:
    8000b5c8:	02b100a3          	sb	a1,33(sp)

000000008000b5cc <i_11236>:
    8000b5cc:	00c9c633          	xor	a2,s3,a2

000000008000b5d0 <i_11237>:
    8000b5d0:	f3614283          	lbu	t0,-202(sp)

000000008000b5d4 <i_11238>:
    8000b5d4:	77b00993          	li	s3,1915

000000008000b5d8 <i_11239>:
    8000b5d8:	77f00593          	li	a1,1919

000000008000b5dc <i_11240>:
    8000b5dc:	013bf863          	bleu	s3,s7,8000b5ec <i_11244>

000000008000b5e0 <i_11241>:
    8000b5e0:	1d311423          	sh	s3,456(sp)

000000008000b5e4 <i_11242>:
    8000b5e4:	eaf14b83          	lbu	s7,-337(sp)

000000008000b5e8 <i_11243>:
    8000b5e8:	e6016283          	lwu	t0,-416(sp)

000000008000b5ec <i_11244>:
    8000b5ec:	16416383          	lwu	t2,356(sp)

000000008000b5f0 <i_11245>:
    8000b5f0:	05413023          	sd	s4,64(sp)

000000008000b5f4 <i_11246>:
    8000b5f4:	15611283          	lh	t0,342(sp)

000000008000b5f8 <i_11247>:
    8000b5f8:	00198993          	addi	s3,s3,1 # fd24f775 <_end+0x7d23f361>
    8000b5fc:	feb9e0e3          	bltu	s3,a1,8000b5dc <i_11240>

000000008000b600 <i_11248>:
    8000b600:	acce2393          	slti	t2,t3,-1332

000000008000b604 <i_11249>:
    8000b604:	1e411583          	lh	a1,484(sp)

000000008000b608 <i_11250>:
    8000b608:	e7712e23          	sw	s7,-388(sp)

000000008000b60c <i_11251>:
    8000b60c:	f4712023          	sw	t2,-192(sp)

000000008000b610 <i_11252>:
    8000b610:	19713423          	sd	s7,392(sp)

000000008000b614 <i_11253>:
    8000b614:	f3415583          	lhu	a1,-204(sp)

000000008000b618 <i_11254>:
    8000b618:	00a3e463          	bltu	t2,a0,8000b620 <i_11256>

000000008000b61c <i_11255>:
    8000b61c:	fe712423          	sw	t2,-24(sp)

000000008000b620 <i_11256>:
    8000b620:	0373a5b3          	mulhsu	a1,t2,s7

000000008000b624 <i_11257>:
    8000b624:	10012e83          	lw	t4,256(sp)

000000008000b628 <i_11258>:
    8000b628:	00bbcbb3          	xor	s7,s7,a1

000000008000b62c <i_11259>:
    8000b62c:	037b8063          	beq	s7,s7,8000b64c <i_11267>

000000008000b630 <i_11260>:
    8000b630:	e3c12023          	sw	t3,-480(sp)

000000008000b634 <i_11261>:
    8000b634:	018efa63          	bleu	s8,t4,8000b648 <i_11266>

000000008000b638 <i_11262>:
    8000b638:	13812583          	lw	a1,312(sp)

000000008000b63c <i_11263>:
    8000b63c:	418b8c3b          	subw	s8,s7,s8

000000008000b640 <i_11264>:
    8000b640:	028c043b          	mulw	s0,s8,s0

000000008000b644 <i_11265>:
    8000b644:	e6b107a3          	sb	a1,-401(sp)

000000008000b648 <i_11266>:
    8000b648:	008c7263          	bleu	s0,s8,8000b64c <i_11267>

000000008000b64c <i_11267>:
    8000b64c:	5176b413          	sltiu	s0,a3,1303

000000008000b650 <i_11268>:
    8000b650:	06012403          	lw	s0,96(sp)

000000008000b654 <i_11269>:
    8000b654:	01246e63          	bltu	s0,s2,8000b670 <i_11276>

000000008000b658 <i_11270>:
    8000b658:	00000013          	nop

000000008000b65c <i_11271>:
    8000b65c:	8cc3fe93          	andi	t4,t2,-1844

000000008000b660 <i_11272>:
    8000b660:	08c16b83          	lwu	s7,140(sp)

000000008000b664 <i_11273>:
    8000b664:	e4416a03          	lwu	s4,-444(sp)

000000008000b668 <i_11274>:
    8000b668:	00000013          	nop

000000008000b66c <i_11275>:
    8000b66c:	00000013          	nop

000000008000b670 <i_11276>:
    8000b670:	00000013          	nop

000000008000b674 <i_11277>:
    8000b674:	0e013683          	ld	a3,224(sp)

000000008000b678 <i_11278>:
    8000b678:	79800c13          	li	s8,1944

000000008000b67c <i_11279>:
    8000b67c:	79a00393          	li	t2,1946

000000008000b680 <i_11280>:
    8000b680:	7a443413          	sltiu	s0,s0,1956

000000008000b684 <i_11281>:
    8000b684:	001c0c13          	addi	s8,s8,1
    8000b688:	ff83dce3          	ble	s8,t2,8000b680 <i_11280>

000000008000b68c <i_11282>:
    8000b68c:	05814403          	lbu	s0,88(sp)

000000008000b690 <i_11283>:
    8000b690:	03013183          	ld	gp,48(sp)

000000008000b694 <i_11284>:
    8000b694:	04012d83          	lw	s11,64(sp)

000000008000b698 <i_11285>:
    8000b698:	01d75863          	ble	t4,a4,8000b6a8 <i_11289>

000000008000b69c <i_11286>:
    8000b69c:	14611083          	lh	ra,326(sp)

000000008000b6a0 <i_11287>:
    8000b6a0:	09c11c83          	lh	s9,156(sp)

000000008000b6a4 <i_11288>:
    8000b6a4:	05110b03          	lb	s6,81(sp)

000000008000b6a8 <i_11289>:
    8000b6a8:	0c611583          	lh	a1,198(sp)

000000008000b6ac <i_11290>:
    8000b6ac:	03d76a33          	rem	s4,a4,t4

000000008000b6b0 <i_11291>:
    8000b6b0:	0230ddbb          	divuw	s11,ra,gp

000000008000b6b4 <i_11292>:
    8000b6b4:	008d5663          	ble	s0,s10,8000b6c0 <i_11295>

000000008000b6b8 <i_11293>:
    8000b6b8:	00b0ca63          	blt	ra,a1,8000b6cc <i_11298>

000000008000b6bc <i_11294>:
    8000b6bc:	04013683          	ld	a3,64(sp)

000000008000b6c0 <i_11295>:
    8000b6c0:	40868d33          	sub	s10,a3,s0

000000008000b6c4 <i_11296>:
    8000b6c4:	02d0f263          	bleu	a3,ra,8000b6e8 <i_11305>

000000008000b6c8 <i_11297>:
    8000b6c8:	00731e63          	bne	t1,t2,8000b6e4 <i_11304>

000000008000b6cc <i_11298>:
    8000b6cc:	ea012803          	lw	a6,-352(sp)

000000008000b6d0 <i_11299>:
    8000b6d0:	eeb10123          	sb	a1,-286(sp)

000000008000b6d4 <i_11300>:
    8000b6d4:	018c7c33          	and	s8,s8,s8

000000008000b6d8 <i_11301>:
    8000b6d8:	12614d03          	lbu	s10,294(sp)

000000008000b6dc <i_11302>:
    8000b6dc:	038c6eb3          	rem	t4,s8,s8

000000008000b6e0 <i_11303>:
    8000b6e0:	01ac1a63          	bne	s8,s10,8000b6f4 <i_11308>

000000008000b6e4 <i_11304>:
    8000b6e4:	01012823          	sw	a6,16(sp)

000000008000b6e8 <i_11305>:
    8000b6e8:	02780063          	beq	a6,t2,8000b708 <i_11313>

000000008000b6ec <i_11306>:
    8000b6ec:	02d6e6bb          	remw	a3,a3,a3

000000008000b6f0 <i_11307>:
    8000b6f0:	00db1a63          	bne	s6,a3,8000b704 <i_11312>

000000008000b6f4 <i_11308>:
    8000b6f4:	00d6ec63          	bltu	a3,a3,8000b70c <i_11314>

000000008000b6f8 <i_11309>:
    8000b6f8:	01d76c63          	bltu	a4,t4,8000b710 <i_11315>

000000008000b6fc <i_11310>:
    8000b6fc:	15710ca3          	sb	s7,345(sp)

000000008000b700 <i_11311>:
    8000b700:	18c16683          	lwu	a3,396(sp)

000000008000b704 <i_11312>:
    8000b704:	7e9d3813          	sltiu	a6,s10,2025

000000008000b708 <i_11313>:
    8000b708:	1cd13023          	sd	a3,448(sp)

000000008000b70c <i_11314>:
    8000b70c:	01dc6263          	bltu	s8,t4,8000b710 <i_11315>

000000008000b710 <i_11315>:
    8000b710:	404c5493          	srai	s1,s8,0x4

000000008000b714 <i_11316>:
    8000b714:	e7811e23          	sh	s8,-388(sp)

000000008000b718 <i_11317>:
    8000b718:	03812a23          	sw	s8,52(sp)

000000008000b71c <i_11318>:
    8000b71c:	15c12f03          	lw	t5,348(sp)

000000008000b720 <i_11319>:
    8000b720:	03af4063          	blt	t5,s10,8000b740 <i_11327>

000000008000b724 <i_11320>:
    8000b724:	f9e15a03          	lhu	s4,-98(sp)

000000008000b728 <i_11321>:
    8000b728:	010f6a63          	bltu	t5,a6,8000b73c <i_11326>

000000008000b72c <i_11322>:
    8000b72c:	00469093          	slli	ra,a3,0x4

000000008000b730 <i_11323>:
    8000b730:	01d00813          	li	a6,29

000000008000b734 <i_11324>:
    8000b734:	01081abb          	sllw	s5,a6,a6

000000008000b738 <i_11325>:
    8000b738:	0102e263          	bltu	t0,a6,8000b73c <i_11326>

000000008000b73c <i_11326>:
    8000b73c:	03079063          	bne	a5,a6,8000b75c <i_11334>

000000008000b740 <i_11327>:
    8000b740:	02709063          	bne	ra,t2,8000b760 <i_11335>

000000008000b744 <i_11328>:
    8000b744:	00100a93          	li	s5,1

000000008000b748 <i_11329>:
    8000b748:	4158583b          	sraw	a6,a6,s5

000000008000b74c <i_11330>:
    8000b74c:	f1512223          	sw	s5,-252(sp)

000000008000b750 <i_11331>:
    8000b750:	f1c12383          	lw	t2,-228(sp)

000000008000b754 <i_11332>:
    8000b754:	14412803          	lw	a6,324(sp)

000000008000b758 <i_11333>:
    8000b758:	03011823          	sh	a6,48(sp)

000000008000b75c <i_11334>:
    8000b75c:	17c15383          	lhu	t2,380(sp)

000000008000b760 <i_11335>:
    8000b760:	eab98993          	addi	s3,s3,-341

000000008000b764 <i_11336>:
    8000b764:	00000013          	nop

000000008000b768 <i_11337>:
    8000b768:	7ba00813          	li	a6,1978

000000008000b76c <i_11338>:
    8000b76c:	7c100393          	li	t2,1985

000000008000b770 <i_11339>:
    8000b770:	e2c12423          	sw	a2,-472(sp)

000000008000b774 <i_11340>:
    8000b774:	0333b9b3          	mulhu	s3,t2,s3

000000008000b778 <i_11341>:
    8000b778:	2489e613          	ori	a2,s3,584

000000008000b77c <i_11342>:
    8000b77c:	0ec10423          	sb	a2,232(sp)

000000008000b780 <i_11343>:
    8000b780:	01365e63          	ble	s3,a2,8000b79c <i_11349>

000000008000b784 <i_11344>:
    8000b784:	02c9ebbb          	remw	s7,s3,a2

000000008000b788 <i_11345>:
    8000b788:	00180813          	addi	a6,a6,1
    8000b78c:	ff03f2e3          	bleu	a6,t2,8000b770 <i_11339>

000000008000b790 <i_11346>:
    8000b790:	0179e633          	or	a2,s3,s7

000000008000b794 <i_11347>:
    8000b794:	3999cb93          	xori	s7,s3,921

000000008000b798 <i_11348>:
    8000b798:	03cbbe33          	mulhu	t3,s7,t3

000000008000b79c <i_11349>:
    8000b79c:	00000013          	nop

000000008000b7a0 <i_11350>:
    8000b7a0:	00000013          	nop

000000008000b7a4 <i_11351>:
    8000b7a4:	80500613          	li	a2,-2043

000000008000b7a8 <i_11352>:
    8000b7a8:	80f00b93          	li	s7,-2033

000000008000b7ac <i_11353>:
    8000b7ac:	017e1263          	bne	t3,s7,8000b7b0 <i_11354>

000000008000b7b0 <i_11354>:
    8000b7b0:	017f21b3          	slt	gp,t5,s7

000000008000b7b4 <i_11355>:
    8000b7b4:	037653bb          	divuw	t2,a2,s7

000000008000b7b8 <i_11356>:
    8000b7b8:	0026539b          	srliw	t2,a2,0x2

000000008000b7bc <i_11357>:
    8000b7bc:	fcc16683          	lwu	a3,-52(sp)

000000008000b7c0 <i_11358>:
    8000b7c0:	00160613          	addi	a2,a2,1
    8000b7c4:	fecbf4e3          	bleu	a2,s7,8000b7ac <i_11353>

000000008000b7c8 <i_11359>:
    8000b7c8:	027ff263          	bleu	t2,t6,8000b7ec <i_11368>

000000008000b7cc <i_11360>:
    8000b7cc:	eae10603          	lb	a2,-338(sp)

000000008000b7d0 <i_11361>:
    8000b7d0:	003e1e13          	slli	t3,t3,0x3

000000008000b7d4 <i_11362>:
    8000b7d4:	ee813e03          	ld	t3,-280(sp)

000000008000b7d8 <i_11363>:
    8000b7d8:	01c61263          	bne	a2,t3,8000b7dc <i_11364>

000000008000b7dc <i_11364>:
    8000b7dc:	ecc12603          	lw	a2,-308(sp)

000000008000b7e0 <i_11365>:
    8000b7e0:	001b5b1b          	srliw	s6,s6,0x1

000000008000b7e4 <i_11366>:
    8000b7e4:	a770e697          	auipc	a3,0xa770e

000000008000b7e8 <i_11367>:
    8000b7e8:	02110283          	lb	t0,33(sp)

000000008000b7ec <i_11368>:
    8000b7ec:	1c19eab7          	lui	s5,0x1c19e

000000008000b7f0 <i_11369>:
    8000b7f0:	17613c23          	sd	s6,376(sp)

000000008000b7f4 <i_11370>:
    8000b7f4:	036cf463          	bleu	s6,s9,8000b81c <i_11380>

000000008000b7f8 <i_11371>:
    8000b7f8:	02d2c263          	blt	t0,a3,8000b81c <i_11380>

000000008000b7fc <i_11372>:
    8000b7fc:	03668463          	beq	a3,s6,8000b824 <i_11382>

000000008000b800 <i_11373>:
    8000b800:	e8e12023          	sw	a4,-384(sp)

000000008000b804 <i_11374>:
    8000b804:	e4514603          	lbu	a2,-443(sp)

000000008000b808 <i_11375>:
    8000b808:	4046531b          	sraiw	t1,a2,0x4

000000008000b80c <i_11376>:
    8000b80c:	16e15683          	lhu	a3,366(sp)

000000008000b810 <i_11377>:
    8000b810:	04c107a3          	sb	a2,79(sp)

000000008000b814 <i_11378>:
    8000b814:	0256f2b3          	remu	t0,a3,t0

000000008000b818 <i_11379>:
    8000b818:	9bb12697          	auipc	a3,0x9bb12

000000008000b81c <i_11380>:
    8000b81c:	02d68263          	beq	a3,a3,8000b840 <i_11389>

000000008000b820 <i_11381>:
    8000b820:	16c12b83          	lw	s7,364(sp)

000000008000b824 <i_11382>:
    8000b824:	0b611e23          	sh	s6,188(sp)

000000008000b828 <i_11383>:
    8000b828:	0cee3213          	sltiu	tp,t3,206

000000008000b82c <i_11384>:
    8000b82c:	00627263          	bleu	t1,tp,8000b830 <i_11385>

000000008000b830 <i_11385>:
    8000b830:	024a8633          	mul	a2,s5,tp

000000008000b834 <i_11386>:
    8000b834:	fdc12603          	lw	a2,-36(sp)

000000008000b838 <i_11387>:
    8000b838:	e7d14d03          	lbu	s10,-387(sp)

000000008000b83c <i_11388>:
    8000b83c:	19113c23          	sd	a7,408(sp)

000000008000b840 <i_11389>:
    8000b840:	19211183          	lh	gp,402(sp)

000000008000b844 <i_11390>:
    8000b844:	03816a03          	lwu	s4,56(sp)

000000008000b848 <i_11391>:
    8000b848:	0ac12e23          	sw	a2,188(sp)

000000008000b84c <i_11392>:
    8000b84c:	e8c16283          	lwu	t0,-372(sp)

000000008000b850 <i_11393>:
    8000b850:	0051e9b3          	or	s3,gp,t0

000000008000b854 <i_11394>:
    8000b854:	014a7663          	bleu	s4,s4,8000b860 <i_11397>

000000008000b858 <i_11395>:
    8000b858:	f4814583          	lbu	a1,-184(sp)

000000008000b85c <i_11396>:
    8000b85c:	40d586bb          	subw	a3,a1,a3

000000008000b860 <i_11397>:
    8000b860:	001f5f13          	srli	t5,t5,0x1

000000008000b864 <i_11398>:
    8000b864:	f4611403          	lh	s0,-186(sp)

000000008000b868 <i_11399>:
    8000b868:	04e15b03          	lhu	s6,78(sp)

000000008000b86c <i_11400>:
    8000b86c:	0143de63          	ble	s4,t2,8000b888 <i_11407>

000000008000b870 <i_11401>:
    8000b870:	03416283          	lwu	t0,52(sp)

000000008000b874 <i_11402>:
    8000b874:	028b13b3          	mulh	t2,s6,s0

000000008000b878 <i_11403>:
    8000b878:	f7615283          	lhu	t0,-138(sp)

000000008000b87c <i_11404>:
    8000b87c:	02508433          	mul	s0,ra,t0

000000008000b880 <i_11405>:
    8000b880:	f6a14403          	lbu	s0,-150(sp)

000000008000b884 <i_11406>:
    8000b884:	00000013          	nop

000000008000b888 <i_11407>:
    8000b888:	02a47b33          	remu	s6,s0,a0

000000008000b88c <i_11408>:
    8000b88c:	0ba15403          	lhu	s0,186(sp)

000000008000b890 <i_11409>:
    8000b890:	75400393          	li	t2,1876

000000008000b894 <i_11410>:
    8000b894:	76700293          	li	t0,1895

000000008000b898 <i_11411>:
    8000b898:	02845433          	divu	s0,s0,s0

000000008000b89c <i_11412>:
    8000b89c:	a0038513          	addi	a0,t2,-1536

000000008000b8a0 <i_11413>:
    8000b8a0:	0de14d83          	lbu	s11,222(sp)

000000008000b8a4 <i_11414>:
    8000b8a4:	fe412e83          	lw	t4,-28(sp)

000000008000b8a8 <i_11415>:
    8000b8a8:	005d1e63          	bne	s10,t0,8000b8c4 <i_11422>

000000008000b8ac <i_11416>:
    8000b8ac:	09b10023          	sb	s11,128(sp)

000000008000b8b0 <i_11417>:
    8000b8b0:	0193e863          	bltu	t2,s9,8000b8c0 <i_11421>

000000008000b8b4 <i_11418>:
    8000b8b4:	40550433          	sub	s0,a0,t0

000000008000b8b8 <i_11419>:
    8000b8b8:	ef412a03          	lw	s4,-268(sp)

000000008000b8bc <i_11420>:
    8000b8bc:	40838cbb          	subw	s9,t2,s0

000000008000b8c0 <i_11421>:
    8000b8c0:	034d8433          	mul	s0,s11,s4

000000008000b8c4 <i_11422>:
    8000b8c4:	0fc16d83          	lwu	s11,252(sp)

000000008000b8c8 <i_11423>:
    8000b8c8:	ef813203          	ld	tp,-264(sp)

000000008000b8cc <i_11424>:
    8000b8cc:	00138393          	addi	t2,t2,1
    8000b8d0:	fc53e4e3          	bltu	t2,t0,8000b898 <i_11411>

000000008000b8d4 <i_11425>:
    8000b8d4:	00215b83          	lhu	s7,2(sp)

000000008000b8d8 <i_11426>:
    8000b8d8:	00300393          	li	t2,3

000000008000b8dc <i_11427>:
    8000b8dc:	0077523b          	srlw	tp,a4,t2

000000008000b8e0 <i_11428>:
    8000b8e0:	00900e93          	li	t4,9

000000008000b8e4 <i_11429>:
    8000b8e4:	01d61633          	sll	a2,a2,t4

000000008000b8e8 <i_11430>:
    8000b8e8:	10514383          	lbu	t2,261(sp)

000000008000b8ec <i_11431>:
    8000b8ec:	09411203          	lh	tp,148(sp)

000000008000b8f0 <i_11432>:
    8000b8f0:	fd014f03          	lbu	t5,-48(sp)

000000008000b8f4 <i_11433>:
    8000b8f4:	f9710ea3          	sb	s7,-99(sp)

000000008000b8f8 <i_11434>:
    8000b8f8:	01d3c3b3          	xor	t2,t2,t4

000000008000b8fc <i_11435>:
    8000b8fc:	e8415c83          	lhu	s9,-380(sp)

000000008000b900 <i_11436>:
    8000b900:	00739c63          	bne	t2,t2,8000b918 <i_11442>

000000008000b904 <i_11437>:
    8000b904:	41960f3b          	subw	t5,a2,s9

000000008000b908 <i_11438>:
    8000b908:	401f5c93          	srai	s9,t5,0x1

000000008000b90c <i_11439>:
    8000b90c:	03f00b93          	li	s7,63

000000008000b910 <i_11440>:
    8000b910:	417f5233          	sra	tp,t5,s7

000000008000b914 <i_11441>:
    8000b914:	f4a11403          	lh	s0,-182(sp)

000000008000b918 <i_11442>:
    8000b918:	ebc16d03          	lwu	s10,-324(sp)

000000008000b91c <i_11443>:
    8000b91c:	f5d10b83          	lb	s7,-163(sp)

000000008000b920 <i_11444>:
    8000b920:	16a11d03          	lh	s10,362(sp)

000000008000b924 <i_11445>:
    8000b924:	01eb8863          	beq	s7,t5,8000b934 <i_11449>

000000008000b928 <i_11446>:
    8000b928:	00412a23          	sw	tp,20(sp)

000000008000b92c <i_11447>:
    8000b92c:	ea015403          	lhu	s0,-352(sp)

000000008000b930 <i_11448>:
    8000b930:	028f5cb3          	divu	s9,t5,s0

000000008000b934 <i_11449>:
    8000b934:	e2813803          	ld	a6,-472(sp)

000000008000b938 <i_11450>:
    8000b938:	02411e83          	lh	t4,36(sp)

000000008000b93c <i_11451>:
    8000b93c:	85000793          	li	a5,-1968

000000008000b940 <i_11452>:
    8000b940:	86100d13          	li	s10,-1951

000000008000b944 <i_11453>:
    8000b944:	039ef463          	bleu	s9,t4,8000b96c <i_11462>

000000008000b948 <i_11454>:
    8000b948:	f7a10623          	sb	s10,-148(sp)

000000008000b94c <i_11455>:
    8000b94c:	09615c03          	lhu	s8,150(sp)

000000008000b950 <i_11456>:
    8000b950:	02c9f463          	bleu	a2,s3,8000b978 <i_11465>

000000008000b954 <i_11457>:
    8000b954:	0fe11983          	lh	s3,254(sp)

000000008000b958 <i_11458>:
    8000b958:	00178793          	addi	a5,a5,1 # 53bc5001 <main-0x2c43afff>
    8000b95c:	fefd74e3          	bleu	a5,s10,8000b944 <i_11453>

000000008000b960 <i_11459>:
    8000b960:	07c16c03          	lwu	s8,124(sp)

000000008000b964 <i_11460>:
    8000b964:	018efa63          	bleu	s8,t4,8000b978 <i_11465>

000000008000b968 <i_11461>:
    8000b968:	f7313423          	sd	s3,-152(sp)

000000008000b96c <i_11462>:
    8000b96c:	01dc6463          	bltu	s8,t4,8000b974 <i_11464>

000000008000b970 <i_11463>:
    8000b970:	fd211d03          	lh	s10,-46(sp)

000000008000b974 <i_11464>:
    8000b974:	01100b13          	li	s6,17

000000008000b978 <i_11465>:
    8000b978:	016d5d33          	srl	s10,s10,s6

000000008000b97c <i_11466>:
    8000b97c:	e5310423          	sb	s3,-440(sp)

000000008000b980 <i_11467>:
    8000b980:	8a600e93          	li	t4,-1882

000000008000b984 <i_11468>:
    8000b984:	8af00a93          	li	s5,-1873

000000008000b988 <i_11469>:
    8000b988:	19611b03          	lh	s6,406(sp)

000000008000b98c <i_11470>:
    8000b98c:	016d6433          	or	s0,s10,s6

000000008000b990 <i_11471>:
    8000b990:	001e8e93          	addi	t4,t4,1
    8000b994:	ffdafae3          	bleu	t4,s5,8000b988 <i_11469>

000000008000b998 <i_11472>:
    8000b998:	0039df1b          	srliw	t5,s3,0x3

000000008000b99c <i_11473>:
    8000b99c:	038b09b3          	mul	s3,s6,s8

000000008000b9a0 <i_11474>:
    8000b9a0:	01513023          	sd	s5,0(sp)

000000008000b9a4 <i_11475>:
    8000b9a4:	08c12a83          	lw	s5,140(sp)

000000008000b9a8 <i_11476>:
    8000b9a8:	008f5663          	ble	s0,t5,8000b9b4 <i_11479>

000000008000b9ac <i_11477>:
    8000b9ac:	003a9b1b          	slliw	s6,s5,0x3

000000008000b9b0 <i_11478>:
    8000b9b0:	016f4f33          	xor	t5,t5,s6

000000008000b9b4 <i_11479>:
    8000b9b4:	03db5833          	divu	a6,s6,t4

000000008000b9b8 <i_11480>:
    8000b9b8:	08014783          	lbu	a5,128(sp)

000000008000b9bc <i_11481>:
    8000b9bc:	00279263          	bne	a5,sp,8000b9c0 <i_11482>

000000008000b9c0 <i_11482>:
    8000b9c0:	1b610ca3          	sb	s6,441(sp)

000000008000b9c4 <i_11483>:
    8000b9c4:	fe015683          	lhu	a3,-32(sp)

000000008000b9c8 <i_11484>:
    8000b9c8:	0cd12423          	sw	a3,200(sp)

000000008000b9cc <i_11485>:
    8000b9cc:	f7610623          	sb	s6,-148(sp)

000000008000b9d0 <i_11486>:
    8000b9d0:	02df0bb3          	mul	s7,t5,a3

000000008000b9d4 <i_11487>:
    8000b9d4:	f98107a3          	sb	s8,-113(sp)

000000008000b9d8 <i_11488>:
    8000b9d8:	00000013          	nop

000000008000b9dc <i_11489>:
    8000b9dc:	77e00c13          	li	s8,1918

000000008000b9e0 <i_11490>:
    8000b9e0:	78c00a93          	li	s5,1932

000000008000b9e4 <i_11491>:
    8000b9e4:	08215c83          	lhu	s9,130(sp)

000000008000b9e8 <i_11492>:
    8000b9e8:	fdb13423          	sd	s11,-56(sp)

000000008000b9ec <i_11493>:
    8000b9ec:	13812623          	sw	s8,300(sp)

000000008000b9f0 <i_11494>:
    8000b9f0:	031ce063          	bltu	s9,a7,8000ba10 <i_11502>

000000008000b9f4 <i_11495>:
    8000b9f4:	0197f863          	bleu	s9,a5,8000ba04 <i_11499>

000000008000b9f8 <i_11496>:
    8000b9f8:	01000193          	li	gp,16

000000008000b9fc <i_11497>:
    8000b9fc:	4038533b          	sraw	t1,a6,gp

000000008000ba00 <i_11498>:
    8000ba00:	07215383          	lhu	t2,114(sp)

000000008000ba04 <i_11499>:
    8000ba04:	ec013483          	ld	s1,-320(sp)

000000008000ba08 <i_11500>:
    8000ba08:	04711a23          	sh	t2,84(sp)

000000008000ba0c <i_11501>:
    8000ba0c:	00000013          	nop

000000008000ba10 <i_11502>:
    8000ba10:	030de333          	rem	t1,s11,a6

000000008000ba14 <i_11503>:
    8000ba14:	02012f03          	lw	t5,32(sp)

000000008000ba18 <i_11504>:
    8000ba18:	11f11523          	sh	t6,266(sp)

000000008000ba1c <i_11505>:
    8000ba1c:	001c0c13          	addi	s8,s8,1
    8000ba20:	fd8a92e3          	bne	s5,s8,8000b9e4 <i_11491>

000000008000ba24 <i_11506>:
    8000ba24:	e6c10b03          	lb	s6,-404(sp)

000000008000ba28 <i_11507>:
    8000ba28:	023999b3          	mulh	s3,s3,gp

000000008000ba2c <i_11508>:
    8000ba2c:	e99101a3          	sb	s9,-381(sp)

000000008000ba30 <i_11509>:
    8000ba30:	016e8bb3          	add	s7,t4,s6

000000008000ba34 <i_11510>:
    8000ba34:	01785263          	ble	s7,a6,8000ba38 <i_11511>

000000008000ba38 <i_11511>:
    8000ba38:	11812023          	sw	s8,256(sp)

000000008000ba3c <i_11512>:
    8000ba3c:	f4f14c03          	lbu	s8,-177(sp)

000000008000ba40 <i_11513>:
    8000ba40:	1c314b83          	lbu	s7,451(sp)

000000008000ba44 <i_11514>:
    8000ba44:	03e00493          	li	s1,62

000000008000ba48 <i_11515>:
    8000ba48:	009c1eb3          	sll	t4,s8,s1

000000008000ba4c <i_11516>:
    8000ba4c:	03800993          	li	s3,56

000000008000ba50 <i_11517>:
    8000ba50:	0137dc33          	srl	s8,a5,s3

000000008000ba54 <i_11518>:
    8000ba54:	02a4d463          	ble	a0,s1,8000ba7c <i_11528>

000000008000ba58 <i_11519>:
    8000ba58:	f7412783          	lw	a5,-140(sp)

000000008000ba5c <i_11520>:
    8000ba5c:	fa016983          	lwu	s3,-96(sp)

000000008000ba60 <i_11521>:
    8000ba60:	e3510583          	lb	a1,-459(sp)

000000008000ba64 <i_11522>:
    8000ba64:	e8b13423          	sd	a1,-376(sp)

000000008000ba68 <i_11523>:
    8000ba68:	f0c14d03          	lbu	s10,-244(sp)

000000008000ba6c <i_11524>:
    8000ba6c:	01a587b3          	add	a5,a1,s10

000000008000ba70 <i_11525>:
    8000ba70:	00b48463          	beq	s1,a1,8000ba78 <i_11527>

000000008000ba74 <i_11526>:
    8000ba74:	f4f11323          	sh	a5,-186(sp)

000000008000ba78 <i_11527>:
    8000ba78:	00b5d263          	ble	a1,a1,8000ba7c <i_11528>

000000008000ba7c <i_11528>:
    8000ba7c:	7577859b          	addiw	a1,a5,1879

000000008000ba80 <i_11529>:
    8000ba80:	10f10223          	sb	a5,260(sp)

000000008000ba84 <i_11530>:
    8000ba84:	00b5d663          	ble	a1,a1,8000ba90 <i_11533>

000000008000ba88 <i_11531>:
    8000ba88:	1dc15983          	lhu	s3,476(sp)

000000008000ba8c <i_11532>:
    8000ba8c:	0fc14783          	lbu	a5,252(sp)

000000008000ba90 <i_11533>:
    8000ba90:	02f7e7bb          	remw	a5,a5,a5

000000008000ba94 <i_11534>:
    8000ba94:	413987bb          	subw	a5,s3,s3

000000008000ba98 <i_11535>:
    8000ba98:	00f79263          	bne	a5,a5,8000ba9c <i_11536>

000000008000ba9c <i_11536>:
    8000ba9c:	013d8263          	beq	s11,s3,8000baa0 <i_11537>

000000008000baa0 <i_11537>:
    8000baa0:	02f7c463          	blt	a5,a5,8000bac8 <i_11547>

000000008000baa4 <i_11538>:
    8000baa4:	a6a64993          	xori	s3,a2,-1430

000000008000baa8 <i_11539>:
    8000baa8:	4017de1b          	sraiw	t3,a5,0x1

000000008000baac <i_11540>:
    8000baac:	0037d793          	srli	a5,a5,0x3

000000008000bab0 <i_11541>:
    8000bab0:	1d011623          	sh	a6,460(sp)

000000008000bab4 <i_11542>:
    8000bab4:	013c8a63          	beq	s9,s3,8000bac8 <i_11547>

000000008000bab8 <i_11543>:
    8000bab8:	f9910c23          	sb	s9,-104(sp)

000000008000babc <i_11544>:
    8000babc:	039cdcbb          	divuw	s9,s9,s9

000000008000bac0 <i_11545>:
    8000bac0:	f9c12223          	sw	t3,-124(sp)

000000008000bac4 <i_11546>:
    8000bac4:	19913023          	sd	s9,384(sp)

000000008000bac8 <i_11547>:
    8000bac8:	03ce1063          	bne	t3,t3,8000bae8 <i_11555>

000000008000bacc <i_11548>:
    8000bacc:	402d5b1b          	sraiw	s6,s10,0x2

000000008000bad0 <i_11549>:
    8000bad0:	019b0b33          	add	s6,s6,s9

000000008000bad4 <i_11550>:
    8000bad4:	00000013          	nop

000000008000bad8 <i_11551>:
    8000bad8:	e3612a23          	sw	s6,-460(sp)

000000008000badc <i_11552>:
    8000badc:	e2713823          	sd	t2,-464(sp)

000000008000bae0 <i_11553>:
    8000bae0:	00000013          	nop

000000008000bae4 <i_11554>:
    8000bae4:	0263d1bb          	divuw	gp,t2,t1

000000008000bae8 <i_11555>:
    8000bae8:	00000013          	nop

000000008000baec <i_11556>:
    8000baec:	404f521b          	sraiw	tp,t5,0x4

000000008000baf0 <i_11557>:
    8000baf0:	87500393          	li	t2,-1931

000000008000baf4 <i_11558>:
    8000baf4:	88300c93          	li	s9,-1917

000000008000baf8 <i_11559>:
    8000baf8:	f9f10303          	lb	t1,-97(sp)

000000008000bafc <i_11560>:
    8000bafc:	0246d1b3          	divu	gp,a3,tp

000000008000bb00 <i_11561>:
    8000bb00:	0f211183          	lh	gp,242(sp)

000000008000bb04 <i_11562>:
    8000bb04:	00319863          	bne	gp,gp,8000bb14 <i_11566>

000000008000bb08 <i_11563>:
    8000bb08:	e4611b23          	sh	t1,-426(sp)

000000008000bb0c <i_11564>:
    8000bb0c:	00000013          	nop

000000008000bb10 <i_11565>:
    8000bb10:	e3a11303          	lh	t1,-454(sp)

000000008000bb14 <i_11566>:
    8000bb14:	0ea15183          	lhu	gp,234(sp)

000000008000bb18 <i_11567>:
    8000bb18:	a0918d1b          	addiw	s10,gp,-1527

000000008000bb1c <i_11568>:
    8000bb1c:	10310323          	sb	gp,262(sp)

000000008000bb20 <i_11569>:
    8000bb20:	00138393          	addi	t2,t2,1
    8000bb24:	fd93cae3          	blt	t2,s9,8000baf8 <i_11559>

000000008000bb28 <i_11570>:
    8000bb28:	4041d993          	srai	s3,gp,0x4

000000008000bb2c <i_11571>:
    8000bb2c:	41b301b3          	sub	gp,t1,s11

000000008000bb30 <i_11572>:
    8000bb30:	09013a83          	ld	s5,144(sp)

000000008000bb34 <i_11573>:
    8000bb34:	20e08a1b          	addiw	s4,ra,526

000000008000bb38 <i_11574>:
    8000bb38:	002ada13          	srli	s4,s5,0x2

000000008000bb3c <i_11575>:
    8000bb3c:	0231e463          	bltu	gp,gp,8000bb64 <i_11585>

000000008000bb40 <i_11576>:
    8000bb40:	04c14c83          	lbu	s9,76(sp)

000000008000bb44 <i_11577>:
    8000bb44:	01200293          	li	t0,18

000000008000bb48 <i_11578>:
    8000bb48:	005a12bb          	sllw	t0,s4,t0

000000008000bb4c <i_11579>:
    8000bb4c:	10614a03          	lbu	s4,262(sp)

000000008000bb50 <i_11580>:
    8000bb50:	f1512623          	sw	s5,-244(sp)

000000008000bb54 <i_11581>:
    8000bb54:	17411f23          	sh	s4,382(sp)

000000008000bb58 <i_11582>:
    8000bb58:	0f611a03          	lh	s4,246(sp)

000000008000bb5c <i_11583>:
    8000bb5c:	034a6a3b          	remw	s4,s4,s4

000000008000bb60 <i_11584>:
    8000bb60:	e9410da3          	sb	s4,-357(sp)

000000008000bb64 <i_11585>:
    8000bb64:	039a5cbb          	divuw	s9,s4,s9

000000008000bb68 <i_11586>:
    8000bb68:	039a6463          	bltu	s4,s9,8000bb90 <i_11596>

000000008000bb6c <i_11587>:
    8000bb6c:	06614c83          	lbu	s9,102(sp)

000000008000bb70 <i_11588>:
    8000bb70:	fd911e23          	sh	s9,-36(sp)

000000008000bb74 <i_11589>:
    8000bb74:	06610303          	lb	t1,102(sp)

000000008000bb78 <i_11590>:
    8000bb78:	5d36061b          	addiw	a2,a2,1491

000000008000bb7c <i_11591>:
    8000bb7c:	006c9c63          	bne	s9,t1,8000bb94 <i_11597>

000000008000bb80 <i_11592>:
    8000bb80:	01f00613          	li	a2,31

000000008000bb84 <i_11593>:
    8000bb84:	40c65633          	sra	a2,a2,a2

000000008000bb88 <i_11594>:
    8000bb88:	02c6763b          	remuw	a2,a2,a2

000000008000bb8c <i_11595>:
    8000bb8c:	eae10ca3          	sb	a4,-327(sp)

000000008000bb90 <i_11596>:
    8000bb90:	f9815603          	lhu	a2,-104(sp)

000000008000bb94 <i_11597>:
    8000bb94:	14816403          	lwu	s0,328(sp)

000000008000bb98 <i_11598>:
    8000bb98:	e8f14283          	lbu	t0,-369(sp)

000000008000bb9c <i_11599>:
    8000bb9c:	73500993          	li	s3,1845

000000008000bba0 <i_11600>:
    8000bba0:	74600d93          	li	s11,1862

000000008000bba4 <i_11601>:
    8000bba4:	49266493          	ori	s1,a2,1170

000000008000bba8 <i_11602>:
    8000bba8:	f5c11383          	lh	t2,-164(sp)

000000008000bbac <i_11603>:
    8000bbac:	85500613          	li	a2,-1963

000000008000bbb0 <i_11604>:
    8000bbb0:	86300313          	li	t1,-1949

000000008000bbb4 <i_11605>:
    8000bbb4:	005a1263          	bne	s4,t0,8000bbb8 <i_11606>

000000008000bbb8 <i_11606>:
    8000bbb8:	00000013          	nop

000000008000bbbc <i_11607>:
    8000bbbc:	10e14083          	lbu	ra,270(sp)

000000008000bbc0 <i_11608>:
    8000bbc0:	0bf14403          	lbu	s0,191(sp)

000000008000bbc4 <i_11609>:
    8000bbc4:	02c64ab3          	div	s5,a2,a2

000000008000bbc8 <i_11610>:
    8000bbc8:	e7714503          	lbu	a0,-393(sp)

000000008000bbcc <i_11611>:
    8000bbcc:	00160613          	addi	a2,a2,1
    8000bbd0:	fec352e3          	ble	a2,t1,8000bbb4 <i_11605>

000000008000bbd4 <i_11612>:
    8000bbd4:	fe912623          	sw	s1,-20(sp)

000000008000bbd8 <i_11613>:
    8000bbd8:	00209413          	slli	s0,ra,0x2

000000008000bbdc <i_11614>:
    8000bbdc:	0279a433          	mulhsu	s0,s3,t2

000000008000bbe0 <i_11615>:
    8000bbe0:	00000013          	nop

000000008000bbe4 <i_11616>:
    8000bbe4:	08015f03          	lhu	t5,128(sp)

000000008000bbe8 <i_11617>:
    8000bbe8:	00198993          	addi	s3,s3,1
    8000bbec:	fbb99ce3          	bne	s3,s11,8000bba4 <i_11601>

000000008000bbf0 <i_11618>:
    8000bbf0:	01b0fdb3          	and	s11,ra,s11

000000008000bbf4 <i_11619>:
    8000bbf4:	04d10c83          	lb	s9,77(sp)

000000008000bbf8 <i_11620>:
    8000bbf8:	f1e10623          	sb	t5,-244(sp)

000000008000bbfc <i_11621>:
    8000bbfc:	12110c83          	lb	s9,289(sp)

000000008000bc00 <i_11622>:
    8000bc00:	035cbf33          	mulhu	t5,s9,s5

000000008000bc04 <i_11623>:
    8000bc04:	01556263          	bltu	a0,s5,8000bc08 <i_11624>

000000008000bc08 <i_11624>:
    8000bc08:	40928eb3          	sub	t4,t0,s1

000000008000bc0c <i_11625>:
    8000bc0c:	0fb11723          	sh	s11,238(sp)

000000008000bc10 <i_11626>:
    8000bc10:	10013403          	ld	s0,256(sp)

000000008000bc14 <i_11627>:
    8000bc14:	f1d11923          	sh	t4,-238(sp)

000000008000bc18 <i_11628>:
    8000bc18:	14db851b          	addiw	a0,s7,333

000000008000bc1c <i_11629>:
    8000bc1c:	01652533          	slt	a0,a0,s6

000000008000bc20 <i_11630>:
    8000bc20:	00000013          	nop

000000008000bc24 <i_11631>:
    8000bc24:	1be15f03          	lhu	t5,446(sp)

000000008000bc28 <i_11632>:
    8000bc28:	7d200e93          	li	t4,2002

000000008000bc2c <i_11633>:
    8000bc2c:	7da00993          	li	s3,2010

000000008000bc30 <i_11634>:
    8000bc30:	00844a63          	blt	s0,s0,8000bc44 <i_11639>

000000008000bc34 <i_11635>:
    8000bc34:	e7d107a3          	sb	t4,-401(sp)

000000008000bc38 <i_11636>:
    8000bc38:	00000013          	nop

000000008000bc3c <i_11637>:
    8000bc3c:	e6a13023          	sd	a0,-416(sp)

000000008000bc40 <i_11638>:
    8000bc40:	fd813f03          	ld	t5,-40(sp)

000000008000bc44 <i_11639>:
    8000bc44:	4225051b          	addiw	a0,a0,1058

000000008000bc48 <i_11640>:
    8000bc48:	03e12623          	sw	t5,44(sp)

000000008000bc4c <i_11641>:
    8000bc4c:	1a013503          	ld	a0,416(sp)

000000008000bc50 <i_11642>:
    8000bc50:	14a11523          	sh	a0,330(sp)

000000008000bc54 <i_11643>:
    8000bc54:	00000013          	nop

000000008000bc58 <i_11644>:
    8000bc58:	001e8e93          	addi	t4,t4,1
    8000bc5c:	fd3eeae3          	bltu	t4,s3,8000bc30 <i_11634>

000000008000bc60 <i_11645>:
    8000bc60:	f3e12423          	sw	t5,-216(sp)

000000008000bc64 <i_11646>:
    8000bc64:	00a507b3          	add	a5,a0,a0

000000008000bc68 <i_11647>:
    8000bc68:	02a54263          	blt	a0,a0,8000bc8c <i_11656>

000000008000bc6c <i_11648>:
    8000bc6c:	f8a103a3          	sb	a0,-121(sp)

000000008000bc70 <i_11649>:
    8000bc70:	28950f13          	addi	t5,a0,649

000000008000bc74 <i_11650>:
    8000bc74:	e6e10503          	lb	a0,-402(sp)

000000008000bc78 <i_11651>:
    8000bc78:	002a961b          	slliw	a2,s5,0x2

000000008000bc7c <i_11652>:
    8000bc7c:	02b00513          	li	a0,43

000000008000bc80 <i_11653>:
    8000bc80:	00af15b3          	sll	a1,t5,a0

000000008000bc84 <i_11654>:
    8000bc84:	00a5fe63          	bleu	a0,a1,8000bca0 <i_11661>

000000008000bc88 <i_11655>:
    8000bc88:	ecf12e23          	sw	a5,-292(sp)

000000008000bc8c <i_11656>:
    8000bc8c:	12c13423          	sd	a2,296(sp)

000000008000bc90 <i_11657>:
    8000bc90:	20f3e393          	ori	t2,t2,527

000000008000bc94 <i_11658>:
    8000bc94:	00c3c663          	blt	t2,a2,8000bca0 <i_11661>

000000008000bc98 <i_11659>:
    8000bc98:	08a15383          	lhu	t2,138(sp)

000000008000bc9c <i_11660>:
    8000bc9c:	00000013          	nop

000000008000bca0 <i_11661>:
    8000bca0:	10710523          	sb	t2,266(sp)

000000008000bca4 <i_11662>:
    8000bca4:	00000013          	nop

000000008000bca8 <i_11663>:
    8000bca8:	83200513          	li	a0,-1998

000000008000bcac <i_11664>:
    8000bcac:	83900a13          	li	s4,-1991

000000008000bcb0 <i_11665>:
    8000bcb0:	06a13023          	sd	a0,96(sp)

000000008000bcb4 <i_11666>:
    8000bcb4:	00b10523          	sb	a1,10(sp)

000000008000bcb8 <i_11667>:
    8000bcb8:	7da00393          	li	t2,2010

000000008000bcbc <i_11668>:
    8000bcbc:	7eb00293          	li	t0,2027

000000008000bcc0 <i_11669>:
    8000bcc0:	03100613          	li	a2,49

000000008000bcc4 <i_11670>:
    8000bcc4:	40c3d633          	sra	a2,t2,a2

000000008000bcc8 <i_11671>:
    8000bcc8:	f7411a83          	lh	s5,-140(sp)

000000008000bccc <i_11672>:
    8000bccc:	00138393          	addi	t2,t2,1
    8000bcd0:	fe72d8e3          	ble	t2,t0,8000bcc0 <i_11669>

000000008000bcd4 <i_11673>:
    8000bcd4:	f6f14d03          	lbu	s10,-145(sp)

000000008000bcd8 <i_11674>:
    8000bcd8:	00150513          	addi	a0,a0,1
    8000bcdc:	fd456ae3          	bltu	a0,s4,8000bcb0 <i_11665>

000000008000bce0 <i_11675>:
    8000bce0:	00a11823          	sh	a0,16(sp)

000000008000bce4 <i_11676>:
    8000bce4:	02914503          	lbu	a0,41(sp)

000000008000bce8 <i_11677>:
    8000bce8:	0de10503          	lb	a0,222(sp)

000000008000bcec <i_11678>:
    8000bcec:	74300a13          	li	s4,1859

000000008000bcf0 <i_11679>:
    8000bcf0:	75200d13          	li	s10,1874

000000008000bcf4 <i_11680>:
    8000bcf4:	07610503          	lb	a0,118(sp)

000000008000bcf8 <i_11681>:
    8000bcf8:	0302e463          	bltu	t0,a6,8000bd20 <i_11690>

000000008000bcfc <i_11682>:
    8000bcfc:	40a3863b          	subw	a2,t2,a0

000000008000bd00 <i_11683>:
    8000bd00:	1293e393          	ori	t2,t2,297

000000008000bd04 <i_11684>:
    8000bd04:	001a0a13          	addi	s4,s4,1
    8000bd08:	ff4d76e3          	bleu	s4,s10,8000bcf4 <i_11680>

000000008000bd0c <i_11685>:
    8000bd0c:	01d00293          	li	t0,29

000000008000bd10 <i_11686>:
    8000bd10:	005d933b          	sllw	t1,s11,t0

000000008000bd14 <i_11687>:
    8000bd14:	40455513          	srai	a0,a0,0x4

000000008000bd18 <i_11688>:
    8000bd18:	03254463          	blt	a0,s2,8000bd40 <i_11698>

000000008000bd1c <i_11689>:
    8000bd1c:	07e14503          	lbu	a0,126(sp)

000000008000bd20 <i_11690>:
    8000bd20:	c7a0851b          	addiw	a0,ra,-902

000000008000bd24 <i_11691>:
    8000bd24:	0035151b          	slliw	a0,a0,0x3

000000008000bd28 <i_11692>:
    8000bd28:	ebb14503          	lbu	a0,-325(sp)

000000008000bd2c <i_11693>:
    8000bd2c:	02a5cc3b          	divw	s8,a1,a0

000000008000bd30 <i_11694>:
    8000bd30:	f7416d03          	lwu	s10,-140(sp)

000000008000bd34 <i_11695>:
    8000bd34:	03a47bbb          	remuw	s7,s0,s10

000000008000bd38 <i_11696>:
    8000bd38:	00000013          	nop

000000008000bd3c <i_11697>:
    8000bd3c:	f9013b83          	ld	s7,-112(sp)

000000008000bd40 <i_11698>:
    8000bd40:	25444b13          	xori	s6,s0,596

000000008000bd44 <i_11699>:
    8000bd44:	00000013          	nop

000000008000bd48 <i_11700>:
    8000bd48:	74e00093          	li	ra,1870

000000008000bd4c <i_11701>:
    8000bd4c:	75200413          	li	s0,1874

000000008000bd50 <i_11702>:
    8000bd50:	ef011d83          	lh	s11,-272(sp)

000000008000bd54 <i_11703>:
    8000bd54:	03f51663          	bne	a0,t6,8000bd80 <i_11713>

000000008000bd58 <i_11704>:
    8000bd58:	e9a15b83          	lhu	s7,-358(sp)

000000008000bd5c <i_11705>:
    8000bd5c:	f5015d83          	lhu	s11,-176(sp)

000000008000bd60 <i_11706>:
    8000bd60:	00108093          	addi	ra,ra,1
    8000bd64:	fe80c6e3          	blt	ra,s0,8000bd50 <i_11702>

000000008000bd68 <i_11707>:
    8000bd68:	00000013          	nop

000000008000bd6c <i_11708>:
    8000bd6c:	04013483          	ld	s1,64(sp)

000000008000bd70 <i_11709>:
    8000bd70:	00910fa3          	sb	s1,31(sp)

000000008000bd74 <i_11710>:
    8000bd74:	03e4e4b3          	rem	s1,s1,t5

000000008000bd78 <i_11711>:
    8000bd78:	0294d263          	ble	s1,s1,8000bd9c <i_11720>

000000008000bd7c <i_11712>:
    8000bd7c:	01b49e63          	bne	s1,s11,8000bd98 <i_11719>

000000008000bd80 <i_11713>:
    8000bd80:	3c44fd93          	andi	s11,s1,964

000000008000bd84 <i_11714>:
    8000bd84:	02813483          	ld	s1,40(sp)

000000008000bd88 <i_11715>:
    8000bd88:	1b615483          	lhu	s1,438(sp)

000000008000bd8c <i_11716>:
    8000bd8c:	00976c63          	bltu	a4,s1,8000bda4 <i_11722>

000000008000bd90 <i_11717>:
    8000bd90:	fbb11523          	sh	s11,-86(sp)

000000008000bd94 <i_11718>:
    8000bd94:	01be2e33          	slt	t3,t3,s11

000000008000bd98 <i_11719>:
    8000bd98:	02912623          	sw	s1,44(sp)

000000008000bd9c <i_11720>:
    8000bd9c:	fe913423          	sd	s1,-24(sp)

000000008000bda0 <i_11721>:
    8000bda0:	01cac263          	blt	s5,t3,8000bda4 <i_11722>

000000008000bda4 <i_11722>:
    8000bda4:	1a911a23          	sh	s1,436(sp)

000000008000bda8 <i_11723>:
    8000bda8:	0034d493          	srli	s1,s1,0x3

000000008000bdac <i_11724>:
    8000bdac:	14910323          	sb	s1,326(sp)

000000008000bdb0 <i_11725>:
    8000bdb0:	10016283          	lwu	t0,256(sp)

000000008000bdb4 <i_11726>:
    8000bdb4:	00000013          	nop

000000008000bdb8 <i_11727>:
    8000bdb8:	0c816583          	lwu	a1,200(sp)

000000008000bdbc <i_11728>:
    8000bdbc:	84300413          	li	s0,-1981

000000008000bdc0 <i_11729>:
    8000bdc0:	84a00193          	li	gp,-1974

000000008000bdc4 <i_11730>:
    8000bdc4:	00140413          	addi	s0,s0,1
    8000bdc8:	fe346ee3          	bltu	s0,gp,8000bdc4 <i_11730>

000000008000bdcc <i_11731>:
    8000bdcc:	07c11b23          	sh	t3,118(sp)

000000008000bdd0 <i_11732>:
    8000bdd0:	ea313823          	sd	gp,-336(sp)

000000008000bdd4 <i_11733>:
    8000bdd4:	02ee1263          	bne	t3,a4,8000bdf8 <i_11742>

000000008000bdd8 <i_11734>:
    8000bdd8:	16913023          	sd	s1,352(sp)

000000008000bddc <i_11735>:
    8000bddc:	0125ee63          	bltu	a1,s2,8000bdf8 <i_11742>

000000008000bde0 <i_11736>:
    8000bde0:	0e911223          	sh	s1,228(sp)

000000008000bde4 <i_11737>:
    8000bde4:	01000413          	li	s0,16

000000008000bde8 <i_11738>:
    8000bde8:	00819ebb          	sllw	t4,gp,s0

000000008000bdec <i_11739>:
    8000bdec:	ed010383          	lb	t2,-304(sp)

000000008000bdf0 <i_11740>:
    8000bdf0:	028c14b3          	mulh	s1,s8,s0

000000008000bdf4 <i_11741>:
    8000bdf4:	41948cb3          	sub	s9,s1,s9

000000008000bdf8 <i_11742>:
    8000bdf8:	06016803          	lwu	a6,96(sp)

000000008000bdfc <i_11743>:
    8000bdfc:	0073da63          	ble	t2,t2,8000be10 <i_11748>

000000008000be00 <i_11744>:
    8000be00:	e6812623          	sw	s0,-404(sp)

000000008000be04 <i_11745>:
    8000be04:	00139413          	slli	s0,t2,0x1

000000008000be08 <i_11746>:
    8000be08:	f6910da3          	sb	s1,-133(sp)

000000008000be0c <i_11747>:
    8000be0c:	e7912c23          	sw	s9,-392(sp)

000000008000be10 <i_11748>:
    8000be10:	039c9063          	bne	s9,s9,8000be30 <i_11756>

000000008000be14 <i_11749>:
    8000be14:	f4810aa3          	sb	s0,-171(sp)

000000008000be18 <i_11750>:
    8000be18:	ed816203          	lwu	tp,-296(sp)

000000008000be1c <i_11751>:
    8000be1c:	15c11c83          	lh	s9,348(sp)

000000008000be20 <i_11752>:
    8000be20:	1c811c23          	sh	s0,472(sp)

000000008000be24 <i_11753>:
    8000be24:	f4a03eb7          	lui	t4,0xf4a03

000000008000be28 <i_11754>:
    8000be28:	1e615803          	lhu	a6,486(sp)

000000008000be2c <i_11755>:
    8000be2c:	1d813303          	ld	t1,472(sp)

000000008000be30 <i_11756>:
    8000be30:	02633833          	mulhu	a6,t1,t1

000000008000be34 <i_11757>:
    8000be34:	0357d7bb          	divuw	a5,a5,s5

000000008000be38 <i_11758>:
    8000be38:	40185a9b          	sraiw	s5,a6,0x1

000000008000be3c <i_11759>:
    8000be3c:	01011223          	sh	a6,4(sp)

000000008000be40 <i_11760>:
    8000be40:	7eb00813          	li	a6,2027

000000008000be44 <i_11761>:
    8000be44:	7ff00e93          	li	t4,2047

000000008000be48 <i_11762>:
    8000be48:	00478c63          	beq	a5,tp,8000be60 <i_11768>

000000008000be4c <i_11763>:
    8000be4c:	01586863          	bltu	a6,s5,8000be5c <i_11767>

000000008000be50 <i_11764>:
    8000be50:	02d536b3          	mulhu	a3,a0,a3

000000008000be54 <i_11765>:
    8000be54:	015afc63          	bleu	s5,s5,8000be6c <i_11771>

000000008000be58 <i_11766>:
    8000be58:	0107e863          	bltu	a5,a6,8000be68 <i_11770>

000000008000be5c <i_11767>:
    8000be5c:	00000013          	nop

000000008000be60 <i_11768>:
    8000be60:	f9810683          	lb	a3,-104(sp)

000000008000be64 <i_11769>:
    8000be64:	11013823          	sd	a6,272(sp)

000000008000be68 <i_11770>:
    8000be68:	0ed10683          	lb	a3,237(sp)

000000008000be6c <i_11771>:
    8000be6c:	ee411f23          	sh	tp,-258(sp)

000000008000be70 <i_11772>:
    8000be70:	40ca0a3b          	subw	s4,s4,a2

000000008000be74 <i_11773>:
    8000be74:	f3e11683          	lh	a3,-194(sp)

000000008000be78 <i_11774>:
    8000be78:	0246c663          	blt	a3,tp,8000bea4 <i_11784>

000000008000be7c <i_11775>:
    8000be7c:	00180813          	addi	a6,a6,1
    8000be80:	fd0ed4e3          	ble	a6,t4,8000be48 <i_11762>

000000008000be84 <i_11776>:
    8000be84:	00000013          	nop

000000008000be88 <i_11777>:
    8000be88:	03cec23b          	divw	tp,t4,t3

000000008000be8c <i_11778>:
    8000be8c:	0cd10ea3          	sb	a3,221(sp)

000000008000be90 <i_11779>:
    8000be90:	ead13c23          	sd	a3,-328(sp)

000000008000be94 <i_11780>:
    8000be94:	0046e863          	bltu	a3,tp,8000bea4 <i_11784>

000000008000be98 <i_11781>:
    8000be98:	4046d793          	srai	a5,a3,0x4

000000008000be9c <i_11782>:
    8000be9c:	ff012783          	lw	a5,-16(sp)

000000008000bea0 <i_11783>:
    8000bea0:	e5c12b83          	lw	s7,-420(sp)

000000008000bea4 <i_11784>:
    8000bea4:	0ad10c23          	sb	a3,184(sp)

000000008000bea8 <i_11785>:
    8000bea8:	ef712c23          	sw	s7,-264(sp)

000000008000beac <i_11786>:
    8000beac:	17012d83          	lw	s11,368(sp)

000000008000beb0 <i_11787>:
    8000beb0:	009a5a63          	ble	s1,s4,8000bec4 <i_11792>

000000008000beb4 <i_11788>:
    8000beb4:	03bbdbb3          	divu	s7,s7,s11

000000008000beb8 <i_11789>:
    8000beb8:	13c12483          	lw	s1,316(sp)

000000008000bebc <i_11790>:
    8000bebc:	f6816483          	lwu	s1,-152(sp)

000000008000bec0 <i_11791>:
    8000bec0:	0174b5b3          	sltu	a1,s1,s7

000000008000bec4 <i_11792>:
    8000bec4:	0ab13823          	sd	a1,176(sp)

000000008000bec8 <i_11793>:
    8000bec8:	f8314603          	lbu	a2,-125(sp)

000000008000becc <i_11794>:
    8000becc:	02b90bb3          	mul	s7,s2,a1

000000008000bed0 <i_11795>:
    8000bed0:	73238e1b          	addiw	t3,t2,1842

000000008000bed4 <i_11796>:
    8000bed4:	ed813b83          	ld	s7,-296(sp)

000000008000bed8 <i_11797>:
    8000bed8:	fbc16583          	lwu	a1,-68(sp)

000000008000bedc <i_11798>:
    8000bedc:	ae3baf13          	slti	t5,s7,-1309

000000008000bee0 <i_11799>:
    8000bee0:	017f7bb3          	and	s7,t5,s7

000000008000bee4 <i_11800>:
    8000bee4:	04b7b513          	sltiu	a0,a5,75

000000008000bee8 <i_11801>:
    8000bee8:	02000d93          	li	s11,32

000000008000beec <i_11802>:
    8000beec:	01be1b33          	sll	s6,t3,s11

000000008000bef0 <i_11803>:
    8000bef0:	01cb7c63          	bleu	t3,s6,8000bf08 <i_11809>

000000008000bef4 <i_11804>:
    8000bef4:	bc852993          	slti	s3,a0,-1080

000000008000bef8 <i_11805>:
    8000bef8:	03500813          	li	a6,53

000000008000befc <i_11806>:
    8000befc:	01055e33          	srl	t3,a0,a6

000000008000bf00 <i_11807>:
    8000bf00:	fca11523          	sh	a0,-54(sp)

000000008000bf04 <i_11808>:
    8000bf04:	09b10e23          	sb	s11,156(sp)

000000008000bf08 <i_11809>:
    8000bf08:	03bf7063          	bleu	s11,t5,8000bf28 <i_11817>

000000008000bf0c <i_11810>:
    8000bf0c:	efe13423          	sd	t5,-280(sp)

000000008000bf10 <i_11811>:
    8000bf10:	0b011623          	sh	a6,172(sp)

000000008000bf14 <i_11812>:
    8000bf14:	e7713823          	sd	s7,-400(sp)

000000008000bf18 <i_11813>:
    8000bf18:	01398e63          	beq	s3,s3,8000bf34 <i_11820>

000000008000bf1c <i_11814>:
    8000bf1c:	01384863          	blt	a6,s3,8000bf2c <i_11818>

000000008000bf20 <i_11815>:
    8000bf20:	01b94863          	blt	s2,s11,8000bf30 <i_11819>

000000008000bf24 <i_11816>:
    8000bf24:	09e13423          	sd	t5,136(sp)

000000008000bf28 <i_11817>:
    8000bf28:	0c012f03          	lw	t5,192(sp)

000000008000bf2c <i_11818>:
    8000bf2c:	0be11f23          	sh	t5,190(sp)

000000008000bf30 <i_11819>:
    8000bf30:	fb012083          	lw	ra,-80(sp)

000000008000bf34 <i_11820>:
    8000bf34:	003dd81b          	srliw	a6,s11,0x3

000000008000bf38 <i_11821>:
    8000bf38:	01080833          	add	a6,a6,a6

000000008000bf3c <i_11822>:
    8000bf3c:	00000013          	nop

000000008000bf40 <i_11823>:
    8000bf40:	89900693          	li	a3,-1895

000000008000bf44 <i_11824>:
    8000bf44:	8a000a13          	li	s4,-1888

000000008000bf48 <i_11825>:
    8000bf48:	00135813          	srli	a6,t1,0x1

000000008000bf4c <i_11826>:
    8000bf4c:	efc11623          	sh	t3,-276(sp)

000000008000bf50 <i_11827>:
    8000bf50:	00168693          	addi	a3,a3,1 # 1bb1d819 <main-0x644e27e7>
    8000bf54:	feda5ae3          	ble	a3,s4,8000bf48 <i_11825>

000000008000bf58 <i_11828>:
    8000bf58:	f8c15e03          	lhu	t3,-116(sp)

000000008000bf5c <i_11829>:
    8000bf5c:	010e4663          	blt	t3,a6,8000bf68 <i_11832>

000000008000bf60 <i_11830>:
    8000bf60:	18a10a23          	sb	a0,404(sp)

000000008000bf64 <i_11831>:
    8000bf64:	07d10a03          	lb	s4,125(sp)

000000008000bf68 <i_11832>:
    8000bf68:	11215183          	lhu	gp,274(sp)

000000008000bf6c <i_11833>:
    8000bf6c:	00000013          	nop

000000008000bf70 <i_11834>:
    8000bf70:	7e200293          	li	t0,2018

000000008000bf74 <i_11835>:
    8000bf74:	7ea00513          	li	a0,2026

000000008000bf78 <i_11836>:
    8000bf78:	00128293          	addi	t0,t0,1
    8000bf7c:	fea29ee3          	bne	t0,a0,8000bf78 <i_11836>

000000008000bf80 <i_11837>:
    8000bf80:	f8816503          	lwu	a0,-120(sp)

000000008000bf84 <i_11838>:
    8000bf84:	ee710c83          	lb	s9,-281(sp)

000000008000bf88 <i_11839>:
    8000bf88:	010a1863          	bne	s4,a6,8000bf98 <i_11843>

000000008000bf8c <i_11840>:
    8000bf8c:	e1c16803          	lwu	a6,-484(sp)

000000008000bf90 <i_11841>:
    8000bf90:	12d14a83          	lbu	s5,301(sp)

000000008000bf94 <i_11842>:
    8000bf94:	fb810503          	lb	a0,-72(sp)

000000008000bf98 <i_11843>:
    8000bf98:	e8415d03          	lhu	s10,-380(sp)

000000008000bf9c <i_11844>:
    8000bf9c:	00000013          	nop

000000008000bfa0 <i_11845>:
    8000bfa0:	78d00e13          	li	t3,1933

000000008000bfa4 <i_11846>:
    8000bfa4:	79700193          	li	gp,1943

000000008000bfa8 <i_11847>:
    8000bfa8:	f8816503          	lwu	a0,-120(sp)

000000008000bfac <i_11848>:
    8000bfac:	03c50463          	beq	a0,t3,8000bfd4 <i_11858>

000000008000bfb0 <i_11849>:
    8000bfb0:	41a50db3          	sub	s11,a0,s10

000000008000bfb4 <i_11850>:
    8000bfb4:	02900093          	li	ra,41

000000008000bfb8 <i_11851>:
    8000bfb8:	001d55b3          	srl	a1,s10,ra

000000008000bfbc <i_11852>:
    8000bfbc:	0a113c23          	sd	ra,184(sp)

000000008000bfc0 <i_11853>:
    8000bfc0:	00000013          	nop

000000008000bfc4 <i_11854>:
    8000bfc4:	01813c83          	ld	s9,24(sp)

000000008000bfc8 <i_11855>:
    8000bfc8:	1ca13023          	sd	a0,448(sp)

000000008000bfcc <i_11856>:
    8000bfcc:	0032e863          	bltu	t0,gp,8000bfdc <i_11860>

000000008000bfd0 <i_11857>:
    8000bfd0:	0d812a03          	lw	s4,216(sp)

000000008000bfd4 <i_11858>:
    8000bfd4:	4041d313          	srai	t1,gp,0x4

000000008000bfd8 <i_11859>:
    8000bfd8:	17911523          	sh	s9,362(sp)

000000008000bfdc <i_11860>:
    8000bfdc:	023cf2b3          	remu	t0,s9,gp

000000008000bfe0 <i_11861>:
    8000bfe0:	00000013          	nop

000000008000bfe4 <i_11862>:
    8000bfe4:	001e0e13          	addi	t3,t3,1
    8000bfe8:	fc3e40e3          	blt	t3,gp,8000bfa8 <i_11847>

000000008000bfec <i_11863>:
    8000bfec:	0f110183          	lb	gp,241(sp)

000000008000bff0 <i_11864>:
    8000bff0:	0de15a83          	lhu	s5,222(sp)

000000008000bff4 <i_11865>:
    8000bff4:	1fe101a3          	sb	t5,483(sp)

000000008000bff8 <i_11866>:
    8000bff8:	7295edb7          	lui	s11,0x7295e

000000008000bffc <i_11867>:
    8000bffc:	04013283          	ld	t0,64(sp)

000000008000c000 <i_11868>:
    8000c000:	0252fab3          	remu	s5,t0,t0

000000008000c004 <i_11869>:
    8000c004:	025ad263          	ble	t0,s5,8000c028 <i_11878>

000000008000c008 <i_11870>:
    8000c008:	ee512823          	sw	t0,-272(sp)

000000008000c00c <i_11871>:
    8000c00c:	02410b23          	sb	tp,54(sp)

000000008000c010 <i_11872>:
    8000c010:	14413823          	sd	tp,336(sp)

000000008000c014 <i_11873>:
    8000c014:	00538ab3          	add	s5,t2,t0

000000008000c018 <i_11874>:
    8000c018:	229abe93          	sltiu	t4,s5,553

000000008000c01c <i_11875>:
    8000c01c:	03428263          	beq	t0,s4,8000c040 <i_11884>

000000008000c020 <i_11876>:
    8000c020:	1e410e83          	lb	t4,484(sp)

000000008000c024 <i_11877>:
    8000c024:	004e9a9b          	slliw	s5,t4,0x4

000000008000c028 <i_11878>:
    8000c028:	005ef2b3          	and	t0,t4,t0

000000008000c02c <i_11879>:
    8000c02c:	005a9e63          	bne	s5,t0,8000c048 <i_11886>

000000008000c030 <i_11880>:
    8000c030:	ea015a83          	lhu	s5,-352(sp)

000000008000c034 <i_11881>:
    8000c034:	13412583          	lw	a1,308(sp)

000000008000c038 <i_11882>:
    8000c038:	04011a83          	lh	s5,64(sp)

000000008000c03c <i_11883>:
    8000c03c:	f7813c03          	ld	s8,-136(sp)

000000008000c040 <i_11884>:
    8000c040:	0185ca63          	blt	a1,s8,8000c054 <i_11889>

000000008000c044 <i_11885>:
    8000c044:	018c0c33          	add	s8,s8,s8

000000008000c048 <i_11886>:
    8000c048:	03546433          	rem	s0,s0,s5

000000008000c04c <i_11887>:
    8000c04c:	018c1c63          	bne	s8,s8,8000c064 <i_11893>

000000008000c050 <i_11888>:
    8000c050:	0d812623          	sw	s8,204(sp)

000000008000c054 <i_11889>:
    8000c054:	f8712623          	sw	t2,-116(sp)

000000008000c058 <i_11890>:
    8000c058:	0a016b83          	lwu	s7,160(sp)

000000008000c05c <i_11891>:
    8000c05c:	1d415c03          	lhu	s8,468(sp)

000000008000c060 <i_11892>:
    8000c060:	00f00c13          	li	s8,15

000000008000c064 <i_11893>:
    8000c064:	418c5c3b          	sraw	s8,s8,s8

000000008000c068 <i_11894>:
    8000c068:	00000013          	nop

000000008000c06c <i_11895>:
    8000c06c:	85300413          	li	s0,-1965

000000008000c070 <i_11896>:
    8000c070:	86100393          	li	t2,-1951

000000008000c074 <i_11897>:
    8000c074:	00000013          	nop

000000008000c078 <i_11898>:
    8000c078:	00140413          	addi	s0,s0,1
    8000c07c:	fe83dce3          	ble	s0,t2,8000c074 <i_11897>

000000008000c080 <i_11899>:
    8000c080:	f9810ca3          	sb	s8,-103(sp)

000000008000c084 <i_11900>:
    8000c084:	fd013c03          	ld	s8,-48(sp)

000000008000c088 <i_11901>:
    8000c088:	038c06bb          	mulw	a3,s8,s8

000000008000c08c <i_11902>:
    8000c08c:	03dc37b3          	mulhu	a5,s8,t4

000000008000c090 <i_11903>:
    8000c090:	03ba7a33          	remu	s4,s4,s11

000000008000c094 <i_11904>:
    8000c094:	0017919b          	slliw	gp,a5,0x1

000000008000c098 <i_11905>:
    8000c098:	04211083          	lh	ra,66(sp)

000000008000c09c <i_11906>:
    8000c09c:	0380c063          	blt	ra,s8,8000c0bc <i_11914>

000000008000c0a0 <i_11907>:
    8000c0a0:	00fa6663          	bltu	s4,a5,8000c0ac <i_11910>

000000008000c0a4 <i_11908>:
    8000c0a4:	02d69263          	bne	a3,a3,8000c0c8 <i_11917>

000000008000c0a8 <i_11909>:
    8000c0a8:	0380f43b          	remuw	s0,ra,s8

000000008000c0ac <i_11910>:
    8000c0ac:	032456bb          	divuw	a3,s0,s2

000000008000c0b0 <i_11911>:
    8000c0b0:	e4816c03          	lwu	s8,-440(sp)

000000008000c0b4 <i_11912>:
    8000c0b4:	00d6ca63          	blt	a3,a3,8000c0c8 <i_11917>

000000008000c0b8 <i_11913>:
    8000c0b8:	eb211b83          	lh	s7,-334(sp)

000000008000c0bc <i_11914>:
    8000c0bc:	19414403          	lbu	s0,404(sp)

000000008000c0c0 <i_11915>:
    8000c0c0:	403c5b9b          	sraiw	s7,s8,0x3

000000008000c0c4 <i_11916>:
    8000c0c4:	02215b83          	lhu	s7,34(sp)

000000008000c0c8 <i_11917>:
    8000c0c8:	f9c16403          	lwu	s0,-100(sp)

000000008000c0cc <i_11918>:
    8000c0cc:	e9416283          	lwu	t0,-364(sp)

000000008000c0d0 <i_11919>:
    8000c0d0:	10416e83          	lwu	t4,260(sp)

000000008000c0d4 <i_11920>:
    8000c0d4:	00ee8663          	beq	t4,a4,8000c0e0 <i_11923>

000000008000c0d8 <i_11921>:
    8000c0d8:	01d00d13          	li	s10,29

000000008000c0dc <i_11922>:
    8000c0dc:	01ab923b          	sllw	tp,s7,s10

000000008000c0e0 <i_11923>:
    8000c0e0:	01100b93          	li	s7,17

000000008000c0e4 <i_11924>:
    8000c0e4:	017bdbbb          	srlw	s7,s7,s7

000000008000c0e8 <i_11925>:
    8000c0e8:	01709463          	bne	ra,s7,8000c0f0 <i_11927>

000000008000c0ec <i_11926>:
    8000c0ec:	417b8ebb          	subw	t4,s7,s7

000000008000c0f0 <i_11927>:
    8000c0f0:	037bf063          	bleu	s7,s7,8000c110 <i_11935>

000000008000c0f4 <i_11928>:
    8000c0f4:	03db8263          	beq	s7,t4,8000c118 <i_11937>

000000008000c0f8 <i_11929>:
    8000c0f8:	01713c23          	sd	s7,24(sp)

000000008000c0fc <i_11930>:
    8000c0fc:	0373033b          	mulw	t1,t1,s7

000000008000c100 <i_11931>:
    8000c100:	fe414503          	lbu	a0,-28(sp)

000000008000c104 <i_11932>:
    8000c104:	f9211a03          	lh	s4,-110(sp)

000000008000c108 <i_11933>:
    8000c108:	008d6463          	bltu	s10,s0,8000c110 <i_11935>

000000008000c10c <i_11934>:
    8000c10c:	03ab8463          	beq	s7,s10,8000c134 <i_11944>

000000008000c110 <i_11935>:
    8000c110:	00011303          	lh	t1,0(sp)

000000008000c114 <i_11936>:
    8000c114:	03ae8b33          	mul	s6,t4,s10

000000008000c118 <i_11937>:
    8000c118:	0da11923          	sh	s10,210(sp)

000000008000c11c <i_11938>:
    8000c11c:	00000013          	nop

000000008000c120 <i_11939>:
    8000c120:	00000013          	nop

000000008000c124 <i_11940>:
    8000c124:	ec611323          	sh	t1,-314(sp)

000000008000c128 <i_11941>:
    8000c128:	0b610423          	sb	s6,168(sp)

000000008000c12c <i_11942>:
    8000c12c:	03a65633          	divu	a2,a2,s10

000000008000c130 <i_11943>:
    8000c130:	00000013          	nop

000000008000c134 <i_11944>:
    8000c134:	00000013          	nop

000000008000c138 <i_11945>:
    8000c138:	0ac10223          	sb	a2,164(sp)

000000008000c13c <i_11946>:
    8000c13c:	7e500b13          	li	s6,2021

000000008000c140 <i_11947>:
    8000c140:	7e900d13          	li	s10,2025

000000008000c144 <i_11948>:
    8000c144:	e2813603          	ld	a2,-472(sp)

000000008000c148 <i_11949>:
    8000c148:	00000013          	nop

000000008000c14c <i_11950>:
    8000c14c:	00000013          	nop

000000008000c150 <i_11951>:
    8000c150:	001b0b13          	addi	s6,s6,1
    8000c154:	ff6d58e3          	ble	s6,s10,8000c144 <i_11948>

000000008000c158 <i_11952>:
    8000c158:	02c8c063          	blt	a7,a2,8000c178 <i_11960>

000000008000c15c <i_11953>:
    8000c15c:	03a65263          	ble	s10,a2,8000c180 <i_11962>

000000008000c160 <i_11954>:
    8000c160:	e2811603          	lh	a2,-472(sp)

000000008000c164 <i_11955>:
    8000c164:	c991a193          	slti	gp,gp,-871

000000008000c168 <i_11956>:
    8000c168:	02c66463          	bltu	a2,a2,8000c190 <i_11966>

000000008000c16c <i_11957>:
    8000c16c:	1b012683          	lw	a3,432(sp)

000000008000c170 <i_11958>:
    8000c170:	1ec102a3          	sb	a2,485(sp)

000000008000c174 <i_11959>:
    8000c174:	0061cc63          	blt	gp,t1,8000c18c <i_11965>

000000008000c178 <i_11960>:
    8000c178:	91118e13          	addi	t3,gp,-1775

000000008000c17c <i_11961>:
    8000c17c:	07013a03          	ld	s4,112(sp)

000000008000c180 <i_11962>:
    8000c180:	03ce07b3          	mul	a5,t3,t3

000000008000c184 <i_11963>:
    8000c184:	01300a13          	li	s4,19

000000008000c188 <i_11964>:
    8000c188:	4141d1bb          	sraw	gp,gp,s4

000000008000c18c <i_11965>:
    8000c18c:	eae11c23          	sh	a4,-328(sp)

000000008000c190 <i_11966>:
    8000c190:	12f11023          	sh	a5,288(sp)

000000008000c194 <i_11967>:
    8000c194:	10c12783          	lw	a5,268(sp)

000000008000c198 <i_11968>:
    8000c198:	00179a1b          	slliw	s4,a5,0x1

000000008000c19c <i_11969>:
    8000c19c:	40f187b3          	sub	a5,gp,a5

000000008000c1a0 <i_11970>:
    8000c1a0:	00fd41b3          	xor	gp,s10,a5

000000008000c1a4 <i_11971>:
    8000c1a4:	0c811583          	lh	a1,200(sp)

000000008000c1a8 <i_11972>:
    8000c1a8:	f6c15583          	lhu	a1,-148(sp)

000000008000c1ac <i_11973>:
    8000c1ac:	eb012183          	lw	gp,-336(sp)

000000008000c1b0 <i_11974>:
    8000c1b0:	00279f13          	slli	t5,a5,0x2

000000008000c1b4 <i_11975>:
    8000c1b4:	02a7b533          	mulhu	a0,a5,a0

000000008000c1b8 <i_11976>:
    8000c1b8:	02400093          	li	ra,36

000000008000c1bc <i_11977>:
    8000c1bc:	00119a33          	sll	s4,gp,ra

000000008000c1c0 <i_11978>:
    8000c1c0:	03e1ef33          	rem	t5,gp,t5

000000008000c1c4 <i_11979>:
    8000c1c4:	41e08533          	sub	a0,ra,t5

000000008000c1c8 <i_11980>:
    8000c1c8:	021109a3          	sb	ra,51(sp)

000000008000c1cc <i_11981>:
    8000c1cc:	14111323          	sh	ra,326(sp)

000000008000c1d0 <i_11982>:
    8000c1d0:	00000013          	nop

000000008000c1d4 <i_11983>:
    8000c1d4:	e4112a23          	sw	ra,-428(sp)

000000008000c1d8 <i_11984>:
    8000c1d8:	8bb00313          	li	t1,-1861

000000008000c1dc <i_11985>:
    8000c1dc:	8bf00e93          	li	t4,-1857

000000008000c1e0 <i_11986>:
    8000c1e0:	009f5c63          	ble	s1,t5,8000c1f8 <i_11992>

000000008000c1e4 <i_11987>:
    8000c1e4:	12a10483          	lb	s1,298(sp)

000000008000c1e8 <i_11988>:
    8000c1e8:	01ded263          	ble	t4,t4,8000c1ec <i_11989>

000000008000c1ec <i_11989>:
    8000c1ec:	17a12823          	sw	s10,368(sp)

000000008000c1f0 <i_11990>:
    8000c1f0:	11016083          	lwu	ra,272(sp)

000000008000c1f4 <i_11991>:
    8000c1f4:	09113c23          	sd	a7,152(sp)

000000008000c1f8 <i_11992>:
    8000c1f8:	02985d33          	divu	s10,a6,s1

000000008000c1fc <i_11993>:
    8000c1fc:	0270e4bb          	remw	s1,ra,t2

000000008000c200 <i_11994>:
    8000c200:	021d20b3          	mulhsu	ra,s10,ra

000000008000c204 <i_11995>:
    8000c204:	f5012683          	lw	a3,-176(sp)

000000008000c208 <i_11996>:
    8000c208:	fbe44493          	xori	s1,s0,-66

000000008000c20c <i_11997>:
    8000c20c:	00469093          	slli	ra,a3,0x4

000000008000c210 <i_11998>:
    8000c210:	02d69463          	bne	a3,a3,8000c238 <i_12007>

000000008000c214 <i_11999>:
    8000c214:	00130313          	addi	t1,t1,1 # 82999fb9 <_end+0x2989ba5>
    8000c218:	fdd344e3          	blt	t1,t4,8000c1e0 <i_11986>

000000008000c21c <i_12000>:
    8000c21c:	00000013          	nop

000000008000c220 <i_12001>:
    8000c220:	00000013          	nop

000000008000c224 <i_12002>:
    8000c224:	00000013          	nop

000000008000c228 <i_12003>:
    8000c228:	00000013          	nop

000000008000c22c <i_12004>:
    8000c22c:	00000013          	nop

000000008000c230 <i_12005>:
    8000c230:	00000013          	nop

000000008000c234 <i_12006>:
    8000c234:	00000013          	nop

000000008000c238 <i_12007>:
    8000c238:	00000013          	nop

000000008000c23c <i_12008>:
    8000c23c:	00000013          	nop

000000008000c240 <i_12009>:
    8000c240:	00000013          	nop
    8000c244:	0040006f          	j	8000c248 <tohost_exit>

000000008000c248 <tohost_exit>:
    8000c248:	00100113          	li	sp,1
    8000c24c:	01f11113          	slli	sp,sp,0x1f
    8000c250:	000101b7          	lui	gp,0x10
    8000c254:	00310133          	add	sp,sp,gp
    8000c258:	00100713          	li	a4,1
    8000c25c:	40e12023          	sw	a4,1024(sp)

000000008000c260 <loop>:
    8000c260:	0000006f          	j	8000c260 <loop>

Disassembly of section .data:

0000000080010000 <data>:
    80010000:	69ed                	lui	s3,0x1b
    80010002:	b61f fbaf 7845      	0x7845fbafb61f
    80010008:	9d86                	add	s11,s11,ra
    8001000a:	d4adab2f          	0xd4adab2f
    8001000e:	f426f48f          	0xf426f48f
    80010012:	11ea                	slli	gp,gp,0x3a
    80010014:	8f0adea3          	0x8f0adea3
    80010018:	39b6                	fld	fs3,360(sp)
    8001001a:	af15                	j	8001074e <_end+0x33a>
    8001001c:	e854                	sd	a3,144(s0)
    8001001e:	89b9                	andi	a1,a1,14
    80010020:	94b8                	0x94b8
    80010022:	fe6c                	sd	a1,248(a2)
    80010024:	32ec                	fld	fa1,224(a3)
    80010026:	3164                	fld	fs1,224(a0)
    80010028:	90b0                	0x90b0
    8001002a:	ba74                	fsd	fa3,240(a2)
    8001002c:	fb14                	sd	a3,48(a4)
    8001002e:	9bdfa447          	fmsub.d	fs0,ft11,ft9,fs3,rdn
    80010032:	22dc                	fld	fa5,128(a3)
    80010034:	426a495b          	0x426a495b
    80010038:	ee1b3acf          	fnmadd.q	fs5,fs6,ft1,ft9,rup
    8001003c:	a8d5                	j	80010130 <data+0x130>
    8001003e:	1056                	c.slli	zero,0x35
    80010040:	8779                	srai	a4,a4,0x1e
    80010042:	f164e6a7          	0xf164e6a7
    80010046:	1f76                	slli	t5,t5,0x3d
    80010048:	6a1a                	ld	s4,384(sp)
    8001004a:	6c8c                	ld	a1,24(s1)
    8001004c:	0eb5                	addi	t4,t4,13
    8001004e:	45bd                	li	a1,15
    80010050:	f5e2f49b          	0xf5e2f49b
    80010054:	d18c                	sw	a1,32(a1)
    80010056:	5440fda7          	0x5440fda7
    8001005a:	9f7e                	add	t5,t5,t6
    8001005c:	d7ea                	sw	s10,236(sp)
    8001005e:	a70ffc6f          	jal	s8,8000f2ce <loop+0x306e>
    80010062:	885f 5011 a057      	0xa0575011885f
    80010068:	9cde                	add	s9,s9,s7
    8001006a:	ad6a                	fsd	fs10,152(sp)
    8001006c:	fa444787          	flq	fa5,-92(s0)
    80010070:	b2ca                	fsd	fs2,352(sp)
    80010072:	9baa                	add	s7,s7,a0
    80010074:	afa1                	j	800107cc <_end+0x3b8>
    80010076:	7da2                	ld	s11,40(sp)
    80010078:	1026e97b          	0x1026e97b
    8001007c:	ef08                	sd	a0,24(a4)
    8001007e:	5cda                	lw	s9,180(sp)
    80010080:	f2575457          	0xf2575457
    80010084:	fe9d                	bnez	a3,8000ffc2 <loop+0x3d62>
    80010086:	72d5                	lui	t0,0xffff5
    80010088:	0fd2                	slli	t6,t6,0x14
    8001008a:	b392                	fsd	ft4,480(sp)
    8001008c:	4c10                	lw	a2,24(s0)
    8001008e:	04d3473b          	0x4d3473b
    80010092:	f2d6                	sd	s5,352(sp)
    80010094:	ec3de7a7          	0xec3de7a7
    80010098:	d6dd                	beqz	a3,80010046 <data+0x46>
    8001009a:	a710                	fsd	fa2,8(a4)
    8001009c:	bbc9                	j	8000fe6e <loop+0x3c0e>
    8001009e:	fb89                	bnez	a5,8000ffb0 <loop+0x3d50>
    800100a0:	68a8                	ld	a0,80(s1)
    800100a2:	d92f31cf          	fnmadd.s	ft3,ft10,fs2,fs11,rup
    800100a6:	d595                	beqz	a1,8000ffd2 <loop+0x3d72>
    800100a8:	a4ea                	fsd	fs10,72(sp)
    800100aa:	1cd1                	addi	s9,s9,-12
    800100ac:	2cbd                	addiw	s9,s9,15
    800100ae:	a7b37e33          	0xa7b37e33
    800100b2:	5ca4c6d3          	0x5ca4c6d3
    800100b6:	b519                	j	8000febc <loop+0x3c5c>
    800100b8:	dd31                	beqz	a0,80010014 <data+0x14>
    800100ba:	e815                	bnez	s0,800100ee <data+0xee>
    800100bc:	7911                	lui	s2,0xfffe4
    800100be:	29f9                	addiw	s3,s3,30
    800100c0:	47dc                	lw	a5,12(a5)
    800100c2:	50b1                	li	ra,-20
    800100c4:	2b50                	fld	fa2,144(a4)
    800100c6:	35b2                	fld	fa1,296(sp)
    800100c8:	bc560f93          	addi	t6,a2,-1083
    800100cc:	9185                	srli	a1,a1,0x21
    800100ce:	d2c5                	beqz	a3,8001006e <data+0x6e>
    800100d0:	f390                	sd	a2,32(a5)
    800100d2:	c290                	sw	a2,0(a3)
    800100d4:	53342f3b          	0x53342f3b
    800100d8:	6305                	lui	t1,0x1
    800100da:	7a4a                	ld	s4,176(sp)
    800100dc:	045b8a17          	auipc	s4,0x45b8
    800100e0:	580ee057          	0x580ee057
    800100e4:	a9035bcb          	fnmsub.s	fs7,ft6,fa6,fs5,unknown
    800100e8:	b2830963          	beq	t1,s0,8000f41a <loop+0x31ba>
    800100ec:	97ac                	0x97ac
    800100ee:	3063d66f          	jal	a2,8004d3f4 <_end+0x3cfe0>
    800100f2:	c745                	beqz	a4,8001019a <data+0x19a>
    800100f4:	9966                	add	s2,s2,s9
    800100f6:	acf466fb          	0xacf466fb
    800100fa:	af08                	fsd	fa0,24(a4)
    800100fc:	94c6da6f          	jal	s4,7ff7d248 <main-0x82db8>
    80010100:	8b30                	0x8b30
    80010102:	82878f7b          	0x82878f7b
    80010106:	845d10a3          	sh	t0,-1983(s10)
    8001010a:	0031                	c.nop	12
    8001010c:	f060                	sd	s0,224(s0)
    8001010e:	98b5                	andi	s1,s1,-19
    80010110:	7fa24af7          	0x7fa24af7
    80010114:	6449                	lui	s0,0x12
    80010116:	4006                	0x4006
    80010118:	c2a0                	sw	s0,64(a3)
    8001011a:	1d02                	slli	s10,s10,0x20
    8001011c:	ae98                	fsd	fa4,24(a3)
    8001011e:	ad522413          	slti	s0,tp,-1323
    80010122:	5af8                	lw	a4,116(a3)
    80010124:	a5f9                	j	800107f2 <_end+0x3de>
    80010126:	2ae3d2ab          	0x2ae3d2ab
    8001012a:	1bc86463          	bltu	a6,t3,800102d2 <data+0x2d2>
    8001012e:	66ff                	0x66ff
    80010130:	f9f6                	sd	t4,240(sp)
    80010132:	5d42                	lw	s10,48(sp)
    80010134:	01c9                	addi	gp,gp,18
    80010136:	a38e                	fsd	ft3,448(sp)
    80010138:	daa0                	sw	s0,112(a3)
    8001013a:	69697337          	lui	t1,0x69697
    8001013e:	968e                	add	a3,a3,gp
    80010140:	c5826caf          	0xc5826caf
    80010144:	596a                	lw	s2,184(sp)
    80010146:	3bc2                	fld	fs7,48(sp)
    80010148:	6c2e                	ld	s8,200(sp)
    8001014a:	d605                	beqz	a2,80010072 <data+0x72>
    8001014c:	4bdc                	lw	a5,20(a5)
    8001014e:	2bfc                	fld	fa5,208(a5)
    80010150:	1b07e50f          	0x1b07e50f
    80010154:	f730                	sd	a2,104(a4)
    80010156:	0c8c                	addi	a1,sp,592
    80010158:	ee3a                	sd	a4,280(sp)
    8001015a:	b736                	fsd	fa3,424(sp)
    8001015c:	26c0                	fld	fs0,136(a3)
    8001015e:	c5a4                	sw	s1,72(a1)
    80010160:	4d69                	li	s10,26
    80010162:	45f0                	lw	a2,76(a1)
    80010164:	4fa2                	lw	t6,8(sp)
    80010166:	cb00                	sw	s0,16(a4)
    80010168:	a081                	j	800101a8 <data+0x1a8>
    8001016a:	9469ed97          	auipc	s11,0x9469e
    8001016e:	835a                	mv	t1,s6
    80010170:	aa8e                	fsd	ft3,336(sp)
    80010172:	6780                	ld	s0,8(a5)
    80010174:	0cd9                	addi	s9,s9,22
    80010176:	ba1d                	j	8000faac <loop+0x384c>
    80010178:	d262                	sw	s8,36(sp)
    8001017a:	e0b6dd8b          	0xe0b6dd8b
    8001017e:	185d                	addi	a6,a6,-9
    80010180:	826a                	mv	tp,s10
    80010182:	0afe                	slli	s5,s5,0x1f
    80010184:	d41c                	sw	a5,40(s0)
    80010186:	7e30                	ld	a2,120(a2)
    80010188:	6535                	lui	a0,0xd
    8001018a:	c8581feb          	0xc8581feb
    8001018e:	397f                	0x397f
    80010190:	9376                	add	t1,t1,t4
    80010192:	f42d                	bnez	s0,800100fc <data+0xfc>
    80010194:	c0e0                	sw	s0,68(s1)
    80010196:	6ee28cd7          	0x6ee28cd7
    8001019a:	1d51                	addi	s10,s10,-12
    8001019c:	16fd                	addi	a3,a3,-1
    8001019e:	a1d1abf7          	0xa1d1abf7
    800101a2:	95c4                	0x95c4
    800101a4:	0074a80b          	0x74a80b
    800101a8:	4dc9                	li	s11,18
    800101aa:	c1c8                	sw	a0,4(a1)
    800101ac:	6125                	addi	sp,sp,96
    800101ae:	f951                	bnez	a0,80010142 <data+0x142>
    800101b0:	d490                	sw	a2,40(s1)
    800101b2:	0b8c                	addi	a1,sp,464
    800101b4:	4b1e                	lw	s6,196(sp)
    800101b6:	ef9a                	sd	t1,472(sp)
    800101b8:	7b62                	ld	s6,56(sp)
    800101ba:	13ff                	0x13ff
    800101bc:	6846                	ld	a6,80(sp)
    800101be:	ab01                	j	800106ce <_end+0x2ba>
    800101c0:	44e6                	lw	s1,88(sp)
    800101c2:	51f9                	li	gp,-2
    800101c4:	1c7501c3          	0x1c7501c3
    800101c8:	4d2c                	lw	a1,88(a0)
    800101ca:	1e24                	addi	s1,sp,824
    800101cc:	927c                	0x927c
    800101ce:	811a                	mv	sp,t1
    800101d0:	58d5                	li	a7,-11
    800101d2:	7c7bd7af          	0x7c7bd7af
    800101d6:	74ba                	ld	s1,424(sp)
    800101d8:	6e9f 5cdc c9df      	0xc9df5cdc6e9f
    800101de:	95768b27          	0x95768b27
    800101e2:	f20d                	bnez	a2,80010104 <data+0x104>
    800101e4:	d10d                	beqz	a0,80010106 <data+0x106>
    800101e6:	bb00                	fsd	fs0,48(a4)
    800101e8:	9bde                	add	s7,s7,s7
    800101ea:	5edf 5539 4877      	0x487755395edf
    800101f0:	a1711c2b          	0xa1711c2b
    800101f4:	6c1e3f37          	lui	t5,0x6c1e3
    800101f8:	c83d                	beqz	s0,8001026e <data+0x26e>
    800101fa:	cac9                	beqz	a3,8001028c <data+0x28c>
    800101fc:	23bd                	addiw	t2,t2,15
    800101fe:	3990                	fld	fa2,48(a1)
    80010200:	fb8e                	sd	gp,496(sp)
    80010202:	92df f33d d49e      	0xd49ef33d92df
    80010208:	06fe8287          	0x6fe8287
    8001020c:	052c                	addi	a1,sp,648
    8001020e:	f129                	bnez	a0,80010150 <data+0x150>
    80010210:	107c                	addi	a5,sp,44
    80010212:	c920                	sw	s0,80(a0)
    80010214:	19e1                	addi	s3,s3,-8
    80010216:	945326b7          	lui	a3,0x94532
    8001021a:	3cc2                	fld	fs9,48(sp)
    8001021c:	eb7b1ae7          	0xeb7b1ae7
    80010220:	8f6d                	and	a4,a4,a1
    80010222:	85a8                	0x85a8
    80010224:	7c05                	lui	s8,0xfffe1
    80010226:	fee4                	sd	s1,248(a3)
    80010228:	483b0163          	beq	s6,gp,800106aa <_end+0x296>
    8001022c:	237d                	addiw	t1,t1,31
    8001022e:	bd0a                	fsd	ft2,184(sp)
    80010230:	130e                	slli	t1,t1,0x23
    80010232:	2e350ec7          	fmsub.q	ft9,fa0,ft3,ft5,rne
    80010236:	17e5                	addi	a5,a5,-7
    80010238:	f0c5                	bnez	s1,800101d8 <data+0x1d8>
    8001023a:	c1ec                	sw	a1,68(a1)
    8001023c:	97b1                	srai	a5,a5,0x2c
    8001023e:	9851                	andi	s0,s0,-12
    80010240:	5cfc                	lw	a5,124(s1)
    80010242:	4a233c1b          	0x4a233c1b
    80010246:	5246                	lw	tp,112(sp)
    80010248:	9adc                	0x9adc
    8001024a:	1474156b          	0x1474156b
    8001024e:	11865477          	0x11865477
    80010252:	8e646917          	auipc	s2,0x8e646
    80010256:	9bdc                	0x9bdc
    80010258:	f7d1                	bnez	a5,800101e4 <data+0x1e4>
    8001025a:	3750                	fld	fa2,168(a4)
    8001025c:	4f67c437          	lui	s0,0x4f67c
    80010260:	347e                	fld	fs0,504(sp)
    80010262:	d9e2                	sw	s8,240(sp)
    80010264:	4c92                	lw	s9,4(sp)
    80010266:	9ec0                	0x9ec0
    80010268:	25a5                	addiw	a1,a1,9
    8001026a:	cb69                	beqz	a4,8001033c <data+0x33c>
    8001026c:	29ea                	fld	fs3,152(sp)
    8001026e:	d632                	sw	a2,44(sp)
    80010270:	494d                	li	s2,19
    80010272:	803b9dbf 051acad0 	0x51acad0803b9dbf
    8001027a:	cb21                	beqz	a4,800102ca <data+0x2ca>
    8001027c:	3a5f 6783 9ca3      	0x9ca367833a5f
    80010282:	0d8050eb          	0xd8050eb
    80010286:	a109                	j	80010688 <_end+0x274>
    80010288:	a141                	j	80010708 <_end+0x2f4>
    8001028a:	3ed9                	addiw	t4,t4,-10
    8001028c:	f834                	sd	a3,112(s0)
    8001028e:	4905                	li	s2,1
    80010290:	1541                	addi	a0,a0,-16
    80010292:	8a74                	0x8a74
    80010294:	7720                	ld	s0,104(a4)
    80010296:	c2f5                	beqz	a3,8001037a <data+0x37a>
    80010298:	b01a                	fsd	ft6,32(sp)
    8001029a:	56f74fbf 9a6b3abc 	0x9a6b3abc56f74fbf
    800102a2:	b2ea                	fsd	fs10,352(sp)
    800102a4:	c88b7be7          	0xc88b7be7
    800102a8:	3950                	fld	fa2,176(a0)
    800102aa:	fbfd                	bnez	a5,800102a0 <data+0x2a0>
    800102ac:	a410d4e3          	ble	ra,ra,8000fcf4 <loop+0x3a94>
    800102b0:	f0790913          	addi	s2,s2,-249 # e656159 <main-0x719a9ea7>
    800102b4:	ce41                	beqz	a2,8001034c <data+0x34c>
    800102b6:	7f855b6b          	0x7f855b6b
    800102ba:	4692b493          	sltiu	s1,t0,1129
    800102be:	3339                	addiw	t1,t1,-18
    800102c0:	1104                	addi	s1,sp,160
    800102c2:	73ba                	ld	t2,424(sp)
    800102c4:	42fc                	lw	a5,68(a3)
    800102c6:	ef21                	bnez	a4,8001031e <data+0x31e>
    800102c8:	42fd                	li	t0,31
    800102ca:	4074                	lw	a3,68(s0)
    800102cc:	fa52                	sd	s4,304(sp)
    800102ce:	199f c9f4 df99      	0xdf99c9f4199f
    800102d4:	a640                	fsd	fs0,136(a2)
    800102d6:	0e2c                	addi	a1,sp,792
    800102d8:	0489                	addi	s1,s1,2
    800102da:	d47f                	0xd47f
    800102dc:	bfc33527          	fsd	ft8,-1046(t1) # 69696bea <main-0x16969416>
    800102e0:	c9fd                	beqz	a1,800103d6 <data+0x3d6>
    800102e2:	6f05                	lui	t5,0x1
    800102e4:	d3a0                	sw	s0,96(a5)
    800102e6:	0876                	slli	a6,a6,0x1d
    800102e8:	63b6                	ld	t2,328(sp)
    800102ea:	cd08                	sw	a0,24(a0)
    800102ec:	d73c                	sw	a5,104(a4)
    800102ee:	384cb9c3          	fmadd.s	fs3,fs9,ft4,ft7,rup
    800102f2:	ab10                	fsd	fa2,16(a4)
    800102f4:	5a7c                	lw	a5,116(a2)
    800102f6:	bb39                	j	80010014 <data+0x14>
    800102f8:	757134e7          	0x757134e7
    800102fc:	b06e                	fsd	fs11,32(sp)
    800102fe:	a184                	fsd	fs1,0(a1)
    80010300:	868d                	srai	a3,a3,0x3
    80010302:	efea                	sd	s10,472(sp)
    80010304:	0416e793          	ori	a5,a3,65
    80010308:	cb69                	beqz	a4,800103da <data+0x3da>
    8001030a:	7aa2                	ld	s5,40(sp)
    8001030c:	3a79                	addiw	s4,s4,-2
    8001030e:	367f7677          	0x367f7677
    80010312:	c2ed                	beqz	a3,800103f4 <data+0x3f4>
    80010314:	5356                	lw	t1,116(sp)
    80010316:	f9e8                	sd	a0,240(a1)
    80010318:	826a                	mv	tp,s10
    8001031a:	1b91                	addi	s7,s7,-28
    8001031c:	e2dd8dc3          	fmadd.d	fs11,fs11,fa3,ft8,rne
    80010320:	9a56                	add	s4,s4,s5
    80010322:	3802                	fld	fa6,32(sp)
    80010324:	7751                	lui	a4,0xffff4
    80010326:	f50d                	bnez	a0,80010250 <data+0x250>
    80010328:	3196                	fld	ft3,352(sp)
    8001032a:	6dce98eb          	0x6dce98eb
    8001032e:	0539                	addi	a0,a0,14
    80010330:	130c                	addi	a1,sp,416
    80010332:	c39b35c7          	fmsub.d	fa1,fs6,fs9,fs8,rup
    80010336:	4320                	lw	s0,64(a4)
    80010338:	79993337          	lui	t1,0x79993
    8001033c:	bbd2                	fsd	fs4,496(sp)
    8001033e:	17be04fb          	0x17be04fb
    80010342:	4f66                	lw	t5,88(sp)
    80010344:	d448                	sw	a0,44(s0)
    80010346:	4b88                	lw	a0,16(a5)
    80010348:	d196                	sw	t0,224(sp)
    8001034a:	621a                	ld	tp,384(sp)
    8001034c:	b248                	fsd	fa0,160(a2)
    8001034e:	e0c0                	sd	s0,128(s1)
    80010350:	410a                	lw	sp,128(sp)
    80010352:	fd81                	bnez	a1,8001026a <data+0x26a>
    80010354:	c3d4                	sw	a3,4(a5)
    80010356:	dea4                	sw	s1,120(a3)
    80010358:	33a2                	fld	ft7,40(sp)
    8001035a:	b70d                	j	8001027c <data+0x27c>
    8001035c:	443a                	lw	s0,140(sp)
    8001035e:	55c2                	lw	a1,48(sp)
    80010360:	c3cf8303          	lb	t1,-964(t6)
    80010364:	22ad7ebb          	0x22ad7ebb
    80010368:	7bf5                	lui	s7,0xffffd
    8001036a:	10dc                	addi	a5,sp,100
    8001036c:	80d81d1b          	0x80d81d1b
    80010370:	7088                	ld	a0,32(s1)
    80010372:	d506                	sw	ra,168(sp)
    80010374:	aa8a                	fsd	ft2,336(sp)
    80010376:	f10a                	sd	sp,160(sp)
    80010378:	3a94edc7          	fmsub.d	fs11,fs1,fs1,ft7,unknown
    8001037c:	8002                	0x8002
    8001037e:	98ae                	add	a7,a7,a1
    80010380:	85f6                	mv	a1,t4
    80010382:	75f5                	lui	a1,0xffffd
    80010384:	c0ae                	sw	a1,64(sp)
    80010386:	2f706587          	0x2f706587
    8001038a:	f739                	bnez	a4,800102d8 <data+0x2d8>
    8001038c:	bf04                	fsd	fs1,56(a4)
    8001038e:	fb11                	bnez	a4,800102a2 <data+0x2a2>
    80010390:	8a20cca3          	0x8a20cca3
    80010394:	6175                	addi	sp,sp,368
    80010396:	9c38                	0x9c38
    80010398:	cf64                	sw	s1,92(a4)
    8001039a:	d288                	sw	a0,32(a3)
    8001039c:	ec0d                	bnez	s0,800103d6 <data+0x3d6>
    8001039e:	9ca5                	addw	s1,s1,s1
    800103a0:	78dd                	lui	a7,0xffff7
    800103a2:	f5b7a06b          	0xf5b7a06b
    800103a6:	b7e5                	j	8001038e <data+0x38e>
    800103a8:	784e                	ld	a6,240(sp)
    800103aa:	593d                	li	s2,-17
    800103ac:	b251                	j	8000fd30 <loop+0x3ad0>
    800103ae:	9e434cef          	jal	s9,7ff44592 <main-0xbba6e>
    800103b2:	bdd2                	fsd	fs4,248(sp)
    800103b4:	2524                	fld	fs1,72(a0)
    800103b6:	106c                	addi	a1,sp,44
    800103b8:	d6019fb3          	0xd6019fb3
    800103bc:	1ad2                	slli	s5,s5,0x34
    800103be:	290d23cf          	fnmadd.s	ft7,fs10,fa6,ft5,rdn
    800103c2:	d738                	sw	a4,104(a4)
    800103c4:	d335                	beqz	a4,80010328 <data+0x328>
    800103c6:	1c76                	slli	s8,s8,0x3d
    800103c8:	1eee                	slli	t4,t4,0x3b
    800103ca:	c185                	beqz	a1,800103ea <data+0x3ea>
    800103cc:	8ad59543          	fmadd.d	fa0,fa1,fa3,fa7,rtz
    800103d0:	7c2d                	lui	s8,0xfffeb
    800103d2:	57a9                	li	a5,-22
    800103d4:	21e0                	fld	fs0,192(a1)
    800103d6:	7d06                	ld	s10,96(sp)
    800103d8:	ccb4                	sw	a3,88(s1)
    800103da:	a821                	j	800103f2 <data+0x3f2>
    800103dc:	a37f                	0xa37f
    800103de:	3330                	fld	fa2,96(a4)
    800103e0:	e668                	sd	a0,200(a2)
    800103e2:	6218                	ld	a4,0(a2)
    800103e4:	8416                	mv	s0,t0
    800103e6:	c5b6                	sw	a3,200(sp)
    800103e8:	0d60                	addi	s0,sp,668
    800103ea:	f76c                	sd	a1,232(a4)
    800103ec:	6f84                	ld	s1,24(a5)
    800103ee:	cb52390f          	0xcb52390f
    800103f2:	50bd                	li	ra,-17
    800103f4:	f102                	sd	zero,160(sp)
    800103f6:	c5e0                	sw	s0,76(a1)
    800103f8:	1232                	slli	tp,tp,0x2c
    800103fa:	b1b0                	fsd	fa2,96(a1)
    800103fc:	0132                	slli	sp,sp,0xc
    800103fe:	ddb4                	sw	a3,120(a1)

Disassembly of section .tohost:

0000000080010400 <tohost>:
	...

0000000080010410 <fromhost>:
    80010410:	0000                	unimp
	...
